; ModuleID = 'source/fe/fe_dgp_monomial.cc'
source_filename = "source/fe/fe_dgp_monomial.cc"
target datalayout = "e-m:e-p270:32:32-p271:32:32-p272:64:64-i64:64-f80:128-n8:16:32:64-S128"
target triple = "x86_64-unknown-linux-gnu"

%"struct.boost::arg" = type { i8 }
%"struct.boost::arg.0" = type { i8 }
%"struct.boost::arg.2" = type { i8 }
%"struct.boost::arg.4" = type { i8 }
%"struct.boost::arg.6" = type { i8 }
%"struct.boost::arg.8" = type { i8 }
%"struct.boost::arg.10" = type { i8 }
%"struct.boost::arg.12" = type { i8 }
%"struct.boost::arg.14" = type { i8 }
%"class.std::ios_base::Init" = type { i8 }
%"class.dealii::FE_DGPMonomial" = type { %"class.dealii::FE_Poly" }
%"class.dealii::FE_Poly" = type { %"class.dealii::FiniteElement", %"class.dealii::PolynomialsP" }
%"class.dealii::FiniteElement" = type { %"class.dealii::Subscriptor", %"class.dealii::FiniteElementData", i8, %"class.std::vector", %"class.std::vector", %"class.dealii::FullMatrix", %"class.std::vector.20", %"class.std::vector.25", %"class.std::vector.20", %"class.std::vector.25", %"class.dealii::Table.32", %"class.std::vector.36", %"class.std::vector.41", %"class.std::vector.41", %"class.std::vector.46", %"class.std::vector.46", %"class.std::vector.54", %"class.std::vector.46", %"class.std::vector.59", %"class.std::vector.63", %"class.std::vector.54" }
%"class.dealii::Subscriptor" = type { i32 (...)**, i32, %"class.std::map", %"class.std::type_info"* }
%"class.std::map" = type { %"class.std::_Rb_tree" }
%"class.std::_Rb_tree" = type { %"struct.std::_Rb_tree<const char *, std::pair<const char *const, unsigned int>, std::_Select1st<std::pair<const char *const, unsigned int> >, std::less<const char *>, std::allocator<std::pair<const char *const, unsigned int> > >::_Rb_tree_impl" }
%"struct.std::_Rb_tree<const char *, std::pair<const char *const, unsigned int>, std::_Select1st<std::pair<const char *const, unsigned int> >, std::less<const char *>, std::allocator<std::pair<const char *const, unsigned int> > >::_Rb_tree_impl" = type { %"struct.std::_Rb_tree_key_compare", %"struct.std::_Rb_tree_header" }
%"struct.std::_Rb_tree_key_compare" = type { %"struct.std::less" }
%"struct.std::less" = type { i8 }
%"struct.std::_Rb_tree_header" = type { %"struct.std::_Rb_tree_node_base", i64 }
%"struct.std::_Rb_tree_node_base" = type { i32, %"struct.std::_Rb_tree_node_base"*, %"struct.std::_Rb_tree_node_base"*, %"struct.std::_Rb_tree_node_base"* }
%"class.std::type_info" = type { i32 (...)**, i8* }
%"class.dealii::FiniteElementData" = type { i32, i32, i32, i32, i32, i32, i32, i32, i32, i32, i32, i32, i32, i32, i32 }
%"class.std::vector" = type { %"struct.std::_Vector_base" }
%"struct.std::_Vector_base" = type { %"struct.std::_Vector_base<std::vector<dealii::FullMatrix<double>, std::allocator<dealii::FullMatrix<double> > >, std::allocator<std::vector<dealii::FullMatrix<double>, std::allocator<dealii::FullMatrix<double> > > > >::_Vector_impl" }
%"struct.std::_Vector_base<std::vector<dealii::FullMatrix<double>, std::allocator<dealii::FullMatrix<double> > >, std::allocator<std::vector<dealii::FullMatrix<double>, std::allocator<dealii::FullMatrix<double> > > > >::_Vector_impl" = type { %"struct.std::_Vector_base<std::vector<dealii::FullMatrix<double>, std::allocator<dealii::FullMatrix<double> > >, std::allocator<std::vector<dealii::FullMatrix<double>, std::allocator<dealii::FullMatrix<double> > > > >::_Vector_impl_data" }
%"struct.std::_Vector_base<std::vector<dealii::FullMatrix<double>, std::allocator<dealii::FullMatrix<double> > >, std::allocator<std::vector<dealii::FullMatrix<double>, std::allocator<dealii::FullMatrix<double> > > > >::_Vector_impl_data" = type { %"class.std::vector.19"*, %"class.std::vector.19"*, %"class.std::vector.19"* }
%"class.std::vector.19" = type { %"struct.std::_Vector_base.87" }
%"struct.std::_Vector_base.87" = type { %"struct.std::_Vector_base<dealii::FullMatrix<double>, std::allocator<dealii::FullMatrix<double> > >::_Vector_impl" }
%"struct.std::_Vector_base<dealii::FullMatrix<double>, std::allocator<dealii::FullMatrix<double> > >::_Vector_impl" = type { %"struct.std::_Vector_base<dealii::FullMatrix<double>, std::allocator<dealii::FullMatrix<double> > >::_Vector_impl_data" }
%"struct.std::_Vector_base<dealii::FullMatrix<double>, std::allocator<dealii::FullMatrix<double> > >::_Vector_impl_data" = type { %"class.dealii::FullMatrix"*, %"class.dealii::FullMatrix"*, %"class.dealii::FullMatrix"* }
%"class.dealii::FullMatrix" = type { %"class.dealii::Table.base", [4 x i8] }
%"class.dealii::Table.base" = type { %"class.dealii::TableBase.base" }
%"class.dealii::TableBase.base" = type <{ %"class.dealii::Subscriptor", double*, i32, %"class.dealii::TableIndices" }>
%"class.dealii::TableIndices" = type { %"class.dealii::TableIndicesBase" }
%"class.dealii::TableIndicesBase" = type { [2 x i32] }
%"class.std::vector.20" = type { %"struct.std::_Vector_base.21" }
%"struct.std::_Vector_base.21" = type { %"struct.std::_Vector_base<dealii::Point<3>, std::allocator<dealii::Point<3> > >::_Vector_impl" }
%"struct.std::_Vector_base<dealii::Point<3>, std::allocator<dealii::Point<3> > >::_Vector_impl" = type { %"struct.std::_Vector_base<dealii::Point<3>, std::allocator<dealii::Point<3> > >::_Vector_impl_data" }
%"struct.std::_Vector_base<dealii::Point<3>, std::allocator<dealii::Point<3> > >::_Vector_impl_data" = type { %"class.dealii::Point"*, %"class.dealii::Point"*, %"class.dealii::Point"* }
%"class.dealii::Point" = type { %"class.dealii::Tensor" }
%"class.dealii::Tensor" = type { [3 x double] }
%"class.std::vector.25" = type { %"struct.std::_Vector_base.26" }
%"struct.std::_Vector_base.26" = type { %"struct.std::_Vector_base<dealii::Point<2>, std::allocator<dealii::Point<2> > >::_Vector_impl" }
%"struct.std::_Vector_base<dealii::Point<2>, std::allocator<dealii::Point<2> > >::_Vector_impl" = type { %"struct.std::_Vector_base<dealii::Point<2>, std::allocator<dealii::Point<2> > >::_Vector_impl_data" }
%"struct.std::_Vector_base<dealii::Point<2>, std::allocator<dealii::Point<2> > >::_Vector_impl_data" = type { %"class.dealii::Point.30"*, %"class.dealii::Point.30"*, %"class.dealii::Point.30"* }
%"class.dealii::Point.30" = type { %"class.dealii::Tensor.31" }
%"class.dealii::Tensor.31" = type { [2 x double] }
%"class.dealii::Table.32" = type { %"class.dealii::TableBase.base.34", [4 x i8] }
%"class.dealii::TableBase.base.34" = type <{ %"class.dealii::Subscriptor", i32*, i32, %"class.dealii::TableIndices" }>
%"class.std::vector.36" = type { %"struct.std::_Vector_base.37" }
%"struct.std::_Vector_base.37" = type { %"struct.std::_Vector_base<int, std::allocator<int> >::_Vector_impl" }
%"struct.std::_Vector_base<int, std::allocator<int> >::_Vector_impl" = type { %"struct.std::_Vector_base<int, std::allocator<int> >::_Vector_impl_data" }
%"struct.std::_Vector_base<int, std::allocator<int> >::_Vector_impl_data" = type { i32*, i32*, i32* }
%"class.std::vector.41" = type { %"struct.std::_Vector_base.42" }
%"struct.std::_Vector_base.42" = type { %"struct.std::_Vector_base<std::pair<unsigned int, unsigned int>, std::allocator<std::pair<unsigned int, unsigned int> > >::_Vector_impl" }
%"struct.std::_Vector_base<std::pair<unsigned int, unsigned int>, std::allocator<std::pair<unsigned int, unsigned int> > >::_Vector_impl" = type { %"struct.std::_Vector_base<std::pair<unsigned int, unsigned int>, std::allocator<std::pair<unsigned int, unsigned int> > >::_Vector_impl_data" }
%"struct.std::_Vector_base<std::pair<unsigned int, unsigned int>, std::allocator<std::pair<unsigned int, unsigned int> > >::_Vector_impl_data" = type { %"struct.std::pair"*, %"struct.std::pair"*, %"struct.std::pair"* }
%"struct.std::pair" = type { i32, i32 }
%"class.std::vector.46" = type { %"struct.std::_Vector_base.47" }
%"struct.std::_Vector_base.47" = type { %"struct.std::_Vector_base<std::pair<std::pair<unsigned int, unsigned int>, unsigned int>, std::allocator<std::pair<std::pair<unsigned int, unsigned int>, unsigned int> > >::_Vector_impl" }
%"struct.std::_Vector_base<std::pair<std::pair<unsigned int, unsigned int>, unsigned int>, std::allocator<std::pair<std::pair<unsigned int, unsigned int>, unsigned int> > >::_Vector_impl" = type { %"struct.std::_Vector_base<std::pair<std::pair<unsigned int, unsigned int>, unsigned int>, std::allocator<std::pair<std::pair<unsigned int, unsigned int>, unsigned int> > >::_Vector_impl_data" }
%"struct.std::_Vector_base<std::pair<std::pair<unsigned int, unsigned int>, unsigned int>, std::allocator<std::pair<std::pair<unsigned int, unsigned int>, unsigned int> > >::_Vector_impl_data" = type { %"struct.std::pair.51"*, %"struct.std::pair.51"*, %"struct.std::pair.51"* }
%"struct.std::pair.51" = type { %"struct.std::pair", i32 }
%"class.std::vector.59" = type { %"struct.std::_Bvector_base" }
%"struct.std::_Bvector_base" = type { %"struct.std::_Bvector_base<std::allocator<bool> >::_Bvector_impl" }
%"struct.std::_Bvector_base<std::allocator<bool> >::_Bvector_impl" = type { %"struct.std::_Bvector_base<std::allocator<bool> >::_Bvector_impl_data" }
%"struct.std::_Bvector_base<std::allocator<bool> >::_Bvector_impl_data" = type { %"struct.std::_Bit_iterator", %"struct.std::_Bit_iterator", i64* }
%"struct.std::_Bit_iterator" = type { %"struct.std::_Bit_iterator_base.base", [4 x i8] }
%"struct.std::_Bit_iterator_base.base" = type <{ i64*, i32 }>
%"class.std::vector.63" = type { %"struct.std::_Vector_base.64" }
%"struct.std::_Vector_base.64" = type { %"struct.std::_Vector_base<std::vector<bool, std::allocator<bool> >, std::allocator<std::vector<bool, std::allocator<bool> > > >::_Vector_impl" }
%"struct.std::_Vector_base<std::vector<bool, std::allocator<bool> >, std::allocator<std::vector<bool, std::allocator<bool> > > >::_Vector_impl" = type { %"struct.std::_Vector_base<std::vector<bool, std::allocator<bool> >, std::allocator<std::vector<bool, std::allocator<bool> > > >::_Vector_impl_data" }
%"struct.std::_Vector_base<std::vector<bool, std::allocator<bool> >, std::allocator<std::vector<bool, std::allocator<bool> > > >::_Vector_impl_data" = type { %"class.std::vector.59"*, %"class.std::vector.59"*, %"class.std::vector.59"* }
%"class.std::vector.54" = type { %"struct.std::_Vector_base.55" }
%"struct.std::_Vector_base.55" = type { %"struct.std::_Vector_base<unsigned int, std::allocator<unsigned int> >::_Vector_impl" }
%"struct.std::_Vector_base<unsigned int, std::allocator<unsigned int> >::_Vector_impl" = type { %"struct.std::_Vector_base<unsigned int, std::allocator<unsigned int> >::_Vector_impl_data" }
%"struct.std::_Vector_base<unsigned int, std::allocator<unsigned int> >::_Vector_impl_data" = type { i32*, i32*, i32* }
%"class.dealii::PolynomialsP" = type <{ %"class.dealii::PolynomialSpace", i32, [4 x i8] }>
%"class.dealii::PolynomialSpace" = type { %"class.std::vector.68", i32, %"class.std::vector.54", %"class.std::vector.54" }
%"class.std::vector.68" = type { %"struct.std::_Vector_base.69" }
%"struct.std::_Vector_base.69" = type { %"struct.std::_Vector_base<dealii::Polynomials::Polynomial<double>, std::allocator<dealii::Polynomials::Polynomial<double> > >::_Vector_impl" }
%"struct.std::_Vector_base<dealii::Polynomials::Polynomial<double>, std::allocator<dealii::Polynomials::Polynomial<double> > >::_Vector_impl" = type { %"struct.std::_Vector_base<dealii::Polynomials::Polynomial<double>, std::allocator<dealii::Polynomials::Polynomial<double> > >::_Vector_impl_data" }
%"struct.std::_Vector_base<dealii::Polynomials::Polynomial<double>, std::allocator<dealii::Polynomials::Polynomial<double> > >::_Vector_impl_data" = type { %"class.dealii::Polynomials::Polynomial"*, %"class.dealii::Polynomials::Polynomial"*, %"class.dealii::Polynomials::Polynomial"* }
%"class.dealii::Polynomials::Polynomial" = type { %"class.dealii::Subscriptor", %"class.std::vector.73" }
%"class.std::vector.73" = type { %"struct.std::_Vector_base.74" }
%"struct.std::_Vector_base.74" = type { %"struct.std::_Vector_base<double, std::allocator<double> >::_Vector_impl" }
%"struct.std::_Vector_base<double, std::allocator<double> >::_Vector_impl" = type { %"struct.std::_Vector_base<double, std::allocator<double> >::_Vector_impl_data" }
%"struct.std::_Vector_base<double, std::allocator<double> >::_Vector_impl_data" = type { double*, double*, double* }
%"class.std::allocator.78" = type { i8 }
%"class.std::allocator.65" = type { i8 }
%"class.std::allocator.56" = type { i8 }
%"class.__gnu_cxx::new_allocator.79" = type { i8 }
%"class.__gnu_cxx::new_allocator.66" = type { i8 }
%"class.std::__cxx11::basic_string" = type { %"struct.std::__cxx11::basic_string<char, std::char_traits<char>, std::allocator<char> >::_Alloc_hider", i64, %union.anon }
%"struct.std::__cxx11::basic_string<char, std::char_traits<char>, std::allocator<char> >::_Alloc_hider" = type { i8* }
%union.anon = type { i64, [8 x i8] }
%"class.std::__cxx11::basic_ostringstream" = type { %"class.std::basic_ostream.base", %"class.std::__cxx11::basic_stringbuf", %"class.std::basic_ios" }
%"class.std::basic_ostream.base" = type { i32 (...)** }
%"class.std::__cxx11::basic_stringbuf" = type { %"class.std::basic_streambuf", i32, %"class.std::__cxx11::basic_string" }
%"class.std::basic_streambuf" = type { i32 (...)**, i8*, i8*, i8*, i8*, i8*, i8*, %"class.std::locale" }
%"class.std::locale" = type { %"class.std::locale::_Impl"* }
%"class.std::locale::_Impl" = type { i32, %"class.std::locale::facet"**, i64, %"class.std::locale::facet"**, i8** }
%"class.std::locale::facet" = type <{ i32 (...)**, i32, [4 x i8] }>
%"class.std::basic_ios" = type { %"class.std::ios_base", %"class.std::basic_ostream"*, i8, i8, %"class.std::basic_streambuf"*, %"class.std::ctype"*, %"class.std::num_put"*, %"class.std::num_get"* }
%"class.std::ios_base" = type { i32 (...)**, i64, i64, i32, i32, i32, %"struct.std::ios_base::_Callback_list"*, %"struct.std::ios_base::_Words", [8 x %"struct.std::ios_base::_Words"], i32, %"struct.std::ios_base::_Words"*, %"class.std::locale" }
%"struct.std::ios_base::_Callback_list" = type { %"struct.std::ios_base::_Callback_list"*, void (i32, %"class.std::ios_base"*, i32)*, i32, i32 }
%"struct.std::ios_base::_Words" = type { i8*, i64 }
%"class.std::basic_ostream" = type { i32 (...)**, %"class.std::basic_ios" }
%"class.std::ctype" = type <{ %"class.std::locale::facet.base", [4 x i8], %struct.__locale_struct*, i8, [7 x i8], i32*, i32*, i16*, i8, [256 x i8], [256 x i8], i8, [6 x i8] }>
%"class.std::locale::facet.base" = type <{ i32 (...)**, i32 }>
%struct.__locale_struct = type { [13 x %struct.__locale_data*], i16*, i32*, i32*, [13 x i8*] }
%struct.__locale_data = type opaque
%"class.std::num_put" = type { %"class.std::locale::facet.base", [4 x i8] }
%"class.std::num_get" = type { %"class.std::locale::facet.base", [4 x i8] }
%"class.std::allocator.22" = type { i8 }
%"class.dealii::Table" = type { %"class.dealii::TableBase.base", [4 x i8] }
%"class.dealii::TableBase" = type <{ %"class.dealii::Subscriptor", double*, i32, %"class.dealii::TableIndices", [4 x i8] }>
%"class.__gnu_cxx::new_allocator.23" = type { i8 }
%"class.dealii::FiniteElement<3, 3>::ExcInterpolationNotImplemented" = type { %"class.dealii::ExceptionBase.base", [4 x i8] }
%"class.dealii::ExceptionBase.base" = type <{ %"class.std::exception", i8*, i32, [4 x i8], i8*, i8*, i8*, i8**, i32 }>
%"class.std::exception" = type { i32 (...)** }
%"class.dealii::ExceptionBase" = type <{ %"class.std::exception", i8*, i32, [4 x i8], i8*, i8*, i8*, i8**, i32, [4 x i8] }>
%"class.__gnu_cxx::new_allocator.57" = type { i8 }
%"class.dealii::Tensor.84" = type { [3 x %"class.dealii::Tensor"] }
%"class.std::vector.85" = type opaque
%"class.dealii::VectorSlice" = type opaque
%"class.dealii::Mapping<3, 3>::InternalDataBase" = type opaque
%"class.dealii::Mapping" = type { %"class.dealii::Subscriptor" }
%"class.dealii::Quadrature" = type opaque
%"class.dealii::Quadrature.86" = type opaque
%"class.dealii::TriaIterator" = type opaque
%"class.dealii::FEValuesData" = type opaque
%"class.std::allocator.70" = type { i8 }
%"class.__gnu_cxx::new_allocator.71" = type { i8 }
%"class.std::allocator.43" = type { i8 }
%"class.__gnu_cxx::new_allocator.44" = type { i8 }
%"class.std::allocator.16" = type { i8 }
%"class.__gnu_cxx::__normal_iterator" = type { %"class.std::vector.19"* }
%"class.__gnu_cxx::__normal_iterator.92" = type { %"class.dealii::Point"* }
%"class.std::allocator.27" = type { i8 }
%"class.__gnu_cxx::__normal_iterator.93" = type { %"class.dealii::Point.30"* }
%"class.dealii::TableBase.33" = type <{ %"class.dealii::Subscriptor", i32*, i32, %"class.dealii::TableIndices", [4 x i8] }>
%"class.std::allocator.38" = type { i8 }
%"class.__gnu_cxx::__normal_iterator.94" = type { i32* }
%"class.__gnu_cxx::__normal_iterator.95" = type { %"struct.std::pair"* }
%"class.std::allocator.48" = type { i8 }
%"class.__gnu_cxx::__normal_iterator.96" = type { %"struct.std::pair.51"* }
%"class.__gnu_cxx::__normal_iterator.97" = type { i32* }
%"class.std::allocator.60" = type { i8 }
%"struct.std::_Bit_const_iterator" = type { %"struct.std::_Bit_iterator_base.base", [4 x i8] }
%"class.__gnu_cxx::__normal_iterator.98" = type { %"class.std::vector.59"* }
%"class.__gnu_cxx::new_allocator.17" = type { i8 }
%"class.std::allocator.88" = type { i8 }
%"class.__gnu_cxx::__normal_iterator.91" = type { %"class.dealii::FullMatrix"* }
%"class.__gnu_cxx::new_allocator.89" = type { i8 }
%"class.__gnu_cxx::new_allocator.28" = type { i8 }
%"struct.std::random_access_iterator_tag" = type { i8 }
%"class.__gnu_cxx::new_allocator.39" = type { i8 }
%"class.__gnu_cxx::new_allocator.49" = type { i8 }
%"class.__gnu_cxx::new_allocator.61" = type { i8 }
%"struct.std::_Bit_iterator_base" = type <{ i64*, i32, [4 x i8] }>
%"struct.std::iterator" = type { i8 }
%"struct.std::_Bit_reference" = type { i64*, i64 }
%"class.__gnu_cxx::__normal_iterator.99" = type { %"class.dealii::Polynomials::Polynomial"* }
%"class.std::allocator.75" = type { i8 }
%"class.__gnu_cxx::__normal_iterator.100" = type { double* }
%"class.__gnu_cxx::new_allocator.76" = type { i8 }

$_ZN5boost3argILi1EEC2Ev = comdat any

$_ZN5boost3argILi2EEC2Ev = comdat any

$_ZN5boost3argILi3EEC2Ev = comdat any

$_ZN5boost3argILi4EEC2Ev = comdat any

$_ZN5boost3argILi5EEC2Ev = comdat any

$_ZN5boost3argILi6EEC2Ev = comdat any

$_ZN5boost3argILi7EEC2Ev = comdat any

$_ZN5boost3argILi8EEC2Ev = comdat any

$_ZN5boost3argILi9EEC2Ev = comdat any

$_ZN6dealii14FE_DGPMonomialILi3EEC5Ej = comdat any

$_ZN6dealii14FE_DGPMonomialILi3EE14get_dpo_vectorEj = comdat any

$_ZNSaIbEC2Ev = comdat any

$_ZNSt6vectorIbSaIbEEC2EmRKbRKS0_ = comdat any

$_ZNSaISt6vectorIbSaIbEEEC2Ev = comdat any

$_ZNSt6vectorIS_IbSaIbEESaIS1_EEC2EmRKS1_RKS2_ = comdat any

$_ZNSt6vectorIS_IbSaIbEESaIS1_EED2Ev = comdat any

$_ZNSaISt6vectorIbSaIbEEED2Ev = comdat any

$_ZNSt6vectorIbSaIbEED2Ev = comdat any

$_ZNSaIbED2Ev = comdat any

$_ZNSt6vectorIjSaIjEED2Ev = comdat any

$_ZN6dealii12PolynomialsPILi3EED2Ev = comdat any

$_ZNK6dealii14FE_DGPMonomialILi3EE8get_nameB5cxx11Ev = comdat any

$_ZNK6dealii14FE_DGPMonomialILi3EE24hp_vertex_dof_identitiesERKNS_13FiniteElementILi3ELi3EEE = comdat any

$_ZNSt6vectorISt4pairIjjESaIS1_EEC2Ev = comdat any

$_ZNK6dealii14FE_DGPMonomialILi3EE22hp_line_dof_identitiesERKNS_13FiniteElementILi3ELi3EEE = comdat any

$_ZNK6dealii14FE_DGPMonomialILi3EE22hp_quad_dof_identitiesERKNS_13FiniteElementILi3ELi3EEE = comdat any

$_ZNK6dealii14FE_DGPMonomialILi3EE30hp_constraints_are_implementedEv = comdat any

$_ZNK6dealii14FE_DGPMonomialILi3EE27compare_for_face_dominationERKNS_13FiniteElementILi3ELi3EEE = comdat any

$_ZNK6dealii14FE_DGPMonomialILi3EE24get_interpolation_matrixERKNS_13FiniteElementILi3ELi3EEERNS_10FullMatrixIdEE = comdat any

$_ZNK6dealii10FullMatrixIdE1mEv = comdat any

$_ZNK6dealii10FullMatrixIdE1nEv = comdat any

$_ZN6dealii5TableILi2EdEclEjj = comdat any

$_ZNSaIN6dealii5PointILi3EEEEC2Ev = comdat any

$_ZNSt6vectorIN6dealii5PointILi3EEESaIS2_EEC2EmRKS3_ = comdat any

$_ZNSaIN6dealii5PointILi3EEEED2Ev = comdat any

$_ZNKSt6vectorIN6dealii5PointILi3EEESaIS2_EE4sizeEv = comdat any

$_ZNSt6vectorIN6dealii5PointILi3EEESaIS2_EEixEm = comdat any

$_ZN6dealii10FullMatrixIdED2Ev = comdat any

$_ZNSt6vectorIN6dealii5PointILi3EEESaIS2_EED2Ev = comdat any

$_ZNK6dealii14FE_DGPMonomialILi3EE29get_face_interpolation_matrixERKNS_13FiniteElementILi3ELi3EEERNS_10FullMatrixIdEE = comdat any

$_ZN6dealii18deal_II_exceptions9internals17issue_error_throwINS_13FiniteElementILi3ELi3EE30ExcInterpolationNotImplementedEEEvPKciS7_S7_S7_T_ = comdat any

$_ZN6dealii13FiniteElementILi3ELi3EE30ExcInterpolationNotImplementedC2Ev = comdat any

$_ZN6dealii13FiniteElementILi3ELi3EE30ExcInterpolationNotImplementedD2Ev = comdat any

$_ZNK6dealii14FE_DGPMonomialILi3EE32get_subface_interpolation_matrixERKNS_13FiniteElementILi3ELi3EEEjRNS_10FullMatrixIdEE = comdat any

$_ZNK6dealii14FE_DGPMonomialILi3EE18memory_consumptionEv = comdat any

$_ZNK6dealii14FE_DGPMonomialILi3EE5cloneEv = comdat any

$_ZN6dealii14FE_DGPMonomialILi3EEC2ERKS1_ = comdat any

$_ZNSaIjEC2Ev = comdat any

$_ZNSt6vectorIjSaIjEEC2EmRKjRKS0_ = comdat any

$_ZNSaIjED2Ev = comdat any

$_ZNSt6vectorIjSaIjEEixEm = comdat any

$_ZN6dealii14FE_DGPMonomialILi3EE22initialize_restrictionEv = comdat any

$_ZNK6dealii12PolynomialsPILi3EE19directional_degreesEjRA3_j = comdat any

$_ZN6dealii14FE_DGPMonomialILi3EED2Ev = comdat any

$_ZN6dealii14FE_DGPMonomialILi3EED0Ev = comdat any

$_ZN6dealii15PolynomialSpaceILi3EED2Ev = comdat any

$_ZNSt6vectorIN6dealii11Polynomials10PolynomialIdEESaIS3_EED2Ev = comdat any

$_ZSt8_DestroyIPN6dealii11Polynomials10PolynomialIdEES3_EvT_S5_RSaIT0_E = comdat any

$_ZNSt12_Vector_baseIN6dealii11Polynomials10PolynomialIdEESaIS3_EE19_M_get_Tp_allocatorEv = comdat any

$_ZNSt12_Vector_baseIN6dealii11Polynomials10PolynomialIdEESaIS3_EED2Ev = comdat any

$__clang_call_terminate = comdat any

$_ZSt8_DestroyIPN6dealii11Polynomials10PolynomialIdEEEvT_S5_ = comdat any

$_ZNSt12_Destroy_auxILb0EE9__destroyIPN6dealii11Polynomials10PolynomialIdEEEEvT_S7_ = comdat any

$_ZSt8_DestroyIN6dealii11Polynomials10PolynomialIdEEEvPT_ = comdat any

$_ZSt11__addressofIN6dealii11Polynomials10PolynomialIdEEEPT_RS4_ = comdat any

$_ZNSt12_Vector_baseIN6dealii11Polynomials10PolynomialIdEESaIS3_EE13_M_deallocateEPS3_m = comdat any

$_ZNSt12_Vector_baseIN6dealii11Polynomials10PolynomialIdEESaIS3_EE12_Vector_implD2Ev = comdat any

$_ZNSt16allocator_traitsISaIN6dealii11Polynomials10PolynomialIdEEEE10deallocateERS4_PS3_m = comdat any

$_ZN9__gnu_cxx13new_allocatorIN6dealii11Polynomials10PolynomialIdEEE10deallocateEPS4_m = comdat any

$_ZN9__gnu_cxx13new_allocatorIN6dealii11Polynomials10PolynomialIdEEED2Ev = comdat any

$_ZN6dealii7FE_PolyINS_12PolynomialsPILi3EEELi3ELi3EED2Ev = comdat any

$_ZN6dealii7FE_PolyINS_12PolynomialsPILi3EEELi3ELi3EED0Ev = comdat any

$_ZNSt12_Vector_baseISt4pairIjjESaIS1_EEC2Ev = comdat any

$_ZNSt12_Vector_baseISt4pairIjjESaIS1_EE12_Vector_implC2Ev = comdat any

$_ZNSaISt4pairIjjEEC2Ev = comdat any

$_ZNSt12_Vector_baseISt4pairIjjESaIS1_EE17_Vector_impl_dataC2Ev = comdat any

$_ZN9__gnu_cxx13new_allocatorISt4pairIjjEEC2Ev = comdat any

$_ZN6dealii5TableILi2EdED2Ev = comdat any

$_ZN6dealii9TableBaseILi2EdED2Ev = comdat any

$_ZN6dealii9TableBaseILi2EdED0Ev = comdat any

$_ZN6dealii13FiniteElementILi3ELi3EE30ExcInterpolationNotImplementedD0Ev = comdat any

$_ZN6dealii7FE_PolyINS_12PolynomialsPILi3EEELi3ELi3EEC2ERKS3_ = comdat any

$_ZN6dealii13FiniteElementILi3ELi3EEC2ERKS1_ = comdat any

$_ZN6dealii12PolynomialsPILi3EEC2ERKS1_ = comdat any

$_ZNSt6vectorIS_IN6dealii10FullMatrixIdEESaIS2_EESaIS4_EEC2ERKS6_ = comdat any

$_ZNSt6vectorIN6dealii5PointILi3EEESaIS2_EEC2ERKS4_ = comdat any

$_ZNSt6vectorIN6dealii5PointILi2EEESaIS2_EEC2ERKS4_ = comdat any

$_ZN6dealii5TableILi2EiEC2ERKS1_ = comdat any

$_ZNSt6vectorIiSaIiEEC2ERKS1_ = comdat any

$_ZNSt6vectorISt4pairIjjESaIS1_EEC2ERKS3_ = comdat any

$_ZNSt6vectorISt4pairIS0_IjjEjESaIS2_EEC2ERKS4_ = comdat any

$_ZNSt6vectorIjSaIjEEC2ERKS1_ = comdat any

$_ZNSt6vectorIbSaIbEEC2ERKS1_ = comdat any

$_ZNSt6vectorIS_IbSaIbEESaIS1_EEC2ERKS3_ = comdat any

$_ZNSt6vectorISt4pairIS0_IjjEjESaIS2_EED2Ev = comdat any

$_ZNSt6vectorISt4pairIjjESaIS1_EED2Ev = comdat any

$_ZNSt6vectorIiSaIiEED2Ev = comdat any

$_ZN6dealii5TableILi2EiED2Ev = comdat any

$_ZNSt6vectorIN6dealii5PointILi2EEESaIS2_EED2Ev = comdat any

$_ZNSt6vectorIS_IN6dealii10FullMatrixIdEESaIS2_EESaIS4_EED2Ev = comdat any

$_ZNKSt6vectorIS_IN6dealii10FullMatrixIdEESaIS2_EESaIS4_EE4sizeEv = comdat any

$_ZN9__gnu_cxx14__alloc_traitsISaISt6vectorIN6dealii10FullMatrixIdEESaIS4_EEES6_E17_S_select_on_copyERKS7_ = comdat any

$_ZNKSt12_Vector_baseISt6vectorIN6dealii10FullMatrixIdEESaIS3_EESaIS5_EE19_M_get_Tp_allocatorEv = comdat any

$_ZNSt12_Vector_baseISt6vectorIN6dealii10FullMatrixIdEESaIS3_EESaIS5_EEC2EmRKS6_ = comdat any

$_ZNSaISt6vectorIN6dealii10FullMatrixIdEESaIS2_EEED2Ev = comdat any

$_ZSt22__uninitialized_copy_aIN9__gnu_cxx17__normal_iteratorIPKSt6vectorIN6dealii10FullMatrixIdEESaIS5_EES2_IS7_SaIS7_EEEEPS7_S7_ET0_T_SF_SE_RSaIT1_E = comdat any

$_ZNKSt6vectorIS_IN6dealii10FullMatrixIdEESaIS2_EESaIS4_EE5beginEv = comdat any

$_ZNKSt6vectorIS_IN6dealii10FullMatrixIdEESaIS2_EESaIS4_EE3endEv = comdat any

$_ZNSt12_Vector_baseISt6vectorIN6dealii10FullMatrixIdEESaIS3_EESaIS5_EE19_M_get_Tp_allocatorEv = comdat any

$_ZNSt12_Vector_baseISt6vectorIN6dealii10FullMatrixIdEESaIS3_EESaIS5_EED2Ev = comdat any

$_ZNSt16allocator_traitsISaISt6vectorIN6dealii10FullMatrixIdEESaIS3_EEEE37select_on_container_copy_constructionERKS6_ = comdat any

$_ZNSaISt6vectorIN6dealii10FullMatrixIdEESaIS2_EEEC2ERKS5_ = comdat any

$_ZN9__gnu_cxx13new_allocatorISt6vectorIN6dealii10FullMatrixIdEESaIS4_EEEC2ERKS7_ = comdat any

$_ZNSt12_Vector_baseISt6vectorIN6dealii10FullMatrixIdEESaIS3_EESaIS5_EE12_Vector_implC2ERKS6_ = comdat any

$_ZNSt12_Vector_baseISt6vectorIN6dealii10FullMatrixIdEESaIS3_EESaIS5_EE17_M_create_storageEm = comdat any

$_ZNSt12_Vector_baseISt6vectorIN6dealii10FullMatrixIdEESaIS3_EESaIS5_EE12_Vector_implD2Ev = comdat any

$_ZNSt12_Vector_baseISt6vectorIN6dealii10FullMatrixIdEESaIS3_EESaIS5_EE17_Vector_impl_dataC2Ev = comdat any

$_ZNSt12_Vector_baseISt6vectorIN6dealii10FullMatrixIdEESaIS3_EESaIS5_EE11_M_allocateEm = comdat any

$_ZNSt16allocator_traitsISaISt6vectorIN6dealii10FullMatrixIdEESaIS3_EEEE8allocateERS6_m = comdat any

$_ZN9__gnu_cxx13new_allocatorISt6vectorIN6dealii10FullMatrixIdEESaIS4_EEE8allocateEmPKv = comdat any

$_ZNK9__gnu_cxx13new_allocatorISt6vectorIN6dealii10FullMatrixIdEESaIS4_EEE11_M_max_sizeEv = comdat any

$_ZN9__gnu_cxx13new_allocatorISt6vectorIN6dealii10FullMatrixIdEESaIS4_EEED2Ev = comdat any

$_ZSt18uninitialized_copyIN9__gnu_cxx17__normal_iteratorIPKSt6vectorIN6dealii10FullMatrixIdEESaIS5_EES2_IS7_SaIS7_EEEEPS7_ET0_T_SF_SE_ = comdat any

$_ZNSt20__uninitialized_copyILb0EE13__uninit_copyIN9__gnu_cxx17__normal_iteratorIPKSt6vectorIN6dealii10FullMatrixIdEESaIS7_EES4_IS9_SaIS9_EEEEPS9_EET0_T_SH_SG_ = comdat any

$_ZN9__gnu_cxxneIPKSt6vectorIN6dealii10FullMatrixIdEESaIS4_EES1_IS6_SaIS6_EEEEbRKNS_17__normal_iteratorIT_T0_EESG_ = comdat any

$_ZSt10_ConstructISt6vectorIN6dealii10FullMatrixIdEESaIS3_EEJRKS5_EEvPT_DpOT0_ = comdat any

$_ZSt11__addressofISt6vectorIN6dealii10FullMatrixIdEESaIS3_EEEPT_RS6_ = comdat any

$_ZNK9__gnu_cxx17__normal_iteratorIPKSt6vectorIN6dealii10FullMatrixIdEESaIS4_EES1_IS6_SaIS6_EEEdeEv = comdat any

$_ZN9__gnu_cxx17__normal_iteratorIPKSt6vectorIN6dealii10FullMatrixIdEESaIS4_EES1_IS6_SaIS6_EEEppEv = comdat any

$_ZSt8_DestroyIPSt6vectorIN6dealii10FullMatrixIdEESaIS3_EEEvT_S7_ = comdat any

$_ZNK9__gnu_cxx17__normal_iteratorIPKSt6vectorIN6dealii10FullMatrixIdEESaIS4_EES1_IS6_SaIS6_EEE4baseEv = comdat any

$_ZSt7forwardIRKSt6vectorIN6dealii10FullMatrixIdEESaIS3_EEEOT_RNSt16remove_referenceIS8_E4typeE = comdat any

$_ZNSt6vectorIN6dealii10FullMatrixIdEESaIS2_EEC2ERKS4_ = comdat any

$_ZNKSt6vectorIN6dealii10FullMatrixIdEESaIS2_EE4sizeEv = comdat any

$_ZN9__gnu_cxx14__alloc_traitsISaIN6dealii10FullMatrixIdEEES3_E17_S_select_on_copyERKS4_ = comdat any

$_ZNKSt12_Vector_baseIN6dealii10FullMatrixIdEESaIS2_EE19_M_get_Tp_allocatorEv = comdat any

$_ZNSt12_Vector_baseIN6dealii10FullMatrixIdEESaIS2_EEC2EmRKS3_ = comdat any

$_ZNSaIN6dealii10FullMatrixIdEEED2Ev = comdat any

$_ZSt22__uninitialized_copy_aIN9__gnu_cxx17__normal_iteratorIPKN6dealii10FullMatrixIdEESt6vectorIS4_SaIS4_EEEEPS4_S4_ET0_T_SD_SC_RSaIT1_E = comdat any

$_ZNKSt6vectorIN6dealii10FullMatrixIdEESaIS2_EE5beginEv = comdat any

$_ZNKSt6vectorIN6dealii10FullMatrixIdEESaIS2_EE3endEv = comdat any

$_ZNSt12_Vector_baseIN6dealii10FullMatrixIdEESaIS2_EE19_M_get_Tp_allocatorEv = comdat any

$_ZNSt12_Vector_baseIN6dealii10FullMatrixIdEESaIS2_EED2Ev = comdat any

$_ZNSt16allocator_traitsISaIN6dealii10FullMatrixIdEEEE37select_on_container_copy_constructionERKS3_ = comdat any

$_ZNSaIN6dealii10FullMatrixIdEEEC2ERKS2_ = comdat any

$_ZN9__gnu_cxx13new_allocatorIN6dealii10FullMatrixIdEEEC2ERKS4_ = comdat any

$_ZNSt12_Vector_baseIN6dealii10FullMatrixIdEESaIS2_EE12_Vector_implC2ERKS3_ = comdat any

$_ZNSt12_Vector_baseIN6dealii10FullMatrixIdEESaIS2_EE17_M_create_storageEm = comdat any

$_ZNSt12_Vector_baseIN6dealii10FullMatrixIdEESaIS2_EE12_Vector_implD2Ev = comdat any

$_ZNSt12_Vector_baseIN6dealii10FullMatrixIdEESaIS2_EE17_Vector_impl_dataC2Ev = comdat any

$_ZNSt12_Vector_baseIN6dealii10FullMatrixIdEESaIS2_EE11_M_allocateEm = comdat any

$_ZNSt16allocator_traitsISaIN6dealii10FullMatrixIdEEEE8allocateERS3_m = comdat any

$_ZN9__gnu_cxx13new_allocatorIN6dealii10FullMatrixIdEEE8allocateEmPKv = comdat any

$_ZNK9__gnu_cxx13new_allocatorIN6dealii10FullMatrixIdEEE11_M_max_sizeEv = comdat any

$_ZN9__gnu_cxx13new_allocatorIN6dealii10FullMatrixIdEEED2Ev = comdat any

$_ZSt18uninitialized_copyIN9__gnu_cxx17__normal_iteratorIPKN6dealii10FullMatrixIdEESt6vectorIS4_SaIS4_EEEEPS4_ET0_T_SD_SC_ = comdat any

$_ZNSt20__uninitialized_copyILb0EE13__uninit_copyIN9__gnu_cxx17__normal_iteratorIPKN6dealii10FullMatrixIdEESt6vectorIS6_SaIS6_EEEEPS6_EET0_T_SF_SE_ = comdat any

$_ZN9__gnu_cxxneIPKN6dealii10FullMatrixIdEESt6vectorIS3_SaIS3_EEEEbRKNS_17__normal_iteratorIT_T0_EESE_ = comdat any

$_ZSt10_ConstructIN6dealii10FullMatrixIdEEJRKS2_EEvPT_DpOT0_ = comdat any

$_ZSt11__addressofIN6dealii10FullMatrixIdEEEPT_RS3_ = comdat any

$_ZNK9__gnu_cxx17__normal_iteratorIPKN6dealii10FullMatrixIdEESt6vectorIS3_SaIS3_EEEdeEv = comdat any

$_ZN9__gnu_cxx17__normal_iteratorIPKN6dealii10FullMatrixIdEESt6vectorIS3_SaIS3_EEEppEv = comdat any

$_ZSt8_DestroyIPN6dealii10FullMatrixIdEEEvT_S4_ = comdat any

$_ZNK9__gnu_cxx17__normal_iteratorIPKN6dealii10FullMatrixIdEESt6vectorIS3_SaIS3_EEE4baseEv = comdat any

$_ZSt7forwardIRKN6dealii10FullMatrixIdEEEOT_RNSt16remove_referenceIS5_E4typeE = comdat any

$_ZNSt12_Destroy_auxILb0EE9__destroyIPN6dealii10FullMatrixIdEEEEvT_S6_ = comdat any

$_ZSt8_DestroyIN6dealii10FullMatrixIdEEEvPT_ = comdat any

$_ZN9__gnu_cxx17__normal_iteratorIPKN6dealii10FullMatrixIdEESt6vectorIS3_SaIS3_EEEC2ERKS5_ = comdat any

$_ZNSt12_Vector_baseIN6dealii10FullMatrixIdEESaIS2_EE13_M_deallocateEPS2_m = comdat any

$_ZNSt16allocator_traitsISaIN6dealii10FullMatrixIdEEEE10deallocateERS3_PS2_m = comdat any

$_ZN9__gnu_cxx13new_allocatorIN6dealii10FullMatrixIdEEE10deallocateEPS3_m = comdat any

$_ZNSt12_Destroy_auxILb0EE9__destroyIPSt6vectorIN6dealii10FullMatrixIdEESaIS5_EEEEvT_S9_ = comdat any

$_ZSt8_DestroyISt6vectorIN6dealii10FullMatrixIdEESaIS3_EEEvPT_ = comdat any

$_ZNSt6vectorIN6dealii10FullMatrixIdEESaIS2_EED2Ev = comdat any

$_ZSt8_DestroyIPN6dealii10FullMatrixIdEES2_EvT_S4_RSaIT0_E = comdat any

$_ZN9__gnu_cxx17__normal_iteratorIPKSt6vectorIN6dealii10FullMatrixIdEESaIS4_EES1_IS6_SaIS6_EEEC2ERKS8_ = comdat any

$_ZNSt12_Vector_baseISt6vectorIN6dealii10FullMatrixIdEESaIS3_EESaIS5_EE13_M_deallocateEPS5_m = comdat any

$_ZNSt16allocator_traitsISaISt6vectorIN6dealii10FullMatrixIdEESaIS3_EEEE10deallocateERS6_PS5_m = comdat any

$_ZN9__gnu_cxx13new_allocatorISt6vectorIN6dealii10FullMatrixIdEESaIS4_EEE10deallocateEPS6_m = comdat any

$_ZN9__gnu_cxx14__alloc_traitsISaIN6dealii5PointILi3EEEES3_E17_S_select_on_copyERKS4_ = comdat any

$_ZNKSt12_Vector_baseIN6dealii5PointILi3EEESaIS2_EE19_M_get_Tp_allocatorEv = comdat any

$_ZNSt12_Vector_baseIN6dealii5PointILi3EEESaIS2_EEC2EmRKS3_ = comdat any

$_ZSt22__uninitialized_copy_aIN9__gnu_cxx17__normal_iteratorIPKN6dealii5PointILi3EEESt6vectorIS4_SaIS4_EEEEPS4_S4_ET0_T_SD_SC_RSaIT1_E = comdat any

$_ZNKSt6vectorIN6dealii5PointILi3EEESaIS2_EE5beginEv = comdat any

$_ZNKSt6vectorIN6dealii5PointILi3EEESaIS2_EE3endEv = comdat any

$_ZNSt12_Vector_baseIN6dealii5PointILi3EEESaIS2_EE19_M_get_Tp_allocatorEv = comdat any

$_ZNSt12_Vector_baseIN6dealii5PointILi3EEESaIS2_EED2Ev = comdat any

$_ZNSt16allocator_traitsISaIN6dealii5PointILi3EEEEE37select_on_container_copy_constructionERKS3_ = comdat any

$_ZNSaIN6dealii5PointILi3EEEEC2ERKS2_ = comdat any

$_ZN9__gnu_cxx13new_allocatorIN6dealii5PointILi3EEEEC2ERKS4_ = comdat any

$_ZNSt12_Vector_baseIN6dealii5PointILi3EEESaIS2_EE12_Vector_implC2ERKS3_ = comdat any

$_ZNSt12_Vector_baseIN6dealii5PointILi3EEESaIS2_EE17_M_create_storageEm = comdat any

$_ZNSt12_Vector_baseIN6dealii5PointILi3EEESaIS2_EE12_Vector_implD2Ev = comdat any

$_ZNSt12_Vector_baseIN6dealii5PointILi3EEESaIS2_EE17_Vector_impl_dataC2Ev = comdat any

$_ZNSt12_Vector_baseIN6dealii5PointILi3EEESaIS2_EE11_M_allocateEm = comdat any

$_ZNSt16allocator_traitsISaIN6dealii5PointILi3EEEEE8allocateERS3_m = comdat any

$_ZN9__gnu_cxx13new_allocatorIN6dealii5PointILi3EEEE8allocateEmPKv = comdat any

$_ZNK9__gnu_cxx13new_allocatorIN6dealii5PointILi3EEEE11_M_max_sizeEv = comdat any

$_ZN9__gnu_cxx13new_allocatorIN6dealii5PointILi3EEEED2Ev = comdat any

$_ZSt18uninitialized_copyIN9__gnu_cxx17__normal_iteratorIPKN6dealii5PointILi3EEESt6vectorIS4_SaIS4_EEEEPS4_ET0_T_SD_SC_ = comdat any

$_ZNSt20__uninitialized_copyILb0EE13__uninit_copyIN9__gnu_cxx17__normal_iteratorIPKN6dealii5PointILi3EEESt6vectorIS6_SaIS6_EEEEPS6_EET0_T_SF_SE_ = comdat any

$_ZN9__gnu_cxxneIPKN6dealii5PointILi3EEESt6vectorIS3_SaIS3_EEEEbRKNS_17__normal_iteratorIT_T0_EESE_ = comdat any

$_ZSt10_ConstructIN6dealii5PointILi3EEEJRKS2_EEvPT_DpOT0_ = comdat any

$_ZSt11__addressofIN6dealii5PointILi3EEEEPT_RS3_ = comdat any

$_ZNK9__gnu_cxx17__normal_iteratorIPKN6dealii5PointILi3EEESt6vectorIS3_SaIS3_EEEdeEv = comdat any

$_ZN9__gnu_cxx17__normal_iteratorIPKN6dealii5PointILi3EEESt6vectorIS3_SaIS3_EEEppEv = comdat any

$_ZSt8_DestroyIPN6dealii5PointILi3EEEEvT_S4_ = comdat any

$_ZNK9__gnu_cxx17__normal_iteratorIPKN6dealii5PointILi3EEESt6vectorIS3_SaIS3_EEE4baseEv = comdat any

$_ZSt7forwardIRKN6dealii5PointILi3EEEEOT_RNSt16remove_referenceIS5_E4typeE = comdat any

$_ZN6dealii5PointILi3EEC2ERKS1_ = comdat any

$_ZN6dealii6TensorILi1ELi3EEC2ERKS1_ = comdat any

$_ZNSt12_Destroy_auxILb1EE9__destroyIPN6dealii5PointILi3EEEEEvT_S6_ = comdat any

$_ZN9__gnu_cxx17__normal_iteratorIPKN6dealii5PointILi3EEESt6vectorIS3_SaIS3_EEEC2ERKS5_ = comdat any

$_ZNSt12_Vector_baseIN6dealii5PointILi3EEESaIS2_EE13_M_deallocateEPS2_m = comdat any

$_ZNSt16allocator_traitsISaIN6dealii5PointILi3EEEEE10deallocateERS3_PS2_m = comdat any

$_ZN9__gnu_cxx13new_allocatorIN6dealii5PointILi3EEEE10deallocateEPS3_m = comdat any

$_ZNKSt6vectorIN6dealii5PointILi2EEESaIS2_EE4sizeEv = comdat any

$_ZN9__gnu_cxx14__alloc_traitsISaIN6dealii5PointILi2EEEES3_E17_S_select_on_copyERKS4_ = comdat any

$_ZNKSt12_Vector_baseIN6dealii5PointILi2EEESaIS2_EE19_M_get_Tp_allocatorEv = comdat any

$_ZNSt12_Vector_baseIN6dealii5PointILi2EEESaIS2_EEC2EmRKS3_ = comdat any

$_ZNSaIN6dealii5PointILi2EEEED2Ev = comdat any

$_ZSt22__uninitialized_copy_aIN9__gnu_cxx17__normal_iteratorIPKN6dealii5PointILi2EEESt6vectorIS4_SaIS4_EEEEPS4_S4_ET0_T_SD_SC_RSaIT1_E = comdat any

$_ZNKSt6vectorIN6dealii5PointILi2EEESaIS2_EE5beginEv = comdat any

$_ZNKSt6vectorIN6dealii5PointILi2EEESaIS2_EE3endEv = comdat any

$_ZNSt12_Vector_baseIN6dealii5PointILi2EEESaIS2_EE19_M_get_Tp_allocatorEv = comdat any

$_ZNSt12_Vector_baseIN6dealii5PointILi2EEESaIS2_EED2Ev = comdat any

$_ZNSt16allocator_traitsISaIN6dealii5PointILi2EEEEE37select_on_container_copy_constructionERKS3_ = comdat any

$_ZNSaIN6dealii5PointILi2EEEEC2ERKS2_ = comdat any

$_ZN9__gnu_cxx13new_allocatorIN6dealii5PointILi2EEEEC2ERKS4_ = comdat any

$_ZNSt12_Vector_baseIN6dealii5PointILi2EEESaIS2_EE12_Vector_implC2ERKS3_ = comdat any

$_ZNSt12_Vector_baseIN6dealii5PointILi2EEESaIS2_EE17_M_create_storageEm = comdat any

$_ZNSt12_Vector_baseIN6dealii5PointILi2EEESaIS2_EE12_Vector_implD2Ev = comdat any

$_ZNSt12_Vector_baseIN6dealii5PointILi2EEESaIS2_EE17_Vector_impl_dataC2Ev = comdat any

$_ZNSt12_Vector_baseIN6dealii5PointILi2EEESaIS2_EE11_M_allocateEm = comdat any

$_ZNSt16allocator_traitsISaIN6dealii5PointILi2EEEEE8allocateERS3_m = comdat any

$_ZN9__gnu_cxx13new_allocatorIN6dealii5PointILi2EEEE8allocateEmPKv = comdat any

$_ZNK9__gnu_cxx13new_allocatorIN6dealii5PointILi2EEEE11_M_max_sizeEv = comdat any

$_ZN9__gnu_cxx13new_allocatorIN6dealii5PointILi2EEEED2Ev = comdat any

$_ZSt18uninitialized_copyIN9__gnu_cxx17__normal_iteratorIPKN6dealii5PointILi2EEESt6vectorIS4_SaIS4_EEEEPS4_ET0_T_SD_SC_ = comdat any

$_ZNSt20__uninitialized_copyILb0EE13__uninit_copyIN9__gnu_cxx17__normal_iteratorIPKN6dealii5PointILi2EEESt6vectorIS6_SaIS6_EEEEPS6_EET0_T_SF_SE_ = comdat any

$_ZN9__gnu_cxxneIPKN6dealii5PointILi2EEESt6vectorIS3_SaIS3_EEEEbRKNS_17__normal_iteratorIT_T0_EESE_ = comdat any

$_ZSt10_ConstructIN6dealii5PointILi2EEEJRKS2_EEvPT_DpOT0_ = comdat any

$_ZSt11__addressofIN6dealii5PointILi2EEEEPT_RS3_ = comdat any

$_ZNK9__gnu_cxx17__normal_iteratorIPKN6dealii5PointILi2EEESt6vectorIS3_SaIS3_EEEdeEv = comdat any

$_ZN9__gnu_cxx17__normal_iteratorIPKN6dealii5PointILi2EEESt6vectorIS3_SaIS3_EEEppEv = comdat any

$_ZSt8_DestroyIPN6dealii5PointILi2EEEEvT_S4_ = comdat any

$_ZNK9__gnu_cxx17__normal_iteratorIPKN6dealii5PointILi2EEESt6vectorIS3_SaIS3_EEE4baseEv = comdat any

$_ZSt7forwardIRKN6dealii5PointILi2EEEEOT_RNSt16remove_referenceIS5_E4typeE = comdat any

$_ZN6dealii5PointILi2EEC2ERKS1_ = comdat any

$_ZN6dealii6TensorILi1ELi2EEC2ERKS1_ = comdat any

$_ZNSt12_Destroy_auxILb1EE9__destroyIPN6dealii5PointILi2EEEEEvT_S6_ = comdat any

$_ZN9__gnu_cxx17__normal_iteratorIPKN6dealii5PointILi2EEESt6vectorIS3_SaIS3_EEEC2ERKS5_ = comdat any

$_ZNSt12_Vector_baseIN6dealii5PointILi2EEESaIS2_EE13_M_deallocateEPS2_m = comdat any

$_ZNSt16allocator_traitsISaIN6dealii5PointILi2EEEEE10deallocateERS3_PS2_m = comdat any

$_ZN9__gnu_cxx13new_allocatorIN6dealii5PointILi2EEEE10deallocateEPS3_m = comdat any

$_ZN6dealii9TableBaseILi2EiEC2ERKS1_ = comdat any

$_ZN6dealii5TableILi2EiED0Ev = comdat any

$_ZN6dealii12TableIndicesILi2EEC2Ev = comdat any

$_ZN6dealii9TableBaseILi2EiE6reinitERKNS_12TableIndicesILi2EEE = comdat any

$_ZNK6dealii9TableBaseILi2EiE10n_elementsEv = comdat any

$_ZN6dealii9TableBaseILi2EiE4fillIiEEvPKT_ = comdat any

$_ZNK6dealii9TableBaseILi2EiE4dataEv = comdat any

$_ZN6dealii9TableBaseILi2EiED2Ev = comdat any

$_ZN6dealii9TableBaseILi2EiED0Ev = comdat any

$_ZN6dealii9TableBaseILi2EiE12reset_valuesEv = comdat any

$_ZSt6fill_nIPijiET_S1_T0_RKT1_ = comdat any

$_ZSt10__fill_n_aIPijiET_S1_T0_RKT1_St26random_access_iterator_tag = comdat any

$_ZSt17__size_to_integerj = comdat any

$_ZSt19__iterator_categoryIPiENSt15iterator_traitsIT_E17iterator_categoryERKS2_ = comdat any

$_ZSt8__fill_aIPiiEvT_S1_RKT0_ = comdat any

$_ZSt9__fill_a1IPiiEN9__gnu_cxx11__enable_ifIXsr11__is_scalarIT0_EE7__valueEvE6__typeET_S6_RKS3_ = comdat any

$_ZNK6dealii16TableIndicesBaseILi2EEixEj = comdat any

$_ZSt4copyIPKiPiET0_T_S4_S3_ = comdat any

$_ZSt13__copy_move_aILb0EPKiPiET1_T0_S4_S3_ = comdat any

$_ZSt12__miter_baseIPKiET_S2_ = comdat any

$_ZSt12__niter_wrapIPiET_RKS1_S1_ = comdat any

$_ZSt14__copy_move_a1ILb0EPKiPiET1_T0_S4_S3_ = comdat any

$_ZSt12__niter_baseIPKiET_S2_ = comdat any

$_ZSt12__niter_baseIPiET_S1_ = comdat any

$_ZSt14__copy_move_a2ILb0EPKiPiET1_T0_S4_S3_ = comdat any

$_ZNSt11__copy_moveILb0ELb1ESt26random_access_iterator_tagE8__copy_mIiEEPT_PKS3_S6_S4_ = comdat any

$_ZNKSt6vectorIiSaIiEE4sizeEv = comdat any

$_ZN9__gnu_cxx14__alloc_traitsISaIiEiE17_S_select_on_copyERKS1_ = comdat any

$_ZNKSt12_Vector_baseIiSaIiEE19_M_get_Tp_allocatorEv = comdat any

$_ZNSt12_Vector_baseIiSaIiEEC2EmRKS0_ = comdat any

$_ZNSaIiED2Ev = comdat any

$_ZSt22__uninitialized_copy_aIN9__gnu_cxx17__normal_iteratorIPKiSt6vectorIiSaIiEEEEPiiET0_T_SA_S9_RSaIT1_E = comdat any

$_ZNKSt6vectorIiSaIiEE5beginEv = comdat any

$_ZNKSt6vectorIiSaIiEE3endEv = comdat any

$_ZNSt12_Vector_baseIiSaIiEE19_M_get_Tp_allocatorEv = comdat any

$_ZNSt12_Vector_baseIiSaIiEED2Ev = comdat any

$_ZNSt16allocator_traitsISaIiEE37select_on_container_copy_constructionERKS0_ = comdat any

$_ZNSaIiEC2ERKS_ = comdat any

$_ZN9__gnu_cxx13new_allocatorIiEC2ERKS1_ = comdat any

$_ZNSt12_Vector_baseIiSaIiEE12_Vector_implC2ERKS0_ = comdat any

$_ZNSt12_Vector_baseIiSaIiEE17_M_create_storageEm = comdat any

$_ZNSt12_Vector_baseIiSaIiEE12_Vector_implD2Ev = comdat any

$_ZNSt12_Vector_baseIiSaIiEE17_Vector_impl_dataC2Ev = comdat any

$_ZNSt12_Vector_baseIiSaIiEE11_M_allocateEm = comdat any

$_ZNSt16allocator_traitsISaIiEE8allocateERS0_m = comdat any

$_ZN9__gnu_cxx13new_allocatorIiE8allocateEmPKv = comdat any

$_ZNK9__gnu_cxx13new_allocatorIiE11_M_max_sizeEv = comdat any

$_ZN9__gnu_cxx13new_allocatorIiED2Ev = comdat any

$_ZSt18uninitialized_copyIN9__gnu_cxx17__normal_iteratorIPKiSt6vectorIiSaIiEEEEPiET0_T_SA_S9_ = comdat any

$_ZNSt20__uninitialized_copyILb1EE13__uninit_copyIN9__gnu_cxx17__normal_iteratorIPKiSt6vectorIiSaIiEEEEPiEET0_T_SC_SB_ = comdat any

$_ZSt4copyIN9__gnu_cxx17__normal_iteratorIPKiSt6vectorIiSaIiEEEEPiET0_T_SA_S9_ = comdat any

$_ZSt13__copy_move_aILb0EN9__gnu_cxx17__normal_iteratorIPKiSt6vectorIiSaIiEEEEPiET1_T0_SA_S9_ = comdat any

$_ZSt12__miter_baseIN9__gnu_cxx17__normal_iteratorIPKiSt6vectorIiSaIiEEEEET_S8_ = comdat any

$_ZSt12__niter_baseIPKiSt6vectorIiSaIiEEET_N9__gnu_cxx17__normal_iteratorIS5_T0_EE = comdat any

$_ZNK9__gnu_cxx17__normal_iteratorIPKiSt6vectorIiSaIiEEE4baseEv = comdat any

$_ZN9__gnu_cxx17__normal_iteratorIPKiSt6vectorIiSaIiEEEC2ERKS2_ = comdat any

$_ZNSt12_Vector_baseIiSaIiEE13_M_deallocateEPim = comdat any

$_ZNSt16allocator_traitsISaIiEE10deallocateERS0_Pim = comdat any

$_ZN9__gnu_cxx13new_allocatorIiE10deallocateEPim = comdat any

$_ZNKSt6vectorISt4pairIjjESaIS1_EE4sizeEv = comdat any

$_ZN9__gnu_cxx14__alloc_traitsISaISt4pairIjjEES2_E17_S_select_on_copyERKS3_ = comdat any

$_ZNKSt12_Vector_baseISt4pairIjjESaIS1_EE19_M_get_Tp_allocatorEv = comdat any

$_ZNSt12_Vector_baseISt4pairIjjESaIS1_EEC2EmRKS2_ = comdat any

$_ZNSaISt4pairIjjEED2Ev = comdat any

$_ZSt22__uninitialized_copy_aIN9__gnu_cxx17__normal_iteratorIPKSt4pairIjjESt6vectorIS3_SaIS3_EEEEPS3_S3_ET0_T_SC_SB_RSaIT1_E = comdat any

$_ZNKSt6vectorISt4pairIjjESaIS1_EE5beginEv = comdat any

$_ZNKSt6vectorISt4pairIjjESaIS1_EE3endEv = comdat any

$_ZNSt12_Vector_baseISt4pairIjjESaIS1_EE19_M_get_Tp_allocatorEv = comdat any

$_ZNSt12_Vector_baseISt4pairIjjESaIS1_EED2Ev = comdat any

$_ZNSt16allocator_traitsISaISt4pairIjjEEE37select_on_container_copy_constructionERKS2_ = comdat any

$_ZNSaISt4pairIjjEEC2ERKS1_ = comdat any

$_ZN9__gnu_cxx13new_allocatorISt4pairIjjEEC2ERKS3_ = comdat any

$_ZNSt12_Vector_baseISt4pairIjjESaIS1_EE12_Vector_implC2ERKS2_ = comdat any

$_ZNSt12_Vector_baseISt4pairIjjESaIS1_EE17_M_create_storageEm = comdat any

$_ZNSt12_Vector_baseISt4pairIjjESaIS1_EE12_Vector_implD2Ev = comdat any

$_ZNSt12_Vector_baseISt4pairIjjESaIS1_EE11_M_allocateEm = comdat any

$_ZNSt16allocator_traitsISaISt4pairIjjEEE8allocateERS2_m = comdat any

$_ZN9__gnu_cxx13new_allocatorISt4pairIjjEE8allocateEmPKv = comdat any

$_ZNK9__gnu_cxx13new_allocatorISt4pairIjjEE11_M_max_sizeEv = comdat any

$_ZN9__gnu_cxx13new_allocatorISt4pairIjjEED2Ev = comdat any

$_ZSt18uninitialized_copyIN9__gnu_cxx17__normal_iteratorIPKSt4pairIjjESt6vectorIS3_SaIS3_EEEEPS3_ET0_T_SC_SB_ = comdat any

$_ZNSt20__uninitialized_copyILb0EE13__uninit_copyIN9__gnu_cxx17__normal_iteratorIPKSt4pairIjjESt6vectorIS5_SaIS5_EEEEPS5_EET0_T_SE_SD_ = comdat any

$_ZN9__gnu_cxxneIPKSt4pairIjjESt6vectorIS2_SaIS2_EEEEbRKNS_17__normal_iteratorIT_T0_EESD_ = comdat any

$_ZSt10_ConstructISt4pairIjjEJRKS1_EEvPT_DpOT0_ = comdat any

$_ZSt11__addressofISt4pairIjjEEPT_RS2_ = comdat any

$_ZNK9__gnu_cxx17__normal_iteratorIPKSt4pairIjjESt6vectorIS2_SaIS2_EEEdeEv = comdat any

$_ZN9__gnu_cxx17__normal_iteratorIPKSt4pairIjjESt6vectorIS2_SaIS2_EEEppEv = comdat any

$_ZSt8_DestroyIPSt4pairIjjEEvT_S3_ = comdat any

$_ZNK9__gnu_cxx17__normal_iteratorIPKSt4pairIjjESt6vectorIS2_SaIS2_EEE4baseEv = comdat any

$_ZSt7forwardIRKSt4pairIjjEEOT_RNSt16remove_referenceIS4_E4typeE = comdat any

$_ZNSt12_Destroy_auxILb1EE9__destroyIPSt4pairIjjEEEvT_S5_ = comdat any

$_ZN9__gnu_cxx17__normal_iteratorIPKSt4pairIjjESt6vectorIS2_SaIS2_EEEC2ERKS4_ = comdat any

$_ZNSt12_Vector_baseISt4pairIjjESaIS1_EE13_M_deallocateEPS1_m = comdat any

$_ZNSt16allocator_traitsISaISt4pairIjjEEE10deallocateERS2_PS1_m = comdat any

$_ZN9__gnu_cxx13new_allocatorISt4pairIjjEE10deallocateEPS2_m = comdat any

$_ZNKSt6vectorISt4pairIS0_IjjEjESaIS2_EE4sizeEv = comdat any

$_ZN9__gnu_cxx14__alloc_traitsISaISt4pairIS1_IjjEjEES3_E17_S_select_on_copyERKS4_ = comdat any

$_ZNKSt12_Vector_baseISt4pairIS0_IjjEjESaIS2_EE19_M_get_Tp_allocatorEv = comdat any

$_ZNSt12_Vector_baseISt4pairIS0_IjjEjESaIS2_EEC2EmRKS3_ = comdat any

$_ZNSaISt4pairIS_IjjEjEED2Ev = comdat any

$_ZSt22__uninitialized_copy_aIN9__gnu_cxx17__normal_iteratorIPKSt4pairIS2_IjjEjESt6vectorIS4_SaIS4_EEEEPS4_S4_ET0_T_SD_SC_RSaIT1_E = comdat any

$_ZNKSt6vectorISt4pairIS0_IjjEjESaIS2_EE5beginEv = comdat any

$_ZNKSt6vectorISt4pairIS0_IjjEjESaIS2_EE3endEv = comdat any

$_ZNSt12_Vector_baseISt4pairIS0_IjjEjESaIS2_EE19_M_get_Tp_allocatorEv = comdat any

$_ZNSt12_Vector_baseISt4pairIS0_IjjEjESaIS2_EED2Ev = comdat any

$_ZNSt16allocator_traitsISaISt4pairIS0_IjjEjEEE37select_on_container_copy_constructionERKS3_ = comdat any

$_ZNSaISt4pairIS_IjjEjEEC2ERKS2_ = comdat any

$_ZN9__gnu_cxx13new_allocatorISt4pairIS1_IjjEjEEC2ERKS4_ = comdat any

$_ZNSt12_Vector_baseISt4pairIS0_IjjEjESaIS2_EE12_Vector_implC2ERKS3_ = comdat any

$_ZNSt12_Vector_baseISt4pairIS0_IjjEjESaIS2_EE17_M_create_storageEm = comdat any

$_ZNSt12_Vector_baseISt4pairIS0_IjjEjESaIS2_EE12_Vector_implD2Ev = comdat any

$_ZNSt12_Vector_baseISt4pairIS0_IjjEjESaIS2_EE17_Vector_impl_dataC2Ev = comdat any

$_ZNSt12_Vector_baseISt4pairIS0_IjjEjESaIS2_EE11_M_allocateEm = comdat any

$_ZNSt16allocator_traitsISaISt4pairIS0_IjjEjEEE8allocateERS3_m = comdat any

$_ZN9__gnu_cxx13new_allocatorISt4pairIS1_IjjEjEE8allocateEmPKv = comdat any

$_ZNK9__gnu_cxx13new_allocatorISt4pairIS1_IjjEjEE11_M_max_sizeEv = comdat any

$_ZN9__gnu_cxx13new_allocatorISt4pairIS1_IjjEjEED2Ev = comdat any

$_ZSt18uninitialized_copyIN9__gnu_cxx17__normal_iteratorIPKSt4pairIS2_IjjEjESt6vectorIS4_SaIS4_EEEEPS4_ET0_T_SD_SC_ = comdat any

$_ZNSt20__uninitialized_copyILb0EE13__uninit_copyIN9__gnu_cxx17__normal_iteratorIPKSt4pairIS4_IjjEjESt6vectorIS6_SaIS6_EEEEPS6_EET0_T_SF_SE_ = comdat any

$_ZN9__gnu_cxxneIPKSt4pairIS1_IjjEjESt6vectorIS3_SaIS3_EEEEbRKNS_17__normal_iteratorIT_T0_EESE_ = comdat any

$_ZSt10_ConstructISt4pairIS0_IjjEjEJRKS2_EEvPT_DpOT0_ = comdat any

$_ZSt11__addressofISt4pairIS0_IjjEjEEPT_RS3_ = comdat any

$_ZNK9__gnu_cxx17__normal_iteratorIPKSt4pairIS1_IjjEjESt6vectorIS3_SaIS3_EEEdeEv = comdat any

$_ZN9__gnu_cxx17__normal_iteratorIPKSt4pairIS1_IjjEjESt6vectorIS3_SaIS3_EEEppEv = comdat any

$_ZSt8_DestroyIPSt4pairIS0_IjjEjEEvT_S4_ = comdat any

$_ZNK9__gnu_cxx17__normal_iteratorIPKSt4pairIS1_IjjEjESt6vectorIS3_SaIS3_EEE4baseEv = comdat any

$_ZSt7forwardIRKSt4pairIS0_IjjEjEEOT_RNSt16remove_referenceIS5_E4typeE = comdat any

$_ZNSt12_Destroy_auxILb1EE9__destroyIPSt4pairIS2_IjjEjEEEvT_S6_ = comdat any

$_ZN9__gnu_cxx17__normal_iteratorIPKSt4pairIS1_IjjEjESt6vectorIS3_SaIS3_EEEC2ERKS5_ = comdat any

$_ZNSt12_Vector_baseISt4pairIS0_IjjEjESaIS2_EE13_M_deallocateEPS2_m = comdat any

$_ZNSt16allocator_traitsISaISt4pairIS0_IjjEjEEE10deallocateERS3_PS2_m = comdat any

$_ZN9__gnu_cxx13new_allocatorISt4pairIS1_IjjEjEE10deallocateEPS3_m = comdat any

$_ZNKSt6vectorIjSaIjEE4sizeEv = comdat any

$_ZN9__gnu_cxx14__alloc_traitsISaIjEjE17_S_select_on_copyERKS1_ = comdat any

$_ZNKSt12_Vector_baseIjSaIjEE19_M_get_Tp_allocatorEv = comdat any

$_ZNSt12_Vector_baseIjSaIjEEC2EmRKS0_ = comdat any

$_ZSt22__uninitialized_copy_aIN9__gnu_cxx17__normal_iteratorIPKjSt6vectorIjSaIjEEEEPjjET0_T_SA_S9_RSaIT1_E = comdat any

$_ZNKSt6vectorIjSaIjEE5beginEv = comdat any

$_ZNKSt6vectorIjSaIjEE3endEv = comdat any

$_ZNSt12_Vector_baseIjSaIjEE19_M_get_Tp_allocatorEv = comdat any

$_ZNSt12_Vector_baseIjSaIjEED2Ev = comdat any

$_ZNSt16allocator_traitsISaIjEE37select_on_container_copy_constructionERKS0_ = comdat any

$_ZNSaIjEC2ERKS_ = comdat any

$_ZN9__gnu_cxx13new_allocatorIjEC2ERKS1_ = comdat any

$_ZNSt12_Vector_baseIjSaIjEE12_Vector_implC2ERKS0_ = comdat any

$_ZNSt12_Vector_baseIjSaIjEE17_M_create_storageEm = comdat any

$_ZNSt12_Vector_baseIjSaIjEE12_Vector_implD2Ev = comdat any

$_ZNSt12_Vector_baseIjSaIjEE17_Vector_impl_dataC2Ev = comdat any

$_ZNSt12_Vector_baseIjSaIjEE11_M_allocateEm = comdat any

$_ZNSt16allocator_traitsISaIjEE8allocateERS0_m = comdat any

$_ZN9__gnu_cxx13new_allocatorIjE8allocateEmPKv = comdat any

$_ZNK9__gnu_cxx13new_allocatorIjE11_M_max_sizeEv = comdat any

$_ZN9__gnu_cxx13new_allocatorIjED2Ev = comdat any

$_ZSt18uninitialized_copyIN9__gnu_cxx17__normal_iteratorIPKjSt6vectorIjSaIjEEEEPjET0_T_SA_S9_ = comdat any

$_ZNSt20__uninitialized_copyILb1EE13__uninit_copyIN9__gnu_cxx17__normal_iteratorIPKjSt6vectorIjSaIjEEEEPjEET0_T_SC_SB_ = comdat any

$_ZSt4copyIN9__gnu_cxx17__normal_iteratorIPKjSt6vectorIjSaIjEEEEPjET0_T_SA_S9_ = comdat any

$_ZSt13__copy_move_aILb0EN9__gnu_cxx17__normal_iteratorIPKjSt6vectorIjSaIjEEEEPjET1_T0_SA_S9_ = comdat any

$_ZSt12__miter_baseIN9__gnu_cxx17__normal_iteratorIPKjSt6vectorIjSaIjEEEEET_S8_ = comdat any

$_ZSt12__niter_wrapIPjET_RKS1_S1_ = comdat any

$_ZSt14__copy_move_a1ILb0EPKjPjET1_T0_S4_S3_ = comdat any

$_ZSt12__niter_baseIPKjSt6vectorIjSaIjEEET_N9__gnu_cxx17__normal_iteratorIS5_T0_EE = comdat any

$_ZSt12__niter_baseIPjET_S1_ = comdat any

$_ZSt14__copy_move_a2ILb0EPKjPjET1_T0_S4_S3_ = comdat any

$_ZNSt11__copy_moveILb0ELb1ESt26random_access_iterator_tagE8__copy_mIjEEPT_PKS3_S6_S4_ = comdat any

$_ZNK9__gnu_cxx17__normal_iteratorIPKjSt6vectorIjSaIjEEE4baseEv = comdat any

$_ZN9__gnu_cxx17__normal_iteratorIPKjSt6vectorIjSaIjEEEC2ERKS2_ = comdat any

$_ZNSt12_Vector_baseIjSaIjEE13_M_deallocateEPjm = comdat any

$_ZNSt16allocator_traitsISaIjEE10deallocateERS0_Pjm = comdat any

$_ZN9__gnu_cxx13new_allocatorIjE10deallocateEPjm = comdat any

$_ZN9__gnu_cxx14__alloc_traitsISaImEmE17_S_select_on_copyERKS1_ = comdat any

$_ZNKSt13_Bvector_baseISaIbEE20_M_get_Bit_allocatorEv = comdat any

$_ZNSaIbEC2ImEERKSaIT_E = comdat any

$_ZNSt13_Bvector_baseISaIbEEC2ERKS0_ = comdat any

$_ZNSaImED2Ev = comdat any

$_ZNSt6vectorIbSaIbEE13_M_initializeEm = comdat any

$_ZNKSt6vectorIbSaIbEE4sizeEv = comdat any

$_ZNSt6vectorIbSaIbEE15_M_copy_alignedESt19_Bit_const_iteratorS2_St13_Bit_iterator = comdat any

$_ZNKSt6vectorIbSaIbEE5beginEv = comdat any

$_ZNKSt6vectorIbSaIbEE3endEv = comdat any

$_ZNSt13_Bvector_baseISaIbEED2Ev = comdat any

$_ZNSt16allocator_traitsISaImEE37select_on_container_copy_constructionERKS0_ = comdat any

$_ZNSaImEC2ERKS_ = comdat any

$_ZN9__gnu_cxx13new_allocatorImEC2ERKS1_ = comdat any

$_ZN9__gnu_cxx13new_allocatorIbEC2Ev = comdat any

$_ZNSaImEC2IbEERKSaIT_E = comdat any

$_ZNSt13_Bvector_baseISaIbEE13_Bvector_implC2ERKSaImE = comdat any

$_ZN9__gnu_cxx13new_allocatorImEC2Ev = comdat any

$_ZNSt13_Bvector_baseISaIbEE18_Bvector_impl_dataC2Ev = comdat any

$_ZNSt13_Bit_iteratorC2Ev = comdat any

$_ZNSt18_Bit_iterator_baseC2EPmj = comdat any

$_ZN9__gnu_cxx13new_allocatorImED2Ev = comdat any

$_ZNSt13_Bvector_baseISaIbEE11_M_allocateEm = comdat any

$_ZNSt13_Bvector_baseISaIbEE8_S_nwordEm = comdat any

$_ZSt11__addressofImEPT_RS0_ = comdat any

$_ZNSt13_Bit_iteratorC2EPmj = comdat any

$_ZStplRKSt13_Bit_iteratorl = comdat any

$_ZNSt16allocator_traitsISaImEE8allocateERS0_m = comdat any

$_ZN9__gnu_cxx13new_allocatorImE8allocateEmPKv = comdat any

$_ZNK9__gnu_cxx13new_allocatorImE11_M_max_sizeEv = comdat any

$_ZNSt13_Bit_iteratorpLEl = comdat any

$_ZNSt18_Bit_iterator_base7_M_incrEl = comdat any

$_ZStmiRKSt18_Bit_iterator_baseS1_ = comdat any

$_ZSt4copyIPmS0_ET0_T_S2_S1_ = comdat any

$_ZSt4copyISt19_Bit_const_iteratorSt13_Bit_iteratorET0_T_S3_S2_ = comdat any

$_ZNSt19_Bit_const_iteratorC2EPmj = comdat any

$_ZSt13__copy_move_aILb0EPmS0_ET1_T0_S2_S1_ = comdat any

$_ZSt12__miter_baseIPmET_S1_ = comdat any

$_ZSt12__niter_wrapIPmET_RKS1_S1_ = comdat any

$_ZSt14__copy_move_a1ILb0EPmS0_ET1_T0_S2_S1_ = comdat any

$_ZSt12__niter_baseIPmET_S1_ = comdat any

$_ZSt14__copy_move_a2ILb0EPmS0_ET1_T0_S2_S1_ = comdat any

$_ZNSt11__copy_moveILb0ELb1ESt26random_access_iterator_tagE8__copy_mImEEPT_PKS3_S6_S4_ = comdat any

$_ZSt13__copy_move_aILb0ESt19_Bit_const_iteratorSt13_Bit_iteratorET1_T0_S3_S2_ = comdat any

$_ZSt12__miter_baseISt19_Bit_const_iteratorET_S1_ = comdat any

$_ZSt12__niter_wrapISt13_Bit_iteratorET_RKS1_S1_ = comdat any

$_ZSt14__copy_move_a1ILb0ESt19_Bit_const_iteratorSt13_Bit_iteratorET1_T0_S3_S2_ = comdat any

$_ZSt12__niter_baseISt19_Bit_const_iteratorET_S1_ = comdat any

$_ZSt12__niter_baseISt13_Bit_iteratorET_S1_ = comdat any

$_ZSt14__copy_move_a2ILb0ESt19_Bit_const_iteratorSt13_Bit_iteratorET1_T0_S3_S2_ = comdat any

$_ZNSt11__copy_moveILb0ELb0ESt26random_access_iterator_tagE8__copy_mISt19_Bit_const_iteratorSt13_Bit_iteratorEET0_T_S6_S5_ = comdat any

$_ZNKSt19_Bit_const_iteratordeEv = comdat any

$_ZNKSt13_Bit_iteratordeEv = comdat any

$_ZNSt14_Bit_referenceaSEb = comdat any

$_ZNSt19_Bit_const_iteratorppEv = comdat any

$_ZNSt13_Bit_iteratorppEv = comdat any

$_ZNSt14_Bit_referenceC2EPmm = comdat any

$_ZNKSt14_Bit_referencecvbEv = comdat any

$_ZNSt18_Bit_iterator_base10_M_bump_upEv = comdat any

$_ZNSt19_Bit_const_iteratorC2ERKSt13_Bit_iterator = comdat any

$_ZNSt13_Bvector_baseISaIbEE13_M_deallocateEv = comdat any

$_ZNSt13_Bvector_baseISaIbEE13_Bvector_implD2Ev = comdat any

$_ZNKSt13_Bvector_baseISaIbEE13_Bvector_impl11_M_end_addrEv = comdat any

$_ZNSt16allocator_traitsISaImEE10deallocateERS0_Pmm = comdat any

$_ZNSt13_Bvector_baseISaIbEE18_Bvector_impl_data8_M_resetEv = comdat any

$_ZN9__gnu_cxx13new_allocatorImE10deallocateEPmm = comdat any

$_ZNKSt6vectorIS_IbSaIbEESaIS1_EE4sizeEv = comdat any

$_ZN9__gnu_cxx14__alloc_traitsISaISt6vectorIbSaIbEEES3_E17_S_select_on_copyERKS4_ = comdat any

$_ZNKSt12_Vector_baseISt6vectorIbSaIbEESaIS2_EE19_M_get_Tp_allocatorEv = comdat any

$_ZNSt12_Vector_baseISt6vectorIbSaIbEESaIS2_EEC2EmRKS3_ = comdat any

$_ZSt22__uninitialized_copy_aIN9__gnu_cxx17__normal_iteratorIPKSt6vectorIbSaIbEES2_IS4_SaIS4_EEEEPS4_S4_ET0_T_SC_SB_RSaIT1_E = comdat any

$_ZNKSt6vectorIS_IbSaIbEESaIS1_EE5beginEv = comdat any

$_ZNKSt6vectorIS_IbSaIbEESaIS1_EE3endEv = comdat any

$_ZNSt12_Vector_baseISt6vectorIbSaIbEESaIS2_EE19_M_get_Tp_allocatorEv = comdat any

$_ZNSt12_Vector_baseISt6vectorIbSaIbEESaIS2_EED2Ev = comdat any

$_ZNSt16allocator_traitsISaISt6vectorIbSaIbEEEE37select_on_container_copy_constructionERKS3_ = comdat any

$_ZNSaISt6vectorIbSaIbEEEC2ERKS2_ = comdat any

$_ZN9__gnu_cxx13new_allocatorISt6vectorIbSaIbEEEC2ERKS4_ = comdat any

$_ZNSt12_Vector_baseISt6vectorIbSaIbEESaIS2_EE12_Vector_implC2ERKS3_ = comdat any

$_ZNSt12_Vector_baseISt6vectorIbSaIbEESaIS2_EE17_M_create_storageEm = comdat any

$_ZNSt12_Vector_baseISt6vectorIbSaIbEESaIS2_EE12_Vector_implD2Ev = comdat any

$_ZNSt12_Vector_baseISt6vectorIbSaIbEESaIS2_EE17_Vector_impl_dataC2Ev = comdat any

$_ZNSt12_Vector_baseISt6vectorIbSaIbEESaIS2_EE11_M_allocateEm = comdat any

$_ZNSt16allocator_traitsISaISt6vectorIbSaIbEEEE8allocateERS3_m = comdat any

$_ZN9__gnu_cxx13new_allocatorISt6vectorIbSaIbEEE8allocateEmPKv = comdat any

$_ZNK9__gnu_cxx13new_allocatorISt6vectorIbSaIbEEE11_M_max_sizeEv = comdat any

$_ZN9__gnu_cxx13new_allocatorISt6vectorIbSaIbEEED2Ev = comdat any

$_ZSt18uninitialized_copyIN9__gnu_cxx17__normal_iteratorIPKSt6vectorIbSaIbEES2_IS4_SaIS4_EEEEPS4_ET0_T_SC_SB_ = comdat any

$_ZNSt20__uninitialized_copyILb0EE13__uninit_copyIN9__gnu_cxx17__normal_iteratorIPKSt6vectorIbSaIbEES4_IS6_SaIS6_EEEEPS6_EET0_T_SE_SD_ = comdat any

$_ZN9__gnu_cxxneIPKSt6vectorIbSaIbEES1_IS3_SaIS3_EEEEbRKNS_17__normal_iteratorIT_T0_EESD_ = comdat any

$_ZSt10_ConstructISt6vectorIbSaIbEEJRKS2_EEvPT_DpOT0_ = comdat any

$_ZSt11__addressofISt6vectorIbSaIbEEEPT_RS3_ = comdat any

$_ZNK9__gnu_cxx17__normal_iteratorIPKSt6vectorIbSaIbEES1_IS3_SaIS3_EEEdeEv = comdat any

$_ZN9__gnu_cxx17__normal_iteratorIPKSt6vectorIbSaIbEES1_IS3_SaIS3_EEEppEv = comdat any

$_ZSt8_DestroyIPSt6vectorIbSaIbEEEvT_S4_ = comdat any

$_ZNK9__gnu_cxx17__normal_iteratorIPKSt6vectorIbSaIbEES1_IS3_SaIS3_EEE4baseEv = comdat any

$_ZSt7forwardIRKSt6vectorIbSaIbEEEOT_RNSt16remove_referenceIS5_E4typeE = comdat any

$_ZNSt12_Destroy_auxILb0EE9__destroyIPSt6vectorIbSaIbEEEEvT_S6_ = comdat any

$_ZSt8_DestroyISt6vectorIbSaIbEEEvPT_ = comdat any

$_ZN9__gnu_cxx17__normal_iteratorIPKSt6vectorIbSaIbEES1_IS3_SaIS3_EEEC2ERKS5_ = comdat any

$_ZNSt12_Vector_baseISt6vectorIbSaIbEESaIS2_EE13_M_deallocateEPS2_m = comdat any

$_ZNSt16allocator_traitsISaISt6vectorIbSaIbEEEE10deallocateERS3_PS2_m = comdat any

$_ZN9__gnu_cxx13new_allocatorISt6vectorIbSaIbEEE10deallocateEPS3_m = comdat any

$_ZSt8_DestroyIPSt4pairIS0_IjjEjES2_EvT_S4_RSaIT0_E = comdat any

$_ZSt8_DestroyIPSt4pairIjjES1_EvT_S3_RSaIT0_E = comdat any

$_ZSt8_DestroyIPiiEvT_S1_RSaIT0_E = comdat any

$_ZSt8_DestroyIPiEvT_S1_ = comdat any

$_ZNSt12_Destroy_auxILb1EE9__destroyIPiEEvT_S3_ = comdat any

$_ZSt8_DestroyIPN6dealii5PointILi2EEES2_EvT_S4_RSaIT0_E = comdat any

$_ZSt8_DestroyIPSt6vectorIN6dealii10FullMatrixIdEESaIS3_EES5_EvT_S7_RSaIT0_E = comdat any

$_ZN6dealii15PolynomialSpaceILi3EEC2ERKS1_ = comdat any

$_ZNSt6vectorIN6dealii11Polynomials10PolynomialIdEESaIS3_EEC2ERKS5_ = comdat any

$_ZNKSt6vectorIN6dealii11Polynomials10PolynomialIdEESaIS3_EE4sizeEv = comdat any

$_ZN9__gnu_cxx14__alloc_traitsISaIN6dealii11Polynomials10PolynomialIdEEES4_E17_S_select_on_copyERKS5_ = comdat any

$_ZNKSt12_Vector_baseIN6dealii11Polynomials10PolynomialIdEESaIS3_EE19_M_get_Tp_allocatorEv = comdat any

$_ZNSt12_Vector_baseIN6dealii11Polynomials10PolynomialIdEESaIS3_EEC2EmRKS4_ = comdat any

$_ZNSaIN6dealii11Polynomials10PolynomialIdEEED2Ev = comdat any

$_ZSt22__uninitialized_copy_aIN9__gnu_cxx17__normal_iteratorIPKN6dealii11Polynomials10PolynomialIdEESt6vectorIS5_SaIS5_EEEEPS5_S5_ET0_T_SE_SD_RSaIT1_E = comdat any

$_ZNKSt6vectorIN6dealii11Polynomials10PolynomialIdEESaIS3_EE5beginEv = comdat any

$_ZNKSt6vectorIN6dealii11Polynomials10PolynomialIdEESaIS3_EE3endEv = comdat any

$_ZNSt16allocator_traitsISaIN6dealii11Polynomials10PolynomialIdEEEE37select_on_container_copy_constructionERKS4_ = comdat any

$_ZNSaIN6dealii11Polynomials10PolynomialIdEEEC2ERKS3_ = comdat any

$_ZN9__gnu_cxx13new_allocatorIN6dealii11Polynomials10PolynomialIdEEEC2ERKS5_ = comdat any

$_ZNSt12_Vector_baseIN6dealii11Polynomials10PolynomialIdEESaIS3_EE12_Vector_implC2ERKS4_ = comdat any

$_ZNSt12_Vector_baseIN6dealii11Polynomials10PolynomialIdEESaIS3_EE17_M_create_storageEm = comdat any

$_ZNSt12_Vector_baseIN6dealii11Polynomials10PolynomialIdEESaIS3_EE17_Vector_impl_dataC2Ev = comdat any

$_ZNSt12_Vector_baseIN6dealii11Polynomials10PolynomialIdEESaIS3_EE11_M_allocateEm = comdat any

$_ZNSt16allocator_traitsISaIN6dealii11Polynomials10PolynomialIdEEEE8allocateERS4_m = comdat any

$_ZN9__gnu_cxx13new_allocatorIN6dealii11Polynomials10PolynomialIdEEE8allocateEmPKv = comdat any

$_ZNK9__gnu_cxx13new_allocatorIN6dealii11Polynomials10PolynomialIdEEE11_M_max_sizeEv = comdat any

$_ZSt18uninitialized_copyIN9__gnu_cxx17__normal_iteratorIPKN6dealii11Polynomials10PolynomialIdEESt6vectorIS5_SaIS5_EEEEPS5_ET0_T_SE_SD_ = comdat any

$_ZNSt20__uninitialized_copyILb0EE13__uninit_copyIN9__gnu_cxx17__normal_iteratorIPKN6dealii11Polynomials10PolynomialIdEESt6vectorIS7_SaIS7_EEEEPS7_EET0_T_SG_SF_ = comdat any

$_ZN9__gnu_cxxneIPKN6dealii11Polynomials10PolynomialIdEESt6vectorIS4_SaIS4_EEEEbRKNS_17__normal_iteratorIT_T0_EESF_ = comdat any

$_ZSt10_ConstructIN6dealii11Polynomials10PolynomialIdEEJRKS3_EEvPT_DpOT0_ = comdat any

$_ZNK9__gnu_cxx17__normal_iteratorIPKN6dealii11Polynomials10PolynomialIdEESt6vectorIS4_SaIS4_EEEdeEv = comdat any

$_ZN9__gnu_cxx17__normal_iteratorIPKN6dealii11Polynomials10PolynomialIdEESt6vectorIS4_SaIS4_EEEppEv = comdat any

$_ZNK9__gnu_cxx17__normal_iteratorIPKN6dealii11Polynomials10PolynomialIdEESt6vectorIS4_SaIS4_EEE4baseEv = comdat any

$_ZSt7forwardIRKN6dealii11Polynomials10PolynomialIdEEEOT_RNSt16remove_referenceIS6_E4typeE = comdat any

$_ZN6dealii11Polynomials10PolynomialIdEC2ERKS2_ = comdat any

$_ZNSt6vectorIdSaIdEEC2ERKS1_ = comdat any

$_ZN6dealii11Polynomials10PolynomialIdED2Ev = comdat any

$_ZN6dealii11Polynomials10PolynomialIdED0Ev = comdat any

$_ZNKSt6vectorIdSaIdEE4sizeEv = comdat any

$_ZN9__gnu_cxx14__alloc_traitsISaIdEdE17_S_select_on_copyERKS1_ = comdat any

$_ZNKSt12_Vector_baseIdSaIdEE19_M_get_Tp_allocatorEv = comdat any

$_ZNSt12_Vector_baseIdSaIdEEC2EmRKS0_ = comdat any

$_ZNSaIdED2Ev = comdat any

$_ZSt22__uninitialized_copy_aIN9__gnu_cxx17__normal_iteratorIPKdSt6vectorIdSaIdEEEEPddET0_T_SA_S9_RSaIT1_E = comdat any

$_ZNKSt6vectorIdSaIdEE5beginEv = comdat any

$_ZNKSt6vectorIdSaIdEE3endEv = comdat any

$_ZNSt12_Vector_baseIdSaIdEE19_M_get_Tp_allocatorEv = comdat any

$_ZNSt12_Vector_baseIdSaIdEED2Ev = comdat any

$_ZNSt16allocator_traitsISaIdEE37select_on_container_copy_constructionERKS0_ = comdat any

$_ZNSaIdEC2ERKS_ = comdat any

$_ZN9__gnu_cxx13new_allocatorIdEC2ERKS1_ = comdat any

$_ZNSt12_Vector_baseIdSaIdEE12_Vector_implC2ERKS0_ = comdat any

$_ZNSt12_Vector_baseIdSaIdEE17_M_create_storageEm = comdat any

$_ZNSt12_Vector_baseIdSaIdEE12_Vector_implD2Ev = comdat any

$_ZNSt12_Vector_baseIdSaIdEE17_Vector_impl_dataC2Ev = comdat any

$_ZNSt12_Vector_baseIdSaIdEE11_M_allocateEm = comdat any

$_ZNSt16allocator_traitsISaIdEE8allocateERS0_m = comdat any

$_ZN9__gnu_cxx13new_allocatorIdE8allocateEmPKv = comdat any

$_ZNK9__gnu_cxx13new_allocatorIdE11_M_max_sizeEv = comdat any

$_ZN9__gnu_cxx13new_allocatorIdED2Ev = comdat any

$_ZSt18uninitialized_copyIN9__gnu_cxx17__normal_iteratorIPKdSt6vectorIdSaIdEEEEPdET0_T_SA_S9_ = comdat any

$_ZNSt20__uninitialized_copyILb1EE13__uninit_copyIN9__gnu_cxx17__normal_iteratorIPKdSt6vectorIdSaIdEEEEPdEET0_T_SC_SB_ = comdat any

$_ZSt4copyIN9__gnu_cxx17__normal_iteratorIPKdSt6vectorIdSaIdEEEEPdET0_T_SA_S9_ = comdat any

$_ZSt13__copy_move_aILb0EN9__gnu_cxx17__normal_iteratorIPKdSt6vectorIdSaIdEEEEPdET1_T0_SA_S9_ = comdat any

$_ZSt12__miter_baseIN9__gnu_cxx17__normal_iteratorIPKdSt6vectorIdSaIdEEEEET_S8_ = comdat any

$_ZSt12__niter_wrapIPdET_RKS1_S1_ = comdat any

$_ZSt14__copy_move_a1ILb0EPKdPdET1_T0_S4_S3_ = comdat any

$_ZSt12__niter_baseIPKdSt6vectorIdSaIdEEET_N9__gnu_cxx17__normal_iteratorIS5_T0_EE = comdat any

$_ZSt12__niter_baseIPdET_S1_ = comdat any

$_ZSt14__copy_move_a2ILb0EPKdPdET1_T0_S4_S3_ = comdat any

$_ZNSt11__copy_moveILb0ELb1ESt26random_access_iterator_tagE8__copy_mIdEEPT_PKS3_S6_S4_ = comdat any

$_ZNK9__gnu_cxx17__normal_iteratorIPKdSt6vectorIdSaIdEEE4baseEv = comdat any

$_ZN9__gnu_cxx17__normal_iteratorIPKdSt6vectorIdSaIdEEEC2ERKS2_ = comdat any

$_ZNSt12_Vector_baseIdSaIdEE13_M_deallocateEPdm = comdat any

$_ZNSt16allocator_traitsISaIdEE10deallocateERS0_Pdm = comdat any

$_ZN9__gnu_cxx13new_allocatorIdE10deallocateEPdm = comdat any

$_ZNSt6vectorIdSaIdEED2Ev = comdat any

$_ZSt8_DestroyIPddEvT_S1_RSaIT0_E = comdat any

$_ZSt8_DestroyIPdEvT_S1_ = comdat any

$_ZNSt12_Destroy_auxILb1EE9__destroyIPdEEvT_S3_ = comdat any

$_ZN9__gnu_cxx17__normal_iteratorIPKN6dealii11Polynomials10PolynomialIdEESt6vectorIS4_SaIS4_EEEC2ERKS6_ = comdat any

$_ZN6dealii5PointILi3EEclEj = comdat any

$_ZN9__gnu_cxx13new_allocatorIjEC2Ev = comdat any

$_ZN9__gnu_cxx13new_allocatorIbED2Ev = comdat any

$_ZSt8_DestroyIPjjEvT_S1_RSaIT0_E = comdat any

$_ZSt8_DestroyIPjEvT_S1_ = comdat any

$_ZNSt12_Destroy_auxILb1EE9__destroyIPjEEvT_S3_ = comdat any

$_ZNSt6vectorIbSaIbEE19_M_initialize_valueEb = comdat any

$_ZN9__gnu_cxx13new_allocatorISt6vectorIbSaIbEEEC2Ev = comdat any

$_ZNSt6vectorIS_IbSaIbEESaIS1_EE17_S_check_init_lenEmRKS2_ = comdat any

$_ZNSt6vectorIS_IbSaIbEESaIS1_EE18_M_fill_initializeEmRKS1_ = comdat any

$_ZNSt6vectorIS_IbSaIbEESaIS1_EE11_S_max_sizeERKS2_ = comdat any

$_ZNSt16allocator_traitsISaISt6vectorIbSaIbEEEE8max_sizeERKS3_ = comdat any

$_ZSt3minImERKT_S2_S2_ = comdat any

$_ZNK9__gnu_cxx13new_allocatorISt6vectorIbSaIbEEE8max_sizeEv = comdat any

$_ZSt24__uninitialized_fill_n_aIPSt6vectorIbSaIbEEmS2_S2_ET_S4_T0_RKT1_RSaIT2_E = comdat any

$_ZSt20uninitialized_fill_nIPSt6vectorIbSaIbEEmS2_ET_S4_T0_RKT1_ = comdat any

$_ZNSt22__uninitialized_fill_nILb0EE15__uninit_fill_nIPSt6vectorIbSaIbEEmS4_EET_S6_T0_RKT1_ = comdat any

$_ZSt8_DestroyIPSt6vectorIbSaIbEES2_EvT_S4_RSaIT0_E = comdat any

$_ZNK6dealii5TableILi2EdE6n_rowsEv = comdat any

$_ZNK6dealii5TableILi2EdE6n_colsEv = comdat any

$_ZN9__gnu_cxx13new_allocatorIN6dealii5PointILi3EEEEC2Ev = comdat any

$_ZNSt6vectorIN6dealii5PointILi3EEESaIS2_EE17_S_check_init_lenEmRKS3_ = comdat any

$_ZNSt6vectorIN6dealii5PointILi3EEESaIS2_EE21_M_default_initializeEm = comdat any

$_ZNSt6vectorIN6dealii5PointILi3EEESaIS2_EE11_S_max_sizeERKS3_ = comdat any

$_ZNSt16allocator_traitsISaIN6dealii5PointILi3EEEEE8max_sizeERKS3_ = comdat any

$_ZNK9__gnu_cxx13new_allocatorIN6dealii5PointILi3EEEE8max_sizeEv = comdat any

$_ZSt27__uninitialized_default_n_aIPN6dealii5PointILi3EEEmS2_ET_S4_T0_RSaIT1_E = comdat any

$_ZSt25__uninitialized_default_nIPN6dealii5PointILi3EEEmET_S4_T0_ = comdat any

$_ZNSt27__uninitialized_default_n_1ILb0EE18__uninit_default_nIPN6dealii5PointILi3EEEmEET_S6_T0_ = comdat any

$_ZSt10_ConstructIN6dealii5PointILi3EEEJEEvPT_DpOT0_ = comdat any

$_ZN6dealii5PointILi3EEC2Ev = comdat any

$_ZN6dealii6TensorILi1ELi3EEC2Eb = comdat any

$_ZSt8_DestroyIPN6dealii5PointILi3EEES2_EvT_S4_RSaIT0_E = comdat any

$_ZN6dealii13FiniteElementILi3ELi3EE30ExcInterpolationNotImplementedC2EOS2_ = comdat any

$_ZNSt6vectorIjSaIjEE17_S_check_init_lenEmRKS0_ = comdat any

$_ZNSt6vectorIjSaIjEE18_M_fill_initializeEmRKj = comdat any

$_ZNSt6vectorIjSaIjEE11_S_max_sizeERKS0_ = comdat any

$_ZNSt16allocator_traitsISaIjEE8max_sizeERKS0_ = comdat any

$_ZNK9__gnu_cxx13new_allocatorIjE8max_sizeEv = comdat any

$_ZSt24__uninitialized_fill_n_aIPjmjjET_S1_T0_RKT1_RSaIT2_E = comdat any

$_ZSt20uninitialized_fill_nIPjmjET_S1_T0_RKT1_ = comdat any

$_ZNSt22__uninitialized_fill_nILb1EE15__uninit_fill_nIPjmjEET_S3_T0_RKT1_ = comdat any

$_ZSt6fill_nIPjmjET_S1_T0_RKT1_ = comdat any

$_ZSt10__fill_n_aIPjmjET_S1_T0_RKT1_St26random_access_iterator_tag = comdat any

$_ZSt17__size_to_integerm = comdat any

$_ZSt19__iterator_categoryIPjENSt15iterator_traitsIT_E17iterator_categoryERKS2_ = comdat any

$_ZSt8__fill_aIPjjEvT_S1_RKT0_ = comdat any

$_ZSt9__fill_a1IPjjEN9__gnu_cxx11__enable_ifIXsr11__is_scalarIT0_EE7__valueEvE6__typeET_S6_RKS3_ = comdat any

$_ZTVN6dealii14FE_DGPMonomialILi3EEE = comdat any

$_ZTSN6dealii13FiniteElementILi3ELi3EEE = comdat any

$_ZTSN6dealii17FiniteElementDataILi3EEE = comdat any

$_ZTIN6dealii17FiniteElementDataILi3EEE = comdat any

$_ZTIN6dealii13FiniteElementILi3ELi3EEE = comdat any

$_ZTSN6dealii14FE_DGPMonomialILi3EEE = comdat any

$_ZTSN6dealii7FE_PolyINS_12PolynomialsPILi3EEELi3ELi3EEE = comdat any

$_ZTIN6dealii7FE_PolyINS_12PolynomialsPILi3EEELi3ELi3EEE = comdat any

$_ZTIN6dealii14FE_DGPMonomialILi3EEE = comdat any

$_ZTVN6dealii7FE_PolyINS_12PolynomialsPILi3EEELi3ELi3EEE = comdat any

$_ZTVN6dealii9TableBaseILi2EdEE = comdat any

$_ZTSN6dealii9TableBaseILi2EdEE = comdat any

$_ZTIN6dealii9TableBaseILi2EdEE = comdat any

$_ZTVN6dealii13FiniteElementILi3ELi3EE30ExcInterpolationNotImplementedE = comdat any

$_ZTSN6dealii13FiniteElementILi3ELi3EE30ExcInterpolationNotImplementedE = comdat any

$_ZTIN6dealii13FiniteElementILi3ELi3EE30ExcInterpolationNotImplementedE = comdat any

$_ZTVN6dealii13FiniteElementILi3ELi3EEE = comdat any

$_ZTVN6dealii5TableILi2EiEE = comdat any

$_ZTSN6dealii5TableILi2EiEE = comdat any

$_ZTSN6dealii9TableBaseILi2EiEE = comdat any

$_ZTIN6dealii9TableBaseILi2EiEE = comdat any

$_ZTIN6dealii5TableILi2EiEE = comdat any

$_ZTVN6dealii9TableBaseILi2EiEE = comdat any

$_ZTVN6dealii11Polynomials10PolynomialIdEE = comdat any

$_ZTSN6dealii11Polynomials10PolynomialIdEE = comdat any

$_ZTIN6dealii11Polynomials10PolynomialIdEE = comdat any

@_ZN12_GLOBAL__N_12_1E = internal global %"struct.boost::arg" zeroinitializer, align 1, !dbg !0
@_ZN12_GLOBAL__N_12_2E = internal global %"struct.boost::arg.0" zeroinitializer, align 1, !dbg !15
@_ZN12_GLOBAL__N_12_3E = internal global %"struct.boost::arg.2" zeroinitializer, align 1, !dbg !25
@_ZN12_GLOBAL__N_12_4E = internal global %"struct.boost::arg.4" zeroinitializer, align 1, !dbg !35
@_ZN12_GLOBAL__N_12_5E = internal global %"struct.boost::arg.6" zeroinitializer, align 1, !dbg !45
@_ZN12_GLOBAL__N_12_6E = internal global %"struct.boost::arg.8" zeroinitializer, align 1, !dbg !55
@_ZN12_GLOBAL__N_12_7E = internal global %"struct.boost::arg.10" zeroinitializer, align 1, !dbg !65
@_ZN12_GLOBAL__N_12_8E = internal global %"struct.boost::arg.12" zeroinitializer, align 1, !dbg !75
@_ZN12_GLOBAL__N_12_9E = internal global %"struct.boost::arg.14" zeroinitializer, align 1, !dbg !85
@_ZStL8__ioinit = internal global %"class.std::ios_base::Init" zeroinitializer, align 1, !dbg !95
@__dso_handle = external hidden global i8
@_ZTVN6dealii14FE_DGPMonomialILi3EEE = weak_odr dso_local unnamed_addr constant { [38 x i8*] } { [38 x i8*] [i8* null, i8* bitcast ({ i8*, i8*, i8* }* @_ZTIN6dealii14FE_DGPMonomialILi3EEE to i8*), i8* bitcast (void (%"class.dealii::FE_DGPMonomial"*)* @_ZN6dealii14FE_DGPMonomialILi3EED2Ev to i8*), i8* bitcast (void (%"class.dealii::FE_DGPMonomial"*)* @_ZN6dealii14FE_DGPMonomialILi3EED0Ev to i8*), i8* bitcast (void (%"class.std::__cxx11::basic_string"*, %"class.dealii::FE_DGPMonomial"*)* @_ZNK6dealii14FE_DGPMonomialILi3EE8get_nameB5cxx11Ev to i8*), i8* bitcast (double (%"class.dealii::FE_Poly"*, i32, %"class.dealii::Point"*)* @_ZNK6dealii7FE_PolyINS_12PolynomialsPILi3EEELi3ELi3EE11shape_valueEjRKNS_5PointILi3EEE to i8*), i8* bitcast (double (%"class.dealii::FE_Poly"*, i32, %"class.dealii::Point"*, i32)* @_ZNK6dealii7FE_PolyINS_12PolynomialsPILi3EEELi3ELi3EE21shape_value_componentEjRKNS_5PointILi3EEEj to i8*), i8* bitcast (void (%"class.dealii::Tensor"*, %"class.dealii::FE_Poly"*, i32, %"class.dealii::Point"*)* @_ZNK6dealii7FE_PolyINS_12PolynomialsPILi3EEELi3ELi3EE10shape_gradEjRKNS_5PointILi3EEE to i8*), i8* bitcast (void (%"class.dealii::Tensor"*, %"class.dealii::FE_Poly"*, i32, %"class.dealii::Point"*, i32)* @_ZNK6dealii7FE_PolyINS_12PolynomialsPILi3EEELi3ELi3EE20shape_grad_componentEjRKNS_5PointILi3EEEj to i8*), i8* bitcast (void (%"class.dealii::Tensor.84"*, %"class.dealii::FE_Poly"*, i32, %"class.dealii::Point"*)* @_ZNK6dealii7FE_PolyINS_12PolynomialsPILi3EEELi3ELi3EE15shape_grad_gradEjRKNS_5PointILi3EEE to i8*), i8* bitcast (void (%"class.dealii::Tensor.84"*, %"class.dealii::FE_Poly"*, i32, %"class.dealii::Point"*, i32)* @_ZNK6dealii7FE_PolyINS_12PolynomialsPILi3EEELi3ELi3EE25shape_grad_grad_componentEjRKNS_5PointILi3EEEj to i8*), i8* bitcast (i1 (%"class.dealii::FE_DGPMonomial"*, i32, i32)* @_ZNK6dealii14FE_DGPMonomialILi3EE19has_support_on_faceEjj to i8*), i8* bitcast (i1 (%"class.dealii::FE_DGPMonomial"*)* @_ZNK6dealii14FE_DGPMonomialILi3EE30hp_constraints_are_implementedEv to i8*), i8* bitcast (void (%"class.dealii::FE_DGPMonomial"*, %"class.dealii::FiniteElement"*, %"class.dealii::FullMatrix"*)* @_ZNK6dealii14FE_DGPMonomialILi3EE24get_interpolation_matrixERKNS_13FiniteElementILi3ELi3EEERNS_10FullMatrixIdEE to i8*), i8* bitcast (void (%"class.dealii::FE_DGPMonomial"*, %"class.dealii::FiniteElement"*, %"class.dealii::FullMatrix"*)* @_ZNK6dealii14FE_DGPMonomialILi3EE29get_face_interpolation_matrixERKNS_13FiniteElementILi3ELi3EEERNS_10FullMatrixIdEE to i8*), i8* bitcast (void (%"class.dealii::FE_DGPMonomial"*, %"class.dealii::FiniteElement"*, i32, %"class.dealii::FullMatrix"*)* @_ZNK6dealii14FE_DGPMonomialILi3EE32get_subface_interpolation_matrixERKNS_13FiniteElementILi3ELi3EEEjRNS_10FullMatrixIdEE to i8*), i8* bitcast (void (%"class.std::vector.41"*, %"class.dealii::FE_DGPMonomial"*, %"class.dealii::FiniteElement"*)* @_ZNK6dealii14FE_DGPMonomialILi3EE24hp_vertex_dof_identitiesERKNS_13FiniteElementILi3ELi3EEE to i8*), i8* bitcast (void (%"class.std::vector.41"*, %"class.dealii::FE_DGPMonomial"*, %"class.dealii::FiniteElement"*)* @_ZNK6dealii14FE_DGPMonomialILi3EE22hp_line_dof_identitiesERKNS_13FiniteElementILi3ELi3EEE to i8*), i8* bitcast (void (%"class.std::vector.41"*, %"class.dealii::FE_DGPMonomial"*, %"class.dealii::FiniteElement"*)* @_ZNK6dealii14FE_DGPMonomialILi3EE22hp_quad_dof_identitiesERKNS_13FiniteElementILi3ELi3EEE to i8*), i8* bitcast (i32 (%"class.dealii::FE_DGPMonomial"*, %"class.dealii::FiniteElement"*)* @_ZNK6dealii14FE_DGPMonomialILi3EE27compare_for_face_dominationERKNS_13FiniteElementILi3ELi3EEE to i8*), i8* bitcast (i32 (%"class.dealii::FE_Poly"*)* @_ZNK6dealii7FE_PolyINS_12PolynomialsPILi3EEELi3ELi3EE15n_base_elementsEv to i8*), i8* bitcast (%"class.dealii::FiniteElement"* (%"class.dealii::FE_Poly"*, i32)* @_ZNK6dealii7FE_PolyINS_12PolynomialsPILi3EEELi3ELi3EE12base_elementEj to i8*), i8* bitcast (i32 (%"class.dealii::FE_Poly"*, i32)* @_ZNK6dealii7FE_PolyINS_12PolynomialsPILi3EEELi3ELi3EE20element_multiplicityEj to i8*), i8* bitcast (void (%"class.dealii::Point"*, %"class.dealii::FiniteElement"*, i32)* @_ZNK6dealii13FiniteElementILi3ELi3EE18unit_support_pointEj to i8*), i8* bitcast (void (%"class.dealii::Point.30"*, %"class.dealii::FiniteElement"*, i32)* @_ZNK6dealii13FiniteElementILi3ELi3EE23unit_face_support_pointEj to i8*), i8* bitcast (void (%"class.dealii::FiniteElement"*, %"class.std::vector.73"*, %"class.std::vector.73"*)* @_ZNK6dealii13FiniteElementILi3ELi3EE11interpolateERSt6vectorIdSaIdEERKS4_ to i8*), i8* bitcast (void (%"class.dealii::FiniteElement"*, %"class.std::vector.73"*, %"class.std::vector.85"*, i32)* @_ZNK6dealii13FiniteElementILi3ELi3EE11interpolateERSt6vectorIdSaIdEERKS2_INS_6VectorIdEESaIS7_EEj to i8*), i8* bitcast (void (%"class.dealii::FiniteElement"*, %"class.std::vector.73"*, %"class.dealii::VectorSlice"*)* @_ZNK6dealii13FiniteElementILi3ELi3EE11interpolateERSt6vectorIdSaIdEERKNS_11VectorSliceIKS2_IS4_SaIS4_EEEE to i8*), i8* bitcast (i32 (%"class.dealii::FE_DGPMonomial"*)* @_ZNK6dealii14FE_DGPMonomialILi3EE18memory_consumptionEv to i8*), i8* bitcast (i32 (%"class.dealii::FE_Poly"*, i32)* @_ZNK6dealii7FE_PolyINS_12PolynomialsPILi3EEELi3ELi3EE11update_onceENS_11UpdateFlagsE to i8*), i8* bitcast (i32 (%"class.dealii::FE_Poly"*, i32)* @_ZNK6dealii7FE_PolyINS_12PolynomialsPILi3EEELi3ELi3EE11update_eachENS_11UpdateFlagsE to i8*), i8* bitcast (%"class.dealii::FiniteElement"* (%"class.dealii::FE_DGPMonomial"*)* @_ZNK6dealii14FE_DGPMonomialILi3EE5cloneEv to i8*), i8* bitcast (%"class.dealii::Mapping<3, 3>::InternalDataBase"* (%"class.dealii::FE_Poly"*, i32, %"class.dealii::Mapping"*, %"class.dealii::Quadrature"*)* @_ZNK6dealii7FE_PolyINS_12PolynomialsPILi3EEELi3ELi3EE8get_dataENS_11UpdateFlagsERKNS_7MappingILi3ELi3EEERKNS_10QuadratureILi3EEE to i8*), i8* bitcast (%"class.dealii::Mapping<3, 3>::InternalDataBase"* (%"class.dealii::FiniteElement"*, i32, %"class.dealii::Mapping"*, %"class.dealii::Quadrature.86"*)* @_ZNK6dealii13FiniteElementILi3ELi3EE13get_face_dataENS_11UpdateFlagsERKNS_7MappingILi3ELi3EEERKNS_10QuadratureILi2EEE to i8*), i8* bitcast (%"class.dealii::Mapping<3, 3>::InternalDataBase"* (%"class.dealii::FiniteElement"*, i32, %"class.dealii::Mapping"*, %"class.dealii::Quadrature.86"*)* @_ZNK6dealii13FiniteElementILi3ELi3EE16get_subface_dataENS_11UpdateFlagsERKNS_7MappingILi3ELi3EEERKNS_10QuadratureILi2EEE to i8*), i8* bitcast (void (%"class.dealii::FE_Poly"*, %"class.dealii::Mapping"*, %"class.dealii::TriaIterator"*, %"class.dealii::Quadrature"*, %"class.dealii::Mapping<3, 3>::InternalDataBase"*, %"class.dealii::Mapping<3, 3>::InternalDataBase"*, %"class.dealii::FEValuesData"*, i32*)* @_ZNK6dealii7FE_PolyINS_12PolynomialsPILi3EEELi3ELi3EE14fill_fe_valuesERKNS_7MappingILi3ELi3EEERKNS_12TriaIteratorINS_12CellAccessorILi3ELi3EEEEERKNS_10QuadratureILi3EEERNS5_16InternalDataBaseESJ_RNS_12FEValuesDataILi3ELi3EEERNS_14CellSimilarity10SimilarityE to i8*), i8* bitcast (void (%"class.dealii::FE_Poly"*, %"class.dealii::Mapping"*, %"class.dealii::TriaIterator"*, i32, %"class.dealii::Quadrature.86"*, %"class.dealii::Mapping<3, 3>::InternalDataBase"*, %"class.dealii::Mapping<3, 3>::InternalDataBase"*, %"class.dealii::FEValuesData"*)* @_ZNK6dealii7FE_PolyINS_12PolynomialsPILi3EEELi3ELi3EE19fill_fe_face_valuesERKNS_7MappingILi3ELi3EEERKNS_12TriaIteratorINS_12CellAccessorILi3ELi3EEEEEjRKNS_10QuadratureILi2EEERNS5_16InternalDataBaseESJ_RNS_12FEValuesDataILi3ELi3EEE to i8*), i8* bitcast (void (%"class.dealii::FE_Poly"*, %"class.dealii::Mapping"*, %"class.dealii::TriaIterator"*, i32, i32, %"class.dealii::Quadrature.86"*, %"class.dealii::Mapping<3, 3>::InternalDataBase"*, %"class.dealii::Mapping<3, 3>::InternalDataBase"*, %"class.dealii::FEValuesData"*)* @_ZNK6dealii7FE_PolyINS_12PolynomialsPILi3EEELi3ELi3EE22fill_fe_subface_valuesERKNS_7MappingILi3ELi3EEERKNS_12TriaIteratorINS_12CellAccessorILi3ELi3EEEEEjjRKNS_10QuadratureILi2EEERNS5_16InternalDataBaseESJ_RNS_12FEValuesDataILi3ELi3EEE to i8*)] }, comdat, align 8
@.str = private unnamed_addr constant [16 x i8] c"FE_DGPMonomial<\00", align 1
@.str.10 = private unnamed_addr constant [3 x i8] c">(\00", align 1
@.str.11 = private unnamed_addr constant [2 x i8] c")\00", align 1
@_ZTVN10__cxxabiv121__vmi_class_type_infoE = external dso_local global i8*
@_ZTSN6dealii13FiniteElementILi3ELi3EEE = linkonce_odr dso_local constant [35 x i8] c"N6dealii13FiniteElementILi3ELi3EEE\00", comdat, align 1
@_ZTIN6dealii11SubscriptorE = external dso_local constant i8*
@_ZTVN10__cxxabiv117__class_type_infoE = external dso_local global i8*
@_ZTSN6dealii17FiniteElementDataILi3EEE = linkonce_odr dso_local constant [35 x i8] c"N6dealii17FiniteElementDataILi3EEE\00", comdat, align 1
@_ZTIN6dealii17FiniteElementDataILi3EEE = linkonce_odr dso_local constant { i8*, i8* } { i8* bitcast (i8** getelementptr inbounds (i8*, i8** @_ZTVN10__cxxabiv117__class_type_infoE, i64 2) to i8*), i8* getelementptr inbounds ([35 x i8], [35 x i8]* @_ZTSN6dealii17FiniteElementDataILi3EEE, i32 0, i32 0) }, comdat, align 8
@_ZTIN6dealii13FiniteElementILi3ELi3EEE = linkonce_odr dso_local constant { i8*, i8*, i32, i32, i8*, i64, i8*, i64 } { i8* bitcast (i8** getelementptr inbounds (i8*, i8** @_ZTVN10__cxxabiv121__vmi_class_type_infoE, i64 2) to i8*), i8* getelementptr inbounds ([35 x i8], [35 x i8]* @_ZTSN6dealii13FiniteElementILi3ELi3EEE, i32 0, i32 0), i32 0, i32 2, i8* bitcast (i8** @_ZTIN6dealii11SubscriptorE to i8*), i64 2, i8* bitcast ({ i8*, i8* }* @_ZTIN6dealii17FiniteElementDataILi3EEE to i8*), i64 18434 }, comdat, align 8
@_ZTVN10__cxxabiv120__si_class_type_infoE = external dso_local global i8*
@_ZTSN6dealii14FE_DGPMonomialILi3EEE = weak_odr dso_local constant [32 x i8] c"N6dealii14FE_DGPMonomialILi3EEE\00", comdat, align 1
@_ZTSN6dealii7FE_PolyINS_12PolynomialsPILi3EEELi3ELi3EEE = linkonce_odr dso_local constant [52 x i8] c"N6dealii7FE_PolyINS_12PolynomialsPILi3EEELi3ELi3EEE\00", comdat, align 1
@_ZTIN6dealii7FE_PolyINS_12PolynomialsPILi3EEELi3ELi3EEE = linkonce_odr dso_local constant { i8*, i8*, i8* } { i8* bitcast (i8** getelementptr inbounds (i8*, i8** @_ZTVN10__cxxabiv120__si_class_type_infoE, i64 2) to i8*), i8* getelementptr inbounds ([52 x i8], [52 x i8]* @_ZTSN6dealii7FE_PolyINS_12PolynomialsPILi3EEELi3ELi3EEE, i32 0, i32 0), i8* bitcast ({ i8*, i8*, i32, i32, i8*, i64, i8*, i64 }* @_ZTIN6dealii13FiniteElementILi3ELi3EEE to i8*) }, comdat, align 8
@_ZTIN6dealii14FE_DGPMonomialILi3EEE = weak_odr dso_local constant { i8*, i8*, i8* } { i8* bitcast (i8** getelementptr inbounds (i8*, i8** @_ZTVN10__cxxabiv120__si_class_type_infoE, i64 2) to i8*), i8* getelementptr inbounds ([32 x i8], [32 x i8]* @_ZTSN6dealii14FE_DGPMonomialILi3EEE, i32 0, i32 0), i8* bitcast ({ i8*, i8*, i8* }* @_ZTIN6dealii7FE_PolyINS_12PolynomialsPILi3EEELi3ELi3EEE to i8*) }, comdat, align 8
@.str.12 = private unnamed_addr constant [29 x i8] c"source/fe/fe_dgp_monomial.cc\00", align 1
@.str.13 = private unnamed_addr constant [1 x i8] zeroinitializer, align 1
@.str.14 = private unnamed_addr constant [120 x i8] c"(x_source_fe.get_name().find (\22FE_DGPMonomial<\22) == 0) || (dynamic_cast<const FE_DGPMonomial<dim>*>(&x_source_fe) != 0)\00", align 1
@.str.15 = private unnamed_addr constant [63 x i8] c"typename FiniteElement<dim>:: ExcInterpolationNotImplemented()\00", align 1
@_ZTVN6dealii7FE_PolyINS_12PolynomialsPILi3EEELi3ELi3EEE = linkonce_odr dso_local unnamed_addr constant { [38 x i8*] } { [38 x i8*] [i8* null, i8* bitcast ({ i8*, i8*, i8* }* @_ZTIN6dealii7FE_PolyINS_12PolynomialsPILi3EEELi3ELi3EEE to i8*), i8* bitcast (void (%"class.dealii::FE_Poly"*)* @_ZN6dealii7FE_PolyINS_12PolynomialsPILi3EEELi3ELi3EED2Ev to i8*), i8* bitcast (void (%"class.dealii::FE_Poly"*)* @_ZN6dealii7FE_PolyINS_12PolynomialsPILi3EEELi3ELi3EED0Ev to i8*), i8* bitcast (void ()* @__cxa_pure_virtual to i8*), i8* bitcast (double (%"class.dealii::FE_Poly"*, i32, %"class.dealii::Point"*)* @_ZNK6dealii7FE_PolyINS_12PolynomialsPILi3EEELi3ELi3EE11shape_valueEjRKNS_5PointILi3EEE to i8*), i8* bitcast (double (%"class.dealii::FE_Poly"*, i32, %"class.dealii::Point"*, i32)* @_ZNK6dealii7FE_PolyINS_12PolynomialsPILi3EEELi3ELi3EE21shape_value_componentEjRKNS_5PointILi3EEEj to i8*), i8* bitcast (void (%"class.dealii::Tensor"*, %"class.dealii::FE_Poly"*, i32, %"class.dealii::Point"*)* @_ZNK6dealii7FE_PolyINS_12PolynomialsPILi3EEELi3ELi3EE10shape_gradEjRKNS_5PointILi3EEE to i8*), i8* bitcast (void (%"class.dealii::Tensor"*, %"class.dealii::FE_Poly"*, i32, %"class.dealii::Point"*, i32)* @_ZNK6dealii7FE_PolyINS_12PolynomialsPILi3EEELi3ELi3EE20shape_grad_componentEjRKNS_5PointILi3EEEj to i8*), i8* bitcast (void (%"class.dealii::Tensor.84"*, %"class.dealii::FE_Poly"*, i32, %"class.dealii::Point"*)* @_ZNK6dealii7FE_PolyINS_12PolynomialsPILi3EEELi3ELi3EE15shape_grad_gradEjRKNS_5PointILi3EEE to i8*), i8* bitcast (void (%"class.dealii::Tensor.84"*, %"class.dealii::FE_Poly"*, i32, %"class.dealii::Point"*, i32)* @_ZNK6dealii7FE_PolyINS_12PolynomialsPILi3EEELi3ELi3EE25shape_grad_grad_componentEjRKNS_5PointILi3EEEj to i8*), i8* bitcast (i1 (%"class.dealii::FiniteElement"*, i32, i32)* @_ZNK6dealii13FiniteElementILi3ELi3EE19has_support_on_faceEjj to i8*), i8* bitcast (i1 (%"class.dealii::FiniteElement"*)* @_ZNK6dealii13FiniteElementILi3ELi3EE30hp_constraints_are_implementedEv to i8*), i8* bitcast (void (%"class.dealii::FiniteElement"*, %"class.dealii::FiniteElement"*, %"class.dealii::FullMatrix"*)* @_ZNK6dealii13FiniteElementILi3ELi3EE24get_interpolation_matrixERKS1_RNS_10FullMatrixIdEE to i8*), i8* bitcast (void (%"class.dealii::FiniteElement"*, %"class.dealii::FiniteElement"*, %"class.dealii::FullMatrix"*)* @_ZNK6dealii13FiniteElementILi3ELi3EE29get_face_interpolation_matrixERKS1_RNS_10FullMatrixIdEE to i8*), i8* bitcast (void (%"class.dealii::FiniteElement"*, %"class.dealii::FiniteElement"*, i32, %"class.dealii::FullMatrix"*)* @_ZNK6dealii13FiniteElementILi3ELi3EE32get_subface_interpolation_matrixERKS1_jRNS_10FullMatrixIdEE to i8*), i8* bitcast (void (%"class.std::vector.41"*, %"class.dealii::FiniteElement"*, %"class.dealii::FiniteElement"*)* @_ZNK6dealii13FiniteElementILi3ELi3EE24hp_vertex_dof_identitiesERKS1_ to i8*), i8* bitcast (void (%"class.std::vector.41"*, %"class.dealii::FiniteElement"*, %"class.dealii::FiniteElement"*)* @_ZNK6dealii13FiniteElementILi3ELi3EE22hp_line_dof_identitiesERKS1_ to i8*), i8* bitcast (void (%"class.std::vector.41"*, %"class.dealii::FiniteElement"*, %"class.dealii::FiniteElement"*)* @_ZNK6dealii13FiniteElementILi3ELi3EE22hp_quad_dof_identitiesERKS1_ to i8*), i8* bitcast (i32 (%"class.dealii::FiniteElement"*, %"class.dealii::FiniteElement"*)* @_ZNK6dealii13FiniteElementILi3ELi3EE27compare_for_face_dominationERKS1_ to i8*), i8* bitcast (i32 (%"class.dealii::FE_Poly"*)* @_ZNK6dealii7FE_PolyINS_12PolynomialsPILi3EEELi3ELi3EE15n_base_elementsEv to i8*), i8* bitcast (%"class.dealii::FiniteElement"* (%"class.dealii::FE_Poly"*, i32)* @_ZNK6dealii7FE_PolyINS_12PolynomialsPILi3EEELi3ELi3EE12base_elementEj to i8*), i8* bitcast (i32 (%"class.dealii::FE_Poly"*, i32)* @_ZNK6dealii7FE_PolyINS_12PolynomialsPILi3EEELi3ELi3EE20element_multiplicityEj to i8*), i8* bitcast (void (%"class.dealii::Point"*, %"class.dealii::FiniteElement"*, i32)* @_ZNK6dealii13FiniteElementILi3ELi3EE18unit_support_pointEj to i8*), i8* bitcast (void (%"class.dealii::Point.30"*, %"class.dealii::FiniteElement"*, i32)* @_ZNK6dealii13FiniteElementILi3ELi3EE23unit_face_support_pointEj to i8*), i8* bitcast (void (%"class.dealii::FiniteElement"*, %"class.std::vector.73"*, %"class.std::vector.73"*)* @_ZNK6dealii13FiniteElementILi3ELi3EE11interpolateERSt6vectorIdSaIdEERKS4_ to i8*), i8* bitcast (void (%"class.dealii::FiniteElement"*, %"class.std::vector.73"*, %"class.std::vector.85"*, i32)* @_ZNK6dealii13FiniteElementILi3ELi3EE11interpolateERSt6vectorIdSaIdEERKS2_INS_6VectorIdEESaIS7_EEj to i8*), i8* bitcast (void (%"class.dealii::FiniteElement"*, %"class.std::vector.73"*, %"class.dealii::VectorSlice"*)* @_ZNK6dealii13FiniteElementILi3ELi3EE11interpolateERSt6vectorIdSaIdEERKNS_11VectorSliceIKS2_IS4_SaIS4_EEEE to i8*), i8* bitcast (i32 (%"class.dealii::FiniteElement"*)* @_ZNK6dealii13FiniteElementILi3ELi3EE18memory_consumptionEv to i8*), i8* bitcast (i32 (%"class.dealii::FE_Poly"*, i32)* @_ZNK6dealii7FE_PolyINS_12PolynomialsPILi3EEELi3ELi3EE11update_onceENS_11UpdateFlagsE to i8*), i8* bitcast (i32 (%"class.dealii::FE_Poly"*, i32)* @_ZNK6dealii7FE_PolyINS_12PolynomialsPILi3EEELi3ELi3EE11update_eachENS_11UpdateFlagsE to i8*), i8* bitcast (void ()* @__cxa_pure_virtual to i8*), i8* bitcast (%"class.dealii::Mapping<3, 3>::InternalDataBase"* (%"class.dealii::FE_Poly"*, i32, %"class.dealii::Mapping"*, %"class.dealii::Quadrature"*)* @_ZNK6dealii7FE_PolyINS_12PolynomialsPILi3EEELi3ELi3EE8get_dataENS_11UpdateFlagsERKNS_7MappingILi3ELi3EEERKNS_10QuadratureILi3EEE to i8*), i8* bitcast (%"class.dealii::Mapping<3, 3>::InternalDataBase"* (%"class.dealii::FiniteElement"*, i32, %"class.dealii::Mapping"*, %"class.dealii::Quadrature.86"*)* @_ZNK6dealii13FiniteElementILi3ELi3EE13get_face_dataENS_11UpdateFlagsERKNS_7MappingILi3ELi3EEERKNS_10QuadratureILi2EEE to i8*), i8* bitcast (%"class.dealii::Mapping<3, 3>::InternalDataBase"* (%"class.dealii::FiniteElement"*, i32, %"class.dealii::Mapping"*, %"class.dealii::Quadrature.86"*)* @_ZNK6dealii13FiniteElementILi3ELi3EE16get_subface_dataENS_11UpdateFlagsERKNS_7MappingILi3ELi3EEERKNS_10QuadratureILi2EEE to i8*), i8* bitcast (void (%"class.dealii::FE_Poly"*, %"class.dealii::Mapping"*, %"class.dealii::TriaIterator"*, %"class.dealii::Quadrature"*, %"class.dealii::Mapping<3, 3>::InternalDataBase"*, %"class.dealii::Mapping<3, 3>::InternalDataBase"*, %"class.dealii::FEValuesData"*, i32*)* @_ZNK6dealii7FE_PolyINS_12PolynomialsPILi3EEELi3ELi3EE14fill_fe_valuesERKNS_7MappingILi3ELi3EEERKNS_12TriaIteratorINS_12CellAccessorILi3ELi3EEEEERKNS_10QuadratureILi3EEERNS5_16InternalDataBaseESJ_RNS_12FEValuesDataILi3ELi3EEERNS_14CellSimilarity10SimilarityE to i8*), i8* bitcast (void (%"class.dealii::FE_Poly"*, %"class.dealii::Mapping"*, %"class.dealii::TriaIterator"*, i32, %"class.dealii::Quadrature.86"*, %"class.dealii::Mapping<3, 3>::InternalDataBase"*, %"class.dealii::Mapping<3, 3>::InternalDataBase"*, %"class.dealii::FEValuesData"*)* @_ZNK6dealii7FE_PolyINS_12PolynomialsPILi3EEELi3ELi3EE19fill_fe_face_valuesERKNS_7MappingILi3ELi3EEERKNS_12TriaIteratorINS_12CellAccessorILi3ELi3EEEEEjRKNS_10QuadratureILi2EEERNS5_16InternalDataBaseESJ_RNS_12FEValuesDataILi3ELi3EEE to i8*), i8* bitcast (void (%"class.dealii::FE_Poly"*, %"class.dealii::Mapping"*, %"class.dealii::TriaIterator"*, i32, i32, %"class.dealii::Quadrature.86"*, %"class.dealii::Mapping<3, 3>::InternalDataBase"*, %"class.dealii::Mapping<3, 3>::InternalDataBase"*, %"class.dealii::FEValuesData"*)* @_ZNK6dealii7FE_PolyINS_12PolynomialsPILi3EEELi3ELi3EE22fill_fe_subface_valuesERKNS_7MappingILi3ELi3EEERKNS_12TriaIteratorINS_12CellAccessorILi3ELi3EEEEEjjRKNS_10QuadratureILi2EEERNS5_16InternalDataBaseESJ_RNS_12FEValuesDataILi3ELi3EEE to i8*)] }, comdat, align 8
@_ZTVN6dealii9TableBaseILi2EdEE = linkonce_odr dso_local unnamed_addr constant { [4 x i8*] } { [4 x i8*] [i8* null, i8* bitcast ({ i8*, i8*, i8* }* @_ZTIN6dealii9TableBaseILi2EdEE to i8*), i8* bitcast (void (%"class.dealii::TableBase"*)* @_ZN6dealii9TableBaseILi2EdED2Ev to i8*), i8* bitcast (void (%"class.dealii::TableBase"*)* @_ZN6dealii9TableBaseILi2EdED0Ev to i8*)] }, comdat, align 8
@_ZTSN6dealii9TableBaseILi2EdEE = linkonce_odr dso_local constant [27 x i8] c"N6dealii9TableBaseILi2EdEE\00", comdat, align 1
@_ZTIN6dealii9TableBaseILi2EdEE = linkonce_odr dso_local constant { i8*, i8*, i8* } { i8* bitcast (i8** getelementptr inbounds (i8*, i8** @_ZTVN10__cxxabiv120__si_class_type_infoE, i64 2) to i8*), i8* getelementptr inbounds ([27 x i8], [27 x i8]* @_ZTSN6dealii9TableBaseILi2EdEE, i32 0, i32 0), i8* bitcast (i8** @_ZTIN6dealii11SubscriptorE to i8*) }, comdat, align 8
@_ZTVN6dealii13FiniteElementILi3ELi3EE30ExcInterpolationNotImplementedE = linkonce_odr dso_local unnamed_addr constant { [6 x i8*] } { [6 x i8*] [i8* null, i8* bitcast ({ i8*, i8*, i8* }* @_ZTIN6dealii13FiniteElementILi3ELi3EE30ExcInterpolationNotImplementedE to i8*), i8* bitcast (void (%"class.dealii::FiniteElement<3, 3>::ExcInterpolationNotImplemented"*)* @_ZN6dealii13FiniteElementILi3ELi3EE30ExcInterpolationNotImplementedD2Ev to i8*), i8* bitcast (void (%"class.dealii::FiniteElement<3, 3>::ExcInterpolationNotImplemented"*)* @_ZN6dealii13FiniteElementILi3ELi3EE30ExcInterpolationNotImplementedD0Ev to i8*), i8* bitcast (i8* (%"class.dealii::ExceptionBase"*)* @_ZNK6dealii13ExceptionBase4whatEv to i8*), i8* bitcast (void (%"class.dealii::ExceptionBase"*, %"class.std::basic_ostream"*)* @_ZNK6dealii13ExceptionBase10print_infoERSo to i8*)] }, comdat, align 8
@_ZTSN6dealii13FiniteElementILi3ELi3EE30ExcInterpolationNotImplementedE = linkonce_odr dso_local constant [67 x i8] c"N6dealii13FiniteElementILi3ELi3EE30ExcInterpolationNotImplementedE\00", comdat, align 1
@_ZTIN6dealii13ExceptionBaseE = external dso_local constant i8*
@_ZTIN6dealii13FiniteElementILi3ELi3EE30ExcInterpolationNotImplementedE = linkonce_odr dso_local constant { i8*, i8*, i8* } { i8* bitcast (i8** getelementptr inbounds (i8*, i8** @_ZTVN10__cxxabiv120__si_class_type_infoE, i64 2) to i8*), i8* getelementptr inbounds ([67 x i8], [67 x i8]* @_ZTSN6dealii13FiniteElementILi3ELi3EE30ExcInterpolationNotImplementedE, i32 0, i32 0), i8* bitcast (i8** @_ZTIN6dealii13ExceptionBaseE to i8*) }, comdat, align 8
@_ZTVN6dealii13FiniteElementILi3ELi3EEE = linkonce_odr dso_local unnamed_addr constant { [38 x i8*] } { [38 x i8*] [i8* null, i8* bitcast ({ i8*, i8*, i32, i32, i8*, i64, i8*, i64 }* @_ZTIN6dealii13FiniteElementILi3ELi3EEE to i8*), i8* bitcast (void (%"class.dealii::FiniteElement"*)* @_ZN6dealii13FiniteElementILi3ELi3EED1Ev to i8*), i8* bitcast (void (%"class.dealii::FiniteElement"*)* @_ZN6dealii13FiniteElementILi3ELi3EED0Ev to i8*), i8* bitcast (void ()* @__cxa_pure_virtual to i8*), i8* bitcast (double (%"class.dealii::FiniteElement"*, i32, %"class.dealii::Point"*)* @_ZNK6dealii13FiniteElementILi3ELi3EE11shape_valueEjRKNS_5PointILi3EEE to i8*), i8* bitcast (double (%"class.dealii::FiniteElement"*, i32, %"class.dealii::Point"*, i32)* @_ZNK6dealii13FiniteElementILi3ELi3EE21shape_value_componentEjRKNS_5PointILi3EEEj to i8*), i8* bitcast (void (%"class.dealii::Tensor"*, %"class.dealii::FiniteElement"*, i32, %"class.dealii::Point"*)* @_ZNK6dealii13FiniteElementILi3ELi3EE10shape_gradEjRKNS_5PointILi3EEE to i8*), i8* bitcast (void (%"class.dealii::Tensor"*, %"class.dealii::FiniteElement"*, i32, %"class.dealii::Point"*, i32)* @_ZNK6dealii13FiniteElementILi3ELi3EE20shape_grad_componentEjRKNS_5PointILi3EEEj to i8*), i8* bitcast (void (%"class.dealii::Tensor.84"*, %"class.dealii::FiniteElement"*, i32, %"class.dealii::Point"*)* @_ZNK6dealii13FiniteElementILi3ELi3EE15shape_grad_gradEjRKNS_5PointILi3EEE to i8*), i8* bitcast (void (%"class.dealii::Tensor.84"*, %"class.dealii::FiniteElement"*, i32, %"class.dealii::Point"*, i32)* @_ZNK6dealii13FiniteElementILi3ELi3EE25shape_grad_grad_componentEjRKNS_5PointILi3EEEj to i8*), i8* bitcast (i1 (%"class.dealii::FiniteElement"*, i32, i32)* @_ZNK6dealii13FiniteElementILi3ELi3EE19has_support_on_faceEjj to i8*), i8* bitcast (i1 (%"class.dealii::FiniteElement"*)* @_ZNK6dealii13FiniteElementILi3ELi3EE30hp_constraints_are_implementedEv to i8*), i8* bitcast (void (%"class.dealii::FiniteElement"*, %"class.dealii::FiniteElement"*, %"class.dealii::FullMatrix"*)* @_ZNK6dealii13FiniteElementILi3ELi3EE24get_interpolation_matrixERKS1_RNS_10FullMatrixIdEE to i8*), i8* bitcast (void (%"class.dealii::FiniteElement"*, %"class.dealii::FiniteElement"*, %"class.dealii::FullMatrix"*)* @_ZNK6dealii13FiniteElementILi3ELi3EE29get_face_interpolation_matrixERKS1_RNS_10FullMatrixIdEE to i8*), i8* bitcast (void (%"class.dealii::FiniteElement"*, %"class.dealii::FiniteElement"*, i32, %"class.dealii::FullMatrix"*)* @_ZNK6dealii13FiniteElementILi3ELi3EE32get_subface_interpolation_matrixERKS1_jRNS_10FullMatrixIdEE to i8*), i8* bitcast (void (%"class.std::vector.41"*, %"class.dealii::FiniteElement"*, %"class.dealii::FiniteElement"*)* @_ZNK6dealii13FiniteElementILi3ELi3EE24hp_vertex_dof_identitiesERKS1_ to i8*), i8* bitcast (void (%"class.std::vector.41"*, %"class.dealii::FiniteElement"*, %"class.dealii::FiniteElement"*)* @_ZNK6dealii13FiniteElementILi3ELi3EE22hp_line_dof_identitiesERKS1_ to i8*), i8* bitcast (void (%"class.std::vector.41"*, %"class.dealii::FiniteElement"*, %"class.dealii::FiniteElement"*)* @_ZNK6dealii13FiniteElementILi3ELi3EE22hp_quad_dof_identitiesERKS1_ to i8*), i8* bitcast (i32 (%"class.dealii::FiniteElement"*, %"class.dealii::FiniteElement"*)* @_ZNK6dealii13FiniteElementILi3ELi3EE27compare_for_face_dominationERKS1_ to i8*), i8* bitcast (void ()* @__cxa_pure_virtual to i8*), i8* bitcast (void ()* @__cxa_pure_virtual to i8*), i8* bitcast (void ()* @__cxa_pure_virtual to i8*), i8* bitcast (void (%"class.dealii::Point"*, %"class.dealii::FiniteElement"*, i32)* @_ZNK6dealii13FiniteElementILi3ELi3EE18unit_support_pointEj to i8*), i8* bitcast (void (%"class.dealii::Point.30"*, %"class.dealii::FiniteElement"*, i32)* @_ZNK6dealii13FiniteElementILi3ELi3EE23unit_face_support_pointEj to i8*), i8* bitcast (void (%"class.dealii::FiniteElement"*, %"class.std::vector.73"*, %"class.std::vector.73"*)* @_ZNK6dealii13FiniteElementILi3ELi3EE11interpolateERSt6vectorIdSaIdEERKS4_ to i8*), i8* bitcast (void (%"class.dealii::FiniteElement"*, %"class.std::vector.73"*, %"class.std::vector.85"*, i32)* @_ZNK6dealii13FiniteElementILi3ELi3EE11interpolateERSt6vectorIdSaIdEERKS2_INS_6VectorIdEESaIS7_EEj to i8*), i8* bitcast (void (%"class.dealii::FiniteElement"*, %"class.std::vector.73"*, %"class.dealii::VectorSlice"*)* @_ZNK6dealii13FiniteElementILi3ELi3EE11interpolateERSt6vectorIdSaIdEERKNS_11VectorSliceIKS2_IS4_SaIS4_EEEE to i8*), i8* bitcast (i32 (%"class.dealii::FiniteElement"*)* @_ZNK6dealii13FiniteElementILi3ELi3EE18memory_consumptionEv to i8*), i8* bitcast (void ()* @__cxa_pure_virtual to i8*), i8* bitcast (void ()* @__cxa_pure_virtual to i8*), i8* bitcast (void ()* @__cxa_pure_virtual to i8*), i8* bitcast (void ()* @__cxa_pure_virtual to i8*), i8* bitcast (%"class.dealii::Mapping<3, 3>::InternalDataBase"* (%"class.dealii::FiniteElement"*, i32, %"class.dealii::Mapping"*, %"class.dealii::Quadrature.86"*)* @_ZNK6dealii13FiniteElementILi3ELi3EE13get_face_dataENS_11UpdateFlagsERKNS_7MappingILi3ELi3EEERKNS_10QuadratureILi2EEE to i8*), i8* bitcast (%"class.dealii::Mapping<3, 3>::InternalDataBase"* (%"class.dealii::FiniteElement"*, i32, %"class.dealii::Mapping"*, %"class.dealii::Quadrature.86"*)* @_ZNK6dealii13FiniteElementILi3ELi3EE16get_subface_dataENS_11UpdateFlagsERKNS_7MappingILi3ELi3EEERKNS_10QuadratureILi2EEE to i8*), i8* bitcast (void ()* @__cxa_pure_virtual to i8*), i8* bitcast (void ()* @__cxa_pure_virtual to i8*), i8* bitcast (void ()* @__cxa_pure_virtual to i8*)] }, comdat, align 8
@_ZTVN6dealii5TableILi2EiEE = linkonce_odr dso_local unnamed_addr constant { [4 x i8*] } { [4 x i8*] [i8* null, i8* bitcast ({ i8*, i8*, i8* }* @_ZTIN6dealii5TableILi2EiEE to i8*), i8* bitcast (void (%"class.dealii::Table.32"*)* @_ZN6dealii5TableILi2EiED2Ev to i8*), i8* bitcast (void (%"class.dealii::Table.32"*)* @_ZN6dealii5TableILi2EiED0Ev to i8*)] }, comdat, align 8
@_ZTSN6dealii5TableILi2EiEE = linkonce_odr dso_local constant [23 x i8] c"N6dealii5TableILi2EiEE\00", comdat, align 1
@_ZTSN6dealii9TableBaseILi2EiEE = linkonce_odr dso_local constant [27 x i8] c"N6dealii9TableBaseILi2EiEE\00", comdat, align 1
@_ZTIN6dealii9TableBaseILi2EiEE = linkonce_odr dso_local constant { i8*, i8*, i8* } { i8* bitcast (i8** getelementptr inbounds (i8*, i8** @_ZTVN10__cxxabiv120__si_class_type_infoE, i64 2) to i8*), i8* getelementptr inbounds ([27 x i8], [27 x i8]* @_ZTSN6dealii9TableBaseILi2EiEE, i32 0, i32 0), i8* bitcast (i8** @_ZTIN6dealii11SubscriptorE to i8*) }, comdat, align 8
@_ZTIN6dealii5TableILi2EiEE = linkonce_odr dso_local constant { i8*, i8*, i8* } { i8* bitcast (i8** getelementptr inbounds (i8*, i8** @_ZTVN10__cxxabiv120__si_class_type_infoE, i64 2) to i8*), i8* getelementptr inbounds ([23 x i8], [23 x i8]* @_ZTSN6dealii5TableILi2EiEE, i32 0, i32 0), i8* bitcast ({ i8*, i8*, i8* }* @_ZTIN6dealii9TableBaseILi2EiEE to i8*) }, comdat, align 8
@_ZTVN6dealii9TableBaseILi2EiEE = linkonce_odr dso_local unnamed_addr constant { [4 x i8*] } { [4 x i8*] [i8* null, i8* bitcast ({ i8*, i8*, i8* }* @_ZTIN6dealii9TableBaseILi2EiEE to i8*), i8* bitcast (void (%"class.dealii::TableBase.33"*)* @_ZN6dealii9TableBaseILi2EiED2Ev to i8*), i8* bitcast (void (%"class.dealii::TableBase.33"*)* @_ZN6dealii9TableBaseILi2EiED0Ev to i8*)] }, comdat, align 8
@_ZTVN6dealii11Polynomials10PolynomialIdEE = linkonce_odr dso_local unnamed_addr constant { [4 x i8*] } { [4 x i8*] [i8* null, i8* bitcast ({ i8*, i8*, i8* }* @_ZTIN6dealii11Polynomials10PolynomialIdEE to i8*), i8* bitcast (void (%"class.dealii::Polynomials::Polynomial"*)* @_ZN6dealii11Polynomials10PolynomialIdED2Ev to i8*), i8* bitcast (void (%"class.dealii::Polynomials::Polynomial"*)* @_ZN6dealii11Polynomials10PolynomialIdED0Ev to i8*)] }, comdat, align 8
@_ZTSN6dealii11Polynomials10PolynomialIdEE = linkonce_odr dso_local constant [38 x i8] c"N6dealii11Polynomials10PolynomialIdEE\00", comdat, align 1
@_ZTIN6dealii11Polynomials10PolynomialIdEE = linkonce_odr dso_local constant { i8*, i8*, i8* } { i8* bitcast (i8** getelementptr inbounds (i8*, i8** @_ZTVN10__cxxabiv120__si_class_type_infoE, i64 2) to i8*), i8* getelementptr inbounds ([38 x i8], [38 x i8]* @_ZTSN6dealii11Polynomials10PolynomialIdEE, i32 0, i32 0), i8* bitcast (i8** @_ZTIN6dealii11SubscriptorE to i8*) }, comdat, align 8
@_ZN6dealii12_GLOBAL__N_113start_index3dE = internal constant [6 x i32] [i32 0, i32 1, i32 5, i32 15, i32 0, i32 0], align 16, !dbg !122
@_ZN6dealii12_GLOBAL__N_18points3dE = internal constant <{ [15 x [3 x double]], [20 x [3 x double]] }> <{ [15 x [3 x double]] [[3 x double] zeroinitializer, [3 x double] zeroinitializer, [3 x double] [double 1.000000e+00, double 0.000000e+00, double 0.000000e+00], [3 x double] [double 0.000000e+00, double 1.000000e+00, double 0.000000e+00], [3 x double] [double 0.000000e+00, double 0.000000e+00, double 1.000000e+00], [3 x double] zeroinitializer, [3 x double] [double 1.000000e+00, double 0.000000e+00, double 0.000000e+00], [3 x double] [double 0.000000e+00, double 1.000000e+00, double 0.000000e+00], [3 x double] [double 0.000000e+00, double 0.000000e+00, double 1.000000e+00], [3 x double] [double 5.000000e-01, double 0.000000e+00, double 0.000000e+00], [3 x double] [double 0.000000e+00, double 5.000000e-01, double 0.000000e+00], [3 x double] [double 0.000000e+00, double 0.000000e+00, double 5.000000e-01], [3 x double] [double 1.000000e+00, double 1.000000e+00, double 0.000000e+00], [3 x double] [double 1.000000e+00, double 0.000000e+00, double 1.000000e+00], [3 x double] [double 0.000000e+00, double 1.000000e+00, double 1.000000e+00]], [20 x [3 x double]] zeroinitializer }>, align 16, !dbg !132
@.str.17 = private unnamed_addr constant [49 x i8] c"cannot create std::vector larger than max_size()\00", align 1
@llvm.global_ctors = appending global [1 x { i32, void ()*, i8* }] [{ i32, void ()*, i8* } { i32 65535, void ()* @_GLOBAL__sub_I_fe_dgp_monomial.cc, i8* null }]

@_ZN6dealii14FE_DGPMonomialILi3EEC1Ej = weak_odr dso_local unnamed_addr alias void (%"class.dealii::FE_DGPMonomial"*, i32), void (%"class.dealii::FE_DGPMonomial"*, i32)* @_ZN6dealii14FE_DGPMonomialILi3EEC2Ej

; Function Attrs: noinline uwtable
define internal void @__cxx_global_var_init() #0 section ".text.startup" !dbg !8841 {
entry:
  call void @_ZN5boost3argILi1EEC2Ev(%"struct.boost::arg"* @_ZN12_GLOBAL__N_12_1E), !dbg !8842
  ret void, !dbg !8842
}

; Function Attrs: noinline nounwind uwtable
define linkonce_odr dso_local void @_ZN5boost3argILi1EEC2Ev(%"struct.boost::arg"* %this) unnamed_addr #1 comdat align 2 !dbg !8843 {
entry:
  %this.addr = alloca %"struct.boost::arg"*, align 8
  store %"struct.boost::arg"* %this, %"struct.boost::arg"** %this.addr, align 8
  call void @llvm.dbg.declare(metadata %"struct.boost::arg"** %this.addr, metadata !8844, metadata !DIExpression()), !dbg !8846
  %this1 = load %"struct.boost::arg"*, %"struct.boost::arg"** %this.addr, align 8
  ret void, !dbg !8847
}

; Function Attrs: noinline uwtable
define internal void @__cxx_global_var_init.1() #0 section ".text.startup" !dbg !8848 {
entry:
  call void @_ZN5boost3argILi2EEC2Ev(%"struct.boost::arg.0"* @_ZN12_GLOBAL__N_12_2E), !dbg !8849
  ret void, !dbg !8849
}

; Function Attrs: noinline nounwind uwtable
define linkonce_odr dso_local void @_ZN5boost3argILi2EEC2Ev(%"struct.boost::arg.0"* %this) unnamed_addr #1 comdat align 2 !dbg !8850 {
entry:
  %this.addr = alloca %"struct.boost::arg.0"*, align 8
  store %"struct.boost::arg.0"* %this, %"struct.boost::arg.0"** %this.addr, align 8
  call void @llvm.dbg.declare(metadata %"struct.boost::arg.0"** %this.addr, metadata !8851, metadata !DIExpression()), !dbg !8853
  %this1 = load %"struct.boost::arg.0"*, %"struct.boost::arg.0"** %this.addr, align 8
  ret void, !dbg !8854
}

; Function Attrs: noinline uwtable
define internal void @__cxx_global_var_init.2() #0 section ".text.startup" !dbg !8855 {
entry:
  call void @_ZN5boost3argILi3EEC2Ev(%"struct.boost::arg.2"* @_ZN12_GLOBAL__N_12_3E), !dbg !8856
  ret void, !dbg !8856
}

; Function Attrs: noinline nounwind uwtable
define linkonce_odr dso_local void @_ZN5boost3argILi3EEC2Ev(%"struct.boost::arg.2"* %this) unnamed_addr #1 comdat align 2 !dbg !8857 {
entry:
  %this.addr = alloca %"struct.boost::arg.2"*, align 8
  store %"struct.boost::arg.2"* %this, %"struct.boost::arg.2"** %this.addr, align 8
  call void @llvm.dbg.declare(metadata %"struct.boost::arg.2"** %this.addr, metadata !8858, metadata !DIExpression()), !dbg !8860
  %this1 = load %"struct.boost::arg.2"*, %"struct.boost::arg.2"** %this.addr, align 8
  ret void, !dbg !8861
}

; Function Attrs: noinline uwtable
define internal void @__cxx_global_var_init.3() #0 section ".text.startup" !dbg !8862 {
entry:
  call void @_ZN5boost3argILi4EEC2Ev(%"struct.boost::arg.4"* @_ZN12_GLOBAL__N_12_4E), !dbg !8863
  ret void, !dbg !8863
}

; Function Attrs: noinline nounwind uwtable
define linkonce_odr dso_local void @_ZN5boost3argILi4EEC2Ev(%"struct.boost::arg.4"* %this) unnamed_addr #1 comdat align 2 !dbg !8864 {
entry:
  %this.addr = alloca %"struct.boost::arg.4"*, align 8
  store %"struct.boost::arg.4"* %this, %"struct.boost::arg.4"** %this.addr, align 8
  call void @llvm.dbg.declare(metadata %"struct.boost::arg.4"** %this.addr, metadata !8865, metadata !DIExpression()), !dbg !8867
  %this1 = load %"struct.boost::arg.4"*, %"struct.boost::arg.4"** %this.addr, align 8
  ret void, !dbg !8868
}

; Function Attrs: noinline uwtable
define internal void @__cxx_global_var_init.4() #0 section ".text.startup" !dbg !8869 {
entry:
  call void @_ZN5boost3argILi5EEC2Ev(%"struct.boost::arg.6"* @_ZN12_GLOBAL__N_12_5E), !dbg !8870
  ret void, !dbg !8870
}

; Function Attrs: noinline nounwind uwtable
define linkonce_odr dso_local void @_ZN5boost3argILi5EEC2Ev(%"struct.boost::arg.6"* %this) unnamed_addr #1 comdat align 2 !dbg !8871 {
entry:
  %this.addr = alloca %"struct.boost::arg.6"*, align 8
  store %"struct.boost::arg.6"* %this, %"struct.boost::arg.6"** %this.addr, align 8
  call void @llvm.dbg.declare(metadata %"struct.boost::arg.6"** %this.addr, metadata !8872, metadata !DIExpression()), !dbg !8874
  %this1 = load %"struct.boost::arg.6"*, %"struct.boost::arg.6"** %this.addr, align 8
  ret void, !dbg !8875
}

; Function Attrs: noinline uwtable
define internal void @__cxx_global_var_init.5() #0 section ".text.startup" !dbg !8876 {
entry:
  call void @_ZN5boost3argILi6EEC2Ev(%"struct.boost::arg.8"* @_ZN12_GLOBAL__N_12_6E), !dbg !8877
  ret void, !dbg !8877
}

; Function Attrs: noinline nounwind uwtable
define linkonce_odr dso_local void @_ZN5boost3argILi6EEC2Ev(%"struct.boost::arg.8"* %this) unnamed_addr #1 comdat align 2 !dbg !8878 {
entry:
  %this.addr = alloca %"struct.boost::arg.8"*, align 8
  store %"struct.boost::arg.8"* %this, %"struct.boost::arg.8"** %this.addr, align 8
  call void @llvm.dbg.declare(metadata %"struct.boost::arg.8"** %this.addr, metadata !8879, metadata !DIExpression()), !dbg !8881
  %this1 = load %"struct.boost::arg.8"*, %"struct.boost::arg.8"** %this.addr, align 8
  ret void, !dbg !8882
}

; Function Attrs: noinline uwtable
define internal void @__cxx_global_var_init.6() #0 section ".text.startup" !dbg !8883 {
entry:
  call void @_ZN5boost3argILi7EEC2Ev(%"struct.boost::arg.10"* @_ZN12_GLOBAL__N_12_7E), !dbg !8884
  ret void, !dbg !8884
}

; Function Attrs: noinline nounwind uwtable
define linkonce_odr dso_local void @_ZN5boost3argILi7EEC2Ev(%"struct.boost::arg.10"* %this) unnamed_addr #1 comdat align 2 !dbg !8885 {
entry:
  %this.addr = alloca %"struct.boost::arg.10"*, align 8
  store %"struct.boost::arg.10"* %this, %"struct.boost::arg.10"** %this.addr, align 8
  call void @llvm.dbg.declare(metadata %"struct.boost::arg.10"** %this.addr, metadata !8886, metadata !DIExpression()), !dbg !8888
  %this1 = load %"struct.boost::arg.10"*, %"struct.boost::arg.10"** %this.addr, align 8
  ret void, !dbg !8889
}

; Function Attrs: noinline uwtable
define internal void @__cxx_global_var_init.7() #0 section ".text.startup" !dbg !8890 {
entry:
  call void @_ZN5boost3argILi8EEC2Ev(%"struct.boost::arg.12"* @_ZN12_GLOBAL__N_12_8E), !dbg !8891
  ret void, !dbg !8891
}

; Function Attrs: noinline nounwind uwtable
define linkonce_odr dso_local void @_ZN5boost3argILi8EEC2Ev(%"struct.boost::arg.12"* %this) unnamed_addr #1 comdat align 2 !dbg !8892 {
entry:
  %this.addr = alloca %"struct.boost::arg.12"*, align 8
  store %"struct.boost::arg.12"* %this, %"struct.boost::arg.12"** %this.addr, align 8
  call void @llvm.dbg.declare(metadata %"struct.boost::arg.12"** %this.addr, metadata !8893, metadata !DIExpression()), !dbg !8895
  %this1 = load %"struct.boost::arg.12"*, %"struct.boost::arg.12"** %this.addr, align 8
  ret void, !dbg !8896
}

; Function Attrs: noinline uwtable
define internal void @__cxx_global_var_init.8() #0 section ".text.startup" !dbg !8897 {
entry:
  call void @_ZN5boost3argILi9EEC2Ev(%"struct.boost::arg.14"* @_ZN12_GLOBAL__N_12_9E), !dbg !8898
  ret void, !dbg !8898
}

; Function Attrs: noinline nounwind uwtable
define linkonce_odr dso_local void @_ZN5boost3argILi9EEC2Ev(%"struct.boost::arg.14"* %this) unnamed_addr #1 comdat align 2 !dbg !8899 {
entry:
  %this.addr = alloca %"struct.boost::arg.14"*, align 8
  store %"struct.boost::arg.14"* %this, %"struct.boost::arg.14"** %this.addr, align 8
  call void @llvm.dbg.declare(metadata %"struct.boost::arg.14"** %this.addr, metadata !8900, metadata !DIExpression()), !dbg !8902
  %this1 = load %"struct.boost::arg.14"*, %"struct.boost::arg.14"** %this.addr, align 8
  ret void, !dbg !8903
}

; Function Attrs: noinline uwtable
define internal void @__cxx_global_var_init.9() #0 section ".text.startup" !dbg !8904 {
entry:
  call void @_ZNSt8ios_base4InitC1Ev(%"class.std::ios_base::Init"* @_ZStL8__ioinit), !dbg !8905
  %0 = call i32 @__cxa_atexit(void (i8*)* bitcast (void (%"class.std::ios_base::Init"*)* @_ZNSt8ios_base4InitD1Ev to void (i8*)*), i8* getelementptr inbounds (%"class.std::ios_base::Init", %"class.std::ios_base::Init"* @_ZStL8__ioinit, i32 0, i32 0), i8* @__dso_handle) #4, !dbg !8905
  ret void, !dbg !8905
}

declare dso_local void @_ZNSt8ios_base4InitC1Ev(%"class.std::ios_base::Init"*) unnamed_addr #2

; Function Attrs: nounwind
declare dso_local void @_ZNSt8ios_base4InitD1Ev(%"class.std::ios_base::Init"*) unnamed_addr #3

; Function Attrs: nounwind
declare dso_local i32 @__cxa_atexit(void (i8*)*, i8*, i8*) #4

; Function Attrs: noinline uwtable
define weak_odr dso_local void @_ZN6dealii14FE_DGPMonomialILi3EEC2Ej(%"class.dealii::FE_DGPMonomial"* %this, i32 %degree) unnamed_addr #0 comdat($_ZN6dealii14FE_DGPMonomialILi3EEC5Ej) align 2 personality i8* bitcast (i32 (...)* @__gxx_personality_v0 to i8*) !dbg !8906 {
entry:
  %this.addr = alloca %"class.dealii::FE_DGPMonomial"*, align 8
  %degree.addr = alloca i32, align 4
  %ref.tmp = alloca %"class.dealii::PolynomialsP", align 8
  %ref.tmp2 = alloca %"class.dealii::FiniteElementData", align 4
  %ref.tmp3 = alloca %"class.std::vector.54", align 8
  %exn.slot = alloca i8*
  %ehselector.slot = alloca i32
  %ref.tmp6 = alloca %"class.std::vector.59", align 8
  %ref.tmp7 = alloca %"class.dealii::FiniteElementData", align 4
  %ref.tmp8 = alloca %"class.std::vector.54", align 8
  %ref.tmp12 = alloca i8, align 1
  %ref.tmp13 = alloca %"class.std::allocator.78", align 1
  %ref.tmp16 = alloca %"class.std::vector.63", align 8
  %ref.tmp17 = alloca %"class.dealii::FiniteElementData", align 4
  %ref.tmp18 = alloca %"class.std::vector.54", align 8
  %ref.tmp25 = alloca %"class.std::vector.59", align 8
  %ref.tmp26 = alloca i8, align 1
  %ref.tmp27 = alloca %"class.std::allocator.78", align 1
  %ref.tmp30 = alloca %"class.std::allocator.65", align 1
  store %"class.dealii::FE_DGPMonomial"* %this, %"class.dealii::FE_DGPMonomial"** %this.addr, align 8
  call void @llvm.dbg.declare(metadata %"class.dealii::FE_DGPMonomial"** %this.addr, metadata !8907, metadata !DIExpression()), !dbg !8909
  store i32 %degree, i32* %degree.addr, align 4
  call void @llvm.dbg.declare(metadata i32* %degree.addr, metadata !8910, metadata !DIExpression()), !dbg !8911
  %this1 = load %"class.dealii::FE_DGPMonomial"*, %"class.dealii::FE_DGPMonomial"** %this.addr, align 8
  %0 = bitcast %"class.dealii::FE_DGPMonomial"* %this1 to %"class.dealii::FE_Poly"*, !dbg !8912
  %1 = load i32, i32* %degree.addr, align 4, !dbg !8913
  call void @_ZN6dealii12PolynomialsPILi3EEC1Ej(%"class.dealii::PolynomialsP"* %ref.tmp, i32 %1), !dbg !8914
  %2 = load i32, i32* %degree.addr, align 4, !dbg !8915
  invoke void @_ZN6dealii14FE_DGPMonomialILi3EE14get_dpo_vectorEj(%"class.std::vector.54"* sret %ref.tmp3, i32 %2)
          to label %invoke.cont unwind label %lpad, !dbg !8916

invoke.cont:                                      ; preds = %entry
  %3 = load i32, i32* %degree.addr, align 4, !dbg !8917
  invoke void @_ZN6dealii17FiniteElementDataILi3EEC1ERKSt6vectorIjSaIjEEjjNS1_10ConformityEj(%"class.dealii::FiniteElementData"* %ref.tmp2, %"class.std::vector.54"* dereferenceable(24) %ref.tmp3, i32 1, i32 %3, i32 1, i32 -1)
          to label %invoke.cont5 unwind label %lpad4, !dbg !8918

invoke.cont5:                                     ; preds = %invoke.cont
  %4 = load i32, i32* %degree.addr, align 4, !dbg !8919
  invoke void @_ZN6dealii14FE_DGPMonomialILi3EE14get_dpo_vectorEj(%"class.std::vector.54"* sret %ref.tmp8, i32 %4)
          to label %invoke.cont9 unwind label %lpad4, !dbg !8920

invoke.cont9:                                     ; preds = %invoke.cont5
  %5 = load i32, i32* %degree.addr, align 4, !dbg !8921
  invoke void @_ZN6dealii17FiniteElementDataILi3EEC1ERKSt6vectorIjSaIjEEjjNS1_10ConformityEj(%"class.dealii::FiniteElementData"* %ref.tmp7, %"class.std::vector.54"* dereferenceable(24) %ref.tmp8, i32 1, i32 %5, i32 0, i32 -1)
          to label %invoke.cont11 unwind label %lpad10, !dbg !8922

invoke.cont11:                                    ; preds = %invoke.cont9
  %dofs_per_cell = getelementptr inbounds %"class.dealii::FiniteElementData", %"class.dealii::FiniteElementData"* %ref.tmp7, i32 0, i32 10, !dbg !8923
  %6 = load i32, i32* %dofs_per_cell, align 4, !dbg !8923
  %conv = zext i32 %6 to i64, !dbg !8922
  store i8 1, i8* %ref.tmp12, align 1, !dbg !8924
  call void @_ZNSaIbEC2Ev(%"class.std::allocator.78"* %ref.tmp13) #4, !dbg !8925
  invoke void @_ZNSt6vectorIbSaIbEEC2EmRKbRKS0_(%"class.std::vector.59"* %ref.tmp6, i64 %conv, i8* dereferenceable(1) %ref.tmp12, %"class.std::allocator.78"* dereferenceable(1) %ref.tmp13)
          to label %invoke.cont15 unwind label %lpad14, !dbg !8925

invoke.cont15:                                    ; preds = %invoke.cont11
  %7 = load i32, i32* %degree.addr, align 4, !dbg !8926
  invoke void @_ZN6dealii14FE_DGPMonomialILi3EE14get_dpo_vectorEj(%"class.std::vector.54"* sret %ref.tmp18, i32 %7)
          to label %invoke.cont20 unwind label %lpad19, !dbg !8927

invoke.cont20:                                    ; preds = %invoke.cont15
  %8 = load i32, i32* %degree.addr, align 4, !dbg !8928
  invoke void @_ZN6dealii17FiniteElementDataILi3EEC1ERKSt6vectorIjSaIjEEjjNS1_10ConformityEj(%"class.dealii::FiniteElementData"* %ref.tmp17, %"class.std::vector.54"* dereferenceable(24) %ref.tmp18, i32 1, i32 %8, i32 0, i32 -1)
          to label %invoke.cont22 unwind label %lpad21, !dbg !8929

invoke.cont22:                                    ; preds = %invoke.cont20
  %dofs_per_cell23 = getelementptr inbounds %"class.dealii::FiniteElementData", %"class.dealii::FiniteElementData"* %ref.tmp17, i32 0, i32 10, !dbg !8930
  %9 = load i32, i32* %dofs_per_cell23, align 4, !dbg !8930
  %conv24 = zext i32 %9 to i64, !dbg !8929
  store i8 1, i8* %ref.tmp26, align 1, !dbg !8931
  call void @_ZNSaIbEC2Ev(%"class.std::allocator.78"* %ref.tmp27) #4, !dbg !8932
  invoke void @_ZNSt6vectorIbSaIbEEC2EmRKbRKS0_(%"class.std::vector.59"* %ref.tmp25, i64 1, i8* dereferenceable(1) %ref.tmp26, %"class.std::allocator.78"* dereferenceable(1) %ref.tmp27)
          to label %invoke.cont29 unwind label %lpad28, !dbg !8932

invoke.cont29:                                    ; preds = %invoke.cont22
  call void @_ZNSaISt6vectorIbSaIbEEEC2Ev(%"class.std::allocator.65"* %ref.tmp30) #4, !dbg !8933
  invoke void @_ZNSt6vectorIS_IbSaIbEESaIS1_EEC2EmRKS1_RKS2_(%"class.std::vector.63"* %ref.tmp16, i64 %conv24, %"class.std::vector.59"* dereferenceable(40) %ref.tmp25, %"class.std::allocator.65"* dereferenceable(1) %ref.tmp30)
          to label %invoke.cont32 unwind label %lpad31, !dbg !8933

invoke.cont32:                                    ; preds = %invoke.cont29
  invoke void @_ZN6dealii7FE_PolyINS_12PolynomialsPILi3EEELi3ELi3EEC2ERKS2_RKNS_17FiniteElementDataILi3EEERKSt6vectorIbSaIbEERKSA_ISC_SaISC_EE(%"class.dealii::FE_Poly"* %0, %"class.dealii::PolynomialsP"* dereferenceable(88) %ref.tmp, %"class.dealii::FiniteElementData"* dereferenceable(60) %ref.tmp2, %"class.std::vector.59"* dereferenceable(40) %ref.tmp6, %"class.std::vector.63"* dereferenceable(24) %ref.tmp16)
          to label %invoke.cont34 unwind label %lpad33, !dbg !8934

invoke.cont34:                                    ; preds = %invoke.cont32
  call void @_ZNSt6vectorIS_IbSaIbEESaIS1_EED2Ev(%"class.std::vector.63"* %ref.tmp16) #4, !dbg !8934
  call void @_ZNSaISt6vectorIbSaIbEEED2Ev(%"class.std::allocator.65"* %ref.tmp30) #4, !dbg !8934
  call void @_ZNSt6vectorIbSaIbEED2Ev(%"class.std::vector.59"* %ref.tmp25) #4, !dbg !8934
  call void @_ZNSaIbED2Ev(%"class.std::allocator.78"* %ref.tmp27) #4, !dbg !8934
  call void @_ZNSt6vectorIjSaIjEED2Ev(%"class.std::vector.54"* %ref.tmp18) #4, !dbg !8934
  call void @_ZNSt6vectorIbSaIbEED2Ev(%"class.std::vector.59"* %ref.tmp6) #4, !dbg !8934
  call void @_ZNSaIbED2Ev(%"class.std::allocator.78"* %ref.tmp13) #4, !dbg !8934
  call void @_ZNSt6vectorIjSaIjEED2Ev(%"class.std::vector.54"* %ref.tmp8) #4, !dbg !8934
  call void @_ZNSt6vectorIjSaIjEED2Ev(%"class.std::vector.54"* %ref.tmp3) #4, !dbg !8934
  call void @_ZN6dealii12PolynomialsPILi3EED2Ev(%"class.dealii::PolynomialsP"* %ref.tmp) #4, !dbg !8934
  %10 = bitcast %"class.dealii::FE_DGPMonomial"* %this1 to i32 (...)***, !dbg !8912
  store i32 (...)** bitcast (i8** getelementptr inbounds ({ [38 x i8*] }, { [38 x i8*] }* @_ZTVN6dealii14FE_DGPMonomialILi3EEE, i32 0, inrange i32 0, i32 2) to i32 (...)**), i32 (...)*** %10, align 8, !dbg !8912
  %11 = bitcast %"class.dealii::FE_DGPMonomial"* %this1 to %"class.dealii::FiniteElement"*, !dbg !8935
  invoke void @_ZN6dealii13FiniteElementILi3ELi3EE44reinit_restriction_and_prolongation_matricesEbb(%"class.dealii::FiniteElement"* %11, i1 zeroext false, i1 zeroext false)
          to label %invoke.cont44 unwind label %lpad43, !dbg !8935

invoke.cont44:                                    ; preds = %invoke.cont34
  %12 = bitcast %"class.dealii::FE_DGPMonomial"* %this1 to %"class.dealii::FiniteElement"*, !dbg !8937
  %13 = bitcast %"class.dealii::FE_DGPMonomial"* %this1 to %"class.dealii::FiniteElement"*, !dbg !8938
  %prolongation = getelementptr inbounds %"class.dealii::FiniteElement", %"class.dealii::FiniteElement"* %13, i32 0, i32 4, !dbg !8938
  invoke void @_ZN6dealii7FETools26compute_embedding_matricesILi3EdLi3EEEvRKNS_13FiniteElementIXT_EXT1_EEERSt6vectorIS6_INS_10FullMatrixIT0_EESaIS9_EESaISB_EEb(%"class.dealii::FiniteElement"* dereferenceable(728) %12, %"class.std::vector"* dereferenceable(24) %prolongation, i1 zeroext false)
          to label %invoke.cont45 unwind label %lpad43, !dbg !8939

invoke.cont45:                                    ; preds = %invoke.cont44
  %14 = bitcast %"class.dealii::FE_DGPMonomial"* %this1 to %"class.dealii::FiniteElement"*, !dbg !8940
  %15 = bitcast %"class.dealii::FE_DGPMonomial"* %this1 to %"class.dealii::FiniteElement"*, !dbg !8941
  %restriction = getelementptr inbounds %"class.dealii::FiniteElement", %"class.dealii::FiniteElement"* %15, i32 0, i32 3, !dbg !8941
  invoke void @_ZN6dealii7FETools27compute_projection_matricesILi3EdLi3EEEvRKNS_13FiniteElementIXT_EXT1_EEERSt6vectorIS6_INS_10FullMatrixIT0_EESaIS9_EESaISB_EE(%"class.dealii::FiniteElement"* dereferenceable(728) %14, %"class.std::vector"* dereferenceable(24) %restriction)
          to label %invoke.cont46 unwind label %lpad43, !dbg !8942

invoke.cont46:                                    ; preds = %invoke.cont45
  ret void, !dbg !8943

lpad:                                             ; preds = %entry
  %16 = landingpad { i8*, i32 }
          cleanup, !dbg !8943
  %17 = extractvalue { i8*, i32 } %16, 0, !dbg !8943
  store i8* %17, i8** %exn.slot, align 8, !dbg !8943
  %18 = extractvalue { i8*, i32 } %16, 1, !dbg !8943
  store i32 %18, i32* %ehselector.slot, align 4, !dbg !8943
  br label %ehcleanup42, !dbg !8943

lpad4:                                            ; preds = %invoke.cont5, %invoke.cont
  %19 = landingpad { i8*, i32 }
          cleanup, !dbg !8943
  %20 = extractvalue { i8*, i32 } %19, 0, !dbg !8943
  store i8* %20, i8** %exn.slot, align 8, !dbg !8943
  %21 = extractvalue { i8*, i32 } %19, 1, !dbg !8943
  store i32 %21, i32* %ehselector.slot, align 4, !dbg !8943
  br label %ehcleanup41, !dbg !8943

lpad10:                                           ; preds = %invoke.cont9
  %22 = landingpad { i8*, i32 }
          cleanup, !dbg !8943
  %23 = extractvalue { i8*, i32 } %22, 0, !dbg !8943
  store i8* %23, i8** %exn.slot, align 8, !dbg !8943
  %24 = extractvalue { i8*, i32 } %22, 1, !dbg !8943
  store i32 %24, i32* %ehselector.slot, align 4, !dbg !8943
  br label %ehcleanup40, !dbg !8943

lpad14:                                           ; preds = %invoke.cont11
  %25 = landingpad { i8*, i32 }
          cleanup, !dbg !8943
  %26 = extractvalue { i8*, i32 } %25, 0, !dbg !8943
  store i8* %26, i8** %exn.slot, align 8, !dbg !8943
  %27 = extractvalue { i8*, i32 } %25, 1, !dbg !8943
  store i32 %27, i32* %ehselector.slot, align 4, !dbg !8943
  br label %ehcleanup39, !dbg !8943

lpad19:                                           ; preds = %invoke.cont15
  %28 = landingpad { i8*, i32 }
          cleanup, !dbg !8943
  %29 = extractvalue { i8*, i32 } %28, 0, !dbg !8943
  store i8* %29, i8** %exn.slot, align 8, !dbg !8943
  %30 = extractvalue { i8*, i32 } %28, 1, !dbg !8943
  store i32 %30, i32* %ehselector.slot, align 4, !dbg !8943
  br label %ehcleanup38, !dbg !8943

lpad21:                                           ; preds = %invoke.cont20
  %31 = landingpad { i8*, i32 }
          cleanup, !dbg !8943
  %32 = extractvalue { i8*, i32 } %31, 0, !dbg !8943
  store i8* %32, i8** %exn.slot, align 8, !dbg !8943
  %33 = extractvalue { i8*, i32 } %31, 1, !dbg !8943
  store i32 %33, i32* %ehselector.slot, align 4, !dbg !8943
  br label %ehcleanup37, !dbg !8943

lpad28:                                           ; preds = %invoke.cont22
  %34 = landingpad { i8*, i32 }
          cleanup, !dbg !8943
  %35 = extractvalue { i8*, i32 } %34, 0, !dbg !8943
  store i8* %35, i8** %exn.slot, align 8, !dbg !8943
  %36 = extractvalue { i8*, i32 } %34, 1, !dbg !8943
  store i32 %36, i32* %ehselector.slot, align 4, !dbg !8943
  br label %ehcleanup36, !dbg !8943

lpad31:                                           ; preds = %invoke.cont29
  %37 = landingpad { i8*, i32 }
          cleanup, !dbg !8943
  %38 = extractvalue { i8*, i32 } %37, 0, !dbg !8943
  store i8* %38, i8** %exn.slot, align 8, !dbg !8943
  %39 = extractvalue { i8*, i32 } %37, 1, !dbg !8943
  store i32 %39, i32* %ehselector.slot, align 4, !dbg !8943
  br label %ehcleanup, !dbg !8943

lpad33:                                           ; preds = %invoke.cont32
  %40 = landingpad { i8*, i32 }
          cleanup, !dbg !8943
  %41 = extractvalue { i8*, i32 } %40, 0, !dbg !8943
  store i8* %41, i8** %exn.slot, align 8, !dbg !8943
  %42 = extractvalue { i8*, i32 } %40, 1, !dbg !8943
  store i32 %42, i32* %ehselector.slot, align 4, !dbg !8943
  call void @_ZNSt6vectorIS_IbSaIbEESaIS1_EED2Ev(%"class.std::vector.63"* %ref.tmp16) #4, !dbg !8934
  br label %ehcleanup, !dbg !8934

ehcleanup:                                        ; preds = %lpad33, %lpad31
  call void @_ZNSaISt6vectorIbSaIbEEED2Ev(%"class.std::allocator.65"* %ref.tmp30) #4, !dbg !8934
  call void @_ZNSt6vectorIbSaIbEED2Ev(%"class.std::vector.59"* %ref.tmp25) #4, !dbg !8934
  br label %ehcleanup36, !dbg !8934

ehcleanup36:                                      ; preds = %ehcleanup, %lpad28
  call void @_ZNSaIbED2Ev(%"class.std::allocator.78"* %ref.tmp27) #4, !dbg !8934
  br label %ehcleanup37, !dbg !8934

ehcleanup37:                                      ; preds = %ehcleanup36, %lpad21
  call void @_ZNSt6vectorIjSaIjEED2Ev(%"class.std::vector.54"* %ref.tmp18) #4, !dbg !8934
  br label %ehcleanup38, !dbg !8934

ehcleanup38:                                      ; preds = %ehcleanup37, %lpad19
  call void @_ZNSt6vectorIbSaIbEED2Ev(%"class.std::vector.59"* %ref.tmp6) #4, !dbg !8934
  br label %ehcleanup39, !dbg !8934

ehcleanup39:                                      ; preds = %ehcleanup38, %lpad14
  call void @_ZNSaIbED2Ev(%"class.std::allocator.78"* %ref.tmp13) #4, !dbg !8934
  br label %ehcleanup40, !dbg !8934

ehcleanup40:                                      ; preds = %ehcleanup39, %lpad10
  call void @_ZNSt6vectorIjSaIjEED2Ev(%"class.std::vector.54"* %ref.tmp8) #4, !dbg !8934
  br label %ehcleanup41, !dbg !8934

ehcleanup41:                                      ; preds = %ehcleanup40, %lpad4
  call void @_ZNSt6vectorIjSaIjEED2Ev(%"class.std::vector.54"* %ref.tmp3) #4, !dbg !8934
  br label %ehcleanup42, !dbg !8934

ehcleanup42:                                      ; preds = %ehcleanup41, %lpad
  call void @_ZN6dealii12PolynomialsPILi3EED2Ev(%"class.dealii::PolynomialsP"* %ref.tmp) #4, !dbg !8934
  br label %eh.resume, !dbg !8934

lpad43:                                           ; preds = %invoke.cont45, %invoke.cont44, %invoke.cont34
  %43 = landingpad { i8*, i32 }
          cleanup, !dbg !8944
  %44 = extractvalue { i8*, i32 } %43, 0, !dbg !8944
  store i8* %44, i8** %exn.slot, align 8, !dbg !8944
  %45 = extractvalue { i8*, i32 } %43, 1, !dbg !8944
  store i32 %45, i32* %ehselector.slot, align 4, !dbg !8944
  %46 = bitcast %"class.dealii::FE_DGPMonomial"* %this1 to %"class.dealii::FE_Poly"*, !dbg !8944
  call void @_ZN6dealii7FE_PolyINS_12PolynomialsPILi3EEELi3ELi3EED2Ev(%"class.dealii::FE_Poly"* %46) #4, !dbg !8944
  br label %eh.resume, !dbg !8944

eh.resume:                                        ; preds = %lpad43, %ehcleanup42
  %exn = load i8*, i8** %exn.slot, align 8, !dbg !8934
  %sel = load i32, i32* %ehselector.slot, align 4, !dbg !8934
  %lpad.val = insertvalue { i8*, i32 } undef, i8* %exn, 0, !dbg !8934
  %lpad.val48 = insertvalue { i8*, i32 } %lpad.val, i32 %sel, 1, !dbg !8934
  resume { i8*, i32 } %lpad.val48, !dbg !8934
}

; Function Attrs: nounwind readnone speculatable willreturn
declare void @llvm.dbg.declare(metadata, metadata, metadata) #5

declare dso_local void @_ZN6dealii12PolynomialsPILi3EEC1Ej(%"class.dealii::PolynomialsP"*, i32) unnamed_addr #2

; Function Attrs: noinline uwtable
define weak_odr dso_local void @_ZN6dealii14FE_DGPMonomialILi3EE14get_dpo_vectorEj(%"class.std::vector.54"* noalias sret %agg.result, i32 %deg) #0 comdat align 2 personality i8* bitcast (i32 (...)* @__gxx_personality_v0 to i8*) !dbg !8945 {
entry:
  %result.ptr = alloca i8*, align 8
  %deg.addr = alloca i32, align 4
  %nrvo = alloca i1, align 1
  %ref.tmp = alloca i32, align 4
  %ref.tmp1 = alloca %"class.std::allocator.56", align 1
  %exn.slot = alloca i8*
  %ehselector.slot = alloca i32
  %i = alloca i32, align 4
  %0 = bitcast %"class.std::vector.54"* %agg.result to i8*
  store i8* %0, i8** %result.ptr, align 8
  store i32 %deg, i32* %deg.addr, align 4
  call void @llvm.dbg.declare(metadata i32* %deg.addr, metadata !8946, metadata !DIExpression()), !dbg !8947
  store i1 false, i1* %nrvo, align 1, !dbg !8948
  call void @llvm.dbg.declare(metadata i8** %result.ptr, metadata !8949, metadata !DIExpression(DW_OP_deref)), !dbg !8950
  store i32 0, i32* %ref.tmp, align 4, !dbg !8951
  call void @_ZNSaIjEC2Ev(%"class.std::allocator.56"* %ref.tmp1) #4, !dbg !8950
  invoke void @_ZNSt6vectorIjSaIjEEC2EmRKjRKS0_(%"class.std::vector.54"* %agg.result, i64 4, i32* dereferenceable(4) %ref.tmp, %"class.std::allocator.56"* dereferenceable(1) %ref.tmp1)
          to label %invoke.cont unwind label %lpad, !dbg !8950

invoke.cont:                                      ; preds = %entry
  call void @_ZNSaIjED2Ev(%"class.std::allocator.56"* %ref.tmp1) #4, !dbg !8950
  %1 = load i32, i32* %deg.addr, align 4, !dbg !8952
  %add = add i32 %1, 1, !dbg !8953
  %call = call dereferenceable(4) i32* @_ZNSt6vectorIjSaIjEEixEm(%"class.std::vector.54"* %agg.result, i64 3) #4, !dbg !8954
  store i32 %add, i32* %call, align 4, !dbg !8955
  call void @llvm.dbg.declare(metadata i32* %i, metadata !8956, metadata !DIExpression()), !dbg !8958
  store i32 1, i32* %i, align 4, !dbg !8958
  br label %for.cond, !dbg !8959

for.cond:                                         ; preds = %for.inc, %invoke.cont
  %2 = load i32, i32* %i, align 4, !dbg !8960
  %cmp = icmp ult i32 %2, 3, !dbg !8962
  br i1 %cmp, label %for.body, label %for.end, !dbg !8963

for.body:                                         ; preds = %for.cond
  %3 = load i32, i32* %deg.addr, align 4, !dbg !8964
  %add2 = add i32 %3, 1, !dbg !8966
  %4 = load i32, i32* %i, align 4, !dbg !8967
  %add3 = add i32 %add2, %4, !dbg !8968
  %call4 = call dereferenceable(4) i32* @_ZNSt6vectorIjSaIjEEixEm(%"class.std::vector.54"* %agg.result, i64 3) #4, !dbg !8969
  %5 = load i32, i32* %call4, align 4, !dbg !8970
  %mul = mul i32 %5, %add3, !dbg !8970
  store i32 %mul, i32* %call4, align 4, !dbg !8970
  %6 = load i32, i32* %i, align 4, !dbg !8971
  %add5 = add i32 %6, 1, !dbg !8972
  %call6 = call dereferenceable(4) i32* @_ZNSt6vectorIjSaIjEEixEm(%"class.std::vector.54"* %agg.result, i64 3) #4, !dbg !8973
  %7 = load i32, i32* %call6, align 4, !dbg !8974
  %div = udiv i32 %7, %add5, !dbg !8974
  store i32 %div, i32* %call6, align 4, !dbg !8974
  br label %for.inc, !dbg !8975

for.inc:                                          ; preds = %for.body
  %8 = load i32, i32* %i, align 4, !dbg !8976
  %inc = add i32 %8, 1, !dbg !8976
  store i32 %inc, i32* %i, align 4, !dbg !8976
  br label %for.cond, !dbg !8977, !llvm.loop !8978

lpad:                                             ; preds = %entry
  %9 = landingpad { i8*, i32 }
          cleanup, !dbg !8980
  %10 = extractvalue { i8*, i32 } %9, 0, !dbg !8980
  store i8* %10, i8** %exn.slot, align 8, !dbg !8980
  %11 = extractvalue { i8*, i32 } %9, 1, !dbg !8980
  store i32 %11, i32* %ehselector.slot, align 4, !dbg !8980
  call void @_ZNSaIjED2Ev(%"class.std::allocator.56"* %ref.tmp1) #4, !dbg !8950
  br label %eh.resume, !dbg !8950

for.end:                                          ; preds = %for.cond
  store i1 true, i1* %nrvo, align 1, !dbg !8981
  %nrvo.val = load i1, i1* %nrvo, align 1, !dbg !8980
  br i1 %nrvo.val, label %nrvo.skipdtor, label %nrvo.unused, !dbg !8980

nrvo.unused:                                      ; preds = %for.end
  call void @_ZNSt6vectorIjSaIjEED2Ev(%"class.std::vector.54"* %agg.result) #4, !dbg !8980
  br label %nrvo.skipdtor, !dbg !8980

nrvo.skipdtor:                                    ; preds = %nrvo.unused, %for.end
  ret void, !dbg !8980

eh.resume:                                        ; preds = %lpad
  %exn = load i8*, i8** %exn.slot, align 8, !dbg !8950
  %sel = load i32, i32* %ehselector.slot, align 4, !dbg !8950
  %lpad.val = insertvalue { i8*, i32 } undef, i8* %exn, 0, !dbg !8950
  %lpad.val7 = insertvalue { i8*, i32 } %lpad.val, i32 %sel, 1, !dbg !8950
  resume { i8*, i32 } %lpad.val7, !dbg !8950
}

declare dso_local i32 @__gxx_personality_v0(...)

declare dso_local void @_ZN6dealii17FiniteElementDataILi3EEC1ERKSt6vectorIjSaIjEEjjNS1_10ConformityEj(%"class.dealii::FiniteElementData"*, %"class.std::vector.54"* dereferenceable(24), i32, i32, i32, i32) unnamed_addr #2

; Function Attrs: noinline nounwind uwtable
define linkonce_odr dso_local void @_ZNSaIbEC2Ev(%"class.std::allocator.78"* %this) unnamed_addr #1 comdat align 2 !dbg !8982 {
entry:
  %this.addr = alloca %"class.std::allocator.78"*, align 8
  store %"class.std::allocator.78"* %this, %"class.std::allocator.78"** %this.addr, align 8
  call void @llvm.dbg.declare(metadata %"class.std::allocator.78"** %this.addr, metadata !8983, metadata !DIExpression()), !dbg !8985
  %this1 = load %"class.std::allocator.78"*, %"class.std::allocator.78"** %this.addr, align 8
  %0 = bitcast %"class.std::allocator.78"* %this1 to %"class.__gnu_cxx::new_allocator.79"*, !dbg !8986
  call void @_ZN9__gnu_cxx13new_allocatorIbEC2Ev(%"class.__gnu_cxx::new_allocator.79"* %0) #4, !dbg !8987
  ret void, !dbg !8988
}

; Function Attrs: noinline uwtable
define linkonce_odr dso_local void @_ZNSt6vectorIbSaIbEEC2EmRKbRKS0_(%"class.std::vector.59"* %this, i64 %__n, i8* dereferenceable(1) %__value, %"class.std::allocator.78"* dereferenceable(1) %__a) unnamed_addr #0 comdat align 2 personality i8* bitcast (i32 (...)* @__gxx_personality_v0 to i8*) !dbg !8989 {
entry:
  %this.addr = alloca %"class.std::vector.59"*, align 8
  %__n.addr = alloca i64, align 8
  %__value.addr = alloca i8*, align 8
  %__a.addr = alloca %"class.std::allocator.78"*, align 8
  %exn.slot = alloca i8*
  %ehselector.slot = alloca i32
  store %"class.std::vector.59"* %this, %"class.std::vector.59"** %this.addr, align 8
  call void @llvm.dbg.declare(metadata %"class.std::vector.59"** %this.addr, metadata !8990, metadata !DIExpression()), !dbg !8991
  store i64 %__n, i64* %__n.addr, align 8
  call void @llvm.dbg.declare(metadata i64* %__n.addr, metadata !8992, metadata !DIExpression()), !dbg !8993
  store i8* %__value, i8** %__value.addr, align 8
  call void @llvm.dbg.declare(metadata i8** %__value.addr, metadata !8994, metadata !DIExpression()), !dbg !8995
  store %"class.std::allocator.78"* %__a, %"class.std::allocator.78"** %__a.addr, align 8
  call void @llvm.dbg.declare(metadata %"class.std::allocator.78"** %__a.addr, metadata !8996, metadata !DIExpression()), !dbg !8997
  %this1 = load %"class.std::vector.59"*, %"class.std::vector.59"** %this.addr, align 8
  %0 = bitcast %"class.std::vector.59"* %this1 to %"struct.std::_Bvector_base"*, !dbg !8998
  %1 = load %"class.std::allocator.78"*, %"class.std::allocator.78"** %__a.addr, align 8, !dbg !8999
  call void @_ZNSt13_Bvector_baseISaIbEEC2ERKS0_(%"struct.std::_Bvector_base"* %0, %"class.std::allocator.78"* dereferenceable(1) %1), !dbg !9000
  %2 = load i64, i64* %__n.addr, align 8, !dbg !9001
  invoke void @_ZNSt6vectorIbSaIbEE13_M_initializeEm(%"class.std::vector.59"* %this1, i64 %2)
          to label %invoke.cont unwind label %lpad, !dbg !9003

invoke.cont:                                      ; preds = %entry
  %3 = load i8*, i8** %__value.addr, align 8, !dbg !9004
  %4 = load i8, i8* %3, align 1, !dbg !9004
  %tobool = trunc i8 %4 to i1, !dbg !9004
  invoke void @_ZNSt6vectorIbSaIbEE19_M_initialize_valueEb(%"class.std::vector.59"* %this1, i1 zeroext %tobool)
          to label %invoke.cont2 unwind label %lpad, !dbg !9005

invoke.cont2:                                     ; preds = %invoke.cont
  ret void, !dbg !9006

lpad:                                             ; preds = %invoke.cont, %entry
  %5 = landingpad { i8*, i32 }
          cleanup, !dbg !9007
  %6 = extractvalue { i8*, i32 } %5, 0, !dbg !9007
  store i8* %6, i8** %exn.slot, align 8, !dbg !9007
  %7 = extractvalue { i8*, i32 } %5, 1, !dbg !9007
  store i32 %7, i32* %ehselector.slot, align 4, !dbg !9007
  %8 = bitcast %"class.std::vector.59"* %this1 to %"struct.std::_Bvector_base"*, !dbg !9007
  call void @_ZNSt13_Bvector_baseISaIbEED2Ev(%"struct.std::_Bvector_base"* %8) #4, !dbg !9007
  br label %eh.resume, !dbg !9007

eh.resume:                                        ; preds = %lpad
  %exn = load i8*, i8** %exn.slot, align 8, !dbg !9007
  %sel = load i32, i32* %ehselector.slot, align 4, !dbg !9007
  %lpad.val = insertvalue { i8*, i32 } undef, i8* %exn, 0, !dbg !9007
  %lpad.val3 = insertvalue { i8*, i32 } %lpad.val, i32 %sel, 1, !dbg !9007
  resume { i8*, i32 } %lpad.val3, !dbg !9007
}

; Function Attrs: noinline nounwind uwtable
define linkonce_odr dso_local void @_ZNSaISt6vectorIbSaIbEEEC2Ev(%"class.std::allocator.65"* %this) unnamed_addr #1 comdat align 2 !dbg !9008 {
entry:
  %this.addr = alloca %"class.std::allocator.65"*, align 8
  store %"class.std::allocator.65"* %this, %"class.std::allocator.65"** %this.addr, align 8
  call void @llvm.dbg.declare(metadata %"class.std::allocator.65"** %this.addr, metadata !9009, metadata !DIExpression()), !dbg !9011
  %this1 = load %"class.std::allocator.65"*, %"class.std::allocator.65"** %this.addr, align 8
  %0 = bitcast %"class.std::allocator.65"* %this1 to %"class.__gnu_cxx::new_allocator.66"*, !dbg !9012
  call void @_ZN9__gnu_cxx13new_allocatorISt6vectorIbSaIbEEEC2Ev(%"class.__gnu_cxx::new_allocator.66"* %0) #4, !dbg !9013
  ret void, !dbg !9014
}

; Function Attrs: noinline uwtable
define linkonce_odr dso_local void @_ZNSt6vectorIS_IbSaIbEESaIS1_EEC2EmRKS1_RKS2_(%"class.std::vector.63"* %this, i64 %__n, %"class.std::vector.59"* dereferenceable(40) %__value, %"class.std::allocator.65"* dereferenceable(1) %__a) unnamed_addr #0 comdat align 2 personality i8* bitcast (i32 (...)* @__gxx_personality_v0 to i8*) !dbg !9015 {
entry:
  %this.addr = alloca %"class.std::vector.63"*, align 8
  %__n.addr = alloca i64, align 8
  %__value.addr = alloca %"class.std::vector.59"*, align 8
  %__a.addr = alloca %"class.std::allocator.65"*, align 8
  %exn.slot = alloca i8*
  %ehselector.slot = alloca i32
  store %"class.std::vector.63"* %this, %"class.std::vector.63"** %this.addr, align 8
  call void @llvm.dbg.declare(metadata %"class.std::vector.63"** %this.addr, metadata !9016, metadata !DIExpression()), !dbg !9018
  store i64 %__n, i64* %__n.addr, align 8
  call void @llvm.dbg.declare(metadata i64* %__n.addr, metadata !9019, metadata !DIExpression()), !dbg !9020
  store %"class.std::vector.59"* %__value, %"class.std::vector.59"** %__value.addr, align 8
  call void @llvm.dbg.declare(metadata %"class.std::vector.59"** %__value.addr, metadata !9021, metadata !DIExpression()), !dbg !9022
  store %"class.std::allocator.65"* %__a, %"class.std::allocator.65"** %__a.addr, align 8
  call void @llvm.dbg.declare(metadata %"class.std::allocator.65"** %__a.addr, metadata !9023, metadata !DIExpression()), !dbg !9024
  %this1 = load %"class.std::vector.63"*, %"class.std::vector.63"** %this.addr, align 8
  %0 = bitcast %"class.std::vector.63"* %this1 to %"struct.std::_Vector_base.64"*, !dbg !9025
  %1 = load i64, i64* %__n.addr, align 8, !dbg !9026
  %2 = load %"class.std::allocator.65"*, %"class.std::allocator.65"** %__a.addr, align 8, !dbg !9027
  %call = call i64 @_ZNSt6vectorIS_IbSaIbEESaIS1_EE17_S_check_init_lenEmRKS2_(i64 %1, %"class.std::allocator.65"* dereferenceable(1) %2), !dbg !9028
  %3 = load %"class.std::allocator.65"*, %"class.std::allocator.65"** %__a.addr, align 8, !dbg !9029
  call void @_ZNSt12_Vector_baseISt6vectorIbSaIbEESaIS2_EEC2EmRKS3_(%"struct.std::_Vector_base.64"* %0, i64 %call, %"class.std::allocator.65"* dereferenceable(1) %3), !dbg !9030
  %4 = load i64, i64* %__n.addr, align 8, !dbg !9031
  %5 = load %"class.std::vector.59"*, %"class.std::vector.59"** %__value.addr, align 8, !dbg !9033
  invoke void @_ZNSt6vectorIS_IbSaIbEESaIS1_EE18_M_fill_initializeEmRKS1_(%"class.std::vector.63"* %this1, i64 %4, %"class.std::vector.59"* dereferenceable(40) %5)
          to label %invoke.cont unwind label %lpad, !dbg !9034

invoke.cont:                                      ; preds = %entry
  ret void, !dbg !9035

lpad:                                             ; preds = %entry
  %6 = landingpad { i8*, i32 }
          cleanup, !dbg !9036
  %7 = extractvalue { i8*, i32 } %6, 0, !dbg !9036
  store i8* %7, i8** %exn.slot, align 8, !dbg !9036
  %8 = extractvalue { i8*, i32 } %6, 1, !dbg !9036
  store i32 %8, i32* %ehselector.slot, align 4, !dbg !9036
  %9 = bitcast %"class.std::vector.63"* %this1 to %"struct.std::_Vector_base.64"*, !dbg !9036
  call void @_ZNSt12_Vector_baseISt6vectorIbSaIbEESaIS2_EED2Ev(%"struct.std::_Vector_base.64"* %9) #4, !dbg !9036
  br label %eh.resume, !dbg !9036

eh.resume:                                        ; preds = %lpad
  %exn = load i8*, i8** %exn.slot, align 8, !dbg !9036
  %sel = load i32, i32* %ehselector.slot, align 4, !dbg !9036
  %lpad.val = insertvalue { i8*, i32 } undef, i8* %exn, 0, !dbg !9036
  %lpad.val2 = insertvalue { i8*, i32 } %lpad.val, i32 %sel, 1, !dbg !9036
  resume { i8*, i32 } %lpad.val2, !dbg !9036
}

declare dso_local void @_ZN6dealii7FE_PolyINS_12PolynomialsPILi3EEELi3ELi3EEC2ERKS2_RKNS_17FiniteElementDataILi3EEERKSt6vectorIbSaIbEERKSA_ISC_SaISC_EE(%"class.dealii::FE_Poly"*, %"class.dealii::PolynomialsP"* dereferenceable(88), %"class.dealii::FiniteElementData"* dereferenceable(60), %"class.std::vector.59"* dereferenceable(40), %"class.std::vector.63"* dereferenceable(24)) unnamed_addr #2

; Function Attrs: noinline nounwind uwtable
define linkonce_odr dso_local void @_ZNSt6vectorIS_IbSaIbEESaIS1_EED2Ev(%"class.std::vector.63"* %this) unnamed_addr #1 comdat align 2 personality i8* bitcast (i32 (...)* @__gxx_personality_v0 to i8*) !dbg !9037 {
entry:
  %this.addr = alloca %"class.std::vector.63"*, align 8
  %exn.slot = alloca i8*
  %ehselector.slot = alloca i32
  store %"class.std::vector.63"* %this, %"class.std::vector.63"** %this.addr, align 8
  call void @llvm.dbg.declare(metadata %"class.std::vector.63"** %this.addr, metadata !9038, metadata !DIExpression()), !dbg !9039
  %this1 = load %"class.std::vector.63"*, %"class.std::vector.63"** %this.addr, align 8
  %0 = bitcast %"class.std::vector.63"* %this1 to %"struct.std::_Vector_base.64"*, !dbg !9040
  %_M_impl = getelementptr inbounds %"struct.std::_Vector_base.64", %"struct.std::_Vector_base.64"* %0, i32 0, i32 0, !dbg !9040
  %1 = bitcast %"struct.std::_Vector_base<std::vector<bool, std::allocator<bool> >, std::allocator<std::vector<bool, std::allocator<bool> > > >::_Vector_impl"* %_M_impl to %"struct.std::_Vector_base<std::vector<bool, std::allocator<bool> >, std::allocator<std::vector<bool, std::allocator<bool> > > >::_Vector_impl_data"*, !dbg !9042
  %_M_start = getelementptr inbounds %"struct.std::_Vector_base<std::vector<bool, std::allocator<bool> >, std::allocator<std::vector<bool, std::allocator<bool> > > >::_Vector_impl_data", %"struct.std::_Vector_base<std::vector<bool, std::allocator<bool> >, std::allocator<std::vector<bool, std::allocator<bool> > > >::_Vector_impl_data"* %1, i32 0, i32 0, !dbg !9043
  %2 = load %"class.std::vector.59"*, %"class.std::vector.59"** %_M_start, align 8, !dbg !9043
  %3 = bitcast %"class.std::vector.63"* %this1 to %"struct.std::_Vector_base.64"*, !dbg !9044
  %_M_impl2 = getelementptr inbounds %"struct.std::_Vector_base.64", %"struct.std::_Vector_base.64"* %3, i32 0, i32 0, !dbg !9044
  %4 = bitcast %"struct.std::_Vector_base<std::vector<bool, std::allocator<bool> >, std::allocator<std::vector<bool, std::allocator<bool> > > >::_Vector_impl"* %_M_impl2 to %"struct.std::_Vector_base<std::vector<bool, std::allocator<bool> >, std::allocator<std::vector<bool, std::allocator<bool> > > >::_Vector_impl_data"*, !dbg !9045
  %_M_finish = getelementptr inbounds %"struct.std::_Vector_base<std::vector<bool, std::allocator<bool> >, std::allocator<std::vector<bool, std::allocator<bool> > > >::_Vector_impl_data", %"struct.std::_Vector_base<std::vector<bool, std::allocator<bool> >, std::allocator<std::vector<bool, std::allocator<bool> > > >::_Vector_impl_data"* %4, i32 0, i32 1, !dbg !9046
  %5 = load %"class.std::vector.59"*, %"class.std::vector.59"** %_M_finish, align 8, !dbg !9046
  %6 = bitcast %"class.std::vector.63"* %this1 to %"struct.std::_Vector_base.64"*, !dbg !9047
  %call = call dereferenceable(1) %"class.std::allocator.65"* @_ZNSt12_Vector_baseISt6vectorIbSaIbEESaIS2_EE19_M_get_Tp_allocatorEv(%"struct.std::_Vector_base.64"* %6) #4, !dbg !9047
  invoke void @_ZSt8_DestroyIPSt6vectorIbSaIbEES2_EvT_S4_RSaIT0_E(%"class.std::vector.59"* %2, %"class.std::vector.59"* %5, %"class.std::allocator.65"* dereferenceable(1) %call)
          to label %invoke.cont unwind label %lpad, !dbg !9048

invoke.cont:                                      ; preds = %entry
  %7 = bitcast %"class.std::vector.63"* %this1 to %"struct.std::_Vector_base.64"*, !dbg !9049
  call void @_ZNSt12_Vector_baseISt6vectorIbSaIbEESaIS2_EED2Ev(%"struct.std::_Vector_base.64"* %7) #4, !dbg !9049
  ret void, !dbg !9050

lpad:                                             ; preds = %entry
  %8 = landingpad { i8*, i32 }
          catch i8* null, !dbg !9049
  %9 = extractvalue { i8*, i32 } %8, 0, !dbg !9049
  store i8* %9, i8** %exn.slot, align 8, !dbg !9049
  %10 = extractvalue { i8*, i32 } %8, 1, !dbg !9049
  store i32 %10, i32* %ehselector.slot, align 4, !dbg !9049
  %11 = bitcast %"class.std::vector.63"* %this1 to %"struct.std::_Vector_base.64"*, !dbg !9049
  call void @_ZNSt12_Vector_baseISt6vectorIbSaIbEESaIS2_EED2Ev(%"struct.std::_Vector_base.64"* %11) #4, !dbg !9049
  br label %terminate.handler, !dbg !9049

terminate.handler:                                ; preds = %lpad
  %exn = load i8*, i8** %exn.slot, align 8, !dbg !9049
  call void @__clang_call_terminate(i8* %exn) #13, !dbg !9049
  unreachable, !dbg !9049
}

; Function Attrs: noinline nounwind uwtable
define linkonce_odr dso_local void @_ZNSaISt6vectorIbSaIbEEED2Ev(%"class.std::allocator.65"* %this) unnamed_addr #1 comdat align 2 !dbg !9051 {
entry:
  %this.addr = alloca %"class.std::allocator.65"*, align 8
  store %"class.std::allocator.65"* %this, %"class.std::allocator.65"** %this.addr, align 8
  call void @llvm.dbg.declare(metadata %"class.std::allocator.65"** %this.addr, metadata !9052, metadata !DIExpression()), !dbg !9053
  %this1 = load %"class.std::allocator.65"*, %"class.std::allocator.65"** %this.addr, align 8
  %0 = bitcast %"class.std::allocator.65"* %this1 to %"class.__gnu_cxx::new_allocator.66"*, !dbg !9054
  call void @_ZN9__gnu_cxx13new_allocatorISt6vectorIbSaIbEEED2Ev(%"class.__gnu_cxx::new_allocator.66"* %0) #4, !dbg !9054
  ret void, !dbg !9056
}

; Function Attrs: noinline nounwind uwtable
define linkonce_odr dso_local void @_ZNSt6vectorIbSaIbEED2Ev(%"class.std::vector.59"* %this) unnamed_addr #1 comdat align 2 !dbg !9057 {
entry:
  %this.addr = alloca %"class.std::vector.59"*, align 8
  store %"class.std::vector.59"* %this, %"class.std::vector.59"** %this.addr, align 8
  call void @llvm.dbg.declare(metadata %"class.std::vector.59"** %this.addr, metadata !9058, metadata !DIExpression()), !dbg !9059
  %this1 = load %"class.std::vector.59"*, %"class.std::vector.59"** %this.addr, align 8
  %0 = bitcast %"class.std::vector.59"* %this1 to %"struct.std::_Bvector_base"*, !dbg !9060
  call void @_ZNSt13_Bvector_baseISaIbEED2Ev(%"struct.std::_Bvector_base"* %0) #4, !dbg !9060
  ret void, !dbg !9062
}

; Function Attrs: noinline nounwind uwtable
define linkonce_odr dso_local void @_ZNSaIbED2Ev(%"class.std::allocator.78"* %this) unnamed_addr #1 comdat align 2 !dbg !9063 {
entry:
  %this.addr = alloca %"class.std::allocator.78"*, align 8
  store %"class.std::allocator.78"* %this, %"class.std::allocator.78"** %this.addr, align 8
  call void @llvm.dbg.declare(metadata %"class.std::allocator.78"** %this.addr, metadata !9064, metadata !DIExpression()), !dbg !9065
  %this1 = load %"class.std::allocator.78"*, %"class.std::allocator.78"** %this.addr, align 8
  %0 = bitcast %"class.std::allocator.78"* %this1 to %"class.__gnu_cxx::new_allocator.79"*, !dbg !9066
  call void @_ZN9__gnu_cxx13new_allocatorIbED2Ev(%"class.__gnu_cxx::new_allocator.79"* %0) #4, !dbg !9066
  ret void, !dbg !9068
}

; Function Attrs: noinline nounwind uwtable
define linkonce_odr dso_local void @_ZNSt6vectorIjSaIjEED2Ev(%"class.std::vector.54"* %this) unnamed_addr #1 comdat align 2 personality i8* bitcast (i32 (...)* @__gxx_personality_v0 to i8*) !dbg !9069 {
entry:
  %this.addr = alloca %"class.std::vector.54"*, align 8
  %exn.slot = alloca i8*
  %ehselector.slot = alloca i32
  store %"class.std::vector.54"* %this, %"class.std::vector.54"** %this.addr, align 8
  call void @llvm.dbg.declare(metadata %"class.std::vector.54"** %this.addr, metadata !9070, metadata !DIExpression()), !dbg !9072
  %this1 = load %"class.std::vector.54"*, %"class.std::vector.54"** %this.addr, align 8
  %0 = bitcast %"class.std::vector.54"* %this1 to %"struct.std::_Vector_base.55"*, !dbg !9073
  %_M_impl = getelementptr inbounds %"struct.std::_Vector_base.55", %"struct.std::_Vector_base.55"* %0, i32 0, i32 0, !dbg !9073
  %1 = bitcast %"struct.std::_Vector_base<unsigned int, std::allocator<unsigned int> >::_Vector_impl"* %_M_impl to %"struct.std::_Vector_base<unsigned int, std::allocator<unsigned int> >::_Vector_impl_data"*, !dbg !9075
  %_M_start = getelementptr inbounds %"struct.std::_Vector_base<unsigned int, std::allocator<unsigned int> >::_Vector_impl_data", %"struct.std::_Vector_base<unsigned int, std::allocator<unsigned int> >::_Vector_impl_data"* %1, i32 0, i32 0, !dbg !9076
  %2 = load i32*, i32** %_M_start, align 8, !dbg !9076
  %3 = bitcast %"class.std::vector.54"* %this1 to %"struct.std::_Vector_base.55"*, !dbg !9077
  %_M_impl2 = getelementptr inbounds %"struct.std::_Vector_base.55", %"struct.std::_Vector_base.55"* %3, i32 0, i32 0, !dbg !9077
  %4 = bitcast %"struct.std::_Vector_base<unsigned int, std::allocator<unsigned int> >::_Vector_impl"* %_M_impl2 to %"struct.std::_Vector_base<unsigned int, std::allocator<unsigned int> >::_Vector_impl_data"*, !dbg !9078
  %_M_finish = getelementptr inbounds %"struct.std::_Vector_base<unsigned int, std::allocator<unsigned int> >::_Vector_impl_data", %"struct.std::_Vector_base<unsigned int, std::allocator<unsigned int> >::_Vector_impl_data"* %4, i32 0, i32 1, !dbg !9079
  %5 = load i32*, i32** %_M_finish, align 8, !dbg !9079
  %6 = bitcast %"class.std::vector.54"* %this1 to %"struct.std::_Vector_base.55"*, !dbg !9080
  %call = call dereferenceable(1) %"class.std::allocator.56"* @_ZNSt12_Vector_baseIjSaIjEE19_M_get_Tp_allocatorEv(%"struct.std::_Vector_base.55"* %6) #4, !dbg !9080
  invoke void @_ZSt8_DestroyIPjjEvT_S1_RSaIT0_E(i32* %2, i32* %5, %"class.std::allocator.56"* dereferenceable(1) %call)
          to label %invoke.cont unwind label %lpad, !dbg !9081

invoke.cont:                                      ; preds = %entry
  %7 = bitcast %"class.std::vector.54"* %this1 to %"struct.std::_Vector_base.55"*, !dbg !9082
  call void @_ZNSt12_Vector_baseIjSaIjEED2Ev(%"struct.std::_Vector_base.55"* %7) #4, !dbg !9082
  ret void, !dbg !9083

lpad:                                             ; preds = %entry
  %8 = landingpad { i8*, i32 }
          catch i8* null, !dbg !9082
  %9 = extractvalue { i8*, i32 } %8, 0, !dbg !9082
  store i8* %9, i8** %exn.slot, align 8, !dbg !9082
  %10 = extractvalue { i8*, i32 } %8, 1, !dbg !9082
  store i32 %10, i32* %ehselector.slot, align 4, !dbg !9082
  %11 = bitcast %"class.std::vector.54"* %this1 to %"struct.std::_Vector_base.55"*, !dbg !9082
  call void @_ZNSt12_Vector_baseIjSaIjEED2Ev(%"struct.std::_Vector_base.55"* %11) #4, !dbg !9082
  br label %terminate.handler, !dbg !9082

terminate.handler:                                ; preds = %lpad
  %exn = load i8*, i8** %exn.slot, align 8, !dbg !9082
  call void @__clang_call_terminate(i8* %exn) #13, !dbg !9082
  unreachable, !dbg !9082
}

; Function Attrs: noinline nounwind uwtable
define linkonce_odr dso_local void @_ZN6dealii12PolynomialsPILi3EED2Ev(%"class.dealii::PolynomialsP"* %this) unnamed_addr #1 comdat align 2 !dbg !9084 {
entry:
  %this.addr = alloca %"class.dealii::PolynomialsP"*, align 8
  store %"class.dealii::PolynomialsP"* %this, %"class.dealii::PolynomialsP"** %this.addr, align 8
  call void @llvm.dbg.declare(metadata %"class.dealii::PolynomialsP"** %this.addr, metadata !9088, metadata !DIExpression()), !dbg !9090
  %this1 = load %"class.dealii::PolynomialsP"*, %"class.dealii::PolynomialsP"** %this.addr, align 8
  %0 = bitcast %"class.dealii::PolynomialsP"* %this1 to %"class.dealii::PolynomialSpace"*, !dbg !9091
  call void @_ZN6dealii15PolynomialSpaceILi3EED2Ev(%"class.dealii::PolynomialSpace"* %0) #4, !dbg !9091
  ret void, !dbg !9093
}

declare dso_local void @_ZN6dealii13FiniteElementILi3ELi3EE44reinit_restriction_and_prolongation_matricesEbb(%"class.dealii::FiniteElement"*, i1 zeroext, i1 zeroext) #2

declare dso_local void @_ZN6dealii7FETools26compute_embedding_matricesILi3EdLi3EEEvRKNS_13FiniteElementIXT_EXT1_EEERSt6vectorIS6_INS_10FullMatrixIT0_EESaIS9_EESaISB_EEb(%"class.dealii::FiniteElement"* dereferenceable(728), %"class.std::vector"* dereferenceable(24), i1 zeroext) #2

declare dso_local void @_ZN6dealii7FETools27compute_projection_matricesILi3EdLi3EEEvRKNS_13FiniteElementIXT_EXT1_EEERSt6vectorIS6_INS_10FullMatrixIT0_EESaIS9_EESaISB_EE(%"class.dealii::FiniteElement"* dereferenceable(728), %"class.std::vector"* dereferenceable(24)) #2

; Function Attrs: noinline uwtable
define weak_odr dso_local void @_ZNK6dealii14FE_DGPMonomialILi3EE8get_nameB5cxx11Ev(%"class.std::__cxx11::basic_string"* noalias sret %agg.result, %"class.dealii::FE_DGPMonomial"* %this) unnamed_addr #0 comdat align 2 personality i8* bitcast (i32 (...)* @__gxx_personality_v0 to i8*) !dbg !9094 {
entry:
  %result.ptr = alloca i8*, align 8
  %this.addr = alloca %"class.dealii::FE_DGPMonomial"*, align 8
  %namebuf = alloca %"class.std::__cxx11::basic_ostringstream", align 8
  %exn.slot = alloca i8*
  %ehselector.slot = alloca i32
  %0 = bitcast %"class.std::__cxx11::basic_string"* %agg.result to i8*
  store i8* %0, i8** %result.ptr, align 8
  store %"class.dealii::FE_DGPMonomial"* %this, %"class.dealii::FE_DGPMonomial"** %this.addr, align 8
  call void @llvm.dbg.declare(metadata %"class.dealii::FE_DGPMonomial"** %this.addr, metadata !9095, metadata !DIExpression()), !dbg !9096
  %this1 = load %"class.dealii::FE_DGPMonomial"*, %"class.dealii::FE_DGPMonomial"** %this.addr, align 8
  call void @llvm.dbg.declare(metadata %"class.std::__cxx11::basic_ostringstream"* %namebuf, metadata !9097, metadata !DIExpression()), !dbg !9101
  call void @_ZNSt7__cxx1119basic_ostringstreamIcSt11char_traitsIcESaIcEEC1Ev(%"class.std::__cxx11::basic_ostringstream"* %namebuf), !dbg !9101
  %1 = bitcast %"class.std::__cxx11::basic_ostringstream"* %namebuf to %"class.std::basic_ostream"*, !dbg !9102
  %call = invoke dereferenceable(272) %"class.std::basic_ostream"* @_ZStlsISt11char_traitsIcEERSt13basic_ostreamIcT_ES5_PKc(%"class.std::basic_ostream"* dereferenceable(272) %1, i8* getelementptr inbounds ([16 x i8], [16 x i8]* @.str, i64 0, i64 0))
          to label %invoke.cont unwind label %lpad, !dbg !9103

invoke.cont:                                      ; preds = %entry
  %call3 = invoke dereferenceable(272) %"class.std::basic_ostream"* @_ZNSolsEi(%"class.std::basic_ostream"* %call, i32 3)
          to label %invoke.cont2 unwind label %lpad, !dbg !9104

invoke.cont2:                                     ; preds = %invoke.cont
  %call5 = invoke dereferenceable(272) %"class.std::basic_ostream"* @_ZStlsISt11char_traitsIcEERSt13basic_ostreamIcT_ES5_PKc(%"class.std::basic_ostream"* dereferenceable(272) %call3, i8* getelementptr inbounds ([3 x i8], [3 x i8]* @.str.10, i64 0, i64 0))
          to label %invoke.cont4 unwind label %lpad, !dbg !9105

invoke.cont4:                                     ; preds = %invoke.cont2
  %2 = bitcast %"class.dealii::FE_DGPMonomial"* %this1 to i8*, !dbg !9106
  %add.ptr = getelementptr inbounds i8, i8* %2, i64 72, !dbg !9106
  %3 = bitcast i8* %add.ptr to %"class.dealii::FiniteElementData"*, !dbg !9106
  %degree = getelementptr inbounds %"class.dealii::FiniteElementData", %"class.dealii::FiniteElementData"* %3, i32 0, i32 13, !dbg !9106
  %4 = load i32, i32* %degree, align 4, !dbg !9106
  %call7 = invoke dereferenceable(272) %"class.std::basic_ostream"* @_ZNSolsEj(%"class.std::basic_ostream"* %call5, i32 %4)
          to label %invoke.cont6 unwind label %lpad, !dbg !9107

invoke.cont6:                                     ; preds = %invoke.cont4
  %call9 = invoke dereferenceable(272) %"class.std::basic_ostream"* @_ZStlsISt11char_traitsIcEERSt13basic_ostreamIcT_ES5_PKc(%"class.std::basic_ostream"* dereferenceable(272) %call7, i8* getelementptr inbounds ([2 x i8], [2 x i8]* @.str.11, i64 0, i64 0))
          to label %invoke.cont8 unwind label %lpad, !dbg !9108

invoke.cont8:                                     ; preds = %invoke.cont6
  invoke void @_ZNKSt7__cxx1119basic_ostringstreamIcSt11char_traitsIcESaIcEE3strEv(%"class.std::__cxx11::basic_string"* sret %agg.result, %"class.std::__cxx11::basic_ostringstream"* %namebuf)
          to label %invoke.cont10 unwind label %lpad, !dbg !9109

invoke.cont10:                                    ; preds = %invoke.cont8
  call void @_ZNSt7__cxx1119basic_ostringstreamIcSt11char_traitsIcESaIcEED1Ev(%"class.std::__cxx11::basic_ostringstream"* %namebuf) #4, !dbg !9110
  ret void, !dbg !9110

lpad:                                             ; preds = %invoke.cont8, %invoke.cont6, %invoke.cont4, %invoke.cont2, %invoke.cont, %entry
  %5 = landingpad { i8*, i32 }
          cleanup, !dbg !9110
  %6 = extractvalue { i8*, i32 } %5, 0, !dbg !9110
  store i8* %6, i8** %exn.slot, align 8, !dbg !9110
  %7 = extractvalue { i8*, i32 } %5, 1, !dbg !9110
  store i32 %7, i32* %ehselector.slot, align 4, !dbg !9110
  call void @_ZNSt7__cxx1119basic_ostringstreamIcSt11char_traitsIcESaIcEED1Ev(%"class.std::__cxx11::basic_ostringstream"* %namebuf) #4, !dbg !9110
  br label %eh.resume, !dbg !9110

eh.resume:                                        ; preds = %lpad
  %exn = load i8*, i8** %exn.slot, align 8, !dbg !9110
  %sel = load i32, i32* %ehselector.slot, align 4, !dbg !9110
  %lpad.val = insertvalue { i8*, i32 } undef, i8* %exn, 0, !dbg !9110
  %lpad.val11 = insertvalue { i8*, i32 } %lpad.val, i32 %sel, 1, !dbg !9110
  resume { i8*, i32 } %lpad.val11, !dbg !9110
}

declare dso_local void @_ZNSt7__cxx1119basic_ostringstreamIcSt11char_traitsIcESaIcEEC1Ev(%"class.std::__cxx11::basic_ostringstream"*) unnamed_addr #2

declare dso_local dereferenceable(272) %"class.std::basic_ostream"* @_ZStlsISt11char_traitsIcEERSt13basic_ostreamIcT_ES5_PKc(%"class.std::basic_ostream"* dereferenceable(272), i8*) #2

declare dso_local dereferenceable(272) %"class.std::basic_ostream"* @_ZNSolsEi(%"class.std::basic_ostream"*, i32) #2

declare dso_local dereferenceable(272) %"class.std::basic_ostream"* @_ZNSolsEj(%"class.std::basic_ostream"*, i32) #2

declare dso_local void @_ZNKSt7__cxx1119basic_ostringstreamIcSt11char_traitsIcESaIcEE3strEv(%"class.std::__cxx11::basic_string"* sret, %"class.std::__cxx11::basic_ostringstream"*) #2

; Function Attrs: nounwind
declare dso_local void @_ZNSt7__cxx1119basic_ostringstreamIcSt11char_traitsIcESaIcEED1Ev(%"class.std::__cxx11::basic_ostringstream"*) unnamed_addr #3

; Function Attrs: noinline nounwind uwtable
define weak_odr dso_local void @_ZNK6dealii14FE_DGPMonomialILi3EE24hp_vertex_dof_identitiesERKNS_13FiniteElementILi3ELi3EEE(%"class.std::vector.41"* noalias sret %agg.result, %"class.dealii::FE_DGPMonomial"* %this, %"class.dealii::FiniteElement"* dereferenceable(728) %fe_other) unnamed_addr #1 comdat align 2 !dbg !9111 {
entry:
  %result.ptr = alloca i8*, align 8
  %this.addr = alloca %"class.dealii::FE_DGPMonomial"*, align 8
  %fe_other.addr = alloca %"class.dealii::FiniteElement"*, align 8
  %0 = bitcast %"class.std::vector.41"* %agg.result to i8*
  store i8* %0, i8** %result.ptr, align 8
  store %"class.dealii::FE_DGPMonomial"* %this, %"class.dealii::FE_DGPMonomial"** %this.addr, align 8
  call void @llvm.dbg.declare(metadata %"class.dealii::FE_DGPMonomial"** %this.addr, metadata !9112, metadata !DIExpression()), !dbg !9113
  store %"class.dealii::FiniteElement"* %fe_other, %"class.dealii::FiniteElement"** %fe_other.addr, align 8
  call void @llvm.dbg.declare(metadata %"class.dealii::FiniteElement"** %fe_other.addr, metadata !9114, metadata !DIExpression()), !dbg !9115
  %this1 = load %"class.dealii::FE_DGPMonomial"*, %"class.dealii::FE_DGPMonomial"** %this.addr, align 8
  %1 = load %"class.dealii::FiniteElement"*, %"class.dealii::FiniteElement"** %fe_other.addr, align 8, !dbg !9116
  %2 = icmp eq %"class.dealii::FiniteElement"* %1, null, !dbg !9118
  br i1 %2, label %dynamic_cast.null, label %dynamic_cast.notnull, !dbg !9118

dynamic_cast.notnull:                             ; preds = %entry
  %3 = bitcast %"class.dealii::FiniteElement"* %1 to i8*, !dbg !9118
  %4 = call i8* @__dynamic_cast(i8* %3, i8* bitcast ({ i8*, i8*, i32, i32, i8*, i64, i8*, i64 }* @_ZTIN6dealii13FiniteElementILi3ELi3EEE to i8*), i8* bitcast ({ i8*, i8*, i8* }* @_ZTIN6dealii14FE_DGPMonomialILi3EEE to i8*), i64 0) #4, !dbg !9118
  %5 = bitcast i8* %4 to %"class.dealii::FE_DGPMonomial"*, !dbg !9118
  br label %dynamic_cast.end, !dbg !9118

dynamic_cast.null:                                ; preds = %entry
  br label %dynamic_cast.end, !dbg !9118

dynamic_cast.end:                                 ; preds = %dynamic_cast.null, %dynamic_cast.notnull
  %6 = phi %"class.dealii::FE_DGPMonomial"* [ %5, %dynamic_cast.notnull ], [ null, %dynamic_cast.null ], !dbg !9118
  %cmp = icmp ne %"class.dealii::FE_DGPMonomial"* %6, null, !dbg !9119
  br i1 %cmp, label %if.then, label %if.else, !dbg !9120

if.then:                                          ; preds = %dynamic_cast.end
  %7 = bitcast %"class.std::vector.41"* %agg.result to i8*, !dbg !9121
  call void @llvm.memset.p0i8.i64(i8* align 8 %7, i8 0, i64 24, i1 false), !dbg !9121
  call void @_ZNSt6vectorISt4pairIjjESaIS1_EEC2Ev(%"class.std::vector.41"* %agg.result) #4, !dbg !9121
  br label %return, !dbg !9122

if.else:                                          ; preds = %dynamic_cast.end
  %8 = bitcast %"class.std::vector.41"* %agg.result to i8*, !dbg !9123
  call void @llvm.memset.p0i8.i64(i8* align 8 %8, i8 0, i64 24, i1 false), !dbg !9123
  call void @_ZNSt6vectorISt4pairIjjESaIS1_EEC2Ev(%"class.std::vector.41"* %agg.result) #4, !dbg !9123
  br label %return, !dbg !9125

return:                                           ; preds = %if.else, %if.then
  ret void, !dbg !9126
}

; Function Attrs: nounwind readonly
declare dso_local i8* @__dynamic_cast(i8*, i8*, i8*, i64) #6

; Function Attrs: argmemonly nounwind willreturn
declare void @llvm.memset.p0i8.i64(i8* nocapture writeonly, i8, i64, i1 immarg) #7

; Function Attrs: noinline nounwind uwtable
define linkonce_odr dso_local void @_ZNSt6vectorISt4pairIjjESaIS1_EEC2Ev(%"class.std::vector.41"* %this) unnamed_addr #1 comdat align 2 !dbg !9127 {
entry:
  %this.addr = alloca %"class.std::vector.41"*, align 8
  store %"class.std::vector.41"* %this, %"class.std::vector.41"** %this.addr, align 8
  call void @llvm.dbg.declare(metadata %"class.std::vector.41"** %this.addr, metadata !9128, metadata !DIExpression()), !dbg !9130
  %this1 = load %"class.std::vector.41"*, %"class.std::vector.41"** %this.addr, align 8
  %0 = bitcast %"class.std::vector.41"* %this1 to %"struct.std::_Vector_base.42"*, !dbg !9131
  call void @_ZNSt12_Vector_baseISt4pairIjjESaIS1_EEC2Ev(%"struct.std::_Vector_base.42"* %0) #4, !dbg !9132
  ret void, !dbg !9131
}

; Function Attrs: noinline nounwind uwtable
define weak_odr dso_local void @_ZNK6dealii14FE_DGPMonomialILi3EE22hp_line_dof_identitiesERKNS_13FiniteElementILi3ELi3EEE(%"class.std::vector.41"* noalias sret %agg.result, %"class.dealii::FE_DGPMonomial"* %this, %"class.dealii::FiniteElement"* dereferenceable(728) %fe_other) unnamed_addr #1 comdat align 2 !dbg !9133 {
entry:
  %result.ptr = alloca i8*, align 8
  %this.addr = alloca %"class.dealii::FE_DGPMonomial"*, align 8
  %fe_other.addr = alloca %"class.dealii::FiniteElement"*, align 8
  %0 = bitcast %"class.std::vector.41"* %agg.result to i8*
  store i8* %0, i8** %result.ptr, align 8
  store %"class.dealii::FE_DGPMonomial"* %this, %"class.dealii::FE_DGPMonomial"** %this.addr, align 8
  call void @llvm.dbg.declare(metadata %"class.dealii::FE_DGPMonomial"** %this.addr, metadata !9134, metadata !DIExpression()), !dbg !9135
  store %"class.dealii::FiniteElement"* %fe_other, %"class.dealii::FiniteElement"** %fe_other.addr, align 8
  call void @llvm.dbg.declare(metadata %"class.dealii::FiniteElement"** %fe_other.addr, metadata !9136, metadata !DIExpression()), !dbg !9137
  %this1 = load %"class.dealii::FE_DGPMonomial"*, %"class.dealii::FE_DGPMonomial"** %this.addr, align 8
  %1 = load %"class.dealii::FiniteElement"*, %"class.dealii::FiniteElement"** %fe_other.addr, align 8, !dbg !9138
  %2 = icmp eq %"class.dealii::FiniteElement"* %1, null, !dbg !9140
  br i1 %2, label %dynamic_cast.null, label %dynamic_cast.notnull, !dbg !9140

dynamic_cast.notnull:                             ; preds = %entry
  %3 = bitcast %"class.dealii::FiniteElement"* %1 to i8*, !dbg !9140
  %4 = call i8* @__dynamic_cast(i8* %3, i8* bitcast ({ i8*, i8*, i32, i32, i8*, i64, i8*, i64 }* @_ZTIN6dealii13FiniteElementILi3ELi3EEE to i8*), i8* bitcast ({ i8*, i8*, i8* }* @_ZTIN6dealii14FE_DGPMonomialILi3EEE to i8*), i64 0) #4, !dbg !9140
  %5 = bitcast i8* %4 to %"class.dealii::FE_DGPMonomial"*, !dbg !9140
  br label %dynamic_cast.end, !dbg !9140

dynamic_cast.null:                                ; preds = %entry
  br label %dynamic_cast.end, !dbg !9140

dynamic_cast.end:                                 ; preds = %dynamic_cast.null, %dynamic_cast.notnull
  %6 = phi %"class.dealii::FE_DGPMonomial"* [ %5, %dynamic_cast.notnull ], [ null, %dynamic_cast.null ], !dbg !9140
  %cmp = icmp ne %"class.dealii::FE_DGPMonomial"* %6, null, !dbg !9141
  br i1 %cmp, label %if.then, label %if.else, !dbg !9142

if.then:                                          ; preds = %dynamic_cast.end
  %7 = bitcast %"class.std::vector.41"* %agg.result to i8*, !dbg !9143
  call void @llvm.memset.p0i8.i64(i8* align 8 %7, i8 0, i64 24, i1 false), !dbg !9143
  call void @_ZNSt6vectorISt4pairIjjESaIS1_EEC2Ev(%"class.std::vector.41"* %agg.result) #4, !dbg !9143
  br label %return, !dbg !9144

if.else:                                          ; preds = %dynamic_cast.end
  %8 = bitcast %"class.std::vector.41"* %agg.result to i8*, !dbg !9145
  call void @llvm.memset.p0i8.i64(i8* align 8 %8, i8 0, i64 24, i1 false), !dbg !9145
  call void @_ZNSt6vectorISt4pairIjjESaIS1_EEC2Ev(%"class.std::vector.41"* %agg.result) #4, !dbg !9145
  br label %return, !dbg !9147

return:                                           ; preds = %if.else, %if.then
  ret void, !dbg !9148
}

; Function Attrs: noinline nounwind uwtable
define weak_odr dso_local void @_ZNK6dealii14FE_DGPMonomialILi3EE22hp_quad_dof_identitiesERKNS_13FiniteElementILi3ELi3EEE(%"class.std::vector.41"* noalias sret %agg.result, %"class.dealii::FE_DGPMonomial"* %this, %"class.dealii::FiniteElement"* dereferenceable(728) %fe_other) unnamed_addr #1 comdat align 2 !dbg !9149 {
entry:
  %result.ptr = alloca i8*, align 8
  %this.addr = alloca %"class.dealii::FE_DGPMonomial"*, align 8
  %fe_other.addr = alloca %"class.dealii::FiniteElement"*, align 8
  %0 = bitcast %"class.std::vector.41"* %agg.result to i8*
  store i8* %0, i8** %result.ptr, align 8
  store %"class.dealii::FE_DGPMonomial"* %this, %"class.dealii::FE_DGPMonomial"** %this.addr, align 8
  call void @llvm.dbg.declare(metadata %"class.dealii::FE_DGPMonomial"** %this.addr, metadata !9150, metadata !DIExpression()), !dbg !9151
  store %"class.dealii::FiniteElement"* %fe_other, %"class.dealii::FiniteElement"** %fe_other.addr, align 8
  call void @llvm.dbg.declare(metadata %"class.dealii::FiniteElement"** %fe_other.addr, metadata !9152, metadata !DIExpression()), !dbg !9153
  %this1 = load %"class.dealii::FE_DGPMonomial"*, %"class.dealii::FE_DGPMonomial"** %this.addr, align 8
  %1 = load %"class.dealii::FiniteElement"*, %"class.dealii::FiniteElement"** %fe_other.addr, align 8, !dbg !9154
  %2 = icmp eq %"class.dealii::FiniteElement"* %1, null, !dbg !9156
  br i1 %2, label %dynamic_cast.null, label %dynamic_cast.notnull, !dbg !9156

dynamic_cast.notnull:                             ; preds = %entry
  %3 = bitcast %"class.dealii::FiniteElement"* %1 to i8*, !dbg !9156
  %4 = call i8* @__dynamic_cast(i8* %3, i8* bitcast ({ i8*, i8*, i32, i32, i8*, i64, i8*, i64 }* @_ZTIN6dealii13FiniteElementILi3ELi3EEE to i8*), i8* bitcast ({ i8*, i8*, i8* }* @_ZTIN6dealii14FE_DGPMonomialILi3EEE to i8*), i64 0) #4, !dbg !9156
  %5 = bitcast i8* %4 to %"class.dealii::FE_DGPMonomial"*, !dbg !9156
  br label %dynamic_cast.end, !dbg !9156

dynamic_cast.null:                                ; preds = %entry
  br label %dynamic_cast.end, !dbg !9156

dynamic_cast.end:                                 ; preds = %dynamic_cast.null, %dynamic_cast.notnull
  %6 = phi %"class.dealii::FE_DGPMonomial"* [ %5, %dynamic_cast.notnull ], [ null, %dynamic_cast.null ], !dbg !9156
  %cmp = icmp ne %"class.dealii::FE_DGPMonomial"* %6, null, !dbg !9157
  br i1 %cmp, label %if.then, label %if.else, !dbg !9158

if.then:                                          ; preds = %dynamic_cast.end
  %7 = bitcast %"class.std::vector.41"* %agg.result to i8*, !dbg !9159
  call void @llvm.memset.p0i8.i64(i8* align 8 %7, i8 0, i64 24, i1 false), !dbg !9159
  call void @_ZNSt6vectorISt4pairIjjESaIS1_EEC2Ev(%"class.std::vector.41"* %agg.result) #4, !dbg !9159
  br label %return, !dbg !9160

if.else:                                          ; preds = %dynamic_cast.end
  %8 = bitcast %"class.std::vector.41"* %agg.result to i8*, !dbg !9161
  call void @llvm.memset.p0i8.i64(i8* align 8 %8, i8 0, i64 24, i1 false), !dbg !9161
  call void @_ZNSt6vectorISt4pairIjjESaIS1_EEC2Ev(%"class.std::vector.41"* %agg.result) #4, !dbg !9161
  br label %return, !dbg !9163

return:                                           ; preds = %if.else, %if.then
  ret void, !dbg !9164
}

; Function Attrs: noinline nounwind uwtable
define weak_odr dso_local zeroext i1 @_ZNK6dealii14FE_DGPMonomialILi3EE30hp_constraints_are_implementedEv(%"class.dealii::FE_DGPMonomial"* %this) unnamed_addr #1 comdat align 2 !dbg !9165 {
entry:
  %this.addr = alloca %"class.dealii::FE_DGPMonomial"*, align 8
  store %"class.dealii::FE_DGPMonomial"* %this, %"class.dealii::FE_DGPMonomial"** %this.addr, align 8
  call void @llvm.dbg.declare(metadata %"class.dealii::FE_DGPMonomial"** %this.addr, metadata !9166, metadata !DIExpression()), !dbg !9167
  %this1 = load %"class.dealii::FE_DGPMonomial"*, %"class.dealii::FE_DGPMonomial"** %this.addr, align 8
  ret i1 true, !dbg !9168
}

; Function Attrs: noinline nounwind uwtable
define weak_odr dso_local i32 @_ZNK6dealii14FE_DGPMonomialILi3EE27compare_for_face_dominationERKNS_13FiniteElementILi3ELi3EEE(%"class.dealii::FE_DGPMonomial"* %this, %"class.dealii::FiniteElement"* dereferenceable(728) %fe_other) unnamed_addr #1 comdat align 2 !dbg !9169 {
entry:
  %retval = alloca i32, align 4
  %this.addr = alloca %"class.dealii::FE_DGPMonomial"*, align 8
  %fe_other.addr = alloca %"class.dealii::FiniteElement"*, align 8
  store %"class.dealii::FE_DGPMonomial"* %this, %"class.dealii::FE_DGPMonomial"** %this.addr, align 8
  call void @llvm.dbg.declare(metadata %"class.dealii::FE_DGPMonomial"** %this.addr, metadata !9170, metadata !DIExpression()), !dbg !9171
  store %"class.dealii::FiniteElement"* %fe_other, %"class.dealii::FiniteElement"** %fe_other.addr, align 8
  call void @llvm.dbg.declare(metadata %"class.dealii::FiniteElement"** %fe_other.addr, metadata !9172, metadata !DIExpression()), !dbg !9173
  %this1 = load %"class.dealii::FE_DGPMonomial"*, %"class.dealii::FE_DGPMonomial"** %this.addr, align 8
  %0 = load %"class.dealii::FiniteElement"*, %"class.dealii::FiniteElement"** %fe_other.addr, align 8, !dbg !9174
  %1 = icmp eq %"class.dealii::FiniteElement"* %0, null, !dbg !9176
  br i1 %1, label %dynamic_cast.null, label %dynamic_cast.notnull, !dbg !9176

dynamic_cast.notnull:                             ; preds = %entry
  %2 = bitcast %"class.dealii::FiniteElement"* %0 to i8*, !dbg !9176
  %3 = call i8* @__dynamic_cast(i8* %2, i8* bitcast ({ i8*, i8*, i32, i32, i8*, i64, i8*, i64 }* @_ZTIN6dealii13FiniteElementILi3ELi3EEE to i8*), i8* bitcast ({ i8*, i8*, i8* }* @_ZTIN6dealii14FE_DGPMonomialILi3EEE to i8*), i64 0) #4, !dbg !9176
  %4 = bitcast i8* %3 to %"class.dealii::FE_DGPMonomial"*, !dbg !9176
  br label %dynamic_cast.end, !dbg !9176

dynamic_cast.null:                                ; preds = %entry
  br label %dynamic_cast.end, !dbg !9176

dynamic_cast.end:                                 ; preds = %dynamic_cast.null, %dynamic_cast.notnull
  %5 = phi %"class.dealii::FE_DGPMonomial"* [ %4, %dynamic_cast.notnull ], [ null, %dynamic_cast.null ], !dbg !9176
  %cmp = icmp ne %"class.dealii::FE_DGPMonomial"* %5, null, !dbg !9177
  br i1 %cmp, label %if.then, label %if.end, !dbg !9178

if.then:                                          ; preds = %dynamic_cast.end
  store i32 3, i32* %retval, align 4, !dbg !9179
  br label %return, !dbg !9179

if.end:                                           ; preds = %dynamic_cast.end
  store i32 2, i32* %retval, align 4, !dbg !9180
  br label %return, !dbg !9180

return:                                           ; preds = %if.end, %if.then
  %6 = load i32, i32* %retval, align 4, !dbg !9181
  ret i32 %6, !dbg !9181
}

; Function Attrs: noinline uwtable
define weak_odr dso_local void @_ZNK6dealii14FE_DGPMonomialILi3EE24get_interpolation_matrixERKNS_13FiniteElementILi3ELi3EEERNS_10FullMatrixIdEE(%"class.dealii::FE_DGPMonomial"* %this, %"class.dealii::FiniteElement"* dereferenceable(728) %source_fe, %"class.dealii::FullMatrix"* dereferenceable(96) %interpolation_matrix) unnamed_addr #0 comdat align 2 personality i8* bitcast (i32 (...)* @__gxx_personality_v0 to i8*) !dbg !9182 {
entry:
  %this.addr = alloca %"class.dealii::FE_DGPMonomial"*, align 8
  %source_fe.addr = alloca %"class.dealii::FiniteElement"*, align 8
  %interpolation_matrix.addr = alloca %"class.dealii::FullMatrix"*, align 8
  %source_dgp_monomial = alloca %"class.dealii::FE_DGPMonomial"*, align 8
  %m = alloca i32, align 4
  %n = alloca i32, align 4
  %min_mn = alloca i32, align 4
  %i = alloca i32, align 4
  %unit_points = alloca %"class.std::vector.20", align 8
  %ref.tmp = alloca %"class.std::allocator.22", align 1
  %exn.slot = alloca i8*
  %ehselector.slot = alloca i32
  %source_fe_matrix = alloca %"class.dealii::FullMatrix", align 8
  %j = alloca i32, align 4
  %k = alloca i32, align 4
  %this_matrix = alloca %"class.dealii::FullMatrix", align 8
  %j45 = alloca i32, align 4
  %k51 = alloca i32, align 4
  store %"class.dealii::FE_DGPMonomial"* %this, %"class.dealii::FE_DGPMonomial"** %this.addr, align 8
  call void @llvm.dbg.declare(metadata %"class.dealii::FE_DGPMonomial"** %this.addr, metadata !9183, metadata !DIExpression()), !dbg !9184
  store %"class.dealii::FiniteElement"* %source_fe, %"class.dealii::FiniteElement"** %source_fe.addr, align 8
  call void @llvm.dbg.declare(metadata %"class.dealii::FiniteElement"** %source_fe.addr, metadata !9185, metadata !DIExpression()), !dbg !9186
  store %"class.dealii::FullMatrix"* %interpolation_matrix, %"class.dealii::FullMatrix"** %interpolation_matrix.addr, align 8
  call void @llvm.dbg.declare(metadata %"class.dealii::FullMatrix"** %interpolation_matrix.addr, metadata !9187, metadata !DIExpression()), !dbg !9188
  %this1 = load %"class.dealii::FE_DGPMonomial"*, %"class.dealii::FE_DGPMonomial"** %this.addr, align 8
  call void @llvm.dbg.declare(metadata %"class.dealii::FE_DGPMonomial"** %source_dgp_monomial, metadata !9189, metadata !DIExpression()), !dbg !9190
  %0 = load %"class.dealii::FiniteElement"*, %"class.dealii::FiniteElement"** %source_fe.addr, align 8, !dbg !9191
  %1 = icmp eq %"class.dealii::FiniteElement"* %0, null, !dbg !9192
  br i1 %1, label %dynamic_cast.null, label %dynamic_cast.notnull, !dbg !9192

dynamic_cast.notnull:                             ; preds = %entry
  %2 = bitcast %"class.dealii::FiniteElement"* %0 to i8*, !dbg !9192
  %3 = call i8* @__dynamic_cast(i8* %2, i8* bitcast ({ i8*, i8*, i32, i32, i8*, i64, i8*, i64 }* @_ZTIN6dealii13FiniteElementILi3ELi3EEE to i8*), i8* bitcast ({ i8*, i8*, i8* }* @_ZTIN6dealii14FE_DGPMonomialILi3EEE to i8*), i64 0) #4, !dbg !9192
  %4 = bitcast i8* %3 to %"class.dealii::FE_DGPMonomial"*, !dbg !9192
  br label %dynamic_cast.end, !dbg !9192

dynamic_cast.null:                                ; preds = %entry
  br label %dynamic_cast.end, !dbg !9192

dynamic_cast.end:                                 ; preds = %dynamic_cast.null, %dynamic_cast.notnull
  %5 = phi %"class.dealii::FE_DGPMonomial"* [ %4, %dynamic_cast.notnull ], [ null, %dynamic_cast.null ], !dbg !9192
  store %"class.dealii::FE_DGPMonomial"* %5, %"class.dealii::FE_DGPMonomial"** %source_dgp_monomial, align 8, !dbg !9190
  %6 = load %"class.dealii::FE_DGPMonomial"*, %"class.dealii::FE_DGPMonomial"** %source_dgp_monomial, align 8, !dbg !9193
  %tobool = icmp ne %"class.dealii::FE_DGPMonomial"* %6, null, !dbg !9193
  br i1 %tobool, label %if.then, label %if.else, !dbg !9195

if.then:                                          ; preds = %dynamic_cast.end
  call void @llvm.dbg.declare(metadata i32* %m, metadata !9196, metadata !DIExpression()), !dbg !9198
  %7 = load %"class.dealii::FullMatrix"*, %"class.dealii::FullMatrix"** %interpolation_matrix.addr, align 8, !dbg !9199
  %call = call i32 @_ZNK6dealii10FullMatrixIdE1mEv(%"class.dealii::FullMatrix"* %7), !dbg !9200
  store i32 %call, i32* %m, align 4, !dbg !9198
  call void @llvm.dbg.declare(metadata i32* %n, metadata !9201, metadata !DIExpression()), !dbg !9202
  %8 = load %"class.dealii::FullMatrix"*, %"class.dealii::FullMatrix"** %interpolation_matrix.addr, align 8, !dbg !9203
  %call2 = call i32 @_ZNK6dealii10FullMatrixIdE1nEv(%"class.dealii::FullMatrix"* %8), !dbg !9204
  store i32 %call2, i32* %n, align 4, !dbg !9202
  call void @llvm.dbg.declare(metadata i32* %min_mn, metadata !9205, metadata !DIExpression()), !dbg !9206
  %9 = load %"class.dealii::FullMatrix"*, %"class.dealii::FullMatrix"** %interpolation_matrix.addr, align 8, !dbg !9207
  %call3 = call i32 @_ZNK6dealii10FullMatrixIdE1mEv(%"class.dealii::FullMatrix"* %9), !dbg !9208
  %10 = load %"class.dealii::FullMatrix"*, %"class.dealii::FullMatrix"** %interpolation_matrix.addr, align 8, !dbg !9209
  %call4 = call i32 @_ZNK6dealii10FullMatrixIdE1nEv(%"class.dealii::FullMatrix"* %10), !dbg !9210
  %cmp = icmp ult i32 %call3, %call4, !dbg !9211
  br i1 %cmp, label %cond.true, label %cond.false, !dbg !9207

cond.true:                                        ; preds = %if.then
  %11 = load %"class.dealii::FullMatrix"*, %"class.dealii::FullMatrix"** %interpolation_matrix.addr, align 8, !dbg !9212
  %call5 = call i32 @_ZNK6dealii10FullMatrixIdE1mEv(%"class.dealii::FullMatrix"* %11), !dbg !9213
  br label %cond.end, !dbg !9207

cond.false:                                       ; preds = %if.then
  %12 = load %"class.dealii::FullMatrix"*, %"class.dealii::FullMatrix"** %interpolation_matrix.addr, align 8, !dbg !9214
  %call6 = call i32 @_ZNK6dealii10FullMatrixIdE1nEv(%"class.dealii::FullMatrix"* %12), !dbg !9215
  br label %cond.end, !dbg !9207

cond.end:                                         ; preds = %cond.false, %cond.true
  %cond = phi i32 [ %call5, %cond.true ], [ %call6, %cond.false ], !dbg !9207
  store i32 %cond, i32* %min_mn, align 4, !dbg !9206
  call void @llvm.dbg.declare(metadata i32* %i, metadata !9216, metadata !DIExpression()), !dbg !9218
  store i32 0, i32* %i, align 4, !dbg !9218
  br label %for.cond, !dbg !9219

for.cond:                                         ; preds = %for.inc, %cond.end
  %13 = load i32, i32* %i, align 4, !dbg !9220
  %14 = load i32, i32* %min_mn, align 4, !dbg !9222
  %cmp7 = icmp ult i32 %13, %14, !dbg !9223
  br i1 %cmp7, label %for.body, label %for.end, !dbg !9224

for.body:                                         ; preds = %for.cond
  %15 = load %"class.dealii::FullMatrix"*, %"class.dealii::FullMatrix"** %interpolation_matrix.addr, align 8, !dbg !9225
  %16 = bitcast %"class.dealii::FullMatrix"* %15 to %"class.dealii::Table"*, !dbg !9225
  %17 = load i32, i32* %i, align 4, !dbg !9226
  %18 = load i32, i32* %i, align 4, !dbg !9227
  %call8 = call dereferenceable(8) double* @_ZN6dealii5TableILi2EdEclEjj(%"class.dealii::Table"* %16, i32 %17, i32 %18), !dbg !9225
  store double 1.000000e+00, double* %call8, align 8, !dbg !9228
  br label %for.inc, !dbg !9225

for.inc:                                          ; preds = %for.body
  %19 = load i32, i32* %i, align 4, !dbg !9229
  %inc = add i32 %19, 1, !dbg !9229
  store i32 %inc, i32* %i, align 4, !dbg !9229
  br label %for.cond, !dbg !9230, !llvm.loop !9231

for.end:                                          ; preds = %for.cond
  br label %if.end, !dbg !9233

if.else:                                          ; preds = %dynamic_cast.end
  call void @llvm.dbg.declare(metadata %"class.std::vector.20"* %unit_points, metadata !9234, metadata !DIExpression()), !dbg !9236
  %20 = bitcast %"class.dealii::FE_DGPMonomial"* %this1 to i8*, !dbg !9237
  %add.ptr = getelementptr inbounds i8, i8* %20, i64 72, !dbg !9237
  %21 = bitcast i8* %add.ptr to %"class.dealii::FiniteElementData"*, !dbg !9237
  %dofs_per_cell = getelementptr inbounds %"class.dealii::FiniteElementData", %"class.dealii::FiniteElementData"* %21, i32 0, i32 10, !dbg !9237
  %22 = load i32, i32* %dofs_per_cell, align 8, !dbg !9237
  %conv = zext i32 %22 to i64, !dbg !9238
  call void @_ZNSaIN6dealii5PointILi3EEEEC2Ev(%"class.std::allocator.22"* %ref.tmp) #4, !dbg !9236
  invoke void @_ZNSt6vectorIN6dealii5PointILi3EEESaIS2_EEC2EmRKS3_(%"class.std::vector.20"* %unit_points, i64 %conv, %"class.std::allocator.22"* dereferenceable(1) %ref.tmp)
          to label %invoke.cont unwind label %lpad, !dbg !9236

invoke.cont:                                      ; preds = %if.else
  call void @_ZNSaIN6dealii5PointILi3EEEED2Ev(%"class.std::allocator.22"* %ref.tmp) #4, !dbg !9236
  %23 = bitcast %"class.dealii::FE_DGPMonomial"* %this1 to i8*, !dbg !9239
  %add.ptr9 = getelementptr inbounds i8, i8* %23, i64 72, !dbg !9239
  %24 = bitcast i8* %add.ptr9 to %"class.dealii::FiniteElementData"*, !dbg !9239
  %degree = getelementptr inbounds %"class.dealii::FiniteElementData", %"class.dealii::FiniteElementData"* %24, i32 0, i32 13, !dbg !9239
  %25 = load i32, i32* %degree, align 4, !dbg !9239
  invoke void @_ZN6dealii12_GLOBAL__N_120generate_unit_pointsILi3EEEvjRSt6vectorINS_5PointIXT_EEESaIS4_EE(i32 %25, %"class.std::vector.20"* dereferenceable(24) %unit_points)
          to label %invoke.cont11 unwind label %lpad10, !dbg !9240

invoke.cont11:                                    ; preds = %invoke.cont
  call void @llvm.dbg.declare(metadata %"class.dealii::FullMatrix"* %source_fe_matrix, metadata !9241, metadata !DIExpression()), !dbg !9242
  %call12 = call i64 @_ZNKSt6vectorIN6dealii5PointILi3EEESaIS2_EE4sizeEv(%"class.std::vector.20"* %unit_points) #4, !dbg !9243
  %conv13 = trunc i64 %call12 to i32, !dbg !9244
  %26 = load %"class.dealii::FiniteElement"*, %"class.dealii::FiniteElement"** %source_fe.addr, align 8, !dbg !9245
  %27 = bitcast %"class.dealii::FiniteElement"* %26 to i8*, !dbg !9245
  %add.ptr14 = getelementptr inbounds i8, i8* %27, i64 72, !dbg !9245
  %28 = bitcast i8* %add.ptr14 to %"class.dealii::FiniteElementData"*, !dbg !9245
  %dofs_per_cell15 = getelementptr inbounds %"class.dealii::FiniteElementData", %"class.dealii::FiniteElementData"* %28, i32 0, i32 10, !dbg !9246
  %29 = load i32, i32* %dofs_per_cell15, align 8, !dbg !9246
  invoke void @_ZN6dealii10FullMatrixIdEC1Ejj(%"class.dealii::FullMatrix"* %source_fe_matrix, i32 %conv13, i32 %29)
          to label %invoke.cont16 unwind label %lpad10, !dbg !9242

invoke.cont16:                                    ; preds = %invoke.cont11
  call void @llvm.dbg.declare(metadata i32* %j, metadata !9247, metadata !DIExpression()), !dbg !9249
  store i32 0, i32* %j, align 4, !dbg !9249
  br label %for.cond17, !dbg !9250

for.cond17:                                       ; preds = %for.inc37, %invoke.cont16
  %30 = load i32, i32* %j, align 4, !dbg !9251
  %31 = load %"class.dealii::FiniteElement"*, %"class.dealii::FiniteElement"** %source_fe.addr, align 8, !dbg !9253
  %32 = bitcast %"class.dealii::FiniteElement"* %31 to i8*, !dbg !9253
  %add.ptr18 = getelementptr inbounds i8, i8* %32, i64 72, !dbg !9253
  %33 = bitcast i8* %add.ptr18 to %"class.dealii::FiniteElementData"*, !dbg !9253
  %dofs_per_cell19 = getelementptr inbounds %"class.dealii::FiniteElementData", %"class.dealii::FiniteElementData"* %33, i32 0, i32 10, !dbg !9254
  %34 = load i32, i32* %dofs_per_cell19, align 8, !dbg !9254
  %cmp20 = icmp ult i32 %30, %34, !dbg !9255
  br i1 %cmp20, label %for.body21, label %for.end39, !dbg !9256

for.body21:                                       ; preds = %for.cond17
  call void @llvm.dbg.declare(metadata i32* %k, metadata !9257, metadata !DIExpression()), !dbg !9259
  store i32 0, i32* %k, align 4, !dbg !9259
  br label %for.cond22, !dbg !9260

for.cond22:                                       ; preds = %for.inc34, %for.body21
  %35 = load i32, i32* %k, align 4, !dbg !9261
  %conv23 = zext i32 %35 to i64, !dbg !9261
  %call24 = call i64 @_ZNKSt6vectorIN6dealii5PointILi3EEESaIS2_EE4sizeEv(%"class.std::vector.20"* %unit_points) #4, !dbg !9263
  %cmp25 = icmp ult i64 %conv23, %call24, !dbg !9264
  br i1 %cmp25, label %for.body26, label %for.end36, !dbg !9265

for.body26:                                       ; preds = %for.cond22
  %36 = load %"class.dealii::FiniteElement"*, %"class.dealii::FiniteElement"** %source_fe.addr, align 8, !dbg !9266
  %37 = load i32, i32* %j, align 4, !dbg !9267
  %38 = load i32, i32* %k, align 4, !dbg !9268
  %conv27 = zext i32 %38 to i64, !dbg !9268
  %call28 = call dereferenceable(24) %"class.dealii::Point"* @_ZNSt6vectorIN6dealii5PointILi3EEESaIS2_EEixEm(%"class.std::vector.20"* %unit_points, i64 %conv27) #4, !dbg !9269
  %39 = bitcast %"class.dealii::FiniteElement"* %36 to double (%"class.dealii::FiniteElement"*, i32, %"class.dealii::Point"*)***, !dbg !9270
  %vtable = load double (%"class.dealii::FiniteElement"*, i32, %"class.dealii::Point"*)**, double (%"class.dealii::FiniteElement"*, i32, %"class.dealii::Point"*)*** %39, align 8, !dbg !9270
  %vfn = getelementptr inbounds double (%"class.dealii::FiniteElement"*, i32, %"class.dealii::Point"*)*, double (%"class.dealii::FiniteElement"*, i32, %"class.dealii::Point"*)** %vtable, i64 3, !dbg !9270
  %40 = load double (%"class.dealii::FiniteElement"*, i32, %"class.dealii::Point"*)*, double (%"class.dealii::FiniteElement"*, i32, %"class.dealii::Point"*)** %vfn, align 8, !dbg !9270
  %call31 = invoke double %40(%"class.dealii::FiniteElement"* %36, i32 %37, %"class.dealii::Point"* dereferenceable(24) %call28)
          to label %invoke.cont30 unwind label %lpad29, !dbg !9270

invoke.cont30:                                    ; preds = %for.body26
  %41 = bitcast %"class.dealii::FullMatrix"* %source_fe_matrix to %"class.dealii::Table"*, !dbg !9271
  %42 = load i32, i32* %k, align 4, !dbg !9272
  %43 = load i32, i32* %j, align 4, !dbg !9273
  %call33 = invoke dereferenceable(8) double* @_ZN6dealii5TableILi2EdEclEjj(%"class.dealii::Table"* %41, i32 %42, i32 %43)
          to label %invoke.cont32 unwind label %lpad29, !dbg !9271

invoke.cont32:                                    ; preds = %invoke.cont30
  store double %call31, double* %call33, align 8, !dbg !9274
  br label %for.inc34, !dbg !9271

for.inc34:                                        ; preds = %invoke.cont32
  %44 = load i32, i32* %k, align 4, !dbg !9275
  %inc35 = add i32 %44, 1, !dbg !9275
  store i32 %inc35, i32* %k, align 4, !dbg !9275
  br label %for.cond22, !dbg !9276, !llvm.loop !9277

lpad:                                             ; preds = %if.else
  %45 = landingpad { i8*, i32 }
          cleanup, !dbg !9279
  %46 = extractvalue { i8*, i32 } %45, 0, !dbg !9279
  store i8* %46, i8** %exn.slot, align 8, !dbg !9279
  %47 = extractvalue { i8*, i32 } %45, 1, !dbg !9279
  store i32 %47, i32* %ehselector.slot, align 4, !dbg !9279
  call void @_ZNSaIN6dealii5PointILi3EEEED2Ev(%"class.std::allocator.22"* %ref.tmp) #4, !dbg !9236
  br label %eh.resume, !dbg !9236

lpad10:                                           ; preds = %invoke.cont11, %invoke.cont
  %48 = landingpad { i8*, i32 }
          cleanup, !dbg !9279
  %49 = extractvalue { i8*, i32 } %48, 0, !dbg !9279
  store i8* %49, i8** %exn.slot, align 8, !dbg !9279
  %50 = extractvalue { i8*, i32 } %48, 1, !dbg !9279
  store i32 %50, i32* %ehselector.slot, align 4, !dbg !9279
  br label %ehcleanup72, !dbg !9279

lpad29:                                           ; preds = %for.end39, %invoke.cont30, %for.body26
  %51 = landingpad { i8*, i32 }
          cleanup, !dbg !9280
  %52 = extractvalue { i8*, i32 } %51, 0, !dbg !9280
  store i8* %52, i8** %exn.slot, align 8, !dbg !9280
  %53 = extractvalue { i8*, i32 } %51, 1, !dbg !9280
  store i32 %53, i32* %ehselector.slot, align 4, !dbg !9280
  br label %ehcleanup, !dbg !9280

for.end36:                                        ; preds = %for.cond22
  br label %for.inc37, !dbg !9278

for.inc37:                                        ; preds = %for.end36
  %54 = load i32, i32* %j, align 4, !dbg !9281
  %inc38 = add i32 %54, 1, !dbg !9281
  store i32 %inc38, i32* %j, align 4, !dbg !9281
  br label %for.cond17, !dbg !9282, !llvm.loop !9283

for.end39:                                        ; preds = %for.cond17
  call void @llvm.dbg.declare(metadata %"class.dealii::FullMatrix"* %this_matrix, metadata !9285, metadata !DIExpression()), !dbg !9286
  %55 = bitcast %"class.dealii::FE_DGPMonomial"* %this1 to i8*, !dbg !9287
  %add.ptr40 = getelementptr inbounds i8, i8* %55, i64 72, !dbg !9287
  %56 = bitcast i8* %add.ptr40 to %"class.dealii::FiniteElementData"*, !dbg !9287
  %dofs_per_cell41 = getelementptr inbounds %"class.dealii::FiniteElementData", %"class.dealii::FiniteElementData"* %56, i32 0, i32 10, !dbg !9287
  %57 = load i32, i32* %dofs_per_cell41, align 8, !dbg !9287
  %58 = bitcast %"class.dealii::FE_DGPMonomial"* %this1 to i8*, !dbg !9288
  %add.ptr42 = getelementptr inbounds i8, i8* %58, i64 72, !dbg !9288
  %59 = bitcast i8* %add.ptr42 to %"class.dealii::FiniteElementData"*, !dbg !9288
  %dofs_per_cell43 = getelementptr inbounds %"class.dealii::FiniteElementData", %"class.dealii::FiniteElementData"* %59, i32 0, i32 10, !dbg !9288
  %60 = load i32, i32* %dofs_per_cell43, align 8, !dbg !9288
  invoke void @_ZN6dealii10FullMatrixIdEC1Ejj(%"class.dealii::FullMatrix"* %this_matrix, i32 %57, i32 %60)
          to label %invoke.cont44 unwind label %lpad29, !dbg !9286

invoke.cont44:                                    ; preds = %for.end39
  call void @llvm.dbg.declare(metadata i32* %j45, metadata !9289, metadata !DIExpression()), !dbg !9291
  store i32 0, i32* %j45, align 4, !dbg !9291
  br label %for.cond46, !dbg !9292

for.cond46:                                       ; preds = %for.inc67, %invoke.cont44
  %61 = load i32, i32* %j45, align 4, !dbg !9293
  %62 = bitcast %"class.dealii::FE_DGPMonomial"* %this1 to i8*, !dbg !9295
  %add.ptr47 = getelementptr inbounds i8, i8* %62, i64 72, !dbg !9295
  %63 = bitcast i8* %add.ptr47 to %"class.dealii::FiniteElementData"*, !dbg !9295
  %dofs_per_cell48 = getelementptr inbounds %"class.dealii::FiniteElementData", %"class.dealii::FiniteElementData"* %63, i32 0, i32 10, !dbg !9295
  %64 = load i32, i32* %dofs_per_cell48, align 8, !dbg !9295
  %cmp49 = icmp ult i32 %61, %64, !dbg !9296
  br i1 %cmp49, label %for.body50, label %for.end69, !dbg !9297

for.body50:                                       ; preds = %for.cond46
  call void @llvm.dbg.declare(metadata i32* %k51, metadata !9298, metadata !DIExpression()), !dbg !9300
  store i32 0, i32* %k51, align 4, !dbg !9300
  br label %for.cond52, !dbg !9301

for.cond52:                                       ; preds = %for.inc64, %for.body50
  %65 = load i32, i32* %k51, align 4, !dbg !9302
  %conv53 = zext i32 %65 to i64, !dbg !9302
  %call54 = call i64 @_ZNKSt6vectorIN6dealii5PointILi3EEESaIS2_EE4sizeEv(%"class.std::vector.20"* %unit_points) #4, !dbg !9304
  %cmp55 = icmp ult i64 %conv53, %call54, !dbg !9305
  br i1 %cmp55, label %for.body56, label %for.end66, !dbg !9306

for.body56:                                       ; preds = %for.cond52
  %66 = bitcast %"class.dealii::FE_DGPMonomial"* %this1 to %"class.dealii::FE_Poly"*, !dbg !9307
  %poly_space = getelementptr inbounds %"class.dealii::FE_Poly", %"class.dealii::FE_Poly"* %66, i32 0, i32 1, !dbg !9307
  %67 = bitcast %"class.dealii::PolynomialsP"* %poly_space to %"class.dealii::PolynomialSpace"*, !dbg !9308
  %68 = load i32, i32* %j45, align 4, !dbg !9309
  %69 = load i32, i32* %k51, align 4, !dbg !9310
  %conv57 = zext i32 %69 to i64, !dbg !9310
  %call58 = call dereferenceable(24) %"class.dealii::Point"* @_ZNSt6vectorIN6dealii5PointILi3EEESaIS2_EEixEm(%"class.std::vector.20"* %unit_points, i64 %conv57) #4, !dbg !9311
  %call61 = invoke double @_ZNK6dealii15PolynomialSpaceILi3EE13compute_valueEjRKNS_5PointILi3EEE(%"class.dealii::PolynomialSpace"* %67, i32 %68, %"class.dealii::Point"* dereferenceable(24) %call58)
          to label %invoke.cont60 unwind label %lpad59, !dbg !9312

invoke.cont60:                                    ; preds = %for.body56
  %70 = bitcast %"class.dealii::FullMatrix"* %this_matrix to %"class.dealii::Table"*, !dbg !9313
  %71 = load i32, i32* %k51, align 4, !dbg !9314
  %72 = load i32, i32* %j45, align 4, !dbg !9315
  %call63 = invoke dereferenceable(8) double* @_ZN6dealii5TableILi2EdEclEjj(%"class.dealii::Table"* %70, i32 %71, i32 %72)
          to label %invoke.cont62 unwind label %lpad59, !dbg !9313

invoke.cont62:                                    ; preds = %invoke.cont60
  store double %call61, double* %call63, align 8, !dbg !9316
  br label %for.inc64, !dbg !9313

for.inc64:                                        ; preds = %invoke.cont62
  %73 = load i32, i32* %k51, align 4, !dbg !9317
  %inc65 = add i32 %73, 1, !dbg !9317
  store i32 %inc65, i32* %k51, align 4, !dbg !9317
  br label %for.cond52, !dbg !9318, !llvm.loop !9319

lpad59:                                           ; preds = %invoke.cont70, %for.end69, %invoke.cont60, %for.body56
  %74 = landingpad { i8*, i32 }
          cleanup, !dbg !9321
  %75 = extractvalue { i8*, i32 } %74, 0, !dbg !9321
  store i8* %75, i8** %exn.slot, align 8, !dbg !9321
  %76 = extractvalue { i8*, i32 } %74, 1, !dbg !9321
  store i32 %76, i32* %ehselector.slot, align 4, !dbg !9321
  call void @_ZN6dealii10FullMatrixIdED2Ev(%"class.dealii::FullMatrix"* %this_matrix) #4, !dbg !9322
  br label %ehcleanup, !dbg !9322

for.end66:                                        ; preds = %for.cond52
  br label %for.inc67, !dbg !9320

for.inc67:                                        ; preds = %for.end66
  %77 = load i32, i32* %j45, align 4, !dbg !9323
  %inc68 = add i32 %77, 1, !dbg !9323
  store i32 %inc68, i32* %j45, align 4, !dbg !9323
  br label %for.cond46, !dbg !9324, !llvm.loop !9325

for.end69:                                        ; preds = %for.cond46
  invoke void @_ZN6dealii10FullMatrixIdE12gauss_jordanEv(%"class.dealii::FullMatrix"* %this_matrix)
          to label %invoke.cont70 unwind label %lpad59, !dbg !9327

invoke.cont70:                                    ; preds = %for.end69
  %78 = load %"class.dealii::FullMatrix"*, %"class.dealii::FullMatrix"** %interpolation_matrix.addr, align 8, !dbg !9328
  invoke void @_ZNK6dealii10FullMatrixIdE5mmultIdEEvRNS0_IT_EERKS4_b(%"class.dealii::FullMatrix"* %this_matrix, %"class.dealii::FullMatrix"* dereferenceable(96) %78, %"class.dealii::FullMatrix"* dereferenceable(96) %source_fe_matrix, i1 zeroext false)
          to label %invoke.cont71 unwind label %lpad59, !dbg !9329

invoke.cont71:                                    ; preds = %invoke.cont70
  call void @_ZN6dealii10FullMatrixIdED2Ev(%"class.dealii::FullMatrix"* %this_matrix) #4, !dbg !9322
  call void @_ZN6dealii10FullMatrixIdED2Ev(%"class.dealii::FullMatrix"* %source_fe_matrix) #4, !dbg !9322
  call void @_ZNSt6vectorIN6dealii5PointILi3EEESaIS2_EED2Ev(%"class.std::vector.20"* %unit_points) #4, !dbg !9322
  br label %if.end

ehcleanup:                                        ; preds = %lpad59, %lpad29
  call void @_ZN6dealii10FullMatrixIdED2Ev(%"class.dealii::FullMatrix"* %source_fe_matrix) #4, !dbg !9322
  br label %ehcleanup72, !dbg !9322

ehcleanup72:                                      ; preds = %ehcleanup, %lpad10
  call void @_ZNSt6vectorIN6dealii5PointILi3EEESaIS2_EED2Ev(%"class.std::vector.20"* %unit_points) #4, !dbg !9322
  br label %eh.resume, !dbg !9322

if.end:                                           ; preds = %invoke.cont71, %for.end
  ret void, !dbg !9330

eh.resume:                                        ; preds = %ehcleanup72, %lpad
  %exn = load i8*, i8** %exn.slot, align 8, !dbg !9236
  %sel = load i32, i32* %ehselector.slot, align 4, !dbg !9236
  %lpad.val = insertvalue { i8*, i32 } undef, i8* %exn, 0, !dbg !9236
  %lpad.val73 = insertvalue { i8*, i32 } %lpad.val, i32 %sel, 1, !dbg !9236
  resume { i8*, i32 } %lpad.val73, !dbg !9236
}

; Function Attrs: noinline uwtable
define linkonce_odr dso_local i32 @_ZNK6dealii10FullMatrixIdE1mEv(%"class.dealii::FullMatrix"* %this) #0 comdat align 2 !dbg !9331 {
entry:
  %this.addr = alloca %"class.dealii::FullMatrix"*, align 8
  store %"class.dealii::FullMatrix"* %this, %"class.dealii::FullMatrix"** %this.addr, align 8
  call void @llvm.dbg.declare(metadata %"class.dealii::FullMatrix"** %this.addr, metadata !9336, metadata !DIExpression()), !dbg !9337
  %this1 = load %"class.dealii::FullMatrix"*, %"class.dealii::FullMatrix"** %this.addr, align 8
  %0 = bitcast %"class.dealii::FullMatrix"* %this1 to %"class.dealii::Table"*, !dbg !9338
  %call = call i32 @_ZNK6dealii5TableILi2EdE6n_rowsEv(%"class.dealii::Table"* %0), !dbg !9338
  ret i32 %call, !dbg !9339
}

; Function Attrs: noinline uwtable
define linkonce_odr dso_local i32 @_ZNK6dealii10FullMatrixIdE1nEv(%"class.dealii::FullMatrix"* %this) #0 comdat align 2 !dbg !9340 {
entry:
  %this.addr = alloca %"class.dealii::FullMatrix"*, align 8
  store %"class.dealii::FullMatrix"* %this, %"class.dealii::FullMatrix"** %this.addr, align 8
  call void @llvm.dbg.declare(metadata %"class.dealii::FullMatrix"** %this.addr, metadata !9342, metadata !DIExpression()), !dbg !9343
  %this1 = load %"class.dealii::FullMatrix"*, %"class.dealii::FullMatrix"** %this.addr, align 8
  %0 = bitcast %"class.dealii::FullMatrix"* %this1 to %"class.dealii::Table"*, !dbg !9344
  %call = call i32 @_ZNK6dealii5TableILi2EdE6n_colsEv(%"class.dealii::Table"* %0), !dbg !9344
  ret i32 %call, !dbg !9345
}

; Function Attrs: noinline nounwind uwtable
define linkonce_odr dso_local dereferenceable(8) double* @_ZN6dealii5TableILi2EdEclEjj(%"class.dealii::Table"* %this, i32 %i, i32 %j) #1 comdat align 2 !dbg !9346 {
entry:
  %this.addr = alloca %"class.dealii::Table"*, align 8
  %i.addr = alloca i32, align 4
  %j.addr = alloca i32, align 4
  store %"class.dealii::Table"* %this, %"class.dealii::Table"** %this.addr, align 8
  call void @llvm.dbg.declare(metadata %"class.dealii::Table"** %this.addr, metadata !9352, metadata !DIExpression()), !dbg !9354
  store i32 %i, i32* %i.addr, align 4
  call void @llvm.dbg.declare(metadata i32* %i.addr, metadata !9355, metadata !DIExpression()), !dbg !9356
  store i32 %j, i32* %j.addr, align 4
  call void @llvm.dbg.declare(metadata i32* %j.addr, metadata !9357, metadata !DIExpression()), !dbg !9358
  %this1 = load %"class.dealii::Table"*, %"class.dealii::Table"** %this.addr, align 8
  %0 = bitcast %"class.dealii::Table"* %this1 to %"class.dealii::TableBase"*, !dbg !9359
  %val = getelementptr inbounds %"class.dealii::TableBase", %"class.dealii::TableBase"* %0, i32 0, i32 1, !dbg !9359
  %1 = load double*, double** %val, align 8, !dbg !9359
  %2 = load i32, i32* %i.addr, align 4, !dbg !9360
  %3 = bitcast %"class.dealii::Table"* %this1 to %"class.dealii::TableBase"*, !dbg !9361
  %table_size = getelementptr inbounds %"class.dealii::TableBase", %"class.dealii::TableBase"* %3, i32 0, i32 3, !dbg !9361
  %4 = bitcast %"class.dealii::TableIndices"* %table_size to %"class.dealii::TableIndicesBase"*, !dbg !9362
  %call = call i32 @_ZNK6dealii16TableIndicesBaseILi2EEixEj(%"class.dealii::TableIndicesBase"* %4, i32 1), !dbg !9362
  %mul = mul i32 %2, %call, !dbg !9363
  %5 = load i32, i32* %j.addr, align 4, !dbg !9364
  %add = add i32 %mul, %5, !dbg !9365
  %idxprom = zext i32 %add to i64, !dbg !9366
  %arrayidx = getelementptr inbounds double, double* %1, i64 %idxprom, !dbg !9366
  ret double* %arrayidx, !dbg !9367
}

; Function Attrs: noinline nounwind uwtable
define linkonce_odr dso_local void @_ZNSaIN6dealii5PointILi3EEEEC2Ev(%"class.std::allocator.22"* %this) unnamed_addr #1 comdat align 2 !dbg !9368 {
entry:
  %this.addr = alloca %"class.std::allocator.22"*, align 8
  store %"class.std::allocator.22"* %this, %"class.std::allocator.22"** %this.addr, align 8
  call void @llvm.dbg.declare(metadata %"class.std::allocator.22"** %this.addr, metadata !9369, metadata !DIExpression()), !dbg !9371
  %this1 = load %"class.std::allocator.22"*, %"class.std::allocator.22"** %this.addr, align 8
  %0 = bitcast %"class.std::allocator.22"* %this1 to %"class.__gnu_cxx::new_allocator.23"*, !dbg !9372
  call void @_ZN9__gnu_cxx13new_allocatorIN6dealii5PointILi3EEEEC2Ev(%"class.__gnu_cxx::new_allocator.23"* %0) #4, !dbg !9373
  ret void, !dbg !9374
}

; Function Attrs: noinline uwtable
define linkonce_odr dso_local void @_ZNSt6vectorIN6dealii5PointILi3EEESaIS2_EEC2EmRKS3_(%"class.std::vector.20"* %this, i64 %__n, %"class.std::allocator.22"* dereferenceable(1) %__a) unnamed_addr #0 comdat align 2 personality i8* bitcast (i32 (...)* @__gxx_personality_v0 to i8*) !dbg !9375 {
entry:
  %this.addr = alloca %"class.std::vector.20"*, align 8
  %__n.addr = alloca i64, align 8
  %__a.addr = alloca %"class.std::allocator.22"*, align 8
  %exn.slot = alloca i8*
  %ehselector.slot = alloca i32
  store %"class.std::vector.20"* %this, %"class.std::vector.20"** %this.addr, align 8
  call void @llvm.dbg.declare(metadata %"class.std::vector.20"** %this.addr, metadata !9376, metadata !DIExpression()), !dbg !9378
  store i64 %__n, i64* %__n.addr, align 8
  call void @llvm.dbg.declare(metadata i64* %__n.addr, metadata !9379, metadata !DIExpression()), !dbg !9380
  store %"class.std::allocator.22"* %__a, %"class.std::allocator.22"** %__a.addr, align 8
  call void @llvm.dbg.declare(metadata %"class.std::allocator.22"** %__a.addr, metadata !9381, metadata !DIExpression()), !dbg !9382
  %this1 = load %"class.std::vector.20"*, %"class.std::vector.20"** %this.addr, align 8
  %0 = bitcast %"class.std::vector.20"* %this1 to %"struct.std::_Vector_base.21"*, !dbg !9383
  %1 = load i64, i64* %__n.addr, align 8, !dbg !9384
  %2 = load %"class.std::allocator.22"*, %"class.std::allocator.22"** %__a.addr, align 8, !dbg !9385
  %call = call i64 @_ZNSt6vectorIN6dealii5PointILi3EEESaIS2_EE17_S_check_init_lenEmRKS3_(i64 %1, %"class.std::allocator.22"* dereferenceable(1) %2), !dbg !9386
  %3 = load %"class.std::allocator.22"*, %"class.std::allocator.22"** %__a.addr, align 8, !dbg !9387
  call void @_ZNSt12_Vector_baseIN6dealii5PointILi3EEESaIS2_EEC2EmRKS3_(%"struct.std::_Vector_base.21"* %0, i64 %call, %"class.std::allocator.22"* dereferenceable(1) %3), !dbg !9388
  %4 = load i64, i64* %__n.addr, align 8, !dbg !9389
  invoke void @_ZNSt6vectorIN6dealii5PointILi3EEESaIS2_EE21_M_default_initializeEm(%"class.std::vector.20"* %this1, i64 %4)
          to label %invoke.cont unwind label %lpad, !dbg !9391

invoke.cont:                                      ; preds = %entry
  ret void, !dbg !9392

lpad:                                             ; preds = %entry
  %5 = landingpad { i8*, i32 }
          cleanup, !dbg !9393
  %6 = extractvalue { i8*, i32 } %5, 0, !dbg !9393
  store i8* %6, i8** %exn.slot, align 8, !dbg !9393
  %7 = extractvalue { i8*, i32 } %5, 1, !dbg !9393
  store i32 %7, i32* %ehselector.slot, align 4, !dbg !9393
  %8 = bitcast %"class.std::vector.20"* %this1 to %"struct.std::_Vector_base.21"*, !dbg !9393
  call void @_ZNSt12_Vector_baseIN6dealii5PointILi3EEESaIS2_EED2Ev(%"struct.std::_Vector_base.21"* %8) #4, !dbg !9393
  br label %eh.resume, !dbg !9393

eh.resume:                                        ; preds = %lpad
  %exn = load i8*, i8** %exn.slot, align 8, !dbg !9393
  %sel = load i32, i32* %ehselector.slot, align 4, !dbg !9393
  %lpad.val = insertvalue { i8*, i32 } undef, i8* %exn, 0, !dbg !9393
  %lpad.val2 = insertvalue { i8*, i32 } %lpad.val, i32 %sel, 1, !dbg !9393
  resume { i8*, i32 } %lpad.val2, !dbg !9393
}

; Function Attrs: noinline nounwind uwtable
define linkonce_odr dso_local void @_ZNSaIN6dealii5PointILi3EEEED2Ev(%"class.std::allocator.22"* %this) unnamed_addr #1 comdat align 2 !dbg !9394 {
entry:
  %this.addr = alloca %"class.std::allocator.22"*, align 8
  store %"class.std::allocator.22"* %this, %"class.std::allocator.22"** %this.addr, align 8
  call void @llvm.dbg.declare(metadata %"class.std::allocator.22"** %this.addr, metadata !9395, metadata !DIExpression()), !dbg !9396
  %this1 = load %"class.std::allocator.22"*, %"class.std::allocator.22"** %this.addr, align 8
  %0 = bitcast %"class.std::allocator.22"* %this1 to %"class.__gnu_cxx::new_allocator.23"*, !dbg !9397
  call void @_ZN9__gnu_cxx13new_allocatorIN6dealii5PointILi3EEEED2Ev(%"class.__gnu_cxx::new_allocator.23"* %0) #4, !dbg !9397
  ret void, !dbg !9399
}

; Function Attrs: noinline uwtable
define internal void @_ZN6dealii12_GLOBAL__N_120generate_unit_pointsILi3EEEvjRSt6vectorINS_5PointIXT_EEESaIS4_EE(i32 %k, %"class.std::vector.20"* dereferenceable(24) %p) #0 !dbg !9400 {
entry:
  %k.addr = alloca i32, align 4
  %p.addr = alloca %"class.std::vector.20"*, align 8
  %i = alloca i32, align 4
  store i32 %k, i32* %k.addr, align 4
  call void @llvm.dbg.declare(metadata i32* %k.addr, metadata !9403, metadata !DIExpression()), !dbg !9404
  store %"class.std::vector.20"* %p, %"class.std::vector.20"** %p.addr, align 8
  call void @llvm.dbg.declare(metadata %"class.std::vector.20"** %p.addr, metadata !9405, metadata !DIExpression()), !dbg !9406
  call void @llvm.dbg.declare(metadata i32* %i, metadata !9407, metadata !DIExpression()), !dbg !9409
  store i32 0, i32* %i, align 4, !dbg !9409
  br label %for.cond, !dbg !9410

for.cond:                                         ; preds = %for.inc, %entry
  %0 = load i32, i32* %i, align 4, !dbg !9411
  %conv = zext i32 %0 to i64, !dbg !9411
  %1 = load %"class.std::vector.20"*, %"class.std::vector.20"** %p.addr, align 8, !dbg !9413
  %call = call i64 @_ZNKSt6vectorIN6dealii5PointILi3EEESaIS2_EE4sizeEv(%"class.std::vector.20"* %1) #4, !dbg !9414
  %cmp = icmp ult i64 %conv, %call, !dbg !9415
  br i1 %cmp, label %for.body, label %for.end, !dbg !9416

for.body:                                         ; preds = %for.cond
  %2 = load i32, i32* %k.addr, align 4, !dbg !9417
  %idxprom = zext i32 %2 to i64, !dbg !9419
  %arrayidx = getelementptr inbounds [6 x i32], [6 x i32]* @_ZN6dealii12_GLOBAL__N_113start_index3dE, i64 0, i64 %idxprom, !dbg !9419
  %3 = load i32, i32* %arrayidx, align 4, !dbg !9419
  %4 = load i32, i32* %i, align 4, !dbg !9420
  %add = add i32 %3, %4, !dbg !9421
  %idxprom1 = zext i32 %add to i64, !dbg !9422
  %arrayidx2 = getelementptr inbounds [35 x [3 x double]], [35 x [3 x double]]* bitcast (<{ [15 x [3 x double]], [20 x [3 x double]] }>* @_ZN6dealii12_GLOBAL__N_18points3dE to [35 x [3 x double]]*), i64 0, i64 %idxprom1, !dbg !9422
  %arrayidx3 = getelementptr inbounds [3 x double], [3 x double]* %arrayidx2, i64 0, i64 0, !dbg !9422
  %5 = load double, double* %arrayidx3, align 8, !dbg !9422
  %6 = load %"class.std::vector.20"*, %"class.std::vector.20"** %p.addr, align 8, !dbg !9423
  %7 = load i32, i32* %i, align 4, !dbg !9424
  %conv4 = zext i32 %7 to i64, !dbg !9424
  %call5 = call dereferenceable(24) %"class.dealii::Point"* @_ZNSt6vectorIN6dealii5PointILi3EEESaIS2_EEixEm(%"class.std::vector.20"* %6, i64 %conv4) #4, !dbg !9423
  %call6 = call dereferenceable(8) double* @_ZN6dealii5PointILi3EEclEj(%"class.dealii::Point"* %call5, i32 0), !dbg !9423
  store double %5, double* %call6, align 8, !dbg !9425
  %8 = load i32, i32* %k.addr, align 4, !dbg !9426
  %idxprom7 = zext i32 %8 to i64, !dbg !9427
  %arrayidx8 = getelementptr inbounds [6 x i32], [6 x i32]* @_ZN6dealii12_GLOBAL__N_113start_index3dE, i64 0, i64 %idxprom7, !dbg !9427
  %9 = load i32, i32* %arrayidx8, align 4, !dbg !9427
  %10 = load i32, i32* %i, align 4, !dbg !9428
  %add9 = add i32 %9, %10, !dbg !9429
  %idxprom10 = zext i32 %add9 to i64, !dbg !9430
  %arrayidx11 = getelementptr inbounds [35 x [3 x double]], [35 x [3 x double]]* bitcast (<{ [15 x [3 x double]], [20 x [3 x double]] }>* @_ZN6dealii12_GLOBAL__N_18points3dE to [35 x [3 x double]]*), i64 0, i64 %idxprom10, !dbg !9430
  %arrayidx12 = getelementptr inbounds [3 x double], [3 x double]* %arrayidx11, i64 0, i64 1, !dbg !9430
  %11 = load double, double* %arrayidx12, align 8, !dbg !9430
  %12 = load %"class.std::vector.20"*, %"class.std::vector.20"** %p.addr, align 8, !dbg !9431
  %13 = load i32, i32* %i, align 4, !dbg !9432
  %conv13 = zext i32 %13 to i64, !dbg !9432
  %call14 = call dereferenceable(24) %"class.dealii::Point"* @_ZNSt6vectorIN6dealii5PointILi3EEESaIS2_EEixEm(%"class.std::vector.20"* %12, i64 %conv13) #4, !dbg !9431
  %call15 = call dereferenceable(8) double* @_ZN6dealii5PointILi3EEclEj(%"class.dealii::Point"* %call14, i32 1), !dbg !9431
  store double %11, double* %call15, align 8, !dbg !9433
  %14 = load i32, i32* %k.addr, align 4, !dbg !9434
  %idxprom16 = zext i32 %14 to i64, !dbg !9435
  %arrayidx17 = getelementptr inbounds [6 x i32], [6 x i32]* @_ZN6dealii12_GLOBAL__N_113start_index3dE, i64 0, i64 %idxprom16, !dbg !9435
  %15 = load i32, i32* %arrayidx17, align 4, !dbg !9435
  %16 = load i32, i32* %i, align 4, !dbg !9436
  %add18 = add i32 %15, %16, !dbg !9437
  %idxprom19 = zext i32 %add18 to i64, !dbg !9438
  %arrayidx20 = getelementptr inbounds [35 x [3 x double]], [35 x [3 x double]]* bitcast (<{ [15 x [3 x double]], [20 x [3 x double]] }>* @_ZN6dealii12_GLOBAL__N_18points3dE to [35 x [3 x double]]*), i64 0, i64 %idxprom19, !dbg !9438
  %arrayidx21 = getelementptr inbounds [3 x double], [3 x double]* %arrayidx20, i64 0, i64 2, !dbg !9438
  %17 = load double, double* %arrayidx21, align 8, !dbg !9438
  %18 = load %"class.std::vector.20"*, %"class.std::vector.20"** %p.addr, align 8, !dbg !9439
  %19 = load i32, i32* %i, align 4, !dbg !9440
  %conv22 = zext i32 %19 to i64, !dbg !9440
  %call23 = call dereferenceable(24) %"class.dealii::Point"* @_ZNSt6vectorIN6dealii5PointILi3EEESaIS2_EEixEm(%"class.std::vector.20"* %18, i64 %conv22) #4, !dbg !9439
  %call24 = call dereferenceable(8) double* @_ZN6dealii5PointILi3EEclEj(%"class.dealii::Point"* %call23, i32 2), !dbg !9439
  store double %17, double* %call24, align 8, !dbg !9441
  br label %for.inc, !dbg !9442

for.inc:                                          ; preds = %for.body
  %20 = load i32, i32* %i, align 4, !dbg !9443
  %inc = add i32 %20, 1, !dbg !9443
  store i32 %inc, i32* %i, align 4, !dbg !9443
  br label %for.cond, !dbg !9444, !llvm.loop !9445

for.end:                                          ; preds = %for.cond
  ret void, !dbg !9447
}

; Function Attrs: noinline nounwind uwtable
define linkonce_odr dso_local i64 @_ZNKSt6vectorIN6dealii5PointILi3EEESaIS2_EE4sizeEv(%"class.std::vector.20"* %this) #1 comdat align 2 !dbg !9448 {
entry:
  %this.addr = alloca %"class.std::vector.20"*, align 8
  store %"class.std::vector.20"* %this, %"class.std::vector.20"** %this.addr, align 8
  call void @llvm.dbg.declare(metadata %"class.std::vector.20"** %this.addr, metadata !9449, metadata !DIExpression()), !dbg !9451
  %this1 = load %"class.std::vector.20"*, %"class.std::vector.20"** %this.addr, align 8
  %0 = bitcast %"class.std::vector.20"* %this1 to %"struct.std::_Vector_base.21"*, !dbg !9452
  %_M_impl = getelementptr inbounds %"struct.std::_Vector_base.21", %"struct.std::_Vector_base.21"* %0, i32 0, i32 0, !dbg !9452
  %1 = bitcast %"struct.std::_Vector_base<dealii::Point<3>, std::allocator<dealii::Point<3> > >::_Vector_impl"* %_M_impl to %"struct.std::_Vector_base<dealii::Point<3>, std::allocator<dealii::Point<3> > >::_Vector_impl_data"*, !dbg !9453
  %_M_finish = getelementptr inbounds %"struct.std::_Vector_base<dealii::Point<3>, std::allocator<dealii::Point<3> > >::_Vector_impl_data", %"struct.std::_Vector_base<dealii::Point<3>, std::allocator<dealii::Point<3> > >::_Vector_impl_data"* %1, i32 0, i32 1, !dbg !9454
  %2 = load %"class.dealii::Point"*, %"class.dealii::Point"** %_M_finish, align 8, !dbg !9454
  %3 = bitcast %"class.std::vector.20"* %this1 to %"struct.std::_Vector_base.21"*, !dbg !9455
  %_M_impl2 = getelementptr inbounds %"struct.std::_Vector_base.21", %"struct.std::_Vector_base.21"* %3, i32 0, i32 0, !dbg !9455
  %4 = bitcast %"struct.std::_Vector_base<dealii::Point<3>, std::allocator<dealii::Point<3> > >::_Vector_impl"* %_M_impl2 to %"struct.std::_Vector_base<dealii::Point<3>, std::allocator<dealii::Point<3> > >::_Vector_impl_data"*, !dbg !9456
  %_M_start = getelementptr inbounds %"struct.std::_Vector_base<dealii::Point<3>, std::allocator<dealii::Point<3> > >::_Vector_impl_data", %"struct.std::_Vector_base<dealii::Point<3>, std::allocator<dealii::Point<3> > >::_Vector_impl_data"* %4, i32 0, i32 0, !dbg !9457
  %5 = load %"class.dealii::Point"*, %"class.dealii::Point"** %_M_start, align 8, !dbg !9457
  %sub.ptr.lhs.cast = ptrtoint %"class.dealii::Point"* %2 to i64, !dbg !9458
  %sub.ptr.rhs.cast = ptrtoint %"class.dealii::Point"* %5 to i64, !dbg !9458
  %sub.ptr.sub = sub i64 %sub.ptr.lhs.cast, %sub.ptr.rhs.cast, !dbg !9458
  %sub.ptr.div = sdiv exact i64 %sub.ptr.sub, 24, !dbg !9458
  ret i64 %sub.ptr.div, !dbg !9459
}

declare dso_local void @_ZN6dealii10FullMatrixIdEC1Ejj(%"class.dealii::FullMatrix"*, i32, i32) unnamed_addr #2

; Function Attrs: noinline nounwind uwtable
define linkonce_odr dso_local dereferenceable(24) %"class.dealii::Point"* @_ZNSt6vectorIN6dealii5PointILi3EEESaIS2_EEixEm(%"class.std::vector.20"* %this, i64 %__n) #1 comdat align 2 !dbg !9460 {
entry:
  %this.addr = alloca %"class.std::vector.20"*, align 8
  %__n.addr = alloca i64, align 8
  store %"class.std::vector.20"* %this, %"class.std::vector.20"** %this.addr, align 8
  call void @llvm.dbg.declare(metadata %"class.std::vector.20"** %this.addr, metadata !9461, metadata !DIExpression()), !dbg !9462
  store i64 %__n, i64* %__n.addr, align 8
  call void @llvm.dbg.declare(metadata i64* %__n.addr, metadata !9463, metadata !DIExpression()), !dbg !9464
  %this1 = load %"class.std::vector.20"*, %"class.std::vector.20"** %this.addr, align 8
  %0 = bitcast %"class.std::vector.20"* %this1 to %"struct.std::_Vector_base.21"*, !dbg !9465
  %_M_impl = getelementptr inbounds %"struct.std::_Vector_base.21", %"struct.std::_Vector_base.21"* %0, i32 0, i32 0, !dbg !9465
  %1 = bitcast %"struct.std::_Vector_base<dealii::Point<3>, std::allocator<dealii::Point<3> > >::_Vector_impl"* %_M_impl to %"struct.std::_Vector_base<dealii::Point<3>, std::allocator<dealii::Point<3> > >::_Vector_impl_data"*, !dbg !9466
  %_M_start = getelementptr inbounds %"struct.std::_Vector_base<dealii::Point<3>, std::allocator<dealii::Point<3> > >::_Vector_impl_data", %"struct.std::_Vector_base<dealii::Point<3>, std::allocator<dealii::Point<3> > >::_Vector_impl_data"* %1, i32 0, i32 0, !dbg !9467
  %2 = load %"class.dealii::Point"*, %"class.dealii::Point"** %_M_start, align 8, !dbg !9467
  %3 = load i64, i64* %__n.addr, align 8, !dbg !9468
  %add.ptr = getelementptr inbounds %"class.dealii::Point", %"class.dealii::Point"* %2, i64 %3, !dbg !9469
  ret %"class.dealii::Point"* %add.ptr, !dbg !9470
}

declare dso_local double @_ZNK6dealii15PolynomialSpaceILi3EE13compute_valueEjRKNS_5PointILi3EEE(%"class.dealii::PolynomialSpace"*, i32, %"class.dealii::Point"* dereferenceable(24)) #2

declare dso_local void @_ZN6dealii10FullMatrixIdE12gauss_jordanEv(%"class.dealii::FullMatrix"*) #2

declare dso_local void @_ZNK6dealii10FullMatrixIdE5mmultIdEEvRNS0_IT_EERKS4_b(%"class.dealii::FullMatrix"*, %"class.dealii::FullMatrix"* dereferenceable(96), %"class.dealii::FullMatrix"* dereferenceable(96), i1 zeroext) #2

; Function Attrs: noinline nounwind uwtable
define linkonce_odr dso_local void @_ZN6dealii10FullMatrixIdED2Ev(%"class.dealii::FullMatrix"* %this) unnamed_addr #1 comdat align 2 !dbg !9471 {
entry:
  %this.addr = alloca %"class.dealii::FullMatrix"*, align 8
  store %"class.dealii::FullMatrix"* %this, %"class.dealii::FullMatrix"** %this.addr, align 8
  call void @llvm.dbg.declare(metadata %"class.dealii::FullMatrix"** %this.addr, metadata !9476, metadata !DIExpression()), !dbg !9477
  %this1 = load %"class.dealii::FullMatrix"*, %"class.dealii::FullMatrix"** %this.addr, align 8
  %0 = bitcast %"class.dealii::FullMatrix"* %this1 to %"class.dealii::Table"*, !dbg !9478
  call void @_ZN6dealii5TableILi2EdED2Ev(%"class.dealii::Table"* %0) #4, !dbg !9478
  ret void, !dbg !9480
}

; Function Attrs: noinline nounwind uwtable
define linkonce_odr dso_local void @_ZNSt6vectorIN6dealii5PointILi3EEESaIS2_EED2Ev(%"class.std::vector.20"* %this) unnamed_addr #1 comdat align 2 personality i8* bitcast (i32 (...)* @__gxx_personality_v0 to i8*) !dbg !9481 {
entry:
  %this.addr = alloca %"class.std::vector.20"*, align 8
  %exn.slot = alloca i8*
  %ehselector.slot = alloca i32
  store %"class.std::vector.20"* %this, %"class.std::vector.20"** %this.addr, align 8
  call void @llvm.dbg.declare(metadata %"class.std::vector.20"** %this.addr, metadata !9482, metadata !DIExpression()), !dbg !9483
  %this1 = load %"class.std::vector.20"*, %"class.std::vector.20"** %this.addr, align 8
  %0 = bitcast %"class.std::vector.20"* %this1 to %"struct.std::_Vector_base.21"*, !dbg !9484
  %_M_impl = getelementptr inbounds %"struct.std::_Vector_base.21", %"struct.std::_Vector_base.21"* %0, i32 0, i32 0, !dbg !9484
  %1 = bitcast %"struct.std::_Vector_base<dealii::Point<3>, std::allocator<dealii::Point<3> > >::_Vector_impl"* %_M_impl to %"struct.std::_Vector_base<dealii::Point<3>, std::allocator<dealii::Point<3> > >::_Vector_impl_data"*, !dbg !9486
  %_M_start = getelementptr inbounds %"struct.std::_Vector_base<dealii::Point<3>, std::allocator<dealii::Point<3> > >::_Vector_impl_data", %"struct.std::_Vector_base<dealii::Point<3>, std::allocator<dealii::Point<3> > >::_Vector_impl_data"* %1, i32 0, i32 0, !dbg !9487
  %2 = load %"class.dealii::Point"*, %"class.dealii::Point"** %_M_start, align 8, !dbg !9487
  %3 = bitcast %"class.std::vector.20"* %this1 to %"struct.std::_Vector_base.21"*, !dbg !9488
  %_M_impl2 = getelementptr inbounds %"struct.std::_Vector_base.21", %"struct.std::_Vector_base.21"* %3, i32 0, i32 0, !dbg !9488
  %4 = bitcast %"struct.std::_Vector_base<dealii::Point<3>, std::allocator<dealii::Point<3> > >::_Vector_impl"* %_M_impl2 to %"struct.std::_Vector_base<dealii::Point<3>, std::allocator<dealii::Point<3> > >::_Vector_impl_data"*, !dbg !9489
  %_M_finish = getelementptr inbounds %"struct.std::_Vector_base<dealii::Point<3>, std::allocator<dealii::Point<3> > >::_Vector_impl_data", %"struct.std::_Vector_base<dealii::Point<3>, std::allocator<dealii::Point<3> > >::_Vector_impl_data"* %4, i32 0, i32 1, !dbg !9490
  %5 = load %"class.dealii::Point"*, %"class.dealii::Point"** %_M_finish, align 8, !dbg !9490
  %6 = bitcast %"class.std::vector.20"* %this1 to %"struct.std::_Vector_base.21"*, !dbg !9491
  %call = call dereferenceable(1) %"class.std::allocator.22"* @_ZNSt12_Vector_baseIN6dealii5PointILi3EEESaIS2_EE19_M_get_Tp_allocatorEv(%"struct.std::_Vector_base.21"* %6) #4, !dbg !9491
  invoke void @_ZSt8_DestroyIPN6dealii5PointILi3EEES2_EvT_S4_RSaIT0_E(%"class.dealii::Point"* %2, %"class.dealii::Point"* %5, %"class.std::allocator.22"* dereferenceable(1) %call)
          to label %invoke.cont unwind label %lpad, !dbg !9492

invoke.cont:                                      ; preds = %entry
  %7 = bitcast %"class.std::vector.20"* %this1 to %"struct.std::_Vector_base.21"*, !dbg !9493
  call void @_ZNSt12_Vector_baseIN6dealii5PointILi3EEESaIS2_EED2Ev(%"struct.std::_Vector_base.21"* %7) #4, !dbg !9493
  ret void, !dbg !9494

lpad:                                             ; preds = %entry
  %8 = landingpad { i8*, i32 }
          catch i8* null, !dbg !9493
  %9 = extractvalue { i8*, i32 } %8, 0, !dbg !9493
  store i8* %9, i8** %exn.slot, align 8, !dbg !9493
  %10 = extractvalue { i8*, i32 } %8, 1, !dbg !9493
  store i32 %10, i32* %ehselector.slot, align 4, !dbg !9493
  %11 = bitcast %"class.std::vector.20"* %this1 to %"struct.std::_Vector_base.21"*, !dbg !9493
  call void @_ZNSt12_Vector_baseIN6dealii5PointILi3EEESaIS2_EED2Ev(%"struct.std::_Vector_base.21"* %11) #4, !dbg !9493
  br label %terminate.handler, !dbg !9493

terminate.handler:                                ; preds = %lpad
  %exn = load i8*, i8** %exn.slot, align 8, !dbg !9493
  call void @__clang_call_terminate(i8* %exn) #13, !dbg !9493
  unreachable, !dbg !9493
}

; Function Attrs: noinline uwtable
define weak_odr dso_local void @_ZNK6dealii14FE_DGPMonomialILi3EE29get_face_interpolation_matrixERKNS_13FiniteElementILi3ELi3EEERNS_10FullMatrixIdEE(%"class.dealii::FE_DGPMonomial"* %this, %"class.dealii::FiniteElement"* dereferenceable(728) %x_source_fe, %"class.dealii::FullMatrix"* dereferenceable(96) %interpolation_matrix) unnamed_addr #0 comdat align 2 personality i8* bitcast (i32 (...)* @__gxx_personality_v0 to i8*) !dbg !9495 {
entry:
  %this.addr = alloca %"class.dealii::FE_DGPMonomial"*, align 8
  %x_source_fe.addr = alloca %"class.dealii::FiniteElement"*, align 8
  %interpolation_matrix.addr = alloca %"class.dealii::FullMatrix"*, align 8
  %ref.tmp = alloca %"class.std::__cxx11::basic_string", align 8
  %agg.tmp = alloca %"class.dealii::FiniteElement<3, 3>::ExcInterpolationNotImplemented", align 8
  %exn.slot = alloca i8*
  %ehselector.slot = alloca i32
  store %"class.dealii::FE_DGPMonomial"* %this, %"class.dealii::FE_DGPMonomial"** %this.addr, align 8
  call void @llvm.dbg.declare(metadata %"class.dealii::FE_DGPMonomial"** %this.addr, metadata !9496, metadata !DIExpression()), !dbg !9497
  store %"class.dealii::FiniteElement"* %x_source_fe, %"class.dealii::FiniteElement"** %x_source_fe.addr, align 8
  call void @llvm.dbg.declare(metadata %"class.dealii::FiniteElement"** %x_source_fe.addr, metadata !9498, metadata !DIExpression()), !dbg !9499
  store %"class.dealii::FullMatrix"* %interpolation_matrix, %"class.dealii::FullMatrix"** %interpolation_matrix.addr, align 8
  call void @llvm.dbg.declare(metadata %"class.dealii::FullMatrix"** %interpolation_matrix.addr, metadata !9500, metadata !DIExpression()), !dbg !9501
  %this1 = load %"class.dealii::FE_DGPMonomial"*, %"class.dealii::FE_DGPMonomial"** %this.addr, align 8
  %0 = load %"class.dealii::FiniteElement"*, %"class.dealii::FiniteElement"** %x_source_fe.addr, align 8, !dbg !9502
  %1 = bitcast %"class.dealii::FiniteElement"* %0 to void (%"class.std::__cxx11::basic_string"*, %"class.dealii::FiniteElement"*)***, !dbg !9502
  %vtable = load void (%"class.std::__cxx11::basic_string"*, %"class.dealii::FiniteElement"*)**, void (%"class.std::__cxx11::basic_string"*, %"class.dealii::FiniteElement"*)*** %1, align 8, !dbg !9502
  %vfn = getelementptr inbounds void (%"class.std::__cxx11::basic_string"*, %"class.dealii::FiniteElement"*)*, void (%"class.std::__cxx11::basic_string"*, %"class.dealii::FiniteElement"*)** %vtable, i64 2, !dbg !9502
  %2 = load void (%"class.std::__cxx11::basic_string"*, %"class.dealii::FiniteElement"*)*, void (%"class.std::__cxx11::basic_string"*, %"class.dealii::FiniteElement"*)** %vfn, align 8, !dbg !9502
  call void %2(%"class.std::__cxx11::basic_string"* sret %ref.tmp, %"class.dealii::FiniteElement"* %0), !dbg !9502
  %call = call i64 @_ZNKSt7__cxx1112basic_stringIcSt11char_traitsIcESaIcEE4findEPKcm(%"class.std::__cxx11::basic_string"* %ref.tmp, i8* getelementptr inbounds ([16 x i8], [16 x i8]* @.str, i64 0, i64 0), i64 0) #4, !dbg !9502
  %cmp = icmp eq i64 %call, 0, !dbg !9502
  br i1 %cmp, label %lor.end, label %lor.rhs, !dbg !9502

lor.rhs:                                          ; preds = %entry
  %3 = load %"class.dealii::FiniteElement"*, %"class.dealii::FiniteElement"** %x_source_fe.addr, align 8, !dbg !9502
  %4 = icmp eq %"class.dealii::FiniteElement"* %3, null, !dbg !9502
  br i1 %4, label %dynamic_cast.null, label %dynamic_cast.notnull, !dbg !9502

dynamic_cast.notnull:                             ; preds = %lor.rhs
  %5 = bitcast %"class.dealii::FiniteElement"* %3 to i8*, !dbg !9502
  %6 = call i8* @__dynamic_cast(i8* %5, i8* bitcast ({ i8*, i8*, i32, i32, i8*, i64, i8*, i64 }* @_ZTIN6dealii13FiniteElementILi3ELi3EEE to i8*), i8* bitcast ({ i8*, i8*, i8* }* @_ZTIN6dealii14FE_DGPMonomialILi3EEE to i8*), i64 0) #4, !dbg !9502
  %7 = bitcast i8* %6 to %"class.dealii::FE_DGPMonomial"*, !dbg !9502
  br label %dynamic_cast.end, !dbg !9502

dynamic_cast.null:                                ; preds = %lor.rhs
  br label %dynamic_cast.end, !dbg !9502

dynamic_cast.end:                                 ; preds = %dynamic_cast.null, %dynamic_cast.notnull
  %8 = phi %"class.dealii::FE_DGPMonomial"* [ %7, %dynamic_cast.notnull ], [ null, %dynamic_cast.null ], !dbg !9502
  %cmp2 = icmp ne %"class.dealii::FE_DGPMonomial"* %8, null, !dbg !9502
  br label %lor.end, !dbg !9502

lor.end:                                          ; preds = %dynamic_cast.end, %entry
  %9 = phi i1 [ true, %entry ], [ %cmp2, %dynamic_cast.end ]
  %lnot = xor i1 %9, true, !dbg !9502
  call void @_ZNSt7__cxx1112basic_stringIcSt11char_traitsIcESaIcEED1Ev(%"class.std::__cxx11::basic_string"* %ref.tmp) #4, !dbg !9502
  br i1 %lnot, label %if.then, label %if.end, !dbg !9505

if.then:                                          ; preds = %lor.end
  %10 = bitcast %"class.dealii::FiniteElement<3, 3>::ExcInterpolationNotImplemented"* %agg.tmp to i8*, !dbg !9502
  call void @llvm.memset.p0i8.i64(i8* align 8 %10, i8 0, i64 64, i1 false), !dbg !9502
  call void @_ZN6dealii13FiniteElementILi3ELi3EE30ExcInterpolationNotImplementedC2Ev(%"class.dealii::FiniteElement<3, 3>::ExcInterpolationNotImplemented"* %agg.tmp), !dbg !9502
  invoke void @_ZN6dealii18deal_II_exceptions9internals17issue_error_throwINS_13FiniteElementILi3ELi3EE30ExcInterpolationNotImplementedEEEvPKciS7_S7_S7_T_(i8* getelementptr inbounds ([29 x i8], [29 x i8]* @.str.12, i64 0, i64 0), i32 267, i8* getelementptr inbounds ([1 x i8], [1 x i8]* @.str.13, i64 0, i64 0), i8* getelementptr inbounds ([120 x i8], [120 x i8]* @.str.14, i64 0, i64 0), i8* getelementptr inbounds ([63 x i8], [63 x i8]* @.str.15, i64 0, i64 0), %"class.dealii::FiniteElement<3, 3>::ExcInterpolationNotImplemented"* %agg.tmp)
          to label %invoke.cont unwind label %lpad, !dbg !9502

invoke.cont:                                      ; preds = %if.then
  call void @_ZN6dealii13FiniteElementILi3ELi3EE30ExcInterpolationNotImplementedD2Ev(%"class.dealii::FiniteElement<3, 3>::ExcInterpolationNotImplemented"* %agg.tmp) #4, !dbg !9502
  br label %if.end, !dbg !9502

lpad:                                             ; preds = %if.then
  %11 = landingpad { i8*, i32 }
          cleanup, !dbg !9506
  %12 = extractvalue { i8*, i32 } %11, 0, !dbg !9506
  store i8* %12, i8** %exn.slot, align 8, !dbg !9506
  %13 = extractvalue { i8*, i32 } %11, 1, !dbg !9506
  store i32 %13, i32* %ehselector.slot, align 4, !dbg !9506
  call void @_ZN6dealii13FiniteElementILi3ELi3EE30ExcInterpolationNotImplementedD2Ev(%"class.dealii::FiniteElement<3, 3>::ExcInterpolationNotImplemented"* %agg.tmp) #4, !dbg !9502
  br label %eh.resume, !dbg !9502

if.end:                                           ; preds = %invoke.cont, %lor.end
  ret void, !dbg !9507

eh.resume:                                        ; preds = %lpad
  %exn = load i8*, i8** %exn.slot, align 8, !dbg !9502
  %sel = load i32, i32* %ehselector.slot, align 4, !dbg !9502
  %lpad.val = insertvalue { i8*, i32 } undef, i8* %exn, 0, !dbg !9502
  %lpad.val3 = insertvalue { i8*, i32 } %lpad.val, i32 %sel, 1, !dbg !9502
  resume { i8*, i32 } %lpad.val3, !dbg !9502
}

; Function Attrs: nounwind
declare dso_local i64 @_ZNKSt7__cxx1112basic_stringIcSt11char_traitsIcESaIcEE4findEPKcm(%"class.std::__cxx11::basic_string"*, i8*, i64) #3

; Function Attrs: nounwind
declare dso_local void @_ZNSt7__cxx1112basic_stringIcSt11char_traitsIcESaIcEED1Ev(%"class.std::__cxx11::basic_string"*) unnamed_addr #3

; Function Attrs: noinline uwtable
define linkonce_odr dso_local void @_ZN6dealii18deal_II_exceptions9internals17issue_error_throwINS_13FiniteElementILi3ELi3EE30ExcInterpolationNotImplementedEEEvPKciS7_S7_S7_T_(i8* %file, i32 %line, i8* %function, i8* %cond, i8* %exc_name, %"class.dealii::FiniteElement<3, 3>::ExcInterpolationNotImplemented"* %e) #0 comdat personality i8* bitcast (i32 (...)* @__gxx_personality_v0 to i8*) !dbg !9508 {
entry:
  %file.addr = alloca i8*, align 8
  %line.addr = alloca i32, align 4
  %function.addr = alloca i8*, align 8
  %cond.addr = alloca i8*, align 8
  %exc_name.addr = alloca i8*, align 8
  %exn.slot = alloca i8*
  %ehselector.slot = alloca i32
  store i8* %file, i8** %file.addr, align 8
  call void @llvm.dbg.declare(metadata i8** %file.addr, metadata !9521, metadata !DIExpression()), !dbg !9522
  store i32 %line, i32* %line.addr, align 4
  call void @llvm.dbg.declare(metadata i32* %line.addr, metadata !9523, metadata !DIExpression()), !dbg !9524
  store i8* %function, i8** %function.addr, align 8
  call void @llvm.dbg.declare(metadata i8** %function.addr, metadata !9525, metadata !DIExpression()), !dbg !9526
  store i8* %cond, i8** %cond.addr, align 8
  call void @llvm.dbg.declare(metadata i8** %cond.addr, metadata !9527, metadata !DIExpression()), !dbg !9528
  store i8* %exc_name, i8** %exc_name.addr, align 8
  call void @llvm.dbg.declare(metadata i8** %exc_name.addr, metadata !9529, metadata !DIExpression()), !dbg !9530
  call void @llvm.dbg.declare(metadata %"class.dealii::FiniteElement<3, 3>::ExcInterpolationNotImplemented"* %e, metadata !9531, metadata !DIExpression()), !dbg !9532
  %0 = bitcast %"class.dealii::FiniteElement<3, 3>::ExcInterpolationNotImplemented"* %e to %"class.dealii::ExceptionBase"*, !dbg !9533
  %1 = load i8*, i8** %file.addr, align 8, !dbg !9534
  %2 = load i32, i32* %line.addr, align 4, !dbg !9535
  %3 = load i8*, i8** %function.addr, align 8, !dbg !9536
  %4 = load i8*, i8** %cond.addr, align 8, !dbg !9537
  %5 = load i8*, i8** %exc_name.addr, align 8, !dbg !9538
  call void @_ZN6dealii13ExceptionBase10set_fieldsEPKciS2_S2_S2_(%"class.dealii::ExceptionBase"* %0, i8* %1, i32 %2, i8* %3, i8* %4, i8* %5), !dbg !9539
  %exception = call i8* @__cxa_allocate_exception(i64 64) #4, !dbg !9540
  %6 = bitcast i8* %exception to %"class.dealii::FiniteElement<3, 3>::ExcInterpolationNotImplemented"*, !dbg !9540
  invoke void @_ZN6dealii13FiniteElementILi3ELi3EE30ExcInterpolationNotImplementedC2EOS2_(%"class.dealii::FiniteElement<3, 3>::ExcInterpolationNotImplemented"* %6, %"class.dealii::FiniteElement<3, 3>::ExcInterpolationNotImplemented"* dereferenceable(64) %e)
          to label %invoke.cont unwind label %lpad, !dbg !9541

invoke.cont:                                      ; preds = %entry
  call void @__cxa_throw(i8* %exception, i8* bitcast ({ i8*, i8*, i8* }* @_ZTIN6dealii13FiniteElementILi3ELi3EE30ExcInterpolationNotImplementedE to i8*), i8* bitcast (void (%"class.dealii::FiniteElement<3, 3>::ExcInterpolationNotImplemented"*)* @_ZN6dealii13FiniteElementILi3ELi3EE30ExcInterpolationNotImplementedD2Ev to i8*)) #14, !dbg !9540
  unreachable, !dbg !9540

lpad:                                             ; preds = %entry
  %7 = landingpad { i8*, i32 }
          cleanup, !dbg !9542
  %8 = extractvalue { i8*, i32 } %7, 0, !dbg !9542
  store i8* %8, i8** %exn.slot, align 8, !dbg !9542
  %9 = extractvalue { i8*, i32 } %7, 1, !dbg !9542
  store i32 %9, i32* %ehselector.slot, align 4, !dbg !9542
  call void @__cxa_free_exception(i8* %exception) #4, !dbg !9540
  br label %eh.resume, !dbg !9540

eh.resume:                                        ; preds = %lpad
  %exn = load i8*, i8** %exn.slot, align 8, !dbg !9540
  %sel = load i32, i32* %ehselector.slot, align 4, !dbg !9540
  %lpad.val = insertvalue { i8*, i32 } undef, i8* %exn, 0, !dbg !9540
  %lpad.val1 = insertvalue { i8*, i32 } %lpad.val, i32 %sel, 1, !dbg !9540
  resume { i8*, i32 } %lpad.val1, !dbg !9540
}

; Function Attrs: noinline uwtable
define linkonce_odr dso_local void @_ZN6dealii13FiniteElementILi3ELi3EE30ExcInterpolationNotImplementedC2Ev(%"class.dealii::FiniteElement<3, 3>::ExcInterpolationNotImplemented"* %this) unnamed_addr #0 comdat align 2 !dbg !9543 {
entry:
  %this.addr = alloca %"class.dealii::FiniteElement<3, 3>::ExcInterpolationNotImplemented"*, align 8
  store %"class.dealii::FiniteElement<3, 3>::ExcInterpolationNotImplemented"* %this, %"class.dealii::FiniteElement<3, 3>::ExcInterpolationNotImplemented"** %this.addr, align 8
  call void @llvm.dbg.declare(metadata %"class.dealii::FiniteElement<3, 3>::ExcInterpolationNotImplemented"** %this.addr, metadata !9548, metadata !DIExpression()), !dbg !9550
  %this1 = load %"class.dealii::FiniteElement<3, 3>::ExcInterpolationNotImplemented"*, %"class.dealii::FiniteElement<3, 3>::ExcInterpolationNotImplemented"** %this.addr, align 8
  %0 = bitcast %"class.dealii::FiniteElement<3, 3>::ExcInterpolationNotImplemented"* %this1 to %"class.dealii::ExceptionBase"*, !dbg !9551
  call void @_ZN6dealii13ExceptionBaseC2Ev(%"class.dealii::ExceptionBase"* %0), !dbg !9551
  %1 = bitcast %"class.dealii::FiniteElement<3, 3>::ExcInterpolationNotImplemented"* %this1 to i32 (...)***, !dbg !9551
  store i32 (...)** bitcast (i8** getelementptr inbounds ({ [6 x i8*] }, { [6 x i8*] }* @_ZTVN6dealii13FiniteElementILi3ELi3EE30ExcInterpolationNotImplementedE, i32 0, inrange i32 0, i32 2) to i32 (...)**), i32 (...)*** %1, align 8, !dbg !9551
  ret void, !dbg !9551
}

; Function Attrs: noinline nounwind uwtable
define linkonce_odr dso_local void @_ZN6dealii13FiniteElementILi3ELi3EE30ExcInterpolationNotImplementedD2Ev(%"class.dealii::FiniteElement<3, 3>::ExcInterpolationNotImplemented"* %this) unnamed_addr #1 comdat align 2 !dbg !9552 {
entry:
  %this.addr = alloca %"class.dealii::FiniteElement<3, 3>::ExcInterpolationNotImplemented"*, align 8
  store %"class.dealii::FiniteElement<3, 3>::ExcInterpolationNotImplemented"* %this, %"class.dealii::FiniteElement<3, 3>::ExcInterpolationNotImplemented"** %this.addr, align 8
  call void @llvm.dbg.declare(metadata %"class.dealii::FiniteElement<3, 3>::ExcInterpolationNotImplemented"** %this.addr, metadata !9554, metadata !DIExpression()), !dbg !9555
  %this1 = load %"class.dealii::FiniteElement<3, 3>::ExcInterpolationNotImplemented"*, %"class.dealii::FiniteElement<3, 3>::ExcInterpolationNotImplemented"** %this.addr, align 8
  %0 = bitcast %"class.dealii::FiniteElement<3, 3>::ExcInterpolationNotImplemented"* %this1 to %"class.dealii::ExceptionBase"*, !dbg !9556
  call void @_ZN6dealii13ExceptionBaseD2Ev(%"class.dealii::ExceptionBase"* %0) #4, !dbg !9556
  ret void, !dbg !9558
}

; Function Attrs: noinline uwtable
define weak_odr dso_local void @_ZNK6dealii14FE_DGPMonomialILi3EE32get_subface_interpolation_matrixERKNS_13FiniteElementILi3ELi3EEEjRNS_10FullMatrixIdEE(%"class.dealii::FE_DGPMonomial"* %this, %"class.dealii::FiniteElement"* dereferenceable(728) %x_source_fe, i32 %0, %"class.dealii::FullMatrix"* dereferenceable(96) %interpolation_matrix) unnamed_addr #0 comdat align 2 personality i8* bitcast (i32 (...)* @__gxx_personality_v0 to i8*) !dbg !9559 {
entry:
  %this.addr = alloca %"class.dealii::FE_DGPMonomial"*, align 8
  %x_source_fe.addr = alloca %"class.dealii::FiniteElement"*, align 8
  %.addr = alloca i32, align 4
  %interpolation_matrix.addr = alloca %"class.dealii::FullMatrix"*, align 8
  %ref.tmp = alloca %"class.std::__cxx11::basic_string", align 8
  %agg.tmp = alloca %"class.dealii::FiniteElement<3, 3>::ExcInterpolationNotImplemented", align 8
  %exn.slot = alloca i8*
  %ehselector.slot = alloca i32
  store %"class.dealii::FE_DGPMonomial"* %this, %"class.dealii::FE_DGPMonomial"** %this.addr, align 8
  call void @llvm.dbg.declare(metadata %"class.dealii::FE_DGPMonomial"** %this.addr, metadata !9560, metadata !DIExpression()), !dbg !9561
  store %"class.dealii::FiniteElement"* %x_source_fe, %"class.dealii::FiniteElement"** %x_source_fe.addr, align 8
  call void @llvm.dbg.declare(metadata %"class.dealii::FiniteElement"** %x_source_fe.addr, metadata !9562, metadata !DIExpression()), !dbg !9563
  store i32 %0, i32* %.addr, align 4
  call void @llvm.dbg.declare(metadata i32* %.addr, metadata !9564, metadata !DIExpression()), !dbg !9565
  store %"class.dealii::FullMatrix"* %interpolation_matrix, %"class.dealii::FullMatrix"** %interpolation_matrix.addr, align 8
  call void @llvm.dbg.declare(metadata %"class.dealii::FullMatrix"** %interpolation_matrix.addr, metadata !9566, metadata !DIExpression()), !dbg !9567
  %this1 = load %"class.dealii::FE_DGPMonomial"*, %"class.dealii::FE_DGPMonomial"** %this.addr, align 8
  %1 = load %"class.dealii::FiniteElement"*, %"class.dealii::FiniteElement"** %x_source_fe.addr, align 8, !dbg !9568
  %2 = bitcast %"class.dealii::FiniteElement"* %1 to void (%"class.std::__cxx11::basic_string"*, %"class.dealii::FiniteElement"*)***, !dbg !9568
  %vtable = load void (%"class.std::__cxx11::basic_string"*, %"class.dealii::FiniteElement"*)**, void (%"class.std::__cxx11::basic_string"*, %"class.dealii::FiniteElement"*)*** %2, align 8, !dbg !9568
  %vfn = getelementptr inbounds void (%"class.std::__cxx11::basic_string"*, %"class.dealii::FiniteElement"*)*, void (%"class.std::__cxx11::basic_string"*, %"class.dealii::FiniteElement"*)** %vtable, i64 2, !dbg !9568
  %3 = load void (%"class.std::__cxx11::basic_string"*, %"class.dealii::FiniteElement"*)*, void (%"class.std::__cxx11::basic_string"*, %"class.dealii::FiniteElement"*)** %vfn, align 8, !dbg !9568
  call void %3(%"class.std::__cxx11::basic_string"* sret %ref.tmp, %"class.dealii::FiniteElement"* %1), !dbg !9568
  %call = call i64 @_ZNKSt7__cxx1112basic_stringIcSt11char_traitsIcESaIcEE4findEPKcm(%"class.std::__cxx11::basic_string"* %ref.tmp, i8* getelementptr inbounds ([16 x i8], [16 x i8]* @.str, i64 0, i64 0), i64 0) #4, !dbg !9568
  %cmp = icmp eq i64 %call, 0, !dbg !9568
  br i1 %cmp, label %lor.end, label %lor.rhs, !dbg !9568

lor.rhs:                                          ; preds = %entry
  %4 = load %"class.dealii::FiniteElement"*, %"class.dealii::FiniteElement"** %x_source_fe.addr, align 8, !dbg !9568
  %5 = icmp eq %"class.dealii::FiniteElement"* %4, null, !dbg !9568
  br i1 %5, label %dynamic_cast.null, label %dynamic_cast.notnull, !dbg !9568

dynamic_cast.notnull:                             ; preds = %lor.rhs
  %6 = bitcast %"class.dealii::FiniteElement"* %4 to i8*, !dbg !9568
  %7 = call i8* @__dynamic_cast(i8* %6, i8* bitcast ({ i8*, i8*, i32, i32, i8*, i64, i8*, i64 }* @_ZTIN6dealii13FiniteElementILi3ELi3EEE to i8*), i8* bitcast ({ i8*, i8*, i8* }* @_ZTIN6dealii14FE_DGPMonomialILi3EEE to i8*), i64 0) #4, !dbg !9568
  %8 = bitcast i8* %7 to %"class.dealii::FE_DGPMonomial"*, !dbg !9568
  br label %dynamic_cast.end, !dbg !9568

dynamic_cast.null:                                ; preds = %lor.rhs
  br label %dynamic_cast.end, !dbg !9568

dynamic_cast.end:                                 ; preds = %dynamic_cast.null, %dynamic_cast.notnull
  %9 = phi %"class.dealii::FE_DGPMonomial"* [ %8, %dynamic_cast.notnull ], [ null, %dynamic_cast.null ], !dbg !9568
  %cmp2 = icmp ne %"class.dealii::FE_DGPMonomial"* %9, null, !dbg !9568
  br label %lor.end, !dbg !9568

lor.end:                                          ; preds = %dynamic_cast.end, %entry
  %10 = phi i1 [ true, %entry ], [ %cmp2, %dynamic_cast.end ]
  %lnot = xor i1 %10, true, !dbg !9568
  call void @_ZNSt7__cxx1112basic_stringIcSt11char_traitsIcESaIcEED1Ev(%"class.std::__cxx11::basic_string"* %ref.tmp) #4, !dbg !9568
  br i1 %lnot, label %if.then, label %if.end, !dbg !9571

if.then:                                          ; preds = %lor.end
  %11 = bitcast %"class.dealii::FiniteElement<3, 3>::ExcInterpolationNotImplemented"* %agg.tmp to i8*, !dbg !9568
  call void @llvm.memset.p0i8.i64(i8* align 8 %11, i8 0, i64 64, i1 false), !dbg !9568
  call void @_ZN6dealii13FiniteElementILi3ELi3EE30ExcInterpolationNotImplementedC2Ev(%"class.dealii::FiniteElement<3, 3>::ExcInterpolationNotImplemented"* %agg.tmp), !dbg !9568
  invoke void @_ZN6dealii18deal_II_exceptions9internals17issue_error_throwINS_13FiniteElementILi3ELi3EE30ExcInterpolationNotImplementedEEEvPKciS7_S7_S7_T_(i8* getelementptr inbounds ([29 x i8], [29 x i8]* @.str.12, i64 0, i64 0), i32 296, i8* getelementptr inbounds ([1 x i8], [1 x i8]* @.str.13, i64 0, i64 0), i8* getelementptr inbounds ([120 x i8], [120 x i8]* @.str.14, i64 0, i64 0), i8* getelementptr inbounds ([63 x i8], [63 x i8]* @.str.15, i64 0, i64 0), %"class.dealii::FiniteElement<3, 3>::ExcInterpolationNotImplemented"* %agg.tmp)
          to label %invoke.cont unwind label %lpad, !dbg !9568

invoke.cont:                                      ; preds = %if.then
  call void @_ZN6dealii13FiniteElementILi3ELi3EE30ExcInterpolationNotImplementedD2Ev(%"class.dealii::FiniteElement<3, 3>::ExcInterpolationNotImplemented"* %agg.tmp) #4, !dbg !9568
  br label %if.end, !dbg !9568

lpad:                                             ; preds = %if.then
  %12 = landingpad { i8*, i32 }
          cleanup, !dbg !9572
  %13 = extractvalue { i8*, i32 } %12, 0, !dbg !9572
  store i8* %13, i8** %exn.slot, align 8, !dbg !9572
  %14 = extractvalue { i8*, i32 } %12, 1, !dbg !9572
  store i32 %14, i32* %ehselector.slot, align 4, !dbg !9572
  call void @_ZN6dealii13FiniteElementILi3ELi3EE30ExcInterpolationNotImplementedD2Ev(%"class.dealii::FiniteElement<3, 3>::ExcInterpolationNotImplemented"* %agg.tmp) #4, !dbg !9568
  br label %eh.resume, !dbg !9568

if.end:                                           ; preds = %invoke.cont, %lor.end
  ret void, !dbg !9573

eh.resume:                                        ; preds = %lpad
  %exn = load i8*, i8** %exn.slot, align 8, !dbg !9568
  %sel = load i32, i32* %ehselector.slot, align 4, !dbg !9568
  %lpad.val = insertvalue { i8*, i32 } undef, i8* %exn, 0, !dbg !9568
  %lpad.val3 = insertvalue { i8*, i32 } %lpad.val, i32 %sel, 1, !dbg !9568
  resume { i8*, i32 } %lpad.val3, !dbg !9568
}

; Function Attrs: noinline nounwind uwtable
define weak_odr dso_local i32 @_ZNK6dealii14FE_DGPMonomialILi3EE18memory_consumptionEv(%"class.dealii::FE_DGPMonomial"* %this) unnamed_addr #1 comdat align 2 !dbg !9574 {
entry:
  %this.addr = alloca %"class.dealii::FE_DGPMonomial"*, align 8
  store %"class.dealii::FE_DGPMonomial"* %this, %"class.dealii::FE_DGPMonomial"** %this.addr, align 8
  call void @llvm.dbg.declare(metadata %"class.dealii::FE_DGPMonomial"** %this.addr, metadata !9575, metadata !DIExpression()), !dbg !9576
  %this1 = load %"class.dealii::FE_DGPMonomial"*, %"class.dealii::FE_DGPMonomial"** %this.addr, align 8
  ret i32 0, !dbg !9577
}

; Function Attrs: noinline uwtable
define weak_odr dso_local %"class.dealii::FiniteElement"* @_ZNK6dealii14FE_DGPMonomialILi3EE5cloneEv(%"class.dealii::FE_DGPMonomial"* %this) unnamed_addr #0 comdat align 2 personality i8* bitcast (i32 (...)* @__gxx_personality_v0 to i8*) !dbg !9578 {
entry:
  %this.addr = alloca %"class.dealii::FE_DGPMonomial"*, align 8
  %exn.slot = alloca i8*
  %ehselector.slot = alloca i32
  store %"class.dealii::FE_DGPMonomial"* %this, %"class.dealii::FE_DGPMonomial"** %this.addr, align 8
  call void @llvm.dbg.declare(metadata %"class.dealii::FE_DGPMonomial"** %this.addr, metadata !9579, metadata !DIExpression()), !dbg !9580
  %this1 = load %"class.dealii::FE_DGPMonomial"*, %"class.dealii::FE_DGPMonomial"** %this.addr, align 8
  %call = call i8* @_Znwm(i64 816) #15, !dbg !9581
  %0 = bitcast i8* %call to %"class.dealii::FE_DGPMonomial"*, !dbg !9581
  invoke void @_ZN6dealii14FE_DGPMonomialILi3EEC2ERKS1_(%"class.dealii::FE_DGPMonomial"* %0, %"class.dealii::FE_DGPMonomial"* dereferenceable(816) %this1)
          to label %invoke.cont unwind label %lpad, !dbg !9582

invoke.cont:                                      ; preds = %entry
  %1 = bitcast %"class.dealii::FE_DGPMonomial"* %0 to %"class.dealii::FiniteElement"*, !dbg !9581
  ret %"class.dealii::FiniteElement"* %1, !dbg !9583

lpad:                                             ; preds = %entry
  %2 = landingpad { i8*, i32 }
          cleanup, !dbg !9584
  %3 = extractvalue { i8*, i32 } %2, 0, !dbg !9584
  store i8* %3, i8** %exn.slot, align 8, !dbg !9584
  %4 = extractvalue { i8*, i32 } %2, 1, !dbg !9584
  store i32 %4, i32* %ehselector.slot, align 4, !dbg !9584
  call void @_ZdlPv(i8* %call) #16, !dbg !9581
  br label %eh.resume, !dbg !9581

eh.resume:                                        ; preds = %lpad
  %exn = load i8*, i8** %exn.slot, align 8, !dbg !9581
  %sel = load i32, i32* %ehselector.slot, align 4, !dbg !9581
  %lpad.val = insertvalue { i8*, i32 } undef, i8* %exn, 0, !dbg !9581
  %lpad.val2 = insertvalue { i8*, i32 } %lpad.val, i32 %sel, 1, !dbg !9581
  resume { i8*, i32 } %lpad.val2, !dbg !9581
}

; Function Attrs: nobuiltin
declare dso_local noalias i8* @_Znwm(i64) #8

; Function Attrs: noinline uwtable
define linkonce_odr dso_local void @_ZN6dealii14FE_DGPMonomialILi3EEC2ERKS1_(%"class.dealii::FE_DGPMonomial"* %this, %"class.dealii::FE_DGPMonomial"* dereferenceable(816) %0) unnamed_addr #0 comdat align 2 !dbg !9585 {
entry:
  %this.addr = alloca %"class.dealii::FE_DGPMonomial"*, align 8
  %.addr = alloca %"class.dealii::FE_DGPMonomial"*, align 8
  store %"class.dealii::FE_DGPMonomial"* %this, %"class.dealii::FE_DGPMonomial"** %this.addr, align 8
  call void @llvm.dbg.declare(metadata %"class.dealii::FE_DGPMonomial"** %this.addr, metadata !9590, metadata !DIExpression()), !dbg !9591
  store %"class.dealii::FE_DGPMonomial"* %0, %"class.dealii::FE_DGPMonomial"** %.addr, align 8
  call void @llvm.dbg.declare(metadata %"class.dealii::FE_DGPMonomial"** %.addr, metadata !9592, metadata !DIExpression()), !dbg !9591
  %this1 = load %"class.dealii::FE_DGPMonomial"*, %"class.dealii::FE_DGPMonomial"** %this.addr, align 8
  %1 = bitcast %"class.dealii::FE_DGPMonomial"* %this1 to %"class.dealii::FE_Poly"*, !dbg !9593
  %2 = load %"class.dealii::FE_DGPMonomial"*, %"class.dealii::FE_DGPMonomial"** %.addr, align 8, !dbg !9593
  %3 = bitcast %"class.dealii::FE_DGPMonomial"* %2 to %"class.dealii::FE_Poly"*, !dbg !9593
  call void @_ZN6dealii7FE_PolyINS_12PolynomialsPILi3EEELi3ELi3EEC2ERKS3_(%"class.dealii::FE_Poly"* %1, %"class.dealii::FE_Poly"* dereferenceable(816) %3), !dbg !9593
  %4 = bitcast %"class.dealii::FE_DGPMonomial"* %this1 to i32 (...)***, !dbg !9593
  store i32 (...)** bitcast (i8** getelementptr inbounds ({ [38 x i8*] }, { [38 x i8*] }* @_ZTVN6dealii14FE_DGPMonomialILi3EEE, i32 0, inrange i32 0, i32 2) to i32 (...)**), i32 (...)*** %4, align 8, !dbg !9593
  ret void, !dbg !9593
}

; Function Attrs: nobuiltin nounwind
declare dso_local void @_ZdlPv(i8*) #9

; Function Attrs: noinline nounwind uwtable
define linkonce_odr dso_local void @_ZNSaIjEC2Ev(%"class.std::allocator.56"* %this) unnamed_addr #1 comdat align 2 !dbg !9594 {
entry:
  %this.addr = alloca %"class.std::allocator.56"*, align 8
  store %"class.std::allocator.56"* %this, %"class.std::allocator.56"** %this.addr, align 8
  call void @llvm.dbg.declare(metadata %"class.std::allocator.56"** %this.addr, metadata !9595, metadata !DIExpression()), !dbg !9597
  %this1 = load %"class.std::allocator.56"*, %"class.std::allocator.56"** %this.addr, align 8
  %0 = bitcast %"class.std::allocator.56"* %this1 to %"class.__gnu_cxx::new_allocator.57"*, !dbg !9598
  call void @_ZN9__gnu_cxx13new_allocatorIjEC2Ev(%"class.__gnu_cxx::new_allocator.57"* %0) #4, !dbg !9599
  ret void, !dbg !9600
}

; Function Attrs: noinline uwtable
define linkonce_odr dso_local void @_ZNSt6vectorIjSaIjEEC2EmRKjRKS0_(%"class.std::vector.54"* %this, i64 %__n, i32* dereferenceable(4) %__value, %"class.std::allocator.56"* dereferenceable(1) %__a) unnamed_addr #0 comdat align 2 personality i8* bitcast (i32 (...)* @__gxx_personality_v0 to i8*) !dbg !9601 {
entry:
  %this.addr = alloca %"class.std::vector.54"*, align 8
  %__n.addr = alloca i64, align 8
  %__value.addr = alloca i32*, align 8
  %__a.addr = alloca %"class.std::allocator.56"*, align 8
  %exn.slot = alloca i8*
  %ehselector.slot = alloca i32
  store %"class.std::vector.54"* %this, %"class.std::vector.54"** %this.addr, align 8
  call void @llvm.dbg.declare(metadata %"class.std::vector.54"** %this.addr, metadata !9602, metadata !DIExpression()), !dbg !9603
  store i64 %__n, i64* %__n.addr, align 8
  call void @llvm.dbg.declare(metadata i64* %__n.addr, metadata !9604, metadata !DIExpression()), !dbg !9605
  store i32* %__value, i32** %__value.addr, align 8
  call void @llvm.dbg.declare(metadata i32** %__value.addr, metadata !9606, metadata !DIExpression()), !dbg !9607
  store %"class.std::allocator.56"* %__a, %"class.std::allocator.56"** %__a.addr, align 8
  call void @llvm.dbg.declare(metadata %"class.std::allocator.56"** %__a.addr, metadata !9608, metadata !DIExpression()), !dbg !9609
  %this1 = load %"class.std::vector.54"*, %"class.std::vector.54"** %this.addr, align 8
  %0 = bitcast %"class.std::vector.54"* %this1 to %"struct.std::_Vector_base.55"*, !dbg !9610
  %1 = load i64, i64* %__n.addr, align 8, !dbg !9611
  %2 = load %"class.std::allocator.56"*, %"class.std::allocator.56"** %__a.addr, align 8, !dbg !9612
  %call = call i64 @_ZNSt6vectorIjSaIjEE17_S_check_init_lenEmRKS0_(i64 %1, %"class.std::allocator.56"* dereferenceable(1) %2), !dbg !9613
  %3 = load %"class.std::allocator.56"*, %"class.std::allocator.56"** %__a.addr, align 8, !dbg !9614
  call void @_ZNSt12_Vector_baseIjSaIjEEC2EmRKS0_(%"struct.std::_Vector_base.55"* %0, i64 %call, %"class.std::allocator.56"* dereferenceable(1) %3), !dbg !9615
  %4 = load i64, i64* %__n.addr, align 8, !dbg !9616
  %5 = load i32*, i32** %__value.addr, align 8, !dbg !9618
  invoke void @_ZNSt6vectorIjSaIjEE18_M_fill_initializeEmRKj(%"class.std::vector.54"* %this1, i64 %4, i32* dereferenceable(4) %5)
          to label %invoke.cont unwind label %lpad, !dbg !9619

invoke.cont:                                      ; preds = %entry
  ret void, !dbg !9620

lpad:                                             ; preds = %entry
  %6 = landingpad { i8*, i32 }
          cleanup, !dbg !9621
  %7 = extractvalue { i8*, i32 } %6, 0, !dbg !9621
  store i8* %7, i8** %exn.slot, align 8, !dbg !9621
  %8 = extractvalue { i8*, i32 } %6, 1, !dbg !9621
  store i32 %8, i32* %ehselector.slot, align 4, !dbg !9621
  %9 = bitcast %"class.std::vector.54"* %this1 to %"struct.std::_Vector_base.55"*, !dbg !9621
  call void @_ZNSt12_Vector_baseIjSaIjEED2Ev(%"struct.std::_Vector_base.55"* %9) #4, !dbg !9621
  br label %eh.resume, !dbg !9621

eh.resume:                                        ; preds = %lpad
  %exn = load i8*, i8** %exn.slot, align 8, !dbg !9621
  %sel = load i32, i32* %ehselector.slot, align 4, !dbg !9621
  %lpad.val = insertvalue { i8*, i32 } undef, i8* %exn, 0, !dbg !9621
  %lpad.val2 = insertvalue { i8*, i32 } %lpad.val, i32 %sel, 1, !dbg !9621
  resume { i8*, i32 } %lpad.val2, !dbg !9621
}

; Function Attrs: noinline nounwind uwtable
define linkonce_odr dso_local void @_ZNSaIjED2Ev(%"class.std::allocator.56"* %this) unnamed_addr #1 comdat align 2 !dbg !9622 {
entry:
  %this.addr = alloca %"class.std::allocator.56"*, align 8
  store %"class.std::allocator.56"* %this, %"class.std::allocator.56"** %this.addr, align 8
  call void @llvm.dbg.declare(metadata %"class.std::allocator.56"** %this.addr, metadata !9623, metadata !DIExpression()), !dbg !9624
  %this1 = load %"class.std::allocator.56"*, %"class.std::allocator.56"** %this.addr, align 8
  %0 = bitcast %"class.std::allocator.56"* %this1 to %"class.__gnu_cxx::new_allocator.57"*, !dbg !9625
  call void @_ZN9__gnu_cxx13new_allocatorIjED2Ev(%"class.__gnu_cxx::new_allocator.57"* %0) #4, !dbg !9625
  ret void, !dbg !9627
}

; Function Attrs: noinline nounwind uwtable
define linkonce_odr dso_local dereferenceable(4) i32* @_ZNSt6vectorIjSaIjEEixEm(%"class.std::vector.54"* %this, i64 %__n) #1 comdat align 2 !dbg !9628 {
entry:
  %this.addr = alloca %"class.std::vector.54"*, align 8
  %__n.addr = alloca i64, align 8
  store %"class.std::vector.54"* %this, %"class.std::vector.54"** %this.addr, align 8
  call void @llvm.dbg.declare(metadata %"class.std::vector.54"** %this.addr, metadata !9629, metadata !DIExpression()), !dbg !9630
  store i64 %__n, i64* %__n.addr, align 8
  call void @llvm.dbg.declare(metadata i64* %__n.addr, metadata !9631, metadata !DIExpression()), !dbg !9632
  %this1 = load %"class.std::vector.54"*, %"class.std::vector.54"** %this.addr, align 8
  %0 = bitcast %"class.std::vector.54"* %this1 to %"struct.std::_Vector_base.55"*, !dbg !9633
  %_M_impl = getelementptr inbounds %"struct.std::_Vector_base.55", %"struct.std::_Vector_base.55"* %0, i32 0, i32 0, !dbg !9633
  %1 = bitcast %"struct.std::_Vector_base<unsigned int, std::allocator<unsigned int> >::_Vector_impl"* %_M_impl to %"struct.std::_Vector_base<unsigned int, std::allocator<unsigned int> >::_Vector_impl_data"*, !dbg !9634
  %_M_start = getelementptr inbounds %"struct.std::_Vector_base<unsigned int, std::allocator<unsigned int> >::_Vector_impl_data", %"struct.std::_Vector_base<unsigned int, std::allocator<unsigned int> >::_Vector_impl_data"* %1, i32 0, i32 0, !dbg !9635
  %2 = load i32*, i32** %_M_start, align 8, !dbg !9635
  %3 = load i64, i64* %__n.addr, align 8, !dbg !9636
  %add.ptr = getelementptr inbounds i32, i32* %2, i64 %3, !dbg !9637
  ret i32* %add.ptr, !dbg !9638
}

; Function Attrs: noinline nounwind uwtable
define weak_odr dso_local void @_ZN6dealii14FE_DGPMonomialILi3EE22initialize_restrictionEv(%"class.dealii::FE_DGPMonomial"* %this) #1 comdat align 2 !dbg !9639 {
entry:
  %this.addr = alloca %"class.dealii::FE_DGPMonomial"*, align 8
  store %"class.dealii::FE_DGPMonomial"* %this, %"class.dealii::FE_DGPMonomial"** %this.addr, align 8
  call void @llvm.dbg.declare(metadata %"class.dealii::FE_DGPMonomial"** %this.addr, metadata !9640, metadata !DIExpression()), !dbg !9641
  %this1 = load %"class.dealii::FE_DGPMonomial"*, %"class.dealii::FE_DGPMonomial"** %this.addr, align 8
  ret void, !dbg !9642
}

; Function Attrs: noinline uwtable
define dso_local zeroext i1 @_ZNK6dealii14FE_DGPMonomialILi3EE19has_support_on_faceEjj(%"class.dealii::FE_DGPMonomial"* %this, i32 %shape_index, i32 %face_index) unnamed_addr #0 align 2 !dbg !9643 {
entry:
  %this.addr = alloca %"class.dealii::FE_DGPMonomial"*, align 8
  %shape_index.addr = alloca i32, align 4
  %face_index.addr = alloca i32, align 4
  %support_on_face = alloca i8, align 1
  %degrees = alloca [3 x i32], align 4
  store %"class.dealii::FE_DGPMonomial"* %this, %"class.dealii::FE_DGPMonomial"** %this.addr, align 8
  call void @llvm.dbg.declare(metadata %"class.dealii::FE_DGPMonomial"** %this.addr, metadata !9644, metadata !DIExpression()), !dbg !9645
  store i32 %shape_index, i32* %shape_index.addr, align 4
  call void @llvm.dbg.declare(metadata i32* %shape_index.addr, metadata !9646, metadata !DIExpression()), !dbg !9647
  store i32 %face_index, i32* %face_index.addr, align 4
  call void @llvm.dbg.declare(metadata i32* %face_index.addr, metadata !9648, metadata !DIExpression()), !dbg !9649
  %this1 = load %"class.dealii::FE_DGPMonomial"*, %"class.dealii::FE_DGPMonomial"** %this.addr, align 8
  call void @llvm.dbg.declare(metadata i8* %support_on_face, metadata !9650, metadata !DIExpression()), !dbg !9651
  store i8 0, i8* %support_on_face, align 1, !dbg !9651
  %0 = load i32, i32* %face_index.addr, align 4, !dbg !9652
  %cmp = icmp eq i32 %0, 1, !dbg !9654
  br i1 %cmp, label %if.then, label %lor.lhs.false, !dbg !9655

lor.lhs.false:                                    ; preds = %entry
  %1 = load i32, i32* %face_index.addr, align 4, !dbg !9656
  %cmp2 = icmp eq i32 %1, 3, !dbg !9657
  br i1 %cmp2, label %if.then, label %lor.lhs.false3, !dbg !9658

lor.lhs.false3:                                   ; preds = %lor.lhs.false
  %2 = load i32, i32* %face_index.addr, align 4, !dbg !9659
  %cmp4 = icmp eq i32 %2, 4, !dbg !9660
  br i1 %cmp4, label %if.then, label %if.else, !dbg !9661

if.then:                                          ; preds = %lor.lhs.false3, %lor.lhs.false, %entry
  store i8 1, i8* %support_on_face, align 1, !dbg !9662
  br label %if.end18, !dbg !9663

if.else:                                          ; preds = %lor.lhs.false3
  call void @llvm.dbg.declare(metadata [3 x i32]* %degrees, metadata !9664, metadata !DIExpression()), !dbg !9666
  %3 = bitcast %"class.dealii::FE_DGPMonomial"* %this1 to %"class.dealii::FE_Poly"*, !dbg !9667
  %poly_space = getelementptr inbounds %"class.dealii::FE_Poly", %"class.dealii::FE_Poly"* %3, i32 0, i32 1, !dbg !9667
  %4 = load i32, i32* %shape_index.addr, align 4, !dbg !9668
  call void @_ZNK6dealii12PolynomialsPILi3EE19directional_degreesEjRA3_j(%"class.dealii::PolynomialsP"* %poly_space, i32 %4, [3 x i32]* dereferenceable(12) %degrees), !dbg !9669
  %5 = load i32, i32* %face_index.addr, align 4, !dbg !9670
  %cmp5 = icmp eq i32 %5, 0, !dbg !9672
  br i1 %cmp5, label %land.lhs.true, label %lor.lhs.false7, !dbg !9673

land.lhs.true:                                    ; preds = %if.else
  %arrayidx = getelementptr inbounds [3 x i32], [3 x i32]* %degrees, i64 0, i64 1, !dbg !9674
  %6 = load i32, i32* %arrayidx, align 4, !dbg !9674
  %cmp6 = icmp eq i32 %6, 0, !dbg !9675
  br i1 %cmp6, label %if.then17, label %lor.lhs.false7, !dbg !9676

lor.lhs.false7:                                   ; preds = %land.lhs.true, %if.else
  %7 = load i32, i32* %face_index.addr, align 4, !dbg !9677
  %cmp8 = icmp eq i32 %7, 2, !dbg !9678
  br i1 %cmp8, label %land.lhs.true9, label %lor.lhs.false12, !dbg !9679

land.lhs.true9:                                   ; preds = %lor.lhs.false7
  %arrayidx10 = getelementptr inbounds [3 x i32], [3 x i32]* %degrees, i64 0, i64 2, !dbg !9680
  %8 = load i32, i32* %arrayidx10, align 4, !dbg !9680
  %cmp11 = icmp eq i32 %8, 0, !dbg !9681
  br i1 %cmp11, label %if.then17, label %lor.lhs.false12, !dbg !9682

lor.lhs.false12:                                  ; preds = %land.lhs.true9, %lor.lhs.false7
  %9 = load i32, i32* %face_index.addr, align 4, !dbg !9683
  %cmp13 = icmp eq i32 %9, 5, !dbg !9684
  br i1 %cmp13, label %land.lhs.true14, label %if.end, !dbg !9685

land.lhs.true14:                                  ; preds = %lor.lhs.false12
  %arrayidx15 = getelementptr inbounds [3 x i32], [3 x i32]* %degrees, i64 0, i64 0, !dbg !9686
  %10 = load i32, i32* %arrayidx15, align 4, !dbg !9686
  %cmp16 = icmp eq i32 %10, 0, !dbg !9687
  br i1 %cmp16, label %if.then17, label %if.end, !dbg !9688

if.then17:                                        ; preds = %land.lhs.true14, %land.lhs.true9, %land.lhs.true
  store i8 1, i8* %support_on_face, align 1, !dbg !9689
  br label %if.end, !dbg !9690

if.end:                                           ; preds = %if.then17, %land.lhs.true14, %lor.lhs.false12
  br label %if.end18

if.end18:                                         ; preds = %if.end, %if.then
  %11 = load i8, i8* %support_on_face, align 1, !dbg !9691
  %tobool = trunc i8 %11 to i1, !dbg !9691
  ret i1 %tobool, !dbg !9692
}

; Function Attrs: noinline uwtable
define linkonce_odr dso_local void @_ZNK6dealii12PolynomialsPILi3EE19directional_degreesEjRA3_j(%"class.dealii::PolynomialsP"* %this, i32 %n, [3 x i32]* dereferenceable(12) %degrees) #0 comdat align 2 !dbg !9693 {
entry:
  %this.addr = alloca %"class.dealii::PolynomialsP"*, align 8
  %n.addr = alloca i32, align 4
  %degrees.addr = alloca [3 x i32]*, align 8
  store %"class.dealii::PolynomialsP"* %this, %"class.dealii::PolynomialsP"** %this.addr, align 8
  call void @llvm.dbg.declare(metadata %"class.dealii::PolynomialsP"** %this.addr, metadata !9694, metadata !DIExpression()), !dbg !9696
  store i32 %n, i32* %n.addr, align 4
  call void @llvm.dbg.declare(metadata i32* %n.addr, metadata !9697, metadata !DIExpression()), !dbg !9698
  store [3 x i32]* %degrees, [3 x i32]** %degrees.addr, align 8
  call void @llvm.dbg.declare(metadata [3 x i32]** %degrees.addr, metadata !9699, metadata !DIExpression()), !dbg !9700
  %this1 = load %"class.dealii::PolynomialsP"*, %"class.dealii::PolynomialsP"** %this.addr, align 8
  %0 = bitcast %"class.dealii::PolynomialsP"* %this1 to %"class.dealii::PolynomialSpace"*, !dbg !9701
  %1 = load i32, i32* %n.addr, align 4, !dbg !9702
  %2 = load [3 x i32]*, [3 x i32]** %degrees.addr, align 8, !dbg !9703
  call void @_ZNK6dealii15PolynomialSpaceILi3EE13compute_indexEjRA3_j(%"class.dealii::PolynomialSpace"* %0, i32 %1, [3 x i32]* dereferenceable(12) %2), !dbg !9701
  ret void, !dbg !9704
}

; Function Attrs: noinline nounwind uwtable
define linkonce_odr dso_local void @_ZN6dealii14FE_DGPMonomialILi3EED2Ev(%"class.dealii::FE_DGPMonomial"* %this) unnamed_addr #1 comdat align 2 !dbg !9705 {
entry:
  %this.addr = alloca %"class.dealii::FE_DGPMonomial"*, align 8
  store %"class.dealii::FE_DGPMonomial"* %this, %"class.dealii::FE_DGPMonomial"** %this.addr, align 8
  call void @llvm.dbg.declare(metadata %"class.dealii::FE_DGPMonomial"** %this.addr, metadata !9707, metadata !DIExpression()), !dbg !9708
  %this1 = load %"class.dealii::FE_DGPMonomial"*, %"class.dealii::FE_DGPMonomial"** %this.addr, align 8
  %0 = bitcast %"class.dealii::FE_DGPMonomial"* %this1 to %"class.dealii::FE_Poly"*, !dbg !9709
  call void @_ZN6dealii7FE_PolyINS_12PolynomialsPILi3EEELi3ELi3EED2Ev(%"class.dealii::FE_Poly"* %0) #4, !dbg !9709
  ret void, !dbg !9711
}

; Function Attrs: noinline nounwind uwtable
define linkonce_odr dso_local void @_ZN6dealii14FE_DGPMonomialILi3EED0Ev(%"class.dealii::FE_DGPMonomial"* %this) unnamed_addr #1 comdat align 2 !dbg !9712 {
entry:
  %this.addr = alloca %"class.dealii::FE_DGPMonomial"*, align 8
  store %"class.dealii::FE_DGPMonomial"* %this, %"class.dealii::FE_DGPMonomial"** %this.addr, align 8
  call void @llvm.dbg.declare(metadata %"class.dealii::FE_DGPMonomial"** %this.addr, metadata !9713, metadata !DIExpression()), !dbg !9714
  %this1 = load %"class.dealii::FE_DGPMonomial"*, %"class.dealii::FE_DGPMonomial"** %this.addr, align 8
  call void @_ZN6dealii14FE_DGPMonomialILi3EED2Ev(%"class.dealii::FE_DGPMonomial"* %this1) #4, !dbg !9715
  %0 = bitcast %"class.dealii::FE_DGPMonomial"* %this1 to i8*, !dbg !9715
  call void @_ZdlPv(i8* %0) #16, !dbg !9715
  ret void, !dbg !9715
}

declare dso_local double @_ZNK6dealii7FE_PolyINS_12PolynomialsPILi3EEELi3ELi3EE11shape_valueEjRKNS_5PointILi3EEE(%"class.dealii::FE_Poly"*, i32, %"class.dealii::Point"* dereferenceable(24)) unnamed_addr #2

declare dso_local double @_ZNK6dealii7FE_PolyINS_12PolynomialsPILi3EEELi3ELi3EE21shape_value_componentEjRKNS_5PointILi3EEEj(%"class.dealii::FE_Poly"*, i32, %"class.dealii::Point"* dereferenceable(24), i32) unnamed_addr #2

declare dso_local void @_ZNK6dealii7FE_PolyINS_12PolynomialsPILi3EEELi3ELi3EE10shape_gradEjRKNS_5PointILi3EEE(%"class.dealii::Tensor"* sret, %"class.dealii::FE_Poly"*, i32, %"class.dealii::Point"* dereferenceable(24)) unnamed_addr #2

declare dso_local void @_ZNK6dealii7FE_PolyINS_12PolynomialsPILi3EEELi3ELi3EE20shape_grad_componentEjRKNS_5PointILi3EEEj(%"class.dealii::Tensor"* sret, %"class.dealii::FE_Poly"*, i32, %"class.dealii::Point"* dereferenceable(24), i32) unnamed_addr #2

declare dso_local void @_ZNK6dealii7FE_PolyINS_12PolynomialsPILi3EEELi3ELi3EE15shape_grad_gradEjRKNS_5PointILi3EEE(%"class.dealii::Tensor.84"* sret, %"class.dealii::FE_Poly"*, i32, %"class.dealii::Point"* dereferenceable(24)) unnamed_addr #2

declare dso_local void @_ZNK6dealii7FE_PolyINS_12PolynomialsPILi3EEELi3ELi3EE25shape_grad_grad_componentEjRKNS_5PointILi3EEEj(%"class.dealii::Tensor.84"* sret, %"class.dealii::FE_Poly"*, i32, %"class.dealii::Point"* dereferenceable(24), i32) unnamed_addr #2

declare dso_local i32 @_ZNK6dealii7FE_PolyINS_12PolynomialsPILi3EEELi3ELi3EE15n_base_elementsEv(%"class.dealii::FE_Poly"*) unnamed_addr #2

declare dso_local dereferenceable(728) %"class.dealii::FiniteElement"* @_ZNK6dealii7FE_PolyINS_12PolynomialsPILi3EEELi3ELi3EE12base_elementEj(%"class.dealii::FE_Poly"*, i32) unnamed_addr #2

declare dso_local i32 @_ZNK6dealii7FE_PolyINS_12PolynomialsPILi3EEELi3ELi3EE20element_multiplicityEj(%"class.dealii::FE_Poly"*, i32) unnamed_addr #2

declare dso_local void @_ZNK6dealii13FiniteElementILi3ELi3EE18unit_support_pointEj(%"class.dealii::Point"* sret, %"class.dealii::FiniteElement"*, i32) unnamed_addr #2

declare dso_local void @_ZNK6dealii13FiniteElementILi3ELi3EE23unit_face_support_pointEj(%"class.dealii::Point.30"* sret, %"class.dealii::FiniteElement"*, i32) unnamed_addr #2

declare dso_local void @_ZNK6dealii13FiniteElementILi3ELi3EE11interpolateERSt6vectorIdSaIdEERKS4_(%"class.dealii::FiniteElement"*, %"class.std::vector.73"* dereferenceable(24), %"class.std::vector.73"* dereferenceable(24)) unnamed_addr #2

declare dso_local void @_ZNK6dealii13FiniteElementILi3ELi3EE11interpolateERSt6vectorIdSaIdEERKS2_INS_6VectorIdEESaIS7_EEj(%"class.dealii::FiniteElement"*, %"class.std::vector.73"* dereferenceable(24), %"class.std::vector.85"* nonnull, i32) unnamed_addr #2

declare dso_local void @_ZNK6dealii13FiniteElementILi3ELi3EE11interpolateERSt6vectorIdSaIdEERKNS_11VectorSliceIKS2_IS4_SaIS4_EEEE(%"class.dealii::FiniteElement"*, %"class.std::vector.73"* dereferenceable(24), %"class.dealii::VectorSlice"* nonnull) unnamed_addr #2

declare dso_local i32 @_ZNK6dealii7FE_PolyINS_12PolynomialsPILi3EEELi3ELi3EE11update_onceENS_11UpdateFlagsE(%"class.dealii::FE_Poly"*, i32) unnamed_addr #2

declare dso_local i32 @_ZNK6dealii7FE_PolyINS_12PolynomialsPILi3EEELi3ELi3EE11update_eachENS_11UpdateFlagsE(%"class.dealii::FE_Poly"*, i32) unnamed_addr #2

declare dso_local %"class.dealii::Mapping<3, 3>::InternalDataBase"* @_ZNK6dealii7FE_PolyINS_12PolynomialsPILi3EEELi3ELi3EE8get_dataENS_11UpdateFlagsERKNS_7MappingILi3ELi3EEERKNS_10QuadratureILi3EEE(%"class.dealii::FE_Poly"*, i32, %"class.dealii::Mapping"* dereferenceable(72), %"class.dealii::Quadrature"* nonnull) unnamed_addr #2

declare dso_local %"class.dealii::Mapping<3, 3>::InternalDataBase"* @_ZNK6dealii13FiniteElementILi3ELi3EE13get_face_dataENS_11UpdateFlagsERKNS_7MappingILi3ELi3EEERKNS_10QuadratureILi2EEE(%"class.dealii::FiniteElement"*, i32, %"class.dealii::Mapping"* dereferenceable(72), %"class.dealii::Quadrature.86"* nonnull) unnamed_addr #2

declare dso_local %"class.dealii::Mapping<3, 3>::InternalDataBase"* @_ZNK6dealii13FiniteElementILi3ELi3EE16get_subface_dataENS_11UpdateFlagsERKNS_7MappingILi3ELi3EEERKNS_10QuadratureILi2EEE(%"class.dealii::FiniteElement"*, i32, %"class.dealii::Mapping"* dereferenceable(72), %"class.dealii::Quadrature.86"* nonnull) unnamed_addr #2

declare dso_local void @_ZNK6dealii7FE_PolyINS_12PolynomialsPILi3EEELi3ELi3EE14fill_fe_valuesERKNS_7MappingILi3ELi3EEERKNS_12TriaIteratorINS_12CellAccessorILi3ELi3EEEEERKNS_10QuadratureILi3EEERNS5_16InternalDataBaseESJ_RNS_12FEValuesDataILi3ELi3EEERNS_14CellSimilarity10SimilarityE(%"class.dealii::FE_Poly"*, %"class.dealii::Mapping"* dereferenceable(72), %"class.dealii::TriaIterator"* nonnull, %"class.dealii::Quadrature"* nonnull, %"class.dealii::Mapping<3, 3>::InternalDataBase"* nonnull, %"class.dealii::Mapping<3, 3>::InternalDataBase"* nonnull, %"class.dealii::FEValuesData"* nonnull, i32* dereferenceable(4)) unnamed_addr #2

declare dso_local void @_ZNK6dealii7FE_PolyINS_12PolynomialsPILi3EEELi3ELi3EE19fill_fe_face_valuesERKNS_7MappingILi3ELi3EEERKNS_12TriaIteratorINS_12CellAccessorILi3ELi3EEEEEjRKNS_10QuadratureILi2EEERNS5_16InternalDataBaseESJ_RNS_12FEValuesDataILi3ELi3EEE(%"class.dealii::FE_Poly"*, %"class.dealii::Mapping"* dereferenceable(72), %"class.dealii::TriaIterator"* nonnull, i32, %"class.dealii::Quadrature.86"* nonnull, %"class.dealii::Mapping<3, 3>::InternalDataBase"* nonnull, %"class.dealii::Mapping<3, 3>::InternalDataBase"* nonnull, %"class.dealii::FEValuesData"* nonnull) unnamed_addr #2

declare dso_local void @_ZNK6dealii7FE_PolyINS_12PolynomialsPILi3EEELi3ELi3EE22fill_fe_subface_valuesERKNS_7MappingILi3ELi3EEERKNS_12TriaIteratorINS_12CellAccessorILi3ELi3EEEEEjjRKNS_10QuadratureILi2EEERNS5_16InternalDataBaseESJ_RNS_12FEValuesDataILi3ELi3EEE(%"class.dealii::FE_Poly"*, %"class.dealii::Mapping"* dereferenceable(72), %"class.dealii::TriaIterator"* nonnull, i32, i32, %"class.dealii::Quadrature.86"* nonnull, %"class.dealii::Mapping<3, 3>::InternalDataBase"* nonnull, %"class.dealii::Mapping<3, 3>::InternalDataBase"* nonnull, %"class.dealii::FEValuesData"* nonnull) unnamed_addr #2

; Function Attrs: noinline nounwind uwtable
define linkonce_odr dso_local void @_ZN6dealii15PolynomialSpaceILi3EED2Ev(%"class.dealii::PolynomialSpace"* %this) unnamed_addr #1 comdat align 2 !dbg !9716 {
entry:
  %this.addr = alloca %"class.dealii::PolynomialSpace"*, align 8
  store %"class.dealii::PolynomialSpace"* %this, %"class.dealii::PolynomialSpace"** %this.addr, align 8
  call void @llvm.dbg.declare(metadata %"class.dealii::PolynomialSpace"** %this.addr, metadata !9720, metadata !DIExpression()), !dbg !9722
  %this1 = load %"class.dealii::PolynomialSpace"*, %"class.dealii::PolynomialSpace"** %this.addr, align 8
  %index_map_inverse = getelementptr inbounds %"class.dealii::PolynomialSpace", %"class.dealii::PolynomialSpace"* %this1, i32 0, i32 3, !dbg !9723
  call void @_ZNSt6vectorIjSaIjEED2Ev(%"class.std::vector.54"* %index_map_inverse) #4, !dbg !9723
  %index_map = getelementptr inbounds %"class.dealii::PolynomialSpace", %"class.dealii::PolynomialSpace"* %this1, i32 0, i32 2, !dbg !9723
  call void @_ZNSt6vectorIjSaIjEED2Ev(%"class.std::vector.54"* %index_map) #4, !dbg !9723
  %polynomials = getelementptr inbounds %"class.dealii::PolynomialSpace", %"class.dealii::PolynomialSpace"* %this1, i32 0, i32 0, !dbg !9723
  call void @_ZNSt6vectorIN6dealii11Polynomials10PolynomialIdEESaIS3_EED2Ev(%"class.std::vector.68"* %polynomials) #4, !dbg !9723
  ret void, !dbg !9725
}

; Function Attrs: noinline nounwind uwtable
define linkonce_odr dso_local void @_ZNSt6vectorIN6dealii11Polynomials10PolynomialIdEESaIS3_EED2Ev(%"class.std::vector.68"* %this) unnamed_addr #1 comdat align 2 personality i8* bitcast (i32 (...)* @__gxx_personality_v0 to i8*) !dbg !9726 {
entry:
  %this.addr = alloca %"class.std::vector.68"*, align 8
  %exn.slot = alloca i8*
  %ehselector.slot = alloca i32
  store %"class.std::vector.68"* %this, %"class.std::vector.68"** %this.addr, align 8
  call void @llvm.dbg.declare(metadata %"class.std::vector.68"** %this.addr, metadata !9727, metadata !DIExpression()), !dbg !9729
  %this1 = load %"class.std::vector.68"*, %"class.std::vector.68"** %this.addr, align 8
  %0 = bitcast %"class.std::vector.68"* %this1 to %"struct.std::_Vector_base.69"*, !dbg !9730
  %_M_impl = getelementptr inbounds %"struct.std::_Vector_base.69", %"struct.std::_Vector_base.69"* %0, i32 0, i32 0, !dbg !9730
  %1 = bitcast %"struct.std::_Vector_base<dealii::Polynomials::Polynomial<double>, std::allocator<dealii::Polynomials::Polynomial<double> > >::_Vector_impl"* %_M_impl to %"struct.std::_Vector_base<dealii::Polynomials::Polynomial<double>, std::allocator<dealii::Polynomials::Polynomial<double> > >::_Vector_impl_data"*, !dbg !9732
  %_M_start = getelementptr inbounds %"struct.std::_Vector_base<dealii::Polynomials::Polynomial<double>, std::allocator<dealii::Polynomials::Polynomial<double> > >::_Vector_impl_data", %"struct.std::_Vector_base<dealii::Polynomials::Polynomial<double>, std::allocator<dealii::Polynomials::Polynomial<double> > >::_Vector_impl_data"* %1, i32 0, i32 0, !dbg !9733
  %2 = load %"class.dealii::Polynomials::Polynomial"*, %"class.dealii::Polynomials::Polynomial"** %_M_start, align 8, !dbg !9733
  %3 = bitcast %"class.std::vector.68"* %this1 to %"struct.std::_Vector_base.69"*, !dbg !9734
  %_M_impl2 = getelementptr inbounds %"struct.std::_Vector_base.69", %"struct.std::_Vector_base.69"* %3, i32 0, i32 0, !dbg !9734
  %4 = bitcast %"struct.std::_Vector_base<dealii::Polynomials::Polynomial<double>, std::allocator<dealii::Polynomials::Polynomial<double> > >::_Vector_impl"* %_M_impl2 to %"struct.std::_Vector_base<dealii::Polynomials::Polynomial<double>, std::allocator<dealii::Polynomials::Polynomial<double> > >::_Vector_impl_data"*, !dbg !9735
  %_M_finish = getelementptr inbounds %"struct.std::_Vector_base<dealii::Polynomials::Polynomial<double>, std::allocator<dealii::Polynomials::Polynomial<double> > >::_Vector_impl_data", %"struct.std::_Vector_base<dealii::Polynomials::Polynomial<double>, std::allocator<dealii::Polynomials::Polynomial<double> > >::_Vector_impl_data"* %4, i32 0, i32 1, !dbg !9736
  %5 = load %"class.dealii::Polynomials::Polynomial"*, %"class.dealii::Polynomials::Polynomial"** %_M_finish, align 8, !dbg !9736
  %6 = bitcast %"class.std::vector.68"* %this1 to %"struct.std::_Vector_base.69"*, !dbg !9737
  %call = call dereferenceable(1) %"class.std::allocator.70"* @_ZNSt12_Vector_baseIN6dealii11Polynomials10PolynomialIdEESaIS3_EE19_M_get_Tp_allocatorEv(%"struct.std::_Vector_base.69"* %6) #4, !dbg !9737
  invoke void @_ZSt8_DestroyIPN6dealii11Polynomials10PolynomialIdEES3_EvT_S5_RSaIT0_E(%"class.dealii::Polynomials::Polynomial"* %2, %"class.dealii::Polynomials::Polynomial"* %5, %"class.std::allocator.70"* dereferenceable(1) %call)
          to label %invoke.cont unwind label %lpad, !dbg !9738

invoke.cont:                                      ; preds = %entry
  %7 = bitcast %"class.std::vector.68"* %this1 to %"struct.std::_Vector_base.69"*, !dbg !9739
  call void @_ZNSt12_Vector_baseIN6dealii11Polynomials10PolynomialIdEESaIS3_EED2Ev(%"struct.std::_Vector_base.69"* %7) #4, !dbg !9739
  ret void, !dbg !9740

lpad:                                             ; preds = %entry
  %8 = landingpad { i8*, i32 }
          catch i8* null, !dbg !9739
  %9 = extractvalue { i8*, i32 } %8, 0, !dbg !9739
  store i8* %9, i8** %exn.slot, align 8, !dbg !9739
  %10 = extractvalue { i8*, i32 } %8, 1, !dbg !9739
  store i32 %10, i32* %ehselector.slot, align 4, !dbg !9739
  %11 = bitcast %"class.std::vector.68"* %this1 to %"struct.std::_Vector_base.69"*, !dbg !9739
  call void @_ZNSt12_Vector_baseIN6dealii11Polynomials10PolynomialIdEESaIS3_EED2Ev(%"struct.std::_Vector_base.69"* %11) #4, !dbg !9739
  br label %terminate.handler, !dbg !9739

terminate.handler:                                ; preds = %lpad
  %exn = load i8*, i8** %exn.slot, align 8, !dbg !9739
  call void @__clang_call_terminate(i8* %exn) #13, !dbg !9739
  unreachable, !dbg !9739
}

; Function Attrs: noinline uwtable
define linkonce_odr dso_local void @_ZSt8_DestroyIPN6dealii11Polynomials10PolynomialIdEES3_EvT_S5_RSaIT0_E(%"class.dealii::Polynomials::Polynomial"* %__first, %"class.dealii::Polynomials::Polynomial"* %__last, %"class.std::allocator.70"* dereferenceable(1) %0) #0 comdat !dbg !9741 {
entry:
  %__first.addr = alloca %"class.dealii::Polynomials::Polynomial"*, align 8
  %__last.addr = alloca %"class.dealii::Polynomials::Polynomial"*, align 8
  %.addr = alloca %"class.std::allocator.70"*, align 8
  store %"class.dealii::Polynomials::Polynomial"* %__first, %"class.dealii::Polynomials::Polynomial"** %__first.addr, align 8
  call void @llvm.dbg.declare(metadata %"class.dealii::Polynomials::Polynomial"** %__first.addr, metadata !9746, metadata !DIExpression()), !dbg !9747
  store %"class.dealii::Polynomials::Polynomial"* %__last, %"class.dealii::Polynomials::Polynomial"** %__last.addr, align 8
  call void @llvm.dbg.declare(metadata %"class.dealii::Polynomials::Polynomial"** %__last.addr, metadata !9748, metadata !DIExpression()), !dbg !9749
  store %"class.std::allocator.70"* %0, %"class.std::allocator.70"** %.addr, align 8
  call void @llvm.dbg.declare(metadata %"class.std::allocator.70"** %.addr, metadata !9750, metadata !DIExpression()), !dbg !9751
  %1 = load %"class.dealii::Polynomials::Polynomial"*, %"class.dealii::Polynomials::Polynomial"** %__first.addr, align 8, !dbg !9752
  %2 = load %"class.dealii::Polynomials::Polynomial"*, %"class.dealii::Polynomials::Polynomial"** %__last.addr, align 8, !dbg !9753
  call void @_ZSt8_DestroyIPN6dealii11Polynomials10PolynomialIdEEEvT_S5_(%"class.dealii::Polynomials::Polynomial"* %1, %"class.dealii::Polynomials::Polynomial"* %2), !dbg !9754
  ret void, !dbg !9755
}

; Function Attrs: noinline nounwind uwtable
define linkonce_odr dso_local dereferenceable(1) %"class.std::allocator.70"* @_ZNSt12_Vector_baseIN6dealii11Polynomials10PolynomialIdEESaIS3_EE19_M_get_Tp_allocatorEv(%"struct.std::_Vector_base.69"* %this) #1 comdat align 2 !dbg !9756 {
entry:
  %this.addr = alloca %"struct.std::_Vector_base.69"*, align 8
  store %"struct.std::_Vector_base.69"* %this, %"struct.std::_Vector_base.69"** %this.addr, align 8
  call void @llvm.dbg.declare(metadata %"struct.std::_Vector_base.69"** %this.addr, metadata !9757, metadata !DIExpression()), !dbg !9759
  %this1 = load %"struct.std::_Vector_base.69"*, %"struct.std::_Vector_base.69"** %this.addr, align 8
  %_M_impl = getelementptr inbounds %"struct.std::_Vector_base.69", %"struct.std::_Vector_base.69"* %this1, i32 0, i32 0, !dbg !9760
  %0 = bitcast %"struct.std::_Vector_base<dealii::Polynomials::Polynomial<double>, std::allocator<dealii::Polynomials::Polynomial<double> > >::_Vector_impl"* %_M_impl to %"class.std::allocator.70"*, !dbg !9761
  ret %"class.std::allocator.70"* %0, !dbg !9762
}

; Function Attrs: noinline nounwind uwtable
define linkonce_odr dso_local void @_ZNSt12_Vector_baseIN6dealii11Polynomials10PolynomialIdEESaIS3_EED2Ev(%"struct.std::_Vector_base.69"* %this) unnamed_addr #1 comdat align 2 personality i8* bitcast (i32 (...)* @__gxx_personality_v0 to i8*) !dbg !9763 {
entry:
  %this.addr = alloca %"struct.std::_Vector_base.69"*, align 8
  %exn.slot = alloca i8*
  %ehselector.slot = alloca i32
  store %"struct.std::_Vector_base.69"* %this, %"struct.std::_Vector_base.69"** %this.addr, align 8
  call void @llvm.dbg.declare(metadata %"struct.std::_Vector_base.69"** %this.addr, metadata !9764, metadata !DIExpression()), !dbg !9765
  %this1 = load %"struct.std::_Vector_base.69"*, %"struct.std::_Vector_base.69"** %this.addr, align 8
  %_M_impl = getelementptr inbounds %"struct.std::_Vector_base.69", %"struct.std::_Vector_base.69"* %this1, i32 0, i32 0, !dbg !9766
  %0 = bitcast %"struct.std::_Vector_base<dealii::Polynomials::Polynomial<double>, std::allocator<dealii::Polynomials::Polynomial<double> > >::_Vector_impl"* %_M_impl to %"struct.std::_Vector_base<dealii::Polynomials::Polynomial<double>, std::allocator<dealii::Polynomials::Polynomial<double> > >::_Vector_impl_data"*, !dbg !9766
  %_M_start = getelementptr inbounds %"struct.std::_Vector_base<dealii::Polynomials::Polynomial<double>, std::allocator<dealii::Polynomials::Polynomial<double> > >::_Vector_impl_data", %"struct.std::_Vector_base<dealii::Polynomials::Polynomial<double>, std::allocator<dealii::Polynomials::Polynomial<double> > >::_Vector_impl_data"* %0, i32 0, i32 0, !dbg !9768
  %1 = load %"class.dealii::Polynomials::Polynomial"*, %"class.dealii::Polynomials::Polynomial"** %_M_start, align 8, !dbg !9768
  %_M_impl2 = getelementptr inbounds %"struct.std::_Vector_base.69", %"struct.std::_Vector_base.69"* %this1, i32 0, i32 0, !dbg !9769
  %2 = bitcast %"struct.std::_Vector_base<dealii::Polynomials::Polynomial<double>, std::allocator<dealii::Polynomials::Polynomial<double> > >::_Vector_impl"* %_M_impl2 to %"struct.std::_Vector_base<dealii::Polynomials::Polynomial<double>, std::allocator<dealii::Polynomials::Polynomial<double> > >::_Vector_impl_data"*, !dbg !9769
  %_M_end_of_storage = getelementptr inbounds %"struct.std::_Vector_base<dealii::Polynomials::Polynomial<double>, std::allocator<dealii::Polynomials::Polynomial<double> > >::_Vector_impl_data", %"struct.std::_Vector_base<dealii::Polynomials::Polynomial<double>, std::allocator<dealii::Polynomials::Polynomial<double> > >::_Vector_impl_data"* %2, i32 0, i32 2, !dbg !9770
  %3 = load %"class.dealii::Polynomials::Polynomial"*, %"class.dealii::Polynomials::Polynomial"** %_M_end_of_storage, align 8, !dbg !9770
  %_M_impl3 = getelementptr inbounds %"struct.std::_Vector_base.69", %"struct.std::_Vector_base.69"* %this1, i32 0, i32 0, !dbg !9771
  %4 = bitcast %"struct.std::_Vector_base<dealii::Polynomials::Polynomial<double>, std::allocator<dealii::Polynomials::Polynomial<double> > >::_Vector_impl"* %_M_impl3 to %"struct.std::_Vector_base<dealii::Polynomials::Polynomial<double>, std::allocator<dealii::Polynomials::Polynomial<double> > >::_Vector_impl_data"*, !dbg !9771
  %_M_start4 = getelementptr inbounds %"struct.std::_Vector_base<dealii::Polynomials::Polynomial<double>, std::allocator<dealii::Polynomials::Polynomial<double> > >::_Vector_impl_data", %"struct.std::_Vector_base<dealii::Polynomials::Polynomial<double>, std::allocator<dealii::Polynomials::Polynomial<double> > >::_Vector_impl_data"* %4, i32 0, i32 0, !dbg !9772
  %5 = load %"class.dealii::Polynomials::Polynomial"*, %"class.dealii::Polynomials::Polynomial"** %_M_start4, align 8, !dbg !9772
  %sub.ptr.lhs.cast = ptrtoint %"class.dealii::Polynomials::Polynomial"* %3 to i64, !dbg !9773
  %sub.ptr.rhs.cast = ptrtoint %"class.dealii::Polynomials::Polynomial"* %5 to i64, !dbg !9773
  %sub.ptr.sub = sub i64 %sub.ptr.lhs.cast, %sub.ptr.rhs.cast, !dbg !9773
  %sub.ptr.div = sdiv exact i64 %sub.ptr.sub, 96, !dbg !9773
  invoke void @_ZNSt12_Vector_baseIN6dealii11Polynomials10PolynomialIdEESaIS3_EE13_M_deallocateEPS3_m(%"struct.std::_Vector_base.69"* %this1, %"class.dealii::Polynomials::Polynomial"* %1, i64 %sub.ptr.div)
          to label %invoke.cont unwind label %lpad, !dbg !9774

invoke.cont:                                      ; preds = %entry
  %_M_impl5 = getelementptr inbounds %"struct.std::_Vector_base.69", %"struct.std::_Vector_base.69"* %this1, i32 0, i32 0, !dbg !9775
  call void @_ZNSt12_Vector_baseIN6dealii11Polynomials10PolynomialIdEESaIS3_EE12_Vector_implD2Ev(%"struct.std::_Vector_base<dealii::Polynomials::Polynomial<double>, std::allocator<dealii::Polynomials::Polynomial<double> > >::_Vector_impl"* %_M_impl5) #4, !dbg !9775
  ret void, !dbg !9776

lpad:                                             ; preds = %entry
  %6 = landingpad { i8*, i32 }
          catch i8* null, !dbg !9775
  %7 = extractvalue { i8*, i32 } %6, 0, !dbg !9775
  store i8* %7, i8** %exn.slot, align 8, !dbg !9775
  %8 = extractvalue { i8*, i32 } %6, 1, !dbg !9775
  store i32 %8, i32* %ehselector.slot, align 4, !dbg !9775
  %_M_impl6 = getelementptr inbounds %"struct.std::_Vector_base.69", %"struct.std::_Vector_base.69"* %this1, i32 0, i32 0, !dbg !9775
  call void @_ZNSt12_Vector_baseIN6dealii11Polynomials10PolynomialIdEESaIS3_EE12_Vector_implD2Ev(%"struct.std::_Vector_base<dealii::Polynomials::Polynomial<double>, std::allocator<dealii::Polynomials::Polynomial<double> > >::_Vector_impl"* %_M_impl6) #4, !dbg !9775
  br label %terminate.handler, !dbg !9775

terminate.handler:                                ; preds = %lpad
  %exn = load i8*, i8** %exn.slot, align 8, !dbg !9775
  call void @__clang_call_terminate(i8* %exn) #13, !dbg !9775
  unreachable, !dbg !9775
}

; Function Attrs: noinline noreturn nounwind
define linkonce_odr hidden void @__clang_call_terminate(i8* %0) #10 comdat {
  %2 = call i8* @__cxa_begin_catch(i8* %0) #4
  call void @_ZSt9terminatev() #13
  unreachable
}

declare dso_local i8* @__cxa_begin_catch(i8*)

declare dso_local void @_ZSt9terminatev()

; Function Attrs: noinline uwtable
define linkonce_odr dso_local void @_ZSt8_DestroyIPN6dealii11Polynomials10PolynomialIdEEEvT_S5_(%"class.dealii::Polynomials::Polynomial"* %__first, %"class.dealii::Polynomials::Polynomial"* %__last) #0 comdat !dbg !9777 {
entry:
  %__first.addr = alloca %"class.dealii::Polynomials::Polynomial"*, align 8
  %__last.addr = alloca %"class.dealii::Polynomials::Polynomial"*, align 8
  store %"class.dealii::Polynomials::Polynomial"* %__first, %"class.dealii::Polynomials::Polynomial"** %__first.addr, align 8
  call void @llvm.dbg.declare(metadata %"class.dealii::Polynomials::Polynomial"** %__first.addr, metadata !9782, metadata !DIExpression()), !dbg !9783
  store %"class.dealii::Polynomials::Polynomial"* %__last, %"class.dealii::Polynomials::Polynomial"** %__last.addr, align 8
  call void @llvm.dbg.declare(metadata %"class.dealii::Polynomials::Polynomial"** %__last.addr, metadata !9784, metadata !DIExpression()), !dbg !9785
  %0 = load %"class.dealii::Polynomials::Polynomial"*, %"class.dealii::Polynomials::Polynomial"** %__first.addr, align 8, !dbg !9786
  %1 = load %"class.dealii::Polynomials::Polynomial"*, %"class.dealii::Polynomials::Polynomial"** %__last.addr, align 8, !dbg !9787
  call void @_ZNSt12_Destroy_auxILb0EE9__destroyIPN6dealii11Polynomials10PolynomialIdEEEEvT_S7_(%"class.dealii::Polynomials::Polynomial"* %0, %"class.dealii::Polynomials::Polynomial"* %1), !dbg !9788
  ret void, !dbg !9789
}

; Function Attrs: noinline uwtable
define linkonce_odr dso_local void @_ZNSt12_Destroy_auxILb0EE9__destroyIPN6dealii11Polynomials10PolynomialIdEEEEvT_S7_(%"class.dealii::Polynomials::Polynomial"* %__first, %"class.dealii::Polynomials::Polynomial"* %__last) #0 comdat align 2 !dbg !9790 {
entry:
  %__first.addr = alloca %"class.dealii::Polynomials::Polynomial"*, align 8
  %__last.addr = alloca %"class.dealii::Polynomials::Polynomial"*, align 8
  store %"class.dealii::Polynomials::Polynomial"* %__first, %"class.dealii::Polynomials::Polynomial"** %__first.addr, align 8
  call void @llvm.dbg.declare(metadata %"class.dealii::Polynomials::Polynomial"** %__first.addr, metadata !9795, metadata !DIExpression()), !dbg !9796
  store %"class.dealii::Polynomials::Polynomial"* %__last, %"class.dealii::Polynomials::Polynomial"** %__last.addr, align 8
  call void @llvm.dbg.declare(metadata %"class.dealii::Polynomials::Polynomial"** %__last.addr, metadata !9797, metadata !DIExpression()), !dbg !9798
  br label %for.cond, !dbg !9799

for.cond:                                         ; preds = %for.inc, %entry
  %0 = load %"class.dealii::Polynomials::Polynomial"*, %"class.dealii::Polynomials::Polynomial"** %__first.addr, align 8, !dbg !9800
  %1 = load %"class.dealii::Polynomials::Polynomial"*, %"class.dealii::Polynomials::Polynomial"** %__last.addr, align 8, !dbg !9803
  %cmp = icmp ne %"class.dealii::Polynomials::Polynomial"* %0, %1, !dbg !9804
  br i1 %cmp, label %for.body, label %for.end, !dbg !9805

for.body:                                         ; preds = %for.cond
  %2 = load %"class.dealii::Polynomials::Polynomial"*, %"class.dealii::Polynomials::Polynomial"** %__first.addr, align 8, !dbg !9806
  %call = call %"class.dealii::Polynomials::Polynomial"* @_ZSt11__addressofIN6dealii11Polynomials10PolynomialIdEEEPT_RS4_(%"class.dealii::Polynomials::Polynomial"* dereferenceable(96) %2) #4, !dbg !9807
  call void @_ZSt8_DestroyIN6dealii11Polynomials10PolynomialIdEEEvPT_(%"class.dealii::Polynomials::Polynomial"* %call), !dbg !9808
  br label %for.inc, !dbg !9808

for.inc:                                          ; preds = %for.body
  %3 = load %"class.dealii::Polynomials::Polynomial"*, %"class.dealii::Polynomials::Polynomial"** %__first.addr, align 8, !dbg !9809
  %incdec.ptr = getelementptr inbounds %"class.dealii::Polynomials::Polynomial", %"class.dealii::Polynomials::Polynomial"* %3, i32 1, !dbg !9809
  store %"class.dealii::Polynomials::Polynomial"* %incdec.ptr, %"class.dealii::Polynomials::Polynomial"** %__first.addr, align 8, !dbg !9809
  br label %for.cond, !dbg !9810, !llvm.loop !9811

for.end:                                          ; preds = %for.cond
  ret void, !dbg !9813
}

; Function Attrs: noinline nounwind uwtable
define linkonce_odr dso_local void @_ZSt8_DestroyIN6dealii11Polynomials10PolynomialIdEEEvPT_(%"class.dealii::Polynomials::Polynomial"* %__pointer) #1 comdat !dbg !9814 {
entry:
  %__pointer.addr = alloca %"class.dealii::Polynomials::Polynomial"*, align 8
  store %"class.dealii::Polynomials::Polynomial"* %__pointer, %"class.dealii::Polynomials::Polynomial"** %__pointer.addr, align 8
  call void @llvm.dbg.declare(metadata %"class.dealii::Polynomials::Polynomial"** %__pointer.addr, metadata !9817, metadata !DIExpression()), !dbg !9818
  %0 = load %"class.dealii::Polynomials::Polynomial"*, %"class.dealii::Polynomials::Polynomial"** %__pointer.addr, align 8, !dbg !9819
  %1 = bitcast %"class.dealii::Polynomials::Polynomial"* %0 to void (%"class.dealii::Polynomials::Polynomial"*)***, !dbg !9820
  %vtable = load void (%"class.dealii::Polynomials::Polynomial"*)**, void (%"class.dealii::Polynomials::Polynomial"*)*** %1, align 8, !dbg !9820
  %vfn = getelementptr inbounds void (%"class.dealii::Polynomials::Polynomial"*)*, void (%"class.dealii::Polynomials::Polynomial"*)** %vtable, i64 0, !dbg !9820
  %2 = load void (%"class.dealii::Polynomials::Polynomial"*)*, void (%"class.dealii::Polynomials::Polynomial"*)** %vfn, align 8, !dbg !9820
  call void %2(%"class.dealii::Polynomials::Polynomial"* %0) #4, !dbg !9820
  ret void, !dbg !9821
}

; Function Attrs: noinline nounwind uwtable
define linkonce_odr dso_local %"class.dealii::Polynomials::Polynomial"* @_ZSt11__addressofIN6dealii11Polynomials10PolynomialIdEEEPT_RS4_(%"class.dealii::Polynomials::Polynomial"* dereferenceable(96) %__r) #1 comdat !dbg !9822 {
entry:
  %__r.addr = alloca %"class.dealii::Polynomials::Polynomial"*, align 8
  store %"class.dealii::Polynomials::Polynomial"* %__r, %"class.dealii::Polynomials::Polynomial"** %__r.addr, align 8
  call void @llvm.dbg.declare(metadata %"class.dealii::Polynomials::Polynomial"** %__r.addr, metadata !9826, metadata !DIExpression()), !dbg !9827
  %0 = load %"class.dealii::Polynomials::Polynomial"*, %"class.dealii::Polynomials::Polynomial"** %__r.addr, align 8, !dbg !9828
  ret %"class.dealii::Polynomials::Polynomial"* %0, !dbg !9829
}

; Function Attrs: noinline uwtable
define linkonce_odr dso_local void @_ZNSt12_Vector_baseIN6dealii11Polynomials10PolynomialIdEESaIS3_EE13_M_deallocateEPS3_m(%"struct.std::_Vector_base.69"* %this, %"class.dealii::Polynomials::Polynomial"* %__p, i64 %__n) #0 comdat align 2 !dbg !9830 {
entry:
  %this.addr = alloca %"struct.std::_Vector_base.69"*, align 8
  %__p.addr = alloca %"class.dealii::Polynomials::Polynomial"*, align 8
  %__n.addr = alloca i64, align 8
  store %"struct.std::_Vector_base.69"* %this, %"struct.std::_Vector_base.69"** %this.addr, align 8
  call void @llvm.dbg.declare(metadata %"struct.std::_Vector_base.69"** %this.addr, metadata !9831, metadata !DIExpression()), !dbg !9832
  store %"class.dealii::Polynomials::Polynomial"* %__p, %"class.dealii::Polynomials::Polynomial"** %__p.addr, align 8
  call void @llvm.dbg.declare(metadata %"class.dealii::Polynomials::Polynomial"** %__p.addr, metadata !9833, metadata !DIExpression()), !dbg !9834
  store i64 %__n, i64* %__n.addr, align 8
  call void @llvm.dbg.declare(metadata i64* %__n.addr, metadata !9835, metadata !DIExpression()), !dbg !9836
  %this1 = load %"struct.std::_Vector_base.69"*, %"struct.std::_Vector_base.69"** %this.addr, align 8
  %0 = load %"class.dealii::Polynomials::Polynomial"*, %"class.dealii::Polynomials::Polynomial"** %__p.addr, align 8, !dbg !9837
  %tobool = icmp ne %"class.dealii::Polynomials::Polynomial"* %0, null, !dbg !9837
  br i1 %tobool, label %if.then, label %if.end, !dbg !9839

if.then:                                          ; preds = %entry
  %_M_impl = getelementptr inbounds %"struct.std::_Vector_base.69", %"struct.std::_Vector_base.69"* %this1, i32 0, i32 0, !dbg !9840
  %1 = bitcast %"struct.std::_Vector_base<dealii::Polynomials::Polynomial<double>, std::allocator<dealii::Polynomials::Polynomial<double> > >::_Vector_impl"* %_M_impl to %"class.std::allocator.70"*, !dbg !9840
  %2 = load %"class.dealii::Polynomials::Polynomial"*, %"class.dealii::Polynomials::Polynomial"** %__p.addr, align 8, !dbg !9841
  %3 = load i64, i64* %__n.addr, align 8, !dbg !9842
  call void @_ZNSt16allocator_traitsISaIN6dealii11Polynomials10PolynomialIdEEEE10deallocateERS4_PS3_m(%"class.std::allocator.70"* dereferenceable(1) %1, %"class.dealii::Polynomials::Polynomial"* %2, i64 %3), !dbg !9843
  br label %if.end, !dbg !9843

if.end:                                           ; preds = %if.then, %entry
  ret void, !dbg !9844
}

; Function Attrs: noinline nounwind uwtable
define linkonce_odr dso_local void @_ZNSt12_Vector_baseIN6dealii11Polynomials10PolynomialIdEESaIS3_EE12_Vector_implD2Ev(%"struct.std::_Vector_base<dealii::Polynomials::Polynomial<double>, std::allocator<dealii::Polynomials::Polynomial<double> > >::_Vector_impl"* %this) unnamed_addr #1 comdat align 2 !dbg !9845 {
entry:
  %this.addr = alloca %"struct.std::_Vector_base<dealii::Polynomials::Polynomial<double>, std::allocator<dealii::Polynomials::Polynomial<double> > >::_Vector_impl"*, align 8
  store %"struct.std::_Vector_base<dealii::Polynomials::Polynomial<double>, std::allocator<dealii::Polynomials::Polynomial<double> > >::_Vector_impl"* %this, %"struct.std::_Vector_base<dealii::Polynomials::Polynomial<double>, std::allocator<dealii::Polynomials::Polynomial<double> > >::_Vector_impl"** %this.addr, align 8
  call void @llvm.dbg.declare(metadata %"struct.std::_Vector_base<dealii::Polynomials::Polynomial<double>, std::allocator<dealii::Polynomials::Polynomial<double> > >::_Vector_impl"** %this.addr, metadata !9847, metadata !DIExpression()), !dbg !9849
  %this1 = load %"struct.std::_Vector_base<dealii::Polynomials::Polynomial<double>, std::allocator<dealii::Polynomials::Polynomial<double> > >::_Vector_impl"*, %"struct.std::_Vector_base<dealii::Polynomials::Polynomial<double>, std::allocator<dealii::Polynomials::Polynomial<double> > >::_Vector_impl"** %this.addr, align 8
  %0 = bitcast %"struct.std::_Vector_base<dealii::Polynomials::Polynomial<double>, std::allocator<dealii::Polynomials::Polynomial<double> > >::_Vector_impl"* %this1 to %"class.std::allocator.70"*, !dbg !9850
  call void @_ZNSaIN6dealii11Polynomials10PolynomialIdEEED2Ev(%"class.std::allocator.70"* %0) #4, !dbg !9850
  ret void, !dbg !9852
}

; Function Attrs: noinline uwtable
define linkonce_odr dso_local void @_ZNSt16allocator_traitsISaIN6dealii11Polynomials10PolynomialIdEEEE10deallocateERS4_PS3_m(%"class.std::allocator.70"* dereferenceable(1) %__a, %"class.dealii::Polynomials::Polynomial"* %__p, i64 %__n) #0 comdat align 2 !dbg !9853 {
entry:
  %__a.addr = alloca %"class.std::allocator.70"*, align 8
  %__p.addr = alloca %"class.dealii::Polynomials::Polynomial"*, align 8
  %__n.addr = alloca i64, align 8
  store %"class.std::allocator.70"* %__a, %"class.std::allocator.70"** %__a.addr, align 8
  call void @llvm.dbg.declare(metadata %"class.std::allocator.70"** %__a.addr, metadata !9854, metadata !DIExpression()), !dbg !9855
  store %"class.dealii::Polynomials::Polynomial"* %__p, %"class.dealii::Polynomials::Polynomial"** %__p.addr, align 8
  call void @llvm.dbg.declare(metadata %"class.dealii::Polynomials::Polynomial"** %__p.addr, metadata !9856, metadata !DIExpression()), !dbg !9857
  store i64 %__n, i64* %__n.addr, align 8
  call void @llvm.dbg.declare(metadata i64* %__n.addr, metadata !9858, metadata !DIExpression()), !dbg !9859
  %0 = load %"class.std::allocator.70"*, %"class.std::allocator.70"** %__a.addr, align 8, !dbg !9860
  %1 = bitcast %"class.std::allocator.70"* %0 to %"class.__gnu_cxx::new_allocator.71"*, !dbg !9860
  %2 = load %"class.dealii::Polynomials::Polynomial"*, %"class.dealii::Polynomials::Polynomial"** %__p.addr, align 8, !dbg !9861
  %3 = load i64, i64* %__n.addr, align 8, !dbg !9862
  call void @_ZN9__gnu_cxx13new_allocatorIN6dealii11Polynomials10PolynomialIdEEE10deallocateEPS4_m(%"class.__gnu_cxx::new_allocator.71"* %1, %"class.dealii::Polynomials::Polynomial"* %2, i64 %3), !dbg !9863
  ret void, !dbg !9864
}

; Function Attrs: noinline nounwind uwtable
define linkonce_odr dso_local void @_ZN9__gnu_cxx13new_allocatorIN6dealii11Polynomials10PolynomialIdEEE10deallocateEPS4_m(%"class.__gnu_cxx::new_allocator.71"* %this, %"class.dealii::Polynomials::Polynomial"* %__p, i64 %__t) #1 comdat align 2 !dbg !9865 {
entry:
  %this.addr = alloca %"class.__gnu_cxx::new_allocator.71"*, align 8
  %__p.addr = alloca %"class.dealii::Polynomials::Polynomial"*, align 8
  %__t.addr = alloca i64, align 8
  store %"class.__gnu_cxx::new_allocator.71"* %this, %"class.__gnu_cxx::new_allocator.71"** %this.addr, align 8
  call void @llvm.dbg.declare(metadata %"class.__gnu_cxx::new_allocator.71"** %this.addr, metadata !9866, metadata !DIExpression()), !dbg !9868
  store %"class.dealii::Polynomials::Polynomial"* %__p, %"class.dealii::Polynomials::Polynomial"** %__p.addr, align 8
  call void @llvm.dbg.declare(metadata %"class.dealii::Polynomials::Polynomial"** %__p.addr, metadata !9869, metadata !DIExpression()), !dbg !9870
  store i64 %__t, i64* %__t.addr, align 8
  call void @llvm.dbg.declare(metadata i64* %__t.addr, metadata !9871, metadata !DIExpression()), !dbg !9872
  %this1 = load %"class.__gnu_cxx::new_allocator.71"*, %"class.__gnu_cxx::new_allocator.71"** %this.addr, align 8
  %0 = load %"class.dealii::Polynomials::Polynomial"*, %"class.dealii::Polynomials::Polynomial"** %__p.addr, align 8, !dbg !9873
  %1 = bitcast %"class.dealii::Polynomials::Polynomial"* %0 to i8*, !dbg !9873
  call void @_ZdlPv(i8* %1) #4, !dbg !9874
  ret void, !dbg !9875
}

; Function Attrs: noinline nounwind uwtable
define linkonce_odr dso_local void @_ZN9__gnu_cxx13new_allocatorIN6dealii11Polynomials10PolynomialIdEEED2Ev(%"class.__gnu_cxx::new_allocator.71"* %this) unnamed_addr #1 comdat align 2 !dbg !9876 {
entry:
  %this.addr = alloca %"class.__gnu_cxx::new_allocator.71"*, align 8
  store %"class.__gnu_cxx::new_allocator.71"* %this, %"class.__gnu_cxx::new_allocator.71"** %this.addr, align 8
  call void @llvm.dbg.declare(metadata %"class.__gnu_cxx::new_allocator.71"** %this.addr, metadata !9877, metadata !DIExpression()), !dbg !9878
  %this1 = load %"class.__gnu_cxx::new_allocator.71"*, %"class.__gnu_cxx::new_allocator.71"** %this.addr, align 8
  ret void, !dbg !9879
}

; Function Attrs: nounwind
declare dso_local void @_ZN6dealii13FiniteElementILi3ELi3EED2Ev(%"class.dealii::FiniteElement"*) unnamed_addr #3

; Function Attrs: noinline nounwind uwtable
define linkonce_odr dso_local void @_ZN6dealii7FE_PolyINS_12PolynomialsPILi3EEELi3ELi3EED2Ev(%"class.dealii::FE_Poly"* %this) unnamed_addr #1 comdat align 2 !dbg !9880 {
entry:
  %this.addr = alloca %"class.dealii::FE_Poly"*, align 8
  store %"class.dealii::FE_Poly"* %this, %"class.dealii::FE_Poly"** %this.addr, align 8
  call void @llvm.dbg.declare(metadata %"class.dealii::FE_Poly"** %this.addr, metadata !9884, metadata !DIExpression()), !dbg !9886
  %this1 = load %"class.dealii::FE_Poly"*, %"class.dealii::FE_Poly"** %this.addr, align 8
  %0 = bitcast %"class.dealii::FE_Poly"* %this1 to i32 (...)***, !dbg !9887
  store i32 (...)** bitcast (i8** getelementptr inbounds ({ [38 x i8*] }, { [38 x i8*] }* @_ZTVN6dealii7FE_PolyINS_12PolynomialsPILi3EEELi3ELi3EEE, i32 0, inrange i32 0, i32 2) to i32 (...)**), i32 (...)*** %0, align 8, !dbg !9887
  %poly_space = getelementptr inbounds %"class.dealii::FE_Poly", %"class.dealii::FE_Poly"* %this1, i32 0, i32 1, !dbg !9888
  call void @_ZN6dealii12PolynomialsPILi3EED2Ev(%"class.dealii::PolynomialsP"* %poly_space) #4, !dbg !9888
  %1 = bitcast %"class.dealii::FE_Poly"* %this1 to %"class.dealii::FiniteElement"*, !dbg !9888
  call void @_ZN6dealii13FiniteElementILi3ELi3EED2Ev(%"class.dealii::FiniteElement"* %1) #4, !dbg !9888
  ret void, !dbg !9887
}

; Function Attrs: noinline nounwind uwtable
define linkonce_odr dso_local void @_ZN6dealii7FE_PolyINS_12PolynomialsPILi3EEELi3ELi3EED0Ev(%"class.dealii::FE_Poly"* %this) unnamed_addr #1 comdat align 2 !dbg !9890 {
entry:
  %this.addr = alloca %"class.dealii::FE_Poly"*, align 8
  store %"class.dealii::FE_Poly"* %this, %"class.dealii::FE_Poly"** %this.addr, align 8
  call void @llvm.dbg.declare(metadata %"class.dealii::FE_Poly"** %this.addr, metadata !9891, metadata !DIExpression()), !dbg !9892
  %this1 = load %"class.dealii::FE_Poly"*, %"class.dealii::FE_Poly"** %this.addr, align 8
  call void @llvm.trap() #13, !dbg !9893
  unreachable, !dbg !9893
}

declare dso_local void @__cxa_pure_virtual() unnamed_addr

declare dso_local zeroext i1 @_ZNK6dealii13FiniteElementILi3ELi3EE19has_support_on_faceEjj(%"class.dealii::FiniteElement"*, i32, i32) unnamed_addr #2

declare dso_local zeroext i1 @_ZNK6dealii13FiniteElementILi3ELi3EE30hp_constraints_are_implementedEv(%"class.dealii::FiniteElement"*) unnamed_addr #2

declare dso_local void @_ZNK6dealii13FiniteElementILi3ELi3EE24get_interpolation_matrixERKS1_RNS_10FullMatrixIdEE(%"class.dealii::FiniteElement"*, %"class.dealii::FiniteElement"* dereferenceable(728), %"class.dealii::FullMatrix"* dereferenceable(96)) unnamed_addr #2

declare dso_local void @_ZNK6dealii13FiniteElementILi3ELi3EE29get_face_interpolation_matrixERKS1_RNS_10FullMatrixIdEE(%"class.dealii::FiniteElement"*, %"class.dealii::FiniteElement"* dereferenceable(728), %"class.dealii::FullMatrix"* dereferenceable(96)) unnamed_addr #2

declare dso_local void @_ZNK6dealii13FiniteElementILi3ELi3EE32get_subface_interpolation_matrixERKS1_jRNS_10FullMatrixIdEE(%"class.dealii::FiniteElement"*, %"class.dealii::FiniteElement"* dereferenceable(728), i32, %"class.dealii::FullMatrix"* dereferenceable(96)) unnamed_addr #2

declare dso_local void @_ZNK6dealii13FiniteElementILi3ELi3EE24hp_vertex_dof_identitiesERKS1_(%"class.std::vector.41"* sret, %"class.dealii::FiniteElement"*, %"class.dealii::FiniteElement"* dereferenceable(728)) unnamed_addr #2

declare dso_local void @_ZNK6dealii13FiniteElementILi3ELi3EE22hp_line_dof_identitiesERKS1_(%"class.std::vector.41"* sret, %"class.dealii::FiniteElement"*, %"class.dealii::FiniteElement"* dereferenceable(728)) unnamed_addr #2

declare dso_local void @_ZNK6dealii13FiniteElementILi3ELi3EE22hp_quad_dof_identitiesERKS1_(%"class.std::vector.41"* sret, %"class.dealii::FiniteElement"*, %"class.dealii::FiniteElement"* dereferenceable(728)) unnamed_addr #2

declare dso_local i32 @_ZNK6dealii13FiniteElementILi3ELi3EE27compare_for_face_dominationERKS1_(%"class.dealii::FiniteElement"*, %"class.dealii::FiniteElement"* dereferenceable(728)) unnamed_addr #2

declare dso_local i32 @_ZNK6dealii13FiniteElementILi3ELi3EE18memory_consumptionEv(%"class.dealii::FiniteElement"*) unnamed_addr #2

; Function Attrs: cold noreturn nounwind
declare void @llvm.trap() #11

; Function Attrs: noinline nounwind uwtable
define linkonce_odr dso_local void @_ZNSt12_Vector_baseISt4pairIjjESaIS1_EEC2Ev(%"struct.std::_Vector_base.42"* %this) unnamed_addr #1 comdat align 2 !dbg !9894 {
entry:
  %this.addr = alloca %"struct.std::_Vector_base.42"*, align 8
  store %"struct.std::_Vector_base.42"* %this, %"struct.std::_Vector_base.42"** %this.addr, align 8
  call void @llvm.dbg.declare(metadata %"struct.std::_Vector_base.42"** %this.addr, metadata !9895, metadata !DIExpression()), !dbg !9897
  %this1 = load %"struct.std::_Vector_base.42"*, %"struct.std::_Vector_base.42"** %this.addr, align 8
  %_M_impl = getelementptr inbounds %"struct.std::_Vector_base.42", %"struct.std::_Vector_base.42"* %this1, i32 0, i32 0, !dbg !9898
  call void @_ZNSt12_Vector_baseISt4pairIjjESaIS1_EE12_Vector_implC2Ev(%"struct.std::_Vector_base<std::pair<unsigned int, unsigned int>, std::allocator<std::pair<unsigned int, unsigned int> > >::_Vector_impl"* %_M_impl) #4, !dbg !9898
  ret void, !dbg !9899
}

; Function Attrs: noinline nounwind uwtable
define linkonce_odr dso_local void @_ZNSt12_Vector_baseISt4pairIjjESaIS1_EE12_Vector_implC2Ev(%"struct.std::_Vector_base<std::pair<unsigned int, unsigned int>, std::allocator<std::pair<unsigned int, unsigned int> > >::_Vector_impl"* %this) unnamed_addr #1 comdat align 2 !dbg !9900 {
entry:
  %this.addr = alloca %"struct.std::_Vector_base<std::pair<unsigned int, unsigned int>, std::allocator<std::pair<unsigned int, unsigned int> > >::_Vector_impl"*, align 8
  store %"struct.std::_Vector_base<std::pair<unsigned int, unsigned int>, std::allocator<std::pair<unsigned int, unsigned int> > >::_Vector_impl"* %this, %"struct.std::_Vector_base<std::pair<unsigned int, unsigned int>, std::allocator<std::pair<unsigned int, unsigned int> > >::_Vector_impl"** %this.addr, align 8
  call void @llvm.dbg.declare(metadata %"struct.std::_Vector_base<std::pair<unsigned int, unsigned int>, std::allocator<std::pair<unsigned int, unsigned int> > >::_Vector_impl"** %this.addr, metadata !9901, metadata !DIExpression()), !dbg !9903
  %this1 = load %"struct.std::_Vector_base<std::pair<unsigned int, unsigned int>, std::allocator<std::pair<unsigned int, unsigned int> > >::_Vector_impl"*, %"struct.std::_Vector_base<std::pair<unsigned int, unsigned int>, std::allocator<std::pair<unsigned int, unsigned int> > >::_Vector_impl"** %this.addr, align 8
  %0 = bitcast %"struct.std::_Vector_base<std::pair<unsigned int, unsigned int>, std::allocator<std::pair<unsigned int, unsigned int> > >::_Vector_impl"* %this1 to %"class.std::allocator.43"*, !dbg !9904
  call void @_ZNSaISt4pairIjjEEC2Ev(%"class.std::allocator.43"* %0) #4, !dbg !9905
  %1 = bitcast %"struct.std::_Vector_base<std::pair<unsigned int, unsigned int>, std::allocator<std::pair<unsigned int, unsigned int> > >::_Vector_impl"* %this1 to %"struct.std::_Vector_base<std::pair<unsigned int, unsigned int>, std::allocator<std::pair<unsigned int, unsigned int> > >::_Vector_impl_data"*, !dbg !9904
  call void @_ZNSt12_Vector_baseISt4pairIjjESaIS1_EE17_Vector_impl_dataC2Ev(%"struct.std::_Vector_base<std::pair<unsigned int, unsigned int>, std::allocator<std::pair<unsigned int, unsigned int> > >::_Vector_impl_data"* %1) #4, !dbg !9906
  ret void, !dbg !9907
}

; Function Attrs: noinline nounwind uwtable
define linkonce_odr dso_local void @_ZNSaISt4pairIjjEEC2Ev(%"class.std::allocator.43"* %this) unnamed_addr #1 comdat align 2 !dbg !9908 {
entry:
  %this.addr = alloca %"class.std::allocator.43"*, align 8
  store %"class.std::allocator.43"* %this, %"class.std::allocator.43"** %this.addr, align 8
  call void @llvm.dbg.declare(metadata %"class.std::allocator.43"** %this.addr, metadata !9909, metadata !DIExpression()), !dbg !9911
  %this1 = load %"class.std::allocator.43"*, %"class.std::allocator.43"** %this.addr, align 8
  %0 = bitcast %"class.std::allocator.43"* %this1 to %"class.__gnu_cxx::new_allocator.44"*, !dbg !9912
  call void @_ZN9__gnu_cxx13new_allocatorISt4pairIjjEEC2Ev(%"class.__gnu_cxx::new_allocator.44"* %0) #4, !dbg !9913
  ret void, !dbg !9914
}

; Function Attrs: noinline nounwind uwtable
define linkonce_odr dso_local void @_ZNSt12_Vector_baseISt4pairIjjESaIS1_EE17_Vector_impl_dataC2Ev(%"struct.std::_Vector_base<std::pair<unsigned int, unsigned int>, std::allocator<std::pair<unsigned int, unsigned int> > >::_Vector_impl_data"* %this) unnamed_addr #1 comdat align 2 !dbg !9915 {
entry:
  %this.addr = alloca %"struct.std::_Vector_base<std::pair<unsigned int, unsigned int>, std::allocator<std::pair<unsigned int, unsigned int> > >::_Vector_impl_data"*, align 8
  store %"struct.std::_Vector_base<std::pair<unsigned int, unsigned int>, std::allocator<std::pair<unsigned int, unsigned int> > >::_Vector_impl_data"* %this, %"struct.std::_Vector_base<std::pair<unsigned int, unsigned int>, std::allocator<std::pair<unsigned int, unsigned int> > >::_Vector_impl_data"** %this.addr, align 8
  call void @llvm.dbg.declare(metadata %"struct.std::_Vector_base<std::pair<unsigned int, unsigned int>, std::allocator<std::pair<unsigned int, unsigned int> > >::_Vector_impl_data"** %this.addr, metadata !9916, metadata !DIExpression()), !dbg !9918
  %this1 = load %"struct.std::_Vector_base<std::pair<unsigned int, unsigned int>, std::allocator<std::pair<unsigned int, unsigned int> > >::_Vector_impl_data"*, %"struct.std::_Vector_base<std::pair<unsigned int, unsigned int>, std::allocator<std::pair<unsigned int, unsigned int> > >::_Vector_impl_data"** %this.addr, align 8
  %_M_start = getelementptr inbounds %"struct.std::_Vector_base<std::pair<unsigned int, unsigned int>, std::allocator<std::pair<unsigned int, unsigned int> > >::_Vector_impl_data", %"struct.std::_Vector_base<std::pair<unsigned int, unsigned int>, std::allocator<std::pair<unsigned int, unsigned int> > >::_Vector_impl_data"* %this1, i32 0, i32 0, !dbg !9919
  store %"struct.std::pair"* null, %"struct.std::pair"** %_M_start, align 8, !dbg !9919
  %_M_finish = getelementptr inbounds %"struct.std::_Vector_base<std::pair<unsigned int, unsigned int>, std::allocator<std::pair<unsigned int, unsigned int> > >::_Vector_impl_data", %"struct.std::_Vector_base<std::pair<unsigned int, unsigned int>, std::allocator<std::pair<unsigned int, unsigned int> > >::_Vector_impl_data"* %this1, i32 0, i32 1, !dbg !9920
  store %"struct.std::pair"* null, %"struct.std::pair"** %_M_finish, align 8, !dbg !9920
  %_M_end_of_storage = getelementptr inbounds %"struct.std::_Vector_base<std::pair<unsigned int, unsigned int>, std::allocator<std::pair<unsigned int, unsigned int> > >::_Vector_impl_data", %"struct.std::_Vector_base<std::pair<unsigned int, unsigned int>, std::allocator<std::pair<unsigned int, unsigned int> > >::_Vector_impl_data"* %this1, i32 0, i32 2, !dbg !9921
  store %"struct.std::pair"* null, %"struct.std::pair"** %_M_end_of_storage, align 8, !dbg !9921
  ret void, !dbg !9922
}

; Function Attrs: noinline nounwind uwtable
define linkonce_odr dso_local void @_ZN9__gnu_cxx13new_allocatorISt4pairIjjEEC2Ev(%"class.__gnu_cxx::new_allocator.44"* %this) unnamed_addr #1 comdat align 2 !dbg !9923 {
entry:
  %this.addr = alloca %"class.__gnu_cxx::new_allocator.44"*, align 8
  store %"class.__gnu_cxx::new_allocator.44"* %this, %"class.__gnu_cxx::new_allocator.44"** %this.addr, align 8
  call void @llvm.dbg.declare(metadata %"class.__gnu_cxx::new_allocator.44"** %this.addr, metadata !9924, metadata !DIExpression()), !dbg !9926
  %this1 = load %"class.__gnu_cxx::new_allocator.44"*, %"class.__gnu_cxx::new_allocator.44"** %this.addr, align 8
  ret void, !dbg !9927
}

; Function Attrs: noinline nounwind uwtable
define linkonce_odr dso_local void @_ZN6dealii5TableILi2EdED2Ev(%"class.dealii::Table"* %this) unnamed_addr #1 comdat align 2 !dbg !9928 {
entry:
  %this.addr = alloca %"class.dealii::Table"*, align 8
  store %"class.dealii::Table"* %this, %"class.dealii::Table"** %this.addr, align 8
  call void @llvm.dbg.declare(metadata %"class.dealii::Table"** %this.addr, metadata !9932, metadata !DIExpression()), !dbg !9933
  %this1 = load %"class.dealii::Table"*, %"class.dealii::Table"** %this.addr, align 8
  %0 = bitcast %"class.dealii::Table"* %this1 to %"class.dealii::TableBase"*, !dbg !9934
  call void @_ZN6dealii9TableBaseILi2EdED2Ev(%"class.dealii::TableBase"* %0) #4, !dbg !9934
  ret void, !dbg !9936
}

; Function Attrs: nobuiltin nounwind
declare dso_local void @_ZdaPv(i8*) #9

; Function Attrs: nounwind
declare dso_local void @_ZN6dealii11SubscriptorD2Ev(%"class.dealii::Subscriptor"*) unnamed_addr #3

; Function Attrs: noinline nounwind uwtable
define linkonce_odr dso_local void @_ZN6dealii9TableBaseILi2EdED2Ev(%"class.dealii::TableBase"* %this) unnamed_addr #1 comdat align 2 !dbg !9937 {
entry:
  %this.addr = alloca %"class.dealii::TableBase"*, align 8
  store %"class.dealii::TableBase"* %this, %"class.dealii::TableBase"** %this.addr, align 8
  call void @llvm.dbg.declare(metadata %"class.dealii::TableBase"** %this.addr, metadata !9996, metadata !DIExpression()), !dbg !9998
  %this1 = load %"class.dealii::TableBase"*, %"class.dealii::TableBase"** %this.addr, align 8
  %0 = bitcast %"class.dealii::TableBase"* %this1 to i32 (...)***, !dbg !9999
  store i32 (...)** bitcast (i8** getelementptr inbounds ({ [4 x i8*] }, { [4 x i8*] }* @_ZTVN6dealii9TableBaseILi2EdEE, i32 0, inrange i32 0, i32 2) to i32 (...)**), i32 (...)*** %0, align 8, !dbg !9999
  %val = getelementptr inbounds %"class.dealii::TableBase", %"class.dealii::TableBase"* %this1, i32 0, i32 1, !dbg !10000
  %1 = load double*, double** %val, align 8, !dbg !10000
  %cmp = icmp ne double* %1, null, !dbg !10003
  br i1 %cmp, label %if.then, label %if.end, !dbg !10004

if.then:                                          ; preds = %entry
  %val2 = getelementptr inbounds %"class.dealii::TableBase", %"class.dealii::TableBase"* %this1, i32 0, i32 1, !dbg !10005
  %2 = load double*, double** %val2, align 8, !dbg !10005
  %isnull = icmp eq double* %2, null, !dbg !10006
  br i1 %isnull, label %delete.end, label %delete.notnull, !dbg !10006

delete.notnull:                                   ; preds = %if.then
  %3 = bitcast double* %2 to i8*, !dbg !10006
  call void @_ZdaPv(i8* %3) #16, !dbg !10006
  br label %delete.end, !dbg !10006

delete.end:                                       ; preds = %delete.notnull, %if.then
  br label %if.end, !dbg !10006

if.end:                                           ; preds = %delete.end, %entry
  %4 = bitcast %"class.dealii::TableBase"* %this1 to %"class.dealii::Subscriptor"*, !dbg !10007
  call void @_ZN6dealii11SubscriptorD2Ev(%"class.dealii::Subscriptor"* %4) #4, !dbg !10007
  ret void, !dbg !10008
}

; Function Attrs: noinline nounwind uwtable
define linkonce_odr dso_local void @_ZN6dealii9TableBaseILi2EdED0Ev(%"class.dealii::TableBase"* %this) unnamed_addr #1 comdat align 2 !dbg !10009 {
entry:
  %this.addr = alloca %"class.dealii::TableBase"*, align 8
  store %"class.dealii::TableBase"* %this, %"class.dealii::TableBase"** %this.addr, align 8
  call void @llvm.dbg.declare(metadata %"class.dealii::TableBase"** %this.addr, metadata !10010, metadata !DIExpression()), !dbg !10011
  %this1 = load %"class.dealii::TableBase"*, %"class.dealii::TableBase"** %this.addr, align 8
  call void @_ZN6dealii9TableBaseILi2EdED2Ev(%"class.dealii::TableBase"* %this1) #4, !dbg !10012
  %0 = bitcast %"class.dealii::TableBase"* %this1 to i8*, !dbg !10012
  call void @_ZdlPv(i8* %0) #16, !dbg !10012
  ret void, !dbg !10013
}

declare dso_local void @_ZN6dealii13ExceptionBaseC2Ev(%"class.dealii::ExceptionBase"*) unnamed_addr #2

; Function Attrs: noinline nounwind uwtable
define linkonce_odr dso_local void @_ZN6dealii13FiniteElementILi3ELi3EE30ExcInterpolationNotImplementedD0Ev(%"class.dealii::FiniteElement<3, 3>::ExcInterpolationNotImplemented"* %this) unnamed_addr #1 comdat align 2 !dbg !10014 {
entry:
  %this.addr = alloca %"class.dealii::FiniteElement<3, 3>::ExcInterpolationNotImplemented"*, align 8
  store %"class.dealii::FiniteElement<3, 3>::ExcInterpolationNotImplemented"* %this, %"class.dealii::FiniteElement<3, 3>::ExcInterpolationNotImplemented"** %this.addr, align 8
  call void @llvm.dbg.declare(metadata %"class.dealii::FiniteElement<3, 3>::ExcInterpolationNotImplemented"** %this.addr, metadata !10015, metadata !DIExpression()), !dbg !10016
  %this1 = load %"class.dealii::FiniteElement<3, 3>::ExcInterpolationNotImplemented"*, %"class.dealii::FiniteElement<3, 3>::ExcInterpolationNotImplemented"** %this.addr, align 8
  call void @_ZN6dealii13FiniteElementILi3ELi3EE30ExcInterpolationNotImplementedD2Ev(%"class.dealii::FiniteElement<3, 3>::ExcInterpolationNotImplemented"* %this1) #4, !dbg !10017
  %0 = bitcast %"class.dealii::FiniteElement<3, 3>::ExcInterpolationNotImplemented"* %this1 to i8*, !dbg !10017
  call void @_ZdlPv(i8* %0) #16, !dbg !10017
  ret void, !dbg !10017
}

; Function Attrs: nounwind
declare dso_local i8* @_ZNK6dealii13ExceptionBase4whatEv(%"class.dealii::ExceptionBase"*) unnamed_addr #3

declare dso_local void @_ZNK6dealii13ExceptionBase10print_infoERSo(%"class.dealii::ExceptionBase"*, %"class.std::basic_ostream"* dereferenceable(272)) unnamed_addr #2

; Function Attrs: nounwind
declare dso_local void @_ZN6dealii13ExceptionBaseD2Ev(%"class.dealii::ExceptionBase"*) unnamed_addr #3

; Function Attrs: noinline uwtable
define linkonce_odr dso_local void @_ZN6dealii7FE_PolyINS_12PolynomialsPILi3EEELi3ELi3EEC2ERKS3_(%"class.dealii::FE_Poly"* %this, %"class.dealii::FE_Poly"* dereferenceable(816) %0) unnamed_addr #0 comdat align 2 personality i8* bitcast (i32 (...)* @__gxx_personality_v0 to i8*) !dbg !10018 {
entry:
  %this.addr = alloca %"class.dealii::FE_Poly"*, align 8
  %.addr = alloca %"class.dealii::FE_Poly"*, align 8
  %exn.slot = alloca i8*
  %ehselector.slot = alloca i32
  store %"class.dealii::FE_Poly"* %this, %"class.dealii::FE_Poly"** %this.addr, align 8
  call void @llvm.dbg.declare(metadata %"class.dealii::FE_Poly"** %this.addr, metadata !10023, metadata !DIExpression()), !dbg !10024
  store %"class.dealii::FE_Poly"* %0, %"class.dealii::FE_Poly"** %.addr, align 8
  call void @llvm.dbg.declare(metadata %"class.dealii::FE_Poly"** %.addr, metadata !10025, metadata !DIExpression()), !dbg !10024
  %this1 = load %"class.dealii::FE_Poly"*, %"class.dealii::FE_Poly"** %this.addr, align 8
  %1 = bitcast %"class.dealii::FE_Poly"* %this1 to %"class.dealii::FiniteElement"*, !dbg !10026
  %2 = load %"class.dealii::FE_Poly"*, %"class.dealii::FE_Poly"** %.addr, align 8, !dbg !10026
  %3 = bitcast %"class.dealii::FE_Poly"* %2 to %"class.dealii::FiniteElement"*, !dbg !10026
  call void @_ZN6dealii13FiniteElementILi3ELi3EEC2ERKS1_(%"class.dealii::FiniteElement"* %1, %"class.dealii::FiniteElement"* dereferenceable(728) %3), !dbg !10026
  %4 = bitcast %"class.dealii::FE_Poly"* %this1 to i32 (...)***, !dbg !10026
  store i32 (...)** bitcast (i8** getelementptr inbounds ({ [38 x i8*] }, { [38 x i8*] }* @_ZTVN6dealii7FE_PolyINS_12PolynomialsPILi3EEELi3ELi3EEE, i32 0, inrange i32 0, i32 2) to i32 (...)**), i32 (...)*** %4, align 8, !dbg !10026
  %poly_space = getelementptr inbounds %"class.dealii::FE_Poly", %"class.dealii::FE_Poly"* %this1, i32 0, i32 1, !dbg !10026
  %5 = load %"class.dealii::FE_Poly"*, %"class.dealii::FE_Poly"** %.addr, align 8, !dbg !10026
  %poly_space2 = getelementptr inbounds %"class.dealii::FE_Poly", %"class.dealii::FE_Poly"* %5, i32 0, i32 1, !dbg !10026
  invoke void @_ZN6dealii12PolynomialsPILi3EEC2ERKS1_(%"class.dealii::PolynomialsP"* %poly_space, %"class.dealii::PolynomialsP"* dereferenceable(88) %poly_space2)
          to label %invoke.cont unwind label %lpad, !dbg !10026

invoke.cont:                                      ; preds = %entry
  ret void, !dbg !10026

lpad:                                             ; preds = %entry
  %6 = landingpad { i8*, i32 }
          cleanup, !dbg !10026
  %7 = extractvalue { i8*, i32 } %6, 0, !dbg !10026
  store i8* %7, i8** %exn.slot, align 8, !dbg !10026
  %8 = extractvalue { i8*, i32 } %6, 1, !dbg !10026
  store i32 %8, i32* %ehselector.slot, align 4, !dbg !10026
  %9 = bitcast %"class.dealii::FE_Poly"* %this1 to %"class.dealii::FiniteElement"*, !dbg !10027
  call void @_ZN6dealii13FiniteElementILi3ELi3EED2Ev(%"class.dealii::FiniteElement"* %9) #4, !dbg !10027
  br label %eh.resume, !dbg !10027

eh.resume:                                        ; preds = %lpad
  %exn = load i8*, i8** %exn.slot, align 8, !dbg !10027
  %sel = load i32, i32* %ehselector.slot, align 4, !dbg !10027
  %lpad.val = insertvalue { i8*, i32 } undef, i8* %exn, 0, !dbg !10027
  %lpad.val3 = insertvalue { i8*, i32 } %lpad.val, i32 %sel, 1, !dbg !10027
  resume { i8*, i32 } %lpad.val3, !dbg !10027
}

; Function Attrs: noinline uwtable
define linkonce_odr dso_local void @_ZN6dealii13FiniteElementILi3ELi3EEC2ERKS1_(%"class.dealii::FiniteElement"* %this, %"class.dealii::FiniteElement"* dereferenceable(728) %0) unnamed_addr #0 comdat align 2 personality i8* bitcast (i32 (...)* @__gxx_personality_v0 to i8*) !dbg !10029 {
entry:
  %this.addr = alloca %"class.dealii::FiniteElement"*, align 8
  %.addr = alloca %"class.dealii::FiniteElement"*, align 8
  %exn.slot = alloca i8*
  %ehselector.slot = alloca i32
  store %"class.dealii::FiniteElement"* %this, %"class.dealii::FiniteElement"** %this.addr, align 8
  call void @llvm.dbg.declare(metadata %"class.dealii::FiniteElement"** %this.addr, metadata !10033, metadata !DIExpression()), !dbg !10034
  store %"class.dealii::FiniteElement"* %0, %"class.dealii::FiniteElement"** %.addr, align 8
  call void @llvm.dbg.declare(metadata %"class.dealii::FiniteElement"** %.addr, metadata !10035, metadata !DIExpression()), !dbg !10034
  %this1 = load %"class.dealii::FiniteElement"*, %"class.dealii::FiniteElement"** %this.addr, align 8
  %1 = bitcast %"class.dealii::FiniteElement"* %this1 to %"class.dealii::Subscriptor"*, !dbg !10036
  %2 = load %"class.dealii::FiniteElement"*, %"class.dealii::FiniteElement"** %.addr, align 8, !dbg !10036
  %3 = bitcast %"class.dealii::FiniteElement"* %2 to %"class.dealii::Subscriptor"*, !dbg !10036
  call void @_ZN6dealii11SubscriptorC2ERKS0_(%"class.dealii::Subscriptor"* %1, %"class.dealii::Subscriptor"* dereferenceable(72) %3), !dbg !10036
  %4 = bitcast %"class.dealii::FiniteElement"* %this1 to i8*, !dbg !10036
  %5 = getelementptr inbounds i8, i8* %4, i64 72, !dbg !10036
  %6 = bitcast i8* %5 to %"class.dealii::FiniteElementData"*, !dbg !10036
  %7 = load %"class.dealii::FiniteElement"*, %"class.dealii::FiniteElement"** %.addr, align 8, !dbg !10036
  %8 = bitcast %"class.dealii::FiniteElement"* %7 to i8*, !dbg !10036
  %add.ptr = getelementptr inbounds i8, i8* %8, i64 72, !dbg !10036
  %9 = bitcast i8* %add.ptr to %"class.dealii::FiniteElementData"*, !dbg !10036
  %10 = bitcast %"class.dealii::FiniteElementData"* %6 to i8*, !dbg !10036
  %11 = bitcast %"class.dealii::FiniteElementData"* %9 to i8*, !dbg !10036
  call void @llvm.memcpy.p0i8.p0i8.i64(i8* align 8 %10, i8* align 8 %11, i64 60, i1 false), !dbg !10036
  %12 = bitcast %"class.dealii::FiniteElement"* %this1 to i32 (...)***, !dbg !10036
  store i32 (...)** bitcast (i8** getelementptr inbounds ({ [38 x i8*] }, { [38 x i8*] }* @_ZTVN6dealii13FiniteElementILi3ELi3EEE, i32 0, inrange i32 0, i32 2) to i32 (...)**), i32 (...)*** %12, align 8, !dbg !10036
  %cached_primitivity = getelementptr inbounds %"class.dealii::FiniteElement", %"class.dealii::FiniteElement"* %this1, i32 0, i32 2, !dbg !10036
  %13 = load %"class.dealii::FiniteElement"*, %"class.dealii::FiniteElement"** %.addr, align 8, !dbg !10036
  %cached_primitivity2 = getelementptr inbounds %"class.dealii::FiniteElement", %"class.dealii::FiniteElement"* %13, i32 0, i32 2, !dbg !10036
  %14 = load i8, i8* %cached_primitivity2, align 4, !dbg !10036
  %tobool = trunc i8 %14 to i1, !dbg !10036
  %frombool = zext i1 %tobool to i8, !dbg !10036
  store i8 %frombool, i8* %cached_primitivity, align 4, !dbg !10036
  %restriction = getelementptr inbounds %"class.dealii::FiniteElement", %"class.dealii::FiniteElement"* %this1, i32 0, i32 3, !dbg !10036
  %15 = load %"class.dealii::FiniteElement"*, %"class.dealii::FiniteElement"** %.addr, align 8, !dbg !10036
  %restriction3 = getelementptr inbounds %"class.dealii::FiniteElement", %"class.dealii::FiniteElement"* %15, i32 0, i32 3, !dbg !10036
  invoke void @_ZNSt6vectorIS_IN6dealii10FullMatrixIdEESaIS2_EESaIS4_EEC2ERKS6_(%"class.std::vector"* %restriction, %"class.std::vector"* dereferenceable(24) %restriction3)
          to label %invoke.cont unwind label %lpad, !dbg !10036

invoke.cont:                                      ; preds = %entry
  %prolongation = getelementptr inbounds %"class.dealii::FiniteElement", %"class.dealii::FiniteElement"* %this1, i32 0, i32 4, !dbg !10036
  %16 = load %"class.dealii::FiniteElement"*, %"class.dealii::FiniteElement"** %.addr, align 8, !dbg !10036
  %prolongation4 = getelementptr inbounds %"class.dealii::FiniteElement", %"class.dealii::FiniteElement"* %16, i32 0, i32 4, !dbg !10036
  invoke void @_ZNSt6vectorIS_IN6dealii10FullMatrixIdEESaIS2_EESaIS4_EEC2ERKS6_(%"class.std::vector"* %prolongation, %"class.std::vector"* dereferenceable(24) %prolongation4)
          to label %invoke.cont6 unwind label %lpad5, !dbg !10036

invoke.cont6:                                     ; preds = %invoke.cont
  %interface_constraints = getelementptr inbounds %"class.dealii::FiniteElement", %"class.dealii::FiniteElement"* %this1, i32 0, i32 5, !dbg !10036
  %17 = load %"class.dealii::FiniteElement"*, %"class.dealii::FiniteElement"** %.addr, align 8, !dbg !10036
  %interface_constraints7 = getelementptr inbounds %"class.dealii::FiniteElement", %"class.dealii::FiniteElement"* %17, i32 0, i32 5, !dbg !10036
  invoke void @_ZN6dealii10FullMatrixIdEC1ERKS1_(%"class.dealii::FullMatrix"* %interface_constraints, %"class.dealii::FullMatrix"* dereferenceable(96) %interface_constraints7)
          to label %invoke.cont9 unwind label %lpad8, !dbg !10036

invoke.cont9:                                     ; preds = %invoke.cont6
  %unit_support_points = getelementptr inbounds %"class.dealii::FiniteElement", %"class.dealii::FiniteElement"* %this1, i32 0, i32 6, !dbg !10036
  %18 = load %"class.dealii::FiniteElement"*, %"class.dealii::FiniteElement"** %.addr, align 8, !dbg !10036
  %unit_support_points10 = getelementptr inbounds %"class.dealii::FiniteElement", %"class.dealii::FiniteElement"* %18, i32 0, i32 6, !dbg !10036
  invoke void @_ZNSt6vectorIN6dealii5PointILi3EEESaIS2_EEC2ERKS4_(%"class.std::vector.20"* %unit_support_points, %"class.std::vector.20"* dereferenceable(24) %unit_support_points10)
          to label %invoke.cont12 unwind label %lpad11, !dbg !10036

invoke.cont12:                                    ; preds = %invoke.cont9
  %unit_face_support_points = getelementptr inbounds %"class.dealii::FiniteElement", %"class.dealii::FiniteElement"* %this1, i32 0, i32 7, !dbg !10036
  %19 = load %"class.dealii::FiniteElement"*, %"class.dealii::FiniteElement"** %.addr, align 8, !dbg !10036
  %unit_face_support_points13 = getelementptr inbounds %"class.dealii::FiniteElement", %"class.dealii::FiniteElement"* %19, i32 0, i32 7, !dbg !10036
  invoke void @_ZNSt6vectorIN6dealii5PointILi2EEESaIS2_EEC2ERKS4_(%"class.std::vector.25"* %unit_face_support_points, %"class.std::vector.25"* dereferenceable(24) %unit_face_support_points13)
          to label %invoke.cont15 unwind label %lpad14, !dbg !10036

invoke.cont15:                                    ; preds = %invoke.cont12
  %generalized_support_points = getelementptr inbounds %"class.dealii::FiniteElement", %"class.dealii::FiniteElement"* %this1, i32 0, i32 8, !dbg !10036
  %20 = load %"class.dealii::FiniteElement"*, %"class.dealii::FiniteElement"** %.addr, align 8, !dbg !10036
  %generalized_support_points16 = getelementptr inbounds %"class.dealii::FiniteElement", %"class.dealii::FiniteElement"* %20, i32 0, i32 8, !dbg !10036
  invoke void @_ZNSt6vectorIN6dealii5PointILi3EEESaIS2_EEC2ERKS4_(%"class.std::vector.20"* %generalized_support_points, %"class.std::vector.20"* dereferenceable(24) %generalized_support_points16)
          to label %invoke.cont18 unwind label %lpad17, !dbg !10036

invoke.cont18:                                    ; preds = %invoke.cont15
  %generalized_face_support_points = getelementptr inbounds %"class.dealii::FiniteElement", %"class.dealii::FiniteElement"* %this1, i32 0, i32 9, !dbg !10036
  %21 = load %"class.dealii::FiniteElement"*, %"class.dealii::FiniteElement"** %.addr, align 8, !dbg !10036
  %generalized_face_support_points19 = getelementptr inbounds %"class.dealii::FiniteElement", %"class.dealii::FiniteElement"* %21, i32 0, i32 9, !dbg !10036
  invoke void @_ZNSt6vectorIN6dealii5PointILi2EEESaIS2_EEC2ERKS4_(%"class.std::vector.25"* %generalized_face_support_points, %"class.std::vector.25"* dereferenceable(24) %generalized_face_support_points19)
          to label %invoke.cont21 unwind label %lpad20, !dbg !10036

invoke.cont21:                                    ; preds = %invoke.cont18
  %adjust_quad_dof_index_for_face_orientation_table = getelementptr inbounds %"class.dealii::FiniteElement", %"class.dealii::FiniteElement"* %this1, i32 0, i32 10, !dbg !10036
  %22 = load %"class.dealii::FiniteElement"*, %"class.dealii::FiniteElement"** %.addr, align 8, !dbg !10036
  %adjust_quad_dof_index_for_face_orientation_table22 = getelementptr inbounds %"class.dealii::FiniteElement", %"class.dealii::FiniteElement"* %22, i32 0, i32 10, !dbg !10036
  invoke void @_ZN6dealii5TableILi2EiEC2ERKS1_(%"class.dealii::Table.32"* %adjust_quad_dof_index_for_face_orientation_table, %"class.dealii::Table.32"* dereferenceable(96) %adjust_quad_dof_index_for_face_orientation_table22)
          to label %invoke.cont24 unwind label %lpad23, !dbg !10036

invoke.cont24:                                    ; preds = %invoke.cont21
  %adjust_line_dof_index_for_line_orientation_table = getelementptr inbounds %"class.dealii::FiniteElement", %"class.dealii::FiniteElement"* %this1, i32 0, i32 11, !dbg !10036
  %23 = load %"class.dealii::FiniteElement"*, %"class.dealii::FiniteElement"** %.addr, align 8, !dbg !10036
  %adjust_line_dof_index_for_line_orientation_table25 = getelementptr inbounds %"class.dealii::FiniteElement", %"class.dealii::FiniteElement"* %23, i32 0, i32 11, !dbg !10036
  invoke void @_ZNSt6vectorIiSaIiEEC2ERKS1_(%"class.std::vector.36"* %adjust_line_dof_index_for_line_orientation_table, %"class.std::vector.36"* dereferenceable(24) %adjust_line_dof_index_for_line_orientation_table25)
          to label %invoke.cont27 unwind label %lpad26, !dbg !10036

invoke.cont27:                                    ; preds = %invoke.cont24
  %system_to_component_table = getelementptr inbounds %"class.dealii::FiniteElement", %"class.dealii::FiniteElement"* %this1, i32 0, i32 12, !dbg !10036
  %24 = load %"class.dealii::FiniteElement"*, %"class.dealii::FiniteElement"** %.addr, align 8, !dbg !10036
  %system_to_component_table28 = getelementptr inbounds %"class.dealii::FiniteElement", %"class.dealii::FiniteElement"* %24, i32 0, i32 12, !dbg !10036
  invoke void @_ZNSt6vectorISt4pairIjjESaIS1_EEC2ERKS3_(%"class.std::vector.41"* %system_to_component_table, %"class.std::vector.41"* dereferenceable(24) %system_to_component_table28)
          to label %invoke.cont30 unwind label %lpad29, !dbg !10036

invoke.cont30:                                    ; preds = %invoke.cont27
  %face_system_to_component_table = getelementptr inbounds %"class.dealii::FiniteElement", %"class.dealii::FiniteElement"* %this1, i32 0, i32 13, !dbg !10036
  %25 = load %"class.dealii::FiniteElement"*, %"class.dealii::FiniteElement"** %.addr, align 8, !dbg !10036
  %face_system_to_component_table31 = getelementptr inbounds %"class.dealii::FiniteElement", %"class.dealii::FiniteElement"* %25, i32 0, i32 13, !dbg !10036
  invoke void @_ZNSt6vectorISt4pairIjjESaIS1_EEC2ERKS3_(%"class.std::vector.41"* %face_system_to_component_table, %"class.std::vector.41"* dereferenceable(24) %face_system_to_component_table31)
          to label %invoke.cont33 unwind label %lpad32, !dbg !10036

invoke.cont33:                                    ; preds = %invoke.cont30
  %system_to_base_table = getelementptr inbounds %"class.dealii::FiniteElement", %"class.dealii::FiniteElement"* %this1, i32 0, i32 14, !dbg !10036
  %26 = load %"class.dealii::FiniteElement"*, %"class.dealii::FiniteElement"** %.addr, align 8, !dbg !10036
  %system_to_base_table34 = getelementptr inbounds %"class.dealii::FiniteElement", %"class.dealii::FiniteElement"* %26, i32 0, i32 14, !dbg !10036
  invoke void @_ZNSt6vectorISt4pairIS0_IjjEjESaIS2_EEC2ERKS4_(%"class.std::vector.46"* %system_to_base_table, %"class.std::vector.46"* dereferenceable(24) %system_to_base_table34)
          to label %invoke.cont36 unwind label %lpad35, !dbg !10036

invoke.cont36:                                    ; preds = %invoke.cont33
  %face_system_to_base_table = getelementptr inbounds %"class.dealii::FiniteElement", %"class.dealii::FiniteElement"* %this1, i32 0, i32 15, !dbg !10036
  %27 = load %"class.dealii::FiniteElement"*, %"class.dealii::FiniteElement"** %.addr, align 8, !dbg !10036
  %face_system_to_base_table37 = getelementptr inbounds %"class.dealii::FiniteElement", %"class.dealii::FiniteElement"* %27, i32 0, i32 15, !dbg !10036
  invoke void @_ZNSt6vectorISt4pairIS0_IjjEjESaIS2_EEC2ERKS4_(%"class.std::vector.46"* %face_system_to_base_table, %"class.std::vector.46"* dereferenceable(24) %face_system_to_base_table37)
          to label %invoke.cont39 unwind label %lpad38, !dbg !10036

invoke.cont39:                                    ; preds = %invoke.cont36
  %first_block_of_base_table = getelementptr inbounds %"class.dealii::FiniteElement", %"class.dealii::FiniteElement"* %this1, i32 0, i32 16, !dbg !10036
  %28 = load %"class.dealii::FiniteElement"*, %"class.dealii::FiniteElement"** %.addr, align 8, !dbg !10036
  %first_block_of_base_table40 = getelementptr inbounds %"class.dealii::FiniteElement", %"class.dealii::FiniteElement"* %28, i32 0, i32 16, !dbg !10036
  invoke void @_ZNSt6vectorIjSaIjEEC2ERKS1_(%"class.std::vector.54"* %first_block_of_base_table, %"class.std::vector.54"* dereferenceable(24) %first_block_of_base_table40)
          to label %invoke.cont42 unwind label %lpad41, !dbg !10036

invoke.cont42:                                    ; preds = %invoke.cont39
  %component_to_base_table = getelementptr inbounds %"class.dealii::FiniteElement", %"class.dealii::FiniteElement"* %this1, i32 0, i32 17, !dbg !10036
  %29 = load %"class.dealii::FiniteElement"*, %"class.dealii::FiniteElement"** %.addr, align 8, !dbg !10036
  %component_to_base_table43 = getelementptr inbounds %"class.dealii::FiniteElement", %"class.dealii::FiniteElement"* %29, i32 0, i32 17, !dbg !10036
  invoke void @_ZNSt6vectorISt4pairIS0_IjjEjESaIS2_EEC2ERKS4_(%"class.std::vector.46"* %component_to_base_table, %"class.std::vector.46"* dereferenceable(24) %component_to_base_table43)
          to label %invoke.cont45 unwind label %lpad44, !dbg !10036

invoke.cont45:                                    ; preds = %invoke.cont42
  %restriction_is_additive_flags = getelementptr inbounds %"class.dealii::FiniteElement", %"class.dealii::FiniteElement"* %this1, i32 0, i32 18, !dbg !10036
  %30 = load %"class.dealii::FiniteElement"*, %"class.dealii::FiniteElement"** %.addr, align 8, !dbg !10036
  %restriction_is_additive_flags46 = getelementptr inbounds %"class.dealii::FiniteElement", %"class.dealii::FiniteElement"* %30, i32 0, i32 18, !dbg !10036
  invoke void @_ZNSt6vectorIbSaIbEEC2ERKS1_(%"class.std::vector.59"* %restriction_is_additive_flags, %"class.std::vector.59"* dereferenceable(40) %restriction_is_additive_flags46)
          to label %invoke.cont48 unwind label %lpad47, !dbg !10036

invoke.cont48:                                    ; preds = %invoke.cont45
  %nonzero_components = getelementptr inbounds %"class.dealii::FiniteElement", %"class.dealii::FiniteElement"* %this1, i32 0, i32 19, !dbg !10036
  %31 = load %"class.dealii::FiniteElement"*, %"class.dealii::FiniteElement"** %.addr, align 8, !dbg !10036
  %nonzero_components49 = getelementptr inbounds %"class.dealii::FiniteElement", %"class.dealii::FiniteElement"* %31, i32 0, i32 19, !dbg !10036
  invoke void @_ZNSt6vectorIS_IbSaIbEESaIS1_EEC2ERKS3_(%"class.std::vector.63"* %nonzero_components, %"class.std::vector.63"* dereferenceable(24) %nonzero_components49)
          to label %invoke.cont51 unwind label %lpad50, !dbg !10036

invoke.cont51:                                    ; preds = %invoke.cont48
  %n_nonzero_components_table = getelementptr inbounds %"class.dealii::FiniteElement", %"class.dealii::FiniteElement"* %this1, i32 0, i32 20, !dbg !10036
  %32 = load %"class.dealii::FiniteElement"*, %"class.dealii::FiniteElement"** %.addr, align 8, !dbg !10036
  %n_nonzero_components_table52 = getelementptr inbounds %"class.dealii::FiniteElement", %"class.dealii::FiniteElement"* %32, i32 0, i32 20, !dbg !10036
  invoke void @_ZNSt6vectorIjSaIjEEC2ERKS1_(%"class.std::vector.54"* %n_nonzero_components_table, %"class.std::vector.54"* dereferenceable(24) %n_nonzero_components_table52)
          to label %invoke.cont54 unwind label %lpad53, !dbg !10036

invoke.cont54:                                    ; preds = %invoke.cont51
  ret void, !dbg !10036

lpad:                                             ; preds = %entry
  %33 = landingpad { i8*, i32 }
          cleanup, !dbg !10036
  %34 = extractvalue { i8*, i32 } %33, 0, !dbg !10036
  store i8* %34, i8** %exn.slot, align 8, !dbg !10036
  %35 = extractvalue { i8*, i32 } %33, 1, !dbg !10036
  store i32 %35, i32* %ehselector.slot, align 4, !dbg !10036
  br label %ehcleanup70, !dbg !10036

lpad5:                                            ; preds = %invoke.cont
  %36 = landingpad { i8*, i32 }
          cleanup, !dbg !10036
  %37 = extractvalue { i8*, i32 } %36, 0, !dbg !10036
  store i8* %37, i8** %exn.slot, align 8, !dbg !10036
  %38 = extractvalue { i8*, i32 } %36, 1, !dbg !10036
  store i32 %38, i32* %ehselector.slot, align 4, !dbg !10036
  br label %ehcleanup69, !dbg !10036

lpad8:                                            ; preds = %invoke.cont6
  %39 = landingpad { i8*, i32 }
          cleanup, !dbg !10036
  %40 = extractvalue { i8*, i32 } %39, 0, !dbg !10036
  store i8* %40, i8** %exn.slot, align 8, !dbg !10036
  %41 = extractvalue { i8*, i32 } %39, 1, !dbg !10036
  store i32 %41, i32* %ehselector.slot, align 4, !dbg !10036
  br label %ehcleanup68, !dbg !10036

lpad11:                                           ; preds = %invoke.cont9
  %42 = landingpad { i8*, i32 }
          cleanup, !dbg !10036
  %43 = extractvalue { i8*, i32 } %42, 0, !dbg !10036
  store i8* %43, i8** %exn.slot, align 8, !dbg !10036
  %44 = extractvalue { i8*, i32 } %42, 1, !dbg !10036
  store i32 %44, i32* %ehselector.slot, align 4, !dbg !10036
  br label %ehcleanup67, !dbg !10036

lpad14:                                           ; preds = %invoke.cont12
  %45 = landingpad { i8*, i32 }
          cleanup, !dbg !10036
  %46 = extractvalue { i8*, i32 } %45, 0, !dbg !10036
  store i8* %46, i8** %exn.slot, align 8, !dbg !10036
  %47 = extractvalue { i8*, i32 } %45, 1, !dbg !10036
  store i32 %47, i32* %ehselector.slot, align 4, !dbg !10036
  br label %ehcleanup66, !dbg !10036

lpad17:                                           ; preds = %invoke.cont15
  %48 = landingpad { i8*, i32 }
          cleanup, !dbg !10036
  %49 = extractvalue { i8*, i32 } %48, 0, !dbg !10036
  store i8* %49, i8** %exn.slot, align 8, !dbg !10036
  %50 = extractvalue { i8*, i32 } %48, 1, !dbg !10036
  store i32 %50, i32* %ehselector.slot, align 4, !dbg !10036
  br label %ehcleanup65, !dbg !10036

lpad20:                                           ; preds = %invoke.cont18
  %51 = landingpad { i8*, i32 }
          cleanup, !dbg !10036
  %52 = extractvalue { i8*, i32 } %51, 0, !dbg !10036
  store i8* %52, i8** %exn.slot, align 8, !dbg !10036
  %53 = extractvalue { i8*, i32 } %51, 1, !dbg !10036
  store i32 %53, i32* %ehselector.slot, align 4, !dbg !10036
  br label %ehcleanup64, !dbg !10036

lpad23:                                           ; preds = %invoke.cont21
  %54 = landingpad { i8*, i32 }
          cleanup, !dbg !10036
  %55 = extractvalue { i8*, i32 } %54, 0, !dbg !10036
  store i8* %55, i8** %exn.slot, align 8, !dbg !10036
  %56 = extractvalue { i8*, i32 } %54, 1, !dbg !10036
  store i32 %56, i32* %ehselector.slot, align 4, !dbg !10036
  br label %ehcleanup63, !dbg !10036

lpad26:                                           ; preds = %invoke.cont24
  %57 = landingpad { i8*, i32 }
          cleanup, !dbg !10036
  %58 = extractvalue { i8*, i32 } %57, 0, !dbg !10036
  store i8* %58, i8** %exn.slot, align 8, !dbg !10036
  %59 = extractvalue { i8*, i32 } %57, 1, !dbg !10036
  store i32 %59, i32* %ehselector.slot, align 4, !dbg !10036
  br label %ehcleanup62, !dbg !10036

lpad29:                                           ; preds = %invoke.cont27
  %60 = landingpad { i8*, i32 }
          cleanup, !dbg !10036
  %61 = extractvalue { i8*, i32 } %60, 0, !dbg !10036
  store i8* %61, i8** %exn.slot, align 8, !dbg !10036
  %62 = extractvalue { i8*, i32 } %60, 1, !dbg !10036
  store i32 %62, i32* %ehselector.slot, align 4, !dbg !10036
  br label %ehcleanup61, !dbg !10036

lpad32:                                           ; preds = %invoke.cont30
  %63 = landingpad { i8*, i32 }
          cleanup, !dbg !10036
  %64 = extractvalue { i8*, i32 } %63, 0, !dbg !10036
  store i8* %64, i8** %exn.slot, align 8, !dbg !10036
  %65 = extractvalue { i8*, i32 } %63, 1, !dbg !10036
  store i32 %65, i32* %ehselector.slot, align 4, !dbg !10036
  br label %ehcleanup60, !dbg !10036

lpad35:                                           ; preds = %invoke.cont33
  %66 = landingpad { i8*, i32 }
          cleanup, !dbg !10036
  %67 = extractvalue { i8*, i32 } %66, 0, !dbg !10036
  store i8* %67, i8** %exn.slot, align 8, !dbg !10036
  %68 = extractvalue { i8*, i32 } %66, 1, !dbg !10036
  store i32 %68, i32* %ehselector.slot, align 4, !dbg !10036
  br label %ehcleanup59, !dbg !10036

lpad38:                                           ; preds = %invoke.cont36
  %69 = landingpad { i8*, i32 }
          cleanup, !dbg !10036
  %70 = extractvalue { i8*, i32 } %69, 0, !dbg !10036
  store i8* %70, i8** %exn.slot, align 8, !dbg !10036
  %71 = extractvalue { i8*, i32 } %69, 1, !dbg !10036
  store i32 %71, i32* %ehselector.slot, align 4, !dbg !10036
  br label %ehcleanup58, !dbg !10036

lpad41:                                           ; preds = %invoke.cont39
  %72 = landingpad { i8*, i32 }
          cleanup, !dbg !10036
  %73 = extractvalue { i8*, i32 } %72, 0, !dbg !10036
  store i8* %73, i8** %exn.slot, align 8, !dbg !10036
  %74 = extractvalue { i8*, i32 } %72, 1, !dbg !10036
  store i32 %74, i32* %ehselector.slot, align 4, !dbg !10036
  br label %ehcleanup57, !dbg !10036

lpad44:                                           ; preds = %invoke.cont42
  %75 = landingpad { i8*, i32 }
          cleanup, !dbg !10036
  %76 = extractvalue { i8*, i32 } %75, 0, !dbg !10036
  store i8* %76, i8** %exn.slot, align 8, !dbg !10036
  %77 = extractvalue { i8*, i32 } %75, 1, !dbg !10036
  store i32 %77, i32* %ehselector.slot, align 4, !dbg !10036
  br label %ehcleanup56, !dbg !10036

lpad47:                                           ; preds = %invoke.cont45
  %78 = landingpad { i8*, i32 }
          cleanup, !dbg !10036
  %79 = extractvalue { i8*, i32 } %78, 0, !dbg !10036
  store i8* %79, i8** %exn.slot, align 8, !dbg !10036
  %80 = extractvalue { i8*, i32 } %78, 1, !dbg !10036
  store i32 %80, i32* %ehselector.slot, align 4, !dbg !10036
  br label %ehcleanup55, !dbg !10036

lpad50:                                           ; preds = %invoke.cont48
  %81 = landingpad { i8*, i32 }
          cleanup, !dbg !10036
  %82 = extractvalue { i8*, i32 } %81, 0, !dbg !10036
  store i8* %82, i8** %exn.slot, align 8, !dbg !10036
  %83 = extractvalue { i8*, i32 } %81, 1, !dbg !10036
  store i32 %83, i32* %ehselector.slot, align 4, !dbg !10036
  br label %ehcleanup, !dbg !10036

lpad53:                                           ; preds = %invoke.cont51
  %84 = landingpad { i8*, i32 }
          cleanup, !dbg !10036
  %85 = extractvalue { i8*, i32 } %84, 0, !dbg !10036
  store i8* %85, i8** %exn.slot, align 8, !dbg !10036
  %86 = extractvalue { i8*, i32 } %84, 1, !dbg !10036
  store i32 %86, i32* %ehselector.slot, align 4, !dbg !10036
  call void @_ZNSt6vectorIS_IbSaIbEESaIS1_EED2Ev(%"class.std::vector.63"* %nonzero_components) #4, !dbg !10037
  br label %ehcleanup, !dbg !10037

ehcleanup:                                        ; preds = %lpad53, %lpad50
  call void @_ZNSt6vectorIbSaIbEED2Ev(%"class.std::vector.59"* %restriction_is_additive_flags) #4, !dbg !10037
  br label %ehcleanup55, !dbg !10037

ehcleanup55:                                      ; preds = %ehcleanup, %lpad47
  call void @_ZNSt6vectorISt4pairIS0_IjjEjESaIS2_EED2Ev(%"class.std::vector.46"* %component_to_base_table) #4, !dbg !10037
  br label %ehcleanup56, !dbg !10037

ehcleanup56:                                      ; preds = %ehcleanup55, %lpad44
  call void @_ZNSt6vectorIjSaIjEED2Ev(%"class.std::vector.54"* %first_block_of_base_table) #4, !dbg !10037
  br label %ehcleanup57, !dbg !10037

ehcleanup57:                                      ; preds = %ehcleanup56, %lpad41
  call void @_ZNSt6vectorISt4pairIS0_IjjEjESaIS2_EED2Ev(%"class.std::vector.46"* %face_system_to_base_table) #4, !dbg !10037
  br label %ehcleanup58, !dbg !10037

ehcleanup58:                                      ; preds = %ehcleanup57, %lpad38
  call void @_ZNSt6vectorISt4pairIS0_IjjEjESaIS2_EED2Ev(%"class.std::vector.46"* %system_to_base_table) #4, !dbg !10037
  br label %ehcleanup59, !dbg !10037

ehcleanup59:                                      ; preds = %ehcleanup58, %lpad35
  call void @_ZNSt6vectorISt4pairIjjESaIS1_EED2Ev(%"class.std::vector.41"* %face_system_to_component_table) #4, !dbg !10037
  br label %ehcleanup60, !dbg !10037

ehcleanup60:                                      ; preds = %ehcleanup59, %lpad32
  call void @_ZNSt6vectorISt4pairIjjESaIS1_EED2Ev(%"class.std::vector.41"* %system_to_component_table) #4, !dbg !10037
  br label %ehcleanup61, !dbg !10037

ehcleanup61:                                      ; preds = %ehcleanup60, %lpad29
  call void @_ZNSt6vectorIiSaIiEED2Ev(%"class.std::vector.36"* %adjust_line_dof_index_for_line_orientation_table) #4, !dbg !10037
  br label %ehcleanup62, !dbg !10037

ehcleanup62:                                      ; preds = %ehcleanup61, %lpad26
  call void @_ZN6dealii5TableILi2EiED2Ev(%"class.dealii::Table.32"* %adjust_quad_dof_index_for_face_orientation_table) #4, !dbg !10037
  br label %ehcleanup63, !dbg !10037

ehcleanup63:                                      ; preds = %ehcleanup62, %lpad23
  call void @_ZNSt6vectorIN6dealii5PointILi2EEESaIS2_EED2Ev(%"class.std::vector.25"* %generalized_face_support_points) #4, !dbg !10037
  br label %ehcleanup64, !dbg !10037

ehcleanup64:                                      ; preds = %ehcleanup63, %lpad20
  call void @_ZNSt6vectorIN6dealii5PointILi3EEESaIS2_EED2Ev(%"class.std::vector.20"* %generalized_support_points) #4, !dbg !10037
  br label %ehcleanup65, !dbg !10037

ehcleanup65:                                      ; preds = %ehcleanup64, %lpad17
  call void @_ZNSt6vectorIN6dealii5PointILi2EEESaIS2_EED2Ev(%"class.std::vector.25"* %unit_face_support_points) #4, !dbg !10037
  br label %ehcleanup66, !dbg !10037

ehcleanup66:                                      ; preds = %ehcleanup65, %lpad14
  call void @_ZNSt6vectorIN6dealii5PointILi3EEESaIS2_EED2Ev(%"class.std::vector.20"* %unit_support_points) #4, !dbg !10037
  br label %ehcleanup67, !dbg !10037

ehcleanup67:                                      ; preds = %ehcleanup66, %lpad11
  call void @_ZN6dealii10FullMatrixIdED2Ev(%"class.dealii::FullMatrix"* %interface_constraints) #4, !dbg !10037
  br label %ehcleanup68, !dbg !10037

ehcleanup68:                                      ; preds = %ehcleanup67, %lpad8
  call void @_ZNSt6vectorIS_IN6dealii10FullMatrixIdEESaIS2_EESaIS4_EED2Ev(%"class.std::vector"* %prolongation) #4, !dbg !10037
  br label %ehcleanup69, !dbg !10037

ehcleanup69:                                      ; preds = %ehcleanup68, %lpad5
  call void @_ZNSt6vectorIS_IN6dealii10FullMatrixIdEESaIS2_EESaIS4_EED2Ev(%"class.std::vector"* %restriction) #4, !dbg !10037
  br label %ehcleanup70, !dbg !10037

ehcleanup70:                                      ; preds = %ehcleanup69, %lpad
  %87 = bitcast %"class.dealii::FiniteElement"* %this1 to %"class.dealii::Subscriptor"*, !dbg !10037
  call void @_ZN6dealii11SubscriptorD2Ev(%"class.dealii::Subscriptor"* %87) #4, !dbg !10037
  br label %eh.resume, !dbg !10037

eh.resume:                                        ; preds = %ehcleanup70
  %exn = load i8*, i8** %exn.slot, align 8, !dbg !10037
  %sel = load i32, i32* %ehselector.slot, align 4, !dbg !10037
  %lpad.val = insertvalue { i8*, i32 } undef, i8* %exn, 0, !dbg !10037
  %lpad.val71 = insertvalue { i8*, i32 } %lpad.val, i32 %sel, 1, !dbg !10037
  resume { i8*, i32 } %lpad.val71, !dbg !10037
}

; Function Attrs: noinline uwtable
define linkonce_odr dso_local void @_ZN6dealii12PolynomialsPILi3EEC2ERKS1_(%"class.dealii::PolynomialsP"* %this, %"class.dealii::PolynomialsP"* dereferenceable(88) %0) unnamed_addr #0 comdat align 2 !dbg !10039 {
entry:
  %this.addr = alloca %"class.dealii::PolynomialsP"*, align 8
  %.addr = alloca %"class.dealii::PolynomialsP"*, align 8
  store %"class.dealii::PolynomialsP"* %this, %"class.dealii::PolynomialsP"** %this.addr, align 8
  call void @llvm.dbg.declare(metadata %"class.dealii::PolynomialsP"** %this.addr, metadata !10043, metadata !DIExpression()), !dbg !10044
  store %"class.dealii::PolynomialsP"* %0, %"class.dealii::PolynomialsP"** %.addr, align 8
  call void @llvm.dbg.declare(metadata %"class.dealii::PolynomialsP"** %.addr, metadata !10045, metadata !DIExpression()), !dbg !10044
  %this1 = load %"class.dealii::PolynomialsP"*, %"class.dealii::PolynomialsP"** %this.addr, align 8
  %1 = bitcast %"class.dealii::PolynomialsP"* %this1 to %"class.dealii::PolynomialSpace"*, !dbg !10046
  %2 = load %"class.dealii::PolynomialsP"*, %"class.dealii::PolynomialsP"** %.addr, align 8, !dbg !10046
  %3 = bitcast %"class.dealii::PolynomialsP"* %2 to %"class.dealii::PolynomialSpace"*, !dbg !10046
  call void @_ZN6dealii15PolynomialSpaceILi3EEC2ERKS1_(%"class.dealii::PolynomialSpace"* %1, %"class.dealii::PolynomialSpace"* dereferenceable(80) %3), !dbg !10046
  %p = getelementptr inbounds %"class.dealii::PolynomialsP", %"class.dealii::PolynomialsP"* %this1, i32 0, i32 1, !dbg !10046
  %4 = load %"class.dealii::PolynomialsP"*, %"class.dealii::PolynomialsP"** %.addr, align 8, !dbg !10046
  %p2 = getelementptr inbounds %"class.dealii::PolynomialsP", %"class.dealii::PolynomialsP"* %4, i32 0, i32 1, !dbg !10046
  %5 = load i32, i32* %p2, align 8, !dbg !10046
  store i32 %5, i32* %p, align 8, !dbg !10046
  ret void, !dbg !10046
}

declare dso_local void @_ZN6dealii11SubscriptorC2ERKS0_(%"class.dealii::Subscriptor"*, %"class.dealii::Subscriptor"* dereferenceable(72)) unnamed_addr #2

; Function Attrs: argmemonly nounwind willreturn
declare void @llvm.memcpy.p0i8.p0i8.i64(i8* noalias nocapture writeonly, i8* noalias nocapture readonly, i64, i1 immarg) #7

; Function Attrs: noinline uwtable
define linkonce_odr dso_local void @_ZNSt6vectorIS_IN6dealii10FullMatrixIdEESaIS2_EESaIS4_EEC2ERKS6_(%"class.std::vector"* %this, %"class.std::vector"* dereferenceable(24) %__x) unnamed_addr #0 comdat align 2 personality i8* bitcast (i32 (...)* @__gxx_personality_v0 to i8*) !dbg !10047 {
entry:
  %this.addr = alloca %"class.std::vector"*, align 8
  %__x.addr = alloca %"class.std::vector"*, align 8
  %ref.tmp = alloca %"class.std::allocator.16", align 1
  %exn.slot = alloca i8*
  %ehselector.slot = alloca i32
  %agg.tmp = alloca %"class.__gnu_cxx::__normal_iterator", align 8
  %agg.tmp4 = alloca %"class.__gnu_cxx::__normal_iterator", align 8
  store %"class.std::vector"* %this, %"class.std::vector"** %this.addr, align 8
  call void @llvm.dbg.declare(metadata %"class.std::vector"** %this.addr, metadata !10048, metadata !DIExpression()), !dbg !10050
  store %"class.std::vector"* %__x, %"class.std::vector"** %__x.addr, align 8
  call void @llvm.dbg.declare(metadata %"class.std::vector"** %__x.addr, metadata !10051, metadata !DIExpression()), !dbg !10052
  %this1 = load %"class.std::vector"*, %"class.std::vector"** %this.addr, align 8
  %0 = bitcast %"class.std::vector"* %this1 to %"struct.std::_Vector_base"*, !dbg !10053
  %1 = load %"class.std::vector"*, %"class.std::vector"** %__x.addr, align 8, !dbg !10054
  %call = call i64 @_ZNKSt6vectorIS_IN6dealii10FullMatrixIdEESaIS2_EESaIS4_EE4sizeEv(%"class.std::vector"* %1) #4, !dbg !10055
  %2 = load %"class.std::vector"*, %"class.std::vector"** %__x.addr, align 8, !dbg !10056
  %3 = bitcast %"class.std::vector"* %2 to %"struct.std::_Vector_base"*, !dbg !10056
  %call2 = call dereferenceable(1) %"class.std::allocator.16"* @_ZNKSt12_Vector_baseISt6vectorIN6dealii10FullMatrixIdEESaIS3_EESaIS5_EE19_M_get_Tp_allocatorEv(%"struct.std::_Vector_base"* %3) #4, !dbg !10057
  call void @_ZN9__gnu_cxx14__alloc_traitsISaISt6vectorIN6dealii10FullMatrixIdEESaIS4_EEES6_E17_S_select_on_copyERKS7_(%"class.std::allocator.16"* sret %ref.tmp, %"class.std::allocator.16"* dereferenceable(1) %call2), !dbg !10058
  invoke void @_ZNSt12_Vector_baseISt6vectorIN6dealii10FullMatrixIdEESaIS3_EESaIS5_EEC2EmRKS6_(%"struct.std::_Vector_base"* %0, i64 %call, %"class.std::allocator.16"* dereferenceable(1) %ref.tmp)
          to label %invoke.cont unwind label %lpad, !dbg !10059

invoke.cont:                                      ; preds = %entry
  call void @_ZNSaISt6vectorIN6dealii10FullMatrixIdEESaIS2_EEED2Ev(%"class.std::allocator.16"* %ref.tmp) #4, !dbg !10059
  %4 = load %"class.std::vector"*, %"class.std::vector"** %__x.addr, align 8, !dbg !10060
  %call3 = call %"class.std::vector.19"* @_ZNKSt6vectorIS_IN6dealii10FullMatrixIdEESaIS2_EESaIS4_EE5beginEv(%"class.std::vector"* %4) #4, !dbg !10062
  %coerce.dive = getelementptr inbounds %"class.__gnu_cxx::__normal_iterator", %"class.__gnu_cxx::__normal_iterator"* %agg.tmp, i32 0, i32 0, !dbg !10062
  store %"class.std::vector.19"* %call3, %"class.std::vector.19"** %coerce.dive, align 8, !dbg !10062
  %5 = load %"class.std::vector"*, %"class.std::vector"** %__x.addr, align 8, !dbg !10063
  %call5 = call %"class.std::vector.19"* @_ZNKSt6vectorIS_IN6dealii10FullMatrixIdEESaIS2_EESaIS4_EE3endEv(%"class.std::vector"* %5) #4, !dbg !10064
  %coerce.dive6 = getelementptr inbounds %"class.__gnu_cxx::__normal_iterator", %"class.__gnu_cxx::__normal_iterator"* %agg.tmp4, i32 0, i32 0, !dbg !10064
  store %"class.std::vector.19"* %call5, %"class.std::vector.19"** %coerce.dive6, align 8, !dbg !10064
  %6 = bitcast %"class.std::vector"* %this1 to %"struct.std::_Vector_base"*, !dbg !10065
  %_M_impl = getelementptr inbounds %"struct.std::_Vector_base", %"struct.std::_Vector_base"* %6, i32 0, i32 0, !dbg !10065
  %7 = bitcast %"struct.std::_Vector_base<std::vector<dealii::FullMatrix<double>, std::allocator<dealii::FullMatrix<double> > >, std::allocator<std::vector<dealii::FullMatrix<double>, std::allocator<dealii::FullMatrix<double> > > > >::_Vector_impl"* %_M_impl to %"struct.std::_Vector_base<std::vector<dealii::FullMatrix<double>, std::allocator<dealii::FullMatrix<double> > >, std::allocator<std::vector<dealii::FullMatrix<double>, std::allocator<dealii::FullMatrix<double> > > > >::_Vector_impl_data"*, !dbg !10066
  %_M_start = getelementptr inbounds %"struct.std::_Vector_base<std::vector<dealii::FullMatrix<double>, std::allocator<dealii::FullMatrix<double> > >, std::allocator<std::vector<dealii::FullMatrix<double>, std::allocator<dealii::FullMatrix<double> > > > >::_Vector_impl_data", %"struct.std::_Vector_base<std::vector<dealii::FullMatrix<double>, std::allocator<dealii::FullMatrix<double> > >, std::allocator<std::vector<dealii::FullMatrix<double>, std::allocator<dealii::FullMatrix<double> > > > >::_Vector_impl_data"* %7, i32 0, i32 0, !dbg !10067
  %8 = load %"class.std::vector.19"*, %"class.std::vector.19"** %_M_start, align 8, !dbg !10067
  %9 = bitcast %"class.std::vector"* %this1 to %"struct.std::_Vector_base"*, !dbg !10068
  %call7 = call dereferenceable(1) %"class.std::allocator.16"* @_ZNSt12_Vector_baseISt6vectorIN6dealii10FullMatrixIdEESaIS3_EESaIS5_EE19_M_get_Tp_allocatorEv(%"struct.std::_Vector_base"* %9) #4, !dbg !10068
  %coerce.dive8 = getelementptr inbounds %"class.__gnu_cxx::__normal_iterator", %"class.__gnu_cxx::__normal_iterator"* %agg.tmp, i32 0, i32 0, !dbg !10069
  %10 = load %"class.std::vector.19"*, %"class.std::vector.19"** %coerce.dive8, align 8, !dbg !10069
  %coerce.dive9 = getelementptr inbounds %"class.__gnu_cxx::__normal_iterator", %"class.__gnu_cxx::__normal_iterator"* %agg.tmp4, i32 0, i32 0, !dbg !10069
  %11 = load %"class.std::vector.19"*, %"class.std::vector.19"** %coerce.dive9, align 8, !dbg !10069
  %call12 = invoke %"class.std::vector.19"* @_ZSt22__uninitialized_copy_aIN9__gnu_cxx17__normal_iteratorIPKSt6vectorIN6dealii10FullMatrixIdEESaIS5_EES2_IS7_SaIS7_EEEEPS7_S7_ET0_T_SF_SE_RSaIT1_E(%"class.std::vector.19"* %10, %"class.std::vector.19"* %11, %"class.std::vector.19"* %8, %"class.std::allocator.16"* dereferenceable(1) %call7)
          to label %invoke.cont11 unwind label %lpad10, !dbg !10069

invoke.cont11:                                    ; preds = %invoke.cont
  %12 = bitcast %"class.std::vector"* %this1 to %"struct.std::_Vector_base"*, !dbg !10070
  %_M_impl13 = getelementptr inbounds %"struct.std::_Vector_base", %"struct.std::_Vector_base"* %12, i32 0, i32 0, !dbg !10070
  %13 = bitcast %"struct.std::_Vector_base<std::vector<dealii::FullMatrix<double>, std::allocator<dealii::FullMatrix<double> > >, std::allocator<std::vector<dealii::FullMatrix<double>, std::allocator<dealii::FullMatrix<double> > > > >::_Vector_impl"* %_M_impl13 to %"struct.std::_Vector_base<std::vector<dealii::FullMatrix<double>, std::allocator<dealii::FullMatrix<double> > >, std::allocator<std::vector<dealii::FullMatrix<double>, std::allocator<dealii::FullMatrix<double> > > > >::_Vector_impl_data"*, !dbg !10071
  %_M_finish = getelementptr inbounds %"struct.std::_Vector_base<std::vector<dealii::FullMatrix<double>, std::allocator<dealii::FullMatrix<double> > >, std::allocator<std::vector<dealii::FullMatrix<double>, std::allocator<dealii::FullMatrix<double> > > > >::_Vector_impl_data", %"struct.std::_Vector_base<std::vector<dealii::FullMatrix<double>, std::allocator<dealii::FullMatrix<double> > >, std::allocator<std::vector<dealii::FullMatrix<double>, std::allocator<dealii::FullMatrix<double> > > > >::_Vector_impl_data"* %13, i32 0, i32 1, !dbg !10072
  store %"class.std::vector.19"* %call12, %"class.std::vector.19"** %_M_finish, align 8, !dbg !10073
  ret void, !dbg !10074

lpad:                                             ; preds = %entry
  %14 = landingpad { i8*, i32 }
          cleanup, !dbg !10074
  %15 = extractvalue { i8*, i32 } %14, 0, !dbg !10074
  store i8* %15, i8** %exn.slot, align 8, !dbg !10074
  %16 = extractvalue { i8*, i32 } %14, 1, !dbg !10074
  store i32 %16, i32* %ehselector.slot, align 4, !dbg !10074
  call void @_ZNSaISt6vectorIN6dealii10FullMatrixIdEESaIS2_EEED2Ev(%"class.std::allocator.16"* %ref.tmp) #4, !dbg !10059
  br label %eh.resume, !dbg !10059

lpad10:                                           ; preds = %invoke.cont
  %17 = landingpad { i8*, i32 }
          cleanup, !dbg !10075
  %18 = extractvalue { i8*, i32 } %17, 0, !dbg !10075
  store i8* %18, i8** %exn.slot, align 8, !dbg !10075
  %19 = extractvalue { i8*, i32 } %17, 1, !dbg !10075
  store i32 %19, i32* %ehselector.slot, align 4, !dbg !10075
  %20 = bitcast %"class.std::vector"* %this1 to %"struct.std::_Vector_base"*, !dbg !10075
  call void @_ZNSt12_Vector_baseISt6vectorIN6dealii10FullMatrixIdEESaIS3_EESaIS5_EED2Ev(%"struct.std::_Vector_base"* %20) #4, !dbg !10075
  br label %eh.resume, !dbg !10075

eh.resume:                                        ; preds = %lpad10, %lpad
  %exn = load i8*, i8** %exn.slot, align 8, !dbg !10059
  %sel = load i32, i32* %ehselector.slot, align 4, !dbg !10059
  %lpad.val = insertvalue { i8*, i32 } undef, i8* %exn, 0, !dbg !10059
  %lpad.val14 = insertvalue { i8*, i32 } %lpad.val, i32 %sel, 1, !dbg !10059
  resume { i8*, i32 } %lpad.val14, !dbg !10059
}

declare dso_local void @_ZN6dealii10FullMatrixIdEC1ERKS1_(%"class.dealii::FullMatrix"*, %"class.dealii::FullMatrix"* dereferenceable(96)) unnamed_addr #2

; Function Attrs: noinline uwtable
define linkonce_odr dso_local void @_ZNSt6vectorIN6dealii5PointILi3EEESaIS2_EEC2ERKS4_(%"class.std::vector.20"* %this, %"class.std::vector.20"* dereferenceable(24) %__x) unnamed_addr #0 comdat align 2 personality i8* bitcast (i32 (...)* @__gxx_personality_v0 to i8*) !dbg !10076 {
entry:
  %this.addr = alloca %"class.std::vector.20"*, align 8
  %__x.addr = alloca %"class.std::vector.20"*, align 8
  %ref.tmp = alloca %"class.std::allocator.22", align 1
  %exn.slot = alloca i8*
  %ehselector.slot = alloca i32
  %agg.tmp = alloca %"class.__gnu_cxx::__normal_iterator.92", align 8
  %agg.tmp4 = alloca %"class.__gnu_cxx::__normal_iterator.92", align 8
  store %"class.std::vector.20"* %this, %"class.std::vector.20"** %this.addr, align 8
  call void @llvm.dbg.declare(metadata %"class.std::vector.20"** %this.addr, metadata !10077, metadata !DIExpression()), !dbg !10078
  store %"class.std::vector.20"* %__x, %"class.std::vector.20"** %__x.addr, align 8
  call void @llvm.dbg.declare(metadata %"class.std::vector.20"** %__x.addr, metadata !10079, metadata !DIExpression()), !dbg !10080
  %this1 = load %"class.std::vector.20"*, %"class.std::vector.20"** %this.addr, align 8
  %0 = bitcast %"class.std::vector.20"* %this1 to %"struct.std::_Vector_base.21"*, !dbg !10081
  %1 = load %"class.std::vector.20"*, %"class.std::vector.20"** %__x.addr, align 8, !dbg !10082
  %call = call i64 @_ZNKSt6vectorIN6dealii5PointILi3EEESaIS2_EE4sizeEv(%"class.std::vector.20"* %1) #4, !dbg !10083
  %2 = load %"class.std::vector.20"*, %"class.std::vector.20"** %__x.addr, align 8, !dbg !10084
  %3 = bitcast %"class.std::vector.20"* %2 to %"struct.std::_Vector_base.21"*, !dbg !10084
  %call2 = call dereferenceable(1) %"class.std::allocator.22"* @_ZNKSt12_Vector_baseIN6dealii5PointILi3EEESaIS2_EE19_M_get_Tp_allocatorEv(%"struct.std::_Vector_base.21"* %3) #4, !dbg !10085
  call void @_ZN9__gnu_cxx14__alloc_traitsISaIN6dealii5PointILi3EEEES3_E17_S_select_on_copyERKS4_(%"class.std::allocator.22"* sret %ref.tmp, %"class.std::allocator.22"* dereferenceable(1) %call2), !dbg !10086
  invoke void @_ZNSt12_Vector_baseIN6dealii5PointILi3EEESaIS2_EEC2EmRKS3_(%"struct.std::_Vector_base.21"* %0, i64 %call, %"class.std::allocator.22"* dereferenceable(1) %ref.tmp)
          to label %invoke.cont unwind label %lpad, !dbg !10087

invoke.cont:                                      ; preds = %entry
  call void @_ZNSaIN6dealii5PointILi3EEEED2Ev(%"class.std::allocator.22"* %ref.tmp) #4, !dbg !10087
  %4 = load %"class.std::vector.20"*, %"class.std::vector.20"** %__x.addr, align 8, !dbg !10088
  %call3 = call %"class.dealii::Point"* @_ZNKSt6vectorIN6dealii5PointILi3EEESaIS2_EE5beginEv(%"class.std::vector.20"* %4) #4, !dbg !10090
  %coerce.dive = getelementptr inbounds %"class.__gnu_cxx::__normal_iterator.92", %"class.__gnu_cxx::__normal_iterator.92"* %agg.tmp, i32 0, i32 0, !dbg !10090
  store %"class.dealii::Point"* %call3, %"class.dealii::Point"** %coerce.dive, align 8, !dbg !10090
  %5 = load %"class.std::vector.20"*, %"class.std::vector.20"** %__x.addr, align 8, !dbg !10091
  %call5 = call %"class.dealii::Point"* @_ZNKSt6vectorIN6dealii5PointILi3EEESaIS2_EE3endEv(%"class.std::vector.20"* %5) #4, !dbg !10092
  %coerce.dive6 = getelementptr inbounds %"class.__gnu_cxx::__normal_iterator.92", %"class.__gnu_cxx::__normal_iterator.92"* %agg.tmp4, i32 0, i32 0, !dbg !10092
  store %"class.dealii::Point"* %call5, %"class.dealii::Point"** %coerce.dive6, align 8, !dbg !10092
  %6 = bitcast %"class.std::vector.20"* %this1 to %"struct.std::_Vector_base.21"*, !dbg !10093
  %_M_impl = getelementptr inbounds %"struct.std::_Vector_base.21", %"struct.std::_Vector_base.21"* %6, i32 0, i32 0, !dbg !10093
  %7 = bitcast %"struct.std::_Vector_base<dealii::Point<3>, std::allocator<dealii::Point<3> > >::_Vector_impl"* %_M_impl to %"struct.std::_Vector_base<dealii::Point<3>, std::allocator<dealii::Point<3> > >::_Vector_impl_data"*, !dbg !10094
  %_M_start = getelementptr inbounds %"struct.std::_Vector_base<dealii::Point<3>, std::allocator<dealii::Point<3> > >::_Vector_impl_data", %"struct.std::_Vector_base<dealii::Point<3>, std::allocator<dealii::Point<3> > >::_Vector_impl_data"* %7, i32 0, i32 0, !dbg !10095
  %8 = load %"class.dealii::Point"*, %"class.dealii::Point"** %_M_start, align 8, !dbg !10095
  %9 = bitcast %"class.std::vector.20"* %this1 to %"struct.std::_Vector_base.21"*, !dbg !10096
  %call7 = call dereferenceable(1) %"class.std::allocator.22"* @_ZNSt12_Vector_baseIN6dealii5PointILi3EEESaIS2_EE19_M_get_Tp_allocatorEv(%"struct.std::_Vector_base.21"* %9) #4, !dbg !10096
  %coerce.dive8 = getelementptr inbounds %"class.__gnu_cxx::__normal_iterator.92", %"class.__gnu_cxx::__normal_iterator.92"* %agg.tmp, i32 0, i32 0, !dbg !10097
  %10 = load %"class.dealii::Point"*, %"class.dealii::Point"** %coerce.dive8, align 8, !dbg !10097
  %coerce.dive9 = getelementptr inbounds %"class.__gnu_cxx::__normal_iterator.92", %"class.__gnu_cxx::__normal_iterator.92"* %agg.tmp4, i32 0, i32 0, !dbg !10097
  %11 = load %"class.dealii::Point"*, %"class.dealii::Point"** %coerce.dive9, align 8, !dbg !10097
  %call12 = invoke %"class.dealii::Point"* @_ZSt22__uninitialized_copy_aIN9__gnu_cxx17__normal_iteratorIPKN6dealii5PointILi3EEESt6vectorIS4_SaIS4_EEEEPS4_S4_ET0_T_SD_SC_RSaIT1_E(%"class.dealii::Point"* %10, %"class.dealii::Point"* %11, %"class.dealii::Point"* %8, %"class.std::allocator.22"* dereferenceable(1) %call7)
          to label %invoke.cont11 unwind label %lpad10, !dbg !10097

invoke.cont11:                                    ; preds = %invoke.cont
  %12 = bitcast %"class.std::vector.20"* %this1 to %"struct.std::_Vector_base.21"*, !dbg !10098
  %_M_impl13 = getelementptr inbounds %"struct.std::_Vector_base.21", %"struct.std::_Vector_base.21"* %12, i32 0, i32 0, !dbg !10098
  %13 = bitcast %"struct.std::_Vector_base<dealii::Point<3>, std::allocator<dealii::Point<3> > >::_Vector_impl"* %_M_impl13 to %"struct.std::_Vector_base<dealii::Point<3>, std::allocator<dealii::Point<3> > >::_Vector_impl_data"*, !dbg !10099
  %_M_finish = getelementptr inbounds %"struct.std::_Vector_base<dealii::Point<3>, std::allocator<dealii::Point<3> > >::_Vector_impl_data", %"struct.std::_Vector_base<dealii::Point<3>, std::allocator<dealii::Point<3> > >::_Vector_impl_data"* %13, i32 0, i32 1, !dbg !10100
  store %"class.dealii::Point"* %call12, %"class.dealii::Point"** %_M_finish, align 8, !dbg !10101
  ret void, !dbg !10102

lpad:                                             ; preds = %entry
  %14 = landingpad { i8*, i32 }
          cleanup, !dbg !10102
  %15 = extractvalue { i8*, i32 } %14, 0, !dbg !10102
  store i8* %15, i8** %exn.slot, align 8, !dbg !10102
  %16 = extractvalue { i8*, i32 } %14, 1, !dbg !10102
  store i32 %16, i32* %ehselector.slot, align 4, !dbg !10102
  call void @_ZNSaIN6dealii5PointILi3EEEED2Ev(%"class.std::allocator.22"* %ref.tmp) #4, !dbg !10087
  br label %eh.resume, !dbg !10087

lpad10:                                           ; preds = %invoke.cont
  %17 = landingpad { i8*, i32 }
          cleanup, !dbg !10103
  %18 = extractvalue { i8*, i32 } %17, 0, !dbg !10103
  store i8* %18, i8** %exn.slot, align 8, !dbg !10103
  %19 = extractvalue { i8*, i32 } %17, 1, !dbg !10103
  store i32 %19, i32* %ehselector.slot, align 4, !dbg !10103
  %20 = bitcast %"class.std::vector.20"* %this1 to %"struct.std::_Vector_base.21"*, !dbg !10103
  call void @_ZNSt12_Vector_baseIN6dealii5PointILi3EEESaIS2_EED2Ev(%"struct.std::_Vector_base.21"* %20) #4, !dbg !10103
  br label %eh.resume, !dbg !10103

eh.resume:                                        ; preds = %lpad10, %lpad
  %exn = load i8*, i8** %exn.slot, align 8, !dbg !10087
  %sel = load i32, i32* %ehselector.slot, align 4, !dbg !10087
  %lpad.val = insertvalue { i8*, i32 } undef, i8* %exn, 0, !dbg !10087
  %lpad.val14 = insertvalue { i8*, i32 } %lpad.val, i32 %sel, 1, !dbg !10087
  resume { i8*, i32 } %lpad.val14, !dbg !10087
}

; Function Attrs: noinline uwtable
define linkonce_odr dso_local void @_ZNSt6vectorIN6dealii5PointILi2EEESaIS2_EEC2ERKS4_(%"class.std::vector.25"* %this, %"class.std::vector.25"* dereferenceable(24) %__x) unnamed_addr #0 comdat align 2 personality i8* bitcast (i32 (...)* @__gxx_personality_v0 to i8*) !dbg !10104 {
entry:
  %this.addr = alloca %"class.std::vector.25"*, align 8
  %__x.addr = alloca %"class.std::vector.25"*, align 8
  %ref.tmp = alloca %"class.std::allocator.27", align 1
  %exn.slot = alloca i8*
  %ehselector.slot = alloca i32
  %agg.tmp = alloca %"class.__gnu_cxx::__normal_iterator.93", align 8
  %agg.tmp4 = alloca %"class.__gnu_cxx::__normal_iterator.93", align 8
  store %"class.std::vector.25"* %this, %"class.std::vector.25"** %this.addr, align 8
  call void @llvm.dbg.declare(metadata %"class.std::vector.25"** %this.addr, metadata !10105, metadata !DIExpression()), !dbg !10107
  store %"class.std::vector.25"* %__x, %"class.std::vector.25"** %__x.addr, align 8
  call void @llvm.dbg.declare(metadata %"class.std::vector.25"** %__x.addr, metadata !10108, metadata !DIExpression()), !dbg !10109
  %this1 = load %"class.std::vector.25"*, %"class.std::vector.25"** %this.addr, align 8
  %0 = bitcast %"class.std::vector.25"* %this1 to %"struct.std::_Vector_base.26"*, !dbg !10110
  %1 = load %"class.std::vector.25"*, %"class.std::vector.25"** %__x.addr, align 8, !dbg !10111
  %call = call i64 @_ZNKSt6vectorIN6dealii5PointILi2EEESaIS2_EE4sizeEv(%"class.std::vector.25"* %1) #4, !dbg !10112
  %2 = load %"class.std::vector.25"*, %"class.std::vector.25"** %__x.addr, align 8, !dbg !10113
  %3 = bitcast %"class.std::vector.25"* %2 to %"struct.std::_Vector_base.26"*, !dbg !10113
  %call2 = call dereferenceable(1) %"class.std::allocator.27"* @_ZNKSt12_Vector_baseIN6dealii5PointILi2EEESaIS2_EE19_M_get_Tp_allocatorEv(%"struct.std::_Vector_base.26"* %3) #4, !dbg !10114
  call void @_ZN9__gnu_cxx14__alloc_traitsISaIN6dealii5PointILi2EEEES3_E17_S_select_on_copyERKS4_(%"class.std::allocator.27"* sret %ref.tmp, %"class.std::allocator.27"* dereferenceable(1) %call2), !dbg !10115
  invoke void @_ZNSt12_Vector_baseIN6dealii5PointILi2EEESaIS2_EEC2EmRKS3_(%"struct.std::_Vector_base.26"* %0, i64 %call, %"class.std::allocator.27"* dereferenceable(1) %ref.tmp)
          to label %invoke.cont unwind label %lpad, !dbg !10116

invoke.cont:                                      ; preds = %entry
  call void @_ZNSaIN6dealii5PointILi2EEEED2Ev(%"class.std::allocator.27"* %ref.tmp) #4, !dbg !10116
  %4 = load %"class.std::vector.25"*, %"class.std::vector.25"** %__x.addr, align 8, !dbg !10117
  %call3 = call %"class.dealii::Point.30"* @_ZNKSt6vectorIN6dealii5PointILi2EEESaIS2_EE5beginEv(%"class.std::vector.25"* %4) #4, !dbg !10119
  %coerce.dive = getelementptr inbounds %"class.__gnu_cxx::__normal_iterator.93", %"class.__gnu_cxx::__normal_iterator.93"* %agg.tmp, i32 0, i32 0, !dbg !10119
  store %"class.dealii::Point.30"* %call3, %"class.dealii::Point.30"** %coerce.dive, align 8, !dbg !10119
  %5 = load %"class.std::vector.25"*, %"class.std::vector.25"** %__x.addr, align 8, !dbg !10120
  %call5 = call %"class.dealii::Point.30"* @_ZNKSt6vectorIN6dealii5PointILi2EEESaIS2_EE3endEv(%"class.std::vector.25"* %5) #4, !dbg !10121
  %coerce.dive6 = getelementptr inbounds %"class.__gnu_cxx::__normal_iterator.93", %"class.__gnu_cxx::__normal_iterator.93"* %agg.tmp4, i32 0, i32 0, !dbg !10121
  store %"class.dealii::Point.30"* %call5, %"class.dealii::Point.30"** %coerce.dive6, align 8, !dbg !10121
  %6 = bitcast %"class.std::vector.25"* %this1 to %"struct.std::_Vector_base.26"*, !dbg !10122
  %_M_impl = getelementptr inbounds %"struct.std::_Vector_base.26", %"struct.std::_Vector_base.26"* %6, i32 0, i32 0, !dbg !10122
  %7 = bitcast %"struct.std::_Vector_base<dealii::Point<2>, std::allocator<dealii::Point<2> > >::_Vector_impl"* %_M_impl to %"struct.std::_Vector_base<dealii::Point<2>, std::allocator<dealii::Point<2> > >::_Vector_impl_data"*, !dbg !10123
  %_M_start = getelementptr inbounds %"struct.std::_Vector_base<dealii::Point<2>, std::allocator<dealii::Point<2> > >::_Vector_impl_data", %"struct.std::_Vector_base<dealii::Point<2>, std::allocator<dealii::Point<2> > >::_Vector_impl_data"* %7, i32 0, i32 0, !dbg !10124
  %8 = load %"class.dealii::Point.30"*, %"class.dealii::Point.30"** %_M_start, align 8, !dbg !10124
  %9 = bitcast %"class.std::vector.25"* %this1 to %"struct.std::_Vector_base.26"*, !dbg !10125
  %call7 = call dereferenceable(1) %"class.std::allocator.27"* @_ZNSt12_Vector_baseIN6dealii5PointILi2EEESaIS2_EE19_M_get_Tp_allocatorEv(%"struct.std::_Vector_base.26"* %9) #4, !dbg !10125
  %coerce.dive8 = getelementptr inbounds %"class.__gnu_cxx::__normal_iterator.93", %"class.__gnu_cxx::__normal_iterator.93"* %agg.tmp, i32 0, i32 0, !dbg !10126
  %10 = load %"class.dealii::Point.30"*, %"class.dealii::Point.30"** %coerce.dive8, align 8, !dbg !10126
  %coerce.dive9 = getelementptr inbounds %"class.__gnu_cxx::__normal_iterator.93", %"class.__gnu_cxx::__normal_iterator.93"* %agg.tmp4, i32 0, i32 0, !dbg !10126
  %11 = load %"class.dealii::Point.30"*, %"class.dealii::Point.30"** %coerce.dive9, align 8, !dbg !10126
  %call12 = invoke %"class.dealii::Point.30"* @_ZSt22__uninitialized_copy_aIN9__gnu_cxx17__normal_iteratorIPKN6dealii5PointILi2EEESt6vectorIS4_SaIS4_EEEEPS4_S4_ET0_T_SD_SC_RSaIT1_E(%"class.dealii::Point.30"* %10, %"class.dealii::Point.30"* %11, %"class.dealii::Point.30"* %8, %"class.std::allocator.27"* dereferenceable(1) %call7)
          to label %invoke.cont11 unwind label %lpad10, !dbg !10126

invoke.cont11:                                    ; preds = %invoke.cont
  %12 = bitcast %"class.std::vector.25"* %this1 to %"struct.std::_Vector_base.26"*, !dbg !10127
  %_M_impl13 = getelementptr inbounds %"struct.std::_Vector_base.26", %"struct.std::_Vector_base.26"* %12, i32 0, i32 0, !dbg !10127
  %13 = bitcast %"struct.std::_Vector_base<dealii::Point<2>, std::allocator<dealii::Point<2> > >::_Vector_impl"* %_M_impl13 to %"struct.std::_Vector_base<dealii::Point<2>, std::allocator<dealii::Point<2> > >::_Vector_impl_data"*, !dbg !10128
  %_M_finish = getelementptr inbounds %"struct.std::_Vector_base<dealii::Point<2>, std::allocator<dealii::Point<2> > >::_Vector_impl_data", %"struct.std::_Vector_base<dealii::Point<2>, std::allocator<dealii::Point<2> > >::_Vector_impl_data"* %13, i32 0, i32 1, !dbg !10129
  store %"class.dealii::Point.30"* %call12, %"class.dealii::Point.30"** %_M_finish, align 8, !dbg !10130
  ret void, !dbg !10131

lpad:                                             ; preds = %entry
  %14 = landingpad { i8*, i32 }
          cleanup, !dbg !10131
  %15 = extractvalue { i8*, i32 } %14, 0, !dbg !10131
  store i8* %15, i8** %exn.slot, align 8, !dbg !10131
  %16 = extractvalue { i8*, i32 } %14, 1, !dbg !10131
  store i32 %16, i32* %ehselector.slot, align 4, !dbg !10131
  call void @_ZNSaIN6dealii5PointILi2EEEED2Ev(%"class.std::allocator.27"* %ref.tmp) #4, !dbg !10116
  br label %eh.resume, !dbg !10116

lpad10:                                           ; preds = %invoke.cont
  %17 = landingpad { i8*, i32 }
          cleanup, !dbg !10132
  %18 = extractvalue { i8*, i32 } %17, 0, !dbg !10132
  store i8* %18, i8** %exn.slot, align 8, !dbg !10132
  %19 = extractvalue { i8*, i32 } %17, 1, !dbg !10132
  store i32 %19, i32* %ehselector.slot, align 4, !dbg !10132
  %20 = bitcast %"class.std::vector.25"* %this1 to %"struct.std::_Vector_base.26"*, !dbg !10132
  call void @_ZNSt12_Vector_baseIN6dealii5PointILi2EEESaIS2_EED2Ev(%"struct.std::_Vector_base.26"* %20) #4, !dbg !10132
  br label %eh.resume, !dbg !10132

eh.resume:                                        ; preds = %lpad10, %lpad
  %exn = load i8*, i8** %exn.slot, align 8, !dbg !10116
  %sel = load i32, i32* %ehselector.slot, align 4, !dbg !10116
  %lpad.val = insertvalue { i8*, i32 } undef, i8* %exn, 0, !dbg !10116
  %lpad.val14 = insertvalue { i8*, i32 } %lpad.val, i32 %sel, 1, !dbg !10116
  resume { i8*, i32 } %lpad.val14, !dbg !10116
}

; Function Attrs: noinline uwtable
define linkonce_odr dso_local void @_ZN6dealii5TableILi2EiEC2ERKS1_(%"class.dealii::Table.32"* %this, %"class.dealii::Table.32"* dereferenceable(96) %0) unnamed_addr #0 comdat align 2 !dbg !10133 {
entry:
  %this.addr = alloca %"class.dealii::Table.32"*, align 8
  %.addr = alloca %"class.dealii::Table.32"*, align 8
  store %"class.dealii::Table.32"* %this, %"class.dealii::Table.32"** %this.addr, align 8
  call void @llvm.dbg.declare(metadata %"class.dealii::Table.32"** %this.addr, metadata !10138, metadata !DIExpression()), !dbg !10140
  store %"class.dealii::Table.32"* %0, %"class.dealii::Table.32"** %.addr, align 8
  call void @llvm.dbg.declare(metadata %"class.dealii::Table.32"** %.addr, metadata !10141, metadata !DIExpression()), !dbg !10140
  %this1 = load %"class.dealii::Table.32"*, %"class.dealii::Table.32"** %this.addr, align 8
  %1 = bitcast %"class.dealii::Table.32"* %this1 to %"class.dealii::TableBase.33"*, !dbg !10142
  %2 = load %"class.dealii::Table.32"*, %"class.dealii::Table.32"** %.addr, align 8, !dbg !10142
  %3 = bitcast %"class.dealii::Table.32"* %2 to %"class.dealii::TableBase.33"*, !dbg !10142
  call void @_ZN6dealii9TableBaseILi2EiEC2ERKS1_(%"class.dealii::TableBase.33"* %1, %"class.dealii::TableBase.33"* dereferenceable(96) %3), !dbg !10142
  %4 = bitcast %"class.dealii::Table.32"* %this1 to i32 (...)***, !dbg !10142
  store i32 (...)** bitcast (i8** getelementptr inbounds ({ [4 x i8*] }, { [4 x i8*] }* @_ZTVN6dealii5TableILi2EiEE, i32 0, inrange i32 0, i32 2) to i32 (...)**), i32 (...)*** %4, align 8, !dbg !10142
  ret void, !dbg !10142
}

; Function Attrs: noinline uwtable
define linkonce_odr dso_local void @_ZNSt6vectorIiSaIiEEC2ERKS1_(%"class.std::vector.36"* %this, %"class.std::vector.36"* dereferenceable(24) %__x) unnamed_addr #0 comdat align 2 personality i8* bitcast (i32 (...)* @__gxx_personality_v0 to i8*) !dbg !10143 {
entry:
  %this.addr = alloca %"class.std::vector.36"*, align 8
  %__x.addr = alloca %"class.std::vector.36"*, align 8
  %ref.tmp = alloca %"class.std::allocator.38", align 1
  %exn.slot = alloca i8*
  %ehselector.slot = alloca i32
  %agg.tmp = alloca %"class.__gnu_cxx::__normal_iterator.94", align 8
  %agg.tmp4 = alloca %"class.__gnu_cxx::__normal_iterator.94", align 8
  store %"class.std::vector.36"* %this, %"class.std::vector.36"** %this.addr, align 8
  call void @llvm.dbg.declare(metadata %"class.std::vector.36"** %this.addr, metadata !10144, metadata !DIExpression()), !dbg !10146
  store %"class.std::vector.36"* %__x, %"class.std::vector.36"** %__x.addr, align 8
  call void @llvm.dbg.declare(metadata %"class.std::vector.36"** %__x.addr, metadata !10147, metadata !DIExpression()), !dbg !10148
  %this1 = load %"class.std::vector.36"*, %"class.std::vector.36"** %this.addr, align 8
  %0 = bitcast %"class.std::vector.36"* %this1 to %"struct.std::_Vector_base.37"*, !dbg !10149
  %1 = load %"class.std::vector.36"*, %"class.std::vector.36"** %__x.addr, align 8, !dbg !10150
  %call = call i64 @_ZNKSt6vectorIiSaIiEE4sizeEv(%"class.std::vector.36"* %1) #4, !dbg !10151
  %2 = load %"class.std::vector.36"*, %"class.std::vector.36"** %__x.addr, align 8, !dbg !10152
  %3 = bitcast %"class.std::vector.36"* %2 to %"struct.std::_Vector_base.37"*, !dbg !10152
  %call2 = call dereferenceable(1) %"class.std::allocator.38"* @_ZNKSt12_Vector_baseIiSaIiEE19_M_get_Tp_allocatorEv(%"struct.std::_Vector_base.37"* %3) #4, !dbg !10153
  call void @_ZN9__gnu_cxx14__alloc_traitsISaIiEiE17_S_select_on_copyERKS1_(%"class.std::allocator.38"* sret %ref.tmp, %"class.std::allocator.38"* dereferenceable(1) %call2), !dbg !10154
  invoke void @_ZNSt12_Vector_baseIiSaIiEEC2EmRKS0_(%"struct.std::_Vector_base.37"* %0, i64 %call, %"class.std::allocator.38"* dereferenceable(1) %ref.tmp)
          to label %invoke.cont unwind label %lpad, !dbg !10155

invoke.cont:                                      ; preds = %entry
  call void @_ZNSaIiED2Ev(%"class.std::allocator.38"* %ref.tmp) #4, !dbg !10155
  %4 = load %"class.std::vector.36"*, %"class.std::vector.36"** %__x.addr, align 8, !dbg !10156
  %call3 = call i32* @_ZNKSt6vectorIiSaIiEE5beginEv(%"class.std::vector.36"* %4) #4, !dbg !10158
  %coerce.dive = getelementptr inbounds %"class.__gnu_cxx::__normal_iterator.94", %"class.__gnu_cxx::__normal_iterator.94"* %agg.tmp, i32 0, i32 0, !dbg !10158
  store i32* %call3, i32** %coerce.dive, align 8, !dbg !10158
  %5 = load %"class.std::vector.36"*, %"class.std::vector.36"** %__x.addr, align 8, !dbg !10159
  %call5 = call i32* @_ZNKSt6vectorIiSaIiEE3endEv(%"class.std::vector.36"* %5) #4, !dbg !10160
  %coerce.dive6 = getelementptr inbounds %"class.__gnu_cxx::__normal_iterator.94", %"class.__gnu_cxx::__normal_iterator.94"* %agg.tmp4, i32 0, i32 0, !dbg !10160
  store i32* %call5, i32** %coerce.dive6, align 8, !dbg !10160
  %6 = bitcast %"class.std::vector.36"* %this1 to %"struct.std::_Vector_base.37"*, !dbg !10161
  %_M_impl = getelementptr inbounds %"struct.std::_Vector_base.37", %"struct.std::_Vector_base.37"* %6, i32 0, i32 0, !dbg !10161
  %7 = bitcast %"struct.std::_Vector_base<int, std::allocator<int> >::_Vector_impl"* %_M_impl to %"struct.std::_Vector_base<int, std::allocator<int> >::_Vector_impl_data"*, !dbg !10162
  %_M_start = getelementptr inbounds %"struct.std::_Vector_base<int, std::allocator<int> >::_Vector_impl_data", %"struct.std::_Vector_base<int, std::allocator<int> >::_Vector_impl_data"* %7, i32 0, i32 0, !dbg !10163
  %8 = load i32*, i32** %_M_start, align 8, !dbg !10163
  %9 = bitcast %"class.std::vector.36"* %this1 to %"struct.std::_Vector_base.37"*, !dbg !10164
  %call7 = call dereferenceable(1) %"class.std::allocator.38"* @_ZNSt12_Vector_baseIiSaIiEE19_M_get_Tp_allocatorEv(%"struct.std::_Vector_base.37"* %9) #4, !dbg !10164
  %coerce.dive8 = getelementptr inbounds %"class.__gnu_cxx::__normal_iterator.94", %"class.__gnu_cxx::__normal_iterator.94"* %agg.tmp, i32 0, i32 0, !dbg !10165
  %10 = load i32*, i32** %coerce.dive8, align 8, !dbg !10165
  %coerce.dive9 = getelementptr inbounds %"class.__gnu_cxx::__normal_iterator.94", %"class.__gnu_cxx::__normal_iterator.94"* %agg.tmp4, i32 0, i32 0, !dbg !10165
  %11 = load i32*, i32** %coerce.dive9, align 8, !dbg !10165
  %call12 = invoke i32* @_ZSt22__uninitialized_copy_aIN9__gnu_cxx17__normal_iteratorIPKiSt6vectorIiSaIiEEEEPiiET0_T_SA_S9_RSaIT1_E(i32* %10, i32* %11, i32* %8, %"class.std::allocator.38"* dereferenceable(1) %call7)
          to label %invoke.cont11 unwind label %lpad10, !dbg !10165

invoke.cont11:                                    ; preds = %invoke.cont
  %12 = bitcast %"class.std::vector.36"* %this1 to %"struct.std::_Vector_base.37"*, !dbg !10166
  %_M_impl13 = getelementptr inbounds %"struct.std::_Vector_base.37", %"struct.std::_Vector_base.37"* %12, i32 0, i32 0, !dbg !10166
  %13 = bitcast %"struct.std::_Vector_base<int, std::allocator<int> >::_Vector_impl"* %_M_impl13 to %"struct.std::_Vector_base<int, std::allocator<int> >::_Vector_impl_data"*, !dbg !10167
  %_M_finish = getelementptr inbounds %"struct.std::_Vector_base<int, std::allocator<int> >::_Vector_impl_data", %"struct.std::_Vector_base<int, std::allocator<int> >::_Vector_impl_data"* %13, i32 0, i32 1, !dbg !10168
  store i32* %call12, i32** %_M_finish, align 8, !dbg !10169
  ret void, !dbg !10170

lpad:                                             ; preds = %entry
  %14 = landingpad { i8*, i32 }
          cleanup, !dbg !10170
  %15 = extractvalue { i8*, i32 } %14, 0, !dbg !10170
  store i8* %15, i8** %exn.slot, align 8, !dbg !10170
  %16 = extractvalue { i8*, i32 } %14, 1, !dbg !10170
  store i32 %16, i32* %ehselector.slot, align 4, !dbg !10170
  call void @_ZNSaIiED2Ev(%"class.std::allocator.38"* %ref.tmp) #4, !dbg !10155
  br label %eh.resume, !dbg !10155

lpad10:                                           ; preds = %invoke.cont
  %17 = landingpad { i8*, i32 }
          cleanup, !dbg !10171
  %18 = extractvalue { i8*, i32 } %17, 0, !dbg !10171
  store i8* %18, i8** %exn.slot, align 8, !dbg !10171
  %19 = extractvalue { i8*, i32 } %17, 1, !dbg !10171
  store i32 %19, i32* %ehselector.slot, align 4, !dbg !10171
  %20 = bitcast %"class.std::vector.36"* %this1 to %"struct.std::_Vector_base.37"*, !dbg !10171
  call void @_ZNSt12_Vector_baseIiSaIiEED2Ev(%"struct.std::_Vector_base.37"* %20) #4, !dbg !10171
  br label %eh.resume, !dbg !10171

eh.resume:                                        ; preds = %lpad10, %lpad
  %exn = load i8*, i8** %exn.slot, align 8, !dbg !10155
  %sel = load i32, i32* %ehselector.slot, align 4, !dbg !10155
  %lpad.val = insertvalue { i8*, i32 } undef, i8* %exn, 0, !dbg !10155
  %lpad.val14 = insertvalue { i8*, i32 } %lpad.val, i32 %sel, 1, !dbg !10155
  resume { i8*, i32 } %lpad.val14, !dbg !10155
}

; Function Attrs: noinline uwtable
define linkonce_odr dso_local void @_ZNSt6vectorISt4pairIjjESaIS1_EEC2ERKS3_(%"class.std::vector.41"* %this, %"class.std::vector.41"* dereferenceable(24) %__x) unnamed_addr #0 comdat align 2 personality i8* bitcast (i32 (...)* @__gxx_personality_v0 to i8*) !dbg !10172 {
entry:
  %this.addr = alloca %"class.std::vector.41"*, align 8
  %__x.addr = alloca %"class.std::vector.41"*, align 8
  %ref.tmp = alloca %"class.std::allocator.43", align 1
  %exn.slot = alloca i8*
  %ehselector.slot = alloca i32
  %agg.tmp = alloca %"class.__gnu_cxx::__normal_iterator.95", align 8
  %agg.tmp4 = alloca %"class.__gnu_cxx::__normal_iterator.95", align 8
  store %"class.std::vector.41"* %this, %"class.std::vector.41"** %this.addr, align 8
  call void @llvm.dbg.declare(metadata %"class.std::vector.41"** %this.addr, metadata !10173, metadata !DIExpression()), !dbg !10174
  store %"class.std::vector.41"* %__x, %"class.std::vector.41"** %__x.addr, align 8
  call void @llvm.dbg.declare(metadata %"class.std::vector.41"** %__x.addr, metadata !10175, metadata !DIExpression()), !dbg !10176
  %this1 = load %"class.std::vector.41"*, %"class.std::vector.41"** %this.addr, align 8
  %0 = bitcast %"class.std::vector.41"* %this1 to %"struct.std::_Vector_base.42"*, !dbg !10177
  %1 = load %"class.std::vector.41"*, %"class.std::vector.41"** %__x.addr, align 8, !dbg !10178
  %call = call i64 @_ZNKSt6vectorISt4pairIjjESaIS1_EE4sizeEv(%"class.std::vector.41"* %1) #4, !dbg !10179
  %2 = load %"class.std::vector.41"*, %"class.std::vector.41"** %__x.addr, align 8, !dbg !10180
  %3 = bitcast %"class.std::vector.41"* %2 to %"struct.std::_Vector_base.42"*, !dbg !10180
  %call2 = call dereferenceable(1) %"class.std::allocator.43"* @_ZNKSt12_Vector_baseISt4pairIjjESaIS1_EE19_M_get_Tp_allocatorEv(%"struct.std::_Vector_base.42"* %3) #4, !dbg !10181
  call void @_ZN9__gnu_cxx14__alloc_traitsISaISt4pairIjjEES2_E17_S_select_on_copyERKS3_(%"class.std::allocator.43"* sret %ref.tmp, %"class.std::allocator.43"* dereferenceable(1) %call2), !dbg !10182
  invoke void @_ZNSt12_Vector_baseISt4pairIjjESaIS1_EEC2EmRKS2_(%"struct.std::_Vector_base.42"* %0, i64 %call, %"class.std::allocator.43"* dereferenceable(1) %ref.tmp)
          to label %invoke.cont unwind label %lpad, !dbg !10183

invoke.cont:                                      ; preds = %entry
  call void @_ZNSaISt4pairIjjEED2Ev(%"class.std::allocator.43"* %ref.tmp) #4, !dbg !10183
  %4 = load %"class.std::vector.41"*, %"class.std::vector.41"** %__x.addr, align 8, !dbg !10184
  %call3 = call %"struct.std::pair"* @_ZNKSt6vectorISt4pairIjjESaIS1_EE5beginEv(%"class.std::vector.41"* %4) #4, !dbg !10186
  %coerce.dive = getelementptr inbounds %"class.__gnu_cxx::__normal_iterator.95", %"class.__gnu_cxx::__normal_iterator.95"* %agg.tmp, i32 0, i32 0, !dbg !10186
  store %"struct.std::pair"* %call3, %"struct.std::pair"** %coerce.dive, align 8, !dbg !10186
  %5 = load %"class.std::vector.41"*, %"class.std::vector.41"** %__x.addr, align 8, !dbg !10187
  %call5 = call %"struct.std::pair"* @_ZNKSt6vectorISt4pairIjjESaIS1_EE3endEv(%"class.std::vector.41"* %5) #4, !dbg !10188
  %coerce.dive6 = getelementptr inbounds %"class.__gnu_cxx::__normal_iterator.95", %"class.__gnu_cxx::__normal_iterator.95"* %agg.tmp4, i32 0, i32 0, !dbg !10188
  store %"struct.std::pair"* %call5, %"struct.std::pair"** %coerce.dive6, align 8, !dbg !10188
  %6 = bitcast %"class.std::vector.41"* %this1 to %"struct.std::_Vector_base.42"*, !dbg !10189
  %_M_impl = getelementptr inbounds %"struct.std::_Vector_base.42", %"struct.std::_Vector_base.42"* %6, i32 0, i32 0, !dbg !10189
  %7 = bitcast %"struct.std::_Vector_base<std::pair<unsigned int, unsigned int>, std::allocator<std::pair<unsigned int, unsigned int> > >::_Vector_impl"* %_M_impl to %"struct.std::_Vector_base<std::pair<unsigned int, unsigned int>, std::allocator<std::pair<unsigned int, unsigned int> > >::_Vector_impl_data"*, !dbg !10190
  %_M_start = getelementptr inbounds %"struct.std::_Vector_base<std::pair<unsigned int, unsigned int>, std::allocator<std::pair<unsigned int, unsigned int> > >::_Vector_impl_data", %"struct.std::_Vector_base<std::pair<unsigned int, unsigned int>, std::allocator<std::pair<unsigned int, unsigned int> > >::_Vector_impl_data"* %7, i32 0, i32 0, !dbg !10191
  %8 = load %"struct.std::pair"*, %"struct.std::pair"** %_M_start, align 8, !dbg !10191
  %9 = bitcast %"class.std::vector.41"* %this1 to %"struct.std::_Vector_base.42"*, !dbg !10192
  %call7 = call dereferenceable(1) %"class.std::allocator.43"* @_ZNSt12_Vector_baseISt4pairIjjESaIS1_EE19_M_get_Tp_allocatorEv(%"struct.std::_Vector_base.42"* %9) #4, !dbg !10192
  %coerce.dive8 = getelementptr inbounds %"class.__gnu_cxx::__normal_iterator.95", %"class.__gnu_cxx::__normal_iterator.95"* %agg.tmp, i32 0, i32 0, !dbg !10193
  %10 = load %"struct.std::pair"*, %"struct.std::pair"** %coerce.dive8, align 8, !dbg !10193
  %coerce.dive9 = getelementptr inbounds %"class.__gnu_cxx::__normal_iterator.95", %"class.__gnu_cxx::__normal_iterator.95"* %agg.tmp4, i32 0, i32 0, !dbg !10193
  %11 = load %"struct.std::pair"*, %"struct.std::pair"** %coerce.dive9, align 8, !dbg !10193
  %call12 = invoke %"struct.std::pair"* @_ZSt22__uninitialized_copy_aIN9__gnu_cxx17__normal_iteratorIPKSt4pairIjjESt6vectorIS3_SaIS3_EEEEPS3_S3_ET0_T_SC_SB_RSaIT1_E(%"struct.std::pair"* %10, %"struct.std::pair"* %11, %"struct.std::pair"* %8, %"class.std::allocator.43"* dereferenceable(1) %call7)
          to label %invoke.cont11 unwind label %lpad10, !dbg !10193

invoke.cont11:                                    ; preds = %invoke.cont
  %12 = bitcast %"class.std::vector.41"* %this1 to %"struct.std::_Vector_base.42"*, !dbg !10194
  %_M_impl13 = getelementptr inbounds %"struct.std::_Vector_base.42", %"struct.std::_Vector_base.42"* %12, i32 0, i32 0, !dbg !10194
  %13 = bitcast %"struct.std::_Vector_base<std::pair<unsigned int, unsigned int>, std::allocator<std::pair<unsigned int, unsigned int> > >::_Vector_impl"* %_M_impl13 to %"struct.std::_Vector_base<std::pair<unsigned int, unsigned int>, std::allocator<std::pair<unsigned int, unsigned int> > >::_Vector_impl_data"*, !dbg !10195
  %_M_finish = getelementptr inbounds %"struct.std::_Vector_base<std::pair<unsigned int, unsigned int>, std::allocator<std::pair<unsigned int, unsigned int> > >::_Vector_impl_data", %"struct.std::_Vector_base<std::pair<unsigned int, unsigned int>, std::allocator<std::pair<unsigned int, unsigned int> > >::_Vector_impl_data"* %13, i32 0, i32 1, !dbg !10196
  store %"struct.std::pair"* %call12, %"struct.std::pair"** %_M_finish, align 8, !dbg !10197
  ret void, !dbg !10198

lpad:                                             ; preds = %entry
  %14 = landingpad { i8*, i32 }
          cleanup, !dbg !10198
  %15 = extractvalue { i8*, i32 } %14, 0, !dbg !10198
  store i8* %15, i8** %exn.slot, align 8, !dbg !10198
  %16 = extractvalue { i8*, i32 } %14, 1, !dbg !10198
  store i32 %16, i32* %ehselector.slot, align 4, !dbg !10198
  call void @_ZNSaISt4pairIjjEED2Ev(%"class.std::allocator.43"* %ref.tmp) #4, !dbg !10183
  br label %eh.resume, !dbg !10183

lpad10:                                           ; preds = %invoke.cont
  %17 = landingpad { i8*, i32 }
          cleanup, !dbg !10199
  %18 = extractvalue { i8*, i32 } %17, 0, !dbg !10199
  store i8* %18, i8** %exn.slot, align 8, !dbg !10199
  %19 = extractvalue { i8*, i32 } %17, 1, !dbg !10199
  store i32 %19, i32* %ehselector.slot, align 4, !dbg !10199
  %20 = bitcast %"class.std::vector.41"* %this1 to %"struct.std::_Vector_base.42"*, !dbg !10199
  call void @_ZNSt12_Vector_baseISt4pairIjjESaIS1_EED2Ev(%"struct.std::_Vector_base.42"* %20) #4, !dbg !10199
  br label %eh.resume, !dbg !10199

eh.resume:                                        ; preds = %lpad10, %lpad
  %exn = load i8*, i8** %exn.slot, align 8, !dbg !10183
  %sel = load i32, i32* %ehselector.slot, align 4, !dbg !10183
  %lpad.val = insertvalue { i8*, i32 } undef, i8* %exn, 0, !dbg !10183
  %lpad.val14 = insertvalue { i8*, i32 } %lpad.val, i32 %sel, 1, !dbg !10183
  resume { i8*, i32 } %lpad.val14, !dbg !10183
}

; Function Attrs: noinline uwtable
define linkonce_odr dso_local void @_ZNSt6vectorISt4pairIS0_IjjEjESaIS2_EEC2ERKS4_(%"class.std::vector.46"* %this, %"class.std::vector.46"* dereferenceable(24) %__x) unnamed_addr #0 comdat align 2 personality i8* bitcast (i32 (...)* @__gxx_personality_v0 to i8*) !dbg !10200 {
entry:
  %this.addr = alloca %"class.std::vector.46"*, align 8
  %__x.addr = alloca %"class.std::vector.46"*, align 8
  %ref.tmp = alloca %"class.std::allocator.48", align 1
  %exn.slot = alloca i8*
  %ehselector.slot = alloca i32
  %agg.tmp = alloca %"class.__gnu_cxx::__normal_iterator.96", align 8
  %agg.tmp4 = alloca %"class.__gnu_cxx::__normal_iterator.96", align 8
  store %"class.std::vector.46"* %this, %"class.std::vector.46"** %this.addr, align 8
  call void @llvm.dbg.declare(metadata %"class.std::vector.46"** %this.addr, metadata !10201, metadata !DIExpression()), !dbg !10203
  store %"class.std::vector.46"* %__x, %"class.std::vector.46"** %__x.addr, align 8
  call void @llvm.dbg.declare(metadata %"class.std::vector.46"** %__x.addr, metadata !10204, metadata !DIExpression()), !dbg !10205
  %this1 = load %"class.std::vector.46"*, %"class.std::vector.46"** %this.addr, align 8
  %0 = bitcast %"class.std::vector.46"* %this1 to %"struct.std::_Vector_base.47"*, !dbg !10206
  %1 = load %"class.std::vector.46"*, %"class.std::vector.46"** %__x.addr, align 8, !dbg !10207
  %call = call i64 @_ZNKSt6vectorISt4pairIS0_IjjEjESaIS2_EE4sizeEv(%"class.std::vector.46"* %1) #4, !dbg !10208
  %2 = load %"class.std::vector.46"*, %"class.std::vector.46"** %__x.addr, align 8, !dbg !10209
  %3 = bitcast %"class.std::vector.46"* %2 to %"struct.std::_Vector_base.47"*, !dbg !10209
  %call2 = call dereferenceable(1) %"class.std::allocator.48"* @_ZNKSt12_Vector_baseISt4pairIS0_IjjEjESaIS2_EE19_M_get_Tp_allocatorEv(%"struct.std::_Vector_base.47"* %3) #4, !dbg !10210
  call void @_ZN9__gnu_cxx14__alloc_traitsISaISt4pairIS1_IjjEjEES3_E17_S_select_on_copyERKS4_(%"class.std::allocator.48"* sret %ref.tmp, %"class.std::allocator.48"* dereferenceable(1) %call2), !dbg !10211
  invoke void @_ZNSt12_Vector_baseISt4pairIS0_IjjEjESaIS2_EEC2EmRKS3_(%"struct.std::_Vector_base.47"* %0, i64 %call, %"class.std::allocator.48"* dereferenceable(1) %ref.tmp)
          to label %invoke.cont unwind label %lpad, !dbg !10212

invoke.cont:                                      ; preds = %entry
  call void @_ZNSaISt4pairIS_IjjEjEED2Ev(%"class.std::allocator.48"* %ref.tmp) #4, !dbg !10212
  %4 = load %"class.std::vector.46"*, %"class.std::vector.46"** %__x.addr, align 8, !dbg !10213
  %call3 = call %"struct.std::pair.51"* @_ZNKSt6vectorISt4pairIS0_IjjEjESaIS2_EE5beginEv(%"class.std::vector.46"* %4) #4, !dbg !10215
  %coerce.dive = getelementptr inbounds %"class.__gnu_cxx::__normal_iterator.96", %"class.__gnu_cxx::__normal_iterator.96"* %agg.tmp, i32 0, i32 0, !dbg !10215
  store %"struct.std::pair.51"* %call3, %"struct.std::pair.51"** %coerce.dive, align 8, !dbg !10215
  %5 = load %"class.std::vector.46"*, %"class.std::vector.46"** %__x.addr, align 8, !dbg !10216
  %call5 = call %"struct.std::pair.51"* @_ZNKSt6vectorISt4pairIS0_IjjEjESaIS2_EE3endEv(%"class.std::vector.46"* %5) #4, !dbg !10217
  %coerce.dive6 = getelementptr inbounds %"class.__gnu_cxx::__normal_iterator.96", %"class.__gnu_cxx::__normal_iterator.96"* %agg.tmp4, i32 0, i32 0, !dbg !10217
  store %"struct.std::pair.51"* %call5, %"struct.std::pair.51"** %coerce.dive6, align 8, !dbg !10217
  %6 = bitcast %"class.std::vector.46"* %this1 to %"struct.std::_Vector_base.47"*, !dbg !10218
  %_M_impl = getelementptr inbounds %"struct.std::_Vector_base.47", %"struct.std::_Vector_base.47"* %6, i32 0, i32 0, !dbg !10218
  %7 = bitcast %"struct.std::_Vector_base<std::pair<std::pair<unsigned int, unsigned int>, unsigned int>, std::allocator<std::pair<std::pair<unsigned int, unsigned int>, unsigned int> > >::_Vector_impl"* %_M_impl to %"struct.std::_Vector_base<std::pair<std::pair<unsigned int, unsigned int>, unsigned int>, std::allocator<std::pair<std::pair<unsigned int, unsigned int>, unsigned int> > >::_Vector_impl_data"*, !dbg !10219
  %_M_start = getelementptr inbounds %"struct.std::_Vector_base<std::pair<std::pair<unsigned int, unsigned int>, unsigned int>, std::allocator<std::pair<std::pair<unsigned int, unsigned int>, unsigned int> > >::_Vector_impl_data", %"struct.std::_Vector_base<std::pair<std::pair<unsigned int, unsigned int>, unsigned int>, std::allocator<std::pair<std::pair<unsigned int, unsigned int>, unsigned int> > >::_Vector_impl_data"* %7, i32 0, i32 0, !dbg !10220
  %8 = load %"struct.std::pair.51"*, %"struct.std::pair.51"** %_M_start, align 8, !dbg !10220
  %9 = bitcast %"class.std::vector.46"* %this1 to %"struct.std::_Vector_base.47"*, !dbg !10221
  %call7 = call dereferenceable(1) %"class.std::allocator.48"* @_ZNSt12_Vector_baseISt4pairIS0_IjjEjESaIS2_EE19_M_get_Tp_allocatorEv(%"struct.std::_Vector_base.47"* %9) #4, !dbg !10221
  %coerce.dive8 = getelementptr inbounds %"class.__gnu_cxx::__normal_iterator.96", %"class.__gnu_cxx::__normal_iterator.96"* %agg.tmp, i32 0, i32 0, !dbg !10222
  %10 = load %"struct.std::pair.51"*, %"struct.std::pair.51"** %coerce.dive8, align 8, !dbg !10222
  %coerce.dive9 = getelementptr inbounds %"class.__gnu_cxx::__normal_iterator.96", %"class.__gnu_cxx::__normal_iterator.96"* %agg.tmp4, i32 0, i32 0, !dbg !10222
  %11 = load %"struct.std::pair.51"*, %"struct.std::pair.51"** %coerce.dive9, align 8, !dbg !10222
  %call12 = invoke %"struct.std::pair.51"* @_ZSt22__uninitialized_copy_aIN9__gnu_cxx17__normal_iteratorIPKSt4pairIS2_IjjEjESt6vectorIS4_SaIS4_EEEEPS4_S4_ET0_T_SD_SC_RSaIT1_E(%"struct.std::pair.51"* %10, %"struct.std::pair.51"* %11, %"struct.std::pair.51"* %8, %"class.std::allocator.48"* dereferenceable(1) %call7)
          to label %invoke.cont11 unwind label %lpad10, !dbg !10222

invoke.cont11:                                    ; preds = %invoke.cont
  %12 = bitcast %"class.std::vector.46"* %this1 to %"struct.std::_Vector_base.47"*, !dbg !10223
  %_M_impl13 = getelementptr inbounds %"struct.std::_Vector_base.47", %"struct.std::_Vector_base.47"* %12, i32 0, i32 0, !dbg !10223
  %13 = bitcast %"struct.std::_Vector_base<std::pair<std::pair<unsigned int, unsigned int>, unsigned int>, std::allocator<std::pair<std::pair<unsigned int, unsigned int>, unsigned int> > >::_Vector_impl"* %_M_impl13 to %"struct.std::_Vector_base<std::pair<std::pair<unsigned int, unsigned int>, unsigned int>, std::allocator<std::pair<std::pair<unsigned int, unsigned int>, unsigned int> > >::_Vector_impl_data"*, !dbg !10224
  %_M_finish = getelementptr inbounds %"struct.std::_Vector_base<std::pair<std::pair<unsigned int, unsigned int>, unsigned int>, std::allocator<std::pair<std::pair<unsigned int, unsigned int>, unsigned int> > >::_Vector_impl_data", %"struct.std::_Vector_base<std::pair<std::pair<unsigned int, unsigned int>, unsigned int>, std::allocator<std::pair<std::pair<unsigned int, unsigned int>, unsigned int> > >::_Vector_impl_data"* %13, i32 0, i32 1, !dbg !10225
  store %"struct.std::pair.51"* %call12, %"struct.std::pair.51"** %_M_finish, align 8, !dbg !10226
  ret void, !dbg !10227

lpad:                                             ; preds = %entry
  %14 = landingpad { i8*, i32 }
          cleanup, !dbg !10227
  %15 = extractvalue { i8*, i32 } %14, 0, !dbg !10227
  store i8* %15, i8** %exn.slot, align 8, !dbg !10227
  %16 = extractvalue { i8*, i32 } %14, 1, !dbg !10227
  store i32 %16, i32* %ehselector.slot, align 4, !dbg !10227
  call void @_ZNSaISt4pairIS_IjjEjEED2Ev(%"class.std::allocator.48"* %ref.tmp) #4, !dbg !10212
  br label %eh.resume, !dbg !10212

lpad10:                                           ; preds = %invoke.cont
  %17 = landingpad { i8*, i32 }
          cleanup, !dbg !10228
  %18 = extractvalue { i8*, i32 } %17, 0, !dbg !10228
  store i8* %18, i8** %exn.slot, align 8, !dbg !10228
  %19 = extractvalue { i8*, i32 } %17, 1, !dbg !10228
  store i32 %19, i32* %ehselector.slot, align 4, !dbg !10228
  %20 = bitcast %"class.std::vector.46"* %this1 to %"struct.std::_Vector_base.47"*, !dbg !10228
  call void @_ZNSt12_Vector_baseISt4pairIS0_IjjEjESaIS2_EED2Ev(%"struct.std::_Vector_base.47"* %20) #4, !dbg !10228
  br label %eh.resume, !dbg !10228

eh.resume:                                        ; preds = %lpad10, %lpad
  %exn = load i8*, i8** %exn.slot, align 8, !dbg !10212
  %sel = load i32, i32* %ehselector.slot, align 4, !dbg !10212
  %lpad.val = insertvalue { i8*, i32 } undef, i8* %exn, 0, !dbg !10212
  %lpad.val14 = insertvalue { i8*, i32 } %lpad.val, i32 %sel, 1, !dbg !10212
  resume { i8*, i32 } %lpad.val14, !dbg !10212
}

; Function Attrs: noinline uwtable
define linkonce_odr dso_local void @_ZNSt6vectorIjSaIjEEC2ERKS1_(%"class.std::vector.54"* %this, %"class.std::vector.54"* dereferenceable(24) %__x) unnamed_addr #0 comdat align 2 personality i8* bitcast (i32 (...)* @__gxx_personality_v0 to i8*) !dbg !10229 {
entry:
  %this.addr = alloca %"class.std::vector.54"*, align 8
  %__x.addr = alloca %"class.std::vector.54"*, align 8
  %ref.tmp = alloca %"class.std::allocator.56", align 1
  %exn.slot = alloca i8*
  %ehselector.slot = alloca i32
  %agg.tmp = alloca %"class.__gnu_cxx::__normal_iterator.97", align 8
  %agg.tmp4 = alloca %"class.__gnu_cxx::__normal_iterator.97", align 8
  store %"class.std::vector.54"* %this, %"class.std::vector.54"** %this.addr, align 8
  call void @llvm.dbg.declare(metadata %"class.std::vector.54"** %this.addr, metadata !10230, metadata !DIExpression()), !dbg !10231
  store %"class.std::vector.54"* %__x, %"class.std::vector.54"** %__x.addr, align 8
  call void @llvm.dbg.declare(metadata %"class.std::vector.54"** %__x.addr, metadata !10232, metadata !DIExpression()), !dbg !10233
  %this1 = load %"class.std::vector.54"*, %"class.std::vector.54"** %this.addr, align 8
  %0 = bitcast %"class.std::vector.54"* %this1 to %"struct.std::_Vector_base.55"*, !dbg !10234
  %1 = load %"class.std::vector.54"*, %"class.std::vector.54"** %__x.addr, align 8, !dbg !10235
  %call = call i64 @_ZNKSt6vectorIjSaIjEE4sizeEv(%"class.std::vector.54"* %1) #4, !dbg !10236
  %2 = load %"class.std::vector.54"*, %"class.std::vector.54"** %__x.addr, align 8, !dbg !10237
  %3 = bitcast %"class.std::vector.54"* %2 to %"struct.std::_Vector_base.55"*, !dbg !10237
  %call2 = call dereferenceable(1) %"class.std::allocator.56"* @_ZNKSt12_Vector_baseIjSaIjEE19_M_get_Tp_allocatorEv(%"struct.std::_Vector_base.55"* %3) #4, !dbg !10238
  call void @_ZN9__gnu_cxx14__alloc_traitsISaIjEjE17_S_select_on_copyERKS1_(%"class.std::allocator.56"* sret %ref.tmp, %"class.std::allocator.56"* dereferenceable(1) %call2), !dbg !10239
  invoke void @_ZNSt12_Vector_baseIjSaIjEEC2EmRKS0_(%"struct.std::_Vector_base.55"* %0, i64 %call, %"class.std::allocator.56"* dereferenceable(1) %ref.tmp)
          to label %invoke.cont unwind label %lpad, !dbg !10240

invoke.cont:                                      ; preds = %entry
  call void @_ZNSaIjED2Ev(%"class.std::allocator.56"* %ref.tmp) #4, !dbg !10240
  %4 = load %"class.std::vector.54"*, %"class.std::vector.54"** %__x.addr, align 8, !dbg !10241
  %call3 = call i32* @_ZNKSt6vectorIjSaIjEE5beginEv(%"class.std::vector.54"* %4) #4, !dbg !10243
  %coerce.dive = getelementptr inbounds %"class.__gnu_cxx::__normal_iterator.97", %"class.__gnu_cxx::__normal_iterator.97"* %agg.tmp, i32 0, i32 0, !dbg !10243
  store i32* %call3, i32** %coerce.dive, align 8, !dbg !10243
  %5 = load %"class.std::vector.54"*, %"class.std::vector.54"** %__x.addr, align 8, !dbg !10244
  %call5 = call i32* @_ZNKSt6vectorIjSaIjEE3endEv(%"class.std::vector.54"* %5) #4, !dbg !10245
  %coerce.dive6 = getelementptr inbounds %"class.__gnu_cxx::__normal_iterator.97", %"class.__gnu_cxx::__normal_iterator.97"* %agg.tmp4, i32 0, i32 0, !dbg !10245
  store i32* %call5, i32** %coerce.dive6, align 8, !dbg !10245
  %6 = bitcast %"class.std::vector.54"* %this1 to %"struct.std::_Vector_base.55"*, !dbg !10246
  %_M_impl = getelementptr inbounds %"struct.std::_Vector_base.55", %"struct.std::_Vector_base.55"* %6, i32 0, i32 0, !dbg !10246
  %7 = bitcast %"struct.std::_Vector_base<unsigned int, std::allocator<unsigned int> >::_Vector_impl"* %_M_impl to %"struct.std::_Vector_base<unsigned int, std::allocator<unsigned int> >::_Vector_impl_data"*, !dbg !10247
  %_M_start = getelementptr inbounds %"struct.std::_Vector_base<unsigned int, std::allocator<unsigned int> >::_Vector_impl_data", %"struct.std::_Vector_base<unsigned int, std::allocator<unsigned int> >::_Vector_impl_data"* %7, i32 0, i32 0, !dbg !10248
  %8 = load i32*, i32** %_M_start, align 8, !dbg !10248
  %9 = bitcast %"class.std::vector.54"* %this1 to %"struct.std::_Vector_base.55"*, !dbg !10249
  %call7 = call dereferenceable(1) %"class.std::allocator.56"* @_ZNSt12_Vector_baseIjSaIjEE19_M_get_Tp_allocatorEv(%"struct.std::_Vector_base.55"* %9) #4, !dbg !10249
  %coerce.dive8 = getelementptr inbounds %"class.__gnu_cxx::__normal_iterator.97", %"class.__gnu_cxx::__normal_iterator.97"* %agg.tmp, i32 0, i32 0, !dbg !10250
  %10 = load i32*, i32** %coerce.dive8, align 8, !dbg !10250
  %coerce.dive9 = getelementptr inbounds %"class.__gnu_cxx::__normal_iterator.97", %"class.__gnu_cxx::__normal_iterator.97"* %agg.tmp4, i32 0, i32 0, !dbg !10250
  %11 = load i32*, i32** %coerce.dive9, align 8, !dbg !10250
  %call12 = invoke i32* @_ZSt22__uninitialized_copy_aIN9__gnu_cxx17__normal_iteratorIPKjSt6vectorIjSaIjEEEEPjjET0_T_SA_S9_RSaIT1_E(i32* %10, i32* %11, i32* %8, %"class.std::allocator.56"* dereferenceable(1) %call7)
          to label %invoke.cont11 unwind label %lpad10, !dbg !10250

invoke.cont11:                                    ; preds = %invoke.cont
  %12 = bitcast %"class.std::vector.54"* %this1 to %"struct.std::_Vector_base.55"*, !dbg !10251
  %_M_impl13 = getelementptr inbounds %"struct.std::_Vector_base.55", %"struct.std::_Vector_base.55"* %12, i32 0, i32 0, !dbg !10251
  %13 = bitcast %"struct.std::_Vector_base<unsigned int, std::allocator<unsigned int> >::_Vector_impl"* %_M_impl13 to %"struct.std::_Vector_base<unsigned int, std::allocator<unsigned int> >::_Vector_impl_data"*, !dbg !10252
  %_M_finish = getelementptr inbounds %"struct.std::_Vector_base<unsigned int, std::allocator<unsigned int> >::_Vector_impl_data", %"struct.std::_Vector_base<unsigned int, std::allocator<unsigned int> >::_Vector_impl_data"* %13, i32 0, i32 1, !dbg !10253
  store i32* %call12, i32** %_M_finish, align 8, !dbg !10254
  ret void, !dbg !10255

lpad:                                             ; preds = %entry
  %14 = landingpad { i8*, i32 }
          cleanup, !dbg !10255
  %15 = extractvalue { i8*, i32 } %14, 0, !dbg !10255
  store i8* %15, i8** %exn.slot, align 8, !dbg !10255
  %16 = extractvalue { i8*, i32 } %14, 1, !dbg !10255
  store i32 %16, i32* %ehselector.slot, align 4, !dbg !10255
  call void @_ZNSaIjED2Ev(%"class.std::allocator.56"* %ref.tmp) #4, !dbg !10240
  br label %eh.resume, !dbg !10240

lpad10:                                           ; preds = %invoke.cont
  %17 = landingpad { i8*, i32 }
          cleanup, !dbg !10256
  %18 = extractvalue { i8*, i32 } %17, 0, !dbg !10256
  store i8* %18, i8** %exn.slot, align 8, !dbg !10256
  %19 = extractvalue { i8*, i32 } %17, 1, !dbg !10256
  store i32 %19, i32* %ehselector.slot, align 4, !dbg !10256
  %20 = bitcast %"class.std::vector.54"* %this1 to %"struct.std::_Vector_base.55"*, !dbg !10256
  call void @_ZNSt12_Vector_baseIjSaIjEED2Ev(%"struct.std::_Vector_base.55"* %20) #4, !dbg !10256
  br label %eh.resume, !dbg !10256

eh.resume:                                        ; preds = %lpad10, %lpad
  %exn = load i8*, i8** %exn.slot, align 8, !dbg !10240
  %sel = load i32, i32* %ehselector.slot, align 4, !dbg !10240
  %lpad.val = insertvalue { i8*, i32 } undef, i8* %exn, 0, !dbg !10240
  %lpad.val14 = insertvalue { i8*, i32 } %lpad.val, i32 %sel, 1, !dbg !10240
  resume { i8*, i32 } %lpad.val14, !dbg !10240
}

; Function Attrs: noinline uwtable
define linkonce_odr dso_local void @_ZNSt6vectorIbSaIbEEC2ERKS1_(%"class.std::vector.59"* %this, %"class.std::vector.59"* dereferenceable(40) %__x) unnamed_addr #0 comdat align 2 personality i8* bitcast (i32 (...)* @__gxx_personality_v0 to i8*) !dbg !10257 {
entry:
  %this.addr = alloca %"class.std::vector.59"*, align 8
  %__x.addr = alloca %"class.std::vector.59"*, align 8
  %ref.tmp = alloca %"class.std::allocator.78", align 1
  %ref.tmp2 = alloca %"class.std::allocator.60", align 1
  %exn.slot = alloca i8*
  %ehselector.slot = alloca i32
  %agg.tmp = alloca %"struct.std::_Bit_const_iterator", align 8
  %agg.tmp7 = alloca %"struct.std::_Bit_const_iterator", align 8
  %agg.tmp9 = alloca %"struct.std::_Bit_iterator", align 8
  %coerce = alloca %"struct.std::_Bit_iterator", align 8
  store %"class.std::vector.59"* %this, %"class.std::vector.59"** %this.addr, align 8
  call void @llvm.dbg.declare(metadata %"class.std::vector.59"** %this.addr, metadata !10258, metadata !DIExpression()), !dbg !10259
  store %"class.std::vector.59"* %__x, %"class.std::vector.59"** %__x.addr, align 8
  call void @llvm.dbg.declare(metadata %"class.std::vector.59"** %__x.addr, metadata !10260, metadata !DIExpression()), !dbg !10261
  %this1 = load %"class.std::vector.59"*, %"class.std::vector.59"** %this.addr, align 8
  %0 = bitcast %"class.std::vector.59"* %this1 to %"struct.std::_Bvector_base"*, !dbg !10262
  %1 = load %"class.std::vector.59"*, %"class.std::vector.59"** %__x.addr, align 8, !dbg !10263
  %2 = bitcast %"class.std::vector.59"* %1 to %"struct.std::_Bvector_base"*, !dbg !10263
  %call = call dereferenceable(1) %"class.std::allocator.60"* @_ZNKSt13_Bvector_baseISaIbEE20_M_get_Bit_allocatorEv(%"struct.std::_Bvector_base"* %2) #4, !dbg !10264
  call void @_ZN9__gnu_cxx14__alloc_traitsISaImEmE17_S_select_on_copyERKS1_(%"class.std::allocator.60"* sret %ref.tmp2, %"class.std::allocator.60"* dereferenceable(1) %call), !dbg !10265
  call void @_ZNSaIbEC2ImEERKSaIT_E(%"class.std::allocator.78"* %ref.tmp, %"class.std::allocator.60"* dereferenceable(1) %ref.tmp2) #4, !dbg !10265
  invoke void @_ZNSt13_Bvector_baseISaIbEEC2ERKS0_(%"struct.std::_Bvector_base"* %0, %"class.std::allocator.78"* dereferenceable(1) %ref.tmp)
          to label %invoke.cont unwind label %lpad, !dbg !10266

invoke.cont:                                      ; preds = %entry
  call void @_ZNSaIbED2Ev(%"class.std::allocator.78"* %ref.tmp) #4, !dbg !10266
  call void @_ZNSaImED2Ev(%"class.std::allocator.60"* %ref.tmp2) #4, !dbg !10266
  %3 = load %"class.std::vector.59"*, %"class.std::vector.59"** %__x.addr, align 8, !dbg !10267
  %call3 = call i64 @_ZNKSt6vectorIbSaIbEE4sizeEv(%"class.std::vector.59"* %3) #4, !dbg !10269
  invoke void @_ZNSt6vectorIbSaIbEE13_M_initializeEm(%"class.std::vector.59"* %this1, i64 %call3)
          to label %invoke.cont5 unwind label %lpad4, !dbg !10270

invoke.cont5:                                     ; preds = %invoke.cont
  %4 = load %"class.std::vector.59"*, %"class.std::vector.59"** %__x.addr, align 8, !dbg !10271
  %call6 = call { i64*, i32 } @_ZNKSt6vectorIbSaIbEE5beginEv(%"class.std::vector.59"* %4) #4, !dbg !10272
  %5 = bitcast %"struct.std::_Bit_const_iterator"* %agg.tmp to { i64*, i32 }*, !dbg !10272
  %6 = getelementptr inbounds { i64*, i32 }, { i64*, i32 }* %5, i32 0, i32 0, !dbg !10272
  %7 = extractvalue { i64*, i32 } %call6, 0, !dbg !10272
  store i64* %7, i64** %6, align 8, !dbg !10272
  %8 = getelementptr inbounds { i64*, i32 }, { i64*, i32 }* %5, i32 0, i32 1, !dbg !10272
  %9 = extractvalue { i64*, i32 } %call6, 1, !dbg !10272
  store i32 %9, i32* %8, align 8, !dbg !10272
  %10 = load %"class.std::vector.59"*, %"class.std::vector.59"** %__x.addr, align 8, !dbg !10273
  %call8 = call { i64*, i32 } @_ZNKSt6vectorIbSaIbEE3endEv(%"class.std::vector.59"* %10) #4, !dbg !10274
  %11 = bitcast %"struct.std::_Bit_const_iterator"* %agg.tmp7 to { i64*, i32 }*, !dbg !10274
  %12 = getelementptr inbounds { i64*, i32 }, { i64*, i32 }* %11, i32 0, i32 0, !dbg !10274
  %13 = extractvalue { i64*, i32 } %call8, 0, !dbg !10274
  store i64* %13, i64** %12, align 8, !dbg !10274
  %14 = getelementptr inbounds { i64*, i32 }, { i64*, i32 }* %11, i32 0, i32 1, !dbg !10274
  %15 = extractvalue { i64*, i32 } %call8, 1, !dbg !10274
  store i32 %15, i32* %14, align 8, !dbg !10274
  %16 = bitcast %"class.std::vector.59"* %this1 to %"struct.std::_Bvector_base"*, !dbg !10275
  %_M_impl = getelementptr inbounds %"struct.std::_Bvector_base", %"struct.std::_Bvector_base"* %16, i32 0, i32 0, !dbg !10275
  %17 = bitcast %"struct.std::_Bvector_base<std::allocator<bool> >::_Bvector_impl"* %_M_impl to %"struct.std::_Bvector_base<std::allocator<bool> >::_Bvector_impl_data"*, !dbg !10276
  %_M_start = getelementptr inbounds %"struct.std::_Bvector_base<std::allocator<bool> >::_Bvector_impl_data", %"struct.std::_Bvector_base<std::allocator<bool> >::_Bvector_impl_data"* %17, i32 0, i32 0, !dbg !10277
  %18 = bitcast %"struct.std::_Bit_iterator"* %agg.tmp9 to i8*, !dbg !10276
  %19 = bitcast %"struct.std::_Bit_iterator"* %_M_start to i8*, !dbg !10276
  call void @llvm.memcpy.p0i8.p0i8.i64(i8* align 8 %18, i8* align 8 %19, i64 16, i1 false), !dbg !10276
  %20 = bitcast %"struct.std::_Bit_const_iterator"* %agg.tmp to { i64*, i32 }*, !dbg !10278
  %21 = getelementptr inbounds { i64*, i32 }, { i64*, i32 }* %20, i32 0, i32 0, !dbg !10278
  %22 = load i64*, i64** %21, align 8, !dbg !10278
  %23 = getelementptr inbounds { i64*, i32 }, { i64*, i32 }* %20, i32 0, i32 1, !dbg !10278
  %24 = load i32, i32* %23, align 8, !dbg !10278
  %25 = bitcast %"struct.std::_Bit_const_iterator"* %agg.tmp7 to { i64*, i32 }*, !dbg !10278
  %26 = getelementptr inbounds { i64*, i32 }, { i64*, i32 }* %25, i32 0, i32 0, !dbg !10278
  %27 = load i64*, i64** %26, align 8, !dbg !10278
  %28 = getelementptr inbounds { i64*, i32 }, { i64*, i32 }* %25, i32 0, i32 1, !dbg !10278
  %29 = load i32, i32* %28, align 8, !dbg !10278
  %call11 = invoke { i64*, i32 } @_ZNSt6vectorIbSaIbEE15_M_copy_alignedESt19_Bit_const_iteratorS2_St13_Bit_iterator(%"class.std::vector.59"* %this1, i64* %22, i32 %24, i64* %27, i32 %29, %"struct.std::_Bit_iterator"* byval(%"struct.std::_Bit_iterator") align 8 %agg.tmp9)
          to label %invoke.cont10 unwind label %lpad4, !dbg !10278

invoke.cont10:                                    ; preds = %invoke.cont5
  %30 = bitcast %"struct.std::_Bit_iterator"* %coerce to { i64*, i32 }*, !dbg !10278
  %31 = getelementptr inbounds { i64*, i32 }, { i64*, i32 }* %30, i32 0, i32 0, !dbg !10278
  %32 = extractvalue { i64*, i32 } %call11, 0, !dbg !10278
  store i64* %32, i64** %31, align 8, !dbg !10278
  %33 = getelementptr inbounds { i64*, i32 }, { i64*, i32 }* %30, i32 0, i32 1, !dbg !10278
  %34 = extractvalue { i64*, i32 } %call11, 1, !dbg !10278
  store i32 %34, i32* %33, align 8, !dbg !10278
  ret void, !dbg !10279

lpad:                                             ; preds = %entry
  %35 = landingpad { i8*, i32 }
          cleanup, !dbg !10279
  %36 = extractvalue { i8*, i32 } %35, 0, !dbg !10279
  store i8* %36, i8** %exn.slot, align 8, !dbg !10279
  %37 = extractvalue { i8*, i32 } %35, 1, !dbg !10279
  store i32 %37, i32* %ehselector.slot, align 4, !dbg !10279
  call void @_ZNSaIbED2Ev(%"class.std::allocator.78"* %ref.tmp) #4, !dbg !10266
  call void @_ZNSaImED2Ev(%"class.std::allocator.60"* %ref.tmp2) #4, !dbg !10266
  br label %eh.resume, !dbg !10266

lpad4:                                            ; preds = %invoke.cont5, %invoke.cont
  %38 = landingpad { i8*, i32 }
          cleanup, !dbg !10280
  %39 = extractvalue { i8*, i32 } %38, 0, !dbg !10280
  store i8* %39, i8** %exn.slot, align 8, !dbg !10280
  %40 = extractvalue { i8*, i32 } %38, 1, !dbg !10280
  store i32 %40, i32* %ehselector.slot, align 4, !dbg !10280
  %41 = bitcast %"class.std::vector.59"* %this1 to %"struct.std::_Bvector_base"*, !dbg !10280
  call void @_ZNSt13_Bvector_baseISaIbEED2Ev(%"struct.std::_Bvector_base"* %41) #4, !dbg !10280
  br label %eh.resume, !dbg !10280

eh.resume:                                        ; preds = %lpad4, %lpad
  %exn = load i8*, i8** %exn.slot, align 8, !dbg !10266
  %sel = load i32, i32* %ehselector.slot, align 4, !dbg !10266
  %lpad.val = insertvalue { i8*, i32 } undef, i8* %exn, 0, !dbg !10266
  %lpad.val12 = insertvalue { i8*, i32 } %lpad.val, i32 %sel, 1, !dbg !10266
  resume { i8*, i32 } %lpad.val12, !dbg !10266
}

; Function Attrs: noinline uwtable
define linkonce_odr dso_local void @_ZNSt6vectorIS_IbSaIbEESaIS1_EEC2ERKS3_(%"class.std::vector.63"* %this, %"class.std::vector.63"* dereferenceable(24) %__x) unnamed_addr #0 comdat align 2 personality i8* bitcast (i32 (...)* @__gxx_personality_v0 to i8*) !dbg !10281 {
entry:
  %this.addr = alloca %"class.std::vector.63"*, align 8
  %__x.addr = alloca %"class.std::vector.63"*, align 8
  %ref.tmp = alloca %"class.std::allocator.65", align 1
  %exn.slot = alloca i8*
  %ehselector.slot = alloca i32
  %agg.tmp = alloca %"class.__gnu_cxx::__normal_iterator.98", align 8
  %agg.tmp4 = alloca %"class.__gnu_cxx::__normal_iterator.98", align 8
  store %"class.std::vector.63"* %this, %"class.std::vector.63"** %this.addr, align 8
  call void @llvm.dbg.declare(metadata %"class.std::vector.63"** %this.addr, metadata !10282, metadata !DIExpression()), !dbg !10283
  store %"class.std::vector.63"* %__x, %"class.std::vector.63"** %__x.addr, align 8
  call void @llvm.dbg.declare(metadata %"class.std::vector.63"** %__x.addr, metadata !10284, metadata !DIExpression()), !dbg !10285
  %this1 = load %"class.std::vector.63"*, %"class.std::vector.63"** %this.addr, align 8
  %0 = bitcast %"class.std::vector.63"* %this1 to %"struct.std::_Vector_base.64"*, !dbg !10286
  %1 = load %"class.std::vector.63"*, %"class.std::vector.63"** %__x.addr, align 8, !dbg !10287
  %call = call i64 @_ZNKSt6vectorIS_IbSaIbEESaIS1_EE4sizeEv(%"class.std::vector.63"* %1) #4, !dbg !10288
  %2 = load %"class.std::vector.63"*, %"class.std::vector.63"** %__x.addr, align 8, !dbg !10289
  %3 = bitcast %"class.std::vector.63"* %2 to %"struct.std::_Vector_base.64"*, !dbg !10289
  %call2 = call dereferenceable(1) %"class.std::allocator.65"* @_ZNKSt12_Vector_baseISt6vectorIbSaIbEESaIS2_EE19_M_get_Tp_allocatorEv(%"struct.std::_Vector_base.64"* %3) #4, !dbg !10290
  call void @_ZN9__gnu_cxx14__alloc_traitsISaISt6vectorIbSaIbEEES3_E17_S_select_on_copyERKS4_(%"class.std::allocator.65"* sret %ref.tmp, %"class.std::allocator.65"* dereferenceable(1) %call2), !dbg !10291
  invoke void @_ZNSt12_Vector_baseISt6vectorIbSaIbEESaIS2_EEC2EmRKS3_(%"struct.std::_Vector_base.64"* %0, i64 %call, %"class.std::allocator.65"* dereferenceable(1) %ref.tmp)
          to label %invoke.cont unwind label %lpad, !dbg !10292

invoke.cont:                                      ; preds = %entry
  call void @_ZNSaISt6vectorIbSaIbEEED2Ev(%"class.std::allocator.65"* %ref.tmp) #4, !dbg !10292
  %4 = load %"class.std::vector.63"*, %"class.std::vector.63"** %__x.addr, align 8, !dbg !10293
  %call3 = call %"class.std::vector.59"* @_ZNKSt6vectorIS_IbSaIbEESaIS1_EE5beginEv(%"class.std::vector.63"* %4) #4, !dbg !10295
  %coerce.dive = getelementptr inbounds %"class.__gnu_cxx::__normal_iterator.98", %"class.__gnu_cxx::__normal_iterator.98"* %agg.tmp, i32 0, i32 0, !dbg !10295
  store %"class.std::vector.59"* %call3, %"class.std::vector.59"** %coerce.dive, align 8, !dbg !10295
  %5 = load %"class.std::vector.63"*, %"class.std::vector.63"** %__x.addr, align 8, !dbg !10296
  %call5 = call %"class.std::vector.59"* @_ZNKSt6vectorIS_IbSaIbEESaIS1_EE3endEv(%"class.std::vector.63"* %5) #4, !dbg !10297
  %coerce.dive6 = getelementptr inbounds %"class.__gnu_cxx::__normal_iterator.98", %"class.__gnu_cxx::__normal_iterator.98"* %agg.tmp4, i32 0, i32 0, !dbg !10297
  store %"class.std::vector.59"* %call5, %"class.std::vector.59"** %coerce.dive6, align 8, !dbg !10297
  %6 = bitcast %"class.std::vector.63"* %this1 to %"struct.std::_Vector_base.64"*, !dbg !10298
  %_M_impl = getelementptr inbounds %"struct.std::_Vector_base.64", %"struct.std::_Vector_base.64"* %6, i32 0, i32 0, !dbg !10298
  %7 = bitcast %"struct.std::_Vector_base<std::vector<bool, std::allocator<bool> >, std::allocator<std::vector<bool, std::allocator<bool> > > >::_Vector_impl"* %_M_impl to %"struct.std::_Vector_base<std::vector<bool, std::allocator<bool> >, std::allocator<std::vector<bool, std::allocator<bool> > > >::_Vector_impl_data"*, !dbg !10299
  %_M_start = getelementptr inbounds %"struct.std::_Vector_base<std::vector<bool, std::allocator<bool> >, std::allocator<std::vector<bool, std::allocator<bool> > > >::_Vector_impl_data", %"struct.std::_Vector_base<std::vector<bool, std::allocator<bool> >, std::allocator<std::vector<bool, std::allocator<bool> > > >::_Vector_impl_data"* %7, i32 0, i32 0, !dbg !10300
  %8 = load %"class.std::vector.59"*, %"class.std::vector.59"** %_M_start, align 8, !dbg !10300
  %9 = bitcast %"class.std::vector.63"* %this1 to %"struct.std::_Vector_base.64"*, !dbg !10301
  %call7 = call dereferenceable(1) %"class.std::allocator.65"* @_ZNSt12_Vector_baseISt6vectorIbSaIbEESaIS2_EE19_M_get_Tp_allocatorEv(%"struct.std::_Vector_base.64"* %9) #4, !dbg !10301
  %coerce.dive8 = getelementptr inbounds %"class.__gnu_cxx::__normal_iterator.98", %"class.__gnu_cxx::__normal_iterator.98"* %agg.tmp, i32 0, i32 0, !dbg !10302
  %10 = load %"class.std::vector.59"*, %"class.std::vector.59"** %coerce.dive8, align 8, !dbg !10302
  %coerce.dive9 = getelementptr inbounds %"class.__gnu_cxx::__normal_iterator.98", %"class.__gnu_cxx::__normal_iterator.98"* %agg.tmp4, i32 0, i32 0, !dbg !10302
  %11 = load %"class.std::vector.59"*, %"class.std::vector.59"** %coerce.dive9, align 8, !dbg !10302
  %call12 = invoke %"class.std::vector.59"* @_ZSt22__uninitialized_copy_aIN9__gnu_cxx17__normal_iteratorIPKSt6vectorIbSaIbEES2_IS4_SaIS4_EEEEPS4_S4_ET0_T_SC_SB_RSaIT1_E(%"class.std::vector.59"* %10, %"class.std::vector.59"* %11, %"class.std::vector.59"* %8, %"class.std::allocator.65"* dereferenceable(1) %call7)
          to label %invoke.cont11 unwind label %lpad10, !dbg !10302

invoke.cont11:                                    ; preds = %invoke.cont
  %12 = bitcast %"class.std::vector.63"* %this1 to %"struct.std::_Vector_base.64"*, !dbg !10303
  %_M_impl13 = getelementptr inbounds %"struct.std::_Vector_base.64", %"struct.std::_Vector_base.64"* %12, i32 0, i32 0, !dbg !10303
  %13 = bitcast %"struct.std::_Vector_base<std::vector<bool, std::allocator<bool> >, std::allocator<std::vector<bool, std::allocator<bool> > > >::_Vector_impl"* %_M_impl13 to %"struct.std::_Vector_base<std::vector<bool, std::allocator<bool> >, std::allocator<std::vector<bool, std::allocator<bool> > > >::_Vector_impl_data"*, !dbg !10304
  %_M_finish = getelementptr inbounds %"struct.std::_Vector_base<std::vector<bool, std::allocator<bool> >, std::allocator<std::vector<bool, std::allocator<bool> > > >::_Vector_impl_data", %"struct.std::_Vector_base<std::vector<bool, std::allocator<bool> >, std::allocator<std::vector<bool, std::allocator<bool> > > >::_Vector_impl_data"* %13, i32 0, i32 1, !dbg !10305
  store %"class.std::vector.59"* %call12, %"class.std::vector.59"** %_M_finish, align 8, !dbg !10306
  ret void, !dbg !10307

lpad:                                             ; preds = %entry
  %14 = landingpad { i8*, i32 }
          cleanup, !dbg !10307
  %15 = extractvalue { i8*, i32 } %14, 0, !dbg !10307
  store i8* %15, i8** %exn.slot, align 8, !dbg !10307
  %16 = extractvalue { i8*, i32 } %14, 1, !dbg !10307
  store i32 %16, i32* %ehselector.slot, align 4, !dbg !10307
  call void @_ZNSaISt6vectorIbSaIbEEED2Ev(%"class.std::allocator.65"* %ref.tmp) #4, !dbg !10292
  br label %eh.resume, !dbg !10292

lpad10:                                           ; preds = %invoke.cont
  %17 = landingpad { i8*, i32 }
          cleanup, !dbg !10308
  %18 = extractvalue { i8*, i32 } %17, 0, !dbg !10308
  store i8* %18, i8** %exn.slot, align 8, !dbg !10308
  %19 = extractvalue { i8*, i32 } %17, 1, !dbg !10308
  store i32 %19, i32* %ehselector.slot, align 4, !dbg !10308
  %20 = bitcast %"class.std::vector.63"* %this1 to %"struct.std::_Vector_base.64"*, !dbg !10308
  call void @_ZNSt12_Vector_baseISt6vectorIbSaIbEESaIS2_EED2Ev(%"struct.std::_Vector_base.64"* %20) #4, !dbg !10308
  br label %eh.resume, !dbg !10308

eh.resume:                                        ; preds = %lpad10, %lpad
  %exn = load i8*, i8** %exn.slot, align 8, !dbg !10292
  %sel = load i32, i32* %ehselector.slot, align 4, !dbg !10292
  %lpad.val = insertvalue { i8*, i32 } undef, i8* %exn, 0, !dbg !10292
  %lpad.val14 = insertvalue { i8*, i32 } %lpad.val, i32 %sel, 1, !dbg !10292
  resume { i8*, i32 } %lpad.val14, !dbg !10292
}

; Function Attrs: noinline nounwind uwtable
define linkonce_odr dso_local void @_ZNSt6vectorISt4pairIS0_IjjEjESaIS2_EED2Ev(%"class.std::vector.46"* %this) unnamed_addr #1 comdat align 2 personality i8* bitcast (i32 (...)* @__gxx_personality_v0 to i8*) !dbg !10309 {
entry:
  %this.addr = alloca %"class.std::vector.46"*, align 8
  %exn.slot = alloca i8*
  %ehselector.slot = alloca i32
  store %"class.std::vector.46"* %this, %"class.std::vector.46"** %this.addr, align 8
  call void @llvm.dbg.declare(metadata %"class.std::vector.46"** %this.addr, metadata !10310, metadata !DIExpression()), !dbg !10311
  %this1 = load %"class.std::vector.46"*, %"class.std::vector.46"** %this.addr, align 8
  %0 = bitcast %"class.std::vector.46"* %this1 to %"struct.std::_Vector_base.47"*, !dbg !10312
  %_M_impl = getelementptr inbounds %"struct.std::_Vector_base.47", %"struct.std::_Vector_base.47"* %0, i32 0, i32 0, !dbg !10312
  %1 = bitcast %"struct.std::_Vector_base<std::pair<std::pair<unsigned int, unsigned int>, unsigned int>, std::allocator<std::pair<std::pair<unsigned int, unsigned int>, unsigned int> > >::_Vector_impl"* %_M_impl to %"struct.std::_Vector_base<std::pair<std::pair<unsigned int, unsigned int>, unsigned int>, std::allocator<std::pair<std::pair<unsigned int, unsigned int>, unsigned int> > >::_Vector_impl_data"*, !dbg !10314
  %_M_start = getelementptr inbounds %"struct.std::_Vector_base<std::pair<std::pair<unsigned int, unsigned int>, unsigned int>, std::allocator<std::pair<std::pair<unsigned int, unsigned int>, unsigned int> > >::_Vector_impl_data", %"struct.std::_Vector_base<std::pair<std::pair<unsigned int, unsigned int>, unsigned int>, std::allocator<std::pair<std::pair<unsigned int, unsigned int>, unsigned int> > >::_Vector_impl_data"* %1, i32 0, i32 0, !dbg !10315
  %2 = load %"struct.std::pair.51"*, %"struct.std::pair.51"** %_M_start, align 8, !dbg !10315
  %3 = bitcast %"class.std::vector.46"* %this1 to %"struct.std::_Vector_base.47"*, !dbg !10316
  %_M_impl2 = getelementptr inbounds %"struct.std::_Vector_base.47", %"struct.std::_Vector_base.47"* %3, i32 0, i32 0, !dbg !10316
  %4 = bitcast %"struct.std::_Vector_base<std::pair<std::pair<unsigned int, unsigned int>, unsigned int>, std::allocator<std::pair<std::pair<unsigned int, unsigned int>, unsigned int> > >::_Vector_impl"* %_M_impl2 to %"struct.std::_Vector_base<std::pair<std::pair<unsigned int, unsigned int>, unsigned int>, std::allocator<std::pair<std::pair<unsigned int, unsigned int>, unsigned int> > >::_Vector_impl_data"*, !dbg !10317
  %_M_finish = getelementptr inbounds %"struct.std::_Vector_base<std::pair<std::pair<unsigned int, unsigned int>, unsigned int>, std::allocator<std::pair<std::pair<unsigned int, unsigned int>, unsigned int> > >::_Vector_impl_data", %"struct.std::_Vector_base<std::pair<std::pair<unsigned int, unsigned int>, unsigned int>, std::allocator<std::pair<std::pair<unsigned int, unsigned int>, unsigned int> > >::_Vector_impl_data"* %4, i32 0, i32 1, !dbg !10318
  %5 = load %"struct.std::pair.51"*, %"struct.std::pair.51"** %_M_finish, align 8, !dbg !10318
  %6 = bitcast %"class.std::vector.46"* %this1 to %"struct.std::_Vector_base.47"*, !dbg !10319
  %call = call dereferenceable(1) %"class.std::allocator.48"* @_ZNSt12_Vector_baseISt4pairIS0_IjjEjESaIS2_EE19_M_get_Tp_allocatorEv(%"struct.std::_Vector_base.47"* %6) #4, !dbg !10319
  invoke void @_ZSt8_DestroyIPSt4pairIS0_IjjEjES2_EvT_S4_RSaIT0_E(%"struct.std::pair.51"* %2, %"struct.std::pair.51"* %5, %"class.std::allocator.48"* dereferenceable(1) %call)
          to label %invoke.cont unwind label %lpad, !dbg !10320

invoke.cont:                                      ; preds = %entry
  %7 = bitcast %"class.std::vector.46"* %this1 to %"struct.std::_Vector_base.47"*, !dbg !10321
  call void @_ZNSt12_Vector_baseISt4pairIS0_IjjEjESaIS2_EED2Ev(%"struct.std::_Vector_base.47"* %7) #4, !dbg !10321
  ret void, !dbg !10322

lpad:                                             ; preds = %entry
  %8 = landingpad { i8*, i32 }
          catch i8* null, !dbg !10321
  %9 = extractvalue { i8*, i32 } %8, 0, !dbg !10321
  store i8* %9, i8** %exn.slot, align 8, !dbg !10321
  %10 = extractvalue { i8*, i32 } %8, 1, !dbg !10321
  store i32 %10, i32* %ehselector.slot, align 4, !dbg !10321
  %11 = bitcast %"class.std::vector.46"* %this1 to %"struct.std::_Vector_base.47"*, !dbg !10321
  call void @_ZNSt12_Vector_baseISt4pairIS0_IjjEjESaIS2_EED2Ev(%"struct.std::_Vector_base.47"* %11) #4, !dbg !10321
  br label %terminate.handler, !dbg !10321

terminate.handler:                                ; preds = %lpad
  %exn = load i8*, i8** %exn.slot, align 8, !dbg !10321
  call void @__clang_call_terminate(i8* %exn) #13, !dbg !10321
  unreachable, !dbg !10321
}

; Function Attrs: noinline nounwind uwtable
define linkonce_odr dso_local void @_ZNSt6vectorISt4pairIjjESaIS1_EED2Ev(%"class.std::vector.41"* %this) unnamed_addr #1 comdat align 2 personality i8* bitcast (i32 (...)* @__gxx_personality_v0 to i8*) !dbg !10323 {
entry:
  %this.addr = alloca %"class.std::vector.41"*, align 8
  %exn.slot = alloca i8*
  %ehselector.slot = alloca i32
  store %"class.std::vector.41"* %this, %"class.std::vector.41"** %this.addr, align 8
  call void @llvm.dbg.declare(metadata %"class.std::vector.41"** %this.addr, metadata !10324, metadata !DIExpression()), !dbg !10325
  %this1 = load %"class.std::vector.41"*, %"class.std::vector.41"** %this.addr, align 8
  %0 = bitcast %"class.std::vector.41"* %this1 to %"struct.std::_Vector_base.42"*, !dbg !10326
  %_M_impl = getelementptr inbounds %"struct.std::_Vector_base.42", %"struct.std::_Vector_base.42"* %0, i32 0, i32 0, !dbg !10326
  %1 = bitcast %"struct.std::_Vector_base<std::pair<unsigned int, unsigned int>, std::allocator<std::pair<unsigned int, unsigned int> > >::_Vector_impl"* %_M_impl to %"struct.std::_Vector_base<std::pair<unsigned int, unsigned int>, std::allocator<std::pair<unsigned int, unsigned int> > >::_Vector_impl_data"*, !dbg !10328
  %_M_start = getelementptr inbounds %"struct.std::_Vector_base<std::pair<unsigned int, unsigned int>, std::allocator<std::pair<unsigned int, unsigned int> > >::_Vector_impl_data", %"struct.std::_Vector_base<std::pair<unsigned int, unsigned int>, std::allocator<std::pair<unsigned int, unsigned int> > >::_Vector_impl_data"* %1, i32 0, i32 0, !dbg !10329
  %2 = load %"struct.std::pair"*, %"struct.std::pair"** %_M_start, align 8, !dbg !10329
  %3 = bitcast %"class.std::vector.41"* %this1 to %"struct.std::_Vector_base.42"*, !dbg !10330
  %_M_impl2 = getelementptr inbounds %"struct.std::_Vector_base.42", %"struct.std::_Vector_base.42"* %3, i32 0, i32 0, !dbg !10330
  %4 = bitcast %"struct.std::_Vector_base<std::pair<unsigned int, unsigned int>, std::allocator<std::pair<unsigned int, unsigned int> > >::_Vector_impl"* %_M_impl2 to %"struct.std::_Vector_base<std::pair<unsigned int, unsigned int>, std::allocator<std::pair<unsigned int, unsigned int> > >::_Vector_impl_data"*, !dbg !10331
  %_M_finish = getelementptr inbounds %"struct.std::_Vector_base<std::pair<unsigned int, unsigned int>, std::allocator<std::pair<unsigned int, unsigned int> > >::_Vector_impl_data", %"struct.std::_Vector_base<std::pair<unsigned int, unsigned int>, std::allocator<std::pair<unsigned int, unsigned int> > >::_Vector_impl_data"* %4, i32 0, i32 1, !dbg !10332
  %5 = load %"struct.std::pair"*, %"struct.std::pair"** %_M_finish, align 8, !dbg !10332
  %6 = bitcast %"class.std::vector.41"* %this1 to %"struct.std::_Vector_base.42"*, !dbg !10333
  %call = call dereferenceable(1) %"class.std::allocator.43"* @_ZNSt12_Vector_baseISt4pairIjjESaIS1_EE19_M_get_Tp_allocatorEv(%"struct.std::_Vector_base.42"* %6) #4, !dbg !10333
  invoke void @_ZSt8_DestroyIPSt4pairIjjES1_EvT_S3_RSaIT0_E(%"struct.std::pair"* %2, %"struct.std::pair"* %5, %"class.std::allocator.43"* dereferenceable(1) %call)
          to label %invoke.cont unwind label %lpad, !dbg !10334

invoke.cont:                                      ; preds = %entry
  %7 = bitcast %"class.std::vector.41"* %this1 to %"struct.std::_Vector_base.42"*, !dbg !10335
  call void @_ZNSt12_Vector_baseISt4pairIjjESaIS1_EED2Ev(%"struct.std::_Vector_base.42"* %7) #4, !dbg !10335
  ret void, !dbg !10336

lpad:                                             ; preds = %entry
  %8 = landingpad { i8*, i32 }
          catch i8* null, !dbg !10335
  %9 = extractvalue { i8*, i32 } %8, 0, !dbg !10335
  store i8* %9, i8** %exn.slot, align 8, !dbg !10335
  %10 = extractvalue { i8*, i32 } %8, 1, !dbg !10335
  store i32 %10, i32* %ehselector.slot, align 4, !dbg !10335
  %11 = bitcast %"class.std::vector.41"* %this1 to %"struct.std::_Vector_base.42"*, !dbg !10335
  call void @_ZNSt12_Vector_baseISt4pairIjjESaIS1_EED2Ev(%"struct.std::_Vector_base.42"* %11) #4, !dbg !10335
  br label %terminate.handler, !dbg !10335

terminate.handler:                                ; preds = %lpad
  %exn = load i8*, i8** %exn.slot, align 8, !dbg !10335
  call void @__clang_call_terminate(i8* %exn) #13, !dbg !10335
  unreachable, !dbg !10335
}

; Function Attrs: noinline nounwind uwtable
define linkonce_odr dso_local void @_ZNSt6vectorIiSaIiEED2Ev(%"class.std::vector.36"* %this) unnamed_addr #1 comdat align 2 personality i8* bitcast (i32 (...)* @__gxx_personality_v0 to i8*) !dbg !10337 {
entry:
  %this.addr = alloca %"class.std::vector.36"*, align 8
  %exn.slot = alloca i8*
  %ehselector.slot = alloca i32
  store %"class.std::vector.36"* %this, %"class.std::vector.36"** %this.addr, align 8
  call void @llvm.dbg.declare(metadata %"class.std::vector.36"** %this.addr, metadata !10338, metadata !DIExpression()), !dbg !10339
  %this1 = load %"class.std::vector.36"*, %"class.std::vector.36"** %this.addr, align 8
  %0 = bitcast %"class.std::vector.36"* %this1 to %"struct.std::_Vector_base.37"*, !dbg !10340
  %_M_impl = getelementptr inbounds %"struct.std::_Vector_base.37", %"struct.std::_Vector_base.37"* %0, i32 0, i32 0, !dbg !10340
  %1 = bitcast %"struct.std::_Vector_base<int, std::allocator<int> >::_Vector_impl"* %_M_impl to %"struct.std::_Vector_base<int, std::allocator<int> >::_Vector_impl_data"*, !dbg !10342
  %_M_start = getelementptr inbounds %"struct.std::_Vector_base<int, std::allocator<int> >::_Vector_impl_data", %"struct.std::_Vector_base<int, std::allocator<int> >::_Vector_impl_data"* %1, i32 0, i32 0, !dbg !10343
  %2 = load i32*, i32** %_M_start, align 8, !dbg !10343
  %3 = bitcast %"class.std::vector.36"* %this1 to %"struct.std::_Vector_base.37"*, !dbg !10344
  %_M_impl2 = getelementptr inbounds %"struct.std::_Vector_base.37", %"struct.std::_Vector_base.37"* %3, i32 0, i32 0, !dbg !10344
  %4 = bitcast %"struct.std::_Vector_base<int, std::allocator<int> >::_Vector_impl"* %_M_impl2 to %"struct.std::_Vector_base<int, std::allocator<int> >::_Vector_impl_data"*, !dbg !10345
  %_M_finish = getelementptr inbounds %"struct.std::_Vector_base<int, std::allocator<int> >::_Vector_impl_data", %"struct.std::_Vector_base<int, std::allocator<int> >::_Vector_impl_data"* %4, i32 0, i32 1, !dbg !10346
  %5 = load i32*, i32** %_M_finish, align 8, !dbg !10346
  %6 = bitcast %"class.std::vector.36"* %this1 to %"struct.std::_Vector_base.37"*, !dbg !10347
  %call = call dereferenceable(1) %"class.std::allocator.38"* @_ZNSt12_Vector_baseIiSaIiEE19_M_get_Tp_allocatorEv(%"struct.std::_Vector_base.37"* %6) #4, !dbg !10347
  invoke void @_ZSt8_DestroyIPiiEvT_S1_RSaIT0_E(i32* %2, i32* %5, %"class.std::allocator.38"* dereferenceable(1) %call)
          to label %invoke.cont unwind label %lpad, !dbg !10348

invoke.cont:                                      ; preds = %entry
  %7 = bitcast %"class.std::vector.36"* %this1 to %"struct.std::_Vector_base.37"*, !dbg !10349
  call void @_ZNSt12_Vector_baseIiSaIiEED2Ev(%"struct.std::_Vector_base.37"* %7) #4, !dbg !10349
  ret void, !dbg !10350

lpad:                                             ; preds = %entry
  %8 = landingpad { i8*, i32 }
          catch i8* null, !dbg !10349
  %9 = extractvalue { i8*, i32 } %8, 0, !dbg !10349
  store i8* %9, i8** %exn.slot, align 8, !dbg !10349
  %10 = extractvalue { i8*, i32 } %8, 1, !dbg !10349
  store i32 %10, i32* %ehselector.slot, align 4, !dbg !10349
  %11 = bitcast %"class.std::vector.36"* %this1 to %"struct.std::_Vector_base.37"*, !dbg !10349
  call void @_ZNSt12_Vector_baseIiSaIiEED2Ev(%"struct.std::_Vector_base.37"* %11) #4, !dbg !10349
  br label %terminate.handler, !dbg !10349

terminate.handler:                                ; preds = %lpad
  %exn = load i8*, i8** %exn.slot, align 8, !dbg !10349
  call void @__clang_call_terminate(i8* %exn) #13, !dbg !10349
  unreachable, !dbg !10349
}

; Function Attrs: noinline nounwind uwtable
define linkonce_odr dso_local void @_ZN6dealii5TableILi2EiED2Ev(%"class.dealii::Table.32"* %this) unnamed_addr #1 comdat align 2 !dbg !10351 {
entry:
  %this.addr = alloca %"class.dealii::Table.32"*, align 8
  store %"class.dealii::Table.32"* %this, %"class.dealii::Table.32"** %this.addr, align 8
  call void @llvm.dbg.declare(metadata %"class.dealii::Table.32"** %this.addr, metadata !10353, metadata !DIExpression()), !dbg !10354
  %this1 = load %"class.dealii::Table.32"*, %"class.dealii::Table.32"** %this.addr, align 8
  %0 = bitcast %"class.dealii::Table.32"* %this1 to %"class.dealii::TableBase.33"*, !dbg !10355
  call void @_ZN6dealii9TableBaseILi2EiED2Ev(%"class.dealii::TableBase.33"* %0) #4, !dbg !10355
  ret void, !dbg !10357
}

; Function Attrs: noinline nounwind uwtable
define linkonce_odr dso_local void @_ZNSt6vectorIN6dealii5PointILi2EEESaIS2_EED2Ev(%"class.std::vector.25"* %this) unnamed_addr #1 comdat align 2 personality i8* bitcast (i32 (...)* @__gxx_personality_v0 to i8*) !dbg !10358 {
entry:
  %this.addr = alloca %"class.std::vector.25"*, align 8
  %exn.slot = alloca i8*
  %ehselector.slot = alloca i32
  store %"class.std::vector.25"* %this, %"class.std::vector.25"** %this.addr, align 8
  call void @llvm.dbg.declare(metadata %"class.std::vector.25"** %this.addr, metadata !10359, metadata !DIExpression()), !dbg !10360
  %this1 = load %"class.std::vector.25"*, %"class.std::vector.25"** %this.addr, align 8
  %0 = bitcast %"class.std::vector.25"* %this1 to %"struct.std::_Vector_base.26"*, !dbg !10361
  %_M_impl = getelementptr inbounds %"struct.std::_Vector_base.26", %"struct.std::_Vector_base.26"* %0, i32 0, i32 0, !dbg !10361
  %1 = bitcast %"struct.std::_Vector_base<dealii::Point<2>, std::allocator<dealii::Point<2> > >::_Vector_impl"* %_M_impl to %"struct.std::_Vector_base<dealii::Point<2>, std::allocator<dealii::Point<2> > >::_Vector_impl_data"*, !dbg !10363
  %_M_start = getelementptr inbounds %"struct.std::_Vector_base<dealii::Point<2>, std::allocator<dealii::Point<2> > >::_Vector_impl_data", %"struct.std::_Vector_base<dealii::Point<2>, std::allocator<dealii::Point<2> > >::_Vector_impl_data"* %1, i32 0, i32 0, !dbg !10364
  %2 = load %"class.dealii::Point.30"*, %"class.dealii::Point.30"** %_M_start, align 8, !dbg !10364
  %3 = bitcast %"class.std::vector.25"* %this1 to %"struct.std::_Vector_base.26"*, !dbg !10365
  %_M_impl2 = getelementptr inbounds %"struct.std::_Vector_base.26", %"struct.std::_Vector_base.26"* %3, i32 0, i32 0, !dbg !10365
  %4 = bitcast %"struct.std::_Vector_base<dealii::Point<2>, std::allocator<dealii::Point<2> > >::_Vector_impl"* %_M_impl2 to %"struct.std::_Vector_base<dealii::Point<2>, std::allocator<dealii::Point<2> > >::_Vector_impl_data"*, !dbg !10366
  %_M_finish = getelementptr inbounds %"struct.std::_Vector_base<dealii::Point<2>, std::allocator<dealii::Point<2> > >::_Vector_impl_data", %"struct.std::_Vector_base<dealii::Point<2>, std::allocator<dealii::Point<2> > >::_Vector_impl_data"* %4, i32 0, i32 1, !dbg !10367
  %5 = load %"class.dealii::Point.30"*, %"class.dealii::Point.30"** %_M_finish, align 8, !dbg !10367
  %6 = bitcast %"class.std::vector.25"* %this1 to %"struct.std::_Vector_base.26"*, !dbg !10368
  %call = call dereferenceable(1) %"class.std::allocator.27"* @_ZNSt12_Vector_baseIN6dealii5PointILi2EEESaIS2_EE19_M_get_Tp_allocatorEv(%"struct.std::_Vector_base.26"* %6) #4, !dbg !10368
  invoke void @_ZSt8_DestroyIPN6dealii5PointILi2EEES2_EvT_S4_RSaIT0_E(%"class.dealii::Point.30"* %2, %"class.dealii::Point.30"* %5, %"class.std::allocator.27"* dereferenceable(1) %call)
          to label %invoke.cont unwind label %lpad, !dbg !10369

invoke.cont:                                      ; preds = %entry
  %7 = bitcast %"class.std::vector.25"* %this1 to %"struct.std::_Vector_base.26"*, !dbg !10370
  call void @_ZNSt12_Vector_baseIN6dealii5PointILi2EEESaIS2_EED2Ev(%"struct.std::_Vector_base.26"* %7) #4, !dbg !10370
  ret void, !dbg !10371

lpad:                                             ; preds = %entry
  %8 = landingpad { i8*, i32 }
          catch i8* null, !dbg !10370
  %9 = extractvalue { i8*, i32 } %8, 0, !dbg !10370
  store i8* %9, i8** %exn.slot, align 8, !dbg !10370
  %10 = extractvalue { i8*, i32 } %8, 1, !dbg !10370
  store i32 %10, i32* %ehselector.slot, align 4, !dbg !10370
  %11 = bitcast %"class.std::vector.25"* %this1 to %"struct.std::_Vector_base.26"*, !dbg !10370
  call void @_ZNSt12_Vector_baseIN6dealii5PointILi2EEESaIS2_EED2Ev(%"struct.std::_Vector_base.26"* %11) #4, !dbg !10370
  br label %terminate.handler, !dbg !10370

terminate.handler:                                ; preds = %lpad
  %exn = load i8*, i8** %exn.slot, align 8, !dbg !10370
  call void @__clang_call_terminate(i8* %exn) #13, !dbg !10370
  unreachable, !dbg !10370
}

; Function Attrs: noinline nounwind uwtable
define linkonce_odr dso_local void @_ZNSt6vectorIS_IN6dealii10FullMatrixIdEESaIS2_EESaIS4_EED2Ev(%"class.std::vector"* %this) unnamed_addr #1 comdat align 2 personality i8* bitcast (i32 (...)* @__gxx_personality_v0 to i8*) !dbg !10372 {
entry:
  %this.addr = alloca %"class.std::vector"*, align 8
  %exn.slot = alloca i8*
  %ehselector.slot = alloca i32
  store %"class.std::vector"* %this, %"class.std::vector"** %this.addr, align 8
  call void @llvm.dbg.declare(metadata %"class.std::vector"** %this.addr, metadata !10373, metadata !DIExpression()), !dbg !10374
  %this1 = load %"class.std::vector"*, %"class.std::vector"** %this.addr, align 8
  %0 = bitcast %"class.std::vector"* %this1 to %"struct.std::_Vector_base"*, !dbg !10375
  %_M_impl = getelementptr inbounds %"struct.std::_Vector_base", %"struct.std::_Vector_base"* %0, i32 0, i32 0, !dbg !10375
  %1 = bitcast %"struct.std::_Vector_base<std::vector<dealii::FullMatrix<double>, std::allocator<dealii::FullMatrix<double> > >, std::allocator<std::vector<dealii::FullMatrix<double>, std::allocator<dealii::FullMatrix<double> > > > >::_Vector_impl"* %_M_impl to %"struct.std::_Vector_base<std::vector<dealii::FullMatrix<double>, std::allocator<dealii::FullMatrix<double> > >, std::allocator<std::vector<dealii::FullMatrix<double>, std::allocator<dealii::FullMatrix<double> > > > >::_Vector_impl_data"*, !dbg !10377
  %_M_start = getelementptr inbounds %"struct.std::_Vector_base<std::vector<dealii::FullMatrix<double>, std::allocator<dealii::FullMatrix<double> > >, std::allocator<std::vector<dealii::FullMatrix<double>, std::allocator<dealii::FullMatrix<double> > > > >::_Vector_impl_data", %"struct.std::_Vector_base<std::vector<dealii::FullMatrix<double>, std::allocator<dealii::FullMatrix<double> > >, std::allocator<std::vector<dealii::FullMatrix<double>, std::allocator<dealii::FullMatrix<double> > > > >::_Vector_impl_data"* %1, i32 0, i32 0, !dbg !10378
  %2 = load %"class.std::vector.19"*, %"class.std::vector.19"** %_M_start, align 8, !dbg !10378
  %3 = bitcast %"class.std::vector"* %this1 to %"struct.std::_Vector_base"*, !dbg !10379
  %_M_impl2 = getelementptr inbounds %"struct.std::_Vector_base", %"struct.std::_Vector_base"* %3, i32 0, i32 0, !dbg !10379
  %4 = bitcast %"struct.std::_Vector_base<std::vector<dealii::FullMatrix<double>, std::allocator<dealii::FullMatrix<double> > >, std::allocator<std::vector<dealii::FullMatrix<double>, std::allocator<dealii::FullMatrix<double> > > > >::_Vector_impl"* %_M_impl2 to %"struct.std::_Vector_base<std::vector<dealii::FullMatrix<double>, std::allocator<dealii::FullMatrix<double> > >, std::allocator<std::vector<dealii::FullMatrix<double>, std::allocator<dealii::FullMatrix<double> > > > >::_Vector_impl_data"*, !dbg !10380
  %_M_finish = getelementptr inbounds %"struct.std::_Vector_base<std::vector<dealii::FullMatrix<double>, std::allocator<dealii::FullMatrix<double> > >, std::allocator<std::vector<dealii::FullMatrix<double>, std::allocator<dealii::FullMatrix<double> > > > >::_Vector_impl_data", %"struct.std::_Vector_base<std::vector<dealii::FullMatrix<double>, std::allocator<dealii::FullMatrix<double> > >, std::allocator<std::vector<dealii::FullMatrix<double>, std::allocator<dealii::FullMatrix<double> > > > >::_Vector_impl_data"* %4, i32 0, i32 1, !dbg !10381
  %5 = load %"class.std::vector.19"*, %"class.std::vector.19"** %_M_finish, align 8, !dbg !10381
  %6 = bitcast %"class.std::vector"* %this1 to %"struct.std::_Vector_base"*, !dbg !10382
  %call = call dereferenceable(1) %"class.std::allocator.16"* @_ZNSt12_Vector_baseISt6vectorIN6dealii10FullMatrixIdEESaIS3_EESaIS5_EE19_M_get_Tp_allocatorEv(%"struct.std::_Vector_base"* %6) #4, !dbg !10382
  invoke void @_ZSt8_DestroyIPSt6vectorIN6dealii10FullMatrixIdEESaIS3_EES5_EvT_S7_RSaIT0_E(%"class.std::vector.19"* %2, %"class.std::vector.19"* %5, %"class.std::allocator.16"* dereferenceable(1) %call)
          to label %invoke.cont unwind label %lpad, !dbg !10383

invoke.cont:                                      ; preds = %entry
  %7 = bitcast %"class.std::vector"* %this1 to %"struct.std::_Vector_base"*, !dbg !10384
  call void @_ZNSt12_Vector_baseISt6vectorIN6dealii10FullMatrixIdEESaIS3_EESaIS5_EED2Ev(%"struct.std::_Vector_base"* %7) #4, !dbg !10384
  ret void, !dbg !10385

lpad:                                             ; preds = %entry
  %8 = landingpad { i8*, i32 }
          catch i8* null, !dbg !10384
  %9 = extractvalue { i8*, i32 } %8, 0, !dbg !10384
  store i8* %9, i8** %exn.slot, align 8, !dbg !10384
  %10 = extractvalue { i8*, i32 } %8, 1, !dbg !10384
  store i32 %10, i32* %ehselector.slot, align 4, !dbg !10384
  %11 = bitcast %"class.std::vector"* %this1 to %"struct.std::_Vector_base"*, !dbg !10384
  call void @_ZNSt12_Vector_baseISt6vectorIN6dealii10FullMatrixIdEESaIS3_EESaIS5_EED2Ev(%"struct.std::_Vector_base"* %11) #4, !dbg !10384
  br label %terminate.handler, !dbg !10384

terminate.handler:                                ; preds = %lpad
  %exn = load i8*, i8** %exn.slot, align 8, !dbg !10384
  call void @__clang_call_terminate(i8* %exn) #13, !dbg !10384
  unreachable, !dbg !10384
}

; Function Attrs: nounwind
declare dso_local void @_ZN6dealii13FiniteElementILi3ELi3EED1Ev(%"class.dealii::FiniteElement"*) unnamed_addr #3

; Function Attrs: nounwind
declare dso_local void @_ZN6dealii13FiniteElementILi3ELi3EED0Ev(%"class.dealii::FiniteElement"*) unnamed_addr #3

declare dso_local double @_ZNK6dealii13FiniteElementILi3ELi3EE11shape_valueEjRKNS_5PointILi3EEE(%"class.dealii::FiniteElement"*, i32, %"class.dealii::Point"* dereferenceable(24)) unnamed_addr #2

declare dso_local double @_ZNK6dealii13FiniteElementILi3ELi3EE21shape_value_componentEjRKNS_5PointILi3EEEj(%"class.dealii::FiniteElement"*, i32, %"class.dealii::Point"* dereferenceable(24), i32) unnamed_addr #2

declare dso_local void @_ZNK6dealii13FiniteElementILi3ELi3EE10shape_gradEjRKNS_5PointILi3EEE(%"class.dealii::Tensor"* sret, %"class.dealii::FiniteElement"*, i32, %"class.dealii::Point"* dereferenceable(24)) unnamed_addr #2

declare dso_local void @_ZNK6dealii13FiniteElementILi3ELi3EE20shape_grad_componentEjRKNS_5PointILi3EEEj(%"class.dealii::Tensor"* sret, %"class.dealii::FiniteElement"*, i32, %"class.dealii::Point"* dereferenceable(24), i32) unnamed_addr #2

declare dso_local void @_ZNK6dealii13FiniteElementILi3ELi3EE15shape_grad_gradEjRKNS_5PointILi3EEE(%"class.dealii::Tensor.84"* sret, %"class.dealii::FiniteElement"*, i32, %"class.dealii::Point"* dereferenceable(24)) unnamed_addr #2

declare dso_local void @_ZNK6dealii13FiniteElementILi3ELi3EE25shape_grad_grad_componentEjRKNS_5PointILi3EEEj(%"class.dealii::Tensor.84"* sret, %"class.dealii::FiniteElement"*, i32, %"class.dealii::Point"* dereferenceable(24), i32) unnamed_addr #2

; Function Attrs: noinline nounwind uwtable
define linkonce_odr dso_local i64 @_ZNKSt6vectorIS_IN6dealii10FullMatrixIdEESaIS2_EESaIS4_EE4sizeEv(%"class.std::vector"* %this) #1 comdat align 2 !dbg !10386 {
entry:
  %this.addr = alloca %"class.std::vector"*, align 8
  store %"class.std::vector"* %this, %"class.std::vector"** %this.addr, align 8
  call void @llvm.dbg.declare(metadata %"class.std::vector"** %this.addr, metadata !10387, metadata !DIExpression()), !dbg !10389
  %this1 = load %"class.std::vector"*, %"class.std::vector"** %this.addr, align 8
  %0 = bitcast %"class.std::vector"* %this1 to %"struct.std::_Vector_base"*, !dbg !10390
  %_M_impl = getelementptr inbounds %"struct.std::_Vector_base", %"struct.std::_Vector_base"* %0, i32 0, i32 0, !dbg !10390
  %1 = bitcast %"struct.std::_Vector_base<std::vector<dealii::FullMatrix<double>, std::allocator<dealii::FullMatrix<double> > >, std::allocator<std::vector<dealii::FullMatrix<double>, std::allocator<dealii::FullMatrix<double> > > > >::_Vector_impl"* %_M_impl to %"struct.std::_Vector_base<std::vector<dealii::FullMatrix<double>, std::allocator<dealii::FullMatrix<double> > >, std::allocator<std::vector<dealii::FullMatrix<double>, std::allocator<dealii::FullMatrix<double> > > > >::_Vector_impl_data"*, !dbg !10391
  %_M_finish = getelementptr inbounds %"struct.std::_Vector_base<std::vector<dealii::FullMatrix<double>, std::allocator<dealii::FullMatrix<double> > >, std::allocator<std::vector<dealii::FullMatrix<double>, std::allocator<dealii::FullMatrix<double> > > > >::_Vector_impl_data", %"struct.std::_Vector_base<std::vector<dealii::FullMatrix<double>, std::allocator<dealii::FullMatrix<double> > >, std::allocator<std::vector<dealii::FullMatrix<double>, std::allocator<dealii::FullMatrix<double> > > > >::_Vector_impl_data"* %1, i32 0, i32 1, !dbg !10392
  %2 = load %"class.std::vector.19"*, %"class.std::vector.19"** %_M_finish, align 8, !dbg !10392
  %3 = bitcast %"class.std::vector"* %this1 to %"struct.std::_Vector_base"*, !dbg !10393
  %_M_impl2 = getelementptr inbounds %"struct.std::_Vector_base", %"struct.std::_Vector_base"* %3, i32 0, i32 0, !dbg !10393
  %4 = bitcast %"struct.std::_Vector_base<std::vector<dealii::FullMatrix<double>, std::allocator<dealii::FullMatrix<double> > >, std::allocator<std::vector<dealii::FullMatrix<double>, std::allocator<dealii::FullMatrix<double> > > > >::_Vector_impl"* %_M_impl2 to %"struct.std::_Vector_base<std::vector<dealii::FullMatrix<double>, std::allocator<dealii::FullMatrix<double> > >, std::allocator<std::vector<dealii::FullMatrix<double>, std::allocator<dealii::FullMatrix<double> > > > >::_Vector_impl_data"*, !dbg !10394
  %_M_start = getelementptr inbounds %"struct.std::_Vector_base<std::vector<dealii::FullMatrix<double>, std::allocator<dealii::FullMatrix<double> > >, std::allocator<std::vector<dealii::FullMatrix<double>, std::allocator<dealii::FullMatrix<double> > > > >::_Vector_impl_data", %"struct.std::_Vector_base<std::vector<dealii::FullMatrix<double>, std::allocator<dealii::FullMatrix<double> > >, std::allocator<std::vector<dealii::FullMatrix<double>, std::allocator<dealii::FullMatrix<double> > > > >::_Vector_impl_data"* %4, i32 0, i32 0, !dbg !10395
  %5 = load %"class.std::vector.19"*, %"class.std::vector.19"** %_M_start, align 8, !dbg !10395
  %sub.ptr.lhs.cast = ptrtoint %"class.std::vector.19"* %2 to i64, !dbg !10396
  %sub.ptr.rhs.cast = ptrtoint %"class.std::vector.19"* %5 to i64, !dbg !10396
  %sub.ptr.sub = sub i64 %sub.ptr.lhs.cast, %sub.ptr.rhs.cast, !dbg !10396
  %sub.ptr.div = sdiv exact i64 %sub.ptr.sub, 24, !dbg !10396
  ret i64 %sub.ptr.div, !dbg !10397
}

; Function Attrs: noinline uwtable
define linkonce_odr dso_local void @_ZN9__gnu_cxx14__alloc_traitsISaISt6vectorIN6dealii10FullMatrixIdEESaIS4_EEES6_E17_S_select_on_copyERKS7_(%"class.std::allocator.16"* noalias sret %agg.result, %"class.std::allocator.16"* dereferenceable(1) %__a) #0 comdat align 2 !dbg !10398 {
entry:
  %result.ptr = alloca i8*, align 8
  %__a.addr = alloca %"class.std::allocator.16"*, align 8
  %0 = bitcast %"class.std::allocator.16"* %agg.result to i8*
  store i8* %0, i8** %result.ptr, align 8
  store %"class.std::allocator.16"* %__a, %"class.std::allocator.16"** %__a.addr, align 8
  call void @llvm.dbg.declare(metadata %"class.std::allocator.16"** %__a.addr, metadata !10399, metadata !DIExpression()), !dbg !10400
  %1 = load %"class.std::allocator.16"*, %"class.std::allocator.16"** %__a.addr, align 8, !dbg !10401
  call void @_ZNSt16allocator_traitsISaISt6vectorIN6dealii10FullMatrixIdEESaIS3_EEEE37select_on_container_copy_constructionERKS6_(%"class.std::allocator.16"* sret %agg.result, %"class.std::allocator.16"* dereferenceable(1) %1), !dbg !10402
  ret void, !dbg !10403
}

; Function Attrs: noinline nounwind uwtable
define linkonce_odr dso_local dereferenceable(1) %"class.std::allocator.16"* @_ZNKSt12_Vector_baseISt6vectorIN6dealii10FullMatrixIdEESaIS3_EESaIS5_EE19_M_get_Tp_allocatorEv(%"struct.std::_Vector_base"* %this) #1 comdat align 2 !dbg !10404 {
entry:
  %this.addr = alloca %"struct.std::_Vector_base"*, align 8
  store %"struct.std::_Vector_base"* %this, %"struct.std::_Vector_base"** %this.addr, align 8
  call void @llvm.dbg.declare(metadata %"struct.std::_Vector_base"** %this.addr, metadata !10405, metadata !DIExpression()), !dbg !10407
  %this1 = load %"struct.std::_Vector_base"*, %"struct.std::_Vector_base"** %this.addr, align 8
  %_M_impl = getelementptr inbounds %"struct.std::_Vector_base", %"struct.std::_Vector_base"* %this1, i32 0, i32 0, !dbg !10408
  %0 = bitcast %"struct.std::_Vector_base<std::vector<dealii::FullMatrix<double>, std::allocator<dealii::FullMatrix<double> > >, std::allocator<std::vector<dealii::FullMatrix<double>, std::allocator<dealii::FullMatrix<double> > > > >::_Vector_impl"* %_M_impl to %"class.std::allocator.16"*, !dbg !10409
  ret %"class.std::allocator.16"* %0, !dbg !10410
}

; Function Attrs: noinline uwtable
define linkonce_odr dso_local void @_ZNSt12_Vector_baseISt6vectorIN6dealii10FullMatrixIdEESaIS3_EESaIS5_EEC2EmRKS6_(%"struct.std::_Vector_base"* %this, i64 %__n, %"class.std::allocator.16"* dereferenceable(1) %__a) unnamed_addr #0 comdat align 2 personality i8* bitcast (i32 (...)* @__gxx_personality_v0 to i8*) !dbg !10411 {
entry:
  %this.addr = alloca %"struct.std::_Vector_base"*, align 8
  %__n.addr = alloca i64, align 8
  %__a.addr = alloca %"class.std::allocator.16"*, align 8
  %exn.slot = alloca i8*
  %ehselector.slot = alloca i32
  store %"struct.std::_Vector_base"* %this, %"struct.std::_Vector_base"** %this.addr, align 8
  call void @llvm.dbg.declare(metadata %"struct.std::_Vector_base"** %this.addr, metadata !10412, metadata !DIExpression()), !dbg !10414
  store i64 %__n, i64* %__n.addr, align 8
  call void @llvm.dbg.declare(metadata i64* %__n.addr, metadata !10415, metadata !DIExpression()), !dbg !10416
  store %"class.std::allocator.16"* %__a, %"class.std::allocator.16"** %__a.addr, align 8
  call void @llvm.dbg.declare(metadata %"class.std::allocator.16"** %__a.addr, metadata !10417, metadata !DIExpression()), !dbg !10418
  %this1 = load %"struct.std::_Vector_base"*, %"struct.std::_Vector_base"** %this.addr, align 8
  %_M_impl = getelementptr inbounds %"struct.std::_Vector_base", %"struct.std::_Vector_base"* %this1, i32 0, i32 0, !dbg !10419
  %0 = load %"class.std::allocator.16"*, %"class.std::allocator.16"** %__a.addr, align 8, !dbg !10420
  call void @_ZNSt12_Vector_baseISt6vectorIN6dealii10FullMatrixIdEESaIS3_EESaIS5_EE12_Vector_implC2ERKS6_(%"struct.std::_Vector_base<std::vector<dealii::FullMatrix<double>, std::allocator<dealii::FullMatrix<double> > >, std::allocator<std::vector<dealii::FullMatrix<double>, std::allocator<dealii::FullMatrix<double> > > > >::_Vector_impl"* %_M_impl, %"class.std::allocator.16"* dereferenceable(1) %0) #4, !dbg !10419
  %1 = load i64, i64* %__n.addr, align 8, !dbg !10421
  invoke void @_ZNSt12_Vector_baseISt6vectorIN6dealii10FullMatrixIdEESaIS3_EESaIS5_EE17_M_create_storageEm(%"struct.std::_Vector_base"* %this1, i64 %1)
          to label %invoke.cont unwind label %lpad, !dbg !10423

invoke.cont:                                      ; preds = %entry
  ret void, !dbg !10424

lpad:                                             ; preds = %entry
  %2 = landingpad { i8*, i32 }
          cleanup, !dbg !10425
  %3 = extractvalue { i8*, i32 } %2, 0, !dbg !10425
  store i8* %3, i8** %exn.slot, align 8, !dbg !10425
  %4 = extractvalue { i8*, i32 } %2, 1, !dbg !10425
  store i32 %4, i32* %ehselector.slot, align 4, !dbg !10425
  call void @_ZNSt12_Vector_baseISt6vectorIN6dealii10FullMatrixIdEESaIS3_EESaIS5_EE12_Vector_implD2Ev(%"struct.std::_Vector_base<std::vector<dealii::FullMatrix<double>, std::allocator<dealii::FullMatrix<double> > >, std::allocator<std::vector<dealii::FullMatrix<double>, std::allocator<dealii::FullMatrix<double> > > > >::_Vector_impl"* %_M_impl) #4, !dbg !10425
  br label %eh.resume, !dbg !10425

eh.resume:                                        ; preds = %lpad
  %exn = load i8*, i8** %exn.slot, align 8, !dbg !10425
  %sel = load i32, i32* %ehselector.slot, align 4, !dbg !10425
  %lpad.val = insertvalue { i8*, i32 } undef, i8* %exn, 0, !dbg !10425
  %lpad.val2 = insertvalue { i8*, i32 } %lpad.val, i32 %sel, 1, !dbg !10425
  resume { i8*, i32 } %lpad.val2, !dbg !10425
}

; Function Attrs: noinline nounwind uwtable
define linkonce_odr dso_local void @_ZNSaISt6vectorIN6dealii10FullMatrixIdEESaIS2_EEED2Ev(%"class.std::allocator.16"* %this) unnamed_addr #1 comdat align 2 !dbg !10426 {
entry:
  %this.addr = alloca %"class.std::allocator.16"*, align 8
  store %"class.std::allocator.16"* %this, %"class.std::allocator.16"** %this.addr, align 8
  call void @llvm.dbg.declare(metadata %"class.std::allocator.16"** %this.addr, metadata !10427, metadata !DIExpression()), !dbg !10429
  %this1 = load %"class.std::allocator.16"*, %"class.std::allocator.16"** %this.addr, align 8
  %0 = bitcast %"class.std::allocator.16"* %this1 to %"class.__gnu_cxx::new_allocator.17"*, !dbg !10430
  call void @_ZN9__gnu_cxx13new_allocatorISt6vectorIN6dealii10FullMatrixIdEESaIS4_EEED2Ev(%"class.__gnu_cxx::new_allocator.17"* %0) #4, !dbg !10430
  ret void, !dbg !10432
}

; Function Attrs: noinline uwtable
define linkonce_odr dso_local %"class.std::vector.19"* @_ZSt22__uninitialized_copy_aIN9__gnu_cxx17__normal_iteratorIPKSt6vectorIN6dealii10FullMatrixIdEESaIS5_EES2_IS7_SaIS7_EEEEPS7_S7_ET0_T_SF_SE_RSaIT1_E(%"class.std::vector.19"* %__first.coerce, %"class.std::vector.19"* %__last.coerce, %"class.std::vector.19"* %__result, %"class.std::allocator.16"* dereferenceable(1) %0) #0 comdat !dbg !10433 {
entry:
  %__first = alloca %"class.__gnu_cxx::__normal_iterator", align 8
  %__last = alloca %"class.__gnu_cxx::__normal_iterator", align 8
  %__result.addr = alloca %"class.std::vector.19"*, align 8
  %.addr = alloca %"class.std::allocator.16"*, align 8
  %agg.tmp = alloca %"class.__gnu_cxx::__normal_iterator", align 8
  %agg.tmp2 = alloca %"class.__gnu_cxx::__normal_iterator", align 8
  %coerce.dive = getelementptr inbounds %"class.__gnu_cxx::__normal_iterator", %"class.__gnu_cxx::__normal_iterator"* %__first, i32 0, i32 0
  store %"class.std::vector.19"* %__first.coerce, %"class.std::vector.19"** %coerce.dive, align 8
  %coerce.dive1 = getelementptr inbounds %"class.__gnu_cxx::__normal_iterator", %"class.__gnu_cxx::__normal_iterator"* %__last, i32 0, i32 0
  store %"class.std::vector.19"* %__last.coerce, %"class.std::vector.19"** %coerce.dive1, align 8
  call void @llvm.dbg.declare(metadata %"class.__gnu_cxx::__normal_iterator"* %__first, metadata !10440, metadata !DIExpression()), !dbg !10441
  call void @llvm.dbg.declare(metadata %"class.__gnu_cxx::__normal_iterator"* %__last, metadata !10442, metadata !DIExpression()), !dbg !10443
  store %"class.std::vector.19"* %__result, %"class.std::vector.19"** %__result.addr, align 8
  call void @llvm.dbg.declare(metadata %"class.std::vector.19"** %__result.addr, metadata !10444, metadata !DIExpression()), !dbg !10445
  store %"class.std::allocator.16"* %0, %"class.std::allocator.16"** %.addr, align 8
  call void @llvm.dbg.declare(metadata %"class.std::allocator.16"** %.addr, metadata !10446, metadata !DIExpression()), !dbg !10447
  %1 = bitcast %"class.__gnu_cxx::__normal_iterator"* %agg.tmp to i8*, !dbg !10448
  %2 = bitcast %"class.__gnu_cxx::__normal_iterator"* %__first to i8*, !dbg !10448
  call void @llvm.memcpy.p0i8.p0i8.i64(i8* align 8 %1, i8* align 8 %2, i64 8, i1 false), !dbg !10448
  %3 = bitcast %"class.__gnu_cxx::__normal_iterator"* %agg.tmp2 to i8*, !dbg !10449
  %4 = bitcast %"class.__gnu_cxx::__normal_iterator"* %__last to i8*, !dbg !10449
  call void @llvm.memcpy.p0i8.p0i8.i64(i8* align 8 %3, i8* align 8 %4, i64 8, i1 false), !dbg !10449
  %5 = load %"class.std::vector.19"*, %"class.std::vector.19"** %__result.addr, align 8, !dbg !10450
  %coerce.dive3 = getelementptr inbounds %"class.__gnu_cxx::__normal_iterator", %"class.__gnu_cxx::__normal_iterator"* %agg.tmp, i32 0, i32 0, !dbg !10451
  %6 = load %"class.std::vector.19"*, %"class.std::vector.19"** %coerce.dive3, align 8, !dbg !10451
  %coerce.dive4 = getelementptr inbounds %"class.__gnu_cxx::__normal_iterator", %"class.__gnu_cxx::__normal_iterator"* %agg.tmp2, i32 0, i32 0, !dbg !10451
  %7 = load %"class.std::vector.19"*, %"class.std::vector.19"** %coerce.dive4, align 8, !dbg !10451
  %call = call %"class.std::vector.19"* @_ZSt18uninitialized_copyIN9__gnu_cxx17__normal_iteratorIPKSt6vectorIN6dealii10FullMatrixIdEESaIS5_EES2_IS7_SaIS7_EEEEPS7_ET0_T_SF_SE_(%"class.std::vector.19"* %6, %"class.std::vector.19"* %7, %"class.std::vector.19"* %5), !dbg !10451
  ret %"class.std::vector.19"* %call, !dbg !10452
}

; Function Attrs: noinline nounwind uwtable
define linkonce_odr dso_local %"class.std::vector.19"* @_ZNKSt6vectorIS_IN6dealii10FullMatrixIdEESaIS2_EESaIS4_EE5beginEv(%"class.std::vector"* %this) #1 comdat align 2 !dbg !10453 {
entry:
  %retval = alloca %"class.__gnu_cxx::__normal_iterator", align 8
  %this.addr = alloca %"class.std::vector"*, align 8
  store %"class.std::vector"* %this, %"class.std::vector"** %this.addr, align 8
  call void @llvm.dbg.declare(metadata %"class.std::vector"** %this.addr, metadata !10454, metadata !DIExpression()), !dbg !10455
  %this1 = load %"class.std::vector"*, %"class.std::vector"** %this.addr, align 8
  %0 = bitcast %"class.std::vector"* %this1 to %"struct.std::_Vector_base"*, !dbg !10456
  %_M_impl = getelementptr inbounds %"struct.std::_Vector_base", %"struct.std::_Vector_base"* %0, i32 0, i32 0, !dbg !10456
  %1 = bitcast %"struct.std::_Vector_base<std::vector<dealii::FullMatrix<double>, std::allocator<dealii::FullMatrix<double> > >, std::allocator<std::vector<dealii::FullMatrix<double>, std::allocator<dealii::FullMatrix<double> > > > >::_Vector_impl"* %_M_impl to %"struct.std::_Vector_base<std::vector<dealii::FullMatrix<double>, std::allocator<dealii::FullMatrix<double> > >, std::allocator<std::vector<dealii::FullMatrix<double>, std::allocator<dealii::FullMatrix<double> > > > >::_Vector_impl_data"*, !dbg !10457
  %_M_start = getelementptr inbounds %"struct.std::_Vector_base<std::vector<dealii::FullMatrix<double>, std::allocator<dealii::FullMatrix<double> > >, std::allocator<std::vector<dealii::FullMatrix<double>, std::allocator<dealii::FullMatrix<double> > > > >::_Vector_impl_data", %"struct.std::_Vector_base<std::vector<dealii::FullMatrix<double>, std::allocator<dealii::FullMatrix<double> > >, std::allocator<std::vector<dealii::FullMatrix<double>, std::allocator<dealii::FullMatrix<double> > > > >::_Vector_impl_data"* %1, i32 0, i32 0, !dbg !10458
  call void @_ZN9__gnu_cxx17__normal_iteratorIPKSt6vectorIN6dealii10FullMatrixIdEESaIS4_EES1_IS6_SaIS6_EEEC2ERKS8_(%"class.__gnu_cxx::__normal_iterator"* %retval, %"class.std::vector.19"** dereferenceable(8) %_M_start) #4, !dbg !10459
  %coerce.dive = getelementptr inbounds %"class.__gnu_cxx::__normal_iterator", %"class.__gnu_cxx::__normal_iterator"* %retval, i32 0, i32 0, !dbg !10460
  %2 = load %"class.std::vector.19"*, %"class.std::vector.19"** %coerce.dive, align 8, !dbg !10460
  ret %"class.std::vector.19"* %2, !dbg !10460
}

; Function Attrs: noinline nounwind uwtable
define linkonce_odr dso_local %"class.std::vector.19"* @_ZNKSt6vectorIS_IN6dealii10FullMatrixIdEESaIS2_EESaIS4_EE3endEv(%"class.std::vector"* %this) #1 comdat align 2 !dbg !10461 {
entry:
  %retval = alloca %"class.__gnu_cxx::__normal_iterator", align 8
  %this.addr = alloca %"class.std::vector"*, align 8
  store %"class.std::vector"* %this, %"class.std::vector"** %this.addr, align 8
  call void @llvm.dbg.declare(metadata %"class.std::vector"** %this.addr, metadata !10462, metadata !DIExpression()), !dbg !10463
  %this1 = load %"class.std::vector"*, %"class.std::vector"** %this.addr, align 8
  %0 = bitcast %"class.std::vector"* %this1 to %"struct.std::_Vector_base"*, !dbg !10464
  %_M_impl = getelementptr inbounds %"struct.std::_Vector_base", %"struct.std::_Vector_base"* %0, i32 0, i32 0, !dbg !10464
  %1 = bitcast %"struct.std::_Vector_base<std::vector<dealii::FullMatrix<double>, std::allocator<dealii::FullMatrix<double> > >, std::allocator<std::vector<dealii::FullMatrix<double>, std::allocator<dealii::FullMatrix<double> > > > >::_Vector_impl"* %_M_impl to %"struct.std::_Vector_base<std::vector<dealii::FullMatrix<double>, std::allocator<dealii::FullMatrix<double> > >, std::allocator<std::vector<dealii::FullMatrix<double>, std::allocator<dealii::FullMatrix<double> > > > >::_Vector_impl_data"*, !dbg !10465
  %_M_finish = getelementptr inbounds %"struct.std::_Vector_base<std::vector<dealii::FullMatrix<double>, std::allocator<dealii::FullMatrix<double> > >, std::allocator<std::vector<dealii::FullMatrix<double>, std::allocator<dealii::FullMatrix<double> > > > >::_Vector_impl_data", %"struct.std::_Vector_base<std::vector<dealii::FullMatrix<double>, std::allocator<dealii::FullMatrix<double> > >, std::allocator<std::vector<dealii::FullMatrix<double>, std::allocator<dealii::FullMatrix<double> > > > >::_Vector_impl_data"* %1, i32 0, i32 1, !dbg !10466
  call void @_ZN9__gnu_cxx17__normal_iteratorIPKSt6vectorIN6dealii10FullMatrixIdEESaIS4_EES1_IS6_SaIS6_EEEC2ERKS8_(%"class.__gnu_cxx::__normal_iterator"* %retval, %"class.std::vector.19"** dereferenceable(8) %_M_finish) #4, !dbg !10467
  %coerce.dive = getelementptr inbounds %"class.__gnu_cxx::__normal_iterator", %"class.__gnu_cxx::__normal_iterator"* %retval, i32 0, i32 0, !dbg !10468
  %2 = load %"class.std::vector.19"*, %"class.std::vector.19"** %coerce.dive, align 8, !dbg !10468
  ret %"class.std::vector.19"* %2, !dbg !10468
}

; Function Attrs: noinline nounwind uwtable
define linkonce_odr dso_local dereferenceable(1) %"class.std::allocator.16"* @_ZNSt12_Vector_baseISt6vectorIN6dealii10FullMatrixIdEESaIS3_EESaIS5_EE19_M_get_Tp_allocatorEv(%"struct.std::_Vector_base"* %this) #1 comdat align 2 !dbg !10469 {
entry:
  %this.addr = alloca %"struct.std::_Vector_base"*, align 8
  store %"struct.std::_Vector_base"* %this, %"struct.std::_Vector_base"** %this.addr, align 8
  call void @llvm.dbg.declare(metadata %"struct.std::_Vector_base"** %this.addr, metadata !10470, metadata !DIExpression()), !dbg !10471
  %this1 = load %"struct.std::_Vector_base"*, %"struct.std::_Vector_base"** %this.addr, align 8
  %_M_impl = getelementptr inbounds %"struct.std::_Vector_base", %"struct.std::_Vector_base"* %this1, i32 0, i32 0, !dbg !10472
  %0 = bitcast %"struct.std::_Vector_base<std::vector<dealii::FullMatrix<double>, std::allocator<dealii::FullMatrix<double> > >, std::allocator<std::vector<dealii::FullMatrix<double>, std::allocator<dealii::FullMatrix<double> > > > >::_Vector_impl"* %_M_impl to %"class.std::allocator.16"*, !dbg !10473
  ret %"class.std::allocator.16"* %0, !dbg !10474
}

; Function Attrs: noinline nounwind uwtable
define linkonce_odr dso_local void @_ZNSt12_Vector_baseISt6vectorIN6dealii10FullMatrixIdEESaIS3_EESaIS5_EED2Ev(%"struct.std::_Vector_base"* %this) unnamed_addr #1 comdat align 2 personality i8* bitcast (i32 (...)* @__gxx_personality_v0 to i8*) !dbg !10475 {
entry:
  %this.addr = alloca %"struct.std::_Vector_base"*, align 8
  %exn.slot = alloca i8*
  %ehselector.slot = alloca i32
  store %"struct.std::_Vector_base"* %this, %"struct.std::_Vector_base"** %this.addr, align 8
  call void @llvm.dbg.declare(metadata %"struct.std::_Vector_base"** %this.addr, metadata !10476, metadata !DIExpression()), !dbg !10477
  %this1 = load %"struct.std::_Vector_base"*, %"struct.std::_Vector_base"** %this.addr, align 8
  %_M_impl = getelementptr inbounds %"struct.std::_Vector_base", %"struct.std::_Vector_base"* %this1, i32 0, i32 0, !dbg !10478
  %0 = bitcast %"struct.std::_Vector_base<std::vector<dealii::FullMatrix<double>, std::allocator<dealii::FullMatrix<double> > >, std::allocator<std::vector<dealii::FullMatrix<double>, std::allocator<dealii::FullMatrix<double> > > > >::_Vector_impl"* %_M_impl to %"struct.std::_Vector_base<std::vector<dealii::FullMatrix<double>, std::allocator<dealii::FullMatrix<double> > >, std::allocator<std::vector<dealii::FullMatrix<double>, std::allocator<dealii::FullMatrix<double> > > > >::_Vector_impl_data"*, !dbg !10478
  %_M_start = getelementptr inbounds %"struct.std::_Vector_base<std::vector<dealii::FullMatrix<double>, std::allocator<dealii::FullMatrix<double> > >, std::allocator<std::vector<dealii::FullMatrix<double>, std::allocator<dealii::FullMatrix<double> > > > >::_Vector_impl_data", %"struct.std::_Vector_base<std::vector<dealii::FullMatrix<double>, std::allocator<dealii::FullMatrix<double> > >, std::allocator<std::vector<dealii::FullMatrix<double>, std::allocator<dealii::FullMatrix<double> > > > >::_Vector_impl_data"* %0, i32 0, i32 0, !dbg !10480
  %1 = load %"class.std::vector.19"*, %"class.std::vector.19"** %_M_start, align 8, !dbg !10480
  %_M_impl2 = getelementptr inbounds %"struct.std::_Vector_base", %"struct.std::_Vector_base"* %this1, i32 0, i32 0, !dbg !10481
  %2 = bitcast %"struct.std::_Vector_base<std::vector<dealii::FullMatrix<double>, std::allocator<dealii::FullMatrix<double> > >, std::allocator<std::vector<dealii::FullMatrix<double>, std::allocator<dealii::FullMatrix<double> > > > >::_Vector_impl"* %_M_impl2 to %"struct.std::_Vector_base<std::vector<dealii::FullMatrix<double>, std::allocator<dealii::FullMatrix<double> > >, std::allocator<std::vector<dealii::FullMatrix<double>, std::allocator<dealii::FullMatrix<double> > > > >::_Vector_impl_data"*, !dbg !10481
  %_M_end_of_storage = getelementptr inbounds %"struct.std::_Vector_base<std::vector<dealii::FullMatrix<double>, std::allocator<dealii::FullMatrix<double> > >, std::allocator<std::vector<dealii::FullMatrix<double>, std::allocator<dealii::FullMatrix<double> > > > >::_Vector_impl_data", %"struct.std::_Vector_base<std::vector<dealii::FullMatrix<double>, std::allocator<dealii::FullMatrix<double> > >, std::allocator<std::vector<dealii::FullMatrix<double>, std::allocator<dealii::FullMatrix<double> > > > >::_Vector_impl_data"* %2, i32 0, i32 2, !dbg !10482
  %3 = load %"class.std::vector.19"*, %"class.std::vector.19"** %_M_end_of_storage, align 8, !dbg !10482
  %_M_impl3 = getelementptr inbounds %"struct.std::_Vector_base", %"struct.std::_Vector_base"* %this1, i32 0, i32 0, !dbg !10483
  %4 = bitcast %"struct.std::_Vector_base<std::vector<dealii::FullMatrix<double>, std::allocator<dealii::FullMatrix<double> > >, std::allocator<std::vector<dealii::FullMatrix<double>, std::allocator<dealii::FullMatrix<double> > > > >::_Vector_impl"* %_M_impl3 to %"struct.std::_Vector_base<std::vector<dealii::FullMatrix<double>, std::allocator<dealii::FullMatrix<double> > >, std::allocator<std::vector<dealii::FullMatrix<double>, std::allocator<dealii::FullMatrix<double> > > > >::_Vector_impl_data"*, !dbg !10483
  %_M_start4 = getelementptr inbounds %"struct.std::_Vector_base<std::vector<dealii::FullMatrix<double>, std::allocator<dealii::FullMatrix<double> > >, std::allocator<std::vector<dealii::FullMatrix<double>, std::allocator<dealii::FullMatrix<double> > > > >::_Vector_impl_data", %"struct.std::_Vector_base<std::vector<dealii::FullMatrix<double>, std::allocator<dealii::FullMatrix<double> > >, std::allocator<std::vector<dealii::FullMatrix<double>, std::allocator<dealii::FullMatrix<double> > > > >::_Vector_impl_data"* %4, i32 0, i32 0, !dbg !10484
  %5 = load %"class.std::vector.19"*, %"class.std::vector.19"** %_M_start4, align 8, !dbg !10484
  %sub.ptr.lhs.cast = ptrtoint %"class.std::vector.19"* %3 to i64, !dbg !10485
  %sub.ptr.rhs.cast = ptrtoint %"class.std::vector.19"* %5 to i64, !dbg !10485
  %sub.ptr.sub = sub i64 %sub.ptr.lhs.cast, %sub.ptr.rhs.cast, !dbg !10485
  %sub.ptr.div = sdiv exact i64 %sub.ptr.sub, 24, !dbg !10485
  invoke void @_ZNSt12_Vector_baseISt6vectorIN6dealii10FullMatrixIdEESaIS3_EESaIS5_EE13_M_deallocateEPS5_m(%"struct.std::_Vector_base"* %this1, %"class.std::vector.19"* %1, i64 %sub.ptr.div)
          to label %invoke.cont unwind label %lpad, !dbg !10486

invoke.cont:                                      ; preds = %entry
  %_M_impl5 = getelementptr inbounds %"struct.std::_Vector_base", %"struct.std::_Vector_base"* %this1, i32 0, i32 0, !dbg !10487
  call void @_ZNSt12_Vector_baseISt6vectorIN6dealii10FullMatrixIdEESaIS3_EESaIS5_EE12_Vector_implD2Ev(%"struct.std::_Vector_base<std::vector<dealii::FullMatrix<double>, std::allocator<dealii::FullMatrix<double> > >, std::allocator<std::vector<dealii::FullMatrix<double>, std::allocator<dealii::FullMatrix<double> > > > >::_Vector_impl"* %_M_impl5) #4, !dbg !10487
  ret void, !dbg !10488

lpad:                                             ; preds = %entry
  %6 = landingpad { i8*, i32 }
          catch i8* null, !dbg !10487
  %7 = extractvalue { i8*, i32 } %6, 0, !dbg !10487
  store i8* %7, i8** %exn.slot, align 8, !dbg !10487
  %8 = extractvalue { i8*, i32 } %6, 1, !dbg !10487
  store i32 %8, i32* %ehselector.slot, align 4, !dbg !10487
  %_M_impl6 = getelementptr inbounds %"struct.std::_Vector_base", %"struct.std::_Vector_base"* %this1, i32 0, i32 0, !dbg !10487
  call void @_ZNSt12_Vector_baseISt6vectorIN6dealii10FullMatrixIdEESaIS3_EESaIS5_EE12_Vector_implD2Ev(%"struct.std::_Vector_base<std::vector<dealii::FullMatrix<double>, std::allocator<dealii::FullMatrix<double> > >, std::allocator<std::vector<dealii::FullMatrix<double>, std::allocator<dealii::FullMatrix<double> > > > >::_Vector_impl"* %_M_impl6) #4, !dbg !10487
  br label %terminate.handler, !dbg !10487

terminate.handler:                                ; preds = %lpad
  %exn = load i8*, i8** %exn.slot, align 8, !dbg !10487
  call void @__clang_call_terminate(i8* %exn) #13, !dbg !10487
  unreachable, !dbg !10487
}

; Function Attrs: noinline nounwind uwtable
define linkonce_odr dso_local void @_ZNSt16allocator_traitsISaISt6vectorIN6dealii10FullMatrixIdEESaIS3_EEEE37select_on_container_copy_constructionERKS6_(%"class.std::allocator.16"* noalias sret %agg.result, %"class.std::allocator.16"* dereferenceable(1) %__rhs) #1 comdat align 2 !dbg !10489 {
entry:
  %result.ptr = alloca i8*, align 8
  %__rhs.addr = alloca %"class.std::allocator.16"*, align 8
  %0 = bitcast %"class.std::allocator.16"* %agg.result to i8*
  store i8* %0, i8** %result.ptr, align 8
  store %"class.std::allocator.16"* %__rhs, %"class.std::allocator.16"** %__rhs.addr, align 8
  call void @llvm.dbg.declare(metadata %"class.std::allocator.16"** %__rhs.addr, metadata !10490, metadata !DIExpression()), !dbg !10491
  %1 = load %"class.std::allocator.16"*, %"class.std::allocator.16"** %__rhs.addr, align 8, !dbg !10492
  call void @_ZNSaISt6vectorIN6dealii10FullMatrixIdEESaIS2_EEEC2ERKS5_(%"class.std::allocator.16"* %agg.result, %"class.std::allocator.16"* dereferenceable(1) %1) #4, !dbg !10492
  ret void, !dbg !10493
}

; Function Attrs: noinline nounwind uwtable
define linkonce_odr dso_local void @_ZNSaISt6vectorIN6dealii10FullMatrixIdEESaIS2_EEEC2ERKS5_(%"class.std::allocator.16"* %this, %"class.std::allocator.16"* dereferenceable(1) %__a) unnamed_addr #1 comdat align 2 !dbg !10494 {
entry:
  %this.addr = alloca %"class.std::allocator.16"*, align 8
  %__a.addr = alloca %"class.std::allocator.16"*, align 8
  store %"class.std::allocator.16"* %this, %"class.std::allocator.16"** %this.addr, align 8
  call void @llvm.dbg.declare(metadata %"class.std::allocator.16"** %this.addr, metadata !10495, metadata !DIExpression()), !dbg !10496
  store %"class.std::allocator.16"* %__a, %"class.std::allocator.16"** %__a.addr, align 8
  call void @llvm.dbg.declare(metadata %"class.std::allocator.16"** %__a.addr, metadata !10497, metadata !DIExpression()), !dbg !10498
  %this1 = load %"class.std::allocator.16"*, %"class.std::allocator.16"** %this.addr, align 8
  %0 = bitcast %"class.std::allocator.16"* %this1 to %"class.__gnu_cxx::new_allocator.17"*, !dbg !10499
  %1 = load %"class.std::allocator.16"*, %"class.std::allocator.16"** %__a.addr, align 8, !dbg !10500
  %2 = bitcast %"class.std::allocator.16"* %1 to %"class.__gnu_cxx::new_allocator.17"*, !dbg !10500
  call void @_ZN9__gnu_cxx13new_allocatorISt6vectorIN6dealii10FullMatrixIdEESaIS4_EEEC2ERKS7_(%"class.__gnu_cxx::new_allocator.17"* %0, %"class.__gnu_cxx::new_allocator.17"* dereferenceable(1) %2) #4, !dbg !10501
  ret void, !dbg !10502
}

; Function Attrs: noinline nounwind uwtable
define linkonce_odr dso_local void @_ZN9__gnu_cxx13new_allocatorISt6vectorIN6dealii10FullMatrixIdEESaIS4_EEEC2ERKS7_(%"class.__gnu_cxx::new_allocator.17"* %this, %"class.__gnu_cxx::new_allocator.17"* dereferenceable(1) %0) unnamed_addr #1 comdat align 2 !dbg !10503 {
entry:
  %this.addr = alloca %"class.__gnu_cxx::new_allocator.17"*, align 8
  %.addr = alloca %"class.__gnu_cxx::new_allocator.17"*, align 8
  store %"class.__gnu_cxx::new_allocator.17"* %this, %"class.__gnu_cxx::new_allocator.17"** %this.addr, align 8
  call void @llvm.dbg.declare(metadata %"class.__gnu_cxx::new_allocator.17"** %this.addr, metadata !10504, metadata !DIExpression()), !dbg !10506
  store %"class.__gnu_cxx::new_allocator.17"* %0, %"class.__gnu_cxx::new_allocator.17"** %.addr, align 8
  call void @llvm.dbg.declare(metadata %"class.__gnu_cxx::new_allocator.17"** %.addr, metadata !10507, metadata !DIExpression()), !dbg !10508
  %this1 = load %"class.__gnu_cxx::new_allocator.17"*, %"class.__gnu_cxx::new_allocator.17"** %this.addr, align 8
  ret void, !dbg !10509
}

; Function Attrs: noinline nounwind uwtable
define linkonce_odr dso_local void @_ZNSt12_Vector_baseISt6vectorIN6dealii10FullMatrixIdEESaIS3_EESaIS5_EE12_Vector_implC2ERKS6_(%"struct.std::_Vector_base<std::vector<dealii::FullMatrix<double>, std::allocator<dealii::FullMatrix<double> > >, std::allocator<std::vector<dealii::FullMatrix<double>, std::allocator<dealii::FullMatrix<double> > > > >::_Vector_impl"* %this, %"class.std::allocator.16"* dereferenceable(1) %__a) unnamed_addr #1 comdat align 2 !dbg !10510 {
entry:
  %this.addr = alloca %"struct.std::_Vector_base<std::vector<dealii::FullMatrix<double>, std::allocator<dealii::FullMatrix<double> > >, std::allocator<std::vector<dealii::FullMatrix<double>, std::allocator<dealii::FullMatrix<double> > > > >::_Vector_impl"*, align 8
  %__a.addr = alloca %"class.std::allocator.16"*, align 8
  store %"struct.std::_Vector_base<std::vector<dealii::FullMatrix<double>, std::allocator<dealii::FullMatrix<double> > >, std::allocator<std::vector<dealii::FullMatrix<double>, std::allocator<dealii::FullMatrix<double> > > > >::_Vector_impl"* %this, %"struct.std::_Vector_base<std::vector<dealii::FullMatrix<double>, std::allocator<dealii::FullMatrix<double> > >, std::allocator<std::vector<dealii::FullMatrix<double>, std::allocator<dealii::FullMatrix<double> > > > >::_Vector_impl"** %this.addr, align 8
  call void @llvm.dbg.declare(metadata %"struct.std::_Vector_base<std::vector<dealii::FullMatrix<double>, std::allocator<dealii::FullMatrix<double> > >, std::allocator<std::vector<dealii::FullMatrix<double>, std::allocator<dealii::FullMatrix<double> > > > >::_Vector_impl"** %this.addr, metadata !10511, metadata !DIExpression()), !dbg !10513
  store %"class.std::allocator.16"* %__a, %"class.std::allocator.16"** %__a.addr, align 8
  call void @llvm.dbg.declare(metadata %"class.std::allocator.16"** %__a.addr, metadata !10514, metadata !DIExpression()), !dbg !10515
  %this1 = load %"struct.std::_Vector_base<std::vector<dealii::FullMatrix<double>, std::allocator<dealii::FullMatrix<double> > >, std::allocator<std::vector<dealii::FullMatrix<double>, std::allocator<dealii::FullMatrix<double> > > > >::_Vector_impl"*, %"struct.std::_Vector_base<std::vector<dealii::FullMatrix<double>, std::allocator<dealii::FullMatrix<double> > >, std::allocator<std::vector<dealii::FullMatrix<double>, std::allocator<dealii::FullMatrix<double> > > > >::_Vector_impl"** %this.addr, align 8
  %0 = bitcast %"struct.std::_Vector_base<std::vector<dealii::FullMatrix<double>, std::allocator<dealii::FullMatrix<double> > >, std::allocator<std::vector<dealii::FullMatrix<double>, std::allocator<dealii::FullMatrix<double> > > > >::_Vector_impl"* %this1 to %"class.std::allocator.16"*, !dbg !10516
  %1 = load %"class.std::allocator.16"*, %"class.std::allocator.16"** %__a.addr, align 8, !dbg !10517
  call void @_ZNSaISt6vectorIN6dealii10FullMatrixIdEESaIS2_EEEC2ERKS5_(%"class.std::allocator.16"* %0, %"class.std::allocator.16"* dereferenceable(1) %1) #4, !dbg !10518
  %2 = bitcast %"struct.std::_Vector_base<std::vector<dealii::FullMatrix<double>, std::allocator<dealii::FullMatrix<double> > >, std::allocator<std::vector<dealii::FullMatrix<double>, std::allocator<dealii::FullMatrix<double> > > > >::_Vector_impl"* %this1 to %"struct.std::_Vector_base<std::vector<dealii::FullMatrix<double>, std::allocator<dealii::FullMatrix<double> > >, std::allocator<std::vector<dealii::FullMatrix<double>, std::allocator<dealii::FullMatrix<double> > > > >::_Vector_impl_data"*, !dbg !10516
  call void @_ZNSt12_Vector_baseISt6vectorIN6dealii10FullMatrixIdEESaIS3_EESaIS5_EE17_Vector_impl_dataC2Ev(%"struct.std::_Vector_base<std::vector<dealii::FullMatrix<double>, std::allocator<dealii::FullMatrix<double> > >, std::allocator<std::vector<dealii::FullMatrix<double>, std::allocator<dealii::FullMatrix<double> > > > >::_Vector_impl_data"* %2) #4, !dbg !10519
  ret void, !dbg !10520
}

; Function Attrs: noinline uwtable
define linkonce_odr dso_local void @_ZNSt12_Vector_baseISt6vectorIN6dealii10FullMatrixIdEESaIS3_EESaIS5_EE17_M_create_storageEm(%"struct.std::_Vector_base"* %this, i64 %__n) #0 comdat align 2 !dbg !10521 {
entry:
  %this.addr = alloca %"struct.std::_Vector_base"*, align 8
  %__n.addr = alloca i64, align 8
  store %"struct.std::_Vector_base"* %this, %"struct.std::_Vector_base"** %this.addr, align 8
  call void @llvm.dbg.declare(metadata %"struct.std::_Vector_base"** %this.addr, metadata !10522, metadata !DIExpression()), !dbg !10523
  store i64 %__n, i64* %__n.addr, align 8
  call void @llvm.dbg.declare(metadata i64* %__n.addr, metadata !10524, metadata !DIExpression()), !dbg !10525
  %this1 = load %"struct.std::_Vector_base"*, %"struct.std::_Vector_base"** %this.addr, align 8
  %0 = load i64, i64* %__n.addr, align 8, !dbg !10526
  %call = call %"class.std::vector.19"* @_ZNSt12_Vector_baseISt6vectorIN6dealii10FullMatrixIdEESaIS3_EESaIS5_EE11_M_allocateEm(%"struct.std::_Vector_base"* %this1, i64 %0), !dbg !10527
  %_M_impl = getelementptr inbounds %"struct.std::_Vector_base", %"struct.std::_Vector_base"* %this1, i32 0, i32 0, !dbg !10528
  %1 = bitcast %"struct.std::_Vector_base<std::vector<dealii::FullMatrix<double>, std::allocator<dealii::FullMatrix<double> > >, std::allocator<std::vector<dealii::FullMatrix<double>, std::allocator<dealii::FullMatrix<double> > > > >::_Vector_impl"* %_M_impl to %"struct.std::_Vector_base<std::vector<dealii::FullMatrix<double>, std::allocator<dealii::FullMatrix<double> > >, std::allocator<std::vector<dealii::FullMatrix<double>, std::allocator<dealii::FullMatrix<double> > > > >::_Vector_impl_data"*, !dbg !10529
  %_M_start = getelementptr inbounds %"struct.std::_Vector_base<std::vector<dealii::FullMatrix<double>, std::allocator<dealii::FullMatrix<double> > >, std::allocator<std::vector<dealii::FullMatrix<double>, std::allocator<dealii::FullMatrix<double> > > > >::_Vector_impl_data", %"struct.std::_Vector_base<std::vector<dealii::FullMatrix<double>, std::allocator<dealii::FullMatrix<double> > >, std::allocator<std::vector<dealii::FullMatrix<double>, std::allocator<dealii::FullMatrix<double> > > > >::_Vector_impl_data"* %1, i32 0, i32 0, !dbg !10530
  store %"class.std::vector.19"* %call, %"class.std::vector.19"** %_M_start, align 8, !dbg !10531
  %_M_impl2 = getelementptr inbounds %"struct.std::_Vector_base", %"struct.std::_Vector_base"* %this1, i32 0, i32 0, !dbg !10532
  %2 = bitcast %"struct.std::_Vector_base<std::vector<dealii::FullMatrix<double>, std::allocator<dealii::FullMatrix<double> > >, std::allocator<std::vector<dealii::FullMatrix<double>, std::allocator<dealii::FullMatrix<double> > > > >::_Vector_impl"* %_M_impl2 to %"struct.std::_Vector_base<std::vector<dealii::FullMatrix<double>, std::allocator<dealii::FullMatrix<double> > >, std::allocator<std::vector<dealii::FullMatrix<double>, std::allocator<dealii::FullMatrix<double> > > > >::_Vector_impl_data"*, !dbg !10533
  %_M_start3 = getelementptr inbounds %"struct.std::_Vector_base<std::vector<dealii::FullMatrix<double>, std::allocator<dealii::FullMatrix<double> > >, std::allocator<std::vector<dealii::FullMatrix<double>, std::allocator<dealii::FullMatrix<double> > > > >::_Vector_impl_data", %"struct.std::_Vector_base<std::vector<dealii::FullMatrix<double>, std::allocator<dealii::FullMatrix<double> > >, std::allocator<std::vector<dealii::FullMatrix<double>, std::allocator<dealii::FullMatrix<double> > > > >::_Vector_impl_data"* %2, i32 0, i32 0, !dbg !10534
  %3 = load %"class.std::vector.19"*, %"class.std::vector.19"** %_M_start3, align 8, !dbg !10534
  %_M_impl4 = getelementptr inbounds %"struct.std::_Vector_base", %"struct.std::_Vector_base"* %this1, i32 0, i32 0, !dbg !10535
  %4 = bitcast %"struct.std::_Vector_base<std::vector<dealii::FullMatrix<double>, std::allocator<dealii::FullMatrix<double> > >, std::allocator<std::vector<dealii::FullMatrix<double>, std::allocator<dealii::FullMatrix<double> > > > >::_Vector_impl"* %_M_impl4 to %"struct.std::_Vector_base<std::vector<dealii::FullMatrix<double>, std::allocator<dealii::FullMatrix<double> > >, std::allocator<std::vector<dealii::FullMatrix<double>, std::allocator<dealii::FullMatrix<double> > > > >::_Vector_impl_data"*, !dbg !10536
  %_M_finish = getelementptr inbounds %"struct.std::_Vector_base<std::vector<dealii::FullMatrix<double>, std::allocator<dealii::FullMatrix<double> > >, std::allocator<std::vector<dealii::FullMatrix<double>, std::allocator<dealii::FullMatrix<double> > > > >::_Vector_impl_data", %"struct.std::_Vector_base<std::vector<dealii::FullMatrix<double>, std::allocator<dealii::FullMatrix<double> > >, std::allocator<std::vector<dealii::FullMatrix<double>, std::allocator<dealii::FullMatrix<double> > > > >::_Vector_impl_data"* %4, i32 0, i32 1, !dbg !10537
  store %"class.std::vector.19"* %3, %"class.std::vector.19"** %_M_finish, align 8, !dbg !10538
  %_M_impl5 = getelementptr inbounds %"struct.std::_Vector_base", %"struct.std::_Vector_base"* %this1, i32 0, i32 0, !dbg !10539
  %5 = bitcast %"struct.std::_Vector_base<std::vector<dealii::FullMatrix<double>, std::allocator<dealii::FullMatrix<double> > >, std::allocator<std::vector<dealii::FullMatrix<double>, std::allocator<dealii::FullMatrix<double> > > > >::_Vector_impl"* %_M_impl5 to %"struct.std::_Vector_base<std::vector<dealii::FullMatrix<double>, std::allocator<dealii::FullMatrix<double> > >, std::allocator<std::vector<dealii::FullMatrix<double>, std::allocator<dealii::FullMatrix<double> > > > >::_Vector_impl_data"*, !dbg !10540
  %_M_start6 = getelementptr inbounds %"struct.std::_Vector_base<std::vector<dealii::FullMatrix<double>, std::allocator<dealii::FullMatrix<double> > >, std::allocator<std::vector<dealii::FullMatrix<double>, std::allocator<dealii::FullMatrix<double> > > > >::_Vector_impl_data", %"struct.std::_Vector_base<std::vector<dealii::FullMatrix<double>, std::allocator<dealii::FullMatrix<double> > >, std::allocator<std::vector<dealii::FullMatrix<double>, std::allocator<dealii::FullMatrix<double> > > > >::_Vector_impl_data"* %5, i32 0, i32 0, !dbg !10541
  %6 = load %"class.std::vector.19"*, %"class.std::vector.19"** %_M_start6, align 8, !dbg !10541
  %7 = load i64, i64* %__n.addr, align 8, !dbg !10542
  %add.ptr = getelementptr inbounds %"class.std::vector.19", %"class.std::vector.19"* %6, i64 %7, !dbg !10543
  %_M_impl7 = getelementptr inbounds %"struct.std::_Vector_base", %"struct.std::_Vector_base"* %this1, i32 0, i32 0, !dbg !10544
  %8 = bitcast %"struct.std::_Vector_base<std::vector<dealii::FullMatrix<double>, std::allocator<dealii::FullMatrix<double> > >, std::allocator<std::vector<dealii::FullMatrix<double>, std::allocator<dealii::FullMatrix<double> > > > >::_Vector_impl"* %_M_impl7 to %"struct.std::_Vector_base<std::vector<dealii::FullMatrix<double>, std::allocator<dealii::FullMatrix<double> > >, std::allocator<std::vector<dealii::FullMatrix<double>, std::allocator<dealii::FullMatrix<double> > > > >::_Vector_impl_data"*, !dbg !10545
  %_M_end_of_storage = getelementptr inbounds %"struct.std::_Vector_base<std::vector<dealii::FullMatrix<double>, std::allocator<dealii::FullMatrix<double> > >, std::allocator<std::vector<dealii::FullMatrix<double>, std::allocator<dealii::FullMatrix<double> > > > >::_Vector_impl_data", %"struct.std::_Vector_base<std::vector<dealii::FullMatrix<double>, std::allocator<dealii::FullMatrix<double> > >, std::allocator<std::vector<dealii::FullMatrix<double>, std::allocator<dealii::FullMatrix<double> > > > >::_Vector_impl_data"* %8, i32 0, i32 2, !dbg !10546
  store %"class.std::vector.19"* %add.ptr, %"class.std::vector.19"** %_M_end_of_storage, align 8, !dbg !10547
  ret void, !dbg !10548
}

; Function Attrs: noinline nounwind uwtable
define linkonce_odr dso_local void @_ZNSt12_Vector_baseISt6vectorIN6dealii10FullMatrixIdEESaIS3_EESaIS5_EE12_Vector_implD2Ev(%"struct.std::_Vector_base<std::vector<dealii::FullMatrix<double>, std::allocator<dealii::FullMatrix<double> > >, std::allocator<std::vector<dealii::FullMatrix<double>, std::allocator<dealii::FullMatrix<double> > > > >::_Vector_impl"* %this) unnamed_addr #1 comdat align 2 !dbg !10549 {
entry:
  %this.addr = alloca %"struct.std::_Vector_base<std::vector<dealii::FullMatrix<double>, std::allocator<dealii::FullMatrix<double> > >, std::allocator<std::vector<dealii::FullMatrix<double>, std::allocator<dealii::FullMatrix<double> > > > >::_Vector_impl"*, align 8
  store %"struct.std::_Vector_base<std::vector<dealii::FullMatrix<double>, std::allocator<dealii::FullMatrix<double> > >, std::allocator<std::vector<dealii::FullMatrix<double>, std::allocator<dealii::FullMatrix<double> > > > >::_Vector_impl"* %this, %"struct.std::_Vector_base<std::vector<dealii::FullMatrix<double>, std::allocator<dealii::FullMatrix<double> > >, std::allocator<std::vector<dealii::FullMatrix<double>, std::allocator<dealii::FullMatrix<double> > > > >::_Vector_impl"** %this.addr, align 8
  call void @llvm.dbg.declare(metadata %"struct.std::_Vector_base<std::vector<dealii::FullMatrix<double>, std::allocator<dealii::FullMatrix<double> > >, std::allocator<std::vector<dealii::FullMatrix<double>, std::allocator<dealii::FullMatrix<double> > > > >::_Vector_impl"** %this.addr, metadata !10551, metadata !DIExpression()), !dbg !10552
  %this1 = load %"struct.std::_Vector_base<std::vector<dealii::FullMatrix<double>, std::allocator<dealii::FullMatrix<double> > >, std::allocator<std::vector<dealii::FullMatrix<double>, std::allocator<dealii::FullMatrix<double> > > > >::_Vector_impl"*, %"struct.std::_Vector_base<std::vector<dealii::FullMatrix<double>, std::allocator<dealii::FullMatrix<double> > >, std::allocator<std::vector<dealii::FullMatrix<double>, std::allocator<dealii::FullMatrix<double> > > > >::_Vector_impl"** %this.addr, align 8
  %0 = bitcast %"struct.std::_Vector_base<std::vector<dealii::FullMatrix<double>, std::allocator<dealii::FullMatrix<double> > >, std::allocator<std::vector<dealii::FullMatrix<double>, std::allocator<dealii::FullMatrix<double> > > > >::_Vector_impl"* %this1 to %"class.std::allocator.16"*, !dbg !10553
  call void @_ZNSaISt6vectorIN6dealii10FullMatrixIdEESaIS2_EEED2Ev(%"class.std::allocator.16"* %0) #4, !dbg !10553
  ret void, !dbg !10555
}

; Function Attrs: noinline nounwind uwtable
define linkonce_odr dso_local void @_ZNSt12_Vector_baseISt6vectorIN6dealii10FullMatrixIdEESaIS3_EESaIS5_EE17_Vector_impl_dataC2Ev(%"struct.std::_Vector_base<std::vector<dealii::FullMatrix<double>, std::allocator<dealii::FullMatrix<double> > >, std::allocator<std::vector<dealii::FullMatrix<double>, std::allocator<dealii::FullMatrix<double> > > > >::_Vector_impl_data"* %this) unnamed_addr #1 comdat align 2 !dbg !10556 {
entry:
  %this.addr = alloca %"struct.std::_Vector_base<std::vector<dealii::FullMatrix<double>, std::allocator<dealii::FullMatrix<double> > >, std::allocator<std::vector<dealii::FullMatrix<double>, std::allocator<dealii::FullMatrix<double> > > > >::_Vector_impl_data"*, align 8
  store %"struct.std::_Vector_base<std::vector<dealii::FullMatrix<double>, std::allocator<dealii::FullMatrix<double> > >, std::allocator<std::vector<dealii::FullMatrix<double>, std::allocator<dealii::FullMatrix<double> > > > >::_Vector_impl_data"* %this, %"struct.std::_Vector_base<std::vector<dealii::FullMatrix<double>, std::allocator<dealii::FullMatrix<double> > >, std::allocator<std::vector<dealii::FullMatrix<double>, std::allocator<dealii::FullMatrix<double> > > > >::_Vector_impl_data"** %this.addr, align 8
  call void @llvm.dbg.declare(metadata %"struct.std::_Vector_base<std::vector<dealii::FullMatrix<double>, std::allocator<dealii::FullMatrix<double> > >, std::allocator<std::vector<dealii::FullMatrix<double>, std::allocator<dealii::FullMatrix<double> > > > >::_Vector_impl_data"** %this.addr, metadata !10557, metadata !DIExpression()), !dbg !10559
  %this1 = load %"struct.std::_Vector_base<std::vector<dealii::FullMatrix<double>, std::allocator<dealii::FullMatrix<double> > >, std::allocator<std::vector<dealii::FullMatrix<double>, std::allocator<dealii::FullMatrix<double> > > > >::_Vector_impl_data"*, %"struct.std::_Vector_base<std::vector<dealii::FullMatrix<double>, std::allocator<dealii::FullMatrix<double> > >, std::allocator<std::vector<dealii::FullMatrix<double>, std::allocator<dealii::FullMatrix<double> > > > >::_Vector_impl_data"** %this.addr, align 8
  %_M_start = getelementptr inbounds %"struct.std::_Vector_base<std::vector<dealii::FullMatrix<double>, std::allocator<dealii::FullMatrix<double> > >, std::allocator<std::vector<dealii::FullMatrix<double>, std::allocator<dealii::FullMatrix<double> > > > >::_Vector_impl_data", %"struct.std::_Vector_base<std::vector<dealii::FullMatrix<double>, std::allocator<dealii::FullMatrix<double> > >, std::allocator<std::vector<dealii::FullMatrix<double>, std::allocator<dealii::FullMatrix<double> > > > >::_Vector_impl_data"* %this1, i32 0, i32 0, !dbg !10560
  store %"class.std::vector.19"* null, %"class.std::vector.19"** %_M_start, align 8, !dbg !10560
  %_M_finish = getelementptr inbounds %"struct.std::_Vector_base<std::vector<dealii::FullMatrix<double>, std::allocator<dealii::FullMatrix<double> > >, std::allocator<std::vector<dealii::FullMatrix<double>, std::allocator<dealii::FullMatrix<double> > > > >::_Vector_impl_data", %"struct.std::_Vector_base<std::vector<dealii::FullMatrix<double>, std::allocator<dealii::FullMatrix<double> > >, std::allocator<std::vector<dealii::FullMatrix<double>, std::allocator<dealii::FullMatrix<double> > > > >::_Vector_impl_data"* %this1, i32 0, i32 1, !dbg !10561
  store %"class.std::vector.19"* null, %"class.std::vector.19"** %_M_finish, align 8, !dbg !10561
  %_M_end_of_storage = getelementptr inbounds %"struct.std::_Vector_base<std::vector<dealii::FullMatrix<double>, std::allocator<dealii::FullMatrix<double> > >, std::allocator<std::vector<dealii::FullMatrix<double>, std::allocator<dealii::FullMatrix<double> > > > >::_Vector_impl_data", %"struct.std::_Vector_base<std::vector<dealii::FullMatrix<double>, std::allocator<dealii::FullMatrix<double> > >, std::allocator<std::vector<dealii::FullMatrix<double>, std::allocator<dealii::FullMatrix<double> > > > >::_Vector_impl_data"* %this1, i32 0, i32 2, !dbg !10562
  store %"class.std::vector.19"* null, %"class.std::vector.19"** %_M_end_of_storage, align 8, !dbg !10562
  ret void, !dbg !10563
}

; Function Attrs: noinline uwtable
define linkonce_odr dso_local %"class.std::vector.19"* @_ZNSt12_Vector_baseISt6vectorIN6dealii10FullMatrixIdEESaIS3_EESaIS5_EE11_M_allocateEm(%"struct.std::_Vector_base"* %this, i64 %__n) #0 comdat align 2 !dbg !10564 {
entry:
  %this.addr = alloca %"struct.std::_Vector_base"*, align 8
  %__n.addr = alloca i64, align 8
  store %"struct.std::_Vector_base"* %this, %"struct.std::_Vector_base"** %this.addr, align 8
  call void @llvm.dbg.declare(metadata %"struct.std::_Vector_base"** %this.addr, metadata !10565, metadata !DIExpression()), !dbg !10566
  store i64 %__n, i64* %__n.addr, align 8
  call void @llvm.dbg.declare(metadata i64* %__n.addr, metadata !10567, metadata !DIExpression()), !dbg !10568
  %this1 = load %"struct.std::_Vector_base"*, %"struct.std::_Vector_base"** %this.addr, align 8
  %0 = load i64, i64* %__n.addr, align 8, !dbg !10569
  %cmp = icmp ne i64 %0, 0, !dbg !10570
  br i1 %cmp, label %cond.true, label %cond.false, !dbg !10569

cond.true:                                        ; preds = %entry
  %_M_impl = getelementptr inbounds %"struct.std::_Vector_base", %"struct.std::_Vector_base"* %this1, i32 0, i32 0, !dbg !10571
  %1 = bitcast %"struct.std::_Vector_base<std::vector<dealii::FullMatrix<double>, std::allocator<dealii::FullMatrix<double> > >, std::allocator<std::vector<dealii::FullMatrix<double>, std::allocator<dealii::FullMatrix<double> > > > >::_Vector_impl"* %_M_impl to %"class.std::allocator.16"*, !dbg !10571
  %2 = load i64, i64* %__n.addr, align 8, !dbg !10572
  %call = call %"class.std::vector.19"* @_ZNSt16allocator_traitsISaISt6vectorIN6dealii10FullMatrixIdEESaIS3_EEEE8allocateERS6_m(%"class.std::allocator.16"* dereferenceable(1) %1, i64 %2), !dbg !10573
  br label %cond.end, !dbg !10569

cond.false:                                       ; preds = %entry
  br label %cond.end, !dbg !10569

cond.end:                                         ; preds = %cond.false, %cond.true
  %cond = phi %"class.std::vector.19"* [ %call, %cond.true ], [ null, %cond.false ], !dbg !10569
  ret %"class.std::vector.19"* %cond, !dbg !10574
}

; Function Attrs: noinline uwtable
define linkonce_odr dso_local %"class.std::vector.19"* @_ZNSt16allocator_traitsISaISt6vectorIN6dealii10FullMatrixIdEESaIS3_EEEE8allocateERS6_m(%"class.std::allocator.16"* dereferenceable(1) %__a, i64 %__n) #0 comdat align 2 !dbg !10575 {
entry:
  %__a.addr = alloca %"class.std::allocator.16"*, align 8
  %__n.addr = alloca i64, align 8
  store %"class.std::allocator.16"* %__a, %"class.std::allocator.16"** %__a.addr, align 8
  call void @llvm.dbg.declare(metadata %"class.std::allocator.16"** %__a.addr, metadata !10576, metadata !DIExpression()), !dbg !10577
  store i64 %__n, i64* %__n.addr, align 8
