; ModuleID = 'source/libparest/parallel/control.cc'
source_filename = "source/libparest/parallel/control.cc"
target datalayout = "e-m:e-p270:32:32-p271:32:32-p272:64:64-i64:64-f80:128-n8:16:32:64-S128"
target triple = "x86_64-unknown-linux-gnu"

%"struct.boost::arg" = type { i8 }
%"struct.boost::arg.0" = type { i8 }
%"struct.boost::arg.2" = type { i8 }
%"struct.boost::arg.4" = type { i8 }
%"struct.boost::arg.6" = type { i8 }
%"struct.boost::arg.8" = type { i8 }
%"struct.boost::arg.10" = type { i8 }
%"struct.boost::arg.12" = type { i8 }
%"struct.boost::arg.14" = type { i8 }
%"class.std::ios_base::Init" = type { i8 }
%"class.std::__cxx11::basic_ostringstream" = type { %"class.std::basic_ostream.base", %"class.std::__cxx11::basic_stringbuf", %"class.std::basic_ios" }
%"class.std::basic_ostream.base" = type { i32 (...)** }
%"class.std::__cxx11::basic_stringbuf" = type { %"class.std::basic_streambuf", i32, %"class.std::__cxx11::basic_string" }
%"class.std::basic_streambuf" = type { i32 (...)**, i8*, i8*, i8*, i8*, i8*, i8*, %"class.std::locale" }
%"class.std::locale" = type { %"class.std::locale::_Impl"* }
%"class.std::locale::_Impl" = type { i32, %"class.std::locale::facet"**, i64, %"class.std::locale::facet"**, i8** }
%"class.std::locale::facet" = type <{ i32 (...)**, i32, [4 x i8] }>
%"class.std::__cxx11::basic_string" = type { %"struct.std::__cxx11::basic_string<char, std::char_traits<char>, std::allocator<char> >::_Alloc_hider", i64, %union.anon }
%"struct.std::__cxx11::basic_string<char, std::char_traits<char>, std::allocator<char> >::_Alloc_hider" = type { i8* }
%union.anon = type { i64, [8 x i8] }
%"class.std::basic_ios" = type { %"class.std::ios_base", %"class.std::basic_ostream"*, i8, i8, %"class.std::basic_streambuf"*, %"class.std::ctype"*, %"class.std::num_put"*, %"class.std::num_get"* }
%"class.std::ios_base" = type { i32 (...)**, i64, i64, i32, i32, i32, %"struct.std::ios_base::_Callback_list"*, %"struct.std::ios_base::_Words", [8 x %"struct.std::ios_base::_Words"], i32, %"struct.std::ios_base::_Words"*, %"class.std::locale" }
%"struct.std::ios_base::_Callback_list" = type { %"struct.std::ios_base::_Callback_list"*, void (i32, %"class.std::ios_base"*, i32)*, i32, i32 }
%"struct.std::ios_base::_Words" = type { i8*, i64 }
%"class.std::basic_ostream" = type { i32 (...)**, %"class.std::basic_ios" }
%"class.std::ctype" = type <{ %"class.std::locale::facet.base", [4 x i8], %struct.__locale_struct*, i8, [7 x i8], i32*, i32*, i16*, i8, [256 x i8], [256 x i8], i8, [6 x i8] }>
%"class.std::locale::facet.base" = type <{ i32 (...)**, i32 }>
%struct.__locale_struct = type { [13 x %struct.__locale_data*], i16*, i32*, i32*, [13 x i8*] }
%struct.__locale_data = type opaque
%"class.std::num_put" = type { %"class.std::locale::facet.base", [4 x i8] }
%"class.std::num_get" = type { %"class.std::locale::facet.base", [4 x i8] }
%"class.dealii::MultithreadInfo" = type { i32, i32 }
%"class.libparest::ParallelControl::Local::Control" = type { %"class.libparest::ParallelControl::Base.base", [7 x i8] }
%"class.libparest::ParallelControl::Base.base" = type <{ i32 (...)**, %"struct.libparest::ParallelControl::Data.base" }>
%"struct.libparest::ParallelControl::Data.base" = type <{ i32, i32, i32, i32, i32, i32, i32, i32, %"class.std::vector", %"class.std::vector.19", %"class.std::vector.27", %"class.libparest::MessageLog::ServerBase"*, %"class.dealii::Threads::DummyThreadMutex" }>
%"class.std::vector" = type { %"struct.std::_Vector_base" }
%"struct.std::_Vector_base" = type { %"struct.std::_Vector_base<unsigned int, std::allocator<unsigned int> >::_Vector_impl" }
%"struct.std::_Vector_base<unsigned int, std::allocator<unsigned int> >::_Vector_impl" = type { %"struct.std::_Vector_base<unsigned int, std::allocator<unsigned int> >::_Vector_impl_data" }
%"struct.std::_Vector_base<unsigned int, std::allocator<unsigned int> >::_Vector_impl_data" = type { i32*, i32*, i32* }
%"class.std::vector.19" = type { %"struct.std::_Vector_base.20" }
%"struct.std::_Vector_base.20" = type { %"struct.std::_Vector_base<std::set<unsigned int, std::less<unsigned int>, std::allocator<unsigned int> >, std::allocator<std::set<unsigned int, std::less<unsigned int>, std::allocator<unsigned int> > > >::_Vector_impl" }
%"struct.std::_Vector_base<std::set<unsigned int, std::less<unsigned int>, std::allocator<unsigned int> >, std::allocator<std::set<unsigned int, std::less<unsigned int>, std::allocator<unsigned int> > > >::_Vector_impl" = type { %"struct.std::_Vector_base<std::set<unsigned int, std::less<unsigned int>, std::allocator<unsigned int> >, std::allocator<std::set<unsigned int, std::less<unsigned int>, std::allocator<unsigned int> > > >::_Vector_impl_data" }
%"struct.std::_Vector_base<std::set<unsigned int, std::less<unsigned int>, std::allocator<unsigned int> >, std::allocator<std::set<unsigned int, std::less<unsigned int>, std::allocator<unsigned int> > > >::_Vector_impl_data" = type { %"class.std::set"*, %"class.std::set"*, %"class.std::set"* }
%"class.std::set" = type { %"class.std::_Rb_tree" }
%"class.std::_Rb_tree" = type { %"struct.std::_Rb_tree<unsigned int, unsigned int, std::_Identity<unsigned int>, std::less<unsigned int>, std::allocator<unsigned int> >::_Rb_tree_impl" }
%"struct.std::_Rb_tree<unsigned int, unsigned int, std::_Identity<unsigned int>, std::less<unsigned int>, std::allocator<unsigned int> >::_Rb_tree_impl" = type { %"struct.std::_Rb_tree_key_compare", %"struct.std::_Rb_tree_header" }
%"struct.std::_Rb_tree_key_compare" = type { %"struct.std::less" }
%"struct.std::less" = type { i8 }
%"struct.std::_Rb_tree_header" = type { %"struct.std::_Rb_tree_node_base", i64 }
%"struct.std::_Rb_tree_node_base" = type { i32, %"struct.std::_Rb_tree_node_base"*, %"struct.std::_Rb_tree_node_base"*, %"struct.std::_Rb_tree_node_base"* }
%"class.std::vector.27" = type { %"struct.std::_Vector_base.28" }
%"struct.std::_Vector_base.28" = type { %"struct.std::_Vector_base<libparest::ParallelControl::SystemInfo, std::allocator<libparest::ParallelControl::SystemInfo> >::_Vector_impl" }
%"struct.std::_Vector_base<libparest::ParallelControl::SystemInfo, std::allocator<libparest::ParallelControl::SystemInfo> >::_Vector_impl" = type { %"struct.std::_Vector_base<libparest::ParallelControl::SystemInfo, std::allocator<libparest::ParallelControl::SystemInfo> >::_Vector_impl_data" }
%"struct.std::_Vector_base<libparest::ParallelControl::SystemInfo, std::allocator<libparest::ParallelControl::SystemInfo> >::_Vector_impl_data" = type { %"class.libparest::ParallelControl::SystemInfo"*, %"class.libparest::ParallelControl::SystemInfo"*, %"class.libparest::ParallelControl::SystemInfo"* }
%"class.libparest::ParallelControl::SystemInfo" = type { %"class.std::__cxx11::basic_string", i32, double }
%"class.libparest::MessageLog::ServerBase" = type { %"class.dealii::Subscriptor", %"class.std::vector.39" }
%"class.dealii::Subscriptor" = type { i32 (...)**, i32, %"class.std::map", %"class.std::type_info"* }
%"class.std::map" = type { %"class.std::_Rb_tree.32" }
%"class.std::_Rb_tree.32" = type { %"struct.std::_Rb_tree<const char *, std::pair<const char *const, unsigned int>, std::_Select1st<std::pair<const char *const, unsigned int> >, std::less<const char *>, std::allocator<std::pair<const char *const, unsigned int> > >::_Rb_tree_impl" }
%"struct.std::_Rb_tree<const char *, std::pair<const char *const, unsigned int>, std::_Select1st<std::pair<const char *const, unsigned int> >, std::less<const char *>, std::allocator<std::pair<const char *const, unsigned int> > >::_Rb_tree_impl" = type { %"struct.std::_Rb_tree_key_compare.36", %"struct.std::_Rb_tree_header" }
%"struct.std::_Rb_tree_key_compare.36" = type { %"struct.std::less.37" }
%"struct.std::less.37" = type { i8 }
%"class.std::type_info" = type { i32 (...)**, i8* }
%"class.std::vector.39" = type { %"struct.std::_Vector_base.40" }
%"struct.std::_Vector_base.40" = type { %"struct.std::_Vector_base<const libparest::MessageLog::Filters::Base *, std::allocator<const libparest::MessageLog::Filters::Base *> >::_Vector_impl" }
%"struct.std::_Vector_base<const libparest::MessageLog::Filters::Base *, std::allocator<const libparest::MessageLog::Filters::Base *> >::_Vector_impl" = type { %"struct.std::_Vector_base<const libparest::MessageLog::Filters::Base *, std::allocator<const libparest::MessageLog::Filters::Base *> >::_Vector_impl_data" }
%"struct.std::_Vector_base<const libparest::MessageLog::Filters::Base *, std::allocator<const libparest::MessageLog::Filters::Base *> >::_Vector_impl_data" = type { %"class.libparest::MessageLog::Filters::Base"**, %"class.libparest::MessageLog::Filters::Base"**, %"class.libparest::MessageLog::Filters::Base"** }
%"class.libparest::MessageLog::Filters::Base" = type { i32 (...)** }
%"class.dealii::Threads::DummyThreadMutex" = type { i8 }
%"class.libparest::ParallelControl::Base" = type <{ i32 (...)**, %"struct.libparest::ParallelControl::Data.base", [7 x i8] }>
%"class.std::allocator" = type { i8 }
%"class.std::__cxx11::basic_istringstream" = type { %"class.std::basic_istream.base", %"class.std::__cxx11::basic_stringbuf", %"class.std::basic_ios" }
%"class.std::basic_istream.base" = type { i32 (...)**, i64 }
%"class.std::basic_istream" = type { i32 (...)**, i64, %"class.std::basic_ios" }
%"struct.libparest::ParallelControl::Data" = type <{ i32, i32, i32, i32, i32, i32, i32, i32, %"class.std::vector", %"class.std::vector.19", %"class.std::vector.27", %"class.libparest::MessageLog::ServerBase"*, %"class.dealii::Threads::DummyThreadMutex", [7 x i8] }>
%"class.libparest::MessageLog::ServerFactory" = type { i32 (...)** }
%"struct.std::pair" = type <{ %"struct.std::_Rb_tree_const_iterator", i8, [7 x i8] }>
%"struct.std::_Rb_tree_const_iterator" = type { %"struct.std::_Rb_tree_node_base"* }
%"struct.std::pair.44" = type <{ %"struct.std::_Rb_tree_iterator", i8, [7 x i8] }>
%"struct.std::_Rb_tree_iterator" = type { %"struct.std::_Rb_tree_node_base"* }
%"class.std::allocator.29" = type { i8 }
%"class.std::allocator.21" = type { i8 }
%"class.std::allocator.16" = type { i8 }
%"class.__gnu_cxx::new_allocator.30" = type { i8 }
%"struct.std::_Rb_tree_node" = type <{ %"struct.std::_Rb_tree_node_base", %"struct.__gnu_cxx::__aligned_membuf", [4 x i8] }>
%"struct.__gnu_cxx::__aligned_membuf" = type { [4 x i8] }
%"class.std::allocator.24" = type { i8 }
%"class.__gnu_cxx::new_allocator.25" = type { i8 }
%"class.__gnu_cxx::new_allocator.22" = type { i8 }
%"class.__gnu_cxx::new_allocator.17" = type { i8 }
%"struct.std::integral_constant" = type { i8 }
%"struct.std::random_access_iterator_tag" = type { i8 }
%"struct.std::pair.48" = type { %"struct.std::_Rb_tree_node_base"*, %"struct.std::_Rb_tree_node_base"* }
%"struct.std::_Identity" = type { i8 }
%"struct.std::_Rb_tree<unsigned int, unsigned int, std::_Identity<unsigned int>, std::less<unsigned int>, std::allocator<unsigned int> >::_Alloc_node" = type { %"class.std::_Rb_tree"* }
%"class.std::__pair_base" = type { i8 }
%"class.std::__pair_base.45" = type { i8 }
%"class.std::__pair_base.49" = type { i8 }

$_ZN5boost3argILi1EEC2Ev = comdat any

$_ZN5boost3argILi2EEC2Ev = comdat any

$_ZN5boost3argILi3EEC2Ev = comdat any

$_ZN5boost3argILi4EEC2Ev = comdat any

$_ZN5boost3argILi5EEC2Ev = comdat any

$_ZN5boost3argILi6EEC2Ev = comdat any

$_ZN5boost3argILi7EEC2Ev = comdat any

$_ZN5boost3argILi8EEC2Ev = comdat any

$_ZN5boost3argILi9EEC2Ev = comdat any

$_ZN9libparest15ParallelControl4DataD2Ev = comdat any

$_ZN9libparest15ParallelControl4BaseC2Ev = comdat any

$_ZNSt6vectorIjSaIjEE6resizeEm = comdat any

$_ZNSt6vectorIjSaIjEEixEm = comdat any

$_ZNSt6vectorISt3setIjSt4lessIjESaIjEESaIS4_EE6resizeEm = comdat any

$_ZNSt6vectorISt3setIjSt4lessIjESaIjEESaIS4_EEixEm = comdat any

$_ZNSt3setIjSt4lessIjESaIjEE6insertERKj = comdat any

$_ZNSt6vectorIN9libparest15ParallelControl10SystemInfoESaIS2_EE6resizeEm = comdat any

$_ZNSt6vectorIN9libparest15ParallelControl10SystemInfoESaIS2_EEixEm = comdat any

$_ZN9libparest10delete_ptrINS_10MessageLog10ServerBaseEEEvRPT_ = comdat any

$_ZNSt6vectorIN9libparest15ParallelControl10SystemInfoESaIS2_EED2Ev = comdat any

$_ZNSt6vectorISt3setIjSt4lessIjESaIjEESaIS4_EED2Ev = comdat any

$_ZNSt6vectorIjSaIjEED2Ev = comdat any

$_ZSt8_DestroyIPN9libparest15ParallelControl10SystemInfoES2_EvT_S4_RSaIT0_E = comdat any

$_ZNSt12_Vector_baseIN9libparest15ParallelControl10SystemInfoESaIS2_EE19_M_get_Tp_allocatorEv = comdat any

$_ZNSt12_Vector_baseIN9libparest15ParallelControl10SystemInfoESaIS2_EED2Ev = comdat any

$__clang_call_terminate = comdat any

$_ZSt8_DestroyIPN9libparest15ParallelControl10SystemInfoEEvT_S4_ = comdat any

$_ZNSt12_Destroy_auxILb0EE9__destroyIPN9libparest15ParallelControl10SystemInfoEEEvT_S6_ = comdat any

$_ZSt8_DestroyIN9libparest15ParallelControl10SystemInfoEEvPT_ = comdat any

$_ZSt11__addressofIN9libparest15ParallelControl10SystemInfoEEPT_RS3_ = comdat any

$_ZN9libparest15ParallelControl10SystemInfoD2Ev = comdat any

$_ZNSt12_Vector_baseIN9libparest15ParallelControl10SystemInfoESaIS2_EE13_M_deallocateEPS2_m = comdat any

$_ZNSt12_Vector_baseIN9libparest15ParallelControl10SystemInfoESaIS2_EE12_Vector_implD2Ev = comdat any

$_ZNSt16allocator_traitsISaIN9libparest15ParallelControl10SystemInfoEEE10deallocateERS3_PS2_m = comdat any

$_ZN9__gnu_cxx13new_allocatorIN9libparest15ParallelControl10SystemInfoEE10deallocateEPS3_m = comdat any

$_ZNSaIN9libparest15ParallelControl10SystemInfoEED2Ev = comdat any

$_ZN9__gnu_cxx13new_allocatorIN9libparest15ParallelControl10SystemInfoEED2Ev = comdat any

$_ZSt8_DestroyIPSt3setIjSt4lessIjESaIjEES4_EvT_S6_RSaIT0_E = comdat any

$_ZNSt12_Vector_baseISt3setIjSt4lessIjESaIjEESaIS4_EE19_M_get_Tp_allocatorEv = comdat any

$_ZNSt12_Vector_baseISt3setIjSt4lessIjESaIjEESaIS4_EED2Ev = comdat any

$_ZSt8_DestroyIPSt3setIjSt4lessIjESaIjEEEvT_S6_ = comdat any

$_ZNSt12_Destroy_auxILb0EE9__destroyIPSt3setIjSt4lessIjESaIjEEEEvT_S8_ = comdat any

$_ZSt8_DestroyISt3setIjSt4lessIjESaIjEEEvPT_ = comdat any

$_ZSt11__addressofISt3setIjSt4lessIjESaIjEEEPT_RS5_ = comdat any

$_ZNSt3setIjSt4lessIjESaIjEED2Ev = comdat any

$_ZNSt8_Rb_treeIjjSt9_IdentityIjESt4lessIjESaIjEED2Ev = comdat any

$_ZNSt8_Rb_treeIjjSt9_IdentityIjESt4lessIjESaIjEE8_M_eraseEPSt13_Rb_tree_nodeIjE = comdat any

$_ZNSt8_Rb_treeIjjSt9_IdentityIjESt4lessIjESaIjEE8_M_beginEv = comdat any

$_ZNSt8_Rb_treeIjjSt9_IdentityIjESt4lessIjESaIjEE13_Rb_tree_implIS3_Lb1EED2Ev = comdat any

$_ZNSt8_Rb_treeIjjSt9_IdentityIjESt4lessIjESaIjEE8_S_rightEPSt18_Rb_tree_node_base = comdat any

$_ZNSt8_Rb_treeIjjSt9_IdentityIjESt4lessIjESaIjEE7_S_leftEPSt18_Rb_tree_node_base = comdat any

$_ZNSt8_Rb_treeIjjSt9_IdentityIjESt4lessIjESaIjEE12_M_drop_nodeEPSt13_Rb_tree_nodeIjE = comdat any

$_ZNSt8_Rb_treeIjjSt9_IdentityIjESt4lessIjESaIjEE15_M_destroy_nodeEPSt13_Rb_tree_nodeIjE = comdat any

$_ZNSt8_Rb_treeIjjSt9_IdentityIjESt4lessIjESaIjEE11_M_put_nodeEPSt13_Rb_tree_nodeIjE = comdat any

$_ZNSt16allocator_traitsISaISt13_Rb_tree_nodeIjEEE7destroyIjEEvRS2_PT_ = comdat any

$_ZNSt8_Rb_treeIjjSt9_IdentityIjESt4lessIjESaIjEE21_M_get_Node_allocatorEv = comdat any

$_ZNSt13_Rb_tree_nodeIjE9_M_valptrEv = comdat any

$_ZN9__gnu_cxx13new_allocatorISt13_Rb_tree_nodeIjEE7destroyIjEEvPT_ = comdat any

$_ZN9__gnu_cxx16__aligned_membufIjE6_M_ptrEv = comdat any

$_ZN9__gnu_cxx16__aligned_membufIjE7_M_addrEv = comdat any

$_ZNSt16allocator_traitsISaISt13_Rb_tree_nodeIjEEE10deallocateERS2_PS1_m = comdat any

$_ZN9__gnu_cxx13new_allocatorISt13_Rb_tree_nodeIjEE10deallocateEPS2_m = comdat any

$_ZNSaISt13_Rb_tree_nodeIjEED2Ev = comdat any

$_ZN9__gnu_cxx13new_allocatorISt13_Rb_tree_nodeIjEED2Ev = comdat any

$_ZNSt12_Vector_baseISt3setIjSt4lessIjESaIjEESaIS4_EE13_M_deallocateEPS4_m = comdat any

$_ZNSt12_Vector_baseISt3setIjSt4lessIjESaIjEESaIS4_EE12_Vector_implD2Ev = comdat any

$_ZNSt16allocator_traitsISaISt3setIjSt4lessIjESaIjEEEE10deallocateERS5_PS4_m = comdat any

$_ZN9__gnu_cxx13new_allocatorISt3setIjSt4lessIjESaIjEEE10deallocateEPS5_m = comdat any

$_ZNSaISt3setIjSt4lessIjESaIjEEED2Ev = comdat any

$_ZN9__gnu_cxx13new_allocatorISt3setIjSt4lessIjESaIjEEED2Ev = comdat any

$_ZSt8_DestroyIPjjEvT_S1_RSaIT0_E = comdat any

$_ZNSt12_Vector_baseIjSaIjEE19_M_get_Tp_allocatorEv = comdat any

$_ZNSt12_Vector_baseIjSaIjEED2Ev = comdat any

$_ZSt8_DestroyIPjEvT_S1_ = comdat any

$_ZNSt12_Destroy_auxILb1EE9__destroyIPjEEvT_S3_ = comdat any

$_ZNSt12_Vector_baseIjSaIjEE13_M_deallocateEPjm = comdat any

$_ZNSt12_Vector_baseIjSaIjEE12_Vector_implD2Ev = comdat any

$_ZNSt16allocator_traitsISaIjEE10deallocateERS0_Pjm = comdat any

$_ZN9__gnu_cxx13new_allocatorIjE10deallocateEPjm = comdat any

$_ZNSaIjED2Ev = comdat any

$_ZN9__gnu_cxx13new_allocatorIjED2Ev = comdat any

$_ZN9libparest15ParallelControl4DataC2Ev = comdat any

$_ZNSt6vectorIjSaIjEEC2Ev = comdat any

$_ZNSt6vectorISt3setIjSt4lessIjESaIjEESaIS4_EEC2Ev = comdat any

$_ZNSt6vectorIN9libparest15ParallelControl10SystemInfoESaIS2_EEC2Ev = comdat any

$_ZNSt12_Vector_baseIjSaIjEEC2Ev = comdat any

$_ZNSt12_Vector_baseIjSaIjEE12_Vector_implC2Ev = comdat any

$_ZNSaIjEC2Ev = comdat any

$_ZNSt12_Vector_baseIjSaIjEE17_Vector_impl_dataC2Ev = comdat any

$_ZN9__gnu_cxx13new_allocatorIjEC2Ev = comdat any

$_ZNSt12_Vector_baseISt3setIjSt4lessIjESaIjEESaIS4_EEC2Ev = comdat any

$_ZNSt12_Vector_baseISt3setIjSt4lessIjESaIjEESaIS4_EE12_Vector_implC2Ev = comdat any

$_ZNSaISt3setIjSt4lessIjESaIjEEEC2Ev = comdat any

$_ZNSt12_Vector_baseISt3setIjSt4lessIjESaIjEESaIS4_EE17_Vector_impl_dataC2Ev = comdat any

$_ZN9__gnu_cxx13new_allocatorISt3setIjSt4lessIjESaIjEEEC2Ev = comdat any

$_ZNSt12_Vector_baseIN9libparest15ParallelControl10SystemInfoESaIS2_EEC2Ev = comdat any

$_ZNSt12_Vector_baseIN9libparest15ParallelControl10SystemInfoESaIS2_EE12_Vector_implC2Ev = comdat any

$_ZNSaIN9libparest15ParallelControl10SystemInfoEEC2Ev = comdat any

$_ZNSt12_Vector_baseIN9libparest15ParallelControl10SystemInfoESaIS2_EE17_Vector_impl_dataC2Ev = comdat any

$_ZN9__gnu_cxx13new_allocatorIN9libparest15ParallelControl10SystemInfoEEC2Ev = comdat any

$_ZNKSt6vectorIjSaIjEE4sizeEv = comdat any

$_ZNSt6vectorIjSaIjEE17_M_default_appendEm = comdat any

$_ZNSt6vectorIjSaIjEE15_M_erase_at_endEPj = comdat any

$_ZNKSt6vectorIjSaIjEE8max_sizeEv = comdat any

$_ZSt27__uninitialized_default_n_aIPjmjET_S1_T0_RSaIT1_E = comdat any

$_ZNKSt6vectorIjSaIjEE12_M_check_lenEmPKc = comdat any

$_ZNSt12_Vector_baseIjSaIjEE11_M_allocateEm = comdat any

$_ZNSt6vectorIjSaIjEE11_S_relocateEPjS2_S2_RS0_ = comdat any

$_ZNSt6vectorIjSaIjEE11_S_max_sizeERKS0_ = comdat any

$_ZNKSt12_Vector_baseIjSaIjEE19_M_get_Tp_allocatorEv = comdat any

$_ZNSt16allocator_traitsISaIjEE8max_sizeERKS0_ = comdat any

$_ZSt3minImERKT_S2_S2_ = comdat any

$_ZNK9__gnu_cxx13new_allocatorIjE8max_sizeEv = comdat any

$_ZNK9__gnu_cxx13new_allocatorIjE11_M_max_sizeEv = comdat any

$_ZSt25__uninitialized_default_nIPjmET_S1_T0_ = comdat any

$_ZNSt27__uninitialized_default_n_1ILb1EE18__uninit_default_nIPjmEET_S3_T0_ = comdat any

$_ZSt6fill_nIPjmjET_S1_T0_RKT1_ = comdat any

$_ZSt10__fill_n_aIPjmjET_S1_T0_RKT1_St26random_access_iterator_tag = comdat any

$_ZSt17__size_to_integerm = comdat any

$_ZSt19__iterator_categoryIPjENSt15iterator_traitsIT_E17iterator_categoryERKS2_ = comdat any

$_ZSt8__fill_aIPjjEvT_S1_RKT0_ = comdat any

$_ZSt9__fill_a1IPjjEN9__gnu_cxx11__enable_ifIXsr11__is_scalarIT0_EE7__valueEvE6__typeET_S6_RKS3_ = comdat any

$_ZSt3maxImERKT_S2_S2_ = comdat any

$_ZNSt16allocator_traitsISaIjEE8allocateERS0_m = comdat any

$_ZN9__gnu_cxx13new_allocatorIjE8allocateEmPKv = comdat any

$_ZNSt6vectorIjSaIjEE14_S_do_relocateEPjS2_S2_RS0_St17integral_constantIbLb1EE = comdat any

$_ZSt12__relocate_aIPjS0_SaIjEET0_T_S3_S2_RT1_ = comdat any

$_ZSt14__relocate_a_1IjjENSt9enable_ifIXsr3std24__is_bitwise_relocatableIT_EE5valueEPS1_E4typeES2_S2_S2_RSaIT0_E = comdat any

$_ZSt12__niter_baseIPjET_S1_ = comdat any

$_ZNKSt6vectorISt3setIjSt4lessIjESaIjEESaIS4_EE4sizeEv = comdat any

$_ZNSt6vectorISt3setIjSt4lessIjESaIjEESaIS4_EE17_M_default_appendEm = comdat any

$_ZNSt6vectorISt3setIjSt4lessIjESaIjEESaIS4_EE15_M_erase_at_endEPS4_ = comdat any

$_ZNKSt6vectorISt3setIjSt4lessIjESaIjEESaIS4_EE8max_sizeEv = comdat any

$_ZSt27__uninitialized_default_n_aIPSt3setIjSt4lessIjESaIjEEmS4_ET_S6_T0_RSaIT1_E = comdat any

$_ZNKSt6vectorISt3setIjSt4lessIjESaIjEESaIS4_EE12_M_check_lenEmPKc = comdat any

$_ZNSt12_Vector_baseISt3setIjSt4lessIjESaIjEESaIS4_EE11_M_allocateEm = comdat any

$_ZNSt6vectorISt3setIjSt4lessIjESaIjEESaIS4_EE11_S_relocateEPS4_S7_S7_RS5_ = comdat any

$_ZNSt6vectorISt3setIjSt4lessIjESaIjEESaIS4_EE11_S_max_sizeERKS5_ = comdat any

$_ZNKSt12_Vector_baseISt3setIjSt4lessIjESaIjEESaIS4_EE19_M_get_Tp_allocatorEv = comdat any

$_ZNSt16allocator_traitsISaISt3setIjSt4lessIjESaIjEEEE8max_sizeERKS5_ = comdat any

$_ZNK9__gnu_cxx13new_allocatorISt3setIjSt4lessIjESaIjEEE8max_sizeEv = comdat any

$_ZNK9__gnu_cxx13new_allocatorISt3setIjSt4lessIjESaIjEEE11_M_max_sizeEv = comdat any

$_ZSt25__uninitialized_default_nIPSt3setIjSt4lessIjESaIjEEmET_S6_T0_ = comdat any

$_ZNSt27__uninitialized_default_n_1ILb0EE18__uninit_default_nIPSt3setIjSt4lessIjESaIjEEmEET_S8_T0_ = comdat any

$_ZSt10_ConstructISt3setIjSt4lessIjESaIjEEJEEvPT_DpOT0_ = comdat any

$_ZNSt3setIjSt4lessIjESaIjEEC2Ev = comdat any

$_ZNSt8_Rb_treeIjjSt9_IdentityIjESt4lessIjESaIjEEC2Ev = comdat any

$_ZNSt8_Rb_treeIjjSt9_IdentityIjESt4lessIjESaIjEE13_Rb_tree_implIS3_Lb1EEC2Ev = comdat any

$_ZNSaISt13_Rb_tree_nodeIjEEC2Ev = comdat any

$_ZNSt20_Rb_tree_key_compareISt4lessIjEEC2Ev = comdat any

$_ZNSt15_Rb_tree_headerC2Ev = comdat any

$_ZN9__gnu_cxx13new_allocatorISt13_Rb_tree_nodeIjEEC2Ev = comdat any

$_ZNSt15_Rb_tree_header8_M_resetEv = comdat any

$_ZNSt16allocator_traitsISaISt3setIjSt4lessIjESaIjEEEE8allocateERS5_m = comdat any

$_ZN9__gnu_cxx13new_allocatorISt3setIjSt4lessIjESaIjEEE8allocateEmPKv = comdat any

$_ZNSt6vectorISt3setIjSt4lessIjESaIjEESaIS4_EE14_S_do_relocateEPS4_S7_S7_RS5_St17integral_constantIbLb1EE = comdat any

$_ZSt12__relocate_aIPSt3setIjSt4lessIjESaIjEES5_SaIS4_EET0_T_S8_S7_RT1_ = comdat any

$_ZSt14__relocate_a_1IPSt3setIjSt4lessIjESaIjEES5_SaIS4_EET0_T_S8_S7_RT1_ = comdat any

$_ZSt12__niter_baseIPSt3setIjSt4lessIjESaIjEEET_S6_ = comdat any

$_ZSt19__relocate_object_aISt3setIjSt4lessIjESaIjEES4_SaIS4_EEvPT_PT0_RT1_ = comdat any

$_ZNSt16allocator_traitsISaISt3setIjSt4lessIjESaIjEEEE9constructIS4_JS4_EEEvRS5_PT_DpOT0_ = comdat any

$_ZSt4moveIRSt3setIjSt4lessIjESaIjEEEONSt16remove_referenceIT_E4typeEOS7_ = comdat any

$_ZNSt16allocator_traitsISaISt3setIjSt4lessIjESaIjEEEE7destroyIS4_EEvRS5_PT_ = comdat any

$_ZN9__gnu_cxx13new_allocatorISt3setIjSt4lessIjESaIjEEE9constructIS5_JS5_EEEvPT_DpOT0_ = comdat any

$_ZSt7forwardISt3setIjSt4lessIjESaIjEEEOT_RNSt16remove_referenceIS5_E4typeE = comdat any

$_ZNSt3setIjSt4lessIjESaIjEEC2EOS3_ = comdat any

$_ZNSt8_Rb_treeIjjSt9_IdentityIjESt4lessIjESaIjEEC2EOS5_ = comdat any

$_ZNSt8_Rb_treeIjjSt9_IdentityIjESt4lessIjESaIjEE13_Rb_tree_implIS3_Lb1EEC2EOS7_ = comdat any

$_ZNSaISt13_Rb_tree_nodeIjEEC2ERKS1_ = comdat any

$_ZNSt20_Rb_tree_key_compareISt4lessIjEEC2EOS2_ = comdat any

$_ZNSt15_Rb_tree_headerC2EOS_ = comdat any

$_ZN9__gnu_cxx13new_allocatorISt13_Rb_tree_nodeIjEEC2ERKS3_ = comdat any

$_ZNSt15_Rb_tree_header12_M_move_dataERS_ = comdat any

$_ZN9__gnu_cxx13new_allocatorISt3setIjSt4lessIjESaIjEEE7destroyIS5_EEvPT_ = comdat any

$_ZNSt8_Rb_treeIjjSt9_IdentityIjESt4lessIjESaIjEE16_M_insert_uniqueIRKjEESt4pairISt17_Rb_tree_iteratorIjEbEOT_ = comdat any

$_ZNSt4pairISt23_Rb_tree_const_iteratorIjEbEC2IRSt17_Rb_tree_iteratorIjERbLb1EEEOT_OT0_ = comdat any

$_ZNSt8_Rb_treeIjjSt9_IdentityIjESt4lessIjESaIjEE24_M_get_insert_unique_posERKj = comdat any

$_ZNKSt9_IdentityIjEclERKj = comdat any

$_ZNSt8_Rb_treeIjjSt9_IdentityIjESt4lessIjESaIjEE11_Alloc_nodeC2ERS5_ = comdat any

$_ZNSt8_Rb_treeIjjSt9_IdentityIjESt4lessIjESaIjEE10_M_insert_IRKjNS5_11_Alloc_nodeEEESt17_Rb_tree_iteratorIjEPSt18_Rb_tree_node_baseSD_OT_RT0_ = comdat any

$_ZSt7forwardIRKjEOT_RNSt16remove_referenceIS2_E4typeE = comdat any

$_ZNSt4pairISt17_Rb_tree_iteratorIjEbEC2IS1_bLb1EEEOT_OT0_ = comdat any

$_ZNSt17_Rb_tree_iteratorIjEC2EPSt18_Rb_tree_node_base = comdat any

$_ZNSt8_Rb_treeIjjSt9_IdentityIjESt4lessIjESaIjEE6_M_endEv = comdat any

$_ZNKSt4lessIjEclERKjS2_ = comdat any

$_ZNSt8_Rb_treeIjjSt9_IdentityIjESt4lessIjESaIjEE6_S_keyEPKSt13_Rb_tree_nodeIjE = comdat any

$_ZSteqRKSt17_Rb_tree_iteratorIjES2_ = comdat any

$_ZNSt8_Rb_treeIjjSt9_IdentityIjESt4lessIjESaIjEE5beginEv = comdat any

$_ZNSt4pairIPSt18_Rb_tree_node_baseS1_EC2IRPSt13_Rb_tree_nodeIjERS1_Lb1EEEOT_OT0_ = comdat any

$_ZNSt17_Rb_tree_iteratorIjEmmEv = comdat any

$_ZNSt8_Rb_treeIjjSt9_IdentityIjESt4lessIjESaIjEE6_S_keyEPKSt18_Rb_tree_node_base = comdat any

$_ZNSt4pairIPSt18_Rb_tree_node_baseS1_EC2IRS1_Lb1EEEOT_RKS1_ = comdat any

$_ZNKSt13_Rb_tree_nodeIjE9_M_valptrEv = comdat any

$_ZNK9__gnu_cxx16__aligned_membufIjE6_M_ptrEv = comdat any

$_ZNK9__gnu_cxx16__aligned_membufIjE7_M_addrEv = comdat any

$_ZSt7forwardIRPSt13_Rb_tree_nodeIjEEOT_RNSt16remove_referenceIS4_E4typeE = comdat any

$_ZSt7forwardIRPSt18_Rb_tree_node_baseEOT_RNSt16remove_referenceIS3_E4typeE = comdat any

$_ZNKSt8_Rb_treeIjjSt9_IdentityIjESt4lessIjESaIjEE11_Alloc_nodeclIRKjEEPSt13_Rb_tree_nodeIjEOT_ = comdat any

$_ZNSt8_Rb_treeIjjSt9_IdentityIjESt4lessIjESaIjEE14_M_create_nodeIJRKjEEEPSt13_Rb_tree_nodeIjEDpOT_ = comdat any

$_ZNSt8_Rb_treeIjjSt9_IdentityIjESt4lessIjESaIjEE11_M_get_nodeEv = comdat any

$_ZNSt8_Rb_treeIjjSt9_IdentityIjESt4lessIjESaIjEE17_M_construct_nodeIJRKjEEEvPSt13_Rb_tree_nodeIjEDpOT_ = comdat any

$_ZNSt16allocator_traitsISaISt13_Rb_tree_nodeIjEEE8allocateERS2_m = comdat any

$_ZN9__gnu_cxx13new_allocatorISt13_Rb_tree_nodeIjEE8allocateEmPKv = comdat any

$_ZNK9__gnu_cxx13new_allocatorISt13_Rb_tree_nodeIjEE11_M_max_sizeEv = comdat any

$_ZNSt16allocator_traitsISaISt13_Rb_tree_nodeIjEEE9constructIjJRKjEEEvRS2_PT_DpOT0_ = comdat any

$_ZN9__gnu_cxx13new_allocatorISt13_Rb_tree_nodeIjEE9constructIjJRKjEEEvPT_DpOT0_ = comdat any

$_ZSt7forwardISt17_Rb_tree_iteratorIjEEOT_RNSt16remove_referenceIS2_E4typeE = comdat any

$_ZSt7forwardIbEOT_RNSt16remove_referenceIS0_E4typeE = comdat any

$_ZSt7forwardIRSt17_Rb_tree_iteratorIjEEOT_RNSt16remove_referenceIS3_E4typeE = comdat any

$_ZNSt23_Rb_tree_const_iteratorIjEC2ERKSt17_Rb_tree_iteratorIjE = comdat any

$_ZSt7forwardIRbEOT_RNSt16remove_referenceIS1_E4typeE = comdat any

$_ZNKSt6vectorIN9libparest15ParallelControl10SystemInfoESaIS2_EE4sizeEv = comdat any

$_ZNSt6vectorIN9libparest15ParallelControl10SystemInfoESaIS2_EE17_M_default_appendEm = comdat any

$_ZNSt6vectorIN9libparest15ParallelControl10SystemInfoESaIS2_EE15_M_erase_at_endEPS2_ = comdat any

$_ZNKSt6vectorIN9libparest15ParallelControl10SystemInfoESaIS2_EE8max_sizeEv = comdat any

$_ZSt27__uninitialized_default_n_aIPN9libparest15ParallelControl10SystemInfoEmS2_ET_S4_T0_RSaIT1_E = comdat any

$_ZNKSt6vectorIN9libparest15ParallelControl10SystemInfoESaIS2_EE12_M_check_lenEmPKc = comdat any

$_ZNSt12_Vector_baseIN9libparest15ParallelControl10SystemInfoESaIS2_EE11_M_allocateEm = comdat any

$_ZNSt6vectorIN9libparest15ParallelControl10SystemInfoESaIS2_EE11_S_relocateEPS2_S5_S5_RS3_ = comdat any

$_ZNSt6vectorIN9libparest15ParallelControl10SystemInfoESaIS2_EE11_S_max_sizeERKS3_ = comdat any

$_ZNKSt12_Vector_baseIN9libparest15ParallelControl10SystemInfoESaIS2_EE19_M_get_Tp_allocatorEv = comdat any

$_ZNSt16allocator_traitsISaIN9libparest15ParallelControl10SystemInfoEEE8max_sizeERKS3_ = comdat any

$_ZNK9__gnu_cxx13new_allocatorIN9libparest15ParallelControl10SystemInfoEE8max_sizeEv = comdat any

$_ZNK9__gnu_cxx13new_allocatorIN9libparest15ParallelControl10SystemInfoEE11_M_max_sizeEv = comdat any

$_ZSt25__uninitialized_default_nIPN9libparest15ParallelControl10SystemInfoEmET_S4_T0_ = comdat any

$_ZNSt27__uninitialized_default_n_1ILb0EE18__uninit_default_nIPN9libparest15ParallelControl10SystemInfoEmEET_S6_T0_ = comdat any

$_ZSt10_ConstructIN9libparest15ParallelControl10SystemInfoEJEEvPT_DpOT0_ = comdat any

$_ZNSt16allocator_traitsISaIN9libparest15ParallelControl10SystemInfoEEE8allocateERS3_m = comdat any

$_ZN9__gnu_cxx13new_allocatorIN9libparest15ParallelControl10SystemInfoEE8allocateEmPKv = comdat any

$_ZNSt6vectorIN9libparest15ParallelControl10SystemInfoESaIS2_EE14_S_do_relocateEPS2_S5_S5_RS3_St17integral_constantIbLb1EE = comdat any

$_ZSt12__relocate_aIPN9libparest15ParallelControl10SystemInfoES3_SaIS2_EET0_T_S6_S5_RT1_ = comdat any

$_ZSt14__relocate_a_1IPN9libparest15ParallelControl10SystemInfoES3_SaIS2_EET0_T_S6_S5_RT1_ = comdat any

$_ZSt12__niter_baseIPN9libparest15ParallelControl10SystemInfoEET_S4_ = comdat any

$_ZSt19__relocate_object_aIN9libparest15ParallelControl10SystemInfoES2_SaIS2_EEvPT_PT0_RT1_ = comdat any

$_ZNSt16allocator_traitsISaIN9libparest15ParallelControl10SystemInfoEEE9constructIS2_JS2_EEEvRS3_PT_DpOT0_ = comdat any

$_ZSt4moveIRN9libparest15ParallelControl10SystemInfoEEONSt16remove_referenceIT_E4typeEOS5_ = comdat any

$_ZNSt16allocator_traitsISaIN9libparest15ParallelControl10SystemInfoEEE7destroyIS2_EEvRS3_PT_ = comdat any

$_ZN9__gnu_cxx13new_allocatorIN9libparest15ParallelControl10SystemInfoEE9constructIS3_JS3_EEEvPT_DpOT0_ = comdat any

$_ZSt7forwardIN9libparest15ParallelControl10SystemInfoEEOT_RNSt16remove_referenceIS3_E4typeE = comdat any

$_ZN9libparest15ParallelControl10SystemInfoC2EOS1_ = comdat any

$_ZN9__gnu_cxx13new_allocatorIN9libparest15ParallelControl10SystemInfoEE7destroyIS3_EEvPT_ = comdat any

$_ZTSN9libparest15ParallelControl4DataE = comdat any

$_ZTIN9libparest15ParallelControl4DataE = comdat any

@_ZN12_GLOBAL__N_12_1E = internal global %"struct.boost::arg" zeroinitializer, align 1, !dbg !0
@_ZN12_GLOBAL__N_12_2E = internal global %"struct.boost::arg.0" zeroinitializer, align 1, !dbg !15
@_ZN12_GLOBAL__N_12_3E = internal global %"struct.boost::arg.2" zeroinitializer, align 1, !dbg !25
@_ZN12_GLOBAL__N_12_4E = internal global %"struct.boost::arg.4" zeroinitializer, align 1, !dbg !35
@_ZN12_GLOBAL__N_12_5E = internal global %"struct.boost::arg.6" zeroinitializer, align 1, !dbg !45
@_ZN12_GLOBAL__N_12_6E = internal global %"struct.boost::arg.8" zeroinitializer, align 1, !dbg !55
@_ZN12_GLOBAL__N_12_7E = internal global %"struct.boost::arg.10" zeroinitializer, align 1, !dbg !65
@_ZN12_GLOBAL__N_12_8E = internal global %"struct.boost::arg.12" zeroinitializer, align 1, !dbg !75
@_ZN12_GLOBAL__N_12_9E = internal global %"struct.boost::arg.14" zeroinitializer, align 1, !dbg !85
@_ZStL8__ioinit = internal global %"class.std::ios_base::Init" zeroinitializer, align 1, !dbg !95
@__dso_handle = external hidden global i8
@_Z8filenameB5cxx11 = dso_local global %"class.std::__cxx11::basic_ostringstream" zeroinitializer, align 8, !dbg !122
@.str = private unnamed_addr constant [16 x i8] c"<uninitialized>\00", align 1
@_ZN6dealii16multithread_infoE = external dso_local global %"class.dealii::MultithreadInfo", align 4
@.str.11 = private unnamed_addr constant [2 x i8] c" \00", align 1
@_ZTVN9libparest15ParallelControl5Local7ControlE = dso_local unnamed_addr constant { [7 x i8*] } { [7 x i8*] [i8* null, i8* bitcast ({ i8*, i8*, i8* }* @_ZTIN9libparest15ParallelControl5Local7ControlE to i8*), i8* bitcast (void (%"class.libparest::ParallelControl::Local::Control"*)* @_ZN9libparest15ParallelControl5Local7ControlD1Ev to i8*), i8* bitcast (void (%"class.libparest::ParallelControl::Local::Control"*)* @_ZN9libparest15ParallelControl5Local7ControlD0Ev to i8*), i8* bitcast (void (%"class.libparest::ParallelControl::Local::Control"*, i32*, i8***)* @_ZN9libparest15ParallelControl5Local7Control14initialize_mpiERiRPPc to i8*), i8* bitcast (void (%"class.libparest::ParallelControl::Local::Control"*, i32)* @_ZN9libparest15ParallelControl5Local7Control10initializeEj to i8*), i8* bitcast (void (%"class.libparest::ParallelControl::Local::Control"*)* @_ZN9libparest15ParallelControl5Local7Control8finalizeEv to i8*)] }, align 8
@_ZN9libparest15ParallelControl5Local7Control17instance_variableE = dso_local global %"class.libparest::ParallelControl::Local::Control" zeroinitializer, align 8, !dbg !2309
@_ZTVN9libparest15ParallelControl4BaseE = dso_local unnamed_addr constant { [7 x i8*] } { [7 x i8*] [i8* null, i8* bitcast ({ i8*, i8*, i32, i32, i8*, i64 }* @_ZTIN9libparest15ParallelControl4BaseE to i8*), i8* bitcast (void (%"class.libparest::ParallelControl::Base"*)* @_ZN9libparest15ParallelControl4BaseD1Ev to i8*), i8* bitcast (void (%"class.libparest::ParallelControl::Base"*)* @_ZN9libparest15ParallelControl4BaseD0Ev to i8*), i8* bitcast (void ()* @__cxa_pure_virtual to i8*), i8* bitcast (void ()* @__cxa_pure_virtual to i8*), i8* bitcast (void ()* @__cxa_pure_virtual to i8*)] }, align 8
@_ZTVN10__cxxabiv121__vmi_class_type_infoE = external dso_local global i8*
@_ZTSN9libparest15ParallelControl4BaseE = dso_local constant [35 x i8] c"N9libparest15ParallelControl4BaseE\00", align 1
@_ZTVN10__cxxabiv117__class_type_infoE = external dso_local global i8*
@_ZTSN9libparest15ParallelControl4DataE = linkonce_odr dso_local constant [35 x i8] c"N9libparest15ParallelControl4DataE\00", comdat, align 1
@_ZTIN9libparest15ParallelControl4DataE = linkonce_odr dso_local constant { i8*, i8* } { i8* bitcast (i8** getelementptr inbounds (i8*, i8** @_ZTVN10__cxxabiv117__class_type_infoE, i64 2) to i8*), i8* getelementptr inbounds ([35 x i8], [35 x i8]* @_ZTSN9libparest15ParallelControl4DataE, i32 0, i32 0) }, comdat, align 8
@_ZTIN9libparest15ParallelControl4BaseE = dso_local constant { i8*, i8*, i32, i32, i8*, i64 } { i8* bitcast (i8** getelementptr inbounds (i8*, i8** @_ZTVN10__cxxabiv121__vmi_class_type_infoE, i64 2) to i8*), i8* getelementptr inbounds ([35 x i8], [35 x i8]* @_ZTSN9libparest15ParallelControl4BaseE, i32 0, i32 0), i32 0, i32 1, i8* bitcast ({ i8*, i8* }* @_ZTIN9libparest15ParallelControl4DataE to i8*), i64 2050 }, align 8
@_ZTVN10__cxxabiv120__si_class_type_infoE = external dso_local global i8*
@_ZTSN9libparest15ParallelControl5Local7ControlE = dso_local constant [44 x i8] c"N9libparest15ParallelControl5Local7ControlE\00", align 1
@_ZTIN9libparest15ParallelControl5Local7ControlE = dso_local constant { i8*, i8*, i8* } { i8* bitcast (i8** getelementptr inbounds (i8*, i8** @_ZTVN10__cxxabiv120__si_class_type_infoE, i64 2) to i8*), i8* getelementptr inbounds ([44 x i8], [44 x i8]* @_ZTSN9libparest15ParallelControl5Local7ControlE, i32 0, i32 0), i8* bitcast ({ i8*, i8*, i32, i32, i8*, i64 }* @_ZTIN9libparest15ParallelControl4BaseE to i8*) }, align 8
@.str.13 = private unnamed_addr constant [26 x i8] c"vector::_M_default_append\00", align 1
@llvm.global_ctors = appending global [1 x { i32, void ()*, i8* }] [{ i32, void ()*, i8* } { i32 65535, void ()* @_GLOBAL__sub_I_control.cc, i8* null }]

@_ZN9libparest15ParallelControl10SystemInfoC1Ev = dso_local unnamed_addr alias void (%"class.libparest::ParallelControl::SystemInfo"*), void (%"class.libparest::ParallelControl::SystemInfo"*)* @_ZN9libparest15ParallelControl10SystemInfoC2Ev
@_ZN9libparest15ParallelControl4BaseD1Ev = dso_local unnamed_addr alias void (%"class.libparest::ParallelControl::Base"*), void (%"class.libparest::ParallelControl::Base"*)* @_ZN9libparest15ParallelControl4BaseD2Ev
@_ZN9libparest15ParallelControl5Local7ControlC1Ev = dso_local unnamed_addr alias void (%"class.libparest::ParallelControl::Local::Control"*), void (%"class.libparest::ParallelControl::Local::Control"*)* @_ZN9libparest15ParallelControl5Local7ControlC2Ev
@_ZN9libparest15ParallelControl5Local7ControlD1Ev = dso_local unnamed_addr alias void (%"class.libparest::ParallelControl::Local::Control"*), void (%"class.libparest::ParallelControl::Local::Control"*)* @_ZN9libparest15ParallelControl5Local7ControlD2Ev

; Function Attrs: noinline uwtable
define internal void @__cxx_global_var_init() #0 section ".text.startup" !dbg !3804 {
entry:
  call void @_ZN5boost3argILi1EEC2Ev(%"struct.boost::arg"* @_ZN12_GLOBAL__N_12_1E), !dbg !3805
  ret void, !dbg !3805
}

; Function Attrs: noinline nounwind uwtable
define linkonce_odr dso_local void @_ZN5boost3argILi1EEC2Ev(%"struct.boost::arg"* %this) unnamed_addr #1 comdat align 2 !dbg !3806 {
entry:
  %this.addr = alloca %"struct.boost::arg"*, align 8
  store %"struct.boost::arg"* %this, %"struct.boost::arg"** %this.addr, align 8
  call void @llvm.dbg.declare(metadata %"struct.boost::arg"** %this.addr, metadata !3807, metadata !DIExpression()), !dbg !3809
  %this1 = load %"struct.boost::arg"*, %"struct.boost::arg"** %this.addr, align 8
  ret void, !dbg !3810
}

; Function Attrs: noinline uwtable
define internal void @__cxx_global_var_init.1() #0 section ".text.startup" !dbg !3811 {
entry:
  call void @_ZN5boost3argILi2EEC2Ev(%"struct.boost::arg.0"* @_ZN12_GLOBAL__N_12_2E), !dbg !3812
  ret void, !dbg !3812
}

; Function Attrs: noinline nounwind uwtable
define linkonce_odr dso_local void @_ZN5boost3argILi2EEC2Ev(%"struct.boost::arg.0"* %this) unnamed_addr #1 comdat align 2 !dbg !3813 {
entry:
  %this.addr = alloca %"struct.boost::arg.0"*, align 8
  store %"struct.boost::arg.0"* %this, %"struct.boost::arg.0"** %this.addr, align 8
  call void @llvm.dbg.declare(metadata %"struct.boost::arg.0"** %this.addr, metadata !3814, metadata !DIExpression()), !dbg !3816
  %this1 = load %"struct.boost::arg.0"*, %"struct.boost::arg.0"** %this.addr, align 8
  ret void, !dbg !3817
}

; Function Attrs: noinline uwtable
define internal void @__cxx_global_var_init.2() #0 section ".text.startup" !dbg !3818 {
entry:
  call void @_ZN5boost3argILi3EEC2Ev(%"struct.boost::arg.2"* @_ZN12_GLOBAL__N_12_3E), !dbg !3819
  ret void, !dbg !3819
}

; Function Attrs: noinline nounwind uwtable
define linkonce_odr dso_local void @_ZN5boost3argILi3EEC2Ev(%"struct.boost::arg.2"* %this) unnamed_addr #1 comdat align 2 !dbg !3820 {
entry:
  %this.addr = alloca %"struct.boost::arg.2"*, align 8
  store %"struct.boost::arg.2"* %this, %"struct.boost::arg.2"** %this.addr, align 8
  call void @llvm.dbg.declare(metadata %"struct.boost::arg.2"** %this.addr, metadata !3821, metadata !DIExpression()), !dbg !3823
  %this1 = load %"struct.boost::arg.2"*, %"struct.boost::arg.2"** %this.addr, align 8
  ret void, !dbg !3824
}

; Function Attrs: noinline uwtable
define internal void @__cxx_global_var_init.3() #0 section ".text.startup" !dbg !3825 {
entry:
  call void @_ZN5boost3argILi4EEC2Ev(%"struct.boost::arg.4"* @_ZN12_GLOBAL__N_12_4E), !dbg !3826
  ret void, !dbg !3826
}

; Function Attrs: noinline nounwind uwtable
define linkonce_odr dso_local void @_ZN5boost3argILi4EEC2Ev(%"struct.boost::arg.4"* %this) unnamed_addr #1 comdat align 2 !dbg !3827 {
entry:
  %this.addr = alloca %"struct.boost::arg.4"*, align 8
  store %"struct.boost::arg.4"* %this, %"struct.boost::arg.4"** %this.addr, align 8
  call void @llvm.dbg.declare(metadata %"struct.boost::arg.4"** %this.addr, metadata !3828, metadata !DIExpression()), !dbg !3830
  %this1 = load %"struct.boost::arg.4"*, %"struct.boost::arg.4"** %this.addr, align 8
  ret void, !dbg !3831
}

; Function Attrs: noinline uwtable
define internal void @__cxx_global_var_init.4() #0 section ".text.startup" !dbg !3832 {
entry:
  call void @_ZN5boost3argILi5EEC2Ev(%"struct.boost::arg.6"* @_ZN12_GLOBAL__N_12_5E), !dbg !3833
  ret void, !dbg !3833
}

; Function Attrs: noinline nounwind uwtable
define linkonce_odr dso_local void @_ZN5boost3argILi5EEC2Ev(%"struct.boost::arg.6"* %this) unnamed_addr #1 comdat align 2 !dbg !3834 {
entry:
  %this.addr = alloca %"struct.boost::arg.6"*, align 8
  store %"struct.boost::arg.6"* %this, %"struct.boost::arg.6"** %this.addr, align 8
  call void @llvm.dbg.declare(metadata %"struct.boost::arg.6"** %this.addr, metadata !3835, metadata !DIExpression()), !dbg !3837
  %this1 = load %"struct.boost::arg.6"*, %"struct.boost::arg.6"** %this.addr, align 8
  ret void, !dbg !3838
}

; Function Attrs: noinline uwtable
define internal void @__cxx_global_var_init.5() #0 section ".text.startup" !dbg !3839 {
entry:
  call void @_ZN5boost3argILi6EEC2Ev(%"struct.boost::arg.8"* @_ZN12_GLOBAL__N_12_6E), !dbg !3840
  ret void, !dbg !3840
}

; Function Attrs: noinline nounwind uwtable
define linkonce_odr dso_local void @_ZN5boost3argILi6EEC2Ev(%"struct.boost::arg.8"* %this) unnamed_addr #1 comdat align 2 !dbg !3841 {
entry:
  %this.addr = alloca %"struct.boost::arg.8"*, align 8
  store %"struct.boost::arg.8"* %this, %"struct.boost::arg.8"** %this.addr, align 8
  call void @llvm.dbg.declare(metadata %"struct.boost::arg.8"** %this.addr, metadata !3842, metadata !DIExpression()), !dbg !3844
  %this1 = load %"struct.boost::arg.8"*, %"struct.boost::arg.8"** %this.addr, align 8
  ret void, !dbg !3845
}

; Function Attrs: noinline uwtable
define internal void @__cxx_global_var_init.6() #0 section ".text.startup" !dbg !3846 {
entry:
  call void @_ZN5boost3argILi7EEC2Ev(%"struct.boost::arg.10"* @_ZN12_GLOBAL__N_12_7E), !dbg !3847
  ret void, !dbg !3847
}

; Function Attrs: noinline nounwind uwtable
define linkonce_odr dso_local void @_ZN5boost3argILi7EEC2Ev(%"struct.boost::arg.10"* %this) unnamed_addr #1 comdat align 2 !dbg !3848 {
entry:
  %this.addr = alloca %"struct.boost::arg.10"*, align 8
  store %"struct.boost::arg.10"* %this, %"struct.boost::arg.10"** %this.addr, align 8
  call void @llvm.dbg.declare(metadata %"struct.boost::arg.10"** %this.addr, metadata !3849, metadata !DIExpression()), !dbg !3851
  %this1 = load %"struct.boost::arg.10"*, %"struct.boost::arg.10"** %this.addr, align 8
  ret void, !dbg !3852
}

; Function Attrs: noinline uwtable
define internal void @__cxx_global_var_init.7() #0 section ".text.startup" !dbg !3853 {
entry:
  call void @_ZN5boost3argILi8EEC2Ev(%"struct.boost::arg.12"* @_ZN12_GLOBAL__N_12_8E), !dbg !3854
  ret void, !dbg !3854
}

; Function Attrs: noinline nounwind uwtable
define linkonce_odr dso_local void @_ZN5boost3argILi8EEC2Ev(%"struct.boost::arg.12"* %this) unnamed_addr #1 comdat align 2 !dbg !3855 {
entry:
  %this.addr = alloca %"struct.boost::arg.12"*, align 8
  store %"struct.boost::arg.12"* %this, %"struct.boost::arg.12"** %this.addr, align 8
  call void @llvm.dbg.declare(metadata %"struct.boost::arg.12"** %this.addr, metadata !3856, metadata !DIExpression()), !dbg !3858
  %this1 = load %"struct.boost::arg.12"*, %"struct.boost::arg.12"** %this.addr, align 8
  ret void, !dbg !3859
}

; Function Attrs: noinline uwtable
define internal void @__cxx_global_var_init.8() #0 section ".text.startup" !dbg !3860 {
entry:
  call void @_ZN5boost3argILi9EEC2Ev(%"struct.boost::arg.14"* @_ZN12_GLOBAL__N_12_9E), !dbg !3861
  ret void, !dbg !3861
}

; Function Attrs: noinline nounwind uwtable
define linkonce_odr dso_local void @_ZN5boost3argILi9EEC2Ev(%"struct.boost::arg.14"* %this) unnamed_addr #1 comdat align 2 !dbg !3862 {
entry:
  %this.addr = alloca %"struct.boost::arg.14"*, align 8
  store %"struct.boost::arg.14"* %this, %"struct.boost::arg.14"** %this.addr, align 8
  call void @llvm.dbg.declare(metadata %"struct.boost::arg.14"** %this.addr, metadata !3863, metadata !DIExpression()), !dbg !3865
  %this1 = load %"struct.boost::arg.14"*, %"struct.boost::arg.14"** %this.addr, align 8
  ret void, !dbg !3866
}

; Function Attrs: noinline uwtable
define internal void @__cxx_global_var_init.9() #0 section ".text.startup" !dbg !3867 {
entry:
  call void @_ZNSt8ios_base4InitC1Ev(%"class.std::ios_base::Init"* @_ZStL8__ioinit), !dbg !3868
  %0 = call i32 @__cxa_atexit(void (i8*)* bitcast (void (%"class.std::ios_base::Init"*)* @_ZNSt8ios_base4InitD1Ev to void (i8*)*), i8* getelementptr inbounds (%"class.std::ios_base::Init", %"class.std::ios_base::Init"* @_ZStL8__ioinit, i32 0, i32 0), i8* @__dso_handle) #4, !dbg !3868
  ret void, !dbg !3868
}

declare dso_local void @_ZNSt8ios_base4InitC1Ev(%"class.std::ios_base::Init"*) unnamed_addr #2

; Function Attrs: nounwind
declare dso_local void @_ZNSt8ios_base4InitD1Ev(%"class.std::ios_base::Init"*) unnamed_addr #3

; Function Attrs: nounwind
declare dso_local i32 @__cxa_atexit(void (i8*)*, i8*, i8*) #4

; Function Attrs: noinline uwtable
define internal void @__cxx_global_var_init.10() #0 section ".text.startup" !dbg !3869 {
entry:
  call void @_ZNSt7__cxx1119basic_ostringstreamIcSt11char_traitsIcESaIcEEC1Ev(%"class.std::__cxx11::basic_ostringstream"* @_Z8filenameB5cxx11), !dbg !3870
  %0 = call i32 @__cxa_atexit(void (i8*)* bitcast (void (%"class.std::__cxx11::basic_ostringstream"*)* @_ZNSt7__cxx1119basic_ostringstreamIcSt11char_traitsIcESaIcEED1Ev to void (i8*)*), i8* bitcast (%"class.std::__cxx11::basic_ostringstream"* @_Z8filenameB5cxx11 to i8*), i8* @__dso_handle) #4, !dbg !3870
  ret void, !dbg !3870
}

declare dso_local void @_ZNSt7__cxx1119basic_ostringstreamIcSt11char_traitsIcESaIcEEC1Ev(%"class.std::__cxx11::basic_ostringstream"*) unnamed_addr #2

; Function Attrs: nounwind
declare dso_local void @_ZNSt7__cxx1119basic_ostringstreamIcSt11char_traitsIcESaIcEED1Ev(%"class.std::__cxx11::basic_ostringstream"*) unnamed_addr #3

; Function Attrs: noinline uwtable
define dso_local void @_ZN9libparest15ParallelControl10SystemInfoC2Ev(%"class.libparest::ParallelControl::SystemInfo"* %this) unnamed_addr #0 align 2 personality i8* bitcast (i32 (...)* @__gxx_personality_v0 to i8*) !dbg !3871 {
entry:
  %this.addr = alloca %"class.libparest::ParallelControl::SystemInfo"*, align 8
  %ref.tmp = alloca %"class.std::allocator", align 1
  %exn.slot = alloca i8*
  %ehselector.slot = alloca i32
  store %"class.libparest::ParallelControl::SystemInfo"* %this, %"class.libparest::ParallelControl::SystemInfo"** %this.addr, align 8
  call void @llvm.dbg.declare(metadata %"class.libparest::ParallelControl::SystemInfo"** %this.addr, metadata !3872, metadata !DIExpression()), !dbg !3873
  %this1 = load %"class.libparest::ParallelControl::SystemInfo"*, %"class.libparest::ParallelControl::SystemInfo"** %this.addr, align 8
  %hostname = getelementptr inbounds %"class.libparest::ParallelControl::SystemInfo", %"class.libparest::ParallelControl::SystemInfo"* %this1, i32 0, i32 0, !dbg !3874
  call void @_ZNSaIcEC1Ev(%"class.std::allocator"* %ref.tmp) #4, !dbg !3874
  invoke void @_ZNSt7__cxx1112basic_stringIcSt11char_traitsIcESaIcEEC1EPKcRKS3_(%"class.std::__cxx11::basic_string"* %hostname, i8* getelementptr inbounds ([16 x i8], [16 x i8]* @.str, i64 0, i64 0), %"class.std::allocator"* dereferenceable(1) %ref.tmp)
          to label %invoke.cont unwind label %lpad, !dbg !3874

invoke.cont:                                      ; preds = %entry
  call void @_ZNSaIcED1Ev(%"class.std::allocator"* %ref.tmp) #4, !dbg !3874
  %n_cpus = getelementptr inbounds %"class.libparest::ParallelControl::SystemInfo", %"class.libparest::ParallelControl::SystemInfo"* %this1, i32 0, i32 1, !dbg !3875
  store i32 0, i32* %n_cpus, align 8, !dbg !3875
  %load_per_cpu = getelementptr inbounds %"class.libparest::ParallelControl::SystemInfo", %"class.libparest::ParallelControl::SystemInfo"* %this1, i32 0, i32 2, !dbg !3876
  store double -1.000000e+00, double* %load_per_cpu, align 8, !dbg !3876
  ret void, !dbg !3877

lpad:                                             ; preds = %entry
  %0 = landingpad { i8*, i32 }
          cleanup, !dbg !3877
  %1 = extractvalue { i8*, i32 } %0, 0, !dbg !3877
  store i8* %1, i8** %exn.slot, align 8, !dbg !3877
  %2 = extractvalue { i8*, i32 } %0, 1, !dbg !3877
  store i32 %2, i32* %ehselector.slot, align 4, !dbg !3877
  call void @_ZNSaIcED1Ev(%"class.std::allocator"* %ref.tmp) #4, !dbg !3874
  br label %eh.resume, !dbg !3874

eh.resume:                                        ; preds = %lpad
  %exn = load i8*, i8** %exn.slot, align 8, !dbg !3874
  %sel = load i32, i32* %ehselector.slot, align 4, !dbg !3874
  %lpad.val = insertvalue { i8*, i32 } undef, i8* %exn, 0, !dbg !3874
  %lpad.val2 = insertvalue { i8*, i32 } %lpad.val, i32 %sel, 1, !dbg !3874
  resume { i8*, i32 } %lpad.val2, !dbg !3874
}

; Function Attrs: nounwind readnone speculatable willreturn
declare void @llvm.dbg.declare(metadata, metadata, metadata) #5

; Function Attrs: nounwind
declare dso_local void @_ZNSaIcEC1Ev(%"class.std::allocator"*) unnamed_addr #3

declare dso_local void @_ZNSt7__cxx1112basic_stringIcSt11char_traitsIcESaIcEEC1EPKcRKS3_(%"class.std::__cxx11::basic_string"*, i8*, %"class.std::allocator"* dereferenceable(1)) unnamed_addr #2

declare dso_local i32 @__gxx_personality_v0(...)

; Function Attrs: nounwind
declare dso_local void @_ZNSaIcED1Ev(%"class.std::allocator"*) unnamed_addr #3

; Function Attrs: noinline uwtable
define dso_local void @_ZN9libparest15ParallelControl10SystemInfo10initializeEv(%"class.libparest::ParallelControl::SystemInfo"* %this) #0 align 2 !dbg !3878 {
entry:
  %this.addr = alloca %"class.libparest::ParallelControl::SystemInfo"*, align 8
  %ref.tmp = alloca %"class.std::__cxx11::basic_string", align 8
  store %"class.libparest::ParallelControl::SystemInfo"* %this, %"class.libparest::ParallelControl::SystemInfo"** %this.addr, align 8
  call void @llvm.dbg.declare(metadata %"class.libparest::ParallelControl::SystemInfo"** %this.addr, metadata !3879, metadata !DIExpression()), !dbg !3880
  %this1 = load %"class.libparest::ParallelControl::SystemInfo"*, %"class.libparest::ParallelControl::SystemInfo"** %this.addr, align 8
  call void @_ZN6dealii9Utilities6System12get_hostnameB5cxx11Ev(%"class.std::__cxx11::basic_string"* sret %ref.tmp), !dbg !3881
  %hostname = getelementptr inbounds %"class.libparest::ParallelControl::SystemInfo", %"class.libparest::ParallelControl::SystemInfo"* %this1, i32 0, i32 0, !dbg !3882
  %call = call dereferenceable(32) %"class.std::__cxx11::basic_string"* @_ZNSt7__cxx1112basic_stringIcSt11char_traitsIcESaIcEEaSEOS4_(%"class.std::__cxx11::basic_string"* %hostname, %"class.std::__cxx11::basic_string"* dereferenceable(32) %ref.tmp) #4, !dbg !3883
  call void @_ZNSt7__cxx1112basic_stringIcSt11char_traitsIcESaIcEED1Ev(%"class.std::__cxx11::basic_string"* %ref.tmp) #4, !dbg !3882
  %0 = load i32, i32* getelementptr inbounds (%"class.dealii::MultithreadInfo", %"class.dealii::MultithreadInfo"* @_ZN6dealii16multithread_infoE, i32 0, i32 0), align 4, !dbg !3884
  %n_cpus = getelementptr inbounds %"class.libparest::ParallelControl::SystemInfo", %"class.libparest::ParallelControl::SystemInfo"* %this1, i32 0, i32 1, !dbg !3885
  store i32 %0, i32* %n_cpus, align 8, !dbg !3886
  %call2 = call double @_ZN6dealii9Utilities6System12get_cpu_loadEv(), !dbg !3887
  %n_cpus3 = getelementptr inbounds %"class.libparest::ParallelControl::SystemInfo", %"class.libparest::ParallelControl::SystemInfo"* %this1, i32 0, i32 1, !dbg !3888
  %1 = load i32, i32* %n_cpus3, align 8, !dbg !3888
  %conv = uitofp i32 %1 to double, !dbg !3888
  %div = fdiv double %call2, %conv, !dbg !3889
  %load_per_cpu = getelementptr inbounds %"class.libparest::ParallelControl::SystemInfo", %"class.libparest::ParallelControl::SystemInfo"* %this1, i32 0, i32 2, !dbg !3890
  store double %div, double* %load_per_cpu, align 8, !dbg !3891
  ret void, !dbg !3892
}

declare dso_local void @_ZN6dealii9Utilities6System12get_hostnameB5cxx11Ev(%"class.std::__cxx11::basic_string"* sret) #2

; Function Attrs: nounwind
declare dso_local dereferenceable(32) %"class.std::__cxx11::basic_string"* @_ZNSt7__cxx1112basic_stringIcSt11char_traitsIcESaIcEEaSEOS4_(%"class.std::__cxx11::basic_string"*, %"class.std::__cxx11::basic_string"* dereferenceable(32)) #3

; Function Attrs: nounwind
declare dso_local void @_ZNSt7__cxx1112basic_stringIcSt11char_traitsIcESaIcEED1Ev(%"class.std::__cxx11::basic_string"*) unnamed_addr #3

declare dso_local double @_ZN6dealii9Utilities6System12get_cpu_loadEv() #2

; Function Attrs: noinline uwtable
define dso_local void @_ZNK9libparest15ParallelControl10SystemInfo14copy_to_stringB5cxx11Ev(%"class.std::__cxx11::basic_string"* noalias sret %agg.result, %"class.libparest::ParallelControl::SystemInfo"* %this) #0 align 2 personality i8* bitcast (i32 (...)* @__gxx_personality_v0 to i8*) !dbg !3893 {
entry:
  %result.ptr = alloca i8*, align 8
  %this.addr = alloca %"class.libparest::ParallelControl::SystemInfo"*, align 8
  %s = alloca %"class.std::__cxx11::basic_ostringstream", align 8
  %exn.slot = alloca i8*
  %ehselector.slot = alloca i32
  %0 = bitcast %"class.std::__cxx11::basic_string"* %agg.result to i8*
  store i8* %0, i8** %result.ptr, align 8
  store %"class.libparest::ParallelControl::SystemInfo"* %this, %"class.libparest::ParallelControl::SystemInfo"** %this.addr, align 8
  call void @llvm.dbg.declare(metadata %"class.libparest::ParallelControl::SystemInfo"** %this.addr, metadata !3894, metadata !DIExpression()), !dbg !3895
  %this1 = load %"class.libparest::ParallelControl::SystemInfo"*, %"class.libparest::ParallelControl::SystemInfo"** %this.addr, align 8
  call void @llvm.dbg.declare(metadata %"class.std::__cxx11::basic_ostringstream"* %s, metadata !3896, metadata !DIExpression()), !dbg !3897
  call void @_ZNSt7__cxx1119basic_ostringstreamIcSt11char_traitsIcESaIcEEC1Ev(%"class.std::__cxx11::basic_ostringstream"* %s), !dbg !3897
  %1 = bitcast %"class.std::__cxx11::basic_ostringstream"* %s to %"class.std::basic_ostream"*, !dbg !3898
  %hostname = getelementptr inbounds %"class.libparest::ParallelControl::SystemInfo", %"class.libparest::ParallelControl::SystemInfo"* %this1, i32 0, i32 0, !dbg !3899
  %call = invoke dereferenceable(272) %"class.std::basic_ostream"* @_ZStlsIcSt11char_traitsIcESaIcEERSt13basic_ostreamIT_T0_ES7_RKNSt7__cxx1112basic_stringIS4_S5_T1_EE(%"class.std::basic_ostream"* dereferenceable(272) %1, %"class.std::__cxx11::basic_string"* dereferenceable(32) %hostname)
          to label %invoke.cont unwind label %lpad, !dbg !3900

invoke.cont:                                      ; preds = %entry
  %call3 = invoke dereferenceable(272) %"class.std::basic_ostream"* @_ZStlsISt11char_traitsIcEERSt13basic_ostreamIcT_ES5_PKc(%"class.std::basic_ostream"* dereferenceable(272) %call, i8* getelementptr inbounds ([2 x i8], [2 x i8]* @.str.11, i64 0, i64 0))
          to label %invoke.cont2 unwind label %lpad, !dbg !3901

invoke.cont2:                                     ; preds = %invoke.cont
  %n_cpus = getelementptr inbounds %"class.libparest::ParallelControl::SystemInfo", %"class.libparest::ParallelControl::SystemInfo"* %this1, i32 0, i32 1, !dbg !3902
  %2 = load i32, i32* %n_cpus, align 8, !dbg !3902
  %call5 = invoke dereferenceable(272) %"class.std::basic_ostream"* @_ZNSolsEj(%"class.std::basic_ostream"* %call3, i32 %2)
          to label %invoke.cont4 unwind label %lpad, !dbg !3903

invoke.cont4:                                     ; preds = %invoke.cont2
  %call7 = invoke dereferenceable(272) %"class.std::basic_ostream"* @_ZStlsISt11char_traitsIcEERSt13basic_ostreamIcT_ES5_PKc(%"class.std::basic_ostream"* dereferenceable(272) %call5, i8* getelementptr inbounds ([2 x i8], [2 x i8]* @.str.11, i64 0, i64 0))
          to label %invoke.cont6 unwind label %lpad, !dbg !3904

invoke.cont6:                                     ; preds = %invoke.cont4
  %load_per_cpu = getelementptr inbounds %"class.libparest::ParallelControl::SystemInfo", %"class.libparest::ParallelControl::SystemInfo"* %this1, i32 0, i32 2, !dbg !3905
  %3 = load double, double* %load_per_cpu, align 8, !dbg !3905
  %call9 = invoke dereferenceable(272) %"class.std::basic_ostream"* @_ZNSolsEd(%"class.std::basic_ostream"* %call7, double %3)
          to label %invoke.cont8 unwind label %lpad, !dbg !3906

invoke.cont8:                                     ; preds = %invoke.cont6
  invoke void @_ZNKSt7__cxx1119basic_ostringstreamIcSt11char_traitsIcESaIcEE3strEv(%"class.std::__cxx11::basic_string"* sret %agg.result, %"class.std::__cxx11::basic_ostringstream"* %s)
          to label %invoke.cont10 unwind label %lpad, !dbg !3907

invoke.cont10:                                    ; preds = %invoke.cont8
  call void @_ZNSt7__cxx1119basic_ostringstreamIcSt11char_traitsIcESaIcEED1Ev(%"class.std::__cxx11::basic_ostringstream"* %s) #4, !dbg !3908
  ret void, !dbg !3908

lpad:                                             ; preds = %invoke.cont8, %invoke.cont6, %invoke.cont4, %invoke.cont2, %invoke.cont, %entry
  %4 = landingpad { i8*, i32 }
          cleanup, !dbg !3908
  %5 = extractvalue { i8*, i32 } %4, 0, !dbg !3908
  store i8* %5, i8** %exn.slot, align 8, !dbg !3908
  %6 = extractvalue { i8*, i32 } %4, 1, !dbg !3908
  store i32 %6, i32* %ehselector.slot, align 4, !dbg !3908
  call void @_ZNSt7__cxx1119basic_ostringstreamIcSt11char_traitsIcESaIcEED1Ev(%"class.std::__cxx11::basic_ostringstream"* %s) #4, !dbg !3908
  br label %eh.resume, !dbg !3908

eh.resume:                                        ; preds = %lpad
  %exn = load i8*, i8** %exn.slot, align 8, !dbg !3908
  %sel = load i32, i32* %ehselector.slot, align 4, !dbg !3908
  %lpad.val = insertvalue { i8*, i32 } undef, i8* %exn, 0, !dbg !3908
  %lpad.val11 = insertvalue { i8*, i32 } %lpad.val, i32 %sel, 1, !dbg !3908
  resume { i8*, i32 } %lpad.val11, !dbg !3908
}

declare dso_local dereferenceable(272) %"class.std::basic_ostream"* @_ZStlsISt11char_traitsIcEERSt13basic_ostreamIcT_ES5_PKc(%"class.std::basic_ostream"* dereferenceable(272), i8*) #2

declare dso_local dereferenceable(272) %"class.std::basic_ostream"* @_ZStlsIcSt11char_traitsIcESaIcEERSt13basic_ostreamIT_T0_ES7_RKNSt7__cxx1112basic_stringIS4_S5_T1_EE(%"class.std::basic_ostream"* dereferenceable(272), %"class.std::__cxx11::basic_string"* dereferenceable(32)) #2

declare dso_local dereferenceable(272) %"class.std::basic_ostream"* @_ZNSolsEj(%"class.std::basic_ostream"*, i32) #2

declare dso_local dereferenceable(272) %"class.std::basic_ostream"* @_ZNSolsEd(%"class.std::basic_ostream"*, double) #2

declare dso_local void @_ZNKSt7__cxx1119basic_ostringstreamIcSt11char_traitsIcESaIcEE3strEv(%"class.std::__cxx11::basic_string"* sret, %"class.std::__cxx11::basic_ostringstream"*) #2

; Function Attrs: noinline uwtable
define dso_local void @_ZN9libparest15ParallelControl10SystemInfo16copy_from_stringERKNSt7__cxx1112basic_stringIcSt11char_traitsIcESaIcEEE(%"class.libparest::ParallelControl::SystemInfo"* %this, %"class.std::__cxx11::basic_string"* dereferenceable(32) %in) #0 align 2 personality i8* bitcast (i32 (...)* @__gxx_personality_v0 to i8*) !dbg !3909 {
entry:
  %this.addr = alloca %"class.libparest::ParallelControl::SystemInfo"*, align 8
  %in.addr = alloca %"class.std::__cxx11::basic_string"*, align 8
  %i = alloca %"class.std::__cxx11::basic_istringstream", align 8
  %ref.tmp = alloca %"class.std::__cxx11::basic_string", align 8
  %ref.tmp2 = alloca %"class.std::allocator", align 1
  %exn.slot = alloca i8*
  %ehselector.slot = alloca i32
  store %"class.libparest::ParallelControl::SystemInfo"* %this, %"class.libparest::ParallelControl::SystemInfo"** %this.addr, align 8
  call void @llvm.dbg.declare(metadata %"class.libparest::ParallelControl::SystemInfo"** %this.addr, metadata !3910, metadata !DIExpression()), !dbg !3911
  store %"class.std::__cxx11::basic_string"* %in, %"class.std::__cxx11::basic_string"** %in.addr, align 8
  call void @llvm.dbg.declare(metadata %"class.std::__cxx11::basic_string"** %in.addr, metadata !3912, metadata !DIExpression()), !dbg !3913
  %this1 = load %"class.libparest::ParallelControl::SystemInfo"*, %"class.libparest::ParallelControl::SystemInfo"** %this.addr, align 8
  call void @llvm.dbg.declare(metadata %"class.std::__cxx11::basic_istringstream"* %i, metadata !3914, metadata !DIExpression()), !dbg !3917
  %0 = load %"class.std::__cxx11::basic_string"*, %"class.std::__cxx11::basic_string"** %in.addr, align 8, !dbg !3918
  %call = call i8* @_ZNKSt7__cxx1112basic_stringIcSt11char_traitsIcESaIcEE5c_strEv(%"class.std::__cxx11::basic_string"* %0) #4, !dbg !3919
  call void @_ZNSaIcEC1Ev(%"class.std::allocator"* %ref.tmp2) #4, !dbg !3918
  invoke void @_ZNSt7__cxx1112basic_stringIcSt11char_traitsIcESaIcEEC1EPKcRKS3_(%"class.std::__cxx11::basic_string"* %ref.tmp, i8* %call, %"class.std::allocator"* dereferenceable(1) %ref.tmp2)
          to label %invoke.cont unwind label %lpad, !dbg !3918

invoke.cont:                                      ; preds = %entry
  invoke void @_ZNSt7__cxx1119basic_istringstreamIcSt11char_traitsIcESaIcEEC1ERKNS_12basic_stringIcS2_S3_EESt13_Ios_Openmode(%"class.std::__cxx11::basic_istringstream"* %i, %"class.std::__cxx11::basic_string"* dereferenceable(32) %ref.tmp, i32 8)
          to label %invoke.cont4 unwind label %lpad3, !dbg !3917

invoke.cont4:                                     ; preds = %invoke.cont
  call void @_ZNSt7__cxx1112basic_stringIcSt11char_traitsIcESaIcEED1Ev(%"class.std::__cxx11::basic_string"* %ref.tmp) #4, !dbg !3917
  call void @_ZNSaIcED1Ev(%"class.std::allocator"* %ref.tmp2) #4, !dbg !3917
  %1 = bitcast %"class.std::__cxx11::basic_istringstream"* %i to %"class.std::basic_istream"*, !dbg !3920
  %hostname = getelementptr inbounds %"class.libparest::ParallelControl::SystemInfo", %"class.libparest::ParallelControl::SystemInfo"* %this1, i32 0, i32 0, !dbg !3921
  %call7 = invoke dereferenceable(280) %"class.std::basic_istream"* @_ZStrsIcSt11char_traitsIcESaIcEERSt13basic_istreamIT_T0_ES7_RNSt7__cxx1112basic_stringIS4_S5_T1_EE(%"class.std::basic_istream"* dereferenceable(280) %1, %"class.std::__cxx11::basic_string"* dereferenceable(32) %hostname)
          to label %invoke.cont6 unwind label %lpad5, !dbg !3922

invoke.cont6:                                     ; preds = %invoke.cont4
  %2 = bitcast %"class.std::__cxx11::basic_istringstream"* %i to %"class.std::basic_istream"*, !dbg !3923
  %n_cpus = getelementptr inbounds %"class.libparest::ParallelControl::SystemInfo", %"class.libparest::ParallelControl::SystemInfo"* %this1, i32 0, i32 1, !dbg !3924
  %call9 = invoke dereferenceable(280) %"class.std::basic_istream"* @_ZNSirsERj(%"class.std::basic_istream"* %2, i32* dereferenceable(4) %n_cpus)
          to label %invoke.cont8 unwind label %lpad5, !dbg !3925

invoke.cont8:                                     ; preds = %invoke.cont6
  %3 = bitcast %"class.std::__cxx11::basic_istringstream"* %i to %"class.std::basic_istream"*, !dbg !3926
  %load_per_cpu = getelementptr inbounds %"class.libparest::ParallelControl::SystemInfo", %"class.libparest::ParallelControl::SystemInfo"* %this1, i32 0, i32 2, !dbg !3927
  %call11 = invoke dereferenceable(280) %"class.std::basic_istream"* @_ZNSirsERd(%"class.std::basic_istream"* %3, double* dereferenceable(8) %load_per_cpu)
          to label %invoke.cont10 unwind label %lpad5, !dbg !3928

invoke.cont10:                                    ; preds = %invoke.cont8
  call void @_ZNSt7__cxx1119basic_istringstreamIcSt11char_traitsIcESaIcEED1Ev(%"class.std::__cxx11::basic_istringstream"* %i) #4, !dbg !3929
  ret void, !dbg !3929

lpad:                                             ; preds = %entry
  %4 = landingpad { i8*, i32 }
          cleanup, !dbg !3929
  %5 = extractvalue { i8*, i32 } %4, 0, !dbg !3929
  store i8* %5, i8** %exn.slot, align 8, !dbg !3929
  %6 = extractvalue { i8*, i32 } %4, 1, !dbg !3929
  store i32 %6, i32* %ehselector.slot, align 4, !dbg !3929
  br label %ehcleanup, !dbg !3929

lpad3:                                            ; preds = %invoke.cont
  %7 = landingpad { i8*, i32 }
          cleanup, !dbg !3929
  %8 = extractvalue { i8*, i32 } %7, 0, !dbg !3929
  store i8* %8, i8** %exn.slot, align 8, !dbg !3929
  %9 = extractvalue { i8*, i32 } %7, 1, !dbg !3929
  store i32 %9, i32* %ehselector.slot, align 4, !dbg !3929
  call void @_ZNSt7__cxx1112basic_stringIcSt11char_traitsIcESaIcEED1Ev(%"class.std::__cxx11::basic_string"* %ref.tmp) #4, !dbg !3917
  br label %ehcleanup, !dbg !3917

ehcleanup:                                        ; preds = %lpad3, %lpad
  call void @_ZNSaIcED1Ev(%"class.std::allocator"* %ref.tmp2) #4, !dbg !3917
  br label %eh.resume, !dbg !3917

lpad5:                                            ; preds = %invoke.cont8, %invoke.cont6, %invoke.cont4
  %10 = landingpad { i8*, i32 }
          cleanup, !dbg !3929
  %11 = extractvalue { i8*, i32 } %10, 0, !dbg !3929
  store i8* %11, i8** %exn.slot, align 8, !dbg !3929
  %12 = extractvalue { i8*, i32 } %10, 1, !dbg !3929
  store i32 %12, i32* %ehselector.slot, align 4, !dbg !3929
  call void @_ZNSt7__cxx1119basic_istringstreamIcSt11char_traitsIcESaIcEED1Ev(%"class.std::__cxx11::basic_istringstream"* %i) #4, !dbg !3929
  br label %eh.resume, !dbg !3929

eh.resume:                                        ; preds = %lpad5, %ehcleanup
  %exn = load i8*, i8** %exn.slot, align 8, !dbg !3917
  %sel = load i32, i32* %ehselector.slot, align 4, !dbg !3917
  %lpad.val = insertvalue { i8*, i32 } undef, i8* %exn, 0, !dbg !3917
  %lpad.val13 = insertvalue { i8*, i32 } %lpad.val, i32 %sel, 1, !dbg !3917
  resume { i8*, i32 } %lpad.val13, !dbg !3917
}

; Function Attrs: nounwind
declare dso_local i8* @_ZNKSt7__cxx1112basic_stringIcSt11char_traitsIcESaIcEE5c_strEv(%"class.std::__cxx11::basic_string"*) #3

declare dso_local void @_ZNSt7__cxx1119basic_istringstreamIcSt11char_traitsIcESaIcEEC1ERKNS_12basic_stringIcS2_S3_EESt13_Ios_Openmode(%"class.std::__cxx11::basic_istringstream"*, %"class.std::__cxx11::basic_string"* dereferenceable(32), i32) unnamed_addr #2

declare dso_local dereferenceable(280) %"class.std::basic_istream"* @_ZStrsIcSt11char_traitsIcESaIcEERSt13basic_istreamIT_T0_ES7_RNSt7__cxx1112basic_stringIS4_S5_T1_EE(%"class.std::basic_istream"* dereferenceable(280), %"class.std::__cxx11::basic_string"* dereferenceable(32)) #2

declare dso_local dereferenceable(280) %"class.std::basic_istream"* @_ZNSirsERj(%"class.std::basic_istream"*, i32* dereferenceable(4)) #2

declare dso_local dereferenceable(280) %"class.std::basic_istream"* @_ZNSirsERd(%"class.std::basic_istream"*, double* dereferenceable(8)) #2

; Function Attrs: nounwind
declare dso_local void @_ZNSt7__cxx1119basic_istringstreamIcSt11char_traitsIcESaIcEED1Ev(%"class.std::__cxx11::basic_istringstream"*) unnamed_addr #3

; Function Attrs: noinline nounwind uwtable
define dso_local void @_ZN9libparest15ParallelControl4BaseD2Ev(%"class.libparest::ParallelControl::Base"* %this) unnamed_addr #1 align 2 !dbg !3930 {
entry:
  %this.addr = alloca %"class.libparest::ParallelControl::Base"*, align 8
  store %"class.libparest::ParallelControl::Base"* %this, %"class.libparest::ParallelControl::Base"** %this.addr, align 8
  call void @llvm.dbg.declare(metadata %"class.libparest::ParallelControl::Base"** %this.addr, metadata !3931, metadata !DIExpression()), !dbg !3933
  %this1 = load %"class.libparest::ParallelControl::Base"*, %"class.libparest::ParallelControl::Base"** %this.addr, align 8
  %0 = bitcast %"class.libparest::ParallelControl::Base"* %this1 to i8*, !dbg !3934
  %1 = getelementptr inbounds i8, i8* %0, i64 8, !dbg !3934
  %2 = bitcast i8* %1 to %"struct.libparest::ParallelControl::Data"*, !dbg !3934
  call void @_ZN9libparest15ParallelControl4DataD2Ev(%"struct.libparest::ParallelControl::Data"* %2) #4, !dbg !3934
  ret void, !dbg !3936
}

; Function Attrs: noinline nounwind uwtable
define linkonce_odr dso_local void @_ZN9libparest15ParallelControl4DataD2Ev(%"struct.libparest::ParallelControl::Data"* %this) unnamed_addr #1 comdat align 2 !dbg !3937 {
entry:
  %this.addr = alloca %"struct.libparest::ParallelControl::Data"*, align 8
  store %"struct.libparest::ParallelControl::Data"* %this, %"struct.libparest::ParallelControl::Data"** %this.addr, align 8
  call void @llvm.dbg.declare(metadata %"struct.libparest::ParallelControl::Data"** %this.addr, metadata !3942, metadata !DIExpression()), !dbg !3944
  %this1 = load %"struct.libparest::ParallelControl::Data"*, %"struct.libparest::ParallelControl::Data"** %this.addr, align 8
  %host_info = getelementptr inbounds %"struct.libparest::ParallelControl::Data", %"struct.libparest::ParallelControl::Data"* %this1, i32 0, i32 10, !dbg !3945
  call void @_ZNSt6vectorIN9libparest15ParallelControl10SystemInfoESaIS2_EED2Ev(%"class.std::vector.27"* %host_info) #4, !dbg !3945
  %process_has_slave = getelementptr inbounds %"struct.libparest::ParallelControl::Data", %"struct.libparest::ParallelControl::Data"* %this1, i32 0, i32 9, !dbg !3945
  call void @_ZNSt6vectorISt3setIjSt4lessIjESaIjEESaIS4_EED2Ev(%"class.std::vector.19"* %process_has_slave) #4, !dbg !3945
  %slave_on_process = getelementptr inbounds %"struct.libparest::ParallelControl::Data", %"struct.libparest::ParallelControl::Data"* %this1, i32 0, i32 8, !dbg !3945
  call void @_ZNSt6vectorIjSaIjEED2Ev(%"class.std::vector"* %slave_on_process) #4, !dbg !3945
  ret void, !dbg !3947
}

; Function Attrs: noinline nounwind uwtable
define dso_local void @_ZN9libparest15ParallelControl4BaseD0Ev(%"class.libparest::ParallelControl::Base"* %this) unnamed_addr #1 align 2 !dbg !3948 {
entry:
  %this.addr = alloca %"class.libparest::ParallelControl::Base"*, align 8
  store %"class.libparest::ParallelControl::Base"* %this, %"class.libparest::ParallelControl::Base"** %this.addr, align 8
  call void @llvm.dbg.declare(metadata %"class.libparest::ParallelControl::Base"** %this.addr, metadata !3949, metadata !DIExpression()), !dbg !3950
  %this1 = load %"class.libparest::ParallelControl::Base"*, %"class.libparest::ParallelControl::Base"** %this.addr, align 8
  call void @llvm.trap() #13, !dbg !3951
  unreachable, !dbg !3951
}

; Function Attrs: cold noreturn nounwind
declare void @llvm.trap() #6

; Function Attrs: noinline nounwind uwtable
define dso_local zeroext i1 @_ZNK9libparest15ParallelControl4Base17is_master_processEv(%"class.libparest::ParallelControl::Base"* %this) #1 align 2 !dbg !3952 {
entry:
  %this.addr = alloca %"class.libparest::ParallelControl::Base"*, align 8
  store %"class.libparest::ParallelControl::Base"* %this, %"class.libparest::ParallelControl::Base"** %this.addr, align 8
  call void @llvm.dbg.declare(metadata %"class.libparest::ParallelControl::Base"** %this.addr, metadata !3953, metadata !DIExpression()), !dbg !3955
  %this1 = load %"class.libparest::ParallelControl::Base"*, %"class.libparest::ParallelControl::Base"** %this.addr, align 8
  %0 = bitcast %"class.libparest::ParallelControl::Base"* %this1 to i8*, !dbg !3956
  %add.ptr = getelementptr inbounds i8, i8* %0, i64 8, !dbg !3956
  %1 = bitcast i8* %add.ptr to %"struct.libparest::ParallelControl::Data"*, !dbg !3956
  %world_rank = getelementptr inbounds %"struct.libparest::ParallelControl::Data", %"struct.libparest::ParallelControl::Data"* %1, i32 0, i32 0, !dbg !3956
  %2 = load i32, i32* %world_rank, align 8, !dbg !3956
  %3 = bitcast %"class.libparest::ParallelControl::Base"* %this1 to i8*, !dbg !3957
  %add.ptr2 = getelementptr inbounds i8, i8* %3, i64 8, !dbg !3957
  %4 = bitcast i8* %add.ptr2 to %"struct.libparest::ParallelControl::Data"*, !dbg !3957
  %world_master_rank = getelementptr inbounds %"struct.libparest::ParallelControl::Data", %"struct.libparest::ParallelControl::Data"* %4, i32 0, i32 1, !dbg !3957
  %5 = load i32, i32* %world_master_rank, align 4, !dbg !3957
  %cmp = icmp eq i32 %2, %5, !dbg !3958
  ret i1 %cmp, !dbg !3959
}

; Function Attrs: noinline nounwind uwtable
define dso_local zeroext i1 @_ZNK9libparest15ParallelControl4Base22is_message_log_processEv(%"class.libparest::ParallelControl::Base"* %this) #1 align 2 !dbg !3960 {
entry:
  %this.addr = alloca %"class.libparest::ParallelControl::Base"*, align 8
  store %"class.libparest::ParallelControl::Base"* %this, %"class.libparest::ParallelControl::Base"** %this.addr, align 8
  call void @llvm.dbg.declare(metadata %"class.libparest::ParallelControl::Base"** %this.addr, metadata !3961, metadata !DIExpression()), !dbg !3962
  %this1 = load %"class.libparest::ParallelControl::Base"*, %"class.libparest::ParallelControl::Base"** %this.addr, align 8
  %0 = bitcast %"class.libparest::ParallelControl::Base"* %this1 to i8*, !dbg !3963
  %add.ptr = getelementptr inbounds i8, i8* %0, i64 8, !dbg !3963
  %1 = bitcast i8* %add.ptr to %"struct.libparest::ParallelControl::Data"*, !dbg !3963
  %world_rank = getelementptr inbounds %"struct.libparest::ParallelControl::Data", %"struct.libparest::ParallelControl::Data"* %1, i32 0, i32 0, !dbg !3963
  %2 = load i32, i32* %world_rank, align 8, !dbg !3963
  %3 = bitcast %"class.libparest::ParallelControl::Base"* %this1 to i8*, !dbg !3964
  %add.ptr2 = getelementptr inbounds i8, i8* %3, i64 8, !dbg !3964
  %4 = bitcast i8* %add.ptr2 to %"struct.libparest::ParallelControl::Data"*, !dbg !3964
  %world_message_log_rank = getelementptr inbounds %"struct.libparest::ParallelControl::Data", %"struct.libparest::ParallelControl::Data"* %4, i32 0, i32 2, !dbg !3964
  %5 = load i32, i32* %world_message_log_rank, align 8, !dbg !3964
  %cmp = icmp eq i32 %2, %5, !dbg !3965
  ret i1 %cmp, !dbg !3966
}

; Function Attrs: noinline nounwind uwtable
define dso_local void @_ZN9libparest15ParallelControl5Local7ControlC2Ev(%"class.libparest::ParallelControl::Local::Control"* %this) unnamed_addr #1 align 2 !dbg !3967 {
entry:
  %this.addr = alloca %"class.libparest::ParallelControl::Local::Control"*, align 8
  store %"class.libparest::ParallelControl::Local::Control"* %this, %"class.libparest::ParallelControl::Local::Control"** %this.addr, align 8
  call void @llvm.dbg.declare(metadata %"class.libparest::ParallelControl::Local::Control"** %this.addr, metadata !3968, metadata !DIExpression()), !dbg !3970
  %this1 = load %"class.libparest::ParallelControl::Local::Control"*, %"class.libparest::ParallelControl::Local::Control"** %this.addr, align 8
  %0 = bitcast %"class.libparest::ParallelControl::Local::Control"* %this1 to %"class.libparest::ParallelControl::Base"*, !dbg !3971
  call void @_ZN9libparest15ParallelControl4BaseC2Ev(%"class.libparest::ParallelControl::Base"* %0) #4, !dbg !3972
  %1 = bitcast %"class.libparest::ParallelControl::Local::Control"* %this1 to i32 (...)***, !dbg !3971
  store i32 (...)** bitcast (i8** getelementptr inbounds ({ [7 x i8*] }, { [7 x i8*] }* @_ZTVN9libparest15ParallelControl5Local7ControlE, i32 0, inrange i32 0, i32 2) to i32 (...)**), i32 (...)*** %1, align 8, !dbg !3971
  %2 = bitcast %"class.libparest::ParallelControl::Local::Control"* %this1 to i8*, !dbg !3973
  %add.ptr = getelementptr inbounds i8, i8* %2, i64 8, !dbg !3973
  %3 = bitcast i8* %add.ptr to %"struct.libparest::ParallelControl::Data"*, !dbg !3973
  %world_master_rank = getelementptr inbounds %"struct.libparest::ParallelControl::Data", %"struct.libparest::ParallelControl::Data"* %3, i32 0, i32 1, !dbg !3973
  store i32 0, i32* %world_master_rank, align 4, !dbg !3975
  %4 = bitcast %"class.libparest::ParallelControl::Local::Control"* %this1 to i8*, !dbg !3976
  %add.ptr2 = getelementptr inbounds i8, i8* %4, i64 8, !dbg !3976
  %5 = bitcast i8* %add.ptr2 to %"struct.libparest::ParallelControl::Data"*, !dbg !3976
  %world_rank = getelementptr inbounds %"struct.libparest::ParallelControl::Data", %"struct.libparest::ParallelControl::Data"* %5, i32 0, i32 0, !dbg !3976
  store i32 0, i32* %world_rank, align 8, !dbg !3977
  %6 = bitcast %"class.libparest::ParallelControl::Local::Control"* %this1 to i8*, !dbg !3978
  %add.ptr3 = getelementptr inbounds i8, i8* %6, i64 8, !dbg !3978
  %7 = bitcast i8* %add.ptr3 to %"struct.libparest::ParallelControl::Data"*, !dbg !3978
  %world_message_log_rank = getelementptr inbounds %"struct.libparest::ParallelControl::Data", %"struct.libparest::ParallelControl::Data"* %7, i32 0, i32 2, !dbg !3978
  store i32 -1, i32* %world_message_log_rank, align 8, !dbg !3979
  %8 = bitcast %"class.libparest::ParallelControl::Local::Control"* %this1 to i8*, !dbg !3980
  %add.ptr4 = getelementptr inbounds i8, i8* %8, i64 8, !dbg !3980
  %9 = bitcast i8* %add.ptr4 to %"struct.libparest::ParallelControl::Data"*, !dbg !3980
  %n_world_processes = getelementptr inbounds %"struct.libparest::ParallelControl::Data", %"struct.libparest::ParallelControl::Data"* %9, i32 0, i32 5, !dbg !3980
  store i32 1, i32* %n_world_processes, align 4, !dbg !3981
  %10 = bitcast %"class.libparest::ParallelControl::Local::Control"* %this1 to i8*, !dbg !3982
  %add.ptr5 = getelementptr inbounds i8, i8* %10, i64 8, !dbg !3982
  %11 = bitcast i8* %add.ptr5 to %"struct.libparest::ParallelControl::Data"*, !dbg !3982
  %n_external_slaves = getelementptr inbounds %"struct.libparest::ParallelControl::Data", %"struct.libparest::ParallelControl::Data"* %11, i32 0, i32 7, !dbg !3982
  store i32 0, i32* %n_external_slaves, align 4, !dbg !3983
  ret void, !dbg !3984
}

; Function Attrs: noinline nounwind uwtable
define linkonce_odr dso_local void @_ZN9libparest15ParallelControl4BaseC2Ev(%"class.libparest::ParallelControl::Base"* %this) unnamed_addr #1 comdat align 2 !dbg !3985 {
entry:
  %this.addr = alloca %"class.libparest::ParallelControl::Base"*, align 8
  store %"class.libparest::ParallelControl::Base"* %this, %"class.libparest::ParallelControl::Base"** %this.addr, align 8
  call void @llvm.dbg.declare(metadata %"class.libparest::ParallelControl::Base"** %this.addr, metadata !3987, metadata !DIExpression()), !dbg !3988
  %this1 = load %"class.libparest::ParallelControl::Base"*, %"class.libparest::ParallelControl::Base"** %this.addr, align 8
  %0 = bitcast %"class.libparest::ParallelControl::Base"* %this1 to i8*, !dbg !3989
  %1 = getelementptr inbounds i8, i8* %0, i64 8, !dbg !3989
  %2 = bitcast i8* %1 to %"struct.libparest::ParallelControl::Data"*, !dbg !3989
  call void @_ZN9libparest15ParallelControl4DataC2Ev(%"struct.libparest::ParallelControl::Data"* %2) #4, !dbg !3989
  %3 = bitcast %"class.libparest::ParallelControl::Base"* %this1 to i32 (...)***, !dbg !3989
  store i32 (...)** bitcast (i8** getelementptr inbounds ({ [7 x i8*] }, { [7 x i8*] }* @_ZTVN9libparest15ParallelControl4BaseE, i32 0, inrange i32 0, i32 2) to i32 (...)**), i32 (...)*** %3, align 8, !dbg !3989
  ret void, !dbg !3989
}

; Function Attrs: noinline nounwind uwtable
define dso_local void @_ZN9libparest15ParallelControl5Local7ControlD2Ev(%"class.libparest::ParallelControl::Local::Control"* %this) unnamed_addr #1 align 2 !dbg !3990 {
entry:
  %this.addr = alloca %"class.libparest::ParallelControl::Local::Control"*, align 8
  store %"class.libparest::ParallelControl::Local::Control"* %this, %"class.libparest::ParallelControl::Local::Control"** %this.addr, align 8
  call void @llvm.dbg.declare(metadata %"class.libparest::ParallelControl::Local::Control"** %this.addr, metadata !3991, metadata !DIExpression()), !dbg !3992
  %this1 = load %"class.libparest::ParallelControl::Local::Control"*, %"class.libparest::ParallelControl::Local::Control"** %this.addr, align 8
  %0 = bitcast %"class.libparest::ParallelControl::Local::Control"* %this1 to %"class.libparest::ParallelControl::Base"*, !dbg !3993
  call void @_ZN9libparest15ParallelControl4BaseD2Ev(%"class.libparest::ParallelControl::Base"* %0) #4, !dbg !3993
  ret void, !dbg !3995
}

; Function Attrs: noinline nounwind uwtable
define dso_local void @_ZN9libparest15ParallelControl5Local7ControlD0Ev(%"class.libparest::ParallelControl::Local::Control"* %this) unnamed_addr #1 align 2 !dbg !3996 {
entry:
  %this.addr = alloca %"class.libparest::ParallelControl::Local::Control"*, align 8
  store %"class.libparest::ParallelControl::Local::Control"* %this, %"class.libparest::ParallelControl::Local::Control"** %this.addr, align 8
  call void @llvm.dbg.declare(metadata %"class.libparest::ParallelControl::Local::Control"** %this.addr, metadata !3997, metadata !DIExpression()), !dbg !3998
  %this1 = load %"class.libparest::ParallelControl::Local::Control"*, %"class.libparest::ParallelControl::Local::Control"** %this.addr, align 8
  call void @_ZN9libparest15ParallelControl5Local7ControlD1Ev(%"class.libparest::ParallelControl::Local::Control"* %this1) #4, !dbg !3999
  %0 = bitcast %"class.libparest::ParallelControl::Local::Control"* %this1 to i8*, !dbg !3999
  call void @_ZdlPv(i8* %0) #14, !dbg !3999
  ret void, !dbg !4000
}

; Function Attrs: nobuiltin nounwind
declare dso_local void @_ZdlPv(i8*) #7

; Function Attrs: noinline nounwind uwtable
define dso_local void @_ZN9libparest15ParallelControl5Local7Control14initialize_mpiERiRPPc(%"class.libparest::ParallelControl::Local::Control"* %this, i32* dereferenceable(4) %0, i8*** dereferenceable(8) %1) unnamed_addr #1 align 2 !dbg !4001 {
entry:
  %this.addr = alloca %"class.libparest::ParallelControl::Local::Control"*, align 8
  %.addr = alloca i32*, align 8
  %.addr1 = alloca i8***, align 8
  store %"class.libparest::ParallelControl::Local::Control"* %this, %"class.libparest::ParallelControl::Local::Control"** %this.addr, align 8
  call void @llvm.dbg.declare(metadata %"class.libparest::ParallelControl::Local::Control"** %this.addr, metadata !4002, metadata !DIExpression()), !dbg !4003
  store i32* %0, i32** %.addr, align 8
  call void @llvm.dbg.declare(metadata i32** %.addr, metadata !4004, metadata !DIExpression()), !dbg !4005
  store i8*** %1, i8**** %.addr1, align 8
  call void @llvm.dbg.declare(metadata i8**** %.addr1, metadata !4006, metadata !DIExpression()), !dbg !4007
  %this2 = load %"class.libparest::ParallelControl::Local::Control"*, %"class.libparest::ParallelControl::Local::Control"** %this.addr, align 8
  ret void, !dbg !4008
}

; Function Attrs: noinline uwtable
define dso_local void @_ZN9libparest15ParallelControl5Local7Control25setup_message_log_objectsERKNS_10MessageLog13ServerFactoryE(%"class.libparest::ParallelControl::Local::Control"* %this, %"class.libparest::MessageLog::ServerFactory"* dereferenceable(8) %factory) #0 align 2 !dbg !4009 {
entry:
  %this.addr = alloca %"class.libparest::ParallelControl::Local::Control"*, align 8
  %factory.addr = alloca %"class.libparest::MessageLog::ServerFactory"*, align 8
  store %"class.libparest::ParallelControl::Local::Control"* %this, %"class.libparest::ParallelControl::Local::Control"** %this.addr, align 8
  call void @llvm.dbg.declare(metadata %"class.libparest::ParallelControl::Local::Control"** %this.addr, metadata !4010, metadata !DIExpression()), !dbg !4011
  store %"class.libparest::MessageLog::ServerFactory"* %factory, %"class.libparest::MessageLog::ServerFactory"** %factory.addr, align 8
  call void @llvm.dbg.declare(metadata %"class.libparest::MessageLog::ServerFactory"** %factory.addr, metadata !4012, metadata !DIExpression()), !dbg !4013
  %this1 = load %"class.libparest::ParallelControl::Local::Control"*, %"class.libparest::ParallelControl::Local::Control"** %this.addr, align 8
  %0 = load %"class.libparest::MessageLog::ServerFactory"*, %"class.libparest::MessageLog::ServerFactory"** %factory.addr, align 8, !dbg !4014
  %1 = bitcast %"class.libparest::MessageLog::ServerFactory"* %0 to %"class.libparest::MessageLog::ServerBase"* (%"class.libparest::MessageLog::ServerFactory"*)***, !dbg !4015
  %vtable = load %"class.libparest::MessageLog::ServerBase"* (%"class.libparest::MessageLog::ServerFactory"*)**, %"class.libparest::MessageLog::ServerBase"* (%"class.libparest::MessageLog::ServerFactory"*)*** %1, align 8, !dbg !4015
  %vfn = getelementptr inbounds %"class.libparest::MessageLog::ServerBase"* (%"class.libparest::MessageLog::ServerFactory"*)*, %"class.libparest::MessageLog::ServerBase"* (%"class.libparest::MessageLog::ServerFactory"*)** %vtable, i64 2, !dbg !4015
  %2 = load %"class.libparest::MessageLog::ServerBase"* (%"class.libparest::MessageLog::ServerFactory"*)*, %"class.libparest::MessageLog::ServerBase"* (%"class.libparest::MessageLog::ServerFactory"*)** %vfn, align 8, !dbg !4015
  %call = call %"class.libparest::MessageLog::ServerBase"* %2(%"class.libparest::MessageLog::ServerFactory"* %0), !dbg !4015
  %3 = bitcast %"class.libparest::ParallelControl::Local::Control"* %this1 to i8*, !dbg !4016
  %add.ptr = getelementptr inbounds i8, i8* %3, i64 8, !dbg !4016
  %4 = bitcast i8* %add.ptr to %"struct.libparest::ParallelControl::Data"*, !dbg !4016
  %message_log_server = getelementptr inbounds %"struct.libparest::ParallelControl::Data", %"struct.libparest::ParallelControl::Data"* %4, i32 0, i32 11, !dbg !4016
  store %"class.libparest::MessageLog::ServerBase"* %call, %"class.libparest::MessageLog::ServerBase"** %message_log_server, align 8, !dbg !4017
  ret void, !dbg !4018
}

; Function Attrs: noinline uwtable
define dso_local void @_ZN9libparest15ParallelControl5Local7Control10initializeEj(%"class.libparest::ParallelControl::Local::Control"* %this, i32 %n_slaves) unnamed_addr #0 align 2 !dbg !4019 {
entry:
  %this.addr = alloca %"class.libparest::ParallelControl::Local::Control"*, align 8
  %n_slaves.addr = alloca i32, align 4
  %slave = alloca i32, align 4
  %slave6 = alloca i32, align 4
  %coerce = alloca %"struct.std::pair", align 8
  store %"class.libparest::ParallelControl::Local::Control"* %this, %"class.libparest::ParallelControl::Local::Control"** %this.addr, align 8
  call void @llvm.dbg.declare(metadata %"class.libparest::ParallelControl::Local::Control"** %this.addr, metadata !4022, metadata !DIExpression()), !dbg !4023
  store i32 %n_slaves, i32* %n_slaves.addr, align 4
  call void @llvm.dbg.declare(metadata i32* %n_slaves.addr, metadata !4024, metadata !DIExpression()), !dbg !4025
  %this1 = load %"class.libparest::ParallelControl::Local::Control"*, %"class.libparest::ParallelControl::Local::Control"** %this.addr, align 8
  %0 = bitcast %"class.libparest::ParallelControl::Local::Control"* %this1 to i8*, !dbg !4026
  %add.ptr = getelementptr inbounds i8, i8* %0, i64 8, !dbg !4026
  %1 = bitcast i8* %add.ptr to %"struct.libparest::ParallelControl::Data"*, !dbg !4026
  %slave_on_process = getelementptr inbounds %"struct.libparest::ParallelControl::Data", %"struct.libparest::ParallelControl::Data"* %1, i32 0, i32 8, !dbg !4026
  %2 = load i32, i32* %n_slaves.addr, align 4, !dbg !4027
  %conv = zext i32 %2 to i64, !dbg !4027
  call void @_ZNSt6vectorIjSaIjEE6resizeEm(%"class.std::vector"* %slave_on_process, i64 %conv), !dbg !4028
  call void @llvm.dbg.declare(metadata i32* %slave, metadata !4029, metadata !DIExpression()), !dbg !4031
  store i32 0, i32* %slave, align 4, !dbg !4031
  br label %for.cond, !dbg !4032

for.cond:                                         ; preds = %for.inc, %entry
  %3 = load i32, i32* %slave, align 4, !dbg !4033
  %4 = load i32, i32* %n_slaves.addr, align 4, !dbg !4035
  %cmp = icmp ult i32 %3, %4, !dbg !4036
  br i1 %cmp, label %for.body, label %for.end, !dbg !4037

for.body:                                         ; preds = %for.cond
  %5 = bitcast %"class.libparest::ParallelControl::Local::Control"* %this1 to i8*, !dbg !4038
  %add.ptr2 = getelementptr inbounds i8, i8* %5, i64 8, !dbg !4038
  %6 = bitcast i8* %add.ptr2 to %"struct.libparest::ParallelControl::Data"*, !dbg !4038
  %slave_on_process3 = getelementptr inbounds %"struct.libparest::ParallelControl::Data", %"struct.libparest::ParallelControl::Data"* %6, i32 0, i32 8, !dbg !4038
  %7 = load i32, i32* %slave, align 4, !dbg !4039
  %conv4 = zext i32 %7 to i64, !dbg !4039
  %call = call dereferenceable(4) i32* @_ZNSt6vectorIjSaIjEEixEm(%"class.std::vector"* %slave_on_process3, i64 %conv4) #4, !dbg !4038
  store i32 0, i32* %call, align 4, !dbg !4040
  br label %for.inc, !dbg !4038

for.inc:                                          ; preds = %for.body
  %8 = load i32, i32* %slave, align 4, !dbg !4041
  %inc = add i32 %8, 1, !dbg !4041
  store i32 %inc, i32* %slave, align 4, !dbg !4041
  br label %for.cond, !dbg !4042, !llvm.loop !4043

for.end:                                          ; preds = %for.cond
  %9 = bitcast %"class.libparest::ParallelControl::Local::Control"* %this1 to i8*, !dbg !4045
  %add.ptr5 = getelementptr inbounds i8, i8* %9, i64 8, !dbg !4045
  %10 = bitcast i8* %add.ptr5 to %"struct.libparest::ParallelControl::Data"*, !dbg !4045
  %process_has_slave = getelementptr inbounds %"struct.libparest::ParallelControl::Data", %"struct.libparest::ParallelControl::Data"* %10, i32 0, i32 9, !dbg !4045
  call void @_ZNSt6vectorISt3setIjSt4lessIjESaIjEESaIS4_EE6resizeEm(%"class.std::vector.19"* %process_has_slave, i64 1), !dbg !4046
  call void @llvm.dbg.declare(metadata i32* %slave6, metadata !4047, metadata !DIExpression()), !dbg !4049
  store i32 0, i32* %slave6, align 4, !dbg !4049
  br label %for.cond7, !dbg !4050

for.cond7:                                        ; preds = %for.inc14, %for.end
  %11 = load i32, i32* %slave6, align 4, !dbg !4051
  %12 = load i32, i32* %n_slaves.addr, align 4, !dbg !4053
  %cmp8 = icmp ult i32 %11, %12, !dbg !4054
  br i1 %cmp8, label %for.body9, label %for.end16, !dbg !4055

for.body9:                                        ; preds = %for.cond7
  %13 = bitcast %"class.libparest::ParallelControl::Local::Control"* %this1 to i8*, !dbg !4056
  %add.ptr10 = getelementptr inbounds i8, i8* %13, i64 8, !dbg !4056
  %14 = bitcast i8* %add.ptr10 to %"struct.libparest::ParallelControl::Data"*, !dbg !4056
  %process_has_slave11 = getelementptr inbounds %"struct.libparest::ParallelControl::Data", %"struct.libparest::ParallelControl::Data"* %14, i32 0, i32 9, !dbg !4056
  %call12 = call dereferenceable(48) %"class.std::set"* @_ZNSt6vectorISt3setIjSt4lessIjESaIjEESaIS4_EEixEm(%"class.std::vector.19"* %process_has_slave11, i64 0) #4, !dbg !4056
  %call13 = call { %"struct.std::_Rb_tree_node_base"*, i8 } @_ZNSt3setIjSt4lessIjESaIjEE6insertERKj(%"class.std::set"* %call12, i32* dereferenceable(4) %slave6), !dbg !4057
  %15 = bitcast %"struct.std::pair"* %coerce to { %"struct.std::_Rb_tree_node_base"*, i8 }*, !dbg !4057
  %16 = getelementptr inbounds { %"struct.std::_Rb_tree_node_base"*, i8 }, { %"struct.std::_Rb_tree_node_base"*, i8 }* %15, i32 0, i32 0, !dbg !4057
  %17 = extractvalue { %"struct.std::_Rb_tree_node_base"*, i8 } %call13, 0, !dbg !4057
  store %"struct.std::_Rb_tree_node_base"* %17, %"struct.std::_Rb_tree_node_base"** %16, align 8, !dbg !4057
  %18 = getelementptr inbounds { %"struct.std::_Rb_tree_node_base"*, i8 }, { %"struct.std::_Rb_tree_node_base"*, i8 }* %15, i32 0, i32 1, !dbg !4057
  %19 = extractvalue { %"struct.std::_Rb_tree_node_base"*, i8 } %call13, 1, !dbg !4057
  store i8 %19, i8* %18, align 8, !dbg !4057
  br label %for.inc14, !dbg !4056

for.inc14:                                        ; preds = %for.body9
  %20 = load i32, i32* %slave6, align 4, !dbg !4058
  %inc15 = add i32 %20, 1, !dbg !4058
  store i32 %inc15, i32* %slave6, align 4, !dbg !4058
  br label %for.cond7, !dbg !4059, !llvm.loop !4060

for.end16:                                        ; preds = %for.cond7
  %21 = bitcast %"class.libparest::ParallelControl::Local::Control"* %this1 to i8*, !dbg !4062
  %add.ptr17 = getelementptr inbounds i8, i8* %21, i64 8, !dbg !4062
  %22 = bitcast i8* %add.ptr17 to %"struct.libparest::ParallelControl::Data"*, !dbg !4062
  %host_info = getelementptr inbounds %"struct.libparest::ParallelControl::Data", %"struct.libparest::ParallelControl::Data"* %22, i32 0, i32 10, !dbg !4062
  call void @_ZNSt6vectorIN9libparest15ParallelControl10SystemInfoESaIS2_EE6resizeEm(%"class.std::vector.27"* %host_info, i64 1), !dbg !4063
  %23 = bitcast %"class.libparest::ParallelControl::Local::Control"* %this1 to i8*, !dbg !4064
  %add.ptr18 = getelementptr inbounds i8, i8* %23, i64 8, !dbg !4064
  %24 = bitcast i8* %add.ptr18 to %"struct.libparest::ParallelControl::Data"*, !dbg !4064
  %host_info19 = getelementptr inbounds %"struct.libparest::ParallelControl::Data", %"struct.libparest::ParallelControl::Data"* %24, i32 0, i32 10, !dbg !4064
  %call20 = call dereferenceable(48) %"class.libparest::ParallelControl::SystemInfo"* @_ZNSt6vectorIN9libparest15ParallelControl10SystemInfoESaIS2_EEixEm(%"class.std::vector.27"* %host_info19, i64 0) #4, !dbg !4064
  call void @_ZN9libparest15ParallelControl10SystemInfo10initializeEv(%"class.libparest::ParallelControl::SystemInfo"* %call20), !dbg !4065
  ret void, !dbg !4066
}

; Function Attrs: noinline uwtable
define linkonce_odr dso_local void @_ZNSt6vectorIjSaIjEE6resizeEm(%"class.std::vector"* %this, i64 %__new_size) #0 comdat align 2 !dbg !4067 {
entry:
  %this.addr = alloca %"class.std::vector"*, align 8
  %__new_size.addr = alloca i64, align 8
  store %"class.std::vector"* %this, %"class.std::vector"** %this.addr, align 8
  call void @llvm.dbg.declare(metadata %"class.std::vector"** %this.addr, metadata !4068, metadata !DIExpression()), !dbg !4070
  store i64 %__new_size, i64* %__new_size.addr, align 8
  call void @llvm.dbg.declare(metadata i64* %__new_size.addr, metadata !4071, metadata !DIExpression()), !dbg !4072
  %this1 = load %"class.std::vector"*, %"class.std::vector"** %this.addr, align 8
  %0 = load i64, i64* %__new_size.addr, align 8, !dbg !4073
  %call = call i64 @_ZNKSt6vectorIjSaIjEE4sizeEv(%"class.std::vector"* %this1) #4, !dbg !4075
  %cmp = icmp ugt i64 %0, %call, !dbg !4076
  br i1 %cmp, label %if.then, label %if.else, !dbg !4077

if.then:                                          ; preds = %entry
  %1 = load i64, i64* %__new_size.addr, align 8, !dbg !4078
  %call2 = call i64 @_ZNKSt6vectorIjSaIjEE4sizeEv(%"class.std::vector"* %this1) #4, !dbg !4079
  %sub = sub i64 %1, %call2, !dbg !4080
  call void @_ZNSt6vectorIjSaIjEE17_M_default_appendEm(%"class.std::vector"* %this1, i64 %sub), !dbg !4081
  br label %if.end6, !dbg !4081

if.else:                                          ; preds = %entry
  %2 = load i64, i64* %__new_size.addr, align 8, !dbg !4082
  %call3 = call i64 @_ZNKSt6vectorIjSaIjEE4sizeEv(%"class.std::vector"* %this1) #4, !dbg !4084
  %cmp4 = icmp ult i64 %2, %call3, !dbg !4085
  br i1 %cmp4, label %if.then5, label %if.end, !dbg !4086

if.then5:                                         ; preds = %if.else
  %3 = bitcast %"class.std::vector"* %this1 to %"struct.std::_Vector_base"*, !dbg !4087
  %_M_impl = getelementptr inbounds %"struct.std::_Vector_base", %"struct.std::_Vector_base"* %3, i32 0, i32 0, !dbg !4087
  %4 = bitcast %"struct.std::_Vector_base<unsigned int, std::allocator<unsigned int> >::_Vector_impl"* %_M_impl to %"struct.std::_Vector_base<unsigned int, std::allocator<unsigned int> >::_Vector_impl_data"*, !dbg !4088
  %_M_start = getelementptr inbounds %"struct.std::_Vector_base<unsigned int, std::allocator<unsigned int> >::_Vector_impl_data", %"struct.std::_Vector_base<unsigned int, std::allocator<unsigned int> >::_Vector_impl_data"* %4, i32 0, i32 0, !dbg !4089
  %5 = load i32*, i32** %_M_start, align 8, !dbg !4089
  %6 = load i64, i64* %__new_size.addr, align 8, !dbg !4090
  %add.ptr = getelementptr inbounds i32, i32* %5, i64 %6, !dbg !4091
  call void @_ZNSt6vectorIjSaIjEE15_M_erase_at_endEPj(%"class.std::vector"* %this1, i32* %add.ptr) #4, !dbg !4092
  br label %if.end, !dbg !4092

if.end:                                           ; preds = %if.then5, %if.else
  br label %if.end6

if.end6:                                          ; preds = %if.end, %if.then
  ret void, !dbg !4093
}

; Function Attrs: noinline nounwind uwtable
define linkonce_odr dso_local dereferenceable(4) i32* @_ZNSt6vectorIjSaIjEEixEm(%"class.std::vector"* %this, i64 %__n) #1 comdat align 2 !dbg !4094 {
entry:
  %this.addr = alloca %"class.std::vector"*, align 8
  %__n.addr = alloca i64, align 8
  store %"class.std::vector"* %this, %"class.std::vector"** %this.addr, align 8
  call void @llvm.dbg.declare(metadata %"class.std::vector"** %this.addr, metadata !4095, metadata !DIExpression()), !dbg !4096
  store i64 %__n, i64* %__n.addr, align 8
  call void @llvm.dbg.declare(metadata i64* %__n.addr, metadata !4097, metadata !DIExpression()), !dbg !4098
  %this1 = load %"class.std::vector"*, %"class.std::vector"** %this.addr, align 8
  %0 = bitcast %"class.std::vector"* %this1 to %"struct.std::_Vector_base"*, !dbg !4099
  %_M_impl = getelementptr inbounds %"struct.std::_Vector_base", %"struct.std::_Vector_base"* %0, i32 0, i32 0, !dbg !4099
  %1 = bitcast %"struct.std::_Vector_base<unsigned int, std::allocator<unsigned int> >::_Vector_impl"* %_M_impl to %"struct.std::_Vector_base<unsigned int, std::allocator<unsigned int> >::_Vector_impl_data"*, !dbg !4100
  %_M_start = getelementptr inbounds %"struct.std::_Vector_base<unsigned int, std::allocator<unsigned int> >::_Vector_impl_data", %"struct.std::_Vector_base<unsigned int, std::allocator<unsigned int> >::_Vector_impl_data"* %1, i32 0, i32 0, !dbg !4101
  %2 = load i32*, i32** %_M_start, align 8, !dbg !4101
  %3 = load i64, i64* %__n.addr, align 8, !dbg !4102
  %add.ptr = getelementptr inbounds i32, i32* %2, i64 %3, !dbg !4103
  ret i32* %add.ptr, !dbg !4104
}

; Function Attrs: noinline uwtable
define linkonce_odr dso_local void @_ZNSt6vectorISt3setIjSt4lessIjESaIjEESaIS4_EE6resizeEm(%"class.std::vector.19"* %this, i64 %__new_size) #0 comdat align 2 !dbg !4105 {
entry:
  %this.addr = alloca %"class.std::vector.19"*, align 8
  %__new_size.addr = alloca i64, align 8
  store %"class.std::vector.19"* %this, %"class.std::vector.19"** %this.addr, align 8
  call void @llvm.dbg.declare(metadata %"class.std::vector.19"** %this.addr, metadata !4106, metadata !DIExpression()), !dbg !4108
  store i64 %__new_size, i64* %__new_size.addr, align 8
  call void @llvm.dbg.declare(metadata i64* %__new_size.addr, metadata !4109, metadata !DIExpression()), !dbg !4110
  %this1 = load %"class.std::vector.19"*, %"class.std::vector.19"** %this.addr, align 8
  %0 = load i64, i64* %__new_size.addr, align 8, !dbg !4111
  %call = call i64 @_ZNKSt6vectorISt3setIjSt4lessIjESaIjEESaIS4_EE4sizeEv(%"class.std::vector.19"* %this1) #4, !dbg !4113
  %cmp = icmp ugt i64 %0, %call, !dbg !4114
  br i1 %cmp, label %if.then, label %if.else, !dbg !4115

if.then:                                          ; preds = %entry
  %1 = load i64, i64* %__new_size.addr, align 8, !dbg !4116
  %call2 = call i64 @_ZNKSt6vectorISt3setIjSt4lessIjESaIjEESaIS4_EE4sizeEv(%"class.std::vector.19"* %this1) #4, !dbg !4117
  %sub = sub i64 %1, %call2, !dbg !4118
  call void @_ZNSt6vectorISt3setIjSt4lessIjESaIjEESaIS4_EE17_M_default_appendEm(%"class.std::vector.19"* %this1, i64 %sub), !dbg !4119
  br label %if.end6, !dbg !4119

if.else:                                          ; preds = %entry
  %2 = load i64, i64* %__new_size.addr, align 8, !dbg !4120
  %call3 = call i64 @_ZNKSt6vectorISt3setIjSt4lessIjESaIjEESaIS4_EE4sizeEv(%"class.std::vector.19"* %this1) #4, !dbg !4122
  %cmp4 = icmp ult i64 %2, %call3, !dbg !4123
  br i1 %cmp4, label %if.then5, label %if.end, !dbg !4124

if.then5:                                         ; preds = %if.else
  %3 = bitcast %"class.std::vector.19"* %this1 to %"struct.std::_Vector_base.20"*, !dbg !4125
  %_M_impl = getelementptr inbounds %"struct.std::_Vector_base.20", %"struct.std::_Vector_base.20"* %3, i32 0, i32 0, !dbg !4125
  %4 = bitcast %"struct.std::_Vector_base<std::set<unsigned int, std::less<unsigned int>, std::allocator<unsigned int> >, std::allocator<std::set<unsigned int, std::less<unsigned int>, std::allocator<unsigned int> > > >::_Vector_impl"* %_M_impl to %"struct.std::_Vector_base<std::set<unsigned int, std::less<unsigned int>, std::allocator<unsigned int> >, std::allocator<std::set<unsigned int, std::less<unsigned int>, std::allocator<unsigned int> > > >::_Vector_impl_data"*, !dbg !4126
  %_M_start = getelementptr inbounds %"struct.std::_Vector_base<std::set<unsigned int, std::less<unsigned int>, std::allocator<unsigned int> >, std::allocator<std::set<unsigned int, std::less<unsigned int>, std::allocator<unsigned int> > > >::_Vector_impl_data", %"struct.std::_Vector_base<std::set<unsigned int, std::less<unsigned int>, std::allocator<unsigned int> >, std::allocator<std::set<unsigned int, std::less<unsigned int>, std::allocator<unsigned int> > > >::_Vector_impl_data"* %4, i32 0, i32 0, !dbg !4127
  %5 = load %"class.std::set"*, %"class.std::set"** %_M_start, align 8, !dbg !4127
  %6 = load i64, i64* %__new_size.addr, align 8, !dbg !4128
  %add.ptr = getelementptr inbounds %"class.std::set", %"class.std::set"* %5, i64 %6, !dbg !4129
  call void @_ZNSt6vectorISt3setIjSt4lessIjESaIjEESaIS4_EE15_M_erase_at_endEPS4_(%"class.std::vector.19"* %this1, %"class.std::set"* %add.ptr) #4, !dbg !4130
  br label %if.end, !dbg !4130

if.end:                                           ; preds = %if.then5, %if.else
  br label %if.end6

if.end6:                                          ; preds = %if.end, %if.then
  ret void, !dbg !4131
}

; Function Attrs: noinline nounwind uwtable
define linkonce_odr dso_local dereferenceable(48) %"class.std::set"* @_ZNSt6vectorISt3setIjSt4lessIjESaIjEESaIS4_EEixEm(%"class.std::vector.19"* %this, i64 %__n) #1 comdat align 2 !dbg !4132 {
entry:
  %this.addr = alloca %"class.std::vector.19"*, align 8
  %__n.addr = alloca i64, align 8
  store %"class.std::vector.19"* %this, %"class.std::vector.19"** %this.addr, align 8
  call void @llvm.dbg.declare(metadata %"class.std::vector.19"** %this.addr, metadata !4133, metadata !DIExpression()), !dbg !4134
  store i64 %__n, i64* %__n.addr, align 8
  call void @llvm.dbg.declare(metadata i64* %__n.addr, metadata !4135, metadata !DIExpression()), !dbg !4136
  %this1 = load %"class.std::vector.19"*, %"class.std::vector.19"** %this.addr, align 8
  %0 = bitcast %"class.std::vector.19"* %this1 to %"struct.std::_Vector_base.20"*, !dbg !4137
  %_M_impl = getelementptr inbounds %"struct.std::_Vector_base.20", %"struct.std::_Vector_base.20"* %0, i32 0, i32 0, !dbg !4137
  %1 = bitcast %"struct.std::_Vector_base<std::set<unsigned int, std::less<unsigned int>, std::allocator<unsigned int> >, std::allocator<std::set<unsigned int, std::less<unsigned int>, std::allocator<unsigned int> > > >::_Vector_impl"* %_M_impl to %"struct.std::_Vector_base<std::set<unsigned int, std::less<unsigned int>, std::allocator<unsigned int> >, std::allocator<std::set<unsigned int, std::less<unsigned int>, std::allocator<unsigned int> > > >::_Vector_impl_data"*, !dbg !4138
  %_M_start = getelementptr inbounds %"struct.std::_Vector_base<std::set<unsigned int, std::less<unsigned int>, std::allocator<unsigned int> >, std::allocator<std::set<unsigned int, std::less<unsigned int>, std::allocator<unsigned int> > > >::_Vector_impl_data", %"struct.std::_Vector_base<std::set<unsigned int, std::less<unsigned int>, std::allocator<unsigned int> >, std::allocator<std::set<unsigned int, std::less<unsigned int>, std::allocator<unsigned int> > > >::_Vector_impl_data"* %1, i32 0, i32 0, !dbg !4139
  %2 = load %"class.std::set"*, %"class.std::set"** %_M_start, align 8, !dbg !4139
  %3 = load i64, i64* %__n.addr, align 8, !dbg !4140
  %add.ptr = getelementptr inbounds %"class.std::set", %"class.std::set"* %2, i64 %3, !dbg !4141
  ret %"class.std::set"* %add.ptr, !dbg !4142
}

; Function Attrs: noinline uwtable
define linkonce_odr dso_local { %"struct.std::_Rb_tree_node_base"*, i8 } @_ZNSt3setIjSt4lessIjESaIjEE6insertERKj(%"class.std::set"* %this, i32* dereferenceable(4) %__x) #0 comdat align 2 !dbg !4143 {
entry:
  %retval = alloca %"struct.std::pair", align 8
  %this.addr = alloca %"class.std::set"*, align 8
  %__x.addr = alloca i32*, align 8
  %__p = alloca %"struct.std::pair.44", align 8
  store %"class.std::set"* %this, %"class.std::set"** %this.addr, align 8
  call void @llvm.dbg.declare(metadata %"class.std::set"** %this.addr, metadata !4144, metadata !DIExpression()), !dbg !4145
  store i32* %__x, i32** %__x.addr, align 8
  call void @llvm.dbg.declare(metadata i32** %__x.addr, metadata !4146, metadata !DIExpression()), !dbg !4147
  %this1 = load %"class.std::set"*, %"class.std::set"** %this.addr, align 8
  call void @llvm.dbg.declare(metadata %"struct.std::pair.44"* %__p, metadata !4148, metadata !DIExpression()), !dbg !4202
  %_M_t = getelementptr inbounds %"class.std::set", %"class.std::set"* %this1, i32 0, i32 0, !dbg !4203
  %0 = load i32*, i32** %__x.addr, align 8, !dbg !4204
  %call = call { %"struct.std::_Rb_tree_node_base"*, i8 } @_ZNSt8_Rb_treeIjjSt9_IdentityIjESt4lessIjESaIjEE16_M_insert_uniqueIRKjEESt4pairISt17_Rb_tree_iteratorIjEbEOT_(%"class.std::_Rb_tree"* %_M_t, i32* dereferenceable(4) %0), !dbg !4205
  %1 = bitcast %"struct.std::pair.44"* %__p to { %"struct.std::_Rb_tree_node_base"*, i8 }*, !dbg !4205
  %2 = getelementptr inbounds { %"struct.std::_Rb_tree_node_base"*, i8 }, { %"struct.std::_Rb_tree_node_base"*, i8 }* %1, i32 0, i32 0, !dbg !4205
  %3 = extractvalue { %"struct.std::_Rb_tree_node_base"*, i8 } %call, 0, !dbg !4205
  store %"struct.std::_Rb_tree_node_base"* %3, %"struct.std::_Rb_tree_node_base"** %2, align 8, !dbg !4205
  %4 = getelementptr inbounds { %"struct.std::_Rb_tree_node_base"*, i8 }, { %"struct.std::_Rb_tree_node_base"*, i8 }* %1, i32 0, i32 1, !dbg !4205
  %5 = extractvalue { %"struct.std::_Rb_tree_node_base"*, i8 } %call, 1, !dbg !4205
  store i8 %5, i8* %4, align 8, !dbg !4205
  %first = getelementptr inbounds %"struct.std::pair.44", %"struct.std::pair.44"* %__p, i32 0, i32 0, !dbg !4206
  %second = getelementptr inbounds %"struct.std::pair.44", %"struct.std::pair.44"* %__p, i32 0, i32 1, !dbg !4207
  call void @_ZNSt4pairISt23_Rb_tree_const_iteratorIjEbEC2IRSt17_Rb_tree_iteratorIjERbLb1EEEOT_OT0_(%"struct.std::pair"* %retval, %"struct.std::_Rb_tree_iterator"* dereferenceable(8) %first, i8* dereferenceable(1) %second), !dbg !4208
  %6 = bitcast %"struct.std::pair"* %retval to { %"struct.std::_Rb_tree_node_base"*, i8 }*, !dbg !4209
  %7 = load { %"struct.std::_Rb_tree_node_base"*, i8 }, { %"struct.std::_Rb_tree_node_base"*, i8 }* %6, align 8, !dbg !4209
  ret { %"struct.std::_Rb_tree_node_base"*, i8 } %7, !dbg !4209
}

; Function Attrs: noinline uwtable
define linkonce_odr dso_local void @_ZNSt6vectorIN9libparest15ParallelControl10SystemInfoESaIS2_EE6resizeEm(%"class.std::vector.27"* %this, i64 %__new_size) #0 comdat align 2 !dbg !4210 {
entry:
  %this.addr = alloca %"class.std::vector.27"*, align 8
  %__new_size.addr = alloca i64, align 8
  store %"class.std::vector.27"* %this, %"class.std::vector.27"** %this.addr, align 8
  call void @llvm.dbg.declare(metadata %"class.std::vector.27"** %this.addr, metadata !4211, metadata !DIExpression()), !dbg !4213
  store i64 %__new_size, i64* %__new_size.addr, align 8
  call void @llvm.dbg.declare(metadata i64* %__new_size.addr, metadata !4214, metadata !DIExpression()), !dbg !4215
  %this1 = load %"class.std::vector.27"*, %"class.std::vector.27"** %this.addr, align 8
  %0 = load i64, i64* %__new_size.addr, align 8, !dbg !4216
  %call = call i64 @_ZNKSt6vectorIN9libparest15ParallelControl10SystemInfoESaIS2_EE4sizeEv(%"class.std::vector.27"* %this1) #4, !dbg !4218
  %cmp = icmp ugt i64 %0, %call, !dbg !4219
  br i1 %cmp, label %if.then, label %if.else, !dbg !4220

if.then:                                          ; preds = %entry
  %1 = load i64, i64* %__new_size.addr, align 8, !dbg !4221
  %call2 = call i64 @_ZNKSt6vectorIN9libparest15ParallelControl10SystemInfoESaIS2_EE4sizeEv(%"class.std::vector.27"* %this1) #4, !dbg !4222
  %sub = sub i64 %1, %call2, !dbg !4223
  call void @_ZNSt6vectorIN9libparest15ParallelControl10SystemInfoESaIS2_EE17_M_default_appendEm(%"class.std::vector.27"* %this1, i64 %sub), !dbg !4224
  br label %if.end6, !dbg !4224

if.else:                                          ; preds = %entry
  %2 = load i64, i64* %__new_size.addr, align 8, !dbg !4225
  %call3 = call i64 @_ZNKSt6vectorIN9libparest15ParallelControl10SystemInfoESaIS2_EE4sizeEv(%"class.std::vector.27"* %this1) #4, !dbg !4227
  %cmp4 = icmp ult i64 %2, %call3, !dbg !4228
  br i1 %cmp4, label %if.then5, label %if.end, !dbg !4229

if.then5:                                         ; preds = %if.else
  %3 = bitcast %"class.std::vector.27"* %this1 to %"struct.std::_Vector_base.28"*, !dbg !4230
  %_M_impl = getelementptr inbounds %"struct.std::_Vector_base.28", %"struct.std::_Vector_base.28"* %3, i32 0, i32 0, !dbg !4230
  %4 = bitcast %"struct.std::_Vector_base<libparest::ParallelControl::SystemInfo, std::allocator<libparest::ParallelControl::SystemInfo> >::_Vector_impl"* %_M_impl to %"struct.std::_Vector_base<libparest::ParallelControl::SystemInfo, std::allocator<libparest::ParallelControl::SystemInfo> >::_Vector_impl_data"*, !dbg !4231
  %_M_start = getelementptr inbounds %"struct.std::_Vector_base<libparest::ParallelControl::SystemInfo, std::allocator<libparest::ParallelControl::SystemInfo> >::_Vector_impl_data", %"struct.std::_Vector_base<libparest::ParallelControl::SystemInfo, std::allocator<libparest::ParallelControl::SystemInfo> >::_Vector_impl_data"* %4, i32 0, i32 0, !dbg !4232
  %5 = load %"class.libparest::ParallelControl::SystemInfo"*, %"class.libparest::ParallelControl::SystemInfo"** %_M_start, align 8, !dbg !4232
  %6 = load i64, i64* %__new_size.addr, align 8, !dbg !4233
  %add.ptr = getelementptr inbounds %"class.libparest::ParallelControl::SystemInfo", %"class.libparest::ParallelControl::SystemInfo"* %5, i64 %6, !dbg !4234
  call void @_ZNSt6vectorIN9libparest15ParallelControl10SystemInfoESaIS2_EE15_M_erase_at_endEPS2_(%"class.std::vector.27"* %this1, %"class.libparest::ParallelControl::SystemInfo"* %add.ptr) #4, !dbg !4235
  br label %if.end, !dbg !4235

if.end:                                           ; preds = %if.then5, %if.else
  br label %if.end6

if.end6:                                          ; preds = %if.end, %if.then
  ret void, !dbg !4236
}

; Function Attrs: noinline nounwind uwtable
define linkonce_odr dso_local dereferenceable(48) %"class.libparest::ParallelControl::SystemInfo"* @_ZNSt6vectorIN9libparest15ParallelControl10SystemInfoESaIS2_EEixEm(%"class.std::vector.27"* %this, i64 %__n) #1 comdat align 2 !dbg !4237 {
entry:
  %this.addr = alloca %"class.std::vector.27"*, align 8
  %__n.addr = alloca i64, align 8
  store %"class.std::vector.27"* %this, %"class.std::vector.27"** %this.addr, align 8
  call void @llvm.dbg.declare(metadata %"class.std::vector.27"** %this.addr, metadata !4238, metadata !DIExpression()), !dbg !4239
  store i64 %__n, i64* %__n.addr, align 8
  call void @llvm.dbg.declare(metadata i64* %__n.addr, metadata !4240, metadata !DIExpression()), !dbg !4241
  %this1 = load %"class.std::vector.27"*, %"class.std::vector.27"** %this.addr, align 8
  %0 = bitcast %"class.std::vector.27"* %this1 to %"struct.std::_Vector_base.28"*, !dbg !4242
  %_M_impl = getelementptr inbounds %"struct.std::_Vector_base.28", %"struct.std::_Vector_base.28"* %0, i32 0, i32 0, !dbg !4242
  %1 = bitcast %"struct.std::_Vector_base<libparest::ParallelControl::SystemInfo, std::allocator<libparest::ParallelControl::SystemInfo> >::_Vector_impl"* %_M_impl to %"struct.std::_Vector_base<libparest::ParallelControl::SystemInfo, std::allocator<libparest::ParallelControl::SystemInfo> >::_Vector_impl_data"*, !dbg !4243
  %_M_start = getelementptr inbounds %"struct.std::_Vector_base<libparest::ParallelControl::SystemInfo, std::allocator<libparest::ParallelControl::SystemInfo> >::_Vector_impl_data", %"struct.std::_Vector_base<libparest::ParallelControl::SystemInfo, std::allocator<libparest::ParallelControl::SystemInfo> >::_Vector_impl_data"* %1, i32 0, i32 0, !dbg !4244
  %2 = load %"class.libparest::ParallelControl::SystemInfo"*, %"class.libparest::ParallelControl::SystemInfo"** %_M_start, align 8, !dbg !4244
  %3 = load i64, i64* %__n.addr, align 8, !dbg !4245
  %add.ptr = getelementptr inbounds %"class.libparest::ParallelControl::SystemInfo", %"class.libparest::ParallelControl::SystemInfo"* %2, i64 %3, !dbg !4246
  ret %"class.libparest::ParallelControl::SystemInfo"* %add.ptr, !dbg !4247
}

; Function Attrs: noinline uwtable
define dso_local void @_ZN9libparest15ParallelControl5Local7Control8finalizeEv(%"class.libparest::ParallelControl::Local::Control"* %this) unnamed_addr #0 align 2 !dbg !4248 {
entry:
  %this.addr = alloca %"class.libparest::ParallelControl::Local::Control"*, align 8
  store %"class.libparest::ParallelControl::Local::Control"* %this, %"class.libparest::ParallelControl::Local::Control"** %this.addr, align 8
  call void @llvm.dbg.declare(metadata %"class.libparest::ParallelControl::Local::Control"** %this.addr, metadata !4249, metadata !DIExpression()), !dbg !4250
  %this1 = load %"class.libparest::ParallelControl::Local::Control"*, %"class.libparest::ParallelControl::Local::Control"** %this.addr, align 8
  %0 = bitcast %"class.libparest::ParallelControl::Local::Control"* %this1 to i8*, !dbg !4251
  %add.ptr = getelementptr inbounds i8, i8* %0, i64 8, !dbg !4251
  %1 = bitcast i8* %add.ptr to %"struct.libparest::ParallelControl::Data"*, !dbg !4251
  %message_log_server = getelementptr inbounds %"struct.libparest::ParallelControl::Data", %"struct.libparest::ParallelControl::Data"* %1, i32 0, i32 11, !dbg !4251
  call void @_ZN9libparest10delete_ptrINS_10MessageLog10ServerBaseEEEvRPT_(%"class.libparest::MessageLog::ServerBase"** dereferenceable(8) %message_log_server), !dbg !4252
  ret void, !dbg !4253
}

; Function Attrs: noinline nounwind uwtable
define linkonce_odr dso_local void @_ZN9libparest10delete_ptrINS_10MessageLog10ServerBaseEEEvRPT_(%"class.libparest::MessageLog::ServerBase"** dereferenceable(8) %p) #1 comdat !dbg !4254 {
entry:
  %p.addr = alloca %"class.libparest::MessageLog::ServerBase"**, align 8
  store %"class.libparest::MessageLog::ServerBase"** %p, %"class.libparest::MessageLog::ServerBase"*** %p.addr, align 8
  call void @llvm.dbg.declare(metadata %"class.libparest::MessageLog::ServerBase"*** %p.addr, metadata !4260, metadata !DIExpression()), !dbg !4261
  %0 = load %"class.libparest::MessageLog::ServerBase"**, %"class.libparest::MessageLog::ServerBase"*** %p.addr, align 8, !dbg !4262
  %1 = load %"class.libparest::MessageLog::ServerBase"*, %"class.libparest::MessageLog::ServerBase"** %0, align 8, !dbg !4262
  %cmp = icmp ne %"class.libparest::MessageLog::ServerBase"* %1, null, !dbg !4264
  br i1 %cmp, label %if.then, label %if.end, !dbg !4265

if.then:                                          ; preds = %entry
  %2 = load %"class.libparest::MessageLog::ServerBase"**, %"class.libparest::MessageLog::ServerBase"*** %p.addr, align 8, !dbg !4266
  %3 = load %"class.libparest::MessageLog::ServerBase"*, %"class.libparest::MessageLog::ServerBase"** %2, align 8, !dbg !4266
  %isnull = icmp eq %"class.libparest::MessageLog::ServerBase"* %3, null, !dbg !4268
  br i1 %isnull, label %delete.end, label %delete.notnull, !dbg !4268

delete.notnull:                                   ; preds = %if.then
  %4 = bitcast %"class.libparest::MessageLog::ServerBase"* %3 to void (%"class.libparest::MessageLog::ServerBase"*)***, !dbg !4268
  %vtable = load void (%"class.libparest::MessageLog::ServerBase"*)**, void (%"class.libparest::MessageLog::ServerBase"*)*** %4, align 8, !dbg !4268
  %vfn = getelementptr inbounds void (%"class.libparest::MessageLog::ServerBase"*)*, void (%"class.libparest::MessageLog::ServerBase"*)** %vtable, i64 1, !dbg !4268
  %5 = load void (%"class.libparest::MessageLog::ServerBase"*)*, void (%"class.libparest::MessageLog::ServerBase"*)** %vfn, align 8, !dbg !4268
  call void %5(%"class.libparest::MessageLog::ServerBase"* %3) #4, !dbg !4268
  br label %delete.end, !dbg !4268

delete.end:                                       ; preds = %delete.notnull, %if.then
  %6 = load %"class.libparest::MessageLog::ServerBase"**, %"class.libparest::MessageLog::ServerBase"*** %p.addr, align 8, !dbg !4269
  store %"class.libparest::MessageLog::ServerBase"* null, %"class.libparest::MessageLog::ServerBase"** %6, align 8, !dbg !4270
  br label %if.end, !dbg !4271

if.end:                                           ; preds = %delete.end, %entry
  ret void, !dbg !4272
}

; Function Attrs: noinline uwtable
define internal void @__cxx_global_var_init.12() #0 section ".text.startup" !dbg !4273 {
entry:
  call void @_ZN9libparest15ParallelControl5Local7ControlC1Ev(%"class.libparest::ParallelControl::Local::Control"* @_ZN9libparest15ParallelControl5Local7Control17instance_variableE), !dbg !4274
  %0 = call i32 @__cxa_atexit(void (i8*)* bitcast (void (%"class.libparest::ParallelControl::Local::Control"*)* @_ZN9libparest15ParallelControl5Local7ControlD1Ev to void (i8*)*), i8* bitcast (%"class.libparest::ParallelControl::Local::Control"* @_ZN9libparest15ParallelControl5Local7Control17instance_variableE to i8*), i8* @__dso_handle) #4, !dbg !4274
  ret void, !dbg !4274
}

; Function Attrs: noinline nounwind uwtable
define dso_local dereferenceable(128) %"class.libparest::ParallelControl::Local::Control"* @_ZN9libparest15ParallelControl5Local7Control8instanceEv() #1 align 2 !dbg !4275 {
entry:
  ret %"class.libparest::ParallelControl::Local::Control"* @_ZN9libparest15ParallelControl5Local7Control17instance_variableE, !dbg !4276
}

declare dso_local void @__cxa_pure_virtual() unnamed_addr

; Function Attrs: noinline nounwind uwtable
define linkonce_odr dso_local void @_ZNSt6vectorIN9libparest15ParallelControl10SystemInfoESaIS2_EED2Ev(%"class.std::vector.27"* %this) unnamed_addr #1 comdat align 2 personality i8* bitcast (i32 (...)* @__gxx_personality_v0 to i8*) !dbg !4277 {
entry:
  %this.addr = alloca %"class.std::vector.27"*, align 8
  %exn.slot = alloca i8*
  %ehselector.slot = alloca i32
  store %"class.std::vector.27"* %this, %"class.std::vector.27"** %this.addr, align 8
  call void @llvm.dbg.declare(metadata %"class.std::vector.27"** %this.addr, metadata !4278, metadata !DIExpression()), !dbg !4279
  %this1 = load %"class.std::vector.27"*, %"class.std::vector.27"** %this.addr, align 8
  %0 = bitcast %"class.std::vector.27"* %this1 to %"struct.std::_Vector_base.28"*, !dbg !4280
  %_M_impl = getelementptr inbounds %"struct.std::_Vector_base.28", %"struct.std::_Vector_base.28"* %0, i32 0, i32 0, !dbg !4280
  %1 = bitcast %"struct.std::_Vector_base<libparest::ParallelControl::SystemInfo, std::allocator<libparest::ParallelControl::SystemInfo> >::_Vector_impl"* %_M_impl to %"struct.std::_Vector_base<libparest::ParallelControl::SystemInfo, std::allocator<libparest::ParallelControl::SystemInfo> >::_Vector_impl_data"*, !dbg !4282
  %_M_start = getelementptr inbounds %"struct.std::_Vector_base<libparest::ParallelControl::SystemInfo, std::allocator<libparest::ParallelControl::SystemInfo> >::_Vector_impl_data", %"struct.std::_Vector_base<libparest::ParallelControl::SystemInfo, std::allocator<libparest::ParallelControl::SystemInfo> >::_Vector_impl_data"* %1, i32 0, i32 0, !dbg !4283
  %2 = load %"class.libparest::ParallelControl::SystemInfo"*, %"class.libparest::ParallelControl::SystemInfo"** %_M_start, align 8, !dbg !4283
  %3 = bitcast %"class.std::vector.27"* %this1 to %"struct.std::_Vector_base.28"*, !dbg !4284
  %_M_impl2 = getelementptr inbounds %"struct.std::_Vector_base.28", %"struct.std::_Vector_base.28"* %3, i32 0, i32 0, !dbg !4284
  %4 = bitcast %"struct.std::_Vector_base<libparest::ParallelControl::SystemInfo, std::allocator<libparest::ParallelControl::SystemInfo> >::_Vector_impl"* %_M_impl2 to %"struct.std::_Vector_base<libparest::ParallelControl::SystemInfo, std::allocator<libparest::ParallelControl::SystemInfo> >::_Vector_impl_data"*, !dbg !4285
  %_M_finish = getelementptr inbounds %"struct.std::_Vector_base<libparest::ParallelControl::SystemInfo, std::allocator<libparest::ParallelControl::SystemInfo> >::_Vector_impl_data", %"struct.std::_Vector_base<libparest::ParallelControl::SystemInfo, std::allocator<libparest::ParallelControl::SystemInfo> >::_Vector_impl_data"* %4, i32 0, i32 1, !dbg !4286
  %5 = load %"class.libparest::ParallelControl::SystemInfo"*, %"class.libparest::ParallelControl::SystemInfo"** %_M_finish, align 8, !dbg !4286
  %6 = bitcast %"class.std::vector.27"* %this1 to %"struct.std::_Vector_base.28"*, !dbg !4287
  %call = call dereferenceable(1) %"class.std::allocator.29"* @_ZNSt12_Vector_baseIN9libparest15ParallelControl10SystemInfoESaIS2_EE19_M_get_Tp_allocatorEv(%"struct.std::_Vector_base.28"* %6) #4, !dbg !4287
  invoke void @_ZSt8_DestroyIPN9libparest15ParallelControl10SystemInfoES2_EvT_S4_RSaIT0_E(%"class.libparest::ParallelControl::SystemInfo"* %2, %"class.libparest::ParallelControl::SystemInfo"* %5, %"class.std::allocator.29"* dereferenceable(1) %call)
          to label %invoke.cont unwind label %lpad, !dbg !4288

invoke.cont:                                      ; preds = %entry
  %7 = bitcast %"class.std::vector.27"* %this1 to %"struct.std::_Vector_base.28"*, !dbg !4289
  call void @_ZNSt12_Vector_baseIN9libparest15ParallelControl10SystemInfoESaIS2_EED2Ev(%"struct.std::_Vector_base.28"* %7) #4, !dbg !4289
  ret void, !dbg !4290

lpad:                                             ; preds = %entry
  %8 = landingpad { i8*, i32 }
          catch i8* null, !dbg !4289
  %9 = extractvalue { i8*, i32 } %8, 0, !dbg !4289
  store i8* %9, i8** %exn.slot, align 8, !dbg !4289
  %10 = extractvalue { i8*, i32 } %8, 1, !dbg !4289
  store i32 %10, i32* %ehselector.slot, align 4, !dbg !4289
  %11 = bitcast %"class.std::vector.27"* %this1 to %"struct.std::_Vector_base.28"*, !dbg !4289
  call void @_ZNSt12_Vector_baseIN9libparest15ParallelControl10SystemInfoESaIS2_EED2Ev(%"struct.std::_Vector_base.28"* %11) #4, !dbg !4289
  br label %terminate.handler, !dbg !4289

terminate.handler:                                ; preds = %lpad
  %exn = load i8*, i8** %exn.slot, align 8, !dbg !4289
  call void @__clang_call_terminate(i8* %exn) #13, !dbg !4289
  unreachable, !dbg !4289
}

; Function Attrs: noinline nounwind uwtable
define linkonce_odr dso_local void @_ZNSt6vectorISt3setIjSt4lessIjESaIjEESaIS4_EED2Ev(%"class.std::vector.19"* %this) unnamed_addr #1 comdat align 2 personality i8* bitcast (i32 (...)* @__gxx_personality_v0 to i8*) !dbg !4291 {
entry:
  %this.addr = alloca %"class.std::vector.19"*, align 8
  %exn.slot = alloca i8*
  %ehselector.slot = alloca i32
  store %"class.std::vector.19"* %this, %"class.std::vector.19"** %this.addr, align 8
  call void @llvm.dbg.declare(metadata %"class.std::vector.19"** %this.addr, metadata !4292, metadata !DIExpression()), !dbg !4293
  %this1 = load %"class.std::vector.19"*, %"class.std::vector.19"** %this.addr, align 8
  %0 = bitcast %"class.std::vector.19"* %this1 to %"struct.std::_Vector_base.20"*, !dbg !4294
  %_M_impl = getelementptr inbounds %"struct.std::_Vector_base.20", %"struct.std::_Vector_base.20"* %0, i32 0, i32 0, !dbg !4294
  %1 = bitcast %"struct.std::_Vector_base<std::set<unsigned int, std::less<unsigned int>, std::allocator<unsigned int> >, std::allocator<std::set<unsigned int, std::less<unsigned int>, std::allocator<unsigned int> > > >::_Vector_impl"* %_M_impl to %"struct.std::_Vector_base<std::set<unsigned int, std::less<unsigned int>, std::allocator<unsigned int> >, std::allocator<std::set<unsigned int, std::less<unsigned int>, std::allocator<unsigned int> > > >::_Vector_impl_data"*, !dbg !4296
  %_M_start = getelementptr inbounds %"struct.std::_Vector_base<std::set<unsigned int, std::less<unsigned int>, std::allocator<unsigned int> >, std::allocator<std::set<unsigned int, std::less<unsigned int>, std::allocator<unsigned int> > > >::_Vector_impl_data", %"struct.std::_Vector_base<std::set<unsigned int, std::less<unsigned int>, std::allocator<unsigned int> >, std::allocator<std::set<unsigned int, std::less<unsigned int>, std::allocator<unsigned int> > > >::_Vector_impl_data"* %1, i32 0, i32 0, !dbg !4297
  %2 = load %"class.std::set"*, %"class.std::set"** %_M_start, align 8, !dbg !4297
  %3 = bitcast %"class.std::vector.19"* %this1 to %"struct.std::_Vector_base.20"*, !dbg !4298
  %_M_impl2 = getelementptr inbounds %"struct.std::_Vector_base.20", %"struct.std::_Vector_base.20"* %3, i32 0, i32 0, !dbg !4298
  %4 = bitcast %"struct.std::_Vector_base<std::set<unsigned int, std::less<unsigned int>, std::allocator<unsigned int> >, std::allocator<std::set<unsigned int, std::less<unsigned int>, std::allocator<unsigned int> > > >::_Vector_impl"* %_M_impl2 to %"struct.std::_Vector_base<std::set<unsigned int, std::less<unsigned int>, std::allocator<unsigned int> >, std::allocator<std::set<unsigned int, std::less<unsigned int>, std::allocator<unsigned int> > > >::_Vector_impl_data"*, !dbg !4299
  %_M_finish = getelementptr inbounds %"struct.std::_Vector_base<std::set<unsigned int, std::less<unsigned int>, std::allocator<unsigned int> >, std::allocator<std::set<unsigned int, std::less<unsigned int>, std::allocator<unsigned int> > > >::_Vector_impl_data", %"struct.std::_Vector_base<std::set<unsigned int, std::less<unsigned int>, std::allocator<unsigned int> >, std::allocator<std::set<unsigned int, std::less<unsigned int>, std::allocator<unsigned int> > > >::_Vector_impl_data"* %4, i32 0, i32 1, !dbg !4300
  %5 = load %"class.std::set"*, %"class.std::set"** %_M_finish, align 8, !dbg !4300
  %6 = bitcast %"class.std::vector.19"* %this1 to %"struct.std::_Vector_base.20"*, !dbg !4301
  %call = call dereferenceable(1) %"class.std::allocator.21"* @_ZNSt12_Vector_baseISt3setIjSt4lessIjESaIjEESaIS4_EE19_M_get_Tp_allocatorEv(%"struct.std::_Vector_base.20"* %6) #4, !dbg !4301
  invoke void @_ZSt8_DestroyIPSt3setIjSt4lessIjESaIjEES4_EvT_S6_RSaIT0_E(%"class.std::set"* %2, %"class.std::set"* %5, %"class.std::allocator.21"* dereferenceable(1) %call)
          to label %invoke.cont unwind label %lpad, !dbg !4302

invoke.cont:                                      ; preds = %entry
  %7 = bitcast %"class.std::vector.19"* %this1 to %"struct.std::_Vector_base.20"*, !dbg !4303
  call void @_ZNSt12_Vector_baseISt3setIjSt4lessIjESaIjEESaIS4_EED2Ev(%"struct.std::_Vector_base.20"* %7) #4, !dbg !4303
  ret void, !dbg !4304

lpad:                                             ; preds = %entry
  %8 = landingpad { i8*, i32 }
          catch i8* null, !dbg !4303
  %9 = extractvalue { i8*, i32 } %8, 0, !dbg !4303
  store i8* %9, i8** %exn.slot, align 8, !dbg !4303
  %10 = extractvalue { i8*, i32 } %8, 1, !dbg !4303
  store i32 %10, i32* %ehselector.slot, align 4, !dbg !4303
  %11 = bitcast %"class.std::vector.19"* %this1 to %"struct.std::_Vector_base.20"*, !dbg !4303
  call void @_ZNSt12_Vector_baseISt3setIjSt4lessIjESaIjEESaIS4_EED2Ev(%"struct.std::_Vector_base.20"* %11) #4, !dbg !4303
  br label %terminate.handler, !dbg !4303

terminate.handler:                                ; preds = %lpad
  %exn = load i8*, i8** %exn.slot, align 8, !dbg !4303
  call void @__clang_call_terminate(i8* %exn) #13, !dbg !4303
  unreachable, !dbg !4303
}

; Function Attrs: noinline nounwind uwtable
define linkonce_odr dso_local void @_ZNSt6vectorIjSaIjEED2Ev(%"class.std::vector"* %this) unnamed_addr #1 comdat align 2 personality i8* bitcast (i32 (...)* @__gxx_personality_v0 to i8*) !dbg !4305 {
entry:
  %this.addr = alloca %"class.std::vector"*, align 8
  %exn.slot = alloca i8*
  %ehselector.slot = alloca i32
  store %"class.std::vector"* %this, %"class.std::vector"** %this.addr, align 8
  call void @llvm.dbg.declare(metadata %"class.std::vector"** %this.addr, metadata !4306, metadata !DIExpression()), !dbg !4307
  %this1 = load %"class.std::vector"*, %"class.std::vector"** %this.addr, align 8
  %0 = bitcast %"class.std::vector"* %this1 to %"struct.std::_Vector_base"*, !dbg !4308
  %_M_impl = getelementptr inbounds %"struct.std::_Vector_base", %"struct.std::_Vector_base"* %0, i32 0, i32 0, !dbg !4308
  %1 = bitcast %"struct.std::_Vector_base<unsigned int, std::allocator<unsigned int> >::_Vector_impl"* %_M_impl to %"struct.std::_Vector_base<unsigned int, std::allocator<unsigned int> >::_Vector_impl_data"*, !dbg !4310
  %_M_start = getelementptr inbounds %"struct.std::_Vector_base<unsigned int, std::allocator<unsigned int> >::_Vector_impl_data", %"struct.std::_Vector_base<unsigned int, std::allocator<unsigned int> >::_Vector_impl_data"* %1, i32 0, i32 0, !dbg !4311
  %2 = load i32*, i32** %_M_start, align 8, !dbg !4311
  %3 = bitcast %"class.std::vector"* %this1 to %"struct.std::_Vector_base"*, !dbg !4312
  %_M_impl2 = getelementptr inbounds %"struct.std::_Vector_base", %"struct.std::_Vector_base"* %3, i32 0, i32 0, !dbg !4312
  %4 = bitcast %"struct.std::_Vector_base<unsigned int, std::allocator<unsigned int> >::_Vector_impl"* %_M_impl2 to %"struct.std::_Vector_base<unsigned int, std::allocator<unsigned int> >::_Vector_impl_data"*, !dbg !4313
  %_M_finish = getelementptr inbounds %"struct.std::_Vector_base<unsigned int, std::allocator<unsigned int> >::_Vector_impl_data", %"struct.std::_Vector_base<unsigned int, std::allocator<unsigned int> >::_Vector_impl_data"* %4, i32 0, i32 1, !dbg !4314
  %5 = load i32*, i32** %_M_finish, align 8, !dbg !4314
  %6 = bitcast %"class.std::vector"* %this1 to %"struct.std::_Vector_base"*, !dbg !4315
  %call = call dereferenceable(1) %"class.std::allocator.16"* @_ZNSt12_Vector_baseIjSaIjEE19_M_get_Tp_allocatorEv(%"struct.std::_Vector_base"* %6) #4, !dbg !4315
  invoke void @_ZSt8_DestroyIPjjEvT_S1_RSaIT0_E(i32* %2, i32* %5, %"class.std::allocator.16"* dereferenceable(1) %call)
          to label %invoke.cont unwind label %lpad, !dbg !4316

invoke.cont:                                      ; preds = %entry
  %7 = bitcast %"class.std::vector"* %this1 to %"struct.std::_Vector_base"*, !dbg !4317
  call void @_ZNSt12_Vector_baseIjSaIjEED2Ev(%"struct.std::_Vector_base"* %7) #4, !dbg !4317
  ret void, !dbg !4318

lpad:                                             ; preds = %entry
  %8 = landingpad { i8*, i32 }
          catch i8* null, !dbg !4317
  %9 = extractvalue { i8*, i32 } %8, 0, !dbg !4317
  store i8* %9, i8** %exn.slot, align 8, !dbg !4317
  %10 = extractvalue { i8*, i32 } %8, 1, !dbg !4317
  store i32 %10, i32* %ehselector.slot, align 4, !dbg !4317
  %11 = bitcast %"class.std::vector"* %this1 to %"struct.std::_Vector_base"*, !dbg !4317
  call void @_ZNSt12_Vector_baseIjSaIjEED2Ev(%"struct.std::_Vector_base"* %11) #4, !dbg !4317
  br label %terminate.handler, !dbg !4317

terminate.handler:                                ; preds = %lpad
  %exn = load i8*, i8** %exn.slot, align 8, !dbg !4317
  call void @__clang_call_terminate(i8* %exn) #13, !dbg !4317
  unreachable, !dbg !4317
}

; Function Attrs: noinline uwtable
define linkonce_odr dso_local void @_ZSt8_DestroyIPN9libparest15ParallelControl10SystemInfoES2_EvT_S4_RSaIT0_E(%"class.libparest::ParallelControl::SystemInfo"* %__first, %"class.libparest::ParallelControl::SystemInfo"* %__last, %"class.std::allocator.29"* dereferenceable(1) %0) #0 comdat !dbg !4319 {
entry:
  %__first.addr = alloca %"class.libparest::ParallelControl::SystemInfo"*, align 8
  %__last.addr = alloca %"class.libparest::ParallelControl::SystemInfo"*, align 8
  %.addr = alloca %"class.std::allocator.29"*, align 8
  store %"class.libparest::ParallelControl::SystemInfo"* %__first, %"class.libparest::ParallelControl::SystemInfo"** %__first.addr, align 8
  call void @llvm.dbg.declare(metadata %"class.libparest::ParallelControl::SystemInfo"** %__first.addr, metadata !4324, metadata !DIExpression()), !dbg !4325
  store %"class.libparest::ParallelControl::SystemInfo"* %__last, %"class.libparest::ParallelControl::SystemInfo"** %__last.addr, align 8
  call void @llvm.dbg.declare(metadata %"class.libparest::ParallelControl::SystemInfo"** %__last.addr, metadata !4326, metadata !DIExpression()), !dbg !4327
  store %"class.std::allocator.29"* %0, %"class.std::allocator.29"** %.addr, align 8
  call void @llvm.dbg.declare(metadata %"class.std::allocator.29"** %.addr, metadata !4328, metadata !DIExpression()), !dbg !4329
  %1 = load %"class.libparest::ParallelControl::SystemInfo"*, %"class.libparest::ParallelControl::SystemInfo"** %__first.addr, align 8, !dbg !4330
  %2 = load %"class.libparest::ParallelControl::SystemInfo"*, %"class.libparest::ParallelControl::SystemInfo"** %__last.addr, align 8, !dbg !4331
  call void @_ZSt8_DestroyIPN9libparest15ParallelControl10SystemInfoEEvT_S4_(%"class.libparest::ParallelControl::SystemInfo"* %1, %"class.libparest::ParallelControl::SystemInfo"* %2), !dbg !4332
  ret void, !dbg !4333
}

; Function Attrs: noinline nounwind uwtable
define linkonce_odr dso_local dereferenceable(1) %"class.std::allocator.29"* @_ZNSt12_Vector_baseIN9libparest15ParallelControl10SystemInfoESaIS2_EE19_M_get_Tp_allocatorEv(%"struct.std::_Vector_base.28"* %this) #1 comdat align 2 !dbg !4334 {
entry:
  %this.addr = alloca %"struct.std::_Vector_base.28"*, align 8
  store %"struct.std::_Vector_base.28"* %this, %"struct.std::_Vector_base.28"** %this.addr, align 8
  call void @llvm.dbg.declare(metadata %"struct.std::_Vector_base.28"** %this.addr, metadata !4335, metadata !DIExpression()), !dbg !4337
  %this1 = load %"struct.std::_Vector_base.28"*, %"struct.std::_Vector_base.28"** %this.addr, align 8
  %_M_impl = getelementptr inbounds %"struct.std::_Vector_base.28", %"struct.std::_Vector_base.28"* %this1, i32 0, i32 0, !dbg !4338
  %0 = bitcast %"struct.std::_Vector_base<libparest::ParallelControl::SystemInfo, std::allocator<libparest::ParallelControl::SystemInfo> >::_Vector_impl"* %_M_impl to %"class.std::allocator.29"*, !dbg !4339
  ret %"class.std::allocator.29"* %0, !dbg !4340
}

; Function Attrs: noinline nounwind uwtable
define linkonce_odr dso_local void @_ZNSt12_Vector_baseIN9libparest15ParallelControl10SystemInfoESaIS2_EED2Ev(%"struct.std::_Vector_base.28"* %this) unnamed_addr #1 comdat align 2 personality i8* bitcast (i32 (...)* @__gxx_personality_v0 to i8*) !dbg !4341 {
entry:
  %this.addr = alloca %"struct.std::_Vector_base.28"*, align 8
  %exn.slot = alloca i8*
  %ehselector.slot = alloca i32
  store %"struct.std::_Vector_base.28"* %this, %"struct.std::_Vector_base.28"** %this.addr, align 8
  call void @llvm.dbg.declare(metadata %"struct.std::_Vector_base.28"** %this.addr, metadata !4342, metadata !DIExpression()), !dbg !4343
  %this1 = load %"struct.std::_Vector_base.28"*, %"struct.std::_Vector_base.28"** %this.addr, align 8
  %_M_impl = getelementptr inbounds %"struct.std::_Vector_base.28", %"struct.std::_Vector_base.28"* %this1, i32 0, i32 0, !dbg !4344
  %0 = bitcast %"struct.std::_Vector_base<libparest::ParallelControl::SystemInfo, std::allocator<libparest::ParallelControl::SystemInfo> >::_Vector_impl"* %_M_impl to %"struct.std::_Vector_base<libparest::ParallelControl::SystemInfo, std::allocator<libparest::ParallelControl::SystemInfo> >::_Vector_impl_data"*, !dbg !4344
  %_M_start = getelementptr inbounds %"struct.std::_Vector_base<libparest::ParallelControl::SystemInfo, std::allocator<libparest::ParallelControl::SystemInfo> >::_Vector_impl_data", %"struct.std::_Vector_base<libparest::ParallelControl::SystemInfo, std::allocator<libparest::ParallelControl::SystemInfo> >::_Vector_impl_data"* %0, i32 0, i32 0, !dbg !4346
  %1 = load %"class.libparest::ParallelControl::SystemInfo"*, %"class.libparest::ParallelControl::SystemInfo"** %_M_start, align 8, !dbg !4346
  %_M_impl2 = getelementptr inbounds %"struct.std::_Vector_base.28", %"struct.std::_Vector_base.28"* %this1, i32 0, i32 0, !dbg !4347
  %2 = bitcast %"struct.std::_Vector_base<libparest::ParallelControl::SystemInfo, std::allocator<libparest::ParallelControl::SystemInfo> >::_Vector_impl"* %_M_impl2 to %"struct.std::_Vector_base<libparest::ParallelControl::SystemInfo, std::allocator<libparest::ParallelControl::SystemInfo> >::_Vector_impl_data"*, !dbg !4347
  %_M_end_of_storage = getelementptr inbounds %"struct.std::_Vector_base<libparest::ParallelControl::SystemInfo, std::allocator<libparest::ParallelControl::SystemInfo> >::_Vector_impl_data", %"struct.std::_Vector_base<libparest::ParallelControl::SystemInfo, std::allocator<libparest::ParallelControl::SystemInfo> >::_Vector_impl_data"* %2, i32 0, i32 2, !dbg !4348
  %3 = load %"class.libparest::ParallelControl::SystemInfo"*, %"class.libparest::ParallelControl::SystemInfo"** %_M_end_of_storage, align 8, !dbg !4348
  %_M_impl3 = getelementptr inbounds %"struct.std::_Vector_base.28", %"struct.std::_Vector_base.28"* %this1, i32 0, i32 0, !dbg !4349
  %4 = bitcast %"struct.std::_Vector_base<libparest::ParallelControl::SystemInfo, std::allocator<libparest::ParallelControl::SystemInfo> >::_Vector_impl"* %_M_impl3 to %"struct.std::_Vector_base<libparest::ParallelControl::SystemInfo, std::allocator<libparest::ParallelControl::SystemInfo> >::_Vector_impl_data"*, !dbg !4349
  %_M_start4 = getelementptr inbounds %"struct.std::_Vector_base<libparest::ParallelControl::SystemInfo, std::allocator<libparest::ParallelControl::SystemInfo> >::_Vector_impl_data", %"struct.std::_Vector_base<libparest::ParallelControl::SystemInfo, std::allocator<libparest::ParallelControl::SystemInfo> >::_Vector_impl_data"* %4, i32 0, i32 0, !dbg !4350
  %5 = load %"class.libparest::ParallelControl::SystemInfo"*, %"class.libparest::ParallelControl::SystemInfo"** %_M_start4, align 8, !dbg !4350
  %sub.ptr.lhs.cast = ptrtoint %"class.libparest::ParallelControl::SystemInfo"* %3 to i64, !dbg !4351
  %sub.ptr.rhs.cast = ptrtoint %"class.libparest::ParallelControl::SystemInfo"* %5 to i64, !dbg !4351
  %sub.ptr.sub = sub i64 %sub.ptr.lhs.cast, %sub.ptr.rhs.cast, !dbg !4351
  %sub.ptr.div = sdiv exact i64 %sub.ptr.sub, 48, !dbg !4351
  invoke void @_ZNSt12_Vector_baseIN9libparest15ParallelControl10SystemInfoESaIS2_EE13_M_deallocateEPS2_m(%"struct.std::_Vector_base.28"* %this1, %"class.libparest::ParallelControl::SystemInfo"* %1, i64 %sub.ptr.div)
          to label %invoke.cont unwind label %lpad, !dbg !4352

invoke.cont:                                      ; preds = %entry
  %_M_impl5 = getelementptr inbounds %"struct.std::_Vector_base.28", %"struct.std::_Vector_base.28"* %this1, i32 0, i32 0, !dbg !4353
  call void @_ZNSt12_Vector_baseIN9libparest15ParallelControl10SystemInfoESaIS2_EE12_Vector_implD2Ev(%"struct.std::_Vector_base<libparest::ParallelControl::SystemInfo, std::allocator<libparest::ParallelControl::SystemInfo> >::_Vector_impl"* %_M_impl5) #4, !dbg !4353
  ret void, !dbg !4354

lpad:                                             ; preds = %entry
  %6 = landingpad { i8*, i32 }
          catch i8* null, !dbg !4353
  %7 = extractvalue { i8*, i32 } %6, 0, !dbg !4353
  store i8* %7, i8** %exn.slot, align 8, !dbg !4353
  %8 = extractvalue { i8*, i32 } %6, 1, !dbg !4353
  store i32 %8, i32* %ehselector.slot, align 4, !dbg !4353
  %_M_impl6 = getelementptr inbounds %"struct.std::_Vector_base.28", %"struct.std::_Vector_base.28"* %this1, i32 0, i32 0, !dbg !4353
  call void @_ZNSt12_Vector_baseIN9libparest15ParallelControl10SystemInfoESaIS2_EE12_Vector_implD2Ev(%"struct.std::_Vector_base<libparest::ParallelControl::SystemInfo, std::allocator<libparest::ParallelControl::SystemInfo> >::_Vector_impl"* %_M_impl6) #4, !dbg !4353
  br label %terminate.handler, !dbg !4353

terminate.handler:                                ; preds = %lpad
  %exn = load i8*, i8** %exn.slot, align 8, !dbg !4353
  call void @__clang_call_terminate(i8* %exn) #13, !dbg !4353
  unreachable, !dbg !4353
}

; Function Attrs: noinline noreturn nounwind
define linkonce_odr hidden void @__clang_call_terminate(i8* %0) #8 comdat {
  %2 = call i8* @__cxa_begin_catch(i8* %0) #4
  call void @_ZSt9terminatev() #13
  unreachable
}

declare dso_local i8* @__cxa_begin_catch(i8*)

declare dso_local void @_ZSt9terminatev()

; Function Attrs: noinline uwtable
define linkonce_odr dso_local void @_ZSt8_DestroyIPN9libparest15ParallelControl10SystemInfoEEvT_S4_(%"class.libparest::ParallelControl::SystemInfo"* %__first, %"class.libparest::ParallelControl::SystemInfo"* %__last) #0 comdat !dbg !4355 {
entry:
  %__first.addr = alloca %"class.libparest::ParallelControl::SystemInfo"*, align 8
  %__last.addr = alloca %"class.libparest::ParallelControl::SystemInfo"*, align 8
  store %"class.libparest::ParallelControl::SystemInfo"* %__first, %"class.libparest::ParallelControl::SystemInfo"** %__first.addr, align 8
  call void @llvm.dbg.declare(metadata %"class.libparest::ParallelControl::SystemInfo"** %__first.addr, metadata !4360, metadata !DIExpression()), !dbg !4361
  store %"class.libparest::ParallelControl::SystemInfo"* %__last, %"class.libparest::ParallelControl::SystemInfo"** %__last.addr, align 8
  call void @llvm.dbg.declare(metadata %"class.libparest::ParallelControl::SystemInfo"** %__last.addr, metadata !4362, metadata !DIExpression()), !dbg !4363
  %0 = load %"class.libparest::ParallelControl::SystemInfo"*, %"class.libparest::ParallelControl::SystemInfo"** %__first.addr, align 8, !dbg !4364
  %1 = load %"class.libparest::ParallelControl::SystemInfo"*, %"class.libparest::ParallelControl::SystemInfo"** %__last.addr, align 8, !dbg !4365
  call void @_ZNSt12_Destroy_auxILb0EE9__destroyIPN9libparest15ParallelControl10SystemInfoEEEvT_S6_(%"class.libparest::ParallelControl::SystemInfo"* %0, %"class.libparest::ParallelControl::SystemInfo"* %1), !dbg !4366
  ret void, !dbg !4367
}

; Function Attrs: noinline uwtable
define linkonce_odr dso_local void @_ZNSt12_Destroy_auxILb0EE9__destroyIPN9libparest15ParallelControl10SystemInfoEEEvT_S6_(%"class.libparest::ParallelControl::SystemInfo"* %__first, %"class.libparest::ParallelControl::SystemInfo"* %__last) #0 comdat align 2 !dbg !4368 {
entry:
  %__first.addr = alloca %"class.libparest::ParallelControl::SystemInfo"*, align 8
  %__last.addr = alloca %"class.libparest::ParallelControl::SystemInfo"*, align 8
  store %"class.libparest::ParallelControl::SystemInfo"* %__first, %"class.libparest::ParallelControl::SystemInfo"** %__first.addr, align 8
  call void @llvm.dbg.declare(metadata %"class.libparest::ParallelControl::SystemInfo"** %__first.addr, metadata !4373, metadata !DIExpression()), !dbg !4374
  store %"class.libparest::ParallelControl::SystemInfo"* %__last, %"class.libparest::ParallelControl::SystemInfo"** %__last.addr, align 8
  call void @llvm.dbg.declare(metadata %"class.libparest::ParallelControl::SystemInfo"** %__last.addr, metadata !4375, metadata !DIExpression()), !dbg !4376
  br label %for.cond, !dbg !4377

for.cond:                                         ; preds = %for.inc, %entry
  %0 = load %"class.libparest::ParallelControl::SystemInfo"*, %"class.libparest::ParallelControl::SystemInfo"** %__first.addr, align 8, !dbg !4378
  %1 = load %"class.libparest::ParallelControl::SystemInfo"*, %"class.libparest::ParallelControl::SystemInfo"** %__last.addr, align 8, !dbg !4381
  %cmp = icmp ne %"class.libparest::ParallelControl::SystemInfo"* %0, %1, !dbg !4382
  br i1 %cmp, label %for.body, label %for.end, !dbg !4383

for.body:                                         ; preds = %for.cond
  %2 = load %"class.libparest::ParallelControl::SystemInfo"*, %"class.libparest::ParallelControl::SystemInfo"** %__first.addr, align 8, !dbg !4384
  %call = call %"class.libparest::ParallelControl::SystemInfo"* @_ZSt11__addressofIN9libparest15ParallelControl10SystemInfoEEPT_RS3_(%"class.libparest::ParallelControl::SystemInfo"* dereferenceable(48) %2) #4, !dbg !4385
  call void @_ZSt8_DestroyIN9libparest15ParallelControl10SystemInfoEEvPT_(%"class.libparest::ParallelControl::SystemInfo"* %call), !dbg !4386
  br label %for.inc, !dbg !4386

for.inc:                                          ; preds = %for.body
  %3 = load %"class.libparest::ParallelControl::SystemInfo"*, %"class.libparest::ParallelControl::SystemInfo"** %__first.addr, align 8, !dbg !4387
  %incdec.ptr = getelementptr inbounds %"class.libparest::ParallelControl::SystemInfo", %"class.libparest::ParallelControl::SystemInfo"* %3, i32 1, !dbg !4387
  store %"class.libparest::ParallelControl::SystemInfo"* %incdec.ptr, %"class.libparest::ParallelControl::SystemInfo"** %__first.addr, align 8, !dbg !4387
  br label %for.cond, !dbg !4388, !llvm.loop !4389

for.end:                                          ; preds = %for.cond
  ret void, !dbg !4391
}

; Function Attrs: noinline nounwind uwtable
define linkonce_odr dso_local void @_ZSt8_DestroyIN9libparest15ParallelControl10SystemInfoEEvPT_(%"class.libparest::ParallelControl::SystemInfo"* %__pointer) #1 comdat !dbg !4392 {
entry:
  %__pointer.addr = alloca %"class.libparest::ParallelControl::SystemInfo"*, align 8
  store %"class.libparest::ParallelControl::SystemInfo"* %__pointer, %"class.libparest::ParallelControl::SystemInfo"** %__pointer.addr, align 8
  call void @llvm.dbg.declare(metadata %"class.libparest::ParallelControl::SystemInfo"** %__pointer.addr, metadata !4395, metadata !DIExpression()), !dbg !4396
  %0 = load %"class.libparest::ParallelControl::SystemInfo"*, %"class.libparest::ParallelControl::SystemInfo"** %__pointer.addr, align 8, !dbg !4397
  call void @_ZN9libparest15ParallelControl10SystemInfoD2Ev(%"class.libparest::ParallelControl::SystemInfo"* %0) #4, !dbg !4398
  ret void, !dbg !4399
}

; Function Attrs: noinline nounwind uwtable
define linkonce_odr dso_local %"class.libparest::ParallelControl::SystemInfo"* @_ZSt11__addressofIN9libparest15ParallelControl10SystemInfoEEPT_RS3_(%"class.libparest::ParallelControl::SystemInfo"* dereferenceable(48) %__r) #1 comdat !dbg !4400 {
entry:
  %__r.addr = alloca %"class.libparest::ParallelControl::SystemInfo"*, align 8
  store %"class.libparest::ParallelControl::SystemInfo"* %__r, %"class.libparest::ParallelControl::SystemInfo"** %__r.addr, align 8
  call void @llvm.dbg.declare(metadata %"class.libparest::ParallelControl::SystemInfo"** %__r.addr, metadata !4404, metadata !DIExpression()), !dbg !4405
  %0 = load %"class.libparest::ParallelControl::SystemInfo"*, %"class.libparest::ParallelControl::SystemInfo"** %__r.addr, align 8, !dbg !4406
  ret %"class.libparest::ParallelControl::SystemInfo"* %0, !dbg !4407
}

; Function Attrs: noinline nounwind uwtable
define linkonce_odr dso_local void @_ZN9libparest15ParallelControl10SystemInfoD2Ev(%"class.libparest::ParallelControl::SystemInfo"* %this) unnamed_addr #1 comdat align 2 !dbg !4408 {
entry:
  %this.addr = alloca %"class.libparest::ParallelControl::SystemInfo"*, align 8
  store %"class.libparest::ParallelControl::SystemInfo"* %this, %"class.libparest::ParallelControl::SystemInfo"** %this.addr, align 8
  call void @llvm.dbg.declare(metadata %"class.libparest::ParallelControl::SystemInfo"** %this.addr, metadata !4410, metadata !DIExpression()), !dbg !4411
  %this1 = load %"class.libparest::ParallelControl::SystemInfo"*, %"class.libparest::ParallelControl::SystemInfo"** %this.addr, align 8
  %hostname = getelementptr inbounds %"class.libparest::ParallelControl::SystemInfo", %"class.libparest::ParallelControl::SystemInfo"* %this1, i32 0, i32 0, !dbg !4412
  call void @_ZNSt7__cxx1112basic_stringIcSt11char_traitsIcESaIcEED1Ev(%"class.std::__cxx11::basic_string"* %hostname) #4, !dbg !4412
  ret void, !dbg !4414
}

; Function Attrs: noinline uwtable
define linkonce_odr dso_local void @_ZNSt12_Vector_baseIN9libparest15ParallelControl10SystemInfoESaIS2_EE13_M_deallocateEPS2_m(%"struct.std::_Vector_base.28"* %this, %"class.libparest::ParallelControl::SystemInfo"* %__p, i64 %__n) #0 comdat align 2 !dbg !4415 {
entry:
  %this.addr = alloca %"struct.std::_Vector_base.28"*, align 8
  %__p.addr = alloca %"class.libparest::ParallelControl::SystemInfo"*, align 8
  %__n.addr = alloca i64, align 8
  store %"struct.std::_Vector_base.28"* %this, %"struct.std::_Vector_base.28"** %this.addr, align 8
  call void @llvm.dbg.declare(metadata %"struct.std::_Vector_base.28"** %this.addr, metadata !4416, metadata !DIExpression()), !dbg !4417
  store %"class.libparest::ParallelControl::SystemInfo"* %__p, %"class.libparest::ParallelControl::SystemInfo"** %__p.addr, align 8
  call void @llvm.dbg.declare(metadata %"class.libparest::ParallelControl::SystemInfo"** %__p.addr, metadata !4418, metadata !DIExpression()), !dbg !4419
  store i64 %__n, i64* %__n.addr, align 8
  call void @llvm.dbg.declare(metadata i64* %__n.addr, metadata !4420, metadata !DIExpression()), !dbg !4421
  %this1 = load %"struct.std::_Vector_base.28"*, %"struct.std::_Vector_base.28"** %this.addr, align 8
  %0 = load %"class.libparest::ParallelControl::SystemInfo"*, %"class.libparest::ParallelControl::SystemInfo"** %__p.addr, align 8, !dbg !4422
  %tobool = icmp ne %"class.libparest::ParallelControl::SystemInfo"* %0, null, !dbg !4422
  br i1 %tobool, label %if.then, label %if.end, !dbg !4424

if.then:                                          ; preds = %entry
  %_M_impl = getelementptr inbounds %"struct.std::_Vector_base.28", %"struct.std::_Vector_base.28"* %this1, i32 0, i32 0, !dbg !4425
  %1 = bitcast %"struct.std::_Vector_base<libparest::ParallelControl::SystemInfo, std::allocator<libparest::ParallelControl::SystemInfo> >::_Vector_impl"* %_M_impl to %"class.std::allocator.29"*, !dbg !4425
  %2 = load %"class.libparest::ParallelControl::SystemInfo"*, %"class.libparest::ParallelControl::SystemInfo"** %__p.addr, align 8, !dbg !4426
  %3 = load i64, i64* %__n.addr, align 8, !dbg !4427
  call void @_ZNSt16allocator_traitsISaIN9libparest15ParallelControl10SystemInfoEEE10deallocateERS3_PS2_m(%"class.std::allocator.29"* dereferenceable(1) %1, %"class.libparest::ParallelControl::SystemInfo"* %2, i64 %3), !dbg !4428
  br label %if.end, !dbg !4428

if.end:                                           ; preds = %if.then, %entry
  ret void, !dbg !4429
}

; Function Attrs: noinline nounwind uwtable
define linkonce_odr dso_local void @_ZNSt12_Vector_baseIN9libparest15ParallelControl10SystemInfoESaIS2_EE12_Vector_implD2Ev(%"struct.std::_Vector_base<libparest::ParallelControl::SystemInfo, std::allocator<libparest::ParallelControl::SystemInfo> >::_Vector_impl"* %this) unnamed_addr #1 comdat align 2 !dbg !4430 {
entry:
  %this.addr = alloca %"struct.std::_Vector_base<libparest::ParallelControl::SystemInfo, std::allocator<libparest::ParallelControl::SystemInfo> >::_Vector_impl"*, align 8
  store %"struct.std::_Vector_base<libparest::ParallelControl::SystemInfo, std::allocator<libparest::ParallelControl::SystemInfo> >::_Vector_impl"* %this, %"struct.std::_Vector_base<libparest::ParallelControl::SystemInfo, std::allocator<libparest::ParallelControl::SystemInfo> >::_Vector_impl"** %this.addr, align 8
  call void @llvm.dbg.declare(metadata %"struct.std::_Vector_base<libparest::ParallelControl::SystemInfo, std::allocator<libparest::ParallelControl::SystemInfo> >::_Vector_impl"** %this.addr, metadata !4432, metadata !DIExpression()), !dbg !4434
  %this1 = load %"struct.std::_Vector_base<libparest::ParallelControl::SystemInfo, std::allocator<libparest::ParallelControl::SystemInfo> >::_Vector_impl"*, %"struct.std::_Vector_base<libparest::ParallelControl::SystemInfo, std::allocator<libparest::ParallelControl::SystemInfo> >::_Vector_impl"** %this.addr, align 8
  %0 = bitcast %"struct.std::_Vector_base<libparest::ParallelControl::SystemInfo, std::allocator<libparest::ParallelControl::SystemInfo> >::_Vector_impl"* %this1 to %"class.std::allocator.29"*, !dbg !4435
  call void @_ZNSaIN9libparest15ParallelControl10SystemInfoEED2Ev(%"class.std::allocator.29"* %0) #4, !dbg !4435
  ret void, !dbg !4437
}

; Function Attrs: noinline uwtable
define linkonce_odr dso_local void @_ZNSt16allocator_traitsISaIN9libparest15ParallelControl10SystemInfoEEE10deallocateERS3_PS2_m(%"class.std::allocator.29"* dereferenceable(1) %__a, %"class.libparest::ParallelControl::SystemInfo"* %__p, i64 %__n) #0 comdat align 2 !dbg !4438 {
entry:
  %__a.addr = alloca %"class.std::allocator.29"*, align 8
  %__p.addr = alloca %"class.libparest::ParallelControl::SystemInfo"*, align 8
  %__n.addr = alloca i64, align 8
  store %"class.std::allocator.29"* %__a, %"class.std::allocator.29"** %__a.addr, align 8
  call void @llvm.dbg.declare(metadata %"class.std::allocator.29"** %__a.addr, metadata !4439, metadata !DIExpression()), !dbg !4440
  store %"class.libparest::ParallelControl::SystemInfo"* %__p, %"class.libparest::ParallelControl::SystemInfo"** %__p.addr, align 8
  call void @llvm.dbg.declare(metadata %"class.libparest::ParallelControl::SystemInfo"** %__p.addr, metadata !4441, metadata !DIExpression()), !dbg !4442
  store i64 %__n, i64* %__n.addr, align 8
  call void @llvm.dbg.declare(metadata i64* %__n.addr, metadata !4443, metadata !DIExpression()), !dbg !4444
  %0 = load %"class.std::allocator.29"*, %"class.std::allocator.29"** %__a.addr, align 8, !dbg !4445
  %1 = bitcast %"class.std::allocator.29"* %0 to %"class.__gnu_cxx::new_allocator.30"*, !dbg !4445
  %2 = load %"class.libparest::ParallelControl::SystemInfo"*, %"class.libparest::ParallelControl::SystemInfo"** %__p.addr, align 8, !dbg !4446
  %3 = load i64, i64* %__n.addr, align 8, !dbg !4447
  call void @_ZN9__gnu_cxx13new_allocatorIN9libparest15ParallelControl10SystemInfoEE10deallocateEPS3_m(%"class.__gnu_cxx::new_allocator.30"* %1, %"class.libparest::ParallelControl::SystemInfo"* %2, i64 %3), !dbg !4448
  ret void, !dbg !4449
}

; Function Attrs: noinline nounwind uwtable
define linkonce_odr dso_local void @_ZN9__gnu_cxx13new_allocatorIN9libparest15ParallelControl10SystemInfoEE10deallocateEPS3_m(%"class.__gnu_cxx::new_allocator.30"* %this, %"class.libparest::ParallelControl::SystemInfo"* %__p, i64 %__t) #1 comdat align 2 !dbg !4450 {
entry:
  %this.addr = alloca %"class.__gnu_cxx::new_allocator.30"*, align 8
  %__p.addr = alloca %"class.libparest::ParallelControl::SystemInfo"*, align 8
  %__t.addr = alloca i64, align 8
  store %"class.__gnu_cxx::new_allocator.30"* %this, %"class.__gnu_cxx::new_allocator.30"** %this.addr, align 8
  call void @llvm.dbg.declare(metadata %"class.__gnu_cxx::new_allocator.30"** %this.addr, metadata !4451, metadata !DIExpression()), !dbg !4453
  store %"class.libparest::ParallelControl::SystemInfo"* %__p, %"class.libparest::ParallelControl::SystemInfo"** %__p.addr, align 8
  call void @llvm.dbg.declare(metadata %"class.libparest::ParallelControl::SystemInfo"** %__p.addr, metadata !4454, metadata !DIExpression()), !dbg !4455
  store i64 %__t, i64* %__t.addr, align 8
  call void @llvm.dbg.declare(metadata i64* %__t.addr, metadata !4456, metadata !DIExpression()), !dbg !4457
  %this1 = load %"class.__gnu_cxx::new_allocator.30"*, %"class.__gnu_cxx::new_allocator.30"** %this.addr, align 8
  %0 = load %"class.libparest::ParallelControl::SystemInfo"*, %"class.libparest::ParallelControl::SystemInfo"** %__p.addr, align 8, !dbg !4458
  %1 = bitcast %"class.libparest::ParallelControl::SystemInfo"* %0 to i8*, !dbg !4458
  call void @_ZdlPv(i8* %1) #4, !dbg !4459
  ret void, !dbg !4460
}

; Function Attrs: noinline nounwind uwtable
define linkonce_odr dso_local void @_ZNSaIN9libparest15ParallelControl10SystemInfoEED2Ev(%"class.std::allocator.29"* %this) unnamed_addr #1 comdat align 2 !dbg !4461 {
entry:
  %this.addr = alloca %"class.std::allocator.29"*, align 8
  store %"class.std::allocator.29"* %this, %"class.std::allocator.29"** %this.addr, align 8
  call void @llvm.dbg.declare(metadata %"class.std::allocator.29"** %this.addr, metadata !4462, metadata !DIExpression()), !dbg !4464
  %this1 = load %"class.std::allocator.29"*, %"class.std::allocator.29"** %this.addr, align 8
  %0 = bitcast %"class.std::allocator.29"* %this1 to %"class.__gnu_cxx::new_allocator.30"*, !dbg !4465
  call void @_ZN9__gnu_cxx13new_allocatorIN9libparest15ParallelControl10SystemInfoEED2Ev(%"class.__gnu_cxx::new_allocator.30"* %0) #4, !dbg !4465
  ret void, !dbg !4467
}

; Function Attrs: noinline nounwind uwtable
define linkonce_odr dso_local void @_ZN9__gnu_cxx13new_allocatorIN9libparest15ParallelControl10SystemInfoEED2Ev(%"class.__gnu_cxx::new_allocator.30"* %this) unnamed_addr #1 comdat align 2 !dbg !4468 {
entry:
  %this.addr = alloca %"class.__gnu_cxx::new_allocator.30"*, align 8
  store %"class.__gnu_cxx::new_allocator.30"* %this, %"class.__gnu_cxx::new_allocator.30"** %this.addr, align 8
  call void @llvm.dbg.declare(metadata %"class.__gnu_cxx::new_allocator.30"** %this.addr, metadata !4469, metadata !DIExpression()), !dbg !4470
  %this1 = load %"class.__gnu_cxx::new_allocator.30"*, %"class.__gnu_cxx::new_allocator.30"** %this.addr, align 8
  ret void, !dbg !4471
}

; Function Attrs: noinline uwtable
define linkonce_odr dso_local void @_ZSt8_DestroyIPSt3setIjSt4lessIjESaIjEES4_EvT_S6_RSaIT0_E(%"class.std::set"* %__first, %"class.std::set"* %__last, %"class.std::allocator.21"* dereferenceable(1) %0) #0 comdat !dbg !4472 {
entry:
  %__first.addr = alloca %"class.std::set"*, align 8
  %__last.addr = alloca %"class.std::set"*, align 8
  %.addr = alloca %"class.std::allocator.21"*, align 8
  store %"class.std::set"* %__first, %"class.std::set"** %__first.addr, align 8
  call void @llvm.dbg.declare(metadata %"class.std::set"** %__first.addr, metadata !4477, metadata !DIExpression()), !dbg !4478
  store %"class.std::set"* %__last, %"class.std::set"** %__last.addr, align 8
  call void @llvm.dbg.declare(metadata %"class.std::set"** %__last.addr, metadata !4479, metadata !DIExpression()), !dbg !4480
  store %"class.std::allocator.21"* %0, %"class.std::allocator.21"** %.addr, align 8
  call void @llvm.dbg.declare(metadata %"class.std::allocator.21"** %.addr, metadata !4481, metadata !DIExpression()), !dbg !4482
  %1 = load %"class.std::set"*, %"class.std::set"** %__first.addr, align 8, !dbg !4483
  %2 = load %"class.std::set"*, %"class.std::set"** %__last.addr, align 8, !dbg !4484
  call void @_ZSt8_DestroyIPSt3setIjSt4lessIjESaIjEEEvT_S6_(%"class.std::set"* %1, %"class.std::set"* %2), !dbg !4485
  ret void, !dbg !4486
}

; Function Attrs: noinline nounwind uwtable
define linkonce_odr dso_local dereferenceable(1) %"class.std::allocator.21"* @_ZNSt12_Vector_baseISt3setIjSt4lessIjESaIjEESaIS4_EE19_M_get_Tp_allocatorEv(%"struct.std::_Vector_base.20"* %this) #1 comdat align 2 !dbg !4487 {
entry:
  %this.addr = alloca %"struct.std::_Vector_base.20"*, align 8
  store %"struct.std::_Vector_base.20"* %this, %"struct.std::_Vector_base.20"** %this.addr, align 8
  call void @llvm.dbg.declare(metadata %"struct.std::_Vector_base.20"** %this.addr, metadata !4488, metadata !DIExpression()), !dbg !4490
  %this1 = load %"struct.std::_Vector_base.20"*, %"struct.std::_Vector_base.20"** %this.addr, align 8
  %_M_impl = getelementptr inbounds %"struct.std::_Vector_base.20", %"struct.std::_Vector_base.20"* %this1, i32 0, i32 0, !dbg !4491
  %0 = bitcast %"struct.std::_Vector_base<std::set<unsigned int, std::less<unsigned int>, std::allocator<unsigned int> >, std::allocator<std::set<unsigned int, std::less<unsigned int>, std::allocator<unsigned int> > > >::_Vector_impl"* %_M_impl to %"class.std::allocator.21"*, !dbg !4492
  ret %"class.std::allocator.21"* %0, !dbg !4493
}

; Function Attrs: noinline nounwind uwtable
define linkonce_odr dso_local void @_ZNSt12_Vector_baseISt3setIjSt4lessIjESaIjEESaIS4_EED2Ev(%"struct.std::_Vector_base.20"* %this) unnamed_addr #1 comdat align 2 personality i8* bitcast (i32 (...)* @__gxx_personality_v0 to i8*) !dbg !4494 {
entry:
  %this.addr = alloca %"struct.std::_Vector_base.20"*, align 8
  %exn.slot = alloca i8*
  %ehselector.slot = alloca i32
  store %"struct.std::_Vector_base.20"* %this, %"struct.std::_Vector_base.20"** %this.addr, align 8
  call void @llvm.dbg.declare(metadata %"struct.std::_Vector_base.20"** %this.addr, metadata !4495, metadata !DIExpression()), !dbg !4496
  %this1 = load %"struct.std::_Vector_base.20"*, %"struct.std::_Vector_base.20"** %this.addr, align 8
  %_M_impl = getelementptr inbounds %"struct.std::_Vector_base.20", %"struct.std::_Vector_base.20"* %this1, i32 0, i32 0, !dbg !4497
  %0 = bitcast %"struct.std::_Vector_base<std::set<unsigned int, std::less<unsigned int>, std::allocator<unsigned int> >, std::allocator<std::set<unsigned int, std::less<unsigned int>, std::allocator<unsigned int> > > >::_Vector_impl"* %_M_impl to %"struct.std::_Vector_base<std::set<unsigned int, std::less<unsigned int>, std::allocator<unsigned int> >, std::allocator<std::set<unsigned int, std::less<unsigned int>, std::allocator<unsigned int> > > >::_Vector_impl_data"*, !dbg !4497
  %_M_start = getelementptr inbounds %"struct.std::_Vector_base<std::set<unsigned int, std::less<unsigned int>, std::allocator<unsigned int> >, std::allocator<std::set<unsigned int, std::less<unsigned int>, std::allocator<unsigned int> > > >::_Vector_impl_data", %"struct.std::_Vector_base<std::set<unsigned int, std::less<unsigned int>, std::allocator<unsigned int> >, std::allocator<std::set<unsigned int, std::less<unsigned int>, std::allocator<unsigned int> > > >::_Vector_impl_data"* %0, i32 0, i32 0, !dbg !4499
  %1 = load %"class.std::set"*, %"class.std::set"** %_M_start, align 8, !dbg !4499
  %_M_impl2 = getelementptr inbounds %"struct.std::_Vector_base.20", %"struct.std::_Vector_base.20"* %this1, i32 0, i32 0, !dbg !4500
  %2 = bitcast %"struct.std::_Vector_base<std::set<unsigned int, std::less<unsigned int>, std::allocator<unsigned int> >, std::allocator<std::set<unsigned int, std::less<unsigned int>, std::allocator<unsigned int> > > >::_Vector_impl"* %_M_impl2 to %"struct.std::_Vector_base<std::set<unsigned int, std::less<unsigned int>, std::allocator<unsigned int> >, std::allocator<std::set<unsigned int, std::less<unsigned int>, std::allocator<unsigned int> > > >::_Vector_impl_data"*, !dbg !4500
  %_M_end_of_storage = getelementptr inbounds %"struct.std::_Vector_base<std::set<unsigned int, std::less<unsigned int>, std::allocator<unsigned int> >, std::allocator<std::set<unsigned int, std::less<unsigned int>, std::allocator<unsigned int> > > >::_Vector_impl_data", %"struct.std::_Vector_base<std::set<unsigned int, std::less<unsigned int>, std::allocator<unsigned int> >, std::allocator<std::set<unsigned int, std::less<unsigned int>, std::allocator<unsigned int> > > >::_Vector_impl_data"* %2, i32 0, i32 2, !dbg !4501
  %3 = load %"class.std::set"*, %"class.std::set"** %_M_end_of_storage, align 8, !dbg !4501
  %_M_impl3 = getelementptr inbounds %"struct.std::_Vector_base.20", %"struct.std::_Vector_base.20"* %this1, i32 0, i32 0, !dbg !4502
  %4 = bitcast %"struct.std::_Vector_base<std::set<unsigned int, std::less<unsigned int>, std::allocator<unsigned int> >, std::allocator<std::set<unsigned int, std::less<unsigned int>, std::allocator<unsigned int> > > >::_Vector_impl"* %_M_impl3 to %"struct.std::_Vector_base<std::set<unsigned int, std::less<unsigned int>, std::allocator<unsigned int> >, std::allocator<std::set<unsigned int, std::less<unsigned int>, std::allocator<unsigned int> > > >::_Vector_impl_data"*, !dbg !4502
  %_M_start4 = getelementptr inbounds %"struct.std::_Vector_base<std::set<unsigned int, std::less<unsigned int>, std::allocator<unsigned int> >, std::allocator<std::set<unsigned int, std::less<unsigned int>, std::allocator<unsigned int> > > >::_Vector_impl_data", %"struct.std::_Vector_base<std::set<unsigned int, std::less<unsigned int>, std::allocator<unsigned int> >, std::allocator<std::set<unsigned int, std::less<unsigned int>, std::allocator<unsigned int> > > >::_Vector_impl_data"* %4, i32 0, i32 0, !dbg !4503
  %5 = load %"class.std::set"*, %"class.std::set"** %_M_start4, align 8, !dbg !4503
  %sub.ptr.lhs.cast = ptrtoint %"class.std::set"* %3 to i64, !dbg !4504
  %sub.ptr.rhs.cast = ptrtoint %"class.std::set"* %5 to i64, !dbg !4504
  %sub.ptr.sub = sub i64 %sub.ptr.lhs.cast, %sub.ptr.rhs.cast, !dbg !4504
  %sub.ptr.div = sdiv exact i64 %sub.ptr.sub, 48, !dbg !4504
  invoke void @_ZNSt12_Vector_baseISt3setIjSt4lessIjESaIjEESaIS4_EE13_M_deallocateEPS4_m(%"struct.std::_Vector_base.20"* %this1, %"class.std::set"* %1, i64 %sub.ptr.div)
          to label %invoke.cont unwind label %lpad, !dbg !4505

invoke.cont:                                      ; preds = %entry
  %_M_impl5 = getelementptr inbounds %"struct.std::_Vector_base.20", %"struct.std::_Vector_base.20"* %this1, i32 0, i32 0, !dbg !4506
  call void @_ZNSt12_Vector_baseISt3setIjSt4lessIjESaIjEESaIS4_EE12_Vector_implD2Ev(%"struct.std::_Vector_base<std::set<unsigned int, std::less<unsigned int>, std::allocator<unsigned int> >, std::allocator<std::set<unsigned int, std::less<unsigned int>, std::allocator<unsigned int> > > >::_Vector_impl"* %_M_impl5) #4, !dbg !4506
  ret void, !dbg !4507

lpad:                                             ; preds = %entry
  %6 = landingpad { i8*, i32 }
          catch i8* null, !dbg !4506
  %7 = extractvalue { i8*, i32 } %6, 0, !dbg !4506
  store i8* %7, i8** %exn.slot, align 8, !dbg !4506
  %8 = extractvalue { i8*, i32 } %6, 1, !dbg !4506
  store i32 %8, i32* %ehselector.slot, align 4, !dbg !4506
  %_M_impl6 = getelementptr inbounds %"struct.std::_Vector_base.20", %"struct.std::_Vector_base.20"* %this1, i32 0, i32 0, !dbg !4506
  call void @_ZNSt12_Vector_baseISt3setIjSt4lessIjESaIjEESaIS4_EE12_Vector_implD2Ev(%"struct.std::_Vector_base<std::set<unsigned int, std::less<unsigned int>, std::allocator<unsigned int> >, std::allocator<std::set<unsigned int, std::less<unsigned int>, std::allocator<unsigned int> > > >::_Vector_impl"* %_M_impl6) #4, !dbg !4506
  br label %terminate.handler, !dbg !4506

terminate.handler:                                ; preds = %lpad
  %exn = load i8*, i8** %exn.slot, align 8, !dbg !4506
  call void @__clang_call_terminate(i8* %exn) #13, !dbg !4506
  unreachable, !dbg !4506
}

; Function Attrs: noinline uwtable
define linkonce_odr dso_local void @_ZSt8_DestroyIPSt3setIjSt4lessIjESaIjEEEvT_S6_(%"class.std::set"* %__first, %"class.std::set"* %__last) #0 comdat !dbg !4508 {
entry:
  %__first.addr = alloca %"class.std::set"*, align 8
  %__last.addr = alloca %"class.std::set"*, align 8
  store %"class.std::set"* %__first, %"class.std::set"** %__first.addr, align 8
  call void @llvm.dbg.declare(metadata %"class.std::set"** %__first.addr, metadata !4512, metadata !DIExpression()), !dbg !4513
  store %"class.std::set"* %__last, %"class.std::set"** %__last.addr, align 8
  call void @llvm.dbg.declare(metadata %"class.std::set"** %__last.addr, metadata !4514, metadata !DIExpression()), !dbg !4515
  %0 = load %"class.std::set"*, %"class.std::set"** %__first.addr, align 8, !dbg !4516
  %1 = load %"class.std::set"*, %"class.std::set"** %__last.addr, align 8, !dbg !4517
  call void @_ZNSt12_Destroy_auxILb0EE9__destroyIPSt3setIjSt4lessIjESaIjEEEEvT_S8_(%"class.std::set"* %0, %"class.std::set"* %1), !dbg !4518
  ret void, !dbg !4519
}

; Function Attrs: noinline uwtable
define linkonce_odr dso_local void @_ZNSt12_Destroy_auxILb0EE9__destroyIPSt3setIjSt4lessIjESaIjEEEEvT_S8_(%"class.std::set"* %__first, %"class.std::set"* %__last) #0 comdat align 2 !dbg !4520 {
entry:
  %__first.addr = alloca %"class.std::set"*, align 8
  %__last.addr = alloca %"class.std::set"*, align 8
  store %"class.std::set"* %__first, %"class.std::set"** %__first.addr, align 8
  call void @llvm.dbg.declare(metadata %"class.std::set"** %__first.addr, metadata !4522, metadata !DIExpression()), !dbg !4523
  store %"class.std::set"* %__last, %"class.std::set"** %__last.addr, align 8
  call void @llvm.dbg.declare(metadata %"class.std::set"** %__last.addr, metadata !4524, metadata !DIExpression()), !dbg !4525
  br label %for.cond, !dbg !4526

for.cond:                                         ; preds = %for.inc, %entry
  %0 = load %"class.std::set"*, %"class.std::set"** %__first.addr, align 8, !dbg !4527
  %1 = load %"class.std::set"*, %"class.std::set"** %__last.addr, align 8, !dbg !4530
  %cmp = icmp ne %"class.std::set"* %0, %1, !dbg !4531
  br i1 %cmp, label %for.body, label %for.end, !dbg !4532

for.body:                                         ; preds = %for.cond
  %2 = load %"class.std::set"*, %"class.std::set"** %__first.addr, align 8, !dbg !4533
  %call = call %"class.std::set"* @_ZSt11__addressofISt3setIjSt4lessIjESaIjEEEPT_RS5_(%"class.std::set"* dereferenceable(48) %2) #4, !dbg !4534
  call void @_ZSt8_DestroyISt3setIjSt4lessIjESaIjEEEvPT_(%"class.std::set"* %call), !dbg !4535
  br label %for.inc, !dbg !4535

for.inc:                                          ; preds = %for.body
  %3 = load %"class.std::set"*, %"class.std::set"** %__first.addr, align 8, !dbg !4536
  %incdec.ptr = getelementptr inbounds %"class.std::set", %"class.std::set"* %3, i32 1, !dbg !4536
  store %"class.std::set"* %incdec.ptr, %"class.std::set"** %__first.addr, align 8, !dbg !4536
  br label %for.cond, !dbg !4537, !llvm.loop !4538

for.end:                                          ; preds = %for.cond
  ret void, !dbg !4540
}

; Function Attrs: noinline nounwind uwtable
define linkonce_odr dso_local void @_ZSt8_DestroyISt3setIjSt4lessIjESaIjEEEvPT_(%"class.std::set"* %__pointer) #1 comdat !dbg !4541 {
entry:
  %__pointer.addr = alloca %"class.std::set"*, align 8
  store %"class.std::set"* %__pointer, %"class.std::set"** %__pointer.addr, align 8
  call void @llvm.dbg.declare(metadata %"class.std::set"** %__pointer.addr, metadata !4544, metadata !DIExpression()), !dbg !4545
  %0 = load %"class.std::set"*, %"class.std::set"** %__pointer.addr, align 8, !dbg !4546
  call void @_ZNSt3setIjSt4lessIjESaIjEED2Ev(%"class.std::set"* %0) #4, !dbg !4547
  ret void, !dbg !4548
}

; Function Attrs: noinline nounwind uwtable
define linkonce_odr dso_local %"class.std::set"* @_ZSt11__addressofISt3setIjSt4lessIjESaIjEEEPT_RS5_(%"class.std::set"* dereferenceable(48) %__r) #1 comdat !dbg !4549 {
entry:
  %__r.addr = alloca %"class.std::set"*, align 8
  store %"class.std::set"* %__r, %"class.std::set"** %__r.addr, align 8
  call void @llvm.dbg.declare(metadata %"class.std::set"** %__r.addr, metadata !4552, metadata !DIExpression()), !dbg !4553
  %0 = load %"class.std::set"*, %"class.std::set"** %__r.addr, align 8, !dbg !4554
  ret %"class.std::set"* %0, !dbg !4555
}

; Function Attrs: noinline nounwind uwtable
define linkonce_odr dso_local void @_ZNSt3setIjSt4lessIjESaIjEED2Ev(%"class.std::set"* %this) unnamed_addr #1 comdat align 2 !dbg !4556 {
entry:
  %this.addr = alloca %"class.std::set"*, align 8
  store %"class.std::set"* %this, %"class.std::set"** %this.addr, align 8
  call void @llvm.dbg.declare(metadata %"class.std::set"** %this.addr, metadata !4557, metadata !DIExpression()), !dbg !4558
  %this1 = load %"class.std::set"*, %"class.std::set"** %this.addr, align 8
  %_M_t = getelementptr inbounds %"class.std::set", %"class.std::set"* %this1, i32 0, i32 0, !dbg !4559
  call void @_ZNSt8_Rb_treeIjjSt9_IdentityIjESt4lessIjESaIjEED2Ev(%"class.std::_Rb_tree"* %_M_t) #4, !dbg !4559
  ret void, !dbg !4561
}

; Function Attrs: noinline nounwind uwtable
define linkonce_odr dso_local void @_ZNSt8_Rb_treeIjjSt9_IdentityIjESt4lessIjESaIjEED2Ev(%"class.std::_Rb_tree"* %this) unnamed_addr #1 comdat align 2 personality i8* bitcast (i32 (...)* @__gxx_personality_v0 to i8*) !dbg !4562 {
entry:
  %this.addr = alloca %"class.std::_Rb_tree"*, align 8
  %exn.slot = alloca i8*
  %ehselector.slot = alloca i32
  store %"class.std::_Rb_tree"* %this, %"class.std::_Rb_tree"** %this.addr, align 8
  call void @llvm.dbg.declare(metadata %"class.std::_Rb_tree"** %this.addr, metadata !4563, metadata !DIExpression()), !dbg !4565
  %this1 = load %"class.std::_Rb_tree"*, %"class.std::_Rb_tree"** %this.addr, align 8
  %call = call %"struct.std::_Rb_tree_node"* @_ZNSt8_Rb_treeIjjSt9_IdentityIjESt4lessIjESaIjEE8_M_beginEv(%"class.std::_Rb_tree"* %this1) #4, !dbg !4566
  invoke void @_ZNSt8_Rb_treeIjjSt9_IdentityIjESt4lessIjESaIjEE8_M_eraseEPSt13_Rb_tree_nodeIjE(%"class.std::_Rb_tree"* %this1, %"struct.std::_Rb_tree_node"* %call)
          to label %invoke.cont unwind label %lpad, !dbg !4568

invoke.cont:                                      ; preds = %entry
  %_M_impl = getelementptr inbounds %"class.std::_Rb_tree", %"class.std::_Rb_tree"* %this1, i32 0, i32 0, !dbg !4569
  call void @_ZNSt8_Rb_treeIjjSt9_IdentityIjESt4lessIjESaIjEE13_Rb_tree_implIS3_Lb1EED2Ev(%"struct.std::_Rb_tree<unsigned int, unsigned int, std::_Identity<unsigned int>, std::less<unsigned int>, std::allocator<unsigned int> >::_Rb_tree_impl"* %_M_impl) #4, !dbg !4569
  ret void, !dbg !4570

lpad:                                             ; preds = %entry
  %0 = landingpad { i8*, i32 }
          catch i8* null, !dbg !4569
  %1 = extractvalue { i8*, i32 } %0, 0, !dbg !4569
  store i8* %1, i8** %exn.slot, align 8, !dbg !4569
  %2 = extractvalue { i8*, i32 } %0, 1, !dbg !4569
  store i32 %2, i32* %ehselector.slot, align 4, !dbg !4569
  %_M_impl2 = getelementptr inbounds %"class.std::_Rb_tree", %"class.std::_Rb_tree"* %this1, i32 0, i32 0, !dbg !4569
  call void @_ZNSt8_Rb_treeIjjSt9_IdentityIjESt4lessIjESaIjEE13_Rb_tree_implIS3_Lb1EED2Ev(%"struct.std::_Rb_tree<unsigned int, unsigned int, std::_Identity<unsigned int>, std::less<unsigned int>, std::allocator<unsigned int> >::_Rb_tree_impl"* %_M_impl2) #4, !dbg !4569
  br label %terminate.handler, !dbg !4569

terminate.handler:                                ; preds = %lpad
  %exn = load i8*, i8** %exn.slot, align 8, !dbg !4569
  call void @__clang_call_terminate(i8* %exn) #13, !dbg !4569
  unreachable, !dbg !4569
}

; Function Attrs: noinline uwtable
define linkonce_odr dso_local void @_ZNSt8_Rb_treeIjjSt9_IdentityIjESt4lessIjESaIjEE8_M_eraseEPSt13_Rb_tree_nodeIjE(%"class.std::_Rb_tree"* %this, %"struct.std::_Rb_tree_node"* %__x) #0 comdat align 2 !dbg !4571 {
entry:
  %this.addr = alloca %"class.std::_Rb_tree"*, align 8
  %__x.addr = alloca %"struct.std::_Rb_tree_node"*, align 8
  %__y = alloca %"struct.std::_Rb_tree_node"*, align 8
  store %"class.std::_Rb_tree"* %this, %"class.std::_Rb_tree"** %this.addr, align 8
  call void @llvm.dbg.declare(metadata %"class.std::_Rb_tree"** %this.addr, metadata !4572, metadata !DIExpression()), !dbg !4573
  store %"struct.std::_Rb_tree_node"* %__x, %"struct.std::_Rb_tree_node"** %__x.addr, align 8
  call void @llvm.dbg.declare(metadata %"struct.std::_Rb_tree_node"** %__x.addr, metadata !4574, metadata !DIExpression()), !dbg !4575
  %this1 = load %"class.std::_Rb_tree"*, %"class.std::_Rb_tree"** %this.addr, align 8
  br label %while.cond, !dbg !4576

while.cond:                                       ; preds = %while.body, %entry
  %0 = load %"struct.std::_Rb_tree_node"*, %"struct.std::_Rb_tree_node"** %__x.addr, align 8, !dbg !4577
  %cmp = icmp ne %"struct.std::_Rb_tree_node"* %0, null, !dbg !4578
  br i1 %cmp, label %while.body, label %while.end, !dbg !4576

while.body:                                       ; preds = %while.cond
  %1 = load %"struct.std::_Rb_tree_node"*, %"struct.std::_Rb_tree_node"** %__x.addr, align 8, !dbg !4579
  %2 = bitcast %"struct.std::_Rb_tree_node"* %1 to %"struct.std::_Rb_tree_node_base"*, !dbg !4579
  %call = call %"struct.std::_Rb_tree_node"* @_ZNSt8_Rb_treeIjjSt9_IdentityIjESt4lessIjESaIjEE8_S_rightEPSt18_Rb_tree_node_base(%"struct.std::_Rb_tree_node_base"* %2) #4, !dbg !4581
  call void @_ZNSt8_Rb_treeIjjSt9_IdentityIjESt4lessIjESaIjEE8_M_eraseEPSt13_Rb_tree_nodeIjE(%"class.std::_Rb_tree"* %this1, %"struct.std::_Rb_tree_node"* %call), !dbg !4582
  call void @llvm.dbg.declare(metadata %"struct.std::_Rb_tree_node"** %__y, metadata !4583, metadata !DIExpression()), !dbg !4584
  %3 = load %"struct.std::_Rb_tree_node"*, %"struct.std::_Rb_tree_node"** %__x.addr, align 8, !dbg !4585
  %4 = bitcast %"struct.std::_Rb_tree_node"* %3 to %"struct.std::_Rb_tree_node_base"*, !dbg !4585
  %call2 = call %"struct.std::_Rb_tree_node"* @_ZNSt8_Rb_treeIjjSt9_IdentityIjESt4lessIjESaIjEE7_S_leftEPSt18_Rb_tree_node_base(%"struct.std::_Rb_tree_node_base"* %4) #4, !dbg !4586
  store %"struct.std::_Rb_tree_node"* %call2, %"struct.std::_Rb_tree_node"** %__y, align 8, !dbg !4584
  %5 = load %"struct.std::_Rb_tree_node"*, %"struct.std::_Rb_tree_node"** %__x.addr, align 8, !dbg !4587
  call void @_ZNSt8_Rb_treeIjjSt9_IdentityIjESt4lessIjESaIjEE12_M_drop_nodeEPSt13_Rb_tree_nodeIjE(%"class.std::_Rb_tree"* %this1, %"struct.std::_Rb_tree_node"* %5) #4, !dbg !4588
  %6 = load %"struct.std::_Rb_tree_node"*, %"struct.std::_Rb_tree_node"** %__y, align 8, !dbg !4589
  store %"struct.std::_Rb_tree_node"* %6, %"struct.std::_Rb_tree_node"** %__x.addr, align 8, !dbg !4590
  br label %while.cond, !dbg !4576, !llvm.loop !4591

while.end:                                        ; preds = %while.cond
  ret void, !dbg !4593
}

; Function Attrs: noinline nounwind uwtable
define linkonce_odr dso_local %"struct.std::_Rb_tree_node"* @_ZNSt8_Rb_treeIjjSt9_IdentityIjESt4lessIjESaIjEE8_M_beginEv(%"class.std::_Rb_tree"* %this) #1 comdat align 2 !dbg !4594 {
entry:
  %this.addr = alloca %"class.std::_Rb_tree"*, align 8
  store %"class.std::_Rb_tree"* %this, %"class.std::_Rb_tree"** %this.addr, align 8
  call void @llvm.dbg.declare(metadata %"class.std::_Rb_tree"** %this.addr, metadata !4595, metadata !DIExpression()), !dbg !4596
  %this1 = load %"class.std::_Rb_tree"*, %"class.std::_Rb_tree"** %this.addr, align 8
  %_M_impl = getelementptr inbounds %"class.std::_Rb_tree", %"class.std::_Rb_tree"* %this1, i32 0, i32 0, !dbg !4597
  %0 = bitcast %"struct.std::_Rb_tree<unsigned int, unsigned int, std::_Identity<unsigned int>, std::less<unsigned int>, std::allocator<unsigned int> >::_Rb_tree_impl"* %_M_impl to i8*, !dbg !4598
  %add.ptr = getelementptr inbounds i8, i8* %0, i64 8, !dbg !4598
  %1 = bitcast i8* %add.ptr to %"struct.std::_Rb_tree_header"*, !dbg !4598
  %_M_header = getelementptr inbounds %"struct.std::_Rb_tree_header", %"struct.std::_Rb_tree_header"* %1, i32 0, i32 0, !dbg !4599
  %_M_parent = getelementptr inbounds %"struct.std::_Rb_tree_node_base", %"struct.std::_Rb_tree_node_base"* %_M_header, i32 0, i32 1, !dbg !4600
  %2 = load %"struct.std::_Rb_tree_node_base"*, %"struct.std::_Rb_tree_node_base"** %_M_parent, align 8, !dbg !4600
  %3 = bitcast %"struct.std::_Rb_tree_node_base"* %2 to %"struct.std::_Rb_tree_node"*, !dbg !4601
  ret %"struct.std::_Rb_tree_node"* %3, !dbg !4602
}

; Function Attrs: noinline nounwind uwtable
define linkonce_odr dso_local void @_ZNSt8_Rb_treeIjjSt9_IdentityIjESt4lessIjESaIjEE13_Rb_tree_implIS3_Lb1EED2Ev(%"struct.std::_Rb_tree<unsigned int, unsigned int, std::_Identity<unsigned int>, std::less<unsigned int>, std::allocator<unsigned int> >::_Rb_tree_impl"* %this) unnamed_addr #1 comdat align 2 !dbg !4603 {
entry:
  %this.addr = alloca %"struct.std::_Rb_tree<unsigned int, unsigned int, std::_Identity<unsigned int>, std::less<unsigned int>, std::allocator<unsigned int> >::_Rb_tree_impl"*, align 8
  store %"struct.std::_Rb_tree<unsigned int, unsigned int, std::_Identity<unsigned int>, std::less<unsigned int>, std::allocator<unsigned int> >::_Rb_tree_impl"* %this, %"struct.std::_Rb_tree<unsigned int, unsigned int, std::_Identity<unsigned int>, std::less<unsigned int>, std::allocator<unsigned int> >::_Rb_tree_impl"** %this.addr, align 8
  call void @llvm.dbg.declare(metadata %"struct.std::_Rb_tree<unsigned int, unsigned int, std::_Identity<unsigned int>, std::less<unsigned int>, std::allocator<unsigned int> >::_Rb_tree_impl"** %this.addr, metadata !4605, metadata !DIExpression()), !dbg !4607
  %this1 = load %"struct.std::_Rb_tree<unsigned int, unsigned int, std::_Identity<unsigned int>, std::less<unsigned int>, std::allocator<unsigned int> >::_Rb_tree_impl"*, %"struct.std::_Rb_tree<unsigned int, unsigned int, std::_Identity<unsigned int>, std::less<unsigned int>, std::allocator<unsigned int> >::_Rb_tree_impl"** %this.addr, align 8
  %0 = bitcast %"struct.std::_Rb_tree<unsigned int, unsigned int, std::_Identity<unsigned int>, std::less<unsigned int>, std::allocator<unsigned int> >::_Rb_tree_impl"* %this1 to %"class.std::allocator.24"*, !dbg !4608
  call void @_ZNSaISt13_Rb_tree_nodeIjEED2Ev(%"class.std::allocator.24"* %0) #4, !dbg !4608
  ret void, !dbg !4610
}

; Function Attrs: noinline nounwind uwtable
define linkonce_odr dso_local %"struct.std::_Rb_tree_node"* @_ZNSt8_Rb_treeIjjSt9_IdentityIjESt4lessIjESaIjEE8_S_rightEPSt18_Rb_tree_node_base(%"struct.std::_Rb_tree_node_base"* %__x) #1 comdat align 2 !dbg !4611 {
entry:
  %__x.addr = alloca %"struct.std::_Rb_tree_node_base"*, align 8
  store %"struct.std::_Rb_tree_node_base"* %__x, %"struct.std::_Rb_tree_node_base"** %__x.addr, align 8
  call void @llvm.dbg.declare(metadata %"struct.std::_Rb_tree_node_base"** %__x.addr, metadata !4612, metadata !DIExpression()), !dbg !4613
  %0 = load %"struct.std::_Rb_tree_node_base"*, %"struct.std::_Rb_tree_node_base"** %__x.addr, align 8, !dbg !4614
  %_M_right = getelementptr inbounds %"struct.std::_Rb_tree_node_base", %"struct.std::_Rb_tree_node_base"* %0, i32 0, i32 3, !dbg !4615
  %1 = load %"struct.std::_Rb_tree_node_base"*, %"struct.std::_Rb_tree_node_base"** %_M_right, align 8, !dbg !4615
  %2 = bitcast %"struct.std::_Rb_tree_node_base"* %1 to %"struct.std::_Rb_tree_node"*, !dbg !4616
  ret %"struct.std::_Rb_tree_node"* %2, !dbg !4617
}

; Function Attrs: noinline nounwind uwtable
define linkonce_odr dso_local %"struct.std::_Rb_tree_node"* @_ZNSt8_Rb_treeIjjSt9_IdentityIjESt4lessIjESaIjEE7_S_leftEPSt18_Rb_tree_node_base(%"struct.std::_Rb_tree_node_base"* %__x) #1 comdat align 2 !dbg !4618 {
entry:
  %__x.addr = alloca %"struct.std::_Rb_tree_node_base"*, align 8
  store %"struct.std::_Rb_tree_node_base"* %__x, %"struct.std::_Rb_tree_node_base"** %__x.addr, align 8
  call void @llvm.dbg.declare(metadata %"struct.std::_Rb_tree_node_base"** %__x.addr, metadata !4619, metadata !DIExpression()), !dbg !4620
  %0 = load %"struct.std::_Rb_tree_node_base"*, %"struct.std::_Rb_tree_node_base"** %__x.addr, align 8, !dbg !4621
  %_M_left = getelementptr inbounds %"struct.std::_Rb_tree_node_base", %"struct.std::_Rb_tree_node_base"* %0, i32 0, i32 2, !dbg !4622
  %1 = load %"struct.std::_Rb_tree_node_base"*, %"struct.std::_Rb_tree_node_base"** %_M_left, align 8, !dbg !4622
  %2 = bitcast %"struct.std::_Rb_tree_node_base"* %1 to %"struct.std::_Rb_tree_node"*, !dbg !4623
  ret %"struct.std::_Rb_tree_node"* %2, !dbg !4624
}

; Function Attrs: noinline nounwind uwtable
define linkonce_odr dso_local void @_ZNSt8_Rb_treeIjjSt9_IdentityIjESt4lessIjESaIjEE12_M_drop_nodeEPSt13_Rb_tree_nodeIjE(%"class.std::_Rb_tree"* %this, %"struct.std::_Rb_tree_node"* %__p) #1 comdat align 2 !dbg !4625 {
entry:
  %this.addr = alloca %"class.std::_Rb_tree"*, align 8
  %__p.addr = alloca %"struct.std::_Rb_tree_node"*, align 8
  store %"class.std::_Rb_tree"* %this, %"class.std::_Rb_tree"** %this.addr, align 8
  call void @llvm.dbg.declare(metadata %"class.std::_Rb_tree"** %this.addr, metadata !4626, metadata !DIExpression()), !dbg !4627
  store %"struct.std::_Rb_tree_node"* %__p, %"struct.std::_Rb_tree_node"** %__p.addr, align 8
  call void @llvm.dbg.declare(metadata %"struct.std::_Rb_tree_node"** %__p.addr, metadata !4628, metadata !DIExpression()), !dbg !4629
  %this1 = load %"class.std::_Rb_tree"*, %"class.std::_Rb_tree"** %this.addr, align 8
  %0 = load %"struct.std::_Rb_tree_node"*, %"struct.std::_Rb_tree_node"** %__p.addr, align 8, !dbg !4630
  call void @_ZNSt8_Rb_treeIjjSt9_IdentityIjESt4lessIjESaIjEE15_M_destroy_nodeEPSt13_Rb_tree_nodeIjE(%"class.std::_Rb_tree"* %this1, %"struct.std::_Rb_tree_node"* %0) #4, !dbg !4631
  %1 = load %"struct.std::_Rb_tree_node"*, %"struct.std::_Rb_tree_node"** %__p.addr, align 8, !dbg !4632
  call void @_ZNSt8_Rb_treeIjjSt9_IdentityIjESt4lessIjESaIjEE11_M_put_nodeEPSt13_Rb_tree_nodeIjE(%"class.std::_Rb_tree"* %this1, %"struct.std::_Rb_tree_node"* %1) #4, !dbg !4633
  ret void, !dbg !4634
}

; Function Attrs: noinline nounwind uwtable
define linkonce_odr dso_local void @_ZNSt8_Rb_treeIjjSt9_IdentityIjESt4lessIjESaIjEE15_M_destroy_nodeEPSt13_Rb_tree_nodeIjE(%"class.std::_Rb_tree"* %this, %"struct.std::_Rb_tree_node"* %__p) #1 comdat align 2 personality i8* bitcast (i32 (...)* @__gxx_personality_v0 to i8*) !dbg !4635 {
entry:
  %this.addr = alloca %"class.std::_Rb_tree"*, align 8
  %__p.addr = alloca %"struct.std::_Rb_tree_node"*, align 8
  store %"class.std::_Rb_tree"* %this, %"class.std::_Rb_tree"** %this.addr, align 8
  call void @llvm.dbg.declare(metadata %"class.std::_Rb_tree"** %this.addr, metadata !4636, metadata !DIExpression()), !dbg !4637
  store %"struct.std::_Rb_tree_node"* %__p, %"struct.std::_Rb_tree_node"** %__p.addr, align 8
  call void @llvm.dbg.declare(metadata %"struct.std::_Rb_tree_node"** %__p.addr, metadata !4638, metadata !DIExpression()), !dbg !4639
  %this1 = load %"class.std::_Rb_tree"*, %"class.std::_Rb_tree"** %this.addr, align 8
  %call = call dereferenceable(1) %"class.std::allocator.24"* @_ZNSt8_Rb_treeIjjSt9_IdentityIjESt4lessIjESaIjEE21_M_get_Node_allocatorEv(%"class.std::_Rb_tree"* %this1) #4, !dbg !4640
  %0 = load %"struct.std::_Rb_tree_node"*, %"struct.std::_Rb_tree_node"** %__p.addr, align 8, !dbg !4641
  %call2 = invoke i32* @_ZNSt13_Rb_tree_nodeIjE9_M_valptrEv(%"struct.std::_Rb_tree_node"* %0)
          to label %invoke.cont unwind label %terminate.lpad, !dbg !4642

invoke.cont:                                      ; preds = %entry
  call void @_ZNSt16allocator_traitsISaISt13_Rb_tree_nodeIjEEE7destroyIjEEvRS2_PT_(%"class.std::allocator.24"* dereferenceable(1) %call, i32* %call2) #4, !dbg !4643
  %1 = load %"struct.std::_Rb_tree_node"*, %"struct.std::_Rb_tree_node"** %__p.addr, align 8, !dbg !4644
  ret void, !dbg !4645

terminate.lpad:                                   ; preds = %entry
  %2 = landingpad { i8*, i32 }
          catch i8* null, !dbg !4642
  %3 = extractvalue { i8*, i32 } %2, 0, !dbg !4642
  call void @__clang_call_terminate(i8* %3) #13, !dbg !4642
  unreachable, !dbg !4642
}

; Function Attrs: noinline nounwind uwtable
define linkonce_odr dso_local void @_ZNSt8_Rb_treeIjjSt9_IdentityIjESt4lessIjESaIjEE11_M_put_nodeEPSt13_Rb_tree_nodeIjE(%"class.std::_Rb_tree"* %this, %"struct.std::_Rb_tree_node"* %__p) #1 comdat align 2 personality i8* bitcast (i32 (...)* @__gxx_personality_v0 to i8*) !dbg !4646 {
entry:
  %this.addr = alloca %"class.std::_Rb_tree"*, align 8
  %__p.addr = alloca %"struct.std::_Rb_tree_node"*, align 8
  store %"class.std::_Rb_tree"* %this, %"class.std::_Rb_tree"** %this.addr, align 8
  call void @llvm.dbg.declare(metadata %"class.std::_Rb_tree"** %this.addr, metadata !4647, metadata !DIExpression()), !dbg !4648
  store %"struct.std::_Rb_tree_node"* %__p, %"struct.std::_Rb_tree_node"** %__p.addr, align 8
  call void @llvm.dbg.declare(metadata %"struct.std::_Rb_tree_node"** %__p.addr, metadata !4649, metadata !DIExpression()), !dbg !4650
  %this1 = load %"class.std::_Rb_tree"*, %"class.std::_Rb_tree"** %this.addr, align 8
  %call = call dereferenceable(1) %"class.std::allocator.24"* @_ZNSt8_Rb_treeIjjSt9_IdentityIjESt4lessIjESaIjEE21_M_get_Node_allocatorEv(%"class.std::_Rb_tree"* %this1) #4, !dbg !4651
  %0 = load %"struct.std::_Rb_tree_node"*, %"struct.std::_Rb_tree_node"** %__p.addr, align 8, !dbg !4652
  invoke void @_ZNSt16allocator_traitsISaISt13_Rb_tree_nodeIjEEE10deallocateERS2_PS1_m(%"class.std::allocator.24"* dereferenceable(1) %call, %"struct.std::_Rb_tree_node"* %0, i64 1)
          to label %invoke.cont unwind label %terminate.lpad, !dbg !4653

invoke.cont:                                      ; preds = %entry
  ret void, !dbg !4654

terminate.lpad:                                   ; preds = %entry
  %1 = landingpad { i8*, i32 }
          catch i8* null, !dbg !4653
  %2 = extractvalue { i8*, i32 } %1, 0, !dbg !4653
  call void @__clang_call_terminate(i8* %2) #13, !dbg !4653
  unreachable, !dbg !4653
}

; Function Attrs: noinline nounwind uwtable
define linkonce_odr dso_local void @_ZNSt16allocator_traitsISaISt13_Rb_tree_nodeIjEEE7destroyIjEEvRS2_PT_(%"class.std::allocator.24"* dereferenceable(1) %__a, i32* %__p) #1 comdat align 2 !dbg !4655 {
entry:
  %__a.addr = alloca %"class.std::allocator.24"*, align 8
  %__p.addr = alloca i32*, align 8
  store %"class.std::allocator.24"* %__a, %"class.std::allocator.24"** %__a.addr, align 8
  call void @llvm.dbg.declare(metadata %"class.std::allocator.24"** %__a.addr, metadata !4686, metadata !DIExpression()), !dbg !4687
  store i32* %__p, i32** %__p.addr, align 8
  call void @llvm.dbg.declare(metadata i32** %__p.addr, metadata !4688, metadata !DIExpression()), !dbg !4689
  %0 = load %"class.std::allocator.24"*, %"class.std::allocator.24"** %__a.addr, align 8, !dbg !4690
  %1 = bitcast %"class.std::allocator.24"* %0 to %"class.__gnu_cxx::new_allocator.25"*, !dbg !4690
  %2 = load i32*, i32** %__p.addr, align 8, !dbg !4691
  call void @_ZN9__gnu_cxx13new_allocatorISt13_Rb_tree_nodeIjEE7destroyIjEEvPT_(%"class.__gnu_cxx::new_allocator.25"* %1, i32* %2) #4, !dbg !4692
  ret void, !dbg !4693
}

; Function Attrs: noinline nounwind uwtable
define linkonce_odr dso_local dereferenceable(1) %"class.std::allocator.24"* @_ZNSt8_Rb_treeIjjSt9_IdentityIjESt4lessIjESaIjEE21_M_get_Node_allocatorEv(%"class.std::_Rb_tree"* %this) #1 comdat align 2 !dbg !4694 {
entry:
  %this.addr = alloca %"class.std::_Rb_tree"*, align 8
  store %"class.std::_Rb_tree"* %this, %"class.std::_Rb_tree"** %this.addr, align 8
  call void @llvm.dbg.declare(metadata %"class.std::_Rb_tree"** %this.addr, metadata !4695, metadata !DIExpression()), !dbg !4696
  %this1 = load %"class.std::_Rb_tree"*, %"class.std::_Rb_tree"** %this.addr, align 8
  %_M_impl = getelementptr inbounds %"class.std::_Rb_tree", %"class.std::_Rb_tree"* %this1, i32 0, i32 0, !dbg !4697
  %0 = bitcast %"struct.std::_Rb_tree<unsigned int, unsigned int, std::_Identity<unsigned int>, std::less<unsigned int>, std::allocator<unsigned int> >::_Rb_tree_impl"* %_M_impl to %"class.std::allocator.24"*, !dbg !4698
  ret %"class.std::allocator.24"* %0, !dbg !4699
}

; Function Attrs: noinline nounwind uwtable
define linkonce_odr dso_local i32* @_ZNSt13_Rb_tree_nodeIjE9_M_valptrEv(%"struct.std::_Rb_tree_node"* %this) #1 comdat align 2 !dbg !4700 {
entry:
  %this.addr = alloca %"struct.std::_Rb_tree_node"*, align 8
  store %"struct.std::_Rb_tree_node"* %this, %"struct.std::_Rb_tree_node"** %this.addr, align 8
  call void @llvm.dbg.declare(metadata %"struct.std::_Rb_tree_node"** %this.addr, metadata !4701, metadata !DIExpression()), !dbg !4702
  %this1 = load %"struct.std::_Rb_tree_node"*, %"struct.std::_Rb_tree_node"** %this.addr, align 8
  %_M_storage = getelementptr inbounds %"struct.std::_Rb_tree_node", %"struct.std::_Rb_tree_node"* %this1, i32 0, i32 1, !dbg !4703
  %call = call i32* @_ZN9__gnu_cxx16__aligned_membufIjE6_M_ptrEv(%"struct.__gnu_cxx::__aligned_membuf"* %_M_storage) #4, !dbg !4704
  ret i32* %call, !dbg !4705
}

; Function Attrs: noinline nounwind uwtable
define linkonce_odr dso_local void @_ZN9__gnu_cxx13new_allocatorISt13_Rb_tree_nodeIjEE7destroyIjEEvPT_(%"class.__gnu_cxx::new_allocator.25"* %this, i32* %__p) #1 comdat align 2 !dbg !4706 {
entry:
  %this.addr = alloca %"class.__gnu_cxx::new_allocator.25"*, align 8
  %__p.addr = alloca i32*, align 8
  store %"class.__gnu_cxx::new_allocator.25"* %this, %"class.__gnu_cxx::new_allocator.25"** %this.addr, align 8
  call void @llvm.dbg.declare(metadata %"class.__gnu_cxx::new_allocator.25"** %this.addr, metadata !4710, metadata !DIExpression()), !dbg !4712
  store i32* %__p, i32** %__p.addr, align 8
  call void @llvm.dbg.declare(metadata i32** %__p.addr, metadata !4713, metadata !DIExpression()), !dbg !4714
  %this1 = load %"class.__gnu_cxx::new_allocator.25"*, %"class.__gnu_cxx::new_allocator.25"** %this.addr, align 8
  ret void, !dbg !4715
}

; Function Attrs: noinline nounwind uwtable
define linkonce_odr dso_local i32* @_ZN9__gnu_cxx16__aligned_membufIjE6_M_ptrEv(%"struct.__gnu_cxx::__aligned_membuf"* %this) #1 comdat align 2 !dbg !4716 {
entry:
  %this.addr = alloca %"struct.__gnu_cxx::__aligned_membuf"*, align 8
  store %"struct.__gnu_cxx::__aligned_membuf"* %this, %"struct.__gnu_cxx::__aligned_membuf"** %this.addr, align 8
  call void @llvm.dbg.declare(metadata %"struct.__gnu_cxx::__aligned_membuf"** %this.addr, metadata !4717, metadata !DIExpression()), !dbg !4719
  %this1 = load %"struct.__gnu_cxx::__aligned_membuf"*, %"struct.__gnu_cxx::__aligned_membuf"** %this.addr, align 8
  %call = call i8* @_ZN9__gnu_cxx16__aligned_membufIjE7_M_addrEv(%"struct.__gnu_cxx::__aligned_membuf"* %this1) #4, !dbg !4720
  %0 = bitcast i8* %call to i32*, !dbg !4721
  ret i32* %0, !dbg !4722
}

; Function Attrs: noinline nounwind uwtable
define linkonce_odr dso_local i8* @_ZN9__gnu_cxx16__aligned_membufIjE7_M_addrEv(%"struct.__gnu_cxx::__aligned_membuf"* %this) #1 comdat align 2 !dbg !4723 {
entry:
  %this.addr = alloca %"struct.__gnu_cxx::__aligned_membuf"*, align 8
  store %"struct.__gnu_cxx::__aligned_membuf"* %this, %"struct.__gnu_cxx::__aligned_membuf"** %this.addr, align 8
  call void @llvm.dbg.declare(metadata %"struct.__gnu_cxx::__aligned_membuf"** %this.addr, metadata !4724, metadata !DIExpression()), !dbg !4725
  %this1 = load %"struct.__gnu_cxx::__aligned_membuf"*, %"struct.__gnu_cxx::__aligned_membuf"** %this.addr, align 8
  %_M_storage = getelementptr inbounds %"struct.__gnu_cxx::__aligned_membuf", %"struct.__gnu_cxx::__aligned_membuf"* %this1, i32 0, i32 0, !dbg !4726
  %0 = bitcast [4 x i8]* %_M_storage to i8*, !dbg !4727
  ret i8* %0, !dbg !4728
}

; Function Attrs: noinline uwtable
define linkonce_odr dso_local void @_ZNSt16allocator_traitsISaISt13_Rb_tree_nodeIjEEE10deallocateERS2_PS1_m(%"class.std::allocator.24"* dereferenceable(1) %__a, %"struct.std::_Rb_tree_node"* %__p, i64 %__n) #0 comdat align 2 !dbg !4729 {
entry:
  %__a.addr = alloca %"class.std::allocator.24"*, align 8
  %__p.addr = alloca %"struct.std::_Rb_tree_node"*, align 8
  %__n.addr = alloca i64, align 8
  store %"class.std::allocator.24"* %__a, %"class.std::allocator.24"** %__a.addr, align 8
  call void @llvm.dbg.declare(metadata %"class.std::allocator.24"** %__a.addr, metadata !4730, metadata !DIExpression()), !dbg !4731
  store %"struct.std::_Rb_tree_node"* %__p, %"struct.std::_Rb_tree_node"** %__p.addr, align 8
  call void @llvm.dbg.declare(metadata %"struct.std::_Rb_tree_node"** %__p.addr, metadata !4732, metadata !DIExpression()), !dbg !4733
  store i64 %__n, i64* %__n.addr, align 8
  call void @llvm.dbg.declare(metadata i64* %__n.addr, metadata !4734, metadata !DIExpression()), !dbg !4735
  %0 = load %"class.std::allocator.24"*, %"class.std::allocator.24"** %__a.addr, align 8, !dbg !4736
  %1 = bitcast %"class.std::allocator.24"* %0 to %"class.__gnu_cxx::new_allocator.25"*, !dbg !4736
  %2 = load %"struct.std::_Rb_tree_node"*, %"struct.std::_Rb_tree_node"** %__p.addr, align 8, !dbg !4737
  %3 = load i64, i64* %__n.addr, align 8, !dbg !4738
  call void @_ZN9__gnu_cxx13new_allocatorISt13_Rb_tree_nodeIjEE10deallocateEPS2_m(%"class.__gnu_cxx::new_allocator.25"* %1, %"struct.std::_Rb_tree_node"* %2, i64 %3), !dbg !4739
  ret void, !dbg !4740
}

; Function Attrs: noinline nounwind uwtable
define linkonce_odr dso_local void @_ZN9__gnu_cxx13new_allocatorISt13_Rb_tree_nodeIjEE10deallocateEPS2_m(%"class.__gnu_cxx::new_allocator.25"* %this, %"struct.std::_Rb_tree_node"* %__p, i64 %__t) #1 comdat align 2 !dbg !4741 {
entry:
  %this.addr = alloca %"class.__gnu_cxx::new_allocator.25"*, align 8
  %__p.addr = alloca %"struct.std::_Rb_tree_node"*, align 8
  %__t.addr = alloca i64, align 8
  store %"class.__gnu_cxx::new_allocator.25"* %this, %"class.__gnu_cxx::new_allocator.25"** %this.addr, align 8
  call void @llvm.dbg.declare(metadata %"class.__gnu_cxx::new_allocator.25"** %this.addr, metadata !4742, metadata !DIExpression()), !dbg !4743
  store %"struct.std::_Rb_tree_node"* %__p, %"struct.std::_Rb_tree_node"** %__p.addr, align 8
  call void @llvm.dbg.declare(metadata %"struct.std::_Rb_tree_node"** %__p.addr, metadata !4744, metadata !DIExpression()), !dbg !4745
  store i64 %__t, i64* %__t.addr, align 8
  call void @llvm.dbg.declare(metadata i64* %__t.addr, metadata !4746, metadata !DIExpression()), !dbg !4747
  %this1 = load %"class.__gnu_cxx::new_allocator.25"*, %"class.__gnu_cxx::new_allocator.25"** %this.addr, align 8
  %0 = load %"struct.std::_Rb_tree_node"*, %"struct.std::_Rb_tree_node"** %__p.addr, align 8, !dbg !4748
  %1 = bitcast %"struct.std::_Rb_tree_node"* %0 to i8*, !dbg !4748
  call void @_ZdlPv(i8* %1) #4, !dbg !4749
  ret void, !dbg !4750
}

; Function Attrs: noinline nounwind uwtable
define linkonce_odr dso_local void @_ZNSaISt13_Rb_tree_nodeIjEED2Ev(%"class.std::allocator.24"* %this) unnamed_addr #1 comdat align 2 !dbg !4751 {
entry:
  %this.addr = alloca %"class.std::allocator.24"*, align 8
  store %"class.std::allocator.24"* %this, %"class.std::allocator.24"** %this.addr, align 8
  call void @llvm.dbg.declare(metadata %"class.std::allocator.24"** %this.addr, metadata !4752, metadata !DIExpression()), !dbg !4754
  %this1 = load %"class.std::allocator.24"*, %"class.std::allocator.24"** %this.addr, align 8
  %0 = bitcast %"class.std::allocator.24"* %this1 to %"class.__gnu_cxx::new_allocator.25"*, !dbg !4755
  call void @_ZN9__gnu_cxx13new_allocatorISt13_Rb_tree_nodeIjEED2Ev(%"class.__gnu_cxx::new_allocator.25"* %0) #4, !dbg !4755
  ret void, !dbg !4757
}

; Function Attrs: noinline nounwind uwtable
define linkonce_odr dso_local void @_ZN9__gnu_cxx13new_allocatorISt13_Rb_tree_nodeIjEED2Ev(%"class.__gnu_cxx::new_allocator.25"* %this) unnamed_addr #1 comdat align 2 !dbg !4758 {
entry:
  %this.addr = alloca %"class.__gnu_cxx::new_allocator.25"*, align 8
  store %"class.__gnu_cxx::new_allocator.25"* %this, %"class.__gnu_cxx::new_allocator.25"** %this.addr, align 8
  call void @llvm.dbg.declare(metadata %"class.__gnu_cxx::new_allocator.25"** %this.addr, metadata !4759, metadata !DIExpression()), !dbg !4760
  %this1 = load %"class.__gnu_cxx::new_allocator.25"*, %"class.__gnu_cxx::new_allocator.25"** %this.addr, align 8
  ret void, !dbg !4761
}

; Function Attrs: noinline uwtable
define linkonce_odr dso_local void @_ZNSt12_Vector_baseISt3setIjSt4lessIjESaIjEESaIS4_EE13_M_deallocateEPS4_m(%"struct.std::_Vector_base.20"* %this, %"class.std::set"* %__p, i64 %__n) #0 comdat align 2 !dbg !4762 {
entry:
  %this.addr = alloca %"struct.std::_Vector_base.20"*, align 8
  %__p.addr = alloca %"class.std::set"*, align 8
  %__n.addr = alloca i64, align 8
  store %"struct.std::_Vector_base.20"* %this, %"struct.std::_Vector_base.20"** %this.addr, align 8
  call void @llvm.dbg.declare(metadata %"struct.std::_Vector_base.20"** %this.addr, metadata !4763, metadata !DIExpression()), !dbg !4764
  store %"class.std::set"* %__p, %"class.std::set"** %__p.addr, align 8
  call void @llvm.dbg.declare(metadata %"class.std::set"** %__p.addr, metadata !4765, metadata !DIExpression()), !dbg !4766
  store i64 %__n, i64* %__n.addr, align 8
  call void @llvm.dbg.declare(metadata i64* %__n.addr, metadata !4767, metadata !DIExpression()), !dbg !4768
  %this1 = load %"struct.std::_Vector_base.20"*, %"struct.std::_Vector_base.20"** %this.addr, align 8
  %0 = load %"class.std::set"*, %"class.std::set"** %__p.addr, align 8, !dbg !4769
  %tobool = icmp ne %"class.std::set"* %0, null, !dbg !4769
  br i1 %tobool, label %if.then, label %if.end, !dbg !4771

if.then:                                          ; preds = %entry
  %_M_impl = getelementptr inbounds %"struct.std::_Vector_base.20", %"struct.std::_Vector_base.20"* %this1, i32 0, i32 0, !dbg !4772
  %1 = bitcast %"struct.std::_Vector_base<std::set<unsigned int, std::less<unsigned int>, std::allocator<unsigned int> >, std::allocator<std::set<unsigned int, std::less<unsigned int>, std::allocator<unsigned int> > > >::_Vector_impl"* %_M_impl to %"class.std::allocator.21"*, !dbg !4772
  %2 = load %"class.std::set"*, %"class.std::set"** %__p.addr, align 8, !dbg !4773
  %3 = load i64, i64* %__n.addr, align 8, !dbg !4774
  call void @_ZNSt16allocator_traitsISaISt3setIjSt4lessIjESaIjEEEE10deallocateERS5_PS4_m(%"class.std::allocator.21"* dereferenceable(1) %1, %"class.std::set"* %2, i64 %3), !dbg !4775
  br label %if.end, !dbg !4775

if.end:                                           ; preds = %if.then, %entry
  ret void, !dbg !4776
}

; Function Attrs: noinline nounwind uwtable
define linkonce_odr dso_local void @_ZNSt12_Vector_baseISt3setIjSt4lessIjESaIjEESaIS4_EE12_Vector_implD2Ev(%"struct.std::_Vector_base<std::set<unsigned int, std::less<unsigned int>, std::allocator<unsigned int> >, std::allocator<std::set<unsigned int, std::less<unsigned int>, std::allocator<unsigned int> > > >::_Vector_impl"* %this) unnamed_addr #1 comdat align 2 !dbg !4777 {
entry:
  %this.addr = alloca %"struct.std::_Vector_base<std::set<unsigned int, std::less<unsigned int>, std::allocator<unsigned int> >, std::allocator<std::set<unsigned int, std::less<unsigned int>, std::allocator<unsigned int> > > >::_Vector_impl"*, align 8
  store %"struct.std::_Vector_base<std::set<unsigned int, std::less<unsigned int>, std::allocator<unsigned int> >, std::allocator<std::set<unsigned int, std::less<unsigned int>, std::allocator<unsigned int> > > >::_Vector_impl"* %this, %"struct.std::_Vector_base<std::set<unsigned int, std::less<unsigned int>, std::allocator<unsigned int> >, std::allocator<std::set<unsigned int, std::less<unsigned int>, std::allocator<unsigned int> > > >::_Vector_impl"** %this.addr, align 8
  call void @llvm.dbg.declare(metadata %"struct.std::_Vector_base<std::set<unsigned int, std::less<unsigned int>, std::allocator<unsigned int> >, std::allocator<std::set<unsigned int, std::less<unsigned int>, std::allocator<unsigned int> > > >::_Vector_impl"** %this.addr, metadata !4779, metadata !DIExpression()), !dbg !4781
  %this1 = load %"struct.std::_Vector_base<std::set<unsigned int, std::less<unsigned int>, std::allocator<unsigned int> >, std::allocator<std::set<unsigned int, std::less<unsigned int>, std::allocator<unsigned int> > > >::_Vector_impl"*, %"struct.std::_Vector_base<std::set<unsigned int, std::less<unsigned int>, std::allocator<unsigned int> >, std::allocator<std::set<unsigned int, std::less<unsigned int>, std::allocator<unsigned int> > > >::_Vector_impl"** %this.addr, align 8
  %0 = bitcast %"struct.std::_Vector_base<std::set<unsigned int, std::less<unsigned int>, std::allocator<unsigned int> >, std::allocator<std::set<unsigned int, std::less<unsigned int>, std::allocator<unsigned int> > > >::_Vector_impl"* %this1 to %"class.std::allocator.21"*, !dbg !4782
  call void @_ZNSaISt3setIjSt4lessIjESaIjEEED2Ev(%"class.std::allocator.21"* %0) #4, !dbg !4782
  ret void, !dbg !4784
}

; Function Attrs: noinline uwtable
define linkonce_odr dso_local void @_ZNSt16allocator_traitsISaISt3setIjSt4lessIjESaIjEEEE10deallocateERS5_PS4_m(%"class.std::allocator.21"* dereferenceable(1) %__a, %"class.std::set"* %__p, i64 %__n) #0 comdat align 2 !dbg !4785 {
entry:
  %__a.addr = alloca %"class.std::allocator.21"*, align 8
  %__p.addr = alloca %"class.std::set"*, align 8
  %__n.addr = alloca i64, align 8
  store %"class.std::allocator.21"* %__a, %"class.std::allocator.21"** %__a.addr, align 8
  call void @llvm.dbg.declare(metadata %"class.std::allocator.21"** %__a.addr, metadata !4786, metadata !DIExpression()), !dbg !4787
  store %"class.std::set"* %__p, %"class.std::set"** %__p.addr, align 8
  call void @llvm.dbg.declare(metadata %"class.std::set"** %__p.addr, metadata !4788, metadata !DIExpression()), !dbg !4789
  store i64 %__n, i64* %__n.addr, align 8
  call void @llvm.dbg.declare(metadata i64* %__n.addr, metadata !4790, metadata !DIExpression()), !dbg !4791
  %0 = load %"class.std::allocator.21"*, %"class.std::allocator.21"** %__a.addr, align 8, !dbg !4792
  %1 = bitcast %"class.std::allocator.21"* %0 to %"class.__gnu_cxx::new_allocator.22"*, !dbg !4792
  %2 = load %"class.std::set"*, %"class.std::set"** %__p.addr, align 8, !dbg !4793
  %3 = load i64, i64* %__n.addr, align 8, !dbg !4794
  call void @_ZN9__gnu_cxx13new_allocatorISt3setIjSt4lessIjESaIjEEE10deallocateEPS5_m(%"class.__gnu_cxx::new_allocator.22"* %1, %"class.std::set"* %2, i64 %3), !dbg !4795
  ret void, !dbg !4796
}

; Function Attrs: noinline nounwind uwtable
define linkonce_odr dso_local void @_ZN9__gnu_cxx13new_allocatorISt3setIjSt4lessIjESaIjEEE10deallocateEPS5_m(%"class.__gnu_cxx::new_allocator.22"* %this, %"class.std::set"* %__p, i64 %__t) #1 comdat align 2 !dbg !4797 {
entry:
  %this.addr = alloca %"class.__gnu_cxx::new_allocator.22"*, align 8
  %__p.addr = alloca %"class.std::set"*, align 8
  %__t.addr = alloca i64, align 8
  store %"class.__gnu_cxx::new_allocator.22"* %this, %"class.__gnu_cxx::new_allocator.22"** %this.addr, align 8
  call void @llvm.dbg.declare(metadata %"class.__gnu_cxx::new_allocator.22"** %this.addr, metadata !4798, metadata !DIExpression()), !dbg !4800
  store %"class.std::set"* %__p, %"class.std::set"** %__p.addr, align 8
  call void @llvm.dbg.declare(metadata %"class.std::set"** %__p.addr, metadata !4801, metadata !DIExpression()), !dbg !4802
  store i64 %__t, i64* %__t.addr, align 8
  call void @llvm.dbg.declare(metadata i64* %__t.addr, metadata !4803, metadata !DIExpression()), !dbg !4804
  %this1 = load %"class.__gnu_cxx::new_allocator.22"*, %"class.__gnu_cxx::new_allocator.22"** %this.addr, align 8
  %0 = load %"class.std::set"*, %"class.std::set"** %__p.addr, align 8, !dbg !4805
  %1 = bitcast %"class.std::set"* %0 to i8*, !dbg !4805
  call void @_ZdlPv(i8* %1) #4, !dbg !4806
  ret void, !dbg !4807
}

; Function Attrs: noinline nounwind uwtable
define linkonce_odr dso_local void @_ZNSaISt3setIjSt4lessIjESaIjEEED2Ev(%"class.std::allocator.21"* %this) unnamed_addr #1 comdat align 2 !dbg !4808 {
entry:
  %this.addr = alloca %"class.std::allocator.21"*, align 8
  store %"class.std::allocator.21"* %this, %"class.std::allocator.21"** %this.addr, align 8
  call void @llvm.dbg.declare(metadata %"class.std::allocator.21"** %this.addr, metadata !4809, metadata !DIExpression()), !dbg !4811
  %this1 = load %"class.std::allocator.21"*, %"class.std::allocator.21"** %this.addr, align 8
  %0 = bitcast %"class.std::allocator.21"* %this1 to %"class.__gnu_cxx::new_allocator.22"*, !dbg !4812
  call void @_ZN9__gnu_cxx13new_allocatorISt3setIjSt4lessIjESaIjEEED2Ev(%"class.__gnu_cxx::new_allocator.22"* %0) #4, !dbg !4812
  ret void, !dbg !4814
}

; Function Attrs: noinline nounwind uwtable
define linkonce_odr dso_local void @_ZN9__gnu_cxx13new_allocatorISt3setIjSt4lessIjESaIjEEED2Ev(%"class.__gnu_cxx::new_allocator.22"* %this) unnamed_addr #1 comdat align 2 !dbg !4815 {
entry:
  %this.addr = alloca %"class.__gnu_cxx::new_allocator.22"*, align 8
  store %"class.__gnu_cxx::new_allocator.22"* %this, %"class.__gnu_cxx::new_allocator.22"** %this.addr, align 8
  call void @llvm.dbg.declare(metadata %"class.__gnu_cxx::new_allocator.22"** %this.addr, metadata !4816, metadata !DIExpression()), !dbg !4817
  %this1 = load %"class.__gnu_cxx::new_allocator.22"*, %"class.__gnu_cxx::new_allocator.22"** %this.addr, align 8
  ret void, !dbg !4818
}

; Function Attrs: noinline uwtable
define linkonce_odr dso_local void @_ZSt8_DestroyIPjjEvT_S1_RSaIT0_E(i32* %__first, i32* %__last, %"class.std::allocator.16"* dereferenceable(1) %0) #0 comdat !dbg !4819 {
entry:
  %__first.addr = alloca i32*, align 8
  %__last.addr = alloca i32*, align 8
  %.addr = alloca %"class.std::allocator.16"*, align 8
  store i32* %__first, i32** %__first.addr, align 8
  call void @llvm.dbg.declare(metadata i32** %__first.addr, metadata !4824, metadata !DIExpression()), !dbg !4825
  store i32* %__last, i32** %__last.addr, align 8
  call void @llvm.dbg.declare(metadata i32** %__last.addr, metadata !4826, metadata !DIExpression()), !dbg !4827
  store %"class.std::allocator.16"* %0, %"class.std::allocator.16"** %.addr, align 8
  call void @llvm.dbg.declare(metadata %"class.std::allocator.16"** %.addr, metadata !4828, metadata !DIExpression()), !dbg !4829
  %1 = load i32*, i32** %__first.addr, align 8, !dbg !4830
  %2 = load i32*, i32** %__last.addr, align 8, !dbg !4831
  call void @_ZSt8_DestroyIPjEvT_S1_(i32* %1, i32* %2), !dbg !4832
  ret void, !dbg !4833
}

; Function Attrs: noinline nounwind uwtable
define linkonce_odr dso_local dereferenceable(1) %"class.std::allocator.16"* @_ZNSt12_Vector_baseIjSaIjEE19_M_get_Tp_allocatorEv(%"struct.std::_Vector_base"* %this) #1 comdat align 2 !dbg !4834 {
entry:
  %this.addr = alloca %"struct.std::_Vector_base"*, align 8
  store %"struct.std::_Vector_base"* %this, %"struct.std::_Vector_base"** %this.addr, align 8
  call void @llvm.dbg.declare(metadata %"struct.std::_Vector_base"** %this.addr, metadata !4835, metadata !DIExpression()), !dbg !4837
  %this1 = load %"struct.std::_Vector_base"*, %"struct.std::_Vector_base"** %this.addr, align 8
  %_M_impl = getelementptr inbounds %"struct.std::_Vector_base", %"struct.std::_Vector_base"* %this1, i32 0, i32 0, !dbg !4838
  %0 = bitcast %"struct.std::_Vector_base<unsigned int, std::allocator<unsigned int> >::_Vector_impl"* %_M_impl to %"class.std::allocator.16"*, !dbg !4839
  ret %"class.std::allocator.16"* %0, !dbg !4840
}

; Function Attrs: noinline nounwind uwtable
define linkonce_odr dso_local void @_ZNSt12_Vector_baseIjSaIjEED2Ev(%"struct.std::_Vector_base"* %this) unnamed_addr #1 comdat align 2 personality i8* bitcast (i32 (...)* @__gxx_personality_v0 to i8*) !dbg !4841 {
entry:
  %this.addr = alloca %"struct.std::_Vector_base"*, align 8
  %exn.slot = alloca i8*
  %ehselector.slot = alloca i32
  store %"struct.std::_Vector_base"* %this, %"struct.std::_Vector_base"** %this.addr, align 8
  call void @llvm.dbg.declare(metadata %"struct.std::_Vector_base"** %this.addr, metadata !4842, metadata !DIExpression()), !dbg !4843
  %this1 = load %"struct.std::_Vector_base"*, %"struct.std::_Vector_base"** %this.addr, align 8
  %_M_impl = getelementptr inbounds %"struct.std::_Vector_base", %"struct.std::_Vector_base"* %this1, i32 0, i32 0, !dbg !4844
  %0 = bitcast %"struct.std::_Vector_base<unsigned int, std::allocator<unsigned int> >::_Vector_impl"* %_M_impl to %"struct.std::_Vector_base<unsigned int, std::allocator<unsigned int> >::_Vector_impl_data"*, !dbg !4844
  %_M_start = getelementptr inbounds %"struct.std::_Vector_base<unsigned int, std::allocator<unsigned int> >::_Vector_impl_data", %"struct.std::_Vector_base<unsigned int, std::allocator<unsigned int> >::_Vector_impl_data"* %0, i32 0, i32 0, !dbg !4846
  %1 = load i32*, i32** %_M_start, align 8, !dbg !4846
  %_M_impl2 = getelementptr inbounds %"struct.std::_Vector_base", %"struct.std::_Vector_base"* %this1, i32 0, i32 0, !dbg !4847
  %2 = bitcast %"struct.std::_Vector_base<unsigned int, std::allocator<unsigned int> >::_Vector_impl"* %_M_impl2 to %"struct.std::_Vector_base<unsigned int, std::allocator<unsigned int> >::_Vector_impl_data"*, !dbg !4847
  %_M_end_of_storage = getelementptr inbounds %"struct.std::_Vector_base<unsigned int, std::allocator<unsigned int> >::_Vector_impl_data", %"struct.std::_Vector_base<unsigned int, std::allocator<unsigned int> >::_Vector_impl_data"* %2, i32 0, i32 2, !dbg !4848
  %3 = load i32*, i32** %_M_end_of_storage, align 8, !dbg !4848
  %_M_impl3 = getelementptr inbounds %"struct.std::_Vector_base", %"struct.std::_Vector_base"* %this1, i32 0, i32 0, !dbg !4849
  %4 = bitcast %"struct.std::_Vector_base<unsigned int, std::allocator<unsigned int> >::_Vector_impl"* %_M_impl3 to %"struct.std::_Vector_base<unsigned int, std::allocator<unsigned int> >::_Vector_impl_data"*, !dbg !4849
  %_M_start4 = getelementptr inbounds %"struct.std::_Vector_base<unsigned int, std::allocator<unsigned int> >::_Vector_impl_data", %"struct.std::_Vector_base<unsigned int, std::allocator<unsigned int> >::_Vector_impl_data"* %4, i32 0, i32 0, !dbg !4850
  %5 = load i32*, i32** %_M_start4, align 8, !dbg !4850
  %sub.ptr.lhs.cast = ptrtoint i32* %3 to i64, !dbg !4851
  %sub.ptr.rhs.cast = ptrtoint i32* %5 to i64, !dbg !4851
  %sub.ptr.sub = sub i64 %sub.ptr.lhs.cast, %sub.ptr.rhs.cast, !dbg !4851
  %sub.ptr.div = sdiv exact i64 %sub.ptr.sub, 4, !dbg !4851
  invoke void @_ZNSt12_Vector_baseIjSaIjEE13_M_deallocateEPjm(%"struct.std::_Vector_base"* %this1, i32* %1, i64 %sub.ptr.div)
          to label %invoke.cont unwind label %lpad, !dbg !4852

invoke.cont:                                      ; preds = %entry
  %_M_impl5 = getelementptr inbounds %"struct.std::_Vector_base", %"struct.std::_Vector_base"* %this1, i32 0, i32 0, !dbg !4853
  call void @_ZNSt12_Vector_baseIjSaIjEE12_Vector_implD2Ev(%"struct.std::_Vector_base<unsigned int, std::allocator<unsigned int> >::_Vector_impl"* %_M_impl5) #4, !dbg !4853
  ret void, !dbg !4854

lpad:                                             ; preds = %entry
  %6 = landingpad { i8*, i32 }
          catch i8* null, !dbg !4853
  %7 = extractvalue { i8*, i32 } %6, 0, !dbg !4853
  store i8* %7, i8** %exn.slot, align 8, !dbg !4853
  %8 = extractvalue { i8*, i32 } %6, 1, !dbg !4853
  store i32 %8, i32* %ehselector.slot, align 4, !dbg !4853
  %_M_impl6 = getelementptr inbounds %"struct.std::_Vector_base", %"struct.std::_Vector_base"* %this1, i32 0, i32 0, !dbg !4853
  call void @_ZNSt12_Vector_baseIjSaIjEE12_Vector_implD2Ev(%"struct.std::_Vector_base<unsigned int, std::allocator<unsigned int> >::_Vector_impl"* %_M_impl6) #4, !dbg !4853
  br label %terminate.handler, !dbg !4853

terminate.handler:                                ; preds = %lpad
  %exn = load i8*, i8** %exn.slot, align 8, !dbg !4853
  call void @__clang_call_terminate(i8* %exn) #13, !dbg !4853
  unreachable, !dbg !4853
}

; Function Attrs: noinline uwtable
define linkonce_odr dso_local void @_ZSt8_DestroyIPjEvT_S1_(i32* %__first, i32* %__last) #0 comdat !dbg !4855 {
entry:
  %__first.addr = alloca i32*, align 8
  %__last.addr = alloca i32*, align 8
  store i32* %__first, i32** %__first.addr, align 8
  call void @llvm.dbg.declare(metadata i32** %__first.addr, metadata !4859, metadata !DIExpression()), !dbg !4860
  store i32* %__last, i32** %__last.addr, align 8
  call void @llvm.dbg.declare(metadata i32** %__last.addr, metadata !4861, metadata !DIExpression()), !dbg !4862
  %0 = load i32*, i32** %__first.addr, align 8, !dbg !4863
  %1 = load i32*, i32** %__last.addr, align 8, !dbg !4864
  call void @_ZNSt12_Destroy_auxILb1EE9__destroyIPjEEvT_S3_(i32* %0, i32* %1), !dbg !4865
  ret void, !dbg !4866
}

; Function Attrs: noinline nounwind uwtable
define linkonce_odr dso_local void @_ZNSt12_Destroy_auxILb1EE9__destroyIPjEEvT_S3_(i32* %0, i32* %1) #1 comdat align 2 !dbg !4867 {
entry:
  %.addr = alloca i32*, align 8
  %.addr1 = alloca i32*, align 8
  store i32* %0, i32** %.addr, align 8
  call void @llvm.dbg.declare(metadata i32** %.addr, metadata !4871, metadata !DIExpression()), !dbg !4872
  store i32* %1, i32** %.addr1, align 8
  call void @llvm.dbg.declare(metadata i32** %.addr1, metadata !4873, metadata !DIExpression()), !dbg !4874
  ret void, !dbg !4875
}

; Function Attrs: noinline uwtable
define linkonce_odr dso_local void @_ZNSt12_Vector_baseIjSaIjEE13_M_deallocateEPjm(%"struct.std::_Vector_base"* %this, i32* %__p, i64 %__n) #0 comdat align 2 !dbg !4876 {
entry:
  %this.addr = alloca %"struct.std::_Vector_base"*, align 8
  %__p.addr = alloca i32*, align 8
  %__n.addr = alloca i64, align 8
  store %"struct.std::_Vector_base"* %this, %"struct.std::_Vector_base"** %this.addr, align 8
  call void @llvm.dbg.declare(metadata %"struct.std::_Vector_base"** %this.addr, metadata !4877, metadata !DIExpression()), !dbg !4878
  store i32* %__p, i32** %__p.addr, align 8
  call void @llvm.dbg.declare(metadata i32** %__p.addr, metadata !4879, metadata !DIExpression()), !dbg !4880
  store i64 %__n, i64* %__n.addr, align 8
  call void @llvm.dbg.declare(metadata i64* %__n.addr, metadata !4881, metadata !DIExpression()), !dbg !4882
  %this1 = load %"struct.std::_Vector_base"*, %"struct.std::_Vector_base"** %this.addr, align 8
  %0 = load i32*, i32** %__p.addr, align 8, !dbg !4883
  %tobool = icmp ne i32* %0, null, !dbg !4883
  br i1 %tobool, label %if.then, label %if.end, !dbg !4885

if.then:                                          ; preds = %entry
  %_M_impl = getelementptr inbounds %"struct.std::_Vector_base", %"struct.std::_Vector_base"* %this1, i32 0, i32 0, !dbg !4886
  %1 = bitcast %"struct.std::_Vector_base<unsigned int, std::allocator<unsigned int> >::_Vector_impl"* %_M_impl to %"class.std::allocator.16"*, !dbg !4886
  %2 = load i32*, i32** %__p.addr, align 8, !dbg !4887
  %3 = load i64, i64* %__n.addr, align 8, !dbg !4888
  call void @_ZNSt16allocator_traitsISaIjEE10deallocateERS0_Pjm(%"class.std::allocator.16"* dereferenceable(1) %1, i32* %2, i64 %3), !dbg !4889
  br label %if.end, !dbg !4889

if.end:                                           ; preds = %if.then, %entry
  ret void, !dbg !4890
}

; Function Attrs: noinline nounwind uwtable
define linkonce_odr dso_local void @_ZNSt12_Vector_baseIjSaIjEE12_Vector_implD2Ev(%"struct.std::_Vector_base<unsigned int, std::allocator<unsigned int> >::_Vector_impl"* %this) unnamed_addr #1 comdat align 2 !dbg !4891 {
entry:
  %this.addr = alloca %"struct.std::_Vector_base<unsigned int, std::allocator<unsigned int> >::_Vector_impl"*, align 8
  store %"struct.std::_Vector_base<unsigned int, std::allocator<unsigned int> >::_Vector_impl"* %this, %"struct.std::_Vector_base<unsigned int, std::allocator<unsigned int> >::_Vector_impl"** %this.addr, align 8
  call void @llvm.dbg.declare(metadata %"struct.std::_Vector_base<unsigned int, std::allocator<unsigned int> >::_Vector_impl"** %this.addr, metadata !4893, metadata !DIExpression()), !dbg !4895
  %this1 = load %"struct.std::_Vector_base<unsigned int, std::allocator<unsigned int> >::_Vector_impl"*, %"struct.std::_Vector_base<unsigned int, std::allocator<unsigned int> >::_Vector_impl"** %this.addr, align 8
  %0 = bitcast %"struct.std::_Vector_base<unsigned int, std::allocator<unsigned int> >::_Vector_impl"* %this1 to %"class.std::allocator.16"*, !dbg !4896
  call void @_ZNSaIjED2Ev(%"class.std::allocator.16"* %0) #4, !dbg !4896
  ret void, !dbg !4898
}

; Function Attrs: noinline uwtable
define linkonce_odr dso_local void @_ZNSt16allocator_traitsISaIjEE10deallocateERS0_Pjm(%"class.std::allocator.16"* dereferenceable(1) %__a, i32* %__p, i64 %__n) #0 comdat align 2 !dbg !4899 {
entry:
  %__a.addr = alloca %"class.std::allocator.16"*, align 8
  %__p.addr = alloca i32*, align 8
  %__n.addr = alloca i64, align 8
  store %"class.std::allocator.16"* %__a, %"class.std::allocator.16"** %__a.addr, align 8
  call void @llvm.dbg.declare(metadata %"class.std::allocator.16"** %__a.addr, metadata !4900, metadata !DIExpression()), !dbg !4901
  store i32* %__p, i32** %__p.addr, align 8
  call void @llvm.dbg.declare(metadata i32** %__p.addr, metadata !4902, metadata !DIExpression()), !dbg !4903
  store i64 %__n, i64* %__n.addr, align 8
  call void @llvm.dbg.declare(metadata i64* %__n.addr, metadata !4904, metadata !DIExpression()), !dbg !4905
  %0 = load %"class.std::allocator.16"*, %"class.std::allocator.16"** %__a.addr, align 8, !dbg !4906
  %1 = bitcast %"class.std::allocator.16"* %0 to %"class.__gnu_cxx::new_allocator.17"*, !dbg !4906
  %2 = load i32*, i32** %__p.addr, align 8, !dbg !4907
  %3 = load i64, i64* %__n.addr, align 8, !dbg !4908
  call void @_ZN9__gnu_cxx13new_allocatorIjE10deallocateEPjm(%"class.__gnu_cxx::new_allocator.17"* %1, i32* %2, i64 %3), !dbg !4909
  ret void, !dbg !4910
}

; Function Attrs: noinline nounwind uwtable
define linkonce_odr dso_local void @_ZN9__gnu_cxx13new_allocatorIjE10deallocateEPjm(%"class.__gnu_cxx::new_allocator.17"* %this, i32* %__p, i64 %__t) #1 comdat align 2 !dbg !4911 {
entry:
  %this.addr = alloca %"class.__gnu_cxx::new_allocator.17"*, align 8
  %__p.addr = alloca i32*, align 8
  %__t.addr = alloca i64, align 8
  store %"class.__gnu_cxx::new_allocator.17"* %this, %"class.__gnu_cxx::new_allocator.17"** %this.addr, align 8
  call void @llvm.dbg.declare(metadata %"class.__gnu_cxx::new_allocator.17"** %this.addr, metadata !4912, metadata !DIExpression()), !dbg !4914
  store i32* %__p, i32** %__p.addr, align 8
  call void @llvm.dbg.declare(metadata i32** %__p.addr, metadata !4915, metadata !DIExpression()), !dbg !4916
  store i64 %__t, i64* %__t.addr, align 8
  call void @llvm.dbg.declare(metadata i64* %__t.addr, metadata !4917, metadata !DIExpression()), !dbg !4918
  %this1 = load %"class.__gnu_cxx::new_allocator.17"*, %"class.__gnu_cxx::new_allocator.17"** %this.addr, align 8
  %0 = load i32*, i32** %__p.addr, align 8, !dbg !4919
  %1 = bitcast i32* %0 to i8*, !dbg !4919
  call void @_ZdlPv(i8* %1) #4, !dbg !4920
  ret void, !dbg !4921
}

; Function Attrs: noinline nounwind uwtable
define linkonce_odr dso_local void @_ZNSaIjED2Ev(%"class.std::allocator.16"* %this) unnamed_addr #1 comdat align 2 !dbg !4922 {
entry:
  %this.addr = alloca %"class.std::allocator.16"*, align 8
  store %"class.std::allocator.16"* %this, %"class.std::allocator.16"** %this.addr, align 8
  call void @llvm.dbg.declare(metadata %"class.std::allocator.16"** %this.addr, metadata !4923, metadata !DIExpression()), !dbg !4925
  %this1 = load %"class.std::allocator.16"*, %"class.std::allocator.16"** %this.addr, align 8
  %0 = bitcast %"class.std::allocator.16"* %this1 to %"class.__gnu_cxx::new_allocator.17"*, !dbg !4926
  call void @_ZN9__gnu_cxx13new_allocatorIjED2Ev(%"class.__gnu_cxx::new_allocator.17"* %0) #4, !dbg !4926
  ret void, !dbg !4928
}

; Function Attrs: noinline nounwind uwtable
define linkonce_odr dso_local void @_ZN9__gnu_cxx13new_allocatorIjED2Ev(%"class.__gnu_cxx::new_allocator.17"* %this) unnamed_addr #1 comdat align 2 !dbg !4929 {
entry:
  %this.addr = alloca %"class.__gnu_cxx::new_allocator.17"*, align 8
  store %"class.__gnu_cxx::new_allocator.17"* %this, %"class.__gnu_cxx::new_allocator.17"** %this.addr, align 8
  call void @llvm.dbg.declare(metadata %"class.__gnu_cxx::new_allocator.17"** %this.addr, metadata !4930, metadata !DIExpression()), !dbg !4931
  %this1 = load %"class.__gnu_cxx::new_allocator.17"*, %"class.__gnu_cxx::new_allocator.17"** %this.addr, align 8
  ret void, !dbg !4932
}

; Function Attrs: noinline nounwind uwtable
define linkonce_odr dso_local void @_ZN9libparest15ParallelControl4DataC2Ev(%"struct.libparest::ParallelControl::Data"* %this) unnamed_addr #1 comdat align 2 !dbg !4933 {
entry:
  %this.addr = alloca %"struct.libparest::ParallelControl::Data"*, align 8
  store %"struct.libparest::ParallelControl::Data"* %this, %"struct.libparest::ParallelControl::Data"** %this.addr, align 8
  call void @llvm.dbg.declare(metadata %"struct.libparest::ParallelControl::Data"** %this.addr, metadata !4935, metadata !DIExpression()), !dbg !4936
  %this1 = load %"struct.libparest::ParallelControl::Data"*, %"struct.libparest::ParallelControl::Data"** %this.addr, align 8
  %slave_on_process = getelementptr inbounds %"struct.libparest::ParallelControl::Data", %"struct.libparest::ParallelControl::Data"* %this1, i32 0, i32 8, !dbg !4937
  call void @_ZNSt6vectorIjSaIjEEC2Ev(%"class.std::vector"* %slave_on_process) #4, !dbg !4937
  %process_has_slave = getelementptr inbounds %"struct.libparest::ParallelControl::Data", %"struct.libparest::ParallelControl::Data"* %this1, i32 0, i32 9, !dbg !4937
  call void @_ZNSt6vectorISt3setIjSt4lessIjESaIjEESaIS4_EEC2Ev(%"class.std::vector.19"* %process_has_slave) #4, !dbg !4937
  %host_info = getelementptr inbounds %"struct.libparest::ParallelControl::Data", %"struct.libparest::ParallelControl::Data"* %this1, i32 0, i32 10, !dbg !4937
  call void @_ZNSt6vectorIN9libparest15ParallelControl10SystemInfoESaIS2_EEC2Ev(%"class.std::vector.27"* %host_info) #4, !dbg !4937
  %mpi_mutex = getelementptr inbounds %"struct.libparest::ParallelControl::Data", %"struct.libparest::ParallelControl::Data"* %this1, i32 0, i32 12, !dbg !4937
  ret void, !dbg !4937
}

; Function Attrs: noinline nounwind uwtable
define linkonce_odr dso_local void @_ZNSt6vectorIjSaIjEEC2Ev(%"class.std::vector"* %this) unnamed_addr #1 comdat align 2 !dbg !4938 {
entry:
  %this.addr = alloca %"class.std::vector"*, align 8
  store %"class.std::vector"* %this, %"class.std::vector"** %this.addr, align 8
  call void @llvm.dbg.declare(metadata %"class.std::vector"** %this.addr, metadata !4939, metadata !DIExpression()), !dbg !4940
  %this1 = load %"class.std::vector"*, %"class.std::vector"** %this.addr, align 8
  %0 = bitcast %"class.std::vector"* %this1 to %"struct.std::_Vector_base"*, !dbg !4941
  call void @_ZNSt12_Vector_baseIjSaIjEEC2Ev(%"struct.std::_Vector_base"* %0) #4, !dbg !4942
  ret void, !dbg !4941
}

; Function Attrs: noinline nounwind uwtable
define linkonce_odr dso_local void @_ZNSt6vectorISt3setIjSt4lessIjESaIjEESaIS4_EEC2Ev(%"class.std::vector.19"* %this) unnamed_addr #1 comdat align 2 !dbg !4943 {
entry:
  %this.addr = alloca %"class.std::vector.19"*, align 8
  store %"class.std::vector.19"* %this, %"class.std::vector.19"** %this.addr, align 8
  call void @llvm.dbg.declare(metadata %"class.std::vector.19"** %this.addr, metadata !4944, metadata !DIExpression()), !dbg !4945
  %this1 = load %"class.std::vector.19"*, %"class.std::vector.19"** %this.addr, align 8
  %0 = bitcast %"class.std::vector.19"* %this1 to %"struct.std::_Vector_base.20"*, !dbg !4946
  call void @_ZNSt12_Vector_baseISt3setIjSt4lessIjESaIjEESaIS4_EEC2Ev(%"struct.std::_Vector_base.20"* %0) #4, !dbg !4947
  ret void, !dbg !4946
}

; Function Attrs: noinline nounwind uwtable
define linkonce_odr dso_local void @_ZNSt6vectorIN9libparest15ParallelControl10SystemInfoESaIS2_EEC2Ev(%"class.std::vector.27"* %this) unnamed_addr #1 comdat align 2 !dbg !4948 {
entry:
  %this.addr = alloca %"class.std::vector.27"*, align 8
  store %"class.std::vector.27"* %this, %"class.std::vector.27"** %this.addr, align 8
  call void @llvm.dbg.declare(metadata %"class.std::vector.27"** %this.addr, metadata !4949, metadata !DIExpression()), !dbg !4950
  %this1 = load %"class.std::vector.27"*, %"class.std::vector.27"** %this.addr, align 8
  %0 = bitcast %"class.std::vector.27"* %this1 to %"struct.std::_Vector_base.28"*, !dbg !4951
  call void @_ZNSt12_Vector_baseIN9libparest15ParallelControl10SystemInfoESaIS2_EEC2Ev(%"struct.std::_Vector_base.28"* %0) #4, !dbg !4952
  ret void, !dbg !4951
}

; Function Attrs: noinline nounwind uwtable
define linkonce_odr dso_local void @_ZNSt12_Vector_baseIjSaIjEEC2Ev(%"struct.std::_Vector_base"* %this) unnamed_addr #1 comdat align 2 !dbg !4953 {
entry:
  %this.addr = alloca %"struct.std::_Vector_base"*, align 8
  store %"struct.std::_Vector_base"* %this, %"struct.std::_Vector_base"** %this.addr, align 8
  call void @llvm.dbg.declare(metadata %"struct.std::_Vector_base"** %this.addr, metadata !4954, metadata !DIExpression()), !dbg !4955
  %this1 = load %"struct.std::_Vector_base"*, %"struct.std::_Vector_base"** %this.addr, align 8
  %_M_impl = getelementptr inbounds %"struct.std::_Vector_base", %"struct.std::_Vector_base"* %this1, i32 0, i32 0, !dbg !4956
  call void @_ZNSt12_Vector_baseIjSaIjEE12_Vector_implC2Ev(%"struct.std::_Vector_base<unsigned int, std::allocator<unsigned int> >::_Vector_impl"* %_M_impl) #4, !dbg !4956
  ret void, !dbg !4957
}

; Function Attrs: noinline nounwind uwtable
define linkonce_odr dso_local void @_ZNSt12_Vector_baseIjSaIjEE12_Vector_implC2Ev(%"struct.std::_Vector_base<unsigned int, std::allocator<unsigned int> >::_Vector_impl"* %this) unnamed_addr #1 comdat align 2 !dbg !4958 {
entry:
  %this.addr = alloca %"struct.std::_Vector_base<unsigned int, std::allocator<unsigned int> >::_Vector_impl"*, align 8
  store %"struct.std::_Vector_base<unsigned int, std::allocator<unsigned int> >::_Vector_impl"* %this, %"struct.std::_Vector_base<unsigned int, std::allocator<unsigned int> >::_Vector_impl"** %this.addr, align 8
  call void @llvm.dbg.declare(metadata %"struct.std::_Vector_base<unsigned int, std::allocator<unsigned int> >::_Vector_impl"** %this.addr, metadata !4959, metadata !DIExpression()), !dbg !4960
  %this1 = load %"struct.std::_Vector_base<unsigned int, std::allocator<unsigned int> >::_Vector_impl"*, %"struct.std::_Vector_base<unsigned int, std::allocator<unsigned int> >::_Vector_impl"** %this.addr, align 8
  %0 = bitcast %"struct.std::_Vector_base<unsigned int, std::allocator<unsigned int> >::_Vector_impl"* %this1 to %"class.std::allocator.16"*, !dbg !4961
  call void @_ZNSaIjEC2Ev(%"class.std::allocator.16"* %0) #4, !dbg !4962
  %1 = bitcast %"struct.std::_Vector_base<unsigned int, std::allocator<unsigned int> >::_Vector_impl"* %this1 to %"struct.std::_Vector_base<unsigned int, std::allocator<unsigned int> >::_Vector_impl_data"*, !dbg !4961
  call void @_ZNSt12_Vector_baseIjSaIjEE17_Vector_impl_dataC2Ev(%"struct.std::_Vector_base<unsigned int, std::allocator<unsigned int> >::_Vector_impl_data"* %1) #4, !dbg !4963
  ret void, !dbg !4964
}

; Function Attrs: noinline nounwind uwtable
define linkonce_odr dso_local void @_ZNSaIjEC2Ev(%"class.std::allocator.16"* %this) unnamed_addr #1 comdat align 2 !dbg !4965 {
entry:
  %this.addr = alloca %"class.std::allocator.16"*, align 8
  store %"class.std::allocator.16"* %this, %"class.std::allocator.16"** %this.addr, align 8
  call void @llvm.dbg.declare(metadata %"class.std::allocator.16"** %this.addr, metadata !4966, metadata !DIExpression()), !dbg !4967
  %this1 = load %"class.std::allocator.16"*, %"class.std::allocator.16"** %this.addr, align 8
  %0 = bitcast %"class.std::allocator.16"* %this1 to %"class.__gnu_cxx::new_allocator.17"*, !dbg !4968
  call void @_ZN9__gnu_cxx13new_allocatorIjEC2Ev(%"class.__gnu_cxx::new_allocator.17"* %0) #4, !dbg !4969
  ret void, !dbg !4970
}

; Function Attrs: noinline nounwind uwtable
define linkonce_odr dso_local void @_ZNSt12_Vector_baseIjSaIjEE17_Vector_impl_dataC2Ev(%"struct.std::_Vector_base<unsigned int, std::allocator<unsigned int> >::_Vector_impl_data"* %this) unnamed_addr #1 comdat align 2 !dbg !4971 {
entry:
  %this.addr = alloca %"struct.std::_Vector_base<unsigned int, std::allocator<unsigned int> >::_Vector_impl_data"*, align 8
  store %"struct.std::_Vector_base<unsigned int, std::allocator<unsigned int> >::_Vector_impl_data"* %this, %"struct.std::_Vector_base<unsigned int, std::allocator<unsigned int> >::_Vector_impl_data"** %this.addr, align 8
  call void @llvm.dbg.declare(metadata %"struct.std::_Vector_base<unsigned int, std::allocator<unsigned int> >::_Vector_impl_data"** %this.addr, metadata !4972, metadata !DIExpression()), !dbg !4974
  %this1 = load %"struct.std::_Vector_base<unsigned int, std::allocator<unsigned int> >::_Vector_impl_data"*, %"struct.std::_Vector_base<unsigned int, std::allocator<unsigned int> >::_Vector_impl_data"** %this.addr, align 8
  %_M_start = getelementptr inbounds %"struct.std::_Vector_base<unsigned int, std::allocator<unsigned int> >::_Vector_impl_data", %"struct.std::_Vector_base<unsigned int, std::allocator<unsigned int> >::_Vector_impl_data"* %this1, i32 0, i32 0, !dbg !4975
  store i32* null, i32** %_M_start, align 8, !dbg !4975
  %_M_finish = getelementptr inbounds %"struct.std::_Vector_base<unsigned int, std::allocator<unsigned int> >::_Vector_impl_data", %"struct.std::_Vector_base<unsigned int, std::allocator<unsigned int> >::_Vector_impl_data"* %this1, i32 0, i32 1, !dbg !4976
  store i32* null, i32** %_M_finish, align 8, !dbg !4976
  %_M_end_of_storage = getelementptr inbounds %"struct.std::_Vector_base<unsigned int, std::allocator<unsigned int> >::_Vector_impl_data", %"struct.std::_Vector_base<unsigned int, std::allocator<unsigned int> >::_Vector_impl_data"* %this1, i32 0, i32 2, !dbg !4977
  store i32* null, i32** %_M_end_of_storage, align 8, !dbg !4977
  ret void, !dbg !4978
}

; Function Attrs: noinline nounwind uwtable
define linkonce_odr dso_local void @_ZN9__gnu_cxx13new_allocatorIjEC2Ev(%"class.__gnu_cxx::new_allocator.17"* %this) unnamed_addr #1 comdat align 2 !dbg !4979 {
entry:
  %this.addr = alloca %"class.__gnu_cxx::new_allocator.17"*, align 8
  store %"class.__gnu_cxx::new_allocator.17"* %this, %"class.__gnu_cxx::new_allocator.17"** %this.addr, align 8
  call void @llvm.dbg.declare(metadata %"class.__gnu_cxx::new_allocator.17"** %this.addr, metadata !4980, metadata !DIExpression()), !dbg !4981
  %this1 = load %"class.__gnu_cxx::new_allocator.17"*, %"class.__gnu_cxx::new_allocator.17"** %this.addr, align 8
  ret void, !dbg !4982
}

; Function Attrs: noinline nounwind uwtable
define linkonce_odr dso_local void @_ZNSt12_Vector_baseISt3setIjSt4lessIjESaIjEESaIS4_EEC2Ev(%"struct.std::_Vector_base.20"* %this) unnamed_addr #1 comdat align 2 !dbg !4983 {
entry:
  %this.addr = alloca %"struct.std::_Vector_base.20"*, align 8
  store %"struct.std::_Vector_base.20"* %this, %"struct.std::_Vector_base.20"** %this.addr, align 8
  call void @llvm.dbg.declare(metadata %"struct.std::_Vector_base.20"** %this.addr, metadata !4984, metadata !DIExpression()), !dbg !4985
  %this1 = load %"struct.std::_Vector_base.20"*, %"struct.std::_Vector_base.20"** %this.addr, align 8
  %_M_impl = getelementptr inbounds %"struct.std::_Vector_base.20", %"struct.std::_Vector_base.20"* %this1, i32 0, i32 0, !dbg !4986
  call void @_ZNSt12_Vector_baseISt3setIjSt4lessIjESaIjEESaIS4_EE12_Vector_implC2Ev(%"struct.std::_Vector_base<std::set<unsigned int, std::less<unsigned int>, std::allocator<unsigned int> >, std::allocator<std::set<unsigned int, std::less<unsigned int>, std::allocator<unsigned int> > > >::_Vector_impl"* %_M_impl) #4, !dbg !4986
  ret void, !dbg !4987
}

; Function Attrs: noinline nounwind uwtable
define linkonce_odr dso_local void @_ZNSt12_Vector_baseISt3setIjSt4lessIjESaIjEESaIS4_EE12_Vector_implC2Ev(%"struct.std::_Vector_base<std::set<unsigned int, std::less<unsigned int>, std::allocator<unsigned int> >, std::allocator<std::set<unsigned int, std::less<unsigned int>, std::allocator<unsigned int> > > >::_Vector_impl"* %this) unnamed_addr #1 comdat align 2 !dbg !4988 {
entry:
  %this.addr = alloca %"struct.std::_Vector_base<std::set<unsigned int, std::less<unsigned int>, std::allocator<unsigned int> >, std::allocator<std::set<unsigned int, std::less<unsigned int>, std::allocator<unsigned int> > > >::_Vector_impl"*, align 8
  store %"struct.std::_Vector_base<std::set<unsigned int, std::less<unsigned int>, std::allocator<unsigned int> >, std::allocator<std::set<unsigned int, std::less<unsigned int>, std::allocator<unsigned int> > > >::_Vector_impl"* %this, %"struct.std::_Vector_base<std::set<unsigned int, std::less<unsigned int>, std::allocator<unsigned int> >, std::allocator<std::set<unsigned int, std::less<unsigned int>, std::allocator<unsigned int> > > >::_Vector_impl"** %this.addr, align 8
  call void @llvm.dbg.declare(metadata %"struct.std::_Vector_base<std::set<unsigned int, std::less<unsigned int>, std::allocator<unsigned int> >, std::allocator<std::set<unsigned int, std::less<unsigned int>, std::allocator<unsigned int> > > >::_Vector_impl"** %this.addr, metadata !4989, metadata !DIExpression()), !dbg !4990
  %this1 = load %"struct.std::_Vector_base<std::set<unsigned int, std::less<unsigned int>, std::allocator<unsigned int> >, std::allocator<std::set<unsigned int, std::less<unsigned int>, std::allocator<unsigned int> > > >::_Vector_impl"*, %"struct.std::_Vector_base<std::set<unsigned int, std::less<unsigned int>, std::allocator<unsigned int> >, std::allocator<std::set<unsigned int, std::less<unsigned int>, std::allocator<unsigned int> > > >::_Vector_impl"** %this.addr, align 8
  %0 = bitcast %"struct.std::_Vector_base<std::set<unsigned int, std::less<unsigned int>, std::allocator<unsigned int> >, std::allocator<std::set<unsigned int, std::less<unsigned int>, std::allocator<unsigned int> > > >::_Vector_impl"* %this1 to %"class.std::allocator.21"*, !dbg !4991
  call void @_ZNSaISt3setIjSt4lessIjESaIjEEEC2Ev(%"class.std::allocator.21"* %0) #4, !dbg !4992
  %1 = bitcast %"struct.std::_Vector_base<std::set<unsigned int, std::less<unsigned int>, std::allocator<unsigned int> >, std::allocator<std::set<unsigned int, std::less<unsigned int>, std::allocator<unsigned int> > > >::_Vector_impl"* %this1 to %"struct.std::_Vector_base<std::set<unsigned int, std::less<unsigned int>, std::allocator<unsigned int> >, std::allocator<std::set<unsigned int, std::less<unsigned int>, std::allocator<unsigned int> > > >::_Vector_impl_data"*, !dbg !4991
  call void @_ZNSt12_Vector_baseISt3setIjSt4lessIjESaIjEESaIS4_EE17_Vector_impl_dataC2Ev(%"struct.std::_Vector_base<std::set<unsigned int, std::less<unsigned int>, std::allocator<unsigned int> >, std::allocator<std::set<unsigned int, std::less<unsigned int>, std::allocator<unsigned int> > > >::_Vector_impl_data"* %1) #4, !dbg !4993
  ret void, !dbg !4994
}

; Function Attrs: noinline nounwind uwtable
define linkonce_odr dso_local void @_ZNSaISt3setIjSt4lessIjESaIjEEEC2Ev(%"class.std::allocator.21"* %this) unnamed_addr #1 comdat align 2 !dbg !4995 {
entry:
  %this.addr = alloca %"class.std::allocator.21"*, align 8
  store %"class.std::allocator.21"* %this, %"class.std::allocator.21"** %this.addr, align 8
  call void @llvm.dbg.declare(metadata %"class.std::allocator.21"** %this.addr, metadata !4996, metadata !DIExpression()), !dbg !4997
  %this1 = load %"class.std::allocator.21"*, %"class.std::allocator.21"** %this.addr, align 8
  %0 = bitcast %"class.std::allocator.21"* %this1 to %"class.__gnu_cxx::new_allocator.22"*, !dbg !4998
  call void @_ZN9__gnu_cxx13new_allocatorISt3setIjSt4lessIjESaIjEEEC2Ev(%"class.__gnu_cxx::new_allocator.22"* %0) #4, !dbg !4999
  ret void, !dbg !5000
}

; Function Attrs: noinline nounwind uwtable
define linkonce_odr dso_local void @_ZNSt12_Vector_baseISt3setIjSt4lessIjESaIjEESaIS4_EE17_Vector_impl_dataC2Ev(%"struct.std::_Vector_base<std::set<unsigned int, std::less<unsigned int>, std::allocator<unsigned int> >, std::allocator<std::set<unsigned int, std::less<unsigned int>, std::allocator<unsigned int> > > >::_Vector_impl_data"* %this) unnamed_addr #1 comdat align 2 !dbg !5001 {
entry:
  %this.addr = alloca %"struct.std::_Vector_base<std::set<unsigned int, std::less<unsigned int>, std::allocator<unsigned int> >, std::allocator<std::set<unsigned int, std::less<unsigned int>, std::allocator<unsigned int> > > >::_Vector_impl_data"*, align 8
  store %"struct.std::_Vector_base<std::set<unsigned int, std::less<unsigned int>, std::allocator<unsigned int> >, std::allocator<std::set<unsigned int, std::less<unsigned int>, std::allocator<unsigned int> > > >::_Vector_impl_data"* %this, %"struct.std::_Vector_base<std::set<unsigned int, std::less<unsigned int>, std::allocator<unsigned int> >, std::allocator<std::set<unsigned int, std::less<unsigned int>, std::allocator<unsigned int> > > >::_Vector_impl_data"** %this.addr, align 8
  call void @llvm.dbg.declare(metadata %"struct.std::_Vector_base<std::set<unsigned int, std::less<unsigned int>, std::allocator<unsigned int> >, std::allocator<std::set<unsigned int, std::less<unsigned int>, std::allocator<unsigned int> > > >::_Vector_impl_data"** %this.addr, metadata !5002, metadata !DIExpression()), !dbg !5004
  %this1 = load %"struct.std::_Vector_base<std::set<unsigned int, std::less<unsigned int>, std::allocator<unsigned int> >, std::allocator<std::set<unsigned int, std::less<unsigned int>, std::allocator<unsigned int> > > >::_Vector_impl_data"*, %"struct.std::_Vector_base<std::set<unsigned int, std::less<unsigned int>, std::allocator<unsigned int> >, std::allocator<std::set<unsigned int, std::less<unsigned int>, std::allocator<unsigned int> > > >::_Vector_impl_data"** %this.addr, align 8
  %_M_start = getelementptr inbounds %"struct.std::_Vector_base<std::set<unsigned int, std::less<unsigned int>, std::allocator<unsigned int> >, std::allocator<std::set<unsigned int, std::less<unsigned int>, std::allocator<unsigned int> > > >::_Vector_impl_data", %"struct.std::_Vector_base<std::set<unsigned int, std::less<unsigned int>, std::allocator<unsigned int> >, std::allocator<std::set<unsigned int, std::less<unsigned int>, std::allocator<unsigned int> > > >::_Vector_impl_data"* %this1, i32 0, i32 0, !dbg !5005
  store %"class.std::set"* null, %"class.std::set"** %_M_start, align 8, !dbg !5005
  %_M_finish = getelementptr inbounds %"struct.std::_Vector_base<std::set<unsigned int, std::less<unsigned int>, std::allocator<unsigned int> >, std::allocator<std::set<unsigned int, std::less<unsigned int>, std::allocator<unsigned int> > > >::_Vector_impl_data", %"struct.std::_Vector_base<std::set<unsigned int, std::less<unsigned int>, std::allocator<unsigned int> >, std::allocator<std::set<unsigned int, std::less<unsigned int>, std::allocator<unsigned int> > > >::_Vector_impl_data"* %this1, i32 0, i32 1, !dbg !5006
  store %"class.std::set"* null, %"class.std::set"** %_M_finish, align 8, !dbg !5006
  %_M_end_of_storage = getelementptr inbounds %"struct.std::_Vector_base<std::set<unsigned int, std::less<unsigned int>, std::allocator<unsigned int> >, std::allocator<std::set<unsigned int, std::less<unsigned int>, std::allocator<unsigned int> > > >::_Vector_impl_data", %"struct.std::_Vector_base<std::set<unsigned int, std::less<unsigned int>, std::allocator<unsigned int> >, std::allocator<std::set<unsigned int, std::less<unsigned int>, std::allocator<unsigned int> > > >::_Vector_impl_data"* %this1, i32 0, i32 2, !dbg !5007
  store %"class.std::set"* null, %"class.std::set"** %_M_end_of_storage, align 8, !dbg !5007
  ret void, !dbg !5008
}

; Function Attrs: noinline nounwind uwtable
define linkonce_odr dso_local void @_ZN9__gnu_cxx13new_allocatorISt3setIjSt4lessIjESaIjEEEC2Ev(%"class.__gnu_cxx::new_allocator.22"* %this) unnamed_addr #1 comdat align 2 !dbg !5009 {
entry:
  %this.addr = alloca %"class.__gnu_cxx::new_allocator.22"*, align 8
  store %"class.__gnu_cxx::new_allocator.22"* %this, %"class.__gnu_cxx::new_allocator.22"** %this.addr, align 8
  call void @llvm.dbg.declare(metadata %"class.__gnu_cxx::new_allocator.22"** %this.addr, metadata !5010, metadata !DIExpression()), !dbg !5011
  %this1 = load %"class.__gnu_cxx::new_allocator.22"*, %"class.__gnu_cxx::new_allocator.22"** %this.addr, align 8
  ret void, !dbg !5012
}

; Function Attrs: noinline nounwind uwtable
define linkonce_odr dso_local void @_ZNSt12_Vector_baseIN9libparest15ParallelControl10SystemInfoESaIS2_EEC2Ev(%"struct.std::_Vector_base.28"* %this) unnamed_addr #1 comdat align 2 !dbg !5013 {
entry:
  %this.addr = alloca %"struct.std::_Vector_base.28"*, align 8
  store %"struct.std::_Vector_base.28"* %this, %"struct.std::_Vector_base.28"** %this.addr, align 8
  call void @llvm.dbg.declare(metadata %"struct.std::_Vector_base.28"** %this.addr, metadata !5014, metadata !DIExpression()), !dbg !5015
  %this1 = load %"struct.std::_Vector_base.28"*, %"struct.std::_Vector_base.28"** %this.addr, align 8
  %_M_impl = getelementptr inbounds %"struct.std::_Vector_base.28", %"struct.std::_Vector_base.28"* %this1, i32 0, i32 0, !dbg !5016
  call void @_ZNSt12_Vector_baseIN9libparest15ParallelControl10SystemInfoESaIS2_EE12_Vector_implC2Ev(%"struct.std::_Vector_base<libparest::ParallelControl::SystemInfo, std::allocator<libparest::ParallelControl::SystemInfo> >::_Vector_impl"* %_M_impl) #4, !dbg !5016
  ret void, !dbg !5017
}

; Function Attrs: noinline nounwind uwtable
define linkonce_odr dso_local void @_ZNSt12_Vector_baseIN9libparest15ParallelControl10SystemInfoESaIS2_EE12_Vector_implC2Ev(%"struct.std::_Vector_base<libparest::ParallelControl::SystemInfo, std::allocator<libparest::ParallelControl::SystemInfo> >::_Vector_impl"* %this) unnamed_addr #1 comdat align 2 !dbg !5018 {
entry:
  %this.addr = alloca %"struct.std::_Vector_base<libparest::ParallelControl::SystemInfo, std::allocator<libparest::ParallelControl::SystemInfo> >::_Vector_impl"*, align 8
  store %"struct.std::_Vector_base<libparest::ParallelControl::SystemInfo, std::allocator<libparest::ParallelControl::SystemInfo> >::_Vector_impl"* %this, %"struct.std::_Vector_base<libparest::ParallelControl::SystemInfo, std::allocator<libparest::ParallelControl::SystemInfo> >::_Vector_impl"** %this.addr, align 8
  call void @llvm.dbg.declare(metadata %"struct.std::_Vector_base<libparest::ParallelControl::SystemInfo, std::allocator<libparest::ParallelControl::SystemInfo> >::_Vector_impl"** %this.addr, metadata !5019, metadata !DIExpression()), !dbg !5020
  %this1 = load %"struct.std::_Vector_base<libparest::ParallelControl::SystemInfo, std::allocator<libparest::ParallelControl::SystemInfo> >::_Vector_impl"*, %"struct.std::_Vector_base<libparest::ParallelControl::SystemInfo, std::allocator<libparest::ParallelControl::SystemInfo> >::_Vector_impl"** %this.addr, align 8
  %0 = bitcast %"struct.std::_Vector_base<libparest::ParallelControl::SystemInfo, std::allocator<libparest::ParallelControl::SystemInfo> >::_Vector_impl"* %this1 to %"class.std::allocator.29"*, !dbg !5021
  call void @_ZNSaIN9libparest15ParallelControl10SystemInfoEEC2Ev(%"class.std::allocator.29"* %0) #4, !dbg !5022
  %1 = bitcast %"struct.std::_Vector_base<libparest::ParallelControl::SystemInfo, std::allocator<libparest::ParallelControl::SystemInfo> >::_Vector_impl"* %this1 to %"struct.std::_Vector_base<libparest::ParallelControl::SystemInfo, std::allocator<libparest::ParallelControl::SystemInfo> >::_Vector_impl_data"*, !dbg !5021
  call void @_ZNSt12_Vector_baseIN9libparest15ParallelControl10SystemInfoESaIS2_EE17_Vector_impl_dataC2Ev(%"struct.std::_Vector_base<libparest::ParallelControl::SystemInfo, std::allocator<libparest::ParallelControl::SystemInfo> >::_Vector_impl_data"* %1) #4, !dbg !5023
  ret void, !dbg !5024
}

; Function Attrs: noinline nounwind uwtable
define linkonce_odr dso_local void @_ZNSaIN9libparest15ParallelControl10SystemInfoEEC2Ev(%"class.std::allocator.29"* %this) unnamed_addr #1 comdat align 2 !dbg !5025 {
entry:
  %this.addr = alloca %"class.std::allocator.29"*, align 8
  store %"class.std::allocator.29"* %this, %"class.std::allocator.29"** %this.addr, align 8
  call void @llvm.dbg.declare(metadata %"class.std::allocator.29"** %this.addr, metadata !5026, metadata !DIExpression()), !dbg !5027
  %this1 = load %"class.std::allocator.29"*, %"class.std::allocator.29"** %this.addr, align 8
  %0 = bitcast %"class.std::allocator.29"* %this1 to %"class.__gnu_cxx::new_allocator.30"*, !dbg !5028
  call void @_ZN9__gnu_cxx13new_allocatorIN9libparest15ParallelControl10SystemInfoEEC2Ev(%"class.__gnu_cxx::new_allocator.30"* %0) #4, !dbg !5029
  ret void, !dbg !5030
}

; Function Attrs: noinline nounwind uwtable
define linkonce_odr dso_local void @_ZNSt12_Vector_baseIN9libparest15ParallelControl10SystemInfoESaIS2_EE17_Vector_impl_dataC2Ev(%"struct.std::_Vector_base<libparest::ParallelControl::SystemInfo, std::allocator<libparest::ParallelControl::SystemInfo> >::_Vector_impl_data"* %this) unnamed_addr #1 comdat align 2 !dbg !5031 {
entry:
  %this.addr = alloca %"struct.std::_Vector_base<libparest::ParallelControl::SystemInfo, std::allocator<libparest::ParallelControl::SystemInfo> >::_Vector_impl_data"*, align 8
  store %"struct.std::_Vector_base<libparest::ParallelControl::SystemInfo, std::allocator<libparest::ParallelControl::SystemInfo> >::_Vector_impl_data"* %this, %"struct.std::_Vector_base<libparest::ParallelControl::SystemInfo, std::allocator<libparest::ParallelControl::SystemInfo> >::_Vector_impl_data"** %this.addr, align 8
  call void @llvm.dbg.declare(metadata %"struct.std::_Vector_base<libparest::ParallelControl::SystemInfo, std::allocator<libparest::ParallelControl::SystemInfo> >::_Vector_impl_data"** %this.addr, metadata !5032, metadata !DIExpression()), !dbg !5034
  %this1 = load %"struct.std::_Vector_base<libparest::ParallelControl::SystemInfo, std::allocator<libparest::ParallelControl::SystemInfo> >::_Vector_impl_data"*, %"struct.std::_Vector_base<libparest::ParallelControl::SystemInfo, std::allocator<libparest::ParallelControl::SystemInfo> >::_Vector_impl_data"** %this.addr, align 8
  %_M_start = getelementptr inbounds %"struct.std::_Vector_base<libparest::ParallelControl::SystemInfo, std::allocator<libparest::ParallelControl::SystemInfo> >::_Vector_impl_data", %"struct.std::_Vector_base<libparest::ParallelControl::SystemInfo, std::allocator<libparest::ParallelControl::SystemInfo> >::_Vector_impl_data"* %this1, i32 0, i32 0, !dbg !5035
  store %"class.libparest::ParallelControl::SystemInfo"* null, %"class.libparest::ParallelControl::SystemInfo"** %_M_start, align 8, !dbg !5035
  %_M_finish = getelementptr inbounds %"struct.std::_Vector_base<libparest::ParallelControl::SystemInfo, std::allocator<libparest::ParallelControl::SystemInfo> >::_Vector_impl_data", %"struct.std::_Vector_base<libparest::ParallelControl::SystemInfo, std::allocator<libparest::ParallelControl::SystemInfo> >::_Vector_impl_data"* %this1, i32 0, i32 1, !dbg !5036
  store %"class.libparest::ParallelControl::SystemInfo"* null, %"class.libparest::ParallelControl::SystemInfo"** %_M_finish, align 8, !dbg !5036
  %_M_end_of_storage = getelementptr inbounds %"struct.std::_Vector_base<libparest::ParallelControl::SystemInfo, std::allocator<libparest::ParallelControl::SystemInfo> >::_Vector_impl_data", %"struct.std::_Vector_base<libparest::ParallelControl::SystemInfo, std::allocator<libparest::ParallelControl::SystemInfo> >::_Vector_impl_data"* %this1, i32 0, i32 2, !dbg !5037
  store %"class.libparest::ParallelControl::SystemInfo"* null, %"class.libparest::ParallelControl::SystemInfo"** %_M_end_of_storage, align 8, !dbg !5037
  ret void, !dbg !5038
}

; Function Attrs: noinline nounwind uwtable
define linkonce_odr dso_local void @_ZN9__gnu_cxx13new_allocatorIN9libparest15ParallelControl10SystemInfoEEC2Ev(%"class.__gnu_cxx::new_allocator.30"* %this) unnamed_addr #1 comdat align 2 !dbg !5039 {
entry:
  %this.addr = alloca %"class.__gnu_cxx::new_allocator.30"*, align 8
  store %"class.__gnu_cxx::new_allocator.30"* %this, %"class.__gnu_cxx::new_allocator.30"** %this.addr, align 8
  call void @llvm.dbg.declare(metadata %"class.__gnu_cxx::new_allocator.30"** %this.addr, metadata !5040, metadata !DIExpression()), !dbg !5041
  %this1 = load %"class.__gnu_cxx::new_allocator.30"*, %"class.__gnu_cxx::new_allocator.30"** %this.addr, align 8
  ret void, !dbg !5042
}

; Function Attrs: noinline nounwind uwtable
define linkonce_odr dso_local i64 @_ZNKSt6vectorIjSaIjEE4sizeEv(%"class.std::vector"* %this) #1 comdat align 2 !dbg !5043 {
entry:
  %this.addr = alloca %"class.std::vector"*, align 8
  store %"class.std::vector"* %this, %"class.std::vector"** %this.addr, align 8
  call void @llvm.dbg.declare(metadata %"class.std::vector"** %this.addr, metadata !5044, metadata !DIExpression()), !dbg !5046
  %this1 = load %"class.std::vector"*, %"class.std::vector"** %this.addr, align 8
  %0 = bitcast %"class.std::vector"* %this1 to %"struct.std::_Vector_base"*, !dbg !5047
  %_M_impl = getelementptr inbounds %"struct.std::_Vector_base", %"struct.std::_Vector_base"* %0, i32 0, i32 0, !dbg !5047
  %1 = bitcast %"struct.std::_Vector_base<unsigned int, std::allocator<unsigned int> >::_Vector_impl"* %_M_impl to %"struct.std::_Vector_base<unsigned int, std::allocator<unsigned int> >::_Vector_impl_data"*, !dbg !5048
  %_M_finish = getelementptr inbounds %"struct.std::_Vector_base<unsigned int, std::allocator<unsigned int> >::_Vector_impl_data", %"struct.std::_Vector_base<unsigned int, std::allocator<unsigned int> >::_Vector_impl_data"* %1, i32 0, i32 1, !dbg !5049
  %2 = load i32*, i32** %_M_finish, align 8, !dbg !5049
  %3 = bitcast %"class.std::vector"* %this1 to %"struct.std::_Vector_base"*, !dbg !5050
  %_M_impl2 = getelementptr inbounds %"struct.std::_Vector_base", %"struct.std::_Vector_base"* %3, i32 0, i32 0, !dbg !5050
