; ModuleID = 'bbox.cpp'
source_filename = "bbox.cpp"
target datalayout = "e-m:e-p270:32:32-p271:32:32-p272:64:64-i64:64-f80:128-n8:16:32:64-S128"
target triple = "x86_64-unknown-linux-gnu"

%"struct.pov::BBox_Tree_Struct" = type { i16, i16, %"struct.pov::Bounding_Box_Struct", %"struct.pov::BBox_Tree_Struct"** }
%"struct.pov::Bounding_Box_Struct" = type { [3 x float], [3 x float] }
%"struct.pov::Priority_Queue_Struct" = type { i32, i32, %"struct.pov::Qelem_Struct"* }
%"struct.pov::Qelem_Struct" = type { double, %"struct.pov::BBox_Tree_Struct"* }
%"struct.pov::Frame_Struct" = type { %"struct.pov::Camera_Struct"*, i32, i32, i32, %"struct.pov::Light_Source_Struct"*, %"struct.pov::Object_Struct"*, double, double, double, [5 x float], [5 x float], [5 x float], %"struct.pov::Media_Struct"*, %"struct.pov::Fog_Struct"*, %"struct.pov::Rainbow_Struct"*, %"struct.pov::Skysphere_Struct"*, %"struct.pov::light_group_light_struct"* }
%"struct.pov::Camera_Struct" = type { [3 x double], [3 x double], [3 x double], [3 x double], [3 x double], [3 x double], [3 x double], double, double, i32, double, double, i32, double, double, double, %"struct.pov::Tnormal_Struct"*, %"struct.pov::Transform_Struct"* }
%"struct.pov::Tnormal_Struct" = type { i16, i16, i16, i32, float, float, float, %"struct.pov::Warps_Struct"*, %"struct.pov::Pattern_Struct"*, %"struct.pov::Blend_Map_Struct"*, %union.anon.0, float, float }
%"struct.pov::Warps_Struct" = type { i16, %"struct.pov::Warps_Struct"*, %"struct.pov::Warps_Struct"* }
%"struct.pov::Pattern_Struct" = type { i16, i16, i16, i32, float, float, float, %"struct.pov::Warps_Struct"*, %"struct.pov::Pattern_Struct"*, %"struct.pov::Blend_Map_Struct"*, %union.anon.17 }
%union.anon.17 = type { %struct.anon.21 }
%struct.anon.21 = type { [3 x double], [3 x double], double, double, i16, [3 x double]*, i32, [3 x double] }
%"struct.pov::Blend_Map_Struct" = type { i32, i16, i8, i8, %"struct.pov::Blend_Map_Entry"* }
%"struct.pov::Blend_Map_Entry" = type { float, i8, %union.anon }
%union.anon = type { [2 x double], [8 x i8] }
%union.anon.0 = type { %struct.anon.5 }
%struct.anon.5 = type { [3 x double], [3 x double], double, double, i16, [3 x double]*, i32, [3 x double] }
%"struct.pov::Transform_Struct" = type { [4 x [4 x double]], [4 x [4 x double]] }
%"struct.pov::Light_Source_Struct" = type { %"struct.pov::Method_Struct"*, i32, %"struct.pov::Object_Struct"*, %"struct.pov::Texture_Struct"*, %"struct.pov::Texture_Struct"*, %"struct.pov::Interior_Struct"*, %"struct.pov::Object_Struct"*, %"struct.pov::Object_Struct"*, %"struct.pov::Light_Source_Struct"*, %"struct.pov::Bounding_Box_Struct", %"struct.pov::Transform_Struct"*, %"struct.pov::Transform_Struct"*, float, i32, %"struct.pov::Object_Struct"*, [5 x float], [3 x double], [3 x double], [3 x double], [3 x double], [3 x double], double, double, double, double, double, %"struct.pov::Light_Source_Struct"*, i8, i8, i8, i8, i8, i8, i8, i8, i32, i32, i32, i32, i32, [5 x float]**, %"struct.pov::Object_Struct"*, %"struct.pov::Object_Struct"*, %"struct.pov::Blend_Map_Struct"*, [6 x %"struct.pov::Project_Tree_Node_Struct"*] }
%"struct.pov::Method_Struct" = type { i32 (%"struct.pov::Object_Struct"*, %"struct.pov::Ray_Struct"*, %"struct.pov::istack_struct"*)*, i32 (double*, %"struct.pov::Object_Struct"*)*, void (double*, %"struct.pov::Object_Struct"*, %"struct.pov::istk_entry"*)*, void (double*, %"struct.pov::Object_Struct"*, %"struct.pov::istk_entry"*)*, i8* (%"struct.pov::Object_Struct"*)*, void (%"struct.pov::Object_Struct"*, double*, %"struct.pov::Transform_Struct"*)*, void (%"struct.pov::Object_Struct"*, double*, %"struct.pov::Transform_Struct"*)*, void (%"struct.pov::Object_Struct"*, double*, %"struct.pov::Transform_Struct"*)*, void (%"struct.pov::Object_Struct"*, %"struct.pov::Transform_Struct"*)*, void (%"struct.pov::Object_Struct"*)*, void (%"struct.pov::Object_Struct"*)* }
%"struct.pov::Ray_Struct" = type { [3 x double], [3 x double], i32, i32, [100 x %"struct.pov::Interior_Struct"*] }
%"struct.pov::istack_struct" = type { %"struct.pov::istack_struct"*, %"struct.pov::istk_entry"*, i32, i32 }
%"struct.pov::istk_entry" = type { double, [3 x double], [3 x double], [3 x double], [2 x double], %"struct.pov::Object_Struct"*, i32, i32, double, double, double, double, double, double, double, double, double, i8*, i8* }
%"struct.pov::Texture_Struct" = type { i16, i16, i16, i32, float, float, float, %"struct.pov::Warps_Struct"*, %"struct.pov::Pattern_Struct"*, %"struct.pov::Blend_Map_Struct"*, %union.anon.9, %"struct.pov::Texture_Struct"*, %"struct.pov::Pigment_Struct"*, %"struct.pov::Tnormal_Struct"*, %"struct.pov::Finish_Struct"*, %"struct.pov::Texture_Struct"*, i32 }
%union.anon.9 = type { %struct.anon.13 }
%struct.anon.13 = type { [3 x double], [3 x double], double, double, i16, [3 x double]*, i32, [3 x double] }
%"struct.pov::Pigment_Struct" = type { i16, i16, i16, i32, float, float, float, %"struct.pov::Warps_Struct"*, %"struct.pov::Pattern_Struct"*, %"struct.pov::Blend_Map_Struct"*, %union.anon.25, [5 x float] }
%union.anon.25 = type { %struct.anon.29 }
%struct.anon.29 = type { [3 x double], [3 x double], double, double, i16, [3 x double]*, i32, [3 x double] }
%"struct.pov::Finish_Struct" = type { float, float, float, float, float, float, float, float, float, float, float, float, float, float, float, float, [3 x float], [3 x float], [3 x float], float, i32, float, i32 }
%"struct.pov::Interior_Struct" = type { i32, i32, i32, float, float, float, float, float, float, [5 x float], %"struct.pov::Media_Struct"* }
%"struct.pov::Project_Tree_Node_Struct" = type { i16, %"struct.pov::BBox_Tree_Struct"*, %"struct.pov::Project_Struct", i16, %"struct.pov::Project_Tree_Node_Struct"** }
%"struct.pov::Project_Struct" = type { i32, i32, i32, i32 }
%"struct.pov::Object_Struct" = type { %"struct.pov::Method_Struct"*, i32, %"struct.pov::Object_Struct"*, %"struct.pov::Texture_Struct"*, %"struct.pov::Texture_Struct"*, %"struct.pov::Interior_Struct"*, %"struct.pov::Object_Struct"*, %"struct.pov::Object_Struct"*, %"struct.pov::Light_Source_Struct"*, %"struct.pov::Bounding_Box_Struct", %"struct.pov::Transform_Struct"*, %"struct.pov::Transform_Struct"*, float, i32 }
%"struct.pov::Media_Struct" = type { i32, i32, i32, i32, i32, double, i32, double, double, i32, i32, i32, i32, [5 x float], [5 x float], [5 x float], [5 x float], double, double, double, double*, double, i32, i32, %"struct.pov::Pigment_Struct"*, %"struct.pov::Media_Struct"* }
%"struct.pov::Fog_Struct" = type { i32, double, double, double, [5 x float], [3 x double], %"struct.pov::Turb_Struct"*, float, %"struct.pov::Fog_Struct"* }
%"struct.pov::Turb_Struct" = type { i16, %"struct.pov::Warps_Struct"*, %"struct.pov::Warps_Struct"*, [3 x double], i32, float, float }
%"struct.pov::Rainbow_Struct" = type { double, double, double, double, double, double, double, [3 x double], [3 x double], [3 x double], %"struct.pov::Pigment_Struct"*, %"struct.pov::Rainbow_Struct"* }
%"struct.pov::Skysphere_Struct" = type { i32, %"struct.pov::Pigment_Struct"**, %"struct.pov::Transform_Struct"* }
%"struct.pov::light_group_light_struct" = type { %"struct.pov::Light_Source_Struct"*, %"struct.pov::light_group_light_struct"* }
%"struct.pov::OPTIONS_STRUCT" = type { i32, i8, i8, i8, i32, i32, [4096 x i8], [4096 x i8], [4096 x i8], [4096 x i8], [4096 x i8], float, float, i32, i32, double, i8, double, i32, [25 x i8*], i32, i32, i32, double, double, i32, i32, double, double, i32, i8, i64, i32, i32, i32, %"struct.pov::FRAMESEQ", double, i64, double, double, double, double, double, i64, i32, i64, i32, i32, i32, i32, i32, i32, double, double, double, i32, i32, i8*, i8*, i32, i8, double, double, i32, i32, i8, i32, i32, [4096 x i8], [6 x %"struct.pov::shelldata"], [4096 x i8], [4096 x i8], i32, i32, i64, i32, i32, i32, %struct.POVMSData }
%"struct.pov::FRAMESEQ" = type { i32, double, i32, i32, double, i32, i32, double, i32, double, i32, double, i8, i8 }
%"struct.pov::shelldata" = type { i32, i32, [250 x i8] }
%struct.POVMSData = type { i32, i32, %union.anon.33 }
%union.anon.33 = type { i8* }
%"struct.pov::Rayinfo_Struct" = type { [3 x double], [3 x double], [3 x i32], [3 x i32] }

$_ZN3pov16Assign_BBox_VectERA3_dPf = comdat any

$_ZN3pov11Make_VectorEPdddd = comdat any

$_ZN3pov13Assign_VectorEPdS0_ = comdat any

$_ZN3pov22Make_BBox_from_min_maxERNS_19Bounding_Box_StructEPdS2_ = comdat any

$_ZN3pov16Increase_CounterERx = comdat any

$_ZN3pov9Make_BBoxERNS_19Bounding_Box_StructEffffff = comdat any

$_ZN3pov4VSubEPdPKdS2_ = comdat any

@_ZN3pov21numberOfFiniteObjectsE = dso_local global i64 0, align 8, !dbg !0
@_ZN3pov23numberOfInfiniteObjectsE = dso_local global i64 0, align 8, !dbg !5
@_ZN3pov20numberOfLightSourcesE = dso_local global i64 0, align 8, !dbg !7
@_ZN3pov11Root_ObjectE = dso_local global %"struct.pov::BBox_Tree_Struct"* null, align 8, !dbg !9
@_ZN3povL11Frame_QueueE = internal global %"struct.pov::Priority_Queue_Struct"* null, align 8, !dbg !33
@.str = private unnamed_addr constant [9 x i8] c"bbox.cpp\00", align 1
@.str.1 = private unnamed_addr constant [15 x i8] c"priority queue\00", align 1
@_ZN3povL14maxfinitecountE = internal global i64 0, align 8, !dbg !51
@.str.2 = private unnamed_addr constant [10 x i8] c"composite\00", align 1
@_ZN3pov5FrameE = external dso_local global %"struct.pov::Frame_Struct", align 8
@_ZN3pov4optsE = external dso_local global %"struct.pov::OPTIONS_STRUCT", align 8
@.str.3 = private unnamed_addr constant [15 x i8] c"bounding boxes\00", align 1
@_ZN3pov5statsE = external dso_local global [123 x i64], align 16
@_ZN3pov13backtraceFlagE = external dso_local global i32, align 4
@_ZN3pov17In_Reflection_RayE = external dso_local global i8, align 1
@.str.4 = private unnamed_addr constant [25 x i8] c"priority queue is empty.\00", align 1
@.str.5 = private unnamed_addr constant [25 x i8] c"Priority queue overflow.\00", align 1
@.str.6 = private unnamed_addr constant [18 x i8] c"bounding box node\00", align 1
@_ZN3povL4AxisE = internal global i32 0, align 4, !dbg !53
@.str.7 = private unnamed_addr constant [25 x i8] c"Reallocing Finite to %d\0A\00", align 1

; Function Attrs: noinline uwtable
define dso_local void @_ZN3pov20Initialize_BBox_CodeEv() #0 !dbg !1028 {
entry:
  %call = call %"struct.pov::Priority_Queue_Struct"* @_ZN3pov21Create_Priority_QueueEj(i32 256), !dbg !1030
  store %"struct.pov::Priority_Queue_Struct"* %call, %"struct.pov::Priority_Queue_Struct"** @_ZN3povL11Frame_QueueE, align 8, !dbg !1031
  ret void, !dbg !1032
}

; Function Attrs: noinline uwtable
define dso_local %"struct.pov::Priority_Queue_Struct"* @_ZN3pov21Create_Priority_QueueEj(i32 %QSize) #0 !dbg !1033 {
entry:
  %QSize.addr = alloca i32, align 4
  %New = alloca %"struct.pov::Priority_Queue_Struct"*, align 8
  store i32 %QSize, i32* %QSize.addr, align 4
  call void @llvm.dbg.declare(metadata i32* %QSize.addr, metadata !1036, metadata !DIExpression()), !dbg !1037
  call void @llvm.dbg.declare(metadata %"struct.pov::Priority_Queue_Struct"** %New, metadata !1038, metadata !DIExpression()), !dbg !1039
  %call = call i8* @_ZN3pov10pov_mallocEmPKciS1_(i64 16, i8* getelementptr inbounds ([9 x i8], [9 x i8]* @.str, i64 0, i64 0), i32 222, i8* getelementptr inbounds ([15 x i8], [15 x i8]* @.str.1, i64 0, i64 0)), !dbg !1040
  %0 = bitcast i8* %call to %"struct.pov::Priority_Queue_Struct"*, !dbg !1041
  store %"struct.pov::Priority_Queue_Struct"* %0, %"struct.pov::Priority_Queue_Struct"** %New, align 8, !dbg !1042
  %1 = load i32, i32* %QSize.addr, align 4, !dbg !1043
  %conv = zext i32 %1 to i64, !dbg !1043
  %mul = mul i64 %conv, 16, !dbg !1043
  %call1 = call i8* @_ZN3pov10pov_mallocEmPKciS1_(i64 %mul, i8* getelementptr inbounds ([9 x i8], [9 x i8]* @.str, i64 0, i64 0), i32 224, i8* getelementptr inbounds ([15 x i8], [15 x i8]* @.str.1, i64 0, i64 0)), !dbg !1043
  %2 = bitcast i8* %call1 to %"struct.pov::Qelem_Struct"*, !dbg !1044
  %3 = load %"struct.pov::Priority_Queue_Struct"*, %"struct.pov::Priority_Queue_Struct"** %New, align 8, !dbg !1045
  %Queue = getelementptr inbounds %"struct.pov::Priority_Queue_Struct", %"struct.pov::Priority_Queue_Struct"* %3, i32 0, i32 2, !dbg !1046
  store %"struct.pov::Qelem_Struct"* %2, %"struct.pov::Qelem_Struct"** %Queue, align 8, !dbg !1047
  %4 = load %"struct.pov::Priority_Queue_Struct"*, %"struct.pov::Priority_Queue_Struct"** %New, align 8, !dbg !1048
  %QSize2 = getelementptr inbounds %"struct.pov::Priority_Queue_Struct", %"struct.pov::Priority_Queue_Struct"* %4, i32 0, i32 0, !dbg !1049
  store i32 0, i32* %QSize2, align 8, !dbg !1050
  %5 = load i32, i32* %QSize.addr, align 4, !dbg !1051
  %6 = load %"struct.pov::Priority_Queue_Struct"*, %"struct.pov::Priority_Queue_Struct"** %New, align 8, !dbg !1052
  %Max_QSize = getelementptr inbounds %"struct.pov::Priority_Queue_Struct", %"struct.pov::Priority_Queue_Struct"* %6, i32 0, i32 1, !dbg !1053
  store i32 %5, i32* %Max_QSize, align 4, !dbg !1054
  %7 = load %"struct.pov::Priority_Queue_Struct"*, %"struct.pov::Priority_Queue_Struct"** %New, align 8, !dbg !1055
  ret %"struct.pov::Priority_Queue_Struct"* %7, !dbg !1056
}

; Function Attrs: noinline uwtable
define dso_local void @_ZN3pov22Deinitialize_BBox_CodeEv() #0 !dbg !1057 {
entry:
  %0 = load %"struct.pov::Priority_Queue_Struct"*, %"struct.pov::Priority_Queue_Struct"** @_ZN3povL11Frame_QueueE, align 8, !dbg !1058
  %cmp = icmp ne %"struct.pov::Priority_Queue_Struct"* %0, null, !dbg !1060
  br i1 %cmp, label %if.then, label %if.end, !dbg !1061

if.then:                                          ; preds = %entry
  %1 = load %"struct.pov::Priority_Queue_Struct"*, %"struct.pov::Priority_Queue_Struct"** @_ZN3povL11Frame_QueueE, align 8, !dbg !1062
  call void @_ZN3pov22Destroy_Priority_QueueEPNS_21Priority_Queue_StructE(%"struct.pov::Priority_Queue_Struct"* %1), !dbg !1064
  br label %if.end, !dbg !1065

if.end:                                           ; preds = %if.then, %entry
  store %"struct.pov::Priority_Queue_Struct"* null, %"struct.pov::Priority_Queue_Struct"** @_ZN3povL11Frame_QueueE, align 8, !dbg !1066
  ret void, !dbg !1067
}

; Function Attrs: noinline uwtable
define dso_local void @_ZN3pov22Destroy_Priority_QueueEPNS_21Priority_Queue_StructE(%"struct.pov::Priority_Queue_Struct"* %Queue) #0 !dbg !1068 {
entry:
  %Queue.addr = alloca %"struct.pov::Priority_Queue_Struct"*, align 8
  store %"struct.pov::Priority_Queue_Struct"* %Queue, %"struct.pov::Priority_Queue_Struct"** %Queue.addr, align 8
  call void @llvm.dbg.declare(metadata %"struct.pov::Priority_Queue_Struct"** %Queue.addr, metadata !1071, metadata !DIExpression()), !dbg !1072
  %0 = load %"struct.pov::Priority_Queue_Struct"*, %"struct.pov::Priority_Queue_Struct"** %Queue.addr, align 8, !dbg !1073
  %cmp = icmp ne %"struct.pov::Priority_Queue_Struct"* %0, null, !dbg !1075
  br i1 %cmp, label %if.then, label %if.end, !dbg !1076

if.then:                                          ; preds = %entry
  %1 = load %"struct.pov::Priority_Queue_Struct"*, %"struct.pov::Priority_Queue_Struct"** %Queue.addr, align 8, !dbg !1077
  %Queue1 = getelementptr inbounds %"struct.pov::Priority_Queue_Struct", %"struct.pov::Priority_Queue_Struct"* %1, i32 0, i32 2, !dbg !1077
  %2 = load %"struct.pov::Qelem_Struct"*, %"struct.pov::Qelem_Struct"** %Queue1, align 8, !dbg !1077
  %3 = bitcast %"struct.pov::Qelem_Struct"* %2 to i8*, !dbg !1077
  call void @_ZN3pov8pov_freeEPvPKci(i8* %3, i8* getelementptr inbounds ([9 x i8], [9 x i8]* @.str, i64 0, i64 0), i32 267), !dbg !1077
  %4 = load %"struct.pov::Priority_Queue_Struct"*, %"struct.pov::Priority_Queue_Struct"** %Queue.addr, align 8, !dbg !1077
  %Queue2 = getelementptr inbounds %"struct.pov::Priority_Queue_Struct", %"struct.pov::Priority_Queue_Struct"* %4, i32 0, i32 2, !dbg !1077
  store %"struct.pov::Qelem_Struct"* null, %"struct.pov::Qelem_Struct"** %Queue2, align 8, !dbg !1077
  %5 = load %"struct.pov::Priority_Queue_Struct"*, %"struct.pov::Priority_Queue_Struct"** %Queue.addr, align 8, !dbg !1080
  %6 = bitcast %"struct.pov::Priority_Queue_Struct"* %5 to i8*, !dbg !1080
  call void @_ZN3pov8pov_freeEPvPKci(i8* %6, i8* getelementptr inbounds ([9 x i8], [9 x i8]* @.str, i64 0, i64 0), i32 269), !dbg !1080
  store %"struct.pov::Priority_Queue_Struct"* null, %"struct.pov::Priority_Queue_Struct"** %Queue.addr, align 8, !dbg !1080
  br label %if.end, !dbg !1082

if.end:                                           ; preds = %if.then, %entry
  ret void, !dbg !1083
}

; Function Attrs: nounwind readnone speculatable willreturn
declare void @llvm.dbg.declare(metadata, metadata, metadata) #1

declare dso_local i8* @_ZN3pov10pov_mallocEmPKciS1_(i64, i8*, i32, i8*) #2

declare dso_local void @_ZN3pov8pov_freeEPvPKci(i8*, i8*, i32) #2

; Function Attrs: noinline uwtable
define dso_local void @_ZN3pov17Destroy_BBox_TreeEPNS_16BBox_Tree_StructE(%"struct.pov::BBox_Tree_Struct"* %Node) #0 !dbg !1084 {
entry:
  %Node.addr = alloca %"struct.pov::BBox_Tree_Struct"*, align 8
  %i = alloca i16, align 2
  store %"struct.pov::BBox_Tree_Struct"* %Node, %"struct.pov::BBox_Tree_Struct"** %Node.addr, align 8
  call void @llvm.dbg.declare(metadata %"struct.pov::BBox_Tree_Struct"** %Node.addr, metadata !1087, metadata !DIExpression()), !dbg !1088
  call void @llvm.dbg.declare(metadata i16* %i, metadata !1089, metadata !DIExpression()), !dbg !1090
  %0 = load %"struct.pov::BBox_Tree_Struct"*, %"struct.pov::BBox_Tree_Struct"** %Node.addr, align 8, !dbg !1091
  %cmp = icmp ne %"struct.pov::BBox_Tree_Struct"* %0, null, !dbg !1093
  br i1 %cmp, label %if.then, label %if.end12, !dbg !1094

if.then:                                          ; preds = %entry
  %1 = load %"struct.pov::BBox_Tree_Struct"*, %"struct.pov::BBox_Tree_Struct"** %Node.addr, align 8, !dbg !1095
  %Entries = getelementptr inbounds %"struct.pov::BBox_Tree_Struct", %"struct.pov::BBox_Tree_Struct"* %1, i32 0, i32 1, !dbg !1098
  %2 = load i16, i16* %Entries, align 2, !dbg !1098
  %conv = sext i16 %2 to i32, !dbg !1095
  %cmp1 = icmp sgt i32 %conv, 0, !dbg !1099
  br i1 %cmp1, label %if.then2, label %if.end, !dbg !1100

if.then2:                                         ; preds = %if.then
  store i16 0, i16* %i, align 2, !dbg !1101
  br label %for.cond, !dbg !1104

for.cond:                                         ; preds = %for.inc, %if.then2
  %3 = load i16, i16* %i, align 2, !dbg !1105
  %conv3 = sext i16 %3 to i32, !dbg !1105
  %4 = load %"struct.pov::BBox_Tree_Struct"*, %"struct.pov::BBox_Tree_Struct"** %Node.addr, align 8, !dbg !1107
  %Entries4 = getelementptr inbounds %"struct.pov::BBox_Tree_Struct", %"struct.pov::BBox_Tree_Struct"* %4, i32 0, i32 1, !dbg !1108
  %5 = load i16, i16* %Entries4, align 2, !dbg !1108
  %conv5 = sext i16 %5 to i32, !dbg !1107
  %cmp6 = icmp slt i32 %conv3, %conv5, !dbg !1109
  br i1 %cmp6, label %for.body, label %for.end, !dbg !1110

for.body:                                         ; preds = %for.cond
  %6 = load %"struct.pov::BBox_Tree_Struct"*, %"struct.pov::BBox_Tree_Struct"** %Node.addr, align 8, !dbg !1111
  %Node7 = getelementptr inbounds %"struct.pov::BBox_Tree_Struct", %"struct.pov::BBox_Tree_Struct"* %6, i32 0, i32 3, !dbg !1113
  %7 = load %"struct.pov::BBox_Tree_Struct"**, %"struct.pov::BBox_Tree_Struct"*** %Node7, align 8, !dbg !1113
  %8 = load i16, i16* %i, align 2, !dbg !1114
  %idxprom = sext i16 %8 to i64, !dbg !1111
  %arrayidx = getelementptr inbounds %"struct.pov::BBox_Tree_Struct"*, %"struct.pov::BBox_Tree_Struct"** %7, i64 %idxprom, !dbg !1111
  %9 = load %"struct.pov::BBox_Tree_Struct"*, %"struct.pov::BBox_Tree_Struct"** %arrayidx, align 8, !dbg !1111
  call void @_ZN3pov17Destroy_BBox_TreeEPNS_16BBox_Tree_StructE(%"struct.pov::BBox_Tree_Struct"* %9), !dbg !1115
  br label %for.inc, !dbg !1116

for.inc:                                          ; preds = %for.body
  %10 = load i16, i16* %i, align 2, !dbg !1117
  %inc = add i16 %10, 1, !dbg !1117
  store i16 %inc, i16* %i, align 2, !dbg !1117
  br label %for.cond, !dbg !1118, !llvm.loop !1119

for.end:                                          ; preds = %for.cond
  %11 = load %"struct.pov::BBox_Tree_Struct"*, %"struct.pov::BBox_Tree_Struct"** %Node.addr, align 8, !dbg !1121
  %Node8 = getelementptr inbounds %"struct.pov::BBox_Tree_Struct", %"struct.pov::BBox_Tree_Struct"* %11, i32 0, i32 3, !dbg !1121
  %12 = load %"struct.pov::BBox_Tree_Struct"**, %"struct.pov::BBox_Tree_Struct"*** %Node8, align 8, !dbg !1121
  %13 = bitcast %"struct.pov::BBox_Tree_Struct"** %12 to i8*, !dbg !1121
  call void @_ZN3pov8pov_freeEPvPKci(i8* %13, i8* getelementptr inbounds ([9 x i8], [9 x i8]* @.str, i64 0, i64 0), i32 316), !dbg !1121
  %14 = load %"struct.pov::BBox_Tree_Struct"*, %"struct.pov::BBox_Tree_Struct"** %Node.addr, align 8, !dbg !1121
  %Node9 = getelementptr inbounds %"struct.pov::BBox_Tree_Struct", %"struct.pov::BBox_Tree_Struct"* %14, i32 0, i32 3, !dbg !1121
  store %"struct.pov::BBox_Tree_Struct"** null, %"struct.pov::BBox_Tree_Struct"*** %Node9, align 8, !dbg !1121
  %15 = load %"struct.pov::BBox_Tree_Struct"*, %"struct.pov::BBox_Tree_Struct"** %Node.addr, align 8, !dbg !1123
  %Entries10 = getelementptr inbounds %"struct.pov::BBox_Tree_Struct", %"struct.pov::BBox_Tree_Struct"* %15, i32 0, i32 1, !dbg !1124
  store i16 0, i16* %Entries10, align 2, !dbg !1125
  %16 = load %"struct.pov::BBox_Tree_Struct"*, %"struct.pov::BBox_Tree_Struct"** %Node.addr, align 8, !dbg !1126
  %Node11 = getelementptr inbounds %"struct.pov::BBox_Tree_Struct", %"struct.pov::BBox_Tree_Struct"* %16, i32 0, i32 3, !dbg !1127
  store %"struct.pov::BBox_Tree_Struct"** null, %"struct.pov::BBox_Tree_Struct"*** %Node11, align 8, !dbg !1128
  br label %if.end, !dbg !1129

if.end:                                           ; preds = %for.end, %if.then
  %17 = load %"struct.pov::BBox_Tree_Struct"*, %"struct.pov::BBox_Tree_Struct"** %Node.addr, align 8, !dbg !1130
  %18 = bitcast %"struct.pov::BBox_Tree_Struct"* %17 to i8*, !dbg !1130
  call void @_ZN3pov8pov_freeEPvPKci(i8* %18, i8* getelementptr inbounds ([9 x i8], [9 x i8]* @.str, i64 0, i64 0), i32 323), !dbg !1130
  store %"struct.pov::BBox_Tree_Struct"* null, %"struct.pov::BBox_Tree_Struct"** %Node.addr, align 8, !dbg !1130
  br label %if.end12, !dbg !1132

if.end12:                                         ; preds = %if.end, %entry
  ret void, !dbg !1133
}

; Function Attrs: noinline uwtable
define dso_local void @_ZN3pov14Recompute_BBoxEPNS_19Bounding_Box_StructEPNS_16Transform_StructE(%"struct.pov::Bounding_Box_Struct"* %bbox, %"struct.pov::Transform_Struct"* %trans) #0 !dbg !1134 {
entry:
  %bbox.addr = alloca %"struct.pov::Bounding_Box_Struct"*, align 8
  %trans.addr = alloca %"struct.pov::Transform_Struct"*, align 8
  %i = alloca i32, align 4
  %lower_left = alloca [3 x double], align 16
  %lengths = alloca [3 x double], align 16
  %corner = alloca [3 x double], align 16
  %mins = alloca [3 x double], align 16
  %maxs = alloca [3 x double], align 16
  store %"struct.pov::Bounding_Box_Struct"* %bbox, %"struct.pov::Bounding_Box_Struct"** %bbox.addr, align 8
  call void @llvm.dbg.declare(metadata %"struct.pov::Bounding_Box_Struct"** %bbox.addr, metadata !1138, metadata !DIExpression()), !dbg !1139
  store %"struct.pov::Transform_Struct"* %trans, %"struct.pov::Transform_Struct"** %trans.addr, align 8
  call void @llvm.dbg.declare(metadata %"struct.pov::Transform_Struct"** %trans.addr, metadata !1140, metadata !DIExpression()), !dbg !1141
  call void @llvm.dbg.declare(metadata i32* %i, metadata !1142, metadata !DIExpression()), !dbg !1143
  call void @llvm.dbg.declare(metadata [3 x double]* %lower_left, metadata !1144, metadata !DIExpression()), !dbg !1145
  call void @llvm.dbg.declare(metadata [3 x double]* %lengths, metadata !1146, metadata !DIExpression()), !dbg !1147
  call void @llvm.dbg.declare(metadata [3 x double]* %corner, metadata !1148, metadata !DIExpression()), !dbg !1149
  call void @llvm.dbg.declare(metadata [3 x double]* %mins, metadata !1150, metadata !DIExpression()), !dbg !1151
  call void @llvm.dbg.declare(metadata [3 x double]* %maxs, metadata !1152, metadata !DIExpression()), !dbg !1153
  %0 = load %"struct.pov::Transform_Struct"*, %"struct.pov::Transform_Struct"** %trans.addr, align 8, !dbg !1154
  %cmp = icmp eq %"struct.pov::Transform_Struct"* %0, null, !dbg !1156
  br i1 %cmp, label %if.then, label %if.end, !dbg !1157

if.then:                                          ; preds = %entry
  br label %return, !dbg !1158

if.end:                                           ; preds = %entry
  %1 = load %"struct.pov::Bounding_Box_Struct"*, %"struct.pov::Bounding_Box_Struct"** %bbox.addr, align 8, !dbg !1160
  %Lower_Left = getelementptr inbounds %"struct.pov::Bounding_Box_Struct", %"struct.pov::Bounding_Box_Struct"* %1, i32 0, i32 0, !dbg !1161
  %arraydecay = getelementptr inbounds [3 x float], [3 x float]* %Lower_Left, i64 0, i64 0, !dbg !1160
  call void @_ZN3pov16Assign_BBox_VectERA3_dPf([3 x double]* dereferenceable(24) %lower_left, float* %arraydecay), !dbg !1162
  %2 = load %"struct.pov::Bounding_Box_Struct"*, %"struct.pov::Bounding_Box_Struct"** %bbox.addr, align 8, !dbg !1163
  %Lengths = getelementptr inbounds %"struct.pov::Bounding_Box_Struct", %"struct.pov::Bounding_Box_Struct"* %2, i32 0, i32 1, !dbg !1164
  %arraydecay1 = getelementptr inbounds [3 x float], [3 x float]* %Lengths, i64 0, i64 0, !dbg !1163
  call void @_ZN3pov16Assign_BBox_VectERA3_dPf([3 x double]* dereferenceable(24) %lengths, float* %arraydecay1), !dbg !1165
  %arraydecay2 = getelementptr inbounds [3 x double], [3 x double]* %mins, i64 0, i64 0, !dbg !1166
  call void @_ZN3pov11Make_VectorEPdddd(double* %arraydecay2, double 2.000000e+10, double 2.000000e+10, double 2.000000e+10), !dbg !1167
  %arraydecay3 = getelementptr inbounds [3 x double], [3 x double]* %maxs, i64 0, i64 0, !dbg !1168
  call void @_ZN3pov11Make_VectorEPdddd(double* %arraydecay3, double -2.000000e+10, double -2.000000e+10, double -2.000000e+10), !dbg !1169
  store i32 1, i32* %i, align 4, !dbg !1170
  br label %for.cond, !dbg !1172

for.cond:                                         ; preds = %for.inc, %if.end
  %3 = load i32, i32* %i, align 4, !dbg !1173
  %cmp4 = icmp sle i32 %3, 8, !dbg !1175
  br i1 %cmp4, label %for.body, label %for.end, !dbg !1176

for.body:                                         ; preds = %for.cond
  %arraydecay5 = getelementptr inbounds [3 x double], [3 x double]* %corner, i64 0, i64 0, !dbg !1177
  %arraydecay6 = getelementptr inbounds [3 x double], [3 x double]* %lower_left, i64 0, i64 0, !dbg !1179
  call void @_ZN3pov13Assign_VectorEPdS0_(double* %arraydecay5, double* %arraydecay6), !dbg !1180
  %4 = load i32, i32* %i, align 4, !dbg !1181
  %and = and i32 %4, 1, !dbg !1182
  %tobool = icmp ne i32 %and, 0, !dbg !1183
  br i1 %tobool, label %cond.true, label %cond.false, !dbg !1183

cond.true:                                        ; preds = %for.body
  %arrayidx = getelementptr inbounds [3 x double], [3 x double]* %lengths, i64 0, i64 0, !dbg !1184
  %5 = load double, double* %arrayidx, align 16, !dbg !1184
  br label %cond.end, !dbg !1183

cond.false:                                       ; preds = %for.body
  br label %cond.end, !dbg !1183

cond.end:                                         ; preds = %cond.false, %cond.true
  %cond = phi double [ %5, %cond.true ], [ 0.000000e+00, %cond.false ], !dbg !1183
  %arrayidx7 = getelementptr inbounds [3 x double], [3 x double]* %corner, i64 0, i64 0, !dbg !1185
  %6 = load double, double* %arrayidx7, align 16, !dbg !1186
  %add = fadd double %6, %cond, !dbg !1186
  store double %add, double* %arrayidx7, align 16, !dbg !1186
  %7 = load i32, i32* %i, align 4, !dbg !1187
  %and8 = and i32 %7, 2, !dbg !1188
  %tobool9 = icmp ne i32 %and8, 0, !dbg !1189
  br i1 %tobool9, label %cond.true10, label %cond.false12, !dbg !1189

cond.true10:                                      ; preds = %cond.end
  %arrayidx11 = getelementptr inbounds [3 x double], [3 x double]* %lengths, i64 0, i64 1, !dbg !1190
  %8 = load double, double* %arrayidx11, align 8, !dbg !1190
  br label %cond.end13, !dbg !1189

cond.false12:                                     ; preds = %cond.end
  br label %cond.end13, !dbg !1189

cond.end13:                                       ; preds = %cond.false12, %cond.true10
  %cond14 = phi double [ %8, %cond.true10 ], [ 0.000000e+00, %cond.false12 ], !dbg !1189
  %arrayidx15 = getelementptr inbounds [3 x double], [3 x double]* %corner, i64 0, i64 1, !dbg !1191
  %9 = load double, double* %arrayidx15, align 8, !dbg !1192
  %add16 = fadd double %9, %cond14, !dbg !1192
  store double %add16, double* %arrayidx15, align 8, !dbg !1192
  %10 = load i32, i32* %i, align 4, !dbg !1193
  %and17 = and i32 %10, 4, !dbg !1194
  %tobool18 = icmp ne i32 %and17, 0, !dbg !1195
  br i1 %tobool18, label %cond.true19, label %cond.false21, !dbg !1195

cond.true19:                                      ; preds = %cond.end13
  %arrayidx20 = getelementptr inbounds [3 x double], [3 x double]* %lengths, i64 0, i64 2, !dbg !1196
  %11 = load double, double* %arrayidx20, align 16, !dbg !1196
  br label %cond.end22, !dbg !1195

cond.false21:                                     ; preds = %cond.end13
  br label %cond.end22, !dbg !1195

cond.end22:                                       ; preds = %cond.false21, %cond.true19
  %cond23 = phi double [ %11, %cond.true19 ], [ 0.000000e+00, %cond.false21 ], !dbg !1195
  %arrayidx24 = getelementptr inbounds [3 x double], [3 x double]* %corner, i64 0, i64 2, !dbg !1197
  %12 = load double, double* %arrayidx24, align 16, !dbg !1198
  %add25 = fadd double %12, %cond23, !dbg !1198
  store double %add25, double* %arrayidx24, align 16, !dbg !1198
  %arraydecay26 = getelementptr inbounds [3 x double], [3 x double]* %corner, i64 0, i64 0, !dbg !1199
  %arraydecay27 = getelementptr inbounds [3 x double], [3 x double]* %corner, i64 0, i64 0, !dbg !1200
  %13 = load %"struct.pov::Transform_Struct"*, %"struct.pov::Transform_Struct"** %trans.addr, align 8, !dbg !1201
  call void @_ZN3pov11MTransPointEPdS0_PNS_16Transform_StructE(double* %arraydecay26, double* %arraydecay27, %"struct.pov::Transform_Struct"* %13), !dbg !1202
  %arrayidx28 = getelementptr inbounds [3 x double], [3 x double]* %corner, i64 0, i64 0, !dbg !1203
  %14 = load double, double* %arrayidx28, align 16, !dbg !1203
  %arrayidx29 = getelementptr inbounds [3 x double], [3 x double]* %mins, i64 0, i64 0, !dbg !1205
  %15 = load double, double* %arrayidx29, align 16, !dbg !1205
  %cmp30 = fcmp olt double %14, %15, !dbg !1206
  br i1 %cmp30, label %if.then31, label %if.end34, !dbg !1207

if.then31:                                        ; preds = %cond.end22
  %arrayidx32 = getelementptr inbounds [3 x double], [3 x double]* %corner, i64 0, i64 0, !dbg !1208
  %16 = load double, double* %arrayidx32, align 16, !dbg !1208
  %arrayidx33 = getelementptr inbounds [3 x double], [3 x double]* %mins, i64 0, i64 0, !dbg !1210
  store double %16, double* %arrayidx33, align 16, !dbg !1211
  br label %if.end34, !dbg !1212

if.end34:                                         ; preds = %if.then31, %cond.end22
  %arrayidx35 = getelementptr inbounds [3 x double], [3 x double]* %corner, i64 0, i64 0, !dbg !1213
  %17 = load double, double* %arrayidx35, align 16, !dbg !1213
  %arrayidx36 = getelementptr inbounds [3 x double], [3 x double]* %maxs, i64 0, i64 0, !dbg !1215
  %18 = load double, double* %arrayidx36, align 16, !dbg !1215
  %cmp37 = fcmp ogt double %17, %18, !dbg !1216
  br i1 %cmp37, label %if.then38, label %if.end41, !dbg !1217

if.then38:                                        ; preds = %if.end34
  %arrayidx39 = getelementptr inbounds [3 x double], [3 x double]* %corner, i64 0, i64 0, !dbg !1218
  %19 = load double, double* %arrayidx39, align 16, !dbg !1218
  %arrayidx40 = getelementptr inbounds [3 x double], [3 x double]* %maxs, i64 0, i64 0, !dbg !1220
  store double %19, double* %arrayidx40, align 16, !dbg !1221
  br label %if.end41, !dbg !1222

if.end41:                                         ; preds = %if.then38, %if.end34
  %arrayidx42 = getelementptr inbounds [3 x double], [3 x double]* %corner, i64 0, i64 1, !dbg !1223
  %20 = load double, double* %arrayidx42, align 8, !dbg !1223
  %arrayidx43 = getelementptr inbounds [3 x double], [3 x double]* %mins, i64 0, i64 1, !dbg !1225
  %21 = load double, double* %arrayidx43, align 8, !dbg !1225
  %cmp44 = fcmp olt double %20, %21, !dbg !1226
  br i1 %cmp44, label %if.then45, label %if.end48, !dbg !1227

if.then45:                                        ; preds = %if.end41
  %arrayidx46 = getelementptr inbounds [3 x double], [3 x double]* %corner, i64 0, i64 1, !dbg !1228
  %22 = load double, double* %arrayidx46, align 8, !dbg !1228
  %arrayidx47 = getelementptr inbounds [3 x double], [3 x double]* %mins, i64 0, i64 1, !dbg !1230
  store double %22, double* %arrayidx47, align 8, !dbg !1231
  br label %if.end48, !dbg !1232

if.end48:                                         ; preds = %if.then45, %if.end41
  %arrayidx49 = getelementptr inbounds [3 x double], [3 x double]* %corner, i64 0, i64 1, !dbg !1233
  %23 = load double, double* %arrayidx49, align 8, !dbg !1233
  %arrayidx50 = getelementptr inbounds [3 x double], [3 x double]* %maxs, i64 0, i64 1, !dbg !1235
  %24 = load double, double* %arrayidx50, align 8, !dbg !1235
  %cmp51 = fcmp ogt double %23, %24, !dbg !1236
  br i1 %cmp51, label %if.then52, label %if.end55, !dbg !1237

if.then52:                                        ; preds = %if.end48
  %arrayidx53 = getelementptr inbounds [3 x double], [3 x double]* %corner, i64 0, i64 1, !dbg !1238
  %25 = load double, double* %arrayidx53, align 8, !dbg !1238
  %arrayidx54 = getelementptr inbounds [3 x double], [3 x double]* %maxs, i64 0, i64 1, !dbg !1240
  store double %25, double* %arrayidx54, align 8, !dbg !1241
  br label %if.end55, !dbg !1242

if.end55:                                         ; preds = %if.then52, %if.end48
  %arrayidx56 = getelementptr inbounds [3 x double], [3 x double]* %corner, i64 0, i64 2, !dbg !1243
  %26 = load double, double* %arrayidx56, align 16, !dbg !1243
  %arrayidx57 = getelementptr inbounds [3 x double], [3 x double]* %mins, i64 0, i64 2, !dbg !1245
  %27 = load double, double* %arrayidx57, align 16, !dbg !1245
  %cmp58 = fcmp olt double %26, %27, !dbg !1246
  br i1 %cmp58, label %if.then59, label %if.end62, !dbg !1247

if.then59:                                        ; preds = %if.end55
  %arrayidx60 = getelementptr inbounds [3 x double], [3 x double]* %corner, i64 0, i64 2, !dbg !1248
  %28 = load double, double* %arrayidx60, align 16, !dbg !1248
  %arrayidx61 = getelementptr inbounds [3 x double], [3 x double]* %mins, i64 0, i64 2, !dbg !1250
  store double %28, double* %arrayidx61, align 16, !dbg !1251
  br label %if.end62, !dbg !1252

if.end62:                                         ; preds = %if.then59, %if.end55
  %arrayidx63 = getelementptr inbounds [3 x double], [3 x double]* %corner, i64 0, i64 2, !dbg !1253
  %29 = load double, double* %arrayidx63, align 16, !dbg !1253
  %arrayidx64 = getelementptr inbounds [3 x double], [3 x double]* %maxs, i64 0, i64 2, !dbg !1255
  %30 = load double, double* %arrayidx64, align 16, !dbg !1255
  %cmp65 = fcmp ogt double %29, %30, !dbg !1256
  br i1 %cmp65, label %if.then66, label %if.end69, !dbg !1257

if.then66:                                        ; preds = %if.end62
  %arrayidx67 = getelementptr inbounds [3 x double], [3 x double]* %corner, i64 0, i64 2, !dbg !1258
  %31 = load double, double* %arrayidx67, align 16, !dbg !1258
  %arrayidx68 = getelementptr inbounds [3 x double], [3 x double]* %maxs, i64 0, i64 2, !dbg !1260
  store double %31, double* %arrayidx68, align 16, !dbg !1261
  br label %if.end69, !dbg !1262

if.end69:                                         ; preds = %if.then66, %if.end62
  br label %for.inc, !dbg !1263

for.inc:                                          ; preds = %if.end69
  %32 = load i32, i32* %i, align 4, !dbg !1264
  %inc = add nsw i32 %32, 1, !dbg !1264
  store i32 %inc, i32* %i, align 4, !dbg !1264
  br label %for.cond, !dbg !1265, !llvm.loop !1266

for.end:                                          ; preds = %for.cond
  %arrayidx70 = getelementptr inbounds [3 x double], [3 x double]* %mins, i64 0, i64 0, !dbg !1268
  %33 = load double, double* %arrayidx70, align 16, !dbg !1268
  %cmp71 = fcmp olt double %33, -1.000000e+10, !dbg !1270
  br i1 %cmp71, label %if.then72, label %if.end74, !dbg !1271

if.then72:                                        ; preds = %for.end
  %arrayidx73 = getelementptr inbounds [3 x double], [3 x double]* %mins, i64 0, i64 0, !dbg !1272
  store double -1.000000e+10, double* %arrayidx73, align 16, !dbg !1274
  br label %if.end74, !dbg !1275

if.end74:                                         ; preds = %if.then72, %for.end
  %arrayidx75 = getelementptr inbounds [3 x double], [3 x double]* %mins, i64 0, i64 1, !dbg !1276
  %34 = load double, double* %arrayidx75, align 8, !dbg !1276
  %cmp76 = fcmp olt double %34, -1.000000e+10, !dbg !1278
  br i1 %cmp76, label %if.then77, label %if.end79, !dbg !1279

if.then77:                                        ; preds = %if.end74
  %arrayidx78 = getelementptr inbounds [3 x double], [3 x double]* %mins, i64 0, i64 1, !dbg !1280
  store double -1.000000e+10, double* %arrayidx78, align 8, !dbg !1282
  br label %if.end79, !dbg !1283

if.end79:                                         ; preds = %if.then77, %if.end74
  %arrayidx80 = getelementptr inbounds [3 x double], [3 x double]* %mins, i64 0, i64 2, !dbg !1284
  %35 = load double, double* %arrayidx80, align 16, !dbg !1284
  %cmp81 = fcmp olt double %35, -1.000000e+10, !dbg !1286
  br i1 %cmp81, label %if.then82, label %if.end84, !dbg !1287

if.then82:                                        ; preds = %if.end79
  %arrayidx83 = getelementptr inbounds [3 x double], [3 x double]* %mins, i64 0, i64 2, !dbg !1288
  store double -1.000000e+10, double* %arrayidx83, align 16, !dbg !1290
  br label %if.end84, !dbg !1291

if.end84:                                         ; preds = %if.then82, %if.end79
  %arrayidx85 = getelementptr inbounds [3 x double], [3 x double]* %maxs, i64 0, i64 0, !dbg !1292
  %36 = load double, double* %arrayidx85, align 16, !dbg !1292
  %cmp86 = fcmp ogt double %36, 1.000000e+10, !dbg !1294
  br i1 %cmp86, label %if.then87, label %if.end89, !dbg !1295

if.then87:                                        ; preds = %if.end84
  %arrayidx88 = getelementptr inbounds [3 x double], [3 x double]* %maxs, i64 0, i64 0, !dbg !1296
  store double 1.000000e+10, double* %arrayidx88, align 16, !dbg !1298
  br label %if.end89, !dbg !1299

if.end89:                                         ; preds = %if.then87, %if.end84
  %arrayidx90 = getelementptr inbounds [3 x double], [3 x double]* %maxs, i64 0, i64 1, !dbg !1300
  %37 = load double, double* %arrayidx90, align 8, !dbg !1300
  %cmp91 = fcmp ogt double %37, 1.000000e+10, !dbg !1302
  br i1 %cmp91, label %if.then92, label %if.end94, !dbg !1303

if.then92:                                        ; preds = %if.end89
  %arrayidx93 = getelementptr inbounds [3 x double], [3 x double]* %maxs, i64 0, i64 1, !dbg !1304
  store double 1.000000e+10, double* %arrayidx93, align 8, !dbg !1306
  br label %if.end94, !dbg !1307

if.end94:                                         ; preds = %if.then92, %if.end89
  %arrayidx95 = getelementptr inbounds [3 x double], [3 x double]* %maxs, i64 0, i64 2, !dbg !1308
  %38 = load double, double* %arrayidx95, align 16, !dbg !1308
  %cmp96 = fcmp ogt double %38, 1.000000e+10, !dbg !1310
  br i1 %cmp96, label %if.then97, label %if.end99, !dbg !1311

if.then97:                                        ; preds = %if.end94
  %arrayidx98 = getelementptr inbounds [3 x double], [3 x double]* %maxs, i64 0, i64 2, !dbg !1312
  store double 1.000000e+10, double* %arrayidx98, align 16, !dbg !1314
  br label %if.end99, !dbg !1315

if.end99:                                         ; preds = %if.then97, %if.end94
  %39 = load %"struct.pov::Bounding_Box_Struct"*, %"struct.pov::Bounding_Box_Struct"** %bbox.addr, align 8, !dbg !1316
  %arraydecay100 = getelementptr inbounds [3 x double], [3 x double]* %mins, i64 0, i64 0, !dbg !1317
  %arraydecay101 = getelementptr inbounds [3 x double], [3 x double]* %maxs, i64 0, i64 0, !dbg !1318
  call void @_ZN3pov22Make_BBox_from_min_maxERNS_19Bounding_Box_StructEPdS2_(%"struct.pov::Bounding_Box_Struct"* dereferenceable(24) %39, double* %arraydecay100, double* %arraydecay101), !dbg !1319
  br label %return, !dbg !1320

return:                                           ; preds = %if.end99, %if.then
  ret void, !dbg !1320
}

; Function Attrs: noinline nounwind uwtable
define linkonce_odr dso_local void @_ZN3pov16Assign_BBox_VectERA3_dPf([3 x double]* dereferenceable(24) %d, float* %s) #3 comdat !dbg !1321 {
entry:
  %d.addr = alloca [3 x double]*, align 8
  %s.addr = alloca float*, align 8
  store [3 x double]* %d, [3 x double]** %d.addr, align 8
  call void @llvm.dbg.declare(metadata [3 x double]** %d.addr, metadata !1326, metadata !DIExpression()), !dbg !1327
  store float* %s, float** %s.addr, align 8
  call void @llvm.dbg.declare(metadata float** %s.addr, metadata !1328, metadata !DIExpression()), !dbg !1329
  %0 = load float*, float** %s.addr, align 8, !dbg !1330
  %arrayidx = getelementptr inbounds float, float* %0, i64 0, !dbg !1330
  %1 = load float, float* %arrayidx, align 4, !dbg !1330
  %conv = fpext float %1 to double, !dbg !1330
  %2 = load [3 x double]*, [3 x double]** %d.addr, align 8, !dbg !1331
  %arrayidx1 = getelementptr inbounds [3 x double], [3 x double]* %2, i64 0, i64 0, !dbg !1331
  store double %conv, double* %arrayidx1, align 8, !dbg !1332
  %3 = load float*, float** %s.addr, align 8, !dbg !1333
  %arrayidx2 = getelementptr inbounds float, float* %3, i64 1, !dbg !1333
  %4 = load float, float* %arrayidx2, align 4, !dbg !1333
  %conv3 = fpext float %4 to double, !dbg !1333
  %5 = load [3 x double]*, [3 x double]** %d.addr, align 8, !dbg !1334
  %arrayidx4 = getelementptr inbounds [3 x double], [3 x double]* %5, i64 0, i64 1, !dbg !1334
  store double %conv3, double* %arrayidx4, align 8, !dbg !1335
  %6 = load float*, float** %s.addr, align 8, !dbg !1336
  %arrayidx5 = getelementptr inbounds float, float* %6, i64 2, !dbg !1336
  %7 = load float, float* %arrayidx5, align 4, !dbg !1336
  %conv6 = fpext float %7 to double, !dbg !1336
  %8 = load [3 x double]*, [3 x double]** %d.addr, align 8, !dbg !1337
  %arrayidx7 = getelementptr inbounds [3 x double], [3 x double]* %8, i64 0, i64 2, !dbg !1337
  store double %conv6, double* %arrayidx7, align 8, !dbg !1338
  ret void, !dbg !1339
}

; Function Attrs: noinline nounwind uwtable
define linkonce_odr dso_local void @_ZN3pov11Make_VectorEPdddd(double* %v, double %a, double %b, double %c) #3 comdat !dbg !1340 {
entry:
  %v.addr = alloca double*, align 8
  %a.addr = alloca double, align 8
  %b.addr = alloca double, align 8
  %c.addr = alloca double, align 8
  store double* %v, double** %v.addr, align 8
  call void @llvm.dbg.declare(metadata double** %v.addr, metadata !1343, metadata !DIExpression()), !dbg !1344
  store double %a, double* %a.addr, align 8
  call void @llvm.dbg.declare(metadata double* %a.addr, metadata !1345, metadata !DIExpression()), !dbg !1346
  store double %b, double* %b.addr, align 8
  call void @llvm.dbg.declare(metadata double* %b.addr, metadata !1347, metadata !DIExpression()), !dbg !1348
  store double %c, double* %c.addr, align 8
  call void @llvm.dbg.declare(metadata double* %c.addr, metadata !1349, metadata !DIExpression()), !dbg !1350
  %0 = load double, double* %a.addr, align 8, !dbg !1351
  %1 = load double*, double** %v.addr, align 8, !dbg !1352
  %arrayidx = getelementptr inbounds double, double* %1, i64 0, !dbg !1352
  store double %0, double* %arrayidx, align 8, !dbg !1353
  %2 = load double, double* %b.addr, align 8, !dbg !1354
  %3 = load double*, double** %v.addr, align 8, !dbg !1355
  %arrayidx1 = getelementptr inbounds double, double* %3, i64 1, !dbg !1355
  store double %2, double* %arrayidx1, align 8, !dbg !1356
  %4 = load double, double* %c.addr, align 8, !dbg !1357
  %5 = load double*, double** %v.addr, align 8, !dbg !1358
  %arrayidx2 = getelementptr inbounds double, double* %5, i64 2, !dbg !1358
  store double %4, double* %arrayidx2, align 8, !dbg !1359
  ret void, !dbg !1360
}

; Function Attrs: noinline nounwind uwtable
define linkonce_odr dso_local void @_ZN3pov13Assign_VectorEPdS0_(double* %d, double* %s) #3 comdat !dbg !1361 {
entry:
  %d.addr = alloca double*, align 8
  %s.addr = alloca double*, align 8
  store double* %d, double** %d.addr, align 8
  call void @llvm.dbg.declare(metadata double** %d.addr, metadata !1364, metadata !DIExpression()), !dbg !1365
  store double* %s, double** %s.addr, align 8
  call void @llvm.dbg.declare(metadata double** %s.addr, metadata !1366, metadata !DIExpression()), !dbg !1367
  %0 = load double*, double** %s.addr, align 8, !dbg !1368
  %arrayidx = getelementptr inbounds double, double* %0, i64 0, !dbg !1368
  %1 = load double, double* %arrayidx, align 8, !dbg !1368
  %2 = load double*, double** %d.addr, align 8, !dbg !1369
  %arrayidx1 = getelementptr inbounds double, double* %2, i64 0, !dbg !1369
  store double %1, double* %arrayidx1, align 8, !dbg !1370
  %3 = load double*, double** %s.addr, align 8, !dbg !1371
  %arrayidx2 = getelementptr inbounds double, double* %3, i64 1, !dbg !1371
  %4 = load double, double* %arrayidx2, align 8, !dbg !1371
  %5 = load double*, double** %d.addr, align 8, !dbg !1372
  %arrayidx3 = getelementptr inbounds double, double* %5, i64 1, !dbg !1372
  store double %4, double* %arrayidx3, align 8, !dbg !1373
  %6 = load double*, double** %s.addr, align 8, !dbg !1374
  %arrayidx4 = getelementptr inbounds double, double* %6, i64 2, !dbg !1374
  %7 = load double, double* %arrayidx4, align 8, !dbg !1374
  %8 = load double*, double** %d.addr, align 8, !dbg !1375
  %arrayidx5 = getelementptr inbounds double, double* %8, i64 2, !dbg !1375
  store double %7, double* %arrayidx5, align 8, !dbg !1376
  ret void, !dbg !1377
}

declare dso_local void @_ZN3pov11MTransPointEPdS0_PNS_16Transform_StructE(double*, double*, %"struct.pov::Transform_Struct"*) #2

; Function Attrs: noinline nounwind uwtable
define linkonce_odr dso_local void @_ZN3pov22Make_BBox_from_min_maxERNS_19Bounding_Box_StructEPdS2_(%"struct.pov::Bounding_Box_Struct"* dereferenceable(24) %BBox, double* %mins, double* %maxs) #3 comdat !dbg !1378 {
entry:
  %BBox.addr = alloca %"struct.pov::Bounding_Box_Struct"*, align 8
  %mins.addr = alloca double*, align 8
  %maxs.addr = alloca double*, align 8
  store %"struct.pov::Bounding_Box_Struct"* %BBox, %"struct.pov::Bounding_Box_Struct"** %BBox.addr, align 8
  call void @llvm.dbg.declare(metadata %"struct.pov::Bounding_Box_Struct"** %BBox.addr, metadata !1382, metadata !DIExpression()), !dbg !1383
  store double* %mins, double** %mins.addr, align 8
  call void @llvm.dbg.declare(metadata double** %mins.addr, metadata !1384, metadata !DIExpression()), !dbg !1385
  store double* %maxs, double** %maxs.addr, align 8
  call void @llvm.dbg.declare(metadata double** %maxs.addr, metadata !1386, metadata !DIExpression()), !dbg !1387
  %0 = load double*, double** %mins.addr, align 8, !dbg !1388
  %arrayidx = getelementptr inbounds double, double* %0, i64 0, !dbg !1388
  %1 = load double, double* %arrayidx, align 8, !dbg !1388
  %conv = fptrunc double %1 to float, !dbg !1389
  %2 = load %"struct.pov::Bounding_Box_Struct"*, %"struct.pov::Bounding_Box_Struct"** %BBox.addr, align 8, !dbg !1390
  %Lower_Left = getelementptr inbounds %"struct.pov::Bounding_Box_Struct", %"struct.pov::Bounding_Box_Struct"* %2, i32 0, i32 0, !dbg !1391
  %arrayidx1 = getelementptr inbounds [3 x float], [3 x float]* %Lower_Left, i64 0, i64 0, !dbg !1390
  store float %conv, float* %arrayidx1, align 4, !dbg !1392
  %3 = load double*, double** %mins.addr, align 8, !dbg !1393
  %arrayidx2 = getelementptr inbounds double, double* %3, i64 1, !dbg !1393
  %4 = load double, double* %arrayidx2, align 8, !dbg !1393
  %conv3 = fptrunc double %4 to float, !dbg !1394
  %5 = load %"struct.pov::Bounding_Box_Struct"*, %"struct.pov::Bounding_Box_Struct"** %BBox.addr, align 8, !dbg !1395
  %Lower_Left4 = getelementptr inbounds %"struct.pov::Bounding_Box_Struct", %"struct.pov::Bounding_Box_Struct"* %5, i32 0, i32 0, !dbg !1396
  %arrayidx5 = getelementptr inbounds [3 x float], [3 x float]* %Lower_Left4, i64 0, i64 1, !dbg !1395
  store float %conv3, float* %arrayidx5, align 4, !dbg !1397
  %6 = load double*, double** %mins.addr, align 8, !dbg !1398
  %arrayidx6 = getelementptr inbounds double, double* %6, i64 2, !dbg !1398
  %7 = load double, double* %arrayidx6, align 8, !dbg !1398
  %conv7 = fptrunc double %7 to float, !dbg !1399
  %8 = load %"struct.pov::Bounding_Box_Struct"*, %"struct.pov::Bounding_Box_Struct"** %BBox.addr, align 8, !dbg !1400
  %Lower_Left8 = getelementptr inbounds %"struct.pov::Bounding_Box_Struct", %"struct.pov::Bounding_Box_Struct"* %8, i32 0, i32 0, !dbg !1401
  %arrayidx9 = getelementptr inbounds [3 x float], [3 x float]* %Lower_Left8, i64 0, i64 2, !dbg !1400
  store float %conv7, float* %arrayidx9, align 4, !dbg !1402
  %9 = load double*, double** %maxs.addr, align 8, !dbg !1403
  %arrayidx10 = getelementptr inbounds double, double* %9, i64 0, !dbg !1403
  %10 = load double, double* %arrayidx10, align 8, !dbg !1403
  %11 = load double*, double** %mins.addr, align 8, !dbg !1404
  %arrayidx11 = getelementptr inbounds double, double* %11, i64 0, !dbg !1404
  %12 = load double, double* %arrayidx11, align 8, !dbg !1404
  %sub = fsub double %10, %12, !dbg !1405
  %conv12 = fptrunc double %sub to float, !dbg !1406
  %13 = load %"struct.pov::Bounding_Box_Struct"*, %"struct.pov::Bounding_Box_Struct"** %BBox.addr, align 8, !dbg !1407
  %Lengths = getelementptr inbounds %"struct.pov::Bounding_Box_Struct", %"struct.pov::Bounding_Box_Struct"* %13, i32 0, i32 1, !dbg !1408
  %arrayidx13 = getelementptr inbounds [3 x float], [3 x float]* %Lengths, i64 0, i64 0, !dbg !1407
  store float %conv12, float* %arrayidx13, align 4, !dbg !1409
  %14 = load double*, double** %maxs.addr, align 8, !dbg !1410
  %arrayidx14 = getelementptr inbounds double, double* %14, i64 1, !dbg !1410
  %15 = load double, double* %arrayidx14, align 8, !dbg !1410
  %16 = load double*, double** %mins.addr, align 8, !dbg !1411
  %arrayidx15 = getelementptr inbounds double, double* %16, i64 1, !dbg !1411
  %17 = load double, double* %arrayidx15, align 8, !dbg !1411
  %sub16 = fsub double %15, %17, !dbg !1412
  %conv17 = fptrunc double %sub16 to float, !dbg !1413
  %18 = load %"struct.pov::Bounding_Box_Struct"*, %"struct.pov::Bounding_Box_Struct"** %BBox.addr, align 8, !dbg !1414
  %Lengths18 = getelementptr inbounds %"struct.pov::Bounding_Box_Struct", %"struct.pov::Bounding_Box_Struct"* %18, i32 0, i32 1, !dbg !1415
  %arrayidx19 = getelementptr inbounds [3 x float], [3 x float]* %Lengths18, i64 0, i64 1, !dbg !1414
  store float %conv17, float* %arrayidx19, align 4, !dbg !1416
  %19 = load double*, double** %maxs.addr, align 8, !dbg !1417
  %arrayidx20 = getelementptr inbounds double, double* %19, i64 2, !dbg !1417
  %20 = load double, double* %arrayidx20, align 8, !dbg !1417
  %21 = load double*, double** %mins.addr, align 8, !dbg !1418
  %arrayidx21 = getelementptr inbounds double, double* %21, i64 2, !dbg !1418
  %22 = load double, double* %arrayidx21, align 8, !dbg !1418
  %sub22 = fsub double %20, %22, !dbg !1419
  %conv23 = fptrunc double %sub22 to float, !dbg !1420
  %23 = load %"struct.pov::Bounding_Box_Struct"*, %"struct.pov::Bounding_Box_Struct"** %BBox.addr, align 8, !dbg !1421
  %Lengths24 = getelementptr inbounds %"struct.pov::Bounding_Box_Struct", %"struct.pov::Bounding_Box_Struct"* %23, i32 0, i32 1, !dbg !1422
  %arrayidx25 = getelementptr inbounds [3 x float], [3 x float]* %Lengths24, i64 0, i64 2, !dbg !1421
  store float %conv23, float* %arrayidx25, align 4, !dbg !1423
  ret void, !dbg !1424
}

; Function Attrs: noinline uwtable
define dso_local void @_ZN3pov22Recompute_Inverse_BBoxEPNS_19Bounding_Box_StructEPNS_16Transform_StructE(%"struct.pov::Bounding_Box_Struct"* %bbox, %"struct.pov::Transform_Struct"* %trans) #0 !dbg !1425 {
entry:
  %bbox.addr = alloca %"struct.pov::Bounding_Box_Struct"*, align 8
  %trans.addr = alloca %"struct.pov::Transform_Struct"*, align 8
  %i = alloca i32, align 4
  %lower_left = alloca [3 x double], align 16
  %lengths = alloca [3 x double], align 16
  %corner = alloca [3 x double], align 16
  %mins = alloca [3 x double], align 16
  %maxs = alloca [3 x double], align 16
  store %"struct.pov::Bounding_Box_Struct"* %bbox, %"struct.pov::Bounding_Box_Struct"** %bbox.addr, align 8
  call void @llvm.dbg.declare(metadata %"struct.pov::Bounding_Box_Struct"** %bbox.addr, metadata !1426, metadata !DIExpression()), !dbg !1427
  store %"struct.pov::Transform_Struct"* %trans, %"struct.pov::Transform_Struct"** %trans.addr, align 8
  call void @llvm.dbg.declare(metadata %"struct.pov::Transform_Struct"** %trans.addr, metadata !1428, metadata !DIExpression()), !dbg !1429
  call void @llvm.dbg.declare(metadata i32* %i, metadata !1430, metadata !DIExpression()), !dbg !1431
  call void @llvm.dbg.declare(metadata [3 x double]* %lower_left, metadata !1432, metadata !DIExpression()), !dbg !1433
  call void @llvm.dbg.declare(metadata [3 x double]* %lengths, metadata !1434, metadata !DIExpression()), !dbg !1435
  call void @llvm.dbg.declare(metadata [3 x double]* %corner, metadata !1436, metadata !DIExpression()), !dbg !1437
  call void @llvm.dbg.declare(metadata [3 x double]* %mins, metadata !1438, metadata !DIExpression()), !dbg !1439
  call void @llvm.dbg.declare(metadata [3 x double]* %maxs, metadata !1440, metadata !DIExpression()), !dbg !1441
  %0 = load %"struct.pov::Transform_Struct"*, %"struct.pov::Transform_Struct"** %trans.addr, align 8, !dbg !1442
  %cmp = icmp eq %"struct.pov::Transform_Struct"* %0, null, !dbg !1444
  br i1 %cmp, label %if.then, label %if.end, !dbg !1445

if.then:                                          ; preds = %entry
  br label %return, !dbg !1446

if.end:                                           ; preds = %entry
  %1 = load %"struct.pov::Bounding_Box_Struct"*, %"struct.pov::Bounding_Box_Struct"** %bbox.addr, align 8, !dbg !1448
  %Lower_Left = getelementptr inbounds %"struct.pov::Bounding_Box_Struct", %"struct.pov::Bounding_Box_Struct"* %1, i32 0, i32 0, !dbg !1449
  %arraydecay = getelementptr inbounds [3 x float], [3 x float]* %Lower_Left, i64 0, i64 0, !dbg !1448
  call void @_ZN3pov16Assign_BBox_VectERA3_dPf([3 x double]* dereferenceable(24) %lower_left, float* %arraydecay), !dbg !1450
  %2 = load %"struct.pov::Bounding_Box_Struct"*, %"struct.pov::Bounding_Box_Struct"** %bbox.addr, align 8, !dbg !1451
  %Lengths = getelementptr inbounds %"struct.pov::Bounding_Box_Struct", %"struct.pov::Bounding_Box_Struct"* %2, i32 0, i32 1, !dbg !1452
  %arraydecay1 = getelementptr inbounds [3 x float], [3 x float]* %Lengths, i64 0, i64 0, !dbg !1451
  call void @_ZN3pov16Assign_BBox_VectERA3_dPf([3 x double]* dereferenceable(24) %lengths, float* %arraydecay1), !dbg !1453
  %arraydecay2 = getelementptr inbounds [3 x double], [3 x double]* %mins, i64 0, i64 0, !dbg !1454
  call void @_ZN3pov11Make_VectorEPdddd(double* %arraydecay2, double 2.000000e+10, double 2.000000e+10, double 2.000000e+10), !dbg !1455
  %arraydecay3 = getelementptr inbounds [3 x double], [3 x double]* %maxs, i64 0, i64 0, !dbg !1456
  call void @_ZN3pov11Make_VectorEPdddd(double* %arraydecay3, double -2.000000e+10, double -2.000000e+10, double -2.000000e+10), !dbg !1457
  store i32 1, i32* %i, align 4, !dbg !1458
  br label %for.cond, !dbg !1460

for.cond:                                         ; preds = %for.inc, %if.end
  %3 = load i32, i32* %i, align 4, !dbg !1461
  %cmp4 = icmp sle i32 %3, 8, !dbg !1463
  br i1 %cmp4, label %for.body, label %for.end, !dbg !1464

for.body:                                         ; preds = %for.cond
  %arraydecay5 = getelementptr inbounds [3 x double], [3 x double]* %corner, i64 0, i64 0, !dbg !1465
  %arraydecay6 = getelementptr inbounds [3 x double], [3 x double]* %lower_left, i64 0, i64 0, !dbg !1467
  call void @_ZN3pov13Assign_VectorEPdS0_(double* %arraydecay5, double* %arraydecay6), !dbg !1468
  %4 = load i32, i32* %i, align 4, !dbg !1469
  %and = and i32 %4, 1, !dbg !1470
  %tobool = icmp ne i32 %and, 0, !dbg !1471
  br i1 %tobool, label %cond.true, label %cond.false, !dbg !1471

cond.true:                                        ; preds = %for.body
  %arrayidx = getelementptr inbounds [3 x double], [3 x double]* %lengths, i64 0, i64 0, !dbg !1472
  %5 = load double, double* %arrayidx, align 16, !dbg !1472
  br label %cond.end, !dbg !1471

cond.false:                                       ; preds = %for.body
  br label %cond.end, !dbg !1471

cond.end:                                         ; preds = %cond.false, %cond.true
  %cond = phi double [ %5, %cond.true ], [ 0.000000e+00, %cond.false ], !dbg !1471
  %arrayidx7 = getelementptr inbounds [3 x double], [3 x double]* %corner, i64 0, i64 0, !dbg !1473
  %6 = load double, double* %arrayidx7, align 16, !dbg !1474
  %add = fadd double %6, %cond, !dbg !1474
  store double %add, double* %arrayidx7, align 16, !dbg !1474
  %7 = load i32, i32* %i, align 4, !dbg !1475
  %and8 = and i32 %7, 2, !dbg !1476
  %tobool9 = icmp ne i32 %and8, 0, !dbg !1477
  br i1 %tobool9, label %cond.true10, label %cond.false12, !dbg !1477

cond.true10:                                      ; preds = %cond.end
  %arrayidx11 = getelementptr inbounds [3 x double], [3 x double]* %lengths, i64 0, i64 1, !dbg !1478
  %8 = load double, double* %arrayidx11, align 8, !dbg !1478
  br label %cond.end13, !dbg !1477

cond.false12:                                     ; preds = %cond.end
  br label %cond.end13, !dbg !1477

cond.end13:                                       ; preds = %cond.false12, %cond.true10
  %cond14 = phi double [ %8, %cond.true10 ], [ 0.000000e+00, %cond.false12 ], !dbg !1477
  %arrayidx15 = getelementptr inbounds [3 x double], [3 x double]* %corner, i64 0, i64 1, !dbg !1479
  %9 = load double, double* %arrayidx15, align 8, !dbg !1480
  %add16 = fadd double %9, %cond14, !dbg !1480
  store double %add16, double* %arrayidx15, align 8, !dbg !1480
  %10 = load i32, i32* %i, align 4, !dbg !1481
  %and17 = and i32 %10, 4, !dbg !1482
  %tobool18 = icmp ne i32 %and17, 0, !dbg !1483
  br i1 %tobool18, label %cond.true19, label %cond.false21, !dbg !1483

cond.true19:                                      ; preds = %cond.end13
  %arrayidx20 = getelementptr inbounds [3 x double], [3 x double]* %lengths, i64 0, i64 2, !dbg !1484
  %11 = load double, double* %arrayidx20, align 16, !dbg !1484
  br label %cond.end22, !dbg !1483

cond.false21:                                     ; preds = %cond.end13
  br label %cond.end22, !dbg !1483

cond.end22:                                       ; preds = %cond.false21, %cond.true19
  %cond23 = phi double [ %11, %cond.true19 ], [ 0.000000e+00, %cond.false21 ], !dbg !1483
  %arrayidx24 = getelementptr inbounds [3 x double], [3 x double]* %corner, i64 0, i64 2, !dbg !1485
  %12 = load double, double* %arrayidx24, align 16, !dbg !1486
  %add25 = fadd double %12, %cond23, !dbg !1486
  store double %add25, double* %arrayidx24, align 16, !dbg !1486
  %arraydecay26 = getelementptr inbounds [3 x double], [3 x double]* %corner, i64 0, i64 0, !dbg !1487
  %arraydecay27 = getelementptr inbounds [3 x double], [3 x double]* %corner, i64 0, i64 0, !dbg !1488
  %13 = load %"struct.pov::Transform_Struct"*, %"struct.pov::Transform_Struct"** %trans.addr, align 8, !dbg !1489
  call void @_ZN3pov14MInvTransPointEPdS0_PNS_16Transform_StructE(double* %arraydecay26, double* %arraydecay27, %"struct.pov::Transform_Struct"* %13), !dbg !1490
  %arrayidx28 = getelementptr inbounds [3 x double], [3 x double]* %corner, i64 0, i64 0, !dbg !1491
  %14 = load double, double* %arrayidx28, align 16, !dbg !1491
  %arrayidx29 = getelementptr inbounds [3 x double], [3 x double]* %mins, i64 0, i64 0, !dbg !1493
  %15 = load double, double* %arrayidx29, align 16, !dbg !1493
  %cmp30 = fcmp olt double %14, %15, !dbg !1494
  br i1 %cmp30, label %if.then31, label %if.end34, !dbg !1495

if.then31:                                        ; preds = %cond.end22
  %arrayidx32 = getelementptr inbounds [3 x double], [3 x double]* %corner, i64 0, i64 0, !dbg !1496
  %16 = load double, double* %arrayidx32, align 16, !dbg !1496
  %arrayidx33 = getelementptr inbounds [3 x double], [3 x double]* %mins, i64 0, i64 0, !dbg !1498
  store double %16, double* %arrayidx33, align 16, !dbg !1499
  br label %if.end34, !dbg !1500

if.end34:                                         ; preds = %if.then31, %cond.end22
  %arrayidx35 = getelementptr inbounds [3 x double], [3 x double]* %corner, i64 0, i64 0, !dbg !1501
  %17 = load double, double* %arrayidx35, align 16, !dbg !1501
  %arrayidx36 = getelementptr inbounds [3 x double], [3 x double]* %maxs, i64 0, i64 0, !dbg !1503
  %18 = load double, double* %arrayidx36, align 16, !dbg !1503
  %cmp37 = fcmp ogt double %17, %18, !dbg !1504
  br i1 %cmp37, label %if.then38, label %if.end41, !dbg !1505

if.then38:                                        ; preds = %if.end34
  %arrayidx39 = getelementptr inbounds [3 x double], [3 x double]* %corner, i64 0, i64 0, !dbg !1506
  %19 = load double, double* %arrayidx39, align 16, !dbg !1506
  %arrayidx40 = getelementptr inbounds [3 x double], [3 x double]* %maxs, i64 0, i64 0, !dbg !1508
  store double %19, double* %arrayidx40, align 16, !dbg !1509
  br label %if.end41, !dbg !1510

if.end41:                                         ; preds = %if.then38, %if.end34
  %arrayidx42 = getelementptr inbounds [3 x double], [3 x double]* %corner, i64 0, i64 1, !dbg !1511
  %20 = load double, double* %arrayidx42, align 8, !dbg !1511
  %arrayidx43 = getelementptr inbounds [3 x double], [3 x double]* %mins, i64 0, i64 1, !dbg !1513
  %21 = load double, double* %arrayidx43, align 8, !dbg !1513
  %cmp44 = fcmp olt double %20, %21, !dbg !1514
  br i1 %cmp44, label %if.then45, label %if.end48, !dbg !1515

if.then45:                                        ; preds = %if.end41
  %arrayidx46 = getelementptr inbounds [3 x double], [3 x double]* %corner, i64 0, i64 1, !dbg !1516
  %22 = load double, double* %arrayidx46, align 8, !dbg !1516
  %arrayidx47 = getelementptr inbounds [3 x double], [3 x double]* %mins, i64 0, i64 1, !dbg !1518
  store double %22, double* %arrayidx47, align 8, !dbg !1519
  br label %if.end48, !dbg !1520

if.end48:                                         ; preds = %if.then45, %if.end41
  %arrayidx49 = getelementptr inbounds [3 x double], [3 x double]* %corner, i64 0, i64 1, !dbg !1521
  %23 = load double, double* %arrayidx49, align 8, !dbg !1521
  %arrayidx50 = getelementptr inbounds [3 x double], [3 x double]* %maxs, i64 0, i64 1, !dbg !1523
  %24 = load double, double* %arrayidx50, align 8, !dbg !1523
  %cmp51 = fcmp ogt double %23, %24, !dbg !1524
  br i1 %cmp51, label %if.then52, label %if.end55, !dbg !1525

if.then52:                                        ; preds = %if.end48
  %arrayidx53 = getelementptr inbounds [3 x double], [3 x double]* %corner, i64 0, i64 1, !dbg !1526
  %25 = load double, double* %arrayidx53, align 8, !dbg !1526
  %arrayidx54 = getelementptr inbounds [3 x double], [3 x double]* %maxs, i64 0, i64 1, !dbg !1528
  store double %25, double* %arrayidx54, align 8, !dbg !1529
  br label %if.end55, !dbg !1530

if.end55:                                         ; preds = %if.then52, %if.end48
  %arrayidx56 = getelementptr inbounds [3 x double], [3 x double]* %corner, i64 0, i64 2, !dbg !1531
  %26 = load double, double* %arrayidx56, align 16, !dbg !1531
  %arrayidx57 = getelementptr inbounds [3 x double], [3 x double]* %mins, i64 0, i64 2, !dbg !1533
  %27 = load double, double* %arrayidx57, align 16, !dbg !1533
  %cmp58 = fcmp olt double %26, %27, !dbg !1534
  br i1 %cmp58, label %if.then59, label %if.end62, !dbg !1535

if.then59:                                        ; preds = %if.end55
  %arrayidx60 = getelementptr inbounds [3 x double], [3 x double]* %corner, i64 0, i64 2, !dbg !1536
  %28 = load double, double* %arrayidx60, align 16, !dbg !1536
  %arrayidx61 = getelementptr inbounds [3 x double], [3 x double]* %mins, i64 0, i64 2, !dbg !1538
  store double %28, double* %arrayidx61, align 16, !dbg !1539
  br label %if.end62, !dbg !1540

if.end62:                                         ; preds = %if.then59, %if.end55
  %arrayidx63 = getelementptr inbounds [3 x double], [3 x double]* %corner, i64 0, i64 2, !dbg !1541
  %29 = load double, double* %arrayidx63, align 16, !dbg !1541
  %arrayidx64 = getelementptr inbounds [3 x double], [3 x double]* %maxs, i64 0, i64 2, !dbg !1543
  %30 = load double, double* %arrayidx64, align 16, !dbg !1543
  %cmp65 = fcmp ogt double %29, %30, !dbg !1544
  br i1 %cmp65, label %if.then66, label %if.end69, !dbg !1545

if.then66:                                        ; preds = %if.end62
  %arrayidx67 = getelementptr inbounds [3 x double], [3 x double]* %corner, i64 0, i64 2, !dbg !1546
  %31 = load double, double* %arrayidx67, align 16, !dbg !1546
  %arrayidx68 = getelementptr inbounds [3 x double], [3 x double]* %maxs, i64 0, i64 2, !dbg !1548
  store double %31, double* %arrayidx68, align 16, !dbg !1549
  br label %if.end69, !dbg !1550

if.end69:                                         ; preds = %if.then66, %if.end62
  br label %for.inc, !dbg !1551

for.inc:                                          ; preds = %if.end69
  %32 = load i32, i32* %i, align 4, !dbg !1552
  %inc = add nsw i32 %32, 1, !dbg !1552
  store i32 %inc, i32* %i, align 4, !dbg !1552
  br label %for.cond, !dbg !1553, !llvm.loop !1554

for.end:                                          ; preds = %for.cond
  %arrayidx70 = getelementptr inbounds [3 x double], [3 x double]* %mins, i64 0, i64 0, !dbg !1556
  %33 = load double, double* %arrayidx70, align 16, !dbg !1556
  %cmp71 = fcmp olt double %33, -1.000000e+10, !dbg !1558
  br i1 %cmp71, label %if.then72, label %if.end74, !dbg !1559

if.then72:                                        ; preds = %for.end
  %arrayidx73 = getelementptr inbounds [3 x double], [3 x double]* %mins, i64 0, i64 0, !dbg !1560
  store double -1.000000e+10, double* %arrayidx73, align 16, !dbg !1562
  br label %if.end74, !dbg !1563

if.end74:                                         ; preds = %if.then72, %for.end
  %arrayidx75 = getelementptr inbounds [3 x double], [3 x double]* %mins, i64 0, i64 1, !dbg !1564
  %34 = load double, double* %arrayidx75, align 8, !dbg !1564
  %cmp76 = fcmp olt double %34, -1.000000e+10, !dbg !1566
  br i1 %cmp76, label %if.then77, label %if.end79, !dbg !1567

if.then77:                                        ; preds = %if.end74
  %arrayidx78 = getelementptr inbounds [3 x double], [3 x double]* %mins, i64 0, i64 1, !dbg !1568
  store double -1.000000e+10, double* %arrayidx78, align 8, !dbg !1570
  br label %if.end79, !dbg !1571

if.end79:                                         ; preds = %if.then77, %if.end74
  %arrayidx80 = getelementptr inbounds [3 x double], [3 x double]* %mins, i64 0, i64 2, !dbg !1572
  %35 = load double, double* %arrayidx80, align 16, !dbg !1572
  %cmp81 = fcmp olt double %35, -1.000000e+10, !dbg !1574
  br i1 %cmp81, label %if.then82, label %if.end84, !dbg !1575

if.then82:                                        ; preds = %if.end79
  %arrayidx83 = getelementptr inbounds [3 x double], [3 x double]* %mins, i64 0, i64 2, !dbg !1576
  store double -1.000000e+10, double* %arrayidx83, align 16, !dbg !1578
  br label %if.end84, !dbg !1579

if.end84:                                         ; preds = %if.then82, %if.end79
  %arrayidx85 = getelementptr inbounds [3 x double], [3 x double]* %maxs, i64 0, i64 0, !dbg !1580
  %36 = load double, double* %arrayidx85, align 16, !dbg !1580
  %cmp86 = fcmp ogt double %36, 1.000000e+10, !dbg !1582
  br i1 %cmp86, label %if.then87, label %if.end89, !dbg !1583

if.then87:                                        ; preds = %if.end84
  %arrayidx88 = getelementptr inbounds [3 x double], [3 x double]* %maxs, i64 0, i64 0, !dbg !1584
  store double 1.000000e+10, double* %arrayidx88, align 16, !dbg !1586
  br label %if.end89, !dbg !1587

if.end89:                                         ; preds = %if.then87, %if.end84
  %arrayidx90 = getelementptr inbounds [3 x double], [3 x double]* %maxs, i64 0, i64 1, !dbg !1588
  %37 = load double, double* %arrayidx90, align 8, !dbg !1588
  %cmp91 = fcmp ogt double %37, 1.000000e+10, !dbg !1590
  br i1 %cmp91, label %if.then92, label %if.end94, !dbg !1591

if.then92:                                        ; preds = %if.end89
  %arrayidx93 = getelementptr inbounds [3 x double], [3 x double]* %maxs, i64 0, i64 1, !dbg !1592
  store double 1.000000e+10, double* %arrayidx93, align 8, !dbg !1594
  br label %if.end94, !dbg !1595

if.end94:                                         ; preds = %if.then92, %if.end89
  %arrayidx95 = getelementptr inbounds [3 x double], [3 x double]* %maxs, i64 0, i64 2, !dbg !1596
  %38 = load double, double* %arrayidx95, align 16, !dbg !1596
  %cmp96 = fcmp ogt double %38, 1.000000e+10, !dbg !1598
  br i1 %cmp96, label %if.then97, label %if.end99, !dbg !1599

if.then97:                                        ; preds = %if.end94
  %arrayidx98 = getelementptr inbounds [3 x double], [3 x double]* %maxs, i64 0, i64 2, !dbg !1600
  store double 1.000000e+10, double* %arrayidx98, align 16, !dbg !1602
  br label %if.end99, !dbg !1603

if.end99:                                         ; preds = %if.then97, %if.end94
  %39 = load %"struct.pov::Bounding_Box_Struct"*, %"struct.pov::Bounding_Box_Struct"** %bbox.addr, align 8, !dbg !1604
  %arraydecay100 = getelementptr inbounds [3 x double], [3 x double]* %mins, i64 0, i64 0, !dbg !1605
  %arraydecay101 = getelementptr inbounds [3 x double], [3 x double]* %maxs, i64 0, i64 0, !dbg !1606
  call void @_ZN3pov22Make_BBox_from_min_maxERNS_19Bounding_Box_StructEPdS2_(%"struct.pov::Bounding_Box_Struct"* dereferenceable(24) %39, double* %arraydecay100, double* %arraydecay101), !dbg !1607
  br label %return, !dbg !1608

return:                                           ; preds = %if.end99, %if.then
  ret void, !dbg !1608
}

declare dso_local void @_ZN3pov14MInvTransPointEPdS0_PNS_16Transform_StructE(double*, double*, %"struct.pov::Transform_Struct"*) #2

; Function Attrs: noinline uwtable
define dso_local void @_ZN3pov15Build_BBox_TreeEPPNS_16BBox_Tree_StructElRS2_lS2_(%"struct.pov::BBox_Tree_Struct"** %Root, i64 %numOfFiniteObjects, %"struct.pov::BBox_Tree_Struct"*** dereferenceable(8) %Finite, i64 %numOfInfiniteObjects, %"struct.pov::BBox_Tree_Struct"** %Infinite) #0 !dbg !1609 {
entry:
  %Root.addr = alloca %"struct.pov::BBox_Tree_Struct"**, align 8
  %numOfFiniteObjects.addr = alloca i64, align 8
  %Finite.addr = alloca %"struct.pov::BBox_Tree_Struct"***, align 8
  %numOfInfiniteObjects.addr = alloca i64, align 8
  %Infinite.addr = alloca %"struct.pov::BBox_Tree_Struct"**, align 8
  %i = alloca i16, align 2
  %low = alloca i64, align 8
  %high = alloca i64, align 8
  %cd = alloca %"struct.pov::BBox_Tree_Struct"*, align 8
  %root = alloca %"struct.pov::BBox_Tree_Struct"*, align 8
  store %"struct.pov::BBox_Tree_Struct"** %Root, %"struct.pov::BBox_Tree_Struct"*** %Root.addr, align 8
  call void @llvm.dbg.declare(metadata %"struct.pov::BBox_Tree_Struct"*** %Root.addr, metadata !1613, metadata !DIExpression()), !dbg !1614
  store i64 %numOfFiniteObjects, i64* %numOfFiniteObjects.addr, align 8
  call void @llvm.dbg.declare(metadata i64* %numOfFiniteObjects.addr, metadata !1615, metadata !DIExpression()), !dbg !1616
  store %"struct.pov::BBox_Tree_Struct"*** %Finite, %"struct.pov::BBox_Tree_Struct"**** %Finite.addr, align 8
  call void @llvm.dbg.declare(metadata %"struct.pov::BBox_Tree_Struct"**** %Finite.addr, metadata !1617, metadata !DIExpression()), !dbg !1618
  store i64 %numOfInfiniteObjects, i64* %numOfInfiniteObjects.addr, align 8
  call void @llvm.dbg.declare(metadata i64* %numOfInfiniteObjects.addr, metadata !1619, metadata !DIExpression()), !dbg !1620
  store %"struct.pov::BBox_Tree_Struct"** %Infinite, %"struct.pov::BBox_Tree_Struct"*** %Infinite.addr, align 8
  call void @llvm.dbg.declare(metadata %"struct.pov::BBox_Tree_Struct"*** %Infinite.addr, metadata !1621, metadata !DIExpression()), !dbg !1622
  call void @llvm.dbg.declare(metadata i16* %i, metadata !1623, metadata !DIExpression()), !dbg !1624
  call void @llvm.dbg.declare(metadata i64* %low, metadata !1625, metadata !DIExpression()), !dbg !1626
  call void @llvm.dbg.declare(metadata i64* %high, metadata !1627, metadata !DIExpression()), !dbg !1628
  call void @llvm.dbg.declare(metadata %"struct.pov::BBox_Tree_Struct"** %cd, metadata !1629, metadata !DIExpression()), !dbg !1630
  call void @llvm.dbg.declare(metadata %"struct.pov::BBox_Tree_Struct"** %root, metadata !1631, metadata !DIExpression()), !dbg !1632
  %0 = load i64, i64* %numOfFiniteObjects.addr, align 8, !dbg !1633
  %mul = mul nsw i64 2, %0, !dbg !1634
  store i64 %mul, i64* @_ZN3povL14maxfinitecountE, align 8, !dbg !1635
  %1 = load i64, i64* %numOfFiniteObjects.addr, align 8, !dbg !1636
  %cmp = icmp sgt i64 %1, 0, !dbg !1638
  br i1 %cmp, label %if.then, label %if.else, !dbg !1639

if.then:                                          ; preds = %entry
  store i64 0, i64* %low, align 8, !dbg !1640
  %2 = load i64, i64* %numOfFiniteObjects.addr, align 8, !dbg !1642
  store i64 %2, i64* %high, align 8, !dbg !1643
  br label %while.cond, !dbg !1644

while.cond:                                       ; preds = %while.body, %if.then
  %3 = load %"struct.pov::BBox_Tree_Struct"**, %"struct.pov::BBox_Tree_Struct"*** %Root.addr, align 8, !dbg !1645
  %4 = load %"struct.pov::BBox_Tree_Struct"***, %"struct.pov::BBox_Tree_Struct"**** %Finite.addr, align 8, !dbg !1646
  %5 = load i64, i64* %low, align 8, !dbg !1647
  %6 = load i64, i64* %high, align 8, !dbg !1648
  %call = call i32 @_ZN3povL14sort_and_splitEPPNS_16BBox_Tree_StructERS2_Plll(%"struct.pov::BBox_Tree_Struct"** %3, %"struct.pov::BBox_Tree_Struct"*** dereferenceable(8) %4, i64* %numOfFiniteObjects.addr, i64 %5, i64 %6), !dbg !1649
  %cmp1 = icmp eq i32 %call, 0, !dbg !1650
  br i1 %cmp1, label %while.body, label %while.end, !dbg !1644

while.body:                                       ; preds = %while.cond
  %7 = load i64, i64* %high, align 8, !dbg !1651
  store i64 %7, i64* %low, align 8, !dbg !1653
  %8 = load i64, i64* %numOfFiniteObjects.addr, align 8, !dbg !1654
  store i64 %8, i64* %high, align 8, !dbg !1655
  call void @_ZN3pov12Do_CooperateEi(i32 0), !dbg !1656
  br label %while.cond, !dbg !1644, !llvm.loop !1657

while.end:                                        ; preds = %while.cond
  %9 = load i64, i64* %numOfInfiniteObjects.addr, align 8, !dbg !1659
  %cmp2 = icmp sgt i64 %9, 0, !dbg !1661
  br i1 %cmp2, label %if.then3, label %if.end, !dbg !1662

if.then3:                                         ; preds = %while.end
  %10 = load %"struct.pov::BBox_Tree_Struct"**, %"struct.pov::BBox_Tree_Struct"*** %Root.addr, align 8, !dbg !1663
  %11 = load %"struct.pov::BBox_Tree_Struct"*, %"struct.pov::BBox_Tree_Struct"** %10, align 8, !dbg !1665
  store %"struct.pov::BBox_Tree_Struct"* %11, %"struct.pov::BBox_Tree_Struct"** %root, align 8, !dbg !1666
  %12 = load %"struct.pov::BBox_Tree_Struct"*, %"struct.pov::BBox_Tree_Struct"** %root, align 8, !dbg !1667
  %Node = getelementptr inbounds %"struct.pov::BBox_Tree_Struct", %"struct.pov::BBox_Tree_Struct"* %12, i32 0, i32 3, !dbg !1667
  %13 = load %"struct.pov::BBox_Tree_Struct"**, %"struct.pov::BBox_Tree_Struct"*** %Node, align 8, !dbg !1667
  %14 = bitcast %"struct.pov::BBox_Tree_Struct"** %13 to i8*, !dbg !1667
  %15 = load %"struct.pov::BBox_Tree_Struct"*, %"struct.pov::BBox_Tree_Struct"** %root, align 8, !dbg !1667
  %Entries = getelementptr inbounds %"struct.pov::BBox_Tree_Struct", %"struct.pov::BBox_Tree_Struct"* %15, i32 0, i32 1, !dbg !1667
  %16 = load i16, i16* %Entries, align 2, !dbg !1667
  %conv = sext i16 %16 to i32, !dbg !1667
  %add = add nsw i32 %conv, 1, !dbg !1667
  %conv4 = sext i32 %add to i64, !dbg !1667
  %mul5 = mul i64 %conv4, 8, !dbg !1667
  %call6 = call i8* @_ZN3pov11pov_reallocEPvmPKciS2_(i8* %14, i64 %mul5, i8* getelementptr inbounds ([9 x i8], [9 x i8]* @.str, i64 0, i64 0), i32 557, i8* getelementptr inbounds ([10 x i8], [10 x i8]* @.str.2, i64 0, i64 0)), !dbg !1667
  %17 = bitcast i8* %call6 to %"struct.pov::BBox_Tree_Struct"**, !dbg !1668
  %18 = load %"struct.pov::BBox_Tree_Struct"*, %"struct.pov::BBox_Tree_Struct"** %root, align 8, !dbg !1669
  %Node7 = getelementptr inbounds %"struct.pov::BBox_Tree_Struct", %"struct.pov::BBox_Tree_Struct"* %18, i32 0, i32 3, !dbg !1670
  store %"struct.pov::BBox_Tree_Struct"** %17, %"struct.pov::BBox_Tree_Struct"*** %Node7, align 8, !dbg !1671
  %19 = load %"struct.pov::BBox_Tree_Struct"*, %"struct.pov::BBox_Tree_Struct"** %root, align 8, !dbg !1672
  %Node8 = getelementptr inbounds %"struct.pov::BBox_Tree_Struct", %"struct.pov::BBox_Tree_Struct"* %19, i32 0, i32 3, !dbg !1672
  %20 = load %"struct.pov::BBox_Tree_Struct"**, %"struct.pov::BBox_Tree_Struct"*** %Node8, align 8, !dbg !1672
  %arrayidx = getelementptr inbounds %"struct.pov::BBox_Tree_Struct"*, %"struct.pov::BBox_Tree_Struct"** %20, i64 1, !dbg !1672
  %21 = bitcast %"struct.pov::BBox_Tree_Struct"** %arrayidx to i8*, !dbg !1672
  %22 = load %"struct.pov::BBox_Tree_Struct"*, %"struct.pov::BBox_Tree_Struct"** %root, align 8, !dbg !1672
  %Node9 = getelementptr inbounds %"struct.pov::BBox_Tree_Struct", %"struct.pov::BBox_Tree_Struct"* %22, i32 0, i32 3, !dbg !1672
  %23 = load %"struct.pov::BBox_Tree_Struct"**, %"struct.pov::BBox_Tree_Struct"*** %Node9, align 8, !dbg !1672
  %arrayidx10 = getelementptr inbounds %"struct.pov::BBox_Tree_Struct"*, %"struct.pov::BBox_Tree_Struct"** %23, i64 0, !dbg !1672
  %24 = bitcast %"struct.pov::BBox_Tree_Struct"** %arrayidx10 to i8*, !dbg !1672
  %25 = load %"struct.pov::BBox_Tree_Struct"*, %"struct.pov::BBox_Tree_Struct"** %root, align 8, !dbg !1672
  %Entries11 = getelementptr inbounds %"struct.pov::BBox_Tree_Struct", %"struct.pov::BBox_Tree_Struct"* %25, i32 0, i32 1, !dbg !1672
  %26 = load i16, i16* %Entries11, align 2, !dbg !1672
  %conv12 = sext i16 %26 to i64, !dbg !1672
  %mul13 = mul i64 %conv12, 8, !dbg !1672
  %call14 = call i8* @_ZN3pov11pov_memmoveEPvS0_m(i8* %21, i8* %24, i64 %mul13), !dbg !1672
  %27 = load %"struct.pov::BBox_Tree_Struct"*, %"struct.pov::BBox_Tree_Struct"** %root, align 8, !dbg !1673
  %Entries15 = getelementptr inbounds %"struct.pov::BBox_Tree_Struct", %"struct.pov::BBox_Tree_Struct"* %27, i32 0, i32 1, !dbg !1674
  %28 = load i16, i16* %Entries15, align 2, !dbg !1675
  %inc = add i16 %28, 1, !dbg !1675
  store i16 %inc, i16* %Entries15, align 2, !dbg !1675
  %29 = load i64, i64* %numOfInfiniteObjects.addr, align 8, !dbg !1676
  %conv16 = trunc i64 %29 to i32, !dbg !1676
  %call17 = call %"struct.pov::BBox_Tree_Struct"* @_ZN3povL16create_bbox_nodeEi(i32 %conv16), !dbg !1677
  store %"struct.pov::BBox_Tree_Struct"* %call17, %"struct.pov::BBox_Tree_Struct"** %cd, align 8, !dbg !1678
  store i16 0, i16* %i, align 2, !dbg !1679
  br label %for.cond, !dbg !1681

for.cond:                                         ; preds = %for.inc, %if.then3
  %30 = load i16, i16* %i, align 2, !dbg !1682
  %conv18 = sext i16 %30 to i64, !dbg !1682
  %31 = load i64, i64* %numOfInfiniteObjects.addr, align 8, !dbg !1684
  %cmp19 = icmp slt i64 %conv18, %31, !dbg !1685
  br i1 %cmp19, label %for.body, label %for.end, !dbg !1686

for.body:                                         ; preds = %for.cond
  %32 = load %"struct.pov::BBox_Tree_Struct"**, %"struct.pov::BBox_Tree_Struct"*** %Infinite.addr, align 8, !dbg !1687
  %33 = load i16, i16* %i, align 2, !dbg !1689
  %idxprom = sext i16 %33 to i64, !dbg !1687
  %arrayidx20 = getelementptr inbounds %"struct.pov::BBox_Tree_Struct"*, %"struct.pov::BBox_Tree_Struct"** %32, i64 %idxprom, !dbg !1687
  %34 = load %"struct.pov::BBox_Tree_Struct"*, %"struct.pov::BBox_Tree_Struct"** %arrayidx20, align 8, !dbg !1687
  %35 = load %"struct.pov::BBox_Tree_Struct"*, %"struct.pov::BBox_Tree_Struct"** %cd, align 8, !dbg !1690
  %Node21 = getelementptr inbounds %"struct.pov::BBox_Tree_Struct", %"struct.pov::BBox_Tree_Struct"* %35, i32 0, i32 3, !dbg !1691
  %36 = load %"struct.pov::BBox_Tree_Struct"**, %"struct.pov::BBox_Tree_Struct"*** %Node21, align 8, !dbg !1691
  %37 = load i16, i16* %i, align 2, !dbg !1692
  %idxprom22 = sext i16 %37 to i64, !dbg !1690
  %arrayidx23 = getelementptr inbounds %"struct.pov::BBox_Tree_Struct"*, %"struct.pov::BBox_Tree_Struct"** %36, i64 %idxprom22, !dbg !1690
  store %"struct.pov::BBox_Tree_Struct"* %34, %"struct.pov::BBox_Tree_Struct"** %arrayidx23, align 8, !dbg !1693
  br label %for.inc, !dbg !1694

for.inc:                                          ; preds = %for.body
  %38 = load i16, i16* %i, align 2, !dbg !1695
  %inc24 = add i16 %38, 1, !dbg !1695
  store i16 %inc24, i16* %i, align 2, !dbg !1695
  br label %for.cond, !dbg !1696, !llvm.loop !1697

for.end:                                          ; preds = %for.cond
  %39 = load %"struct.pov::BBox_Tree_Struct"*, %"struct.pov::BBox_Tree_Struct"** %cd, align 8, !dbg !1699
  %BBox = getelementptr inbounds %"struct.pov::BBox_Tree_Struct", %"struct.pov::BBox_Tree_Struct"* %39, i32 0, i32 2, !dbg !1700
  %40 = load %"struct.pov::BBox_Tree_Struct"**, %"struct.pov::BBox_Tree_Struct"*** %Infinite.addr, align 8, !dbg !1701
  %41 = load i64, i64* %numOfInfiniteObjects.addr, align 8, !dbg !1702
  call void @_ZN3povL9calc_bboxEPNS_19Bounding_Box_StructEPPNS_16BBox_Tree_StructEll(%"struct.pov::Bounding_Box_Struct"* %BBox, %"struct.pov::BBox_Tree_Struct"** %40, i64 0, i64 %41), !dbg !1703
  %42 = load %"struct.pov::BBox_Tree_Struct"*, %"struct.pov::BBox_Tree_Struct"** %cd, align 8, !dbg !1704
  %43 = load %"struct.pov::BBox_Tree_Struct"*, %"struct.pov::BBox_Tree_Struct"** %root, align 8, !dbg !1705
  %Node25 = getelementptr inbounds %"struct.pov::BBox_Tree_Struct", %"struct.pov::BBox_Tree_Struct"* %43, i32 0, i32 3, !dbg !1706
  %44 = load %"struct.pov::BBox_Tree_Struct"**, %"struct.pov::BBox_Tree_Struct"*** %Node25, align 8, !dbg !1706
  %arrayidx26 = getelementptr inbounds %"struct.pov::BBox_Tree_Struct"*, %"struct.pov::BBox_Tree_Struct"** %44, i64 0, !dbg !1705
  store %"struct.pov::BBox_Tree_Struct"* %42, %"struct.pov::BBox_Tree_Struct"** %arrayidx26, align 8, !dbg !1707
  %45 = load %"struct.pov::BBox_Tree_Struct"*, %"struct.pov::BBox_Tree_Struct"** %root, align 8, !dbg !1708
  %BBox27 = getelementptr inbounds %"struct.pov::BBox_Tree_Struct", %"struct.pov::BBox_Tree_Struct"* %45, i32 0, i32 2, !dbg !1709
  %46 = load %"struct.pov::BBox_Tree_Struct"*, %"struct.pov::BBox_Tree_Struct"** %root, align 8, !dbg !1710
  %Node28 = getelementptr inbounds %"struct.pov::BBox_Tree_Struct", %"struct.pov::BBox_Tree_Struct"* %46, i32 0, i32 3, !dbg !1711
  %47 = load %"struct.pov::BBox_Tree_Struct"**, %"struct.pov::BBox_Tree_Struct"*** %Node28, align 8, !dbg !1711
  %48 = load %"struct.pov::BBox_Tree_Struct"*, %"struct.pov::BBox_Tree_Struct"** %root, align 8, !dbg !1712
  %Entries29 = getelementptr inbounds %"struct.pov::BBox_Tree_Struct", %"struct.pov::BBox_Tree_Struct"* %48, i32 0, i32 1, !dbg !1713
  %49 = load i16, i16* %Entries29, align 2, !dbg !1713
  %conv30 = sext i16 %49 to i64, !dbg !1712
  call void @_ZN3povL9calc_bboxEPNS_19Bounding_Box_StructEPPNS_16BBox_Tree_StructEll(%"struct.pov::Bounding_Box_Struct"* %BBox27, %"struct.pov::BBox_Tree_Struct"** %47, i64 0, i64 %conv30), !dbg !1714
  %50 = load %"struct.pov::BBox_Tree_Struct"*, %"struct.pov::BBox_Tree_Struct"** %root, align 8, !dbg !1715
  %Infinite31 = getelementptr inbounds %"struct.pov::BBox_Tree_Struct", %"struct.pov::BBox_Tree_Struct"* %50, i32 0, i32 0, !dbg !1716
  store i16 1, i16* %Infinite31, align 8, !dbg !1717
  %51 = load %"struct.pov::BBox_Tree_Struct"*, %"struct.pov::BBox_Tree_Struct"** %root, align 8, !dbg !1718
  %Node32 = getelementptr inbounds %"struct.pov::BBox_Tree_Struct", %"struct.pov::BBox_Tree_Struct"* %51, i32 0, i32 3, !dbg !1719
  %52 = load %"struct.pov::BBox_Tree_Struct"**, %"struct.pov::BBox_Tree_Struct"*** %Node32, align 8, !dbg !1719
  %arrayidx33 = getelementptr inbounds %"struct.pov::BBox_Tree_Struct"*, %"struct.pov::BBox_Tree_Struct"** %52, i64 0, !dbg !1718
  %53 = load %"struct.pov::BBox_Tree_Struct"*, %"struct.pov::BBox_Tree_Struct"** %arrayidx33, align 8, !dbg !1718
  %Infinite34 = getelementptr inbounds %"struct.pov::BBox_Tree_Struct", %"struct.pov::BBox_Tree_Struct"* %53, i32 0, i32 0, !dbg !1720
  store i16 1, i16* %Infinite34, align 8, !dbg !1721
  br label %if.end, !dbg !1722

if.end:                                           ; preds = %for.end, %while.end
  br label %if.end54, !dbg !1723

if.else:                                          ; preds = %entry
  %54 = load i64, i64* %numOfInfiniteObjects.addr, align 8, !dbg !1724
  %cmp35 = icmp sgt i64 %54, 0, !dbg !1727
  br i1 %cmp35, label %if.then36, label %if.end53, !dbg !1728

if.then36:                                        ; preds = %if.else
  %55 = load i64, i64* %numOfInfiniteObjects.addr, align 8, !dbg !1729
  %conv37 = trunc i64 %55 to i32, !dbg !1729
  %call38 = call %"struct.pov::BBox_Tree_Struct"* @_ZN3povL16create_bbox_nodeEi(i32 %conv37), !dbg !1731
  store %"struct.pov::BBox_Tree_Struct"* %call38, %"struct.pov::BBox_Tree_Struct"** %cd, align 8, !dbg !1732
  store i16 0, i16* %i, align 2, !dbg !1733
  br label %for.cond39, !dbg !1735

for.cond39:                                       ; preds = %for.inc48, %if.then36
  %56 = load i16, i16* %i, align 2, !dbg !1736
  %conv40 = sext i16 %56 to i64, !dbg !1736
  %57 = load i64, i64* %numOfInfiniteObjects.addr, align 8, !dbg !1738
  %cmp41 = icmp slt i64 %conv40, %57, !dbg !1739
  br i1 %cmp41, label %for.body42, label %for.end50, !dbg !1740

for.body42:                                       ; preds = %for.cond39
  %58 = load %"struct.pov::BBox_Tree_Struct"**, %"struct.pov::BBox_Tree_Struct"*** %Infinite.addr, align 8, !dbg !1741
  %59 = load i16, i16* %i, align 2, !dbg !1743
  %idxprom43 = sext i16 %59 to i64, !dbg !1741
  %arrayidx44 = getelementptr inbounds %"struct.pov::BBox_Tree_Struct"*, %"struct.pov::BBox_Tree_Struct"** %58, i64 %idxprom43, !dbg !1741
  %60 = load %"struct.pov::BBox_Tree_Struct"*, %"struct.pov::BBox_Tree_Struct"** %arrayidx44, align 8, !dbg !1741
  %61 = load %"struct.pov::BBox_Tree_Struct"*, %"struct.pov::BBox_Tree_Struct"** %cd, align 8, !dbg !1744
  %Node45 = getelementptr inbounds %"struct.pov::BBox_Tree_Struct", %"struct.pov::BBox_Tree_Struct"* %61, i32 0, i32 3, !dbg !1745
  %62 = load %"struct.pov::BBox_Tree_Struct"**, %"struct.pov::BBox_Tree_Struct"*** %Node45, align 8, !dbg !1745
  %63 = load i16, i16* %i, align 2, !dbg !1746
  %idxprom46 = sext i16 %63 to i64, !dbg !1744
  %arrayidx47 = getelementptr inbounds %"struct.pov::BBox_Tree_Struct"*, %"struct.pov::BBox_Tree_Struct"** %62, i64 %idxprom46, !dbg !1744
  store %"struct.pov::BBox_Tree_Struct"* %60, %"struct.pov::BBox_Tree_Struct"** %arrayidx47, align 8, !dbg !1747
  br label %for.inc48, !dbg !1748

for.inc48:                                        ; preds = %for.body42
  %64 = load i16, i16* %i, align 2, !dbg !1749
  %inc49 = add i16 %64, 1, !dbg !1749
  store i16 %inc49, i16* %i, align 2, !dbg !1749
  br label %for.cond39, !dbg !1750, !llvm.loop !1751

for.end50:                                        ; preds = %for.cond39
  %65 = load %"struct.pov::BBox_Tree_Struct"*, %"struct.pov::BBox_Tree_Struct"** %cd, align 8, !dbg !1753
  %BBox51 = getelementptr inbounds %"struct.pov::BBox_Tree_Struct", %"struct.pov::BBox_Tree_Struct"* %65, i32 0, i32 2, !dbg !1754
  %66 = load %"struct.pov::BBox_Tree_Struct"**, %"struct.pov::BBox_Tree_Struct"*** %Infinite.addr, align 8, !dbg !1755
  %67 = load i64, i64* %numOfInfiniteObjects.addr, align 8, !dbg !1756
  call void @_ZN3povL9calc_bboxEPNS_19Bounding_Box_StructEPPNS_16BBox_Tree_StructEll(%"struct.pov::Bounding_Box_Struct"* %BBox51, %"struct.pov::BBox_Tree_Struct"** %66, i64 0, i64 %67), !dbg !1757
  %68 = load %"struct.pov::BBox_Tree_Struct"*, %"struct.pov::BBox_Tree_Struct"** %cd, align 8, !dbg !1758
  %69 = load %"struct.pov::BBox_Tree_Struct"**, %"struct.pov::BBox_Tree_Struct"*** %Root.addr, align 8, !dbg !1759
  store %"struct.pov::BBox_Tree_Struct"* %68, %"struct.pov::BBox_Tree_Struct"** %69, align 8, !dbg !1760
  %70 = load %"struct.pov::BBox_Tree_Struct"**, %"struct.pov::BBox_Tree_Struct"*** %Root.addr, align 8, !dbg !1761
  %71 = load %"struct.pov::BBox_Tree_Struct"*, %"struct.pov::BBox_Tree_Struct"** %70, align 8, !dbg !1762
  %Infinite52 = getelementptr inbounds %"struct.pov::BBox_Tree_Struct", %"struct.pov::BBox_Tree_Struct"* %71, i32 0, i32 0, !dbg !1763
  store i16 1, i16* %Infinite52, align 8, !dbg !1764
  br label %if.end53, !dbg !1765

if.end53:                                         ; preds = %for.end50, %if.else
  br label %if.end54

if.end54:                                         ; preds = %if.end53, %if.end
  ret void, !dbg !1766
}

; Function Attrs: noinline uwtable
define internal i32 @_ZN3povL14sort_and_splitEPPNS_16BBox_Tree_StructERS2_Plll(%"struct.pov::BBox_Tree_Struct"** %Root, %"struct.pov::BBox_Tree_Struct"*** dereferenceable(8) %Finite, i64* %numOfFiniteObjects, i64 %first, i64 %last) #0 !dbg !1767 {
entry:
  %retval = alloca i32, align 4
  %Root.addr = alloca %"struct.pov::BBox_Tree_Struct"**, align 8
  %Finite.addr = alloca %"struct.pov::BBox_Tree_Struct"***, align 8
  %numOfFiniteObjects.addr = alloca i64*, align 8
  %first.addr = alloca i64, align 8
  %last.addr = alloca i64, align 8
  %cd = alloca %"struct.pov::BBox_Tree_Struct"*, align 8
  %size = alloca i64, align 8
  %i = alloca i64, align 8
  %best_loc = alloca i64, align 8
  %area_left = alloca double*, align 8
  %area_right = alloca double*, align 8
  %best_index = alloca double, align 8
  %new_index = alloca double, align 8
  store %"struct.pov::BBox_Tree_Struct"** %Root, %"struct.pov::BBox_Tree_Struct"*** %Root.addr, align 8
  call void @llvm.dbg.declare(metadata %"struct.pov::BBox_Tree_Struct"*** %Root.addr, metadata !1771, metadata !DIExpression()), !dbg !1772
  store %"struct.pov::BBox_Tree_Struct"*** %Finite, %"struct.pov::BBox_Tree_Struct"**** %Finite.addr, align 8
  call void @llvm.dbg.declare(metadata %"struct.pov::BBox_Tree_Struct"**** %Finite.addr, metadata !1773, metadata !DIExpression()), !dbg !1774
  store i64* %numOfFiniteObjects, i64** %numOfFiniteObjects.addr, align 8
  call void @llvm.dbg.declare(metadata i64** %numOfFiniteObjects.addr, metadata !1775, metadata !DIExpression()), !dbg !1776
  store i64 %first, i64* %first.addr, align 8
  call void @llvm.dbg.declare(metadata i64* %first.addr, metadata !1777, metadata !DIExpression()), !dbg !1778
  store i64 %last, i64* %last.addr, align 8
  call void @llvm.dbg.declare(metadata i64* %last.addr, metadata !1779, metadata !DIExpression()), !dbg !1780
  call void @llvm.dbg.declare(metadata %"struct.pov::BBox_Tree_Struct"** %cd, metadata !1781, metadata !DIExpression()), !dbg !1782
  call void @llvm.dbg.declare(metadata i64* %size, metadata !1783, metadata !DIExpression()), !dbg !1784
  call void @llvm.dbg.declare(metadata i64* %i, metadata !1785, metadata !DIExpression()), !dbg !1786
  call void @llvm.dbg.declare(metadata i64* %best_loc, metadata !1787, metadata !DIExpression()), !dbg !1788
  call void @llvm.dbg.declare(metadata double** %area_left, metadata !1789, metadata !DIExpression()), !dbg !1790
  call void @llvm.dbg.declare(metadata double** %area_right, metadata !1791, metadata !DIExpression()), !dbg !1792
  call void @llvm.dbg.declare(metadata double* %best_index, metadata !1793, metadata !DIExpression()), !dbg !1794
  call void @llvm.dbg.declare(metadata double* %new_index, metadata !1795, metadata !DIExpression()), !dbg !1796
  %0 = load %"struct.pov::BBox_Tree_Struct"***, %"struct.pov::BBox_Tree_Struct"**** %Finite.addr, align 8, !dbg !1797
  %1 = load %"struct.pov::BBox_Tree_Struct"**, %"struct.pov::BBox_Tree_Struct"*** %0, align 8, !dbg !1797
  %2 = load i64, i64* %first.addr, align 8, !dbg !1798
  %3 = load i64, i64* %last.addr, align 8, !dbg !1799
  %call = call i32 @_ZN3povL9find_axisEPPNS_16BBox_Tree_StructEll(%"struct.pov::BBox_Tree_Struct"** %1, i64 %2, i64 %3), !dbg !1800
  store i32 %call, i32* @_ZN3povL4AxisE, align 4, !dbg !1801
  %4 = load i64, i64* %last.addr, align 8, !dbg !1802
  %5 = load i64, i64* %first.addr, align 8, !dbg !1803
  %sub = sub nsw i64 %4, %5, !dbg !1804
  store i64 %sub, i64* %size, align 8, !dbg !1805
  %6 = load i64, i64* %size, align 8, !dbg !1806
  %cmp = icmp sle i64 %6, 0, !dbg !1808
  br i1 %cmp, label %if.then, label %if.end, !dbg !1809

if.then:                                          ; preds = %entry
  store i32 1, i32* %retval, align 4, !dbg !1810
  br label %return, !dbg !1810

if.end:                                           ; preds = %entry
  call void @_ZN3pov12Do_CooperateEi(i32 1), !dbg !1812
  %7 = load %"struct.pov::BBox_Tree_Struct"***, %"struct.pov::BBox_Tree_Struct"**** %Finite.addr, align 8, !dbg !1813
  %8 = load %"struct.pov::BBox_Tree_Struct"**, %"struct.pov::BBox_Tree_Struct"*** %7, align 8, !dbg !1813
  %9 = load i64, i64* %first.addr, align 8, !dbg !1813
  %arrayidx = getelementptr inbounds %"struct.pov::BBox_Tree_Struct"*, %"struct.pov::BBox_Tree_Struct"** %8, i64 %9, !dbg !1813
  %10 = bitcast %"struct.pov::BBox_Tree_Struct"** %arrayidx to i8*, !dbg !1813
  %11 = load i64, i64* %size, align 8, !dbg !1813
  call void @spec_qsort(i8* %10, i64 %11, i64 8, i32 (i8*, i8*)* @_ZN3povL9compboxesEPKvS1_), !dbg !1813
  %12 = load i64, i64* %size, align 8, !dbg !1814
  %mul = mul i64 %12, 8, !dbg !1814
  %call1 = call i8* @_ZN3pov10pov_mallocEmPKciS1_(i64 %mul, i8* getelementptr inbounds ([9 x i8], [9 x i8]* @.str, i64 0, i64 0), i32 1816, i8* getelementptr inbounds ([15 x i8], [15 x i8]* @.str.3, i64 0, i64 0)), !dbg !1814
  %13 = bitcast i8* %call1 to double*, !dbg !1815
  store double* %13, double** %area_left, align 8, !dbg !1816
  %14 = load i64, i64* %size, align 8, !dbg !1817
  %mul2 = mul i64 %14, 8, !dbg !1817
  %call3 = call i8* @_ZN3pov10pov_mallocEmPKciS1_(i64 %mul2, i8* getelementptr inbounds ([9 x i8], [9 x i8]* @.str, i64 0, i64 0), i32 1817, i8* getelementptr inbounds ([15 x i8], [15 x i8]* @.str.3, i64 0, i64 0)), !dbg !1817
  %15 = bitcast i8* %call3 to double*, !dbg !1818
  store double* %15, double** %area_right, align 8, !dbg !1819
  %16 = load %"struct.pov::BBox_Tree_Struct"***, %"struct.pov::BBox_Tree_Struct"**** %Finite.addr, align 8, !dbg !1820
  %17 = load %"struct.pov::BBox_Tree_Struct"**, %"struct.pov::BBox_Tree_Struct"*** %16, align 8, !dbg !1820
  %18 = load i64, i64* %first.addr, align 8, !dbg !1821
  %19 = load i64, i64* %last.addr, align 8, !dbg !1822
  %sub4 = sub nsw i64 %19, 1, !dbg !1823
  %20 = load double*, double** %area_left, align 8, !dbg !1824
  call void @_ZN3povL16build_area_tableEPPNS_16BBox_Tree_StructEllPd(%"struct.pov::BBox_Tree_Struct"** %17, i64 %18, i64 %sub4, double* %20), !dbg !1825
  %21 = load %"struct.pov::BBox_Tree_Struct"***, %"struct.pov::BBox_Tree_Struct"**** %Finite.addr, align 8, !dbg !1826
  %22 = load %"struct.pov::BBox_Tree_Struct"**, %"struct.pov::BBox_Tree_Struct"*** %21, align 8, !dbg !1826
  %23 = load i64, i64* %last.addr, align 8, !dbg !1827
  %sub5 = sub nsw i64 %23, 1, !dbg !1828
  %24 = load i64, i64* %first.addr, align 8, !dbg !1829
  %25 = load double*, double** %area_right, align 8, !dbg !1830
  call void @_ZN3povL16build_area_tableEPPNS_16BBox_Tree_StructEllPd(%"struct.pov::BBox_Tree_Struct"** %22, i64 %sub5, i64 %24, double* %25), !dbg !1831
  %26 = load double*, double** %area_right, align 8, !dbg !1832
  %arrayidx6 = getelementptr inbounds double, double* %26, i64 0, !dbg !1832
  %27 = load double, double* %arrayidx6, align 8, !dbg !1832
  %28 = load i64, i64* %size, align 8, !dbg !1833
  %conv = sitofp i64 %28 to double, !dbg !1833
  %sub7 = fsub double %conv, 3.000000e+00, !dbg !1834
  %mul8 = fmul double %27, %sub7, !dbg !1835
  store double %mul8, double* %best_index, align 8, !dbg !1836
  store i64 -1, i64* %best_loc, align 8, !dbg !1837
  store i64 0, i64* %i, align 8, !dbg !1838
  br label %for.cond, !dbg !1840

for.cond:                                         ; preds = %for.inc, %if.end
  %29 = load i64, i64* %i, align 8, !dbg !1841
  %30 = load i64, i64* %size, align 8, !dbg !1843
  %sub9 = sub nsw i64 %30, 1, !dbg !1844
  %cmp10 = icmp slt i64 %29, %sub9, !dbg !1845
  br i1 %cmp10, label %for.body, label %for.end, !dbg !1846

for.body:                                         ; preds = %for.cond
  %31 = load i64, i64* %i, align 8, !dbg !1847
  %add = add nsw i64 %31, 1, !dbg !1849
  %conv11 = sitofp i64 %add to double, !dbg !1850
  %32 = load double*, double** %area_left, align 8, !dbg !1851
  %33 = load i64, i64* %i, align 8, !dbg !1852
  %arrayidx12 = getelementptr inbounds double, double* %32, i64 %33, !dbg !1851
  %34 = load double, double* %arrayidx12, align 8, !dbg !1851
  %mul13 = fmul double %conv11, %34, !dbg !1853
  %35 = load i64, i64* %size, align 8, !dbg !1854
  %sub14 = sub nsw i64 %35, 1, !dbg !1855
  %36 = load i64, i64* %i, align 8, !dbg !1856
  %sub15 = sub nsw i64 %sub14, %36, !dbg !1857
  %conv16 = sitofp i64 %sub15 to double, !dbg !1858
  %37 = load double*, double** %area_right, align 8, !dbg !1859
  %38 = load i64, i64* %i, align 8, !dbg !1860
  %add17 = add nsw i64 %38, 1, !dbg !1861
  %arrayidx18 = getelementptr inbounds double, double* %37, i64 %add17, !dbg !1859
  %39 = load double, double* %arrayidx18, align 8, !dbg !1859
  %mul19 = fmul double %conv16, %39, !dbg !1862
  %add20 = fadd double %mul13, %mul19, !dbg !1863
  store double %add20, double* %new_index, align 8, !dbg !1864
  %40 = load double, double* %new_index, align 8, !dbg !1865
  %41 = load double, double* %best_index, align 8, !dbg !1867
  %cmp21 = fcmp olt double %40, %41, !dbg !1868
  br i1 %cmp21, label %if.then22, label %if.end24, !dbg !1869

if.then22:                                        ; preds = %for.body
  %42 = load double, double* %new_index, align 8, !dbg !1870
  store double %42, double* %best_index, align 8, !dbg !1872
  %43 = load i64, i64* %i, align 8, !dbg !1873
  %44 = load i64, i64* %first.addr, align 8, !dbg !1874
  %add23 = add nsw i64 %43, %44, !dbg !1875
  store i64 %add23, i64* %best_loc, align 8, !dbg !1876
  br label %if.end24, !dbg !1877

if.end24:                                         ; preds = %if.then22, %for.body
  br label %for.inc, !dbg !1878

for.inc:                                          ; preds = %if.end24
  %45 = load i64, i64* %i, align 8, !dbg !1879
  %inc = add nsw i64 %45, 1, !dbg !1879
  store i64 %inc, i64* %i, align 8, !dbg !1879
  br label %for.cond, !dbg !1880, !llvm.loop !1881

for.end:                                          ; preds = %for.cond
  %46 = load double*, double** %area_left, align 8, !dbg !1883
  %47 = bitcast double* %46 to i8*, !dbg !1883
  call void @_ZN3pov8pov_freeEPvPKci(i8* %47, i8* getelementptr inbounds ([9 x i8], [9 x i8]* @.str, i64 0, i64 0), i32 1846), !dbg !1883
  store double* null, double** %area_left, align 8, !dbg !1883
  %48 = load double*, double** %area_right, align 8, !dbg !1885
  %49 = bitcast double* %48 to i8*, !dbg !1885
  call void @_ZN3pov8pov_freeEPvPKci(i8* %49, i8* getelementptr inbounds ([9 x i8], [9 x i8]* @.str, i64 0, i64 0), i32 1847), !dbg !1885
  store double* null, double** %area_right, align 8, !dbg !1885
  %50 = load i64, i64* %size, align 8, !dbg !1887
  %cmp25 = icmp sle i64 %50, 4, !dbg !1889
  br i1 %cmp25, label %if.then27, label %lor.lhs.false, !dbg !1890

lor.lhs.false:                                    ; preds = %for.end
  %51 = load i64, i64* %best_loc, align 8, !dbg !1891
  %cmp26 = icmp slt i64 %51, 0, !dbg !1892
  br i1 %cmp26, label %if.then27, label %if.else, !dbg !1893

if.then27:                                        ; preds = %lor.lhs.false, %for.end
  %52 = load i64, i64* %size, align 8, !dbg !1894
  %conv28 = trunc i64 %52 to i32, !dbg !1894
  %call29 = call %"struct.pov::BBox_Tree_Struct"* @_ZN3povL16create_bbox_nodeEi(i32 %conv28), !dbg !1896
  store %"struct.pov::BBox_Tree_Struct"* %call29, %"struct.pov::BBox_Tree_Struct"** %cd, align 8, !dbg !1897
  store i64 0, i64* %i, align 8, !dbg !1898
  br label %for.cond30, !dbg !1900

for.cond30:                                       ; preds = %for.inc36, %if.then27
  %53 = load i64, i64* %i, align 8, !dbg !1901
  %54 = load i64, i64* %size, align 8, !dbg !1903
  %cmp31 = icmp slt i64 %53, %54, !dbg !1904
  br i1 %cmp31, label %for.body32, label %for.end38, !dbg !1905

for.body32:                                       ; preds = %for.cond30
  %55 = load %"struct.pov::BBox_Tree_Struct"***, %"struct.pov::BBox_Tree_Struct"**** %Finite.addr, align 8, !dbg !1906
  %56 = load %"struct.pov::BBox_Tree_Struct"**, %"struct.pov::BBox_Tree_Struct"*** %55, align 8, !dbg !1906
  %57 = load i64, i64* %first.addr, align 8, !dbg !1908
  %58 = load i64, i64* %i, align 8, !dbg !1909
  %add33 = add nsw i64 %57, %58, !dbg !1910
  %arrayidx34 = getelementptr inbounds %"struct.pov::BBox_Tree_Struct"*, %"struct.pov::BBox_Tree_Struct"** %56, i64 %add33, !dbg !1906
  %59 = load %"struct.pov::BBox_Tree_Struct"*, %"struct.pov::BBox_Tree_Struct"** %arrayidx34, align 8, !dbg !1906
  %60 = load %"struct.pov::BBox_Tree_Struct"*, %"struct.pov::BBox_Tree_Struct"** %cd, align 8, !dbg !1911
  %Node = getelementptr inbounds %"struct.pov::BBox_Tree_Struct", %"struct.pov::BBox_Tree_Struct"* %60, i32 0, i32 3, !dbg !1912
  %61 = load %"struct.pov::BBox_Tree_Struct"**, %"struct.pov::BBox_Tree_Struct"*** %Node, align 8, !dbg !1912
  %62 = load i64, i64* %i, align 8, !dbg !1913
  %arrayidx35 = getelementptr inbounds %"struct.pov::BBox_Tree_Struct"*, %"struct.pov::BBox_Tree_Struct"** %61, i64 %62, !dbg !1911
  store %"struct.pov::BBox_Tree_Struct"* %59, %"struct.pov::BBox_Tree_Struct"** %arrayidx35, align 8, !dbg !1914
  br label %for.inc36, !dbg !1915

for.inc36:                                        ; preds = %for.body32
  %63 = load i64, i64* %i, align 8, !dbg !1916
  %inc37 = add nsw i64 %63, 1, !dbg !1916
  store i64 %inc37, i64* %i, align 8, !dbg !1916
  br label %for.cond30, !dbg !1917, !llvm.loop !1918

for.end38:                                        ; preds = %for.cond30
  %64 = load %"struct.pov::BBox_Tree_Struct"*, %"struct.pov::BBox_Tree_Struct"** %cd, align 8, !dbg !1920
  %BBox = getelementptr inbounds %"struct.pov::BBox_Tree_Struct", %"struct.pov::BBox_Tree_Struct"* %64, i32 0, i32 2, !dbg !1921
  %65 = load %"struct.pov::BBox_Tree_Struct"***, %"struct.pov::BBox_Tree_Struct"**** %Finite.addr, align 8, !dbg !1922
  %66 = load %"struct.pov::BBox_Tree_Struct"**, %"struct.pov::BBox_Tree_Struct"*** %65, align 8, !dbg !1922
  %67 = load i64, i64* %first.addr, align 8, !dbg !1923
  %68 = load i64, i64* %last.addr, align 8, !dbg !1924
  call void @_ZN3povL9calc_bboxEPNS_19Bounding_Box_StructEPPNS_16BBox_Tree_StructEll(%"struct.pov::Bounding_Box_Struct"* %BBox, %"struct.pov::BBox_Tree_Struct"** %66, i64 %67, i64 %68), !dbg !1925
  %69 = load %"struct.pov::BBox_Tree_Struct"*, %"struct.pov::BBox_Tree_Struct"** %cd, align 8, !dbg !1926
  %70 = load %"struct.pov::BBox_Tree_Struct"**, %"struct.pov::BBox_Tree_Struct"*** %Root.addr, align 8, !dbg !1927
  store %"struct.pov::BBox_Tree_Struct"* %69, %"struct.pov::BBox_Tree_Struct"** %70, align 8, !dbg !1928
  %71 = load i64*, i64** %numOfFiniteObjects.addr, align 8, !dbg !1929
  %72 = load i64, i64* %71, align 8, !dbg !1931
  %73 = load i64, i64* @_ZN3povL14maxfinitecountE, align 8, !dbg !1932
  %cmp39 = icmp sge i64 %72, %73, !dbg !1933
  br i1 %cmp39, label %if.then40, label %if.end47, !dbg !1934

if.then40:                                        ; preds = %for.end38
  %74 = load i64, i64* @_ZN3povL14maxfinitecountE, align 8, !dbg !1935
  %conv41 = sitofp i64 %74 to double, !dbg !1935
  %mul42 = fmul double 1.500000e+00, %conv41, !dbg !1937
  %conv43 = fptosi double %mul42 to i64, !dbg !1938
  store i64 %conv43, i64* @_ZN3povL14maxfinitecountE, align 8, !dbg !1939
  %75 = load i64, i64* @_ZN3povL14maxfinitecountE, align 8, !dbg !1940
  %call44 = call i32 (i8*, ...) @_ZN3pov10Debug_InfoEPKcz(i8* getelementptr inbounds ([25 x i8], [25 x i8]* @.str.7, i64 0, i64 0), i64 %75), !dbg !1941
  %76 = load %"struct.pov::BBox_Tree_Struct"***, %"struct.pov::BBox_Tree_Struct"**** %Finite.addr, align 8, !dbg !1942
  %77 = load %"struct.pov::BBox_Tree_Struct"**, %"struct.pov::BBox_Tree_Struct"*** %76, align 8, !dbg !1942
  %78 = bitcast %"struct.pov::BBox_Tree_Struct"** %77 to i8*, !dbg !1942
  %79 = load i64, i64* @_ZN3povL14maxfinitecountE, align 8, !dbg !1942
  %mul45 = mul i64 %79, 8, !dbg !1942
  %call46 = call i8* @_ZN3pov11pov_reallocEPvmPKciS2_(i8* %78, i64 %mul45, i8* getelementptr inbounds ([9 x i8], [9 x i8]* @.str, i64 0, i64 0), i32 1877, i8* getelementptr inbounds ([15 x i8], [15 x i8]* @.str.3, i64 0, i64 0)), !dbg !1942
  %80 = bitcast i8* %call46 to %"struct.pov::BBox_Tree_Struct"**, !dbg !1943
  %81 = load %"struct.pov::BBox_Tree_Struct"***, %"struct.pov::BBox_Tree_Struct"**** %Finite.addr, align 8, !dbg !1944
  store %"struct.pov::BBox_Tree_Struct"** %80, %"struct.pov::BBox_Tree_Struct"*** %81, align 8, !dbg !1945
  br label %if.end47, !dbg !1946

if.end47:                                         ; preds = %if.then40, %for.end38
  %82 = load %"struct.pov::BBox_Tree_Struct"*, %"struct.pov::BBox_Tree_Struct"** %cd, align 8, !dbg !1947
  %83 = load %"struct.pov::BBox_Tree_Struct"***, %"struct.pov::BBox_Tree_Struct"**** %Finite.addr, align 8, !dbg !1948
  %84 = load %"struct.pov::BBox_Tree_Struct"**, %"struct.pov::BBox_Tree_Struct"*** %83, align 8, !dbg !1948
  %85 = load i64*, i64** %numOfFiniteObjects.addr, align 8, !dbg !1949
  %86 = load i64, i64* %85, align 8, !dbg !1950
  %arrayidx48 = getelementptr inbounds %"struct.pov::BBox_Tree_Struct"*, %"struct.pov::BBox_Tree_Struct"** %84, i64 %86, !dbg !1948
  store %"struct.pov::BBox_Tree_Struct"* %82, %"struct.pov::BBox_Tree_Struct"** %arrayidx48, align 8, !dbg !1951
  %87 = load i64*, i64** %numOfFiniteObjects.addr, align 8, !dbg !1952
  %88 = load i64, i64* %87, align 8, !dbg !1953
  %inc49 = add nsw i64 %88, 1, !dbg !1953
  store i64 %inc49, i64* %87, align 8, !dbg !1953
  store i32 1, i32* %retval, align 4, !dbg !1954
  br label %return, !dbg !1954

if.else:                                          ; preds = %lor.lhs.false
  %89 = load %"struct.pov::BBox_Tree_Struct"**, %"struct.pov::BBox_Tree_Struct"*** %Root.addr, align 8, !dbg !1955
  %90 = load %"struct.pov::BBox_Tree_Struct"***, %"struct.pov::BBox_Tree_Struct"**** %Finite.addr, align 8, !dbg !1957
  %91 = load i64*, i64** %numOfFiniteObjects.addr, align 8, !dbg !1958
  %92 = load i64, i64* %first.addr, align 8, !dbg !1959
  %93 = load i64, i64* %best_loc, align 8, !dbg !1960
  %add50 = add nsw i64 %93, 1, !dbg !1961
  %call51 = call i32 @_ZN3povL14sort_and_splitEPPNS_16BBox_Tree_StructERS2_Plll(%"struct.pov::BBox_Tree_Struct"** %89, %"struct.pov::BBox_Tree_Struct"*** dereferenceable(8) %90, i64* %91, i64 %92, i64 %add50), !dbg !1962
  %94 = load %"struct.pov::BBox_Tree_Struct"**, %"struct.pov::BBox_Tree_Struct"*** %Root.addr, align 8, !dbg !1963
  %95 = load %"struct.pov::BBox_Tree_Struct"***, %"struct.pov::BBox_Tree_Struct"**** %Finite.addr, align 8, !dbg !1964
  %96 = load i64*, i64** %numOfFiniteObjects.addr, align 8, !dbg !1965
  %97 = load i64, i64* %best_loc, align 8, !dbg !1966
  %add52 = add nsw i64 %97, 1, !dbg !1967
  %98 = load i64, i64* %last.addr, align 8, !dbg !1968
  %call53 = call i32 @_ZN3povL14sort_and_splitEPPNS_16BBox_Tree_StructERS2_Plll(%"struct.pov::BBox_Tree_Struct"** %94, %"struct.pov::BBox_Tree_Struct"*** dereferenceable(8) %95, i64* %96, i64 %add52, i64 %98), !dbg !1969
  store i32 0, i32* %retval, align 4, !dbg !1970
  br label %return, !dbg !1970

return:                                           ; preds = %if.else, %if.end47, %if.then
  %99 = load i32, i32* %retval, align 4, !dbg !1971
  ret i32 %99, !dbg !1971
}

declare dso_local void @_ZN3pov12Do_CooperateEi(i32) #2

declare dso_local i8* @_ZN3pov11pov_reallocEPvmPKciS2_(i8*, i64, i8*, i32, i8*) #2

declare dso_local i8* @_ZN3pov11pov_memmoveEPvS0_m(i8*, i8*, i64) #2

; Function Attrs: noinline uwtable
define internal %"struct.pov::BBox_Tree_Struct"* @_ZN3povL16create_bbox_nodeEi(i32 %size) #0 !dbg !1972 {
entry:
  %size.addr = alloca i32, align 4
  %New = alloca %"struct.pov::BBox_Tree_Struct"*, align 8
  store i32 %size, i32* %size.addr, align 4
  call void @llvm.dbg.declare(metadata i32* %size.addr, metadata !1975, metadata !DIExpression()), !dbg !1976
  call void @llvm.dbg.declare(metadata %"struct.pov::BBox_Tree_Struct"** %New, metadata !1977, metadata !DIExpression()), !dbg !1978
  %call = call i8* @_ZN3pov10pov_mallocEmPKciS1_(i64 40, i8* getelementptr inbounds ([9 x i8], [9 x i8]* @.str, i64 0, i64 0), i32 1432, i8* getelementptr inbounds ([18 x i8], [18 x i8]* @.str.6, i64 0, i64 0)), !dbg !1979
  %0 = bitcast i8* %call to %"struct.pov::BBox_Tree_Struct"*, !dbg !1980
  store %"struct.pov::BBox_Tree_Struct"* %0, %"struct.pov::BBox_Tree_Struct"** %New, align 8, !dbg !1981
  %1 = load %"struct.pov::BBox_Tree_Struct"*, %"struct.pov::BBox_Tree_Struct"** %New, align 8, !dbg !1982
  %Infinite = getelementptr inbounds %"struct.pov::BBox_Tree_Struct", %"struct.pov::BBox_Tree_Struct"* %1, i32 0, i32 0, !dbg !1983
  store i16 0, i16* %Infinite, align 8, !dbg !1984
  %2 = load i32, i32* %size.addr, align 4, !dbg !1985
  %conv = trunc i32 %2 to i16, !dbg !1985
  %3 = load %"struct.pov::BBox_Tree_Struct"*, %"struct.pov::BBox_Tree_Struct"** %New, align 8, !dbg !1986
  %Entries = getelementptr inbounds %"struct.pov::BBox_Tree_Struct", %"struct.pov::BBox_Tree_Struct"* %3, i32 0, i32 1, !dbg !1987
  store i16 %conv, i16* %Entries, align 2, !dbg !1988
  %4 = load %"struct.pov::BBox_Tree_Struct"*, %"struct.pov::BBox_Tree_Struct"** %New, align 8, !dbg !1989
  %BBox = getelementptr inbounds %"struct.pov::BBox_Tree_Struct", %"struct.pov::BBox_Tree_Struct"* %4, i32 0, i32 2, !dbg !1990
  call void @_ZN3pov9Make_BBoxERNS_19Bounding_Box_StructEffffff(%"struct.pov::Bounding_Box_Struct"* dereferenceable(24) %BBox, float 0.000000e+00, float 0.000000e+00, float 0.000000e+00, float 0.000000e+00, float 0.000000e+00, float 0.000000e+00), !dbg !1991
  %5 = load i32, i32* %size.addr, align 4, !dbg !1992
  %tobool = icmp ne i32 %5, 0, !dbg !1992
  br i1 %tobool, label %if.then, label %if.else, !dbg !1994

if.then:                                          ; preds = %entry
  %6 = load i32, i32* %size.addr, align 4, !dbg !1995
  %conv1 = sext i32 %6 to i64, !dbg !1995
  %mul = mul i64 %conv1, 8, !dbg !1995
  %call2 = call i8* @_ZN3pov10pov_mallocEmPKciS1_(i64 %mul, i8* getelementptr inbounds ([9 x i8], [9 x i8]* @.str, i64 0, i64 0), i32 1442, i8* getelementptr inbounds ([18 x i8], [18 x i8]* @.str.6, i64 0, i64 0)), !dbg !1995
  %7 = bitcast i8* %call2 to %"struct.pov::BBox_Tree_Struct"**, !dbg !1997
  %8 = load %"struct.pov::BBox_Tree_Struct"*, %"struct.pov::BBox_Tree_Struct"** %New, align 8, !dbg !1998
  %Node = getelementptr inbounds %"struct.pov::BBox_Tree_Struct", %"struct.pov::BBox_Tree_Struct"* %8, i32 0, i32 3, !dbg !1999
  store %"struct.pov::BBox_Tree_Struct"** %7, %"struct.pov::BBox_Tree_Struct"*** %Node, align 8, !dbg !2000
  br label %if.end, !dbg !2001

if.else:                                          ; preds = %entry
  %9 = load %"struct.pov::BBox_Tree_Struct"*, %"struct.pov::BBox_Tree_Struct"** %New, align 8, !dbg !2002
  %Node3 = getelementptr inbounds %"struct.pov::BBox_Tree_Struct", %"struct.pov::BBox_Tree_Struct"* %9, i32 0, i32 3, !dbg !2004
  store %"struct.pov::BBox_Tree_Struct"** null, %"struct.pov::BBox_Tree_Struct"*** %Node3, align 8, !dbg !2005
  br label %if.end

if.end:                                           ; preds = %if.else, %if.then
  %10 = load %"struct.pov::BBox_Tree_Struct"*, %"struct.pov::BBox_Tree_Struct"** %New, align 8, !dbg !2006
  ret %"struct.pov::BBox_Tree_Struct"* %10, !dbg !2007
}

; Function Attrs: noinline nounwind uwtable
define internal void @_ZN3povL9calc_bboxEPNS_19Bounding_Box_StructEPPNS_16BBox_Tree_StructEll(%"struct.pov::Bounding_Box_Struct"* %BBox, %"struct.pov::BBox_Tree_Struct"** %Finite, i64 %first, i64 %last) #3 !dbg !2008 {
entry:
  %BBox.addr = alloca %"struct.pov::Bounding_Box_Struct"*, align 8
  %Finite.addr = alloca %"struct.pov::BBox_Tree_Struct"**, align 8
  %first.addr = alloca i64, align 8
  %last.addr = alloca i64, align 8
  %i = alloca i64, align 8
  %tmin = alloca double, align 8
  %tmax = alloca double, align 8
  %bmin = alloca [3 x double], align 16
  %bmax = alloca [3 x double], align 16
  %bbox = alloca %"struct.pov::Bounding_Box_Struct"*, align 8
  store %"struct.pov::Bounding_Box_Struct"* %BBox, %"struct.pov::Bounding_Box_Struct"** %BBox.addr, align 8
  call void @llvm.dbg.declare(metadata %"struct.pov::Bounding_Box_Struct"** %BBox.addr, metadata !2011, metadata !DIExpression()), !dbg !2012
  store %"struct.pov::BBox_Tree_Struct"** %Finite, %"struct.pov::BBox_Tree_Struct"*** %Finite.addr, align 8
  call void @llvm.dbg.declare(metadata %"struct.pov::BBox_Tree_Struct"*** %Finite.addr, metadata !2013, metadata !DIExpression()), !dbg !2014
  store i64 %first, i64* %first.addr, align 8
  call void @llvm.dbg.declare(metadata i64* %first.addr, metadata !2015, metadata !DIExpression()), !dbg !2016
  store i64 %last, i64* %last.addr, align 8
  call void @llvm.dbg.declare(metadata i64* %last.addr, metadata !2017, metadata !DIExpression()), !dbg !2018
  call void @llvm.dbg.declare(metadata i64* %i, metadata !2019, metadata !DIExpression()), !dbg !2020
  call void @llvm.dbg.declare(metadata double* %tmin, metadata !2021, metadata !DIExpression()), !dbg !2022
  call void @llvm.dbg.declare(metadata double* %tmax, metadata !2023, metadata !DIExpression()), !dbg !2024
  call void @llvm.dbg.declare(metadata [3 x double]* %bmin, metadata !2025, metadata !DIExpression()), !dbg !2026
  call void @llvm.dbg.declare(metadata [3 x double]* %bmax, metadata !2027, metadata !DIExpression()), !dbg !2028
  call void @llvm.dbg.declare(metadata %"struct.pov::Bounding_Box_Struct"** %bbox, metadata !2029, metadata !DIExpression()), !dbg !2030
  %arraydecay = getelementptr inbounds [3 x double], [3 x double]* %bmin, i64 0, i64 0, !dbg !2031
  call void @_ZN3pov11Make_VectorEPdddd(double* %arraydecay, double 2.000000e+10, double 2.000000e+10, double 2.000000e+10), !dbg !2032
  %arraydecay1 = getelementptr inbounds [3 x double], [3 x double]* %bmax, i64 0, i64 0, !dbg !2033
  call void @_ZN3pov11Make_VectorEPdddd(double* %arraydecay1, double -2.000000e+10, double -2.000000e+10, double -2.000000e+10), !dbg !2034
  %0 = load i64, i64* %first.addr, align 8, !dbg !2035
  store i64 %0, i64* %i, align 8, !dbg !2037
  br label %for.cond, !dbg !2038

for.cond:                                         ; preds = %for.inc, %entry
  %1 = load i64, i64* %i, align 8, !dbg !2039
  %2 = load i64, i64* %last.addr, align 8, !dbg !2041
  %cmp = icmp slt i64 %1, %2, !dbg !2042
  br i1 %cmp, label %for.body, label %for.end, !dbg !2043

for.body:                                         ; preds = %for.cond
  %3 = load %"struct.pov::BBox_Tree_Struct"**, %"struct.pov::BBox_Tree_Struct"*** %Finite.addr, align 8, !dbg !2044
  %4 = load i64, i64* %i, align 8, !dbg !2046
  %arrayidx = getelementptr inbounds %"struct.pov::BBox_Tree_Struct"*, %"struct.pov::BBox_Tree_Struct"** %3, i64 %4, !dbg !2044
  %5 = load %"struct.pov::BBox_Tree_Struct"*, %"struct.pov::BBox_Tree_Struct"** %arrayidx, align 8, !dbg !2044
  %BBox2 = getelementptr inbounds %"struct.pov::BBox_Tree_Struct", %"struct.pov::BBox_Tree_Struct"* %5, i32 0, i32 2, !dbg !2047
  store %"struct.pov::Bounding_Box_Struct"* %BBox2, %"struct.pov::Bounding_Box_Struct"** %bbox, align 8, !dbg !2048
  %6 = load %"struct.pov::Bounding_Box_Struct"*, %"struct.pov::Bounding_Box_Struct"** %bbox, align 8, !dbg !2049
  %Lower_Left = getelementptr inbounds %"struct.pov::Bounding_Box_Struct", %"struct.pov::Bounding_Box_Struct"* %6, i32 0, i32 0, !dbg !2050
  %arrayidx3 = getelementptr inbounds [3 x float], [3 x float]* %Lower_Left, i64 0, i64 0, !dbg !2049
  %7 = load float, float* %arrayidx3, align 4, !dbg !2049
  %conv = fpext float %7 to double, !dbg !2049
  store double %conv, double* %tmin, align 8, !dbg !2051
  %8 = load double, double* %tmin, align 8, !dbg !2052
  %9 = load %"struct.pov::Bounding_Box_Struct"*, %"struct.pov::Bounding_Box_Struct"** %bbox, align 8, !dbg !2053
  %Lengths = getelementptr inbounds %"struct.pov::Bounding_Box_Struct", %"struct.pov::Bounding_Box_Struct"* %9, i32 0, i32 1, !dbg !2054
  %arrayidx4 = getelementptr inbounds [3 x float], [3 x float]* %Lengths, i64 0, i64 0, !dbg !2053
  %10 = load float, float* %arrayidx4, align 4, !dbg !2053
  %conv5 = fpext float %10 to double, !dbg !2053
  %add = fadd double %8, %conv5, !dbg !2055
  store double %add, double* %tmax, align 8, !dbg !2056
  %11 = load double, double* %tmin, align 8, !dbg !2057
  %arrayidx6 = getelementptr inbounds [3 x double], [3 x double]* %bmin, i64 0, i64 0, !dbg !2059
  %12 = load double, double* %arrayidx6, align 16, !dbg !2059
  %cmp7 = fcmp olt double %11, %12, !dbg !2060
  br i1 %cmp7, label %if.then, label %if.end, !dbg !2061

if.then:                                          ; preds = %for.body
  %13 = load double, double* %tmin, align 8, !dbg !2062
  %arrayidx8 = getelementptr inbounds [3 x double], [3 x double]* %bmin, i64 0, i64 0, !dbg !2064
  store double %13, double* %arrayidx8, align 16, !dbg !2065
  br label %if.end, !dbg !2066

if.end:                                           ; preds = %if.then, %for.body
  %14 = load double, double* %tmax, align 8, !dbg !2067
  %arrayidx9 = getelementptr inbounds [3 x double], [3 x double]* %bmax, i64 0, i64 0, !dbg !2069
  %15 = load double, double* %arrayidx9, align 16, !dbg !2069
  %cmp10 = fcmp ogt double %14, %15, !dbg !2070
  br i1 %cmp10, label %if.then11, label %if.end13, !dbg !2071

if.then11:                                        ; preds = %if.end
  %16 = load double, double* %tmax, align 8, !dbg !2072
  %arrayidx12 = getelementptr inbounds [3 x double], [3 x double]* %bmax, i64 0, i64 0, !dbg !2074
  store double %16, double* %arrayidx12, align 16, !dbg !2075
  br label %if.end13, !dbg !2076

if.end13:                                         ; preds = %if.then11, %if.end
  %17 = load %"struct.pov::Bounding_Box_Struct"*, %"struct.pov::Bounding_Box_Struct"** %bbox, align 8, !dbg !2077
  %Lower_Left14 = getelementptr inbounds %"struct.pov::Bounding_Box_Struct", %"struct.pov::Bounding_Box_Struct"* %17, i32 0, i32 0, !dbg !2078
  %arrayidx15 = getelementptr inbounds [3 x float], [3 x float]* %Lower_Left14, i64 0, i64 1, !dbg !2077
  %18 = load float, float* %arrayidx15, align 4, !dbg !2077
  %conv16 = fpext float %18 to double, !dbg !2077
  store double %conv16, double* %tmin, align 8, !dbg !2079
  %19 = load double, double* %tmin, align 8, !dbg !2080
  %20 = load %"struct.pov::Bounding_Box_Struct"*, %"struct.pov::Bounding_Box_Struct"** %bbox, align 8, !dbg !2081
  %Lengths17 = getelementptr inbounds %"struct.pov::Bounding_Box_Struct", %"struct.pov::Bounding_Box_Struct"* %20, i32 0, i32 1, !dbg !2082
  %arrayidx18 = getelementptr inbounds [3 x float], [3 x float]* %Lengths17, i64 0, i64 1, !dbg !2081
  %21 = load float, float* %arrayidx18, align 4, !dbg !2081
  %conv19 = fpext float %21 to double, !dbg !2081
  %add20 = fadd double %19, %conv19, !dbg !2083
  store double %add20, double* %tmax, align 8, !dbg !2084
  %22 = load double, double* %tmin, align 8, !dbg !2085
  %arrayidx21 = getelementptr inbounds [3 x double], [3 x double]* %bmin, i64 0, i64 1, !dbg !2087
  %23 = load double, double* %arrayidx21, align 8, !dbg !2087
  %cmp22 = fcmp olt double %22, %23, !dbg !2088
  br i1 %cmp22, label %if.then23, label %if.end25, !dbg !2089

if.then23:                                        ; preds = %if.end13
  %24 = load double, double* %tmin, align 8, !dbg !2090
  %arrayidx24 = getelementptr inbounds [3 x double], [3 x double]* %bmin, i64 0, i64 1, !dbg !2092
  store double %24, double* %arrayidx24, align 8, !dbg !2093
  br label %if.end25, !dbg !2094

if.end25:                                         ; preds = %if.then23, %if.end13
  %25 = load double, double* %tmax, align 8, !dbg !2095
  %arrayidx26 = getelementptr inbounds [3 x double], [3 x double]* %bmax, i64 0, i64 1, !dbg !2097
  %26 = load double, double* %arrayidx26, align 8, !dbg !2097
  %cmp27 = fcmp ogt double %25, %26, !dbg !2098
  br i1 %cmp27, label %if.then28, label %if.end30, !dbg !2099

if.then28:                                        ; preds = %if.end25
  %27 = load double, double* %tmax, align 8, !dbg !2100
  %arrayidx29 = getelementptr inbounds [3 x double], [3 x double]* %bmax, i64 0, i64 1, !dbg !2102
  store double %27, double* %arrayidx29, align 8, !dbg !2103
  br label %if.end30, !dbg !2104

if.end30:                                         ; preds = %if.then28, %if.end25
  %28 = load %"struct.pov::Bounding_Box_Struct"*, %"struct.pov::Bounding_Box_Struct"** %bbox, align 8, !dbg !2105
  %Lower_Left31 = getelementptr inbounds %"struct.pov::Bounding_Box_Struct", %"struct.pov::Bounding_Box_Struct"* %28, i32 0, i32 0, !dbg !2106
  %arrayidx32 = getelementptr inbounds [3 x float], [3 x float]* %Lower_Left31, i64 0, i64 2, !dbg !2105
  %29 = load float, float* %arrayidx32, align 4, !dbg !2105
  %conv33 = fpext float %29 to double, !dbg !2105
  store double %conv33, double* %tmin, align 8, !dbg !2107
  %30 = load double, double* %tmin, align 8, !dbg !2108
  %31 = load %"struct.pov::Bounding_Box_Struct"*, %"struct.pov::Bounding_Box_Struct"** %bbox, align 8, !dbg !2109
  %Lengths34 = getelementptr inbounds %"struct.pov::Bounding_Box_Struct", %"struct.pov::Bounding_Box_Struct"* %31, i32 0, i32 1, !dbg !2110
  %arrayidx35 = getelementptr inbounds [3 x float], [3 x float]* %Lengths34, i64 0, i64 2, !dbg !2109
  %32 = load float, float* %arrayidx35, align 4, !dbg !2109
  %conv36 = fpext float %32 to double, !dbg !2109
  %add37 = fadd double %30, %conv36, !dbg !2111
  store double %add37, double* %tmax, align 8, !dbg !2112
  %33 = load double, double* %tmin, align 8, !dbg !2113
  %arrayidx38 = getelementptr inbounds [3 x double], [3 x double]* %bmin, i64 0, i64 2, !dbg !2115
  %34 = load double, double* %arrayidx38, align 16, !dbg !2115
  %cmp39 = fcmp olt double %33, %34, !dbg !2116
  br i1 %cmp39, label %if.then40, label %if.end42, !dbg !2117

if.then40:                                        ; preds = %if.end30
  %35 = load double, double* %tmin, align 8, !dbg !2118
  %arrayidx41 = getelementptr inbounds [3 x double], [3 x double]* %bmin, i64 0, i64 2, !dbg !2120
  store double %35, double* %arrayidx41, align 16, !dbg !2121
  br label %if.end42, !dbg !2122

if.end42:                                         ; preds = %if.then40, %if.end30
  %36 = load double, double* %tmax, align 8, !dbg !2123
  %arrayidx43 = getelementptr inbounds [3 x double], [3 x double]* %bmax, i64 0, i64 2, !dbg !2125
  %37 = load double, double* %arrayidx43, align 16, !dbg !2125
  %cmp44 = fcmp ogt double %36, %37, !dbg !2126
  br i1 %cmp44, label %if.then45, label %if.end47, !dbg !2127

if.then45:                                        ; preds = %if.end42
  %38 = load double, double* %tmax, align 8, !dbg !2128
  %arrayidx46 = getelementptr inbounds [3 x double], [3 x double]* %bmax, i64 0, i64 2, !dbg !2130
  store double %38, double* %arrayidx46, align 16, !dbg !2131
  br label %if.end47, !dbg !2132

if.end47:                                         ; preds = %if.then45, %if.end42
  br label %for.inc, !dbg !2133

for.inc:                                          ; preds = %if.end47
  %39 = load i64, i64* %i, align 8, !dbg !2134
  %inc = add nsw i64 %39, 1, !dbg !2134
  store i64 %inc, i64* %i, align 8, !dbg !2134
  br label %for.cond, !dbg !2135, !llvm.loop !2136

for.end:                                          ; preds = %for.cond
  %40 = load %"struct.pov::Bounding_Box_Struct"*, %"struct.pov::Bounding_Box_Struct"** %BBox.addr, align 8, !dbg !2138
  %arraydecay48 = getelementptr inbounds [3 x double], [3 x double]* %bmin, i64 0, i64 0, !dbg !2139
  %arraydecay49 = getelementptr inbounds [3 x double], [3 x double]* %bmax, i64 0, i64 0, !dbg !2140
  call void @_ZN3pov22Make_BBox_from_min_maxERNS_19Bounding_Box_StructEPdS2_(%"struct.pov::Bounding_Box_Struct"* dereferenceable(24) %40, double* %arraydecay48, double* %arraydecay49), !dbg !2141
  ret void, !dbg !2142
}

; Function Attrs: noinline uwtable
define dso_local void @_ZN3pov20Build_Bounding_SlabsEPPNS_16BBox_Tree_StructE(%"struct.pov::BBox_Tree_Struct"** %Root) #0 !dbg !2143 {
entry:
  %Root.addr = alloca %"struct.pov::BBox_Tree_Struct"**, align 8
  %i = alloca i64, align 8
  %iFinite = alloca i64, align 8
  %iInfinite = alloca i64, align 8
  %Finite = alloca %"struct.pov::BBox_Tree_Struct"**, align 8
  %Infinite = alloca %"struct.pov::BBox_Tree_Struct"**, align 8
  %Object = alloca %"struct.pov::Object_Struct"*, align 8
  %Temp = alloca %"struct.pov::Object_Struct"*, align 8
  store %"struct.pov::BBox_Tree_Struct"** %Root, %"struct.pov::BBox_Tree_Struct"*** %Root.addr, align 8
  call void @llvm.dbg.declare(metadata %"struct.pov::BBox_Tree_Struct"*** %Root.addr, metadata !2146, metadata !DIExpression()), !dbg !2147
  call void @llvm.dbg.declare(metadata i64* %i, metadata !2148, metadata !DIExpression()), !dbg !2149
  call void @llvm.dbg.declare(metadata i64* %iFinite, metadata !2150, metadata !DIExpression()), !dbg !2151
  call void @llvm.dbg.declare(metadata i64* %iInfinite, metadata !2152, metadata !DIExpression()), !dbg !2153
  call void @llvm.dbg.declare(metadata %"struct.pov::BBox_Tree_Struct"*** %Finite, metadata !2154, metadata !DIExpression()), !dbg !2155
  call void @llvm.dbg.declare(metadata %"struct.pov::BBox_Tree_Struct"*** %Infinite, metadata !2156, metadata !DIExpression()), !dbg !2157
  call void @llvm.dbg.declare(metadata %"struct.pov::Object_Struct"** %Object, metadata !2158, metadata !DIExpression()), !dbg !2159
  call void @llvm.dbg.declare(metadata %"struct.pov::Object_Struct"** %Temp, metadata !2160, metadata !DIExpression()), !dbg !2161
  %0 = load %"struct.pov::Object_Struct"*, %"struct.pov::Object_Struct"** getelementptr inbounds (%"struct.pov::Frame_Struct", %"struct.pov::Frame_Struct"* @_ZN3pov5FrameE, i32 0, i32 5), align 8, !dbg !2162
  store %"struct.pov::Object_Struct"* %0, %"struct.pov::Object_Struct"** %Object, align 8, !dbg !2163
  store i64 0, i64* @_ZN3pov20numberOfLightSourcesE, align 8, !dbg !2164
  store i64 0, i64* @_ZN3pov23numberOfInfiniteObjectsE, align 8, !dbg !2165
  store i64 0, i64* @_ZN3pov21numberOfFiniteObjectsE, align 8, !dbg !2166
  br label %while.cond, !dbg !2167

while.cond:                                       ; preds = %if.end10, %entry
  %1 = load %"struct.pov::Object_Struct"*, %"struct.pov::Object_Struct"** %Object, align 8, !dbg !2168
  %cmp = icmp ne %"struct.pov::Object_Struct"* %1, null, !dbg !2169
  br i1 %cmp, label %while.body, label %while.end, !dbg !2167

while.body:                                       ; preds = %while.cond
  %2 = load %"struct.pov::Object_Struct"*, %"struct.pov::Object_Struct"** %Object, align 8, !dbg !2170
  %Type = getelementptr inbounds %"struct.pov::Object_Struct", %"struct.pov::Object_Struct"* %2, i32 0, i32 1, !dbg !2173
  %3 = load i32, i32* %Type, align 8, !dbg !2173
  %and = and i32 %3, 32, !dbg !2174
  %tobool = icmp ne i32 %and, 0, !dbg !2170
  br i1 %tobool, label %if.then, label %if.else, !dbg !2175

if.then:                                          ; preds = %while.body
  %4 = load %"struct.pov::Object_Struct"*, %"struct.pov::Object_Struct"** %Object, align 8, !dbg !2176
  %5 = bitcast %"struct.pov::Object_Struct"* %4 to %"struct.pov::Light_Source_Struct"*, !dbg !2178
  %Children = getelementptr inbounds %"struct.pov::Light_Source_Struct", %"struct.pov::Light_Source_Struct"* %5, i32 0, i32 14, !dbg !2178
  %6 = load %"struct.pov::Object_Struct"*, %"struct.pov::Object_Struct"** %Children, align 8, !dbg !2178
  store %"struct.pov::Object_Struct"* %6, %"struct.pov::Object_Struct"** %Temp, align 8, !dbg !2179
  %7 = load i64, i64* @_ZN3pov20numberOfLightSourcesE, align 8, !dbg !2180
  %inc = add nsw i64 %7, 1, !dbg !2180
  store i64 %inc, i64* @_ZN3pov20numberOfLightSourcesE, align 8, !dbg !2180
  br label %if.end, !dbg !2181

if.else:                                          ; preds = %while.body
  %8 = load %"struct.pov::Object_Struct"*, %"struct.pov::Object_Struct"** %Object, align 8, !dbg !2182
  store %"struct.pov::Object_Struct"* %8, %"struct.pov::Object_Struct"** %Temp, align 8, !dbg !2184
  br label %if.end

if.end:                                           ; preds = %if.else, %if.then
  %9 = load %"struct.pov::Object_Struct"*, %"struct.pov::Object_Struct"** %Temp, align 8, !dbg !2185
  %cmp1 = icmp ne %"struct.pov::Object_Struct"* %9, null, !dbg !2187
  br i1 %cmp1, label %if.then2, label %if.end10, !dbg !2188

if.then2:                                         ; preds = %if.end
  %10 = load %"struct.pov::Object_Struct"*, %"struct.pov::Object_Struct"** %Temp, align 8, !dbg !2189
  %Flags = getelementptr inbounds %"struct.pov::Object_Struct", %"struct.pov::Object_Struct"* %10, i32 0, i32 13, !dbg !2189
  %11 = load i32, i32* %Flags, align 4, !dbg !2189
  %conv = zext i32 %11 to i64, !dbg !2189
  %and3 = and i64 %conv, 512, !dbg !2189
  %tobool4 = icmp ne i64 %and3, 0, !dbg !2189
  br i1 %tobool4, label %if.then5, label %if.else7, !dbg !2192

if.then5:                                         ; preds = %if.then2
  %12 = load i64, i64* @_ZN3pov23numberOfInfiniteObjectsE, align 8, !dbg !2193
  %inc6 = add nsw i64 %12, 1, !dbg !2193
  store i64 %inc6, i64* @_ZN3pov23numberOfInfiniteObjectsE, align 8, !dbg !2193
  br label %if.end9, !dbg !2195

if.else7:                                         ; preds = %if.then2
  %13 = load i64, i64* @_ZN3pov21numberOfFiniteObjectsE, align 8, !dbg !2196
  %inc8 = add nsw i64 %13, 1, !dbg !2196
  store i64 %inc8, i64* @_ZN3pov21numberOfFiniteObjectsE, align 8, !dbg !2196
  br label %if.end9

if.end9:                                          ; preds = %if.else7, %if.then5
  br label %if.end10, !dbg !2198

if.end10:                                         ; preds = %if.end9, %if.end
  %14 = load %"struct.pov::Object_Struct"*, %"struct.pov::Object_Struct"** %Object, align 8, !dbg !2199
  %Sibling = getelementptr inbounds %"struct.pov::Object_Struct", %"struct.pov::Object_Struct"* %14, i32 0, i32 2, !dbg !2200
  %15 = load %"struct.pov::Object_Struct"*, %"struct.pov::Object_Struct"** %Sibling, align 8, !dbg !2200
  store %"struct.pov::Object_Struct"* %15, %"struct.pov::Object_Struct"** %Object, align 8, !dbg !2201
  br label %while.cond, !dbg !2167, !llvm.loop !2202

while.end:                                        ; preds = %while.cond
  %16 = load i8, i8* getelementptr inbounds (%"struct.pov::OPTIONS_STRUCT", %"struct.pov::OPTIONS_STRUCT"* @_ZN3pov4optsE, i32 0, i32 30), align 4, !dbg !2204
  %tobool11 = trunc i8 %16 to i1, !dbg !2204
  br i1 %tobool11, label %lor.lhs.false, label %if.then16, !dbg !2206

lor.lhs.false:                                    ; preds = %while.end
  %17 = load i64, i64* @_ZN3pov21numberOfFiniteObjectsE, align 8, !dbg !2207
  %18 = load i64, i64* @_ZN3pov23numberOfInfiniteObjectsE, align 8, !dbg !2208
  %add = add nsw i64 %17, %18, !dbg !2209
  %19 = load i64, i64* getelementptr inbounds (%"struct.pov::OPTIONS_STRUCT", %"struct.pov::OPTIONS_STRUCT"* @_ZN3pov4optsE, i32 0, i32 31), align 8, !dbg !2210
  %cmp12 = icmp sge i64 %add, %19, !dbg !2211
  br i1 %cmp12, label %lor.lhs.false13, label %if.then16, !dbg !2212

lor.lhs.false13:                                  ; preds = %lor.lhs.false
  %20 = load i64, i64* @_ZN3pov21numberOfFiniteObjectsE, align 8, !dbg !2213
  %21 = load i64, i64* @_ZN3pov23numberOfInfiniteObjectsE, align 8, !dbg !2214
  %add14 = add nsw i64 %20, %21, !dbg !2215
  %cmp15 = icmp slt i64 %add14, 1, !dbg !2216
  br i1 %cmp15, label %if.then16, label %if.end17, !dbg !2217

if.then16:                                        ; preds = %lor.lhs.false13, %lor.lhs.false, %while.end
  store i8 0, i8* getelementptr inbounds (%"struct.pov::OPTIONS_STRUCT", %"struct.pov::OPTIONS_STRUCT"* @_ZN3pov4optsE, i32 0, i32 30), align 4, !dbg !2218
  br label %if.end78, !dbg !2220

if.end17:                                         ; preds = %lor.lhs.false13
  store i8 1, i8* getelementptr inbounds (%"struct.pov::OPTIONS_STRUCT", %"struct.pov::OPTIONS_STRUCT"* @_ZN3pov4optsE, i32 0, i32 30), align 4, !dbg !2221
  %22 = load i64, i64* @_ZN3pov21numberOfFiniteObjectsE, align 8, !dbg !2222
  %mul = mul nsw i64 2, %22, !dbg !2223
  store i64 %mul, i64* @_ZN3povL14maxfinitecountE, align 8, !dbg !2224
  store %"struct.pov::BBox_Tree_Struct"** null, %"struct.pov::BBox_Tree_Struct"*** %Infinite, align 8, !dbg !2225
  store %"struct.pov::BBox_Tree_Struct"** null, %"struct.pov::BBox_Tree_Struct"*** %Finite, align 8, !dbg !2226
  %23 = load i64, i64* @_ZN3pov21numberOfFiniteObjectsE, align 8, !dbg !2227
  %cmp18 = icmp sgt i64 %23, 0, !dbg !2229
  br i1 %cmp18, label %if.then19, label %if.end21, !dbg !2230

if.then19:                                        ; preds = %if.end17
  %24 = load i64, i64* @_ZN3povL14maxfinitecountE, align 8, !dbg !2231
  %mul20 = mul i64 %24, 8, !dbg !2231
  %call = call i8* @_ZN3pov10pov_mallocEmPKciS1_(i64 %mul20, i8* getelementptr inbounds ([9 x i8], [9 x i8]* @.str, i64 0, i64 0), i32 711, i8* getelementptr inbounds ([15 x i8], [15 x i8]* @.str.3, i64 0, i64 0)), !dbg !2231
  %25 = bitcast i8* %call to %"struct.pov::BBox_Tree_Struct"**, !dbg !2233
  store %"struct.pov::BBox_Tree_Struct"** %25, %"struct.pov::BBox_Tree_Struct"*** %Finite, align 8, !dbg !2234
  br label %if.end21, !dbg !2235

if.end21:                                         ; preds = %if.then19, %if.end17
  %26 = load i64, i64* @_ZN3pov23numberOfInfiniteObjectsE, align 8, !dbg !2236
  %cmp22 = icmp sgt i64 %26, 0, !dbg !2238
  br i1 %cmp22, label %if.then23, label %if.end26, !dbg !2239

if.then23:                                        ; preds = %if.end21
  %27 = load i64, i64* @_ZN3pov23numberOfInfiniteObjectsE, align 8, !dbg !2240
  %mul24 = mul i64 %27, 8, !dbg !2240
  %call25 = call i8* @_ZN3pov10pov_mallocEmPKciS1_(i64 %mul24, i8* getelementptr inbounds ([9 x i8], [9 x i8]* @.str, i64 0, i64 0), i32 718, i8* getelementptr inbounds ([15 x i8], [15 x i8]* @.str.3, i64 0, i64 0)), !dbg !2240
  %28 = bitcast i8* %call25 to %"struct.pov::BBox_Tree_Struct"**, !dbg !2242
  store %"struct.pov::BBox_Tree_Struct"** %28, %"struct.pov::BBox_Tree_Struct"*** %Infinite, align 8, !dbg !2243
  br label %if.end26, !dbg !2244

if.end26:                                         ; preds = %if.then23, %if.end21
  store i64 0, i64* %i, align 8, !dbg !2245
  br label %for.cond, !dbg !2247

for.cond:                                         ; preds = %for.inc, %if.end26
  %29 = load i64, i64* %i, align 8, !dbg !2248
  %30 = load i64, i64* @_ZN3pov21numberOfFiniteObjectsE, align 8, !dbg !2250
  %cmp27 = icmp slt i64 %29, %30, !dbg !2251
  br i1 %cmp27, label %for.body, label %for.end, !dbg !2252

for.body:                                         ; preds = %for.cond
  %call28 = call %"struct.pov::BBox_Tree_Struct"* @_ZN3povL16create_bbox_nodeEi(i32 0), !dbg !2253
  %31 = load %"struct.pov::BBox_Tree_Struct"**, %"struct.pov::BBox_Tree_Struct"*** %Finite, align 8, !dbg !2255
  %32 = load i64, i64* %i, align 8, !dbg !2256
  %arrayidx = getelementptr inbounds %"struct.pov::BBox_Tree_Struct"*, %"struct.pov::BBox_Tree_Struct"** %31, i64 %32, !dbg !2255
  store %"struct.pov::BBox_Tree_Struct"* %call28, %"struct.pov::BBox_Tree_Struct"** %arrayidx, align 8, !dbg !2257
  br label %for.inc, !dbg !2258

for.inc:                                          ; preds = %for.body
  %33 = load i64, i64* %i, align 8, !dbg !2259
  %inc29 = add nsw i64 %33, 1, !dbg !2259
  store i64 %inc29, i64* %i, align 8, !dbg !2259
  br label %for.cond, !dbg !2260, !llvm.loop !2261

for.end:                                          ; preds = %for.cond
  store i64 0, i64* %i, align 8, !dbg !2263
  br label %for.cond30, !dbg !2265

for.cond30:                                       ; preds = %for.inc35, %for.end
  %34 = load i64, i64* %i, align 8, !dbg !2266
  %35 = load i64, i64* @_ZN3pov23numberOfInfiniteObjectsE, align 8, !dbg !2268
  %cmp31 = icmp slt i64 %34, %35, !dbg !2269
  br i1 %cmp31, label %for.body32, label %for.end37, !dbg !2270

for.body32:                                       ; preds = %for.cond30
  %call33 = call %"struct.pov::BBox_Tree_Struct"* @_ZN3povL16create_bbox_nodeEi(i32 0), !dbg !2271
  %36 = load %"struct.pov::BBox_Tree_Struct"**, %"struct.pov::BBox_Tree_Struct"*** %Infinite, align 8, !dbg !2273
  %37 = load i64, i64* %i, align 8, !dbg !2274
  %arrayidx34 = getelementptr inbounds %"struct.pov::BBox_Tree_Struct"*, %"struct.pov::BBox_Tree_Struct"** %36, i64 %37, !dbg !2273
  store %"struct.pov::BBox_Tree_Struct"* %call33, %"struct.pov::BBox_Tree_Struct"** %arrayidx34, align 8, !dbg !2275
  br label %for.inc35, !dbg !2276

for.inc35:                                        ; preds = %for.body32
  %38 = load i64, i64* %i, align 8, !dbg !2277
  %inc36 = add nsw i64 %38, 1, !dbg !2277
  store i64 %inc36, i64* %i, align 8, !dbg !2277
  br label %for.cond30, !dbg !2278, !llvm.loop !2279

for.end37:                                        ; preds = %for.cond30
  store i64 0, i64* %iInfinite, align 8, !dbg !2281
  store i64 0, i64* %iFinite, align 8, !dbg !2282
  %39 = load %"struct.pov::Object_Struct"*, %"struct.pov::Object_Struct"** getelementptr inbounds (%"struct.pov::Frame_Struct", %"struct.pov::Frame_Struct"* @_ZN3pov5FrameE, i32 0, i32 5), align 8, !dbg !2283
  store %"struct.pov::Object_Struct"* %39, %"struct.pov::Object_Struct"** %Object, align 8, !dbg !2285
  br label %for.cond38, !dbg !2286

for.cond38:                                       ; preds = %for.inc70, %for.end37
  %40 = load %"struct.pov::Object_Struct"*, %"struct.pov::Object_Struct"** %Object, align 8, !dbg !2287
  %cmp39 = icmp ne %"struct.pov::Object_Struct"* %40, null, !dbg !2289
  br i1 %cmp39, label %for.body40, label %for.end72, !dbg !2290

for.body40:                                       ; preds = %for.cond38
  %41 = load %"struct.pov::Object_Struct"*, %"struct.pov::Object_Struct"** %Object, align 8, !dbg !2291
  %Type41 = getelementptr inbounds %"struct.pov::Object_Struct", %"struct.pov::Object_Struct"* %41, i32 0, i32 1, !dbg !2294
  %42 = load i32, i32* %Type41, align 8, !dbg !2294
  %and42 = and i32 %42, 32, !dbg !2295
  %tobool43 = icmp ne i32 %and42, 0, !dbg !2291
  br i1 %tobool43, label %if.then44, label %if.else46, !dbg !2296

if.then44:                                        ; preds = %for.body40
  %43 = load %"struct.pov::Object_Struct"*, %"struct.pov::Object_Struct"** %Object, align 8, !dbg !2297
  %44 = bitcast %"struct.pov::Object_Struct"* %43 to %"struct.pov::Light_Source_Struct"*, !dbg !2299
  %Children45 = getelementptr inbounds %"struct.pov::Light_Source_Struct", %"struct.pov::Light_Source_Struct"* %44, i32 0, i32 14, !dbg !2299
  %45 = load %"struct.pov::Object_Struct"*, %"struct.pov::Object_Struct"** %Children45, align 8, !dbg !2299
  store %"struct.pov::Object_Struct"* %45, %"struct.pov::Object_Struct"** %Temp, align 8, !dbg !2300
  br label %if.end47, !dbg !2301

if.else46:                                        ; preds = %for.body40
  %46 = load %"struct.pov::Object_Struct"*, %"struct.pov::Object_Struct"** %Object, align 8, !dbg !2302
  store %"struct.pov::Object_Struct"* %46, %"struct.pov::Object_Struct"** %Temp, align 8, !dbg !2304
  br label %if.end47

if.end47:                                         ; preds = %if.else46, %if.then44
  %47 = load %"struct.pov::Object_Struct"*, %"struct.pov::Object_Struct"** %Temp, align 8, !dbg !2305
  %cmp48 = icmp ne %"struct.pov::Object_Struct"* %47, null, !dbg !2307
  br i1 %cmp48, label %if.then49, label %if.end69, !dbg !2308

if.then49:                                        ; preds = %if.end47
  %48 = load %"struct.pov::Object_Struct"*, %"struct.pov::Object_Struct"** %Temp, align 8, !dbg !2309
  %Flags50 = getelementptr inbounds %"struct.pov::Object_Struct", %"struct.pov::Object_Struct"* %48, i32 0, i32 13, !dbg !2309
  %49 = load i32, i32* %Flags50, align 4, !dbg !2309
  %conv51 = zext i32 %49 to i64, !dbg !2309
  %and52 = and i64 %conv51, 512, !dbg !2309
  %tobool53 = icmp ne i64 %and52, 0, !dbg !2309
  br i1 %tobool53, label %if.then54, label %if.else61, !dbg !2312

if.then54:                                        ; preds = %if.then49
  %50 = load %"struct.pov::BBox_Tree_Struct"**, %"struct.pov::BBox_Tree_Struct"*** %Infinite, align 8, !dbg !2313
  %51 = load i64, i64* %iInfinite, align 8, !dbg !2315
  %arrayidx55 = getelementptr inbounds %"struct.pov::BBox_Tree_Struct"*, %"struct.pov::BBox_Tree_Struct"** %50, i64 %51, !dbg !2313
  %52 = load %"struct.pov::BBox_Tree_Struct"*, %"struct.pov::BBox_Tree_Struct"** %arrayidx55, align 8, !dbg !2313
  %Infinite56 = getelementptr inbounds %"struct.pov::BBox_Tree_Struct", %"struct.pov::BBox_Tree_Struct"* %52, i32 0, i32 0, !dbg !2316
  store i16 1, i16* %Infinite56, align 8, !dbg !2317
  %53 = load %"struct.pov::Object_Struct"*, %"struct.pov::Object_Struct"** %Temp, align 8, !dbg !2318
  %BBox = getelementptr inbounds %"struct.pov::Object_Struct", %"struct.pov::Object_Struct"* %53, i32 0, i32 9, !dbg !2319
  %54 = load %"struct.pov::BBox_Tree_Struct"**, %"struct.pov::BBox_Tree_Struct"*** %Infinite, align 8, !dbg !2320
  %55 = load i64, i64* %iInfinite, align 8, !dbg !2321
  %arrayidx57 = getelementptr inbounds %"struct.pov::BBox_Tree_Struct"*, %"struct.pov::BBox_Tree_Struct"** %54, i64 %55, !dbg !2320
  %56 = load %"struct.pov::BBox_Tree_Struct"*, %"struct.pov::BBox_Tree_Struct"** %arrayidx57, align 8, !dbg !2320
  %BBox58 = getelementptr inbounds %"struct.pov::BBox_Tree_Struct", %"struct.pov::BBox_Tree_Struct"* %56, i32 0, i32 2, !dbg !2322
  %57 = bitcast %"struct.pov::Bounding_Box_Struct"* %BBox58 to i8*, !dbg !2323
  %58 = bitcast %"struct.pov::Bounding_Box_Struct"* %BBox to i8*, !dbg !2323
  call void @llvm.memcpy.p0i8.p0i8.i64(i8* align 4 %57, i8* align 8 %58, i64 24, i1 false), !dbg !2323
  %59 = load %"struct.pov::Object_Struct"*, %"struct.pov::Object_Struct"** %Temp, align 8, !dbg !2324
  %60 = bitcast %"struct.pov::Object_Struct"* %59 to %"struct.pov::BBox_Tree_Struct"**, !dbg !2325
  %61 = load %"struct.pov::BBox_Tree_Struct"**, %"struct.pov::BBox_Tree_Struct"*** %Infinite, align 8, !dbg !2326
  %62 = load i64, i64* %iInfinite, align 8, !dbg !2327
  %arrayidx59 = getelementptr inbounds %"struct.pov::BBox_Tree_Struct"*, %"struct.pov::BBox_Tree_Struct"** %61, i64 %62, !dbg !2326
  %63 = load %"struct.pov::BBox_Tree_Struct"*, %"struct.pov::BBox_Tree_Struct"** %arrayidx59, align 8, !dbg !2326
  %Node = getelementptr inbounds %"struct.pov::BBox_Tree_Struct", %"struct.pov::BBox_Tree_Struct"* %63, i32 0, i32 3, !dbg !2328
  store %"struct.pov::BBox_Tree_Struct"** %60, %"struct.pov::BBox_Tree_Struct"*** %Node, align 8, !dbg !2329
  %64 = load i64, i64* %iInfinite, align 8, !dbg !2330
  %inc60 = add nsw i64 %64, 1, !dbg !2330
  store i64 %inc60, i64* %iInfinite, align 8, !dbg !2330
  br label %if.end68, !dbg !2331

if.else61:                                        ; preds = %if.then49
  %65 = load %"struct.pov::Object_Struct"*, %"struct.pov::Object_Struct"** %Temp, align 8, !dbg !2332
  %BBox62 = getelementptr inbounds %"struct.pov::Object_Struct", %"struct.pov::Object_Struct"* %65, i32 0, i32 9, !dbg !2334
  %66 = load %"struct.pov::BBox_Tree_Struct"**, %"struct.pov::BBox_Tree_Struct"*** %Finite, align 8, !dbg !2335
  %67 = load i64, i64* %iFinite, align 8, !dbg !2336
  %arrayidx63 = getelementptr inbounds %"struct.pov::BBox_Tree_Struct"*, %"struct.pov::BBox_Tree_Struct"** %66, i64 %67, !dbg !2335
  %68 = load %"struct.pov::BBox_Tree_Struct"*, %"struct.pov::BBox_Tree_Struct"** %arrayidx63, align 8, !dbg !2335
  %BBox64 = getelementptr inbounds %"struct.pov::BBox_Tree_Struct", %"struct.pov::BBox_Tree_Struct"* %68, i32 0, i32 2, !dbg !2337
  %69 = bitcast %"struct.pov::Bounding_Box_Struct"* %BBox64 to i8*, !dbg !2338
  %70 = bitcast %"struct.pov::Bounding_Box_Struct"* %BBox62 to i8*, !dbg !2338
  call void @llvm.memcpy.p0i8.p0i8.i64(i8* align 4 %69, i8* align 8 %70, i64 24, i1 false), !dbg !2338
  %71 = load %"struct.pov::Object_Struct"*, %"struct.pov::Object_Struct"** %Temp, align 8, !dbg !2339
  %72 = bitcast %"struct.pov::Object_Struct"* %71 to %"struct.pov::BBox_Tree_Struct"**, !dbg !2340
  %73 = load %"struct.pov::BBox_Tree_Struct"**, %"struct.pov::BBox_Tree_Struct"*** %Finite, align 8, !dbg !2341
  %74 = load i64, i64* %iFinite, align 8, !dbg !2342
  %arrayidx65 = getelementptr inbounds %"struct.pov::BBox_Tree_Struct"*, %"struct.pov::BBox_Tree_Struct"** %73, i64 %74, !dbg !2341
  %75 = load %"struct.pov::BBox_Tree_Struct"*, %"struct.pov::BBox_Tree_Struct"** %arrayidx65, align 8, !dbg !2341
  %Node66 = getelementptr inbounds %"struct.pov::BBox_Tree_Struct", %"struct.pov::BBox_Tree_Struct"* %75, i32 0, i32 3, !dbg !2343
  store %"struct.pov::BBox_Tree_Struct"** %72, %"struct.pov::BBox_Tree_Struct"*** %Node66, align 8, !dbg !2344
  %76 = load i64, i64* %iFinite, align 8, !dbg !2345
  %inc67 = add nsw i64 %76, 1, !dbg !2345
  store i64 %inc67, i64* %iFinite, align 8, !dbg !2345
  br label %if.end68

if.end68:                                         ; preds = %if.else61, %if.then54
  br label %if.end69, !dbg !2346

if.end69:                                         ; preds = %if.end68, %if.end47
  br label %for.inc70, !dbg !2347

for.inc70:                                        ; preds = %if.end69
  %77 = load %"struct.pov::Object_Struct"*, %"struct.pov::Object_Struct"** %Object, align 8, !dbg !2348
  %Sibling71 = getelementptr inbounds %"struct.pov::Object_Struct", %"struct.pov::Object_Struct"* %77, i32 0, i32 2, !dbg !2349
  %78 = load %"struct.pov::Object_Struct"*, %"struct.pov::Object_Struct"** %Sibling71, align 8, !dbg !2349
  store %"struct.pov::Object_Struct"* %78, %"struct.pov::Object_Struct"** %Object, align 8, !dbg !2350
  br label %for.cond38, !dbg !2351, !llvm.loop !2352

for.end72:                                        ; preds = %for.cond38
  %79 = load %"struct.pov::BBox_Tree_Struct"**, %"struct.pov::BBox_Tree_Struct"*** %Root.addr, align 8, !dbg !2354
  %80 = load i64, i64* @_ZN3pov21numberOfFiniteObjectsE, align 8, !dbg !2355
  %81 = load i64, i64* @_ZN3pov23numberOfInfiniteObjectsE, align 8, !dbg !2356
  %82 = load %"struct.pov::BBox_Tree_Struct"**, %"struct.pov::BBox_Tree_Struct"*** %Infinite, align 8, !dbg !2357
  call void @_ZN3pov15Build_BBox_TreeEPPNS_16BBox_Tree_StructElRS2_lS2_(%"struct.pov::BBox_Tree_Struct"** %79, i64 %80, %"struct.pov::BBox_Tree_Struct"*** dereferenceable(8) %Finite, i64 %81, %"struct.pov::BBox_Tree_Struct"** %82), !dbg !2358
  %83 = load %"struct.pov::BBox_Tree_Struct"**, %"struct.pov::BBox_Tree_Struct"*** %Finite, align 8, !dbg !2359
  %cmp73 = icmp ne %"struct.pov::BBox_Tree_Struct"** %83, null, !dbg !2361
  br i1 %cmp73, label %if.then74, label %if.end75, !dbg !2362

if.then74:                                        ; preds = %for.end72
  %84 = load %"struct.pov::BBox_Tree_Struct"**, %"struct.pov::BBox_Tree_Struct"*** %Finite, align 8, !dbg !2363
  %85 = bitcast %"struct.pov::BBox_Tree_Struct"** %84 to i8*, !dbg !2363
  call void @_ZN3pov8pov_freeEPvPKci(i8* %85, i8* getelementptr inbounds ([9 x i8], [9 x i8]* @.str, i64 0, i64 0), i32 780), !dbg !2363
  store %"struct.pov::BBox_Tree_Struct"** null, %"struct.pov::BBox_Tree_Struct"*** %Finite, align 8, !dbg !2363
  br label %if.end75, !dbg !2366

if.end75:                                         ; preds = %if.then74, %for.end72
  %86 = load %"struct.pov::BBox_Tree_Struct"**, %"struct.pov::BBox_Tree_Struct"*** %Infinite, align 8, !dbg !2367
  %cmp76 = icmp ne %"struct.pov::BBox_Tree_Struct"** %86, null, !dbg !2369
  br i1 %cmp76, label %if.then77, label %if.end78, !dbg !2370

if.then77:                                        ; preds = %if.end75
  %87 = load %"struct.pov::BBox_Tree_Struct"**, %"struct.pov::BBox_Tree_Struct"*** %Infinite, align 8, !dbg !2371
  %88 = bitcast %"struct.pov::BBox_Tree_Struct"** %87 to i8*, !dbg !2371
  call void @_ZN3pov8pov_freeEPvPKci(i8* %88, i8* getelementptr inbounds ([9 x i8], [9 x i8]* @.str, i64 0, i64 0), i32 785), !dbg !2371
  store %"struct.pov::BBox_Tree_Struct"** null, %"struct.pov::BBox_Tree_Struct"*** %Infinite, align 8, !dbg !2371
  br label %if.end78, !dbg !2374

if.end78:                                         ; preds = %if.then16, %if.then77, %if.end75
  ret void, !dbg !2375
}

; Function Attrs: argmemonly nounwind willreturn
declare void @llvm.memcpy.p0i8.p0i8.i64(i8* noalias nocapture writeonly, i8* noalias nocapture readonly, i64, i1 immarg) #4

; Function Attrs: noinline uwtable
define dso_local void @_ZN3pov22Destroy_Bounding_SlabsEv() #0 !dbg !2376 {
entry:
  %0 = load %"struct.pov::BBox_Tree_Struct"*, %"struct.pov::BBox_Tree_Struct"** @_ZN3pov11Root_ObjectE, align 8, !dbg !2377
  %cmp = icmp ne %"struct.pov::BBox_Tree_Struct"* %0, null, !dbg !2379
  br i1 %cmp, label %if.then, label %if.end, !dbg !2380

if.then:                                          ; preds = %entry
  %1 = load %"struct.pov::BBox_Tree_Struct"*, %"struct.pov::BBox_Tree_Struct"** @_ZN3pov11Root_ObjectE, align 8, !dbg !2381
  call void @_ZN3pov17Destroy_BBox_TreeEPNS_16BBox_Tree_StructE(%"struct.pov::BBox_Tree_Struct"* %1), !dbg !2383
  store %"struct.pov::BBox_Tree_Struct"* null, %"struct.pov::BBox_Tree_Struct"** @_ZN3pov11Root_ObjectE, align 8, !dbg !2384
  br label %if.end, !dbg !2385

if.end:                                           ; preds = %if.then, %entry
  ret void, !dbg !2386
}

; Function Attrs: noinline uwtable
define dso_local zeroext i1 @_ZN3pov19Intersect_BBox_TreeEPNS_16BBox_Tree_StructEPNS_10Ray_StructEPNS_10istk_entryEPPNS_13Object_StructEb(%"struct.pov::BBox_Tree_Struct"* %Root, %"struct.pov::Ray_Struct"* %Ray, %"struct.pov::istk_entry"* %Best_Intersection, %"struct.pov::Object_Struct"** %Best_Object, i1 zeroext %shadow_flag) #0 !dbg !2387 {
entry:
  %Root.addr = alloca %"struct.pov::BBox_Tree_Struct"*, align 8
  %Ray.addr = alloca %"struct.pov::Ray_Struct"*, align 8
  %Best_Intersection.addr = alloca %"struct.pov::istk_entry"*, align 8
  %Best_Object.addr = alloca %"struct.pov::Object_Struct"**, align 8
  %shadow_flag.addr = alloca i8, align 1
  %i = alloca i32, align 4
  %found = alloca i32, align 4
  %Depth = alloca double, align 8
  %Node = alloca %"struct.pov::BBox_Tree_Struct"*, align 8
  %rayinfo = alloca %"struct.pov::Rayinfo_Struct", align 8
  %New_Intersection = alloca %"struct.pov::istk_entry", align 8
  store %"struct.pov::BBox_Tree_Struct"* %Root, %"struct.pov::BBox_Tree_Struct"** %Root.addr, align 8
  call void @llvm.dbg.declare(metadata %"struct.pov::BBox_Tree_Struct"** %Root.addr, metadata !2430, metadata !DIExpression()), !dbg !2431
  store %"struct.pov::Ray_Struct"* %Ray, %"struct.pov::Ray_Struct"** %Ray.addr, align 8
  call void @llvm.dbg.declare(metadata %"struct.pov::Ray_Struct"** %Ray.addr, metadata !2432, metadata !DIExpression()), !dbg !2433
  store %"struct.pov::istk_entry"* %Best_Intersection, %"struct.pov::istk_entry"** %Best_Intersection.addr, align 8
  call void @llvm.dbg.declare(metadata %"struct.pov::istk_entry"** %Best_Intersection.addr, metadata !2434, metadata !DIExpression()), !dbg !2435
  store %"struct.pov::Object_Struct"** %Best_Object, %"struct.pov::Object_Struct"*** %Best_Object.addr, align 8
  call void @llvm.dbg.declare(metadata %"struct.pov::Object_Struct"*** %Best_Object.addr, metadata !2436, metadata !DIExpression()), !dbg !2437
  %frombool = zext i1 %shadow_flag to i8
  store i8 %frombool, i8* %shadow_flag.addr, align 1
  call void @llvm.dbg.declare(metadata i8* %shadow_flag.addr, metadata !2438, metadata !DIExpression()), !dbg !2439
  call void @llvm.dbg.declare(metadata i32* %i, metadata !2440, metadata !DIExpression()), !dbg !2441
  call void @llvm.dbg.declare(metadata i32* %found, metadata !2442, metadata !DIExpression()), !dbg !2443
  call void @llvm.dbg.declare(metadata double* %Depth, metadata !2444, metadata !DIExpression()), !dbg !2445
  call void @llvm.dbg.declare(metadata %"struct.pov::BBox_Tree_Struct"** %Node, metadata !2446, metadata !DIExpression()), !dbg !2447
  call void @llvm.dbg.declare(metadata %"struct.pov::Rayinfo_Struct"* %rayinfo, metadata !2448, metadata !DIExpression()), !dbg !2458
  call void @llvm.dbg.declare(metadata %"struct.pov::istk_entry"* %New_Intersection, metadata !2459, metadata !DIExpression()), !dbg !2460
  %0 = load %"struct.pov::Ray_Struct"*, %"struct.pov::Ray_Struct"** %Ray.addr, align 8, !dbg !2461
  call void @_ZN3pov14Create_RayinfoEPNS_10Ray_StructEPNS_14Rayinfo_StructE(%"struct.pov::Ray_Struct"* %0, %"struct.pov::Rayinfo_Struct"* %rayinfo), !dbg !2462
  %Object = getelementptr inbounds %"struct.pov::istk_entry", %"struct.pov::istk_entry"* %New_Intersection, i32 0, i32 5, !dbg !2463
  store %"struct.pov::Object_Struct"* null, %"struct.pov::Object_Struct"** %Object, align 8, !dbg !2464
  store i32 0, i32* %found, align 4, !dbg !2465
  %1 = load %"struct.pov::Priority_Queue_Struct"*, %"struct.pov::Priority_Queue_Struct"** @_ZN3povL11Frame_QueueE, align 8, !dbg !2466
  %QSize = getelementptr inbounds %"struct.pov::Priority_Queue_Struct", %"struct.pov::Priority_Queue_Struct"* %1, i32 0, i32 0, !dbg !2467
  store i32 0, i32* %QSize, align 8, !dbg !2468
  call void @_ZN3pov16Increase_CounterERx(i64* dereferenceable(8) getelementptr inbounds ([123 x i64], [123 x i64]* @_ZN3pov5statsE, i64 0, i64 111)), !dbg !2469
  %2 = load %"struct.pov::Priority_Queue_Struct"*, %"struct.pov::Priority_Queue_Struct"** @_ZN3povL11Frame_QueueE, align 8, !dbg !2470
  %3 = load %"struct.pov::BBox_Tree_Struct"*, %"struct.pov::BBox_Tree_Struct"** %Root.addr, align 8, !dbg !2471
  %4 = load %"struct.pov::BBox_Tree_Struct"*, %"struct.pov::BBox_Tree_Struct"** %Root.addr, align 8, !dbg !2472
  %BBox = getelementptr inbounds %"struct.pov::BBox_Tree_Struct", %"struct.pov::BBox_Tree_Struct"* %4, i32 0, i32 2, !dbg !2473
  call void @_ZN3pov17Check_And_EnqueueEPNS_21Priority_Queue_StructEPNS_16BBox_Tree_StructEPNS_19Bounding_Box_StructEPNS_14Rayinfo_StructE(%"struct.pov::Priority_Queue_Struct"* %2, %"struct.pov::BBox_Tree_Struct"* %3, %"struct.pov::Bounding_Box_Struct"* %BBox, %"struct.pov::Rayinfo_Struct"* %rayinfo), !dbg !2474
  br label %while.cond, !dbg !2475

while.cond:                                       ; preds = %if.end56, %entry
  %5 = load %"struct.pov::Priority_Queue_Struct"*, %"struct.pov::Priority_Queue_Struct"** @_ZN3povL11Frame_QueueE, align 8, !dbg !2476
  %QSize1 = getelementptr inbounds %"struct.pov::Priority_Queue_Struct", %"struct.pov::Priority_Queue_Struct"* %5, i32 0, i32 0, !dbg !2477
  %6 = load i32, i32* %QSize1, align 8, !dbg !2477
  %tobool = icmp ne i32 %6, 0, !dbg !2476
  br i1 %tobool, label %while.body, label %while.end, !dbg !2475

while.body:                                       ; preds = %while.cond
  %7 = load %"struct.pov::Priority_Queue_Struct"*, %"struct.pov::Priority_Queue_Struct"** @_ZN3povL11Frame_QueueE, align 8, !dbg !2478
  call void @_ZN3pov21Priority_Queue_DeleteEPNS_21Priority_Queue_StructEPdPPNS_16BBox_Tree_StructE(%"struct.pov::Priority_Queue_Struct"* %7, double* %Depth, %"struct.pov::BBox_Tree_Struct"** %Node), !dbg !2480
  %8 = load double, double* %Depth, align 8, !dbg !2481
  %9 = load %"struct.pov::istk_entry"*, %"struct.pov::istk_entry"** %Best_Intersection.addr, align 8, !dbg !2483
  %Depth2 = getelementptr inbounds %"struct.pov::istk_entry", %"struct.pov::istk_entry"* %9, i32 0, i32 0, !dbg !2484
  %10 = load double, double* %Depth2, align 8, !dbg !2484
  %cmp = fcmp ogt double %8, %10, !dbg !2485
  br i1 %cmp, label %if.then, label %if.end, !dbg !2486

if.then:                                          ; preds = %while.body
  br label %while.end, !dbg !2487

if.end:                                           ; preds = %while.body
  %11 = load %"struct.pov::BBox_Tree_Struct"*, %"struct.pov::BBox_Tree_Struct"** %Node, align 8, !dbg !2489
  %Entries = getelementptr inbounds %"struct.pov::BBox_Tree_Struct", %"struct.pov::BBox_Tree_Struct"* %11, i32 0, i32 1, !dbg !2491
  %12 = load i16, i16* %Entries, align 2, !dbg !2491
  %tobool3 = icmp ne i16 %12, 0, !dbg !2489
  br i1 %tobool3, label %if.then4, label %if.else, !dbg !2492

if.then4:                                         ; preds = %if.end
  store i32 0, i32* %i, align 4, !dbg !2493
  br label %for.cond, !dbg !2496

for.cond:                                         ; preds = %for.inc, %if.then4
  %13 = load i32, i32* %i, align 4, !dbg !2497
  %14 = load %"struct.pov::BBox_Tree_Struct"*, %"struct.pov::BBox_Tree_Struct"** %Node, align 8, !dbg !2499
  %Entries5 = getelementptr inbounds %"struct.pov::BBox_Tree_Struct", %"struct.pov::BBox_Tree_Struct"* %14, i32 0, i32 1, !dbg !2500
  %15 = load i16, i16* %Entries5, align 2, !dbg !2500
  %conv = sext i16 %15 to i32, !dbg !2499
  %cmp6 = icmp slt i32 %13, %conv, !dbg !2501
  br i1 %cmp6, label %for.body, label %for.end, !dbg !2502

for.body:                                         ; preds = %for.cond
  %16 = load %"struct.pov::Priority_Queue_Struct"*, %"struct.pov::Priority_Queue_Struct"** @_ZN3povL11Frame_QueueE, align 8, !dbg !2503
  %17 = load %"struct.pov::BBox_Tree_Struct"*, %"struct.pov::BBox_Tree_Struct"** %Node, align 8, !dbg !2505
  %Node7 = getelementptr inbounds %"struct.pov::BBox_Tree_Struct", %"struct.pov::BBox_Tree_Struct"* %17, i32 0, i32 3, !dbg !2506
  %18 = load %"struct.pov::BBox_Tree_Struct"**, %"struct.pov::BBox_Tree_Struct"*** %Node7, align 8, !dbg !2506
  %19 = load i32, i32* %i, align 4, !dbg !2507
  %idxprom = sext i32 %19 to i64, !dbg !2505
  %arrayidx = getelementptr inbounds %"struct.pov::BBox_Tree_Struct"*, %"struct.pov::BBox_Tree_Struct"** %18, i64 %idxprom, !dbg !2505
  %20 = load %"struct.pov::BBox_Tree_Struct"*, %"struct.pov::BBox_Tree_Struct"** %arrayidx, align 8, !dbg !2505
  %21 = load %"struct.pov::BBox_Tree_Struct"*, %"struct.pov::BBox_Tree_Struct"** %Node, align 8, !dbg !2508
  %Node8 = getelementptr inbounds %"struct.pov::BBox_Tree_Struct", %"struct.pov::BBox_Tree_Struct"* %21, i32 0, i32 3, !dbg !2509
  %22 = load %"struct.pov::BBox_Tree_Struct"**, %"struct.pov::BBox_Tree_Struct"*** %Node8, align 8, !dbg !2509
  %23 = load i32, i32* %i, align 4, !dbg !2510
  %idxprom9 = sext i32 %23 to i64, !dbg !2508
  %arrayidx10 = getelementptr inbounds %"struct.pov::BBox_Tree_Struct"*, %"struct.pov::BBox_Tree_Struct"** %22, i64 %idxprom9, !dbg !2508
  %24 = load %"struct.pov::BBox_Tree_Struct"*, %"struct.pov::BBox_Tree_Struct"** %arrayidx10, align 8, !dbg !2508
  %BBox11 = getelementptr inbounds %"struct.pov::BBox_Tree_Struct", %"struct.pov::BBox_Tree_Struct"* %24, i32 0, i32 2, !dbg !2511
  call void @_ZN3pov17Check_And_EnqueueEPNS_21Priority_Queue_StructEPNS_16BBox_Tree_StructEPNS_19Bounding_Box_StructEPNS_14Rayinfo_StructE(%"struct.pov::Priority_Queue_Struct"* %16, %"struct.pov::BBox_Tree_Struct"* %20, %"struct.pov::Bounding_Box_Struct"* %BBox11, %"struct.pov::Rayinfo_Struct"* %rayinfo), !dbg !2512
  br label %for.inc, !dbg !2513

for.inc:                                          ; preds = %for.body
  %25 = load i32, i32* %i, align 4, !dbg !2514
  %inc = add nsw i32 %25, 1, !dbg !2514
  store i32 %inc, i32* %i, align 4, !dbg !2514
  br label %for.cond, !dbg !2515, !llvm.loop !2516

for.end:                                          ; preds = %for.cond
  br label %if.end56, !dbg !2518

if.else:                                          ; preds = %if.end
  %26 = load i32, i32* @_ZN3pov13backtraceFlagE, align 4, !dbg !2519
  %tobool12 = icmp ne i32 %26, 0, !dbg !2519
  br i1 %tobool12, label %lor.lhs.false29, label %land.lhs.true, !dbg !2519

land.lhs.true:                                    ; preds = %if.else
  %27 = load %"struct.pov::BBox_Tree_Struct"*, %"struct.pov::BBox_Tree_Struct"** %Node, align 8, !dbg !2519
  %Node13 = getelementptr inbounds %"struct.pov::BBox_Tree_Struct", %"struct.pov::BBox_Tree_Struct"* %27, i32 0, i32 3, !dbg !2519
  %28 = load %"struct.pov::BBox_Tree_Struct"**, %"struct.pov::BBox_Tree_Struct"*** %Node13, align 8, !dbg !2519
  %29 = bitcast %"struct.pov::BBox_Tree_Struct"** %28 to %"struct.pov::Object_Struct"*, !dbg !2519
  %Flags = getelementptr inbounds %"struct.pov::Object_Struct", %"struct.pov::Object_Struct"* %29, i32 0, i32 13, !dbg !2519
  %30 = load i32, i32* %Flags, align 4, !dbg !2519
  %conv14 = zext i32 %30 to i64, !dbg !2519
  %and = and i64 %conv14, 32768, !dbg !2519
  %tobool15 = icmp ne i64 %and, 0, !dbg !2519
  br i1 %tobool15, label %lor.lhs.false, label %land.lhs.true19, !dbg !2519

lor.lhs.false:                                    ; preds = %land.lhs.true
  %31 = load i8, i8* @_ZN3pov17In_Reflection_RayE, align 1, !dbg !2519
  %tobool16 = trunc i8 %31 to i1, !dbg !2519
  %conv17 = zext i1 %tobool16 to i32, !dbg !2519
  %cmp18 = icmp eq i32 %conv17, 1, !dbg !2519
  br i1 %cmp18, label %land.lhs.true19, label %lor.lhs.false29, !dbg !2519

land.lhs.true19:                                  ; preds = %lor.lhs.false, %land.lhs.true
  %32 = load %"struct.pov::BBox_Tree_Struct"*, %"struct.pov::BBox_Tree_Struct"** %Node, align 8, !dbg !2519
  %Node20 = getelementptr inbounds %"struct.pov::BBox_Tree_Struct", %"struct.pov::BBox_Tree_Struct"* %32, i32 0, i32 3, !dbg !2519
  %33 = load %"struct.pov::BBox_Tree_Struct"**, %"struct.pov::BBox_Tree_Struct"*** %Node20, align 8, !dbg !2519
  %34 = bitcast %"struct.pov::BBox_Tree_Struct"** %33 to %"struct.pov::Object_Struct"*, !dbg !2519
  %Flags21 = getelementptr inbounds %"struct.pov::Object_Struct", %"struct.pov::Object_Struct"* %34, i32 0, i32 13, !dbg !2519
  %35 = load i32, i32* %Flags21, align 4, !dbg !2519
  %conv22 = zext i32 %35 to i64, !dbg !2519
  %and23 = and i64 %conv22, 65536, !dbg !2519
  %tobool24 = icmp ne i64 %and23, 0, !dbg !2519
  br i1 %tobool24, label %lor.lhs.false25, label %if.then45, !dbg !2519

lor.lhs.false25:                                  ; preds = %land.lhs.true19
  %36 = load i8, i8* @_ZN3pov17In_Reflection_RayE, align 1, !dbg !2519
  %tobool26 = trunc i8 %36 to i1, !dbg !2519
  %conv27 = zext i1 %tobool26 to i32, !dbg !2519
  %cmp28 = icmp eq i32 %conv27, 0, !dbg !2519
  br i1 %cmp28, label %if.then45, label %lor.lhs.false29, !dbg !2519

lor.lhs.false29:                                  ; preds = %lor.lhs.false25, %lor.lhs.false, %if.else
  %37 = load i32, i32* @_ZN3pov13backtraceFlagE, align 4, !dbg !2519
  %tobool30 = icmp ne i32 %37, 0, !dbg !2519
  br i1 %tobool30, label %land.lhs.true31, label %lor.lhs.false37, !dbg !2519

land.lhs.true31:                                  ; preds = %lor.lhs.false29
  %38 = load %"struct.pov::BBox_Tree_Struct"*, %"struct.pov::BBox_Tree_Struct"** %Node, align 8, !dbg !2519
  %Node32 = getelementptr inbounds %"struct.pov::BBox_Tree_Struct", %"struct.pov::BBox_Tree_Struct"* %38, i32 0, i32 3, !dbg !2519
  %39 = load %"struct.pov::BBox_Tree_Struct"**, %"struct.pov::BBox_Tree_Struct"*** %Node32, align 8, !dbg !2519
  %40 = bitcast %"struct.pov::BBox_Tree_Struct"** %39 to %"struct.pov::Object_Struct"*, !dbg !2519
  %Flags33 = getelementptr inbounds %"struct.pov::Object_Struct", %"struct.pov::Object_Struct"* %40, i32 0, i32 13, !dbg !2519
  %41 = load i32, i32* %Flags33, align 4, !dbg !2519
  %conv34 = zext i32 %41 to i64, !dbg !2519
  %and35 = and i64 %conv34, 1, !dbg !2519
  %tobool36 = icmp ne i64 %and35, 0, !dbg !2519
  br i1 %tobool36, label %lor.lhs.false37, label %if.then45, !dbg !2519

lor.lhs.false37:                                  ; preds = %land.lhs.true31, %lor.lhs.false29
  %42 = load i8, i8* %shadow_flag.addr, align 1, !dbg !2519
  %tobool38 = trunc i8 %42 to i1, !dbg !2519
  br i1 %tobool38, label %land.lhs.true39, label %if.end55, !dbg !2519

land.lhs.true39:                                  ; preds = %lor.lhs.false37
  %43 = load %"struct.pov::BBox_Tree_Struct"*, %"struct.pov::BBox_Tree_Struct"** %Node, align 8, !dbg !2519
  %Node40 = getelementptr inbounds %"struct.pov::BBox_Tree_Struct", %"struct.pov::BBox_Tree_Struct"* %43, i32 0, i32 3, !dbg !2519
  %44 = load %"struct.pov::BBox_Tree_Struct"**, %"struct.pov::BBox_Tree_Struct"*** %Node40, align 8, !dbg !2519
  %45 = bitcast %"struct.pov::BBox_Tree_Struct"** %44 to %"struct.pov::Object_Struct"*, !dbg !2519
  %Flags41 = getelementptr inbounds %"struct.pov::Object_Struct", %"struct.pov::Object_Struct"* %45, i32 0, i32 13, !dbg !2519
  %46 = load i32, i32* %Flags41, align 4, !dbg !2519
  %conv42 = zext i32 %46 to i64, !dbg !2519
  %and43 = and i64 %conv42, 1, !dbg !2519
  %tobool44 = icmp ne i64 %and43, 0, !dbg !2519
  br i1 %tobool44, label %if.end55, label %if.then45, !dbg !2522

if.then45:                                        ; preds = %land.lhs.true39, %land.lhs.true31, %lor.lhs.false25, %land.lhs.true19
  %47 = load %"struct.pov::BBox_Tree_Struct"*, %"struct.pov::BBox_Tree_Struct"** %Node, align 8, !dbg !2523
  %Node46 = getelementptr inbounds %"struct.pov::BBox_Tree_Struct", %"struct.pov::BBox_Tree_Struct"* %47, i32 0, i32 3, !dbg !2526
  %48 = load %"struct.pov::BBox_Tree_Struct"**, %"struct.pov::BBox_Tree_Struct"*** %Node46, align 8, !dbg !2526
  %49 = bitcast %"struct.pov::BBox_Tree_Struct"** %48 to %"struct.pov::Object_Struct"*, !dbg !2527
  %50 = load %"struct.pov::Ray_Struct"*, %"struct.pov::Ray_Struct"** %Ray.addr, align 8, !dbg !2528
  %call = call zeroext i1 @_ZN3pov12IntersectionEPNS_10istk_entryEPNS_13Object_StructEPNS_10Ray_StructE(%"struct.pov::istk_entry"* %New_Intersection, %"struct.pov::Object_Struct"* %49, %"struct.pov::Ray_Struct"* %50), !dbg !2529
  br i1 %call, label %if.then47, label %if.end54, !dbg !2530

if.then47:                                        ; preds = %if.then45
  %Depth48 = getelementptr inbounds %"struct.pov::istk_entry", %"struct.pov::istk_entry"* %New_Intersection, i32 0, i32 0, !dbg !2531
  %51 = load double, double* %Depth48, align 8, !dbg !2531
  %52 = load %"struct.pov::istk_entry"*, %"struct.pov::istk_entry"** %Best_Intersection.addr, align 8, !dbg !2534
  %Depth49 = getelementptr inbounds %"struct.pov::istk_entry", %"struct.pov::istk_entry"* %52, i32 0, i32 0, !dbg !2535
  %53 = load double, double* %Depth49, align 8, !dbg !2535
  %cmp50 = fcmp olt double %51, %53, !dbg !2536
  br i1 %cmp50, label %if.then51, label %if.end53, !dbg !2537

if.then51:                                        ; preds = %if.then47
  %54 = load %"struct.pov::istk_entry"*, %"struct.pov::istk_entry"** %Best_Intersection.addr, align 8, !dbg !2538
  %55 = bitcast %"struct.pov::istk_entry"* %54 to i8*, !dbg !2540
  %56 = bitcast %"struct.pov::istk_entry"* %New_Intersection to i8*, !dbg !2540
  call void @llvm.memcpy.p0i8.p0i8.i64(i8* align 8 %55, i8* align 8 %56, i64 200, i1 false), !dbg !2540
  %57 = load %"struct.pov::BBox_Tree_Struct"*, %"struct.pov::BBox_Tree_Struct"** %Node, align 8, !dbg !2541
  %Node52 = getelementptr inbounds %"struct.pov::BBox_Tree_Struct", %"struct.pov::BBox_Tree_Struct"* %57, i32 0, i32 3, !dbg !2542
  %58 = load %"struct.pov::BBox_Tree_Struct"**, %"struct.pov::BBox_Tree_Struct"*** %Node52, align 8, !dbg !2542
  %59 = bitcast %"struct.pov::BBox_Tree_Struct"** %58 to %"struct.pov::Object_Struct"*, !dbg !2543
  %60 = load %"struct.pov::Object_Struct"**, %"struct.pov::Object_Struct"*** %Best_Object.addr, align 8, !dbg !2544
  store %"struct.pov::Object_Struct"* %59, %"struct.pov::Object_Struct"** %60, align 8, !dbg !2545
  store i32 1, i32* %found, align 4, !dbg !2546
  br label %if.end53, !dbg !2547

if.end53:                                         ; preds = %if.then51, %if.then47
  br label %if.end54, !dbg !2548

if.end54:                                         ; preds = %if.end53, %if.then45
  br label %if.end55, !dbg !2549

if.end55:                                         ; preds = %if.end54, %land.lhs.true39, %lor.lhs.false37
  br label %if.end56

if.end56:                                         ; preds = %if.end55, %for.end
  br label %while.cond, !dbg !2475, !llvm.loop !2550

while.end:                                        ; preds = %if.then, %while.cond
  %61 = load i32, i32* %found, align 4, !dbg !2552
  %tobool57 = icmp ne i32 %61, 0, !dbg !2553
  ret i1 %tobool57, !dbg !2554
}

; Function Attrs: noinline uwtable
define dso_local void @_ZN3pov14Create_RayinfoEPNS_10Ray_StructEPNS_14Rayinfo_StructE(%"struct.pov::Ray_Struct"* %Ray, %"struct.pov::Rayinfo_Struct"* %rayinfo) #0 !dbg !2555 {
entry:
  %Ray.addr = alloca %"struct.pov::Ray_Struct"*, align 8
  %rayinfo.addr = alloca %"struct.pov::Rayinfo_Struct"*, align 8
  %t = alloca double, align 8
  store %"struct.pov::Ray_Struct"* %Ray, %"struct.pov::Ray_Struct"** %Ray.addr, align 8
  call void @llvm.dbg.declare(metadata %"struct.pov::Ray_Struct"** %Ray.addr, metadata !2559, metadata !DIExpression()), !dbg !2560
  store %"struct.pov::Rayinfo_Struct"* %rayinfo, %"struct.pov::Rayinfo_Struct"** %rayinfo.addr, align 8
  call void @llvm.dbg.declare(metadata %"struct.pov::Rayinfo_Struct"** %rayinfo.addr, metadata !2561, metadata !DIExpression()), !dbg !2562
  call void @llvm.dbg.declare(metadata double* %t, metadata !2563, metadata !DIExpression()), !dbg !2564
  %0 = load %"struct.pov::Rayinfo_Struct"*, %"struct.pov::Rayinfo_Struct"** %rayinfo.addr, align 8, !dbg !2565
  %slab_num = getelementptr inbounds %"struct.pov::Rayinfo_Struct", %"struct.pov::Rayinfo_Struct"* %0, i32 0, i32 0, !dbg !2566
  %arraydecay = getelementptr inbounds [3 x double], [3 x double]* %slab_num, i64 0, i64 0, !dbg !2565
  %1 = load %"struct.pov::Ray_Struct"*, %"struct.pov::Ray_Struct"** %Ray.addr, align 8, !dbg !2567
  %Initial = getelementptr inbounds %"struct.pov::Ray_Struct", %"struct.pov::Ray_Struct"* %1, i32 0, i32 0, !dbg !2568
  %arraydecay1 = getelementptr inbounds [3 x double], [3 x double]* %Initial, i64 0, i64 0, !dbg !2567
  call void @_ZN3pov13Assign_VectorEPdS0_(double* %arraydecay, double* %arraydecay1), !dbg !2569
  %2 = load %"struct.pov::Ray_Struct"*, %"struct.pov::Ray_Struct"** %Ray.addr, align 8, !dbg !2570
  %Direction = getelementptr inbounds %"struct.pov::Ray_Struct", %"struct.pov::Ray_Struct"* %2, i32 0, i32 1, !dbg !2572
  %arrayidx = getelementptr inbounds [3 x double], [3 x double]* %Direction, i64 0, i64 0, !dbg !2570
  %3 = load double, double* %arrayidx, align 8, !dbg !2570
  store double %3, double* %t, align 8, !dbg !2573
  %cmp = fcmp une double %3, 0.000000e+00, !dbg !2574
  %conv = zext i1 %cmp to i32, !dbg !2575
  %4 = load %"struct.pov::Rayinfo_Struct"*, %"struct.pov::Rayinfo_Struct"** %rayinfo.addr, align 8, !dbg !2576
  %nonzero = getelementptr inbounds %"struct.pov::Rayinfo_Struct", %"struct.pov::Rayinfo_Struct"* %4, i32 0, i32 2, !dbg !2577
  %arrayidx2 = getelementptr inbounds [3 x i32], [3 x i32]* %nonzero, i64 0, i64 0, !dbg !2576
  store i32 %conv, i32* %arrayidx2, align 8, !dbg !2578
  %cmp3 = icmp ne i32 %conv, 0, !dbg !2579
  br i1 %cmp3, label %if.then, label %if.end, !dbg !2580

if.then:                                          ; preds = %entry
  %5 = load double, double* %t, align 8, !dbg !2581
  %div = fdiv double 1.000000e+00, %5, !dbg !2583
  %6 = load %"struct.pov::Rayinfo_Struct"*, %"struct.pov::Rayinfo_Struct"** %rayinfo.addr, align 8, !dbg !2584
  %slab_den = getelementptr inbounds %"struct.pov::Rayinfo_Struct", %"struct.pov::Rayinfo_Struct"* %6, i32 0, i32 1, !dbg !2585
  %arrayidx4 = getelementptr inbounds [3 x double], [3 x double]* %slab_den, i64 0, i64 0, !dbg !2584
  store double %div, double* %arrayidx4, align 8, !dbg !2586
  %7 = load %"struct.pov::Ray_Struct"*, %"struct.pov::Ray_Struct"** %Ray.addr, align 8, !dbg !2587
  %Direction5 = getelementptr inbounds %"struct.pov::Ray_Struct", %"struct.pov::Ray_Struct"* %7, i32 0, i32 1, !dbg !2588
  %arrayidx6 = getelementptr inbounds [3 x double], [3 x double]* %Direction5, i64 0, i64 0, !dbg !2587
  %8 = load double, double* %arrayidx6, align 8, !dbg !2587
  %cmp7 = fcmp ogt double %8, 0.000000e+00, !dbg !2589
  %conv8 = zext i1 %cmp7 to i32, !dbg !2590
  %9 = load %"struct.pov::Rayinfo_Struct"*, %"struct.pov::Rayinfo_Struct"** %rayinfo.addr, align 8, !dbg !2591
  %positive = getelementptr inbounds %"struct.pov::Rayinfo_Struct", %"struct.pov::Rayinfo_Struct"* %9, i32 0, i32 3, !dbg !2592
  %arrayidx9 = getelementptr inbounds [3 x i32], [3 x i32]* %positive, i64 0, i64 0, !dbg !2591
  store i32 %conv8, i32* %arrayidx9, align 4, !dbg !2593
  br label %if.end, !dbg !2594

if.end:                                           ; preds = %if.then, %entry
  %10 = load %"struct.pov::Ray_Struct"*, %"struct.pov::Ray_Struct"** %Ray.addr, align 8, !dbg !2595
  %Direction10 = getelementptr inbounds %"struct.pov::Ray_Struct", %"struct.pov::Ray_Struct"* %10, i32 0, i32 1, !dbg !2597
  %arrayidx11 = getelementptr inbounds [3 x double], [3 x double]* %Direction10, i64 0, i64 1, !dbg !2595
  %11 = load double, double* %arrayidx11, align 8, !dbg !2595
  store double %11, double* %t, align 8, !dbg !2598
  %cmp12 = fcmp une double %11, 0.000000e+00, !dbg !2599
  %conv13 = zext i1 %cmp12 to i32, !dbg !2600
  %12 = load %"struct.pov::Rayinfo_Struct"*, %"struct.pov::Rayinfo_Struct"** %rayinfo.addr, align 8, !dbg !2601
  %nonzero14 = getelementptr inbounds %"struct.pov::Rayinfo_Struct", %"struct.pov::Rayinfo_Struct"* %12, i32 0, i32 2, !dbg !2602
  %arrayidx15 = getelementptr inbounds [3 x i32], [3 x i32]* %nonzero14, i64 0, i64 1, !dbg !2601
  store i32 %conv13, i32* %arrayidx15, align 4, !dbg !2603
  %cmp16 = icmp ne i32 %conv13, 0, !dbg !2604
  br i1 %cmp16, label %if.then17, label %if.end27, !dbg !2605

if.then17:                                        ; preds = %if.end
  %13 = load double, double* %t, align 8, !dbg !2606
  %div18 = fdiv double 1.000000e+00, %13, !dbg !2608
  %14 = load %"struct.pov::Rayinfo_Struct"*, %"struct.pov::Rayinfo_Struct"** %rayinfo.addr, align 8, !dbg !2609
  %slab_den19 = getelementptr inbounds %"struct.pov::Rayinfo_Struct", %"struct.pov::Rayinfo_Struct"* %14, i32 0, i32 1, !dbg !2610
  %arrayidx20 = getelementptr inbounds [3 x double], [3 x double]* %slab_den19, i64 0, i64 1, !dbg !2609
  store double %div18, double* %arrayidx20, align 8, !dbg !2611
  %15 = load %"struct.pov::Ray_Struct"*, %"struct.pov::Ray_Struct"** %Ray.addr, align 8, !dbg !2612
  %Direction21 = getelementptr inbounds %"struct.pov::Ray_Struct", %"struct.pov::Ray_Struct"* %15, i32 0, i32 1, !dbg !2613
  %arrayidx22 = getelementptr inbounds [3 x double], [3 x double]* %Direction21, i64 0, i64 1, !dbg !2612
  %16 = load double, double* %arrayidx22, align 8, !dbg !2612
  %cmp23 = fcmp ogt double %16, 0.000000e+00, !dbg !2614
  %conv24 = zext i1 %cmp23 to i32, !dbg !2615
  %17 = load %"struct.pov::Rayinfo_Struct"*, %"struct.pov::Rayinfo_Struct"** %rayinfo.addr, align 8, !dbg !2616
  %positive25 = getelementptr inbounds %"struct.pov::Rayinfo_Struct", %"struct.pov::Rayinfo_Struct"* %17, i32 0, i32 3, !dbg !2617
  %arrayidx26 = getelementptr inbounds [3 x i32], [3 x i32]* %positive25, i64 0, i64 1, !dbg !2616
  store i32 %conv24, i32* %arrayidx26, align 4, !dbg !2618
  br label %if.end27, !dbg !2619

if.end27:                                         ; preds = %if.then17, %if.end
  %18 = load %"struct.pov::Ray_Struct"*, %"struct.pov::Ray_Struct"** %Ray.addr, align 8, !dbg !2620
  %Direction28 = getelementptr inbounds %"struct.pov::Ray_Struct", %"struct.pov::Ray_Struct"* %18, i32 0, i32 1, !dbg !2622
  %arrayidx29 = getelementptr inbounds [3 x double], [3 x double]* %Direction28, i64 0, i64 2, !dbg !2620
  %19 = load double, double* %arrayidx29, align 8, !dbg !2620
  store double %19, double* %t, align 8, !dbg !2623
  %cmp30 = fcmp une double %19, 0.000000e+00, !dbg !2624
  %conv31 = zext i1 %cmp30 to i32, !dbg !2625
  %20 = load %"struct.pov::Rayinfo_Struct"*, %"struct.pov::Rayinfo_Struct"** %rayinfo.addr, align 8, !dbg !2626
  %nonzero32 = getelementptr inbounds %"struct.pov::Rayinfo_Struct", %"struct.pov::Rayinfo_Struct"* %20, i32 0, i32 2, !dbg !2627
  %arrayidx33 = getelementptr inbounds [3 x i32], [3 x i32]* %nonzero32, i64 0, i64 2, !dbg !2626
  store i32 %conv31, i32* %arrayidx33, align 8, !dbg !2628
  %cmp34 = icmp ne i32 %conv31, 0, !dbg !2629
  br i1 %cmp34, label %if.then35, label %if.end45, !dbg !2630

if.then35:                                        ; preds = %if.end27
  %21 = load double, double* %t, align 8, !dbg !2631
  %div36 = fdiv double 1.000000e+00, %21, !dbg !2633
  %22 = load %"struct.pov::Rayinfo_Struct"*, %"struct.pov::Rayinfo_Struct"** %rayinfo.addr, align 8, !dbg !2634
  %slab_den37 = getelementptr inbounds %"struct.pov::Rayinfo_Struct", %"struct.pov::Rayinfo_Struct"* %22, i32 0, i32 1, !dbg !2635
  %arrayidx38 = getelementptr inbounds [3 x double], [3 x double]* %slab_den37, i64 0, i64 2, !dbg !2634
  store double %div36, double* %arrayidx38, align 8, !dbg !2636
  %23 = load %"struct.pov::Ray_Struct"*, %"struct.pov::Ray_Struct"** %Ray.addr, align 8, !dbg !2637
  %Direction39 = getelementptr inbounds %"struct.pov::Ray_Struct", %"struct.pov::Ray_Struct"* %23, i32 0, i32 1, !dbg !2638
  %arrayidx40 = getelementptr inbounds [3 x double], [3 x double]* %Direction39, i64 0, i64 2, !dbg !2637
  %24 = load double, double* %arrayidx40, align 8, !dbg !2637
  %cmp41 = fcmp ogt double %24, 0.000000e+00, !dbg !2639
  %conv42 = zext i1 %cmp41 to i32, !dbg !2640
  %25 = load %"struct.pov::Rayinfo_Struct"*, %"struct.pov::Rayinfo_Struct"** %rayinfo.addr, align 8, !dbg !2641
  %positive43 = getelementptr inbounds %"struct.pov::Rayinfo_Struct", %"struct.pov::Rayinfo_Struct"* %25, i32 0, i32 3, !dbg !2642
  %arrayidx44 = getelementptr inbounds [3 x i32], [3 x i32]* %positive43, i64 0, i64 2, !dbg !2641
  store i32 %conv42, i32* %arrayidx44, align 4, !dbg !2643
  br label %if.end45, !dbg !2644

if.end45:                                         ; preds = %if.then35, %if.end27
  ret void, !dbg !2645
}

; Function Attrs: noinline nounwind uwtable
define linkonce_odr dso_local void @_ZN3pov16Increase_CounterERx(i64* dereferenceable(8) %x) #3 comdat !dbg !2646 {
entry:
  %x.addr = alloca i64*, align 8
  store i64* %x, i64** %x.addr, align 8
  call void @llvm.dbg.declare(metadata i64** %x.addr, metadata !2651, metadata !DIExpression()), !dbg !2652
  %0 = load i64*, i64** %x.addr, align 8, !dbg !2653
  %1 = load i64, i64* %0, align 8, !dbg !2654
  %inc = add nsw i64 %1, 1, !dbg !2654
  store i64 %inc, i64* %0, align 8, !dbg !2654
  ret void, !dbg !2655
}

; Function Attrs: noinline uwtable
define dso_local void @_ZN3pov17Check_And_EnqueueEPNS_21Priority_Queue_StructEPNS_16BBox_Tree_StructEPNS_19Bounding_Box_StructEPNS_14Rayinfo_StructE(%"struct.pov::Priority_Queue_Struct"* %Queue, %"struct.pov::BBox_Tree_Struct"* %Node, %"struct.pov::Bounding_Box_Struct"* %BBox, %"struct.pov::Rayinfo_Struct"* %rayinfo) #0 !dbg !2656 {
entry:
  %Queue.addr = alloca %"struct.pov::Priority_Queue_Struct"*, align 8
  %Node.addr = alloca %"struct.pov::BBox_Tree_Struct"*, align 8
  %BBox.addr = alloca %"struct.pov::Bounding_Box_Struct"*, align 8
  %rayinfo.addr = alloca %"struct.pov::Rayinfo_Struct"*, align 8
  %tmin = alloca double, align 8
  %tmax = alloca double, align 8
  %dmin = alloca double, align 8
  %dmax = alloca double, align 8
  store %"struct.pov::Priority_Queue_Struct"* %Queue, %"struct.pov::Priority_Queue_Struct"** %Queue.addr, align 8
  call void @llvm.dbg.declare(metadata %"struct.pov::Priority_Queue_Struct"** %Queue.addr, metadata !2659, metadata !DIExpression()), !dbg !2660
  store %"struct.pov::BBox_Tree_Struct"* %Node, %"struct.pov::BBox_Tree_Struct"** %Node.addr, align 8
  call void @llvm.dbg.declare(metadata %"struct.pov::BBox_Tree_Struct"** %Node.addr, metadata !2661, metadata !DIExpression()), !dbg !2662
  store %"struct.pov::Bounding_Box_Struct"* %BBox, %"struct.pov::Bounding_Box_Struct"** %BBox.addr, align 8
  call void @llvm.dbg.declare(metadata %"struct.pov::Bounding_Box_Struct"** %BBox.addr, metadata !2663, metadata !DIExpression()), !dbg !2664
  store %"struct.pov::Rayinfo_Struct"* %rayinfo, %"struct.pov::Rayinfo_Struct"** %rayinfo.addr, align 8
  call void @llvm.dbg.declare(metadata %"struct.pov::Rayinfo_Struct"** %rayinfo.addr, metadata !2665, metadata !DIExpression()), !dbg !2666
  call void @llvm.dbg.declare(metadata double* %tmin, metadata !2667, metadata !DIExpression()), !dbg !2668
  call void @llvm.dbg.declare(metadata double* %tmax, metadata !2669, metadata !DIExpression()), !dbg !2670
  call void @llvm.dbg.declare(metadata double* %dmin, metadata !2671, metadata !DIExpression()), !dbg !2672
  call void @llvm.dbg.declare(metadata double* %dmax, metadata !2673, metadata !DIExpression()), !dbg !2674
  %0 = load %"struct.pov::BBox_Tree_Struct"*, %"struct.pov::BBox_Tree_Struct"** %Node.addr, align 8, !dbg !2675
  %Infinite = getelementptr inbounds %"struct.pov::BBox_Tree_Struct", %"struct.pov::BBox_Tree_Struct"* %0, i32 0, i32 0, !dbg !2677
  %1 = load i16, i16* %Infinite, align 8, !dbg !2677
  %tobool = icmp ne i16 %1, 0, !dbg !2675
  br i1 %tobool, label %if.then, label %if.else, !dbg !2678

if.then:                                          ; preds = %entry
  store double -1.000000e+07, double* %dmin, align 8, !dbg !2679
  br label %if.end228, !dbg !2681

if.else:                                          ; preds = %entry
  call void @_ZN3pov16Increase_CounterERx(i64* dereferenceable(8) getelementptr inbounds ([123 x i64], [123 x i64]* @_ZN3pov5statsE, i64 0, i64 108)), !dbg !2682
  %2 = load %"struct.pov::Rayinfo_Struct"*, %"struct.pov::Rayinfo_Struct"** %rayinfo.addr, align 8, !dbg !2684
  %nonzero = getelementptr inbounds %"struct.pov::Rayinfo_Struct", %"struct.pov::Rayinfo_Struct"* %2, i32 0, i32 2, !dbg !2686
  %arrayidx = getelementptr inbounds [3 x i32], [3 x i32]* %nonzero, i64 0, i64 0, !dbg !2684
  %3 = load i32, i32* %arrayidx, align 8, !dbg !2684
  %tobool1 = icmp ne i32 %3, 0, !dbg !2684
  br i1 %tobool1, label %if.then2, label %if.else39, !dbg !2687

if.then2:                                         ; preds = %if.else
  %4 = load %"struct.pov::Rayinfo_Struct"*, %"struct.pov::Rayinfo_Struct"** %rayinfo.addr, align 8, !dbg !2688
  %positive = getelementptr inbounds %"struct.pov::Rayinfo_Struct", %"struct.pov::Rayinfo_Struct"* %4, i32 0, i32 3, !dbg !2691
  %arrayidx3 = getelementptr inbounds [3 x i32], [3 x i32]* %positive, i64 0, i64 0, !dbg !2688
  %5 = load i32, i32* %arrayidx3, align 4, !dbg !2688
  %tobool4 = icmp ne i32 %5, 0, !dbg !2688
  br i1 %tobool4, label %if.then5, label %if.else15, !dbg !2692

if.then5:                                         ; preds = %if.then2
  %6 = load %"struct.pov::Bounding_Box_Struct"*, %"struct.pov::Bounding_Box_Struct"** %BBox.addr, align 8, !dbg !2693
  %Lower_Left = getelementptr inbounds %"struct.pov::Bounding_Box_Struct", %"struct.pov::Bounding_Box_Struct"* %6, i32 0, i32 0, !dbg !2695
  %arrayidx6 = getelementptr inbounds [3 x float], [3 x float]* %Lower_Left, i64 0, i64 0, !dbg !2693
  %7 = load float, float* %arrayidx6, align 4, !dbg !2693
  %conv = fpext float %7 to double, !dbg !2693
  %8 = load %"struct.pov::Rayinfo_Struct"*, %"struct.pov::Rayinfo_Struct"** %rayinfo.addr, align 8, !dbg !2696
  %slab_num = getelementptr inbounds %"struct.pov::Rayinfo_Struct", %"struct.pov::Rayinfo_Struct"* %8, i32 0, i32 0, !dbg !2697
  %arrayidx7 = getelementptr inbounds [3 x double], [3 x double]* %slab_num, i64 0, i64 0, !dbg !2696
  %9 = load double, double* %arrayidx7, align 8, !dbg !2696
  %sub = fsub double %conv, %9, !dbg !2698
  %10 = load %"struct.pov::Rayinfo_Struct"*, %"struct.pov::Rayinfo_Struct"** %rayinfo.addr, align 8, !dbg !2699
  %slab_den = getelementptr inbounds %"struct.pov::Rayinfo_Struct", %"struct.pov::Rayinfo_Struct"* %10, i32 0, i32 1, !dbg !2700
  %arrayidx8 = getelementptr inbounds [3 x double], [3 x double]* %slab_den, i64 0, i64 0, !dbg !2699
  %11 = load double, double* %arrayidx8, align 8, !dbg !2699
  %mul = fmul double %sub, %11, !dbg !2701
  store double %mul, double* %dmin, align 8, !dbg !2702
  %12 = load double, double* %dmin, align 8, !dbg !2703
  %13 = load %"struct.pov::Bounding_Box_Struct"*, %"struct.pov::Bounding_Box_Struct"** %BBox.addr, align 8, !dbg !2704
  %Lengths = getelementptr inbounds %"struct.pov::Bounding_Box_Struct", %"struct.pov::Bounding_Box_Struct"* %13, i32 0, i32 1, !dbg !2705
  %arrayidx9 = getelementptr inbounds [3 x float], [3 x float]* %Lengths, i64 0, i64 0, !dbg !2704
  %14 = load float, float* %arrayidx9, align 4, !dbg !2704
  %conv10 = fpext float %14 to double, !dbg !2704
  %15 = load %"struct.pov::Rayinfo_Struct"*, %"struct.pov::Rayinfo_Struct"** %rayinfo.addr, align 8, !dbg !2706
  %slab_den11 = getelementptr inbounds %"struct.pov::Rayinfo_Struct", %"struct.pov::Rayinfo_Struct"* %15, i32 0, i32 1, !dbg !2707
  %arrayidx12 = getelementptr inbounds [3 x double], [3 x double]* %slab_den11, i64 0, i64 0, !dbg !2706
  %16 = load double, double* %arrayidx12, align 8, !dbg !2706
  %mul13 = fmul double %conv10, %16, !dbg !2708
  %add = fadd double %12, %mul13, !dbg !2709
  store double %add, double* %dmax, align 8, !dbg !2710
  %17 = load double, double* %dmax, align 8, !dbg !2711
  %cmp = fcmp olt double %17, 0x3E7AD7F29ABCAF48, !dbg !2713
  br i1 %cmp, label %if.then14, label %if.end, !dbg !2714

if.then14:                                        ; preds = %if.then5
  br label %return, !dbg !2715

if.end:                                           ; preds = %if.then5
  br label %if.end35, !dbg !2716

if.else15:                                        ; preds = %if.then2
  %18 = load %"struct.pov::Bounding_Box_Struct"*, %"struct.pov::Bounding_Box_Struct"** %BBox.addr, align 8, !dbg !2717
  %Lower_Left16 = getelementptr inbounds %"struct.pov::Bounding_Box_Struct", %"struct.pov::Bounding_Box_Struct"* %18, i32 0, i32 0, !dbg !2719
  %arrayidx17 = getelementptr inbounds [3 x float], [3 x float]* %Lower_Left16, i64 0, i64 0, !dbg !2717
  %19 = load float, float* %arrayidx17, align 4, !dbg !2717
  %conv18 = fpext float %19 to double, !dbg !2717
  %20 = load %"struct.pov::Rayinfo_Struct"*, %"struct.pov::Rayinfo_Struct"** %rayinfo.addr, align 8, !dbg !2720
  %slab_num19 = getelementptr inbounds %"struct.pov::Rayinfo_Struct", %"struct.pov::Rayinfo_Struct"* %20, i32 0, i32 0, !dbg !2721
  %arrayidx20 = getelementptr inbounds [3 x double], [3 x double]* %slab_num19, i64 0, i64 0, !dbg !2720
  %21 = load double, double* %arrayidx20, align 8, !dbg !2720
  %sub21 = fsub double %conv18, %21, !dbg !2722
  %22 = load %"struct.pov::Rayinfo_Struct"*, %"struct.pov::Rayinfo_Struct"** %rayinfo.addr, align 8, !dbg !2723
  %slab_den22 = getelementptr inbounds %"struct.pov::Rayinfo_Struct", %"struct.pov::Rayinfo_Struct"* %22, i32 0, i32 1, !dbg !2724
  %arrayidx23 = getelementptr inbounds [3 x double], [3 x double]* %slab_den22, i64 0, i64 0, !dbg !2723
  %23 = load double, double* %arrayidx23, align 8, !dbg !2723
  %mul24 = fmul double %sub21, %23, !dbg !2725
  store double %mul24, double* %dmax, align 8, !dbg !2726
  %24 = load double, double* %dmax, align 8, !dbg !2727
  %cmp25 = fcmp olt double %24, 0x3E7AD7F29ABCAF48, !dbg !2729
  br i1 %cmp25, label %if.then26, label %if.end27, !dbg !2730

if.then26:                                        ; preds = %if.else15
  br label %return, !dbg !2731

if.end27:                                         ; preds = %if.else15
  %25 = load double, double* %dmax, align 8, !dbg !2732
  %26 = load %"struct.pov::Bounding_Box_Struct"*, %"struct.pov::Bounding_Box_Struct"** %BBox.addr, align 8, !dbg !2733
  %Lengths28 = getelementptr inbounds %"struct.pov::Bounding_Box_Struct", %"struct.pov::Bounding_Box_Struct"* %26, i32 0, i32 1, !dbg !2734
  %arrayidx29 = getelementptr inbounds [3 x float], [3 x float]* %Lengths28, i64 0, i64 0, !dbg !2733
  %27 = load float, float* %arrayidx29, align 4, !dbg !2733
  %conv30 = fpext float %27 to double, !dbg !2733
  %28 = load %"struct.pov::Rayinfo_Struct"*, %"struct.pov::Rayinfo_Struct"** %rayinfo.addr, align 8, !dbg !2735
  %slab_den31 = getelementptr inbounds %"struct.pov::Rayinfo_Struct", %"struct.pov::Rayinfo_Struct"* %28, i32 0, i32 1, !dbg !2736
  %arrayidx32 = getelementptr inbounds [3 x double], [3 x double]* %slab_den31, i64 0, i64 0, !dbg !2735
  %29 = load double, double* %arrayidx32, align 8, !dbg !2735
  %mul33 = fmul double %conv30, %29, !dbg !2737
  %add34 = fadd double %25, %mul33, !dbg !2738
  store double %add34, double* %dmin, align 8, !dbg !2739
  br label %if.end35

if.end35:                                         ; preds = %if.end27, %if.end
  %30 = load double, double* %dmin, align 8, !dbg !2740
  %31 = load double, double* %dmax, align 8, !dbg !2742
  %cmp36 = fcmp ogt double %30, %31, !dbg !2743
  br i1 %cmp36, label %if.then37, label %if.end38, !dbg !2744

if.then37:                                        ; preds = %if.end35
  br label %return, !dbg !2745

if.end38:                                         ; preds = %if.end35
  br label %if.end57, !dbg !2746

if.else39:                                        ; preds = %if.else
  %32 = load %"struct.pov::Rayinfo_Struct"*, %"struct.pov::Rayinfo_Struct"** %rayinfo.addr, align 8, !dbg !2747
  %slab_num40 = getelementptr inbounds %"struct.pov::Rayinfo_Struct", %"struct.pov::Rayinfo_Struct"* %32, i32 0, i32 0, !dbg !2750
  %arrayidx41 = getelementptr inbounds [3 x double], [3 x double]* %slab_num40, i64 0, i64 0, !dbg !2747
  %33 = load double, double* %arrayidx41, align 8, !dbg !2747
  %34 = load %"struct.pov::Bounding_Box_Struct"*, %"struct.pov::Bounding_Box_Struct"** %BBox.addr, align 8, !dbg !2751
  %Lower_Left42 = getelementptr inbounds %"struct.pov::Bounding_Box_Struct", %"struct.pov::Bounding_Box_Struct"* %34, i32 0, i32 0, !dbg !2752
  %arrayidx43 = getelementptr inbounds [3 x float], [3 x float]* %Lower_Left42, i64 0, i64 0, !dbg !2751
  %35 = load float, float* %arrayidx43, align 4, !dbg !2751
  %conv44 = fpext float %35 to double, !dbg !2751
  %cmp45 = fcmp olt double %33, %conv44, !dbg !2753
  br i1 %cmp45, label %if.then55, label %lor.lhs.false, !dbg !2754

lor.lhs.false:                                    ; preds = %if.else39
  %36 = load %"struct.pov::Rayinfo_Struct"*, %"struct.pov::Rayinfo_Struct"** %rayinfo.addr, align 8, !dbg !2755
  %slab_num46 = getelementptr inbounds %"struct.pov::Rayinfo_Struct", %"struct.pov::Rayinfo_Struct"* %36, i32 0, i32 0, !dbg !2756
  %arrayidx47 = getelementptr inbounds [3 x double], [3 x double]* %slab_num46, i64 0, i64 0, !dbg !2755
  %37 = load double, double* %arrayidx47, align 8, !dbg !2755
  %38 = load %"struct.pov::Bounding_Box_Struct"*, %"struct.pov::Bounding_Box_Struct"** %BBox.addr, align 8, !dbg !2757
  %Lengths48 = getelementptr inbounds %"struct.pov::Bounding_Box_Struct", %"struct.pov::Bounding_Box_Struct"* %38, i32 0, i32 1, !dbg !2758
  %arrayidx49 = getelementptr inbounds [3 x float], [3 x float]* %Lengths48, i64 0, i64 0, !dbg !2757
  %39 = load float, float* %arrayidx49, align 4, !dbg !2757
  %40 = load %"struct.pov::Bounding_Box_Struct"*, %"struct.pov::Bounding_Box_Struct"** %BBox.addr, align 8, !dbg !2759
  %Lower_Left50 = getelementptr inbounds %"struct.pov::Bounding_Box_Struct", %"struct.pov::Bounding_Box_Struct"* %40, i32 0, i32 0, !dbg !2760
  %arrayidx51 = getelementptr inbounds [3 x float], [3 x float]* %Lower_Left50, i64 0, i64 0, !dbg !2759
  %41 = load float, float* %arrayidx51, align 4, !dbg !2759
  %add52 = fadd float %39, %41, !dbg !2761
  %conv53 = fpext float %add52 to double, !dbg !2757
  %cmp54 = fcmp ogt double %37, %conv53, !dbg !2762
  br i1 %cmp54, label %if.then55, label %if.end56, !dbg !2763

if.then55:                                        ; preds = %lor.lhs.false, %if.else39
  br label %return, !dbg !2764

if.end56:                                         ; preds = %lor.lhs.false
  store double -2.000000e+10, double* %dmin, align 8, !dbg !2766
  store double 2.000000e+10, double* %dmax, align 8, !dbg !2767
  br label %if.end57

if.end57:                                         ; preds = %if.end56, %if.end38
  %42 = load %"struct.pov::Rayinfo_Struct"*, %"struct.pov::Rayinfo_Struct"** %rayinfo.addr, align 8, !dbg !2768
  %nonzero58 = getelementptr inbounds %"struct.pov::Rayinfo_Struct", %"struct.pov::Rayinfo_Struct"* %42, i32 0, i32 2, !dbg !2770
  %arrayidx59 = getelementptr inbounds [3 x i32], [3 x i32]* %nonzero58, i64 0, i64 1, !dbg !2768
  %43 = load i32, i32* %arrayidx59, align 4, !dbg !2768
  %tobool60 = icmp ne i32 %43, 0, !dbg !2768
  br i1 %tobool60, label %if.then61, label %if.else123, !dbg !2771

if.then61:                                        ; preds = %if.end57
  %44 = load %"struct.pov::Rayinfo_Struct"*, %"struct.pov::Rayinfo_Struct"** %rayinfo.addr, align 8, !dbg !2772
  %positive62 = getelementptr inbounds %"struct.pov::Rayinfo_Struct", %"struct.pov::Rayinfo_Struct"* %44, i32 0, i32 3, !dbg !2775
  %arrayidx63 = getelementptr inbounds [3 x i32], [3 x i32]* %positive62, i64 0, i64 1, !dbg !2772
  %45 = load i32, i32* %arrayidx63, align 4, !dbg !2772
  %tobool64 = icmp ne i32 %45, 0, !dbg !2772
  br i1 %tobool64, label %if.then65, label %if.else82, !dbg !2776

if.then65:                                        ; preds = %if.then61
  %46 = load %"struct.pov::Bounding_Box_Struct"*, %"struct.pov::Bounding_Box_Struct"** %BBox.addr, align 8, !dbg !2777
  %Lower_Left66 = getelementptr inbounds %"struct.pov::Bounding_Box_Struct", %"struct.pov::Bounding_Box_Struct"* %46, i32 0, i32 0, !dbg !2779
  %arrayidx67 = getelementptr inbounds [3 x float], [3 x float]* %Lower_Left66, i64 0, i64 1, !dbg !2777
  %47 = load float, float* %arrayidx67, align 4, !dbg !2777
  %conv68 = fpext float %47 to double, !dbg !2777
  %48 = load %"struct.pov::Rayinfo_Struct"*, %"struct.pov::Rayinfo_Struct"** %rayinfo.addr, align 8, !dbg !2780
  %slab_num69 = getelementptr inbounds %"struct.pov::Rayinfo_Struct", %"struct.pov::Rayinfo_Struct"* %48, i32 0, i32 0, !dbg !2781
  %arrayidx70 = getelementptr inbounds [3 x double], [3 x double]* %slab_num69, i64 0, i64 1, !dbg !2780
  %49 = load double, double* %arrayidx70, align 8, !dbg !2780
  %sub71 = fsub double %conv68, %49, !dbg !2782
  %50 = load %"struct.pov::Rayinfo_Struct"*, %"struct.pov::Rayinfo_Struct"** %rayinfo.addr, align 8, !dbg !2783
  %slab_den72 = getelementptr inbounds %"struct.pov::Rayinfo_Struct", %"struct.pov::Rayinfo_Struct"* %50, i32 0, i32 1, !dbg !2784
  %arrayidx73 = getelementptr inbounds [3 x double], [3 x double]* %slab_den72, i64 0, i64 1, !dbg !2783
  %51 = load double, double* %arrayidx73, align 8, !dbg !2783
  %mul74 = fmul double %sub71, %51, !dbg !2785
  store double %mul74, double* %tmin, align 8, !dbg !2786
  %52 = load double, double* %tmin, align 8, !dbg !2787
  %53 = load %"struct.pov::Bounding_Box_Struct"*, %"struct.pov::Bounding_Box_Struct"** %BBox.addr, align 8, !dbg !2788
  %Lengths75 = getelementptr inbounds %"struct.pov::Bounding_Box_Struct", %"struct.pov::Bounding_Box_Struct"* %53, i32 0, i32 1, !dbg !2789
  %arrayidx76 = getelementptr inbounds [3 x float], [3 x float]* %Lengths75, i64 0, i64 1, !dbg !2788
  %54 = load float, float* %arrayidx76, align 4, !dbg !2788
  %conv77 = fpext float %54 to double, !dbg !2788
  %55 = load %"struct.pov::Rayinfo_Struct"*, %"struct.pov::Rayinfo_Struct"** %rayinfo.addr, align 8, !dbg !2790
  %slab_den78 = getelementptr inbounds %"struct.pov::Rayinfo_Struct", %"struct.pov::Rayinfo_Struct"* %55, i32 0, i32 1, !dbg !2791
  %arrayidx79 = getelementptr inbounds [3 x double], [3 x double]* %slab_den78, i64 0, i64 1, !dbg !2790
  %56 = load double, double* %arrayidx79, align 8, !dbg !2790
  %mul80 = fmul double %conv77, %56, !dbg !2792
  %add81 = fadd double %52, %mul80, !dbg !2793
  store double %add81, double* %tmax, align 8, !dbg !2794
  br label %if.end99, !dbg !2795

if.else82:                                        ; preds = %if.then61
  %57 = load %"struct.pov::Bounding_Box_Struct"*, %"struct.pov::Bounding_Box_Struct"** %BBox.addr, align 8, !dbg !2796
  %Lower_Left83 = getelementptr inbounds %"struct.pov::Bounding_Box_Struct", %"struct.pov::Bounding_Box_Struct"* %57, i32 0, i32 0, !dbg !2798
  %arrayidx84 = getelementptr inbounds [3 x float], [3 x float]* %Lower_Left83, i64 0, i64 1, !dbg !2796
  %58 = load float, float* %arrayidx84, align 4, !dbg !2796
  %conv85 = fpext float %58 to double, !dbg !2796
  %59 = load %"struct.pov::Rayinfo_Struct"*, %"struct.pov::Rayinfo_Struct"** %rayinfo.addr, align 8, !dbg !2799
  %slab_num86 = getelementptr inbounds %"struct.pov::Rayinfo_Struct", %"struct.pov::Rayinfo_Struct"* %59, i32 0, i32 0, !dbg !2800
  %arrayidx87 = getelementptr inbounds [3 x double], [3 x double]* %slab_num86, i64 0, i64 1, !dbg !2799
  %60 = load double, double* %arrayidx87, align 8, !dbg !2799
  %sub88 = fsub double %conv85, %60, !dbg !2801
  %61 = load %"struct.pov::Rayinfo_Struct"*, %"struct.pov::Rayinfo_Struct"** %rayinfo.addr, align 8, !dbg !2802
  %slab_den89 = getelementptr inbounds %"struct.pov::Rayinfo_Struct", %"struct.pov::Rayinfo_Struct"* %61, i32 0, i32 1, !dbg !2803
  %arrayidx90 = getelementptr inbounds [3 x double], [3 x double]* %slab_den89, i64 0, i64 1, !dbg !2802
  %62 = load double, double* %arrayidx90, align 8, !dbg !2802
  %mul91 = fmul double %sub88, %62, !dbg !2804
  store double %mul91, double* %tmax, align 8, !dbg !2805
  %63 = load double, double* %tmax, align 8, !dbg !2806
  %64 = load %"struct.pov::Bounding_Box_Struct"*, %"struct.pov::Bounding_Box_Struct"** %BBox.addr, align 8, !dbg !2807
  %Lengths92 = getelementptr inbounds %"struct.pov::Bounding_Box_Struct", %"struct.pov::Bounding_Box_Struct"* %64, i32 0, i32 1, !dbg !2808
  %arrayidx93 = getelementptr inbounds [3 x float], [3 x float]* %Lengths92, i64 0, i64 1, !dbg !2807
  %65 = load float, float* %arrayidx93, align 4, !dbg !2807
  %conv94 = fpext float %65 to double, !dbg !2807
  %66 = load %"struct.pov::Rayinfo_Struct"*, %"struct.pov::Rayinfo_Struct"** %rayinfo.addr, align 8, !dbg !2809
  %slab_den95 = getelementptr inbounds %"struct.pov::Rayinfo_Struct", %"struct.pov::Rayinfo_Struct"* %66, i32 0, i32 1, !dbg !2810
  %arrayidx96 = getelementptr inbounds [3 x double], [3 x double]* %slab_den95, i64 0, i64 1, !dbg !2809
  %67 = load double, double* %arrayidx96, align 8, !dbg !2809
  %mul97 = fmul double %conv94, %67, !dbg !2811
  %add98 = fadd double %63, %mul97, !dbg !2812
  store double %add98, double* %tmin, align 8, !dbg !2813
  br label %if.end99

if.end99:                                         ; preds = %if.else82, %if.then65
  %68 = load double, double* %tmax, align 8, !dbg !2814
  %69 = load double, double* %dmax, align 8, !dbg !2816
  %cmp100 = fcmp olt double %68, %69, !dbg !2817
  br i1 %cmp100, label %if.then101, label %if.else115, !dbg !2818

if.then101:                                       ; preds = %if.end99
  %70 = load double, double* %tmax, align 8, !dbg !2819
  %cmp102 = fcmp olt double %70, 0x3E7AD7F29ABCAF48, !dbg !2822
  br i1 %cmp102, label %if.then103, label %if.end104, !dbg !2823

if.then103:                                       ; preds = %if.then101
  br label %return, !dbg !2824

if.end104:                                        ; preds = %if.then101
  %71 = load double, double* %tmin, align 8, !dbg !2825
  %72 = load double, double* %dmin, align 8, !dbg !2827
  %cmp105 = fcmp ogt double %71, %72, !dbg !2828
  br i1 %cmp105, label %if.then106, label %if.else110, !dbg !2829

if.then106:                                       ; preds = %if.end104
  %73 = load double, double* %tmin, align 8, !dbg !2830
  %74 = load double, double* %tmax, align 8, !dbg !2833
  %cmp107 = fcmp ogt double %73, %74, !dbg !2834
  br i1 %cmp107, label %if.then108, label %if.end109, !dbg !2835

if.then108:                                       ; preds = %if.then106
  br label %return, !dbg !2836

if.end109:                                        ; preds = %if.then106
  %75 = load double, double* %tmin, align 8, !dbg !2837
  store double %75, double* %dmin, align 8, !dbg !2838
  br label %if.end114, !dbg !2839

if.else110:                                       ; preds = %if.end104
  %76 = load double, double* %dmin, align 8, !dbg !2840
  %77 = load double, double* %tmax, align 8, !dbg !2843
  %cmp111 = fcmp ogt double %76, %77, !dbg !2844
  br i1 %cmp111, label %if.then112, label %if.end113, !dbg !2845

if.then112:                                       ; preds = %if.else110
  br label %return, !dbg !2846

if.end113:                                        ; preds = %if.else110
  br label %if.end114

if.end114:                                        ; preds = %if.end113, %if.end109
  %78 = load double, double* %tmax, align 8, !dbg !2847
  store double %78, double* %dmax, align 8, !dbg !2848
  br label %if.end122, !dbg !2849

if.else115:                                       ; preds = %if.end99
  %79 = load double, double* %tmin, align 8, !dbg !2850
  %80 = load double, double* %dmin, align 8, !dbg !2853
  %cmp116 = fcmp ogt double %79, %80, !dbg !2854
  br i1 %cmp116, label %if.then117, label %if.end121, !dbg !2855

if.then117:                                       ; preds = %if.else115
  %81 = load double, double* %tmin, align 8, !dbg !2856
  %82 = load double, double* %dmax, align 8, !dbg !2859
  %cmp118 = fcmp ogt double %81, %82, !dbg !2860
  br i1 %cmp118, label %if.then119, label %if.end120, !dbg !2861

if.then119:                                       ; preds = %if.then117
  br label %return, !dbg !2862

if.end120:                                        ; preds = %if.then117
  %83 = load double, double* %tmin, align 8, !dbg !2863
  store double %83, double* %dmin, align 8, !dbg !2864
  br label %if.end121, !dbg !2865

if.end121:                                        ; preds = %if.end120, %if.else115
  br label %if.end122

if.end122:                                        ; preds = %if.end121, %if.end114
  br label %if.end142, !dbg !2866

if.else123:                                       ; preds = %if.end57
  %84 = load %"struct.pov::Rayinfo_Struct"*, %"struct.pov::Rayinfo_Struct"** %rayinfo.addr, align 8, !dbg !2867
  %slab_num124 = getelementptr inbounds %"struct.pov::Rayinfo_Struct", %"struct.pov::Rayinfo_Struct"* %84, i32 0, i32 0, !dbg !2870
  %arrayidx125 = getelementptr inbounds [3 x double], [3 x double]* %slab_num124, i64 0, i64 1, !dbg !2867
  %85 = load double, double* %arrayidx125, align 8, !dbg !2867
  %86 = load %"struct.pov::Bounding_Box_Struct"*, %"struct.pov::Bounding_Box_Struct"** %BBox.addr, align 8, !dbg !2871
  %Lower_Left126 = getelementptr inbounds %"struct.pov::Bounding_Box_Struct", %"struct.pov::Bounding_Box_Struct"* %86, i32 0, i32 0, !dbg !2872
  %arrayidx127 = getelementptr inbounds [3 x float], [3 x float]* %Lower_Left126, i64 0, i64 1, !dbg !2871
  %87 = load float, float* %arrayidx127, align 4, !dbg !2871
  %conv128 = fpext float %87 to double, !dbg !2871
  %cmp129 = fcmp olt double %85, %conv128, !dbg !2873
  br i1 %cmp129, label %if.then140, label %lor.lhs.false130, !dbg !2874

lor.lhs.false130:                                 ; preds = %if.else123
  %88 = load %"struct.pov::Rayinfo_Struct"*, %"struct.pov::Rayinfo_Struct"** %rayinfo.addr, align 8, !dbg !2875
  %slab_num131 = getelementptr inbounds %"struct.pov::Rayinfo_Struct", %"struct.pov::Rayinfo_Struct"* %88, i32 0, i32 0, !dbg !2876
  %arrayidx132 = getelementptr inbounds [3 x double], [3 x double]* %slab_num131, i64 0, i64 1, !dbg !2875
  %89 = load double, double* %arrayidx132, align 8, !dbg !2875
  %90 = load %"struct.pov::Bounding_Box_Struct"*, %"struct.pov::Bounding_Box_Struct"** %BBox.addr, align 8, !dbg !2877
  %Lengths133 = getelementptr inbounds %"struct.pov::Bounding_Box_Struct", %"struct.pov::Bounding_Box_Struct"* %90, i32 0, i32 1, !dbg !2878
  %arrayidx134 = getelementptr inbounds [3 x float], [3 x float]* %Lengths133, i64 0, i64 1, !dbg !2877
  %91 = load float, float* %arrayidx134, align 4, !dbg !2877
  %92 = load %"struct.pov::Bounding_Box_Struct"*, %"struct.pov::Bounding_Box_Struct"** %BBox.addr, align 8, !dbg !2879
  %Lower_Left135 = getelementptr inbounds %"struct.pov::Bounding_Box_Struct", %"struct.pov::Bounding_Box_Struct"* %92, i32 0, i32 0, !dbg !2880
  %arrayidx136 = getelementptr inbounds [3 x float], [3 x float]* %Lower_Left135, i64 0, i64 1, !dbg !2879
  %93 = load float, float* %arrayidx136, align 4, !dbg !2879
  %add137 = fadd float %91, %93, !dbg !2881
  %conv138 = fpext float %add137 to double, !dbg !2877
  %cmp139 = fcmp ogt double %89, %conv138, !dbg !2882
  br i1 %cmp139, label %if.then140, label %if.end141, !dbg !2883

if.then140:                                       ; preds = %lor.lhs.false130, %if.else123
  br label %return, !dbg !2884

if.end141:                                        ; preds = %lor.lhs.false130
  br label %if.end142

if.end142:                                        ; preds = %if.end141, %if.end122
  %94 = load %"struct.pov::Rayinfo_Struct"*, %"struct.pov::Rayinfo_Struct"** %rayinfo.addr, align 8, !dbg !2886
  %nonzero143 = getelementptr inbounds %"struct.pov::Rayinfo_Struct", %"struct.pov::Rayinfo_Struct"* %94, i32 0, i32 2, !dbg !2888
  %arrayidx144 = getelementptr inbounds [3 x i32], [3 x i32]* %nonzero143, i64 0, i64 2, !dbg !2886
  %95 = load i32, i32* %arrayidx144, align 8, !dbg !2886
  %tobool145 = icmp ne i32 %95, 0, !dbg !2886
  br i1 %tobool145, label %if.then146, label %if.else208, !dbg !2889

if.then146:                                       ; preds = %if.end142
  %96 = load %"struct.pov::Rayinfo_Struct"*, %"struct.pov::Rayinfo_Struct"** %rayinfo.addr, align 8, !dbg !2890
  %positive147 = getelementptr inbounds %"struct.pov::Rayinfo_Struct", %"struct.pov::Rayinfo_Struct"* %96, i32 0, i32 3, !dbg !2893
  %arrayidx148 = getelementptr inbounds [3 x i32], [3 x i32]* %positive147, i64 0, i64 2, !dbg !2890
  %97 = load i32, i32* %arrayidx148, align 4, !dbg !2890
  %tobool149 = icmp ne i32 %97, 0, !dbg !2890
  br i1 %tobool149, label %if.then150, label %if.else167, !dbg !2894

if.then150:                                       ; preds = %if.then146
  %98 = load %"struct.pov::Bounding_Box_Struct"*, %"struct.pov::Bounding_Box_Struct"** %BBox.addr, align 8, !dbg !2895
  %Lower_Left151 = getelementptr inbounds %"struct.pov::Bounding_Box_Struct", %"struct.pov::Bounding_Box_Struct"* %98, i32 0, i32 0, !dbg !2897
  %arrayidx152 = getelementptr inbounds [3 x float], [3 x float]* %Lower_Left151, i64 0, i64 2, !dbg !2895
  %99 = load float, float* %arrayidx152, align 4, !dbg !2895
  %conv153 = fpext float %99 to double, !dbg !2895
  %100 = load %"struct.pov::Rayinfo_Struct"*, %"struct.pov::Rayinfo_Struct"** %rayinfo.addr, align 8, !dbg !2898
  %slab_num154 = getelementptr inbounds %"struct.pov::Rayinfo_Struct", %"struct.pov::Rayinfo_Struct"* %100, i32 0, i32 0, !dbg !2899
  %arrayidx155 = getelementptr inbounds [3 x double], [3 x double]* %slab_num154, i64 0, i64 2, !dbg !2898
  %101 = load double, double* %arrayidx155, align 8, !dbg !2898
  %sub156 = fsub double %conv153, %101, !dbg !2900
  %102 = load %"struct.pov::Rayinfo_Struct"*, %"struct.pov::Rayinfo_Struct"** %rayinfo.addr, align 8, !dbg !2901
  %slab_den157 = getelementptr inbounds %"struct.pov::Rayinfo_Struct", %"struct.pov::Rayinfo_Struct"* %102, i32 0, i32 1, !dbg !2902
  %arrayidx158 = getelementptr inbounds [3 x double], [3 x double]* %slab_den157, i64 0, i64 2, !dbg !2901
  %103 = load double, double* %arrayidx158, align 8, !dbg !2901
  %mul159 = fmul double %sub156, %103, !dbg !2903
  store double %mul159, double* %tmin, align 8, !dbg !2904
  %104 = load double, double* %tmin, align 8, !dbg !2905
  %105 = load %"struct.pov::Bounding_Box_Struct"*, %"struct.pov::Bounding_Box_Struct"** %BBox.addr, align 8, !dbg !2906
  %Lengths160 = getelementptr inbounds %"struct.pov::Bounding_Box_Struct", %"struct.pov::Bounding_Box_Struct"* %105, i32 0, i32 1, !dbg !2907
  %arrayidx161 = getelementptr inbounds [3 x float], [3 x float]* %Lengths160, i64 0, i64 2, !dbg !2906
  %106 = load float, float* %arrayidx161, align 4, !dbg !2906
  %conv162 = fpext float %106 to double, !dbg !2906
  %107 = load %"struct.pov::Rayinfo_Struct"*, %"struct.pov::Rayinfo_Struct"** %rayinfo.addr, align 8, !dbg !2908
  %slab_den163 = getelementptr inbounds %"struct.pov::Rayinfo_Struct", %"struct.pov::Rayinfo_Struct"* %107, i32 0, i32 1, !dbg !2909
  %arrayidx164 = getelementptr inbounds [3 x double], [3 x double]* %slab_den163, i64 0, i64 2, !dbg !2908
  %108 = load double, double* %arrayidx164, align 8, !dbg !2908
  %mul165 = fmul double %conv162, %108, !dbg !2910
  %add166 = fadd double %104, %mul165, !dbg !2911
  store double %add166, double* %tmax, align 8, !dbg !2912
  br label %if.end184, !dbg !2913

if.else167:                                       ; preds = %if.then146
  %109 = load %"struct.pov::Bounding_Box_Struct"*, %"struct.pov::Bounding_Box_Struct"** %BBox.addr, align 8, !dbg !2914
  %Lower_Left168 = getelementptr inbounds %"struct.pov::Bounding_Box_Struct", %"struct.pov::Bounding_Box_Struct"* %109, i32 0, i32 0, !dbg !2916
  %arrayidx169 = getelementptr inbounds [3 x float], [3 x float]* %Lower_Left168, i64 0, i64 2, !dbg !2914
  %110 = load float, float* %arrayidx169, align 4, !dbg !2914
  %conv170 = fpext float %110 to double, !dbg !2914
  %111 = load %"struct.pov::Rayinfo_Struct"*, %"struct.pov::Rayinfo_Struct"** %rayinfo.addr, align 8, !dbg !2917
  %slab_num171 = getelementptr inbounds %"struct.pov::Rayinfo_Struct", %"struct.pov::Rayinfo_Struct"* %111, i32 0, i32 0, !dbg !2918
  %arrayidx172 = getelementptr inbounds [3 x double], [3 x double]* %slab_num171, i64 0, i64 2, !dbg !2917
  %112 = load double, double* %arrayidx172, align 8, !dbg !2917
  %sub173 = fsub double %conv170, %112, !dbg !2919
  %113 = load %"struct.pov::Rayinfo_Struct"*, %"struct.pov::Rayinfo_Struct"** %rayinfo.addr, align 8, !dbg !2920
  %slab_den174 = getelementptr inbounds %"struct.pov::Rayinfo_Struct", %"struct.pov::Rayinfo_Struct"* %113, i32 0, i32 1, !dbg !2921
  %arrayidx175 = getelementptr inbounds [3 x double], [3 x double]* %slab_den174, i64 0, i64 2, !dbg !2920
  %114 = load double, double* %arrayidx175, align 8, !dbg !2920
  %mul176 = fmul double %sub173, %114, !dbg !2922
  store double %mul176, double* %tmax, align 8, !dbg !2923
  %115 = load double, double* %tmax, align 8, !dbg !2924
  %116 = load %"struct.pov::Bounding_Box_Struct"*, %"struct.pov::Bounding_Box_Struct"** %BBox.addr, align 8, !dbg !2925
  %Lengths177 = getelementptr inbounds %"struct.pov::Bounding_Box_Struct", %"struct.pov::Bounding_Box_Struct"* %116, i32 0, i32 1, !dbg !2926
  %arrayidx178 = getelementptr inbounds [3 x float], [3 x float]* %Lengths177, i64 0, i64 2, !dbg !2925
  %117 = load float, float* %arrayidx178, align 4, !dbg !2925
  %conv179 = fpext float %117 to double, !dbg !2925
  %118 = load %"struct.pov::Rayinfo_Struct"*, %"struct.pov::Rayinfo_Struct"** %rayinfo.addr, align 8, !dbg !2927
  %slab_den180 = getelementptr inbounds %"struct.pov::Rayinfo_Struct", %"struct.pov::Rayinfo_Struct"* %118, i32 0, i32 1, !dbg !2928
  %arrayidx181 = getelementptr inbounds [3 x double], [3 x double]* %slab_den180, i64 0, i64 2, !dbg !2927
  %119 = load double, double* %arrayidx181, align 8, !dbg !2927
  %mul182 = fmul double %conv179, %119, !dbg !2929
  %add183 = fadd double %115, %mul182, !dbg !2930
  store double %add183, double* %tmin, align 8, !dbg !2931
  br label %if.end184

if.end184:                                        ; preds = %if.else167, %if.then150
  %120 = load double, double* %tmax, align 8, !dbg !2932
  %121 = load double, double* %dmax, align 8, !dbg !2934
  %cmp185 = fcmp olt double %120, %121, !dbg !2935
  br i1 %cmp185, label %if.then186, label %if.else200, !dbg !2936

if.then186:                                       ; preds = %if.end184
  %122 = load double, double* %tmax, align 8, !dbg !2937
  %cmp187 = fcmp olt double %122, 0x3E7AD7F29ABCAF48, !dbg !2940
  br i1 %cmp187, label %if.then188, label %if.end189, !dbg !2941

if.then188:                                       ; preds = %if.then186
  br label %return, !dbg !2942

if.end189:                                        ; preds = %if.then186
  %123 = load double, double* %tmin, align 8, !dbg !2943
  %124 = load double, double* %dmin, align 8, !dbg !2945
  %cmp190 = fcmp ogt double %123, %124, !dbg !2946
  br i1 %cmp190, label %if.then191, label %if.else195, !dbg !2947

if.then191:                                       ; preds = %if.end189
  %125 = load double, double* %tmin, align 8, !dbg !2948
  %126 = load double, double* %tmax, align 8, !dbg !2951
  %cmp192 = fcmp ogt double %125, %126, !dbg !2952
  br i1 %cmp192, label %if.then193, label %if.end194, !dbg !2953

if.then193:                                       ; preds = %if.then191
  br label %return, !dbg !2954

if.end194:                                        ; preds = %if.then191
  %127 = load double, double* %tmin, align 8, !dbg !2955
  store double %127, double* %dmin, align 8, !dbg !2956
  br label %if.end199, !dbg !2957

if.else195:                                       ; preds = %if.end189
  %128 = load double, double* %dmin, align 8, !dbg !2958
  %129 = load double, double* %tmax, align 8, !dbg !2961
  %cmp196 = fcmp ogt double %128, %129, !dbg !2962
  br i1 %cmp196, label %if.then197, label %if.end198, !dbg !2963

if.then197:                                       ; preds = %if.else195
  br label %return, !dbg !2964

if.end198:                                        ; preds = %if.else195
  br label %if.end199

if.end199:                                        ; preds = %if.end198, %if.end194
  br label %if.end207, !dbg !2965

if.else200:                                       ; preds = %if.end184
  %130 = load double, double* %tmin, align 8, !dbg !2966
  %131 = load double, double* %dmin, align 8, !dbg !2969
  %cmp201 = fcmp ogt double %130, %131, !dbg !2970
  br i1 %cmp201, label %if.then202, label %if.end206, !dbg !2971

if.then202:                                       ; preds = %if.else200
  %132 = load double, double* %tmin, align 8, !dbg !2972
  %133 = load double, double* %dmax, align 8, !dbg !2975
  %cmp203 = fcmp ogt double %132, %133, !dbg !2976
  br i1 %cmp203, label %if.then204, label %if.end205, !dbg !2977

if.then204:                                       ; preds = %if.then202
  br label %return, !dbg !2978

if.end205:                                        ; preds = %if.then202
  %134 = load double, double* %tmin, align 8, !dbg !2979
  store double %134, double* %dmin, align 8, !dbg !2980
  br label %if.end206, !dbg !2981

if.end206:                                        ; preds = %if.end205, %if.else200
  br label %if.end207

if.end207:                                        ; preds = %if.end206, %if.end199
  br label %if.end227, !dbg !2982

if.else208:                                       ; preds = %if.end142
  %135 = load %"struct.pov::Rayinfo_Struct"*, %"struct.pov::Rayinfo_Struct"** %rayinfo.addr, align 8, !dbg !2983
  %slab_num209 = getelementptr inbounds %"struct.pov::Rayinfo_Struct", %"struct.pov::Rayinfo_Struct"* %135, i32 0, i32 0, !dbg !2986
  %arrayidx210 = getelementptr inbounds [3 x double], [3 x double]* %slab_num209, i64 0, i64 2, !dbg !2983
  %136 = load double, double* %arrayidx210, align 8, !dbg !2983
  %137 = load %"struct.pov::Bounding_Box_Struct"*, %"struct.pov::Bounding_Box_Struct"** %BBox.addr, align 8, !dbg !2987
  %Lower_Left211 = getelementptr inbounds %"struct.pov::Bounding_Box_Struct", %"struct.pov::Bounding_Box_Struct"* %137, i32 0, i32 0, !dbg !2988
  %arrayidx212 = getelementptr inbounds [3 x float], [3 x float]* %Lower_Left211, i64 0, i64 2, !dbg !2987
  %138 = load float, float* %arrayidx212, align 4, !dbg !2987
  %conv213 = fpext float %138 to double, !dbg !2987
  %cmp214 = fcmp olt double %136, %conv213, !dbg !2989
  br i1 %cmp214, label %if.then225, label %lor.lhs.false215, !dbg !2990

lor.lhs.false215:                                 ; preds = %if.else208
  %139 = load %"struct.pov::Rayinfo_Struct"*, %"struct.pov::Rayinfo_Struct"** %rayinfo.addr, align 8, !dbg !2991
  %slab_num216 = getelementptr inbounds %"struct.pov::Rayinfo_Struct", %"struct.pov::Rayinfo_Struct"* %139, i32 0, i32 0, !dbg !2992
  %arrayidx217 = getelementptr inbounds [3 x double], [3 x double]* %slab_num216, i64 0, i64 2, !dbg !2991
  %140 = load double, double* %arrayidx217, align 8, !dbg !2991
  %141 = load %"struct.pov::Bounding_Box_Struct"*, %"struct.pov::Bounding_Box_Struct"** %BBox.addr, align 8, !dbg !2993
  %Lengths218 = getelementptr inbounds %"struct.pov::Bounding_Box_Struct", %"struct.pov::Bounding_Box_Struct"* %141, i32 0, i32 1, !dbg !2994
  %arrayidx219 = getelementptr inbounds [3 x float], [3 x float]* %Lengths218, i64 0, i64 2, !dbg !2993
  %142 = load float, float* %arrayidx219, align 4, !dbg !2993
  %143 = load %"struct.pov::Bounding_Box_Struct"*, %"struct.pov::Bounding_Box_Struct"** %BBox.addr, align 8, !dbg !2995
  %Lower_Left220 = getelementptr inbounds %"struct.pov::Bounding_Box_Struct", %"struct.pov::Bounding_Box_Struct"* %143, i32 0, i32 0, !dbg !2996
  %arrayidx221 = getelementptr inbounds [3 x float], [3 x float]* %Lower_Left220, i64 0, i64 2, !dbg !2995
  %144 = load float, float* %arrayidx221, align 4, !dbg !2995
  %add222 = fadd float %142, %144, !dbg !2997
  %conv223 = fpext float %add222 to double, !dbg !2993
  %cmp224 = fcmp ogt double %140, %conv223, !dbg !2998
  br i1 %cmp224, label %if.then225, label %if.end226, !dbg !2999

if.then225:                                       ; preds = %lor.lhs.false215, %if.else208
  br label %return, !dbg !3000

if.end226:                                        ; preds = %lor.lhs.false215
  br label %if.end227

if.end227:                                        ; preds = %if.end226, %if.end207
  call void @_ZN3pov16Increase_CounterERx(i64* dereferenceable(8) getelementptr inbounds ([123 x i64], [123 x i64]* @_ZN3pov5statsE, i64 0, i64 109)), !dbg !3002
  br label %if.end228

if.end228:                                        ; preds = %if.end227, %if.then
  %145 = load %"struct.pov::Priority_Queue_Struct"*, %"struct.pov::Priority_Queue_Struct"** %Queue.addr, align 8, !dbg !3003
  %146 = load double, double* %dmin, align 8, !dbg !3004
  %147 = load %"struct.pov::BBox_Tree_Struct"*, %"struct.pov::BBox_Tree_Struct"** %Node.addr, align 8, !dbg !3005
  call void @_ZN3povL21priority_queue_insertEPNS_21Priority_Queue_StructEdPNS_16BBox_Tree_StructE(%"struct.pov::Priority_Queue_Struct"* %145, double %146, %"struct.pov::BBox_Tree_Struct"* %147), !dbg !3006
  br label %return, !dbg !3007

return:                                           ; preds = %if.end228, %if.then225, %if.then204, %if.then197, %if.then193, %if.then188, %if.then140, %if.then119, %if.then112, %if.then108, %if.then103, %if.then55, %if.then37, %if.then26, %if.then14
  ret void, !dbg !3007
}

; Function Attrs: noinline uwtable
define dso_local void @_ZN3pov21Priority_Queue_DeleteEPNS_21Priority_Queue_StructEPdPPNS_16BBox_Tree_StructE(%"struct.pov::Priority_Queue_Struct"* %Queue, double* %Depth, %"struct.pov::BBox_Tree_Struct"** %Node) #0 !dbg !3008 {
entry:
  %Queue.addr = alloca %"struct.pov::Priority_Queue_Struct"*, align 8
  %Depth.addr = alloca double*, align 8
  %Node.addr = alloca %"struct.pov::BBox_Tree_Struct"**, align 8
  %tmp = alloca %"struct.pov::Qelem_Struct", align 8
  %List = alloca %"struct.pov::Qelem_Struct"*, align 8
  %i = alloca i32, align 4
  %j = alloca i32, align 4
  %size = alloca i32, align 4
  store %"struct.pov::Priority_Queue_Struct"* %Queue, %"struct.pov::Priority_Queue_Struct"** %Queue.addr, align 8
  call void @llvm.dbg.declare(metadata %"struct.pov::Priority_Queue_Struct"** %Queue.addr, metadata !3011, metadata !DIExpression()), !dbg !3012
  store double* %Depth, double** %Depth.addr, align 8
  call void @llvm.dbg.declare(metadata double** %Depth.addr, metadata !3013, metadata !DIExpression()), !dbg !3014
  store %"struct.pov::BBox_Tree_Struct"** %Node, %"struct.pov::BBox_Tree_Struct"*** %Node.addr, align 8
  call void @llvm.dbg.declare(metadata %"struct.pov::BBox_Tree_Struct"*** %Node.addr, metadata !3015, metadata !DIExpression()), !dbg !3016
  call void @llvm.dbg.declare(metadata %"struct.pov::Qelem_Struct"* %tmp, metadata !3017, metadata !DIExpression()), !dbg !3018
  call void @llvm.dbg.declare(metadata %"struct.pov::Qelem_Struct"** %List, metadata !3019, metadata !DIExpression()), !dbg !3020
  call void @llvm.dbg.declare(metadata i32* %i, metadata !3021, metadata !DIExpression()), !dbg !3022
  call void @llvm.dbg.declare(metadata i32* %j, metadata !3023, metadata !DIExpression()), !dbg !3024
  call void @llvm.dbg.declare(metadata i32* %size, metadata !3025, metadata !DIExpression()), !dbg !3026
  %0 = load %"struct.pov::Priority_Queue_Struct"*, %"struct.pov::Priority_Queue_Struct"** %Queue.addr, align 8, !dbg !3027
  %QSize = getelementptr inbounds %"struct.pov::Priority_Queue_Struct", %"struct.pov::Priority_Queue_Struct"* %0, i32 0, i32 0, !dbg !3029
  %1 = load i32, i32* %QSize, align 8, !dbg !3029
  %cmp = icmp eq i32 %1, 0, !dbg !3030
  br i1 %cmp, label %if.then, label %if.end, !dbg !3031

if.then:                                          ; preds = %entry
  %call = call i32 (i8*, ...) @_ZN3pov5ErrorEPKcz(i8* getelementptr inbounds ([25 x i8], [25 x i8]* @.str.4, i64 0, i64 0)), !dbg !3032
  br label %if.end, !dbg !3034

if.end:                                           ; preds = %if.then, %entry
  %2 = load %"struct.pov::Priority_Queue_Struct"*, %"struct.pov::Priority_Queue_Struct"** %Queue.addr, align 8, !dbg !3035
  %Queue1 = getelementptr inbounds %"struct.pov::Priority_Queue_Struct", %"struct.pov::Priority_Queue_Struct"* %2, i32 0, i32 2, !dbg !3036
  %3 = load %"struct.pov::Qelem_Struct"*, %"struct.pov::Qelem_Struct"** %Queue1, align 8, !dbg !3036
  store %"struct.pov::Qelem_Struct"* %3, %"struct.pov::Qelem_Struct"** %List, align 8, !dbg !3037
  %4 = load %"struct.pov::Qelem_Struct"*, %"struct.pov::Qelem_Struct"** %List, align 8, !dbg !3038
  %arrayidx = getelementptr inbounds %"struct.pov::Qelem_Struct", %"struct.pov::Qelem_Struct"* %4, i64 1, !dbg !3038
  %Depth2 = getelementptr inbounds %"struct.pov::Qelem_Struct", %"struct.pov::Qelem_Struct"* %arrayidx, i32 0, i32 0, !dbg !3039
  %5 = load double, double* %Depth2, align 8, !dbg !3039
  %6 = load double*, double** %Depth.addr, align 8, !dbg !3040
  store double %5, double* %6, align 8, !dbg !3041
  %7 = load %"struct.pov::Qelem_Struct"*, %"struct.pov::Qelem_Struct"** %List, align 8, !dbg !3042
  %arrayidx3 = getelementptr inbounds %"struct.pov::Qelem_Struct", %"struct.pov::Qelem_Struct"* %7, i64 1, !dbg !3042
  %Node4 = getelementptr inbounds %"struct.pov::Qelem_Struct", %"struct.pov::Qelem_Struct"* %arrayidx3, i32 0, i32 1, !dbg !3043
  %8 = load %"struct.pov::BBox_Tree_Struct"*, %"struct.pov::BBox_Tree_Struct"** %Node4, align 8, !dbg !3043
  %9 = load %"struct.pov::BBox_Tree_Struct"**, %"struct.pov::BBox_Tree_Struct"*** %Node.addr, align 8, !dbg !3044
  store %"struct.pov::BBox_Tree_Struct"* %8, %"struct.pov::BBox_Tree_Struct"** %9, align 8, !dbg !3045
  %10 = load %"struct.pov::Qelem_Struct"*, %"struct.pov::Qelem_Struct"** %List, align 8, !dbg !3046
  %11 = load %"struct.pov::Priority_Queue_Struct"*, %"struct.pov::Priority_Queue_Struct"** %Queue.addr, align 8, !dbg !3047
  %QSize5 = getelementptr inbounds %"struct.pov::Priority_Queue_Struct", %"struct.pov::Priority_Queue_Struct"* %11, i32 0, i32 0, !dbg !3048
  %12 = load i32, i32* %QSize5, align 8, !dbg !3048
  %idxprom = zext i32 %12 to i64, !dbg !3046
  %arrayidx6 = getelementptr inbounds %"struct.pov::Qelem_Struct", %"struct.pov::Qelem_Struct"* %10, i64 %idxprom, !dbg !3046
  %13 = load %"struct.pov::Qelem_Struct"*, %"struct.pov::Qelem_Struct"** %List, align 8, !dbg !3049
  %arrayidx7 = getelementptr inbounds %"struct.pov::Qelem_Struct", %"struct.pov::Qelem_Struct"* %13, i64 1, !dbg !3049
  %14 = bitcast %"struct.pov::Qelem_Struct"* %arrayidx7 to i8*, !dbg !3050
  %15 = bitcast %"struct.pov::Qelem_Struct"* %arrayidx6 to i8*, !dbg !3050
  call void @llvm.memcpy.p0i8.p0i8.i64(i8* align 8 %14, i8* align 8 %15, i64 16, i1 false), !dbg !3050
  %16 = load %"struct.pov::Priority_Queue_Struct"*, %"struct.pov::Priority_Queue_Struct"** %Queue.addr, align 8, !dbg !3051
  %QSize8 = getelementptr inbounds %"struct.pov::Priority_Queue_Struct", %"struct.pov::Priority_Queue_Struct"* %16, i32 0, i32 0, !dbg !3052
  %17 = load i32, i32* %QSize8, align 8, !dbg !3053
  %dec = add i32 %17, -1, !dbg !3053
  store i32 %dec, i32* %QSize8, align 8, !dbg !3053
  %18 = load %"struct.pov::Priority_Queue_Struct"*, %"struct.pov::Priority_Queue_Struct"** %Queue.addr, align 8, !dbg !3054
  %QSize9 = getelementptr inbounds %"struct.pov::Priority_Queue_Struct", %"struct.pov::Priority_Queue_Struct"* %18, i32 0, i32 0, !dbg !3055
  %19 = load i32, i32* %QSize9, align 8, !dbg !3055
  store i32 %19, i32* %size, align 4, !dbg !3056
  store i32 1, i32* %i, align 4, !dbg !3057
  br label %while.cond, !dbg !3058

while.cond:                                       ; preds = %if.end48, %if.end
  %20 = load i32, i32* %i, align 4, !dbg !3059
  %mul = mul nsw i32 2, %20, !dbg !3060
  %21 = load i32, i32* %size, align 4, !dbg !3061
  %cmp10 = icmp sle i32 %mul, %21, !dbg !3062
  br i1 %cmp10, label %while.body, label %while.end, !dbg !3058

while.body:                                       ; preds = %while.cond
  %22 = load i32, i32* %i, align 4, !dbg !3063
  %mul11 = mul nsw i32 2, %22, !dbg !3066
  %23 = load i32, i32* %size, align 4, !dbg !3067
  %cmp12 = icmp eq i32 %mul11, %23, !dbg !3068
  br i1 %cmp12, label %if.then13, label %if.else, !dbg !3069

if.then13:                                        ; preds = %while.body
  %24 = load i32, i32* %i, align 4, !dbg !3070
  %mul14 = mul nsw i32 2, %24, !dbg !3072
  store i32 %mul14, i32* %j, align 4, !dbg !3073
  br label %if.end30, !dbg !3074

if.else:                                          ; preds = %while.body
  %25 = load %"struct.pov::Qelem_Struct"*, %"struct.pov::Qelem_Struct"** %List, align 8, !dbg !3075
  %26 = load i32, i32* %i, align 4, !dbg !3078
  %mul15 = mul nsw i32 2, %26, !dbg !3079
  %idxprom16 = sext i32 %mul15 to i64, !dbg !3075
  %arrayidx17 = getelementptr inbounds %"struct.pov::Qelem_Struct", %"struct.pov::Qelem_Struct"* %25, i64 %idxprom16, !dbg !3075
  %Depth18 = getelementptr inbounds %"struct.pov::Qelem_Struct", %"struct.pov::Qelem_Struct"* %arrayidx17, i32 0, i32 0, !dbg !3080
  %27 = load double, double* %Depth18, align 8, !dbg !3080
  %28 = load %"struct.pov::Qelem_Struct"*, %"struct.pov::Qelem_Struct"** %List, align 8, !dbg !3081
  %29 = load i32, i32* %i, align 4, !dbg !3082
  %mul19 = mul nsw i32 2, %29, !dbg !3083
  %add = add nsw i32 %mul19, 1, !dbg !3084
  %idxprom20 = sext i32 %add to i64, !dbg !3081
  %arrayidx21 = getelementptr inbounds %"struct.pov::Qelem_Struct", %"struct.pov::Qelem_Struct"* %28, i64 %idxprom20, !dbg !3081
  %Depth22 = getelementptr inbounds %"struct.pov::Qelem_Struct", %"struct.pov::Qelem_Struct"* %arrayidx21, i32 0, i32 0, !dbg !3085
  %30 = load double, double* %Depth22, align 8, !dbg !3085
  %cmp23 = fcmp olt double %27, %30, !dbg !3086
  br i1 %cmp23, label %if.then24, label %if.else26, !dbg !3087

if.then24:                                        ; preds = %if.else
  %31 = load i32, i32* %i, align 4, !dbg !3088
  %mul25 = mul nsw i32 2, %31, !dbg !3090
  store i32 %mul25, i32* %j, align 4, !dbg !3091
  br label %if.end29, !dbg !3092

if.else26:                                        ; preds = %if.else
  %32 = load i32, i32* %i, align 4, !dbg !3093
  %mul27 = mul nsw i32 2, %32, !dbg !3095
  %add28 = add nsw i32 %mul27, 1, !dbg !3096
  store i32 %add28, i32* %j, align 4, !dbg !3097
  br label %if.end29

if.end29:                                         ; preds = %if.else26, %if.then24
  br label %if.end30

if.end30:                                         ; preds = %if.end29, %if.then13
  %33 = load %"struct.pov::Qelem_Struct"*, %"struct.pov::Qelem_Struct"** %List, align 8, !dbg !3098
  %34 = load i32, i32* %i, align 4, !dbg !3100
  %idxprom31 = sext i32 %34 to i64, !dbg !3098
  %arrayidx32 = getelementptr inbounds %"struct.pov::Qelem_Struct", %"struct.pov::Qelem_Struct"* %33, i64 %idxprom31, !dbg !3098
  %Depth33 = getelementptr inbounds %"struct.pov::Qelem_Struct", %"struct.pov::Qelem_Struct"* %arrayidx32, i32 0, i32 0, !dbg !3101
  %35 = load double, double* %Depth33, align 8, !dbg !3101
  %36 = load %"struct.pov::Qelem_Struct"*, %"struct.pov::Qelem_Struct"** %List, align 8, !dbg !3102
  %37 = load i32, i32* %j, align 4, !dbg !3103
  %idxprom34 = sext i32 %37 to i64, !dbg !3102
  %arrayidx35 = getelementptr inbounds %"struct.pov::Qelem_Struct", %"struct.pov::Qelem_Struct"* %36, i64 %idxprom34, !dbg !3102
  %Depth36 = getelementptr inbounds %"struct.pov::Qelem_Struct", %"struct.pov::Qelem_Struct"* %arrayidx35, i32 0, i32 0, !dbg !3104
  %38 = load double, double* %Depth36, align 8, !dbg !3104
  %cmp37 = fcmp ogt double %35, %38, !dbg !3105
  br i1 %cmp37, label %if.then38, label %if.else47, !dbg !3106

if.then38:                                        ; preds = %if.end30
  %39 = load %"struct.pov::Qelem_Struct"*, %"struct.pov::Qelem_Struct"** %List, align 8, !dbg !3107
  %40 = load i32, i32* %i, align 4, !dbg !3109
  %idxprom39 = sext i32 %40 to i64, !dbg !3107
  %arrayidx40 = getelementptr inbounds %"struct.pov::Qelem_Struct", %"struct.pov::Qelem_Struct"* %39, i64 %idxprom39, !dbg !3107
  %41 = bitcast %"struct.pov::Qelem_Struct"* %tmp to i8*, !dbg !3110
  %42 = bitcast %"struct.pov::Qelem_Struct"* %arrayidx40 to i8*, !dbg !3110
  call void @llvm.memcpy.p0i8.p0i8.i64(i8* align 8 %41, i8* align 8 %42, i64 16, i1 false), !dbg !3110
  %43 = load %"struct.pov::Qelem_Struct"*, %"struct.pov::Qelem_Struct"** %List, align 8, !dbg !3111
  %44 = load i32, i32* %j, align 4, !dbg !3112
  %idxprom41 = sext i32 %44 to i64, !dbg !3111
  %arrayidx42 = getelementptr inbounds %"struct.pov::Qelem_Struct", %"struct.pov::Qelem_Struct"* %43, i64 %idxprom41, !dbg !3111
  %45 = load %"struct.pov::Qelem_Struct"*, %"struct.pov::Qelem_Struct"** %List, align 8, !dbg !3113
  %46 = load i32, i32* %i, align 4, !dbg !3114
  %idxprom43 = sext i32 %46 to i64, !dbg !3113
  %arrayidx44 = getelementptr inbounds %"struct.pov::Qelem_Struct", %"struct.pov::Qelem_Struct"* %45, i64 %idxprom43, !dbg !3113
  %47 = bitcast %"struct.pov::Qelem_Struct"* %arrayidx44 to i8*, !dbg !3115
  %48 = bitcast %"struct.pov::Qelem_Struct"* %arrayidx42 to i8*, !dbg !3115
  call void @llvm.memcpy.p0i8.p0i8.i64(i8* align 8 %47, i8* align 8 %48, i64 16, i1 false), !dbg !3115
  %49 = load %"struct.pov::Qelem_Struct"*, %"struct.pov::Qelem_Struct"** %List, align 8, !dbg !3116
  %50 = load i32, i32* %j, align 4, !dbg !3117
  %idxprom45 = sext i32 %50 to i64, !dbg !3116
  %arrayidx46 = getelementptr inbounds %"struct.pov::Qelem_Struct", %"struct.pov::Qelem_Struct"* %49, i64 %idxprom45, !dbg !3116
  %51 = bitcast %"struct.pov::Qelem_Struct"* %arrayidx46 to i8*, !dbg !3118
  %52 = bitcast %"struct.pov::Qelem_Struct"* %tmp to i8*, !dbg !3118
  call void @llvm.memcpy.p0i8.p0i8.i64(i8* align 8 %51, i8* align 8 %52, i64 16, i1 false), !dbg !3118
  %53 = load i32, i32* %j, align 4, !dbg !3119
  store i32 %53, i32* %i, align 4, !dbg !3120
  br label %if.end48, !dbg !3121

if.else47:                                        ; preds = %if.end30
  br label %while.end, !dbg !3122

if.end48:                                         ; preds = %if.then38
  br label %while.cond, !dbg !3058, !llvm.loop !3124

while.end:                                        ; preds = %if.else47, %while.cond
  ret void, !dbg !3126
}

declare dso_local zeroext i1 @_ZN3pov12IntersectionEPNS_10istk_entryEPNS_13Object_StructEPNS_10Ray_StructE(%"struct.pov::istk_entry"*, %"struct.pov::Object_Struct"*, %"struct.pov::Ray_Struct"*) #2

declare dso_local i32 @_ZN3pov5ErrorEPKcz(i8*, ...) #2

; Function Attrs: noinline uwtable
define internal void @_ZN3povL21priority_queue_insertEPNS_21Priority_Queue_StructEdPNS_16BBox_Tree_StructE(%"struct.pov::Priority_Queue_Struct"* %Queue, double %Depth, %"struct.pov::BBox_Tree_Struct"* %Node) #0 !dbg !3127 {
entry:
  %Queue.addr = alloca %"struct.pov::Priority_Queue_Struct"*, align 8
  %Depth.addr = alloca double, align 8
  %Node.addr = alloca %"struct.pov::BBox_Tree_Struct"*, align 8
  %size = alloca i32, align 4
  %i = alloca i32, align 4
  %tmp = alloca %"struct.pov::Qelem_Struct", align 8
  %List = alloca %"struct.pov::Qelem_Struct"*, align 8
  store %"struct.pov::Priority_Queue_Struct"* %Queue, %"struct.pov::Priority_Queue_Struct"** %Queue.addr, align 8
  call void @llvm.dbg.declare(metadata %"struct.pov::Priority_Queue_Struct"** %Queue.addr, metadata !3130, metadata !DIExpression()), !dbg !3131
  store double %Depth, double* %Depth.addr, align 8
  call void @llvm.dbg.declare(metadata double* %Depth.addr, metadata !3132, metadata !DIExpression()), !dbg !3133
  store %"struct.pov::BBox_Tree_Struct"* %Node, %"struct.pov::BBox_Tree_Struct"** %Node.addr, align 8
  call void @llvm.dbg.declare(metadata %"struct.pov::BBox_Tree_Struct"** %Node.addr, metadata !3134, metadata !DIExpression()), !dbg !3135
  call void @llvm.dbg.declare(metadata i32* %size, metadata !3136, metadata !DIExpression()), !dbg !3137
  call void @llvm.dbg.declare(metadata i32* %i, metadata !3138, metadata !DIExpression()), !dbg !3139
  call void @llvm.dbg.declare(metadata %"struct.pov::Qelem_Struct"* %tmp, metadata !3140, metadata !DIExpression()), !dbg !3141
  call void @llvm.dbg.declare(metadata %"struct.pov::Qelem_Struct"** %List, metadata !3142, metadata !DIExpression()), !dbg !3143
  call void @_ZN3pov16Increase_CounterERx(i64* dereferenceable(8) getelementptr inbounds ([123 x i64], [123 x i64]* @_ZN3pov5statsE, i64 0, i64 110)), !dbg !3144
  %0 = load %"struct.pov::Priority_Queue_Struct"*, %"struct.pov::Priority_Queue_Struct"** %Queue.addr, align 8, !dbg !3145
  %QSize = getelementptr inbounds %"struct.pov::Priority_Queue_Struct", %"struct.pov::Priority_Queue_Struct"* %0, i32 0, i32 0, !dbg !3146
  %1 = load i32, i32* %QSize, align 8, !dbg !3147
  %inc = add i32 %1, 1, !dbg !3147
  store i32 %inc, i32* %QSize, align 8, !dbg !3147
  %2 = load %"struct.pov::Priority_Queue_Struct"*, %"struct.pov::Priority_Queue_Struct"** %Queue.addr, align 8, !dbg !3148
  %QSize1 = getelementptr inbounds %"struct.pov::Priority_Queue_Struct", %"struct.pov::Priority_Queue_Struct"* %2, i32 0, i32 0, !dbg !3149
  %3 = load i32, i32* %QSize1, align 8, !dbg !3149
  store i32 %3, i32* %size, align 4, !dbg !3150
  %4 = load i32, i32* %size, align 4, !dbg !3151
  %5 = load %"struct.pov::Priority_Queue_Struct"*, %"struct.pov::Priority_Queue_Struct"** %Queue.addr, align 8, !dbg !3153
  %Max_QSize = getelementptr inbounds %"struct.pov::Priority_Queue_Struct", %"struct.pov::Priority_Queue_Struct"* %5, i32 0, i32 1, !dbg !3154
  %6 = load i32, i32* %Max_QSize, align 4, !dbg !3154
  %cmp = icmp uge i32 %4, %6, !dbg !3155
  br i1 %cmp, label %if.then, label %if.end10, !dbg !3156

if.then:                                          ; preds = %entry
  %7 = load i32, i32* %size, align 4, !dbg !3157
  %cmp2 = icmp uge i32 %7, 1073741823, !dbg !3160
  br i1 %cmp2, label %if.then3, label %if.end, !dbg !3161

if.then3:                                         ; preds = %if.then
  %call = call i32 (i8*, ...) @_ZN3pov5ErrorEPKcz(i8* getelementptr inbounds ([25 x i8], [25 x i8]* @.str.5, i64 0, i64 0)), !dbg !3162
  br label %if.end, !dbg !3164

if.end:                                           ; preds = %if.then3, %if.then
  call void @_ZN3pov16Increase_CounterERx(i64* dereferenceable(8) getelementptr inbounds ([123 x i64], [123 x i64]* @_ZN3pov5statsE, i64 0, i64 112)), !dbg !3165
  %8 = load %"struct.pov::Priority_Queue_Struct"*, %"struct.pov::Priority_Queue_Struct"** %Queue.addr, align 8, !dbg !3166
  %Max_QSize4 = getelementptr inbounds %"struct.pov::Priority_Queue_Struct", %"struct.pov::Priority_Queue_Struct"* %8, i32 0, i32 1, !dbg !3167
  %9 = load i32, i32* %Max_QSize4, align 4, !dbg !3168
  %mul = mul i32 %9, 2, !dbg !3168
  store i32 %mul, i32* %Max_QSize4, align 4, !dbg !3168
  %10 = load %"struct.pov::Priority_Queue_Struct"*, %"struct.pov::Priority_Queue_Struct"** %Queue.addr, align 8, !dbg !3169
  %Queue5 = getelementptr inbounds %"struct.pov::Priority_Queue_Struct", %"struct.pov::Priority_Queue_Struct"* %10, i32 0, i32 2, !dbg !3169
  %11 = load %"struct.pov::Qelem_Struct"*, %"struct.pov::Qelem_Struct"** %Queue5, align 8, !dbg !3169
  %12 = bitcast %"struct.pov::Qelem_Struct"* %11 to i8*, !dbg !3169
  %13 = load %"struct.pov::Priority_Queue_Struct"*, %"struct.pov::Priority_Queue_Struct"** %Queue.addr, align 8, !dbg !3169
  %Max_QSize6 = getelementptr inbounds %"struct.pov::Priority_Queue_Struct", %"struct.pov::Priority_Queue_Struct"* %13, i32 0, i32 1, !dbg !3169
  %14 = load i32, i32* %Max_QSize6, align 4, !dbg !3169
  %conv = zext i32 %14 to i64, !dbg !3169
  %mul7 = mul i64 %conv, 16, !dbg !3169
  %call8 = call i8* @_ZN3pov11pov_reallocEPvmPKciS2_(i8* %12, i64 %mul7, i8* getelementptr inbounds ([9 x i8], [9 x i8]* @.str, i64 0, i64 0), i32 1004, i8* getelementptr inbounds ([15 x i8], [15 x i8]* @.str.1, i64 0, i64 0)), !dbg !3169
  %15 = bitcast i8* %call8 to %"struct.pov::Qelem_Struct"*, !dbg !3170
  %16 = load %"struct.pov::Priority_Queue_Struct"*, %"struct.pov::Priority_Queue_Struct"** %Queue.addr, align 8, !dbg !3171
  %Queue9 = getelementptr inbounds %"struct.pov::Priority_Queue_Struct", %"struct.pov::Priority_Queue_Struct"* %16, i32 0, i32 2, !dbg !3172
  store %"struct.pov::Qelem_Struct"* %15, %"struct.pov::Qelem_Struct"** %Queue9, align 8, !dbg !3173
  br label %if.end10, !dbg !3174

if.end10:                                         ; preds = %if.end, %entry
  %17 = load %"struct.pov::Priority_Queue_Struct"*, %"struct.pov::Priority_Queue_Struct"** %Queue.addr, align 8, !dbg !3175
  %Queue11 = getelementptr inbounds %"struct.pov::Priority_Queue_Struct", %"struct.pov::Priority_Queue_Struct"* %17, i32 0, i32 2, !dbg !3176
  %18 = load %"struct.pov::Qelem_Struct"*, %"struct.pov::Qelem_Struct"** %Queue11, align 8, !dbg !3176
  store %"struct.pov::Qelem_Struct"* %18, %"struct.pov::Qelem_Struct"** %List, align 8, !dbg !3177
  %19 = load double, double* %Depth.addr, align 8, !dbg !3178
  %20 = load %"struct.pov::Qelem_Struct"*, %"struct.pov::Qelem_Struct"** %List, align 8, !dbg !3179
  %21 = load i32, i32* %size, align 4, !dbg !3180
  %idxprom = zext i32 %21 to i64, !dbg !3179
  %arrayidx = getelementptr inbounds %"struct.pov::Qelem_Struct", %"struct.pov::Qelem_Struct"* %20, i64 %idxprom, !dbg !3179
  %Depth12 = getelementptr inbounds %"struct.pov::Qelem_Struct", %"struct.pov::Qelem_Struct"* %arrayidx, i32 0, i32 0, !dbg !3181
  store double %19, double* %Depth12, align 8, !dbg !3182
  %22 = load %"struct.pov::BBox_Tree_Struct"*, %"struct.pov::BBox_Tree_Struct"** %Node.addr, align 8, !dbg !3183
  %23 = load %"struct.pov::Qelem_Struct"*, %"struct.pov::Qelem_Struct"** %List, align 8, !dbg !3184
  %24 = load i32, i32* %size, align 4, !dbg !3185
  %idxprom13 = zext i32 %24 to i64, !dbg !3184
  %arrayidx14 = getelementptr inbounds %"struct.pov::Qelem_Struct", %"struct.pov::Qelem_Struct"* %23, i64 %idxprom13, !dbg !3184
  %Node15 = getelementptr inbounds %"struct.pov::Qelem_Struct", %"struct.pov::Qelem_Struct"* %arrayidx14, i32 0, i32 1, !dbg !3186
  store %"struct.pov::BBox_Tree_Struct"* %22, %"struct.pov::BBox_Tree_Struct"** %Node15, align 8, !dbg !3187
  %25 = load i32, i32* %size, align 4, !dbg !3188
  store i32 %25, i32* %i, align 4, !dbg !3189
  br label %while.cond, !dbg !3190

while.cond:                                       ; preds = %while.body, %if.end10
  %26 = load i32, i32* %i, align 4, !dbg !3191
  %cmp16 = icmp sgt i32 %26, 1, !dbg !3192
  br i1 %cmp16, label %land.rhs, label %land.end, !dbg !3193

land.rhs:                                         ; preds = %while.cond
  %27 = load %"struct.pov::Qelem_Struct"*, %"struct.pov::Qelem_Struct"** %List, align 8, !dbg !3194
  %28 = load i32, i32* %i, align 4, !dbg !3195
  %idxprom17 = sext i32 %28 to i64, !dbg !3194
  %arrayidx18 = getelementptr inbounds %"struct.pov::Qelem_Struct", %"struct.pov::Qelem_Struct"* %27, i64 %idxprom17, !dbg !3194
  %Depth19 = getelementptr inbounds %"struct.pov::Qelem_Struct", %"struct.pov::Qelem_Struct"* %arrayidx18, i32 0, i32 0, !dbg !3196
  %29 = load double, double* %Depth19, align 8, !dbg !3196
  %30 = load %"struct.pov::Qelem_Struct"*, %"struct.pov::Qelem_Struct"** %List, align 8, !dbg !3197
  %31 = load i32, i32* %i, align 4, !dbg !3198
  %div = sdiv i32 %31, 2, !dbg !3199
  %idxprom20 = sext i32 %div to i64, !dbg !3197
  %arrayidx21 = getelementptr inbounds %"struct.pov::Qelem_Struct", %"struct.pov::Qelem_Struct"* %30, i64 %idxprom20, !dbg !3197
  %Depth22 = getelementptr inbounds %"struct.pov::Qelem_Struct", %"struct.pov::Qelem_Struct"* %arrayidx21, i32 0, i32 0, !dbg !3200
  %32 = load double, double* %Depth22, align 8, !dbg !3200
  %cmp23 = fcmp olt double %29, %32, !dbg !3201
  br label %land.end

land.end:                                         ; preds = %land.rhs, %while.cond
  %33 = phi i1 [ false, %while.cond ], [ %cmp23, %land.rhs ], !dbg !3202
  br i1 %33, label %while.body, label %while.end, !dbg !3190

while.body:                                       ; preds = %land.end
  %34 = load %"struct.pov::Qelem_Struct"*, %"struct.pov::Qelem_Struct"** %List, align 8, !dbg !3203
  %35 = load i32, i32* %i, align 4, !dbg !3205
  %idxprom24 = sext i32 %35 to i64, !dbg !3203
  %arrayidx25 = getelementptr inbounds %"struct.pov::Qelem_Struct", %"struct.pov::Qelem_Struct"* %34, i64 %idxprom24, !dbg !3203
  %36 = bitcast %"struct.pov::Qelem_Struct"* %tmp to i8*, !dbg !3206
  %37 = bitcast %"struct.pov::Qelem_Struct"* %arrayidx25 to i8*, !dbg !3206
  call void @llvm.memcpy.p0i8.p0i8.i64(i8* align 8 %36, i8* align 8 %37, i64 16, i1 false), !dbg !3206
  %38 = load %"struct.pov::Qelem_Struct"*, %"struct.pov::Qelem_Struct"** %List, align 8, !dbg !3207
  %39 = load i32, i32* %i, align 4, !dbg !3208
  %div26 = sdiv i32 %39, 2, !dbg !3209
  %idxprom27 = sext i32 %div26 to i64, !dbg !3207
  %arrayidx28 = getelementptr inbounds %"struct.pov::Qelem_Struct", %"struct.pov::Qelem_Struct"* %38, i64 %idxprom27, !dbg !3207
  %40 = load %"struct.pov::Qelem_Struct"*, %"struct.pov::Qelem_Struct"** %List, align 8, !dbg !3210
  %41 = load i32, i32* %i, align 4, !dbg !3211
  %idxprom29 = sext i32 %41 to i64, !dbg !3210
  %arrayidx30 = getelementptr inbounds %"struct.pov::Qelem_Struct", %"struct.pov::Qelem_Struct"* %40, i64 %idxprom29, !dbg !3210
  %42 = bitcast %"struct.pov::Qelem_Struct"* %arrayidx30 to i8*, !dbg !3212
  %43 = bitcast %"struct.pov::Qelem_Struct"* %arrayidx28 to i8*, !dbg !3212
  call void @llvm.memcpy.p0i8.p0i8.i64(i8* align 8 %42, i8* align 8 %43, i64 16, i1 false), !dbg !3212
  %44 = load %"struct.pov::Qelem_Struct"*, %"struct.pov::Qelem_Struct"** %List, align 8, !dbg !3213
  %45 = load i32, i32* %i, align 4, !dbg !3214
  %div31 = sdiv i32 %45, 2, !dbg !3215
  %idxprom32 = sext i32 %div31 to i64, !dbg !3213
  %arrayidx33 = getelementptr inbounds %"struct.pov::Qelem_Struct", %"struct.pov::Qelem_Struct"* %44, i64 %idxprom32, !dbg !3213
  %46 = bitcast %"struct.pov::Qelem_Struct"* %arrayidx33 to i8*, !dbg !3216
  %47 = bitcast %"struct.pov::Qelem_Struct"* %tmp to i8*, !dbg !3216
  call void @llvm.memcpy.p0i8.p0i8.i64(i8* align 8 %46, i8* align 8 %47, i64 16, i1 false), !dbg !3216
  %48 = load i32, i32* %i, align 4, !dbg !3217
  %div34 = sdiv i32 %48, 2, !dbg !3218
  store i32 %div34, i32* %i, align 4, !dbg !3219
  br label %while.cond, !dbg !3190, !llvm.loop !3220

while.end:                                        ; preds = %land.end
  ret void, !dbg !3222
}

; Function Attrs: noinline nounwind uwtable
define linkonce_odr dso_local void @_ZN3pov9Make_BBoxERNS_19Bounding_Box_StructEffffff(%"struct.pov::Bounding_Box_Struct"* dereferenceable(24) %BBox, float %llx, float %lly, float %llz, float %lex, float %ley, float %lez) #3 comdat !dbg !3223 {
entry:
  %BBox.addr = alloca %"struct.pov::Bounding_Box_Struct"*, align 8
  %llx.addr = alloca float, align 4
  %lly.addr = alloca float, align 4
  %llz.addr = alloca float, align 4
  %lex.addr = alloca float, align 4
  %ley.addr = alloca float, align 4
  %lez.addr = alloca float, align 4
  store %"struct.pov::Bounding_Box_Struct"* %BBox, %"struct.pov::Bounding_Box_Struct"** %BBox.addr, align 8
  call void @llvm.dbg.declare(metadata %"struct.pov::Bounding_Box_Struct"** %BBox.addr, metadata !3226, metadata !DIExpression()), !dbg !3227
  store float %llx, float* %llx.addr, align 4
  call void @llvm.dbg.declare(metadata float* %llx.addr, metadata !3228, metadata !DIExpression()), !dbg !3229
  store float %lly, float* %lly.addr, align 4
  call void @llvm.dbg.declare(metadata float* %lly.addr, metadata !3230, metadata !DIExpression()), !dbg !3231
  store float %llz, float* %llz.addr, align 4
  call void @llvm.dbg.declare(metadata float* %llz.addr, metadata !3232, metadata !DIExpression()), !dbg !3233
  store float %lex, float* %lex.addr, align 4
  call void @llvm.dbg.declare(metadata float* %lex.addr, metadata !3234, metadata !DIExpression()), !dbg !3235
  store float %ley, float* %ley.addr, align 4
  call void @llvm.dbg.declare(metadata float* %ley.addr, metadata !3236, metadata !DIExpression()), !dbg !3237
  store float %lez, float* %lez.addr, align 4
  call void @llvm.dbg.declare(metadata float* %lez.addr, metadata !3238, metadata !DIExpression()), !dbg !3239
  %0 = load float, float* %llx.addr, align 4, !dbg !3240
  %1 = load %"struct.pov::Bounding_Box_Struct"*, %"struct.pov::Bounding_Box_Struct"** %BBox.addr, align 8, !dbg !3241
  %Lower_Left = getelementptr inbounds %"struct.pov::Bounding_Box_Struct", %"struct.pov::Bounding_Box_Struct"* %1, i32 0, i32 0, !dbg !3242
  %arrayidx = getelementptr inbounds [3 x float], [3 x float]* %Lower_Left, i64 0, i64 0, !dbg !3241
  store float %0, float* %arrayidx, align 4, !dbg !3243
  %2 = load float, float* %lly.addr, align 4, !dbg !3244
  %3 = load %"struct.pov::Bounding_Box_Struct"*, %"struct.pov::Bounding_Box_Struct"** %BBox.addr, align 8, !dbg !3245
  %Lower_Left1 = getelementptr inbounds %"struct.pov::Bounding_Box_Struct", %"struct.pov::Bounding_Box_Struct"* %3, i32 0, i32 0, !dbg !3246
  %arrayidx2 = getelementptr inbounds [3 x float], [3 x float]* %Lower_Left1, i64 0, i64 1, !dbg !3245
  store float %2, float* %arrayidx2, align 4, !dbg !3247
  %4 = load float, float* %llz.addr, align 4, !dbg !3248
  %5 = load %"struct.pov::Bounding_Box_Struct"*, %"struct.pov::Bounding_Box_Struct"** %BBox.addr, align 8, !dbg !3249
  %Lower_Left3 = getelementptr inbounds %"struct.pov::Bounding_Box_Struct", %"struct.pov::Bounding_Box_Struct"* %5, i32 0, i32 0, !dbg !3250
  %arrayidx4 = getelementptr inbounds [3 x float], [3 x float]* %Lower_Left3, i64 0, i64 2, !dbg !3249
  store float %4, float* %arrayidx4, align 4, !dbg !3251
  %6 = load float, float* %lex.addr, align 4, !dbg !3252
  %7 = load %"struct.pov::Bounding_Box_Struct"*, %"struct.pov::Bounding_Box_Struct"** %BBox.addr, align 8, !dbg !3253
  %Lengths = getelementptr inbounds %"struct.pov::Bounding_Box_Struct", %"struct.pov::Bounding_Box_Struct"* %7, i32 0, i32 1, !dbg !3254
  %arrayidx5 = getelementptr inbounds [3 x float], [3 x float]* %Lengths, i64 0, i64 0, !dbg !3253
  store float %6, float* %arrayidx5, align 4, !dbg !3255
  %8 = load float, float* %ley.addr, align 4, !dbg !3256
  %9 = load %"struct.pov::Bounding_Box_Struct"*, %"struct.pov::Bounding_Box_Struct"** %BBox.addr, align 8, !dbg !3257
  %Lengths6 = getelementptr inbounds %"struct.pov::Bounding_Box_Struct", %"struct.pov::Bounding_Box_Struct"* %9, i32 0, i32 1, !dbg !3258
  %arrayidx7 = getelementptr inbounds [3 x float], [3 x float]* %Lengths6, i64 0, i64 1, !dbg !3257
  store float %8, float* %arrayidx7, align 4, !dbg !3259
  %10 = load float, float* %lez.addr, align 4, !dbg !3260
  %11 = load %"struct.pov::Bounding_Box_Struct"*, %"struct.pov::Bounding_Box_Struct"** %BBox.addr, align 8, !dbg !3261
  %Lengths8 = getelementptr inbounds %"struct.pov::Bounding_Box_Struct", %"struct.pov::Bounding_Box_Struct"* %11, i32 0, i32 1, !dbg !3262
  %arrayidx9 = getelementptr inbounds [3 x float], [3 x float]* %Lengths8, i64 0, i64 2, !dbg !3261
  store float %10, float* %arrayidx9, align 4, !dbg !3263
  ret void, !dbg !3264
}

; Function Attrs: noinline nounwind uwtable
define internal i32 @_ZN3povL9find_axisEPPNS_16BBox_Tree_StructEll(%"struct.pov::BBox_Tree_Struct"** %Finite, i64 %first, i64 %last) #3 !dbg !3265 {
entry:
  %Finite.addr = alloca %"struct.pov::BBox_Tree_Struct"**, align 8
  %first.addr = alloca i64, align 8
  %last.addr = alloca i64, align 8
  %which = alloca i32, align 4
  %i = alloca i64, align 8
  %e = alloca double, align 8
  %d = alloca double, align 8
  %mins = alloca [3 x double], align 16
  %maxs = alloca [3 x double], align 16
  %bbox = alloca %"struct.pov::Bounding_Box_Struct"*, align 8
  store %"struct.pov::BBox_Tree_Struct"** %Finite, %"struct.pov::BBox_Tree_Struct"*** %Finite.addr, align 8
  call void @llvm.dbg.declare(metadata %"struct.pov::BBox_Tree_Struct"*** %Finite.addr, metadata !3268, metadata !DIExpression()), !dbg !3269
  store i64 %first, i64* %first.addr, align 8
  call void @llvm.dbg.declare(metadata i64* %first.addr, metadata !3270, metadata !DIExpression()), !dbg !3271
