; ModuleID = 'hfield.cpp'
source_filename = "hfield.cpp"
target datalayout = "e-m:e-p270:32:32-p271:32:32-p272:64:64-i64:64-f80:128-n8:16:32:64-S128"
target triple = "x86_64-unknown-linux-gnu"

%"struct.pov::Object_Struct" = type { %"struct.pov::Method_Struct"*, i32, %"struct.pov::Object_Struct"*, %"struct.pov::Texture_Struct"*, %"struct.pov::Texture_Struct"*, %"struct.pov::Interior_Struct"*, %"struct.pov::Object_Struct"*, %"struct.pov::Object_Struct"*, %"struct.pov::Light_Source_Struct"*, %"struct.pov::Bounding_Box_Struct", %"struct.pov::Transform_Struct"*, %"struct.pov::Transform_Struct"*, float, i32 }
%"struct.pov::Method_Struct" = type { {}*, i32 (double*, %"struct.pov::Object_Struct"*)*, void (double*, %"struct.pov::Object_Struct"*, %"struct.pov::istk_entry"*)*, void (double*, %"struct.pov::Object_Struct"*, %"struct.pov::istk_entry"*)*, i8* (%"struct.pov::Object_Struct"*)*, void (%"struct.pov::Object_Struct"*, double*, %"struct.pov::Transform_Struct"*)*, void (%"struct.pov::Object_Struct"*, double*, %"struct.pov::Transform_Struct"*)*, void (%"struct.pov::Object_Struct"*, double*, %"struct.pov::Transform_Struct"*)*, void (%"struct.pov::Object_Struct"*, %"struct.pov::Transform_Struct"*)*, void (%"struct.pov::Object_Struct"*)*, void (%"struct.pov::Object_Struct"*)* }
%"struct.pov::Texture_Struct" = type { i16, i16, i16, i32, float, float, float, %"struct.pov::Warps_Struct"*, %"struct.pov::Pattern_Struct"*, %"struct.pov::Blend_Map_Struct"*, %union.anon.25, %"struct.pov::Texture_Struct"*, %"struct.pov::Pigment_Struct"*, %"struct.pov::Tnormal_Struct"*, %"struct.pov::Finish_Struct"*, %"struct.pov::Texture_Struct"*, i32 }
%"struct.pov::Warps_Struct" = type { i16, %"struct.pov::Warps_Struct"*, %"struct.pov::Warps_Struct"* }
%"struct.pov::Pattern_Struct" = type { i16, i16, i16, i32, float, float, float, %"struct.pov::Warps_Struct"*, %"struct.pov::Pattern_Struct"*, %"struct.pov::Blend_Map_Struct"*, %union.anon.17 }
%union.anon.17 = type { %struct.anon.21 }
%struct.anon.21 = type { [3 x double], [3 x double], double, double, i16, [3 x double]*, i32, [3 x double] }
%"struct.pov::Blend_Map_Struct" = type { i32, i16, i8, i8, %"struct.pov::Blend_Map_Entry"* }
%"struct.pov::Blend_Map_Entry" = type { float, i8, %union.anon }
%union.anon = type { [2 x double], [8 x i8] }
%union.anon.25 = type { %struct.anon.29 }
%struct.anon.29 = type { [3 x double], [3 x double], double, double, i16, [3 x double]*, i32, [3 x double] }
%"struct.pov::Pigment_Struct" = type { i16, i16, i16, i32, float, float, float, %"struct.pov::Warps_Struct"*, %"struct.pov::Pattern_Struct"*, %"struct.pov::Blend_Map_Struct"*, %union.anon.0, [5 x float] }
%union.anon.0 = type { %struct.anon.5 }
%struct.anon.5 = type { [3 x double], [3 x double], double, double, i16, [3 x double]*, i32, [3 x double] }
%"struct.pov::Tnormal_Struct" = type { i16, i16, i16, i32, float, float, float, %"struct.pov::Warps_Struct"*, %"struct.pov::Pattern_Struct"*, %"struct.pov::Blend_Map_Struct"*, %union.anon.9, float, float }
%union.anon.9 = type { %struct.anon.13 }
%struct.anon.13 = type { [3 x double], [3 x double], double, double, i16, [3 x double]*, i32, [3 x double] }
%"struct.pov::Finish_Struct" = type { float, float, float, float, float, float, float, float, float, float, float, float, float, float, float, float, [3 x float], [3 x float], [3 x float], float, i32, float, i32 }
%"struct.pov::Interior_Struct" = type { i32, i32, i32, float, float, float, float, float, float, [5 x float], %"struct.pov::Media_Struct"* }
%"struct.pov::Media_Struct" = type { i32, i32, i32, i32, i32, double, i32, double, double, i32, i32, i32, i32, [5 x float], [5 x float], [5 x float], [5 x float], double, double, double, double*, double, i32, i32, %"struct.pov::Pigment_Struct"*, %"struct.pov::Media_Struct"* }
%"struct.pov::Light_Source_Struct" = type { %"struct.pov::Method_Struct"*, i32, %"struct.pov::Object_Struct"*, %"struct.pov::Texture_Struct"*, %"struct.pov::Texture_Struct"*, %"struct.pov::Interior_Struct"*, %"struct.pov::Object_Struct"*, %"struct.pov::Object_Struct"*, %"struct.pov::Light_Source_Struct"*, %"struct.pov::Bounding_Box_Struct", %"struct.pov::Transform_Struct"*, %"struct.pov::Transform_Struct"*, float, i32, %"struct.pov::Object_Struct"*, [5 x float], [3 x double], [3 x double], [3 x double], [3 x double], [3 x double], double, double, double, double, double, %"struct.pov::Light_Source_Struct"*, i8, i8, i8, i8, i8, i8, i8, i8, i32, i32, i32, i32, i32, [5 x float]**, %"struct.pov::Object_Struct"*, %"struct.pov::Object_Struct"*, %"struct.pov::Blend_Map_Struct"*, [6 x %"struct.pov::Project_Tree_Node_Struct"*] }
%"struct.pov::Project_Tree_Node_Struct" = type { i16, %"struct.pov::BBox_Tree_Struct"*, %"struct.pov::Project_Struct", i16, %"struct.pov::Project_Tree_Node_Struct"** }
%"struct.pov::BBox_Tree_Struct" = type { i16, i16, %"struct.pov::Bounding_Box_Struct", %"struct.pov::BBox_Tree_Struct"** }
%"struct.pov::Project_Struct" = type { i32, i32, i32, i32 }
%"struct.pov::Bounding_Box_Struct" = type { [3 x float], [3 x float] }
%"struct.pov::Transform_Struct" = type { [4 x [4 x double]], [4 x [4 x double]] }
%"struct.pov::Ray_Struct" = type { [3 x double], [3 x double], i32, i32, [100 x %"struct.pov::Interior_Struct"*] }
%"struct.pov::istack_struct" = type { %"struct.pov::istack_struct"*, %"struct.pov::istk_entry"*, i32, i32 }
%"struct.pov::istk_entry" = type { double, [3 x double], [3 x double], [3 x double], [2 x double], %"struct.pov::Object_Struct"*, i32, i32, double, double, double, double, double, double, double, double, double, i8*, i8* }
%"struct.pov::HField_Struct" = type { %"struct.pov::Method_Struct"*, i32, %"struct.pov::Object_Struct"*, %"struct.pov::Texture_Struct"*, %"struct.pov::Texture_Struct"*, %"struct.pov::Interior_Struct"*, %"struct.pov::Object_Struct"*, %"struct.pov::Object_Struct"*, %"struct.pov::Light_Source_Struct"*, %"struct.pov::Bounding_Box_Struct", %"struct.pov::Transform_Struct"*, %"struct.pov::Transform_Struct"*, float, i32, [3 x double], [3 x double], %"struct.pov::HField_Data_Struct"* }
%"struct.pov::HField_Data_Struct" = type { i32, i32, i32, i32, i32, i16, i16, i32, i32, i32, i32, i16**, [3 x i16]**, [16 x %"struct.pov::HField_Normal_Struct"], %"struct.pov::HField_Block_Struct"** }
%"struct.pov::HField_Normal_Struct" = type { double, double, [3 x double] }
%"struct.pov::HField_Block_Struct" = type { i32, i32, i32, i32, double, double }
%"struct.pov::Image_Struct" = type { i32, i32, i32, i32, i32, i32, i32, i16, i8, i8, [3 x double], float, float, [2 x double], double, double, %"struct.pov::Image_Colour_Struct"*, i8*, %union.anon.2 }
%"struct.pov::Image_Colour_Struct" = type { i16, i16, i16, i16, i16 }
%union.anon.2 = type { %"struct.pov::Image8_Line_Struct"* }
%"struct.pov::Image8_Line_Struct" = type { i8*, i8*, i8*, i8* }

$_ZSt3minItERKT_S2_S2_ = comdat any

$_ZSt3maxItERKT_S2_S2_ = comdat any

$_ZSt3maxIdERKT_S2_S2_ = comdat any

$_ZN3pov9Make_BBoxERNS_19Bounding_Box_StructEffffff = comdat any

$_ZN3pov11Make_VectorEPdddd = comdat any

$_ZN3pov16Assign_BBox_VectERA3_fPd = comdat any

$_ZN3pov4VSubEPfPKdS2_ = comdat any

$_ZN3pov16Increase_CounterERx = comdat any

$_ZN3pov12VEvaluateRayEPdPKddS2_ = comdat any

$_ZSt3minIdERKT_S2_S2_ = comdat any

$_ZN3pov13Assign_VectorEPdS0_ = comdat any

$_ZN3pov4VDotERdPKdS2_ = comdat any

$_ZN3pov4VSubEPdPKdS2_ = comdat any

$_ZN3pov10push_entryEdPdPNS_13Object_StructEPNS_13istack_structE = comdat any

$_ZN3pov4itopEPNS_13istack_structE = comdat any

$_ZN3pov14Assign_UV_VectEPdS0_ = comdat any

$_ZSt3minIiERKT_S2_S2_ = comdat any

$_ZN3pov10VNormalizeEPdPKd = comdat any

$_ZN3pov12VNormalizeEqEPd = comdat any

$_ZN3pov7VLengthERdPKd = comdat any

$_ZN3pov13VInverseScaleEPdPKdd = comdat any

$_ZN3pov15VInverseScaleEqEPdd = comdat any

$_ZN3pov6VCrossEPdPKdS2_ = comdat any

$_ZN3pov8VScaleEqEPdd = comdat any

$_ZN3pov6VAddEqEPdPKd = comdat any

$_ZSt3maxIiERKT_S2_S2_ = comdat any

@_ZN3pov14HField_MethodsE = dso_local global { i32 (%"struct.pov::Object_Struct"*, %"struct.pov::Ray_Struct"*, %"struct.pov::istack_struct"*)*, i32 (double*, %"struct.pov::Object_Struct"*)*, void (double*, %"struct.pov::Object_Struct"*, %"struct.pov::istk_entry"*)*, void (double*, %"struct.pov::Object_Struct"*, %"struct.pov::istk_entry"*)*, i8* (%"struct.pov::Object_Struct"*)*, void (%"struct.pov::Object_Struct"*, double*, %"struct.pov::Transform_Struct"*)*, void (%"struct.pov::Object_Struct"*, double*, %"struct.pov::Transform_Struct"*)*, void (%"struct.pov::Object_Struct"*, double*, %"struct.pov::Transform_Struct"*)*, void (%"struct.pov::Object_Struct"*, %"struct.pov::Transform_Struct"*)*, void (%"struct.pov::Object_Struct"*)*, void (%"struct.pov::Object_Struct"*)* } { i32 (%"struct.pov::Object_Struct"*, %"struct.pov::Ray_Struct"*, %"struct.pov::istack_struct"*)* @_ZN3povL24All_HField_IntersectionsEPNS_13Object_StructEPNS_10Ray_StructEPNS_13istack_structE, i32 (double*, %"struct.pov::Object_Struct"*)* @_ZN3povL13Inside_HFieldEPdPNS_13Object_StructE, void (double*, %"struct.pov::Object_Struct"*, %"struct.pov::istk_entry"*)* @_ZN3povL13HField_NormalEPdPNS_13Object_StructEPNS_10istk_entryE, void (double*, %"struct.pov::Object_Struct"*, %"struct.pov::istk_entry"*)* @_ZN3pov15Default_UVCoordEPdPNS_13Object_StructEPNS_10istk_entryE, i8* (%"struct.pov::Object_Struct"*)* bitcast (%"struct.pov::HField_Struct"* (%"struct.pov::Object_Struct"*)* @_ZN3povL11Copy_HFieldEPNS_13Object_StructE to i8* (%"struct.pov::Object_Struct"*)*), void (%"struct.pov::Object_Struct"*, double*, %"struct.pov::Transform_Struct"*)* @_ZN3povL16Translate_HFieldEPNS_13Object_StructEPdPNS_16Transform_StructE, void (%"struct.pov::Object_Struct"*, double*, %"struct.pov::Transform_Struct"*)* @_ZN3povL13Rotate_HFieldEPNS_13Object_StructEPdPNS_16Transform_StructE, void (%"struct.pov::Object_Struct"*, double*, %"struct.pov::Transform_Struct"*)* @_ZN3povL12Scale_HFieldEPNS_13Object_StructEPdPNS_16Transform_StructE, void (%"struct.pov::Object_Struct"*, %"struct.pov::Transform_Struct"*)* @_ZN3povL16Transform_HFieldEPNS_13Object_StructEPNS_16Transform_StructE, void (%"struct.pov::Object_Struct"*)* @_ZN3povL13Invert_HFieldEPNS_13Object_StructE, void (%"struct.pov::Object_Struct"*)* @_ZN3povL14Destroy_HFieldEPNS_13Object_StructE }, align 8, !dbg !0
@.str = private unnamed_addr constant [11 x i8] c"hfield.cpp\00", align 1
@.str.1 = private unnamed_addr constant [13 x i8] c"height field\00", align 1
@_ZN3pov5statsE = external dso_local global [123 x i64], align 16
@.str.2 = private unnamed_addr constant [183 x i8] c"Illegal grid value in dda_traversal().\0AThe height field may contain dark spots. To eliminate them\0Amoving the camera a tiny bit should help. For more information\0Aread the user manual!\00", align 1
@.str.3 = private unnamed_addr constant [21 x i8] c"height field normals\00", align 1
@.str.4 = private unnamed_addr constant [41 x i8] c"Failed to find any normals at: (%d, %d).\00", align 1
@.str.5 = private unnamed_addr constant [20 x i8] c"height field blocks\00", align 1

; Function Attrs: noinline uwtable
define internal i32 @_ZN3povL24All_HField_IntersectionsEPNS_13Object_StructEPNS_10Ray_StructEPNS_13istack_structE(%"struct.pov::Object_Struct"* %Object, %"struct.pov::Ray_Struct"* %Ray, %"struct.pov::istack_struct"* %Depth_Stack) #0 !dbg !1154 {
entry:
  %retval = alloca i32, align 4
  %Object.addr = alloca %"struct.pov::Object_Struct"*, align 8
  %Ray.addr = alloca %"struct.pov::Ray_Struct"*, align 8
  %Depth_Stack.addr = alloca %"struct.pov::istack_struct"*, align 8
  %Side1 = alloca i32, align 4
  %Side2 = alloca i32, align 4
  %Start = alloca [3 x double], align 16
  %Temp_Ray = alloca %"struct.pov::Ray_Struct", align 8
  %depth1 = alloca double, align 8
  %depth2 = alloca double, align 8
  %HField = alloca %"struct.pov::HField_Struct"*, align 8
  %HField_Stack = alloca %"struct.pov::istack_struct"*, align 8
  %RRay = alloca %"struct.pov::Ray_Struct"*, align 8
  %mindist = alloca double, align 8
  %maxdist = alloca double, align 8
  store %"struct.pov::Object_Struct"* %Object, %"struct.pov::Object_Struct"** %Object.addr, align 8
  call void @llvm.dbg.declare(metadata %"struct.pov::Object_Struct"** %Object.addr, metadata !1156, metadata !DIExpression()), !dbg !1157
  store %"struct.pov::Ray_Struct"* %Ray, %"struct.pov::Ray_Struct"** %Ray.addr, align 8
  call void @llvm.dbg.declare(metadata %"struct.pov::Ray_Struct"** %Ray.addr, metadata !1158, metadata !DIExpression()), !dbg !1159
  store %"struct.pov::istack_struct"* %Depth_Stack, %"struct.pov::istack_struct"** %Depth_Stack.addr, align 8
  call void @llvm.dbg.declare(metadata %"struct.pov::istack_struct"** %Depth_Stack.addr, metadata !1160, metadata !DIExpression()), !dbg !1161
  call void @llvm.dbg.declare(metadata i32* %Side1, metadata !1162, metadata !DIExpression()), !dbg !1163
  call void @llvm.dbg.declare(metadata i32* %Side2, metadata !1164, metadata !DIExpression()), !dbg !1165
  call void @llvm.dbg.declare(metadata [3 x double]* %Start, metadata !1166, metadata !DIExpression()), !dbg !1167
  call void @llvm.dbg.declare(metadata %"struct.pov::Ray_Struct"* %Temp_Ray, metadata !1168, metadata !DIExpression()), !dbg !1169
  call void @llvm.dbg.declare(metadata double* %depth1, metadata !1170, metadata !DIExpression()), !dbg !1171
  call void @llvm.dbg.declare(metadata double* %depth2, metadata !1172, metadata !DIExpression()), !dbg !1173
  call void @llvm.dbg.declare(metadata %"struct.pov::HField_Struct"** %HField, metadata !1174, metadata !DIExpression()), !dbg !1175
  %0 = load %"struct.pov::Object_Struct"*, %"struct.pov::Object_Struct"** %Object.addr, align 8, !dbg !1176
  %1 = bitcast %"struct.pov::Object_Struct"* %0 to %"struct.pov::HField_Struct"*, !dbg !1177
  store %"struct.pov::HField_Struct"* %1, %"struct.pov::HField_Struct"** %HField, align 8, !dbg !1175
  call void @llvm.dbg.declare(metadata %"struct.pov::istack_struct"** %HField_Stack, metadata !1178, metadata !DIExpression()), !dbg !1179
  call void @llvm.dbg.declare(metadata %"struct.pov::Ray_Struct"** %RRay, metadata !1180, metadata !DIExpression()), !dbg !1181
  call void @llvm.dbg.declare(metadata double* %mindist, metadata !1182, metadata !DIExpression()), !dbg !1183
  call void @llvm.dbg.declare(metadata double* %maxdist, metadata !1184, metadata !DIExpression()), !dbg !1185
  call void @_ZN3pov16Increase_CounterERx(i64* dereferenceable(8) getelementptr inbounds ([123 x i64], [123 x i64]* @_ZN3pov5statsE, i64 0, i64 32)), !dbg !1186
  %Initial = getelementptr inbounds %"struct.pov::Ray_Struct", %"struct.pov::Ray_Struct"* %Temp_Ray, i32 0, i32 0, !dbg !1187
  %arraydecay = getelementptr inbounds [3 x double], [3 x double]* %Initial, i64 0, i64 0, !dbg !1188
  %2 = load %"struct.pov::Ray_Struct"*, %"struct.pov::Ray_Struct"** %Ray.addr, align 8, !dbg !1189
  %Initial1 = getelementptr inbounds %"struct.pov::Ray_Struct", %"struct.pov::Ray_Struct"* %2, i32 0, i32 0, !dbg !1190
  %arraydecay2 = getelementptr inbounds [3 x double], [3 x double]* %Initial1, i64 0, i64 0, !dbg !1189
  %3 = load %"struct.pov::HField_Struct"*, %"struct.pov::HField_Struct"** %HField, align 8, !dbg !1191
  %Trans = getelementptr inbounds %"struct.pov::HField_Struct", %"struct.pov::HField_Struct"* %3, i32 0, i32 10, !dbg !1192
  %4 = load %"struct.pov::Transform_Struct"*, %"struct.pov::Transform_Struct"** %Trans, align 8, !dbg !1192
  call void @_ZN3pov14MInvTransPointEPdS0_PNS_16Transform_StructE(double* %arraydecay, double* %arraydecay2, %"struct.pov::Transform_Struct"* %4), !dbg !1193
  %Direction = getelementptr inbounds %"struct.pov::Ray_Struct", %"struct.pov::Ray_Struct"* %Temp_Ray, i32 0, i32 1, !dbg !1194
  %arraydecay3 = getelementptr inbounds [3 x double], [3 x double]* %Direction, i64 0, i64 0, !dbg !1195
  %5 = load %"struct.pov::Ray_Struct"*, %"struct.pov::Ray_Struct"** %Ray.addr, align 8, !dbg !1196
  %Direction4 = getelementptr inbounds %"struct.pov::Ray_Struct", %"struct.pov::Ray_Struct"* %5, i32 0, i32 1, !dbg !1197
  %arraydecay5 = getelementptr inbounds [3 x double], [3 x double]* %Direction4, i64 0, i64 0, !dbg !1196
  %6 = load %"struct.pov::HField_Struct"*, %"struct.pov::HField_Struct"** %HField, align 8, !dbg !1198
  %Trans6 = getelementptr inbounds %"struct.pov::HField_Struct", %"struct.pov::HField_Struct"* %6, i32 0, i32 10, !dbg !1199
  %7 = load %"struct.pov::Transform_Struct"*, %"struct.pov::Transform_Struct"** %Trans6, align 8, !dbg !1199
  call void @_ZN3pov18MInvTransDirectionEPdS0_PNS_16Transform_StructE(double* %arraydecay3, double* %arraydecay5, %"struct.pov::Transform_Struct"* %7), !dbg !1200
  call void @_ZN3pov16Increase_CounterERx(i64* dereferenceable(8) getelementptr inbounds ([123 x i64], [123 x i64]* @_ZN3pov5statsE, i64 0, i64 34)), !dbg !1201
  %8 = load %"struct.pov::HField_Struct"*, %"struct.pov::HField_Struct"** %HField, align 8, !dbg !1202
  %bounding_corner1 = getelementptr inbounds %"struct.pov::HField_Struct", %"struct.pov::HField_Struct"* %8, i32 0, i32 14, !dbg !1204
  %arraydecay7 = getelementptr inbounds [3 x double], [3 x double]* %bounding_corner1, i64 0, i64 0, !dbg !1202
  %9 = load %"struct.pov::HField_Struct"*, %"struct.pov::HField_Struct"** %HField, align 8, !dbg !1205
  %bounding_corner2 = getelementptr inbounds %"struct.pov::HField_Struct", %"struct.pov::HField_Struct"* %9, i32 0, i32 15, !dbg !1206
  %arraydecay8 = getelementptr inbounds [3 x double], [3 x double]* %bounding_corner2, i64 0, i64 0, !dbg !1205
  %call = call i32 @_ZN3pov13Intersect_BoxEPNS_10Ray_StructEPNS_16Transform_StructEPdS4_S4_S4_PiS5_(%"struct.pov::Ray_Struct"* %Temp_Ray, %"struct.pov::Transform_Struct"* null, double* %arraydecay7, double* %arraydecay8, double* %depth1, double* %depth2, i32* %Side1, i32* %Side2), !dbg !1207
  %tobool = icmp ne i32 %call, 0, !dbg !1207
  br i1 %tobool, label %if.end, label %if.then, !dbg !1208

if.then:                                          ; preds = %entry
  store i32 0, i32* %retval, align 4, !dbg !1209
  br label %return, !dbg !1209

if.end:                                           ; preds = %entry
  call void @_ZN3pov16Increase_CounterERx(i64* dereferenceable(8) getelementptr inbounds ([123 x i64], [123 x i64]* @_ZN3pov5statsE, i64 0, i64 35)), !dbg !1211
  %10 = load %"struct.pov::HField_Struct"*, %"struct.pov::HField_Struct"** %HField, align 8, !dbg !1212
  %Data = getelementptr inbounds %"struct.pov::HField_Struct", %"struct.pov::HField_Struct"* %10, i32 0, i32 16, !dbg !1213
  %11 = load %"struct.pov::HField_Data_Struct"*, %"struct.pov::HField_Data_Struct"** %Data, align 8, !dbg !1213
  %cache_pos = getelementptr inbounds %"struct.pov::HField_Data_Struct", %"struct.pov::HField_Data_Struct"* %11, i32 0, i32 1, !dbg !1214
  store i32 0, i32* %cache_pos, align 4, !dbg !1215
  %12 = load double, double* %depth1, align 8, !dbg !1216
  %cmp = fcmp olt double %12, 0x3EB0C6F7A0B5ED8D, !dbg !1218
  br i1 %cmp, label %if.then9, label %if.end13, !dbg !1219

if.then9:                                         ; preds = %if.end
  store double 0x3EB0C6F7A0B5ED8D, double* %depth1, align 8, !dbg !1220
  %13 = load double, double* %depth1, align 8, !dbg !1222
  %14 = load double, double* %depth2, align 8, !dbg !1224
  %cmp10 = fcmp ogt double %13, %14, !dbg !1225
  br i1 %cmp10, label %if.then11, label %if.end12, !dbg !1226

if.then11:                                        ; preds = %if.then9
  store i32 0, i32* %retval, align 4, !dbg !1227
  br label %return, !dbg !1227

if.end12:                                         ; preds = %if.then9
  br label %if.end13, !dbg !1229

if.end13:                                         ; preds = %if.end12, %if.end
  %arraydecay14 = getelementptr inbounds [3 x double], [3 x double]* %Start, i64 0, i64 0, !dbg !1230
  %Initial15 = getelementptr inbounds %"struct.pov::Ray_Struct", %"struct.pov::Ray_Struct"* %Temp_Ray, i32 0, i32 0, !dbg !1231
  %arraydecay16 = getelementptr inbounds [3 x double], [3 x double]* %Initial15, i64 0, i64 0, !dbg !1232
  %15 = load double, double* %depth1, align 8, !dbg !1233
  %Direction17 = getelementptr inbounds %"struct.pov::Ray_Struct", %"struct.pov::Ray_Struct"* %Temp_Ray, i32 0, i32 1, !dbg !1234
  %arraydecay18 = getelementptr inbounds [3 x double], [3 x double]* %Direction17, i64 0, i64 0, !dbg !1235
  call void @_ZN3pov12VEvaluateRayEPdPKddS2_(double* %arraydecay14, double* %arraydecay16, double %15, double* %arraydecay18), !dbg !1236
  %16 = load double, double* %depth1, align 8, !dbg !1237
  store double %16, double* %mindist, align 8, !dbg !1238
  %17 = load double, double* %depth2, align 8, !dbg !1239
  store double %17, double* %maxdist, align 8, !dbg !1240
  %18 = load %"struct.pov::istack_struct"*, %"struct.pov::istack_struct"** %Depth_Stack.addr, align 8, !dbg !1241
  store %"struct.pov::istack_struct"* %18, %"struct.pov::istack_struct"** %HField_Stack, align 8, !dbg !1242
  %19 = load %"struct.pov::Ray_Struct"*, %"struct.pov::Ray_Struct"** %Ray.addr, align 8, !dbg !1243
  store %"struct.pov::Ray_Struct"* %19, %"struct.pov::Ray_Struct"** %RRay, align 8, !dbg !1244
  %20 = load %"struct.pov::HField_Struct"*, %"struct.pov::HField_Struct"** %HField, align 8, !dbg !1245
  %arraydecay19 = getelementptr inbounds [3 x double], [3 x double]* %Start, i64 0, i64 0, !dbg !1247
  %call20 = call i32 @_ZN3povL15block_traversalEPNS_10Ray_StructEPNS_13HField_StructEPdRPNS_13istack_structERS1_RdS9_(%"struct.pov::Ray_Struct"* %Temp_Ray, %"struct.pov::HField_Struct"* %20, double* %arraydecay19, %"struct.pov::istack_struct"** dereferenceable(8) %HField_Stack, %"struct.pov::Ray_Struct"** dereferenceable(8) %RRay, double* dereferenceable(8) %mindist, double* dereferenceable(8) %maxdist), !dbg !1248
  %tobool21 = icmp ne i32 %call20, 0, !dbg !1248
  br i1 %tobool21, label %if.then22, label %if.else, !dbg !1249

if.then22:                                        ; preds = %if.end13
  call void @_ZN3pov16Increase_CounterERx(i64* dereferenceable(8) getelementptr inbounds ([123 x i64], [123 x i64]* @_ZN3pov5statsE, i64 0, i64 33)), !dbg !1250
  store i32 1, i32* %retval, align 4, !dbg !1252
  br label %return, !dbg !1252

if.else:                                          ; preds = %if.end13
  store i32 0, i32* %retval, align 4, !dbg !1253
  br label %return, !dbg !1253

return:                                           ; preds = %if.else, %if.then22, %if.then11, %if.then
  %21 = load i32, i32* %retval, align 4, !dbg !1255
  ret i32 %21, !dbg !1255
}

; Function Attrs: noinline uwtable
define internal i32 @_ZN3povL13Inside_HFieldEPdPNS_13Object_StructE(double* %IPoint, %"struct.pov::Object_Struct"* %Object) #0 !dbg !1256 {
entry:
  %retval = alloca i32, align 4
  %IPoint.addr = alloca double*, align 8
  %Object.addr = alloca %"struct.pov::Object_Struct"*, align 8
  %HField = alloca %"struct.pov::HField_Struct"*, align 8
  %px = alloca i32, align 4
  %pz = alloca i32, align 4
  %x = alloca double, align 8
  %z = alloca double, align 8
  %y1 = alloca double, align 8
  %y2 = alloca double, align 8
  %y3 = alloca double, align 8
  %water = alloca double, align 8
  %dot1 = alloca double, align 8
  %dot2 = alloca double, align 8
  %Local_Origin = alloca [3 x double], align 16
  %H_Normal = alloca [3 x double], align 16
  %Test = alloca [3 x double], align 16
  %ref.tmp = alloca double, align 8
  %ref.tmp47 = alloca double, align 8
  %ref.tmp57 = alloca double, align 8
  %ref.tmp77 = alloca double, align 8
  %ref.tmp86 = alloca double, align 8
  %ref.tmp96 = alloca double, align 8
  store double* %IPoint, double** %IPoint.addr, align 8
  call void @llvm.dbg.declare(metadata double** %IPoint.addr, metadata !1257, metadata !DIExpression()), !dbg !1258
  store %"struct.pov::Object_Struct"* %Object, %"struct.pov::Object_Struct"** %Object.addr, align 8
  call void @llvm.dbg.declare(metadata %"struct.pov::Object_Struct"** %Object.addr, metadata !1259, metadata !DIExpression()), !dbg !1260
  call void @llvm.dbg.declare(metadata %"struct.pov::HField_Struct"** %HField, metadata !1261, metadata !DIExpression()), !dbg !1262
  %0 = load %"struct.pov::Object_Struct"*, %"struct.pov::Object_Struct"** %Object.addr, align 8, !dbg !1263
  %1 = bitcast %"struct.pov::Object_Struct"* %0 to %"struct.pov::HField_Struct"*, !dbg !1264
  store %"struct.pov::HField_Struct"* %1, %"struct.pov::HField_Struct"** %HField, align 8, !dbg !1262
  call void @llvm.dbg.declare(metadata i32* %px, metadata !1265, metadata !DIExpression()), !dbg !1266
  call void @llvm.dbg.declare(metadata i32* %pz, metadata !1267, metadata !DIExpression()), !dbg !1268
  call void @llvm.dbg.declare(metadata double* %x, metadata !1269, metadata !DIExpression()), !dbg !1270
  call void @llvm.dbg.declare(metadata double* %z, metadata !1271, metadata !DIExpression()), !dbg !1272
  call void @llvm.dbg.declare(metadata double* %y1, metadata !1273, metadata !DIExpression()), !dbg !1274
  call void @llvm.dbg.declare(metadata double* %y2, metadata !1275, metadata !DIExpression()), !dbg !1276
  call void @llvm.dbg.declare(metadata double* %y3, metadata !1277, metadata !DIExpression()), !dbg !1278
  call void @llvm.dbg.declare(metadata double* %water, metadata !1279, metadata !DIExpression()), !dbg !1280
  call void @llvm.dbg.declare(metadata double* %dot1, metadata !1281, metadata !DIExpression()), !dbg !1282
  call void @llvm.dbg.declare(metadata double* %dot2, metadata !1283, metadata !DIExpression()), !dbg !1284
  call void @llvm.dbg.declare(metadata [3 x double]* %Local_Origin, metadata !1285, metadata !DIExpression()), !dbg !1286
  call void @llvm.dbg.declare(metadata [3 x double]* %H_Normal, metadata !1287, metadata !DIExpression()), !dbg !1288
  call void @llvm.dbg.declare(metadata [3 x double]* %Test, metadata !1289, metadata !DIExpression()), !dbg !1290
  %arraydecay = getelementptr inbounds [3 x double], [3 x double]* %Test, i64 0, i64 0, !dbg !1291
  %2 = load double*, double** %IPoint.addr, align 8, !dbg !1292
  %3 = load %"struct.pov::HField_Struct"*, %"struct.pov::HField_Struct"** %HField, align 8, !dbg !1293
  %Trans = getelementptr inbounds %"struct.pov::HField_Struct", %"struct.pov::HField_Struct"* %3, i32 0, i32 10, !dbg !1294
  %4 = load %"struct.pov::Transform_Struct"*, %"struct.pov::Transform_Struct"** %Trans, align 8, !dbg !1294
  call void @_ZN3pov14MInvTransPointEPdS0_PNS_16Transform_StructE(double* %arraydecay, double* %2, %"struct.pov::Transform_Struct"* %4), !dbg !1295
  %5 = load %"struct.pov::HField_Struct"*, %"struct.pov::HField_Struct"** %HField, align 8, !dbg !1296
  %bounding_corner1 = getelementptr inbounds %"struct.pov::HField_Struct", %"struct.pov::HField_Struct"* %5, i32 0, i32 14, !dbg !1297
  %arrayidx = getelementptr inbounds [3 x double], [3 x double]* %bounding_corner1, i64 0, i64 1, !dbg !1296
  %6 = load double, double* %arrayidx, align 8, !dbg !1296
  store double %6, double* %water, align 8, !dbg !1298
  %arrayidx1 = getelementptr inbounds [3 x double], [3 x double]* %Test, i64 0, i64 0, !dbg !1299
  %7 = load double, double* %arrayidx1, align 16, !dbg !1299
  %cmp = fcmp olt double %7, 0.000000e+00, !dbg !1301
  br i1 %cmp, label %if.then, label %lor.lhs.false, !dbg !1302

lor.lhs.false:                                    ; preds = %entry
  %arrayidx2 = getelementptr inbounds [3 x double], [3 x double]* %Test, i64 0, i64 0, !dbg !1303
  %8 = load double, double* %arrayidx2, align 16, !dbg !1303
  %9 = load %"struct.pov::HField_Struct"*, %"struct.pov::HField_Struct"** %HField, align 8, !dbg !1304
  %bounding_corner2 = getelementptr inbounds %"struct.pov::HField_Struct", %"struct.pov::HField_Struct"* %9, i32 0, i32 15, !dbg !1305
  %arrayidx3 = getelementptr inbounds [3 x double], [3 x double]* %bounding_corner2, i64 0, i64 0, !dbg !1304
  %10 = load double, double* %arrayidx3, align 8, !dbg !1304
  %cmp4 = fcmp oge double %8, %10, !dbg !1306
  br i1 %cmp4, label %if.then, label %lor.lhs.false5, !dbg !1307

lor.lhs.false5:                                   ; preds = %lor.lhs.false
  %arrayidx6 = getelementptr inbounds [3 x double], [3 x double]* %Test, i64 0, i64 2, !dbg !1308
  %11 = load double, double* %arrayidx6, align 16, !dbg !1308
  %cmp7 = fcmp olt double %11, 0.000000e+00, !dbg !1309
  br i1 %cmp7, label %if.then, label %lor.lhs.false8, !dbg !1310

lor.lhs.false8:                                   ; preds = %lor.lhs.false5
  %arrayidx9 = getelementptr inbounds [3 x double], [3 x double]* %Test, i64 0, i64 2, !dbg !1311
  %12 = load double, double* %arrayidx9, align 16, !dbg !1311
  %13 = load %"struct.pov::HField_Struct"*, %"struct.pov::HField_Struct"** %HField, align 8, !dbg !1312
  %bounding_corner210 = getelementptr inbounds %"struct.pov::HField_Struct", %"struct.pov::HField_Struct"* %13, i32 0, i32 15, !dbg !1313
  %arrayidx11 = getelementptr inbounds [3 x double], [3 x double]* %bounding_corner210, i64 0, i64 2, !dbg !1312
  %14 = load double, double* %arrayidx11, align 8, !dbg !1312
  %cmp12 = fcmp oge double %12, %14, !dbg !1314
  br i1 %cmp12, label %if.then, label %if.end, !dbg !1315

if.then:                                          ; preds = %lor.lhs.false8, %lor.lhs.false5, %lor.lhs.false, %entry
  %15 = load %"struct.pov::HField_Struct"*, %"struct.pov::HField_Struct"** %HField, align 8, !dbg !1316
  %Flags = getelementptr inbounds %"struct.pov::HField_Struct", %"struct.pov::HField_Struct"* %15, i32 0, i32 13, !dbg !1316
  %16 = load i32, i32* %Flags, align 4, !dbg !1316
  %conv = zext i32 %16 to i64, !dbg !1316
  %and = and i64 %conv, 4, !dbg !1316
  %conv13 = trunc i64 %and to i32, !dbg !1318
  store i32 %conv13, i32* %retval, align 4, !dbg !1319
  br label %return, !dbg !1319

if.end:                                           ; preds = %lor.lhs.false8
  %arrayidx14 = getelementptr inbounds [3 x double], [3 x double]* %Test, i64 0, i64 1, !dbg !1320
  %17 = load double, double* %arrayidx14, align 8, !dbg !1320
  %18 = load %"struct.pov::HField_Struct"*, %"struct.pov::HField_Struct"** %HField, align 8, !dbg !1322
  %bounding_corner215 = getelementptr inbounds %"struct.pov::HField_Struct", %"struct.pov::HField_Struct"* %18, i32 0, i32 15, !dbg !1323
  %arrayidx16 = getelementptr inbounds [3 x double], [3 x double]* %bounding_corner215, i64 0, i64 1, !dbg !1322
  %19 = load double, double* %arrayidx16, align 8, !dbg !1322
  %cmp17 = fcmp oge double %17, %19, !dbg !1324
  br i1 %cmp17, label %if.then18, label %if.end23, !dbg !1325

if.then18:                                        ; preds = %if.end
  %20 = load %"struct.pov::HField_Struct"*, %"struct.pov::HField_Struct"** %HField, align 8, !dbg !1326
  %Flags19 = getelementptr inbounds %"struct.pov::HField_Struct", %"struct.pov::HField_Struct"* %20, i32 0, i32 13, !dbg !1326
  %21 = load i32, i32* %Flags19, align 4, !dbg !1326
  %conv20 = zext i32 %21 to i64, !dbg !1326
  %and21 = and i64 %conv20, 4, !dbg !1326
  %conv22 = trunc i64 %and21 to i32, !dbg !1328
  store i32 %conv22, i32* %retval, align 4, !dbg !1329
  br label %return, !dbg !1329

if.end23:                                         ; preds = %if.end
  %arrayidx24 = getelementptr inbounds [3 x double], [3 x double]* %Test, i64 0, i64 1, !dbg !1330
  %22 = load double, double* %arrayidx24, align 8, !dbg !1330
  %23 = load double, double* %water, align 8, !dbg !1332
  %cmp25 = fcmp olt double %22, %23, !dbg !1333
  br i1 %cmp25, label %if.then26, label %if.end31, !dbg !1334

if.then26:                                        ; preds = %if.end23
  %24 = load %"struct.pov::HField_Struct"*, %"struct.pov::HField_Struct"** %HField, align 8, !dbg !1335
  %Flags27 = getelementptr inbounds %"struct.pov::HField_Struct", %"struct.pov::HField_Struct"* %24, i32 0, i32 13, !dbg !1335
  %25 = load i32, i32* %Flags27, align 4, !dbg !1335
  %conv28 = zext i32 %25 to i64, !dbg !1335
  %and29 = and i64 %conv28, 4, !dbg !1335
  %tobool = icmp ne i64 %and29, 0, !dbg !1335
  %lnot = xor i1 %tobool, true, !dbg !1337
  %conv30 = zext i1 %lnot to i32, !dbg !1338
  store i32 %conv30, i32* %retval, align 4, !dbg !1339
  br label %return, !dbg !1339

if.end31:                                         ; preds = %if.end23
  %arrayidx32 = getelementptr inbounds [3 x double], [3 x double]* %Test, i64 0, i64 0, !dbg !1340
  %26 = load double, double* %arrayidx32, align 16, !dbg !1340
  %conv33 = fptosi double %26 to i32, !dbg !1340
  store i32 %conv33, i32* %px, align 4, !dbg !1341
  %arrayidx34 = getelementptr inbounds [3 x double], [3 x double]* %Test, i64 0, i64 2, !dbg !1342
  %27 = load double, double* %arrayidx34, align 16, !dbg !1342
  %conv35 = fptosi double %27 to i32, !dbg !1342
  store i32 %conv35, i32* %pz, align 4, !dbg !1343
  %arrayidx36 = getelementptr inbounds [3 x double], [3 x double]* %Test, i64 0, i64 0, !dbg !1344
  %28 = load double, double* %arrayidx36, align 16, !dbg !1344
  %29 = load i32, i32* %px, align 4, !dbg !1345
  %conv37 = sitofp i32 %29 to double, !dbg !1345
  %sub = fsub double %28, %conv37, !dbg !1346
  store double %sub, double* %x, align 8, !dbg !1347
  %arrayidx38 = getelementptr inbounds [3 x double], [3 x double]* %Test, i64 0, i64 2, !dbg !1348
  %30 = load double, double* %arrayidx38, align 16, !dbg !1348
  %31 = load i32, i32* %pz, align 4, !dbg !1349
  %conv39 = sitofp i32 %31 to double, !dbg !1349
  %sub40 = fsub double %30, %conv39, !dbg !1350
  store double %sub40, double* %z, align 8, !dbg !1351
  %32 = load double, double* %x, align 8, !dbg !1352
  %33 = load double, double* %z, align 8, !dbg !1354
  %add = fadd double %32, %33, !dbg !1355
  %cmp41 = fcmp olt double %add, 1.000000e+00, !dbg !1356
  br i1 %cmp41, label %if.then42, label %if.else, !dbg !1357

if.then42:                                        ; preds = %if.end31
  %34 = load %"struct.pov::HField_Struct"*, %"struct.pov::HField_Struct"** %HField, align 8, !dbg !1358
  %Data = getelementptr inbounds %"struct.pov::HField_Struct", %"struct.pov::HField_Struct"* %34, i32 0, i32 16, !dbg !1358
  %35 = load %"struct.pov::HField_Data_Struct"*, %"struct.pov::HField_Data_Struct"** %Data, align 8, !dbg !1358
  %Map = getelementptr inbounds %"struct.pov::HField_Data_Struct", %"struct.pov::HField_Data_Struct"* %35, i32 0, i32 11, !dbg !1358
  %36 = load i16**, i16*** %Map, align 8, !dbg !1358
  %37 = load i32, i32* %pz, align 4, !dbg !1358
  %idxprom = sext i32 %37 to i64, !dbg !1358
  %arrayidx43 = getelementptr inbounds i16*, i16** %36, i64 %idxprom, !dbg !1358
  %38 = load i16*, i16** %arrayidx43, align 8, !dbg !1358
  %39 = load i32, i32* %px, align 4, !dbg !1358
  %idxprom44 = sext i32 %39 to i64, !dbg !1358
  %arrayidx45 = getelementptr inbounds i16, i16* %38, i64 %idxprom44, !dbg !1358
  %40 = load i16, i16* %arrayidx45, align 2, !dbg !1358
  %conv46 = uitofp i16 %40 to double, !dbg !1358
  store double %conv46, double* %ref.tmp, align 8, !dbg !1358
  %call = call dereferenceable(8) double* @_ZSt3maxIdERKT_S2_S2_(double* dereferenceable(8) %ref.tmp, double* dereferenceable(8) %water), !dbg !1360
  %41 = load double, double* %call, align 8, !dbg !1360
  store double %41, double* %y1, align 8, !dbg !1361
  %42 = load %"struct.pov::HField_Struct"*, %"struct.pov::HField_Struct"** %HField, align 8, !dbg !1362
  %Data48 = getelementptr inbounds %"struct.pov::HField_Struct", %"struct.pov::HField_Struct"* %42, i32 0, i32 16, !dbg !1362
  %43 = load %"struct.pov::HField_Data_Struct"*, %"struct.pov::HField_Data_Struct"** %Data48, align 8, !dbg !1362
  %Map49 = getelementptr inbounds %"struct.pov::HField_Data_Struct", %"struct.pov::HField_Data_Struct"* %43, i32 0, i32 11, !dbg !1362
  %44 = load i16**, i16*** %Map49, align 8, !dbg !1362
  %45 = load i32, i32* %pz, align 4, !dbg !1362
  %idxprom50 = sext i32 %45 to i64, !dbg !1362
  %arrayidx51 = getelementptr inbounds i16*, i16** %44, i64 %idxprom50, !dbg !1362
  %46 = load i16*, i16** %arrayidx51, align 8, !dbg !1362
  %47 = load i32, i32* %px, align 4, !dbg !1362
  %add52 = add nsw i32 %47, 1, !dbg !1362
  %idxprom53 = sext i32 %add52 to i64, !dbg !1362
  %arrayidx54 = getelementptr inbounds i16, i16* %46, i64 %idxprom53, !dbg !1362
  %48 = load i16, i16* %arrayidx54, align 2, !dbg !1362
  %conv55 = uitofp i16 %48 to double, !dbg !1362
  store double %conv55, double* %ref.tmp47, align 8, !dbg !1362
  %call56 = call dereferenceable(8) double* @_ZSt3maxIdERKT_S2_S2_(double* dereferenceable(8) %ref.tmp47, double* dereferenceable(8) %water), !dbg !1363
  %49 = load double, double* %call56, align 8, !dbg !1363
  store double %49, double* %y2, align 8, !dbg !1364
  %50 = load %"struct.pov::HField_Struct"*, %"struct.pov::HField_Struct"** %HField, align 8, !dbg !1365
  %Data58 = getelementptr inbounds %"struct.pov::HField_Struct", %"struct.pov::HField_Struct"* %50, i32 0, i32 16, !dbg !1365
  %51 = load %"struct.pov::HField_Data_Struct"*, %"struct.pov::HField_Data_Struct"** %Data58, align 8, !dbg !1365
  %Map59 = getelementptr inbounds %"struct.pov::HField_Data_Struct", %"struct.pov::HField_Data_Struct"* %51, i32 0, i32 11, !dbg !1365
  %52 = load i16**, i16*** %Map59, align 8, !dbg !1365
  %53 = load i32, i32* %pz, align 4, !dbg !1365
  %add60 = add nsw i32 %53, 1, !dbg !1365
  %idxprom61 = sext i32 %add60 to i64, !dbg !1365
  %arrayidx62 = getelementptr inbounds i16*, i16** %52, i64 %idxprom61, !dbg !1365
  %54 = load i16*, i16** %arrayidx62, align 8, !dbg !1365
  %55 = load i32, i32* %px, align 4, !dbg !1365
  %idxprom63 = sext i32 %55 to i64, !dbg !1365
  %arrayidx64 = getelementptr inbounds i16, i16* %54, i64 %idxprom63, !dbg !1365
  %56 = load i16, i16* %arrayidx64, align 2, !dbg !1365
  %conv65 = uitofp i16 %56 to double, !dbg !1365
  store double %conv65, double* %ref.tmp57, align 8, !dbg !1365
  %call66 = call dereferenceable(8) double* @_ZSt3maxIdERKT_S2_S2_(double* dereferenceable(8) %ref.tmp57, double* dereferenceable(8) %water), !dbg !1366
  %57 = load double, double* %call66, align 8, !dbg !1366
  store double %57, double* %y3, align 8, !dbg !1367
  %arraydecay67 = getelementptr inbounds [3 x double], [3 x double]* %Local_Origin, i64 0, i64 0, !dbg !1368
  %58 = load i32, i32* %px, align 4, !dbg !1369
  %conv68 = sitofp i32 %58 to double, !dbg !1369
  %59 = load double, double* %y1, align 8, !dbg !1370
  %60 = load i32, i32* %pz, align 4, !dbg !1371
  %conv69 = sitofp i32 %60 to double, !dbg !1371
  call void @_ZN3pov11Make_VectorEPdddd(double* %arraydecay67, double %conv68, double %59, double %conv69), !dbg !1372
  %arraydecay70 = getelementptr inbounds [3 x double], [3 x double]* %H_Normal, i64 0, i64 0, !dbg !1373
  %61 = load double, double* %y1, align 8, !dbg !1374
  %62 = load double, double* %y2, align 8, !dbg !1375
  %sub71 = fsub double %61, %62, !dbg !1376
  %63 = load double, double* %y1, align 8, !dbg !1377
  %64 = load double, double* %y3, align 8, !dbg !1378
  %sub72 = fsub double %63, %64, !dbg !1379
  call void @_ZN3pov11Make_VectorEPdddd(double* %arraydecay70, double %sub71, double 1.000000e+00, double %sub72), !dbg !1380
  br label %if.end112, !dbg !1381

if.else:                                          ; preds = %if.end31
  %arrayidx73 = getelementptr inbounds [3 x double], [3 x double]* %Test, i64 0, i64 0, !dbg !1382
  %65 = load double, double* %arrayidx73, align 16, !dbg !1382
  %66 = call double @llvm.ceil.f64(double %65), !dbg !1384
  %conv74 = fptosi double %66 to i32, !dbg !1384
  store i32 %conv74, i32* %px, align 4, !dbg !1385
  %arrayidx75 = getelementptr inbounds [3 x double], [3 x double]* %Test, i64 0, i64 2, !dbg !1386
  %67 = load double, double* %arrayidx75, align 16, !dbg !1386
  %68 = call double @llvm.ceil.f64(double %67), !dbg !1387
  %conv76 = fptosi double %68 to i32, !dbg !1387
  store i32 %conv76, i32* %pz, align 4, !dbg !1388
  %69 = load %"struct.pov::HField_Struct"*, %"struct.pov::HField_Struct"** %HField, align 8, !dbg !1389
  %Data78 = getelementptr inbounds %"struct.pov::HField_Struct", %"struct.pov::HField_Struct"* %69, i32 0, i32 16, !dbg !1389
  %70 = load %"struct.pov::HField_Data_Struct"*, %"struct.pov::HField_Data_Struct"** %Data78, align 8, !dbg !1389
  %Map79 = getelementptr inbounds %"struct.pov::HField_Data_Struct", %"struct.pov::HField_Data_Struct"* %70, i32 0, i32 11, !dbg !1389
  %71 = load i16**, i16*** %Map79, align 8, !dbg !1389
  %72 = load i32, i32* %pz, align 4, !dbg !1389
  %idxprom80 = sext i32 %72 to i64, !dbg !1389
  %arrayidx81 = getelementptr inbounds i16*, i16** %71, i64 %idxprom80, !dbg !1389
  %73 = load i16*, i16** %arrayidx81, align 8, !dbg !1389
  %74 = load i32, i32* %px, align 4, !dbg !1389
  %idxprom82 = sext i32 %74 to i64, !dbg !1389
  %arrayidx83 = getelementptr inbounds i16, i16* %73, i64 %idxprom82, !dbg !1389
  %75 = load i16, i16* %arrayidx83, align 2, !dbg !1389
  %conv84 = uitofp i16 %75 to double, !dbg !1389
  store double %conv84, double* %ref.tmp77, align 8, !dbg !1389
  %call85 = call dereferenceable(8) double* @_ZSt3maxIdERKT_S2_S2_(double* dereferenceable(8) %ref.tmp77, double* dereferenceable(8) %water), !dbg !1390
  %76 = load double, double* %call85, align 8, !dbg !1390
  store double %76, double* %y1, align 8, !dbg !1391
  %77 = load %"struct.pov::HField_Struct"*, %"struct.pov::HField_Struct"** %HField, align 8, !dbg !1392
  %Data87 = getelementptr inbounds %"struct.pov::HField_Struct", %"struct.pov::HField_Struct"* %77, i32 0, i32 16, !dbg !1392
  %78 = load %"struct.pov::HField_Data_Struct"*, %"struct.pov::HField_Data_Struct"** %Data87, align 8, !dbg !1392
  %Map88 = getelementptr inbounds %"struct.pov::HField_Data_Struct", %"struct.pov::HField_Data_Struct"* %78, i32 0, i32 11, !dbg !1392
  %79 = load i16**, i16*** %Map88, align 8, !dbg !1392
  %80 = load i32, i32* %pz, align 4, !dbg !1392
  %idxprom89 = sext i32 %80 to i64, !dbg !1392
  %arrayidx90 = getelementptr inbounds i16*, i16** %79, i64 %idxprom89, !dbg !1392
  %81 = load i16*, i16** %arrayidx90, align 8, !dbg !1392
  %82 = load i32, i32* %px, align 4, !dbg !1392
  %sub91 = sub nsw i32 %82, 1, !dbg !1392
  %idxprom92 = sext i32 %sub91 to i64, !dbg !1392
  %arrayidx93 = getelementptr inbounds i16, i16* %81, i64 %idxprom92, !dbg !1392
  %83 = load i16, i16* %arrayidx93, align 2, !dbg !1392
  %conv94 = uitofp i16 %83 to double, !dbg !1392
  store double %conv94, double* %ref.tmp86, align 8, !dbg !1392
  %call95 = call dereferenceable(8) double* @_ZSt3maxIdERKT_S2_S2_(double* dereferenceable(8) %ref.tmp86, double* dereferenceable(8) %water), !dbg !1393
  %84 = load double, double* %call95, align 8, !dbg !1393
  store double %84, double* %y2, align 8, !dbg !1394
  %85 = load %"struct.pov::HField_Struct"*, %"struct.pov::HField_Struct"** %HField, align 8, !dbg !1395
  %Data97 = getelementptr inbounds %"struct.pov::HField_Struct", %"struct.pov::HField_Struct"* %85, i32 0, i32 16, !dbg !1395
  %86 = load %"struct.pov::HField_Data_Struct"*, %"struct.pov::HField_Data_Struct"** %Data97, align 8, !dbg !1395
  %Map98 = getelementptr inbounds %"struct.pov::HField_Data_Struct", %"struct.pov::HField_Data_Struct"* %86, i32 0, i32 11, !dbg !1395
  %87 = load i16**, i16*** %Map98, align 8, !dbg !1395
  %88 = load i32, i32* %pz, align 4, !dbg !1395
  %sub99 = sub nsw i32 %88, 1, !dbg !1395
  %idxprom100 = sext i32 %sub99 to i64, !dbg !1395
  %arrayidx101 = getelementptr inbounds i16*, i16** %87, i64 %idxprom100, !dbg !1395
  %89 = load i16*, i16** %arrayidx101, align 8, !dbg !1395
  %90 = load i32, i32* %px, align 4, !dbg !1395
  %idxprom102 = sext i32 %90 to i64, !dbg !1395
  %arrayidx103 = getelementptr inbounds i16, i16* %89, i64 %idxprom102, !dbg !1395
  %91 = load i16, i16* %arrayidx103, align 2, !dbg !1395
  %conv104 = uitofp i16 %91 to double, !dbg !1395
  store double %conv104, double* %ref.tmp96, align 8, !dbg !1395
  %call105 = call dereferenceable(8) double* @_ZSt3maxIdERKT_S2_S2_(double* dereferenceable(8) %ref.tmp96, double* dereferenceable(8) %water), !dbg !1396
  %92 = load double, double* %call105, align 8, !dbg !1396
  store double %92, double* %y3, align 8, !dbg !1397
  %arraydecay106 = getelementptr inbounds [3 x double], [3 x double]* %Local_Origin, i64 0, i64 0, !dbg !1398
  %93 = load i32, i32* %px, align 4, !dbg !1399
  %conv107 = sitofp i32 %93 to double, !dbg !1399
  %94 = load double, double* %y1, align 8, !dbg !1400
  %95 = load i32, i32* %pz, align 4, !dbg !1401
  %conv108 = sitofp i32 %95 to double, !dbg !1401
  call void @_ZN3pov11Make_VectorEPdddd(double* %arraydecay106, double %conv107, double %94, double %conv108), !dbg !1402
  %arraydecay109 = getelementptr inbounds [3 x double], [3 x double]* %H_Normal, i64 0, i64 0, !dbg !1403
  %96 = load double, double* %y2, align 8, !dbg !1404
  %97 = load double, double* %y1, align 8, !dbg !1405
  %sub110 = fsub double %96, %97, !dbg !1406
  %98 = load double, double* %y3, align 8, !dbg !1407
  %99 = load double, double* %y1, align 8, !dbg !1408
  %sub111 = fsub double %98, %99, !dbg !1409
  call void @_ZN3pov11Make_VectorEPdddd(double* %arraydecay109, double %sub110, double 1.000000e+00, double %sub111), !dbg !1410
  br label %if.end112

if.end112:                                        ; preds = %if.else, %if.then42
  %arraydecay113 = getelementptr inbounds [3 x double], [3 x double]* %Test, i64 0, i64 0, !dbg !1411
  %arraydecay114 = getelementptr inbounds [3 x double], [3 x double]* %H_Normal, i64 0, i64 0, !dbg !1412
  call void @_ZN3pov4VDotERdPKdS2_(double* dereferenceable(8) %dot1, double* %arraydecay113, double* %arraydecay114), !dbg !1413
  %arraydecay115 = getelementptr inbounds [3 x double], [3 x double]* %Local_Origin, i64 0, i64 0, !dbg !1414
  %arraydecay116 = getelementptr inbounds [3 x double], [3 x double]* %H_Normal, i64 0, i64 0, !dbg !1415
  call void @_ZN3pov4VDotERdPKdS2_(double* dereferenceable(8) %dot2, double* %arraydecay115, double* %arraydecay116), !dbg !1416
  %100 = load double, double* %dot1, align 8, !dbg !1417
  %101 = load double, double* %dot2, align 8, !dbg !1419
  %cmp117 = fcmp olt double %100, %101, !dbg !1420
  br i1 %cmp117, label %if.then118, label %if.end125, !dbg !1421

if.then118:                                       ; preds = %if.end112
  %102 = load %"struct.pov::HField_Struct"*, %"struct.pov::HField_Struct"** %HField, align 8, !dbg !1422
  %Flags119 = getelementptr inbounds %"struct.pov::HField_Struct", %"struct.pov::HField_Struct"* %102, i32 0, i32 13, !dbg !1422
  %103 = load i32, i32* %Flags119, align 4, !dbg !1422
  %conv120 = zext i32 %103 to i64, !dbg !1422
  %and121 = and i64 %conv120, 4, !dbg !1422
  %tobool122 = icmp ne i64 %and121, 0, !dbg !1422
  %lnot123 = xor i1 %tobool122, true, !dbg !1424
  %conv124 = zext i1 %lnot123 to i32, !dbg !1425
  store i32 %conv124, i32* %retval, align 4, !dbg !1426
  br label %return, !dbg !1426

if.end125:                                        ; preds = %if.end112
  %104 = load %"struct.pov::HField_Struct"*, %"struct.pov::HField_Struct"** %HField, align 8, !dbg !1427
  %Flags126 = getelementptr inbounds %"struct.pov::HField_Struct", %"struct.pov::HField_Struct"* %104, i32 0, i32 13, !dbg !1427
  %105 = load i32, i32* %Flags126, align 4, !dbg !1427
  %conv127 = zext i32 %105 to i64, !dbg !1427
  %and128 = and i64 %conv127, 4, !dbg !1427
  %conv129 = trunc i64 %and128 to i32, !dbg !1428
  store i32 %conv129, i32* %retval, align 4, !dbg !1429
  br label %return, !dbg !1429

return:                                           ; preds = %if.end125, %if.then118, %if.then26, %if.then18, %if.then
  %106 = load i32, i32* %retval, align 4, !dbg !1430
  ret i32 %106, !dbg !1430
}

; Function Attrs: noinline uwtable
define internal void @_ZN3povL13HField_NormalEPdPNS_13Object_StructEPNS_10istk_entryE(double* %Result, %"struct.pov::Object_Struct"* %Object, %"struct.pov::istk_entry"* %Inter) #0 !dbg !1431 {
entry:
  %Result.addr = alloca double*, align 8
  %Object.addr = alloca %"struct.pov::Object_Struct"*, align 8
  %Inter.addr = alloca %"struct.pov::istk_entry"*, align 8
  %HField = alloca %"struct.pov::HField_Struct"*, align 8
  %px = alloca i32, align 4
  %pz = alloca i32, align 4
  %i = alloca i32, align 4
  %x = alloca double, align 8
  %z = alloca double, align 8
  %y1 = alloca double, align 8
  %y2 = alloca double, align 8
  %y3 = alloca double, align 8
  %u = alloca double, align 8
  %v = alloca double, align 8
  %Local_Origin = alloca [3 x double], align 16
  %n = alloca [5 x [3 x double]], align 16
  store double* %Result, double** %Result.addr, align 8
  call void @llvm.dbg.declare(metadata double** %Result.addr, metadata !1432, metadata !DIExpression()), !dbg !1433
  store %"struct.pov::Object_Struct"* %Object, %"struct.pov::Object_Struct"** %Object.addr, align 8
  call void @llvm.dbg.declare(metadata %"struct.pov::Object_Struct"** %Object.addr, metadata !1434, metadata !DIExpression()), !dbg !1435
  store %"struct.pov::istk_entry"* %Inter, %"struct.pov::istk_entry"** %Inter.addr, align 8
  call void @llvm.dbg.declare(metadata %"struct.pov::istk_entry"** %Inter.addr, metadata !1436, metadata !DIExpression()), !dbg !1437
  call void @llvm.dbg.declare(metadata %"struct.pov::HField_Struct"** %HField, metadata !1438, metadata !DIExpression()), !dbg !1439
  %0 = load %"struct.pov::Object_Struct"*, %"struct.pov::Object_Struct"** %Object.addr, align 8, !dbg !1440
  %1 = bitcast %"struct.pov::Object_Struct"* %0 to %"struct.pov::HField_Struct"*, !dbg !1441
  store %"struct.pov::HField_Struct"* %1, %"struct.pov::HField_Struct"** %HField, align 8, !dbg !1439
  call void @llvm.dbg.declare(metadata i32* %px, metadata !1442, metadata !DIExpression()), !dbg !1443
  call void @llvm.dbg.declare(metadata i32* %pz, metadata !1444, metadata !DIExpression()), !dbg !1445
  call void @llvm.dbg.declare(metadata i32* %i, metadata !1446, metadata !DIExpression()), !dbg !1447
  call void @llvm.dbg.declare(metadata double* %x, metadata !1448, metadata !DIExpression()), !dbg !1449
  call void @llvm.dbg.declare(metadata double* %z, metadata !1450, metadata !DIExpression()), !dbg !1451
  call void @llvm.dbg.declare(metadata double* %y1, metadata !1452, metadata !DIExpression()), !dbg !1453
  call void @llvm.dbg.declare(metadata double* %y2, metadata !1454, metadata !DIExpression()), !dbg !1455
  call void @llvm.dbg.declare(metadata double* %y3, metadata !1456, metadata !DIExpression()), !dbg !1457
  call void @llvm.dbg.declare(metadata double* %u, metadata !1458, metadata !DIExpression()), !dbg !1459
  call void @llvm.dbg.declare(metadata double* %v, metadata !1460, metadata !DIExpression()), !dbg !1461
  call void @llvm.dbg.declare(metadata [3 x double]* %Local_Origin, metadata !1462, metadata !DIExpression()), !dbg !1463
  call void @llvm.dbg.declare(metadata [5 x [3 x double]]* %n, metadata !1464, metadata !DIExpression()), !dbg !1468
  %arraydecay = getelementptr inbounds [3 x double], [3 x double]* %Local_Origin, i64 0, i64 0, !dbg !1469
  %2 = load %"struct.pov::istk_entry"*, %"struct.pov::istk_entry"** %Inter.addr, align 8, !dbg !1470
  %IPoint = getelementptr inbounds %"struct.pov::istk_entry", %"struct.pov::istk_entry"* %2, i32 0, i32 1, !dbg !1471
  %arraydecay1 = getelementptr inbounds [3 x double], [3 x double]* %IPoint, i64 0, i64 0, !dbg !1470
  %3 = load %"struct.pov::HField_Struct"*, %"struct.pov::HField_Struct"** %HField, align 8, !dbg !1472
  %Trans = getelementptr inbounds %"struct.pov::HField_Struct", %"struct.pov::HField_Struct"* %3, i32 0, i32 10, !dbg !1473
  %4 = load %"struct.pov::Transform_Struct"*, %"struct.pov::Transform_Struct"** %Trans, align 8, !dbg !1473
  call void @_ZN3pov14MInvTransPointEPdS0_PNS_16Transform_StructE(double* %arraydecay, double* %arraydecay1, %"struct.pov::Transform_Struct"* %4), !dbg !1474
  store i32 0, i32* %i, align 4, !dbg !1475
  br label %for.cond, !dbg !1477

for.cond:                                         ; preds = %for.inc, %entry
  %5 = load i32, i32* %i, align 4, !dbg !1478
  %6 = load %"struct.pov::HField_Struct"*, %"struct.pov::HField_Struct"** %HField, align 8, !dbg !1480
  %Data = getelementptr inbounds %"struct.pov::HField_Struct", %"struct.pov::HField_Struct"* %6, i32 0, i32 16, !dbg !1481
  %7 = load %"struct.pov::HField_Data_Struct"*, %"struct.pov::HField_Data_Struct"** %Data, align 8, !dbg !1481
  %cache_pos = getelementptr inbounds %"struct.pov::HField_Data_Struct", %"struct.pov::HField_Data_Struct"* %7, i32 0, i32 1, !dbg !1482
  %8 = load i32, i32* %cache_pos, align 4, !dbg !1482
  %cmp = icmp slt i32 %5, %8, !dbg !1483
  br i1 %cmp, label %for.body, label %for.end, !dbg !1484

for.body:                                         ; preds = %for.cond
  %arrayidx = getelementptr inbounds [3 x double], [3 x double]* %Local_Origin, i64 0, i64 0, !dbg !1485
  %9 = load double, double* %arrayidx, align 16, !dbg !1485
  %10 = load %"struct.pov::HField_Struct"*, %"struct.pov::HField_Struct"** %HField, align 8, !dbg !1488
  %Data2 = getelementptr inbounds %"struct.pov::HField_Struct", %"struct.pov::HField_Struct"* %10, i32 0, i32 16, !dbg !1489
  %11 = load %"struct.pov::HField_Data_Struct"*, %"struct.pov::HField_Data_Struct"** %Data2, align 8, !dbg !1489
  %Normal_Cache = getelementptr inbounds %"struct.pov::HField_Data_Struct", %"struct.pov::HField_Data_Struct"* %11, i32 0, i32 13, !dbg !1490
  %12 = load i32, i32* %i, align 4, !dbg !1491
  %idxprom = sext i32 %12 to i64, !dbg !1488
  %arrayidx3 = getelementptr inbounds [16 x %"struct.pov::HField_Normal_Struct"], [16 x %"struct.pov::HField_Normal_Struct"]* %Normal_Cache, i64 0, i64 %idxprom, !dbg !1488
  %fx = getelementptr inbounds %"struct.pov::HField_Normal_Struct", %"struct.pov::HField_Normal_Struct"* %arrayidx3, i32 0, i32 0, !dbg !1492
  %13 = load double, double* %fx, align 8, !dbg !1492
  %cmp4 = fcmp oeq double %9, %13, !dbg !1493
  br i1 %cmp4, label %land.lhs.true, label %if.end, !dbg !1494

land.lhs.true:                                    ; preds = %for.body
  %arrayidx5 = getelementptr inbounds [3 x double], [3 x double]* %Local_Origin, i64 0, i64 2, !dbg !1495
  %14 = load double, double* %arrayidx5, align 16, !dbg !1495
  %15 = load %"struct.pov::HField_Struct"*, %"struct.pov::HField_Struct"** %HField, align 8, !dbg !1496
  %Data6 = getelementptr inbounds %"struct.pov::HField_Struct", %"struct.pov::HField_Struct"* %15, i32 0, i32 16, !dbg !1497
  %16 = load %"struct.pov::HField_Data_Struct"*, %"struct.pov::HField_Data_Struct"** %Data6, align 8, !dbg !1497
  %Normal_Cache7 = getelementptr inbounds %"struct.pov::HField_Data_Struct", %"struct.pov::HField_Data_Struct"* %16, i32 0, i32 13, !dbg !1498
  %17 = load i32, i32* %i, align 4, !dbg !1499
  %idxprom8 = sext i32 %17 to i64, !dbg !1496
  %arrayidx9 = getelementptr inbounds [16 x %"struct.pov::HField_Normal_Struct"], [16 x %"struct.pov::HField_Normal_Struct"]* %Normal_Cache7, i64 0, i64 %idxprom8, !dbg !1496
  %fz = getelementptr inbounds %"struct.pov::HField_Normal_Struct", %"struct.pov::HField_Normal_Struct"* %arrayidx9, i32 0, i32 1, !dbg !1500
  %18 = load double, double* %fz, align 8, !dbg !1500
  %cmp10 = fcmp oeq double %14, %18, !dbg !1501
  br i1 %cmp10, label %if.then, label %if.end, !dbg !1502

if.then:                                          ; preds = %land.lhs.true
  %19 = load double*, double** %Result.addr, align 8, !dbg !1503
  %20 = load %"struct.pov::HField_Struct"*, %"struct.pov::HField_Struct"** %HField, align 8, !dbg !1505
  %Data11 = getelementptr inbounds %"struct.pov::HField_Struct", %"struct.pov::HField_Struct"* %20, i32 0, i32 16, !dbg !1506
  %21 = load %"struct.pov::HField_Data_Struct"*, %"struct.pov::HField_Data_Struct"** %Data11, align 8, !dbg !1506
  %Normal_Cache12 = getelementptr inbounds %"struct.pov::HField_Data_Struct", %"struct.pov::HField_Data_Struct"* %21, i32 0, i32 13, !dbg !1507
  %22 = load i32, i32* %i, align 4, !dbg !1508
  %idxprom13 = sext i32 %22 to i64, !dbg !1505
  %arrayidx14 = getelementptr inbounds [16 x %"struct.pov::HField_Normal_Struct"], [16 x %"struct.pov::HField_Normal_Struct"]* %Normal_Cache12, i64 0, i64 %idxprom13, !dbg !1505
  %normal = getelementptr inbounds %"struct.pov::HField_Normal_Struct", %"struct.pov::HField_Normal_Struct"* %arrayidx14, i32 0, i32 2, !dbg !1509
  %arraydecay15 = getelementptr inbounds [3 x double], [3 x double]* %normal, i64 0, i64 0, !dbg !1505
  call void @_ZN3pov13Assign_VectorEPdS0_(double* %19, double* %arraydecay15), !dbg !1510
  %23 = load double*, double** %Result.addr, align 8, !dbg !1511
  %24 = load double*, double** %Result.addr, align 8, !dbg !1512
  %25 = load %"struct.pov::HField_Struct"*, %"struct.pov::HField_Struct"** %HField, align 8, !dbg !1513
  %Trans16 = getelementptr inbounds %"struct.pov::HField_Struct", %"struct.pov::HField_Struct"* %25, i32 0, i32 10, !dbg !1514
  %26 = load %"struct.pov::Transform_Struct"*, %"struct.pov::Transform_Struct"** %Trans16, align 8, !dbg !1514
  call void @_ZN3pov12MTransNormalEPdS0_PNS_16Transform_StructE(double* %23, double* %24, %"struct.pov::Transform_Struct"* %26), !dbg !1515
  %27 = load double*, double** %Result.addr, align 8, !dbg !1516
  %28 = load double*, double** %Result.addr, align 8, !dbg !1517
  call void @_ZN3pov10VNormalizeEPdPKd(double* %27, double* %28), !dbg !1518
  br label %return, !dbg !1519

if.end:                                           ; preds = %land.lhs.true, %for.body
  br label %for.inc, !dbg !1520

for.inc:                                          ; preds = %if.end
  %29 = load i32, i32* %i, align 4, !dbg !1521
  %inc = add nsw i32 %29, 1, !dbg !1521
  store i32 %inc, i32* %i, align 4, !dbg !1521
  br label %for.cond, !dbg !1522, !llvm.loop !1523

for.end:                                          ; preds = %for.cond
  %arrayidx17 = getelementptr inbounds [3 x double], [3 x double]* %Local_Origin, i64 0, i64 0, !dbg !1525
  %30 = load double, double* %arrayidx17, align 16, !dbg !1525
  %conv = fptosi double %30 to i32, !dbg !1525
  store i32 %conv, i32* %px, align 4, !dbg !1526
  %arrayidx18 = getelementptr inbounds [3 x double], [3 x double]* %Local_Origin, i64 0, i64 2, !dbg !1527
  %31 = load double, double* %arrayidx18, align 16, !dbg !1527
  %conv19 = fptosi double %31 to i32, !dbg !1527
  store i32 %conv19, i32* %pz, align 4, !dbg !1528
  %32 = load i32, i32* %px, align 4, !dbg !1529
  %33 = load %"struct.pov::HField_Struct"*, %"struct.pov::HField_Struct"** %HField, align 8, !dbg !1531
  %Data20 = getelementptr inbounds %"struct.pov::HField_Struct", %"struct.pov::HField_Struct"* %33, i32 0, i32 16, !dbg !1532
  %34 = load %"struct.pov::HField_Data_Struct"*, %"struct.pov::HField_Data_Struct"** %Data20, align 8, !dbg !1532
  %max_x = getelementptr inbounds %"struct.pov::HField_Data_Struct", %"struct.pov::HField_Data_Struct"* %34, i32 0, i32 3, !dbg !1533
  %35 = load i32, i32* %max_x, align 4, !dbg !1533
  %cmp21 = icmp sgt i32 %32, %35, !dbg !1534
  br i1 %cmp21, label %if.then22, label %if.end25, !dbg !1535

if.then22:                                        ; preds = %for.end
  %36 = load %"struct.pov::HField_Struct"*, %"struct.pov::HField_Struct"** %HField, align 8, !dbg !1536
  %Data23 = getelementptr inbounds %"struct.pov::HField_Struct", %"struct.pov::HField_Struct"* %36, i32 0, i32 16, !dbg !1537
  %37 = load %"struct.pov::HField_Data_Struct"*, %"struct.pov::HField_Data_Struct"** %Data23, align 8, !dbg !1537
  %max_x24 = getelementptr inbounds %"struct.pov::HField_Data_Struct", %"struct.pov::HField_Data_Struct"* %37, i32 0, i32 3, !dbg !1538
  %38 = load i32, i32* %max_x24, align 4, !dbg !1538
  store i32 %38, i32* %px, align 4, !dbg !1539
  br label %if.end25, !dbg !1540

if.end25:                                         ; preds = %if.then22, %for.end
  %39 = load i32, i32* %pz, align 4, !dbg !1541
  %40 = load %"struct.pov::HField_Struct"*, %"struct.pov::HField_Struct"** %HField, align 8, !dbg !1543
  %Data26 = getelementptr inbounds %"struct.pov::HField_Struct", %"struct.pov::HField_Struct"* %40, i32 0, i32 16, !dbg !1544
  %41 = load %"struct.pov::HField_Data_Struct"*, %"struct.pov::HField_Data_Struct"** %Data26, align 8, !dbg !1544
  %max_z = getelementptr inbounds %"struct.pov::HField_Data_Struct", %"struct.pov::HField_Data_Struct"* %41, i32 0, i32 4, !dbg !1545
  %42 = load i32, i32* %max_z, align 8, !dbg !1545
  %cmp27 = icmp sgt i32 %39, %42, !dbg !1546
  br i1 %cmp27, label %if.then28, label %if.end31, !dbg !1547

if.then28:                                        ; preds = %if.end25
  %43 = load %"struct.pov::HField_Struct"*, %"struct.pov::HField_Struct"** %HField, align 8, !dbg !1548
  %Data29 = getelementptr inbounds %"struct.pov::HField_Struct", %"struct.pov::HField_Struct"* %43, i32 0, i32 16, !dbg !1549
  %44 = load %"struct.pov::HField_Data_Struct"*, %"struct.pov::HField_Data_Struct"** %Data29, align 8, !dbg !1549
  %max_z30 = getelementptr inbounds %"struct.pov::HField_Data_Struct", %"struct.pov::HField_Data_Struct"* %44, i32 0, i32 4, !dbg !1550
  %45 = load i32, i32* %max_z30, align 8, !dbg !1550
  store i32 %45, i32* %pz, align 4, !dbg !1551
  br label %if.end31, !dbg !1552

if.end31:                                         ; preds = %if.then28, %if.end25
  %arrayidx32 = getelementptr inbounds [3 x double], [3 x double]* %Local_Origin, i64 0, i64 0, !dbg !1553
  %46 = load double, double* %arrayidx32, align 16, !dbg !1553
  %47 = load i32, i32* %px, align 4, !dbg !1554
  %conv33 = sitofp i32 %47 to double, !dbg !1554
  %sub = fsub double %46, %conv33, !dbg !1555
  store double %sub, double* %x, align 8, !dbg !1556
  %arrayidx34 = getelementptr inbounds [3 x double], [3 x double]* %Local_Origin, i64 0, i64 2, !dbg !1557
  %48 = load double, double* %arrayidx34, align 16, !dbg !1557
  %49 = load i32, i32* %pz, align 4, !dbg !1558
  %conv35 = sitofp i32 %49 to double, !dbg !1558
  %sub36 = fsub double %48, %conv35, !dbg !1559
  store double %sub36, double* %z, align 8, !dbg !1560
  %50 = load %"struct.pov::HField_Struct"*, %"struct.pov::HField_Struct"** %HField, align 8, !dbg !1561
  %Flags = getelementptr inbounds %"struct.pov::HField_Struct", %"struct.pov::HField_Struct"* %50, i32 0, i32 13, !dbg !1561
  %51 = load i32, i32* %Flags, align 4, !dbg !1561
  %conv37 = zext i32 %51 to i64, !dbg !1561
  %and = and i64 %conv37, 8, !dbg !1561
  %tobool = icmp ne i64 %and, 0, !dbg !1561
  br i1 %tobool, label %if.then38, label %if.else, !dbg !1563

if.then38:                                        ; preds = %if.end31
  %52 = load %"struct.pov::HField_Struct"*, %"struct.pov::HField_Struct"** %HField, align 8, !dbg !1564
  %Data39 = getelementptr inbounds %"struct.pov::HField_Struct", %"struct.pov::HField_Struct"* %52, i32 0, i32 16, !dbg !1566
  %53 = load %"struct.pov::HField_Data_Struct"*, %"struct.pov::HField_Data_Struct"** %Data39, align 8, !dbg !1566
  %Normals = getelementptr inbounds %"struct.pov::HField_Data_Struct", %"struct.pov::HField_Data_Struct"* %53, i32 0, i32 12, !dbg !1567
  %54 = load [3 x i16]**, [3 x i16]*** %Normals, align 8, !dbg !1567
  %55 = load i32, i32* %pz, align 4, !dbg !1568
  %idxprom40 = sext i32 %55 to i64, !dbg !1564
  %arrayidx41 = getelementptr inbounds [3 x i16]*, [3 x i16]** %54, i64 %idxprom40, !dbg !1564
  %56 = load [3 x i16]*, [3 x i16]** %arrayidx41, align 8, !dbg !1564
  %57 = load i32, i32* %px, align 4, !dbg !1569
  %idxprom42 = sext i32 %57 to i64, !dbg !1564
  %arrayidx43 = getelementptr inbounds [3 x i16], [3 x i16]* %56, i64 %idxprom42, !dbg !1564
  %arrayidx44 = getelementptr inbounds [3 x i16], [3 x i16]* %arrayidx43, i64 0, i64 0, !dbg !1564
  %58 = load i16, i16* %arrayidx44, align 2, !dbg !1564
  %conv45 = sitofp i16 %58 to double, !dbg !1564
  %arrayidx46 = getelementptr inbounds [5 x [3 x double]], [5 x [3 x double]]* %n, i64 0, i64 0, !dbg !1570
  %arrayidx47 = getelementptr inbounds [3 x double], [3 x double]* %arrayidx46, i64 0, i64 0, !dbg !1570
  store double %conv45, double* %arrayidx47, align 16, !dbg !1571
  %59 = load %"struct.pov::HField_Struct"*, %"struct.pov::HField_Struct"** %HField, align 8, !dbg !1572
  %Data48 = getelementptr inbounds %"struct.pov::HField_Struct", %"struct.pov::HField_Struct"* %59, i32 0, i32 16, !dbg !1573
  %60 = load %"struct.pov::HField_Data_Struct"*, %"struct.pov::HField_Data_Struct"** %Data48, align 8, !dbg !1573
  %Normals49 = getelementptr inbounds %"struct.pov::HField_Data_Struct", %"struct.pov::HField_Data_Struct"* %60, i32 0, i32 12, !dbg !1574
  %61 = load [3 x i16]**, [3 x i16]*** %Normals49, align 8, !dbg !1574
  %62 = load i32, i32* %pz, align 4, !dbg !1575
  %idxprom50 = sext i32 %62 to i64, !dbg !1572
  %arrayidx51 = getelementptr inbounds [3 x i16]*, [3 x i16]** %61, i64 %idxprom50, !dbg !1572
  %63 = load [3 x i16]*, [3 x i16]** %arrayidx51, align 8, !dbg !1572
  %64 = load i32, i32* %px, align 4, !dbg !1576
  %idxprom52 = sext i32 %64 to i64, !dbg !1572
  %arrayidx53 = getelementptr inbounds [3 x i16], [3 x i16]* %63, i64 %idxprom52, !dbg !1572
  %arrayidx54 = getelementptr inbounds [3 x i16], [3 x i16]* %arrayidx53, i64 0, i64 1, !dbg !1572
  %65 = load i16, i16* %arrayidx54, align 2, !dbg !1572
  %conv55 = sitofp i16 %65 to double, !dbg !1572
  %arrayidx56 = getelementptr inbounds [5 x [3 x double]], [5 x [3 x double]]* %n, i64 0, i64 0, !dbg !1577
  %arrayidx57 = getelementptr inbounds [3 x double], [3 x double]* %arrayidx56, i64 0, i64 1, !dbg !1577
  store double %conv55, double* %arrayidx57, align 8, !dbg !1578
  %66 = load %"struct.pov::HField_Struct"*, %"struct.pov::HField_Struct"** %HField, align 8, !dbg !1579
  %Data58 = getelementptr inbounds %"struct.pov::HField_Struct", %"struct.pov::HField_Struct"* %66, i32 0, i32 16, !dbg !1580
  %67 = load %"struct.pov::HField_Data_Struct"*, %"struct.pov::HField_Data_Struct"** %Data58, align 8, !dbg !1580
  %Normals59 = getelementptr inbounds %"struct.pov::HField_Data_Struct", %"struct.pov::HField_Data_Struct"* %67, i32 0, i32 12, !dbg !1581
  %68 = load [3 x i16]**, [3 x i16]*** %Normals59, align 8, !dbg !1581
  %69 = load i32, i32* %pz, align 4, !dbg !1582
  %idxprom60 = sext i32 %69 to i64, !dbg !1579
  %arrayidx61 = getelementptr inbounds [3 x i16]*, [3 x i16]** %68, i64 %idxprom60, !dbg !1579
  %70 = load [3 x i16]*, [3 x i16]** %arrayidx61, align 8, !dbg !1579
  %71 = load i32, i32* %px, align 4, !dbg !1583
  %idxprom62 = sext i32 %71 to i64, !dbg !1579
  %arrayidx63 = getelementptr inbounds [3 x i16], [3 x i16]* %70, i64 %idxprom62, !dbg !1579
  %arrayidx64 = getelementptr inbounds [3 x i16], [3 x i16]* %arrayidx63, i64 0, i64 2, !dbg !1579
  %72 = load i16, i16* %arrayidx64, align 2, !dbg !1579
  %conv65 = sitofp i16 %72 to double, !dbg !1579
  %arrayidx66 = getelementptr inbounds [5 x [3 x double]], [5 x [3 x double]]* %n, i64 0, i64 0, !dbg !1584
  %arrayidx67 = getelementptr inbounds [3 x double], [3 x double]* %arrayidx66, i64 0, i64 2, !dbg !1584
  store double %conv65, double* %arrayidx67, align 16, !dbg !1585
  %73 = load %"struct.pov::HField_Struct"*, %"struct.pov::HField_Struct"** %HField, align 8, !dbg !1586
  %Data68 = getelementptr inbounds %"struct.pov::HField_Struct", %"struct.pov::HField_Struct"* %73, i32 0, i32 16, !dbg !1587
  %74 = load %"struct.pov::HField_Data_Struct"*, %"struct.pov::HField_Data_Struct"** %Data68, align 8, !dbg !1587
  %Normals69 = getelementptr inbounds %"struct.pov::HField_Data_Struct", %"struct.pov::HField_Data_Struct"* %74, i32 0, i32 12, !dbg !1588
  %75 = load [3 x i16]**, [3 x i16]*** %Normals69, align 8, !dbg !1588
  %76 = load i32, i32* %pz, align 4, !dbg !1589
  %idxprom70 = sext i32 %76 to i64, !dbg !1586
  %arrayidx71 = getelementptr inbounds [3 x i16]*, [3 x i16]** %75, i64 %idxprom70, !dbg !1586
  %77 = load [3 x i16]*, [3 x i16]** %arrayidx71, align 8, !dbg !1586
  %78 = load i32, i32* %px, align 4, !dbg !1590
  %add = add nsw i32 %78, 1, !dbg !1591
  %idxprom72 = sext i32 %add to i64, !dbg !1586
  %arrayidx73 = getelementptr inbounds [3 x i16], [3 x i16]* %77, i64 %idxprom72, !dbg !1586
  %arrayidx74 = getelementptr inbounds [3 x i16], [3 x i16]* %arrayidx73, i64 0, i64 0, !dbg !1586
  %79 = load i16, i16* %arrayidx74, align 2, !dbg !1586
  %conv75 = sitofp i16 %79 to double, !dbg !1586
  %arrayidx76 = getelementptr inbounds [5 x [3 x double]], [5 x [3 x double]]* %n, i64 0, i64 1, !dbg !1592
  %arrayidx77 = getelementptr inbounds [3 x double], [3 x double]* %arrayidx76, i64 0, i64 0, !dbg !1592
  store double %conv75, double* %arrayidx77, align 8, !dbg !1593
  %80 = load %"struct.pov::HField_Struct"*, %"struct.pov::HField_Struct"** %HField, align 8, !dbg !1594
  %Data78 = getelementptr inbounds %"struct.pov::HField_Struct", %"struct.pov::HField_Struct"* %80, i32 0, i32 16, !dbg !1595
  %81 = load %"struct.pov::HField_Data_Struct"*, %"struct.pov::HField_Data_Struct"** %Data78, align 8, !dbg !1595
  %Normals79 = getelementptr inbounds %"struct.pov::HField_Data_Struct", %"struct.pov::HField_Data_Struct"* %81, i32 0, i32 12, !dbg !1596
  %82 = load [3 x i16]**, [3 x i16]*** %Normals79, align 8, !dbg !1596
  %83 = load i32, i32* %pz, align 4, !dbg !1597
  %idxprom80 = sext i32 %83 to i64, !dbg !1594
  %arrayidx81 = getelementptr inbounds [3 x i16]*, [3 x i16]** %82, i64 %idxprom80, !dbg !1594
  %84 = load [3 x i16]*, [3 x i16]** %arrayidx81, align 8, !dbg !1594
  %85 = load i32, i32* %px, align 4, !dbg !1598
  %add82 = add nsw i32 %85, 1, !dbg !1599
  %idxprom83 = sext i32 %add82 to i64, !dbg !1594
  %arrayidx84 = getelementptr inbounds [3 x i16], [3 x i16]* %84, i64 %idxprom83, !dbg !1594
  %arrayidx85 = getelementptr inbounds [3 x i16], [3 x i16]* %arrayidx84, i64 0, i64 1, !dbg !1594
  %86 = load i16, i16* %arrayidx85, align 2, !dbg !1594
  %conv86 = sitofp i16 %86 to double, !dbg !1594
  %arrayidx87 = getelementptr inbounds [5 x [3 x double]], [5 x [3 x double]]* %n, i64 0, i64 1, !dbg !1600
  %arrayidx88 = getelementptr inbounds [3 x double], [3 x double]* %arrayidx87, i64 0, i64 1, !dbg !1600
  store double %conv86, double* %arrayidx88, align 8, !dbg !1601
  %87 = load %"struct.pov::HField_Struct"*, %"struct.pov::HField_Struct"** %HField, align 8, !dbg !1602
  %Data89 = getelementptr inbounds %"struct.pov::HField_Struct", %"struct.pov::HField_Struct"* %87, i32 0, i32 16, !dbg !1603
  %88 = load %"struct.pov::HField_Data_Struct"*, %"struct.pov::HField_Data_Struct"** %Data89, align 8, !dbg !1603
  %Normals90 = getelementptr inbounds %"struct.pov::HField_Data_Struct", %"struct.pov::HField_Data_Struct"* %88, i32 0, i32 12, !dbg !1604
  %89 = load [3 x i16]**, [3 x i16]*** %Normals90, align 8, !dbg !1604
  %90 = load i32, i32* %pz, align 4, !dbg !1605
  %idxprom91 = sext i32 %90 to i64, !dbg !1602
  %arrayidx92 = getelementptr inbounds [3 x i16]*, [3 x i16]** %89, i64 %idxprom91, !dbg !1602
  %91 = load [3 x i16]*, [3 x i16]** %arrayidx92, align 8, !dbg !1602
  %92 = load i32, i32* %px, align 4, !dbg !1606
  %add93 = add nsw i32 %92, 1, !dbg !1607
  %idxprom94 = sext i32 %add93 to i64, !dbg !1602
  %arrayidx95 = getelementptr inbounds [3 x i16], [3 x i16]* %91, i64 %idxprom94, !dbg !1602
  %arrayidx96 = getelementptr inbounds [3 x i16], [3 x i16]* %arrayidx95, i64 0, i64 2, !dbg !1602
  %93 = load i16, i16* %arrayidx96, align 2, !dbg !1602
  %conv97 = sitofp i16 %93 to double, !dbg !1602
  %arrayidx98 = getelementptr inbounds [5 x [3 x double]], [5 x [3 x double]]* %n, i64 0, i64 1, !dbg !1608
  %arrayidx99 = getelementptr inbounds [3 x double], [3 x double]* %arrayidx98, i64 0, i64 2, !dbg !1608
  store double %conv97, double* %arrayidx99, align 8, !dbg !1609
  %94 = load %"struct.pov::HField_Struct"*, %"struct.pov::HField_Struct"** %HField, align 8, !dbg !1610
  %Data100 = getelementptr inbounds %"struct.pov::HField_Struct", %"struct.pov::HField_Struct"* %94, i32 0, i32 16, !dbg !1611
  %95 = load %"struct.pov::HField_Data_Struct"*, %"struct.pov::HField_Data_Struct"** %Data100, align 8, !dbg !1611
  %Normals101 = getelementptr inbounds %"struct.pov::HField_Data_Struct", %"struct.pov::HField_Data_Struct"* %95, i32 0, i32 12, !dbg !1612
  %96 = load [3 x i16]**, [3 x i16]*** %Normals101, align 8, !dbg !1612
  %97 = load i32, i32* %pz, align 4, !dbg !1613
  %add102 = add nsw i32 %97, 1, !dbg !1614
  %idxprom103 = sext i32 %add102 to i64, !dbg !1610
  %arrayidx104 = getelementptr inbounds [3 x i16]*, [3 x i16]** %96, i64 %idxprom103, !dbg !1610
  %98 = load [3 x i16]*, [3 x i16]** %arrayidx104, align 8, !dbg !1610
  %99 = load i32, i32* %px, align 4, !dbg !1615
  %idxprom105 = sext i32 %99 to i64, !dbg !1610
  %arrayidx106 = getelementptr inbounds [3 x i16], [3 x i16]* %98, i64 %idxprom105, !dbg !1610
  %arrayidx107 = getelementptr inbounds [3 x i16], [3 x i16]* %arrayidx106, i64 0, i64 0, !dbg !1610
  %100 = load i16, i16* %arrayidx107, align 2, !dbg !1610
  %conv108 = sitofp i16 %100 to double, !dbg !1610
  %arrayidx109 = getelementptr inbounds [5 x [3 x double]], [5 x [3 x double]]* %n, i64 0, i64 2, !dbg !1616
  %arrayidx110 = getelementptr inbounds [3 x double], [3 x double]* %arrayidx109, i64 0, i64 0, !dbg !1616
  store double %conv108, double* %arrayidx110, align 16, !dbg !1617
  %101 = load %"struct.pov::HField_Struct"*, %"struct.pov::HField_Struct"** %HField, align 8, !dbg !1618
  %Data111 = getelementptr inbounds %"struct.pov::HField_Struct", %"struct.pov::HField_Struct"* %101, i32 0, i32 16, !dbg !1619
  %102 = load %"struct.pov::HField_Data_Struct"*, %"struct.pov::HField_Data_Struct"** %Data111, align 8, !dbg !1619
  %Normals112 = getelementptr inbounds %"struct.pov::HField_Data_Struct", %"struct.pov::HField_Data_Struct"* %102, i32 0, i32 12, !dbg !1620
  %103 = load [3 x i16]**, [3 x i16]*** %Normals112, align 8, !dbg !1620
  %104 = load i32, i32* %pz, align 4, !dbg !1621
  %add113 = add nsw i32 %104, 1, !dbg !1622
  %idxprom114 = sext i32 %add113 to i64, !dbg !1618
  %arrayidx115 = getelementptr inbounds [3 x i16]*, [3 x i16]** %103, i64 %idxprom114, !dbg !1618
  %105 = load [3 x i16]*, [3 x i16]** %arrayidx115, align 8, !dbg !1618
  %106 = load i32, i32* %px, align 4, !dbg !1623
  %idxprom116 = sext i32 %106 to i64, !dbg !1618
  %arrayidx117 = getelementptr inbounds [3 x i16], [3 x i16]* %105, i64 %idxprom116, !dbg !1618
  %arrayidx118 = getelementptr inbounds [3 x i16], [3 x i16]* %arrayidx117, i64 0, i64 1, !dbg !1618
  %107 = load i16, i16* %arrayidx118, align 2, !dbg !1618
  %conv119 = sitofp i16 %107 to double, !dbg !1618
  %arrayidx120 = getelementptr inbounds [5 x [3 x double]], [5 x [3 x double]]* %n, i64 0, i64 2, !dbg !1624
  %arrayidx121 = getelementptr inbounds [3 x double], [3 x double]* %arrayidx120, i64 0, i64 1, !dbg !1624
  store double %conv119, double* %arrayidx121, align 8, !dbg !1625
  %108 = load %"struct.pov::HField_Struct"*, %"struct.pov::HField_Struct"** %HField, align 8, !dbg !1626
  %Data122 = getelementptr inbounds %"struct.pov::HField_Struct", %"struct.pov::HField_Struct"* %108, i32 0, i32 16, !dbg !1627
  %109 = load %"struct.pov::HField_Data_Struct"*, %"struct.pov::HField_Data_Struct"** %Data122, align 8, !dbg !1627
  %Normals123 = getelementptr inbounds %"struct.pov::HField_Data_Struct", %"struct.pov::HField_Data_Struct"* %109, i32 0, i32 12, !dbg !1628
  %110 = load [3 x i16]**, [3 x i16]*** %Normals123, align 8, !dbg !1628
  %111 = load i32, i32* %pz, align 4, !dbg !1629
  %add124 = add nsw i32 %111, 1, !dbg !1630
  %idxprom125 = sext i32 %add124 to i64, !dbg !1626
  %arrayidx126 = getelementptr inbounds [3 x i16]*, [3 x i16]** %110, i64 %idxprom125, !dbg !1626
  %112 = load [3 x i16]*, [3 x i16]** %arrayidx126, align 8, !dbg !1626
  %113 = load i32, i32* %px, align 4, !dbg !1631
  %idxprom127 = sext i32 %113 to i64, !dbg !1626
  %arrayidx128 = getelementptr inbounds [3 x i16], [3 x i16]* %112, i64 %idxprom127, !dbg !1626
  %arrayidx129 = getelementptr inbounds [3 x i16], [3 x i16]* %arrayidx128, i64 0, i64 2, !dbg !1626
  %114 = load i16, i16* %arrayidx129, align 2, !dbg !1626
  %conv130 = sitofp i16 %114 to double, !dbg !1626
  %arrayidx131 = getelementptr inbounds [5 x [3 x double]], [5 x [3 x double]]* %n, i64 0, i64 2, !dbg !1632
  %arrayidx132 = getelementptr inbounds [3 x double], [3 x double]* %arrayidx131, i64 0, i64 2, !dbg !1632
  store double %conv130, double* %arrayidx132, align 16, !dbg !1633
  %115 = load %"struct.pov::HField_Struct"*, %"struct.pov::HField_Struct"** %HField, align 8, !dbg !1634
  %Data133 = getelementptr inbounds %"struct.pov::HField_Struct", %"struct.pov::HField_Struct"* %115, i32 0, i32 16, !dbg !1635
  %116 = load %"struct.pov::HField_Data_Struct"*, %"struct.pov::HField_Data_Struct"** %Data133, align 8, !dbg !1635
  %Normals134 = getelementptr inbounds %"struct.pov::HField_Data_Struct", %"struct.pov::HField_Data_Struct"* %116, i32 0, i32 12, !dbg !1636
  %117 = load [3 x i16]**, [3 x i16]*** %Normals134, align 8, !dbg !1636
  %118 = load i32, i32* %pz, align 4, !dbg !1637
  %add135 = add nsw i32 %118, 1, !dbg !1638
  %idxprom136 = sext i32 %add135 to i64, !dbg !1634
  %arrayidx137 = getelementptr inbounds [3 x i16]*, [3 x i16]** %117, i64 %idxprom136, !dbg !1634
  %119 = load [3 x i16]*, [3 x i16]** %arrayidx137, align 8, !dbg !1634
  %120 = load i32, i32* %px, align 4, !dbg !1639
  %add138 = add nsw i32 %120, 1, !dbg !1640
  %idxprom139 = sext i32 %add138 to i64, !dbg !1634
  %arrayidx140 = getelementptr inbounds [3 x i16], [3 x i16]* %119, i64 %idxprom139, !dbg !1634
  %arrayidx141 = getelementptr inbounds [3 x i16], [3 x i16]* %arrayidx140, i64 0, i64 0, !dbg !1634
  %121 = load i16, i16* %arrayidx141, align 2, !dbg !1634
  %conv142 = sitofp i16 %121 to double, !dbg !1634
  %arrayidx143 = getelementptr inbounds [5 x [3 x double]], [5 x [3 x double]]* %n, i64 0, i64 3, !dbg !1641
  %arrayidx144 = getelementptr inbounds [3 x double], [3 x double]* %arrayidx143, i64 0, i64 0, !dbg !1641
  store double %conv142, double* %arrayidx144, align 8, !dbg !1642
  %122 = load %"struct.pov::HField_Struct"*, %"struct.pov::HField_Struct"** %HField, align 8, !dbg !1643
  %Data145 = getelementptr inbounds %"struct.pov::HField_Struct", %"struct.pov::HField_Struct"* %122, i32 0, i32 16, !dbg !1644
  %123 = load %"struct.pov::HField_Data_Struct"*, %"struct.pov::HField_Data_Struct"** %Data145, align 8, !dbg !1644
  %Normals146 = getelementptr inbounds %"struct.pov::HField_Data_Struct", %"struct.pov::HField_Data_Struct"* %123, i32 0, i32 12, !dbg !1645
  %124 = load [3 x i16]**, [3 x i16]*** %Normals146, align 8, !dbg !1645
  %125 = load i32, i32* %pz, align 4, !dbg !1646
  %add147 = add nsw i32 %125, 1, !dbg !1647
  %idxprom148 = sext i32 %add147 to i64, !dbg !1643
  %arrayidx149 = getelementptr inbounds [3 x i16]*, [3 x i16]** %124, i64 %idxprom148, !dbg !1643
  %126 = load [3 x i16]*, [3 x i16]** %arrayidx149, align 8, !dbg !1643
  %127 = load i32, i32* %px, align 4, !dbg !1648
  %add150 = add nsw i32 %127, 1, !dbg !1649
  %idxprom151 = sext i32 %add150 to i64, !dbg !1643
  %arrayidx152 = getelementptr inbounds [3 x i16], [3 x i16]* %126, i64 %idxprom151, !dbg !1643
  %arrayidx153 = getelementptr inbounds [3 x i16], [3 x i16]* %arrayidx152, i64 0, i64 1, !dbg !1643
  %128 = load i16, i16* %arrayidx153, align 2, !dbg !1643
  %conv154 = sitofp i16 %128 to double, !dbg !1643
  %arrayidx155 = getelementptr inbounds [5 x [3 x double]], [5 x [3 x double]]* %n, i64 0, i64 3, !dbg !1650
  %arrayidx156 = getelementptr inbounds [3 x double], [3 x double]* %arrayidx155, i64 0, i64 1, !dbg !1650
  store double %conv154, double* %arrayidx156, align 8, !dbg !1651
  %129 = load %"struct.pov::HField_Struct"*, %"struct.pov::HField_Struct"** %HField, align 8, !dbg !1652
  %Data157 = getelementptr inbounds %"struct.pov::HField_Struct", %"struct.pov::HField_Struct"* %129, i32 0, i32 16, !dbg !1653
  %130 = load %"struct.pov::HField_Data_Struct"*, %"struct.pov::HField_Data_Struct"** %Data157, align 8, !dbg !1653
  %Normals158 = getelementptr inbounds %"struct.pov::HField_Data_Struct", %"struct.pov::HField_Data_Struct"* %130, i32 0, i32 12, !dbg !1654
  %131 = load [3 x i16]**, [3 x i16]*** %Normals158, align 8, !dbg !1654
  %132 = load i32, i32* %pz, align 4, !dbg !1655
  %add159 = add nsw i32 %132, 1, !dbg !1656
  %idxprom160 = sext i32 %add159 to i64, !dbg !1652
  %arrayidx161 = getelementptr inbounds [3 x i16]*, [3 x i16]** %131, i64 %idxprom160, !dbg !1652
  %133 = load [3 x i16]*, [3 x i16]** %arrayidx161, align 8, !dbg !1652
  %134 = load i32, i32* %px, align 4, !dbg !1657
  %add162 = add nsw i32 %134, 1, !dbg !1658
  %idxprom163 = sext i32 %add162 to i64, !dbg !1652
  %arrayidx164 = getelementptr inbounds [3 x i16], [3 x i16]* %133, i64 %idxprom163, !dbg !1652
  %arrayidx165 = getelementptr inbounds [3 x i16], [3 x i16]* %arrayidx164, i64 0, i64 2, !dbg !1652
  %135 = load i16, i16* %arrayidx165, align 2, !dbg !1652
  %conv166 = sitofp i16 %135 to double, !dbg !1652
  %arrayidx167 = getelementptr inbounds [5 x [3 x double]], [5 x [3 x double]]* %n, i64 0, i64 3, !dbg !1659
  %arrayidx168 = getelementptr inbounds [3 x double], [3 x double]* %arrayidx167, i64 0, i64 2, !dbg !1659
  store double %conv166, double* %arrayidx168, align 8, !dbg !1660
  store i32 0, i32* %i, align 4, !dbg !1661
  br label %for.cond169, !dbg !1663

for.cond169:                                      ; preds = %for.inc182, %if.then38
  %136 = load i32, i32* %i, align 4, !dbg !1664
  %cmp170 = icmp slt i32 %136, 4, !dbg !1666
  br i1 %cmp170, label %for.body171, label %for.end184, !dbg !1667

for.body171:                                      ; preds = %for.cond169
  %137 = load i32, i32* %i, align 4, !dbg !1668
  %idxprom172 = sext i32 %137 to i64, !dbg !1670
  %arrayidx173 = getelementptr inbounds [5 x [3 x double]], [5 x [3 x double]]* %n, i64 0, i64 %idxprom172, !dbg !1670
  %arraydecay174 = getelementptr inbounds [3 x double], [3 x double]* %arrayidx173, i64 0, i64 0, !dbg !1670
  %138 = load i32, i32* %i, align 4, !dbg !1671
  %idxprom175 = sext i32 %138 to i64, !dbg !1672
  %arrayidx176 = getelementptr inbounds [5 x [3 x double]], [5 x [3 x double]]* %n, i64 0, i64 %idxprom175, !dbg !1672
  %arraydecay177 = getelementptr inbounds [3 x double], [3 x double]* %arrayidx176, i64 0, i64 0, !dbg !1672
  %139 = load %"struct.pov::HField_Struct"*, %"struct.pov::HField_Struct"** %HField, align 8, !dbg !1673
  %Trans178 = getelementptr inbounds %"struct.pov::HField_Struct", %"struct.pov::HField_Struct"* %139, i32 0, i32 10, !dbg !1674
  %140 = load %"struct.pov::Transform_Struct"*, %"struct.pov::Transform_Struct"** %Trans178, align 8, !dbg !1674
  call void @_ZN3pov12MTransNormalEPdS0_PNS_16Transform_StructE(double* %arraydecay174, double* %arraydecay177, %"struct.pov::Transform_Struct"* %140), !dbg !1675
  %141 = load i32, i32* %i, align 4, !dbg !1676
  %idxprom179 = sext i32 %141 to i64, !dbg !1677
  %arrayidx180 = getelementptr inbounds [5 x [3 x double]], [5 x [3 x double]]* %n, i64 0, i64 %idxprom179, !dbg !1677
  %arraydecay181 = getelementptr inbounds [3 x double], [3 x double]* %arrayidx180, i64 0, i64 0, !dbg !1677
  call void @_ZN3pov12VNormalizeEqEPd(double* %arraydecay181), !dbg !1678
  br label %for.inc182, !dbg !1679

for.inc182:                                       ; preds = %for.body171
  %142 = load i32, i32* %i, align 4, !dbg !1680
  %inc183 = add nsw i32 %142, 1, !dbg !1680
  store i32 %inc183, i32* %i, align 4, !dbg !1680
  br label %for.cond169, !dbg !1681, !llvm.loop !1682

for.end184:                                       ; preds = %for.cond169
  %143 = load double, double* %x, align 8, !dbg !1684
  %sub185 = fsub double 1.000000e+00, %143, !dbg !1685
  store double %sub185, double* %u, align 8, !dbg !1686
  %144 = load double, double* %z, align 8, !dbg !1687
  %sub186 = fsub double 1.000000e+00, %144, !dbg !1688
  store double %sub186, double* %v, align 8, !dbg !1689
  %145 = load double, double* %v, align 8, !dbg !1690
  %146 = load double, double* %u, align 8, !dbg !1691
  %arrayidx187 = getelementptr inbounds [5 x [3 x double]], [5 x [3 x double]]* %n, i64 0, i64 0, !dbg !1692
  %arrayidx188 = getelementptr inbounds [3 x double], [3 x double]* %arrayidx187, i64 0, i64 0, !dbg !1692
  %147 = load double, double* %arrayidx188, align 16, !dbg !1692
  %mul = fmul double %146, %147, !dbg !1693
  %148 = load double, double* %x, align 8, !dbg !1694
  %arrayidx189 = getelementptr inbounds [5 x [3 x double]], [5 x [3 x double]]* %n, i64 0, i64 1, !dbg !1695
  %arrayidx190 = getelementptr inbounds [3 x double], [3 x double]* %arrayidx189, i64 0, i64 0, !dbg !1695
  %149 = load double, double* %arrayidx190, align 8, !dbg !1695
  %mul191 = fmul double %148, %149, !dbg !1696
  %add192 = fadd double %mul, %mul191, !dbg !1697
  %mul193 = fmul double %145, %add192, !dbg !1698
  %150 = load double, double* %z, align 8, !dbg !1699
  %151 = load double, double* %u, align 8, !dbg !1700
  %arrayidx194 = getelementptr inbounds [5 x [3 x double]], [5 x [3 x double]]* %n, i64 0, i64 2, !dbg !1701
  %arrayidx195 = getelementptr inbounds [3 x double], [3 x double]* %arrayidx194, i64 0, i64 0, !dbg !1701
  %152 = load double, double* %arrayidx195, align 16, !dbg !1701
  %mul196 = fmul double %151, %152, !dbg !1702
  %153 = load double, double* %x, align 8, !dbg !1703
  %arrayidx197 = getelementptr inbounds [5 x [3 x double]], [5 x [3 x double]]* %n, i64 0, i64 3, !dbg !1704
  %arrayidx198 = getelementptr inbounds [3 x double], [3 x double]* %arrayidx197, i64 0, i64 0, !dbg !1704
  %154 = load double, double* %arrayidx198, align 8, !dbg !1704
  %mul199 = fmul double %153, %154, !dbg !1705
  %add200 = fadd double %mul196, %mul199, !dbg !1706
  %mul201 = fmul double %150, %add200, !dbg !1707
  %add202 = fadd double %mul193, %mul201, !dbg !1708
  %155 = load double*, double** %Result.addr, align 8, !dbg !1709
  %arrayidx203 = getelementptr inbounds double, double* %155, i64 0, !dbg !1709
  store double %add202, double* %arrayidx203, align 8, !dbg !1710
  %156 = load double, double* %v, align 8, !dbg !1711
  %157 = load double, double* %u, align 8, !dbg !1712
  %arrayidx204 = getelementptr inbounds [5 x [3 x double]], [5 x [3 x double]]* %n, i64 0, i64 0, !dbg !1713
  %arrayidx205 = getelementptr inbounds [3 x double], [3 x double]* %arrayidx204, i64 0, i64 1, !dbg !1713
  %158 = load double, double* %arrayidx205, align 8, !dbg !1713
  %mul206 = fmul double %157, %158, !dbg !1714
  %159 = load double, double* %x, align 8, !dbg !1715
  %arrayidx207 = getelementptr inbounds [5 x [3 x double]], [5 x [3 x double]]* %n, i64 0, i64 1, !dbg !1716
  %arrayidx208 = getelementptr inbounds [3 x double], [3 x double]* %arrayidx207, i64 0, i64 1, !dbg !1716
  %160 = load double, double* %arrayidx208, align 8, !dbg !1716
  %mul209 = fmul double %159, %160, !dbg !1717
  %add210 = fadd double %mul206, %mul209, !dbg !1718
  %mul211 = fmul double %156, %add210, !dbg !1719
  %161 = load double, double* %z, align 8, !dbg !1720
  %162 = load double, double* %u, align 8, !dbg !1721
  %arrayidx212 = getelementptr inbounds [5 x [3 x double]], [5 x [3 x double]]* %n, i64 0, i64 2, !dbg !1722
  %arrayidx213 = getelementptr inbounds [3 x double], [3 x double]* %arrayidx212, i64 0, i64 1, !dbg !1722
  %163 = load double, double* %arrayidx213, align 8, !dbg !1722
  %mul214 = fmul double %162, %163, !dbg !1723
  %164 = load double, double* %x, align 8, !dbg !1724
  %arrayidx215 = getelementptr inbounds [5 x [3 x double]], [5 x [3 x double]]* %n, i64 0, i64 3, !dbg !1725
  %arrayidx216 = getelementptr inbounds [3 x double], [3 x double]* %arrayidx215, i64 0, i64 1, !dbg !1725
  %165 = load double, double* %arrayidx216, align 8, !dbg !1725
  %mul217 = fmul double %164, %165, !dbg !1726
  %add218 = fadd double %mul214, %mul217, !dbg !1727
  %mul219 = fmul double %161, %add218, !dbg !1728
  %add220 = fadd double %mul211, %mul219, !dbg !1729
  %166 = load double*, double** %Result.addr, align 8, !dbg !1730
  %arrayidx221 = getelementptr inbounds double, double* %166, i64 1, !dbg !1730
  store double %add220, double* %arrayidx221, align 8, !dbg !1731
  %167 = load double, double* %v, align 8, !dbg !1732
  %168 = load double, double* %u, align 8, !dbg !1733
  %arrayidx222 = getelementptr inbounds [5 x [3 x double]], [5 x [3 x double]]* %n, i64 0, i64 0, !dbg !1734
  %arrayidx223 = getelementptr inbounds [3 x double], [3 x double]* %arrayidx222, i64 0, i64 2, !dbg !1734
  %169 = load double, double* %arrayidx223, align 16, !dbg !1734
  %mul224 = fmul double %168, %169, !dbg !1735
  %170 = load double, double* %x, align 8, !dbg !1736
  %arrayidx225 = getelementptr inbounds [5 x [3 x double]], [5 x [3 x double]]* %n, i64 0, i64 1, !dbg !1737
  %arrayidx226 = getelementptr inbounds [3 x double], [3 x double]* %arrayidx225, i64 0, i64 2, !dbg !1737
  %171 = load double, double* %arrayidx226, align 8, !dbg !1737
  %mul227 = fmul double %170, %171, !dbg !1738
  %add228 = fadd double %mul224, %mul227, !dbg !1739
  %mul229 = fmul double %167, %add228, !dbg !1740
  %172 = load double, double* %z, align 8, !dbg !1741
  %173 = load double, double* %u, align 8, !dbg !1742
  %arrayidx230 = getelementptr inbounds [5 x [3 x double]], [5 x [3 x double]]* %n, i64 0, i64 2, !dbg !1743
  %arrayidx231 = getelementptr inbounds [3 x double], [3 x double]* %arrayidx230, i64 0, i64 2, !dbg !1743
  %174 = load double, double* %arrayidx231, align 16, !dbg !1743
  %mul232 = fmul double %173, %174, !dbg !1744
  %175 = load double, double* %x, align 8, !dbg !1745
  %arrayidx233 = getelementptr inbounds [5 x [3 x double]], [5 x [3 x double]]* %n, i64 0, i64 3, !dbg !1746
  %arrayidx234 = getelementptr inbounds [3 x double], [3 x double]* %arrayidx233, i64 0, i64 2, !dbg !1746
  %176 = load double, double* %arrayidx234, align 8, !dbg !1746
  %mul235 = fmul double %175, %176, !dbg !1747
  %add236 = fadd double %mul232, %mul235, !dbg !1748
  %mul237 = fmul double %172, %add236, !dbg !1749
  %add238 = fadd double %mul229, %mul237, !dbg !1750
  %177 = load double*, double** %Result.addr, align 8, !dbg !1751
  %arrayidx239 = getelementptr inbounds double, double* %177, i64 2, !dbg !1751
  store double %add238, double* %arrayidx239, align 8, !dbg !1752
  br label %if.end297, !dbg !1753

if.else:                                          ; preds = %if.end31
  %178 = load double, double* %x, align 8, !dbg !1754
  %179 = load double, double* %z, align 8, !dbg !1757
  %add240 = fadd double %178, %179, !dbg !1758
  %cmp241 = fcmp ole double %add240, 1.000000e+00, !dbg !1759
  br i1 %cmp241, label %if.then242, label %if.else267, !dbg !1760

if.then242:                                       ; preds = %if.else
  %180 = load %"struct.pov::HField_Struct"*, %"struct.pov::HField_Struct"** %HField, align 8, !dbg !1761
  %Data243 = getelementptr inbounds %"struct.pov::HField_Struct", %"struct.pov::HField_Struct"* %180, i32 0, i32 16, !dbg !1761
  %181 = load %"struct.pov::HField_Data_Struct"*, %"struct.pov::HField_Data_Struct"** %Data243, align 8, !dbg !1761
  %Map = getelementptr inbounds %"struct.pov::HField_Data_Struct", %"struct.pov::HField_Data_Struct"* %181, i32 0, i32 11, !dbg !1761
  %182 = load i16**, i16*** %Map, align 8, !dbg !1761
  %183 = load i32, i32* %pz, align 4, !dbg !1761
  %idxprom244 = sext i32 %183 to i64, !dbg !1761
  %arrayidx245 = getelementptr inbounds i16*, i16** %182, i64 %idxprom244, !dbg !1761
  %184 = load i16*, i16** %arrayidx245, align 8, !dbg !1761
  %185 = load i32, i32* %px, align 4, !dbg !1761
  %idxprom246 = sext i32 %185 to i64, !dbg !1761
  %arrayidx247 = getelementptr inbounds i16, i16* %184, i64 %idxprom246, !dbg !1761
  %186 = load i16, i16* %arrayidx247, align 2, !dbg !1761
  %conv248 = uitofp i16 %186 to double, !dbg !1761
  store double %conv248, double* %y1, align 8, !dbg !1763
  %187 = load %"struct.pov::HField_Struct"*, %"struct.pov::HField_Struct"** %HField, align 8, !dbg !1764
  %Data249 = getelementptr inbounds %"struct.pov::HField_Struct", %"struct.pov::HField_Struct"* %187, i32 0, i32 16, !dbg !1764
  %188 = load %"struct.pov::HField_Data_Struct"*, %"struct.pov::HField_Data_Struct"** %Data249, align 8, !dbg !1764
  %Map250 = getelementptr inbounds %"struct.pov::HField_Data_Struct", %"struct.pov::HField_Data_Struct"* %188, i32 0, i32 11, !dbg !1764
  %189 = load i16**, i16*** %Map250, align 8, !dbg !1764
  %190 = load i32, i32* %pz, align 4, !dbg !1764
  %idxprom251 = sext i32 %190 to i64, !dbg !1764
  %arrayidx252 = getelementptr inbounds i16*, i16** %189, i64 %idxprom251, !dbg !1764
  %191 = load i16*, i16** %arrayidx252, align 8, !dbg !1764
  %192 = load i32, i32* %px, align 4, !dbg !1764
  %add253 = add nsw i32 %192, 1, !dbg !1764
  %idxprom254 = sext i32 %add253 to i64, !dbg !1764
  %arrayidx255 = getelementptr inbounds i16, i16* %191, i64 %idxprom254, !dbg !1764
  %193 = load i16, i16* %arrayidx255, align 2, !dbg !1764
  %conv256 = uitofp i16 %193 to double, !dbg !1764
  store double %conv256, double* %y2, align 8, !dbg !1765
  %194 = load %"struct.pov::HField_Struct"*, %"struct.pov::HField_Struct"** %HField, align 8, !dbg !1766
  %Data257 = getelementptr inbounds %"struct.pov::HField_Struct", %"struct.pov::HField_Struct"* %194, i32 0, i32 16, !dbg !1766
  %195 = load %"struct.pov::HField_Data_Struct"*, %"struct.pov::HField_Data_Struct"** %Data257, align 8, !dbg !1766
  %Map258 = getelementptr inbounds %"struct.pov::HField_Data_Struct", %"struct.pov::HField_Data_Struct"* %195, i32 0, i32 11, !dbg !1766
  %196 = load i16**, i16*** %Map258, align 8, !dbg !1766
  %197 = load i32, i32* %pz, align 4, !dbg !1766
  %add259 = add nsw i32 %197, 1, !dbg !1766
  %idxprom260 = sext i32 %add259 to i64, !dbg !1766
  %arrayidx261 = getelementptr inbounds i16*, i16** %196, i64 %idxprom260, !dbg !1766
  %198 = load i16*, i16** %arrayidx261, align 8, !dbg !1766
  %199 = load i32, i32* %px, align 4, !dbg !1766
  %idxprom262 = sext i32 %199 to i64, !dbg !1766
  %arrayidx263 = getelementptr inbounds i16, i16* %198, i64 %idxprom262, !dbg !1766
  %200 = load i16, i16* %arrayidx263, align 2, !dbg !1766
  %conv264 = uitofp i16 %200 to double, !dbg !1766
  store double %conv264, double* %y3, align 8, !dbg !1767
  %201 = load double*, double** %Result.addr, align 8, !dbg !1768
  %202 = load double, double* %y1, align 8, !dbg !1769
  %203 = load double, double* %y2, align 8, !dbg !1770
  %sub265 = fsub double %202, %203, !dbg !1771
  %204 = load double, double* %y1, align 8, !dbg !1772
  %205 = load double, double* %y3, align 8, !dbg !1773
  %sub266 = fsub double %204, %205, !dbg !1774
  call void @_ZN3pov11Make_VectorEPdddd(double* %201, double %sub265, double 1.000000e+00, double %sub266), !dbg !1775
  br label %if.end295, !dbg !1776

if.else267:                                       ; preds = %if.else
  %206 = load %"struct.pov::HField_Struct"*, %"struct.pov::HField_Struct"** %HField, align 8, !dbg !1777
  %Data268 = getelementptr inbounds %"struct.pov::HField_Struct", %"struct.pov::HField_Struct"* %206, i32 0, i32 16, !dbg !1777
  %207 = load %"struct.pov::HField_Data_Struct"*, %"struct.pov::HField_Data_Struct"** %Data268, align 8, !dbg !1777
  %Map269 = getelementptr inbounds %"struct.pov::HField_Data_Struct", %"struct.pov::HField_Data_Struct"* %207, i32 0, i32 11, !dbg !1777
  %208 = load i16**, i16*** %Map269, align 8, !dbg !1777
  %209 = load i32, i32* %pz, align 4, !dbg !1777
  %add270 = add nsw i32 %209, 1, !dbg !1777
  %idxprom271 = sext i32 %add270 to i64, !dbg !1777
  %arrayidx272 = getelementptr inbounds i16*, i16** %208, i64 %idxprom271, !dbg !1777
  %210 = load i16*, i16** %arrayidx272, align 8, !dbg !1777
  %211 = load i32, i32* %px, align 4, !dbg !1777
  %add273 = add nsw i32 %211, 1, !dbg !1777
  %idxprom274 = sext i32 %add273 to i64, !dbg !1777
  %arrayidx275 = getelementptr inbounds i16, i16* %210, i64 %idxprom274, !dbg !1777
  %212 = load i16, i16* %arrayidx275, align 2, !dbg !1777
  %conv276 = uitofp i16 %212 to double, !dbg !1777
  store double %conv276, double* %y1, align 8, !dbg !1779
  %213 = load %"struct.pov::HField_Struct"*, %"struct.pov::HField_Struct"** %HField, align 8, !dbg !1780
  %Data277 = getelementptr inbounds %"struct.pov::HField_Struct", %"struct.pov::HField_Struct"* %213, i32 0, i32 16, !dbg !1780
  %214 = load %"struct.pov::HField_Data_Struct"*, %"struct.pov::HField_Data_Struct"** %Data277, align 8, !dbg !1780
  %Map278 = getelementptr inbounds %"struct.pov::HField_Data_Struct", %"struct.pov::HField_Data_Struct"* %214, i32 0, i32 11, !dbg !1780
  %215 = load i16**, i16*** %Map278, align 8, !dbg !1780
  %216 = load i32, i32* %pz, align 4, !dbg !1780
  %add279 = add nsw i32 %216, 1, !dbg !1780
  %idxprom280 = sext i32 %add279 to i64, !dbg !1780
  %arrayidx281 = getelementptr inbounds i16*, i16** %215, i64 %idxprom280, !dbg !1780
  %217 = load i16*, i16** %arrayidx281, align 8, !dbg !1780
  %218 = load i32, i32* %px, align 4, !dbg !1780
  %idxprom282 = sext i32 %218 to i64, !dbg !1780
  %arrayidx283 = getelementptr inbounds i16, i16* %217, i64 %idxprom282, !dbg !1780
  %219 = load i16, i16* %arrayidx283, align 2, !dbg !1780
  %conv284 = uitofp i16 %219 to double, !dbg !1780
  store double %conv284, double* %y2, align 8, !dbg !1781
  %220 = load %"struct.pov::HField_Struct"*, %"struct.pov::HField_Struct"** %HField, align 8, !dbg !1782
  %Data285 = getelementptr inbounds %"struct.pov::HField_Struct", %"struct.pov::HField_Struct"* %220, i32 0, i32 16, !dbg !1782
  %221 = load %"struct.pov::HField_Data_Struct"*, %"struct.pov::HField_Data_Struct"** %Data285, align 8, !dbg !1782
  %Map286 = getelementptr inbounds %"struct.pov::HField_Data_Struct", %"struct.pov::HField_Data_Struct"* %221, i32 0, i32 11, !dbg !1782
  %222 = load i16**, i16*** %Map286, align 8, !dbg !1782
  %223 = load i32, i32* %pz, align 4, !dbg !1782
  %idxprom287 = sext i32 %223 to i64, !dbg !1782
  %arrayidx288 = getelementptr inbounds i16*, i16** %222, i64 %idxprom287, !dbg !1782
  %224 = load i16*, i16** %arrayidx288, align 8, !dbg !1782
  %225 = load i32, i32* %px, align 4, !dbg !1782
  %add289 = add nsw i32 %225, 1, !dbg !1782
  %idxprom290 = sext i32 %add289 to i64, !dbg !1782
  %arrayidx291 = getelementptr inbounds i16, i16* %224, i64 %idxprom290, !dbg !1782
  %226 = load i16, i16* %arrayidx291, align 2, !dbg !1782
  %conv292 = uitofp i16 %226 to double, !dbg !1782
  store double %conv292, double* %y3, align 8, !dbg !1783
  %227 = load double*, double** %Result.addr, align 8, !dbg !1784
  %228 = load double, double* %y2, align 8, !dbg !1785
  %229 = load double, double* %y1, align 8, !dbg !1786
  %sub293 = fsub double %228, %229, !dbg !1787
  %230 = load double, double* %y3, align 8, !dbg !1788
  %231 = load double, double* %y1, align 8, !dbg !1789
  %sub294 = fsub double %230, %231, !dbg !1790
  call void @_ZN3pov11Make_VectorEPdddd(double* %227, double %sub293, double 1.000000e+00, double %sub294), !dbg !1791
  br label %if.end295

if.end295:                                        ; preds = %if.else267, %if.then242
  %232 = load double*, double** %Result.addr, align 8, !dbg !1792
  %233 = load double*, double** %Result.addr, align 8, !dbg !1793
  %234 = load %"struct.pov::HField_Struct"*, %"struct.pov::HField_Struct"** %HField, align 8, !dbg !1794
  %Trans296 = getelementptr inbounds %"struct.pov::HField_Struct", %"struct.pov::HField_Struct"* %234, i32 0, i32 10, !dbg !1795
  %235 = load %"struct.pov::Transform_Struct"*, %"struct.pov::Transform_Struct"** %Trans296, align 8, !dbg !1795
  call void @_ZN3pov12MTransNormalEPdS0_PNS_16Transform_StructE(double* %232, double* %233, %"struct.pov::Transform_Struct"* %235), !dbg !1796
  br label %if.end297

if.end297:                                        ; preds = %if.end295, %for.end184
  %236 = load double*, double** %Result.addr, align 8, !dbg !1797
  %237 = load double*, double** %Result.addr, align 8, !dbg !1798
  call void @_ZN3pov10VNormalizeEPdPKd(double* %236, double* %237), !dbg !1799
  br label %return, !dbg !1800

return:                                           ; preds = %if.end297, %if.then
  ret void, !dbg !1800
}

declare dso_local void @_ZN3pov15Default_UVCoordEPdPNS_13Object_StructEPNS_10istk_entryE(double*, %"struct.pov::Object_Struct"*, %"struct.pov::istk_entry"*) #1

; Function Attrs: noinline uwtable
define internal %"struct.pov::HField_Struct"* @_ZN3povL11Copy_HFieldEPNS_13Object_StructE(%"struct.pov::Object_Struct"* %Object) #0 !dbg !1801 {
entry:
  %Object.addr = alloca %"struct.pov::Object_Struct"*, align 8
  %New = alloca %"struct.pov::HField_Struct"*, align 8
  store %"struct.pov::Object_Struct"* %Object, %"struct.pov::Object_Struct"** %Object.addr, align 8
  call void @llvm.dbg.declare(metadata %"struct.pov::Object_Struct"** %Object.addr, metadata !1804, metadata !DIExpression()), !dbg !1805
  call void @llvm.dbg.declare(metadata %"struct.pov::HField_Struct"** %New, metadata !1806, metadata !DIExpression()), !dbg !1807
  %call = call %"struct.pov::HField_Struct"* @_ZN3pov13Create_HFieldEv(), !dbg !1808
  store %"struct.pov::HField_Struct"* %call, %"struct.pov::HField_Struct"** %New, align 8, !dbg !1809
  %0 = load %"struct.pov::HField_Struct"*, %"struct.pov::HField_Struct"** %New, align 8, !dbg !1810
  %Trans = getelementptr inbounds %"struct.pov::HField_Struct", %"struct.pov::HField_Struct"* %0, i32 0, i32 10, !dbg !1811
  %1 = load %"struct.pov::Transform_Struct"*, %"struct.pov::Transform_Struct"** %Trans, align 8, !dbg !1811
  call void @_ZN3pov17Destroy_TransformEPNS_16Transform_StructE(%"struct.pov::Transform_Struct"* %1), !dbg !1812
  %2 = load %"struct.pov::HField_Struct"*, %"struct.pov::HField_Struct"** %New, align 8, !dbg !1813
  %Data = getelementptr inbounds %"struct.pov::HField_Struct", %"struct.pov::HField_Struct"* %2, i32 0, i32 16, !dbg !1813
  %3 = load %"struct.pov::HField_Data_Struct"*, %"struct.pov::HField_Data_Struct"** %Data, align 8, !dbg !1813
  %4 = bitcast %"struct.pov::HField_Data_Struct"* %3 to i8*, !dbg !1813
  call void @_ZN3pov8pov_freeEPvPKci(i8* %4, i8* getelementptr inbounds ([11 x i8], [11 x i8]* @.str, i64 0, i64 0), i32 1364), !dbg !1813
  %5 = load %"struct.pov::HField_Struct"*, %"struct.pov::HField_Struct"** %New, align 8, !dbg !1813
  %Data1 = getelementptr inbounds %"struct.pov::HField_Struct", %"struct.pov::HField_Struct"* %5, i32 0, i32 16, !dbg !1813
  store %"struct.pov::HField_Data_Struct"* null, %"struct.pov::HField_Data_Struct"** %Data1, align 8, !dbg !1813
  %6 = load %"struct.pov::Object_Struct"*, %"struct.pov::Object_Struct"** %Object.addr, align 8, !dbg !1815
  %7 = bitcast %"struct.pov::Object_Struct"* %6 to %"struct.pov::HField_Struct"*, !dbg !1816
  %8 = load %"struct.pov::HField_Struct"*, %"struct.pov::HField_Struct"** %New, align 8, !dbg !1817
  %9 = bitcast %"struct.pov::HField_Struct"* %8 to i8*, !dbg !1818
  %10 = bitcast %"struct.pov::HField_Struct"* %7 to i8*, !dbg !1818
  call void @llvm.memcpy.p0i8.p0i8.i64(i8* align 8 %9, i8* align 8 %10, i64 176, i1 false), !dbg !1818
  %11 = load %"struct.pov::Object_Struct"*, %"struct.pov::Object_Struct"** %Object.addr, align 8, !dbg !1819
  %12 = bitcast %"struct.pov::Object_Struct"* %11 to %"struct.pov::HField_Struct"*, !dbg !1820
  %Trans2 = getelementptr inbounds %"struct.pov::HField_Struct", %"struct.pov::HField_Struct"* %12, i32 0, i32 10, !dbg !1820
  %13 = load %"struct.pov::Transform_Struct"*, %"struct.pov::Transform_Struct"** %Trans2, align 8, !dbg !1820
  %call3 = call %"struct.pov::Transform_Struct"* @_ZN3pov14Copy_TransformEPNS_16Transform_StructE(%"struct.pov::Transform_Struct"* %13), !dbg !1821
  %14 = load %"struct.pov::HField_Struct"*, %"struct.pov::HField_Struct"** %New, align 8, !dbg !1822
  %Trans4 = getelementptr inbounds %"struct.pov::HField_Struct", %"struct.pov::HField_Struct"* %14, i32 0, i32 10, !dbg !1823
  store %"struct.pov::Transform_Struct"* %call3, %"struct.pov::Transform_Struct"** %Trans4, align 8, !dbg !1824
  %15 = load %"struct.pov::HField_Struct"*, %"struct.pov::HField_Struct"** %New, align 8, !dbg !1825
  %bounding_corner1 = getelementptr inbounds %"struct.pov::HField_Struct", %"struct.pov::HField_Struct"* %15, i32 0, i32 14, !dbg !1826
  %arraydecay = getelementptr inbounds [3 x double], [3 x double]* %bounding_corner1, i64 0, i64 0, !dbg !1825
  %16 = load %"struct.pov::Object_Struct"*, %"struct.pov::Object_Struct"** %Object.addr, align 8, !dbg !1827
  %17 = bitcast %"struct.pov::Object_Struct"* %16 to %"struct.pov::HField_Struct"*, !dbg !1828
  %bounding_corner15 = getelementptr inbounds %"struct.pov::HField_Struct", %"struct.pov::HField_Struct"* %17, i32 0, i32 14, !dbg !1828
  %arraydecay6 = getelementptr inbounds [3 x double], [3 x double]* %bounding_corner15, i64 0, i64 0, !dbg !1829
  call void @_ZN3pov13Assign_VectorEPdS0_(double* %arraydecay, double* %arraydecay6), !dbg !1830
  %18 = load %"struct.pov::HField_Struct"*, %"struct.pov::HField_Struct"** %New, align 8, !dbg !1831
  %bounding_corner2 = getelementptr inbounds %"struct.pov::HField_Struct", %"struct.pov::HField_Struct"* %18, i32 0, i32 15, !dbg !1832
  %arraydecay7 = getelementptr inbounds [3 x double], [3 x double]* %bounding_corner2, i64 0, i64 0, !dbg !1831
  %19 = load %"struct.pov::Object_Struct"*, %"struct.pov::Object_Struct"** %Object.addr, align 8, !dbg !1833
  %20 = bitcast %"struct.pov::Object_Struct"* %19 to %"struct.pov::HField_Struct"*, !dbg !1834
  %bounding_corner28 = getelementptr inbounds %"struct.pov::HField_Struct", %"struct.pov::HField_Struct"* %20, i32 0, i32 15, !dbg !1834
  %arraydecay9 = getelementptr inbounds [3 x double], [3 x double]* %bounding_corner28, i64 0, i64 0, !dbg !1835
  call void @_ZN3pov13Assign_VectorEPdS0_(double* %arraydecay7, double* %arraydecay9), !dbg !1836
  %21 = load %"struct.pov::HField_Struct"*, %"struct.pov::HField_Struct"** %New, align 8, !dbg !1837
  %Data10 = getelementptr inbounds %"struct.pov::HField_Struct", %"struct.pov::HField_Struct"* %21, i32 0, i32 16, !dbg !1838
  %22 = load %"struct.pov::HField_Data_Struct"*, %"struct.pov::HField_Data_Struct"** %Data10, align 8, !dbg !1838
  %References = getelementptr inbounds %"struct.pov::HField_Data_Struct", %"struct.pov::HField_Data_Struct"* %22, i32 0, i32 0, !dbg !1839
  %23 = load i32, i32* %References, align 8, !dbg !1840
  %inc = add nsw i32 %23, 1, !dbg !1840
  store i32 %inc, i32* %References, align 8, !dbg !1840
  %24 = load %"struct.pov::HField_Struct"*, %"struct.pov::HField_Struct"** %New, align 8, !dbg !1841
  ret %"struct.pov::HField_Struct"* %24, !dbg !1842
}

; Function Attrs: noinline uwtable
define internal void @_ZN3povL16Translate_HFieldEPNS_13Object_StructEPdPNS_16Transform_StructE(%"struct.pov::Object_Struct"* %Object, double* %0, %"struct.pov::Transform_Struct"* %Trans) #0 !dbg !1843 {
entry:
  %Object.addr = alloca %"struct.pov::Object_Struct"*, align 8
  %.addr = alloca double*, align 8
  %Trans.addr = alloca %"struct.pov::Transform_Struct"*, align 8
  store %"struct.pov::Object_Struct"* %Object, %"struct.pov::Object_Struct"** %Object.addr, align 8
  call void @llvm.dbg.declare(metadata %"struct.pov::Object_Struct"** %Object.addr, metadata !1844, metadata !DIExpression()), !dbg !1845
  store double* %0, double** %.addr, align 8
  call void @llvm.dbg.declare(metadata double** %.addr, metadata !1846, metadata !DIExpression()), !dbg !1847
  store %"struct.pov::Transform_Struct"* %Trans, %"struct.pov::Transform_Struct"** %Trans.addr, align 8
  call void @llvm.dbg.declare(metadata %"struct.pov::Transform_Struct"** %Trans.addr, metadata !1848, metadata !DIExpression()), !dbg !1849
  %1 = load %"struct.pov::Object_Struct"*, %"struct.pov::Object_Struct"** %Object.addr, align 8, !dbg !1850
  %2 = load %"struct.pov::Transform_Struct"*, %"struct.pov::Transform_Struct"** %Trans.addr, align 8, !dbg !1851
  call void @_ZN3povL16Transform_HFieldEPNS_13Object_StructEPNS_16Transform_StructE(%"struct.pov::Object_Struct"* %1, %"struct.pov::Transform_Struct"* %2), !dbg !1852
  ret void, !dbg !1853
}

; Function Attrs: noinline uwtable
define internal void @_ZN3povL13Rotate_HFieldEPNS_13Object_StructEPdPNS_16Transform_StructE(%"struct.pov::Object_Struct"* %Object, double* %0, %"struct.pov::Transform_Struct"* %Trans) #0 !dbg !1854 {
entry:
  %Object.addr = alloca %"struct.pov::Object_Struct"*, align 8
  %.addr = alloca double*, align 8
  %Trans.addr = alloca %"struct.pov::Transform_Struct"*, align 8
  store %"struct.pov::Object_Struct"* %Object, %"struct.pov::Object_Struct"** %Object.addr, align 8
  call void @llvm.dbg.declare(metadata %"struct.pov::Object_Struct"** %Object.addr, metadata !1855, metadata !DIExpression()), !dbg !1856
  store double* %0, double** %.addr, align 8
  call void @llvm.dbg.declare(metadata double** %.addr, metadata !1857, metadata !DIExpression()), !dbg !1858
  store %"struct.pov::Transform_Struct"* %Trans, %"struct.pov::Transform_Struct"** %Trans.addr, align 8
  call void @llvm.dbg.declare(metadata %"struct.pov::Transform_Struct"** %Trans.addr, metadata !1859, metadata !DIExpression()), !dbg !1860
  %1 = load %"struct.pov::Object_Struct"*, %"struct.pov::Object_Struct"** %Object.addr, align 8, !dbg !1861
  %2 = load %"struct.pov::Transform_Struct"*, %"struct.pov::Transform_Struct"** %Trans.addr, align 8, !dbg !1862
  call void @_ZN3povL16Transform_HFieldEPNS_13Object_StructEPNS_16Transform_StructE(%"struct.pov::Object_Struct"* %1, %"struct.pov::Transform_Struct"* %2), !dbg !1863
  ret void, !dbg !1864
}

; Function Attrs: noinline uwtable
define internal void @_ZN3povL12Scale_HFieldEPNS_13Object_StructEPdPNS_16Transform_StructE(%"struct.pov::Object_Struct"* %Object, double* %0, %"struct.pov::Transform_Struct"* %Trans) #0 !dbg !1865 {
entry:
  %Object.addr = alloca %"struct.pov::Object_Struct"*, align 8
  %.addr = alloca double*, align 8
  %Trans.addr = alloca %"struct.pov::Transform_Struct"*, align 8
  store %"struct.pov::Object_Struct"* %Object, %"struct.pov::Object_Struct"** %Object.addr, align 8
  call void @llvm.dbg.declare(metadata %"struct.pov::Object_Struct"** %Object.addr, metadata !1866, metadata !DIExpression()), !dbg !1867
  store double* %0, double** %.addr, align 8
  call void @llvm.dbg.declare(metadata double** %.addr, metadata !1868, metadata !DIExpression()), !dbg !1869
  store %"struct.pov::Transform_Struct"* %Trans, %"struct.pov::Transform_Struct"** %Trans.addr, align 8
  call void @llvm.dbg.declare(metadata %"struct.pov::Transform_Struct"** %Trans.addr, metadata !1870, metadata !DIExpression()), !dbg !1871
  %1 = load %"struct.pov::Object_Struct"*, %"struct.pov::Object_Struct"** %Object.addr, align 8, !dbg !1872
  %2 = load %"struct.pov::Transform_Struct"*, %"struct.pov::Transform_Struct"** %Trans.addr, align 8, !dbg !1873
  call void @_ZN3povL16Transform_HFieldEPNS_13Object_StructEPNS_16Transform_StructE(%"struct.pov::Object_Struct"* %1, %"struct.pov::Transform_Struct"* %2), !dbg !1874
  ret void, !dbg !1875
}

; Function Attrs: noinline uwtable
define internal void @_ZN3povL16Transform_HFieldEPNS_13Object_StructEPNS_16Transform_StructE(%"struct.pov::Object_Struct"* %Object, %"struct.pov::Transform_Struct"* %Trans) #0 !dbg !1876 {
entry:
  %Object.addr = alloca %"struct.pov::Object_Struct"*, align 8
  %Trans.addr = alloca %"struct.pov::Transform_Struct"*, align 8
  store %"struct.pov::Object_Struct"* %Object, %"struct.pov::Object_Struct"** %Object.addr, align 8
  call void @llvm.dbg.declare(metadata %"struct.pov::Object_Struct"** %Object.addr, metadata !1877, metadata !DIExpression()), !dbg !1878
  store %"struct.pov::Transform_Struct"* %Trans, %"struct.pov::Transform_Struct"** %Trans.addr, align 8
  call void @llvm.dbg.declare(metadata %"struct.pov::Transform_Struct"** %Trans.addr, metadata !1879, metadata !DIExpression()), !dbg !1880
  %0 = load %"struct.pov::Object_Struct"*, %"struct.pov::Object_Struct"** %Object.addr, align 8, !dbg !1881
  %1 = bitcast %"struct.pov::Object_Struct"* %0 to %"struct.pov::HField_Struct"*, !dbg !1882
  %Trans1 = getelementptr inbounds %"struct.pov::HField_Struct", %"struct.pov::HField_Struct"* %1, i32 0, i32 10, !dbg !1882
  %2 = load %"struct.pov::Transform_Struct"*, %"struct.pov::Transform_Struct"** %Trans1, align 8, !dbg !1882
  %3 = load %"struct.pov::Transform_Struct"*, %"struct.pov::Transform_Struct"** %Trans.addr, align 8, !dbg !1883
  call void @_ZN3pov18Compose_TransformsEPNS_16Transform_StructES1_(%"struct.pov::Transform_Struct"* %2, %"struct.pov::Transform_Struct"* %3), !dbg !1884
  %4 = load %"struct.pov::Object_Struct"*, %"struct.pov::Object_Struct"** %Object.addr, align 8, !dbg !1885
  %5 = bitcast %"struct.pov::Object_Struct"* %4 to %"struct.pov::HField_Struct"*, !dbg !1886
  call void @_ZN3pov19Compute_HField_BBoxEPNS_13HField_StructE(%"struct.pov::HField_Struct"* %5), !dbg !1887
  ret void, !dbg !1888
}

; Function Attrs: noinline nounwind uwtable
define internal void @_ZN3povL13Invert_HFieldEPNS_13Object_StructE(%"struct.pov::Object_Struct"* %Object) #2 !dbg !1889 {
entry:
  %Object.addr = alloca %"struct.pov::Object_Struct"*, align 8
  store %"struct.pov::Object_Struct"* %Object, %"struct.pov::Object_Struct"** %Object.addr, align 8
  call void @llvm.dbg.declare(metadata %"struct.pov::Object_Struct"** %Object.addr, metadata !1890, metadata !DIExpression()), !dbg !1891
  %0 = load %"struct.pov::Object_Struct"*, %"struct.pov::Object_Struct"** %Object.addr, align 8, !dbg !1892
  %Flags = getelementptr inbounds %"struct.pov::Object_Struct", %"struct.pov::Object_Struct"* %0, i32 0, i32 13, !dbg !1892
  %1 = load i32, i32* %Flags, align 4, !dbg !1892
  %conv = zext i32 %1 to i64, !dbg !1892
  %xor = xor i64 %conv, 4, !dbg !1892
  %conv1 = trunc i64 %xor to i32, !dbg !1892
  store i32 %conv1, i32* %Flags, align 4, !dbg !1892
  ret void, !dbg !1894
}

; Function Attrs: noinline uwtable
define internal void @_ZN3povL14Destroy_HFieldEPNS_13Object_StructE(%"struct.pov::Object_Struct"* %Object) #0 !dbg !1895 {
entry:
  %Object.addr = alloca %"struct.pov::Object_Struct"*, align 8
  %i = alloca i32, align 4
  %HField = alloca %"struct.pov::HField_Struct"*, align 8
  store %"struct.pov::Object_Struct"* %Object, %"struct.pov::Object_Struct"** %Object.addr, align 8
  call void @llvm.dbg.declare(metadata %"struct.pov::Object_Struct"** %Object.addr, metadata !1896, metadata !DIExpression()), !dbg !1897
  call void @llvm.dbg.declare(metadata i32* %i, metadata !1898, metadata !DIExpression()), !dbg !1899
  call void @llvm.dbg.declare(metadata %"struct.pov::HField_Struct"** %HField, metadata !1900, metadata !DIExpression()), !dbg !1901
  %0 = load %"struct.pov::Object_Struct"*, %"struct.pov::Object_Struct"** %Object.addr, align 8, !dbg !1902
  %1 = bitcast %"struct.pov::Object_Struct"* %0 to %"struct.pov::HField_Struct"*, !dbg !1903
  store %"struct.pov::HField_Struct"* %1, %"struct.pov::HField_Struct"** %HField, align 8, !dbg !1901
  %2 = load %"struct.pov::HField_Struct"*, %"struct.pov::HField_Struct"** %HField, align 8, !dbg !1904
  %Trans = getelementptr inbounds %"struct.pov::HField_Struct", %"struct.pov::HField_Struct"* %2, i32 0, i32 10, !dbg !1905
  %3 = load %"struct.pov::Transform_Struct"*, %"struct.pov::Transform_Struct"** %Trans, align 8, !dbg !1905
  call void @_ZN3pov17Destroy_TransformEPNS_16Transform_StructE(%"struct.pov::Transform_Struct"* %3), !dbg !1906
  %4 = load %"struct.pov::HField_Struct"*, %"struct.pov::HField_Struct"** %HField, align 8, !dbg !1907
  %Data = getelementptr inbounds %"struct.pov::HField_Struct", %"struct.pov::HField_Struct"* %4, i32 0, i32 16, !dbg !1909
  %5 = load %"struct.pov::HField_Data_Struct"*, %"struct.pov::HField_Data_Struct"** %Data, align 8, !dbg !1909
  %References = getelementptr inbounds %"struct.pov::HField_Data_Struct", %"struct.pov::HField_Data_Struct"* %5, i32 0, i32 0, !dbg !1910
  %6 = load i32, i32* %References, align 8, !dbg !1911
  %dec = add nsw i32 %6, -1, !dbg !1911
  store i32 %dec, i32* %References, align 8, !dbg !1911
  %cmp = icmp eq i32 %dec, 0, !dbg !1912
  br i1 %cmp, label %if.then, label %if.end71, !dbg !1913

if.then:                                          ; preds = %entry
  %7 = load %"struct.pov::HField_Struct"*, %"struct.pov::HField_Struct"** %HField, align 8, !dbg !1914
  %Data1 = getelementptr inbounds %"struct.pov::HField_Struct", %"struct.pov::HField_Struct"* %7, i32 0, i32 16, !dbg !1917
  %8 = load %"struct.pov::HField_Data_Struct"*, %"struct.pov::HField_Data_Struct"** %Data1, align 8, !dbg !1917
  %Map = getelementptr inbounds %"struct.pov::HField_Data_Struct", %"struct.pov::HField_Data_Struct"* %8, i32 0, i32 11, !dbg !1918
  %9 = load i16**, i16*** %Map, align 8, !dbg !1918
  %cmp2 = icmp ne i16** %9, null, !dbg !1919
  br i1 %cmp2, label %if.then3, label %if.end22, !dbg !1920

if.then3:                                         ; preds = %if.then
  store i32 0, i32* %i, align 4, !dbg !1921
  br label %for.cond, !dbg !1924

for.cond:                                         ; preds = %for.inc, %if.then3
  %10 = load i32, i32* %i, align 4, !dbg !1925
  %11 = load %"struct.pov::HField_Struct"*, %"struct.pov::HField_Struct"** %HField, align 8, !dbg !1927
  %Data4 = getelementptr inbounds %"struct.pov::HField_Struct", %"struct.pov::HField_Struct"* %11, i32 0, i32 16, !dbg !1928
  %12 = load %"struct.pov::HField_Data_Struct"*, %"struct.pov::HField_Data_Struct"** %Data4, align 8, !dbg !1928
  %max_z = getelementptr inbounds %"struct.pov::HField_Data_Struct", %"struct.pov::HField_Data_Struct"* %12, i32 0, i32 4, !dbg !1929
  %13 = load i32, i32* %max_z, align 8, !dbg !1929
  %add = add nsw i32 %13, 2, !dbg !1930
  %cmp5 = icmp slt i32 %10, %add, !dbg !1931
  br i1 %cmp5, label %for.body, label %for.end, !dbg !1932

for.body:                                         ; preds = %for.cond
  %14 = load %"struct.pov::HField_Struct"*, %"struct.pov::HField_Struct"** %HField, align 8, !dbg !1933
  %Data6 = getelementptr inbounds %"struct.pov::HField_Struct", %"struct.pov::HField_Struct"* %14, i32 0, i32 16, !dbg !1936
  %15 = load %"struct.pov::HField_Data_Struct"*, %"struct.pov::HField_Data_Struct"** %Data6, align 8, !dbg !1936
  %Map7 = getelementptr inbounds %"struct.pov::HField_Data_Struct", %"struct.pov::HField_Data_Struct"* %15, i32 0, i32 11, !dbg !1937
  %16 = load i16**, i16*** %Map7, align 8, !dbg !1937
  %17 = load i32, i32* %i, align 4, !dbg !1938
  %idxprom = sext i32 %17 to i64, !dbg !1933
  %arrayidx = getelementptr inbounds i16*, i16** %16, i64 %idxprom, !dbg !1933
  %18 = load i16*, i16** %arrayidx, align 8, !dbg !1933
  %cmp8 = icmp ne i16* %18, null, !dbg !1939
  br i1 %cmp8, label %if.then9, label %if.end, !dbg !1940

if.then9:                                         ; preds = %for.body
  %19 = load %"struct.pov::HField_Struct"*, %"struct.pov::HField_Struct"** %HField, align 8, !dbg !1941
  %Data10 = getelementptr inbounds %"struct.pov::HField_Struct", %"struct.pov::HField_Struct"* %19, i32 0, i32 16, !dbg !1941
  %20 = load %"struct.pov::HField_Data_Struct"*, %"struct.pov::HField_Data_Struct"** %Data10, align 8, !dbg !1941
  %Map11 = getelementptr inbounds %"struct.pov::HField_Data_Struct", %"struct.pov::HField_Data_Struct"* %20, i32 0, i32 11, !dbg !1941
  %21 = load i16**, i16*** %Map11, align 8, !dbg !1941
  %22 = load i32, i32* %i, align 4, !dbg !1941
  %idxprom12 = sext i32 %22 to i64, !dbg !1941
  %arrayidx13 = getelementptr inbounds i16*, i16** %21, i64 %idxprom12, !dbg !1941
  %23 = load i16*, i16** %arrayidx13, align 8, !dbg !1941
  %24 = bitcast i16* %23 to i8*, !dbg !1941
  call void @_ZN3pov8pov_freeEPvPKci(i8* %24, i8* getelementptr inbounds ([11 x i8], [11 x i8]* @.str, i64 0, i64 0), i32 1424), !dbg !1941
  %25 = load %"struct.pov::HField_Struct"*, %"struct.pov::HField_Struct"** %HField, align 8, !dbg !1941
  %Data14 = getelementptr inbounds %"struct.pov::HField_Struct", %"struct.pov::HField_Struct"* %25, i32 0, i32 16, !dbg !1941
  %26 = load %"struct.pov::HField_Data_Struct"*, %"struct.pov::HField_Data_Struct"** %Data14, align 8, !dbg !1941
  %Map15 = getelementptr inbounds %"struct.pov::HField_Data_Struct", %"struct.pov::HField_Data_Struct"* %26, i32 0, i32 11, !dbg !1941
  %27 = load i16**, i16*** %Map15, align 8, !dbg !1941
  %28 = load i32, i32* %i, align 4, !dbg !1941
  %idxprom16 = sext i32 %28 to i64, !dbg !1941
  %arrayidx17 = getelementptr inbounds i16*, i16** %27, i64 %idxprom16, !dbg !1941
  store i16* null, i16** %arrayidx17, align 8, !dbg !1941
  br label %if.end, !dbg !1944

if.end:                                           ; preds = %if.then9, %for.body
  br label %for.inc, !dbg !1945

for.inc:                                          ; preds = %if.end
  %29 = load i32, i32* %i, align 4, !dbg !1946
  %inc = add nsw i32 %29, 1, !dbg !1946
  store i32 %inc, i32* %i, align 4, !dbg !1946
  br label %for.cond, !dbg !1947, !llvm.loop !1948

for.end:                                          ; preds = %for.cond
  %30 = load %"struct.pov::HField_Struct"*, %"struct.pov::HField_Struct"** %HField, align 8, !dbg !1950
  %Data18 = getelementptr inbounds %"struct.pov::HField_Struct", %"struct.pov::HField_Struct"* %30, i32 0, i32 16, !dbg !1950
  %31 = load %"struct.pov::HField_Data_Struct"*, %"struct.pov::HField_Data_Struct"** %Data18, align 8, !dbg !1950
  %Map19 = getelementptr inbounds %"struct.pov::HField_Data_Struct", %"struct.pov::HField_Data_Struct"* %31, i32 0, i32 11, !dbg !1950
  %32 = load i16**, i16*** %Map19, align 8, !dbg !1950
  %33 = bitcast i16** %32 to i8*, !dbg !1950
  call void @_ZN3pov8pov_freeEPvPKci(i8* %33, i8* getelementptr inbounds ([11 x i8], [11 x i8]* @.str, i64 0, i64 0), i32 1428), !dbg !1950
  %34 = load %"struct.pov::HField_Struct"*, %"struct.pov::HField_Struct"** %HField, align 8, !dbg !1950
  %Data20 = getelementptr inbounds %"struct.pov::HField_Struct", %"struct.pov::HField_Struct"* %34, i32 0, i32 16, !dbg !1950
  %35 = load %"struct.pov::HField_Data_Struct"*, %"struct.pov::HField_Data_Struct"** %Data20, align 8, !dbg !1950
  %Map21 = getelementptr inbounds %"struct.pov::HField_Data_Struct", %"struct.pov::HField_Data_Struct"* %35, i32 0, i32 11, !dbg !1950
  store i16** null, i16*** %Map21, align 8, !dbg !1950
  br label %if.end22, !dbg !1952

if.end22:                                         ; preds = %for.end, %if.then
  %36 = load %"struct.pov::HField_Struct"*, %"struct.pov::HField_Struct"** %HField, align 8, !dbg !1953
  %Data23 = getelementptr inbounds %"struct.pov::HField_Struct", %"struct.pov::HField_Struct"* %36, i32 0, i32 16, !dbg !1955
  %37 = load %"struct.pov::HField_Data_Struct"*, %"struct.pov::HField_Data_Struct"** %Data23, align 8, !dbg !1955
  %Normals = getelementptr inbounds %"struct.pov::HField_Data_Struct", %"struct.pov::HField_Data_Struct"* %37, i32 0, i32 12, !dbg !1956
  %38 = load [3 x i16]**, [3 x i16]*** %Normals, align 8, !dbg !1956
  %cmp24 = icmp ne [3 x i16]** %38, null, !dbg !1957
  br i1 %cmp24, label %if.then25, label %if.end45, !dbg !1958

if.then25:                                        ; preds = %if.end22
  store i32 0, i32* %i, align 4, !dbg !1959
  br label %for.cond26, !dbg !1962

for.cond26:                                       ; preds = %for.inc38, %if.then25
  %39 = load i32, i32* %i, align 4, !dbg !1963
  %40 = load %"struct.pov::HField_Struct"*, %"struct.pov::HField_Struct"** %HField, align 8, !dbg !1965
  %Data27 = getelementptr inbounds %"struct.pov::HField_Struct", %"struct.pov::HField_Struct"* %40, i32 0, i32 16, !dbg !1966
  %41 = load %"struct.pov::HField_Data_Struct"*, %"struct.pov::HField_Data_Struct"** %Data27, align 8, !dbg !1966
  %Normals_Height = getelementptr inbounds %"struct.pov::HField_Data_Struct", %"struct.pov::HField_Data_Struct"* %41, i32 0, i32 2, !dbg !1967
  %42 = load i32, i32* %Normals_Height, align 8, !dbg !1967
  %cmp28 = icmp slt i32 %39, %42, !dbg !1968
  br i1 %cmp28, label %for.body29, label %for.end40, !dbg !1969

for.body29:                                       ; preds = %for.cond26
  %43 = load %"struct.pov::HField_Struct"*, %"struct.pov::HField_Struct"** %HField, align 8, !dbg !1970
  %Data30 = getelementptr inbounds %"struct.pov::HField_Struct", %"struct.pov::HField_Struct"* %43, i32 0, i32 16, !dbg !1970
  %44 = load %"struct.pov::HField_Data_Struct"*, %"struct.pov::HField_Data_Struct"** %Data30, align 8, !dbg !1970
  %Normals31 = getelementptr inbounds %"struct.pov::HField_Data_Struct", %"struct.pov::HField_Data_Struct"* %44, i32 0, i32 12, !dbg !1970
  %45 = load [3 x i16]**, [3 x i16]*** %Normals31, align 8, !dbg !1970
  %46 = load i32, i32* %i, align 4, !dbg !1970
  %idxprom32 = sext i32 %46 to i64, !dbg !1970
  %arrayidx33 = getelementptr inbounds [3 x i16]*, [3 x i16]** %45, i64 %idxprom32, !dbg !1970
  %47 = load [3 x i16]*, [3 x i16]** %arrayidx33, align 8, !dbg !1970
  %48 = bitcast [3 x i16]* %47 to i8*, !dbg !1970
  call void @_ZN3pov8pov_freeEPvPKci(i8* %48, i8* getelementptr inbounds ([11 x i8], [11 x i8]* @.str, i64 0, i64 0), i32 1435), !dbg !1970
  %49 = load %"struct.pov::HField_Struct"*, %"struct.pov::HField_Struct"** %HField, align 8, !dbg !1970
  %Data34 = getelementptr inbounds %"struct.pov::HField_Struct", %"struct.pov::HField_Struct"* %49, i32 0, i32 16, !dbg !1970
  %50 = load %"struct.pov::HField_Data_Struct"*, %"struct.pov::HField_Data_Struct"** %Data34, align 8, !dbg !1970
  %Normals35 = getelementptr inbounds %"struct.pov::HField_Data_Struct", %"struct.pov::HField_Data_Struct"* %50, i32 0, i32 12, !dbg !1970
  %51 = load [3 x i16]**, [3 x i16]*** %Normals35, align 8, !dbg !1970
  %52 = load i32, i32* %i, align 4, !dbg !1970
  %idxprom36 = sext i32 %52 to i64, !dbg !1970
  %arrayidx37 = getelementptr inbounds [3 x i16]*, [3 x i16]** %51, i64 %idxprom36, !dbg !1970
  store [3 x i16]* null, [3 x i16]** %arrayidx37, align 8, !dbg !1970
  br label %for.inc38, !dbg !1973

for.inc38:                                        ; preds = %for.body29
  %53 = load i32, i32* %i, align 4, !dbg !1974
  %inc39 = add nsw i32 %53, 1, !dbg !1974
  store i32 %inc39, i32* %i, align 4, !dbg !1974
  br label %for.cond26, !dbg !1975, !llvm.loop !1976

for.end40:                                        ; preds = %for.cond26
  %54 = load %"struct.pov::HField_Struct"*, %"struct.pov::HField_Struct"** %HField, align 8, !dbg !1978
  %Data41 = getelementptr inbounds %"struct.pov::HField_Struct", %"struct.pov::HField_Struct"* %54, i32 0, i32 16, !dbg !1978
  %55 = load %"struct.pov::HField_Data_Struct"*, %"struct.pov::HField_Data_Struct"** %Data41, align 8, !dbg !1978
  %Normals42 = getelementptr inbounds %"struct.pov::HField_Data_Struct", %"struct.pov::HField_Data_Struct"* %55, i32 0, i32 12, !dbg !1978
  %56 = load [3 x i16]**, [3 x i16]*** %Normals42, align 8, !dbg !1978
  %57 = bitcast [3 x i16]** %56 to i8*, !dbg !1978
  call void @_ZN3pov8pov_freeEPvPKci(i8* %57, i8* getelementptr inbounds ([11 x i8], [11 x i8]* @.str, i64 0, i64 0), i32 1438), !dbg !1978
  %58 = load %"struct.pov::HField_Struct"*, %"struct.pov::HField_Struct"** %HField, align 8, !dbg !1978
  %Data43 = getelementptr inbounds %"struct.pov::HField_Struct", %"struct.pov::HField_Struct"* %58, i32 0, i32 16, !dbg !1978
  %59 = load %"struct.pov::HField_Data_Struct"*, %"struct.pov::HField_Data_Struct"** %Data43, align 8, !dbg !1978
  %Normals44 = getelementptr inbounds %"struct.pov::HField_Data_Struct", %"struct.pov::HField_Data_Struct"* %59, i32 0, i32 12, !dbg !1978
  store [3 x i16]** null, [3 x i16]*** %Normals44, align 8, !dbg !1978
  br label %if.end45, !dbg !1980

if.end45:                                         ; preds = %for.end40, %if.end22
  %60 = load %"struct.pov::HField_Struct"*, %"struct.pov::HField_Struct"** %HField, align 8, !dbg !1981
  %Data46 = getelementptr inbounds %"struct.pov::HField_Struct", %"struct.pov::HField_Struct"* %60, i32 0, i32 16, !dbg !1983
  %61 = load %"struct.pov::HField_Data_Struct"*, %"struct.pov::HField_Data_Struct"** %Data46, align 8, !dbg !1983
  %Block = getelementptr inbounds %"struct.pov::HField_Data_Struct", %"struct.pov::HField_Data_Struct"* %61, i32 0, i32 14, !dbg !1984
  %62 = load %"struct.pov::HField_Block_Struct"**, %"struct.pov::HField_Block_Struct"*** %Block, align 8, !dbg !1984
  %cmp47 = icmp ne %"struct.pov::HField_Block_Struct"** %62, null, !dbg !1985
  br i1 %cmp47, label %if.then48, label %if.end68, !dbg !1986

if.then48:                                        ; preds = %if.end45
  store i32 0, i32* %i, align 4, !dbg !1987
  br label %for.cond49, !dbg !1990

for.cond49:                                       ; preds = %for.inc61, %if.then48
  %63 = load i32, i32* %i, align 4, !dbg !1991
  %64 = load %"struct.pov::HField_Struct"*, %"struct.pov::HField_Struct"** %HField, align 8, !dbg !1993
  %Data50 = getelementptr inbounds %"struct.pov::HField_Struct", %"struct.pov::HField_Struct"* %64, i32 0, i32 16, !dbg !1994
  %65 = load %"struct.pov::HField_Data_Struct"*, %"struct.pov::HField_Data_Struct"** %Data50, align 8, !dbg !1994
  %block_max_z = getelementptr inbounds %"struct.pov::HField_Data_Struct", %"struct.pov::HField_Data_Struct"* %65, i32 0, i32 8, !dbg !1995
  %66 = load i32, i32* %block_max_z, align 4, !dbg !1995
  %cmp51 = icmp slt i32 %63, %66, !dbg !1996
  br i1 %cmp51, label %for.body52, label %for.end63, !dbg !1997

for.body52:                                       ; preds = %for.cond49
  %67 = load %"struct.pov::HField_Struct"*, %"struct.pov::HField_Struct"** %HField, align 8, !dbg !1998
  %Data53 = getelementptr inbounds %"struct.pov::HField_Struct", %"struct.pov::HField_Struct"* %67, i32 0, i32 16, !dbg !1998
  %68 = load %"struct.pov::HField_Data_Struct"*, %"struct.pov::HField_Data_Struct"** %Data53, align 8, !dbg !1998
  %Block54 = getelementptr inbounds %"struct.pov::HField_Data_Struct", %"struct.pov::HField_Data_Struct"* %68, i32 0, i32 14, !dbg !1998
  %69 = load %"struct.pov::HField_Block_Struct"**, %"struct.pov::HField_Block_Struct"*** %Block54, align 8, !dbg !1998
  %70 = load i32, i32* %i, align 4, !dbg !1998
  %idxprom55 = sext i32 %70 to i64, !dbg !1998
  %arrayidx56 = getelementptr inbounds %"struct.pov::HField_Block_Struct"*, %"struct.pov::HField_Block_Struct"** %69, i64 %idxprom55, !dbg !1998
  %71 = load %"struct.pov::HField_Block_Struct"*, %"struct.pov::HField_Block_Struct"** %arrayidx56, align 8, !dbg !1998
  %72 = bitcast %"struct.pov::HField_Block_Struct"* %71 to i8*, !dbg !1998
  call void @_ZN3pov8pov_freeEPvPKci(i8* %72, i8* getelementptr inbounds ([11 x i8], [11 x i8]* @.str, i64 0, i64 0), i32 1445), !dbg !1998
  %73 = load %"struct.pov::HField_Struct"*, %"struct.pov::HField_Struct"** %HField, align 8, !dbg !1998
  %Data57 = getelementptr inbounds %"struct.pov::HField_Struct", %"struct.pov::HField_Struct"* %73, i32 0, i32 16, !dbg !1998
  %74 = load %"struct.pov::HField_Data_Struct"*, %"struct.pov::HField_Data_Struct"** %Data57, align 8, !dbg !1998
  %Block58 = getelementptr inbounds %"struct.pov::HField_Data_Struct", %"struct.pov::HField_Data_Struct"* %74, i32 0, i32 14, !dbg !1998
  %75 = load %"struct.pov::HField_Block_Struct"**, %"struct.pov::HField_Block_Struct"*** %Block58, align 8, !dbg !1998
  %76 = load i32, i32* %i, align 4, !dbg !1998
  %idxprom59 = sext i32 %76 to i64, !dbg !1998
  %arrayidx60 = getelementptr inbounds %"struct.pov::HField_Block_Struct"*, %"struct.pov::HField_Block_Struct"** %75, i64 %idxprom59, !dbg !1998
  store %"struct.pov::HField_Block_Struct"* null, %"struct.pov::HField_Block_Struct"** %arrayidx60, align 8, !dbg !1998
  br label %for.inc61, !dbg !2001

for.inc61:                                        ; preds = %for.body52
  %77 = load i32, i32* %i, align 4, !dbg !2002
  %inc62 = add nsw i32 %77, 1, !dbg !2002
  store i32 %inc62, i32* %i, align 4, !dbg !2002
  br label %for.cond49, !dbg !2003, !llvm.loop !2004

for.end63:                                        ; preds = %for.cond49
  %78 = load %"struct.pov::HField_Struct"*, %"struct.pov::HField_Struct"** %HField, align 8, !dbg !2006
  %Data64 = getelementptr inbounds %"struct.pov::HField_Struct", %"struct.pov::HField_Struct"* %78, i32 0, i32 16, !dbg !2006
  %79 = load %"struct.pov::HField_Data_Struct"*, %"struct.pov::HField_Data_Struct"** %Data64, align 8, !dbg !2006
  %Block65 = getelementptr inbounds %"struct.pov::HField_Data_Struct", %"struct.pov::HField_Data_Struct"* %79, i32 0, i32 14, !dbg !2006
  %80 = load %"struct.pov::HField_Block_Struct"**, %"struct.pov::HField_Block_Struct"*** %Block65, align 8, !dbg !2006
  %81 = bitcast %"struct.pov::HField_Block_Struct"** %80 to i8*, !dbg !2006
  call void @_ZN3pov8pov_freeEPvPKci(i8* %81, i8* getelementptr inbounds ([11 x i8], [11 x i8]* @.str, i64 0, i64 0), i32 1448), !dbg !2006
  %82 = load %"struct.pov::HField_Struct"*, %"struct.pov::HField_Struct"** %HField, align 8, !dbg !2006
  %Data66 = getelementptr inbounds %"struct.pov::HField_Struct", %"struct.pov::HField_Struct"* %82, i32 0, i32 16, !dbg !2006
  %83 = load %"struct.pov::HField_Data_Struct"*, %"struct.pov::HField_Data_Struct"** %Data66, align 8, !dbg !2006
  %Block67 = getelementptr inbounds %"struct.pov::HField_Data_Struct", %"struct.pov::HField_Data_Struct"* %83, i32 0, i32 14, !dbg !2006
  store %"struct.pov::HField_Block_Struct"** null, %"struct.pov::HField_Block_Struct"*** %Block67, align 8, !dbg !2006
  br label %if.end68, !dbg !2008

if.end68:                                         ; preds = %for.end63, %if.end45
  %84 = load %"struct.pov::HField_Struct"*, %"struct.pov::HField_Struct"** %HField, align 8, !dbg !2009
  %Data69 = getelementptr inbounds %"struct.pov::HField_Struct", %"struct.pov::HField_Struct"* %84, i32 0, i32 16, !dbg !2009
  %85 = load %"struct.pov::HField_Data_Struct"*, %"struct.pov::HField_Data_Struct"** %Data69, align 8, !dbg !2009
  %86 = bitcast %"struct.pov::HField_Data_Struct"* %85 to i8*, !dbg !2009
  call void @_ZN3pov8pov_freeEPvPKci(i8* %86, i8* getelementptr inbounds ([11 x i8], [11 x i8]* @.str, i64 0, i64 0), i32 1451), !dbg !2009
  %87 = load %"struct.pov::HField_Struct"*, %"struct.pov::HField_Struct"** %HField, align 8, !dbg !2009
  %Data70 = getelementptr inbounds %"struct.pov::HField_Struct", %"struct.pov::HField_Struct"* %87, i32 0, i32 16, !dbg !2009
  store %"struct.pov::HField_Data_Struct"* null, %"struct.pov::HField_Data_Struct"** %Data70, align 8, !dbg !2009
  br label %if.end71, !dbg !2011

if.end71:                                         ; preds = %if.end68, %entry
  %88 = load %"struct.pov::Object_Struct"*, %"struct.pov::Object_Struct"** %Object.addr, align 8, !dbg !2012
  %89 = bitcast %"struct.pov::Object_Struct"* %88 to i8*, !dbg !2012
  call void @_ZN3pov8pov_freeEPvPKci(i8* %89, i8* getelementptr inbounds ([11 x i8], [11 x i8]* @.str, i64 0, i64 0), i32 1454), !dbg !2012
  store %"struct.pov::Object_Struct"* null, %"struct.pov::Object_Struct"** %Object.addr, align 8, !dbg !2012
  ret void, !dbg !2014
}

; Function Attrs: noinline uwtable
define dso_local void @_ZN3pov14Compute_HFieldEPNS_13HField_StructEPNS_12Image_StructE(%"struct.pov::HField_Struct"* %HField, %"struct.pov::Image_Struct"* %Image) #0 !dbg !2015 {
entry:
  %HField.addr = alloca %"struct.pov::HField_Struct"*, align 8
  %Image.addr = alloca %"struct.pov::Image_Struct"*, align 8
  %x = alloca i32, align 4
  %z = alloca i32, align 4
  %max_x = alloca i32, align 4
  %max_z = alloca i32, align 4
  %min_y = alloca i16, align 2
  %max_y = alloca i16, align 2
  %temp_y = alloca i16, align 2
  %ref.tmp = alloca double, align 8
  store %"struct.pov::HField_Struct"* %HField, %"struct.pov::HField_Struct"** %HField.addr, align 8
  call void @llvm.dbg.declare(metadata %"struct.pov::HField_Struct"** %HField.addr, metadata !2061, metadata !DIExpression()), !dbg !2062
  store %"struct.pov::Image_Struct"* %Image, %"struct.pov::Image_Struct"** %Image.addr, align 8
  call void @llvm.dbg.declare(metadata %"struct.pov::Image_Struct"** %Image.addr, metadata !2063, metadata !DIExpression()), !dbg !2064
  call void @llvm.dbg.declare(metadata i32* %x, metadata !2065, metadata !DIExpression()), !dbg !2066
  call void @llvm.dbg.declare(metadata i32* %z, metadata !2067, metadata !DIExpression()), !dbg !2068
  call void @llvm.dbg.declare(metadata i32* %max_x, metadata !2069, metadata !DIExpression()), !dbg !2070
  call void @llvm.dbg.declare(metadata i32* %max_z, metadata !2071, metadata !DIExpression()), !dbg !2072
  call void @llvm.dbg.declare(metadata i16* %min_y, metadata !2073, metadata !DIExpression()), !dbg !2074
  call void @llvm.dbg.declare(metadata i16* %max_y, metadata !2075, metadata !DIExpression()), !dbg !2076
  call void @llvm.dbg.declare(metadata i16* %temp_y, metadata !2077, metadata !DIExpression()), !dbg !2078
  %0 = load %"struct.pov::Image_Struct"*, %"struct.pov::Image_Struct"** %Image.addr, align 8, !dbg !2079
  %iwidth = getelementptr inbounds %"struct.pov::Image_Struct", %"struct.pov::Image_Struct"* %0, i32 0, i32 5, !dbg !2080
  %1 = load i32, i32* %iwidth, align 4, !dbg !2080
  store i32 %1, i32* %max_x, align 4, !dbg !2081
  %2 = load %"struct.pov::Image_Struct"*, %"struct.pov::Image_Struct"** %Image.addr, align 8, !dbg !2082
  %iheight = getelementptr inbounds %"struct.pov::Image_Struct", %"struct.pov::Image_Struct"* %2, i32 0, i32 6, !dbg !2083
  %3 = load i32, i32* %iheight, align 8, !dbg !2083
  store i32 %3, i32* %max_z, align 4, !dbg !2084
  %4 = load i32, i32* %max_z, align 4, !dbg !2085
  %conv = sext i32 %4 to i64, !dbg !2085
  %mul = mul i64 %conv, 8, !dbg !2085
  %call = call i8* @_ZN3pov10pov_mallocEmPKciS1_(i64 %mul, i8* getelementptr inbounds ([11 x i8], [11 x i8]* @.str, i64 0, i64 0), i32 894, i8* getelementptr inbounds ([13 x i8], [13 x i8]* @.str.1, i64 0, i64 0)), !dbg !2085
  %5 = bitcast i8* %call to i16**, !dbg !2086
  %6 = load %"struct.pov::HField_Struct"*, %"struct.pov::HField_Struct"** %HField.addr, align 8, !dbg !2087
  %Data = getelementptr inbounds %"struct.pov::HField_Struct", %"struct.pov::HField_Struct"* %6, i32 0, i32 16, !dbg !2088
  %7 = load %"struct.pov::HField_Data_Struct"*, %"struct.pov::HField_Data_Struct"** %Data, align 8, !dbg !2088
  %Map = getelementptr inbounds %"struct.pov::HField_Data_Struct", %"struct.pov::HField_Data_Struct"* %7, i32 0, i32 11, !dbg !2089
  store i16** %5, i16*** %Map, align 8, !dbg !2090
  store i32 0, i32* %z, align 4, !dbg !2091
  br label %for.cond, !dbg !2093

for.cond:                                         ; preds = %for.inc, %entry
  %8 = load i32, i32* %z, align 4, !dbg !2094
  %9 = load i32, i32* %max_z, align 4, !dbg !2096
  %cmp = icmp slt i32 %8, %9, !dbg !2097
  br i1 %cmp, label %for.body, label %for.end, !dbg !2098

for.body:                                         ; preds = %for.cond
  %10 = load i32, i32* %max_x, align 4, !dbg !2099
  %conv1 = sext i32 %10 to i64, !dbg !2099
  %mul2 = mul i64 %conv1, 2, !dbg !2099
  %call3 = call i8* @_ZN3pov10pov_mallocEmPKciS1_(i64 %mul2, i8* getelementptr inbounds ([11 x i8], [11 x i8]* @.str, i64 0, i64 0), i32 898, i8* getelementptr inbounds ([13 x i8], [13 x i8]* @.str.1, i64 0, i64 0)), !dbg !2099
  %11 = bitcast i8* %call3 to i16*, !dbg !2101
  %12 = load %"struct.pov::HField_Struct"*, %"struct.pov::HField_Struct"** %HField.addr, align 8, !dbg !2102
  %Data4 = getelementptr inbounds %"struct.pov::HField_Struct", %"struct.pov::HField_Struct"* %12, i32 0, i32 16, !dbg !2103
  %13 = load %"struct.pov::HField_Data_Struct"*, %"struct.pov::HField_Data_Struct"** %Data4, align 8, !dbg !2103
  %Map5 = getelementptr inbounds %"struct.pov::HField_Data_Struct", %"struct.pov::HField_Data_Struct"* %13, i32 0, i32 11, !dbg !2104
  %14 = load i16**, i16*** %Map5, align 8, !dbg !2104
  %15 = load i32, i32* %z, align 4, !dbg !2105
  %idxprom = sext i32 %15 to i64, !dbg !2102
  %arrayidx = getelementptr inbounds i16*, i16** %14, i64 %idxprom, !dbg !2102
  store i16* %11, i16** %arrayidx, align 8, !dbg !2106
  br label %for.inc, !dbg !2107

for.inc:                                          ; preds = %for.body
  %16 = load i32, i32* %z, align 4, !dbg !2108
  %inc = add nsw i32 %16, 1, !dbg !2108
  store i32 %inc, i32* %z, align 4, !dbg !2108
  br label %for.cond, !dbg !2109, !llvm.loop !2110

for.end:                                          ; preds = %for.cond
  store i16 -1, i16* %min_y, align 2, !dbg !2112
  store i16 0, i16* %max_y, align 2, !dbg !2113
  store i32 0, i32* %z, align 4, !dbg !2114
  br label %for.cond6, !dbg !2116

for.cond6:                                        ; preds = %for.inc25, %for.end
  %17 = load i32, i32* %z, align 4, !dbg !2117
  %18 = load i32, i32* %max_z, align 4, !dbg !2119
  %cmp7 = icmp slt i32 %17, %18, !dbg !2120
  br i1 %cmp7, label %for.body8, label %for.end27, !dbg !2121

for.body8:                                        ; preds = %for.cond6
  call void @_ZN3pov12Do_CooperateEi(i32 0), !dbg !2122
  store i32 0, i32* %x, align 4, !dbg !2124
  br label %for.cond9, !dbg !2126

for.cond9:                                        ; preds = %for.inc22, %for.body8
  %19 = load i32, i32* %x, align 4, !dbg !2127
  %20 = load i32, i32* %max_x, align 4, !dbg !2129
  %cmp10 = icmp slt i32 %19, %20, !dbg !2130
  br i1 %cmp10, label %for.body11, label %for.end24, !dbg !2131

for.body11:                                       ; preds = %for.cond9
  %21 = load %"struct.pov::Image_Struct"*, %"struct.pov::Image_Struct"** %Image.addr, align 8, !dbg !2132
  %22 = load i32, i32* %x, align 4, !dbg !2134
  %23 = load i32, i32* %max_z, align 4, !dbg !2135
  %24 = load i32, i32* %z, align 4, !dbg !2136
  %sub = sub nsw i32 %23, %24, !dbg !2137
  %sub12 = sub nsw i32 %sub, 1, !dbg !2138
  %call13 = call zeroext i16 @_ZN3pov15image_height_atEPNS_12Image_StructEii(%"struct.pov::Image_Struct"* %21, i32 %22, i32 %sub12), !dbg !2139
  store i16 %call13, i16* %temp_y, align 2, !dbg !2140
  %25 = load i16, i16* %temp_y, align 2, !dbg !2141
  %26 = load %"struct.pov::HField_Struct"*, %"struct.pov::HField_Struct"** %HField.addr, align 8, !dbg !2142
  %Data14 = getelementptr inbounds %"struct.pov::HField_Struct", %"struct.pov::HField_Struct"* %26, i32 0, i32 16, !dbg !2143
  %27 = load %"struct.pov::HField_Data_Struct"*, %"struct.pov::HField_Data_Struct"** %Data14, align 8, !dbg !2143
  %Map15 = getelementptr inbounds %"struct.pov::HField_Data_Struct", %"struct.pov::HField_Data_Struct"* %27, i32 0, i32 11, !dbg !2144
  %28 = load i16**, i16*** %Map15, align 8, !dbg !2144
  %29 = load i32, i32* %z, align 4, !dbg !2145
  %idxprom16 = sext i32 %29 to i64, !dbg !2142
  %arrayidx17 = getelementptr inbounds i16*, i16** %28, i64 %idxprom16, !dbg !2142
  %30 = load i16*, i16** %arrayidx17, align 8, !dbg !2142
  %31 = load i32, i32* %x, align 4, !dbg !2146
  %idxprom18 = sext i32 %31 to i64, !dbg !2142
  %arrayidx19 = getelementptr inbounds i16, i16* %30, i64 %idxprom18, !dbg !2142
  store i16 %25, i16* %arrayidx19, align 2, !dbg !2147
  %call20 = call dereferenceable(2) i16* @_ZSt3minItERKT_S2_S2_(i16* dereferenceable(2) %min_y, i16* dereferenceable(2) %temp_y), !dbg !2148
  %32 = load i16, i16* %call20, align 2, !dbg !2148
  store i16 %32, i16* %min_y, align 2, !dbg !2149
  %call21 = call dereferenceable(2) i16* @_ZSt3maxItERKT_S2_S2_(i16* dereferenceable(2) %max_y, i16* dereferenceable(2) %temp_y), !dbg !2150
  %33 = load i16, i16* %call21, align 2, !dbg !2150
  store i16 %33, i16* %max_y, align 2, !dbg !2151
  br label %for.inc22, !dbg !2152

for.inc22:                                        ; preds = %for.body11
  %34 = load i32, i32* %x, align 4, !dbg !2153
  %inc23 = add nsw i32 %34, 1, !dbg !2153
  store i32 %inc23, i32* %x, align 4, !dbg !2153
  br label %for.cond9, !dbg !2154, !llvm.loop !2155

for.end24:                                        ; preds = %for.cond9
  br label %for.inc25, !dbg !2157

for.inc25:                                        ; preds = %for.end24
  %35 = load i32, i32* %z, align 4, !dbg !2158
  %inc26 = add nsw i32 %35, 1, !dbg !2158
  store i32 %inc26, i32* %z, align 4, !dbg !2158
  br label %for.cond6, !dbg !2159, !llvm.loop !2160

for.end27:                                        ; preds = %for.cond6
  %36 = load i16, i16* %min_y, align 2, !dbg !2162
  %37 = load %"struct.pov::HField_Struct"*, %"struct.pov::HField_Struct"** %HField.addr, align 8, !dbg !2163
  %Data28 = getelementptr inbounds %"struct.pov::HField_Struct", %"struct.pov::HField_Struct"* %37, i32 0, i32 16, !dbg !2164
  %38 = load %"struct.pov::HField_Data_Struct"*, %"struct.pov::HField_Data_Struct"** %Data28, align 8, !dbg !2164
  %min_y29 = getelementptr inbounds %"struct.pov::HField_Data_Struct", %"struct.pov::HField_Data_Struct"* %38, i32 0, i32 5, !dbg !2165
  store i16 %36, i16* %min_y29, align 4, !dbg !2166
  %39 = load i16, i16* %max_y, align 2, !dbg !2167
  %40 = load %"struct.pov::HField_Struct"*, %"struct.pov::HField_Struct"** %HField.addr, align 8, !dbg !2168
  %Data30 = getelementptr inbounds %"struct.pov::HField_Struct", %"struct.pov::HField_Struct"* %40, i32 0, i32 16, !dbg !2169
  %41 = load %"struct.pov::HField_Data_Struct"*, %"struct.pov::HField_Data_Struct"** %Data30, align 8, !dbg !2169
  %max_y31 = getelementptr inbounds %"struct.pov::HField_Data_Struct", %"struct.pov::HField_Data_Struct"* %41, i32 0, i32 6, !dbg !2170
  store i16 %39, i16* %max_y31, align 2, !dbg !2171
  %42 = load i16, i16* %min_y, align 2, !dbg !2172
  %conv32 = uitofp i16 %42 to double, !dbg !2172
  store double %conv32, double* %ref.tmp, align 8, !dbg !2173
  %43 = load %"struct.pov::HField_Struct"*, %"struct.pov::HField_Struct"** %HField.addr, align 8, !dbg !2174
  %bounding_corner1 = getelementptr inbounds %"struct.pov::HField_Struct", %"struct.pov::HField_Struct"* %43, i32 0, i32 14, !dbg !2175
  %arrayidx33 = getelementptr inbounds [3 x double], [3 x double]* %bounding_corner1, i64 0, i64 1, !dbg !2174
  %call34 = call dereferenceable(8) double* @_ZSt3maxIdERKT_S2_S2_(double* dereferenceable(8) %ref.tmp, double* dereferenceable(8) %arrayidx33), !dbg !2176
  %44 = load double, double* %call34, align 8, !dbg !2176
  %sub35 = fsub double %44, 1.000000e-03, !dbg !2177
  %45 = load %"struct.pov::HField_Struct"*, %"struct.pov::HField_Struct"** %HField.addr, align 8, !dbg !2178
  %bounding_corner136 = getelementptr inbounds %"struct.pov::HField_Struct", %"struct.pov::HField_Struct"* %45, i32 0, i32 14, !dbg !2179
  %arrayidx37 = getelementptr inbounds [3 x double], [3 x double]* %bounding_corner136, i64 0, i64 1, !dbg !2178
  store double %sub35, double* %arrayidx37, align 8, !dbg !2180
  %46 = load i16, i16* %max_y, align 2, !dbg !2181
  %conv38 = uitofp i16 %46 to double, !dbg !2181
  %add = fadd double %conv38, 1.000000e-03, !dbg !2182
  %47 = load %"struct.pov::HField_Struct"*, %"struct.pov::HField_Struct"** %HField.addr, align 8, !dbg !2183
  %bounding_corner2 = getelementptr inbounds %"struct.pov::HField_Struct", %"struct.pov::HField_Struct"* %47, i32 0, i32 15, !dbg !2184
  %arrayidx39 = getelementptr inbounds [3 x double], [3 x double]* %bounding_corner2, i64 0, i64 1, !dbg !2183
  store double %add, double* %arrayidx39, align 8, !dbg !2185
  %48 = load %"struct.pov::HField_Struct"*, %"struct.pov::HField_Struct"** %HField.addr, align 8, !dbg !2186
  %Flags = getelementptr inbounds %"struct.pov::HField_Struct", %"struct.pov::HField_Struct"* %48, i32 0, i32 13, !dbg !2186
  %49 = load i32, i32* %Flags, align 4, !dbg !2186
  %conv40 = zext i32 %49 to i64, !dbg !2186
  %and = and i64 %conv40, 8, !dbg !2186
  %tobool = icmp ne i64 %and, 0, !dbg !2186
  br i1 %tobool, label %if.then, label %if.end, !dbg !2188

if.then:                                          ; preds = %for.end27
  %50 = load %"struct.pov::HField_Struct"*, %"struct.pov::HField_Struct"** %HField.addr, align 8, !dbg !2189
  %51 = load i32, i32* %max_x, align 4, !dbg !2191
  %sub41 = sub nsw i32 %51, 1, !dbg !2192
  %52 = load i32, i32* %max_z, align 4, !dbg !2193
  %sub42 = sub nsw i32 %52, 1, !dbg !2194
  call void @_ZN3povL19smooth_height_fieldEPNS_13HField_StructEii(%"struct.pov::HField_Struct"* %50, i32 %sub41, i32 %sub42), !dbg !2195
  br label %if.end, !dbg !2196

if.end:                                           ; preds = %if.then, %for.end27
  %53 = load i32, i32* %max_x, align 4, !dbg !2197
  %sub43 = sub nsw i32 %53, 2, !dbg !2198
  %54 = load %"struct.pov::HField_Struct"*, %"struct.pov::HField_Struct"** %HField.addr, align 8, !dbg !2199
  %Data44 = getelementptr inbounds %"struct.pov::HField_Struct", %"struct.pov::HField_Struct"* %54, i32 0, i32 16, !dbg !2200
  %55 = load %"struct.pov::HField_Data_Struct"*, %"struct.pov::HField_Data_Struct"** %Data44, align 8, !dbg !2200
  %max_x45 = getelementptr inbounds %"struct.pov::HField_Data_Struct", %"struct.pov::HField_Data_Struct"* %55, i32 0, i32 3, !dbg !2201
  store i32 %sub43, i32* %max_x45, align 4, !dbg !2202
  %56 = load i32, i32* %max_z, align 4, !dbg !2203
  %sub46 = sub nsw i32 %56, 2, !dbg !2204
  %57 = load %"struct.pov::HField_Struct"*, %"struct.pov::HField_Struct"** %HField.addr, align 8, !dbg !2205
  %Data47 = getelementptr inbounds %"struct.pov::HField_Struct", %"struct.pov::HField_Struct"* %57, i32 0, i32 16, !dbg !2206
  %58 = load %"struct.pov::HField_Data_Struct"*, %"struct.pov::HField_Data_Struct"** %Data47, align 8, !dbg !2206
  %max_z48 = getelementptr inbounds %"struct.pov::HField_Data_Struct", %"struct.pov::HField_Data_Struct"* %58, i32 0, i32 4, !dbg !2207
  store i32 %sub46, i32* %max_z48, align 8, !dbg !2208
  %59 = load %"struct.pov::HField_Struct"*, %"struct.pov::HField_Struct"** %HField.addr, align 8, !dbg !2209
  call void @_ZN3povL19build_hfield_blocksEPNS_13HField_StructE(%"struct.pov::HField_Struct"* %59), !dbg !2210
  ret void, !dbg !2211
}

; Function Attrs: nounwind readnone speculatable willreturn
declare void @llvm.dbg.declare(metadata, metadata, metadata) #3

declare dso_local i8* @_ZN3pov10pov_mallocEmPKciS1_(i64, i8*, i32, i8*) #1

declare dso_local void @_ZN3pov12Do_CooperateEi(i32) #1

declare dso_local zeroext i16 @_ZN3pov15image_height_atEPNS_12Image_StructEii(%"struct.pov::Image_Struct"*, i32, i32) #1

; Function Attrs: noinline nounwind uwtable
define linkonce_odr dso_local dereferenceable(2) i16* @_ZSt3minItERKT_S2_S2_(i16* dereferenceable(2) %__a, i16* dereferenceable(2) %__b) #2 comdat !dbg !2212 {
entry:
  %retval = alloca i16*, align 8
  %__a.addr = alloca i16*, align 8
  %__b.addr = alloca i16*, align 8
  store i16* %__a, i16** %__a.addr, align 8
  call void @llvm.dbg.declare(metadata i16** %__a.addr, metadata !2220, metadata !DIExpression()), !dbg !2222
  store i16* %__b, i16** %__b.addr, align 8
  call void @llvm.dbg.declare(metadata i16** %__b.addr, metadata !2223, metadata !DIExpression()), !dbg !2224
  %0 = load i16*, i16** %__b.addr, align 8, !dbg !2225
  %1 = load i16, i16* %0, align 2, !dbg !2225
  %conv = zext i16 %1 to i32, !dbg !2225
  %2 = load i16*, i16** %__a.addr, align 8, !dbg !2227
  %3 = load i16, i16* %2, align 2, !dbg !2227
  %conv1 = zext i16 %3 to i32, !dbg !2227
  %cmp = icmp slt i32 %conv, %conv1, !dbg !2228
  br i1 %cmp, label %if.then, label %if.end, !dbg !2229

if.then:                                          ; preds = %entry
  %4 = load i16*, i16** %__b.addr, align 8, !dbg !2230
  store i16* %4, i16** %retval, align 8, !dbg !2231
  br label %return, !dbg !2231

if.end:                                           ; preds = %entry
  %5 = load i16*, i16** %__a.addr, align 8, !dbg !2232
  store i16* %5, i16** %retval, align 8, !dbg !2233
  br label %return, !dbg !2233

return:                                           ; preds = %if.end, %if.then
  %6 = load i16*, i16** %retval, align 8, !dbg !2234
  ret i16* %6, !dbg !2234
}

; Function Attrs: noinline nounwind uwtable
define linkonce_odr dso_local dereferenceable(2) i16* @_ZSt3maxItERKT_S2_S2_(i16* dereferenceable(2) %__a, i16* dereferenceable(2) %__b) #2 comdat !dbg !2235 {
entry:
  %retval = alloca i16*, align 8
  %__a.addr = alloca i16*, align 8
  %__b.addr = alloca i16*, align 8
  store i16* %__a, i16** %__a.addr, align 8
  call void @llvm.dbg.declare(metadata i16** %__a.addr, metadata !2236, metadata !DIExpression()), !dbg !2237
  store i16* %__b, i16** %__b.addr, align 8
  call void @llvm.dbg.declare(metadata i16** %__b.addr, metadata !2238, metadata !DIExpression()), !dbg !2239
  %0 = load i16*, i16** %__a.addr, align 8, !dbg !2240
  %1 = load i16, i16* %0, align 2, !dbg !2240
  %conv = zext i16 %1 to i32, !dbg !2240
  %2 = load i16*, i16** %__b.addr, align 8, !dbg !2242
  %3 = load i16, i16* %2, align 2, !dbg !2242
  %conv1 = zext i16 %3 to i32, !dbg !2242
  %cmp = icmp slt i32 %conv, %conv1, !dbg !2243
  br i1 %cmp, label %if.then, label %if.end, !dbg !2244

if.then:                                          ; preds = %entry
  %4 = load i16*, i16** %__b.addr, align 8, !dbg !2245
  store i16* %4, i16** %retval, align 8, !dbg !2246
  br label %return, !dbg !2246

if.end:                                           ; preds = %entry
  %5 = load i16*, i16** %__a.addr, align 8, !dbg !2247
  store i16* %5, i16** %retval, align 8, !dbg !2248
  br label %return, !dbg !2248

return:                                           ; preds = %if.end, %if.then
  %6 = load i16*, i16** %retval, align 8, !dbg !2249
  ret i16* %6, !dbg !2249
}

; Function Attrs: noinline nounwind uwtable
define linkonce_odr dso_local dereferenceable(8) double* @_ZSt3maxIdERKT_S2_S2_(double* dereferenceable(8) %__a, double* dereferenceable(8) %__b) #2 comdat !dbg !2250 {
entry:
  %retval = alloca double*, align 8
  %__a.addr = alloca double*, align 8
  %__b.addr = alloca double*, align 8
  store double* %__a, double** %__a.addr, align 8
  call void @llvm.dbg.declare(metadata double** %__a.addr, metadata !2256, metadata !DIExpression()), !dbg !2257
  store double* %__b, double** %__b.addr, align 8
  call void @llvm.dbg.declare(metadata double** %__b.addr, metadata !2258, metadata !DIExpression()), !dbg !2259
  %0 = load double*, double** %__a.addr, align 8, !dbg !2260
  %1 = load double, double* %0, align 8, !dbg !2260
  %2 = load double*, double** %__b.addr, align 8, !dbg !2262
  %3 = load double, double* %2, align 8, !dbg !2262
  %cmp = fcmp olt double %1, %3, !dbg !2263
  br i1 %cmp, label %if.then, label %if.end, !dbg !2264

if.then:                                          ; preds = %entry
  %4 = load double*, double** %__b.addr, align 8, !dbg !2265
  store double* %4, double** %retval, align 8, !dbg !2266
  br label %return, !dbg !2266

if.end:                                           ; preds = %entry
  %5 = load double*, double** %__a.addr, align 8, !dbg !2267
  store double* %5, double** %retval, align 8, !dbg !2268
  br label %return, !dbg !2268

return:                                           ; preds = %if.end, %if.then
  %6 = load double*, double** %retval, align 8, !dbg !2269
  ret double* %6, !dbg !2269
}

; Function Attrs: noinline uwtable
define internal void @_ZN3povL19smooth_height_fieldEPNS_13HField_StructEii(%"struct.pov::HField_Struct"* %HField, i32 %xsize, i32 %zsize) #0 !dbg !2270 {
entry:
  %HField.addr = alloca %"struct.pov::HField_Struct"*, align 8
  %xsize.addr = alloca i32, align 4
  %zsize.addr = alloca i32, align 4
  %i = alloca i32, align 4
  %j = alloca i32, align 4
  %k = alloca i32, align 4
  %N = alloca [3 x double], align 16
  %map = alloca i16**, align 8
  store %"struct.pov::HField_Struct"* %HField, %"struct.pov::HField_Struct"** %HField.addr, align 8
  call void @llvm.dbg.declare(metadata %"struct.pov::HField_Struct"** %HField.addr, metadata !2273, metadata !DIExpression()), !dbg !2274
  store i32 %xsize, i32* %xsize.addr, align 4
  call void @llvm.dbg.declare(metadata i32* %xsize.addr, metadata !2275, metadata !DIExpression()), !dbg !2276
  store i32 %zsize, i32* %zsize.addr, align 4
  call void @llvm.dbg.declare(metadata i32* %zsize.addr, metadata !2277, metadata !DIExpression()), !dbg !2278
  call void @llvm.dbg.declare(metadata i32* %i, metadata !2279, metadata !DIExpression()), !dbg !2280
  call void @llvm.dbg.declare(metadata i32* %j, metadata !2281, metadata !DIExpression()), !dbg !2282
  call void @llvm.dbg.declare(metadata i32* %k, metadata !2283, metadata !DIExpression()), !dbg !2284
  call void @llvm.dbg.declare(metadata [3 x double]* %N, metadata !2285, metadata !DIExpression()), !dbg !2286
  call void @llvm.dbg.declare(metadata i16*** %map, metadata !2287, metadata !DIExpression()), !dbg !2288
  %0 = load %"struct.pov::HField_Struct"*, %"struct.pov::HField_Struct"** %HField.addr, align 8, !dbg !2289
  %Data = getelementptr inbounds %"struct.pov::HField_Struct", %"struct.pov::HField_Struct"* %0, i32 0, i32 16, !dbg !2290
  %1 = load %"struct.pov::HField_Data_Struct"*, %"struct.pov::HField_Data_Struct"** %Data, align 8, !dbg !2290
  %Map = getelementptr inbounds %"struct.pov::HField_Data_Struct", %"struct.pov::HField_Data_Struct"* %1, i32 0, i32 11, !dbg !2291
  %2 = load i16**, i16*** %Map, align 8, !dbg !2291
  store i16** %2, i16*** %map, align 8, !dbg !2288
  %3 = load i32, i32* %zsize.addr, align 4, !dbg !2292
  %add = add nsw i32 %3, 1, !dbg !2293
  %4 = load %"struct.pov::HField_Struct"*, %"struct.pov::HField_Struct"** %HField.addr, align 8, !dbg !2294
  %Data1 = getelementptr inbounds %"struct.pov::HField_Struct", %"struct.pov::HField_Struct"* %4, i32 0, i32 16, !dbg !2295
  %5 = load %"struct.pov::HField_Data_Struct"*, %"struct.pov::HField_Data_Struct"** %Data1, align 8, !dbg !2295
  %Normals_Height = getelementptr inbounds %"struct.pov::HField_Data_Struct", %"struct.pov::HField_Data_Struct"* %5, i32 0, i32 2, !dbg !2296
  store i32 %add, i32* %Normals_Height, align 8, !dbg !2297
  %6 = load i32, i32* %zsize.addr, align 4, !dbg !2298
  %add2 = add nsw i32 %6, 1, !dbg !2298
  %conv = sext i32 %add2 to i64, !dbg !2298
  %mul = mul i64 %conv, 8, !dbg !2298
  %call = call i8* @_ZN3pov10pov_mallocEmPKciS1_(i64 %mul, i8* getelementptr inbounds ([11 x i8], [11 x i8]* @.str, i64 0, i64 0), i32 812, i8* getelementptr inbounds ([21 x i8], [21 x i8]* @.str.3, i64 0, i64 0)), !dbg !2298
  %7 = bitcast i8* %call to [3 x i16]**, !dbg !2299
  %8 = load %"struct.pov::HField_Struct"*, %"struct.pov::HField_Struct"** %HField.addr, align 8, !dbg !2300
  %Data3 = getelementptr inbounds %"struct.pov::HField_Struct", %"struct.pov::HField_Struct"* %8, i32 0, i32 16, !dbg !2301
  %9 = load %"struct.pov::HField_Data_Struct"*, %"struct.pov::HField_Data_Struct"** %Data3, align 8, !dbg !2301
  %Normals = getelementptr inbounds %"struct.pov::HField_Data_Struct", %"struct.pov::HField_Data_Struct"* %9, i32 0, i32 12, !dbg !2302
  store [3 x i16]** %7, [3 x i16]*** %Normals, align 8, !dbg !2303
  store i32 0, i32* %i, align 4, !dbg !2304
  br label %for.cond, !dbg !2306

for.cond:                                         ; preds = %for.inc, %entry
  %10 = load i32, i32* %i, align 4, !dbg !2307
  %11 = load i32, i32* %zsize.addr, align 4, !dbg !2309
  %cmp = icmp sle i32 %10, %11, !dbg !2310
  br i1 %cmp, label %for.body, label %for.end, !dbg !2311

for.body:                                         ; preds = %for.cond
  %12 = load i32, i32* %xsize.addr, align 4, !dbg !2312
  %add4 = add nsw i32 %12, 1, !dbg !2312
  %conv5 = sext i32 %add4 to i64, !dbg !2312
  %mul6 = mul i64 %conv5, 6, !dbg !2312
  %call7 = call i8* @_ZN3pov10pov_mallocEmPKciS1_(i64 %mul6, i8* getelementptr inbounds ([11 x i8], [11 x i8]* @.str, i64 0, i64 0), i32 816, i8* getelementptr inbounds ([21 x i8], [21 x i8]* @.str.3, i64 0, i64 0)), !dbg !2312
  %13 = bitcast i8* %call7 to [3 x i16]*, !dbg !2314
  %14 = load %"struct.pov::HField_Struct"*, %"struct.pov::HField_Struct"** %HField.addr, align 8, !dbg !2315
  %Data8 = getelementptr inbounds %"struct.pov::HField_Struct", %"struct.pov::HField_Struct"* %14, i32 0, i32 16, !dbg !2316
  %15 = load %"struct.pov::HField_Data_Struct"*, %"struct.pov::HField_Data_Struct"** %Data8, align 8, !dbg !2316
  %Normals9 = getelementptr inbounds %"struct.pov::HField_Data_Struct", %"struct.pov::HField_Data_Struct"* %15, i32 0, i32 12, !dbg !2317
  %16 = load [3 x i16]**, [3 x i16]*** %Normals9, align 8, !dbg !2317
  %17 = load i32, i32* %i, align 4, !dbg !2318
  %idxprom = sext i32 %17 to i64, !dbg !2315
  %arrayidx = getelementptr inbounds [3 x i16]*, [3 x i16]** %16, i64 %idxprom, !dbg !2315
  store [3 x i16]* %13, [3 x i16]** %arrayidx, align 8, !dbg !2319
  br label %for.inc, !dbg !2320

for.inc:                                          ; preds = %for.body
  %18 = load i32, i32* %i, align 4, !dbg !2321
  %inc = add nsw i32 %18, 1, !dbg !2321
  store i32 %inc, i32* %i, align 4, !dbg !2321
  br label %for.cond, !dbg !2322, !llvm.loop !2323

for.end:                                          ; preds = %for.cond
  store i32 0, i32* %i, align 4, !dbg !2325
  br label %for.cond10, !dbg !2327

for.cond10:                                       ; preds = %for.inc73, %for.end
  %19 = load i32, i32* %i, align 4, !dbg !2328
  %20 = load i32, i32* %zsize.addr, align 4, !dbg !2330
  %cmp11 = icmp sle i32 %19, %20, !dbg !2331
  br i1 %cmp11, label %for.body12, label %for.end75, !dbg !2332

for.body12:                                       ; preds = %for.cond10
  call void @_ZN3pov12Do_CooperateEi(i32 0), !dbg !2333
  store i32 0, i32* %j, align 4, !dbg !2335
  br label %for.cond13, !dbg !2337

for.cond13:                                       ; preds = %for.inc70, %for.body12
  %21 = load i32, i32* %j, align 4, !dbg !2338
  %22 = load i32, i32* %xsize.addr, align 4, !dbg !2340
  %cmp14 = icmp sle i32 %21, %22, !dbg !2341
  br i1 %cmp14, label %for.body15, label %for.end72, !dbg !2342

for.body15:                                       ; preds = %for.cond13
  %arraydecay = getelementptr inbounds [3 x double], [3 x double]* %N, i64 0, i64 0, !dbg !2343
  call void @_ZN3pov11Make_VectorEPdddd(double* %arraydecay, double 0.000000e+00, double 0.000000e+00, double 0.000000e+00), !dbg !2345
  store i32 0, i32* %k, align 4, !dbg !2346
  %23 = load i16**, i16*** %map, align 8, !dbg !2347
  %24 = load i32, i32* %xsize.addr, align 4, !dbg !2348
  %25 = load i32, i32* %zsize.addr, align 4, !dbg !2349
  %26 = load i32, i32* %j, align 4, !dbg !2350
  %27 = load i32, i32* %i, align 4, !dbg !2351
  %28 = load i32, i32* %j, align 4, !dbg !2352
  %add16 = add nsw i32 %28, 1, !dbg !2353
  %29 = load i32, i32* %i, align 4, !dbg !2354
  %30 = load i32, i32* %j, align 4, !dbg !2355
  %31 = load i32, i32* %i, align 4, !dbg !2356
  %add17 = add nsw i32 %31, 1, !dbg !2357
  %arraydecay18 = getelementptr inbounds [3 x double], [3 x double]* %N, i64 0, i64 0, !dbg !2358
  %call19 = call i32 @_ZN3povL17add_single_normalEPPtiiiiiiiiPd(i16** %23, i32 %24, i32 %25, i32 %26, i32 %27, i32 %add16, i32 %29, i32 %30, i32 %add17, double* %arraydecay18), !dbg !2359
  %32 = load i32, i32* %k, align 4, !dbg !2360
  %add20 = add nsw i32 %32, %call19, !dbg !2360
  store i32 %add20, i32* %k, align 4, !dbg !2360
  %33 = load i16**, i16*** %map, align 8, !dbg !2361
  %34 = load i32, i32* %xsize.addr, align 4, !dbg !2362
  %35 = load i32, i32* %zsize.addr, align 4, !dbg !2363
  %36 = load i32, i32* %j, align 4, !dbg !2364
  %37 = load i32, i32* %i, align 4, !dbg !2365
  %38 = load i32, i32* %j, align 4, !dbg !2366
  %39 = load i32, i32* %i, align 4, !dbg !2367
  %add21 = add nsw i32 %39, 1, !dbg !2368
  %40 = load i32, i32* %j, align 4, !dbg !2369
  %sub = sub nsw i32 %40, 1, !dbg !2370
  %41 = load i32, i32* %i, align 4, !dbg !2371
  %arraydecay22 = getelementptr inbounds [3 x double], [3 x double]* %N, i64 0, i64 0, !dbg !2372
  %call23 = call i32 @_ZN3povL17add_single_normalEPPtiiiiiiiiPd(i16** %33, i32 %34, i32 %35, i32 %36, i32 %37, i32 %38, i32 %add21, i32 %sub, i32 %41, double* %arraydecay22), !dbg !2373
  %42 = load i32, i32* %k, align 4, !dbg !2374
  %add24 = add nsw i32 %42, %call23, !dbg !2374
  store i32 %add24, i32* %k, align 4, !dbg !2374
  %43 = load i16**, i16*** %map, align 8, !dbg !2375
  %44 = load i32, i32* %xsize.addr, align 4, !dbg !2376
  %45 = load i32, i32* %zsize.addr, align 4, !dbg !2377
  %46 = load i32, i32* %j, align 4, !dbg !2378
  %47 = load i32, i32* %i, align 4, !dbg !2379
  %48 = load i32, i32* %j, align 4, !dbg !2380
  %sub25 = sub nsw i32 %48, 1, !dbg !2381
  %49 = load i32, i32* %i, align 4, !dbg !2382
  %50 = load i32, i32* %j, align 4, !dbg !2383
  %51 = load i32, i32* %i, align 4, !dbg !2384
  %sub26 = sub nsw i32 %51, 1, !dbg !2385
  %arraydecay27 = getelementptr inbounds [3 x double], [3 x double]* %N, i64 0, i64 0, !dbg !2386
  %call28 = call i32 @_ZN3povL17add_single_normalEPPtiiiiiiiiPd(i16** %43, i32 %44, i32 %45, i32 %46, i32 %47, i32 %sub25, i32 %49, i32 %50, i32 %sub26, double* %arraydecay27), !dbg !2387
  %52 = load i32, i32* %k, align 4, !dbg !2388
  %add29 = add nsw i32 %52, %call28, !dbg !2388
  store i32 %add29, i32* %k, align 4, !dbg !2388
  %53 = load i16**, i16*** %map, align 8, !dbg !2389
  %54 = load i32, i32* %xsize.addr, align 4, !dbg !2390
  %55 = load i32, i32* %zsize.addr, align 4, !dbg !2391
  %56 = load i32, i32* %j, align 4, !dbg !2392
  %57 = load i32, i32* %i, align 4, !dbg !2393
  %58 = load i32, i32* %j, align 4, !dbg !2394
  %59 = load i32, i32* %i, align 4, !dbg !2395
  %sub30 = sub nsw i32 %59, 1, !dbg !2396
  %60 = load i32, i32* %j, align 4, !dbg !2397
  %add31 = add nsw i32 %60, 1, !dbg !2398
  %61 = load i32, i32* %i, align 4, !dbg !2399
  %arraydecay32 = getelementptr inbounds [3 x double], [3 x double]* %N, i64 0, i64 0, !dbg !2400
  %call33 = call i32 @_ZN3povL17add_single_normalEPPtiiiiiiiiPd(i16** %53, i32 %54, i32 %55, i32 %56, i32 %57, i32 %58, i32 %sub30, i32 %add31, i32 %61, double* %arraydecay32), !dbg !2401
  %62 = load i32, i32* %k, align 4, !dbg !2402
  %add34 = add nsw i32 %62, %call33, !dbg !2402
  store i32 %add34, i32* %k, align 4, !dbg !2402
  %63 = load i32, i32* %k, align 4, !dbg !2403
  %cmp35 = icmp eq i32 %63, 0, !dbg !2405
  br i1 %cmp35, label %if.then, label %if.end, !dbg !2406

if.then:                                          ; preds = %for.body15
  %64 = load i32, i32* %i, align 4, !dbg !2407
  %65 = load i32, i32* %j, align 4, !dbg !2409
  %call36 = call i32 (i8*, ...) @_ZN3pov5ErrorEPKcz(i8* getelementptr inbounds ([41 x i8], [41 x i8]* @.str.4, i64 0, i64 0), i32 %64, i32 %65), !dbg !2410
  br label %if.end, !dbg !2411

if.end:                                           ; preds = %if.then, %for.body15
  %arraydecay37 = getelementptr inbounds [3 x double], [3 x double]* %N, i64 0, i64 0, !dbg !2412
  %arraydecay38 = getelementptr inbounds [3 x double], [3 x double]* %N, i64 0, i64 0, !dbg !2413
  %call39 = call double @_ZN3povL9normalizeEPdS0_(double* %arraydecay37, double* %arraydecay38), !dbg !2414
  %arrayidx40 = getelementptr inbounds [3 x double], [3 x double]* %N, i64 0, i64 0, !dbg !2415
  %66 = load double, double* %arrayidx40, align 16, !dbg !2415
  %mul41 = fmul double 3.276700e+04, %66, !dbg !2416
  %conv42 = fptosi double %mul41 to i16, !dbg !2417
  %67 = load %"struct.pov::HField_Struct"*, %"struct.pov::HField_Struct"** %HField.addr, align 8, !dbg !2418
  %Data43 = getelementptr inbounds %"struct.pov::HField_Struct", %"struct.pov::HField_Struct"* %67, i32 0, i32 16, !dbg !2419
  %68 = load %"struct.pov::HField_Data_Struct"*, %"struct.pov::HField_Data_Struct"** %Data43, align 8, !dbg !2419
  %Normals44 = getelementptr inbounds %"struct.pov::HField_Data_Struct", %"struct.pov::HField_Data_Struct"* %68, i32 0, i32 12, !dbg !2420
  %69 = load [3 x i16]**, [3 x i16]*** %Normals44, align 8, !dbg !2420
  %70 = load i32, i32* %i, align 4, !dbg !2421
  %idxprom45 = sext i32 %70 to i64, !dbg !2418
  %arrayidx46 = getelementptr inbounds [3 x i16]*, [3 x i16]** %69, i64 %idxprom45, !dbg !2418
  %71 = load [3 x i16]*, [3 x i16]** %arrayidx46, align 8, !dbg !2418
  %72 = load i32, i32* %j, align 4, !dbg !2422
  %idxprom47 = sext i32 %72 to i64, !dbg !2418
  %arrayidx48 = getelementptr inbounds [3 x i16], [3 x i16]* %71, i64 %idxprom47, !dbg !2418
  %arrayidx49 = getelementptr inbounds [3 x i16], [3 x i16]* %arrayidx48, i64 0, i64 0, !dbg !2418
  store i16 %conv42, i16* %arrayidx49, align 2, !dbg !2423
  %arrayidx50 = getelementptr inbounds [3 x double], [3 x double]* %N, i64 0, i64 1, !dbg !2424
  %73 = load double, double* %arrayidx50, align 8, !dbg !2424
  %mul51 = fmul double 3.276700e+04, %73, !dbg !2425
  %conv52 = fptosi double %mul51 to i16, !dbg !2426
  %74 = load %"struct.pov::HField_Struct"*, %"struct.pov::HField_Struct"** %HField.addr, align 8, !dbg !2427
  %Data53 = getelementptr inbounds %"struct.pov::HField_Struct", %"struct.pov::HField_Struct"* %74, i32 0, i32 16, !dbg !2428
  %75 = load %"struct.pov::HField_Data_Struct"*, %"struct.pov::HField_Data_Struct"** %Data53, align 8, !dbg !2428
  %Normals54 = getelementptr inbounds %"struct.pov::HField_Data_Struct", %"struct.pov::HField_Data_Struct"* %75, i32 0, i32 12, !dbg !2429
  %76 = load [3 x i16]**, [3 x i16]*** %Normals54, align 8, !dbg !2429
  %77 = load i32, i32* %i, align 4, !dbg !2430
  %idxprom55 = sext i32 %77 to i64, !dbg !2427
  %arrayidx56 = getelementptr inbounds [3 x i16]*, [3 x i16]** %76, i64 %idxprom55, !dbg !2427
  %78 = load [3 x i16]*, [3 x i16]** %arrayidx56, align 8, !dbg !2427
  %79 = load i32, i32* %j, align 4, !dbg !2431
  %idxprom57 = sext i32 %79 to i64, !dbg !2427
  %arrayidx58 = getelementptr inbounds [3 x i16], [3 x i16]* %78, i64 %idxprom57, !dbg !2427
  %arrayidx59 = getelementptr inbounds [3 x i16], [3 x i16]* %arrayidx58, i64 0, i64 1, !dbg !2427
  store i16 %conv52, i16* %arrayidx59, align 2, !dbg !2432
  %arrayidx60 = getelementptr inbounds [3 x double], [3 x double]* %N, i64 0, i64 2, !dbg !2433
  %80 = load double, double* %arrayidx60, align 16, !dbg !2433
  %mul61 = fmul double 3.276700e+04, %80, !dbg !2434
  %conv62 = fptosi double %mul61 to i16, !dbg !2435
  %81 = load %"struct.pov::HField_Struct"*, %"struct.pov::HField_Struct"** %HField.addr, align 8, !dbg !2436
  %Data63 = getelementptr inbounds %"struct.pov::HField_Struct", %"struct.pov::HField_Struct"* %81, i32 0, i32 16, !dbg !2437
  %82 = load %"struct.pov::HField_Data_Struct"*, %"struct.pov::HField_Data_Struct"** %Data63, align 8, !dbg !2437
  %Normals64 = getelementptr inbounds %"struct.pov::HField_Data_Struct", %"struct.pov::HField_Data_Struct"* %82, i32 0, i32 12, !dbg !2438
  %83 = load [3 x i16]**, [3 x i16]*** %Normals64, align 8, !dbg !2438
  %84 = load i32, i32* %i, align 4, !dbg !2439
  %idxprom65 = sext i32 %84 to i64, !dbg !2436
  %arrayidx66 = getelementptr inbounds [3 x i16]*, [3 x i16]** %83, i64 %idxprom65, !dbg !2436
  %85 = load [3 x i16]*, [3 x i16]** %arrayidx66, align 8, !dbg !2436
  %86 = load i32, i32* %j, align 4, !dbg !2440
  %idxprom67 = sext i32 %86 to i64, !dbg !2436
  %arrayidx68 = getelementptr inbounds [3 x i16], [3 x i16]* %85, i64 %idxprom67, !dbg !2436
  %arrayidx69 = getelementptr inbounds [3 x i16], [3 x i16]* %arrayidx68, i64 0, i64 2, !dbg !2436
  store i16 %conv62, i16* %arrayidx69, align 2, !dbg !2441
  br label %for.inc70, !dbg !2442

for.inc70:                                        ; preds = %if.end
  %87 = load i32, i32* %j, align 4, !dbg !2443
  %inc71 = add nsw i32 %87, 1, !dbg !2443
  store i32 %inc71, i32* %j, align 4, !dbg !2443
  br label %for.cond13, !dbg !2444, !llvm.loop !2445

for.end72:                                        ; preds = %for.cond13
  br label %for.inc73, !dbg !2447

for.inc73:                                        ; preds = %for.end72
  %88 = load i32, i32* %i, align 4, !dbg !2448
  %inc74 = add nsw i32 %88, 1, !dbg !2448
  store i32 %inc74, i32* %i, align 4, !dbg !2448
  br label %for.cond10, !dbg !2449, !llvm.loop !2450

for.end75:                                        ; preds = %for.cond10
  ret void, !dbg !2452
}

; Function Attrs: noinline uwtable
define internal void @_ZN3povL19build_hfield_blocksEPNS_13HField_StructE(%"struct.pov::HField_Struct"* %HField) #0 !dbg !2453 {
entry:
  %HField.addr = alloca %"struct.pov::HField_Struct"*, align 8
  %x = alloca i32, align 4
  %z = alloca i32, align 4
  %nx = alloca i32, align 4
  %nz = alloca i32, align 4
  %wx = alloca i32, align 4
  %wz = alloca i32, align 4
  %i = alloca i32, align 4
  %j = alloca i32, align 4
  %xmin = alloca i32, align 4
  %xmax = alloca i32, align 4
  %zmin = alloca i32, align 4
  %zmax = alloca i32, align 4
  %y = alloca double, align 8
  %ymin = alloca double, align 8
  %ymax = alloca double, align 8
  %water = alloca double, align 8
  %ref.tmp = alloca i32, align 4
  %ref.tmp1 = alloca i32, align 4
  %ref.tmp4 = alloca i32, align 4
  %ref.tmp5 = alloca i32, align 4
  %ref.tmp117 = alloca i32, align 4
  %ref.tmp123 = alloca i32, align 4
  store %"struct.pov::HField_Struct"* %HField, %"struct.pov::HField_Struct"** %HField.addr, align 8
  call void @llvm.dbg.declare(metadata %"struct.pov::HField_Struct"** %HField.addr, metadata !2456, metadata !DIExpression()), !dbg !2457
  call void @llvm.dbg.declare(metadata i32* %x, metadata !2458, metadata !DIExpression()), !dbg !2459
  call void @llvm.dbg.declare(metadata i32* %z, metadata !2460, metadata !DIExpression()), !dbg !2461
  call void @llvm.dbg.declare(metadata i32* %nx, metadata !2462, metadata !DIExpression()), !dbg !2463
  call void @llvm.dbg.declare(metadata i32* %nz, metadata !2464, metadata !DIExpression()), !dbg !2465
  call void @llvm.dbg.declare(metadata i32* %wx, metadata !2466, metadata !DIExpression()), !dbg !2467
  call void @llvm.dbg.declare(metadata i32* %wz, metadata !2468, metadata !DIExpression()), !dbg !2469
  call void @llvm.dbg.declare(metadata i32* %i, metadata !2470, metadata !DIExpression()), !dbg !2471
  call void @llvm.dbg.declare(metadata i32* %j, metadata !2472, metadata !DIExpression()), !dbg !2473
  call void @llvm.dbg.declare(metadata i32* %xmin, metadata !2474, metadata !DIExpression()), !dbg !2475
  call void @llvm.dbg.declare(metadata i32* %xmax, metadata !2476, metadata !DIExpression()), !dbg !2477
  call void @llvm.dbg.declare(metadata i32* %zmin, metadata !2478, metadata !DIExpression()), !dbg !2479
  call void @llvm.dbg.declare(metadata i32* %zmax, metadata !2480, metadata !DIExpression()), !dbg !2481
  call void @llvm.dbg.declare(metadata double* %y, metadata !2482, metadata !DIExpression()), !dbg !2483
  call void @llvm.dbg.declare(metadata double* %ymin, metadata !2484, metadata !DIExpression()), !dbg !2485
  call void @llvm.dbg.declare(metadata double* %ymax, metadata !2486, metadata !DIExpression()), !dbg !2487
  call void @llvm.dbg.declare(metadata double* %water, metadata !2488, metadata !DIExpression()), !dbg !2489
  store i32 1, i32* %ref.tmp, align 4, !dbg !2490
  %0 = load %"struct.pov::HField_Struct"*, %"struct.pov::HField_Struct"** %HField.addr, align 8, !dbg !2491
  %Data = getelementptr inbounds %"struct.pov::HField_Struct", %"struct.pov::HField_Struct"* %0, i32 0, i32 16, !dbg !2492
  %1 = load %"struct.pov::HField_Data_Struct"*, %"struct.pov::HField_Data_Struct"** %Data, align 8, !dbg !2492
  %max_x = getelementptr inbounds %"struct.pov::HField_Data_Struct", %"struct.pov::HField_Data_Struct"* %1, i32 0, i32 3, !dbg !2493
  %2 = load i32, i32* %max_x, align 4, !dbg !2493
  %conv = sitofp i32 %2 to double, !dbg !2491
  %call = call double @sqrt(double %conv) #6, !dbg !2494
  %conv2 = fptosi double %call to i32, !dbg !2495
  store i32 %conv2, i32* %ref.tmp1, align 4, !dbg !2496
  %call3 = call dereferenceable(4) i32* @_ZSt3maxIiERKT_S2_S2_(i32* dereferenceable(4) %ref.tmp, i32* dereferenceable(4) %ref.tmp1), !dbg !2497
  %3 = load i32, i32* %call3, align 4, !dbg !2497
  store i32 %3, i32* %nx, align 4, !dbg !2498
  store i32 1, i32* %ref.tmp4, align 4, !dbg !2499
  %4 = load %"struct.pov::HField_Struct"*, %"struct.pov::HField_Struct"** %HField.addr, align 8, !dbg !2500
  %Data6 = getelementptr inbounds %"struct.pov::HField_Struct", %"struct.pov::HField_Struct"* %4, i32 0, i32 16, !dbg !2501
  %5 = load %"struct.pov::HField_Data_Struct"*, %"struct.pov::HField_Data_Struct"** %Data6, align 8, !dbg !2501
  %max_z = getelementptr inbounds %"struct.pov::HField_Data_Struct", %"struct.pov::HField_Data_Struct"* %5, i32 0, i32 4, !dbg !2502
  %6 = load i32, i32* %max_z, align 8, !dbg !2502
  %conv7 = sitofp i32 %6 to double, !dbg !2500
  %call8 = call double @sqrt(double %conv7) #6, !dbg !2503
  %conv9 = fptosi double %call8 to i32, !dbg !2504
  store i32 %conv9, i32* %ref.tmp5, align 4, !dbg !2505
  %call10 = call dereferenceable(4) i32* @_ZSt3maxIiERKT_S2_S2_(i32* dereferenceable(4) %ref.tmp4, i32* dereferenceable(4) %ref.tmp5), !dbg !2506
  %7 = load i32, i32* %call10, align 4, !dbg !2506
  store i32 %7, i32* %nz, align 4, !dbg !2507
  %8 = load %"struct.pov::HField_Struct"*, %"struct.pov::HField_Struct"** %HField.addr, align 8, !dbg !2508
  %Data11 = getelementptr inbounds %"struct.pov::HField_Struct", %"struct.pov::HField_Struct"* %8, i32 0, i32 16, !dbg !2509
  %9 = load %"struct.pov::HField_Data_Struct"*, %"struct.pov::HField_Data_Struct"** %Data11, align 8, !dbg !2509
  %max_x12 = getelementptr inbounds %"struct.pov::HField_Data_Struct", %"struct.pov::HField_Data_Struct"* %9, i32 0, i32 3, !dbg !2510
  %10 = load i32, i32* %max_x12, align 4, !dbg !2510
  %add = add nsw i32 %10, 2, !dbg !2511
  %conv13 = sitofp i32 %add to double, !dbg !2512
  %11 = load i32, i32* %nx, align 4, !dbg !2513
  %conv14 = sitofp i32 %11 to double, !dbg !2513
  %div = fdiv double %conv13, %conv14, !dbg !2514
  %12 = call double @llvm.ceil.f64(double %div), !dbg !2515
  %conv15 = fptosi double %12 to i32, !dbg !2515
  store i32 %conv15, i32* %wx, align 4, !dbg !2516
  %13 = load %"struct.pov::HField_Struct"*, %"struct.pov::HField_Struct"** %HField.addr, align 8, !dbg !2517
  %Data16 = getelementptr inbounds %"struct.pov::HField_Struct", %"struct.pov::HField_Struct"* %13, i32 0, i32 16, !dbg !2518
  %14 = load %"struct.pov::HField_Data_Struct"*, %"struct.pov::HField_Data_Struct"** %Data16, align 8, !dbg !2518
  %max_z17 = getelementptr inbounds %"struct.pov::HField_Data_Struct", %"struct.pov::HField_Data_Struct"* %14, i32 0, i32 4, !dbg !2519
  %15 = load i32, i32* %max_z17, align 8, !dbg !2519
  %add18 = add nsw i32 %15, 2, !dbg !2520
  %conv19 = sitofp i32 %add18 to double, !dbg !2521
  %16 = load i32, i32* %nz, align 4, !dbg !2522
  %conv20 = sitofp i32 %16 to double, !dbg !2522
  %div21 = fdiv double %conv19, %conv20, !dbg !2523
  %17 = call double @llvm.ceil.f64(double %div21), !dbg !2524
  %conv22 = fptosi double %17 to i32, !dbg !2524
  store i32 %conv22, i32* %wz, align 4, !dbg !2525
  %18 = load i32, i32* %nx, align 4, !dbg !2526
  %19 = load i32, i32* %wx, align 4, !dbg !2528
  %mul = mul nsw i32 %18, %19, !dbg !2529
  %20 = load %"struct.pov::HField_Struct"*, %"struct.pov::HField_Struct"** %HField.addr, align 8, !dbg !2530
  %Data23 = getelementptr inbounds %"struct.pov::HField_Struct", %"struct.pov::HField_Struct"* %20, i32 0, i32 16, !dbg !2531
  %21 = load %"struct.pov::HField_Data_Struct"*, %"struct.pov::HField_Data_Struct"** %Data23, align 8, !dbg !2531
  %max_x24 = getelementptr inbounds %"struct.pov::HField_Data_Struct", %"struct.pov::HField_Data_Struct"* %21, i32 0, i32 3, !dbg !2532
  %22 = load i32, i32* %max_x24, align 4, !dbg !2532
  %add25 = add nsw i32 %22, 2, !dbg !2533
  %cmp = icmp slt i32 %mul, %add25, !dbg !2534
  br i1 %cmp, label %if.then, label %if.end, !dbg !2535

if.then:                                          ; preds = %entry
  %23 = load i32, i32* %nx, align 4, !dbg !2536
  %inc = add nsw i32 %23, 1, !dbg !2536
  store i32 %inc, i32* %nx, align 4, !dbg !2536
  br label %if.end, !dbg !2538

if.end:                                           ; preds = %if.then, %entry
  %24 = load i32, i32* %nz, align 4, !dbg !2539
  %25 = load i32, i32* %wz, align 4, !dbg !2541
  %mul26 = mul nsw i32 %24, %25, !dbg !2542
  %26 = load %"struct.pov::HField_Struct"*, %"struct.pov::HField_Struct"** %HField.addr, align 8, !dbg !2543
  %Data27 = getelementptr inbounds %"struct.pov::HField_Struct", %"struct.pov::HField_Struct"* %26, i32 0, i32 16, !dbg !2544
  %27 = load %"struct.pov::HField_Data_Struct"*, %"struct.pov::HField_Data_Struct"** %Data27, align 8, !dbg !2544
  %max_z28 = getelementptr inbounds %"struct.pov::HField_Data_Struct", %"struct.pov::HField_Data_Struct"* %27, i32 0, i32 4, !dbg !2545
  %28 = load i32, i32* %max_z28, align 8, !dbg !2545
  %add29 = add nsw i32 %28, 2, !dbg !2546
  %cmp30 = icmp slt i32 %mul26, %add29, !dbg !2547
  br i1 %cmp30, label %if.then31, label %if.end33, !dbg !2548

if.then31:                                        ; preds = %if.end
  %29 = load i32, i32* %nz, align 4, !dbg !2549
  %inc32 = add nsw i32 %29, 1, !dbg !2549
  store i32 %inc32, i32* %nz, align 4, !dbg !2549
  br label %if.end33, !dbg !2551

if.end33:                                         ; preds = %if.then31, %if.end
  %30 = load %"struct.pov::HField_Struct"*, %"struct.pov::HField_Struct"** %HField.addr, align 8, !dbg !2552
  %Flags = getelementptr inbounds %"struct.pov::HField_Struct", %"struct.pov::HField_Struct"* %30, i32 0, i32 13, !dbg !2552
  %31 = load i32, i32* %Flags, align 4, !dbg !2552
  %conv34 = zext i32 %31 to i64, !dbg !2552
  %and = and i64 %conv34, 1024, !dbg !2552
  %tobool = icmp ne i64 %and, 0, !dbg !2552
  br i1 %tobool, label %lor.lhs.false, label %if.then37, !dbg !2554

lor.lhs.false:                                    ; preds = %if.end33
  %32 = load i32, i32* %nx, align 4, !dbg !2555
  %cmp35 = icmp eq i32 %32, 1, !dbg !2556
  br i1 %cmp35, label %land.lhs.true, label %if.end89, !dbg !2557

land.lhs.true:                                    ; preds = %lor.lhs.false
  %33 = load i32, i32* %nz, align 4, !dbg !2558
  %cmp36 = icmp eq i32 %33, 1, !dbg !2559
  br i1 %cmp36, label %if.then37, label %if.end89, !dbg !2560

if.then37:                                        ; preds = %land.lhs.true, %if.end33
  %call38 = call i8* @_ZN3pov10pov_mallocEmPKciS1_(i64 8, i8* getelementptr inbounds ([11 x i8], [11 x i8]* @.str, i64 0, i64 0), i32 1002, i8* getelementptr inbounds ([20 x i8], [20 x i8]* @.str.5, i64 0, i64 0)), !dbg !2561
  %34 = bitcast i8* %call38 to %"struct.pov::HField_Block_Struct"**, !dbg !2563
  %35 = load %"struct.pov::HField_Struct"*, %"struct.pov::HField_Struct"** %HField.addr, align 8, !dbg !2564
  %Data39 = getelementptr inbounds %"struct.pov::HField_Struct", %"struct.pov::HField_Struct"* %35, i32 0, i32 16, !dbg !2565
  %36 = load %"struct.pov::HField_Data_Struct"*, %"struct.pov::HField_Data_Struct"** %Data39, align 8, !dbg !2565
  %Block = getelementptr inbounds %"struct.pov::HField_Data_Struct", %"struct.pov::HField_Data_Struct"* %36, i32 0, i32 14, !dbg !2566
  store %"struct.pov::HField_Block_Struct"** %34, %"struct.pov::HField_Block_Struct"*** %Block, align 8, !dbg !2567
  %call40 = call i8* @_ZN3pov10pov_mallocEmPKciS1_(i64 32, i8* getelementptr inbounds ([11 x i8], [11 x i8]* @.str, i64 0, i64 0), i32 1004, i8* getelementptr inbounds ([20 x i8], [20 x i8]* @.str.5, i64 0, i64 0)), !dbg !2568
  %37 = bitcast i8* %call40 to %"struct.pov::HField_Block_Struct"*, !dbg !2569
  %38 = load %"struct.pov::HField_Struct"*, %"struct.pov::HField_Struct"** %HField.addr, align 8, !dbg !2570
  %Data41 = getelementptr inbounds %"struct.pov::HField_Struct", %"struct.pov::HField_Struct"* %38, i32 0, i32 16, !dbg !2571
  %39 = load %"struct.pov::HField_Data_Struct"*, %"struct.pov::HField_Data_Struct"** %Data41, align 8, !dbg !2571
  %Block42 = getelementptr inbounds %"struct.pov::HField_Data_Struct", %"struct.pov::HField_Data_Struct"* %39, i32 0, i32 14, !dbg !2572
  %40 = load %"struct.pov::HField_Block_Struct"**, %"struct.pov::HField_Block_Struct"*** %Block42, align 8, !dbg !2572
  %arrayidx = getelementptr inbounds %"struct.pov::HField_Block_Struct"*, %"struct.pov::HField_Block_Struct"** %40, i64 0, !dbg !2570
  store %"struct.pov::HField_Block_Struct"* %37, %"struct.pov::HField_Block_Struct"** %arrayidx, align 8, !dbg !2573
  %41 = load %"struct.pov::HField_Struct"*, %"struct.pov::HField_Struct"** %HField.addr, align 8, !dbg !2574
  %Data43 = getelementptr inbounds %"struct.pov::HField_Struct", %"struct.pov::HField_Struct"* %41, i32 0, i32 16, !dbg !2575
  %42 = load %"struct.pov::HField_Data_Struct"*, %"struct.pov::HField_Data_Struct"** %Data43, align 8, !dbg !2575
  %Block44 = getelementptr inbounds %"struct.pov::HField_Data_Struct", %"struct.pov::HField_Data_Struct"* %42, i32 0, i32 14, !dbg !2576
  %43 = load %"struct.pov::HField_Block_Struct"**, %"struct.pov::HField_Block_Struct"*** %Block44, align 8, !dbg !2576
  %arrayidx45 = getelementptr inbounds %"struct.pov::HField_Block_Struct"*, %"struct.pov::HField_Block_Struct"** %43, i64 0, !dbg !2574
  %44 = load %"struct.pov::HField_Block_Struct"*, %"struct.pov::HField_Block_Struct"** %arrayidx45, align 8, !dbg !2574
  %arrayidx46 = getelementptr inbounds %"struct.pov::HField_Block_Struct", %"struct.pov::HField_Block_Struct"* %44, i64 0, !dbg !2574
  %xmin47 = getelementptr inbounds %"struct.pov::HField_Block_Struct", %"struct.pov::HField_Block_Struct"* %arrayidx46, i32 0, i32 0, !dbg !2577
  store i32 0, i32* %xmin47, align 8, !dbg !2578
  %45 = load %"struct.pov::HField_Struct"*, %"struct.pov::HField_Struct"** %HField.addr, align 8, !dbg !2579
  %Data48 = getelementptr inbounds %"struct.pov::HField_Struct", %"struct.pov::HField_Struct"* %45, i32 0, i32 16, !dbg !2580
  %46 = load %"struct.pov::HField_Data_Struct"*, %"struct.pov::HField_Data_Struct"** %Data48, align 8, !dbg !2580
  %max_x49 = getelementptr inbounds %"struct.pov::HField_Data_Struct", %"struct.pov::HField_Data_Struct"* %46, i32 0, i32 3, !dbg !2581
  %47 = load i32, i32* %max_x49, align 4, !dbg !2581
  %48 = load %"struct.pov::HField_Struct"*, %"struct.pov::HField_Struct"** %HField.addr, align 8, !dbg !2582
  %Data50 = getelementptr inbounds %"struct.pov::HField_Struct", %"struct.pov::HField_Struct"* %48, i32 0, i32 16, !dbg !2583
  %49 = load %"struct.pov::HField_Data_Struct"*, %"struct.pov::HField_Data_Struct"** %Data50, align 8, !dbg !2583
  %Block51 = getelementptr inbounds %"struct.pov::HField_Data_Struct", %"struct.pov::HField_Data_Struct"* %49, i32 0, i32 14, !dbg !2584
  %50 = load %"struct.pov::HField_Block_Struct"**, %"struct.pov::HField_Block_Struct"*** %Block51, align 8, !dbg !2584
  %arrayidx52 = getelementptr inbounds %"struct.pov::HField_Block_Struct"*, %"struct.pov::HField_Block_Struct"** %50, i64 0, !dbg !2582
  %51 = load %"struct.pov::HField_Block_Struct"*, %"struct.pov::HField_Block_Struct"** %arrayidx52, align 8, !dbg !2582
  %arrayidx53 = getelementptr inbounds %"struct.pov::HField_Block_Struct", %"struct.pov::HField_Block_Struct"* %51, i64 0, !dbg !2582
  %xmax54 = getelementptr inbounds %"struct.pov::HField_Block_Struct", %"struct.pov::HField_Block_Struct"* %arrayidx53, i32 0, i32 1, !dbg !2585
  store i32 %47, i32* %xmax54, align 4, !dbg !2586
  %52 = load %"struct.pov::HField_Struct"*, %"struct.pov::HField_Struct"** %HField.addr, align 8, !dbg !2587
  %Data55 = getelementptr inbounds %"struct.pov::HField_Struct", %"struct.pov::HField_Struct"* %52, i32 0, i32 16, !dbg !2588
  %53 = load %"struct.pov::HField_Data_Struct"*, %"struct.pov::HField_Data_Struct"** %Data55, align 8, !dbg !2588
  %Block56 = getelementptr inbounds %"struct.pov::HField_Data_Struct", %"struct.pov::HField_Data_Struct"* %53, i32 0, i32 14, !dbg !2589
  %54 = load %"struct.pov::HField_Block_Struct"**, %"struct.pov::HField_Block_Struct"*** %Block56, align 8, !dbg !2589
  %arrayidx57 = getelementptr inbounds %"struct.pov::HField_Block_Struct"*, %"struct.pov::HField_Block_Struct"** %54, i64 0, !dbg !2587
  %55 = load %"struct.pov::HField_Block_Struct"*, %"struct.pov::HField_Block_Struct"** %arrayidx57, align 8, !dbg !2587
  %arrayidx58 = getelementptr inbounds %"struct.pov::HField_Block_Struct", %"struct.pov::HField_Block_Struct"* %55, i64 0, !dbg !2587
  %zmin59 = getelementptr inbounds %"struct.pov::HField_Block_Struct", %"struct.pov::HField_Block_Struct"* %arrayidx58, i32 0, i32 2, !dbg !2590
  store i32 0, i32* %zmin59, align 8, !dbg !2591
  %56 = load %"struct.pov::HField_Struct"*, %"struct.pov::HField_Struct"** %HField.addr, align 8, !dbg !2592
  %Data60 = getelementptr inbounds %"struct.pov::HField_Struct", %"struct.pov::HField_Struct"* %56, i32 0, i32 16, !dbg !2593
  %57 = load %"struct.pov::HField_Data_Struct"*, %"struct.pov::HField_Data_Struct"** %Data60, align 8, !dbg !2593
  %max_z61 = getelementptr inbounds %"struct.pov::HField_Data_Struct", %"struct.pov::HField_Data_Struct"* %57, i32 0, i32 4, !dbg !2594
  %58 = load i32, i32* %max_z61, align 8, !dbg !2594
  %59 = load %"struct.pov::HField_Struct"*, %"struct.pov::HField_Struct"** %HField.addr, align 8, !dbg !2595
  %Data62 = getelementptr inbounds %"struct.pov::HField_Struct", %"struct.pov::HField_Struct"* %59, i32 0, i32 16, !dbg !2596
  %60 = load %"struct.pov::HField_Data_Struct"*, %"struct.pov::HField_Data_Struct"** %Data62, align 8, !dbg !2596
  %Block63 = getelementptr inbounds %"struct.pov::HField_Data_Struct", %"struct.pov::HField_Data_Struct"* %60, i32 0, i32 14, !dbg !2597
  %61 = load %"struct.pov::HField_Block_Struct"**, %"struct.pov::HField_Block_Struct"*** %Block63, align 8, !dbg !2597
  %arrayidx64 = getelementptr inbounds %"struct.pov::HField_Block_Struct"*, %"struct.pov::HField_Block_Struct"** %61, i64 0, !dbg !2595
  %62 = load %"struct.pov::HField_Block_Struct"*, %"struct.pov::HField_Block_Struct"** %arrayidx64, align 8, !dbg !2595
  %arrayidx65 = getelementptr inbounds %"struct.pov::HField_Block_Struct", %"struct.pov::HField_Block_Struct"* %62, i64 0, !dbg !2595
  %zmax66 = getelementptr inbounds %"struct.pov::HField_Block_Struct", %"struct.pov::HField_Block_Struct"* %arrayidx65, i32 0, i32 3, !dbg !2598
  store i32 %58, i32* %zmax66, align 4, !dbg !2599
  %63 = load %"struct.pov::HField_Struct"*, %"struct.pov::HField_Struct"** %HField.addr, align 8, !dbg !2600
  %bounding_corner1 = getelementptr inbounds %"struct.pov::HField_Struct", %"struct.pov::HField_Struct"* %63, i32 0, i32 14, !dbg !2601
  %arrayidx67 = getelementptr inbounds [3 x double], [3 x double]* %bounding_corner1, i64 0, i64 1, !dbg !2600
  %64 = load double, double* %arrayidx67, align 8, !dbg !2600
  %65 = load %"struct.pov::HField_Struct"*, %"struct.pov::HField_Struct"** %HField.addr, align 8, !dbg !2602
  %Data68 = getelementptr inbounds %"struct.pov::HField_Struct", %"struct.pov::HField_Struct"* %65, i32 0, i32 16, !dbg !2603
  %66 = load %"struct.pov::HField_Data_Struct"*, %"struct.pov::HField_Data_Struct"** %Data68, align 8, !dbg !2603
  %Block69 = getelementptr inbounds %"struct.pov::HField_Data_Struct", %"struct.pov::HField_Data_Struct"* %66, i32 0, i32 14, !dbg !2604
  %67 = load %"struct.pov::HField_Block_Struct"**, %"struct.pov::HField_Block_Struct"*** %Block69, align 8, !dbg !2604
  %arrayidx70 = getelementptr inbounds %"struct.pov::HField_Block_Struct"*, %"struct.pov::HField_Block_Struct"** %67, i64 0, !dbg !2602
  %68 = load %"struct.pov::HField_Block_Struct"*, %"struct.pov::HField_Block_Struct"** %arrayidx70, align 8, !dbg !2602
  %arrayidx71 = getelementptr inbounds %"struct.pov::HField_Block_Struct", %"struct.pov::HField_Block_Struct"* %68, i64 0, !dbg !2602
  %ymin72 = getelementptr inbounds %"struct.pov::HField_Block_Struct", %"struct.pov::HField_Block_Struct"* %arrayidx71, i32 0, i32 4, !dbg !2605
  store double %64, double* %ymin72, align 8, !dbg !2606
  %69 = load %"struct.pov::HField_Struct"*, %"struct.pov::HField_Struct"** %HField.addr, align 8, !dbg !2607
  %bounding_corner2 = getelementptr inbounds %"struct.pov::HField_Struct", %"struct.pov::HField_Struct"* %69, i32 0, i32 15, !dbg !2608
  %arrayidx73 = getelementptr inbounds [3 x double], [3 x double]* %bounding_corner2, i64 0, i64 1, !dbg !2607
  %70 = load double, double* %arrayidx73, align 8, !dbg !2607
  %71 = load %"struct.pov::HField_Struct"*, %"struct.pov::HField_Struct"** %HField.addr, align 8, !dbg !2609
  %Data74 = getelementptr inbounds %"struct.pov::HField_Struct", %"struct.pov::HField_Struct"* %71, i32 0, i32 16, !dbg !2610
  %72 = load %"struct.pov::HField_Data_Struct"*, %"struct.pov::HField_Data_Struct"** %Data74, align 8, !dbg !2610
  %Block75 = getelementptr inbounds %"struct.pov::HField_Data_Struct", %"struct.pov::HField_Data_Struct"* %72, i32 0, i32 14, !dbg !2611
  %73 = load %"struct.pov::HField_Block_Struct"**, %"struct.pov::HField_Block_Struct"*** %Block75, align 8, !dbg !2611
  %arrayidx76 = getelementptr inbounds %"struct.pov::HField_Block_Struct"*, %"struct.pov::HField_Block_Struct"** %73, i64 0, !dbg !2609
  %74 = load %"struct.pov::HField_Block_Struct"*, %"struct.pov::HField_Block_Struct"** %arrayidx76, align 8, !dbg !2609
  %arrayidx77 = getelementptr inbounds %"struct.pov::HField_Block_Struct", %"struct.pov::HField_Block_Struct"* %74, i64 0, !dbg !2609
  %ymax78 = getelementptr inbounds %"struct.pov::HField_Block_Struct", %"struct.pov::HField_Block_Struct"* %arrayidx77, i32 0, i32 5, !dbg !2612
  store double %70, double* %ymax78, align 8, !dbg !2613
  %75 = load %"struct.pov::HField_Struct"*, %"struct.pov::HField_Struct"** %HField.addr, align 8, !dbg !2614
  %Data79 = getelementptr inbounds %"struct.pov::HField_Struct", %"struct.pov::HField_Struct"* %75, i32 0, i32 16, !dbg !2615
  %76 = load %"struct.pov::HField_Data_Struct"*, %"struct.pov::HField_Data_Struct"** %Data79, align 8, !dbg !2615
  %block_max_x = getelementptr inbounds %"struct.pov::HField_Data_Struct", %"struct.pov::HField_Data_Struct"* %76, i32 0, i32 7, !dbg !2616
  store i32 1, i32* %block_max_x, align 8, !dbg !2617
  %77 = load %"struct.pov::HField_Struct"*, %"struct.pov::HField_Struct"** %HField.addr, align 8, !dbg !2618
  %Data80 = getelementptr inbounds %"struct.pov::HField_Struct", %"struct.pov::HField_Struct"* %77, i32 0, i32 16, !dbg !2619
  %78 = load %"struct.pov::HField_Data_Struct"*, %"struct.pov::HField_Data_Struct"** %Data80, align 8, !dbg !2619
  %block_max_z = getelementptr inbounds %"struct.pov::HField_Data_Struct", %"struct.pov::HField_Data_Struct"* %78, i32 0, i32 8, !dbg !2620
  store i32 1, i32* %block_max_z, align 4, !dbg !2621
  %79 = load %"struct.pov::HField_Struct"*, %"struct.pov::HField_Struct"** %HField.addr, align 8, !dbg !2622
  %Data81 = getelementptr inbounds %"struct.pov::HField_Struct", %"struct.pov::HField_Struct"* %79, i32 0, i32 16, !dbg !2623
  %80 = load %"struct.pov::HField_Data_Struct"*, %"struct.pov::HField_Data_Struct"** %Data81, align 8, !dbg !2623
  %max_x82 = getelementptr inbounds %"struct.pov::HField_Data_Struct", %"struct.pov::HField_Data_Struct"* %80, i32 0, i32 3, !dbg !2624
  %81 = load i32, i32* %max_x82, align 4, !dbg !2624
  %add83 = add nsw i32 %81, 2, !dbg !2625
  %82 = load %"struct.pov::HField_Struct"*, %"struct.pov::HField_Struct"** %HField.addr, align 8, !dbg !2626
  %Data84 = getelementptr inbounds %"struct.pov::HField_Struct", %"struct.pov::HField_Struct"* %82, i32 0, i32 16, !dbg !2627
  %83 = load %"struct.pov::HField_Data_Struct"*, %"struct.pov::HField_Data_Struct"** %Data84, align 8, !dbg !2627
  %block_width_x = getelementptr inbounds %"struct.pov::HField_Data_Struct", %"struct.pov::HField_Data_Struct"* %83, i32 0, i32 9, !dbg !2628
  store i32 %add83, i32* %block_width_x, align 8, !dbg !2629
  %84 = load %"struct.pov::HField_Struct"*, %"struct.pov::HField_Struct"** %HField.addr, align 8, !dbg !2630
  %Data85 = getelementptr inbounds %"struct.pov::HField_Struct", %"struct.pov::HField_Struct"* %84, i32 0, i32 16, !dbg !2631
  %85 = load %"struct.pov::HField_Data_Struct"*, %"struct.pov::HField_Data_Struct"** %Data85, align 8, !dbg !2631
  %max_y = getelementptr inbounds %"struct.pov::HField_Data_Struct", %"struct.pov::HField_Data_Struct"* %85, i32 0, i32 6, !dbg !2632
  %86 = load i16, i16* %max_y, align 2, !dbg !2632
  %conv86 = zext i16 %86 to i32, !dbg !2630
  %add87 = add nsw i32 %conv86, 2, !dbg !2633
  %87 = load %"struct.pov::HField_Struct"*, %"struct.pov::HField_Struct"** %HField.addr, align 8, !dbg !2634
  %Data88 = getelementptr inbounds %"struct.pov::HField_Struct", %"struct.pov::HField_Struct"* %87, i32 0, i32 16, !dbg !2635
  %88 = load %"struct.pov::HField_Data_Struct"*, %"struct.pov::HField_Data_Struct"** %Data88, align 8, !dbg !2635
  %block_width_z = getelementptr inbounds %"struct.pov::HField_Data_Struct", %"struct.pov::HField_Data_Struct"* %88, i32 0, i32 10, !dbg !2636
  store i32 %add87, i32* %block_width_z, align 4, !dbg !2637
  br label %for.end200, !dbg !2638

if.end89:                                         ; preds = %land.lhs.true, %lor.lhs.false
  %89 = load i32, i32* %nz, align 4, !dbg !2639
  %conv90 = sext i32 %89 to i64, !dbg !2639
  %mul91 = mul i64 %conv90, 8, !dbg !2639
  %call92 = call i8* @_ZN3pov10pov_mallocEmPKciS1_(i64 %mul91, i8* getelementptr inbounds ([11 x i8], [11 x i8]* @.str, i64 0, i64 0), i32 1029, i8* getelementptr inbounds ([20 x i8], [20 x i8]* @.str.5, i64 0, i64 0)), !dbg !2639
  %90 = bitcast i8* %call92 to %"struct.pov::HField_Block_Struct"**, !dbg !2640
  %91 = load %"struct.pov::HField_Struct"*, %"struct.pov::HField_Struct"** %HField.addr, align 8, !dbg !2641
  %Data93 = getelementptr inbounds %"struct.pov::HField_Struct", %"struct.pov::HField_Struct"* %91, i32 0, i32 16, !dbg !2642
  %92 = load %"struct.pov::HField_Data_Struct"*, %"struct.pov::HField_Data_Struct"** %Data93, align 8, !dbg !2642
  %Block94 = getelementptr inbounds %"struct.pov::HField_Data_Struct", %"struct.pov::HField_Data_Struct"* %92, i32 0, i32 14, !dbg !2643
  store %"struct.pov::HField_Block_Struct"** %90, %"struct.pov::HField_Block_Struct"*** %Block94, align 8, !dbg !2644
  %93 = load i32, i32* %nx, align 4, !dbg !2645
  %94 = load %"struct.pov::HField_Struct"*, %"struct.pov::HField_Struct"** %HField.addr, align 8, !dbg !2646
  %Data95 = getelementptr inbounds %"struct.pov::HField_Struct", %"struct.pov::HField_Struct"* %94, i32 0, i32 16, !dbg !2647
  %95 = load %"struct.pov::HField_Data_Struct"*, %"struct.pov::HField_Data_Struct"** %Data95, align 8, !dbg !2647
  %block_max_x96 = getelementptr inbounds %"struct.pov::HField_Data_Struct", %"struct.pov::HField_Data_Struct"* %95, i32 0, i32 7, !dbg !2648
  store i32 %93, i32* %block_max_x96, align 8, !dbg !2649
  %96 = load i32, i32* %nz, align 4, !dbg !2650
  %97 = load %"struct.pov::HField_Struct"*, %"struct.pov::HField_Struct"** %HField.addr, align 8, !dbg !2651
  %Data97 = getelementptr inbounds %"struct.pov::HField_Struct", %"struct.pov::HField_Struct"* %97, i32 0, i32 16, !dbg !2652
  %98 = load %"struct.pov::HField_Data_Struct"*, %"struct.pov::HField_Data_Struct"** %Data97, align 8, !dbg !2652
  %block_max_z98 = getelementptr inbounds %"struct.pov::HField_Data_Struct", %"struct.pov::HField_Data_Struct"* %98, i32 0, i32 8, !dbg !2653
  store i32 %96, i32* %block_max_z98, align 4, !dbg !2654
  %99 = load i32, i32* %wx, align 4, !dbg !2655
  %100 = load %"struct.pov::HField_Struct"*, %"struct.pov::HField_Struct"** %HField.addr, align 8, !dbg !2656
  %Data99 = getelementptr inbounds %"struct.pov::HField_Struct", %"struct.pov::HField_Struct"* %100, i32 0, i32 16, !dbg !2657
  %101 = load %"struct.pov::HField_Data_Struct"*, %"struct.pov::HField_Data_Struct"** %Data99, align 8, !dbg !2657
  %block_width_x100 = getelementptr inbounds %"struct.pov::HField_Data_Struct", %"struct.pov::HField_Data_Struct"* %101, i32 0, i32 9, !dbg !2658
  store i32 %99, i32* %block_width_x100, align 8, !dbg !2659
  %102 = load i32, i32* %wz, align 4, !dbg !2660
  %103 = load %"struct.pov::HField_Struct"*, %"struct.pov::HField_Struct"** %HField.addr, align 8, !dbg !2661
  %Data101 = getelementptr inbounds %"struct.pov::HField_Struct", %"struct.pov::HField_Struct"* %103, i32 0, i32 16, !dbg !2662
  %104 = load %"struct.pov::HField_Data_Struct"*, %"struct.pov::HField_Data_Struct"** %Data101, align 8, !dbg !2662
  %block_width_z102 = getelementptr inbounds %"struct.pov::HField_Data_Struct", %"struct.pov::HField_Data_Struct"* %104, i32 0, i32 10, !dbg !2663
  store i32 %102, i32* %block_width_z102, align 4, !dbg !2664
  %105 = load %"struct.pov::HField_Struct"*, %"struct.pov::HField_Struct"** %HField.addr, align 8, !dbg !2665
  %bounding_corner1103 = getelementptr inbounds %"struct.pov::HField_Struct", %"struct.pov::HField_Struct"* %105, i32 0, i32 14, !dbg !2666
  %arrayidx104 = getelementptr inbounds [3 x double], [3 x double]* %bounding_corner1103, i64 0, i64 1, !dbg !2665
  %106 = load double, double* %arrayidx104, align 8, !dbg !2665
  store double %106, double* %water, align 8, !dbg !2667
  store i32 0, i32* %z, align 4, !dbg !2668
  br label %for.cond, !dbg !2670

for.cond:                                         ; preds = %for.inc198, %if.end89
  %107 = load i32, i32* %z, align 4, !dbg !2671
  %108 = load i32, i32* %nz, align 4, !dbg !2673
  %cmp105 = icmp slt i32 %107, %108, !dbg !2674
  br i1 %cmp105, label %for.body, label %for.end200, !dbg !2675

for.body:                                         ; preds = %for.cond
  call void @_ZN3pov12Do_CooperateEi(i32 1), !dbg !2676
  %109 = load i32, i32* %nx, align 4, !dbg !2678
  %conv106 = sext i32 %109 to i64, !dbg !2678
  %mul107 = mul i64 %conv106, 32, !dbg !2678
  %call108 = call i8* @_ZN3pov10pov_mallocEmPKciS1_(i64 %mul107, i8* getelementptr inbounds ([11 x i8], [11 x i8]* @.str, i64 0, i64 0), i32 1045, i8* getelementptr inbounds ([20 x i8], [20 x i8]* @.str.5, i64 0, i64 0)), !dbg !2678
  %110 = bitcast i8* %call108 to %"struct.pov::HField_Block_Struct"*, !dbg !2679
  %111 = load %"struct.pov::HField_Struct"*, %"struct.pov::HField_Struct"** %HField.addr, align 8, !dbg !2680
  %Data109 = getelementptr inbounds %"struct.pov::HField_Struct", %"struct.pov::HField_Struct"* %111, i32 0, i32 16, !dbg !2681
  %112 = load %"struct.pov::HField_Data_Struct"*, %"struct.pov::HField_Data_Struct"** %Data109, align 8, !dbg !2681
  %Block110 = getelementptr inbounds %"struct.pov::HField_Data_Struct", %"struct.pov::HField_Data_Struct"* %112, i32 0, i32 14, !dbg !2682
  %113 = load %"struct.pov::HField_Block_Struct"**, %"struct.pov::HField_Block_Struct"*** %Block110, align 8, !dbg !2682
  %114 = load i32, i32* %z, align 4, !dbg !2683
  %idxprom = sext i32 %114 to i64, !dbg !2680
  %arrayidx111 = getelementptr inbounds %"struct.pov::HField_Block_Struct"*, %"struct.pov::HField_Block_Struct"** %113, i64 %idxprom, !dbg !2680
  store %"struct.pov::HField_Block_Struct"* %110, %"struct.pov::HField_Block_Struct"** %arrayidx111, align 8, !dbg !2684
  store i32 0, i32* %x, align 4, !dbg !2685
  br label %for.cond112, !dbg !2687

for.cond112:                                      ; preds = %for.inc195, %for.body
  %115 = load i32, i32* %x, align 4, !dbg !2688
  %116 = load i32, i32* %nx, align 4, !dbg !2690
  %cmp113 = icmp slt i32 %115, %116, !dbg !2691
  br i1 %cmp113, label %for.body114, label %for.end197, !dbg !2692

for.body114:                                      ; preds = %for.cond112
  %117 = load i32, i32* %x, align 4, !dbg !2693
  %118 = load i32, i32* %wx, align 4, !dbg !2695
  %mul115 = mul nsw i32 %117, %118, !dbg !2696
  store i32 %mul115, i32* %xmin, align 4, !dbg !2697
  %119 = load i32, i32* %z, align 4, !dbg !2698
  %120 = load i32, i32* %wz, align 4, !dbg !2699
  %mul116 = mul nsw i32 %119, %120, !dbg !2700
  store i32 %mul116, i32* %zmin, align 4, !dbg !2701
  %121 = load i32, i32* %x, align 4, !dbg !2702
  %add118 = add nsw i32 %121, 1, !dbg !2703
  %122 = load i32, i32* %wx, align 4, !dbg !2704
  %mul119 = mul nsw i32 %add118, %122, !dbg !2705
  %sub = sub nsw i32 %mul119, 1, !dbg !2706
  store i32 %sub, i32* %ref.tmp117, align 4, !dbg !2707
  %123 = load %"struct.pov::HField_Struct"*, %"struct.pov::HField_Struct"** %HField.addr, align 8, !dbg !2708
  %Data120 = getelementptr inbounds %"struct.pov::HField_Struct", %"struct.pov::HField_Struct"* %123, i32 0, i32 16, !dbg !2709
  %124 = load %"struct.pov::HField_Data_Struct"*, %"struct.pov::HField_Data_Struct"** %Data120, align 8, !dbg !2709
  %max_x121 = getelementptr inbounds %"struct.pov::HField_Data_Struct", %"struct.pov::HField_Data_Struct"* %124, i32 0, i32 3, !dbg !2710
  %call122 = call dereferenceable(4) i32* @_ZSt3minIiERKT_S2_S2_(i32* dereferenceable(4) %ref.tmp117, i32* dereferenceable(4) %max_x121), !dbg !2711
  %125 = load i32, i32* %call122, align 4, !dbg !2711
  store i32 %125, i32* %xmax, align 4, !dbg !2712
  %126 = load i32, i32* %z, align 4, !dbg !2713
  %add124 = add nsw i32 %126, 1, !dbg !2714
  %127 = load i32, i32* %wz, align 4, !dbg !2715
  %mul125 = mul nsw i32 %add124, %127, !dbg !2716
  %sub126 = sub nsw i32 %mul125, 1, !dbg !2717
  store i32 %sub126, i32* %ref.tmp123, align 4, !dbg !2718
  %128 = load %"struct.pov::HField_Struct"*, %"struct.pov::HField_Struct"** %HField.addr, align 8, !dbg !2719
  %Data127 = getelementptr inbounds %"struct.pov::HField_Struct", %"struct.pov::HField_Struct"* %128, i32 0, i32 16, !dbg !2720
  %129 = load %"struct.pov::HField_Data_Struct"*, %"struct.pov::HField_Data_Struct"** %Data127, align 8, !dbg !2720
  %max_z128 = getelementptr inbounds %"struct.pov::HField_Data_Struct", %"struct.pov::HField_Data_Struct"* %129, i32 0, i32 4, !dbg !2721
  %call129 = call dereferenceable(4) i32* @_ZSt3minIiERKT_S2_S2_(i32* dereferenceable(4) %ref.tmp123, i32* dereferenceable(4) %max_z128), !dbg !2722
  %130 = load i32, i32* %call129, align 4, !dbg !2722
  store i32 %130, i32* %zmax, align 4, !dbg !2723
  store double 2.000000e+10, double* %ymin, align 8, !dbg !2724
  store double -2.000000e+10, double* %ymax, align 8, !dbg !2725
  %131 = load i32, i32* %xmin, align 4, !dbg !2726
  store i32 %131, i32* %i, align 4, !dbg !2728
  br label %for.cond130, !dbg !2729

for.cond130:                                      ; preds = %for.inc147, %for.body114
  %132 = load i32, i32* %i, align 4, !dbg !2730
  %133 = load i32, i32* %xmax, align 4, !dbg !2732
  %add131 = add nsw i32 %133, 1, !dbg !2733
  %cmp132 = icmp sle i32 %132, %add131, !dbg !2734
  br i1 %cmp132, label %for.body133, label %for.end149, !dbg !2735

for.body133:                                      ; preds = %for.cond130
  %134 = load i32, i32* %zmin, align 4, !dbg !2736
  store i32 %134, i32* %j, align 4, !dbg !2739
  br label %for.cond134, !dbg !2740

for.cond134:                                      ; preds = %for.inc, %for.body133
  %135 = load i32, i32* %j, align 4, !dbg !2741
  %136 = load i32, i32* %zmax, align 4, !dbg !2743
  %add135 = add nsw i32 %136, 1, !dbg !2744
  %cmp136 = icmp sle i32 %135, %add135, !dbg !2745
  br i1 %cmp136, label %for.body137, label %for.end, !dbg !2746

for.body137:                                      ; preds = %for.cond134
  %137 = load %"struct.pov::HField_Struct"*, %"struct.pov::HField_Struct"** %HField.addr, align 8, !dbg !2747
  %Data138 = getelementptr inbounds %"struct.pov::HField_Struct", %"struct.pov::HField_Struct"* %137, i32 0, i32 16, !dbg !2747
  %138 = load %"struct.pov::HField_Data_Struct"*, %"struct.pov::HField_Data_Struct"** %Data138, align 8, !dbg !2747
  %Map = getelementptr inbounds %"struct.pov::HField_Data_Struct", %"struct.pov::HField_Data_Struct"* %138, i32 0, i32 11, !dbg !2747
  %139 = load i16**, i16*** %Map, align 8, !dbg !2747
  %140 = load i32, i32* %j, align 4, !dbg !2747
  %idxprom139 = sext i32 %140 to i64, !dbg !2747
  %arrayidx140 = getelementptr inbounds i16*, i16** %139, i64 %idxprom139, !dbg !2747
  %141 = load i16*, i16** %arrayidx140, align 8, !dbg !2747
  %142 = load i32, i32* %i, align 4, !dbg !2747
  %idxprom141 = sext i32 %142 to i64, !dbg !2747
  %arrayidx142 = getelementptr inbounds i16, i16* %141, i64 %idxprom141, !dbg !2747
  %143 = load i16, i16* %arrayidx142, align 2, !dbg !2747
  %conv143 = uitofp i16 %143 to double, !dbg !2747
  store double %conv143, double* %y, align 8, !dbg !2749
  %call144 = call dereferenceable(8) double* @_ZSt3minIdERKT_S2_S2_(double* dereferenceable(8) %ymin, double* dereferenceable(8) %y), !dbg !2750
  %144 = load double, double* %call144, align 8, !dbg !2750
  store double %144, double* %ymin, align 8, !dbg !2751
  %call145 = call dereferenceable(8) double* @_ZSt3maxIdERKT_S2_S2_(double* dereferenceable(8) %ymax, double* dereferenceable(8) %y), !dbg !2752
  %145 = load double, double* %call145, align 8, !dbg !2752
  store double %145, double* %ymax, align 8, !dbg !2753
  br label %for.inc, !dbg !2754

for.inc:                                          ; preds = %for.body137
  %146 = load i32, i32* %j, align 4, !dbg !2755
  %inc146 = add nsw i32 %146, 1, !dbg !2755
  store i32 %inc146, i32* %j, align 4, !dbg !2755
  br label %for.cond134, !dbg !2756, !llvm.loop !2757

for.end:                                          ; preds = %for.cond134
  br label %for.inc147, !dbg !2759

for.inc147:                                       ; preds = %for.end
  %147 = load i32, i32* %i, align 4, !dbg !2760
  %inc148 = add nsw i32 %147, 1, !dbg !2760
  store i32 %inc148, i32* %i, align 4, !dbg !2760
  br label %for.cond130, !dbg !2761, !llvm.loop !2762

for.end149:                                       ; preds = %for.cond130
  %148 = load i32, i32* %xmin, align 4, !dbg !2764
  %149 = load %"struct.pov::HField_Struct"*, %"struct.pov::HField_Struct"** %HField.addr, align 8, !dbg !2765
  %Data150 = getelementptr inbounds %"struct.pov::HField_Struct", %"struct.pov::HField_Struct"* %149, i32 0, i32 16, !dbg !2766
  %150 = load %"struct.pov::HField_Data_Struct"*, %"struct.pov::HField_Data_Struct"** %Data150, align 8, !dbg !2766
  %Block151 = getelementptr inbounds %"struct.pov::HField_Data_Struct", %"struct.pov::HField_Data_Struct"* %150, i32 0, i32 14, !dbg !2767
  %151 = load %"struct.pov::HField_Block_Struct"**, %"struct.pov::HField_Block_Struct"*** %Block151, align 8, !dbg !2767
  %152 = load i32, i32* %z, align 4, !dbg !2768
  %idxprom152 = sext i32 %152 to i64, !dbg !2765
  %arrayidx153 = getelementptr inbounds %"struct.pov::HField_Block_Struct"*, %"struct.pov::HField_Block_Struct"** %151, i64 %idxprom152, !dbg !2765
  %153 = load %"struct.pov::HField_Block_Struct"*, %"struct.pov::HField_Block_Struct"** %arrayidx153, align 8, !dbg !2765
  %154 = load i32, i32* %x, align 4, !dbg !2769
  %idxprom154 = sext i32 %154 to i64, !dbg !2765
  %arrayidx155 = getelementptr inbounds %"struct.pov::HField_Block_Struct", %"struct.pov::HField_Block_Struct"* %153, i64 %idxprom154, !dbg !2765
  %xmin156 = getelementptr inbounds %"struct.pov::HField_Block_Struct", %"struct.pov::HField_Block_Struct"* %arrayidx155, i32 0, i32 0, !dbg !2770
  store i32 %148, i32* %xmin156, align 8, !dbg !2771
  %155 = load i32, i32* %xmax, align 4, !dbg !2772
  %156 = load %"struct.pov::HField_Struct"*, %"struct.pov::HField_Struct"** %HField.addr, align 8, !dbg !2773
  %Data157 = getelementptr inbounds %"struct.pov::HField_Struct", %"struct.pov::HField_Struct"* %156, i32 0, i32 16, !dbg !2774
  %157 = load %"struct.pov::HField_Data_Struct"*, %"struct.pov::HField_Data_Struct"** %Data157, align 8, !dbg !2774
  %Block158 = getelementptr inbounds %"struct.pov::HField_Data_Struct", %"struct.pov::HField_Data_Struct"* %157, i32 0, i32 14, !dbg !2775
  %158 = load %"struct.pov::HField_Block_Struct"**, %"struct.pov::HField_Block_Struct"*** %Block158, align 8, !dbg !2775
  %159 = load i32, i32* %z, align 4, !dbg !2776
  %idxprom159 = sext i32 %159 to i64, !dbg !2773
  %arrayidx160 = getelementptr inbounds %"struct.pov::HField_Block_Struct"*, %"struct.pov::HField_Block_Struct"** %158, i64 %idxprom159, !dbg !2773
  %160 = load %"struct.pov::HField_Block_Struct"*, %"struct.pov::HField_Block_Struct"** %arrayidx160, align 8, !dbg !2773
  %161 = load i32, i32* %x, align 4, !dbg !2777
  %idxprom161 = sext i32 %161 to i64, !dbg !2773
  %arrayidx162 = getelementptr inbounds %"struct.pov::HField_Block_Struct", %"struct.pov::HField_Block_Struct"* %160, i64 %idxprom161, !dbg !2773
  %xmax163 = getelementptr inbounds %"struct.pov::HField_Block_Struct", %"struct.pov::HField_Block_Struct"* %arrayidx162, i32 0, i32 1, !dbg !2778
  store i32 %155, i32* %xmax163, align 4, !dbg !2779
  %162 = load i32, i32* %zmin, align 4, !dbg !2780
  %163 = load %"struct.pov::HField_Struct"*, %"struct.pov::HField_Struct"** %HField.addr, align 8, !dbg !2781
  %Data164 = getelementptr inbounds %"struct.pov::HField_Struct", %"struct.pov::HField_Struct"* %163, i32 0, i32 16, !dbg !2782
  %164 = load %"struct.pov::HField_Data_Struct"*, %"struct.pov::HField_Data_Struct"** %Data164, align 8, !dbg !2782
  %Block165 = getelementptr inbounds %"struct.pov::HField_Data_Struct", %"struct.pov::HField_Data_Struct"* %164, i32 0, i32 14, !dbg !2783
  %165 = load %"struct.pov::HField_Block_Struct"**, %"struct.pov::HField_Block_Struct"*** %Block165, align 8, !dbg !2783
  %166 = load i32, i32* %z, align 4, !dbg !2784
  %idxprom166 = sext i32 %166 to i64, !dbg !2781
  %arrayidx167 = getelementptr inbounds %"struct.pov::HField_Block_Struct"*, %"struct.pov::HField_Block_Struct"** %165, i64 %idxprom166, !dbg !2781
  %167 = load %"struct.pov::HField_Block_Struct"*, %"struct.pov::HField_Block_Struct"** %arrayidx167, align 8, !dbg !2781
  %168 = load i32, i32* %x, align 4, !dbg !2785
  %idxprom168 = sext i32 %168 to i64, !dbg !2781
  %arrayidx169 = getelementptr inbounds %"struct.pov::HField_Block_Struct", %"struct.pov::HField_Block_Struct"* %167, i64 %idxprom168, !dbg !2781
  %zmin170 = getelementptr inbounds %"struct.pov::HField_Block_Struct", %"struct.pov::HField_Block_Struct"* %arrayidx169, i32 0, i32 2, !dbg !2786
  store i32 %162, i32* %zmin170, align 8, !dbg !2787
  %169 = load i32, i32* %zmax, align 4, !dbg !2788
  %170 = load %"struct.pov::HField_Struct"*, %"struct.pov::HField_Struct"** %HField.addr, align 8, !dbg !2789
  %Data171 = getelementptr inbounds %"struct.pov::HField_Struct", %"struct.pov::HField_Struct"* %170, i32 0, i32 16, !dbg !2790
  %171 = load %"struct.pov::HField_Data_Struct"*, %"struct.pov::HField_Data_Struct"** %Data171, align 8, !dbg !2790
  %Block172 = getelementptr inbounds %"struct.pov::HField_Data_Struct", %"struct.pov::HField_Data_Struct"* %171, i32 0, i32 14, !dbg !2791
  %172 = load %"struct.pov::HField_Block_Struct"**, %"struct.pov::HField_Block_Struct"*** %Block172, align 8, !dbg !2791
  %173 = load i32, i32* %z, align 4, !dbg !2792
  %idxprom173 = sext i32 %173 to i64, !dbg !2789
  %arrayidx174 = getelementptr inbounds %"struct.pov::HField_Block_Struct"*, %"struct.pov::HField_Block_Struct"** %172, i64 %idxprom173, !dbg !2789
  %174 = load %"struct.pov::HField_Block_Struct"*, %"struct.pov::HField_Block_Struct"** %arrayidx174, align 8, !dbg !2789
  %175 = load i32, i32* %x, align 4, !dbg !2793
  %idxprom175 = sext i32 %175 to i64, !dbg !2789
  %arrayidx176 = getelementptr inbounds %"struct.pov::HField_Block_Struct", %"struct.pov::HField_Block_Struct"* %174, i64 %idxprom175, !dbg !2789
  %zmax177 = getelementptr inbounds %"struct.pov::HField_Block_Struct", %"struct.pov::HField_Block_Struct"* %arrayidx176, i32 0, i32 3, !dbg !2794
  store i32 %169, i32* %zmax177, align 4, !dbg !2795
  %call178 = call dereferenceable(8) double* @_ZSt3maxIdERKT_S2_S2_(double* dereferenceable(8) %ymin, double* dereferenceable(8) %water), !dbg !2796
  %176 = load double, double* %call178, align 8, !dbg !2796
  %sub179 = fsub double %176, 1.000000e-03, !dbg !2797
  %177 = load %"struct.pov::HField_Struct"*, %"struct.pov::HField_Struct"** %HField.addr, align 8, !dbg !2798
  %Data180 = getelementptr inbounds %"struct.pov::HField_Struct", %"struct.pov::HField_Struct"* %177, i32 0, i32 16, !dbg !2799
  %178 = load %"struct.pov::HField_Data_Struct"*, %"struct.pov::HField_Data_Struct"** %Data180, align 8, !dbg !2799
  %Block181 = getelementptr inbounds %"struct.pov::HField_Data_Struct", %"struct.pov::HField_Data_Struct"* %178, i32 0, i32 14, !dbg !2800
  %179 = load %"struct.pov::HField_Block_Struct"**, %"struct.pov::HField_Block_Struct"*** %Block181, align 8, !dbg !2800
  %180 = load i32, i32* %z, align 4, !dbg !2801
  %idxprom182 = sext i32 %180 to i64, !dbg !2798
  %arrayidx183 = getelementptr inbounds %"struct.pov::HField_Block_Struct"*, %"struct.pov::HField_Block_Struct"** %179, i64 %idxprom182, !dbg !2798
  %181 = load %"struct.pov::HField_Block_Struct"*, %"struct.pov::HField_Block_Struct"** %arrayidx183, align 8, !dbg !2798
  %182 = load i32, i32* %x, align 4, !dbg !2802
  %idxprom184 = sext i32 %182 to i64, !dbg !2798
  %arrayidx185 = getelementptr inbounds %"struct.pov::HField_Block_Struct", %"struct.pov::HField_Block_Struct"* %181, i64 %idxprom184, !dbg !2798
  %ymin186 = getelementptr inbounds %"struct.pov::HField_Block_Struct", %"struct.pov::HField_Block_Struct"* %arrayidx185, i32 0, i32 4, !dbg !2803
  store double %sub179, double* %ymin186, align 8, !dbg !2804
  %183 = load double, double* %ymax, align 8, !dbg !2805
  %add187 = fadd double %183, 1.000000e-03, !dbg !2806
  %184 = load %"struct.pov::HField_Struct"*, %"struct.pov::HField_Struct"** %HField.addr, align 8, !dbg !2807
  %Data188 = getelementptr inbounds %"struct.pov::HField_Struct", %"struct.pov::HField_Struct"* %184, i32 0, i32 16, !dbg !2808
  %185 = load %"struct.pov::HField_Data_Struct"*, %"struct.pov::HField_Data_Struct"** %Data188, align 8, !dbg !2808
  %Block189 = getelementptr inbounds %"struct.pov::HField_Data_Struct", %"struct.pov::HField_Data_Struct"* %185, i32 0, i32 14, !dbg !2809
  %186 = load %"struct.pov::HField_Block_Struct"**, %"struct.pov::HField_Block_Struct"*** %Block189, align 8, !dbg !2809
  %187 = load i32, i32* %z, align 4, !dbg !2810
  %idxprom190 = sext i32 %187 to i64, !dbg !2807
  %arrayidx191 = getelementptr inbounds %"struct.pov::HField_Block_Struct"*, %"struct.pov::HField_Block_Struct"** %186, i64 %idxprom190, !dbg !2807
  %188 = load %"struct.pov::HField_Block_Struct"*, %"struct.pov::HField_Block_Struct"** %arrayidx191, align 8, !dbg !2807
  %189 = load i32, i32* %x, align 4, !dbg !2811
  %idxprom192 = sext i32 %189 to i64, !dbg !2807
  %arrayidx193 = getelementptr inbounds %"struct.pov::HField_Block_Struct", %"struct.pov::HField_Block_Struct"* %188, i64 %idxprom192, !dbg !2807
  %ymax194 = getelementptr inbounds %"struct.pov::HField_Block_Struct", %"struct.pov::HField_Block_Struct"* %arrayidx193, i32 0, i32 5, !dbg !2812
  store double %add187, double* %ymax194, align 8, !dbg !2813
  br label %for.inc195, !dbg !2814

for.inc195:                                       ; preds = %for.end149
  %190 = load i32, i32* %x, align 4, !dbg !2815
  %inc196 = add nsw i32 %190, 1, !dbg !2815
  store i32 %inc196, i32* %x, align 4, !dbg !2815
  br label %for.cond112, !dbg !2816, !llvm.loop !2817

for.end197:                                       ; preds = %for.cond112
  br label %for.inc198, !dbg !2819

for.inc198:                                       ; preds = %for.end197
  %191 = load i32, i32* %z, align 4, !dbg !2820
  %inc199 = add nsw i32 %191, 1, !dbg !2820
  store i32 %inc199, i32* %z, align 4, !dbg !2820
  br label %for.cond, !dbg !2821, !llvm.loop !2822

for.end200:                                       ; preds = %if.then37, %for.cond
  ret void, !dbg !2824
}

; Function Attrs: noinline uwtable
define dso_local %"struct.pov::HField_Struct"* @_ZN3pov13Create_HFieldEv() #0 !dbg !2825 {
entry:
  %New = alloca %"struct.pov::HField_Struct"*, align 8
  call void @llvm.dbg.declare(metadata %"struct.pov::HField_Struct"** %New, metadata !2828, metadata !DIExpression()), !dbg !2829
  %call = call i8* @_ZN3pov10pov_mallocEmPKciS1_(i64 176, i8* getelementptr inbounds ([11 x i8], [11 x i8]* @.str, i64 0, i64 0), i32 1287, i8* getelementptr inbounds ([13 x i8], [13 x i8]* @.str.1, i64 0, i64 0)), !dbg !2830
  %0 = bitcast i8* %call to %"struct.pov::HField_Struct"*, !dbg !2831
  store %"struct.pov::HField_Struct"* %0, %"struct.pov::HField_Struct"** %New, align 8, !dbg !2832
  %1 = load %"struct.pov::HField_Struct"*, %"struct.pov::HField_Struct"** %New, align 8, !dbg !2833
  %Type = getelementptr inbounds %"struct.pov::HField_Struct", %"struct.pov::HField_Struct"* %1, i32 0, i32 1, !dbg !2833
  store i32 512, i32* %Type, align 8, !dbg !2833
  %2 = load %"struct.pov::HField_Struct"*, %"struct.pov::HField_Struct"** %New, align 8, !dbg !2833
  %Methods = getelementptr inbounds %"struct.pov::HField_Struct", %"struct.pov::HField_Struct"* %2, i32 0, i32 0, !dbg !2833
  store %"struct.pov::Method_Struct"* bitcast ({ i32 (%"struct.pov::Object_Struct"*, %"struct.pov::Ray_Struct"*, %"struct.pov::istack_struct"*)*, i32 (double*, %"struct.pov::Object_Struct"*)*, void (double*, %"struct.pov::Object_Struct"*, %"struct.pov::istk_entry"*)*, void (double*, %"struct.pov::Object_Struct"*, %"struct.pov::istk_entry"*)*, i8* (%"struct.pov::Object_Struct"*)*, void (%"struct.pov::Object_Struct"*, double*, %"struct.pov::Transform_Struct"*)*, void (%"struct.pov::Object_Struct"*, double*, %"struct.pov::Transform_Struct"*)*, void (%"struct.pov::Object_Struct"*, double*, %"struct.pov::Transform_Struct"*)*, void (%"struct.pov::Object_Struct"*, %"struct.pov::Transform_Struct"*)*, void (%"struct.pov::Object_Struct"*)*, void (%"struct.pov::Object_Struct"*)* }* @_ZN3pov14HField_MethodsE to %"struct.pov::Method_Struct"*), %"struct.pov::Method_Struct"** %Methods, align 8, !dbg !2833
  %3 = load %"struct.pov::HField_Struct"*, %"struct.pov::HField_Struct"** %New, align 8, !dbg !2833
  %Sibling = getelementptr inbounds %"struct.pov::HField_Struct", %"struct.pov::HField_Struct"* %3, i32 0, i32 2, !dbg !2833
  store %"struct.pov::Object_Struct"* null, %"struct.pov::Object_Struct"** %Sibling, align 8, !dbg !2833
  %4 = load %"struct.pov::HField_Struct"*, %"struct.pov::HField_Struct"** %New, align 8, !dbg !2833
  %Texture = getelementptr inbounds %"struct.pov::HField_Struct", %"struct.pov::HField_Struct"* %4, i32 0, i32 3, !dbg !2833
  store %"struct.pov::Texture_Struct"* null, %"struct.pov::Texture_Struct"** %Texture, align 8, !dbg !2833
  %5 = load %"struct.pov::HField_Struct"*, %"struct.pov::HField_Struct"** %New, align 8, !dbg !2833
  %Interior_Texture = getelementptr inbounds %"struct.pov::HField_Struct", %"struct.pov::HField_Struct"* %5, i32 0, i32 4, !dbg !2833
  store %"struct.pov::Texture_Struct"* null, %"struct.pov::Texture_Struct"** %Interior_Texture, align 8, !dbg !2833
  %6 = load %"struct.pov::HField_Struct"*, %"struct.pov::HField_Struct"** %New, align 8, !dbg !2833
  %Interior = getelementptr inbounds %"struct.pov::HField_Struct", %"struct.pov::HField_Struct"* %6, i32 0, i32 5, !dbg !2833
  store %"struct.pov::Interior_Struct"* null, %"struct.pov::Interior_Struct"** %Interior, align 8, !dbg !2833
  %7 = load %"struct.pov::HField_Struct"*, %"struct.pov::HField_Struct"** %New, align 8, !dbg !2833
  %Bound = getelementptr inbounds %"struct.pov::HField_Struct", %"struct.pov::HField_Struct"* %7, i32 0, i32 6, !dbg !2833
  store %"struct.pov::Object_Struct"* null, %"struct.pov::Object_Struct"** %Bound, align 8, !dbg !2833
  %8 = load %"struct.pov::HField_Struct"*, %"struct.pov::HField_Struct"** %New, align 8, !dbg !2833
  %Clip = getelementptr inbounds %"struct.pov::HField_Struct", %"struct.pov::HField_Struct"* %8, i32 0, i32 7, !dbg !2833
  store %"struct.pov::Object_Struct"* null, %"struct.pov::Object_Struct"** %Clip, align 8, !dbg !2833
  %9 = load %"struct.pov::HField_Struct"*, %"struct.pov::HField_Struct"** %New, align 8, !dbg !2833
  %LLights = getelementptr inbounds %"struct.pov::HField_Struct", %"struct.pov::HField_Struct"* %9, i32 0, i32 8, !dbg !2833
  store %"struct.pov::Light_Source_Struct"* null, %"struct.pov::Light_Source_Struct"** %LLights, align 8, !dbg !2833
  %10 = load %"struct.pov::HField_Struct"*, %"struct.pov::HField_Struct"** %New, align 8, !dbg !2833
  %Trans = getelementptr inbounds %"struct.pov::HField_Struct", %"struct.pov::HField_Struct"* %10, i32 0, i32 10, !dbg !2833
  store %"struct.pov::Transform_Struct"* null, %"struct.pov::Transform_Struct"** %Trans, align 8, !dbg !2833
  %11 = load %"struct.pov::HField_Struct"*, %"struct.pov::HField_Struct"** %New, align 8, !dbg !2833
  %UV_Trans = getelementptr inbounds %"struct.pov::HField_Struct", %"struct.pov::HField_Struct"* %11, i32 0, i32 11, !dbg !2833
  store %"struct.pov::Transform_Struct"* null, %"struct.pov::Transform_Struct"** %UV_Trans, align 8, !dbg !2833
  %12 = load %"struct.pov::HField_Struct"*, %"struct.pov::HField_Struct"** %New, align 8, !dbg !2833
  %Ph_Density = getelementptr inbounds %"struct.pov::HField_Struct", %"struct.pov::HField_Struct"* %12, i32 0, i32 12, !dbg !2833
  store float 0.000000e+00, float* %Ph_Density, align 8, !dbg !2833
  %13 = load %"struct.pov::HField_Struct"*, %"struct.pov::HField_Struct"** %New, align 8, !dbg !2833
  %Flags = getelementptr inbounds %"struct.pov::HField_Struct", %"struct.pov::HField_Struct"* %13, i32 0, i32 13, !dbg !2833
  store i32 0, i32* %Flags, align 4, !dbg !2833
  %14 = load %"struct.pov::HField_Struct"*, %"struct.pov::HField_Struct"** %New, align 8, !dbg !2833
  %BBox = getelementptr inbounds %"struct.pov::HField_Struct", %"struct.pov::HField_Struct"* %14, i32 0, i32 9, !dbg !2833
  call void @_ZN3pov9Make_BBoxERNS_19Bounding_Box_StructEffffff(%"struct.pov::Bounding_Box_Struct"* dereferenceable(24) %BBox, float -1.000000e+10, float -1.000000e+10, float -1.000000e+10, float 2.000000e+10, float 2.000000e+10, float 2.000000e+10), !dbg !2833
  %call1 = call %"struct.pov::Transform_Struct"* @_ZN3pov16Create_TransformEv(), !dbg !2834
  %15 = load %"struct.pov::HField_Struct"*, %"struct.pov::HField_Struct"** %New, align 8, !dbg !2835
  %Trans2 = getelementptr inbounds %"struct.pov::HField_Struct", %"struct.pov::HField_Struct"* %15, i32 0, i32 10, !dbg !2836
  store %"struct.pov::Transform_Struct"* %call1, %"struct.pov::Transform_Struct"** %Trans2, align 8, !dbg !2837
  %16 = load %"struct.pov::HField_Struct"*, %"struct.pov::HField_Struct"** %New, align 8, !dbg !2838
  %bounding_corner1 = getelementptr inbounds %"struct.pov::HField_Struct", %"struct.pov::HField_Struct"* %16, i32 0, i32 14, !dbg !2839
  %arraydecay = getelementptr inbounds [3 x double], [3 x double]* %bounding_corner1, i64 0, i64 0, !dbg !2838
  call void @_ZN3pov11Make_VectorEPdddd(double* %arraydecay, double -1.000000e+00, double -1.000000e+00, double -1.000000e+00), !dbg !2840
  %17 = load %"struct.pov::HField_Struct"*, %"struct.pov::HField_Struct"** %New, align 8, !dbg !2841
  %bounding_corner2 = getelementptr inbounds %"struct.pov::HField_Struct", %"struct.pov::HField_Struct"* %17, i32 0, i32 15, !dbg !2842
  %arraydecay3 = getelementptr inbounds [3 x double], [3 x double]* %bounding_corner2, i64 0, i64 0, !dbg !2841
  call void @_ZN3pov11Make_VectorEPdddd(double* %arraydecay3, double 1.000000e+00, double 1.000000e+00, double 1.000000e+00), !dbg !2843
  %call4 = call i8* @_ZN3pov10pov_mallocEmPKciS1_(i64 704, i8* getelementptr inbounds ([11 x i8], [11 x i8]* @.str, i64 0, i64 0), i32 1300, i8* getelementptr inbounds ([13 x i8], [13 x i8]* @.str.1, i64 0, i64 0)), !dbg !2844
  %18 = bitcast i8* %call4 to %"struct.pov::HField_Data_Struct"*, !dbg !2845
  %19 = load %"struct.pov::HField_Struct"*, %"struct.pov::HField_Struct"** %New, align 8, !dbg !2846
  %Data = getelementptr inbounds %"struct.pov::HField_Struct", %"struct.pov::HField_Struct"* %19, i32 0, i32 16, !dbg !2847
  store %"struct.pov::HField_Data_Struct"* %18, %"struct.pov::HField_Data_Struct"** %Data, align 8, !dbg !2848
  %20 = load %"struct.pov::HField_Struct"*, %"struct.pov::HField_Struct"** %New, align 8, !dbg !2849
  %Data5 = getelementptr inbounds %"struct.pov::HField_Struct", %"struct.pov::HField_Struct"* %20, i32 0, i32 16, !dbg !2850
  %21 = load %"struct.pov::HField_Data_Struct"*, %"struct.pov::HField_Data_Struct"** %Data5, align 8, !dbg !2850
  %References = getelementptr inbounds %"struct.pov::HField_Data_Struct", %"struct.pov::HField_Data_Struct"* %21, i32 0, i32 0, !dbg !2851
  store i32 1, i32* %References, align 8, !dbg !2852
  %22 = load %"struct.pov::HField_Struct"*, %"struct.pov::HField_Struct"** %New, align 8, !dbg !2853
  %Data6 = getelementptr inbounds %"struct.pov::HField_Struct", %"struct.pov::HField_Struct"* %22, i32 0, i32 16, !dbg !2854
  %23 = load %"struct.pov::HField_Data_Struct"*, %"struct.pov::HField_Data_Struct"** %Data6, align 8, !dbg !2854
  %cache_pos = getelementptr inbounds %"struct.pov::HField_Data_Struct", %"struct.pov::HField_Data_Struct"* %23, i32 0, i32 1, !dbg !2855
  store i32 0, i32* %cache_pos, align 4, !dbg !2856
  %24 = load %"struct.pov::HField_Struct"*, %"struct.pov::HField_Struct"** %New, align 8, !dbg !2857
  %Data7 = getelementptr inbounds %"struct.pov::HField_Struct", %"struct.pov::HField_Struct"* %24, i32 0, i32 16, !dbg !2858
  %25 = load %"struct.pov::HField_Data_Struct"*, %"struct.pov::HField_Data_Struct"** %Data7, align 8, !dbg !2858
  %Normals_Height = getelementptr inbounds %"struct.pov::HField_Data_Struct", %"struct.pov::HField_Data_Struct"* %25, i32 0, i32 2, !dbg !2859
  store i32 0, i32* %Normals_Height, align 8, !dbg !2860
  %26 = load %"struct.pov::HField_Struct"*, %"struct.pov::HField_Struct"** %New, align 8, !dbg !2861
  %Data8 = getelementptr inbounds %"struct.pov::HField_Struct", %"struct.pov::HField_Struct"* %26, i32 0, i32 16, !dbg !2862
  %27 = load %"struct.pov::HField_Data_Struct"*, %"struct.pov::HField_Data_Struct"** %Data8, align 8, !dbg !2862
  %Map = getelementptr inbounds %"struct.pov::HField_Data_Struct", %"struct.pov::HField_Data_Struct"* %27, i32 0, i32 11, !dbg !2863
  store i16** null, i16*** %Map, align 8, !dbg !2864
  %28 = load %"struct.pov::HField_Struct"*, %"struct.pov::HField_Struct"** %New, align 8, !dbg !2865
  %Data9 = getelementptr inbounds %"struct.pov::HField_Struct", %"struct.pov::HField_Struct"* %28, i32 0, i32 16, !dbg !2866
  %29 = load %"struct.pov::HField_Data_Struct"*, %"struct.pov::HField_Data_Struct"** %Data9, align 8, !dbg !2866
  %Normals = getelementptr inbounds %"struct.pov::HField_Data_Struct", %"struct.pov::HField_Data_Struct"* %29, i32 0, i32 12, !dbg !2867
  store [3 x i16]** null, [3 x i16]*** %Normals, align 8, !dbg !2868
  %30 = load %"struct.pov::HField_Struct"*, %"struct.pov::HField_Struct"** %New, align 8, !dbg !2869
  %Data10 = getelementptr inbounds %"struct.pov::HField_Struct", %"struct.pov::HField_Struct"* %30, i32 0, i32 16, !dbg !2870
  %31 = load %"struct.pov::HField_Data_Struct"*, %"struct.pov::HField_Data_Struct"** %Data10, align 8, !dbg !2870
  %max_x = getelementptr inbounds %"struct.pov::HField_Data_Struct", %"struct.pov::HField_Data_Struct"* %31, i32 0, i32 3, !dbg !2871
  store i32 0, i32* %max_x, align 4, !dbg !2872
  %32 = load %"struct.pov::HField_Struct"*, %"struct.pov::HField_Struct"** %New, align 8, !dbg !2873
  %Data11 = getelementptr inbounds %"struct.pov::HField_Struct", %"struct.pov::HField_Struct"* %32, i32 0, i32 16, !dbg !2874
  %33 = load %"struct.pov::HField_Data_Struct"*, %"struct.pov::HField_Data_Struct"** %Data11, align 8, !dbg !2874
  %max_z = getelementptr inbounds %"struct.pov::HField_Data_Struct", %"struct.pov::HField_Data_Struct"* %33, i32 0, i32 4, !dbg !2875
  store i32 0, i32* %max_z, align 8, !dbg !2876
  %34 = load %"struct.pov::HField_Struct"*, %"struct.pov::HField_Struct"** %New, align 8, !dbg !2877
  %Data12 = getelementptr inbounds %"struct.pov::HField_Struct", %"struct.pov::HField_Struct"* %34, i32 0, i32 16, !dbg !2878
  %35 = load %"struct.pov::HField_Data_Struct"*, %"struct.pov::HField_Data_Struct"** %Data12, align 8, !dbg !2878
  %block_max_x = getelementptr inbounds %"struct.pov::HField_Data_Struct", %"struct.pov::HField_Data_Struct"* %35, i32 0, i32 7, !dbg !2879
  store i32 0, i32* %block_max_x, align 8, !dbg !2880
  %36 = load %"struct.pov::HField_Struct"*, %"struct.pov::HField_Struct"** %New, align 8, !dbg !2881
  %Data13 = getelementptr inbounds %"struct.pov::HField_Struct", %"struct.pov::HField_Struct"* %36, i32 0, i32 16, !dbg !2882
  %37 = load %"struct.pov::HField_Data_Struct"*, %"struct.pov::HField_Data_Struct"** %Data13, align 8, !dbg !2882
  %block_max_z = getelementptr inbounds %"struct.pov::HField_Data_Struct", %"struct.pov::HField_Data_Struct"* %37, i32 0, i32 8, !dbg !2883
  store i32 0, i32* %block_max_z, align 4, !dbg !2884
  %38 = load %"struct.pov::HField_Struct"*, %"struct.pov::HField_Struct"** %New, align 8, !dbg !2885
  %Data14 = getelementptr inbounds %"struct.pov::HField_Struct", %"struct.pov::HField_Struct"* %38, i32 0, i32 16, !dbg !2886
  %39 = load %"struct.pov::HField_Data_Struct"*, %"struct.pov::HField_Data_Struct"** %Data14, align 8, !dbg !2886
  %block_width_x = getelementptr inbounds %"struct.pov::HField_Data_Struct", %"struct.pov::HField_Data_Struct"* %39, i32 0, i32 9, !dbg !2887
  store i32 0, i32* %block_width_x, align 8, !dbg !2888
  %40 = load %"struct.pov::HField_Struct"*, %"struct.pov::HField_Struct"** %New, align 8, !dbg !2889
  %Data15 = getelementptr inbounds %"struct.pov::HField_Struct", %"struct.pov::HField_Struct"* %40, i32 0, i32 16, !dbg !2890
  %41 = load %"struct.pov::HField_Data_Struct"*, %"struct.pov::HField_Data_Struct"** %Data15, align 8, !dbg !2890
  %block_width_z = getelementptr inbounds %"struct.pov::HField_Data_Struct", %"struct.pov::HField_Data_Struct"* %41, i32 0, i32 10, !dbg !2891
  store i32 0, i32* %block_width_z, align 4, !dbg !2892
  %42 = load %"struct.pov::HField_Struct"*, %"struct.pov::HField_Struct"** %New, align 8, !dbg !2893
  %Flags16 = getelementptr inbounds %"struct.pov::HField_Struct", %"struct.pov::HField_Struct"* %42, i32 0, i32 13, !dbg !2893
  %43 = load i32, i32* %Flags16, align 4, !dbg !2893
  %conv = zext i32 %43 to i64, !dbg !2893
  %or = or i64 %conv, 1024, !dbg !2893
  %conv17 = trunc i64 %or to i32, !dbg !2893
  store i32 %conv17, i32* %Flags16, align 4, !dbg !2893
  %44 = load %"struct.pov::HField_Struct"*, %"struct.pov::HField_Struct"** %New, align 8, !dbg !2895
  ret %"struct.pov::HField_Struct"* %44, !dbg !2896
}

; Function Attrs: noinline nounwind uwtable
define linkonce_odr dso_local void @_ZN3pov9Make_BBoxERNS_19Bounding_Box_StructEffffff(%"struct.pov::Bounding_Box_Struct"* dereferenceable(24) %BBox, float %llx, float %lly, float %llz, float %lex, float %ley, float %lez) #2 comdat !dbg !2897 {
entry:
  %BBox.addr = alloca %"struct.pov::Bounding_Box_Struct"*, align 8
  %llx.addr = alloca float, align 4
  %lly.addr = alloca float, align 4
  %llz.addr = alloca float, align 4
  %lex.addr = alloca float, align 4
  %ley.addr = alloca float, align 4
  %lez.addr = alloca float, align 4
  store %"struct.pov::Bounding_Box_Struct"* %BBox, %"struct.pov::Bounding_Box_Struct"** %BBox.addr, align 8
  call void @llvm.dbg.declare(metadata %"struct.pov::Bounding_Box_Struct"** %BBox.addr, metadata !2901, metadata !DIExpression()), !dbg !2902
  store float %llx, float* %llx.addr, align 4
  call void @llvm.dbg.declare(metadata float* %llx.addr, metadata !2903, metadata !DIExpression()), !dbg !2904
  store float %lly, float* %lly.addr, align 4
  call void @llvm.dbg.declare(metadata float* %lly.addr, metadata !2905, metadata !DIExpression()), !dbg !2906
  store float %llz, float* %llz.addr, align 4
  call void @llvm.dbg.declare(metadata float* %llz.addr, metadata !2907, metadata !DIExpression()), !dbg !2908
  store float %lex, float* %lex.addr, align 4
  call void @llvm.dbg.declare(metadata float* %lex.addr, metadata !2909, metadata !DIExpression()), !dbg !2910
  store float %ley, float* %ley.addr, align 4
  call void @llvm.dbg.declare(metadata float* %ley.addr, metadata !2911, metadata !DIExpression()), !dbg !2912
  store float %lez, float* %lez.addr, align 4
  call void @llvm.dbg.declare(metadata float* %lez.addr, metadata !2913, metadata !DIExpression()), !dbg !2914
  %0 = load float, float* %llx.addr, align 4, !dbg !2915
  %1 = load %"struct.pov::Bounding_Box_Struct"*, %"struct.pov::Bounding_Box_Struct"** %BBox.addr, align 8, !dbg !2916
  %Lower_Left = getelementptr inbounds %"struct.pov::Bounding_Box_Struct", %"struct.pov::Bounding_Box_Struct"* %1, i32 0, i32 0, !dbg !2917
  %arrayidx = getelementptr inbounds [3 x float], [3 x float]* %Lower_Left, i64 0, i64 0, !dbg !2916
  store float %0, float* %arrayidx, align 4, !dbg !2918
  %2 = load float, float* %lly.addr, align 4, !dbg !2919
  %3 = load %"struct.pov::Bounding_Box_Struct"*, %"struct.pov::Bounding_Box_Struct"** %BBox.addr, align 8, !dbg !2920
  %Lower_Left1 = getelementptr inbounds %"struct.pov::Bounding_Box_Struct", %"struct.pov::Bounding_Box_Struct"* %3, i32 0, i32 0, !dbg !2921
  %arrayidx2 = getelementptr inbounds [3 x float], [3 x float]* %Lower_Left1, i64 0, i64 1, !dbg !2920
  store float %2, float* %arrayidx2, align 4, !dbg !2922
  %4 = load float, float* %llz.addr, align 4, !dbg !2923
  %5 = load %"struct.pov::Bounding_Box_Struct"*, %"struct.pov::Bounding_Box_Struct"** %BBox.addr, align 8, !dbg !2924
  %Lower_Left3 = getelementptr inbounds %"struct.pov::Bounding_Box_Struct", %"struct.pov::Bounding_Box_Struct"* %5, i32 0, i32 0, !dbg !2925
  %arrayidx4 = getelementptr inbounds [3 x float], [3 x float]* %Lower_Left3, i64 0, i64 2, !dbg !2924
  store float %4, float* %arrayidx4, align 4, !dbg !2926
  %6 = load float, float* %lex.addr, align 4, !dbg !2927
  %7 = load %"struct.pov::Bounding_Box_Struct"*, %"struct.pov::Bounding_Box_Struct"** %BBox.addr, align 8, !dbg !2928
  %Lengths = getelementptr inbounds %"struct.pov::Bounding_Box_Struct", %"struct.pov::Bounding_Box_Struct"* %7, i32 0, i32 1, !dbg !2929
  %arrayidx5 = getelementptr inbounds [3 x float], [3 x float]* %Lengths, i64 0, i64 0, !dbg !2928
  store float %6, float* %arrayidx5, align 4, !dbg !2930
  %8 = load float, float* %ley.addr, align 4, !dbg !2931
  %9 = load %"struct.pov::Bounding_Box_Struct"*, %"struct.pov::Bounding_Box_Struct"** %BBox.addr, align 8, !dbg !2932
  %Lengths6 = getelementptr inbounds %"struct.pov::Bounding_Box_Struct", %"struct.pov::Bounding_Box_Struct"* %9, i32 0, i32 1, !dbg !2933
  %arrayidx7 = getelementptr inbounds [3 x float], [3 x float]* %Lengths6, i64 0, i64 1, !dbg !2932
  store float %8, float* %arrayidx7, align 4, !dbg !2934
  %10 = load float, float* %lez.addr, align 4, !dbg !2935
  %11 = load %"struct.pov::Bounding_Box_Struct"*, %"struct.pov::Bounding_Box_Struct"** %BBox.addr, align 8, !dbg !2936
  %Lengths8 = getelementptr inbounds %"struct.pov::Bounding_Box_Struct", %"struct.pov::Bounding_Box_Struct"* %11, i32 0, i32 1, !dbg !2937
  %arrayidx9 = getelementptr inbounds [3 x float], [3 x float]* %Lengths8, i64 0, i64 2, !dbg !2936
  store float %10, float* %arrayidx9, align 4, !dbg !2938
  ret void, !dbg !2939
}

declare dso_local %"struct.pov::Transform_Struct"* @_ZN3pov16Create_TransformEv() #1

; Function Attrs: noinline nounwind uwtable
define linkonce_odr dso_local void @_ZN3pov11Make_VectorEPdddd(double* %v, double %a, double %b, double %c) #2 comdat !dbg !2940 {
entry:
  %v.addr = alloca double*, align 8
  %a.addr = alloca double, align 8
  %b.addr = alloca double, align 8
  %c.addr = alloca double, align 8
  store double* %v, double** %v.addr, align 8
  call void @llvm.dbg.declare(metadata double** %v.addr, metadata !2943, metadata !DIExpression()), !dbg !2944
  store double %a, double* %a.addr, align 8
  call void @llvm.dbg.declare(metadata double* %a.addr, metadata !2945, metadata !DIExpression()), !dbg !2946
  store double %b, double* %b.addr, align 8
  call void @llvm.dbg.declare(metadata double* %b.addr, metadata !2947, metadata !DIExpression()), !dbg !2948
  store double %c, double* %c.addr, align 8
  call void @llvm.dbg.declare(metadata double* %c.addr, metadata !2949, metadata !DIExpression()), !dbg !2950
  %0 = load double, double* %a.addr, align 8, !dbg !2951
  %1 = load double*, double** %v.addr, align 8, !dbg !2952
  %arrayidx = getelementptr inbounds double, double* %1, i64 0, !dbg !2952
  store double %0, double* %arrayidx, align 8, !dbg !2953
  %2 = load double, double* %b.addr, align 8, !dbg !2954
  %3 = load double*, double** %v.addr, align 8, !dbg !2955
  %arrayidx1 = getelementptr inbounds double, double* %3, i64 1, !dbg !2955
  store double %2, double* %arrayidx1, align 8, !dbg !2956
  %4 = load double, double* %c.addr, align 8, !dbg !2957
  %5 = load double*, double** %v.addr, align 8, !dbg !2958
  %arrayidx2 = getelementptr inbounds double, double* %5, i64 2, !dbg !2958
  store double %4, double* %arrayidx2, align 8, !dbg !2959
  ret void, !dbg !2960
}

; Function Attrs: noinline uwtable
define dso_local void @_ZN3pov19Compute_HField_BBoxEPNS_13HField_StructE(%"struct.pov::HField_Struct"* %HField) #0 !dbg !2961 {
entry:
  %HField.addr = alloca %"struct.pov::HField_Struct"*, align 8
  %Low_Left = alloca [3 x float]*, align 8
  store %"struct.pov::HField_Struct"* %HField, %"struct.pov::HField_Struct"** %HField.addr, align 8
  call void @llvm.dbg.declare(metadata %"struct.pov::HField_Struct"** %HField.addr, metadata !2962, metadata !DIExpression()), !dbg !2963
  call void @llvm.dbg.declare(metadata [3 x float]** %Low_Left, metadata !2964, metadata !DIExpression()), !dbg !2966
  %0 = load %"struct.pov::HField_Struct"*, %"struct.pov::HField_Struct"** %HField.addr, align 8, !dbg !2967
  %BBox = getelementptr inbounds %"struct.pov::HField_Struct", %"struct.pov::HField_Struct"* %0, i32 0, i32 9, !dbg !2968
  %Lower_Left = getelementptr inbounds %"struct.pov::Bounding_Box_Struct", %"struct.pov::Bounding_Box_Struct"* %BBox, i32 0, i32 0, !dbg !2969
  store [3 x float]* %Lower_Left, [3 x float]** %Low_Left, align 8, !dbg !2966
  %1 = load [3 x float]*, [3 x float]** %Low_Left, align 8, !dbg !2970
  %2 = load %"struct.pov::HField_Struct"*, %"struct.pov::HField_Struct"** %HField.addr, align 8, !dbg !2971
  %bounding_corner1 = getelementptr inbounds %"struct.pov::HField_Struct", %"struct.pov::HField_Struct"* %2, i32 0, i32 14, !dbg !2972
  %arraydecay = getelementptr inbounds [3 x double], [3 x double]* %bounding_corner1, i64 0, i64 0, !dbg !2971
  call void @_ZN3pov16Assign_BBox_VectERA3_fPd([3 x float]* dereferenceable(12) %1, double* %arraydecay), !dbg !2973
  %3 = load %"struct.pov::HField_Struct"*, %"struct.pov::HField_Struct"** %HField.addr, align 8, !dbg !2974
  %BBox1 = getelementptr inbounds %"struct.pov::HField_Struct", %"struct.pov::HField_Struct"* %3, i32 0, i32 9, !dbg !2975
  %Lengths = getelementptr inbounds %"struct.pov::Bounding_Box_Struct", %"struct.pov::Bounding_Box_Struct"* %BBox1, i32 0, i32 1, !dbg !2976
  %arraydecay2 = getelementptr inbounds [3 x float], [3 x float]* %Lengths, i64 0, i64 0, !dbg !2974
  %4 = load %"struct.pov::HField_Struct"*, %"struct.pov::HField_Struct"** %HField.addr, align 8, !dbg !2977
  %bounding_corner2 = getelementptr inbounds %"struct.pov::HField_Struct", %"struct.pov::HField_Struct"* %4, i32 0, i32 15, !dbg !2978
  %arraydecay3 = getelementptr inbounds [3 x double], [3 x double]* %bounding_corner2, i64 0, i64 0, !dbg !2977
  %5 = load %"struct.pov::HField_Struct"*, %"struct.pov::HField_Struct"** %HField.addr, align 8, !dbg !2979
  %bounding_corner14 = getelementptr inbounds %"struct.pov::HField_Struct", %"struct.pov::HField_Struct"* %5, i32 0, i32 14, !dbg !2980
  %arraydecay5 = getelementptr inbounds [3 x double], [3 x double]* %bounding_corner14, i64 0, i64 0, !dbg !2979
  call void @_ZN3pov4VSubEPfPKdS2_(float* %arraydecay2, double* %arraydecay3, double* %arraydecay5), !dbg !2981
  %6 = load %"struct.pov::HField_Struct"*, %"struct.pov::HField_Struct"** %HField.addr, align 8, !dbg !2982
  %Trans = getelementptr inbounds %"struct.pov::HField_Struct", %"struct.pov::HField_Struct"* %6, i32 0, i32 10, !dbg !2984
  %7 = load %"struct.pov::Transform_Struct"*, %"struct.pov::Transform_Struct"** %Trans, align 8, !dbg !2984
  %cmp = icmp ne %"struct.pov::Transform_Struct"* %7, null, !dbg !2985
  br i1 %cmp, label %if.then, label %if.end, !dbg !2986

if.then:                                          ; preds = %entry
  %8 = load %"struct.pov::HField_Struct"*, %"struct.pov::HField_Struct"** %HField.addr, align 8, !dbg !2987
  %BBox6 = getelementptr inbounds %"struct.pov::HField_Struct", %"struct.pov::HField_Struct"* %8, i32 0, i32 9, !dbg !2989
  %9 = load %"struct.pov::HField_Struct"*, %"struct.pov::HField_Struct"** %HField.addr, align 8, !dbg !2990
  %Trans7 = getelementptr inbounds %"struct.pov::HField_Struct", %"struct.pov::HField_Struct"* %9, i32 0, i32 10, !dbg !2991
  %10 = load %"struct.pov::Transform_Struct"*, %"struct.pov::Transform_Struct"** %Trans7, align 8, !dbg !2991
  call void @_ZN3pov14Recompute_BBoxEPNS_19Bounding_Box_StructEPNS_16Transform_StructE(%"struct.pov::Bounding_Box_Struct"* %BBox6, %"struct.pov::Transform_Struct"* %10), !dbg !2992
  br label %if.end, !dbg !2993

if.end:                                           ; preds = %if.then, %entry
  ret void, !dbg !2994
}

; Function Attrs: noinline nounwind uwtable
define linkonce_odr dso_local void @_ZN3pov16Assign_BBox_VectERA3_fPd([3 x float]* dereferenceable(12) %d, double* %s) #2 comdat !dbg !2995 {
entry:
  %d.addr = alloca [3 x float]*, align 8
  %s.addr = alloca double*, align 8
  store [3 x float]* %d, [3 x float]** %d.addr, align 8
  call void @llvm.dbg.declare(metadata [3 x float]** %d.addr, metadata !2998, metadata !DIExpression()), !dbg !2999
  store double* %s, double** %s.addr, align 8
  call void @llvm.dbg.declare(metadata double** %s.addr, metadata !3000, metadata !DIExpression()), !dbg !3001
  %0 = load double*, double** %s.addr, align 8, !dbg !3002
  %arrayidx = getelementptr inbounds double, double* %0, i64 0, !dbg !3002
  %1 = load double, double* %arrayidx, align 8, !dbg !3002
  %conv = fptrunc double %1 to float, !dbg !3002
  %2 = load [3 x float]*, [3 x float]** %d.addr, align 8, !dbg !3003
  %arrayidx1 = getelementptr inbounds [3 x float], [3 x float]* %2, i64 0, i64 0, !dbg !3003
  store float %conv, float* %arrayidx1, align 4, !dbg !3004
  %3 = load double*, double** %s.addr, align 8, !dbg !3005
  %arrayidx2 = getelementptr inbounds double, double* %3, i64 1, !dbg !3005
  %4 = load double, double* %arrayidx2, align 8, !dbg !3005
  %conv3 = fptrunc double %4 to float, !dbg !3005
  %5 = load [3 x float]*, [3 x float]** %d.addr, align 8, !dbg !3006
  %arrayidx4 = getelementptr inbounds [3 x float], [3 x float]* %5, i64 0, i64 1, !dbg !3006
  store float %conv3, float* %arrayidx4, align 4, !dbg !3007
  %6 = load double*, double** %s.addr, align 8, !dbg !3008
  %arrayidx5 = getelementptr inbounds double, double* %6, i64 2, !dbg !3008
  %7 = load double, double* %arrayidx5, align 8, !dbg !3008
  %conv6 = fptrunc double %7 to float, !dbg !3008
  %8 = load [3 x float]*, [3 x float]** %d.addr, align 8, !dbg !3009
  %arrayidx7 = getelementptr inbounds [3 x float], [3 x float]* %8, i64 0, i64 2, !dbg !3009
  store float %conv6, float* %arrayidx7, align 4, !dbg !3010
  ret void, !dbg !3011
}

; Function Attrs: noinline nounwind uwtable
define linkonce_odr dso_local void @_ZN3pov4VSubEPfPKdS2_(float* %a, double* %b, double* %c) #2 comdat !dbg !3012 {
entry:
  %a.addr = alloca float*, align 8
  %b.addr = alloca double*, align 8
  %c.addr = alloca double*, align 8
  store float* %a, float** %a.addr, align 8
  call void @llvm.dbg.declare(metadata float** %a.addr, metadata !3017, metadata !DIExpression()), !dbg !3018
  store double* %b, double** %b.addr, align 8
  call void @llvm.dbg.declare(metadata double** %b.addr, metadata !3019, metadata !DIExpression()), !dbg !3020
  store double* %c, double** %c.addr, align 8
  call void @llvm.dbg.declare(metadata double** %c.addr, metadata !3021, metadata !DIExpression()), !dbg !3022
  %0 = load double*, double** %b.addr, align 8, !dbg !3023
  %arrayidx = getelementptr inbounds double, double* %0, i64 0, !dbg !3023
  %1 = load double, double* %arrayidx, align 8, !dbg !3023
  %2 = load double*, double** %c.addr, align 8, !dbg !3024
  %arrayidx1 = getelementptr inbounds double, double* %2, i64 0, !dbg !3024
  %3 = load double, double* %arrayidx1, align 8, !dbg !3024
  %sub = fsub double %1, %3, !dbg !3025
  %conv = fptrunc double %sub to float, !dbg !3023
  %4 = load float*, float** %a.addr, align 8, !dbg !3026
  %arrayidx2 = getelementptr inbounds float, float* %4, i64 0, !dbg !3026
  store float %conv, float* %arrayidx2, align 4, !dbg !3027
  %5 = load double*, double** %b.addr, align 8, !dbg !3028
  %arrayidx3 = getelementptr inbounds double, double* %5, i64 1, !dbg !3028
  %6 = load double, double* %arrayidx3, align 8, !dbg !3028
  %7 = load double*, double** %c.addr, align 8, !dbg !3029
  %arrayidx4 = getelementptr inbounds double, double* %7, i64 1, !dbg !3029
  %8 = load double, double* %arrayidx4, align 8, !dbg !3029
  %sub5 = fsub double %6, %8, !dbg !3030
  %conv6 = fptrunc double %sub5 to float, !dbg !3028
  %9 = load float*, float** %a.addr, align 8, !dbg !3031
  %arrayidx7 = getelementptr inbounds float, float* %9, i64 1, !dbg !3031
  store float %conv6, float* %arrayidx7, align 4, !dbg !3032
  %10 = load double*, double** %b.addr, align 8, !dbg !3033
  %arrayidx8 = getelementptr inbounds double, double* %10, i64 2, !dbg !3033
  %11 = load double, double* %arrayidx8, align 8, !dbg !3033
  %12 = load double*, double** %c.addr, align 8, !dbg !3034
  %arrayidx9 = getelementptr inbounds double, double* %12, i64 2, !dbg !3034
  %13 = load double, double* %arrayidx9, align 8, !dbg !3034
  %sub10 = fsub double %11, %13, !dbg !3035
  %conv11 = fptrunc double %sub10 to float, !dbg !3033
  %14 = load float*, float** %a.addr, align 8, !dbg !3036
  %arrayidx12 = getelementptr inbounds float, float* %14, i64 2, !dbg !3036
  store float %conv11, float* %arrayidx12, align 4, !dbg !3037
  ret void, !dbg !3038
}

declare dso_local void @_ZN3pov14Recompute_BBoxEPNS_19Bounding_Box_StructEPNS_16Transform_StructE(%"struct.pov::Bounding_Box_Struct"*, %"struct.pov::Transform_Struct"*) #1

; Function Attrs: noinline nounwind uwtable
define linkonce_odr dso_local void @_ZN3pov16Increase_CounterERx(i64* dereferenceable(8) %x) #2 comdat !dbg !3039 {
entry:
  %x.addr = alloca i64*, align 8
  store i64* %x, i64** %x.addr, align 8
  call void @llvm.dbg.declare(metadata i64** %x.addr, metadata !3044, metadata !DIExpression()), !dbg !3045
  %0 = load i64*, i64** %x.addr, align 8, !dbg !3046
  %1 = load i64, i64* %0, align 8, !dbg !3047
  %inc = add nsw i64 %1, 1, !dbg !3047
  store i64 %inc, i64* %0, align 8, !dbg !3047
  ret void, !dbg !3048
}

declare dso_local void @_ZN3pov14MInvTransPointEPdS0_PNS_16Transform_StructE(double*, double*, %"struct.pov::Transform_Struct"*) #1

declare dso_local void @_ZN3pov18MInvTransDirectionEPdS0_PNS_16Transform_StructE(double*, double*, %"struct.pov::Transform_Struct"*) #1

declare dso_local i32 @_ZN3pov13Intersect_BoxEPNS_10Ray_StructEPNS_16Transform_StructEPdS4_S4_S4_PiS5_(%"struct.pov::Ray_Struct"*, %"struct.pov::Transform_Struct"*, double*, double*, double*, double*, i32*, i32*) #1

; Function Attrs: noinline nounwind uwtable
define linkonce_odr dso_local void @_ZN3pov12VEvaluateRayEPdPKddS2_(double* %IPoint, double* %Initial, double %depth, double* %Direction) #2 comdat !dbg !3049 {
entry:
  %IPoint.addr = alloca double*, align 8
  %Initial.addr = alloca double*, align 8
  %depth.addr = alloca double, align 8
  %Direction.addr = alloca double*, align 8
  store double* %IPoint, double** %IPoint.addr, align 8
  call void @llvm.dbg.declare(metadata double** %IPoint.addr, metadata !3052, metadata !DIExpression()), !dbg !3053
