; ModuleID = 'frontend/messageoutput.cpp'
source_filename = "frontend/messageoutput.cpp"
target datalayout = "e-m:e-p270:32:32-p271:32:32-p272:64:64-i64:64-f80:128-n8:16:32:64-S128"
target triple = "x86_64-unknown-linux-gnu"

%"class.pov_frontend::MessageOutput" = type { %class.POVMS_MessageReceiver, [8 x %"class.pov_base::TextStreamBuffer"*], [8 x i8*], [8 x i8], i32, i8*, [80 x i8] }
%class.POVMS_MessageReceiver = type { i32 (...)**, i8*, %"struct.POVMS_MessageReceiver::HandlerNode"* }
%"struct.POVMS_MessageReceiver::HandlerNode" = type { %"struct.POVMS_MessageReceiver::HandlerNode"*, %"struct.POVMS_MessageReceiver::HandlerNode"*, i32, i32, %"class.POVMS_MessageReceiver::HandlerOO"*, %"class.POVMS_MessageReceiver::Handler"* }
%"class.POVMS_MessageReceiver::HandlerOO" = type { i32 (...)** }
%"class.POVMS_MessageReceiver::Handler" = type { i32 (...)** }
%"class.pov_base::TextStreamBuffer" = type { i32 (...)**, i8*, i32, i32, i32, i32 }
%"class.POVMS_MessageReceiver::MemberHandler" = type { %"class.POVMS_MessageReceiver::Handler", { i64, i64 }, %"class.pov_frontend::MessageOutput"* }
%struct.POVMSData = type { i32, i32, %union.anon }
%union.anon = type { i8* }
%struct.__va_list_tag = type { i32, i32, i8*, i8* }

$_ZN21POVMS_MessageReceiver12InstallFrontIN12pov_frontend13MessageOutputEEEvjjPT_NS_13MemberHandlerIS3_E16MemberHandlerPtrE = comdat any

$_ZN21POVMS_MessageReceiver11InstallBackIN12pov_frontend13MessageOutputEEEvjjPT_NS_13MemberHandlerIS3_E16MemberHandlerPtrE = comdat any

$_ZSt3maxIiERKT_S2_S2_ = comdat any

$_ZSt3minIiERKT_S2_S2_ = comdat any

$_ZN21POVMS_MessageReceiver13MemberHandlerIN12pov_frontend13MessageOutputEEC2EPS2_MS2_FvP9POVMSDataS6_iE = comdat any

$_ZN21POVMS_MessageReceiver7HandlerC2Ev = comdat any

$_ZN21POVMS_MessageReceiver13MemberHandlerIN12pov_frontend13MessageOutputEE4CallEP9POVMSDataS5_i = comdat any

$_ZN21POVMS_MessageReceiver13MemberHandlerIN12pov_frontend13MessageOutputEED2Ev = comdat any

$_ZN21POVMS_MessageReceiver13MemberHandlerIN12pov_frontend13MessageOutputEED0Ev = comdat any

$_ZN21POVMS_MessageReceiver7HandlerD2Ev = comdat any

$_ZN21POVMS_MessageReceiver7HandlerD0Ev = comdat any

$_ZTVN21POVMS_MessageReceiver13MemberHandlerIN12pov_frontend13MessageOutputEEE = comdat any

$_ZTSN21POVMS_MessageReceiver13MemberHandlerIN12pov_frontend13MessageOutputEEE = comdat any

$_ZTSN21POVMS_MessageReceiver7HandlerE = comdat any

$_ZTIN21POVMS_MessageReceiver7HandlerE = comdat any

$_ZTIN21POVMS_MessageReceiver13MemberHandlerIN12pov_frontend13MessageOutputEEE = comdat any

$_ZTVN21POVMS_MessageReceiver7HandlerE = comdat any

@_ZTVN12pov_frontend13MessageOutputE = dso_local unnamed_addr constant { [6 x i8*] } { [6 x i8*] [i8* null, i8* bitcast ({ i8*, i8*, i8* }* @_ZTIN12pov_frontend13MessageOutputE to i8*), i8* bitcast (void (%"class.pov_frontend::MessageOutput"*)* @_ZN12pov_frontend13MessageOutputD1Ev to i8*), i8* bitcast (void (%"class.pov_frontend::MessageOutput"*)* @_ZN12pov_frontend13MessageOutputD0Ev to i8*), i8* bitcast (void ()* @__cxa_pure_virtual to i8*), i8* bitcast (void ()* @__cxa_pure_virtual to i8*)] }, align 8
@.str = private unnamed_addr constant [4 x i8] c"%s\0A\00", align 1
@.str.1 = private unnamed_addr constant [2 x i8] c"\0A\00", align 1
@.str.2 = private unnamed_addr constant [54 x i8] c"Primary POV-Ray 3.5/3.6 Developers: (Alphabetically)\0A\00", align 1
@.str.3 = private unnamed_addr constant [8 x i8] c"  %-18s\00", align 1
@.str.4 = private unnamed_addr constant [40 x i8] c"Contributing Authors: (Alphabetically)\0A\00", align 1
@.str.5 = private unnamed_addr constant [53 x i8] c"Other contributors are listed in the documentation.\0A\00", align 1
@.str.6 = private unnamed_addr constant [36 x i8] c"Support libraries used by POV-Ray:\0A\00", align 1
@.str.7 = private unnamed_addr constant [6 x i8] c"  %s\0A\00", align 1
@.str.8 = private unnamed_addr constant [17 x i8] c"Parsing Options\0A\00", align 1
@.str.9 = private unnamed_addr constant [48 x i8] c"  Input file: %s (compatible to version %1.2f)\0A\00", align 1
@.str.10 = private unnamed_addr constant [51 x i8] c"  Remove bounds.......%s\0A  Split unions........%s\0A\00", align 1
@.str.11 = private unnamed_addr constant [18 x i8] c"  Library paths:\0A\00", align 1
@.str.12 = private unnamed_addr constant [8 x i8] c"    %s\0A\00", align 1
@.str.13 = private unnamed_addr constant [16 x i8] c"Output Options\0A\00", align 1
@.str.14 = private unnamed_addr constant [64 x i8] c"  Image resolution %d by %d (rows %d to %d, columns %d to %d).\0A\00", align 1
@.str.15 = private unnamed_addr constant [1 x i8] zeroinitializer, align 1
@.str.16 = private unnamed_addr constant [12 x i8] c" with alpha\00", align 1
@.str.17 = private unnamed_addr constant [10 x i8] c"RLE Targa\00", align 1
@.str.18 = private unnamed_addr constant [4 x i8] c"PNG\00", align 1
@.str.19 = private unnamed_addr constant [5 x i8] c"JPEG\00", align 1
@.str.20 = private unnamed_addr constant [4 x i8] c"PPM\00", align 1
@.str.21 = private unnamed_addr constant [16 x i8] c"(system format)\00", align 1
@.str.22 = private unnamed_addr constant [6 x i8] c"Targa\00", align 1
@.str.23 = private unnamed_addr constant [7 x i8] c"(none)\00", align 1
@.str.24 = private unnamed_addr constant [46 x i8] c"  Output file: %s, %d bpp, quality %d%s%s %s\0A\00", align 1
@.str.25 = private unnamed_addr constant [2 x i8] c"%\00", align 1
@.str.26 = private unnamed_addr constant [32 x i8] c"  Output file: %s, %d bpp%s %s\0A\00", align 1
@.str.27 = private unnamed_addr constant [40 x i8] c"  Graphic display......On  (gamma: %g)\0A\00", align 1
@.str.28 = private unnamed_addr constant [28 x i8] c"  Graphic display......Off\0A\00", align 1
@.str.29 = private unnamed_addr constant [51 x i8] c"  Mosaic preview.......On  (pixel sizes %d to %d)\0A\00", align 1
@.str.30 = private unnamed_addr constant [28 x i8] c"  Mosaic preview.......Off\0A\00", align 1
@.str.31 = private unnamed_addr constant [4 x i8] c"CSV\00", align 1
@.str.32 = private unnamed_addr constant [4 x i8] c"TGA\00", align 1
@.str.33 = private unnamed_addr constant [61 x i8] c"  CPU usage histogram..On  (name: %s type: %s, grid: %dx%d)\0A\00", align 1
@.str.34 = private unnamed_addr constant [28 x i8] c"  CPU usage histogram..Off\0A\00", align 1
@.str.35 = private unnamed_addr constant [26 x i8] c"  Continued trace.....%s\0A\00", align 1
@.str.36 = private unnamed_addr constant [17 x i8] c"Tracing Options\0A\00", align 1
@.str.37 = private unnamed_addr constant [16 x i8] c"  Quality: %2d\0A\00", align 1
@.str.38 = private unnamed_addr constant [52 x i8] c"  Bounding boxes.......On   Bounding threshold: %d\0A\00", align 1
@.str.39 = private unnamed_addr constant [28 x i8] c"  Bounding boxes.......Off\0A\00", align 1
@.str.40 = private unnamed_addr constant [26 x i8] c"  Light Buffer........%s\0A\00", align 1
@.str.41 = private unnamed_addr constant [27 x i8] c"  Vista Buffer........%-3s\00", align 1
@.str.42 = private unnamed_addr constant [25 x i8] c"  Draw Vista Buffer...%s\00", align 1
@.str.43 = private unnamed_addr constant [27 x i8] c"  Antialiasing.........On\0A\00", align 1
@.str.44 = private unnamed_addr constant [75 x i8] c"  AA Options: (Method %d, Threshold %.3f, Depth %d, Jitter %.2f, Clipped)\0A\00", align 1
@.str.45 = private unnamed_addr constant [77 x i8] c"  AA Options: (Method %d, Threshold %.3f, Depth %d, Jitter %.2f, Unclipped)\0A\00", align 1
@.str.46 = private unnamed_addr constant [28 x i8] c"  Antialiasing.........Off\0A\00", align 1
@.str.47 = private unnamed_addr constant [19 x i8] c"Animation Options\0A\00", align 1
@.str.48 = private unnamed_addr constant [40 x i8] c"  Initial Frame: %8d  Final Frame: %8d\0A\00", align 1
@.str.49 = private unnamed_addr constant [44 x i8] c"  Initial Clock: %8.3f  Final Clock: %8.3f\0A\00", align 1
@.str.50 = private unnamed_addr constant [73 x i8] c"  Cyclic Animation....%s  Field render........%s  Odd lines/frames....%s\00", align 1
@.str.51 = private unnamed_addr constant [38 x i8] c"  Clock value: %8.3f  (Animation off)\00", align 1
@__const._ZN12pov_frontend13MessageOutput13RenderStartedEP9POVMSDataS2_i.streamTypeUtilData = private unnamed_addr constant [8 x i32] [i32 707406378, i32 707406378, i32 1145458273, i32 1179012705, i32 1380339297, i32 1397116513, i32 1464225377, i32 1095126625], align 16
@.str.52 = private unnamed_addr constant [21 x i8] c"Redirecting Options\0A\00", align 1
@.str.53 = private unnamed_addr constant [36 x i8] c"  All Streams to console.........%s\00", align 1
@.str.54 = private unnamed_addr constant [15 x i8] c"  and file %s\0A\00", align 1
@.str.55 = private unnamed_addr constant [36 x i8] c"  Debug Stream to console........%s\00", align 1
@.str.56 = private unnamed_addr constant [36 x i8] c"  Fatal Stream to console........%s\00", align 1
@.str.57 = private unnamed_addr constant [36 x i8] c"  Render Stream to console.......%s\00", align 1
@.str.58 = private unnamed_addr constant [36 x i8] c"  Statistics Stream to console...%s\00", align 1
@.str.59 = private unnamed_addr constant [36 x i8] c"  Warning Stream to console......%s\00", align 1
@.str.60 = private unnamed_addr constant [24 x i8] c"Frame Processing Times\0A\00", align 1
@.str.61 = private unnamed_addr constant [63 x i8] c"  Parse Time:  %3d hours %2d minutes %2d seconds (%d seconds)\0A\00", align 1
@.str.62 = private unnamed_addr constant [63 x i8] c"  Photon Time: %3d hours %2d minutes %2d seconds (%d seconds)\0A\00", align 1
@.str.63 = private unnamed_addr constant [63 x i8] c"  Render Time: %3d hours %2d minutes %2d seconds (%d seconds)\0A\00", align 1
@.str.64 = private unnamed_addr constant [63 x i8] c"  Total Time:  %3d hours %2d minutes %2d seconds (%d seconds)\0A\00", align 1
@_ZTIi = external dso_local constant i8*
@.str.65 = private unnamed_addr constant [18 x i8] c"Scene Statistics\0A\00", align 1
@.str.66 = private unnamed_addr constant [26 x i8] c"  Finite objects:   %10d\0A\00", align 1
@.str.67 = private unnamed_addr constant [26 x i8] c"  Infinite objects: %10d\0A\00", align 1
@.str.68 = private unnamed_addr constant [26 x i8] c"  Light sources:    %10d\0A\00", align 1
@.str.69 = private unnamed_addr constant [26 x i8] c"  Total:            %10d\0A\00", align 1
@.str.70 = private unnamed_addr constant [44 x i8] c"Render Statistics (Partial Image Rendered)\0A\00", align 1
@.str.71 = private unnamed_addr constant [19 x i8] c"Render Statistics\0A\00", align 1
@.str.72 = private unnamed_addr constant [26 x i8] c"Image Resolution %d x %d\0A\00", align 1
@.str.73 = private unnamed_addr constant [78 x i8] c"----------------------------------------------------------------------------\0A\00", align 1
@.str.74 = private unnamed_addr constant [53 x i8] c"Pixels:  %15.0f   Samples: %15.0f   Smpls/Pxl: %.2f\0A\00", align 1
@.str.75 = private unnamed_addr constant [50 x i8] c"Pixels:  %15.0f   Samples: %15.0f   Smpls/Pxl: -\0A\00", align 1
@.str.76 = private unnamed_addr constant [54 x i8] c"Rays:    %15.0f   Saved:   %15.0f   Max Level: %d/%d\0A\00", align 1
@.str.77 = private unnamed_addr constant [68 x i8] c"Ray->Shape Intersection          Tests       Succeeded  Percentage\0A\00", align 1
@.str.78 = private unnamed_addr constant [30 x i8] c"%-22s  %14.0f  %14.0f  %8.2f\0A\00", align 1
@.str.79 = private unnamed_addr constant [28 x i8] c"Isosurface roots:   %15.0f\0A\00", align 1
@.str.80 = private unnamed_addr constant [28 x i8] c"Function VM calls:  %15.0f\0A\00", align 1
@.str.81 = private unnamed_addr constant [54 x i8] c"Roots tested:       %15.0f   eliminated:      %15.0f\0A\00", align 1
@.str.82 = private unnamed_addr constant [54 x i8] c"Calls to Noise:     %15.0f   Calls to DNoise: %15.0f\0A\00", align 1
@.str.83 = private unnamed_addr constant [62 x i8] c"Media Intervals:    %15.0f   Media Samples:   %15.0f (%4.2f)\0A\00", align 1
@.str.84 = private unnamed_addr constant [54 x i8] c"Shadow Ray Tests:   %15.0f   Succeeded:       %15.0f\0A\00", align 1
@.str.85 = private unnamed_addr constant [54 x i8] c"Reflected Rays:     %15.0f   Total Internal:  %15.0f\0A\00", align 1
@.str.86 = private unnamed_addr constant [28 x i8] c"Reflected Rays:     %15.0f\0A\00", align 1
@.str.87 = private unnamed_addr constant [28 x i8] c"Refracted Rays:     %15.0f\0A\00", align 1
@.str.88 = private unnamed_addr constant [28 x i8] c"Transmitted Rays:   %15.0f\0A\00", align 1
@.str.89 = private unnamed_addr constant [28 x i8] c"I-Stack overflows:  %15.0f\0A\00", align 1
@.str.90 = private unnamed_addr constant [47 x i8] c"Radiosity samples calculated:  %15d (%.2f %%)\0A\00", align 1
@.str.91 = private unnamed_addr constant [37 x i8] c"Radiosity samples reused:      %15d\0A\00", align 1
@.str.92 = private unnamed_addr constant [32 x i8] c"Number of photons shot: %15.0f\0A\00", align 1
@.str.93 = private unnamed_addr constant [32 x i8] c"Surface photons stored: %15.0f\0A\00", align 1
@.str.94 = private unnamed_addr constant [32 x i8] c"Media photons stored:   %15.0f\0A\00", align 1
@.str.95 = private unnamed_addr constant [32 x i8] c"Global photons stored:  %15.0f\0A\00", align 1
@.str.96 = private unnamed_addr constant [32 x i8] c"Priority queue insert:  %15.0f\0A\00", align 1
@.str.97 = private unnamed_addr constant [32 x i8] c"Priority queue remove:  %15.0f\0A\00", align 1
@.str.98 = private unnamed_addr constant [32 x i8] c"Gather function called: %15.0f\0A\00", align 1
@.str.99 = private unnamed_addr constant [32 x i8] c"Gather radius expanded: %15.0f\0A\00", align 1
@.str.100 = private unnamed_addr constant [34 x i8] c"Smallest Alloc:     %15.0f bytes\0A\00", align 1
@.str.101 = private unnamed_addr constant [34 x i8] c"Largest  Alloc:     %15.0f bytes\0A\00", align 1
@.str.102 = private unnamed_addr constant [54 x i8] c"Total Alloc calls:  %15.0f         Free calls:%15.0f\0A\00", align 1
@.str.103 = private unnamed_addr constant [34 x i8] c"Peak memory used:   %15.0f bytes\0A\00", align 1
@.str.104 = private unnamed_addr constant [18 x i8] c"\0A%3d:%02d:%02d %s\00", align 1
@.str.105 = private unnamed_addr constant [18 x i8] c"\0D%3d:%02d:%02d %s\00", align 1
@.str.106 = private unnamed_addr constant [10 x i8] c" %d of %d\00", align 1
@.str.107 = private unnamed_addr constant [13 x i8] c" %ldK tokens\00", align 1
@.str.108 = private unnamed_addr constant [15 x i8] c" line %d of %d\00", align 1
@.str.109 = private unnamed_addr constant [10 x i8] c" at %dx%d\00", align 1
@.str.110 = private unnamed_addr constant [18 x i8] c", %d supersamples\00", align 1
@.str.111 = private unnamed_addr constant [18 x i8] c", %d rad. samples\00", align 1
@.str.112 = private unnamed_addr constant [12 x i8] c" Photons %d\00", align 1
@.str.113 = private unnamed_addr constant [18 x i8] c" (sampling %dx%d)\00", align 1
@.str.114 = private unnamed_addr constant [20 x i8] c"File: %s  Line: %d\0A\00", align 1
@.str.115 = private unnamed_addr constant [26 x i8] c"File Context (%d lines):\0A\00", align 1
@.str.116 = private unnamed_addr constant [5 x i8] c".On \00", align 1
@.str.117 = private unnamed_addr constant [5 x i8] c".Off\00", align 1
@_ZTVN10__cxxabiv120__si_class_type_infoE = external dso_local global i8*
@_ZTSN12pov_frontend13MessageOutputE = dso_local constant [32 x i8] c"N12pov_frontend13MessageOutputE\00", align 1
@_ZTI21POVMS_MessageReceiver = external dso_local constant i8*
@_ZTIN12pov_frontend13MessageOutputE = dso_local constant { i8*, i8*, i8* } { i8* bitcast (i8** getelementptr inbounds (i8*, i8** @_ZTVN10__cxxabiv120__si_class_type_infoE, i64 2) to i8*), i8* getelementptr inbounds ([32 x i8], [32 x i8]* @_ZTSN12pov_frontend13MessageOutputE, i32 0, i32 0), i8* bitcast (i8** @_ZTI21POVMS_MessageReceiver to i8*) }, align 8
@_ZTVN21POVMS_MessageReceiver13MemberHandlerIN12pov_frontend13MessageOutputEEE = linkonce_odr dso_local unnamed_addr constant { [5 x i8*] } { [5 x i8*] [i8* null, i8* bitcast ({ i8*, i8*, i8* }* @_ZTIN21POVMS_MessageReceiver13MemberHandlerIN12pov_frontend13MessageOutputEEE to i8*), i8* bitcast (void (%"class.POVMS_MessageReceiver::MemberHandler"*, %struct.POVMSData*, %struct.POVMSData*, i32)* @_ZN21POVMS_MessageReceiver13MemberHandlerIN12pov_frontend13MessageOutputEE4CallEP9POVMSDataS5_i to i8*), i8* bitcast (void (%"class.POVMS_MessageReceiver::MemberHandler"*)* @_ZN21POVMS_MessageReceiver13MemberHandlerIN12pov_frontend13MessageOutputEED2Ev to i8*), i8* bitcast (void (%"class.POVMS_MessageReceiver::MemberHandler"*)* @_ZN21POVMS_MessageReceiver13MemberHandlerIN12pov_frontend13MessageOutputEED0Ev to i8*)] }, comdat, align 8
@_ZTSN21POVMS_MessageReceiver13MemberHandlerIN12pov_frontend13MessageOutputEEE = linkonce_odr dso_local constant [74 x i8] c"N21POVMS_MessageReceiver13MemberHandlerIN12pov_frontend13MessageOutputEEE\00", comdat, align 1
@_ZTVN10__cxxabiv117__class_type_infoE = external dso_local global i8*
@_ZTSN21POVMS_MessageReceiver7HandlerE = linkonce_odr dso_local constant [34 x i8] c"N21POVMS_MessageReceiver7HandlerE\00", comdat, align 1
@_ZTIN21POVMS_MessageReceiver7HandlerE = linkonce_odr dso_local constant { i8*, i8* } { i8* bitcast (i8** getelementptr inbounds (i8*, i8** @_ZTVN10__cxxabiv117__class_type_infoE, i64 2) to i8*), i8* getelementptr inbounds ([34 x i8], [34 x i8]* @_ZTSN21POVMS_MessageReceiver7HandlerE, i32 0, i32 0) }, comdat, align 8
@_ZTIN21POVMS_MessageReceiver13MemberHandlerIN12pov_frontend13MessageOutputEEE = linkonce_odr dso_local constant { i8*, i8*, i8* } { i8* bitcast (i8** getelementptr inbounds (i8*, i8** @_ZTVN10__cxxabiv120__si_class_type_infoE, i64 2) to i8*), i8* getelementptr inbounds ([74 x i8], [74 x i8]* @_ZTSN21POVMS_MessageReceiver13MemberHandlerIN12pov_frontend13MessageOutputEEE, i32 0, i32 0), i8* bitcast ({ i8*, i8* }* @_ZTIN21POVMS_MessageReceiver7HandlerE to i8*) }, comdat, align 8
@_ZTVN21POVMS_MessageReceiver7HandlerE = linkonce_odr dso_local unnamed_addr constant { [5 x i8*] } { [5 x i8*] [i8* null, i8* bitcast ({ i8*, i8* }* @_ZTIN21POVMS_MessageReceiver7HandlerE to i8*), i8* bitcast (void ()* @__cxa_pure_virtual to i8*), i8* bitcast (void (%"class.POVMS_MessageReceiver::Handler"*)* @_ZN21POVMS_MessageReceiver7HandlerD2Ev to i8*), i8* bitcast (void (%"class.POVMS_MessageReceiver::Handler"*)* @_ZN21POVMS_MessageReceiver7HandlerD0Ev to i8*)] }, comdat, align 8

@_ZN12pov_frontend13MessageOutputD1Ev = dso_local unnamed_addr alias void (%"class.pov_frontend::MessageOutput"*), void (%"class.pov_frontend::MessageOutput"*)* @_ZN12pov_frontend13MessageOutputD2Ev

; Function Attrs: noinline uwtable
define dso_local void @_ZN12pov_frontend13MessageOutputC2EPv(%"class.pov_frontend::MessageOutput"* %this, i8* %context) unnamed_addr #0 align 2 personality i8* bitcast (i32 (...)* @__gxx_personality_v0 to i8*) !dbg !962 {
entry:
  %this.addr = alloca %"class.pov_frontend::MessageOutput"*, align 8
  %context.addr = alloca i8*, align 8
  %exn.slot = alloca i8*
  %ehselector.slot = alloca i32
  %i = alloca i32, align 4
  %coerce = alloca { i64, i64 }, align 8
  %coerce8 = alloca { i64, i64 }, align 8
  %coerce10 = alloca { i64, i64 }, align 8
  %coerce12 = alloca { i64, i64 }, align 8
  %coerce14 = alloca { i64, i64 }, align 8
  %coerce16 = alloca { i64, i64 }, align 8
  %coerce18 = alloca { i64, i64 }, align 8
  %coerce20 = alloca { i64, i64 }, align 8
  %coerce22 = alloca { i64, i64 }, align 8
  %coerce24 = alloca { i64, i64 }, align 8
  %coerce26 = alloca { i64, i64 }, align 8
  %coerce28 = alloca { i64, i64 }, align 8
  store %"class.pov_frontend::MessageOutput"* %this, %"class.pov_frontend::MessageOutput"** %this.addr, align 8
  call void @llvm.dbg.declare(metadata %"class.pov_frontend::MessageOutput"** %this.addr, metadata !964, metadata !DIExpression()), !dbg !966
  store i8* %context, i8** %context.addr, align 8
  call void @llvm.dbg.declare(metadata i8** %context.addr, metadata !967, metadata !DIExpression()), !dbg !968
  %this1 = load %"class.pov_frontend::MessageOutput"*, %"class.pov_frontend::MessageOutput"** %this.addr, align 8
  %0 = bitcast %"class.pov_frontend::MessageOutput"* %this1 to %class.POVMS_MessageReceiver*, !dbg !969
  %1 = load i8*, i8** %context.addr, align 8, !dbg !970
  call void @_ZN21POVMS_MessageReceiverC2EPv(%class.POVMS_MessageReceiver* %0, i8* %1), !dbg !971
  %2 = bitcast %"class.pov_frontend::MessageOutput"* %this1 to i32 (...)***, !dbg !969
  store i32 (...)** bitcast (i8** getelementptr inbounds ({ [6 x i8*] }, { [6 x i8*] }* @_ZTVN12pov_frontend13MessageOutputE, i32 0, inrange i32 0, i32 2) to i32 (...)**), i32 (...)*** %2, align 8, !dbg !969
  %output_string_buffer_size = getelementptr inbounds %"class.pov_frontend::MessageOutput", %"class.pov_frontend::MessageOutput"* %this1, i32 0, i32 4, !dbg !972
  store i32 8192, i32* %output_string_buffer_size, align 8, !dbg !972
  %output_string_buffer_size2 = getelementptr inbounds %"class.pov_frontend::MessageOutput", %"class.pov_frontend::MessageOutput"* %this1, i32 0, i32 4, !dbg !973
  %3 = load i32, i32* %output_string_buffer_size2, align 8, !dbg !973
  %conv = zext i32 %3 to i64, !dbg !973
  %call = invoke i8* @_Znam(i64 %conv) #11
          to label %invoke.cont unwind label %lpad, !dbg !975

invoke.cont:                                      ; preds = %entry
  %output_string_buffer = getelementptr inbounds %"class.pov_frontend::MessageOutput", %"class.pov_frontend::MessageOutput"* %this1, i32 0, i32 5, !dbg !976
  store i8* %call, i8** %output_string_buffer, align 8, !dbg !977
  call void @llvm.dbg.declare(metadata i32* %i, metadata !978, metadata !DIExpression()), !dbg !980
  store i32 0, i32* %i, align 4, !dbg !980
  br label %for.cond, !dbg !981

for.cond:                                         ; preds = %for.inc, %invoke.cont
  %4 = load i32, i32* %i, align 4, !dbg !982
  %cmp = icmp slt i32 %4, 8, !dbg !984
  br i1 %cmp, label %for.body, label %for.end, !dbg !985

for.body:                                         ; preds = %for.cond
  %streams = getelementptr inbounds %"class.pov_frontend::MessageOutput", %"class.pov_frontend::MessageOutput"* %this1, i32 0, i32 1, !dbg !986
  %5 = load i32, i32* %i, align 4, !dbg !988
  %idxprom = sext i32 %5 to i64, !dbg !986
  %arrayidx = getelementptr inbounds [8 x %"class.pov_base::TextStreamBuffer"*], [8 x %"class.pov_base::TextStreamBuffer"*]* %streams, i64 0, i64 %idxprom, !dbg !986
  store %"class.pov_base::TextStreamBuffer"* null, %"class.pov_base::TextStreamBuffer"** %arrayidx, align 8, !dbg !989
  %streamnames = getelementptr inbounds %"class.pov_frontend::MessageOutput", %"class.pov_frontend::MessageOutput"* %this1, i32 0, i32 2, !dbg !990
  %6 = load i32, i32* %i, align 4, !dbg !991
  %idxprom3 = sext i32 %6 to i64, !dbg !990
  %arrayidx4 = getelementptr inbounds [8 x i8*], [8 x i8*]* %streamnames, i64 0, i64 %idxprom3, !dbg !990
  store i8* null, i8** %arrayidx4, align 8, !dbg !992
  %consoleoutput = getelementptr inbounds %"class.pov_frontend::MessageOutput", %"class.pov_frontend::MessageOutput"* %this1, i32 0, i32 3, !dbg !993
  %7 = load i32, i32* %i, align 4, !dbg !994
  %idxprom5 = sext i32 %7 to i64, !dbg !993
  %arrayidx6 = getelementptr inbounds [8 x i8], [8 x i8]* %consoleoutput, i64 0, i64 %idxprom5, !dbg !993
  store i8 1, i8* %arrayidx6, align 1, !dbg !995
  br label %for.inc, !dbg !996

for.inc:                                          ; preds = %for.body
  %8 = load i32, i32* %i, align 4, !dbg !997
  %inc = add nsw i32 %8, 1, !dbg !997
  store i32 %inc, i32* %i, align 4, !dbg !997
  br label %for.cond, !dbg !998, !llvm.loop !999

lpad:                                             ; preds = %invoke.cont27, %invoke.cont25, %invoke.cont23, %invoke.cont21, %invoke.cont19, %invoke.cont17, %invoke.cont15, %invoke.cont13, %invoke.cont11, %invoke.cont9, %invoke.cont7, %for.end, %entry
  %9 = landingpad { i8*, i32 }
          cleanup, !dbg !1001
  %10 = extractvalue { i8*, i32 } %9, 0, !dbg !1001
  store i8* %10, i8** %exn.slot, align 8, !dbg !1001
  %11 = extractvalue { i8*, i32 } %9, 1, !dbg !1001
  store i32 %11, i32* %ehselector.slot, align 4, !dbg !1001
  %12 = bitcast %"class.pov_frontend::MessageOutput"* %this1 to %class.POVMS_MessageReceiver*, !dbg !1001
  call void @_ZN21POVMS_MessageReceiverD2Ev(%class.POVMS_MessageReceiver* %12) #8, !dbg !1001
  br label %eh.resume, !dbg !1001

for.end:                                          ; preds = %for.cond
  %13 = bitcast %"class.pov_frontend::MessageOutput"* %this1 to %class.POVMS_MessageReceiver*, !dbg !1002
  store { i64, i64 } { i64 ptrtoint (void (%"class.pov_frontend::MessageOutput"*, %struct.POVMSData*, %struct.POVMSData*, i32)* @_ZN12pov_frontend13MessageOutput8InitInfoEP9POVMSDataS2_i to i64), i64 0 }, { i64, i64 }* %coerce, align 8, !dbg !1002
  %14 = getelementptr inbounds { i64, i64 }, { i64, i64 }* %coerce, i32 0, i32 0, !dbg !1002
  %15 = load i64, i64* %14, align 8, !dbg !1002
  %16 = getelementptr inbounds { i64, i64 }, { i64, i64 }* %coerce, i32 0, i32 1, !dbg !1002
  %17 = load i64, i64* %16, align 8, !dbg !1002
  invoke void @_ZN21POVMS_MessageReceiver12InstallFrontIN12pov_frontend13MessageOutputEEEvjjPT_NS_13MemberHandlerIS3_E16MemberHandlerPtrE(%class.POVMS_MessageReceiver* %13, i32 1298756451, i32 1231964526, %"class.pov_frontend::MessageOutput"* %this1, i64 %15, i64 %17)
          to label %invoke.cont7 unwind label %lpad, !dbg !1002

invoke.cont7:                                     ; preds = %for.end
  %18 = bitcast %"class.pov_frontend::MessageOutput"* %this1 to %class.POVMS_MessageReceiver*, !dbg !1003
  store { i64, i64 } { i64 ptrtoint (void (%"class.pov_frontend::MessageOutput"*, %struct.POVMSData*, %struct.POVMSData*, i32)* @_ZN12pov_frontend13MessageOutput13RenderOptionsEP9POVMSDataS2_i to i64), i64 0 }, { i64, i64 }* %coerce8, align 8, !dbg !1003
  %19 = getelementptr inbounds { i64, i64 }, { i64, i64 }* %coerce8, i32 0, i32 0, !dbg !1003
  %20 = load i64, i64* %19, align 8, !dbg !1003
  %21 = getelementptr inbounds { i64, i64 }, { i64, i64 }* %coerce8, i32 0, i32 1, !dbg !1003
  %22 = load i64, i64* %21, align 8, !dbg !1003
  invoke void @_ZN21POVMS_MessageReceiver12InstallFrontIN12pov_frontend13MessageOutputEEEvjjPT_NS_13MemberHandlerIS3_E16MemberHandlerPtrE(%class.POVMS_MessageReceiver* %18, i32 1333097584, i32 1380937844, %"class.pov_frontend::MessageOutput"* %this1, i64 %20, i64 %22)
          to label %invoke.cont9 unwind label %lpad, !dbg !1003

invoke.cont9:                                     ; preds = %invoke.cont7
  %23 = bitcast %"class.pov_frontend::MessageOutput"* %this1 to %class.POVMS_MessageReceiver*, !dbg !1004
  store { i64, i64 } { i64 ptrtoint (void (%"class.pov_frontend::MessageOutput"*, %struct.POVMSData*, %struct.POVMSData*, i32)* @_ZN12pov_frontend13MessageOutput13RenderStartedEP9POVMSDataS2_i to i64), i64 0 }, { i64, i64 }* %coerce10, align 8, !dbg !1004
  %24 = getelementptr inbounds { i64, i64 }, { i64, i64 }* %coerce10, i32 0, i32 0, !dbg !1004
  %25 = load i64, i64* %24, align 8, !dbg !1004
  %26 = getelementptr inbounds { i64, i64 }, { i64, i64 }* %coerce10, i32 0, i32 1, !dbg !1004
  %27 = load i64, i64* %26, align 8, !dbg !1004
  invoke void @_ZN21POVMS_MessageReceiver12InstallFrontIN12pov_frontend13MessageOutputEEEvjjPT_NS_13MemberHandlerIS3_E16MemberHandlerPtrE(%class.POVMS_MessageReceiver* %23, i32 1333097584, i32 1381135726, %"class.pov_frontend::MessageOutput"* %this1, i64 %25, i64 %27)
          to label %invoke.cont11 unwind label %lpad, !dbg !1004

invoke.cont11:                                    ; preds = %invoke.cont9
  %28 = bitcast %"class.pov_frontend::MessageOutput"* %this1 to %class.POVMS_MessageReceiver*, !dbg !1005
  store { i64, i64 } { i64 ptrtoint (void (%"class.pov_frontend::MessageOutput"*, %struct.POVMSData*, %struct.POVMSData*, i32)* @_ZN12pov_frontend13MessageOutput15FrameStatisticsEP9POVMSDataS2_i to i64), i64 0 }, { i64, i64 }* %coerce12, align 8, !dbg !1005
  %29 = getelementptr inbounds { i64, i64 }, { i64, i64 }* %coerce12, i32 0, i32 0, !dbg !1005
  %30 = load i64, i64* %29, align 8, !dbg !1005
  %31 = getelementptr inbounds { i64, i64 }, { i64, i64 }* %coerce12, i32 0, i32 1, !dbg !1005
  %32 = load i64, i64* %31, align 8, !dbg !1005
  invoke void @_ZN21POVMS_MessageReceiver12InstallFrontIN12pov_frontend13MessageOutputEEEvjjPT_NS_13MemberHandlerIS3_E16MemberHandlerPtrE(%class.POVMS_MessageReceiver* %28, i32 1333097584, i32 1179874401, %"class.pov_frontend::MessageOutput"* %this1, i64 %30, i64 %32)
          to label %invoke.cont13 unwind label %lpad, !dbg !1005

invoke.cont13:                                    ; preds = %invoke.cont11
  %33 = bitcast %"class.pov_frontend::MessageOutput"* %this1 to %class.POVMS_MessageReceiver*, !dbg !1006
  store { i64, i64 } { i64 ptrtoint (void (%"class.pov_frontend::MessageOutput"*, %struct.POVMSData*, %struct.POVMSData*, i32)* @_ZN12pov_frontend13MessageOutput15ParseStatisticsEP9POVMSDataS2_i to i64), i64 0 }, { i64, i64 }* %coerce14, align 8, !dbg !1006
  %34 = getelementptr inbounds { i64, i64 }, { i64, i64 }* %coerce14, i32 0, i32 0, !dbg !1006
  %35 = load i64, i64* %34, align 8, !dbg !1006
  %36 = getelementptr inbounds { i64, i64 }, { i64, i64 }* %coerce14, i32 0, i32 1, !dbg !1006
  %37 = load i64, i64* %36, align 8, !dbg !1006
  invoke void @_ZN21POVMS_MessageReceiver12InstallFrontIN12pov_frontend13MessageOutputEEEvjjPT_NS_13MemberHandlerIS3_E16MemberHandlerPtrE(%class.POVMS_MessageReceiver* %33, i32 1333097584, i32 1347646561, %"class.pov_frontend::MessageOutput"* %this1, i64 %35, i64 %37)
          to label %invoke.cont15 unwind label %lpad, !dbg !1006

invoke.cont15:                                    ; preds = %invoke.cont13
  %38 = bitcast %"class.pov_frontend::MessageOutput"* %this1 to %class.POVMS_MessageReceiver*, !dbg !1007
  store { i64, i64 } { i64 ptrtoint (void (%"class.pov_frontend::MessageOutput"*, %struct.POVMSData*, %struct.POVMSData*, i32)* @_ZN12pov_frontend13MessageOutput16RenderStatisticsEP9POVMSDataS2_i to i64), i64 0 }, { i64, i64 }* %coerce16, align 8, !dbg !1007
  %39 = getelementptr inbounds { i64, i64 }, { i64, i64 }* %coerce16, i32 0, i32 0, !dbg !1007
  %40 = load i64, i64* %39, align 8, !dbg !1007
  %41 = getelementptr inbounds { i64, i64 }, { i64, i64 }* %coerce16, i32 0, i32 1, !dbg !1007
  %42 = load i64, i64* %41, align 8, !dbg !1007
  invoke void @_ZN21POVMS_MessageReceiver12InstallFrontIN12pov_frontend13MessageOutputEEEvjjPT_NS_13MemberHandlerIS3_E16MemberHandlerPtrE(%class.POVMS_MessageReceiver* %38, i32 1333097584, i32 1381200993, %"class.pov_frontend::MessageOutput"* %this1, i64 %40, i64 %42)
          to label %invoke.cont17 unwind label %lpad, !dbg !1007

invoke.cont17:                                    ; preds = %invoke.cont15
  %43 = bitcast %"class.pov_frontend::MessageOutput"* %this1 to %class.POVMS_MessageReceiver*, !dbg !1008
  store { i64, i64 } { i64 ptrtoint (void (%"class.pov_frontend::MessageOutput"*, %struct.POVMSData*, %struct.POVMSData*, i32)* @_ZN12pov_frontend13MessageOutput10RenderDoneEP9POVMSDataS2_i to i64), i64 0 }, { i64, i64 }* %coerce18, align 8, !dbg !1008
  %44 = getelementptr inbounds { i64, i64 }, { i64, i64 }* %coerce18, i32 0, i32 0, !dbg !1008
  %45 = load i64, i64* %44, align 8, !dbg !1008
  %46 = getelementptr inbounds { i64, i64 }, { i64, i64 }* %coerce18, i32 0, i32 1, !dbg !1008
  %47 = load i64, i64* %46, align 8, !dbg !1008
  invoke void @_ZN21POVMS_MessageReceiver11InstallBackIN12pov_frontend13MessageOutputEEEvjjPT_NS_13MemberHandlerIS3_E16MemberHandlerPtrE(%class.POVMS_MessageReceiver* %43, i32 1333097584, i32 1380281956, %"class.pov_frontend::MessageOutput"* %this1, i64 %45, i64 %47)
          to label %invoke.cont19 unwind label %lpad, !dbg !1008

invoke.cont19:                                    ; preds = %invoke.cont17
  %48 = bitcast %"class.pov_frontend::MessageOutput"* %this1 to %class.POVMS_MessageReceiver*, !dbg !1009
  store { i64, i64 } { i64 ptrtoint (void (%"class.pov_frontend::MessageOutput"*, %struct.POVMSData*, %struct.POVMSData*, i32)* @_ZN12pov_frontend13MessageOutput8ProgressEP9POVMSDataS2_i to i64), i64 0 }, { i64, i64 }* %coerce20, align 8, !dbg !1009
  %49 = getelementptr inbounds { i64, i64 }, { i64, i64 }* %coerce20, i32 0, i32 0, !dbg !1009
  %50 = load i64, i64* %49, align 8, !dbg !1009
  %51 = getelementptr inbounds { i64, i64 }, { i64, i64 }* %coerce20, i32 0, i32 1, !dbg !1009
  %52 = load i64, i64* %51, align 8, !dbg !1009
  invoke void @_ZN21POVMS_MessageReceiver12InstallFrontIN12pov_frontend13MessageOutputEEEvjjPT_NS_13MemberHandlerIS3_E16MemberHandlerPtrE(%class.POVMS_MessageReceiver* %48, i32 1333097584, i32 1349676903, %"class.pov_frontend::MessageOutput"* %this1, i64 %50, i64 %52)
          to label %invoke.cont21 unwind label %lpad, !dbg !1009

invoke.cont21:                                    ; preds = %invoke.cont19
  %53 = bitcast %"class.pov_frontend::MessageOutput"* %this1 to %class.POVMS_MessageReceiver*, !dbg !1010
  store { i64, i64 } { i64 ptrtoint (void (%"class.pov_frontend::MessageOutput"*, %struct.POVMSData*, %struct.POVMSData*, i32)* @_ZN12pov_frontend13MessageOutput7WarningEP9POVMSDataS2_i to i64), i64 0 }, { i64, i64 }* %coerce22, align 8, !dbg !1010
  %54 = getelementptr inbounds { i64, i64 }, { i64, i64 }* %coerce22, i32 0, i32 0, !dbg !1010
  %55 = load i64, i64* %54, align 8, !dbg !1010
  %56 = getelementptr inbounds { i64, i64 }, { i64, i64 }* %coerce22, i32 0, i32 1, !dbg !1010
  %57 = load i64, i64* %56, align 8, !dbg !1010
  invoke void @_ZN21POVMS_MessageReceiver12InstallFrontIN12pov_frontend13MessageOutputEEEvjjPT_NS_13MemberHandlerIS3_E16MemberHandlerPtrE(%class.POVMS_MessageReceiver* %53, i32 1333097584, i32 1466004078, %"class.pov_frontend::MessageOutput"* %this1, i64 %55, i64 %57)
          to label %invoke.cont23 unwind label %lpad, !dbg !1010

invoke.cont23:                                    ; preds = %invoke.cont21
  %58 = bitcast %"class.pov_frontend::MessageOutput"* %this1 to %class.POVMS_MessageReceiver*, !dbg !1011
  store { i64, i64 } { i64 ptrtoint (void (%"class.pov_frontend::MessageOutput"*, %struct.POVMSData*, %struct.POVMSData*, i32)* @_ZN12pov_frontend13MessageOutput5ErrorEP9POVMSDataS2_i to i64), i64 0 }, { i64, i64 }* %coerce24, align 8, !dbg !1011
  %59 = getelementptr inbounds { i64, i64 }, { i64, i64 }* %coerce24, i32 0, i32 0, !dbg !1011
  %60 = load i64, i64* %59, align 8, !dbg !1011
  %61 = getelementptr inbounds { i64, i64 }, { i64, i64 }* %coerce24, i32 0, i32 1, !dbg !1011
  %62 = load i64, i64* %61, align 8, !dbg !1011
  invoke void @_ZN21POVMS_MessageReceiver12InstallFrontIN12pov_frontend13MessageOutputEEEvjjPT_NS_13MemberHandlerIS3_E16MemberHandlerPtrE(%class.POVMS_MessageReceiver* %58, i32 1333097584, i32 1165128279, %"class.pov_frontend::MessageOutput"* %this1, i64 %60, i64 %62)
          to label %invoke.cont25 unwind label %lpad, !dbg !1011

invoke.cont25:                                    ; preds = %invoke.cont23
  %63 = bitcast %"class.pov_frontend::MessageOutput"* %this1 to %class.POVMS_MessageReceiver*, !dbg !1012
  store { i64, i64 } { i64 ptrtoint (void (%"class.pov_frontend::MessageOutput"*, %struct.POVMSData*, %struct.POVMSData*, i32)* @_ZN12pov_frontend13MessageOutput10FatalErrorEP9POVMSDataS2_i to i64), i64 0 }, { i64, i64 }* %coerce26, align 8, !dbg !1012
  %64 = getelementptr inbounds { i64, i64 }, { i64, i64 }* %coerce26, i32 0, i32 0, !dbg !1012
  %65 = load i64, i64* %64, align 8, !dbg !1012
  %66 = getelementptr inbounds { i64, i64 }, { i64, i64 }* %coerce26, i32 0, i32 1, !dbg !1012
  %67 = load i64, i64* %66, align 8, !dbg !1012
  invoke void @_ZN21POVMS_MessageReceiver12InstallFrontIN12pov_frontend13MessageOutputEEEvjjPT_NS_13MemberHandlerIS3_E16MemberHandlerPtrE(%class.POVMS_MessageReceiver* %63, i32 1333097584, i32 1165128262, %"class.pov_frontend::MessageOutput"* %this1, i64 %65, i64 %67)
          to label %invoke.cont27 unwind label %lpad, !dbg !1012

invoke.cont27:                                    ; preds = %invoke.cont25
  %68 = bitcast %"class.pov_frontend::MessageOutput"* %this1 to %class.POVMS_MessageReceiver*, !dbg !1013
  store { i64, i64 } { i64 ptrtoint (void (%"class.pov_frontend::MessageOutput"*, %struct.POVMSData*, %struct.POVMSData*, i32)* @_ZN12pov_frontend13MessageOutput9DebugInfoEP9POVMSDataS2_i to i64), i64 0 }, { i64, i64 }* %coerce28, align 8, !dbg !1013
  %69 = getelementptr inbounds { i64, i64 }, { i64, i64 }* %coerce28, i32 0, i32 0, !dbg !1013
  %70 = load i64, i64* %69, align 8, !dbg !1013
  %71 = getelementptr inbounds { i64, i64 }, { i64, i64 }* %coerce28, i32 0, i32 1, !dbg !1013
  %72 = load i64, i64* %71, align 8, !dbg !1013
  invoke void @_ZN21POVMS_MessageReceiver12InstallFrontIN12pov_frontend13MessageOutputEEEvjjPT_NS_13MemberHandlerIS3_E16MemberHandlerPtrE(%class.POVMS_MessageReceiver* %68, i32 1333097584, i32 1147303271, %"class.pov_frontend::MessageOutput"* %this1, i64 %70, i64 %72)
          to label %invoke.cont29 unwind label %lpad, !dbg !1013

invoke.cont29:                                    ; preds = %invoke.cont27
  ret void, !dbg !1014

eh.resume:                                        ; preds = %lpad
  %exn = load i8*, i8** %exn.slot, align 8, !dbg !1001
  %sel = load i32, i32* %ehselector.slot, align 4, !dbg !1001
  %lpad.val = insertvalue { i8*, i32 } undef, i8* %exn, 0, !dbg !1001
  %lpad.val30 = insertvalue { i8*, i32 } %lpad.val, i32 %sel, 1, !dbg !1001
  resume { i8*, i32 } %lpad.val30, !dbg !1001
}

; Function Attrs: nounwind readnone speculatable willreturn
declare void @llvm.dbg.declare(metadata, metadata, metadata) #1

declare dso_local void @_ZN21POVMS_MessageReceiverC2EPv(%class.POVMS_MessageReceiver*, i8*) unnamed_addr #2

; Function Attrs: nobuiltin
declare dso_local noalias i8* @_Znam(i64) #3

declare dso_local i32 @__gxx_personality_v0(...)

; Function Attrs: noinline uwtable
define linkonce_odr dso_local void @_ZN21POVMS_MessageReceiver12InstallFrontIN12pov_frontend13MessageOutputEEEvjjPT_NS_13MemberHandlerIS3_E16MemberHandlerPtrE(%class.POVMS_MessageReceiver* %this, i32 %hclass, i32 %hid, %"class.pov_frontend::MessageOutput"* %cptr, i64 %hptr.coerce0, i64 %hptr.coerce1) #0 comdat align 2 personality i8* bitcast (i32 (...)* @__gxx_personality_v0 to i8*) !dbg !1015 {
entry:
  %hptr = alloca { i64, i64 }, align 8
  %this.addr = alloca %class.POVMS_MessageReceiver*, align 8
  %hclass.addr = alloca i32, align 4
  %hid.addr = alloca i32, align 4
  %cptr.addr = alloca %"class.pov_frontend::MessageOutput"*, align 8
  %hptr.addr = alloca { i64, i64 }, align 8
  %coerce = alloca { i64, i64 }, align 8
  %exn.slot = alloca i8*
  %ehselector.slot = alloca i32
  %0 = getelementptr inbounds { i64, i64 }, { i64, i64 }* %hptr, i32 0, i32 0
  store i64 %hptr.coerce0, i64* %0, align 8
  %1 = getelementptr inbounds { i64, i64 }, { i64, i64 }* %hptr, i32 0, i32 1
  store i64 %hptr.coerce1, i64* %1, align 8
  %hptr1 = load { i64, i64 }, { i64, i64 }* %hptr, align 8
  store %class.POVMS_MessageReceiver* %this, %class.POVMS_MessageReceiver** %this.addr, align 8
  call void @llvm.dbg.declare(metadata %class.POVMS_MessageReceiver** %this.addr, metadata !1051, metadata !DIExpression()), !dbg !1053
  store i32 %hclass, i32* %hclass.addr, align 4
  call void @llvm.dbg.declare(metadata i32* %hclass.addr, metadata !1054, metadata !DIExpression()), !dbg !1055
  store i32 %hid, i32* %hid.addr, align 4
  call void @llvm.dbg.declare(metadata i32* %hid.addr, metadata !1056, metadata !DIExpression()), !dbg !1057
  store %"class.pov_frontend::MessageOutput"* %cptr, %"class.pov_frontend::MessageOutput"** %cptr.addr, align 8
  call void @llvm.dbg.declare(metadata %"class.pov_frontend::MessageOutput"** %cptr.addr, metadata !1058, metadata !DIExpression()), !dbg !1059
  store { i64, i64 } %hptr1, { i64, i64 }* %hptr.addr, align 8
  call void @llvm.dbg.declare(metadata { i64, i64 }* %hptr.addr, metadata !1060, metadata !DIExpression()), !dbg !1061
  %this2 = load %class.POVMS_MessageReceiver*, %class.POVMS_MessageReceiver** %this.addr, align 8
  %2 = load i32, i32* %hclass.addr, align 4, !dbg !1062
  %3 = load i32, i32* %hid.addr, align 4, !dbg !1063
  %call = call i8* @_Znwm(i64 32) #11, !dbg !1064
  %4 = bitcast i8* %call to %"class.POVMS_MessageReceiver::MemberHandler"*, !dbg !1064
  %5 = load %"class.pov_frontend::MessageOutput"*, %"class.pov_frontend::MessageOutput"** %cptr.addr, align 8, !dbg !1065
  %6 = load { i64, i64 }, { i64, i64 }* %hptr.addr, align 8, !dbg !1066
  store { i64, i64 } %6, { i64, i64 }* %coerce, align 8, !dbg !1067
  %7 = getelementptr inbounds { i64, i64 }, { i64, i64 }* %coerce, i32 0, i32 0, !dbg !1067
  %8 = load i64, i64* %7, align 8, !dbg !1067
  %9 = getelementptr inbounds { i64, i64 }, { i64, i64 }* %coerce, i32 0, i32 1, !dbg !1067
  %10 = load i64, i64* %9, align 8, !dbg !1067
  invoke void @_ZN21POVMS_MessageReceiver13MemberHandlerIN12pov_frontend13MessageOutputEEC2EPS2_MS2_FvP9POVMSDataS6_iE(%"class.POVMS_MessageReceiver::MemberHandler"* %4, %"class.pov_frontend::MessageOutput"* %5, i64 %8, i64 %10)
          to label %invoke.cont unwind label %lpad, !dbg !1067

invoke.cont:                                      ; preds = %entry
  %11 = bitcast %"class.POVMS_MessageReceiver::MemberHandler"* %4 to %"class.POVMS_MessageReceiver::Handler"*, !dbg !1064
  call void @_ZN21POVMS_MessageReceiver12AddNodeFrontEjjPNS_9HandlerOOEPNS_7HandlerE(%class.POVMS_MessageReceiver* %this2, i32 %2, i32 %3, %"class.POVMS_MessageReceiver::HandlerOO"* null, %"class.POVMS_MessageReceiver::Handler"* %11), !dbg !1068
  ret void, !dbg !1069

lpad:                                             ; preds = %entry
  %12 = landingpad { i8*, i32 }
          cleanup, !dbg !1069
  %13 = extractvalue { i8*, i32 } %12, 0, !dbg !1069
  store i8* %13, i8** %exn.slot, align 8, !dbg !1069
  %14 = extractvalue { i8*, i32 } %12, 1, !dbg !1069
  store i32 %14, i32* %ehselector.slot, align 4, !dbg !1069
  call void @_ZdlPv(i8* %call) #12, !dbg !1064
  br label %eh.resume, !dbg !1064

eh.resume:                                        ; preds = %lpad
  %exn = load i8*, i8** %exn.slot, align 8, !dbg !1064
  %sel = load i32, i32* %ehselector.slot, align 4, !dbg !1064
  %lpad.val = insertvalue { i8*, i32 } undef, i8* %exn, 0, !dbg !1064
  %lpad.val3 = insertvalue { i8*, i32 } %lpad.val, i32 %sel, 1, !dbg !1064
  resume { i8*, i32 } %lpad.val3, !dbg !1064
}

; Function Attrs: noinline uwtable
define dso_local void @_ZN12pov_frontend13MessageOutput8InitInfoEP9POVMSDataS2_i(%"class.pov_frontend::MessageOutput"* %this, %struct.POVMSData* %msg, %struct.POVMSData* %0, i32 %1) #0 align 2 !dbg !1070 {
entry:
  %this.addr = alloca %"class.pov_frontend::MessageOutput"*, align 8
  %msg.addr = alloca %struct.POVMSData*, align 8
  %.addr = alloca %struct.POVMSData*, align 8
  %.addr1 = alloca i32, align 4
  %NUMBER_OF_AUTHORS_ACROSS = alloca i32, align 4
  %attrlist = alloca %struct.POVMSData, align 8
  %item = alloca %struct.POVMSData, align 8
  %charbuf = alloca [1024 x i8], align 16
  %h = alloca i32, align 4
  %i = alloca i32, align 4
  %j = alloca i32, align 4
  %cnt = alloca i32, align 4
  %l = alloca i32, align 4
  store %"class.pov_frontend::MessageOutput"* %this, %"class.pov_frontend::MessageOutput"** %this.addr, align 8
  call void @llvm.dbg.declare(metadata %"class.pov_frontend::MessageOutput"** %this.addr, metadata !1071, metadata !DIExpression()), !dbg !1072
  store %struct.POVMSData* %msg, %struct.POVMSData** %msg.addr, align 8
  call void @llvm.dbg.declare(metadata %struct.POVMSData** %msg.addr, metadata !1073, metadata !DIExpression()), !dbg !1074
  store %struct.POVMSData* %0, %struct.POVMSData** %.addr, align 8
  call void @llvm.dbg.declare(metadata %struct.POVMSData** %.addr, metadata !1075, metadata !DIExpression()), !dbg !1076
  store i32 %1, i32* %.addr1, align 4
  call void @llvm.dbg.declare(metadata i32* %.addr1, metadata !1077, metadata !DIExpression()), !dbg !1078
  %this2 = load %"class.pov_frontend::MessageOutput"*, %"class.pov_frontend::MessageOutput"** %this.addr, align 8
  call void @llvm.dbg.declare(metadata i32* %NUMBER_OF_AUTHORS_ACROSS, metadata !1079, metadata !DIExpression()), !dbg !1080
  store i32 4, i32* %NUMBER_OF_AUTHORS_ACROSS, align 4, !dbg !1080
  call void @llvm.dbg.declare(metadata %struct.POVMSData* %attrlist, metadata !1081, metadata !DIExpression()), !dbg !1083
  call void @llvm.dbg.declare(metadata %struct.POVMSData* %item, metadata !1084, metadata !DIExpression()), !dbg !1086
  call void @llvm.dbg.declare(metadata [1024 x i8]* %charbuf, metadata !1087, metadata !DIExpression()), !dbg !1091
  call void @llvm.dbg.declare(metadata i32* %h, metadata !1092, metadata !DIExpression()), !dbg !1093
  call void @llvm.dbg.declare(metadata i32* %i, metadata !1094, metadata !DIExpression()), !dbg !1095
  call void @llvm.dbg.declare(metadata i32* %j, metadata !1096, metadata !DIExpression()), !dbg !1097
  call void @llvm.dbg.declare(metadata i32* %cnt, metadata !1098, metadata !DIExpression()), !dbg !1099
  call void @llvm.dbg.declare(metadata i32* %l, metadata !1100, metadata !DIExpression()), !dbg !1101
  call void @_ZN12pov_frontend13MessageOutput5FlushEi(%"class.pov_frontend::MessageOutput"* %this2, i32 1), !dbg !1102
  call void @_ZN12pov_frontend13MessageOutput5FlushEi(%"class.pov_frontend::MessageOutput"* %this2, i32 2), !dbg !1103
  store i32 1024, i32* %l, align 4, !dbg !1104
  %arrayidx = getelementptr inbounds [1024 x i8], [1024 x i8]* %charbuf, i64 0, i64 0, !dbg !1105
  store i8 0, i8* %arrayidx, align 16, !dbg !1106
  %2 = load %struct.POVMSData*, %struct.POVMSData** %msg.addr, align 8, !dbg !1107
  %arraydecay = getelementptr inbounds [1024 x i8], [1024 x i8]* %charbuf, i64 0, i64 0, !dbg !1109
  %call = call i32 @_Z19POVMSUtil_GetStringP9POVMSDatajPcPi(%struct.POVMSData* %2, i32 1131377253, i8* %arraydecay, i32* %l), !dbg !1110
  %cmp = icmp eq i32 %call, 0, !dbg !1111
  br i1 %cmp, label %if.then, label %if.end, !dbg !1112

if.then:                                          ; preds = %entry
  %arraydecay3 = getelementptr inbounds [1024 x i8], [1024 x i8]* %charbuf, i64 0, i64 0, !dbg !1113
  call void (%"class.pov_frontend::MessageOutput"*, i32, i8*, ...) @_ZN12pov_frontend13MessageOutput6PrintfEiPKcz(%"class.pov_frontend::MessageOutput"* %this2, i32 0, i8* getelementptr inbounds ([4 x i8], [4 x i8]* @.str, i64 0, i64 0), i8* %arraydecay3), !dbg !1114
  br label %if.end, !dbg !1114

if.end:                                           ; preds = %if.then, %entry
  store i32 1024, i32* %l, align 4, !dbg !1115
  %arrayidx4 = getelementptr inbounds [1024 x i8], [1024 x i8]* %charbuf, i64 0, i64 0, !dbg !1116
  store i8 0, i8* %arrayidx4, align 16, !dbg !1117
  %3 = load %struct.POVMSData*, %struct.POVMSData** %msg.addr, align 8, !dbg !1118
  %arraydecay5 = getelementptr inbounds [1024 x i8], [1024 x i8]* %charbuf, i64 0, i64 0, !dbg !1120
  %call6 = call i32 @_Z19POVMSUtil_GetStringP9POVMSDatajPcPi(%struct.POVMSData* %3, i32 1163163764, i8* %arraydecay5, i32* %l), !dbg !1121
  %cmp7 = icmp eq i32 %call6, 0, !dbg !1122
  br i1 %cmp7, label %if.then8, label %if.end10, !dbg !1123

if.then8:                                         ; preds = %if.end
  %arraydecay9 = getelementptr inbounds [1024 x i8], [1024 x i8]* %charbuf, i64 0, i64 0, !dbg !1124
  call void (%"class.pov_frontend::MessageOutput"*, i32, i8*, ...) @_ZN12pov_frontend13MessageOutput6PrintfEiPKcz(%"class.pov_frontend::MessageOutput"* %this2, i32 0, i8* getelementptr inbounds ([4 x i8], [4 x i8]* @.str, i64 0, i64 0), i8* %arraydecay9), !dbg !1125
  br label %if.end10, !dbg !1125

if.end10:                                         ; preds = %if.then8, %if.end
  call void (%"class.pov_frontend::MessageOutput"*, i32, i8*, ...) @_ZN12pov_frontend13MessageOutput6PrintfEiPKcz(%"class.pov_frontend::MessageOutput"* %this2, i32 0, i8* getelementptr inbounds ([2 x i8], [2 x i8]* @.str.1, i64 0, i64 0)), !dbg !1126
  call void (%"class.pov_frontend::MessageOutput"*, i32, i8*, ...) @_ZN12pov_frontend13MessageOutput6PrintfEiPKcz(%"class.pov_frontend::MessageOutput"* %this2, i32 0, i8* getelementptr inbounds ([54 x i8], [54 x i8]* @.str.2, i64 0, i64 0)), !dbg !1127
  %4 = load %struct.POVMSData*, %struct.POVMSData** %msg.addr, align 8, !dbg !1128
  %call11 = call i32 @_Z15POVMSObject_GetP9POVMSDataS0_j(%struct.POVMSData* %4, %struct.POVMSData* %attrlist, i32 1349675373), !dbg !1130
  %cmp12 = icmp eq i32 %call11, 0, !dbg !1131
  br i1 %cmp12, label %if.then13, label %if.end40, !dbg !1132

if.then13:                                        ; preds = %if.end10
  store i32 0, i32* %cnt, align 4, !dbg !1133
  %call14 = call i32 @_Z19POVMSAttrList_CountP9POVMSDataPi(%struct.POVMSData* %attrlist, i32* %cnt), !dbg !1135
  %cmp15 = icmp eq i32 %call14, 0, !dbg !1137
  br i1 %cmp15, label %if.then16, label %if.end38, !dbg !1138

if.then16:                                        ; preds = %if.then13
  store i32 0, i32* %i, align 4, !dbg !1139
  store i32 1, i32* %h, align 4, !dbg !1142
  br label %for.cond, !dbg !1143

for.cond:                                         ; preds = %for.inc35, %if.then16
  %5 = load i32, i32* %h, align 4, !dbg !1144
  %6 = load i32, i32* %cnt, align 4, !dbg !1146
  %cmp17 = icmp sle i32 %5, %6, !dbg !1147
  br i1 %cmp17, label %for.body, label %for.end37, !dbg !1148

for.body:                                         ; preds = %for.cond
  store i32 0, i32* %j, align 4, !dbg !1149
  br label %for.cond18, !dbg !1152

for.cond18:                                       ; preds = %for.inc, %for.body
  %7 = load i32, i32* %j, align 4, !dbg !1153
  %cmp19 = icmp slt i32 %7, 4, !dbg !1155
  br i1 %cmp19, label %land.rhs, label %land.end, !dbg !1156

land.rhs:                                         ; preds = %for.cond18
  %8 = load i32, i32* %h, align 4, !dbg !1157
  %9 = load i32, i32* %cnt, align 4, !dbg !1158
  %cmp20 = icmp sle i32 %8, %9, !dbg !1159
  br label %land.end

land.end:                                         ; preds = %land.rhs, %for.cond18
  %10 = phi i1 [ false, %for.cond18 ], [ %cmp20, %land.rhs ], !dbg !1160
  br i1 %10, label %for.body21, label %for.end, !dbg !1161

for.body21:                                       ; preds = %land.end
  %11 = load i32, i32* %h, align 4, !dbg !1162
  %call22 = call i32 @_Z20POVMSAttrList_GetNthP9POVMSDataiS0_(%struct.POVMSData* %attrlist, i32 %11, %struct.POVMSData* %item), !dbg !1165
  %cmp23 = icmp eq i32 %call22, 0, !dbg !1166
  br i1 %cmp23, label %if.then24, label %if.end33, !dbg !1167

if.then24:                                        ; preds = %for.body21
  store i32 1023, i32* %l, align 4, !dbg !1168
  %arrayidx25 = getelementptr inbounds [1024 x i8], [1024 x i8]* %charbuf, i64 0, i64 0, !dbg !1170
  store i8 0, i8* %arrayidx25, align 16, !dbg !1171
  %arraydecay26 = getelementptr inbounds [1024 x i8], [1024 x i8]* %charbuf, i64 0, i64 0, !dbg !1172
  %call27 = call i32 @_Z13POVMSAttr_GetP9POVMSDatajPvPi(%struct.POVMSData* %item, i32 1129534546, i8* %arraydecay26, i32* %l), !dbg !1174
  %cmp28 = icmp eq i32 %call27, 0, !dbg !1175
  br i1 %cmp28, label %if.then29, label %if.end31, !dbg !1176

if.then29:                                        ; preds = %if.then24
  %arraydecay30 = getelementptr inbounds [1024 x i8], [1024 x i8]* %charbuf, i64 0, i64 0, !dbg !1177
  call void (%"class.pov_frontend::MessageOutput"*, i32, i8*, ...) @_ZN12pov_frontend13MessageOutput6PrintfEiPKcz(%"class.pov_frontend::MessageOutput"* %this2, i32 0, i8* getelementptr inbounds ([8 x i8], [8 x i8]* @.str.3, i64 0, i64 0), i8* %arraydecay30), !dbg !1178
  br label %if.end31, !dbg !1178

if.end31:                                         ; preds = %if.then29, %if.then24
  %call32 = call i32 @_Z16POVMSAttr_DeleteP9POVMSData(%struct.POVMSData* %item), !dbg !1179
  br label %if.end33, !dbg !1180

if.end33:                                         ; preds = %if.end31, %for.body21
  br label %for.inc, !dbg !1181

for.inc:                                          ; preds = %if.end33
  %12 = load i32, i32* %j, align 4, !dbg !1182
  %inc = add nsw i32 %12, 1, !dbg !1182
  store i32 %inc, i32* %j, align 4, !dbg !1182
  %13 = load i32, i32* %h, align 4, !dbg !1183
  %inc34 = add nsw i32 %13, 1, !dbg !1183
  store i32 %inc34, i32* %h, align 4, !dbg !1183
  br label %for.cond18, !dbg !1184, !llvm.loop !1185

for.end:                                          ; preds = %land.end
  call void (%"class.pov_frontend::MessageOutput"*, i32, i8*, ...) @_ZN12pov_frontend13MessageOutput6PrintfEiPKcz(%"class.pov_frontend::MessageOutput"* %this2, i32 0, i8* getelementptr inbounds ([2 x i8], [2 x i8]* @.str.1, i64 0, i64 0)), !dbg !1187
  br label %for.inc35, !dbg !1188

for.inc35:                                        ; preds = %for.end
  %14 = load i32, i32* %i, align 4, !dbg !1189
  %inc36 = add nsw i32 %14, 1, !dbg !1189
  store i32 %inc36, i32* %i, align 4, !dbg !1189
  br label %for.cond, !dbg !1190, !llvm.loop !1191

for.end37:                                        ; preds = %for.cond
  br label %if.end38, !dbg !1193

if.end38:                                         ; preds = %for.end37, %if.then13
  %call39 = call i32 @_Z20POVMSAttrList_DeleteP9POVMSData(%struct.POVMSData* %attrlist), !dbg !1194
  br label %if.end40, !dbg !1195

if.end40:                                         ; preds = %if.end38, %if.end10
  call void (%"class.pov_frontend::MessageOutput"*, i32, i8*, ...) @_ZN12pov_frontend13MessageOutput6PrintfEiPKcz(%"class.pov_frontend::MessageOutput"* %this2, i32 0, i8* getelementptr inbounds ([2 x i8], [2 x i8]* @.str.1, i64 0, i64 0)), !dbg !1196
  call void (%"class.pov_frontend::MessageOutput"*, i32, i8*, ...) @_ZN12pov_frontend13MessageOutput6PrintfEiPKcz(%"class.pov_frontend::MessageOutput"* %this2, i32 0, i8* getelementptr inbounds ([40 x i8], [40 x i8]* @.str.4, i64 0, i64 0)), !dbg !1197
  %15 = load %struct.POVMSData*, %struct.POVMSData** %msg.addr, align 8, !dbg !1198
  %call41 = call i32 @_Z15POVMSObject_GetP9POVMSDataS0_j(%struct.POVMSData* %15, %struct.POVMSData* %attrlist, i32 1131376244), !dbg !1200
  %cmp42 = icmp eq i32 %call41, 0, !dbg !1201
  br i1 %cmp42, label %if.then43, label %if.end77, !dbg !1202

if.then43:                                        ; preds = %if.end40
  store i32 0, i32* %cnt, align 4, !dbg !1203
  %call44 = call i32 @_Z19POVMSAttrList_CountP9POVMSDataPi(%struct.POVMSData* %attrlist, i32* %cnt), !dbg !1205
  %cmp45 = icmp eq i32 %call44, 0, !dbg !1207
  br i1 %cmp45, label %if.then46, label %if.end75, !dbg !1208

if.then46:                                        ; preds = %if.then43
  store i32 0, i32* %i, align 4, !dbg !1209
  store i32 1, i32* %h, align 4, !dbg !1212
  br label %for.cond47, !dbg !1213

for.cond47:                                       ; preds = %for.inc72, %if.then46
  %16 = load i32, i32* %h, align 4, !dbg !1214
  %17 = load i32, i32* %cnt, align 4, !dbg !1216
  %cmp48 = icmp sle i32 %16, %17, !dbg !1217
  br i1 %cmp48, label %for.body49, label %for.end74, !dbg !1218

for.body49:                                       ; preds = %for.cond47
  store i32 0, i32* %j, align 4, !dbg !1219
  br label %for.cond50, !dbg !1222

for.cond50:                                       ; preds = %for.inc68, %for.body49
  %18 = load i32, i32* %j, align 4, !dbg !1223
  %cmp51 = icmp slt i32 %18, 4, !dbg !1225
  br i1 %cmp51, label %land.rhs52, label %land.end54, !dbg !1226

land.rhs52:                                       ; preds = %for.cond50
  %19 = load i32, i32* %h, align 4, !dbg !1227
  %20 = load i32, i32* %cnt, align 4, !dbg !1228
  %cmp53 = icmp sle i32 %19, %20, !dbg !1229
  br label %land.end54

land.end54:                                       ; preds = %land.rhs52, %for.cond50
  %21 = phi i1 [ false, %for.cond50 ], [ %cmp53, %land.rhs52 ], !dbg !1230
  br i1 %21, label %for.body55, label %for.end71, !dbg !1231

for.body55:                                       ; preds = %land.end54
  %22 = load i32, i32* %h, align 4, !dbg !1232
  %call56 = call i32 @_Z20POVMSAttrList_GetNthP9POVMSDataiS0_(%struct.POVMSData* %attrlist, i32 %22, %struct.POVMSData* %item), !dbg !1235
  %cmp57 = icmp eq i32 %call56, 0, !dbg !1236
  br i1 %cmp57, label %if.then58, label %if.end67, !dbg !1237

if.then58:                                        ; preds = %for.body55
  store i32 1023, i32* %l, align 4, !dbg !1238
  %arrayidx59 = getelementptr inbounds [1024 x i8], [1024 x i8]* %charbuf, i64 0, i64 0, !dbg !1240
  store i8 0, i8* %arrayidx59, align 16, !dbg !1241
  %arraydecay60 = getelementptr inbounds [1024 x i8], [1024 x i8]* %charbuf, i64 0, i64 0, !dbg !1242
  %call61 = call i32 @_Z13POVMSAttr_GetP9POVMSDatajPvPi(%struct.POVMSData* %item, i32 1129534546, i8* %arraydecay60, i32* %l), !dbg !1244
  %cmp62 = icmp eq i32 %call61, 0, !dbg !1245
  br i1 %cmp62, label %if.then63, label %if.end65, !dbg !1246

if.then63:                                        ; preds = %if.then58
  %arraydecay64 = getelementptr inbounds [1024 x i8], [1024 x i8]* %charbuf, i64 0, i64 0, !dbg !1247
  call void (%"class.pov_frontend::MessageOutput"*, i32, i8*, ...) @_ZN12pov_frontend13MessageOutput6PrintfEiPKcz(%"class.pov_frontend::MessageOutput"* %this2, i32 0, i8* getelementptr inbounds ([8 x i8], [8 x i8]* @.str.3, i64 0, i64 0), i8* %arraydecay64), !dbg !1248
  br label %if.end65, !dbg !1248

if.end65:                                         ; preds = %if.then63, %if.then58
  %call66 = call i32 @_Z16POVMSAttr_DeleteP9POVMSData(%struct.POVMSData* %item), !dbg !1249
  br label %if.end67, !dbg !1250

if.end67:                                         ; preds = %if.end65, %for.body55
  br label %for.inc68, !dbg !1251

for.inc68:                                        ; preds = %if.end67
  %23 = load i32, i32* %j, align 4, !dbg !1252
  %inc69 = add nsw i32 %23, 1, !dbg !1252
  store i32 %inc69, i32* %j, align 4, !dbg !1252
  %24 = load i32, i32* %h, align 4, !dbg !1253
  %inc70 = add nsw i32 %24, 1, !dbg !1253
  store i32 %inc70, i32* %h, align 4, !dbg !1253
  br label %for.cond50, !dbg !1254, !llvm.loop !1255

for.end71:                                        ; preds = %land.end54
  call void (%"class.pov_frontend::MessageOutput"*, i32, i8*, ...) @_ZN12pov_frontend13MessageOutput6PrintfEiPKcz(%"class.pov_frontend::MessageOutput"* %this2, i32 0, i8* getelementptr inbounds ([2 x i8], [2 x i8]* @.str.1, i64 0, i64 0)), !dbg !1257
  br label %for.inc72, !dbg !1258

for.inc72:                                        ; preds = %for.end71
  %25 = load i32, i32* %i, align 4, !dbg !1259
  %inc73 = add nsw i32 %25, 1, !dbg !1259
  store i32 %inc73, i32* %i, align 4, !dbg !1259
  br label %for.cond47, !dbg !1260, !llvm.loop !1261

for.end74:                                        ; preds = %for.cond47
  br label %if.end75, !dbg !1263

if.end75:                                         ; preds = %for.end74, %if.then43
  %call76 = call i32 @_Z20POVMSAttrList_DeleteP9POVMSData(%struct.POVMSData* %attrlist), !dbg !1264
  br label %if.end77, !dbg !1265

if.end77:                                         ; preds = %if.end75, %if.end40
  call void (%"class.pov_frontend::MessageOutput"*, i32, i8*, ...) @_ZN12pov_frontend13MessageOutput6PrintfEiPKcz(%"class.pov_frontend::MessageOutput"* %this2, i32 0, i8* getelementptr inbounds ([2 x i8], [2 x i8]* @.str.1, i64 0, i64 0)), !dbg !1266
  call void (%"class.pov_frontend::MessageOutput"*, i32, i8*, ...) @_ZN12pov_frontend13MessageOutput6PrintfEiPKcz(%"class.pov_frontend::MessageOutput"* %this2, i32 0, i8* getelementptr inbounds ([53 x i8], [53 x i8]* @.str.5, i64 0, i64 0)), !dbg !1267
  call void (%"class.pov_frontend::MessageOutput"*, i32, i8*, ...) @_ZN12pov_frontend13MessageOutput6PrintfEiPKcz(%"class.pov_frontend::MessageOutput"* %this2, i32 0, i8* getelementptr inbounds ([2 x i8], [2 x i8]* @.str.1, i64 0, i64 0)), !dbg !1268
  %26 = load %struct.POVMSData*, %struct.POVMSData** %msg.addr, align 8, !dbg !1269
  %call78 = call i32 @_Z15POVMSObject_GetP9POVMSDataS0_j(%struct.POVMSData* %26, %struct.POVMSData* %attrlist, i32 1229739621), !dbg !1271
  %cmp79 = icmp eq i32 %call78, 0, !dbg !1272
  br i1 %cmp79, label %if.then80, label %if.end107, !dbg !1273

if.then80:                                        ; preds = %if.end77
  store i32 0, i32* %cnt, align 4, !dbg !1274
  %call81 = call i32 @_Z19POVMSAttrList_CountP9POVMSDataPi(%struct.POVMSData* %attrlist, i32* %cnt), !dbg !1276
  %cmp82 = icmp eq i32 %call81, 0, !dbg !1278
  br i1 %cmp82, label %if.then83, label %if.end105, !dbg !1279

if.then83:                                        ; preds = %if.then80
  %27 = load i32, i32* %cnt, align 4, !dbg !1280
  %cmp84 = icmp sgt i32 %27, 0, !dbg !1283
  br i1 %cmp84, label %if.then85, label %if.end104, !dbg !1284

if.then85:                                        ; preds = %if.then83
  call void (%"class.pov_frontend::MessageOutput"*, i32, i8*, ...) @_ZN12pov_frontend13MessageOutput6PrintfEiPKcz(%"class.pov_frontend::MessageOutput"* %this2, i32 0, i8* getelementptr inbounds ([36 x i8], [36 x i8]* @.str.6, i64 0, i64 0)), !dbg !1285
  store i32 1, i32* %i, align 4, !dbg !1287
  br label %for.cond86, !dbg !1289

for.cond86:                                       ; preds = %for.inc101, %if.then85
  %28 = load i32, i32* %i, align 4, !dbg !1290
  %29 = load i32, i32* %cnt, align 4, !dbg !1292
  %cmp87 = icmp sle i32 %28, %29, !dbg !1293
  br i1 %cmp87, label %for.body88, label %for.end103, !dbg !1294

for.body88:                                       ; preds = %for.cond86
  %30 = load i32, i32* %i, align 4, !dbg !1295
  %call89 = call i32 @_Z20POVMSAttrList_GetNthP9POVMSDataiS0_(%struct.POVMSData* %attrlist, i32 %30, %struct.POVMSData* %item), !dbg !1298
  %cmp90 = icmp eq i32 %call89, 0, !dbg !1299
  br i1 %cmp90, label %if.then91, label %if.end100, !dbg !1300

if.then91:                                        ; preds = %for.body88
  store i32 1023, i32* %l, align 4, !dbg !1301
  %arrayidx92 = getelementptr inbounds [1024 x i8], [1024 x i8]* %charbuf, i64 0, i64 0, !dbg !1303
  store i8 0, i8* %arrayidx92, align 16, !dbg !1304
  %arraydecay93 = getelementptr inbounds [1024 x i8], [1024 x i8]* %charbuf, i64 0, i64 0, !dbg !1305
  %call94 = call i32 @_Z13POVMSAttr_GetP9POVMSDatajPvPi(%struct.POVMSData* %item, i32 1129534546, i8* %arraydecay93, i32* %l), !dbg !1307
  %cmp95 = icmp eq i32 %call94, 0, !dbg !1308
  br i1 %cmp95, label %if.then96, label %if.end98, !dbg !1309

if.then96:                                        ; preds = %if.then91
  %arraydecay97 = getelementptr inbounds [1024 x i8], [1024 x i8]* %charbuf, i64 0, i64 0, !dbg !1310
  call void (%"class.pov_frontend::MessageOutput"*, i32, i8*, ...) @_ZN12pov_frontend13MessageOutput6PrintfEiPKcz(%"class.pov_frontend::MessageOutput"* %this2, i32 0, i8* getelementptr inbounds ([6 x i8], [6 x i8]* @.str.7, i64 0, i64 0), i8* %arraydecay97), !dbg !1311
  br label %if.end98, !dbg !1311

if.end98:                                         ; preds = %if.then96, %if.then91
  %call99 = call i32 @_Z16POVMSAttr_DeleteP9POVMSData(%struct.POVMSData* %item), !dbg !1312
  br label %if.end100, !dbg !1313

if.end100:                                        ; preds = %if.end98, %for.body88
  br label %for.inc101, !dbg !1314

for.inc101:                                       ; preds = %if.end100
  %31 = load i32, i32* %i, align 4, !dbg !1315
  %inc102 = add nsw i32 %31, 1, !dbg !1315
  store i32 %inc102, i32* %i, align 4, !dbg !1315
  br label %for.cond86, !dbg !1316, !llvm.loop !1317

for.end103:                                       ; preds = %for.cond86
  br label %if.end104, !dbg !1319

if.end104:                                        ; preds = %for.end103, %if.then83
  br label %if.end105, !dbg !1320

if.end105:                                        ; preds = %if.end104, %if.then80
  %call106 = call i32 @_Z20POVMSAttrList_DeleteP9POVMSData(%struct.POVMSData* %attrlist), !dbg !1321
  br label %if.end107, !dbg !1322

if.end107:                                        ; preds = %if.end105, %if.end77
  ret void, !dbg !1323
}

; Function Attrs: noinline uwtable
define dso_local void @_ZN12pov_frontend13MessageOutput13RenderOptionsEP9POVMSDataS2_i(%"class.pov_frontend::MessageOutput"* %this, %struct.POVMSData* %msg, %struct.POVMSData* %0, i32 %1) #0 align 2 !dbg !1324 {
entry:
  %this.addr = alloca %"class.pov_frontend::MessageOutput"*, align 8
  %msg.addr = alloca %struct.POVMSData*, align 8
  %.addr = alloca %struct.POVMSData*, align 8
  %.addr1 = alloca i32, align 4
  %attr = alloca %struct.POVMSData, align 8
  %i = alloca i32, align 4
  %i2 = alloca i32, align 4
  %f = alloca float, align 4
  %f2 = alloca float, align 4
  %f3 = alloca float, align 4
  %f4 = alloca float, align 4
  %b = alloca i32, align 4
  %charbuf = alloca [1024 x i8], align 16
  %t = alloca i8*, align 8
  %outputQuality = alloca i32, align 4
  %outputCompression = alloca i32, align 4
  %l = alloca i32, align 4
  %outputFormat = alloca i8, align 1
  %cnt = alloca i32, align 4
  %item = alloca %struct.POVMSData, align 8
  %ii = alloca i64, align 8
  %ref.tmp = alloca i32, align 4
  %ref.tmp54 = alloca i32, align 4
  %charbuf2 = alloca [1024 x i8], align 16
  %al = alloca i8*, align 8
  store %"class.pov_frontend::MessageOutput"* %this, %"class.pov_frontend::MessageOutput"** %this.addr, align 8
  call void @llvm.dbg.declare(metadata %"class.pov_frontend::MessageOutput"** %this.addr, metadata !1325, metadata !DIExpression()), !dbg !1326
  store %struct.POVMSData* %msg, %struct.POVMSData** %msg.addr, align 8
  call void @llvm.dbg.declare(metadata %struct.POVMSData** %msg.addr, metadata !1327, metadata !DIExpression()), !dbg !1328
  store %struct.POVMSData* %0, %struct.POVMSData** %.addr, align 8
  call void @llvm.dbg.declare(metadata %struct.POVMSData** %.addr, metadata !1329, metadata !DIExpression()), !dbg !1330
  store i32 %1, i32* %.addr1, align 4
  call void @llvm.dbg.declare(metadata i32* %.addr1, metadata !1331, metadata !DIExpression()), !dbg !1332
  %this2 = load %"class.pov_frontend::MessageOutput"*, %"class.pov_frontend::MessageOutput"** %this.addr, align 8
  call void @llvm.dbg.declare(metadata %struct.POVMSData* %attr, metadata !1333, metadata !DIExpression()), !dbg !1334
  call void @llvm.dbg.declare(metadata i32* %i, metadata !1335, metadata !DIExpression()), !dbg !1336
  call void @llvm.dbg.declare(metadata i32* %i2, metadata !1337, metadata !DIExpression()), !dbg !1338
  call void @llvm.dbg.declare(metadata float* %f, metadata !1339, metadata !DIExpression()), !dbg !1340
  call void @llvm.dbg.declare(metadata float* %f2, metadata !1341, metadata !DIExpression()), !dbg !1342
  call void @llvm.dbg.declare(metadata float* %f3, metadata !1343, metadata !DIExpression()), !dbg !1344
  call void @llvm.dbg.declare(metadata float* %f4, metadata !1345, metadata !DIExpression()), !dbg !1346
  call void @llvm.dbg.declare(metadata i32* %b, metadata !1347, metadata !DIExpression()), !dbg !1348
  call void @llvm.dbg.declare(metadata [1024 x i8]* %charbuf, metadata !1349, metadata !DIExpression()), !dbg !1350
  call void @llvm.dbg.declare(metadata i8** %t, metadata !1351, metadata !DIExpression()), !dbg !1352
  call void @llvm.dbg.declare(metadata i32* %outputQuality, metadata !1353, metadata !DIExpression()), !dbg !1354
  call void @llvm.dbg.declare(metadata i32* %outputCompression, metadata !1355, metadata !DIExpression()), !dbg !1356
  call void @llvm.dbg.declare(metadata i32* %l, metadata !1357, metadata !DIExpression()), !dbg !1358
  call void @llvm.dbg.declare(metadata i8* %outputFormat, metadata !1359, metadata !DIExpression()), !dbg !1360
  call void @_ZN12pov_frontend13MessageOutput5FlushEi(%"class.pov_frontend::MessageOutput"* %this2, i32 1), !dbg !1361
  call void @_ZN12pov_frontend13MessageOutput5FlushEi(%"class.pov_frontend::MessageOutput"* %this2, i32 2), !dbg !1362
  call void (%"class.pov_frontend::MessageOutput"*, i32, i8*, ...) @_ZN12pov_frontend13MessageOutput6PrintfEiPKcz(%"class.pov_frontend::MessageOutput"* %this2, i32 4, i8* getelementptr inbounds ([17 x i8], [17 x i8]* @.str.8, i64 0, i64 0)), !dbg !1363
  store float 0.000000e+00, float* %f, align 4, !dbg !1364
  store i32 1024, i32* %l, align 4, !dbg !1365
  %arrayidx = getelementptr inbounds [1024 x i8], [1024 x i8]* %charbuf, i64 0, i64 0, !dbg !1366
  store i8 0, i8* %arrayidx, align 16, !dbg !1367
  %2 = load %struct.POVMSData*, %struct.POVMSData** %msg.addr, align 8, !dbg !1368
  %arraydecay = getelementptr inbounds [1024 x i8], [1024 x i8]* %charbuf, i64 0, i64 0, !dbg !1369
  %call = call i32 @_Z19POVMSUtil_GetStringP9POVMSDatajPcPi(%struct.POVMSData* %2, i32 1229344353, i8* %arraydecay, i32* %l), !dbg !1370
  %3 = load %struct.POVMSData*, %struct.POVMSData** %msg.addr, align 8, !dbg !1371
  %call3 = call i32 @_Z18POVMSUtil_GetFloatP9POVMSDatajPf(%struct.POVMSData* %3, i32 1449489011, float* %f), !dbg !1372
  %arraydecay4 = getelementptr inbounds [1024 x i8], [1024 x i8]* %charbuf, i64 0, i64 0, !dbg !1373
  %4 = load float, float* %f, align 4, !dbg !1374
  %conv = fpext float %4 to double, !dbg !1374
  call void (%"class.pov_frontend::MessageOutput"*, i32, i8*, ...) @_ZN12pov_frontend13MessageOutput6PrintfEiPKcz(%"class.pov_frontend::MessageOutput"* %this2, i32 4, i8* getelementptr inbounds ([48 x i8], [48 x i8]* @.str.9, i64 0, i64 0), i8* %arraydecay4, double %conv), !dbg !1375
  %5 = load %struct.POVMSData*, %struct.POVMSData** %msg.addr, align 8, !dbg !1376
  %call5 = call i8* @_ZN12pov_frontend13MessageOutput21GetOptionSwitchStringEP9POVMSDatajb(%"class.pov_frontend::MessageOutput"* %this2, %struct.POVMSData* %5, i32 1382892132, i1 zeroext false), !dbg !1377
  %6 = load %struct.POVMSData*, %struct.POVMSData** %msg.addr, align 8, !dbg !1378
  %call6 = call i8* @_ZN12pov_frontend13MessageOutput21GetOptionSwitchStringEP9POVMSDatajb(%"class.pov_frontend::MessageOutput"* %this2, %struct.POVMSData* %6, i32 1399876693, i1 zeroext false), !dbg !1379
  call void (%"class.pov_frontend::MessageOutput"*, i32, i8*, ...) @_ZN12pov_frontend13MessageOutput6PrintfEiPKcz(%"class.pov_frontend::MessageOutput"* %this2, i32 4, i8* getelementptr inbounds ([51 x i8], [51 x i8]* @.str.10, i64 0, i64 0), i8* %call5, i8* %call6), !dbg !1380
  call void (%"class.pov_frontend::MessageOutput"*, i32, i8*, ...) @_ZN12pov_frontend13MessageOutput6PrintfEiPKcz(%"class.pov_frontend::MessageOutput"* %this2, i32 4, i8* getelementptr inbounds ([18 x i8], [18 x i8]* @.str.11, i64 0, i64 0)), !dbg !1381
  %7 = load %struct.POVMSData*, %struct.POVMSData** %msg.addr, align 8, !dbg !1382
  %call7 = call i32 @_Z15POVMSObject_GetP9POVMSDataS0_j(%struct.POVMSData* %7, %struct.POVMSData* %attr, i32 1281974864), !dbg !1384
  %cmp = icmp eq i32 %call7, 0, !dbg !1385
  br i1 %cmp, label %if.then, label %if.end24, !dbg !1386

if.then:                                          ; preds = %entry
  call void @llvm.dbg.declare(metadata i32* %cnt, metadata !1387, metadata !DIExpression()), !dbg !1389
  store i32 0, i32* %cnt, align 4, !dbg !1389
  %call8 = call i32 @_Z19POVMSAttrList_CountP9POVMSDataPi(%struct.POVMSData* %attr, i32* %cnt), !dbg !1390
  %cmp9 = icmp eq i32 %call8, 0, !dbg !1392
  br i1 %cmp9, label %if.then10, label %if.end22, !dbg !1393

if.then10:                                        ; preds = %if.then
  call void @llvm.dbg.declare(metadata %struct.POVMSData* %item, metadata !1394, metadata !DIExpression()), !dbg !1396
  call void @llvm.dbg.declare(metadata i64* %ii, metadata !1397, metadata !DIExpression()), !dbg !1398
  store i64 1, i64* %ii, align 8, !dbg !1399
  br label %for.cond, !dbg !1401

for.cond:                                         ; preds = %for.inc, %if.then10
  %8 = load i64, i64* %ii, align 8, !dbg !1402
  %9 = load i32, i32* %cnt, align 4, !dbg !1404
  %conv11 = sext i32 %9 to i64, !dbg !1404
  %cmp12 = icmp sle i64 %8, %conv11, !dbg !1405
  br i1 %cmp12, label %for.body, label %for.end, !dbg !1406

for.body:                                         ; preds = %for.cond
  %10 = load i64, i64* %ii, align 8, !dbg !1407
  %conv13 = trunc i64 %10 to i32, !dbg !1407
  %call14 = call i32 @_Z20POVMSAttrList_GetNthP9POVMSDataiS0_(%struct.POVMSData* %attr, i32 %conv13, %struct.POVMSData* %item), !dbg !1410
  %cmp15 = icmp eq i32 %call14, 0, !dbg !1411
  br i1 %cmp15, label %if.then16, label %if.end, !dbg !1412

if.then16:                                        ; preds = %for.body
  store i32 1023, i32* %l, align 4, !dbg !1413
  %arrayidx17 = getelementptr inbounds [1024 x i8], [1024 x i8]* %charbuf, i64 0, i64 0, !dbg !1415
  store i8 0, i8* %arrayidx17, align 16, !dbg !1416
  %arraydecay18 = getelementptr inbounds [1024 x i8], [1024 x i8]* %charbuf, i64 0, i64 0, !dbg !1417
  %call19 = call i32 @_Z13POVMSAttr_GetP9POVMSDatajPvPi(%struct.POVMSData* %item, i32 1129534546, i8* %arraydecay18, i32* %l), !dbg !1418
  %arraydecay20 = getelementptr inbounds [1024 x i8], [1024 x i8]* %charbuf, i64 0, i64 0, !dbg !1419
  call void (%"class.pov_frontend::MessageOutput"*, i32, i8*, ...) @_ZN12pov_frontend13MessageOutput6PrintfEiPKcz(%"class.pov_frontend::MessageOutput"* %this2, i32 4, i8* getelementptr inbounds ([8 x i8], [8 x i8]* @.str.12, i64 0, i64 0), i8* %arraydecay20), !dbg !1420
  %call21 = call i32 @_Z16POVMSAttr_DeleteP9POVMSData(%struct.POVMSData* %item), !dbg !1421
  br label %if.end, !dbg !1422

if.end:                                           ; preds = %if.then16, %for.body
  br label %for.inc, !dbg !1423

for.inc:                                          ; preds = %if.end
  %11 = load i64, i64* %ii, align 8, !dbg !1424
  %inc = add nsw i64 %11, 1, !dbg !1424
  store i64 %inc, i64* %ii, align 8, !dbg !1424
  br label %for.cond, !dbg !1425, !llvm.loop !1426

for.end:                                          ; preds = %for.cond
  br label %if.end22, !dbg !1428

if.end22:                                         ; preds = %for.end, %if.then
  %call23 = call i32 @_Z16POVMSAttr_DeleteP9POVMSData(%struct.POVMSData* %attr), !dbg !1429
  br label %if.end24, !dbg !1430

if.end24:                                         ; preds = %if.end22, %entry
  call void (%"class.pov_frontend::MessageOutput"*, i32, i8*, ...) @_ZN12pov_frontend13MessageOutput6PrintfEiPKcz(%"class.pov_frontend::MessageOutput"* %this2, i32 4, i8* getelementptr inbounds ([16 x i8], [16 x i8]* @.str.13, i64 0, i64 0)), !dbg !1431
  %12 = load %struct.POVMSData*, %struct.POVMSData** %msg.addr, align 8, !dbg !1432
  %call25 = call i32 @_Z16POVMSUtil_GetIntP9POVMSDatajPi(%struct.POVMSData* %12, i32 1466524788, i32* %i), !dbg !1433
  %13 = load %struct.POVMSData*, %struct.POVMSData** %msg.addr, align 8, !dbg !1434
  %call26 = call i32 @_Z16POVMSUtil_GetIntP9POVMSDatajPi(%struct.POVMSData* %13, i32 1214605671, i32* %i2), !dbg !1435
  %14 = load %struct.POVMSData*, %struct.POVMSData** %msg.addr, align 8, !dbg !1436
  %call27 = call i32 @_Z18POVMSUtil_GetFloatP9POVMSDatajPf(%struct.POVMSData* %14, i32 1416589344, float* %f), !dbg !1437
  %15 = load %struct.POVMSData*, %struct.POVMSData** %msg.addr, align 8, !dbg !1438
  %call28 = call i32 @_Z18POVMSUtil_GetFloatP9POVMSDatajPf(%struct.POVMSData* %15, i32 1114600564, float* %f2), !dbg !1439
  %16 = load %struct.POVMSData*, %struct.POVMSData** %msg.addr, align 8, !dbg !1440
  %call29 = call i32 @_Z18POVMSUtil_GetFloatP9POVMSDatajPf(%struct.POVMSData* %16, i32 1281713780, float* %f3), !dbg !1441
  %17 = load %struct.POVMSData*, %struct.POVMSData** %msg.addr, align 8, !dbg !1442
  %call30 = call i32 @_Z18POVMSUtil_GetFloatP9POVMSDatajPf(%struct.POVMSData* %17, i32 1382639464, float* %f4), !dbg !1443
  %18 = load i32, i32* %i, align 4, !dbg !1444
  %19 = load i32, i32* %i2, align 4, !dbg !1445
  %20 = load float, float* %f, align 4, !dbg !1446
  %add = fadd float %20, 1.000000e+00, !dbg !1447
  %conv31 = fptosi float %add to i32, !dbg !1448
  %21 = load float, float* %f2, align 4, !dbg !1449
  %conv32 = fptosi float %21 to i32, !dbg !1449
  %22 = load float, float* %f3, align 4, !dbg !1450
  %add33 = fadd float %22, 1.000000e+00, !dbg !1451
  %conv34 = fptosi float %add33 to i32, !dbg !1452
  %23 = load float, float* %f4, align 4, !dbg !1453
  %conv35 = fptosi float %23 to i32, !dbg !1453
  call void (%"class.pov_frontend::MessageOutput"*, i32, i8*, ...) @_ZN12pov_frontend13MessageOutput6PrintfEiPKcz(%"class.pov_frontend::MessageOutput"* %this2, i32 4, i8* getelementptr inbounds ([64 x i8], [64 x i8]* @.str.14, i64 0, i64 0), i32 %18, i32 %19, i32 %conv31, i32 %conv32, i32 %conv34, i32 %conv35), !dbg !1454
  %24 = load %struct.POVMSData*, %struct.POVMSData** %msg.addr, align 8, !dbg !1455
  %call36 = call i32 @_Z16POVMSUtil_GetIntP9POVMSDatajPi(%struct.POVMSData* %24, i32 1330009209, i32* %i), !dbg !1457
  %cmp37 = icmp eq i32 %call36, 0, !dbg !1458
  br i1 %cmp37, label %if.then38, label %if.end41, !dbg !1459

if.then38:                                        ; preds = %if.end24
  %25 = load i32, i32* %i, align 4, !dbg !1460
  %call39 = call i32 @tolower(i32 %25) #13, !dbg !1461
  %conv40 = trunc i32 %call39 to i8, !dbg !1461
  store i8 %conv40, i8* %outputFormat, align 1, !dbg !1462
  br label %if.end41, !dbg !1463

if.end41:                                         ; preds = %if.then38, %if.end24
  %26 = load %struct.POVMSData*, %struct.POVMSData** %msg.addr, align 8, !dbg !1464
  %call42 = call i32 @_Z16POVMSUtil_GetIntP9POVMSDatajPi(%struct.POVMSData* %26, i32 1112556399, i32* %i), !dbg !1466
  %cmp43 = icmp eq i32 %call42, 0, !dbg !1467
  br i1 %cmp43, label %if.then44, label %if.end45, !dbg !1468

if.then44:                                        ; preds = %if.end41
  %27 = load i32, i32* %i, align 4, !dbg !1469
  store i32 %27, i32* %outputQuality, align 4, !dbg !1470
  br label %if.end45, !dbg !1471

if.end45:                                         ; preds = %if.then44, %if.end41
  %28 = load %struct.POVMSData*, %struct.POVMSData** %msg.addr, align 8, !dbg !1472
  %call46 = call i32 @_Z16POVMSUtil_GetIntP9POVMSDatajPi(%struct.POVMSData* %28, i32 1330004847, i32* %i), !dbg !1474
  %cmp47 = icmp eq i32 %call46, 0, !dbg !1475
  br i1 %cmp47, label %if.then48, label %if.end57, !dbg !1476

if.then48:                                        ; preds = %if.end45
  %29 = load i8, i8* %outputFormat, align 1, !dbg !1477
  %conv49 = sext i8 %29 to i32, !dbg !1477
  %call50 = call i32 @toupper(i32 %conv49) #13, !dbg !1480
  %cmp51 = icmp eq i32 %call50, 74, !dbg !1481
  br i1 %cmp51, label %if.then52, label %if.end56, !dbg !1482

if.then52:                                        ; preds = %if.then48
  %30 = load i32, i32* %i, align 4, !dbg !1483
  store i32 %30, i32* %outputQuality, align 4, !dbg !1485
  store i32 0, i32* %ref.tmp, align 4, !dbg !1486
  %call53 = call dereferenceable(4) i32* @_ZSt3maxIiERKT_S2_S2_(i32* dereferenceable(4) %ref.tmp, i32* dereferenceable(4) %outputQuality), !dbg !1487
  %31 = load i32, i32* %call53, align 4, !dbg !1487
  store i32 %31, i32* %outputQuality, align 4, !dbg !1488
  store i32 100, i32* %ref.tmp54, align 4, !dbg !1489
  %call55 = call dereferenceable(4) i32* @_ZSt3minIiERKT_S2_S2_(i32* dereferenceable(4) %ref.tmp54, i32* dereferenceable(4) %outputQuality), !dbg !1490
  %32 = load i32, i32* %call55, align 4, !dbg !1490
  store i32 %32, i32* %outputQuality, align 4, !dbg !1491
  br label %if.end56, !dbg !1492

if.end56:                                         ; preds = %if.then52, %if.then48
  br label %if.end57, !dbg !1493

if.end57:                                         ; preds = %if.end56, %if.end45
  store i32 0, i32* %b, align 4, !dbg !1494
  %33 = load %struct.POVMSData*, %struct.POVMSData** %msg.addr, align 8, !dbg !1495
  %call58 = call i32 @_Z17POVMSUtil_GetBoolP9POVMSDatajPi(%struct.POVMSData* %33, i32 1330933574, i32* %b), !dbg !1496
  %34 = load i32, i32* %b, align 4, !dbg !1497
  %cmp59 = icmp eq i32 %34, 1, !dbg !1499
  br i1 %cmp59, label %if.then60, label %if.end92, !dbg !1500

if.then60:                                        ; preds = %if.end57
  call void @llvm.dbg.declare(metadata [1024 x i8]* %charbuf2, metadata !1501, metadata !DIExpression()), !dbg !1503
  call void @llvm.dbg.declare(metadata i8** %al, metadata !1504, metadata !DIExpression()), !dbg !1505
  store i8* getelementptr inbounds ([1 x i8], [1 x i8]* @.str.15, i64 0, i64 0), i8** %al, align 8, !dbg !1505
  store i32 1023, i32* %l, align 4, !dbg !1506
  %arrayidx61 = getelementptr inbounds [1024 x i8], [1024 x i8]* %charbuf2, i64 0, i64 0, !dbg !1507
  store i8 0, i8* %arrayidx61, align 16, !dbg !1508
  %35 = load %struct.POVMSData*, %struct.POVMSData** %msg.addr, align 8, !dbg !1509
  %arraydecay62 = getelementptr inbounds [1024 x i8], [1024 x i8]* %charbuf2, i64 0, i64 0, !dbg !1510
  %call63 = call i32 @_Z19POVMSUtil_GetStringP9POVMSDatajPcPi(%struct.POVMSData* %35, i32 1330667892, i8* %arraydecay62, i32* %l), !dbg !1511
  store i32 1023, i32* %l, align 4, !dbg !1512
  %arrayidx64 = getelementptr inbounds [1024 x i8], [1024 x i8]* %charbuf, i64 0, i64 0, !dbg !1513
  store i8 0, i8* %arrayidx64, align 16, !dbg !1514
  %36 = load %struct.POVMSData*, %struct.POVMSData** %msg.addr, align 8, !dbg !1515
  %arraydecay65 = getelementptr inbounds [1024 x i8], [1024 x i8]* %charbuf, i64 0, i64 0, !dbg !1516
  %call66 = call i32 @_Z19POVMSUtil_GetStringP9POVMSDatajPcPi(%struct.POVMSData* %36, i32 1330007649, i8* %arraydecay65, i32* %l), !dbg !1517
  store i32 0, i32* %b, align 4, !dbg !1518
  %37 = load %struct.POVMSData*, %struct.POVMSData** %msg.addr, align 8, !dbg !1519
  %call67 = call i32 @_Z17POVMSUtil_GetBoolP9POVMSDatajPi(%struct.POVMSData* %37, i32 1329687664, i32* %b), !dbg !1520
  %38 = load i8, i8* %outputFormat, align 1, !dbg !1521
  %conv68 = sext i8 %38 to i32, !dbg !1521
  %call69 = call i32 @toupper(i32 %conv68) #13, !dbg !1523
  %cmp70 = icmp eq i32 %call69, 74, !dbg !1524
  br i1 %cmp70, label %if.then71, label %if.end72, !dbg !1525

if.then71:                                        ; preds = %if.then60
  %39 = load i32, i32* %outputQuality, align 4, !dbg !1526
  store i32 %39, i32* %outputCompression, align 4, !dbg !1528
  store i32 8, i32* %outputQuality, align 4, !dbg !1529
  br label %if.end72, !dbg !1530

if.end72:                                         ; preds = %if.then71, %if.then60
  %40 = load i32, i32* %b, align 4, !dbg !1531
  %cmp73 = icmp eq i32 %40, 1, !dbg !1533
  br i1 %cmp73, label %if.then74, label %if.else, !dbg !1534

if.then74:                                        ; preds = %if.end72
  %41 = load i32, i32* %outputQuality, align 4, !dbg !1535
  %mul = mul nsw i32 %41, 4, !dbg !1535
  store i32 %mul, i32* %outputQuality, align 4, !dbg !1535
  store i8* getelementptr inbounds ([12 x i8], [12 x i8]* @.str.16, i64 0, i64 0), i8** %al, align 8, !dbg !1537
  br label %if.end76, !dbg !1538

if.else:                                          ; preds = %if.end72
  %42 = load i32, i32* %outputQuality, align 4, !dbg !1539
  %mul75 = mul nsw i32 %42, 3, !dbg !1539
  store i32 %mul75, i32* %outputQuality, align 4, !dbg !1539
  br label %if.end76

if.end76:                                         ; preds = %if.else, %if.then74
  %43 = load i8, i8* %outputFormat, align 1, !dbg !1540
  %conv77 = sext i8 %43 to i32, !dbg !1540
  %call78 = call i32 @toupper(i32 %conv77) #13, !dbg !1541
  switch i32 %call78, label %sw.default [
    i32 67, label %sw.bb
    i32 78, label %sw.bb79
    i32 74, label %sw.bb80
    i32 80, label %sw.bb81
    i32 83, label %sw.bb82
    i32 84, label %sw.bb83
  ], !dbg !1542

sw.bb:                                            ; preds = %if.end76
  store i8* getelementptr inbounds ([10 x i8], [10 x i8]* @.str.17, i64 0, i64 0), i8** %t, align 8, !dbg !1543
  br label %sw.epilog, !dbg !1545

sw.bb79:                                          ; preds = %if.end76
  store i8* getelementptr inbounds ([4 x i8], [4 x i8]* @.str.18, i64 0, i64 0), i8** %t, align 8, !dbg !1546
  br label %sw.epilog, !dbg !1547

sw.bb80:                                          ; preds = %if.end76
  store i8* getelementptr inbounds ([5 x i8], [5 x i8]* @.str.19, i64 0, i64 0), i8** %t, align 8, !dbg !1548
  br label %sw.epilog, !dbg !1549

sw.bb81:                                          ; preds = %if.end76
  store i8* getelementptr inbounds ([4 x i8], [4 x i8]* @.str.20, i64 0, i64 0), i8** %t, align 8, !dbg !1550
  br label %sw.epilog, !dbg !1551

sw.bb82:                                          ; preds = %if.end76
  store i8* getelementptr inbounds ([16 x i8], [16 x i8]* @.str.21, i64 0, i64 0), i8** %t, align 8, !dbg !1552
  br label %sw.epilog, !dbg !1553

sw.bb83:                                          ; preds = %if.end76
  store i8* getelementptr inbounds ([6 x i8], [6 x i8]* @.str.22, i64 0, i64 0), i8** %t, align 8, !dbg !1554
  br label %sw.epilog, !dbg !1555

sw.default:                                       ; preds = %if.end76
  store i8* getelementptr inbounds ([7 x i8], [7 x i8]* @.str.23, i64 0, i64 0), i8** %t, align 8, !dbg !1556
  br label %sw.epilog, !dbg !1557

sw.epilog:                                        ; preds = %sw.default, %sw.bb83, %sw.bb82, %sw.bb81, %sw.bb80, %sw.bb79, %sw.bb
  %44 = load i8, i8* %outputFormat, align 1, !dbg !1558
  %conv84 = sext i8 %44 to i32, !dbg !1558
  %call85 = call i32 @toupper(i32 %conv84) #13, !dbg !1560
  %cmp86 = icmp eq i32 %call85, 74, !dbg !1561
  br i1 %cmp86, label %if.then87, label %if.else89, !dbg !1562

if.then87:                                        ; preds = %sw.epilog
  %arraydecay88 = getelementptr inbounds [1024 x i8], [1024 x i8]* %charbuf, i64 0, i64 0, !dbg !1563
  %45 = load i32, i32* %outputQuality, align 4, !dbg !1564
  %46 = load i32, i32* %outputCompression, align 4, !dbg !1565
  %47 = load i8*, i8** %al, align 8, !dbg !1566
  %48 = load i8*, i8** %t, align 8, !dbg !1567
  call void (%"class.pov_frontend::MessageOutput"*, i32, i8*, ...) @_ZN12pov_frontend13MessageOutput6PrintfEiPKcz(%"class.pov_frontend::MessageOutput"* %this2, i32 4, i8* getelementptr inbounds ([46 x i8], [46 x i8]* @.str.24, i64 0, i64 0), i8* %arraydecay88, i32 %45, i32 %46, i8* getelementptr inbounds ([2 x i8], [2 x i8]* @.str.25, i64 0, i64 0), i8* %47, i8* %48), !dbg !1568
  br label %if.end91, !dbg !1568

if.else89:                                        ; preds = %sw.epilog
  %arraydecay90 = getelementptr inbounds [1024 x i8], [1024 x i8]* %charbuf, i64 0, i64 0, !dbg !1569
  %49 = load i32, i32* %outputQuality, align 4, !dbg !1570
  %50 = load i8*, i8** %al, align 8, !dbg !1571
  %51 = load i8*, i8** %t, align 8, !dbg !1572
  call void (%"class.pov_frontend::MessageOutput"*, i32, i8*, ...) @_ZN12pov_frontend13MessageOutput6PrintfEiPKcz(%"class.pov_frontend::MessageOutput"* %this2, i32 4, i8* getelementptr inbounds ([32 x i8], [32 x i8]* @.str.26, i64 0, i64 0), i8* %arraydecay90, i32 %49, i8* %50, i8* %51), !dbg !1573
  br label %if.end91

if.end91:                                         ; preds = %if.else89, %if.then87
  br label %if.end92, !dbg !1574

if.end92:                                         ; preds = %if.end91, %if.end57
  store i32 0, i32* %b, align 4, !dbg !1575
  %52 = load %struct.POVMSData*, %struct.POVMSData** %msg.addr, align 8, !dbg !1576
  %call93 = call i32 @_Z17POVMSUtil_GetBoolP9POVMSDatajPi(%struct.POVMSData* %52, i32 1147761520, i32* %b), !dbg !1577
  %53 = load i32, i32* %b, align 4, !dbg !1578
  %cmp94 = icmp eq i32 %53, 1, !dbg !1580
  br i1 %cmp94, label %if.then95, label %if.else98, !dbg !1581

if.then95:                                        ; preds = %if.end92
  store float 0.000000e+00, float* %f, align 4, !dbg !1582
  %54 = load %struct.POVMSData*, %struct.POVMSData** %msg.addr, align 8, !dbg !1584
  %call96 = call i32 @_Z18POVMSUtil_GetFloatP9POVMSDatajPf(%struct.POVMSData* %54, i32 1145528685, float* %f), !dbg !1585
  %55 = load float, float* %f, align 4, !dbg !1586
  %conv97 = fpext float %55 to double, !dbg !1587
  call void (%"class.pov_frontend::MessageOutput"*, i32, i8*, ...) @_ZN12pov_frontend13MessageOutput6PrintfEiPKcz(%"class.pov_frontend::MessageOutput"* %this2, i32 4, i8* getelementptr inbounds ([40 x i8], [40 x i8]* @.str.27, i64 0, i64 0), double %conv97), !dbg !1588
  br label %if.end99, !dbg !1589

if.else98:                                        ; preds = %if.end92
  call void (%"class.pov_frontend::MessageOutput"*, i32, i8*, ...) @_ZN12pov_frontend13MessageOutput6PrintfEiPKcz(%"class.pov_frontend::MessageOutput"* %this2, i32 4, i8* getelementptr inbounds ([28 x i8], [28 x i8]* @.str.28, i64 0, i64 0)), !dbg !1590
  br label %if.end99

if.end99:                                         ; preds = %if.else98, %if.then95
  store i32 0, i32* %i, align 4, !dbg !1591
  %56 = load %struct.POVMSData*, %struct.POVMSData** %msg.addr, align 8, !dbg !1592
  %call100 = call i32 @_Z16POVMSUtil_GetIntP9POVMSDatajPi(%struct.POVMSData* %56, i32 1347646547, i32* %i), !dbg !1593
  %57 = load i32, i32* %i, align 4, !dbg !1594
  %cmp101 = icmp sgt i32 %57, 1, !dbg !1596
  br i1 %cmp101, label %if.then102, label %if.else104, !dbg !1597

if.then102:                                       ; preds = %if.end99
  store i32 0, i32* %i2, align 4, !dbg !1598
  %58 = load %struct.POVMSData*, %struct.POVMSData** %msg.addr, align 8, !dbg !1600
  %call103 = call i32 @_Z16POVMSUtil_GetIntP9POVMSDatajPi(%struct.POVMSData* %58, i32 1346727507, i32* %i2), !dbg !1601
  %59 = load i32, i32* %i, align 4, !dbg !1602
  %60 = load i32, i32* %i2, align 4, !dbg !1603
  call void (%"class.pov_frontend::MessageOutput"*, i32, i8*, ...) @_ZN12pov_frontend13MessageOutput6PrintfEiPKcz(%"class.pov_frontend::MessageOutput"* %this2, i32 4, i8* getelementptr inbounds ([51 x i8], [51 x i8]* @.str.29, i64 0, i64 0), i32 %59, i32 %60), !dbg !1604
  br label %if.end105, !dbg !1605

if.else104:                                       ; preds = %if.end99
  call void (%"class.pov_frontend::MessageOutput"*, i32, i8*, ...) @_ZN12pov_frontend13MessageOutput6PrintfEiPKcz(%"class.pov_frontend::MessageOutput"* %this2, i32 4, i8* getelementptr inbounds ([28 x i8], [28 x i8]* @.str.30, i64 0, i64 0)), !dbg !1606
  br label %if.end105

if.end105:                                        ; preds = %if.else104, %if.then102
  store i32 0, i32* %b, align 4, !dbg !1607
  %61 = load %struct.POVMSData*, %struct.POVMSData** %msg.addr, align 8, !dbg !1608
  %call106 = call i32 @_Z17POVMSUtil_GetBoolP9POVMSDatajPi(%struct.POVMSData* %61, i32 1128819059, i32* %b), !dbg !1609
  %62 = load i32, i32* %b, align 4, !dbg !1610
  %cmp107 = icmp eq i32 %62, 1, !dbg !1612
  br i1 %cmp107, label %if.then108, label %if.else126, !dbg !1613

if.then108:                                       ; preds = %if.end105
  %63 = load %struct.POVMSData*, %struct.POVMSData** %msg.addr, align 8, !dbg !1614
  %call109 = call i32 @_Z16POVMSUtil_GetIntP9POVMSDatajPi(%struct.POVMSData* %63, i32 1212568697, i32* %i), !dbg !1617
  %cmp110 = icmp eq i32 %call109, 0, !dbg !1618
  br i1 %cmp110, label %if.then111, label %if.end125, !dbg !1619

if.then111:                                       ; preds = %if.then108
  %64 = load i32, i32* %i, align 4, !dbg !1620
  switch i32 %64, label %sw.default117 [
    i32 67, label %sw.bb112
    i32 99, label %sw.bb112
    i32 84, label %sw.bb113
    i32 116, label %sw.bb113
    i32 78, label %sw.bb114
    i32 110, label %sw.bb114
    i32 80, label %sw.bb115
    i32 112, label %sw.bb115
    i32 83, label %sw.bb116
    i32 115, label %sw.bb116
  ], !dbg !1622

sw.bb112:                                         ; preds = %if.then111, %if.then111
  store i8* getelementptr inbounds ([4 x i8], [4 x i8]* @.str.31, i64 0, i64 0), i8** %t, align 8, !dbg !1623
  br label %sw.epilog118, !dbg !1625

sw.bb113:                                         ; preds = %if.then111, %if.then111
  store i8* getelementptr inbounds ([4 x i8], [4 x i8]* @.str.32, i64 0, i64 0), i8** %t, align 8, !dbg !1626
  br label %sw.epilog118, !dbg !1627

sw.bb114:                                         ; preds = %if.then111, %if.then111
  store i8* getelementptr inbounds ([4 x i8], [4 x i8]* @.str.18, i64 0, i64 0), i8** %t, align 8, !dbg !1628
  br label %sw.epilog118, !dbg !1629

sw.bb115:                                         ; preds = %if.then111, %if.then111
  store i8* getelementptr inbounds ([4 x i8], [4 x i8]* @.str.20, i64 0, i64 0), i8** %t, align 8, !dbg !1630
  br label %sw.epilog118, !dbg !1631

sw.bb116:                                         ; preds = %if.then111, %if.then111
  store i8* getelementptr inbounds ([16 x i8], [16 x i8]* @.str.21, i64 0, i64 0), i8** %t, align 8, !dbg !1632
  br label %sw.epilog118, !dbg !1633

sw.default117:                                    ; preds = %if.then111
  store i8* getelementptr inbounds ([7 x i8], [7 x i8]* @.str.23, i64 0, i64 0), i8** %t, align 8, !dbg !1634
  br label %sw.epilog118, !dbg !1635

sw.epilog118:                                     ; preds = %sw.default117, %sw.bb116, %sw.bb115, %sw.bb114, %sw.bb113, %sw.bb112
  store i32 0, i32* %i, align 4, !dbg !1636
  store i32 0, i32* %i2, align 4, !dbg !1637
  store i32 1023, i32* %l, align 4, !dbg !1638
  %arrayidx119 = getelementptr inbounds [1024 x i8], [1024 x i8]* %charbuf, i64 0, i64 0, !dbg !1639
  store i8 0, i8* %arrayidx119, align 16, !dbg !1640
  %65 = load %struct.POVMSData*, %struct.POVMSData** %msg.addr, align 8, !dbg !1641
  %call120 = call i32 @_Z16POVMSUtil_GetIntP9POVMSDatajPi(%struct.POVMSData* %65, i32 1212633944, i32* %i), !dbg !1642
  %66 = load %struct.POVMSData*, %struct.POVMSData** %msg.addr, align 8, !dbg !1643
  %call121 = call i32 @_Z16POVMSUtil_GetIntP9POVMSDatajPi(%struct.POVMSData* %66, i32 1212633945, i32* %i2), !dbg !1644
  %67 = load %struct.POVMSData*, %struct.POVMSData** %msg.addr, align 8, !dbg !1645
  %arraydecay122 = getelementptr inbounds [1024 x i8], [1024 x i8]* %charbuf, i64 0, i64 0, !dbg !1646
  %call123 = call i32 @_Z19POVMSUtil_GetStringP9POVMSDatajPcPi(%struct.POVMSData* %67, i32 1212567137, i8* %arraydecay122, i32* %l), !dbg !1647
  %arraydecay124 = getelementptr inbounds [1024 x i8], [1024 x i8]* %charbuf, i64 0, i64 0, !dbg !1648
  %68 = load i8*, i8** %t, align 8, !dbg !1649
  %69 = load i32, i32* %i, align 4, !dbg !1650
  %70 = load i32, i32* %i2, align 4, !dbg !1651
  call void (%"class.pov_frontend::MessageOutput"*, i32, i8*, ...) @_ZN12pov_frontend13MessageOutput6PrintfEiPKcz(%"class.pov_frontend::MessageOutput"* %this2, i32 4, i8* getelementptr inbounds ([61 x i8], [61 x i8]* @.str.33, i64 0, i64 0), i8* %arraydecay124, i8* %68, i32 %69, i32 %70), !dbg !1652
  br label %if.end125, !dbg !1653

if.end125:                                        ; preds = %sw.epilog118, %if.then108
  br label %if.end127, !dbg !1654

if.else126:                                       ; preds = %if.end105
  call void (%"class.pov_frontend::MessageOutput"*, i32, i8*, ...) @_ZN12pov_frontend13MessageOutput6PrintfEiPKcz(%"class.pov_frontend::MessageOutput"* %this2, i32 4, i8* getelementptr inbounds ([28 x i8], [28 x i8]* @.str.34, i64 0, i64 0)), !dbg !1655
  br label %if.end127

if.end127:                                        ; preds = %if.else126, %if.end125
  %71 = load %struct.POVMSData*, %struct.POVMSData** %msg.addr, align 8, !dbg !1656
  %call128 = call i8* @_ZN12pov_frontend13MessageOutput21GetOptionSwitchStringEP9POVMSDatajb(%"class.pov_frontend::MessageOutput"* %this2, %struct.POVMSData* %71, i32 1131376212, i1 zeroext false), !dbg !1657
  call void (%"class.pov_frontend::MessageOutput"*, i32, i8*, ...) @_ZN12pov_frontend13MessageOutput6PrintfEiPKcz(%"class.pov_frontend::MessageOutput"* %this2, i32 4, i8* getelementptr inbounds ([26 x i8], [26 x i8]* @.str.35, i64 0, i64 0), i8* %call128), !dbg !1658
  call void (%"class.pov_frontend::MessageOutput"*, i32, i8*, ...) @_ZN12pov_frontend13MessageOutput6PrintfEiPKcz(%"class.pov_frontend::MessageOutput"* %this2, i32 4, i8* getelementptr inbounds ([17 x i8], [17 x i8]* @.str.36, i64 0, i64 0)), !dbg !1659
  store i32 0, i32* %i, align 4, !dbg !1660
  %72 = load %struct.POVMSData*, %struct.POVMSData** %msg.addr, align 8, !dbg !1661
  %call129 = call i32 @_Z16POVMSUtil_GetIntP9POVMSDatajPi(%struct.POVMSData* %72, i32 1366647148, i32* %i), !dbg !1662
  %73 = load i32, i32* %i, align 4, !dbg !1663
  call void (%"class.pov_frontend::MessageOutput"*, i32, i8*, ...) @_ZN12pov_frontend13MessageOutput6PrintfEiPKcz(%"class.pov_frontend::MessageOutput"* %this2, i32 4, i8* getelementptr inbounds ([16 x i8], [16 x i8]* @.str.37, i64 0, i64 0), i32 %73), !dbg !1664
  store i32 0, i32* %b, align 4, !dbg !1665
  %74 = load %struct.POVMSData*, %struct.POVMSData** %msg.addr, align 8, !dbg !1666
  %call130 = call i32 @_Z17POVMSUtil_GetBoolP9POVMSDatajPi(%struct.POVMSData* %74, i32 1114600814, i32* %b), !dbg !1667
  %75 = load i32, i32* %b, align 4, !dbg !1668
  %cmp131 = icmp eq i32 %75, 1, !dbg !1670
  br i1 %cmp131, label %if.then132, label %if.else134, !dbg !1671

if.then132:                                       ; preds = %if.end127
  store i32 0, i32* %i, align 4, !dbg !1672
  %76 = load %struct.POVMSData*, %struct.POVMSData** %msg.addr, align 8, !dbg !1674
  %call133 = call i32 @_Z16POVMSUtil_GetIntP9POVMSDatajPi(%struct.POVMSData* %76, i32 1113871464, i32* %i), !dbg !1675
  %77 = load i32, i32* %i, align 4, !dbg !1676
  call void (%"class.pov_frontend::MessageOutput"*, i32, i8*, ...) @_ZN12pov_frontend13MessageOutput6PrintfEiPKcz(%"class.pov_frontend::MessageOutput"* %this2, i32 4, i8* getelementptr inbounds ([52 x i8], [52 x i8]* @.str.38, i64 0, i64 0), i32 %77), !dbg !1677
  br label %if.end135, !dbg !1678

if.else134:                                       ; preds = %if.end127
  call void (%"class.pov_frontend::MessageOutput"*, i32, i8*, ...) @_ZN12pov_frontend13MessageOutput6PrintfEiPKcz(%"class.pov_frontend::MessageOutput"* %this2, i32 4, i8* getelementptr inbounds ([28 x i8], [28 x i8]* @.str.39, i64 0, i64 0)), !dbg !1679
  br label %if.end135

if.end135:                                        ; preds = %if.else134, %if.then132
  %78 = load %struct.POVMSData*, %struct.POVMSData** %msg.addr, align 8, !dbg !1680
  %call136 = call i8* @_ZN12pov_frontend13MessageOutput21GetOptionSwitchStringEP9POVMSDatajb(%"class.pov_frontend::MessageOutput"* %this2, %struct.POVMSData* %78, i32 1279423846, i1 zeroext false), !dbg !1681
  call void (%"class.pov_frontend::MessageOutput"*, i32, i8*, ...) @_ZN12pov_frontend13MessageOutput6PrintfEiPKcz(%"class.pov_frontend::MessageOutput"* %this2, i32 4, i8* getelementptr inbounds ([26 x i8], [26 x i8]* @.str.40, i64 0, i64 0), i8* %call136), !dbg !1682
  %79 = load %struct.POVMSData*, %struct.POVMSData** %msg.addr, align 8, !dbg !1683
  %call137 = call i8* @_ZN12pov_frontend13MessageOutput21GetOptionSwitchStringEP9POVMSDatajb(%"class.pov_frontend::MessageOutput"* %this2, %struct.POVMSData* %79, i32 1447196006, i1 zeroext false), !dbg !1684
  call void (%"class.pov_frontend::MessageOutput"*, i32, i8*, ...) @_ZN12pov_frontend13MessageOutput6PrintfEiPKcz(%"class.pov_frontend::MessageOutput"* %this2, i32 4, i8* getelementptr inbounds ([27 x i8], [27 x i8]* @.str.41, i64 0, i64 0), i8* %call137), !dbg !1685
  store i32 0, i32* %b, align 4, !dbg !1686
  %80 = load %struct.POVMSData*, %struct.POVMSData** %msg.addr, align 8, !dbg !1687
  %call138 = call i32 @_Z17POVMSUtil_GetBoolP9POVMSDatajPi(%struct.POVMSData* %80, i32 1447196006, i32* %b), !dbg !1688
  %81 = load i32, i32* %b, align 4, !dbg !1689
  %cmp139 = icmp eq i32 %81, 1, !dbg !1691
  br i1 %cmp139, label %if.then140, label %if.end142, !dbg !1692

if.then140:                                       ; preds = %if.end135
  %82 = load %struct.POVMSData*, %struct.POVMSData** %msg.addr, align 8, !dbg !1693
  %call141 = call i8* @_ZN12pov_frontend13MessageOutput21GetOptionSwitchStringEP9POVMSDatajb(%"class.pov_frontend::MessageOutput"* %this2, %struct.POVMSData* %82, i32 1148343913, i1 zeroext false), !dbg !1694
  call void (%"class.pov_frontend::MessageOutput"*, i32, i8*, ...) @_ZN12pov_frontend13MessageOutput6PrintfEiPKcz(%"class.pov_frontend::MessageOutput"* %this2, i32 4, i8* getelementptr inbounds ([25 x i8], [25 x i8]* @.str.42, i64 0, i64 0), i8* %call141), !dbg !1695
  br label %if.end142, !dbg !1695

if.end142:                                        ; preds = %if.then140, %if.end135
  call void (%"class.pov_frontend::MessageOutput"*, i32, i8*, ...) @_ZN12pov_frontend13MessageOutput6PrintfEiPKcz(%"class.pov_frontend::MessageOutput"* %this2, i32 4, i8* getelementptr inbounds ([2 x i8], [2 x i8]* @.str.1, i64 0, i64 0)), !dbg !1696
  store i32 0, i32* %b, align 4, !dbg !1697
  %83 = load %struct.POVMSData*, %struct.POVMSData** %msg.addr, align 8, !dbg !1698
  %call143 = call i32 @_Z17POVMSUtil_GetBoolP9POVMSDatajPi(%struct.POVMSData* %83, i32 1097757801, i32* %b), !dbg !1699
  %84 = load i32, i32* %b, align 4, !dbg !1700
  %cmp144 = icmp eq i32 %84, 1, !dbg !1702
  br i1 %cmp144, label %if.then145, label %if.else161, !dbg !1703

if.then145:                                       ; preds = %if.end142
  store i32 0, i32* %i, align 4, !dbg !1704
  store i32 0, i32* %i2, align 4, !dbg !1706
  store float 0.000000e+00, float* %f, align 4, !dbg !1707
  store float 0.000000e+00, float* %f2, align 4, !dbg !1708
  %85 = load %struct.POVMSData*, %struct.POVMSData** %msg.addr, align 8, !dbg !1709
  %call146 = call i32 @_Z16POVMSUtil_GetIntP9POVMSDatajPi(%struct.POVMSData* %85, i32 1094800205, i32* %i), !dbg !1710
  %86 = load %struct.POVMSData*, %struct.POVMSData** %msg.addr, align 8, !dbg !1711
  %call147 = call i32 @_Z16POVMSUtil_GetIntP9POVMSDatajPi(%struct.POVMSData* %86, i32 1094796389, i32* %i2), !dbg !1712
  %87 = load %struct.POVMSData*, %struct.POVMSData** %msg.addr, align 8, !dbg !1713
  %call148 = call i32 @_Z18POVMSUtil_GetFloatP9POVMSDatajPf(%struct.POVMSData* %87, i32 1094800488, float* %f), !dbg !1714
  %88 = load %struct.POVMSData*, %struct.POVMSData** %msg.addr, align 8, !dbg !1715
  %call149 = call i32 @_Z18POVMSUtil_GetFloatP9POVMSDatajPf(%struct.POVMSData* %88, i32 1094797889, float* %f2), !dbg !1716
  store i32 0, i32* %b, align 4, !dbg !1717
  %89 = load %struct.POVMSData*, %struct.POVMSData** %msg.addr, align 8, !dbg !1718
  %call150 = call i32 @_Z17POVMSUtil_GetBoolP9POVMSDatajPi(%struct.POVMSData* %89, i32 1094796140, i32* %b), !dbg !1719
  %90 = load i32, i32* %i, align 4, !dbg !1720
  %91 = load float, float* %f, align 4, !dbg !1721
  %conv151 = fpext float %91 to double, !dbg !1722
  %92 = load i32, i32* %i2, align 4, !dbg !1723
  %93 = load float, float* %f2, align 4, !dbg !1724
  %conv152 = fpext float %93 to double, !dbg !1725
  call void (%"class.pov_frontend::MessageOutput"*, i32, i8*, ...) @_ZN12pov_frontend13MessageOutput6PrintfEiPKcz(%"class.pov_frontend::MessageOutput"* %this2, i32 4, i8* getelementptr inbounds ([27 x i8], [27 x i8]* @.str.43, i64 0, i64 0), i32 %90, double %conv151, i32 %92, double %conv152), !dbg !1726
  %94 = load i32, i32* %b, align 4, !dbg !1727
  %cmp153 = icmp eq i32 %94, 1, !dbg !1729
  br i1 %cmp153, label %if.then154, label %if.else157, !dbg !1730

if.then154:                                       ; preds = %if.then145
  %95 = load i32, i32* %i, align 4, !dbg !1731
  %96 = load float, float* %f, align 4, !dbg !1732
  %conv155 = fpext float %96 to double, !dbg !1733
  %97 = load i32, i32* %i2, align 4, !dbg !1734
  %98 = load float, float* %f2, align 4, !dbg !1735
  %conv156 = fpext float %98 to double, !dbg !1736
  call void (%"class.pov_frontend::MessageOutput"*, i32, i8*, ...) @_ZN12pov_frontend13MessageOutput6PrintfEiPKcz(%"class.pov_frontend::MessageOutput"* %this2, i32 4, i8* getelementptr inbounds ([75 x i8], [75 x i8]* @.str.44, i64 0, i64 0), i32 %95, double %conv155, i32 %97, double %conv156), !dbg !1737
  br label %if.end160, !dbg !1737

if.else157:                                       ; preds = %if.then145
  %99 = load i32, i32* %i, align 4, !dbg !1738
  %100 = load float, float* %f, align 4, !dbg !1739
  %conv158 = fpext float %100 to double, !dbg !1740
  %101 = load i32, i32* %i2, align 4, !dbg !1741
  %102 = load float, float* %f2, align 4, !dbg !1742
  %conv159 = fpext float %102 to double, !dbg !1743
  call void (%"class.pov_frontend::MessageOutput"*, i32, i8*, ...) @_ZN12pov_frontend13MessageOutput6PrintfEiPKcz(%"class.pov_frontend::MessageOutput"* %this2, i32 4, i8* getelementptr inbounds ([77 x i8], [77 x i8]* @.str.45, i64 0, i64 0), i32 %99, double %conv158, i32 %101, double %conv159), !dbg !1744
  br label %if.end160

if.end160:                                        ; preds = %if.else157, %if.then154
  br label %if.end162, !dbg !1745

if.else161:                                       ; preds = %if.end142
  call void (%"class.pov_frontend::MessageOutput"*, i32, i8*, ...) @_ZN12pov_frontend13MessageOutput6PrintfEiPKcz(%"class.pov_frontend::MessageOutput"* %this2, i32 4, i8* getelementptr inbounds ([28 x i8], [28 x i8]* @.str.46, i64 0, i64 0)), !dbg !1746
  br label %if.end162

if.end162:                                        ; preds = %if.else161, %if.end160
  store i32 1, i32* %i, align 4, !dbg !1747
  store i32 1, i32* %i2, align 4, !dbg !1748
  store float 0.000000e+00, float* %f, align 4, !dbg !1749
  %103 = load %struct.POVMSData*, %struct.POVMSData** %msg.addr, align 8, !dbg !1750
  %call163 = call i32 @_Z16POVMSUtil_GetIntP9POVMSDatajPi(%struct.POVMSData* %103, i32 1229353581, i32* %i), !dbg !1751
  %104 = load %struct.POVMSData*, %struct.POVMSData** %msg.addr, align 8, !dbg !1752
  %call164 = call i32 @_Z16POVMSUtil_GetIntP9POVMSDatajPi(%struct.POVMSData* %104, i32 1179021933, i32* %i2), !dbg !1753
  %105 = load %struct.POVMSData*, %struct.POVMSData** %msg.addr, align 8, !dbg !1754
  %call165 = call i32 @_Z18POVMSUtil_GetFloatP9POVMSDatajPf(%struct.POVMSData* %105, i32 1131176811, float* %f), !dbg !1755
  %106 = load i32, i32* %i, align 4, !dbg !1756
  %cmp166 = icmp ne i32 %106, 1, !dbg !1758
  br i1 %cmp166, label %if.then173, label %lor.lhs.false, !dbg !1759

lor.lhs.false:                                    ; preds = %if.end162
  %107 = load i32, i32* %i2, align 4, !dbg !1760
  %cmp167 = icmp ne i32 %107, 1, !dbg !1761
  br i1 %cmp167, label %if.then173, label %lor.lhs.false168, !dbg !1762

lor.lhs.false168:                                 ; preds = %lor.lhs.false
  %108 = load i32, i32* %i, align 4, !dbg !1763
  %109 = load i32, i32* %i2, align 4, !dbg !1764
  %cmp169 = icmp ne i32 %108, %109, !dbg !1765
  br i1 %cmp169, label %if.then173, label %lor.lhs.false170, !dbg !1766

lor.lhs.false170:                                 ; preds = %lor.lhs.false168
  %110 = load float, float* %f, align 4, !dbg !1767
  %conv171 = fpext float %110 to double, !dbg !1767
  %cmp172 = fcmp une double %conv171, 0.000000e+00, !dbg !1768
  br i1 %cmp172, label %if.then173, label %if.else181, !dbg !1769

if.then173:                                       ; preds = %lor.lhs.false170, %lor.lhs.false168, %lor.lhs.false, %if.end162
  call void (%"class.pov_frontend::MessageOutput"*, i32, i8*, ...) @_ZN12pov_frontend13MessageOutput6PrintfEiPKcz(%"class.pov_frontend::MessageOutput"* %this2, i32 4, i8* getelementptr inbounds ([19 x i8], [19 x i8]* @.str.47, i64 0, i64 0)), !dbg !1770
  %111 = load i32, i32* %i, align 4, !dbg !1772
  %112 = load i32, i32* %i2, align 4, !dbg !1773
  call void (%"class.pov_frontend::MessageOutput"*, i32, i8*, ...) @_ZN12pov_frontend13MessageOutput6PrintfEiPKcz(%"class.pov_frontend::MessageOutput"* %this2, i32 4, i8* getelementptr inbounds ([40 x i8], [40 x i8]* @.str.48, i64 0, i64 0), i32 %111, i32 %112), !dbg !1774
  store float 0.000000e+00, float* %f, align 4, !dbg !1775
  store float 0.000000e+00, float* %f2, align 4, !dbg !1776
  %113 = load %struct.POVMSData*, %struct.POVMSData** %msg.addr, align 8, !dbg !1777
  %call174 = call i32 @_Z18POVMSUtil_GetFloatP9POVMSDatajPf(%struct.POVMSData* %113, i32 1229155435, float* %f), !dbg !1778
  %114 = load %struct.POVMSData*, %struct.POVMSData** %msg.addr, align 8, !dbg !1779
  %call175 = call i32 @_Z18POVMSUtil_GetFloatP9POVMSDatajPf(%struct.POVMSData* %114, i32 1178823787, float* %f2), !dbg !1780
  %115 = load float, float* %f, align 4, !dbg !1781
  %conv176 = fpext float %115 to double, !dbg !1782
  %116 = load float, float* %f2, align 4, !dbg !1783
  %conv177 = fpext float %116 to double, !dbg !1784
  call void (%"class.pov_frontend::MessageOutput"*, i32, i8*, ...) @_ZN12pov_frontend13MessageOutput6PrintfEiPKcz(%"class.pov_frontend::MessageOutput"* %this2, i32 4, i8* getelementptr inbounds ([44 x i8], [44 x i8]* @.str.49, i64 0, i64 0), double %conv176, double %conv177), !dbg !1785
  %117 = load %struct.POVMSData*, %struct.POVMSData** %msg.addr, align 8, !dbg !1786
  %call178 = call i8* @_ZN12pov_frontend13MessageOutput21GetOptionSwitchStringEP9POVMSDatajb(%"class.pov_frontend::MessageOutput"* %this2, %struct.POVMSData* %117, i32 1132031041, i1 zeroext false), !dbg !1787
  %118 = load %struct.POVMSData*, %struct.POVMSData** %msg.addr, align 8, !dbg !1788
  %call179 = call i8* @_ZN12pov_frontend13MessageOutput21GetOptionSwitchStringEP9POVMSDatajb(%"class.pov_frontend::MessageOutput"* %this2, %struct.POVMSData* %118, i32 1181508690, i1 zeroext false), !dbg !1789
  %119 = load %struct.POVMSData*, %struct.POVMSData** %msg.addr, align 8, !dbg !1790
  %call180 = call i8* @_ZN12pov_frontend13MessageOutput21GetOptionSwitchStringEP9POVMSDatajb(%"class.pov_frontend::MessageOutput"* %this2, %struct.POVMSData* %119, i32 1331979334, i1 zeroext false), !dbg !1791
  call void (%"class.pov_frontend::MessageOutput"*, i32, i8*, ...) @_ZN12pov_frontend13MessageOutput6PrintfEiPKcz(%"class.pov_frontend::MessageOutput"* %this2, i32 4, i8* getelementptr inbounds ([73 x i8], [73 x i8]* @.str.50, i64 0, i64 0), i8* %call178, i8* %call179, i8* %call180), !dbg !1792
  br label %if.end183, !dbg !1793

if.else181:                                       ; preds = %lor.lhs.false170
  %120 = load float, float* %f, align 4, !dbg !1794
  %conv182 = fpext float %120 to double, !dbg !1795
  call void (%"class.pov_frontend::MessageOutput"*, i32, i8*, ...) @_ZN12pov_frontend13MessageOutput6PrintfEiPKcz(%"class.pov_frontend::MessageOutput"* %this2, i32 4, i8* getelementptr inbounds ([38 x i8], [38 x i8]* @.str.51, i64 0, i64 0), double %conv182), !dbg !1796
  br label %if.end183

if.end183:                                        ; preds = %if.else181, %if.then173
  call void (%"class.pov_frontend::MessageOutput"*, i32, i8*, ...) @_ZN12pov_frontend13MessageOutput6PrintfEiPKcz(%"class.pov_frontend::MessageOutput"* %this2, i32 4, i8* getelementptr inbounds ([2 x i8], [2 x i8]* @.str.1, i64 0, i64 0)), !dbg !1797
  ret void, !dbg !1798
}

; Function Attrs: noinline uwtable
define dso_local void @_ZN12pov_frontend13MessageOutput13RenderStartedEP9POVMSDataS2_i(%"class.pov_frontend::MessageOutput"* %this, %struct.POVMSData* %msg, %struct.POVMSData* %0, i32 %1) #0 align 2 !dbg !1799 {
entry:
  %this.addr = alloca %"class.pov_frontend::MessageOutput"*, align 8
  %msg.addr = alloca %struct.POVMSData*, align 8
  %.addr = alloca %struct.POVMSData*, align 8
  %.addr1 = alloca i32, align 4
  %streamTypeUtilData = alloca [8 x i32], align 16
  %b = alloca i32, align 4
  %i = alloca i32, align 4
  %l = alloca i32, align 4
  store %"class.pov_frontend::MessageOutput"* %this, %"class.pov_frontend::MessageOutput"** %this.addr, align 8
  call void @llvm.dbg.declare(metadata %"class.pov_frontend::MessageOutput"** %this.addr, metadata !1800, metadata !DIExpression()), !dbg !1801
  store %struct.POVMSData* %msg, %struct.POVMSData** %msg.addr, align 8
  call void @llvm.dbg.declare(metadata %struct.POVMSData** %msg.addr, metadata !1802, metadata !DIExpression()), !dbg !1803
  store %struct.POVMSData* %0, %struct.POVMSData** %.addr, align 8
  call void @llvm.dbg.declare(metadata %struct.POVMSData** %.addr, metadata !1804, metadata !DIExpression()), !dbg !1805
  store i32 %1, i32* %.addr1, align 4
  call void @llvm.dbg.declare(metadata i32* %.addr1, metadata !1806, metadata !DIExpression()), !dbg !1807
  %this2 = load %"class.pov_frontend::MessageOutput"*, %"class.pov_frontend::MessageOutput"** %this.addr, align 8
  call void @llvm.dbg.declare(metadata [8 x i32]* %streamTypeUtilData, metadata !1808, metadata !DIExpression()), !dbg !1810
  %2 = bitcast [8 x i32]* %streamTypeUtilData to i8*, !dbg !1810
  call void @llvm.memcpy.p0i8.p0i8.i64(i8* align 16 %2, i8* align 16 bitcast ([8 x i32]* @__const._ZN12pov_frontend13MessageOutput13RenderStartedEP9POVMSDataS2_i.streamTypeUtilData to i8*), i64 32, i1 false), !dbg !1810
  call void @llvm.dbg.declare(metadata i32* %b, metadata !1811, metadata !DIExpression()), !dbg !1812
  store i32 1, i32* %b, align 4, !dbg !1813
  %3 = load %struct.POVMSData*, %struct.POVMSData** %msg.addr, align 8, !dbg !1814
  %call = call i32 @_Z17POVMSObject_ExistP9POVMSDataj(%struct.POVMSData* %3, i32 1094938478), !dbg !1816
  %cmp = icmp eq i32 %call, 0, !dbg !1817
  br i1 %cmp, label %if.then, label %if.end, !dbg !1818

if.then:                                          ; preds = %entry
  %4 = load %struct.POVMSData*, %struct.POVMSData** %msg.addr, align 8, !dbg !1819
  %call3 = call i32 @_Z17POVMSUtil_GetBoolP9POVMSDatajPi(%struct.POVMSData* %4, i32 1094938478, i32* %b), !dbg !1820
  br label %if.end, !dbg !1821

if.end:                                           ; preds = %if.then, %entry
  %5 = load i32, i32* %b, align 4, !dbg !1822
  %tobool = icmp ne i32 %5, 0, !dbg !1822
  %consoleoutput = getelementptr inbounds %"class.pov_frontend::MessageOutput", %"class.pov_frontend::MessageOutput"* %this2, i32 0, i32 3, !dbg !1823
  %arrayidx = getelementptr inbounds [8 x i8], [8 x i8]* %consoleoutput, i64 0, i64 7, !dbg !1823
  %frombool = zext i1 %tobool to i8, !dbg !1824
  store i8 %frombool, i8* %arrayidx, align 1, !dbg !1824
  %consoleoutput4 = getelementptr inbounds %"class.pov_frontend::MessageOutput", %"class.pov_frontend::MessageOutput"* %this2, i32 0, i32 3, !dbg !1825
  %arrayidx5 = getelementptr inbounds [8 x i8], [8 x i8]* %consoleoutput4, i64 0, i64 6, !dbg !1825
  %frombool6 = zext i1 %tobool to i8, !dbg !1826
  store i8 %frombool6, i8* %arrayidx5, align 2, !dbg !1826
  %consoleoutput7 = getelementptr inbounds %"class.pov_frontend::MessageOutput", %"class.pov_frontend::MessageOutput"* %this2, i32 0, i32 3, !dbg !1827
  %arrayidx8 = getelementptr inbounds [8 x i8], [8 x i8]* %consoleoutput7, i64 0, i64 5, !dbg !1827
  %frombool9 = zext i1 %tobool to i8, !dbg !1828
  store i8 %frombool9, i8* %arrayidx8, align 1, !dbg !1828
  %consoleoutput10 = getelementptr inbounds %"class.pov_frontend::MessageOutput", %"class.pov_frontend::MessageOutput"* %this2, i32 0, i32 3, !dbg !1829
  %arrayidx11 = getelementptr inbounds [8 x i8], [8 x i8]* %consoleoutput10, i64 0, i64 4, !dbg !1829
  %frombool12 = zext i1 %tobool to i8, !dbg !1830
  store i8 %frombool12, i8* %arrayidx11, align 4, !dbg !1830
  %consoleoutput13 = getelementptr inbounds %"class.pov_frontend::MessageOutput", %"class.pov_frontend::MessageOutput"* %this2, i32 0, i32 3, !dbg !1831
  %arrayidx14 = getelementptr inbounds [8 x i8], [8 x i8]* %consoleoutput13, i64 0, i64 3, !dbg !1831
  %frombool15 = zext i1 %tobool to i8, !dbg !1832
  store i8 %frombool15, i8* %arrayidx14, align 1, !dbg !1832
  %consoleoutput16 = getelementptr inbounds %"class.pov_frontend::MessageOutput", %"class.pov_frontend::MessageOutput"* %this2, i32 0, i32 3, !dbg !1833
  %arrayidx17 = getelementptr inbounds [8 x i8], [8 x i8]* %consoleoutput16, i64 0, i64 2, !dbg !1833
  %frombool18 = zext i1 %tobool to i8, !dbg !1834
  store i8 %frombool18, i8* %arrayidx17, align 2, !dbg !1834
  %consoleoutput19 = getelementptr inbounds %"class.pov_frontend::MessageOutput", %"class.pov_frontend::MessageOutput"* %this2, i32 0, i32 3, !dbg !1835
  %arrayidx20 = getelementptr inbounds [8 x i8], [8 x i8]* %consoleoutput19, i64 0, i64 1, !dbg !1835
  %frombool21 = zext i1 %tobool to i8, !dbg !1836
  store i8 %frombool21, i8* %arrayidx20, align 1, !dbg !1836
  %consoleoutput22 = getelementptr inbounds %"class.pov_frontend::MessageOutput", %"class.pov_frontend::MessageOutput"* %this2, i32 0, i32 3, !dbg !1837
  %arrayidx23 = getelementptr inbounds [8 x i8], [8 x i8]* %consoleoutput22, i64 0, i64 0, !dbg !1837
  %frombool24 = zext i1 %tobool to i8, !dbg !1838
  store i8 %frombool24, i8* %arrayidx23, align 8, !dbg !1838
  store i32 1, i32* %b, align 4, !dbg !1839
  %6 = load %struct.POVMSData*, %struct.POVMSData** %msg.addr, align 8, !dbg !1840
  %call25 = call i32 @_Z17POVMSObject_ExistP9POVMSDataj(%struct.POVMSData* %6, i32 1145270126), !dbg !1842
  %cmp26 = icmp eq i32 %call25, 0, !dbg !1843
  br i1 %cmp26, label %if.then27, label %if.end29, !dbg !1844

if.then27:                                        ; preds = %if.end
  %7 = load %struct.POVMSData*, %struct.POVMSData** %msg.addr, align 8, !dbg !1845
  %call28 = call i32 @_Z17POVMSUtil_GetBoolP9POVMSDatajPi(%struct.POVMSData* %7, i32 1145270126, i32* %b), !dbg !1846
  br label %if.end29, !dbg !1847

if.end29:                                         ; preds = %if.then27, %if.end
  %8 = load i32, i32* %b, align 4, !dbg !1848
  %tobool30 = icmp ne i32 %8, 0, !dbg !1848
  %consoleoutput31 = getelementptr inbounds %"class.pov_frontend::MessageOutput", %"class.pov_frontend::MessageOutput"* %this2, i32 0, i32 3, !dbg !1849
  %arrayidx32 = getelementptr inbounds [8 x i8], [8 x i8]* %consoleoutput31, i64 0, i64 2, !dbg !1849
  %frombool33 = zext i1 %tobool30 to i8, !dbg !1850
  store i8 %frombool33, i8* %arrayidx32, align 2, !dbg !1850
  store i32 1, i32* %b, align 4, !dbg !1851
  %9 = load %struct.POVMSData*, %struct.POVMSData** %msg.addr, align 8, !dbg !1852
  %call34 = call i32 @_Z17POVMSObject_ExistP9POVMSDataj(%struct.POVMSData* %9, i32 1178824558), !dbg !1854
  %cmp35 = icmp eq i32 %call34, 0, !dbg !1855
  br i1 %cmp35, label %if.then36, label %if.end38, !dbg !1856

if.then36:                                        ; preds = %if.end29
  %10 = load %struct.POVMSData*, %struct.POVMSData** %msg.addr, align 8, !dbg !1857
  %call37 = call i32 @_Z17POVMSUtil_GetBoolP9POVMSDatajPi(%struct.POVMSData* %10, i32 1178824558, i32* %b), !dbg !1858
  br label %if.end38, !dbg !1859

if.end38:                                         ; preds = %if.then36, %if.end29
  %11 = load i32, i32* %b, align 4, !dbg !1860
  %tobool39 = icmp ne i32 %11, 0, !dbg !1860
  %consoleoutput40 = getelementptr inbounds %"class.pov_frontend::MessageOutput", %"class.pov_frontend::MessageOutput"* %this2, i32 0, i32 3, !dbg !1861
  %arrayidx41 = getelementptr inbounds [8 x i8], [8 x i8]* %consoleoutput40, i64 0, i64 3, !dbg !1861
  %frombool42 = zext i1 %tobool39 to i8, !dbg !1862
  store i8 %frombool42, i8* %arrayidx41, align 1, !dbg !1862
  store i32 1, i32* %b, align 4, !dbg !1863
  %12 = load %struct.POVMSData*, %struct.POVMSData** %msg.addr, align 8, !dbg !1864
  %call43 = call i32 @_Z17POVMSObject_ExistP9POVMSDataj(%struct.POVMSData* %12, i32 1380151150), !dbg !1866
  %cmp44 = icmp eq i32 %call43, 0, !dbg !1867
  br i1 %cmp44, label %if.then45, label %if.end47, !dbg !1868

if.then45:                                        ; preds = %if.end38
  %13 = load %struct.POVMSData*, %struct.POVMSData** %msg.addr, align 8, !dbg !1869
  %call46 = call i32 @_Z17POVMSUtil_GetBoolP9POVMSDatajPi(%struct.POVMSData* %13, i32 1380151150, i32* %b), !dbg !1870
  br label %if.end47, !dbg !1871

if.end47:                                         ; preds = %if.then45, %if.end38
  %14 = load i32, i32* %b, align 4, !dbg !1872
  %tobool48 = icmp ne i32 %14, 0, !dbg !1872
  %consoleoutput49 = getelementptr inbounds %"class.pov_frontend::MessageOutput", %"class.pov_frontend::MessageOutput"* %this2, i32 0, i32 3, !dbg !1873
  %arrayidx50 = getelementptr inbounds [8 x i8], [8 x i8]* %consoleoutput49, i64 0, i64 4, !dbg !1873
  %frombool51 = zext i1 %tobool48 to i8, !dbg !1874
  store i8 %frombool51, i8* %arrayidx50, align 4, !dbg !1874
  store i32 1, i32* %b, align 4, !dbg !1875
  %15 = load %struct.POVMSData*, %struct.POVMSData** %msg.addr, align 8, !dbg !1876
  %call52 = call i32 @_Z17POVMSObject_ExistP9POVMSDataj(%struct.POVMSData* %15, i32 1396928366), !dbg !1878
  %cmp53 = icmp eq i32 %call52, 0, !dbg !1879
  br i1 %cmp53, label %if.then54, label %if.end56, !dbg !1880

if.then54:                                        ; preds = %if.end47
  %16 = load %struct.POVMSData*, %struct.POVMSData** %msg.addr, align 8, !dbg !1881
  %call55 = call i32 @_Z17POVMSUtil_GetBoolP9POVMSDatajPi(%struct.POVMSData* %16, i32 1396928366, i32* %b), !dbg !1882
  br label %if.end56, !dbg !1883

if.end56:                                         ; preds = %if.then54, %if.end47
  %17 = load i32, i32* %b, align 4, !dbg !1884
  %tobool57 = icmp ne i32 %17, 0, !dbg !1884
  %consoleoutput58 = getelementptr inbounds %"class.pov_frontend::MessageOutput", %"class.pov_frontend::MessageOutput"* %this2, i32 0, i32 3, !dbg !1885
  %arrayidx59 = getelementptr inbounds [8 x i8], [8 x i8]* %consoleoutput58, i64 0, i64 5, !dbg !1885
  %frombool60 = zext i1 %tobool57 to i8, !dbg !1886
  store i8 %frombool60, i8* %arrayidx59, align 1, !dbg !1886
  store i32 1, i32* %b, align 4, !dbg !1887
  %18 = load %struct.POVMSData*, %struct.POVMSData** %msg.addr, align 8, !dbg !1888
  %call61 = call i32 @_Z17POVMSObject_ExistP9POVMSDataj(%struct.POVMSData* %18, i32 1464037230), !dbg !1890
  %cmp62 = icmp eq i32 %call61, 0, !dbg !1891
  br i1 %cmp62, label %if.then63, label %if.end65, !dbg !1892

if.then63:                                        ; preds = %if.end56
  %19 = load %struct.POVMSData*, %struct.POVMSData** %msg.addr, align 8, !dbg !1893
  %call64 = call i32 @_Z17POVMSUtil_GetBoolP9POVMSDatajPi(%struct.POVMSData* %19, i32 1464037230, i32* %b), !dbg !1894
  br label %if.end65, !dbg !1895

if.end65:                                         ; preds = %if.then63, %if.end56
  %20 = load i32, i32* %b, align 4, !dbg !1896
  %tobool66 = icmp ne i32 %20, 0, !dbg !1896
  %consoleoutput67 = getelementptr inbounds %"class.pov_frontend::MessageOutput", %"class.pov_frontend::MessageOutput"* %this2, i32 0, i32 3, !dbg !1897
  %arrayidx68 = getelementptr inbounds [8 x i8], [8 x i8]* %consoleoutput67, i64 0, i64 6, !dbg !1897
  %frombool69 = zext i1 %tobool66 to i8, !dbg !1898
  store i8 %frombool69, i8* %arrayidx68, align 2, !dbg !1898
  call void @llvm.dbg.declare(metadata i32* %i, metadata !1899, metadata !DIExpression()), !dbg !1901
  store i32 0, i32* %i, align 4, !dbg !1901
  br label %for.cond, !dbg !1902

for.cond:                                         ; preds = %for.inc, %if.end65
  %21 = load i32, i32* %i, align 4, !dbg !1903
  %cmp70 = icmp slt i32 %21, 8, !dbg !1905
  br i1 %cmp70, label %for.body, label %for.end, !dbg !1906

for.body:                                         ; preds = %for.cond
  %22 = load %struct.POVMSData*, %struct.POVMSData** %msg.addr, align 8, !dbg !1907
  %23 = load i32, i32* %i, align 4, !dbg !1910
  %idxprom = sext i32 %23 to i64, !dbg !1911
  %arrayidx71 = getelementptr inbounds [8 x i32], [8 x i32]* %streamTypeUtilData, i64 0, i64 %idxprom, !dbg !1911
  %24 = load i32, i32* %arrayidx71, align 4, !dbg !1911
  %call72 = call i32 @_Z17POVMSObject_ExistP9POVMSDataj(%struct.POVMSData* %22, i32 %24), !dbg !1912
  %cmp73 = icmp eq i32 %call72, 0, !dbg !1913
  br i1 %cmp73, label %if.then74, label %if.else97, !dbg !1914

if.then74:                                        ; preds = %for.body
  call void @llvm.dbg.declare(metadata i32* %l, metadata !1915, metadata !DIExpression()), !dbg !1917
  store i32 0, i32* %l, align 4, !dbg !1917
  %25 = load %struct.POVMSData*, %struct.POVMSData** %msg.addr, align 8, !dbg !1918
  %26 = load i32, i32* %i, align 4, !dbg !1920
  %idxprom75 = sext i32 %26 to i64, !dbg !1921
  %arrayidx76 = getelementptr inbounds [8 x i32], [8 x i32]* %streamTypeUtilData, i64 0, i64 %idxprom75, !dbg !1921
  %27 = load i32, i32* %arrayidx76, align 4, !dbg !1921
  %call77 = call i32 @_Z25POVMSUtil_GetStringLengthP9POVMSDatajPi(%struct.POVMSData* %25, i32 %27, i32* %l), !dbg !1922
  %cmp78 = icmp eq i32 %call77, 0, !dbg !1923
  br i1 %cmp78, label %if.then79, label %if.else, !dbg !1924

if.then79:                                        ; preds = %if.then74
  %28 = load i32, i32* %l, align 4, !dbg !1925
  %conv = sext i32 %28 to i64, !dbg !1925
  %call80 = call i8* @_Znam(i64 %conv) #11, !dbg !1927
  %streamnames = getelementptr inbounds %"class.pov_frontend::MessageOutput", %"class.pov_frontend::MessageOutput"* %this2, i32 0, i32 2, !dbg !1928
  %29 = load i32, i32* %i, align 4, !dbg !1929
  %idxprom81 = sext i32 %29 to i64, !dbg !1928
  %arrayidx82 = getelementptr inbounds [8 x i8*], [8 x i8*]* %streamnames, i64 0, i64 %idxprom81, !dbg !1928
  store i8* %call80, i8** %arrayidx82, align 8, !dbg !1930
  %streamnames83 = getelementptr inbounds %"class.pov_frontend::MessageOutput", %"class.pov_frontend::MessageOutput"* %this2, i32 0, i32 2, !dbg !1931
  %30 = load i32, i32* %i, align 4, !dbg !1932
  %idxprom84 = sext i32 %30 to i64, !dbg !1931
  %arrayidx85 = getelementptr inbounds [8 x i8*], [8 x i8*]* %streamnames83, i64 0, i64 %idxprom84, !dbg !1931
  %31 = load i8*, i8** %arrayidx85, align 8, !dbg !1931
  %arrayidx86 = getelementptr inbounds i8, i8* %31, i64 0, !dbg !1931
  store i8 0, i8* %arrayidx86, align 1, !dbg !1933
  %32 = load %struct.POVMSData*, %struct.POVMSData** %msg.addr, align 8, !dbg !1934
  %33 = load i32, i32* %i, align 4, !dbg !1935
  %idxprom87 = sext i32 %33 to i64, !dbg !1936
  %arrayidx88 = getelementptr inbounds [8 x i32], [8 x i32]* %streamTypeUtilData, i64 0, i64 %idxprom87, !dbg !1936
  %34 = load i32, i32* %arrayidx88, align 4, !dbg !1936
  %streamnames89 = getelementptr inbounds %"class.pov_frontend::MessageOutput", %"class.pov_frontend::MessageOutput"* %this2, i32 0, i32 2, !dbg !1937
  %35 = load i32, i32* %i, align 4, !dbg !1938
  %idxprom90 = sext i32 %35 to i64, !dbg !1937
  %arrayidx91 = getelementptr inbounds [8 x i8*], [8 x i8*]* %streamnames89, i64 0, i64 %idxprom90, !dbg !1937
  %36 = load i8*, i8** %arrayidx91, align 8, !dbg !1937
  %call92 = call i32 @_Z19POVMSUtil_GetStringP9POVMSDatajPcPi(%struct.POVMSData* %32, i32 %34, i8* %36, i32* %l), !dbg !1939
  br label %if.end96, !dbg !1940

if.else:                                          ; preds = %if.then74
  %streamnames93 = getelementptr inbounds %"class.pov_frontend::MessageOutput", %"class.pov_frontend::MessageOutput"* %this2, i32 0, i32 2, !dbg !1941
  %37 = load i32, i32* %i, align 4, !dbg !1942
  %idxprom94 = sext i32 %37 to i64, !dbg !1941
  %arrayidx95 = getelementptr inbounds [8 x i8*], [8 x i8*]* %streamnames93, i64 0, i64 %idxprom94, !dbg !1941
  store i8* null, i8** %arrayidx95, align 8, !dbg !1943
  br label %if.end96

if.end96:                                         ; preds = %if.else, %if.then79
  br label %if.end101, !dbg !1944

if.else97:                                        ; preds = %for.body
  %streamnames98 = getelementptr inbounds %"class.pov_frontend::MessageOutput", %"class.pov_frontend::MessageOutput"* %this2, i32 0, i32 2, !dbg !1945
  %38 = load i32, i32* %i, align 4, !dbg !1946
  %idxprom99 = sext i32 %38 to i64, !dbg !1945
  %arrayidx100 = getelementptr inbounds [8 x i8*], [8 x i8*]* %streamnames98, i64 0, i64 %idxprom99, !dbg !1945
  store i8* null, i8** %arrayidx100, align 8, !dbg !1947
  br label %if.end101

if.end101:                                        ; preds = %if.else97, %if.end96
  br label %for.inc, !dbg !1948

for.inc:                                          ; preds = %if.end101
  %39 = load i32, i32* %i, align 4, !dbg !1949
  %inc = add nsw i32 %39, 1, !dbg !1949
  store i32 %inc, i32* %i, align 4, !dbg !1949
  br label %for.cond, !dbg !1950, !llvm.loop !1951

for.end:                                          ; preds = %for.cond
  store i32 0, i32* %b, align 4, !dbg !1953
  %40 = load %struct.POVMSData*, %struct.POVMSData** %msg.addr, align 8, !dbg !1954
  %call102 = call i32 @_Z17POVMSUtil_GetBoolP9POVMSDatajPi(%struct.POVMSData* %40, i32 1131376212, i32* %b), !dbg !1956
  %cmp103 = icmp ne i32 %call102, 0, !dbg !1957
  br i1 %cmp103, label %if.then104, label %if.end105, !dbg !1958

if.then104:                                       ; preds = %for.end
  store i32 0, i32* %b, align 4, !dbg !1959
  br label %if.end105, !dbg !1960

if.end105:                                        ; preds = %if.then104, %for.end
  %41 = load i32, i32* %b, align 4, !dbg !1961
  %tobool106 = icmp ne i32 %41, 0, !dbg !1961
  %42 = bitcast %"class.pov_frontend::MessageOutput"* %this2 to void (%"class.pov_frontend::MessageOutput"*, i1)***, !dbg !1962
  %vtable = load void (%"class.pov_frontend::MessageOutput"*, i1)**, void (%"class.pov_frontend::MessageOutput"*, i1)*** %42, align 8, !dbg !1962
  %vfn = getelementptr inbounds void (%"class.pov_frontend::MessageOutput"*, i1)*, void (%"class.pov_frontend::MessageOutput"*, i1)** %vtable, i64 2, !dbg !1962
  %43 = load void (%"class.pov_frontend::MessageOutput"*, i1)*, void (%"class.pov_frontend::MessageOutput"*, i1)** %vfn, align 8, !dbg !1962
  call void %43(%"class.pov_frontend::MessageOutput"* %this2, i1 zeroext %tobool106), !dbg !1962
  call void @_ZN12pov_frontend13MessageOutput5FlushEi(%"class.pov_frontend::MessageOutput"* %this2, i32 1), !dbg !1963
  call void @_ZN12pov_frontend13MessageOutput5FlushEi(%"class.pov_frontend::MessageOutput"* %this2, i32 2), !dbg !1964
  call void (%"class.pov_frontend::MessageOutput"*, i32, i8*, ...) @_ZN12pov_frontend13MessageOutput6PrintfEiPKcz(%"class.pov_frontend::MessageOutput"* %this2, i32 4, i8* getelementptr inbounds ([21 x i8], [21 x i8]* @.str.52, i64 0, i64 0)), !dbg !1965
  %44 = load %struct.POVMSData*, %struct.POVMSData** %msg.addr, align 8, !dbg !1966
  %call107 = call i8* @_ZN12pov_frontend13MessageOutput21GetOptionSwitchStringEP9POVMSDatajb(%"class.pov_frontend::MessageOutput"* %this2, %struct.POVMSData* %44, i32 1094938478, i1 zeroext true), !dbg !1967
  call void (%"class.pov_frontend::MessageOutput"*, i32, i8*, ...) @_ZN12pov_frontend13MessageOutput6PrintfEiPKcz(%"class.pov_frontend::MessageOutput"* %this2, i32 4, i8* getelementptr inbounds ([36 x i8], [36 x i8]* @.str.53, i64 0, i64 0), i8* %call107), !dbg !1968
  %streamnames108 = getelementptr inbounds %"class.pov_frontend::MessageOutput", %"class.pov_frontend::MessageOutput"* %this2, i32 0, i32 2, !dbg !1969
  %arrayidx109 = getelementptr inbounds [8 x i8*], [8 x i8*]* %streamnames108, i64 0, i64 7, !dbg !1969
  %45 = load i8*, i8** %arrayidx109, align 8, !dbg !1969
  %cmp110 = icmp ne i8* %45, null, !dbg !1971
  br i1 %cmp110, label %if.then111, label %if.else114, !dbg !1972

if.then111:                                       ; preds = %if.end105
  %streamnames112 = getelementptr inbounds %"class.pov_frontend::MessageOutput", %"class.pov_frontend::MessageOutput"* %this2, i32 0, i32 2, !dbg !1973
  %arrayidx113 = getelementptr inbounds [8 x i8*], [8 x i8*]* %streamnames112, i64 0, i64 7, !dbg !1973
  %46 = load i8*, i8** %arrayidx113, align 8, !dbg !1973
  call void (%"class.pov_frontend::MessageOutput"*, i32, i8*, ...) @_ZN12pov_frontend13MessageOutput6PrintfEiPKcz(%"class.pov_frontend::MessageOutput"* %this2, i32 4, i8* getelementptr inbounds ([15 x i8], [15 x i8]* @.str.54, i64 0, i64 0), i8* %46), !dbg !1974
  br label %if.end115, !dbg !1974

if.else114:                                       ; preds = %if.end105
  call void (%"class.pov_frontend::MessageOutput"*, i32, i8*, ...) @_ZN12pov_frontend13MessageOutput6PrintfEiPKcz(%"class.pov_frontend::MessageOutput"* %this2, i32 4, i8* getelementptr inbounds ([2 x i8], [2 x i8]* @.str.1, i64 0, i64 0)), !dbg !1975
  br label %if.end115

if.end115:                                        ; preds = %if.else114, %if.then111
  %47 = load %struct.POVMSData*, %struct.POVMSData** %msg.addr, align 8, !dbg !1976
  %call116 = call i8* @_ZN12pov_frontend13MessageOutput21GetOptionSwitchStringEP9POVMSDatajb(%"class.pov_frontend::MessageOutput"* %this2, %struct.POVMSData* %47, i32 1145270126, i1 zeroext true), !dbg !1977
  call void (%"class.pov_frontend::MessageOutput"*, i32, i8*, ...) @_ZN12pov_frontend13MessageOutput6PrintfEiPKcz(%"class.pov_frontend::MessageOutput"* %this2, i32 4, i8* getelementptr inbounds ([36 x i8], [36 x i8]* @.str.55, i64 0, i64 0), i8* %call116), !dbg !1978
  %streamnames117 = getelementptr inbounds %"class.pov_frontend::MessageOutput", %"class.pov_frontend::MessageOutput"* %this2, i32 0, i32 2, !dbg !1979
  %arrayidx118 = getelementptr inbounds [8 x i8*], [8 x i8*]* %streamnames117, i64 0, i64 2, !dbg !1979
  %48 = load i8*, i8** %arrayidx118, align 8, !dbg !1979
  %cmp119 = icmp ne i8* %48, null, !dbg !1981
  br i1 %cmp119, label %if.then120, label %if.else123, !dbg !1982

if.then120:                                       ; preds = %if.end115
  %streamnames121 = getelementptr inbounds %"class.pov_frontend::MessageOutput", %"class.pov_frontend::MessageOutput"* %this2, i32 0, i32 2, !dbg !1983
  %arrayidx122 = getelementptr inbounds [8 x i8*], [8 x i8*]* %streamnames121, i64 0, i64 2, !dbg !1983
  %49 = load i8*, i8** %arrayidx122, align 8, !dbg !1983
  call void (%"class.pov_frontend::MessageOutput"*, i32, i8*, ...) @_ZN12pov_frontend13MessageOutput6PrintfEiPKcz(%"class.pov_frontend::MessageOutput"* %this2, i32 4, i8* getelementptr inbounds ([15 x i8], [15 x i8]* @.str.54, i64 0, i64 0), i8* %49), !dbg !1984
  br label %if.end124, !dbg !1984

if.else123:                                       ; preds = %if.end115
  call void (%"class.pov_frontend::MessageOutput"*, i32, i8*, ...) @_ZN12pov_frontend13MessageOutput6PrintfEiPKcz(%"class.pov_frontend::MessageOutput"* %this2, i32 4, i8* getelementptr inbounds ([2 x i8], [2 x i8]* @.str.1, i64 0, i64 0)), !dbg !1985
  br label %if.end124

if.end124:                                        ; preds = %if.else123, %if.then120
  %50 = load %struct.POVMSData*, %struct.POVMSData** %msg.addr, align 8, !dbg !1986
  %call125 = call i8* @_ZN12pov_frontend13MessageOutput21GetOptionSwitchStringEP9POVMSDatajb(%"class.pov_frontend::MessageOutput"* %this2, %struct.POVMSData* %50, i32 1178824558, i1 zeroext true), !dbg !1987
  call void (%"class.pov_frontend::MessageOutput"*, i32, i8*, ...) @_ZN12pov_frontend13MessageOutput6PrintfEiPKcz(%"class.pov_frontend::MessageOutput"* %this2, i32 4, i8* getelementptr inbounds ([36 x i8], [36 x i8]* @.str.56, i64 0, i64 0), i8* %call125), !dbg !1988
  %streamnames126 = getelementptr inbounds %"class.pov_frontend::MessageOutput", %"class.pov_frontend::MessageOutput"* %this2, i32 0, i32 2, !dbg !1989
  %arrayidx127 = getelementptr inbounds [8 x i8*], [8 x i8*]* %streamnames126, i64 0, i64 3, !dbg !1989
  %51 = load i8*, i8** %arrayidx127, align 8, !dbg !1989
  %cmp128 = icmp ne i8* %51, null, !dbg !1991
  br i1 %cmp128, label %if.then129, label %if.else132, !dbg !1992

if.then129:                                       ; preds = %if.end124
  %streamnames130 = getelementptr inbounds %"class.pov_frontend::MessageOutput", %"class.pov_frontend::MessageOutput"* %this2, i32 0, i32 2, !dbg !1993
  %arrayidx131 = getelementptr inbounds [8 x i8*], [8 x i8*]* %streamnames130, i64 0, i64 3, !dbg !1993
  %52 = load i8*, i8** %arrayidx131, align 8, !dbg !1993
  call void (%"class.pov_frontend::MessageOutput"*, i32, i8*, ...) @_ZN12pov_frontend13MessageOutput6PrintfEiPKcz(%"class.pov_frontend::MessageOutput"* %this2, i32 4, i8* getelementptr inbounds ([15 x i8], [15 x i8]* @.str.54, i64 0, i64 0), i8* %52), !dbg !1994
  br label %if.end133, !dbg !1994

if.else132:                                       ; preds = %if.end124
  call void (%"class.pov_frontend::MessageOutput"*, i32, i8*, ...) @_ZN12pov_frontend13MessageOutput6PrintfEiPKcz(%"class.pov_frontend::MessageOutput"* %this2, i32 4, i8* getelementptr inbounds ([2 x i8], [2 x i8]* @.str.1, i64 0, i64 0)), !dbg !1995
  br label %if.end133

if.end133:                                        ; preds = %if.else132, %if.then129
  %53 = load %struct.POVMSData*, %struct.POVMSData** %msg.addr, align 8, !dbg !1996
  %call134 = call i8* @_ZN12pov_frontend13MessageOutput21GetOptionSwitchStringEP9POVMSDatajb(%"class.pov_frontend::MessageOutput"* %this2, %struct.POVMSData* %53, i32 1380151150, i1 zeroext true), !dbg !1997
  call void (%"class.pov_frontend::MessageOutput"*, i32, i8*, ...) @_ZN12pov_frontend13MessageOutput6PrintfEiPKcz(%"class.pov_frontend::MessageOutput"* %this2, i32 4, i8* getelementptr inbounds ([36 x i8], [36 x i8]* @.str.57, i64 0, i64 0), i8* %call134), !dbg !1998
  %streamnames135 = getelementptr inbounds %"class.pov_frontend::MessageOutput", %"class.pov_frontend::MessageOutput"* %this2, i32 0, i32 2, !dbg !1999
  %arrayidx136 = getelementptr inbounds [8 x i8*], [8 x i8*]* %streamnames135, i64 0, i64 4, !dbg !1999
  %54 = load i8*, i8** %arrayidx136, align 8, !dbg !1999
  %cmp137 = icmp ne i8* %54, null, !dbg !2001
  br i1 %cmp137, label %if.then138, label %if.else141, !dbg !2002

if.then138:                                       ; preds = %if.end133
  %streamnames139 = getelementptr inbounds %"class.pov_frontend::MessageOutput", %"class.pov_frontend::MessageOutput"* %this2, i32 0, i32 2, !dbg !2003
  %arrayidx140 = getelementptr inbounds [8 x i8*], [8 x i8*]* %streamnames139, i64 0, i64 4, !dbg !2003
  %55 = load i8*, i8** %arrayidx140, align 8, !dbg !2003
  call void (%"class.pov_frontend::MessageOutput"*, i32, i8*, ...) @_ZN12pov_frontend13MessageOutput6PrintfEiPKcz(%"class.pov_frontend::MessageOutput"* %this2, i32 4, i8* getelementptr inbounds ([15 x i8], [15 x i8]* @.str.54, i64 0, i64 0), i8* %55), !dbg !2004
  br label %if.end142, !dbg !2004

if.else141:                                       ; preds = %if.end133
  call void (%"class.pov_frontend::MessageOutput"*, i32, i8*, ...) @_ZN12pov_frontend13MessageOutput6PrintfEiPKcz(%"class.pov_frontend::MessageOutput"* %this2, i32 4, i8* getelementptr inbounds ([2 x i8], [2 x i8]* @.str.1, i64 0, i64 0)), !dbg !2005
  br label %if.end142

if.end142:                                        ; preds = %if.else141, %if.then138
  %56 = load %struct.POVMSData*, %struct.POVMSData** %msg.addr, align 8, !dbg !2006
  %call143 = call i8* @_ZN12pov_frontend13MessageOutput21GetOptionSwitchStringEP9POVMSDatajb(%"class.pov_frontend::MessageOutput"* %this2, %struct.POVMSData* %56, i32 1396928366, i1 zeroext true), !dbg !2007
  call void (%"class.pov_frontend::MessageOutput"*, i32, i8*, ...) @_ZN12pov_frontend13MessageOutput6PrintfEiPKcz(%"class.pov_frontend::MessageOutput"* %this2, i32 4, i8* getelementptr inbounds ([36 x i8], [36 x i8]* @.str.58, i64 0, i64 0), i8* %call143), !dbg !2008
  %streamnames144 = getelementptr inbounds %"class.pov_frontend::MessageOutput", %"class.pov_frontend::MessageOutput"* %this2, i32 0, i32 2, !dbg !2009
  %arrayidx145 = getelementptr inbounds [8 x i8*], [8 x i8*]* %streamnames144, i64 0, i64 5, !dbg !2009
  %57 = load i8*, i8** %arrayidx145, align 8, !dbg !2009
  %cmp146 = icmp ne i8* %57, null, !dbg !2011
  br i1 %cmp146, label %if.then147, label %if.else150, !dbg !2012

if.then147:                                       ; preds = %if.end142
  %streamnames148 = getelementptr inbounds %"class.pov_frontend::MessageOutput", %"class.pov_frontend::MessageOutput"* %this2, i32 0, i32 2, !dbg !2013
  %arrayidx149 = getelementptr inbounds [8 x i8*], [8 x i8*]* %streamnames148, i64 0, i64 5, !dbg !2013
  %58 = load i8*, i8** %arrayidx149, align 8, !dbg !2013
  call void (%"class.pov_frontend::MessageOutput"*, i32, i8*, ...) @_ZN12pov_frontend13MessageOutput6PrintfEiPKcz(%"class.pov_frontend::MessageOutput"* %this2, i32 4, i8* getelementptr inbounds ([15 x i8], [15 x i8]* @.str.54, i64 0, i64 0), i8* %58), !dbg !2014
  br label %if.end151, !dbg !2014

if.else150:                                       ; preds = %if.end142
  call void (%"class.pov_frontend::MessageOutput"*, i32, i8*, ...) @_ZN12pov_frontend13MessageOutput6PrintfEiPKcz(%"class.pov_frontend::MessageOutput"* %this2, i32 4, i8* getelementptr inbounds ([2 x i8], [2 x i8]* @.str.1, i64 0, i64 0)), !dbg !2015
  br label %if.end151

if.end151:                                        ; preds = %if.else150, %if.then147
  %59 = load %struct.POVMSData*, %struct.POVMSData** %msg.addr, align 8, !dbg !2016
  %call152 = call i8* @_ZN12pov_frontend13MessageOutput21GetOptionSwitchStringEP9POVMSDatajb(%"class.pov_frontend::MessageOutput"* %this2, %struct.POVMSData* %59, i32 1464037230, i1 zeroext true), !dbg !2017
  call void (%"class.pov_frontend::MessageOutput"*, i32, i8*, ...) @_ZN12pov_frontend13MessageOutput6PrintfEiPKcz(%"class.pov_frontend::MessageOutput"* %this2, i32 4, i8* getelementptr inbounds ([36 x i8], [36 x i8]* @.str.59, i64 0, i64 0), i8* %call152), !dbg !2018
  %streamnames153 = getelementptr inbounds %"class.pov_frontend::MessageOutput", %"class.pov_frontend::MessageOutput"* %this2, i32 0, i32 2, !dbg !2019
  %arrayidx154 = getelementptr inbounds [8 x i8*], [8 x i8*]* %streamnames153, i64 0, i64 6, !dbg !2019
  %60 = load i8*, i8** %arrayidx154, align 8, !dbg !2019
  %cmp155 = icmp ne i8* %60, null, !dbg !2021
  br i1 %cmp155, label %if.then156, label %if.else159, !dbg !2022

if.then156:                                       ; preds = %if.end151
  %streamnames157 = getelementptr inbounds %"class.pov_frontend::MessageOutput", %"class.pov_frontend::MessageOutput"* %this2, i32 0, i32 2, !dbg !2023
  %arrayidx158 = getelementptr inbounds [8 x i8*], [8 x i8*]* %streamnames157, i64 0, i64 6, !dbg !2023
  %61 = load i8*, i8** %arrayidx158, align 8, !dbg !2023
  call void (%"class.pov_frontend::MessageOutput"*, i32, i8*, ...) @_ZN12pov_frontend13MessageOutput6PrintfEiPKcz(%"class.pov_frontend::MessageOutput"* %this2, i32 4, i8* getelementptr inbounds ([15 x i8], [15 x i8]* @.str.54, i64 0, i64 0), i8* %61), !dbg !2024
  br label %if.end160, !dbg !2024

if.else159:                                       ; preds = %if.end151
  call void (%"class.pov_frontend::MessageOutput"*, i32, i8*, ...) @_ZN12pov_frontend13MessageOutput6PrintfEiPKcz(%"class.pov_frontend::MessageOutput"* %this2, i32 4, i8* getelementptr inbounds ([2 x i8], [2 x i8]* @.str.1, i64 0, i64 0)), !dbg !2025
  br label %if.end160

if.end160:                                        ; preds = %if.else159, %if.then156
  ret void, !dbg !2026
}

; Function Attrs: noinline uwtable
define dso_local void @_ZN12pov_frontend13MessageOutput15FrameStatisticsEP9POVMSDataS2_i(%"class.pov_frontend::MessageOutput"* %this, %struct.POVMSData* %msg, %struct.POVMSData* %0, i32 %1) #0 align 2 !dbg !2027 {
entry:
  %this.addr = alloca %"class.pov_frontend::MessageOutput"*, align 8
  %msg.addr = alloca %struct.POVMSData*, align 8
  %.addr = alloca %struct.POVMSData*, align 8
  %.addr1 = alloca i32, align 4
  %object = alloca %struct.POVMSData, align 8
  %ret = alloca i32, align 4
  %i = alloca i32, align 4
  store %"class.pov_frontend::MessageOutput"* %this, %"class.pov_frontend::MessageOutput"** %this.addr, align 8
  call void @llvm.dbg.declare(metadata %"class.pov_frontend::MessageOutput"** %this.addr, metadata !2028, metadata !DIExpression()), !dbg !2029
  store %struct.POVMSData* %msg, %struct.POVMSData** %msg.addr, align 8
  call void @llvm.dbg.declare(metadata %struct.POVMSData** %msg.addr, metadata !2030, metadata !DIExpression()), !dbg !2031
  store %struct.POVMSData* %0, %struct.POVMSData** %.addr, align 8
  call void @llvm.dbg.declare(metadata %struct.POVMSData** %.addr, metadata !2032, metadata !DIExpression()), !dbg !2033
  store i32 %1, i32* %.addr1, align 4
  call void @llvm.dbg.declare(metadata i32* %.addr1, metadata !2034, metadata !DIExpression()), !dbg !2035
  %this2 = load %"class.pov_frontend::MessageOutput"*, %"class.pov_frontend::MessageOutput"** %this.addr, align 8
  call void @llvm.dbg.declare(metadata %struct.POVMSData* %object, metadata !2036, metadata !DIExpression()), !dbg !2038
  call void @llvm.dbg.declare(metadata i32* %ret, metadata !2039, metadata !DIExpression()), !dbg !2040
  store i32 0, i32* %ret, align 4, !dbg !2040
  call void @llvm.dbg.declare(metadata i32* %i, metadata !2041, metadata !DIExpression()), !dbg !2042
  store i32 0, i32* %i, align 4, !dbg !2042
  call void @_ZN12pov_frontend13MessageOutput5FlushEi(%"class.pov_frontend::MessageOutput"* %this2, i32 1), !dbg !2043
  call void @_ZN12pov_frontend13MessageOutput5FlushEi(%"class.pov_frontend::MessageOutput"* %this2, i32 2), !dbg !2044
  %2 = load %struct.POVMSData*, %struct.POVMSData** %msg.addr, align 8, !dbg !2045
  %call = call i32 @_Z15POVMSObject_GetP9POVMSDataS0_j(%struct.POVMSData* %2, %struct.POVMSData* %object, i32 1179937133), !dbg !2046
  store i32 %call, i32* %ret, align 4, !dbg !2047
  %3 = load i32, i32* %ret, align 4, !dbg !2048
  %cmp = icmp eq i32 %3, 0, !dbg !2050
  br i1 %cmp, label %if.then, label %if.end, !dbg !2051

if.then:                                          ; preds = %entry
  call void (%"class.pov_frontend::MessageOutput"*, i32, i8*, ...) @_ZN12pov_frontend13MessageOutput6PrintfEiPKcz(%"class.pov_frontend::MessageOutput"* %this2, i32 5, i8* getelementptr inbounds ([24 x i8], [24 x i8]* @.str.60, i64 0, i64 0)), !dbg !2052
  br label %if.end, !dbg !2052

if.end:                                           ; preds = %if.then, %entry
  %4 = load i32, i32* %ret, align 4, !dbg !2053
  %cmp3 = icmp eq i32 %4, 0, !dbg !2055
  br i1 %cmp3, label %if.then4, label %if.end6, !dbg !2056

if.then4:                                         ; preds = %if.end
  %call5 = call i32 @_Z16POVMSUtil_GetIntP9POVMSDatajPi(%struct.POVMSData* %object, i32 1348563540, i32* %i), !dbg !2057
  store i32 %call5, i32* %ret, align 4, !dbg !2058
  br label %if.end6, !dbg !2059

if.end6:                                          ; preds = %if.then4, %if.end
  %5 = load i32, i32* %ret, align 4, !dbg !2060
  %cmp7 = icmp eq i32 %5, 0, !dbg !2062
  br i1 %cmp7, label %if.then8, label %if.end11, !dbg !2063

if.then8:                                         ; preds = %if.end6
  %6 = load i32, i32* %i, align 4, !dbg !2064
  %div = sdiv i32 %6, 3600, !dbg !2065
  %7 = load i32, i32* %i, align 4, !dbg !2066
  %div9 = sdiv i32 %7, 60, !dbg !2067
  %rem = srem i32 %div9, 60, !dbg !2068
  %8 = load i32, i32* %i, align 4, !dbg !2069
  %rem10 = srem i32 %8, 60, !dbg !2070
  %9 = load i32, i32* %i, align 4, !dbg !2071
  call void (%"class.pov_frontend::MessageOutput"*, i32, i8*, ...) @_ZN12pov_frontend13MessageOutput6PrintfEiPKcz(%"class.pov_frontend::MessageOutput"* %this2, i32 5, i8* getelementptr inbounds ([63 x i8], [63 x i8]* @.str.61, i64 0, i64 0), i32 %div, i32 %rem, i32 %rem10, i32 %9), !dbg !2072
  br label %if.end11, !dbg !2072

if.end11:                                         ; preds = %if.then8, %if.end6
  %10 = load i32, i32* %ret, align 4, !dbg !2073
  %cmp12 = icmp eq i32 %10, 0, !dbg !2075
  br i1 %cmp12, label %if.then13, label %if.end15, !dbg !2076

if.then13:                                        ; preds = %if.end11
  %call14 = call i32 @_Z16POVMSUtil_GetIntP9POVMSDatajPi(%struct.POVMSData* %object, i32 1349021524, i32* %i), !dbg !2077
  store i32 %call14, i32* %ret, align 4, !dbg !2078
  br label %if.end15, !dbg !2079

if.end15:                                         ; preds = %if.then13, %if.end11
  %11 = load i32, i32* %ret, align 4, !dbg !2080
  %cmp16 = icmp eq i32 %11, 0, !dbg !2082
  br i1 %cmp16, label %if.then17, label %if.end22, !dbg !2083

if.then17:                                        ; preds = %if.end15
  %12 = load i32, i32* %i, align 4, !dbg !2084
  %div18 = sdiv i32 %12, 3600, !dbg !2085
  %13 = load i32, i32* %i, align 4, !dbg !2086
  %div19 = sdiv i32 %13, 60, !dbg !2087
  %rem20 = srem i32 %div19, 60, !dbg !2088
  %14 = load i32, i32* %i, align 4, !dbg !2089
  %rem21 = srem i32 %14, 60, !dbg !2090
  %15 = load i32, i32* %i, align 4, !dbg !2091
  call void (%"class.pov_frontend::MessageOutput"*, i32, i8*, ...) @_ZN12pov_frontend13MessageOutput6PrintfEiPKcz(%"class.pov_frontend::MessageOutput"* %this2, i32 5, i8* getelementptr inbounds ([63 x i8], [63 x i8]* @.str.62, i64 0, i64 0), i32 %div18, i32 %rem20, i32 %rem21, i32 %15), !dbg !2092
  br label %if.end22, !dbg !2092

if.end22:                                         ; preds = %if.then17, %if.end15
  %16 = load i32, i32* %ret, align 4, !dbg !2093
  %cmp23 = icmp eq i32 %16, 0, !dbg !2095
  br i1 %cmp23, label %if.then24, label %if.end26, !dbg !2096

if.then24:                                        ; preds = %if.end22
  %call25 = call i32 @_Z16POVMSUtil_GetIntP9POVMSDatajPi(%struct.POVMSData* %object, i32 1416782164, i32* %i), !dbg !2097
  store i32 %call25, i32* %ret, align 4, !dbg !2098
  br label %if.end26, !dbg !2099

if.end26:                                         ; preds = %if.then24, %if.end22
  %17 = load i32, i32* %ret, align 4, !dbg !2100
  %cmp27 = icmp eq i32 %17, 0, !dbg !2102
  br i1 %cmp27, label %if.then28, label %if.end33, !dbg !2103

if.then28:                                        ; preds = %if.end26
  %18 = load i32, i32* %i, align 4, !dbg !2104
  %div29 = sdiv i32 %18, 3600, !dbg !2105
  %19 = load i32, i32* %i, align 4, !dbg !2106
  %div30 = sdiv i32 %19, 60, !dbg !2107
  %rem31 = srem i32 %div30, 60, !dbg !2108
  %20 = load i32, i32* %i, align 4, !dbg !2109
  %rem32 = srem i32 %20, 60, !dbg !2110
  %21 = load i32, i32* %i, align 4, !dbg !2111
  call void (%"class.pov_frontend::MessageOutput"*, i32, i8*, ...) @_ZN12pov_frontend13MessageOutput6PrintfEiPKcz(%"class.pov_frontend::MessageOutput"* %this2, i32 5, i8* getelementptr inbounds ([63 x i8], [63 x i8]* @.str.63, i64 0, i64 0), i32 %div29, i32 %rem31, i32 %rem32, i32 %21), !dbg !2112
  br label %if.end33, !dbg !2112

if.end33:                                         ; preds = %if.then28, %if.end26
  %22 = load i32, i32* %ret, align 4, !dbg !2113
  %cmp34 = icmp eq i32 %22, 0, !dbg !2115
  br i1 %cmp34, label %if.then35, label %if.end37, !dbg !2116

if.then35:                                        ; preds = %if.end33
  %call36 = call i32 @_Z16POVMSUtil_GetIntP9POVMSDatajPi(%struct.POVMSData* %object, i32 1416590420, i32* %i), !dbg !2117
  store i32 %call36, i32* %ret, align 4, !dbg !2118
  br label %if.end37, !dbg !2119

if.end37:                                         ; preds = %if.then35, %if.end33
  %23 = load i32, i32* %ret, align 4, !dbg !2120
  %cmp38 = icmp eq i32 %23, 0, !dbg !2122
  br i1 %cmp38, label %if.then39, label %if.end44, !dbg !2123

if.then39:                                        ; preds = %if.end37
  %24 = load i32, i32* %i, align 4, !dbg !2124
  %div40 = sdiv i32 %24, 3600, !dbg !2125
  %25 = load i32, i32* %i, align 4, !dbg !2126
  %div41 = sdiv i32 %25, 60, !dbg !2127
  %rem42 = srem i32 %div41, 60, !dbg !2128
  %26 = load i32, i32* %i, align 4, !dbg !2129
  %rem43 = srem i32 %26, 60, !dbg !2130
  %27 = load i32, i32* %i, align 4, !dbg !2131
  call void (%"class.pov_frontend::MessageOutput"*, i32, i8*, ...) @_ZN12pov_frontend13MessageOutput6PrintfEiPKcz(%"class.pov_frontend::MessageOutput"* %this2, i32 5, i8* getelementptr inbounds ([63 x i8], [63 x i8]* @.str.64, i64 0, i64 0), i32 %div40, i32 %rem42, i32 %rem43, i32 %27), !dbg !2132
  br label %if.end44, !dbg !2132

if.end44:                                         ; preds = %if.then39, %if.end37
  %call45 = call i32 @_Z18POVMSObject_DeleteP9POVMSData(%struct.POVMSData* %object), !dbg !2133
  %28 = load i32, i32* %ret, align 4, !dbg !2134
  %cmp46 = icmp ne i32 %28, 0, !dbg !2136
  br i1 %cmp46, label %if.then47, label %if.end48, !dbg !2137

if.then47:                                        ; preds = %if.end44
  %exception = call i8* @__cxa_allocate_exception(i64 4) #8, !dbg !2138
  %29 = bitcast i8* %exception to i32*, !dbg !2138
  %30 = load i32, i32* %ret, align 4, !dbg !2139
  store i32 %30, i32* %29, align 16, !dbg !2138
  call void @__cxa_throw(i8* %exception, i8* bitcast (i8** @_ZTIi to i8*), i8* null) #14, !dbg !2138
  unreachable, !dbg !2138

if.end48:                                         ; preds = %if.end44
  ret void, !dbg !2140
}

; Function Attrs: noinline uwtable
define dso_local void @_ZN12pov_frontend13MessageOutput15ParseStatisticsEP9POVMSDataS2_i(%"class.pov_frontend::MessageOutput"* %this, %struct.POVMSData* %msg, %struct.POVMSData* %0, i32 %1) #0 align 2 !dbg !2141 {
entry:
  %this.addr = alloca %"class.pov_frontend::MessageOutput"*, align 8
  %msg.addr = alloca %struct.POVMSData*, align 8
  %.addr = alloca %struct.POVMSData*, align 8
  %.addr1 = alloca i32, align 4
  %ll = alloca i64, align 8
  %ret = alloca i32, align 4
  %l = alloca i32, align 4
  %s = alloca i32, align 4
  %i = alloca i32, align 4
  store %"class.pov_frontend::MessageOutput"* %this, %"class.pov_frontend::MessageOutput"** %this.addr, align 8
  call void @llvm.dbg.declare(metadata %"class.pov_frontend::MessageOutput"** %this.addr, metadata !2142, metadata !DIExpression()), !dbg !2143
  store %struct.POVMSData* %msg, %struct.POVMSData** %msg.addr, align 8
  call void @llvm.dbg.declare(metadata %struct.POVMSData** %msg.addr, metadata !2144, metadata !DIExpression()), !dbg !2145
  store %struct.POVMSData* %0, %struct.POVMSData** %.addr, align 8
  call void @llvm.dbg.declare(metadata %struct.POVMSData** %.addr, metadata !2146, metadata !DIExpression()), !dbg !2147
  store i32 %1, i32* %.addr1, align 4
  call void @llvm.dbg.declare(metadata i32* %.addr1, metadata !2148, metadata !DIExpression()), !dbg !2149
  %this2 = load %"class.pov_frontend::MessageOutput"*, %"class.pov_frontend::MessageOutput"** %this.addr, align 8
  call void @llvm.dbg.declare(metadata i64* %ll, metadata !2150, metadata !DIExpression()), !dbg !2151
  store i64 0, i64* %ll, align 8, !dbg !2151
  call void @llvm.dbg.declare(metadata i32* %ret, metadata !2152, metadata !DIExpression()), !dbg !2153
  store i32 0, i32* %ret, align 4, !dbg !2153
  call void @llvm.dbg.declare(metadata i32* %l, metadata !2154, metadata !DIExpression()), !dbg !2155
  store i32 0, i32* %l, align 4, !dbg !2155
  call void @llvm.dbg.declare(metadata i32* %s, metadata !2156, metadata !DIExpression()), !dbg !2157
  store i32 0, i32* %s, align 4, !dbg !2157
  call void @llvm.dbg.declare(metadata i32* %i, metadata !2158, metadata !DIExpression()), !dbg !2159
  store i32 0, i32* %i, align 4, !dbg !2159
  call void @_ZN12pov_frontend13MessageOutput5FlushEi(%"class.pov_frontend::MessageOutput"* %this2, i32 1), !dbg !2160
  call void @_ZN12pov_frontend13MessageOutput5FlushEi(%"class.pov_frontend::MessageOutput"* %this2, i32 2), !dbg !2161
  %2 = load %struct.POVMSData*, %struct.POVMSData** %msg.addr, align 8, !dbg !2162
  %call = call i32 @_Z16POVMSUtil_GetIntP9POVMSDatajPi(%struct.POVMSData* %2, i32 1181306722, i32* %s), !dbg !2163
  store i32 %call, i32* %ret, align 4, !dbg !2164
  %3 = load i32, i32* %ret, align 4, !dbg !2165
  %cmp = icmp eq i32 %3, 0, !dbg !2167
  br i1 %cmp, label %if.then, label %if.end, !dbg !2168

if.then:                                          ; preds = %entry
  %4 = load %struct.POVMSData*, %struct.POVMSData** %msg.addr, align 8, !dbg !2169
  %call3 = call i32 @_Z16POVMSUtil_GetIntP9POVMSDatajPi(%struct.POVMSData* %4, i32 1231966050, i32* %i), !dbg !2170
  store i32 %call3, i32* %ret, align 4, !dbg !2171
  br label %if.end, !dbg !2172

if.end:                                           ; preds = %if.then, %entry
  %5 = load i32, i32* %ret, align 4, !dbg !2173
  %cmp4 = icmp eq i32 %5, 0, !dbg !2175
  br i1 %cmp4, label %if.then5, label %if.end7, !dbg !2176

if.then5:                                         ; preds = %if.end
  %6 = load %struct.POVMSData*, %struct.POVMSData** %msg.addr, align 8, !dbg !2177
  %call6 = call i32 @_Z16POVMSUtil_GetIntP9POVMSDatajPi(%struct.POVMSData* %6, i32 1281971055, i32* %l), !dbg !2178
  store i32 %call6, i32* %ret, align 4, !dbg !2179
  br label %if.end7, !dbg !2180

if.end7:                                          ; preds = %if.then5, %if.end
  %7 = load i32, i32* %ret, align 4, !dbg !2181
  %cmp8 = icmp eq i32 %7, 0, !dbg !2183
  br i1 %cmp8, label %if.then9, label %if.end11, !dbg !2184

if.then9:                                         ; preds = %if.end7
  call void (%"class.pov_frontend::MessageOutput"*, i32, i8*, ...) @_ZN12pov_frontend13MessageOutput6PrintfEiPKcz(%"class.pov_frontend::MessageOutput"* %this2, i32 5, i8* getelementptr inbounds ([18 x i8], [18 x i8]* @.str.65, i64 0, i64 0)), !dbg !2185
  %8 = load i32, i32* %s, align 4, !dbg !2187
  call void (%"class.pov_frontend::MessageOutput"*, i32, i8*, ...) @_ZN12pov_frontend13MessageOutput6PrintfEiPKcz(%"class.pov_frontend::MessageOutput"* %this2, i32 5, i8* getelementptr inbounds ([26 x i8], [26 x i8]* @.str.66, i64 0, i64 0), i32 %8), !dbg !2188
  %9 = load i32, i32* %i, align 4, !dbg !2189
  call void (%"class.pov_frontend::MessageOutput"*, i32, i8*, ...) @_ZN12pov_frontend13MessageOutput6PrintfEiPKcz(%"class.pov_frontend::MessageOutput"* %this2, i32 5, i8* getelementptr inbounds ([26 x i8], [26 x i8]* @.str.67, i64 0, i64 0), i32 %9), !dbg !2190
  %10 = load i32, i32* %l, align 4, !dbg !2191
  call void (%"class.pov_frontend::MessageOutput"*, i32, i8*, ...) @_ZN12pov_frontend13MessageOutput6PrintfEiPKcz(%"class.pov_frontend::MessageOutput"* %this2, i32 5, i8* getelementptr inbounds ([26 x i8], [26 x i8]* @.str.68, i64 0, i64 0), i32 %10), !dbg !2192
  %11 = load i32, i32* %s, align 4, !dbg !2193
  %12 = load i32, i32* %i, align 4, !dbg !2194
  %add = add nsw i32 %11, %12, !dbg !2195
  %13 = load i32, i32* %l, align 4, !dbg !2196
  %add10 = add nsw i32 %add, %13, !dbg !2197
  call void (%"class.pov_frontend::MessageOutput"*, i32, i8*, ...) @_ZN12pov_frontend13MessageOutput6PrintfEiPKcz(%"class.pov_frontend::MessageOutput"* %this2, i32 5, i8* getelementptr inbounds ([26 x i8], [26 x i8]* @.str.69, i64 0, i64 0), i32 %add10), !dbg !2198
  br label %if.end11, !dbg !2199

if.end11:                                         ; preds = %if.then9, %if.end7
  %14 = load i32, i32* %ret, align 4, !dbg !2200
  %cmp12 = icmp ne i32 %14, 0, !dbg !2202
  br i1 %cmp12, label %if.then13, label %if.end14, !dbg !2203

if.then13:                                        ; preds = %if.end11
  %exception = call i8* @__cxa_allocate_exception(i64 4) #8, !dbg !2204
  %15 = bitcast i8* %exception to i32*, !dbg !2204
  %16 = load i32, i32* %ret, align 4, !dbg !2205
  store i32 %16, i32* %15, align 16, !dbg !2204
  call void @__cxa_throw(i8* %exception, i8* bitcast (i8** @_ZTIi to i8*), i8* null) #14, !dbg !2204
  unreachable, !dbg !2204

if.end14:                                         ; preds = %if.end11
  ret void, !dbg !2206
}

; Function Attrs: noinline uwtable
define dso_local void @_ZN12pov_frontend13MessageOutput16RenderStatisticsEP9POVMSDataS2_i(%"class.pov_frontend::MessageOutput"* %this, %struct.POVMSData* %msg, %struct.POVMSData* %0, i32 %1) #0 align 2 !dbg !2207 {
entry:
  %this.addr = alloca %"class.pov_frontend::MessageOutput"*, align 8
  %msg.addr = alloca %struct.POVMSData*, align 8
  %.addr = alloca %struct.POVMSData*, align 8
  %.addr1 = alloca i32, align 4
  %attr = alloca %struct.POVMSData, align 8
  %l = alloca i64, align 8
  %l2 = alloca i64, align 8
  %f = alloca float, align 4
  %f2 = alloca float, align 4
  %Pixels_In_Image = alloca i64, align 8
  %i = alloca i32, align 4
  %i2 = alloca i32, align 4
  %cnt = alloca i32, align 4
  %obj = alloca %struct.POVMSData, align 8
  %ii = alloca i32, align 4
  %len = alloca i32, align 4
  %str = alloca [40 x i8], align 16
  store %"class.pov_frontend::MessageOutput"* %this, %"class.pov_frontend::MessageOutput"** %this.addr, align 8
  call void @llvm.dbg.declare(metadata %"class.pov_frontend::MessageOutput"** %this.addr, metadata !2208, metadata !DIExpression()), !dbg !2209
  store %struct.POVMSData* %msg, %struct.POVMSData** %msg.addr, align 8
  call void @llvm.dbg.declare(metadata %struct.POVMSData** %msg.addr, metadata !2210, metadata !DIExpression()), !dbg !2211
  store %struct.POVMSData* %0, %struct.POVMSData** %.addr, align 8
  call void @llvm.dbg.declare(metadata %struct.POVMSData** %.addr, metadata !2212, metadata !DIExpression()), !dbg !2213
  store i32 %1, i32* %.addr1, align 4
  call void @llvm.dbg.declare(metadata i32* %.addr1, metadata !2214, metadata !DIExpression()), !dbg !2215
  %this2 = load %"class.pov_frontend::MessageOutput"*, %"class.pov_frontend::MessageOutput"** %this.addr, align 8
  call void @llvm.dbg.declare(metadata %struct.POVMSData* %attr, metadata !2216, metadata !DIExpression()), !dbg !2217
  call void @llvm.dbg.declare(metadata i64* %l, metadata !2218, metadata !DIExpression()), !dbg !2219
  call void @llvm.dbg.declare(metadata i64* %l2, metadata !2220, metadata !DIExpression()), !dbg !2221
  call void @llvm.dbg.declare(metadata float* %f, metadata !2222, metadata !DIExpression()), !dbg !2223
  call void @llvm.dbg.declare(metadata float* %f2, metadata !2224, metadata !DIExpression()), !dbg !2225
  call void @llvm.dbg.declare(metadata i64* %Pixels_In_Image, metadata !2226, metadata !DIExpression()), !dbg !2227
  call void @llvm.dbg.declare(metadata i32* %i, metadata !2228, metadata !DIExpression()), !dbg !2229
  call void @llvm.dbg.declare(metadata i32* %i2, metadata !2230, metadata !DIExpression()), !dbg !2231
  call void @_ZN12pov_frontend13MessageOutput5FlushEi(%"class.pov_frontend::MessageOutput"* %this2, i32 1), !dbg !2232
  call void @_ZN12pov_frontend13MessageOutput5FlushEi(%"class.pov_frontend::MessageOutput"* %this2, i32 2), !dbg !2233
  %2 = load %struct.POVMSData*, %struct.POVMSData** %msg.addr, align 8, !dbg !2234
  %call = call i32 @_Z16POVMSUtil_GetIntP9POVMSDatajPi(%struct.POVMSData* %2, i32 1466524788, i32* %i), !dbg !2235
  %3 = load %struct.POVMSData*, %struct.POVMSData** %msg.addr, align 8, !dbg !2236
  %call3 = call i32 @_Z16POVMSUtil_GetIntP9POVMSDatajPi(%struct.POVMSData* %3, i32 1214605671, i32* %i2), !dbg !2237
  %4 = load i32, i32* %i, align 4, !dbg !2238
  %conv = sext i32 %4 to i64, !dbg !2238
  %5 = load i32, i32* %i2, align 4, !dbg !2239
  %conv4 = sext i32 %5 to i64, !dbg !2239
  %mul = mul nsw i64 %conv, %conv4, !dbg !2240
  store i64 %mul, i64* %Pixels_In_Image, align 8, !dbg !2241
  %6 = load %struct.POVMSData*, %struct.POVMSData** %msg.addr, align 8, !dbg !2242
  %call5 = call i32 @_Z17POVMSUtil_GetLongP9POVMSDatajPx(%struct.POVMSData* %6, i32 1349089381, i64* %l), !dbg !2243
  %7 = load i64, i64* %Pixels_In_Image, align 8, !dbg !2244
  %conv6 = sitofp i64 %7 to double, !dbg !2244
  %8 = load i64, i64* %l, align 8, !dbg !2246
  %conv7 = sitofp i64 %8 to double, !dbg !2246
  %cmp = fcmp ogt double %conv6, %conv7, !dbg !2247
  br i1 %cmp, label %if.then, label %if.else, !dbg !2248

if.then:                                          ; preds = %entry
  call void (%"class.pov_frontend::MessageOutput"*, i32, i8*, ...) @_ZN12pov_frontend13MessageOutput6PrintfEiPKcz(%"class.pov_frontend::MessageOutput"* %this2, i32 5, i8* getelementptr inbounds ([44 x i8], [44 x i8]* @.str.70, i64 0, i64 0)), !dbg !2249
  br label %if.end, !dbg !2249

if.else:                                          ; preds = %entry
  call void (%"class.pov_frontend::MessageOutput"*, i32, i8*, ...) @_ZN12pov_frontend13MessageOutput6PrintfEiPKcz(%"class.pov_frontend::MessageOutput"* %this2, i32 5, i8* getelementptr inbounds ([19 x i8], [19 x i8]* @.str.71, i64 0, i64 0)), !dbg !2250
  br label %if.end

if.end:                                           ; preds = %if.else, %if.then
  %9 = load i32, i32* %i, align 4, !dbg !2251
  %10 = load i32, i32* %i2, align 4, !dbg !2252
  call void (%"class.pov_frontend::MessageOutput"*, i32, i8*, ...) @_ZN12pov_frontend13MessageOutput6PrintfEiPKcz(%"class.pov_frontend::MessageOutput"* %this2, i32 5, i8* getelementptr inbounds ([26 x i8], [26 x i8]* @.str.72, i64 0, i64 0), i32 %9, i32 %10), !dbg !2253
  call void (%"class.pov_frontend::MessageOutput"*, i32, i8*, ...) @_ZN12pov_frontend13MessageOutput6PrintfEiPKcz(%"class.pov_frontend::MessageOutput"* %this2, i32 5, i8* getelementptr inbounds ([78 x i8], [78 x i8]* @.str.73, i64 0, i64 0)), !dbg !2254
  %11 = load %struct.POVMSData*, %struct.POVMSData** %msg.addr, align 8, !dbg !2255
  %call8 = call i32 @_Z17POVMSUtil_GetLongP9POVMSDatajPx(%struct.POVMSData* %11, i32 1349089381, i64* %l), !dbg !2256
  %12 = load %struct.POVMSData*, %struct.POVMSData** %msg.addr, align 8, !dbg !2257
  %call9 = call i32 @_Z17POVMSUtil_GetLongP9POVMSDatajPx(%struct.POVMSData* %12, i32 1349089363, i64* %l2), !dbg !2258
  %13 = load i64, i64* %l, align 8, !dbg !2259
  %conv10 = sitofp i64 %13 to double, !dbg !2259
  %cmp11 = fcmp ogt double %conv10, 5.000000e-01, !dbg !2261
  br i1 %cmp11, label %if.then12, label %if.else17, !dbg !2262

if.then12:                                        ; preds = %if.end
  %14 = load i64, i64* %l, align 8, !dbg !2263
  %conv13 = sitofp i64 %14 to double, !dbg !2263
  %15 = load i64, i64* %l2, align 8, !dbg !2264
  %conv14 = sitofp i64 %15 to double, !dbg !2264
  %16 = load i64, i64* %l2, align 8, !dbg !2265
  %conv15 = sitofp i64 %16 to double, !dbg !2265
  %17 = load i64, i64* %l, align 8, !dbg !2266
  %conv16 = sitofp i64 %17 to double, !dbg !2266
  %div = fdiv double %conv15, %conv16, !dbg !2267
  call void (%"class.pov_frontend::MessageOutput"*, i32, i8*, ...) @_ZN12pov_frontend13MessageOutput6PrintfEiPKcz(%"class.pov_frontend::MessageOutput"* %this2, i32 5, i8* getelementptr inbounds ([53 x i8], [53 x i8]* @.str.74, i64 0, i64 0), double %conv13, double %conv14, double %div), !dbg !2268
  br label %if.end20, !dbg !2268

if.else17:                                        ; preds = %if.end
  %18 = load i64, i64* %l, align 8, !dbg !2269
  %conv18 = sitofp i64 %18 to double, !dbg !2269
  %19 = load i64, i64* %l2, align 8, !dbg !2270
  %conv19 = sitofp i64 %19 to double, !dbg !2270
  call void (%"class.pov_frontend::MessageOutput"*, i32, i8*, ...) @_ZN12pov_frontend13MessageOutput6PrintfEiPKcz(%"class.pov_frontend::MessageOutput"* %this2, i32 5, i8* getelementptr inbounds ([50 x i8], [50 x i8]* @.str.75, i64 0, i64 0), double %conv18, double %conv19), !dbg !2271
  br label %if.end20

if.end20:                                         ; preds = %if.else17, %if.then12
  %20 = load %struct.POVMSData*, %struct.POVMSData** %msg.addr, align 8, !dbg !2272
  %call21 = call i32 @_Z17POVMSUtil_GetLongP9POVMSDatajPx(%struct.POVMSData* %20, i32 1382119795, i64* %l), !dbg !2273
  %21 = load %struct.POVMSData*, %struct.POVMSData** %msg.addr, align 8, !dbg !2274
  %call22 = call i32 @_Z17POVMSUtil_GetLongP9POVMSDatajPx(%struct.POVMSData* %21, i32 1381196150, i64* %l2), !dbg !2275
  %22 = load %struct.POVMSData*, %struct.POVMSData** %msg.addr, align 8, !dbg !2276
  %call23 = call i32 @_Z16POVMSUtil_GetIntP9POVMSDatajPi(%struct.POVMSData* %22, i32 1414292854, i32* %i), !dbg !2277
  %23 = load %struct.POVMSData*, %struct.POVMSData** %msg.addr, align 8, !dbg !2278
  %call24 = call i32 @_Z16POVMSUtil_GetIntP9POVMSDatajPi(%struct.POVMSData* %23, i32 1298233420, i32* %i2), !dbg !2279
  %24 = load i64, i64* %l, align 8, !dbg !2280
  %conv25 = sitofp i64 %24 to double, !dbg !2280
  %25 = load i64, i64* %l2, align 8, !dbg !2281
  %conv26 = sitofp i64 %25 to double, !dbg !2281
  %26 = load i32, i32* %i, align 4, !dbg !2282
  %27 = load i32, i32* %i2, align 4, !dbg !2283
  call void (%"class.pov_frontend::MessageOutput"*, i32, i8*, ...) @_ZN12pov_frontend13MessageOutput6PrintfEiPKcz(%"class.pov_frontend::MessageOutput"* %this2, i32 5, i8* getelementptr inbounds ([54 x i8], [54 x i8]* @.str.76, i64 0, i64 0), double %conv25, double %conv26, i32 %26, i32 %27), !dbg !2284
  call void (%"class.pov_frontend::MessageOutput"*, i32, i8*, ...) @_ZN12pov_frontend13MessageOutput6PrintfEiPKcz(%"class.pov_frontend::MessageOutput"* %this2, i32 5, i8* getelementptr inbounds ([78 x i8], [78 x i8]* @.str.73, i64 0, i64 0)), !dbg !2285
  call void (%"class.pov_frontend::MessageOutput"*, i32, i8*, ...) @_ZN12pov_frontend13MessageOutput6PrintfEiPKcz(%"class.pov_frontend::MessageOutput"* %this2, i32 5, i8* getelementptr inbounds ([68 x i8], [68 x i8]* @.str.77, i64 0, i64 0)), !dbg !2286
  call void (%"class.pov_frontend::MessageOutput"*, i32, i8*, ...) @_ZN12pov_frontend13MessageOutput6PrintfEiPKcz(%"class.pov_frontend::MessageOutput"* %this2, i32 5, i8* getelementptr inbounds ([78 x i8], [78 x i8]* @.str.73, i64 0, i64 0)), !dbg !2287
  %28 = load %struct.POVMSData*, %struct.POVMSData** %msg.addr, align 8, !dbg !2288
  %call27 = call i32 @_Z15POVMSObject_GetP9POVMSDataS0_j(%struct.POVMSData* %28, %struct.POVMSData* %attr, i32 1330205556), !dbg !2290
  %cmp28 = icmp eq i32 %call27, 0, !dbg !2291
  br i1 %cmp28, label %if.then29, label %if.end55, !dbg !2292

if.then29:                                        ; preds = %if.end20
  call void @llvm.dbg.declare(metadata i32* %cnt, metadata !2293, metadata !DIExpression()), !dbg !2295
  store i32 0, i32* %cnt, align 4, !dbg !2295
  %call30 = call i32 @_Z19POVMSAttrList_CountP9POVMSDataPi(%struct.POVMSData* %attr, i32* %cnt), !dbg !2296
  %cmp31 = icmp eq i32 %call30, 0, !dbg !2298
  br i1 %cmp31, label %if.then32, label %if.end53, !dbg !2299

if.then32:                                        ; preds = %if.then29
  call void @llvm.dbg.declare(metadata %struct.POVMSData* %obj, metadata !2300, metadata !DIExpression()), !dbg !2302
  call void @llvm.dbg.declare(metadata i32* %ii, metadata !2303, metadata !DIExpression()), !dbg !2304
  call void @llvm.dbg.declare(metadata i32* %len, metadata !2305, metadata !DIExpression()), !dbg !2306
  call void @llvm.dbg.declare(metadata [40 x i8]* %str, metadata !2307, metadata !DIExpression()), !dbg !2311
  store i32 1, i32* %ii, align 4, !dbg !2312
  br label %for.cond, !dbg !2314

for.cond:                                         ; preds = %for.inc, %if.then32
  %29 = load i32, i32* %ii, align 4, !dbg !2315
  %30 = load i32, i32* %cnt, align 4, !dbg !2317
  %cmp33 = icmp sle i32 %29, %30, !dbg !2318
  br i1 %cmp33, label %for.body, label %for.end, !dbg !2319

for.body:                                         ; preds = %for.cond
  %31 = load i32, i32* %ii, align 4, !dbg !2320
  %call34 = call i32 @_Z20POVMSAttrList_GetNthP9POVMSDataiS0_(%struct.POVMSData* %attr, i32 %31, %struct.POVMSData* %obj), !dbg !2323
  %cmp35 = icmp eq i32 %call34, 0, !dbg !2324
  br i1 %cmp35, label %if.then36, label %if.end52, !dbg !2325

if.then36:                                        ; preds = %for.body
  store i32 40, i32* %len, align 4, !dbg !2326
  %arrayidx = getelementptr inbounds [40 x i8], [40 x i8]* %str, i64 0, i64 0, !dbg !2328
  store i8 0, i8* %arrayidx, align 16, !dbg !2329
  %arraydecay = getelementptr inbounds [40 x i8], [40 x i8]* %str, i64 0, i64 0, !dbg !2330
  %call37 = call i32 @_Z19POVMSUtil_GetStringP9POVMSDatajPcPi(%struct.POVMSData* %obj, i32 1330536813, i8* %arraydecay, i32* %len), !dbg !2331
  %call38 = call i32 @_Z17POVMSUtil_GetLongP9POVMSDatajPx(%struct.POVMSData* %obj, i32 1230271348, i64* %l), !dbg !2332
  %call39 = call i32 @_Z17POVMSUtil_GetLongP9POVMSDatajPx(%struct.POVMSData* %obj, i32 1230206307, i64* %l2), !dbg !2333
  %32 = load i64, i64* %l, align 8, !dbg !2334
  %conv40 = sitofp i64 %32 to double, !dbg !2334
  %cmp41 = fcmp ogt double %conv40, 5.000000e-01, !dbg !2336
  br i1 %cmp41, label %if.then42, label %if.end50, !dbg !2337

if.then42:                                        ; preds = %if.then36
  %arraydecay43 = getelementptr inbounds [40 x i8], [40 x i8]* %str, i64 0, i64 0, !dbg !2338
  %33 = load i64, i64* %l, align 8, !dbg !2340
  %conv44 = sitofp i64 %33 to double, !dbg !2340
  %34 = load i64, i64* %l2, align 8, !dbg !2341
  %conv45 = sitofp i64 %34 to double, !dbg !2341
  %35 = load i64, i64* %l2, align 8, !dbg !2342
  %conv46 = sitofp i64 %35 to double, !dbg !2342
  %mul47 = fmul double 1.000000e+02, %conv46, !dbg !2343
  %36 = load i64, i64* %l, align 8, !dbg !2344
  %conv48 = sitofp i64 %36 to double, !dbg !2344
  %div49 = fdiv double %mul47, %conv48, !dbg !2345
  call void (%"class.pov_frontend::MessageOutput"*, i32, i8*, ...) @_ZN12pov_frontend13MessageOutput6PrintfEiPKcz(%"class.pov_frontend::MessageOutput"* %this2, i32 5, i8* getelementptr inbounds ([30 x i8], [30 x i8]* @.str.78, i64 0, i64 0), i8* %arraydecay43, double %conv44, double %conv45, double %div49), !dbg !2346
  br label %if.end50, !dbg !2347

if.end50:                                         ; preds = %if.then42, %if.then36
  %call51 = call i32 @_Z16POVMSAttr_DeleteP9POVMSData(%struct.POVMSData* %obj), !dbg !2348
  br label %if.end52, !dbg !2349

if.end52:                                         ; preds = %if.end50, %for.body
  br label %for.inc, !dbg !2350

for.inc:                                          ; preds = %if.end52
  %37 = load i32, i32* %ii, align 4, !dbg !2351
  %inc = add nsw i32 %37, 1, !dbg !2351
  store i32 %inc, i32* %ii, align 4, !dbg !2351
  br label %for.cond, !dbg !2352, !llvm.loop !2353

for.end:                                          ; preds = %for.cond
  br label %if.end53, !dbg !2355

if.end53:                                         ; preds = %for.end, %if.then29
  %call54 = call i32 @_Z16POVMSAttr_DeleteP9POVMSData(%struct.POVMSData* %attr), !dbg !2356
  br label %if.end55, !dbg !2357

if.end55:                                         ; preds = %if.end53, %if.end20
  %38 = load %struct.POVMSData*, %struct.POVMSData** %msg.addr, align 8, !dbg !2358
  %call56 = call i32 @_Z17POVMSUtil_GetLongP9POVMSDatajPx(%struct.POVMSData* %38, i32 1229345391, i64* %l), !dbg !2359
  %39 = load %struct.POVMSData*, %struct.POVMSData** %msg.addr, align 8, !dbg !2360
  %call57 = call i32 @_Z17POVMSUtil_GetLongP9POVMSDatajPx(%struct.POVMSData* %39, i32 1180060995, i64* %l2), !dbg !2361
  %40 = load i64, i64* %l, align 8, !dbg !2362
  %conv58 = sitofp i64 %40 to double, !dbg !2362
  %cmp59 = fcmp ogt double %conv58, 5.000000e-01, !dbg !2364
  br i1 %cmp59, label %if.then62, label %lor.lhs.false, !dbg !2365

lor.lhs.false:                                    ; preds = %if.end55
  %41 = load i64, i64* %l2, align 8, !dbg !2366
  %conv60 = sitofp i64 %41 to double, !dbg !2366
  %cmp61 = fcmp ogt double %conv60, 5.000000e-01, !dbg !2367
  br i1 %cmp61, label %if.then62, label %if.end73, !dbg !2368

if.then62:                                        ; preds = %lor.lhs.false, %if.end55
  call void (%"class.pov_frontend::MessageOutput"*, i32, i8*, ...) @_ZN12pov_frontend13MessageOutput6PrintfEiPKcz(%"class.pov_frontend::MessageOutput"* %this2, i32 5, i8* getelementptr inbounds ([78 x i8], [78 x i8]* @.str.73, i64 0, i64 0)), !dbg !2369
  %42 = load i64, i64* %l, align 8, !dbg !2371
  %conv63 = sitofp i64 %42 to double, !dbg !2371
  %cmp64 = fcmp ogt double %conv63, 5.000000e-01, !dbg !2373
  br i1 %cmp64, label %if.then65, label %if.end67, !dbg !2374

if.then65:                                        ; preds = %if.then62
  %43 = load i64, i64* %l, align 8, !dbg !2375
  %conv66 = sitofp i64 %43 to double, !dbg !2375
  call void (%"class.pov_frontend::MessageOutput"*, i32, i8*, ...) @_ZN12pov_frontend13MessageOutput6PrintfEiPKcz(%"class.pov_frontend::MessageOutput"* %this2, i32 5, i8* getelementptr inbounds ([28 x i8], [28 x i8]* @.str.79, i64 0, i64 0), double %conv66), !dbg !2376
  br label %if.end67, !dbg !2376

if.end67:                                         ; preds = %if.then65, %if.then62
  %44 = load i64, i64* %l2, align 8, !dbg !2377
  %conv68 = sitofp i64 %44 to double, !dbg !2377
  %cmp69 = fcmp ogt double %conv68, 5.000000e-01, !dbg !2379
  br i1 %cmp69, label %if.then70, label %if.end72, !dbg !2380

if.then70:                                        ; preds = %if.end67
  %45 = load i64, i64* %l2, align 8, !dbg !2381
  %conv71 = sitofp i64 %45 to double, !dbg !2381
  call void (%"class.pov_frontend::MessageOutput"*, i32, i8*, ...) @_ZN12pov_frontend13MessageOutput6PrintfEiPKcz(%"class.pov_frontend::MessageOutput"* %this2, i32 5, i8* getelementptr inbounds ([28 x i8], [28 x i8]* @.str.80, i64 0, i64 0), double %conv71), !dbg !2382
  br label %if.end72, !dbg !2382

if.end72:                                         ; preds = %if.then70, %if.end67
  br label %if.end73, !dbg !2383

if.end73:                                         ; preds = %if.end72, %lor.lhs.false
  call void (%"class.pov_frontend::MessageOutput"*, i32, i8*, ...) @_ZN12pov_frontend13MessageOutput6PrintfEiPKcz(%"class.pov_frontend::MessageOutput"* %this2, i32 5, i8* getelementptr inbounds ([78 x i8], [78 x i8]* @.str.73, i64 0, i64 0)), !dbg !2384
  %46 = load %struct.POVMSData*, %struct.POVMSData** %msg.addr, align 8, !dbg !2385
  %call74 = call i32 @_Z17POVMSUtil_GetLongP9POVMSDatajPx(%struct.POVMSData* %46, i32 1349414228, i64* %l), !dbg !2386
  %47 = load i64, i64* %l, align 8, !dbg !2387
  %conv75 = sitofp i64 %47 to double, !dbg !2387
  %cmp76 = fcmp ogt double %conv75, 5.000000e-01, !dbg !2389
  br i1 %cmp76, label %if.then77, label %if.end81, !dbg !2390

if.then77:                                        ; preds = %if.end73
  %48 = load %struct.POVMSData*, %struct.POVMSData** %msg.addr, align 8, !dbg !2391
  %call78 = call i32 @_Z17POVMSUtil_GetLongP9POVMSDatajPx(%struct.POVMSData* %48, i32 1380281449, i64* %l2), !dbg !2393
  %49 = load i64, i64* %l, align 8, !dbg !2394
  %conv79 = sitofp i64 %49 to double, !dbg !2394
  %50 = load i64, i64* %l2, align 8, !dbg !2395
  %conv80 = sitofp i64 %50 to double, !dbg !2395
  call void (%"class.pov_frontend::MessageOutput"*, i32, i8*, ...) @_ZN12pov_frontend13MessageOutput6PrintfEiPKcz(%"class.pov_frontend::MessageOutput"* %this2, i32 5, i8* getelementptr inbounds ([54 x i8], [54 x i8]* @.str.81, i64 0, i64 0), double %conv79, double %conv80), !dbg !2396
  br label %if.end81, !dbg !2397

if.end81:                                         ; preds = %if.then77, %if.end73
  %51 = load %struct.POVMSData*, %struct.POVMSData** %msg.addr, align 8, !dbg !2398
  %call82 = call i32 @_Z17POVMSUtil_GetLongP9POVMSDatajPx(%struct.POVMSData* %51, i32 1129598575, i64* %l), !dbg !2399
  %52 = load %struct.POVMSData*, %struct.POVMSData** %msg.addr, align 8, !dbg !2400
  %call83 = call i32 @_Z17POVMSUtil_GetLongP9POVMSDatajPx(%struct.POVMSData* %52, i32 1129595982, i64* %l2), !dbg !2401
  %53 = load i64, i64* %l, align 8, !dbg !2402
  %conv84 = sitofp i64 %53 to double, !dbg !2402
  %54 = load i64, i64* %l2, align 8, !dbg !2403
  %conv85 = sitofp i64 %54 to double, !dbg !2403
  call void (%"class.pov_frontend::MessageOutput"*, i32, i8*, ...) @_ZN12pov_frontend13MessageOutput6PrintfEiPKcz(%"class.pov_frontend::MessageOutput"* %this2, i32 5, i8* getelementptr inbounds ([54 x i8], [54 x i8]* @.str.82, i64 0, i64 0), double %conv84, double %conv85), !dbg !2404
  call void (%"class.pov_frontend::MessageOutput"*, i32, i8*, ...) @_ZN12pov_frontend13MessageOutput6PrintfEiPKcz(%"class.pov_frontend::MessageOutput"* %this2, i32 5, i8* getelementptr inbounds ([78 x i8], [78 x i8]* @.str.73, i64 0, i64 0)), !dbg !2405
  %55 = load %struct.POVMSData*, %struct.POVMSData** %msg.addr, align 8, !dbg !2406
  %call86 = call i32 @_Z17POVMSUtil_GetLongP9POVMSDatajPx(%struct.POVMSData* %55, i32 1298483566, i64* %l), !dbg !2407
  %56 = load i64, i64* %l, align 8, !dbg !2408
  %conv87 = sitofp i64 %56 to double, !dbg !2408
  %cmp88 = fcmp ogt double %conv87, 5.000000e-01, !dbg !2410
  br i1 %cmp88, label %if.then89, label %if.end96, !dbg !2411

if.then89:                                        ; preds = %if.end81
  %57 = load %struct.POVMSData*, %struct.POVMSData** %msg.addr, align 8, !dbg !2412
  %call90 = call i32 @_Z17POVMSUtil_GetLongP9POVMSDatajPx(%struct.POVMSData* %57, i32 1298486113, i64* %l2), !dbg !2414
  %58 = load i64, i64* %l, align 8, !dbg !2415
  %conv91 = sitofp i64 %58 to double, !dbg !2415
  %59 = load i64, i64* %l2, align 8, !dbg !2416
  %conv92 = sitofp i64 %59 to double, !dbg !2416
  %60 = load i64, i64* %l2, align 8, !dbg !2417
  %conv93 = sitofp i64 %60 to double, !dbg !2417
  %61 = load i64, i64* %l, align 8, !dbg !2418
  %conv94 = sitofp i64 %61 to double, !dbg !2418
  %div95 = fdiv double %conv93, %conv94, !dbg !2419
  call void (%"class.pov_frontend::MessageOutput"*, i32, i8*, ...) @_ZN12pov_frontend13MessageOutput6PrintfEiPKcz(%"class.pov_frontend::MessageOutput"* %this2, i32 5, i8* getelementptr inbounds ([62 x i8], [62 x i8]* @.str.83, i64 0, i64 0), double %conv91, double %conv92, double %div95), !dbg !2420
  br label %if.end96, !dbg !2421

if.end96:                                         ; preds = %if.then89, %if.end81
  %62 = load %struct.POVMSData*, %struct.POVMSData** %msg.addr, align 8, !dbg !2422
  %call97 = call i32 @_Z17POVMSUtil_GetLongP9POVMSDatajPx(%struct.POVMSData* %62, i32 1399350356, i64* %l), !dbg !2423
  %63 = load i64, i64* %l, align 8, !dbg !2424
  %conv98 = sitofp i64 %63 to double, !dbg !2424
  %cmp99 = fcmp ogt double %conv98, 5.000000e-01, !dbg !2426
  br i1 %cmp99, label %if.then100, label %if.end104, !dbg !2427

if.then100:                                       ; preds = %if.end96
  %64 = load %struct.POVMSData*, %struct.POVMSData** %msg.addr, align 8, !dbg !2428
  %call101 = call i32 @_Z17POVMSUtil_GetLongP9POVMSDatajPx(%struct.POVMSData* %64, i32 1399350355, i64* %l2), !dbg !2430
  %65 = load i64, i64* %l, align 8, !dbg !2431
  %conv102 = sitofp i64 %65 to double, !dbg !2431
  %66 = load i64, i64* %l2, align 8, !dbg !2432
  %conv103 = sitofp i64 %66 to double, !dbg !2432
  call void (%"class.pov_frontend::MessageOutput"*, i32, i8*, ...) @_ZN12pov_frontend13MessageOutput6PrintfEiPKcz(%"class.pov_frontend::MessageOutput"* %this2, i32 5, i8* getelementptr inbounds ([54 x i8], [54 x i8]* @.str.84, i64 0, i64 0), double %conv102, double %conv103), !dbg !2433
  br label %if.end104, !dbg !2434

if.end104:                                        ; preds = %if.then100, %if.end96
  %67 = load %struct.POVMSData*, %struct.POVMSData** %msg.addr, align 8, !dbg !2435
  %call105 = call i32 @_Z17POVMSUtil_GetLongP9POVMSDatajPx(%struct.POVMSData* %67, i32 1382444114, i64* %l), !dbg !2436
  %68 = load i64, i64* %l, align 8, !dbg !2437
  %conv106 = sitofp i64 %68 to double, !dbg !2437
  %cmp107 = fcmp ogt double %conv106, 5.000000e-01, !dbg !2439
  br i1 %cmp107, label %if.then108, label %if.end118, !dbg !2440

if.then108:                                       ; preds = %if.end104
  %69 = load %struct.POVMSData*, %struct.POVMSData** %msg.addr, align 8, !dbg !2441
  %call109 = call i32 @_Z17POVMSUtil_GetLongP9POVMSDatajPx(%struct.POVMSData* %69, i32 1230136658, i64* %l2), !dbg !2443
  %70 = load i64, i64* %l2, align 8, !dbg !2444
  %conv110 = sitofp i64 %70 to double, !dbg !2444
  %cmp111 = fcmp ogt double %conv110, 0.000000e+00, !dbg !2446
  br i1 %cmp111, label %if.then112, label %if.else115, !dbg !2447

if.then112:                                       ; preds = %if.then108
  %71 = load i64, i64* %l, align 8, !dbg !2448
  %conv113 = sitofp i64 %71 to double, !dbg !2448
  %72 = load i64, i64* %l2, align 8, !dbg !2449
  %conv114 = sitofp i64 %72 to double, !dbg !2449
  call void (%"class.pov_frontend::MessageOutput"*, i32, i8*, ...) @_ZN12pov_frontend13MessageOutput6PrintfEiPKcz(%"class.pov_frontend::MessageOutput"* %this2, i32 5, i8* getelementptr inbounds ([54 x i8], [54 x i8]* @.str.85, i64 0, i64 0), double %conv113, double %conv114), !dbg !2450
  br label %if.end117, !dbg !2450

if.else115:                                       ; preds = %if.then108
  %73 = load i64, i64* %l, align 8, !dbg !2451
  %conv116 = sitofp i64 %73 to double, !dbg !2451
  call void (%"class.pov_frontend::MessageOutput"*, i32, i8*, ...) @_ZN12pov_frontend13MessageOutput6PrintfEiPKcz(%"class.pov_frontend::MessageOutput"* %this2, i32 5, i8* getelementptr inbounds ([28 x i8], [28 x i8]* @.str.86, i64 0, i64 0), double %conv116), !dbg !2452
  br label %if.end117

if.end117:                                        ; preds = %if.else115, %if.then112
  br label %if.end118, !dbg !2453

if.end118:                                        ; preds = %if.end117, %if.end104
  %74 = load %struct.POVMSData*, %struct.POVMSData** %msg.addr, align 8, !dbg !2454
  %call119 = call i32 @_Z17POVMSUtil_GetLongP9POVMSDatajPx(%struct.POVMSData* %74, i32 1382445652, i64* %l), !dbg !2455
  %75 = load i64, i64* %l, align 8, !dbg !2456
  %conv120 = sitofp i64 %75 to double, !dbg !2456
  %cmp121 = fcmp ogt double %conv120, 5.000000e-01, !dbg !2458
  br i1 %cmp121, label %if.then122, label %if.end124, !dbg !2459

if.then122:                                       ; preds = %if.end118
  %76 = load i64, i64* %l, align 8, !dbg !2460
  %conv123 = sitofp i64 %76 to double, !dbg !2460
  call void (%"class.pov_frontend::MessageOutput"*, i32, i8*, ...) @_ZN12pov_frontend13MessageOutput6PrintfEiPKcz(%"class.pov_frontend::MessageOutput"* %this2, i32 5, i8* getelementptr inbounds ([28 x i8], [28 x i8]* @.str.87, i64 0, i64 0), double %conv123), !dbg !2461
  br label %if.end124, !dbg !2461

if.end124:                                        ; preds = %if.then122, %if.end118
  %77 = load %struct.POVMSData*, %struct.POVMSData** %msg.addr, align 8, !dbg !2462
  %call125 = call i32 @_Z17POVMSUtil_GetLongP9POVMSDatajPx(%struct.POVMSData* %77, i32 1416782162, i64* %l), !dbg !2463
  %78 = load i64, i64* %l, align 8, !dbg !2464
  %conv126 = sitofp i64 %78 to double, !dbg !2464
  %cmp127 = fcmp ogt double %conv126, 5.000000e-01, !dbg !2466
  br i1 %cmp127, label %if.then128, label %if.end130, !dbg !2467

if.then128:                                       ; preds = %if.end124
  %79 = load i64, i64* %l, align 8, !dbg !2468
  %conv129 = sitofp i64 %79 to double, !dbg !2468
  call void (%"class.pov_frontend::MessageOutput"*, i32, i8*, ...) @_ZN12pov_frontend13MessageOutput6PrintfEiPKcz(%"class.pov_frontend::MessageOutput"* %this2, i32 5, i8* getelementptr inbounds ([28 x i8], [28 x i8]* @.str.88, i64 0, i64 0), double %conv129), !dbg !2469
  br label %if.end130, !dbg !2469

if.end130:                                        ; preds = %if.then128, %if.end124
  %80 = load %struct.POVMSData*, %struct.POVMSData** %msg.addr, align 8, !dbg !2470
  %call131 = call i32 @_Z17POVMSUtil_GetLongP9POVMSDatajPx(%struct.POVMSData* %80, i32 1230206031, i64* %l), !dbg !2471
  %81 = load i64, i64* %l, align 8, !dbg !2472
  %conv132 = sitofp i64 %81 to double, !dbg !2472
  %cmp133 = fcmp ogt double %conv132, 5.000000e-01, !dbg !2474
  br i1 %cmp133, label %if.then134, label %if.end136, !dbg !2475

if.then134:                                       ; preds = %if.end130
  %82 = load i64, i64* %l, align 8, !dbg !2476
  %conv135 = sitofp i64 %82 to double, !dbg !2476
  call void (%"class.pov_frontend::MessageOutput"*, i32, i8*, ...) @_ZN12pov_frontend13MessageOutput6PrintfEiPKcz(%"class.pov_frontend::MessageOutput"* %this2, i32 5, i8* getelementptr inbounds ([28 x i8], [28 x i8]* @.str.89, i64 0, i64 0), double %conv135), !dbg !2477
  br label %if.end136, !dbg !2477

if.end136:                                        ; preds = %if.then134, %if.end130
  %83 = load %struct.POVMSData*, %struct.POVMSData** %msg.addr, align 8, !dbg !2478
  %call137 = call i32 @_Z16POVMSUtil_GetIntP9POVMSDatajPi(%struct.POVMSData* %83, i32 1380402036, i32* %i), !dbg !2479
  %84 = load %struct.POVMSData*, %struct.POVMSData** %msg.addr, align 8, !dbg !2480
  %call138 = call i32 @_Z16POVMSUtil_GetIntP9POVMSDatajPi(%struct.POVMSData* %84, i32 1381122932, i32* %i2), !dbg !2481
  %85 = load i32, i32* %i, align 4, !dbg !2482
  %cmp139 = icmp sgt i32 %85, 0, !dbg !2484
  br i1 %cmp139, label %if.then142, label %lor.lhs.false140, !dbg !2485

lor.lhs.false140:                                 ; preds = %if.end136
  %86 = load i32, i32* %i2, align 4, !dbg !2486
  %cmp141 = icmp sgt i32 %86, 0, !dbg !2487
  br i1 %cmp141, label %if.then142, label %if.end147, !dbg !2488

if.then142:                                       ; preds = %lor.lhs.false140, %if.end136
  call void (%"class.pov_frontend::MessageOutput"*, i32, i8*, ...) @_ZN12pov_frontend13MessageOutput6PrintfEiPKcz(%"class.pov_frontend::MessageOutput"* %this2, i32 5, i8* getelementptr inbounds ([78 x i8], [78 x i8]* @.str.73, i64 0, i64 0)), !dbg !2489
  %87 = load i32, i32* %i, align 4, !dbg !2491
  %88 = load i32, i32* %i, align 4, !dbg !2492
  %conv143 = sitofp i32 %88 to double, !dbg !2492
  %mul144 = fmul double 1.000000e+02, %conv143, !dbg !2493
  %89 = load i32, i32* %i, align 4, !dbg !2494
  %90 = load i32, i32* %i2, align 4, !dbg !2495
  %add = add nsw i32 %89, %90, !dbg !2496
  %conv145 = sitofp i32 %add to double, !dbg !2494
  %div146 = fdiv double %mul144, %conv145, !dbg !2497
  call void (%"class.pov_frontend::MessageOutput"*, i32, i8*, ...) @_ZN12pov_frontend13MessageOutput6PrintfEiPKcz(%"class.pov_frontend::MessageOutput"* %this2, i32 5, i8* getelementptr inbounds ([47 x i8], [47 x i8]* @.str.90, i64 0, i64 0), i32 %87, double %div146), !dbg !2498
  %91 = load i32, i32* %i2, align 4, !dbg !2499
  call void (%"class.pov_frontend::MessageOutput"*, i32, i8*, ...) @_ZN12pov_frontend13MessageOutput6PrintfEiPKcz(%"class.pov_frontend::MessageOutput"* %this2, i32 5, i8* getelementptr inbounds ([37 x i8], [37 x i8]* @.str.91, i64 0, i64 0), i32 %91), !dbg !2500
  br label %if.end147, !dbg !2501

if.end147:                                        ; preds = %if.then142, %lor.lhs.false140
  %92 = load %struct.POVMSData*, %struct.POVMSData** %msg.addr, align 8, !dbg !2502
  %call148 = call i32 @_Z17POVMSUtil_GetLongP9POVMSDatajPx(%struct.POVMSData* %92, i32 1347643503, i64* %l), !dbg !2503
  %93 = load i64, i64* %l, align 8, !dbg !2504
  %conv149 = sitofp i64 %93 to double, !dbg !2504
  %cmp150 = fcmp ogt double %conv149, 5.000000e-01, !dbg !2506
  br i1 %cmp150, label %if.then151, label %if.end195, !dbg !2507

if.then151:                                       ; preds = %if.end147
  call void (%"class.pov_frontend::MessageOutput"*, i32, i8*, ...) @_ZN12pov_frontend13MessageOutput6PrintfEiPKcz(%"class.pov_frontend::MessageOutput"* %this2, i32 5, i8* getelementptr inbounds ([78 x i8], [78 x i8]* @.str.73, i64 0, i64 0)), !dbg !2508
  %94 = load i64, i64* %l, align 8, !dbg !2510
  %conv152 = sitofp i64 %94 to double, !dbg !2510
  call void (%"class.pov_frontend::MessageOutput"*, i32, i8*, ...) @_ZN12pov_frontend13MessageOutput6PrintfEiPKcz(%"class.pov_frontend::MessageOutput"* %this2, i32 5, i8* getelementptr inbounds ([32 x i8], [32 x i8]* @.str.92, i64 0, i64 0), double %conv152), !dbg !2511
  %95 = load %struct.POVMSData*, %struct.POVMSData** %msg.addr, align 8, !dbg !2512
  %call153 = call i32 @_Z17POVMSUtil_GetLongP9POVMSDatajPx(%struct.POVMSData* %95, i32 1347646575, i64* %l), !dbg !2513
  %96 = load i64, i64* %l, align 8, !dbg !2514
  %conv154 = sitofp i64 %96 to double, !dbg !2514
  %cmp155 = fcmp ogt double %conv154, 5.000000e-01, !dbg !2516
  br i1 %cmp155, label %if.then156, label %if.end158, !dbg !2517

if.then156:                                       ; preds = %if.then151
  %97 = load i64, i64* %l, align 8, !dbg !2518
  %conv157 = sitofp i64 %97 to double, !dbg !2518
  call void (%"class.pov_frontend::MessageOutput"*, i32, i8*, ...) @_ZN12pov_frontend13MessageOutput6PrintfEiPKcz(%"class.pov_frontend::MessageOutput"* %this2, i32 5, i8* getelementptr inbounds ([32 x i8], [32 x i8]* @.str.93, i64 0, i64 0), double %conv157), !dbg !2519
  br label %if.end158, !dbg !2519

if.end158:                                        ; preds = %if.then156, %if.then151
  %98 = load %struct.POVMSData*, %struct.POVMSData** %msg.addr, align 8, !dbg !2520
  %call159 = call i32 @_Z17POVMSUtil_GetLongP9POVMSDatajPx(%struct.POVMSData* %98, i32 1297109876, i64* %l), !dbg !2521
  %99 = load i64, i64* %l, align 8, !dbg !2522
  %conv160 = sitofp i64 %99 to double, !dbg !2522
  %cmp161 = fcmp ogt double %conv160, 5.000000e-01, !dbg !2524
  br i1 %cmp161, label %if.then162, label %if.end164, !dbg !2525

if.then162:                                       ; preds = %if.end158
  %100 = load i64, i64* %l, align 8, !dbg !2526
  %conv163 = sitofp i64 %100 to double, !dbg !2526
  call void (%"class.pov_frontend::MessageOutput"*, i32, i8*, ...) @_ZN12pov_frontend13MessageOutput6PrintfEiPKcz(%"class.pov_frontend::MessageOutput"* %this2, i32 5, i8* getelementptr inbounds ([32 x i8], [32 x i8]* @.str.94, i64 0, i64 0), double %conv163), !dbg !2527
  br label %if.end164, !dbg !2527

if.end164:                                        ; preds = %if.then162, %if.end158
  %101 = load %struct.POVMSData*, %struct.POVMSData** %msg.addr, align 8, !dbg !2528
  %call165 = call i32 @_Z17POVMSUtil_GetLongP9POVMSDatajPx(%struct.POVMSData* %101, i32 1196446580, i64* %l), !dbg !2529
  %102 = load i64, i64* %l, align 8, !dbg !2530
  %conv166 = sitofp i64 %102 to double, !dbg !2530
  %cmp167 = fcmp ogt double %conv166, 5.000000e-01, !dbg !2532
  br i1 %cmp167, label %if.then168, label %if.end170, !dbg !2533

if.then168:                                       ; preds = %if.end164
  %103 = load i64, i64* %l, align 8, !dbg !2534
  %conv169 = sitofp i64 %103 to double, !dbg !2534
  call void (%"class.pov_frontend::MessageOutput"*, i32, i8*, ...) @_ZN12pov_frontend13MessageOutput6PrintfEiPKcz(%"class.pov_frontend::MessageOutput"* %this2, i32 5, i8* getelementptr inbounds ([32 x i8], [32 x i8]* @.str.95, i64 0, i64 0), double %conv169), !dbg !2535
  br label %if.end170, !dbg !2535

if.end170:                                        ; preds = %if.then168, %if.end164
  %104 = load %struct.POVMSData*, %struct.POVMSData** %msg.addr, align 8, !dbg !2536
  %call171 = call i32 @_Z17POVMSUtil_GetLongP9POVMSDatajPx(%struct.POVMSData* %104, i32 1347440969, i64* %l), !dbg !2537
  %105 = load i64, i64* %l, align 8, !dbg !2538
  %conv172 = sitofp i64 %105 to double, !dbg !2538
  %cmp173 = fcmp ogt double %conv172, 5.000000e-01, !dbg !2540
  br i1 %cmp173, label %if.then174, label %if.end176, !dbg !2541

if.then174:                                       ; preds = %if.end170
  %106 = load i64, i64* %l, align 8, !dbg !2542
  %conv175 = sitofp i64 %106 to double, !dbg !2542
  call void (%"class.pov_frontend::MessageOutput"*, i32, i8*, ...) @_ZN12pov_frontend13MessageOutput6PrintfEiPKcz(%"class.pov_frontend::MessageOutput"* %this2, i32 5, i8* getelementptr inbounds ([32 x i8], [32 x i8]* @.str.96, i64 0, i64 0), double %conv175), !dbg !2543
  br label %if.end176, !dbg !2543

if.end176:                                        ; preds = %if.then174, %if.end170
  %107 = load %struct.POVMSData*, %struct.POVMSData** %msg.addr, align 8, !dbg !2544
  %call177 = call i32 @_Z17POVMSUtil_GetLongP9POVMSDatajPx(%struct.POVMSData* %107, i32 1347440978, i64* %l), !dbg !2545
  %108 = load i64, i64* %l, align 8, !dbg !2546
  %conv178 = sitofp i64 %108 to double, !dbg !2546
  %cmp179 = fcmp ogt double %conv178, 5.000000e-01, !dbg !2548
  br i1 %cmp179, label %if.then180, label %if.end182, !dbg !2549

if.then180:                                       ; preds = %if.end176
  %109 = load i64, i64* %l, align 8, !dbg !2550
  %conv181 = sitofp i64 %109 to double, !dbg !2550
  call void (%"class.pov_frontend::MessageOutput"*, i32, i8*, ...) @_ZN12pov_frontend13MessageOutput6PrintfEiPKcz(%"class.pov_frontend::MessageOutput"* %this2, i32 5, i8* getelementptr inbounds ([32 x i8], [32 x i8]* @.str.97, i64 0, i64 0), double %conv181), !dbg !2551
  br label %if.end182, !dbg !2551

if.end182:                                        ; preds = %if.then180, %if.end176
  %110 = load %struct.POVMSData*, %struct.POVMSData** %msg.addr, align 8, !dbg !2552
  %call183 = call i32 @_Z17POVMSUtil_GetLongP9POVMSDatajPx(%struct.POVMSData* %110, i32 1196442478, i64* %l), !dbg !2553
  %111 = load i64, i64* %l, align 8, !dbg !2554
  %conv184 = sitofp i64 %111 to double, !dbg !2554
  %cmp185 = fcmp ogt double %conv184, 5.000000e-01, !dbg !2556
  br i1 %cmp185, label %if.then186, label %if.end188, !dbg !2557

if.then186:                                       ; preds = %if.end182
  %112 = load i64, i64* %l, align 8, !dbg !2558
  %conv187 = sitofp i64 %112 to double, !dbg !2558
  call void (%"class.pov_frontend::MessageOutput"*, i32, i8*, ...) @_ZN12pov_frontend13MessageOutput6PrintfEiPKcz(%"class.pov_frontend::MessageOutput"* %this2, i32 5, i8* getelementptr inbounds ([32 x i8], [32 x i8]* @.str.98, i64 0, i64 0), double %conv187), !dbg !2559
  br label %if.end188, !dbg !2559

if.end188:                                        ; preds = %if.then186, %if.end182
  %113 = load %struct.POVMSData*, %struct.POVMSData** %msg.addr, align 8, !dbg !2560
  %call189 = call i32 @_Z17POVMSUtil_GetLongP9POVMSDatajPx(%struct.POVMSData* %113, i32 1195721582, i64* %l), !dbg !2561
  %114 = load i64, i64* %l, align 8, !dbg !2562
  %conv190 = sitofp i64 %114 to double, !dbg !2562
  %cmp191 = fcmp ogt double %conv190, 5.000000e-01, !dbg !2564
  br i1 %cmp191, label %if.then192, label %if.end194, !dbg !2565

if.then192:                                       ; preds = %if.end188
  %115 = load i64, i64* %l, align 8, !dbg !2566
  %conv193 = sitofp i64 %115 to double, !dbg !2566
  call void (%"class.pov_frontend::MessageOutput"*, i32, i8*, ...) @_ZN12pov_frontend13MessageOutput6PrintfEiPKcz(%"class.pov_frontend::MessageOutput"* %this2, i32 5, i8* getelementptr inbounds ([32 x i8], [32 x i8]* @.str.99, i64 0, i64 0), double %conv193), !dbg !2567
  br label %if.end194, !dbg !2567

if.end194:                                        ; preds = %if.then192, %if.end188
  br label %if.end195, !dbg !2568

if.end195:                                        ; preds = %if.end194, %if.end147
  call void (%"class.pov_frontend::MessageOutput"*, i32, i8*, ...) @_ZN12pov_frontend13MessageOutput6PrintfEiPKcz(%"class.pov_frontend::MessageOutput"* %this2, i32 5, i8* getelementptr inbounds ([78 x i8], [78 x i8]* @.str.73, i64 0, i64 0)), !dbg !2569
  %116 = load %struct.POVMSData*, %struct.POVMSData** %msg.addr, align 8, !dbg !2570
  %call196 = call i32 @_Z17POVMSUtil_GetLongP9POVMSDatajPx(%struct.POVMSData* %116, i32 1298755137, i64* %l), !dbg !2571
  %117 = load i64, i64* %l, align 8, !dbg !2572
  %conv197 = sitofp i64 %117 to double, !dbg !2572
  call void (%"class.pov_frontend::MessageOutput"*, i32, i8*, ...) @_ZN12pov_frontend13MessageOutput6PrintfEiPKcz(%"class.pov_frontend::MessageOutput"* %this2, i32 5, i8* getelementptr inbounds ([34 x i8], [34 x i8]* @.str.100, i64 0, i64 0), double %conv197), !dbg !2573
  %118 = load %struct.POVMSData*, %struct.POVMSData** %msg.addr, align 8, !dbg !2574
  %call198 = call i32 @_Z17POVMSUtil_GetLongP9POVMSDatajPx(%struct.POVMSData* %118, i32 1298233409, i64* %l), !dbg !2575
  %119 = load i64, i64* %l, align 8, !dbg !2576
  %conv199 = sitofp i64 %119 to double, !dbg !2576
  call void (%"class.pov_frontend::MessageOutput"*, i32, i8*, ...) @_ZN12pov_frontend13MessageOutput6PrintfEiPKcz(%"class.pov_frontend::MessageOutput"* %this2, i32 5, i8* getelementptr inbounds ([34 x i8], [34 x i8]* @.str.101, i64 0, i64 0), double %conv199), !dbg !2577
  store i64 0, i64* %l, align 8, !dbg !2578
  store i64 0, i64* %l2, align 8, !dbg !2579
  %120 = load %struct.POVMSData*, %struct.POVMSData** %msg.addr, align 8, !dbg !2580
  %call200 = call i32 @_Z17POVMSUtil_GetLongP9POVMSDatajPx(%struct.POVMSData* %120, i32 1129595244, i64* %l), !dbg !2581
  %121 = load %struct.POVMSData*, %struct.POVMSData** %msg.addr, align 8, !dbg !2582
  %call201 = call i32 @_Z17POVMSUtil_GetLongP9POVMSDatajPx(%struct.POVMSData* %121, i32 1129596530, i64* %l2), !dbg !2583
  %122 = load i64, i64* %l, align 8, !dbg !2584
  %conv202 = sitofp i64 %122 to double, !dbg !2584
  %cmp203 = fcmp ogt double %conv202, 5.000000e-01, !dbg !2586
  br i1 %cmp203, label %if.then204, label %if.end207, !dbg !2587

if.then204:                                       ; preds = %if.end195
  %123 = load i64, i64* %l, align 8, !dbg !2588
  %conv205 = sitofp i64 %123 to double, !dbg !2588
  %124 = load i64, i64* %l2, align 8, !dbg !2589
  %conv206 = sitofp i64 %124 to double, !dbg !2589
  call void (%"class.pov_frontend::MessageOutput"*, i32, i8*, ...) @_ZN12pov_frontend13MessageOutput6PrintfEiPKcz(%"class.pov_frontend::MessageOutput"* %this2, i32 5, i8* getelementptr inbounds ([54 x i8], [54 x i8]* @.str.102, i64 0, i64 0), double %conv205, double %conv206), !dbg !2590
  br label %if.end207, !dbg !2590

if.end207:                                        ; preds = %if.then204, %if.end195
  store i64 0, i64* %l, align 8, !dbg !2591
  %125 = load %struct.POVMSData*, %struct.POVMSData** %msg.addr, align 8, !dbg !2592
  %call208 = call i32 @_Z17POVMSUtil_GetLongP9POVMSDatajPx(%struct.POVMSData* %125, i32 1347245427, i64* %l), !dbg !2593
  %126 = load i64, i64* %l, align 8, !dbg !2594
  %conv209 = sitofp i64 %126 to double, !dbg !2594
  %cmp210 = fcmp ogt double %conv209, 5.000000e-01, !dbg !2596
  br i1 %cmp210, label %if.then211, label %if.end213, !dbg !2597

if.then211:                                       ; preds = %if.end207
  %127 = load i64, i64* %l, align 8, !dbg !2598
  %conv212 = sitofp i64 %127 to double, !dbg !2598
  call void (%"class.pov_frontend::MessageOutput"*, i32, i8*, ...) @_ZN12pov_frontend13MessageOutput6PrintfEiPKcz(%"class.pov_frontend::MessageOutput"* %this2, i32 5, i8* getelementptr inbounds ([34 x i8], [34 x i8]* @.str.103, i64 0, i64 0), double %conv212), !dbg !2599
  br label %if.end213, !dbg !2599

if.end213:                                        ; preds = %if.then211, %if.end207
  ret void, !dbg !2600
}

; Function Attrs: noinline uwtable
define linkonce_odr dso_local void @_ZN21POVMS_MessageReceiver11InstallBackIN12pov_frontend13MessageOutputEEEvjjPT_NS_13MemberHandlerIS3_E16MemberHandlerPtrE(%class.POVMS_MessageReceiver* %this, i32 %hclass, i32 %hid, %"class.pov_frontend::MessageOutput"* %cptr, i64 %hptr.coerce0, i64 %hptr.coerce1) #0 comdat align 2 personality i8* bitcast (i32 (...)* @__gxx_personality_v0 to i8*) !dbg !2601 {
entry:
  %hptr = alloca { i64, i64 }, align 8
  %this.addr = alloca %class.POVMS_MessageReceiver*, align 8
  %hclass.addr = alloca i32, align 4
  %hid.addr = alloca i32, align 4
  %cptr.addr = alloca %"class.pov_frontend::MessageOutput"*, align 8
  %hptr.addr = alloca { i64, i64 }, align 8
  %coerce = alloca { i64, i64 }, align 8
  %exn.slot = alloca i8*
  %ehselector.slot = alloca i32
  %0 = getelementptr inbounds { i64, i64 }, { i64, i64 }* %hptr, i32 0, i32 0
  store i64 %hptr.coerce0, i64* %0, align 8
  %1 = getelementptr inbounds { i64, i64 }, { i64, i64 }* %hptr, i32 0, i32 1
  store i64 %hptr.coerce1, i64* %1, align 8
  %hptr1 = load { i64, i64 }, { i64, i64 }* %hptr, align 8
  store %class.POVMS_MessageReceiver* %this, %class.POVMS_MessageReceiver** %this.addr, align 8
  call void @llvm.dbg.declare(metadata %class.POVMS_MessageReceiver** %this.addr, metadata !2603, metadata !DIExpression()), !dbg !2604
  store i32 %hclass, i32* %hclass.addr, align 4
  call void @llvm.dbg.declare(metadata i32* %hclass.addr, metadata !2605, metadata !DIExpression()), !dbg !2606
  store i32 %hid, i32* %hid.addr, align 4
  call void @llvm.dbg.declare(metadata i32* %hid.addr, metadata !2607, metadata !DIExpression()), !dbg !2608
  store %"class.pov_frontend::MessageOutput"* %cptr, %"class.pov_frontend::MessageOutput"** %cptr.addr, align 8
  call void @llvm.dbg.declare(metadata %"class.pov_frontend::MessageOutput"** %cptr.addr, metadata !2609, metadata !DIExpression()), !dbg !2610
  store { i64, i64 } %hptr1, { i64, i64 }* %hptr.addr, align 8
  call void @llvm.dbg.declare(metadata { i64, i64 }* %hptr.addr, metadata !2611, metadata !DIExpression()), !dbg !2612
  %this2 = load %class.POVMS_MessageReceiver*, %class.POVMS_MessageReceiver** %this.addr, align 8
  %2 = load i32, i32* %hclass.addr, align 4, !dbg !2613
  %3 = load i32, i32* %hid.addr, align 4, !dbg !2614
  %call = call i8* @_Znwm(i64 32) #11, !dbg !2615
  %4 = bitcast i8* %call to %"class.POVMS_MessageReceiver::MemberHandler"*, !dbg !2615
  %5 = load %"class.pov_frontend::MessageOutput"*, %"class.pov_frontend::MessageOutput"** %cptr.addr, align 8, !dbg !2616
  %6 = load { i64, i64 }, { i64, i64 }* %hptr.addr, align 8, !dbg !2617
  store { i64, i64 } %6, { i64, i64 }* %coerce, align 8, !dbg !2618
  %7 = getelementptr inbounds { i64, i64 }, { i64, i64 }* %coerce, i32 0, i32 0, !dbg !2618
  %8 = load i64, i64* %7, align 8, !dbg !2618
  %9 = getelementptr inbounds { i64, i64 }, { i64, i64 }* %coerce, i32 0, i32 1, !dbg !2618
  %10 = load i64, i64* %9, align 8, !dbg !2618
  invoke void @_ZN21POVMS_MessageReceiver13MemberHandlerIN12pov_frontend13MessageOutputEEC2EPS2_MS2_FvP9POVMSDataS6_iE(%"class.POVMS_MessageReceiver::MemberHandler"* %4, %"class.pov_frontend::MessageOutput"* %5, i64 %8, i64 %10)
          to label %invoke.cont unwind label %lpad, !dbg !2618

invoke.cont:                                      ; preds = %entry
  %11 = bitcast %"class.POVMS_MessageReceiver::MemberHandler"* %4 to %"class.POVMS_MessageReceiver::Handler"*, !dbg !2615
  call void @_ZN21POVMS_MessageReceiver11AddNodeBackEjjPNS_9HandlerOOEPNS_7HandlerE(%class.POVMS_MessageReceiver* %this2, i32 %2, i32 %3, %"class.POVMS_MessageReceiver::HandlerOO"* null, %"class.POVMS_MessageReceiver::Handler"* %11), !dbg !2619
  ret void, !dbg !2620

lpad:                                             ; preds = %entry
  %12 = landingpad { i8*, i32 }
          cleanup, !dbg !2620
  %13 = extractvalue { i8*, i32 } %12, 0, !dbg !2620
  store i8* %13, i8** %exn.slot, align 8, !dbg !2620
  %14 = extractvalue { i8*, i32 } %12, 1, !dbg !2620
  store i32 %14, i32* %ehselector.slot, align 4, !dbg !2620
  call void @_ZdlPv(i8* %call) #12, !dbg !2615
  br label %eh.resume, !dbg !2615

eh.resume:                                        ; preds = %lpad
  %exn = load i8*, i8** %exn.slot, align 8, !dbg !2615
  %sel = load i32, i32* %ehselector.slot, align 4, !dbg !2615
  %lpad.val = insertvalue { i8*, i32 } undef, i8* %exn, 0, !dbg !2615
  %lpad.val3 = insertvalue { i8*, i32 } %lpad.val, i32 %sel, 1, !dbg !2615
  resume { i8*, i32 } %lpad.val3, !dbg !2615
}

; Function Attrs: noinline nounwind uwtable
define dso_local void @_ZN12pov_frontend13MessageOutput10RenderDoneEP9POVMSDataS2_i(%"class.pov_frontend::MessageOutput"* %this, %struct.POVMSData* %msg, %struct.POVMSData* %0, i32 %1) #4 align 2 !dbg !2621 {
entry:
  %this.addr = alloca %"class.pov_frontend::MessageOutput"*, align 8
  %msg.addr = alloca %struct.POVMSData*, align 8
  %.addr = alloca %struct.POVMSData*, align 8
  %.addr1 = alloca i32, align 4
  store %"class.pov_frontend::MessageOutput"* %this, %"class.pov_frontend::MessageOutput"** %this.addr, align 8
  call void @llvm.dbg.declare(metadata %"class.pov_frontend::MessageOutput"** %this.addr, metadata !2622, metadata !DIExpression()), !dbg !2623
  store %struct.POVMSData* %msg, %struct.POVMSData** %msg.addr, align 8
  call void @llvm.dbg.declare(metadata %struct.POVMSData** %msg.addr, metadata !2624, metadata !DIExpression()), !dbg !2625
  store %struct.POVMSData* %0, %struct.POVMSData** %.addr, align 8
  call void @llvm.dbg.declare(metadata %struct.POVMSData** %.addr, metadata !2626, metadata !DIExpression()), !dbg !2627
  store i32 %1, i32* %.addr1, align 4
  call void @llvm.dbg.declare(metadata i32* %.addr1, metadata !2628, metadata !DIExpression()), !dbg !2629
  %this2 = load %"class.pov_frontend::MessageOutput"*, %"class.pov_frontend::MessageOutput"** %this.addr, align 8
  ret void, !dbg !2630
}

; Function Attrs: noinline uwtable
define dso_local void @_ZN12pov_frontend13MessageOutput8ProgressEP9POVMSDataS2_i(%"class.pov_frontend::MessageOutput"* %this, %struct.POVMSData* %msg, %struct.POVMSData* %0, i32 %1) #0 align 2 !dbg !2631 {
entry:
  %this.addr = alloca %"class.pov_frontend::MessageOutput"*, align 8
  %msg.addr = alloca %struct.POVMSData*, align 8
  %.addr = alloca %struct.POVMSData*, align 8
  %.addr1 = alloca i32, align 4
  %ll = alloca i64, align 8
  %b = alloca i32, align 4
  %ret = alloca i32, align 4
  %l = alloca i32, align 4
  %s = alloca i32, align 4
  store %"class.pov_frontend::MessageOutput"* %this, %"class.pov_frontend::MessageOutput"** %this.addr, align 8
  call void @llvm.dbg.declare(metadata %"class.pov_frontend::MessageOutput"** %this.addr, metadata !2632, metadata !DIExpression()), !dbg !2633
  store %struct.POVMSData* %msg, %struct.POVMSData** %msg.addr, align 8
  call void @llvm.dbg.declare(metadata %struct.POVMSData** %msg.addr, metadata !2634, metadata !DIExpression()), !dbg !2635
  store %struct.POVMSData* %0, %struct.POVMSData** %.addr, align 8
  call void @llvm.dbg.declare(metadata %struct.POVMSData** %.addr, metadata !2636, metadata !DIExpression()), !dbg !2637
  store i32 %1, i32* %.addr1, align 4
  call void @llvm.dbg.declare(metadata i32* %.addr1, metadata !2638, metadata !DIExpression()), !dbg !2639
  %this2 = load %"class.pov_frontend::MessageOutput"*, %"class.pov_frontend::MessageOutput"** %this.addr, align 8
  call void @llvm.dbg.declare(metadata i64* %ll, metadata !2640, metadata !DIExpression()), !dbg !2641
  store i64 0, i64* %ll, align 8, !dbg !2641
  call void @llvm.dbg.declare(metadata i32* %b, metadata !2642, metadata !DIExpression()), !dbg !2643
  store i32 0, i32* %b, align 4, !dbg !2643
  call void @llvm.dbg.declare(metadata i32* %ret, metadata !2644, metadata !DIExpression()), !dbg !2645
  store i32 0, i32* %ret, align 4, !dbg !2645
  call void @llvm.dbg.declare(metadata i32* %l, metadata !2646, metadata !DIExpression()), !dbg !2647
  store i32 0, i32* %l, align 4, !dbg !2647
  call void @llvm.dbg.declare(metadata i32* %s, metadata !2648, metadata !DIExpression()), !dbg !2649
  store i32 0, i32* %s, align 4, !dbg !2649
  call void @_ZN12pov_frontend13MessageOutput5FlushEi(%"class.pov_frontend::MessageOutput"* %this2, i32 2), !dbg !2650
  %2 = load %struct.POVMSData*, %struct.POVMSData** %msg.addr, align 8, !dbg !2651
  %call = call i32 @_Z17POVMSUtil_GetBoolP9POVMSDatajPi(%struct.POVMSData* %2, i32 1349676883, i32* %b), !dbg !2652
  store i32 %call, i32* %ret, align 4, !dbg !2653
  %3 = load i32, i32* %ret, align 4, !dbg !2654
  %cmp = icmp eq i32 %3, 0, !dbg !2656
  br i1 %cmp, label %if.then, label %if.end, !dbg !2657

if.then:                                          ; preds = %entry
  %4 = load %struct.POVMSData*, %struct.POVMSData** %msg.addr, align 8, !dbg !2658
  %call3 = call i32 @_Z16POVMSUtil_GetIntP9POVMSDatajPi(%struct.POVMSData* %4, i32 1416590420, i32* %s), !dbg !2659
  store i32 %call3, i32* %ret, align 4, !dbg !2660
  br label %if.end, !dbg !2661

if.end:                                           ; preds = %if.then, %entry
  %5 = load i32, i32* %ret, align 4, !dbg !2662
  %cmp4 = icmp eq i32 %5, 0, !dbg !2664
  br i1 %cmp4, label %if.then5, label %if.end74, !dbg !2665

if.then5:                                         ; preds = %if.end
  store i32 80, i32* %l, align 4, !dbg !2666
  %6 = load i32, i32* %b, align 4, !dbg !2668
  %cmp6 = icmp eq i32 %6, 0, !dbg !2670
  br i1 %cmp6, label %if.then7, label %if.else, !dbg !2671

if.then7:                                         ; preds = %if.then5
  %7 = load %struct.POVMSData*, %struct.POVMSData** %msg.addr, align 8, !dbg !2672
  %status_string_buffer = getelementptr inbounds %"class.pov_frontend::MessageOutput", %"class.pov_frontend::MessageOutput"* %this2, i32 0, i32 6, !dbg !2674
  %arraydecay = getelementptr inbounds [80 x i8], [80 x i8]* %status_string_buffer, i64 0, i64 0, !dbg !2674
  %call8 = call i32 @_Z19POVMSUtil_GetStringP9POVMSDatajPcPi(%struct.POVMSData* %7, i32 1163163764, i8* %arraydecay, i32* %l), !dbg !2675
  store i32 %call8, i32* %ret, align 4, !dbg !2676
  %8 = load i32, i32* %ret, align 4, !dbg !2677
  %cmp9 = icmp eq i32 %8, 0, !dbg !2679
  br i1 %cmp9, label %if.then10, label %if.end15, !dbg !2680

if.then10:                                        ; preds = %if.then7
  %9 = load i32, i32* %s, align 4, !dbg !2681
  %div = sdiv i32 %9, 3600, !dbg !2682
  %10 = load i32, i32* %s, align 4, !dbg !2683
  %div11 = sdiv i32 %10, 60, !dbg !2684
  %rem = srem i32 %div11, 60, !dbg !2685
  %11 = load i32, i32* %s, align 4, !dbg !2686
  %rem12 = srem i32 %11, 60, !dbg !2687
  %status_string_buffer13 = getelementptr inbounds %"class.pov_frontend::MessageOutput", %"class.pov_frontend::MessageOutput"* %this2, i32 0, i32 6, !dbg !2688
  %arraydecay14 = getelementptr inbounds [80 x i8], [80 x i8]* %status_string_buffer13, i64 0, i64 0, !dbg !2688
  call void (%"class.pov_frontend::MessageOutput"*, i32, i8*, ...) @_ZN12pov_frontend13MessageOutput6PrintfEiPKcz(%"class.pov_frontend::MessageOutput"* %this2, i32 1, i8* getelementptr inbounds ([18 x i8], [18 x i8]* @.str.104, i64 0, i64 0), i32 %div, i32 %rem, i32 %rem12, i8* %arraydecay14), !dbg !2689
  br label %if.end15, !dbg !2689

if.end15:                                         ; preds = %if.then10, %if.then7
  br label %if.end25, !dbg !2690

if.else:                                          ; preds = %if.then5
  %12 = load %struct.POVMSData*, %struct.POVMSData** %msg.addr, align 8, !dbg !2691
  %status_string_buffer16 = getelementptr inbounds %"class.pov_frontend::MessageOutput", %"class.pov_frontend::MessageOutput"* %this2, i32 0, i32 6, !dbg !2693
  %arraydecay17 = getelementptr inbounds [80 x i8], [80 x i8]* %status_string_buffer16, i64 0, i64 0, !dbg !2693
  %call18 = call i32 @_Z19POVMSUtil_GetStringP9POVMSDatajPcPi(%struct.POVMSData* %12, i32 1163163764, i8* %arraydecay17, i32* %l), !dbg !2694
  %13 = load i32, i32* %s, align 4, !dbg !2695
  %div19 = sdiv i32 %13, 3600, !dbg !2696
  %14 = load i32, i32* %s, align 4, !dbg !2697
  %div20 = sdiv i32 %14, 60, !dbg !2698
  %rem21 = srem i32 %div20, 60, !dbg !2699
  %15 = load i32, i32* %s, align 4, !dbg !2700
  %rem22 = srem i32 %15, 60, !dbg !2701
  %status_string_buffer23 = getelementptr inbounds %"class.pov_frontend::MessageOutput", %"class.pov_frontend::MessageOutput"* %this2, i32 0, i32 6, !dbg !2702
  %arraydecay24 = getelementptr inbounds [80 x i8], [80 x i8]* %status_string_buffer23, i64 0, i64 0, !dbg !2702
  call void (%"class.pov_frontend::MessageOutput"*, i32, i8*, ...) @_ZN12pov_frontend13MessageOutput6PrintfEiPKcz(%"class.pov_frontend::MessageOutput"* %this2, i32 1, i8* getelementptr inbounds ([18 x i8], [18 x i8]* @.str.105, i64 0, i64 0), i32 %div19, i32 %rem21, i32 %rem22, i8* %arraydecay24), !dbg !2703
  br label %if.end25

if.end25:                                         ; preds = %if.else, %if.end15
  %16 = load %struct.POVMSData*, %struct.POVMSData** %msg.addr, align 8, !dbg !2704
  %call26 = call i32 @_Z16POVMSUtil_GetIntP9POVMSDatajPi(%struct.POVMSData* %16, i32 1178824308, i32* %l), !dbg !2707
  %cmp27 = icmp eq i32 %call26, 0, !dbg !2708
  br i1 %cmp27, label %if.then28, label %if.else33, !dbg !2709

if.then28:                                        ; preds = %if.end25
  %17 = load %struct.POVMSData*, %struct.POVMSData** %msg.addr, align 8, !dbg !2710
  %call29 = call i32 @_Z16POVMSUtil_GetIntP9POVMSDatajPi(%struct.POVMSData* %17, i32 1096971078, i32* %s), !dbg !2713
  %cmp30 = icmp eq i32 %call29, 0, !dbg !2714
  br i1 %cmp30, label %if.then31, label %if.end32, !dbg !2715

if.then31:                                        ; preds = %if.then28
  %18 = load i32, i32* %s, align 4, !dbg !2716
  %19 = load i32, i32* %l, align 4, !dbg !2717
  call void (%"class.pov_frontend::MessageOutput"*, i32, i8*, ...) @_ZN12pov_frontend13MessageOutput6PrintfEiPKcz(%"class.pov_frontend::MessageOutput"* %this2, i32 1, i8* getelementptr inbounds ([10 x i8], [10 x i8]* @.str.106, i64 0, i64 0), i32 %18, i32 %19), !dbg !2718
  br label %if.end32, !dbg !2718

if.end32:                                         ; preds = %if.then31, %if.then28
  br label %if.end73, !dbg !2719

if.else33:                                        ; preds = %if.end25
  %20 = load %struct.POVMSData*, %struct.POVMSData** %msg.addr, align 8, !dbg !2720
  %call34 = call i32 @_Z17POVMSUtil_GetLongP9POVMSDatajPx(%struct.POVMSData* %20, i32 1131770452, i64* %ll), !dbg !2722
  %cmp35 = icmp eq i32 %call34, 0, !dbg !2723
  br i1 %cmp35, label %land.lhs.true, label %if.else39, !dbg !2724

land.lhs.true:                                    ; preds = %if.else33
  %21 = load i64, i64* %ll, align 8, !dbg !2725
  %cmp36 = icmp sgt i64 %21, 0, !dbg !2726
  br i1 %cmp36, label %if.then37, label %if.else39, !dbg !2727

if.then37:                                        ; preds = %land.lhs.true
  %22 = load i64, i64* %ll, align 8, !dbg !2728
  %div38 = sdiv i64 %22, 1000, !dbg !2730
  call void (%"class.pov_frontend::MessageOutput"*, i32, i8*, ...) @_ZN12pov_frontend13MessageOutput6PrintfEiPKcz(%"class.pov_frontend::MessageOutput"* %this2, i32 1, i8* getelementptr inbounds ([13 x i8], [13 x i8]* @.str.107, i64 0, i64 0), i64 %div38), !dbg !2731
  br label %if.end72, !dbg !2732

if.else39:                                        ; preds = %land.lhs.true, %if.else33
  %23 = load %struct.POVMSData*, %struct.POVMSData** %msg.addr, align 8, !dbg !2733
  %call40 = call i32 @_Z16POVMSUtil_GetIntP9POVMSDatajPi(%struct.POVMSData* %23, i32 1131770444, i32* %l), !dbg !2735
  %cmp41 = icmp eq i32 %call40, 0, !dbg !2736
  br i1 %cmp41, label %if.then42, label %if.else59, !dbg !2737

if.then42:                                        ; preds = %if.else39
  %24 = load %struct.POVMSData*, %struct.POVMSData** %msg.addr, align 8, !dbg !2738
  %call43 = call i32 @_Z16POVMSUtil_GetIntP9POVMSDatajPi(%struct.POVMSData* %24, i32 1279487604, i32* %s), !dbg !2741
  %cmp44 = icmp eq i32 %call43, 0, !dbg !2742
  br i1 %cmp44, label %if.then45, label %if.end46, !dbg !2743

if.then45:                                        ; preds = %if.then42
  %25 = load i32, i32* %l, align 4, !dbg !2744
  %26 = load i32, i32* %s, align 4, !dbg !2745
  call void (%"class.pov_frontend::MessageOutput"*, i32, i8*, ...) @_ZN12pov_frontend13MessageOutput6PrintfEiPKcz(%"class.pov_frontend::MessageOutput"* %this2, i32 1, i8* getelementptr inbounds ([15 x i8], [15 x i8]* @.str.108, i64 0, i64 0), i32 %25, i32 %26), !dbg !2746
  br label %if.end46, !dbg !2746

if.end46:                                         ; preds = %if.then45, %if.then42
  %27 = load %struct.POVMSData*, %struct.POVMSData** %msg.addr, align 8, !dbg !2747
  %call47 = call i32 @_Z16POVMSUtil_GetIntP9POVMSDatajPi(%struct.POVMSData* %27, i32 1297109865, i32* %l), !dbg !2749
  %cmp48 = icmp eq i32 %call47, 0, !dbg !2750
  br i1 %cmp48, label %if.then49, label %if.end50, !dbg !2751

if.then49:                                        ; preds = %if.end46
  %28 = load i32, i32* %l, align 4, !dbg !2752
  %29 = load i32, i32* %l, align 4, !dbg !2753
  call void (%"class.pov_frontend::MessageOutput"*, i32, i8*, ...) @_ZN12pov_frontend13MessageOutput6PrintfEiPKcz(%"class.pov_frontend::MessageOutput"* %this2, i32 1, i8* getelementptr inbounds ([10 x i8], [10 x i8]* @.str.109, i64 0, i64 0), i32 %28, i32 %29), !dbg !2754
  br label %if.end50, !dbg !2754

if.end50:                                         ; preds = %if.then49, %if.end46
  %30 = load %struct.POVMSData*, %struct.POVMSData** %msg.addr, align 8, !dbg !2755
  %call51 = call i32 @_Z16POVMSUtil_GetIntP9POVMSDatajPi(%struct.POVMSData* %30, i32 1397965678, i32* %l), !dbg !2757
  %cmp52 = icmp eq i32 %call51, 0, !dbg !2758
  br i1 %cmp52, label %if.then53, label %if.end54, !dbg !2759

if.then53:                                        ; preds = %if.end50
  %31 = load i32, i32* %l, align 4, !dbg !2760
  call void (%"class.pov_frontend::MessageOutput"*, i32, i8*, ...) @_ZN12pov_frontend13MessageOutput6PrintfEiPKcz(%"class.pov_frontend::MessageOutput"* %this2, i32 1, i8* getelementptr inbounds ([18 x i8], [18 x i8]* @.str.110, i64 0, i64 0), i32 %31), !dbg !2761
  br label %if.end54, !dbg !2761

if.end54:                                         ; preds = %if.then53, %if.end50
  %32 = load %struct.POVMSData*, %struct.POVMSData** %msg.addr, align 8, !dbg !2762
  %call55 = call i32 @_Z16POVMSUtil_GetIntP9POVMSDatajPi(%struct.POVMSData* %32, i32 1380402036, i32* %l), !dbg !2764
  %cmp56 = icmp eq i32 %call55, 0, !dbg !2765
  br i1 %cmp56, label %if.then57, label %if.end58, !dbg !2766

if.then57:                                        ; preds = %if.end54
  %33 = load i32, i32* %l, align 4, !dbg !2767
  call void (%"class.pov_frontend::MessageOutput"*, i32, i8*, ...) @_ZN12pov_frontend13MessageOutput6PrintfEiPKcz(%"class.pov_frontend::MessageOutput"* %this2, i32 1, i8* getelementptr inbounds ([18 x i8], [18 x i8]* @.str.111, i64 0, i64 0), i32 %33), !dbg !2768
  br label %if.end58, !dbg !2768

if.end58:                                         ; preds = %if.then57, %if.end54
  br label %if.end71, !dbg !2769

if.else59:                                        ; preds = %if.else39
  %34 = load %struct.POVMSData*, %struct.POVMSData** %msg.addr, align 8, !dbg !2770
  %call60 = call i32 @_Z16POVMSUtil_GetIntP9POVMSDatajPi(%struct.POVMSData* %34, i32 1414546286, i32* %l), !dbg !2772
  %cmp61 = icmp eq i32 %call60, 0, !dbg !2773
  br i1 %cmp61, label %if.then62, label %if.end70, !dbg !2774

if.then62:                                        ; preds = %if.else59
  %35 = load %struct.POVMSData*, %struct.POVMSData** %msg.addr, align 8, !dbg !2775
  %call63 = call i32 @_Z16POVMSUtil_GetIntP9POVMSDatajPi(%struct.POVMSData* %35, i32 1129333614, i32* %s), !dbg !2778
  %cmp64 = icmp eq i32 %call63, 0, !dbg !2779
  br i1 %cmp64, label %if.then65, label %if.else66, !dbg !2780

if.then65:                                        ; preds = %if.then62
  %36 = load i32, i32* %s, align 4, !dbg !2781
  %37 = load i32, i32* %l, align 4, !dbg !2782
  call void (%"class.pov_frontend::MessageOutput"*, i32, i8*, ...) @_ZN12pov_frontend13MessageOutput6PrintfEiPKcz(%"class.pov_frontend::MessageOutput"* %this2, i32 1, i8* getelementptr inbounds ([10 x i8], [10 x i8]* @.str.106, i64 0, i64 0), i32 %36, i32 %37), !dbg !2783
  br label %if.end69, !dbg !2783

if.else66:                                        ; preds = %if.then62
  %38 = load i32, i32* %l, align 4, !dbg !2784
  call void (%"class.pov_frontend::MessageOutput"*, i32, i8*, ...) @_ZN12pov_frontend13MessageOutput6PrintfEiPKcz(%"class.pov_frontend::MessageOutput"* %this2, i32 1, i8* getelementptr inbounds ([12 x i8], [12 x i8]* @.str.112, i64 0, i64 0), i32 %38), !dbg !2786
  store i32 0, i32* %l, align 4, !dbg !2787
  %39 = load %struct.POVMSData*, %struct.POVMSData** %msg.addr, align 8, !dbg !2788
  %call67 = call i32 @_Z16POVMSUtil_GetIntP9POVMSDatajPi(%struct.POVMSData* %39, i32 1347965793, i32* %l), !dbg !2789
  store i32 0, i32* %s, align 4, !dbg !2790
  %40 = load %struct.POVMSData*, %struct.POVMSData** %msg.addr, align 8, !dbg !2791
  %call68 = call i32 @_Z16POVMSUtil_GetIntP9POVMSDatajPi(%struct.POVMSData* %40, i32 1348031329, i32* %s), !dbg !2792
  %41 = load i32, i32* %l, align 4, !dbg !2793
  %42 = load i32, i32* %s, align 4, !dbg !2794
  call void (%"class.pov_frontend::MessageOutput"*, i32, i8*, ...) @_ZN12pov_frontend13MessageOutput6PrintfEiPKcz(%"class.pov_frontend::MessageOutput"* %this2, i32 1, i8* getelementptr inbounds ([18 x i8], [18 x i8]* @.str.113, i64 0, i64 0), i32 %41, i32 %42), !dbg !2795
  br label %if.end69

if.end69:                                         ; preds = %if.else66, %if.then65
  br label %if.end70, !dbg !2796

if.end70:                                         ; preds = %if.end69, %if.else59
  br label %if.end71

if.end71:                                         ; preds = %if.end70, %if.end58
  br label %if.end72

if.end72:                                         ; preds = %if.end71, %if.then37
  br label %if.end73

if.end73:                                         ; preds = %if.end72, %if.end32
  br label %if.end74, !dbg !2797

if.end74:                                         ; preds = %if.end73, %if.end
  %43 = load i32, i32* %ret, align 4, !dbg !2798
  %cmp75 = icmp ne i32 %43, 0, !dbg !2800
  br i1 %cmp75, label %if.then76, label %if.end77, !dbg !2801

if.then76:                                        ; preds = %if.end74
  %exception = call i8* @__cxa_allocate_exception(i64 4) #8, !dbg !2802
  %44 = bitcast i8* %exception to i32*, !dbg !2802
  %45 = load i32, i32* %ret, align 4, !dbg !2803
  store i32 %45, i32* %44, align 16, !dbg !2802
  call void @__cxa_throw(i8* %exception, i8* bitcast (i8** @_ZTIi to i8*), i8* null) #14, !dbg !2802
  unreachable, !dbg !2802

if.end77:                                         ; preds = %if.end74
  ret void, !dbg !2804
}

; Function Attrs: noinline uwtable
define dso_local void @_ZN12pov_frontend13MessageOutput7WarningEP9POVMSDataS2_i(%"class.pov_frontend::MessageOutput"* %this, %struct.POVMSData* %msg, %struct.POVMSData* %0, i32 %1) #0 align 2 !dbg !2805 {
entry:
  %this.addr = alloca %"class.pov_frontend::MessageOutput"*, align 8
  %msg.addr = alloca %struct.POVMSData*, align 8
  %.addr = alloca %struct.POVMSData*, align 8
  %.addr1 = alloca i32, align 4
  store %"class.pov_frontend::MessageOutput"* %this, %"class.pov_frontend::MessageOutput"** %this.addr, align 8
  call void @llvm.dbg.declare(metadata %"class.pov_frontend::MessageOutput"** %this.addr, metadata !2806, metadata !DIExpression()), !dbg !2807
  store %struct.POVMSData* %msg, %struct.POVMSData** %msg.addr, align 8
  call void @llvm.dbg.declare(metadata %struct.POVMSData** %msg.addr, metadata !2808, metadata !DIExpression()), !dbg !2809
  store %struct.POVMSData* %0, %struct.POVMSData** %.addr, align 8
  call void @llvm.dbg.declare(metadata %struct.POVMSData** %.addr, metadata !2810, metadata !DIExpression()), !dbg !2811
  store i32 %1, i32* %.addr1, align 4
  call void @llvm.dbg.declare(metadata i32* %.addr1, metadata !2812, metadata !DIExpression()), !dbg !2813
  %this2 = load %"class.pov_frontend::MessageOutput"*, %"class.pov_frontend::MessageOutput"** %this.addr, align 8
  call void @_ZN12pov_frontend13MessageOutput5FlushEi(%"class.pov_frontend::MessageOutput"* %this2, i32 1), !dbg !2814
  call void @_ZN12pov_frontend13MessageOutput5FlushEi(%"class.pov_frontend::MessageOutput"* %this2, i32 2), !dbg !2815
  %2 = load %struct.POVMSData*, %struct.POVMSData** %msg.addr, align 8, !dbg !2816
  call void @_ZN12pov_frontend13MessageOutput11FileMessageEiP9POVMSData(%"class.pov_frontend::MessageOutput"* %this2, i32 6, %struct.POVMSData* %2), !dbg !2817
  ret void, !dbg !2818
}

; Function Attrs: noinline uwtable
define dso_local void @_ZN12pov_frontend13MessageOutput5ErrorEP9POVMSDataS2_i(%"class.pov_frontend::MessageOutput"* %this, %struct.POVMSData* %msg, %struct.POVMSData* %0, i32 %1) #0 align 2 !dbg !2819 {
entry:
  %this.addr = alloca %"class.pov_frontend::MessageOutput"*, align 8
  %msg.addr = alloca %struct.POVMSData*, align 8
  %.addr = alloca %struct.POVMSData*, align 8
  %.addr1 = alloca i32, align 4
  store %"class.pov_frontend::MessageOutput"* %this, %"class.pov_frontend::MessageOutput"** %this.addr, align 8
  call void @llvm.dbg.declare(metadata %"class.pov_frontend::MessageOutput"** %this.addr, metadata !2820, metadata !DIExpression()), !dbg !2821
  store %struct.POVMSData* %msg, %struct.POVMSData** %msg.addr, align 8
  call void @llvm.dbg.declare(metadata %struct.POVMSData** %msg.addr, metadata !2822, metadata !DIExpression()), !dbg !2823
  store %struct.POVMSData* %0, %struct.POVMSData** %.addr, align 8
  call void @llvm.dbg.declare(metadata %struct.POVMSData** %.addr, metadata !2824, metadata !DIExpression()), !dbg !2825
  store i32 %1, i32* %.addr1, align 4
  call void @llvm.dbg.declare(metadata i32* %.addr1, metadata !2826, metadata !DIExpression()), !dbg !2827
  %this2 = load %"class.pov_frontend::MessageOutput"*, %"class.pov_frontend::MessageOutput"** %this.addr, align 8
  call void @_ZN12pov_frontend13MessageOutput5FlushEi(%"class.pov_frontend::MessageOutput"* %this2, i32 1), !dbg !2828
  call void @_ZN12pov_frontend13MessageOutput5FlushEi(%"class.pov_frontend::MessageOutput"* %this2, i32 2), !dbg !2829
  %2 = load %struct.POVMSData*, %struct.POVMSData** %msg.addr, align 8, !dbg !2830
  call void @_ZN12pov_frontend13MessageOutput11FileMessageEiP9POVMSData(%"class.pov_frontend::MessageOutput"* %this2, i32 6, %struct.POVMSData* %2), !dbg !2831
  ret void, !dbg !2832
}

; Function Attrs: noinline uwtable
define dso_local void @_ZN12pov_frontend13MessageOutput10FatalErrorEP9POVMSDataS2_i(%"class.pov_frontend::MessageOutput"* %this, %struct.POVMSData* %msg, %struct.POVMSData* %0, i32 %1) #0 align 2 !dbg !2833 {
entry:
  %this.addr = alloca %"class.pov_frontend::MessageOutput"*, align 8
  %msg.addr = alloca %struct.POVMSData*, align 8
  %.addr = alloca %struct.POVMSData*, align 8
  %.addr1 = alloca i32, align 4
  %ret = alloca i32, align 4
  %l = alloca i32, align 4
  %s = alloca i32, align 4
  store %"class.pov_frontend::MessageOutput"* %this, %"class.pov_frontend::MessageOutput"** %this.addr, align 8
  call void @llvm.dbg.declare(metadata %"class.pov_frontend::MessageOutput"** %this.addr, metadata !2834, metadata !DIExpression()), !dbg !2835
  store %struct.POVMSData* %msg, %struct.POVMSData** %msg.addr, align 8
  call void @llvm.dbg.declare(metadata %struct.POVMSData** %msg.addr, metadata !2836, metadata !DIExpression()), !dbg !2837
  store %struct.POVMSData* %0, %struct.POVMSData** %.addr, align 8
  call void @llvm.dbg.declare(metadata %struct.POVMSData** %.addr, metadata !2838, metadata !DIExpression()), !dbg !2839
  store i32 %1, i32* %.addr1, align 4
  call void @llvm.dbg.declare(metadata i32* %.addr1, metadata !2840, metadata !DIExpression()), !dbg !2841
  %this2 = load %"class.pov_frontend::MessageOutput"*, %"class.pov_frontend::MessageOutput"** %this.addr, align 8
  call void @llvm.dbg.declare(metadata i32* %ret, metadata !2842, metadata !DIExpression()), !dbg !2843
  store i32 0, i32* %ret, align 4, !dbg !2843
  call void @llvm.dbg.declare(metadata i32* %l, metadata !2844, metadata !DIExpression()), !dbg !2845
  store i32 0, i32* %l, align 4, !dbg !2845
  call void @llvm.dbg.declare(metadata i32* %s, metadata !2846, metadata !DIExpression()), !dbg !2847
  store i32 0, i32* %s, align 4, !dbg !2847
  call void @_ZN12pov_frontend13MessageOutput5FlushEi(%"class.pov_frontend::MessageOutput"* %this2, i32 1), !dbg !2848
  call void @_ZN12pov_frontend13MessageOutput5FlushEi(%"class.pov_frontend::MessageOutput"* %this2, i32 2), !dbg !2849
  %2 = load i32, i32* %ret, align 4, !dbg !2850
  %cmp = icmp eq i32 %2, 0, !dbg !2852
  br i1 %cmp, label %if.then, label %if.end, !dbg !2853

if.then:                                          ; preds = %entry
  %3 = load %struct.POVMSData*, %struct.POVMSData** %msg.addr, align 8, !dbg !2854
  call void @_ZN12pov_frontend13MessageOutput11FileMessageEiP9POVMSData(%"class.pov_frontend::MessageOutput"* %this2, i32 3, %struct.POVMSData* %3), !dbg !2855
  br label %if.end, !dbg !2855

if.end:                                           ; preds = %if.then, %entry
  %4 = load i32, i32* %ret, align 4, !dbg !2856
  %cmp3 = icmp ne i32 %4, 0, !dbg !2858
  br i1 %cmp3, label %if.then4, label %if.end5, !dbg !2859

if.then4:                                         ; preds = %if.end
  %exception = call i8* @__cxa_allocate_exception(i64 4) #8, !dbg !2860
  %5 = bitcast i8* %exception to i32*, !dbg !2860
  %6 = load i32, i32* %ret, align 4, !dbg !2861
  store i32 %6, i32* %5, align 16, !dbg !2860
  call void @__cxa_throw(i8* %exception, i8* bitcast (i8** @_ZTIi to i8*), i8* null) #14, !dbg !2860
  unreachable, !dbg !2860

if.end5:                                          ; preds = %if.end
  ret void, !dbg !2862
}

; Function Attrs: noinline uwtable
define dso_local void @_ZN12pov_frontend13MessageOutput9DebugInfoEP9POVMSDataS2_i(%"class.pov_frontend::MessageOutput"* %this, %struct.POVMSData* %msg, %struct.POVMSData* %0, i32 %1) #0 align 2 !dbg !2863 {
entry:
  %this.addr = alloca %"class.pov_frontend::MessageOutput"*, align 8
  %msg.addr = alloca %struct.POVMSData*, align 8
  %.addr = alloca %struct.POVMSData*, align 8
  %.addr1 = alloca i32, align 4
  %ret = alloca i32, align 4
  %l = alloca i32, align 4
  store %"class.pov_frontend::MessageOutput"* %this, %"class.pov_frontend::MessageOutput"** %this.addr, align 8
  call void @llvm.dbg.declare(metadata %"class.pov_frontend::MessageOutput"** %this.addr, metadata !2864, metadata !DIExpression()), !dbg !2865
  store %struct.POVMSData* %msg, %struct.POVMSData** %msg.addr, align 8
  call void @llvm.dbg.declare(metadata %struct.POVMSData** %msg.addr, metadata !2866, metadata !DIExpression()), !dbg !2867
  store %struct.POVMSData* %0, %struct.POVMSData** %.addr, align 8
  call void @llvm.dbg.declare(metadata %struct.POVMSData** %.addr, metadata !2868, metadata !DIExpression()), !dbg !2869
  store i32 %1, i32* %.addr1, align 4
  call void @llvm.dbg.declare(metadata i32* %.addr1, metadata !2870, metadata !DIExpression()), !dbg !2871
  %this2 = load %"class.pov_frontend::MessageOutput"*, %"class.pov_frontend::MessageOutput"** %this.addr, align 8
  call void @llvm.dbg.declare(metadata i32* %ret, metadata !2872, metadata !DIExpression()), !dbg !2873
  store i32 0, i32* %ret, align 4, !dbg !2873
  call void @llvm.dbg.declare(metadata i32* %l, metadata !2874, metadata !DIExpression()), !dbg !2875
  store i32 0, i32* %l, align 4, !dbg !2875
  call void @_ZN12pov_frontend13MessageOutput5FlushEi(%"class.pov_frontend::MessageOutput"* %this2, i32 1), !dbg !2876
  %output_string_buffer_size = getelementptr inbounds %"class.pov_frontend::MessageOutput", %"class.pov_frontend::MessageOutput"* %this2, i32 0, i32 4, !dbg !2877
  %2 = load i32, i32* %output_string_buffer_size, align 8, !dbg !2877
  store i32 %2, i32* %l, align 4, !dbg !2878
  %output_string_buffer = getelementptr inbounds %"class.pov_frontend::MessageOutput", %"class.pov_frontend::MessageOutput"* %this2, i32 0, i32 5, !dbg !2879
  %3 = load i8*, i8** %output_string_buffer, align 8, !dbg !2879
  %arrayidx = getelementptr inbounds i8, i8* %3, i64 0, !dbg !2879
  store i8 0, i8* %arrayidx, align 1, !dbg !2880
  %4 = load %struct.POVMSData*, %struct.POVMSData** %msg.addr, align 8, !dbg !2881
  %output_string_buffer3 = getelementptr inbounds %"class.pov_frontend::MessageOutput", %"class.pov_frontend::MessageOutput"* %this2, i32 0, i32 5, !dbg !2882
  %5 = load i8*, i8** %output_string_buffer3, align 8, !dbg !2882
  %call = call i32 @_Z19POVMSUtil_GetStringP9POVMSDatajPcPi(%struct.POVMSData* %4, i32 1163163764, i8* %5, i32* %l), !dbg !2883
  store i32 %call, i32* %ret, align 4, !dbg !2884
  %6 = load i32, i32* %ret, align 4, !dbg !2885
  %cmp = icmp eq i32 %6, 0, !dbg !2887
  br i1 %cmp, label %if.then, label %if.end, !dbg !2888

if.then:                                          ; preds = %entry
  %output_string_buffer4 = getelementptr inbounds %"class.pov_frontend::MessageOutput", %"class.pov_frontend::MessageOutput"* %this2, i32 0, i32 5, !dbg !2889
  %7 = load i8*, i8** %output_string_buffer4, align 8, !dbg !2889
  call void (%"class.pov_frontend::MessageOutput"*, i32, i8*, ...) @_ZN12pov_frontend13MessageOutput6PrintfEiPKcz(%"class.pov_frontend::MessageOutput"* %this2, i32 2, i8* getelementptr inbounds ([4 x i8], [4 x i8]* @.str, i64 0, i64 0), i8* %7), !dbg !2890
  br label %if.end, !dbg !2890

if.end:                                           ; preds = %if.then, %entry
  %8 = load i32, i32* %ret, align 4, !dbg !2891
  %cmp5 = icmp ne i32 %8, 0, !dbg !2893
  br i1 %cmp5, label %if.then6, label %if.end7, !dbg !2894

if.then6:                                         ; preds = %if.end
  %exception = call i8* @__cxa_allocate_exception(i64 4) #8, !dbg !2895
  %9 = bitcast i8* %exception to i32*, !dbg !2895
  %10 = load i32, i32* %ret, align 4, !dbg !2896
  store i32 %10, i32* %9, align 16, !dbg !2895
  call void @__cxa_throw(i8* %exception, i8* bitcast (i8** @_ZTIi to i8*), i8* null) #14, !dbg !2895
  unreachable, !dbg !2895

if.end7:                                          ; preds = %if.end
  ret void, !dbg !2897
}

; Function Attrs: nounwind
declare dso_local void @_ZN21POVMS_MessageReceiverD2Ev(%class.POVMS_MessageReceiver*) unnamed_addr #5

; Function Attrs: noinline nounwind uwtable
define dso_local void @_ZN12pov_frontend13MessageOutputD2Ev(%"class.pov_frontend::MessageOutput"* %this) unnamed_addr #4 align 2 !dbg !2898 {
entry:
  %this.addr = alloca %"class.pov_frontend::MessageOutput"*, align 8
  store %"class.pov_frontend::MessageOutput"* %this, %"class.pov_frontend::MessageOutput"** %this.addr, align 8
  call void @llvm.dbg.declare(metadata %"class.pov_frontend::MessageOutput"** %this.addr, metadata !2899, metadata !DIExpression()), !dbg !2900
  %this1 = load %"class.pov_frontend::MessageOutput"*, %"class.pov_frontend::MessageOutput"** %this.addr, align 8
  %0 = bitcast %"class.pov_frontend::MessageOutput"* %this1 to i32 (...)***, !dbg !2901
  store i32 (...)** bitcast (i8** getelementptr inbounds ({ [6 x i8*] }, { [6 x i8*] }* @_ZTVN12pov_frontend13MessageOutputE, i32 0, inrange i32 0, i32 2) to i32 (...)**), i32 (...)*** %0, align 8, !dbg !2901
  %output_string_buffer = getelementptr inbounds %"class.pov_frontend::MessageOutput", %"class.pov_frontend::MessageOutput"* %this1, i32 0, i32 5, !dbg !2902
  %1 = load i8*, i8** %output_string_buffer, align 8, !dbg !2902
  %isnull = icmp eq i8* %1, null, !dbg !2904
  br i1 %isnull, label %delete.end, label %delete.notnull, !dbg !2904

delete.notnull:                                   ; preds = %entry
  call void @_ZdaPv(i8* %1) #12, !dbg !2904
  br label %delete.end, !dbg !2904

delete.end:                                       ; preds = %delete.notnull, %entry
  %2 = bitcast %"class.pov_frontend::MessageOutput"* %this1 to %class.POVMS_MessageReceiver*, !dbg !2905
  call void @_ZN21POVMS_MessageReceiverD2Ev(%class.POVMS_MessageReceiver* %2) #8, !dbg !2905
  ret void, !dbg !2906
}

; Function Attrs: nobuiltin nounwind
declare dso_local void @_ZdaPv(i8*) #6

; Function Attrs: noinline nounwind uwtable
define dso_local void @_ZN12pov_frontend13MessageOutputD0Ev(%"class.pov_frontend::MessageOutput"* %this) unnamed_addr #4 align 2 !dbg !2907 {
entry:
  %this.addr = alloca %"class.pov_frontend::MessageOutput"*, align 8
  store %"class.pov_frontend::MessageOutput"* %this, %"class.pov_frontend::MessageOutput"** %this.addr, align 8
  call void @llvm.dbg.declare(metadata %"class.pov_frontend::MessageOutput"** %this.addr, metadata !2908, metadata !DIExpression()), !dbg !2909
  %this1 = load %"class.pov_frontend::MessageOutput"*, %"class.pov_frontend::MessageOutput"** %this.addr, align 8
  call void @llvm.trap() #15, !dbg !2910
  unreachable, !dbg !2910
}

; Function Attrs: cold noreturn nounwind
declare void @llvm.trap() #7

; Function Attrs: noinline uwtable
define dso_local void @_ZN12pov_frontend13MessageOutput9PrintfileEiPKcmi(%"class.pov_frontend::MessageOutput"* %this, i32 %stream, i8* %filename, i64 %offset, i32 %lines) #0 align 2 !dbg !2911 {
entry:
  %this.addr = alloca %"class.pov_frontend::MessageOutput"*, align 8
  %stream.addr = alloca i32, align 4
  %filename.addr = alloca i8*, align 8
  %offset.addr = alloca i64, align 8
  %lines.addr = alloca i32, align 4
  store %"class.pov_frontend::MessageOutput"* %this, %"class.pov_frontend::MessageOutput"** %this.addr, align 8
  call void @llvm.dbg.declare(metadata %"class.pov_frontend::MessageOutput"** %this.addr, metadata !2912, metadata !DIExpression()), !dbg !2913
  store i32 %stream, i32* %stream.addr, align 4
  call void @llvm.dbg.declare(metadata i32* %stream.addr, metadata !2914, metadata !DIExpression()), !dbg !2915
  store i8* %filename, i8** %filename.addr, align 8
  call void @llvm.dbg.declare(metadata i8** %filename.addr, metadata !2916, metadata !DIExpression()), !dbg !2917
  store i64 %offset, i64* %offset.addr, align 8
  call void @llvm.dbg.declare(metadata i64* %offset.addr, metadata !2918, metadata !DIExpression()), !dbg !2919
  store i32 %lines, i32* %lines.addr, align 4
  call void @llvm.dbg.declare(metadata i32* %lines.addr, metadata !2920, metadata !DIExpression()), !dbg !2921
  %this1 = load %"class.pov_frontend::MessageOutput"*, %"class.pov_frontend::MessageOutput"** %this.addr, align 8
  %streams = getelementptr inbounds %"class.pov_frontend::MessageOutput", %"class.pov_frontend::MessageOutput"* %this1, i32 0, i32 1, !dbg !2922
  %0 = load i32, i32* %stream.addr, align 4, !dbg !2924
  %idxprom = sext i32 %0 to i64, !dbg !2922
  %arrayidx = getelementptr inbounds [8 x %"class.pov_base::TextStreamBuffer"*], [8 x %"class.pov_base::TextStreamBuffer"*]* %streams, i64 0, i64 %idxprom, !dbg !2922
  %1 = load %"class.pov_base::TextStreamBuffer"*, %"class.pov_base::TextStreamBuffer"** %arrayidx, align 8, !dbg !2922
  %cmp = icmp ne %"class.pov_base::TextStreamBuffer"* %1, null, !dbg !2925
  br i1 %cmp, label %if.then, label %if.end, !dbg !2926

if.then:                                          ; preds = %entry
  %streams2 = getelementptr inbounds %"class.pov_frontend::MessageOutput", %"class.pov_frontend::MessageOutput"* %this1, i32 0, i32 1, !dbg !2927
  %2 = load i32, i32* %stream.addr, align 4, !dbg !2928
  %idxprom3 = sext i32 %2 to i64, !dbg !2927
  %arrayidx4 = getelementptr inbounds [8 x %"class.pov_base::TextStreamBuffer"*], [8 x %"class.pov_base::TextStreamBuffer"*]* %streams2, i64 0, i64 %idxprom3, !dbg !2927
  %3 = load %"class.pov_base::TextStreamBuffer"*, %"class.pov_base::TextStreamBuffer"** %arrayidx4, align 8, !dbg !2927
  %4 = load i8*, i8** %filename.addr, align 8, !dbg !2929
  %5 = load i64, i64* %offset.addr, align 8, !dbg !2930
  %6 = load i32, i32* %lines.addr, align 4, !dbg !2931
  call void @_ZN8pov_base16TextStreamBuffer9printfileEPKcmi(%"class.pov_base::TextStreamBuffer"* %3, i8* %4, i64 %5, i32 %6), !dbg !2932
  br label %if.end, !dbg !2927

if.end:                                           ; preds = %if.then, %entry
  %streams5 = getelementptr inbounds %"class.pov_frontend::MessageOutput", %"class.pov_frontend::MessageOutput"* %this1, i32 0, i32 1, !dbg !2933
  %arrayidx6 = getelementptr inbounds [8 x %"class.pov_base::TextStreamBuffer"*], [8 x %"class.pov_base::TextStreamBuffer"*]* %streams5, i64 0, i64 7, !dbg !2933
  %7 = load %"class.pov_base::TextStreamBuffer"*, %"class.pov_base::TextStreamBuffer"** %arrayidx6, align 8, !dbg !2933
  %cmp7 = icmp ne %"class.pov_base::TextStreamBuffer"* %7, null, !dbg !2935
  br i1 %cmp7, label %if.then8, label %if.end11, !dbg !2936

if.then8:                                         ; preds = %if.end
  %streams9 = getelementptr inbounds %"class.pov_frontend::MessageOutput", %"class.pov_frontend::MessageOutput"* %this1, i32 0, i32 1, !dbg !2937
  %arrayidx10 = getelementptr inbounds [8 x %"class.pov_base::TextStreamBuffer"*], [8 x %"class.pov_base::TextStreamBuffer"*]* %streams9, i64 0, i64 7, !dbg !2937
  %8 = load %"class.pov_base::TextStreamBuffer"*, %"class.pov_base::TextStreamBuffer"** %arrayidx10, align 8, !dbg !2937
  %9 = load i8*, i8** %filename.addr, align 8, !dbg !2938
  %10 = load i64, i64* %offset.addr, align 8, !dbg !2939
  %11 = load i32, i32* %lines.addr, align 4, !dbg !2940
  call void @_ZN8pov_base16TextStreamBuffer9printfileEPKcmi(%"class.pov_base::TextStreamBuffer"* %8, i8* %9, i64 %10, i32 %11), !dbg !2941
  br label %if.end11, !dbg !2937

if.end11:                                         ; preds = %if.then8, %if.end
  ret void, !dbg !2942
}

declare dso_local void @_ZN8pov_base16TextStreamBuffer9printfileEPKcmi(%"class.pov_base::TextStreamBuffer"*, i8*, i64, i32) #2

; Function Attrs: noinline uwtable
define dso_local void @_ZN12pov_frontend13MessageOutput6PrintfEiPKcz(%"class.pov_frontend::MessageOutput"* %this, i32 %stream, i8* %format, ...) #0 align 2 !dbg !2943 {
entry:
  %this.addr = alloca %"class.pov_frontend::MessageOutput"*, align 8
  %stream.addr = alloca i32, align 4
  %format.addr = alloca i8*, align 8
  %marker = alloca [1 x %struct.__va_list_tag], align 16
  %localvsbuffer = alloca [1024 x i8], align 16
  store %"class.pov_frontend::MessageOutput"* %this, %"class.pov_frontend::MessageOutput"** %this.addr, align 8
  call void @llvm.dbg.declare(metadata %"class.pov_frontend::MessageOutput"** %this.addr, metadata !2944, metadata !DIExpression()), !dbg !2945
  store i32 %stream, i32* %stream.addr, align 4
  call void @llvm.dbg.declare(metadata i32* %stream.addr, metadata !2946, metadata !DIExpression()), !dbg !2947
  store i8* %format, i8** %format.addr, align 8
  call void @llvm.dbg.declare(metadata i8** %format.addr, metadata !2948, metadata !DIExpression()), !dbg !2949
  %this1 = load %"class.pov_frontend::MessageOutput"*, %"class.pov_frontend::MessageOutput"** %this.addr, align 8
  call void @llvm.dbg.declare(metadata [1 x %struct.__va_list_tag]* %marker, metadata !2950, metadata !DIExpression()), !dbg !2951
  call void @llvm.dbg.declare(metadata [1024 x i8]* %localvsbuffer, metadata !2952, metadata !DIExpression()), !dbg !2953
  %arraydecay = getelementptr inbounds [1 x %struct.__va_list_tag], [1 x %struct.__va_list_tag]* %marker, i64 0, i64 0, !dbg !2954
  %arraydecay2 = bitcast %struct.__va_list_tag* %arraydecay to i8*, !dbg !2954
  call void @llvm.va_start(i8* %arraydecay2), !dbg !2954
  %arraydecay3 = getelementptr inbounds [1024 x i8], [1024 x i8]* %localvsbuffer, i64 0, i64 0, !dbg !2955
  %0 = load i8*, i8** %format.addr, align 8, !dbg !2956
  %arraydecay4 = getelementptr inbounds [1 x %struct.__va_list_tag], [1 x %struct.__va_list_tag]* %marker, i64 0, i64 0, !dbg !2957
  %call = call i32 @vsnprintf(i8* %arraydecay3, i64 1023, i8* %0, %struct.__va_list_tag* %arraydecay4) #8, !dbg !2958
  %arraydecay5 = getelementptr inbounds [1 x %struct.__va_list_tag], [1 x %struct.__va_list_tag]* %marker, i64 0, i64 0, !dbg !2959
  %arraydecay56 = bitcast %struct.__va_list_tag* %arraydecay5 to i8*, !dbg !2959
  call void @llvm.va_end(i8* %arraydecay56), !dbg !2959
  %streams = getelementptr inbounds %"class.pov_frontend::MessageOutput", %"class.pov_frontend::MessageOutput"* %this1, i32 0, i32 1, !dbg !2960
  %1 = load i32, i32* %stream.addr, align 4, !dbg !2962
  %idxprom = sext i32 %1 to i64, !dbg !2960
  %arrayidx = getelementptr inbounds [8 x %"class.pov_base::TextStreamBuffer"*], [8 x %"class.pov_base::TextStreamBuffer"*]* %streams, i64 0, i64 %idxprom, !dbg !2960
  %2 = load %"class.pov_base::TextStreamBuffer"*, %"class.pov_base::TextStreamBuffer"** %arrayidx, align 8, !dbg !2960
  %cmp = icmp ne %"class.pov_base::TextStreamBuffer"* %2, null, !dbg !2963
  br i1 %cmp, label %if.then, label %if.end, !dbg !2964

if.then:                                          ; preds = %entry
  %streams7 = getelementptr inbounds %"class.pov_frontend::MessageOutput", %"class.pov_frontend::MessageOutput"* %this1, i32 0, i32 1, !dbg !2965
  %3 = load i32, i32* %stream.addr, align 4, !dbg !2966
  %idxprom8 = sext i32 %3 to i64, !dbg !2965
  %arrayidx9 = getelementptr inbounds [8 x %"class.pov_base::TextStreamBuffer"*], [8 x %"class.pov_base::TextStreamBuffer"*]* %streams7, i64 0, i64 %idxprom8, !dbg !2965
  %4 = load %"class.pov_base::TextStreamBuffer"*, %"class.pov_base::TextStreamBuffer"** %arrayidx9, align 8, !dbg !2965
  %arraydecay10 = getelementptr inbounds [1024 x i8], [1024 x i8]* %localvsbuffer, i64 0, i64 0, !dbg !2967
  call void @_ZN8pov_base16TextStreamBuffer5printEPKc(%"class.pov_base::TextStreamBuffer"* %4, i8* %arraydecay10), !dbg !2968
  br label %if.end, !dbg !2965

if.end:                                           ; preds = %if.then, %entry
  %streams11 = getelementptr inbounds %"class.pov_frontend::MessageOutput", %"class.pov_frontend::MessageOutput"* %this1, i32 0, i32 1, !dbg !2969
  %arrayidx12 = getelementptr inbounds [8 x %"class.pov_base::TextStreamBuffer"*], [8 x %"class.pov_base::TextStreamBuffer"*]* %streams11, i64 0, i64 7, !dbg !2969
  %5 = load %"class.pov_base::TextStreamBuffer"*, %"class.pov_base::TextStreamBuffer"** %arrayidx12, align 8, !dbg !2969
  %cmp13 = icmp ne %"class.pov_base::TextStreamBuffer"* %5, null, !dbg !2971
  br i1 %cmp13, label %land.lhs.true, label %if.end19, !dbg !2972

land.lhs.true:                                    ; preds = %if.end
  %6 = load i32, i32* %stream.addr, align 4, !dbg !2973
  %cmp14 = icmp ne i32 %6, 1, !dbg !2974
  br i1 %cmp14, label %if.then15, label %if.end19, !dbg !2975

if.then15:                                        ; preds = %land.lhs.true
  %streams16 = getelementptr inbounds %"class.pov_frontend::MessageOutput", %"class.pov_frontend::MessageOutput"* %this1, i32 0, i32 1, !dbg !2976
  %arrayidx17 = getelementptr inbounds [8 x %"class.pov_base::TextStreamBuffer"*], [8 x %"class.pov_base::TextStreamBuffer"*]* %streams16, i64 0, i64 7, !dbg !2976
  %7 = load %"class.pov_base::TextStreamBuffer"*, %"class.pov_base::TextStreamBuffer"** %arrayidx17, align 8, !dbg !2976
  %arraydecay18 = getelementptr inbounds [1024 x i8], [1024 x i8]* %localvsbuffer, i64 0, i64 0, !dbg !2977
  call void @_ZN8pov_base16TextStreamBuffer5printEPKc(%"class.pov_base::TextStreamBuffer"* %7, i8* %arraydecay18), !dbg !2978
  br label %if.end19, !dbg !2976

if.end19:                                         ; preds = %if.then15, %land.lhs.true, %if.end
  ret void, !dbg !2979
}

; Function Attrs: nounwind
declare void @llvm.va_start(i8*) #8

; Function Attrs: nounwind
declare dso_local i32 @vsnprintf(i8*, i64, i8*, %struct.__va_list_tag*) #5

; Function Attrs: nounwind
declare void @llvm.va_end(i8*) #8

declare dso_local void @_ZN8pov_base16TextStreamBuffer5printEPKc(%"class.pov_base::TextStreamBuffer"*, i8*) #2

; Function Attrs: noinline uwtable
define dso_local void @_ZN12pov_frontend13MessageOutput5FlushEi(%"class.pov_frontend::MessageOutput"* %this, i32 %stream) #0 align 2 !dbg !2980 {
entry:
  %this.addr = alloca %"class.pov_frontend::MessageOutput"*, align 8
  %stream.addr = alloca i32, align 4
  store %"class.pov_frontend::MessageOutput"* %this, %"class.pov_frontend::MessageOutput"** %this.addr, align 8
  call void @llvm.dbg.declare(metadata %"class.pov_frontend::MessageOutput"** %this.addr, metadata !2981, metadata !DIExpression()), !dbg !2982
  store i32 %stream, i32* %stream.addr, align 4
  call void @llvm.dbg.declare(metadata i32* %stream.addr, metadata !2983, metadata !DIExpression()), !dbg !2984
  %this1 = load %"class.pov_frontend::MessageOutput"*, %"class.pov_frontend::MessageOutput"** %this.addr, align 8
  %streams = getelementptr inbounds %"class.pov_frontend::MessageOutput", %"class.pov_frontend::MessageOutput"* %this1, i32 0, i32 1, !dbg !2985
  %0 = load i32, i32* %stream.addr, align 4, !dbg !2987
  %idxprom = sext i32 %0 to i64, !dbg !2985
  %arrayidx = getelementptr inbounds [8 x %"class.pov_base::TextStreamBuffer"*], [8 x %"class.pov_base::TextStreamBuffer"*]* %streams, i64 0, i64 %idxprom, !dbg !2985
