; ModuleID = 'fnpovfpu.cpp'
source_filename = "fnpovfpu.cpp"
target datalayout = "e-m:e-p270:32:32-p271:32:32-p272:64:64-i64:64-f80:128-n8:16:32:64-S128"
target triple = "x86_64-unknown-linux-gnu"

%"struct.pov::Opcode" = type { i8*, i32, i32 }
%"struct.pov::FunctionEntry_Struct" = type { %"struct.pov::FunctionCode", i32 }
%"struct.pov::FunctionCode" = type { i32*, i32, i8, i8, i8, [56 x i32], [56 x i8*], [56 x i8*], i8*, i8*, %"struct.pov_base::ITextStream::FilePos", i32, i8* (i8*)*, void (i8*)*, i8* }
%"struct.pov_base::ITextStream::FilePos" = type { i64, i32 }
%"struct.pov::FPUContext_Struct" = type { %"struct.pov::FPUContext_Struct"*, %"struct.pov::StackFrame_Struct"*, double*, i32 }
%"struct.pov::StackFrame_Struct" = type { i32, i32 }
%"struct.pov::Trap" = type { double (double*, i32)*, i32 }
%"struct.pov::TrapS" = type { void (double*, i32, i32)*, i32 }

$_ZSt3maxIjERKT_S2_S2_ = comdat any

$_ZN3pov16Increase_CounterERx = comdat any

@.str = private unnamed_addr constant [4 x i8] c"add\00", align 1
@.str.1 = private unnamed_addr constant [4 x i8] c"sub\00", align 1
@.str.2 = private unnamed_addr constant [4 x i8] c"mul\00", align 1
@.str.3 = private unnamed_addr constant [4 x i8] c"div\00", align 1
@.str.4 = private unnamed_addr constant [4 x i8] c"mod\00", align 1
@.str.5 = private unnamed_addr constant [5 x i8] c"move\00", align 1
@.str.6 = private unnamed_addr constant [4 x i8] c"cmp\00", align 1
@.str.7 = private unnamed_addr constant [4 x i8] c"neg\00", align 1
@.str.8 = private unnamed_addr constant [4 x i8] c"abs\00", align 1
@.str.9 = private unnamed_addr constant [5 x i8] c"addi\00", align 1
@.str.10 = private unnamed_addr constant [5 x i8] c"subi\00", align 1
@.str.11 = private unnamed_addr constant [5 x i8] c"muli\00", align 1
@.str.12 = private unnamed_addr constant [5 x i8] c"divi\00", align 1
@.str.13 = private unnamed_addr constant [5 x i8] c"modi\00", align 1
@.str.14 = private unnamed_addr constant [6 x i8] c"loadi\00", align 1
@.str.15 = private unnamed_addr constant [5 x i8] c"cmpi\00", align 1
@.str.16 = private unnamed_addr constant [4 x i8] c"seq\00", align 1
@.str.17 = private unnamed_addr constant [4 x i8] c"sne\00", align 1
@.str.18 = private unnamed_addr constant [4 x i8] c"slt\00", align 1
@.str.19 = private unnamed_addr constant [4 x i8] c"sle\00", align 1
@.str.20 = private unnamed_addr constant [4 x i8] c"sgt\00", align 1
@.str.21 = private unnamed_addr constant [4 x i8] c"sge\00", align 1
@.str.22 = private unnamed_addr constant [4 x i8] c"teq\00", align 1
@.str.23 = private unnamed_addr constant [4 x i8] c"tne\00", align 1
@.str.24 = private unnamed_addr constant [5 x i8] c"load\00", align 1
@.str.25 = private unnamed_addr constant [6 x i8] c"store\00", align 1
@.str.26 = private unnamed_addr constant [4 x i8] c"xeq\00", align 1
@.str.27 = private unnamed_addr constant [4 x i8] c"xne\00", align 1
@.str.28 = private unnamed_addr constant [4 x i8] c"xlt\00", align 1
@.str.29 = private unnamed_addr constant [4 x i8] c"xle\00", align 1
@.str.30 = private unnamed_addr constant [4 x i8] c"xgt\00", align 1
@.str.31 = private unnamed_addr constant [4 x i8] c"xge\00", align 1
@.str.32 = private unnamed_addr constant [4 x i8] c"xdz\00", align 1
@.str.33 = private unnamed_addr constant [4 x i8] c"beq\00", align 1
@.str.34 = private unnamed_addr constant [4 x i8] c"bne\00", align 1
@.str.35 = private unnamed_addr constant [4 x i8] c"blt\00", align 1
@.str.36 = private unnamed_addr constant [4 x i8] c"ble\00", align 1
@.str.37 = private unnamed_addr constant [4 x i8] c"bgt\00", align 1
@.str.38 = private unnamed_addr constant [4 x i8] c"bge\00", align 1
@.str.39 = private unnamed_addr constant [4 x i8] c"jsr\00", align 1
@.str.40 = private unnamed_addr constant [4 x i8] c"jmp\00", align 1
@.str.41 = private unnamed_addr constant [4 x i8] c"rts\00", align 1
@.str.42 = private unnamed_addr constant [5 x i8] c"call\00", align 1
@.str.43 = private unnamed_addr constant [5 x i8] c"sys1\00", align 1
@.str.44 = private unnamed_addr constant [5 x i8] c"sys2\00", align 1
@.str.45 = private unnamed_addr constant [5 x i8] c"trap\00", align 1
@.str.46 = private unnamed_addr constant [6 x i8] c"traps\00", align 1
@.str.47 = private unnamed_addr constant [5 x i8] c"grow\00", align 1
@.str.48 = private unnamed_addr constant [5 x i8] c"push\00", align 1
@.str.49 = private unnamed_addr constant [4 x i8] c"pop\00", align 1
@.str.50 = private unnamed_addr constant [4 x i8] c"nop\00", align 1
@_ZN3pov14POVFPU_OpcodesE = dso_local constant [52 x %"struct.pov::Opcode"] [%"struct.pov::Opcode" { i8* getelementptr inbounds ([4 x i8], [4 x i8]* @.str, i32 0, i32 0), i32 0, i32 0 }, %"struct.pov::Opcode" { i8* getelementptr inbounds ([4 x i8], [4 x i8]* @.str.1, i32 0, i32 0), i32 64, i32 0 }, %"struct.pov::Opcode" { i8* getelementptr inbounds ([4 x i8], [4 x i8]* @.str.2, i32 0, i32 0), i32 128, i32 0 }, %"struct.pov::Opcode" { i8* getelementptr inbounds ([4 x i8], [4 x i8]* @.str.3, i32 0, i32 0), i32 192, i32 0 }, %"struct.pov::Opcode" { i8* getelementptr inbounds ([4 x i8], [4 x i8]* @.str.4, i32 0, i32 0), i32 256, i32 0 }, %"struct.pov::Opcode" { i8* getelementptr inbounds ([5 x i8], [5 x i8]* @.str.5, i32 0, i32 0), i32 320, i32 0 }, %"struct.pov::Opcode" { i8* getelementptr inbounds ([4 x i8], [4 x i8]* @.str.6, i32 0, i32 0), i32 384, i32 0 }, %"struct.pov::Opcode" { i8* getelementptr inbounds ([4 x i8], [4 x i8]* @.str.7, i32 0, i32 0), i32 448, i32 0 }, %"struct.pov::Opcode" { i8* getelementptr inbounds ([4 x i8], [4 x i8]* @.str.8, i32 0, i32 0), i32 512, i32 0 }, %"struct.pov::Opcode" { i8* getelementptr inbounds ([5 x i8], [5 x i8]* @.str.9, i32 0, i32 0), i32 576, i32 1 }, %"struct.pov::Opcode" { i8* getelementptr inbounds ([5 x i8], [5 x i8]* @.str.10, i32 0, i32 0), i32 584, i32 1 }, %"struct.pov::Opcode" { i8* getelementptr inbounds ([5 x i8], [5 x i8]* @.str.11, i32 0, i32 0), i32 592, i32 1 }, %"struct.pov::Opcode" { i8* getelementptr inbounds ([5 x i8], [5 x i8]* @.str.12, i32 0, i32 0), i32 600, i32 1 }, %"struct.pov::Opcode" { i8* getelementptr inbounds ([5 x i8], [5 x i8]* @.str.13, i32 0, i32 0), i32 608, i32 1 }, %"struct.pov::Opcode" { i8* getelementptr inbounds ([6 x i8], [6 x i8]* @.str.14, i32 0, i32 0), i32 616, i32 1 }, %"struct.pov::Opcode" { i8* getelementptr inbounds ([5 x i8], [5 x i8]* @.str.15, i32 0, i32 0), i32 624, i32 1 }, %"struct.pov::Opcode" { i8* getelementptr inbounds ([4 x i8], [4 x i8]* @.str.16, i32 0, i32 0), i32 640, i32 2 }, %"struct.pov::Opcode" { i8* getelementptr inbounds ([4 x i8], [4 x i8]* @.str.17, i32 0, i32 0), i32 648, i32 2 }, %"struct.pov::Opcode" { i8* getelementptr inbounds ([4 x i8], [4 x i8]* @.str.18, i32 0, i32 0), i32 656, i32 2 }, %"struct.pov::Opcode" { i8* getelementptr inbounds ([4 x i8], [4 x i8]* @.str.19, i32 0, i32 0), i32 664, i32 2 }, %"struct.pov::Opcode" { i8* getelementptr inbounds ([4 x i8], [4 x i8]* @.str.20, i32 0, i32 0), i32 672, i32 2 }, %"struct.pov::Opcode" { i8* getelementptr inbounds ([4 x i8], [4 x i8]* @.str.21, i32 0, i32 0), i32 680, i32 2 }, %"struct.pov::Opcode" { i8* getelementptr inbounds ([4 x i8], [4 x i8]* @.str.22, i32 0, i32 0), i32 688, i32 2 }, %"struct.pov::Opcode" { i8* getelementptr inbounds ([4 x i8], [4 x i8]* @.str.23, i32 0, i32 0), i32 696, i32 2 }, %"struct.pov::Opcode" { i8* getelementptr inbounds ([5 x i8], [5 x i8]* @.str.24, i32 0, i32 0), i32 704, i32 5 }, %"struct.pov::Opcode" { i8* getelementptr inbounds ([6 x i8], [6 x i8]* @.str.25, i32 0, i32 0), i32 768, i32 5 }, %"struct.pov::Opcode" { i8* getelementptr inbounds ([4 x i8], [4 x i8]* @.str.26, i32 0, i32 0), i32 896, i32 2 }, %"struct.pov::Opcode" { i8* getelementptr inbounds ([4 x i8], [4 x i8]* @.str.27, i32 0, i32 0), i32 904, i32 2 }, %"struct.pov::Opcode" { i8* getelementptr inbounds ([4 x i8], [4 x i8]* @.str.28, i32 0, i32 0), i32 912, i32 2 }, %"struct.pov::Opcode" { i8* getelementptr inbounds ([4 x i8], [4 x i8]* @.str.29, i32 0, i32 0), i32 920, i32 2 }, %"struct.pov::Opcode" { i8* getelementptr inbounds ([4 x i8], [4 x i8]* @.str.30, i32 0, i32 0), i32 928, i32 2 }, %"struct.pov::Opcode" { i8* getelementptr inbounds ([4 x i8], [4 x i8]* @.str.31, i32 0, i32 0), i32 936, i32 2 }, %"struct.pov::Opcode" { i8* getelementptr inbounds ([4 x i8], [4 x i8]* @.str.32, i32 0, i32 0), i32 944, i32 2 }, %"struct.pov::Opcode" { i8* getelementptr inbounds ([4 x i8], [4 x i8]* @.str.33, i32 0, i32 0), i32 832, i32 3 }, %"struct.pov::Opcode" { i8* getelementptr inbounds ([4 x i8], [4 x i8]* @.str.34, i32 0, i32 0), i32 840, i32 3 }, %"struct.pov::Opcode" { i8* getelementptr inbounds ([4 x i8], [4 x i8]* @.str.35, i32 0, i32 0), i32 848, i32 3 }, %"struct.pov::Opcode" { i8* getelementptr inbounds ([4 x i8], [4 x i8]* @.str.36, i32 0, i32 0), i32 856, i32 3 }, %"struct.pov::Opcode" { i8* getelementptr inbounds ([4 x i8], [4 x i8]* @.str.37, i32 0, i32 0), i32 864, i32 3 }, %"struct.pov::Opcode" { i8* getelementptr inbounds ([4 x i8], [4 x i8]* @.str.38, i32 0, i32 0), i32 872, i32 3 }, %"struct.pov::Opcode" { i8* getelementptr inbounds ([4 x i8], [4 x i8]* @.str.39, i32 0, i32 0), i32 960, i32 3 }, %"struct.pov::Opcode" { i8* getelementptr inbounds ([4 x i8], [4 x i8]* @.str.40, i32 0, i32 0), i32 961, i32 3 }, %"struct.pov::Opcode" { i8* getelementptr inbounds ([4 x i8], [4 x i8]* @.str.41, i32 0, i32 0), i32 962, i32 4 }, %"struct.pov::Opcode" { i8* getelementptr inbounds ([5 x i8], [5 x i8]* @.str.42, i32 0, i32 0), i32 963, i32 3 }, %"struct.pov::Opcode" { i8* getelementptr inbounds ([5 x i8], [5 x i8]* @.str.43, i32 0, i32 0), i32 964, i32 3 }, %"struct.pov::Opcode" { i8* getelementptr inbounds ([5 x i8], [5 x i8]* @.str.44, i32 0, i32 0), i32 965, i32 3 }, %"struct.pov::Opcode" { i8* getelementptr inbounds ([5 x i8], [5 x i8]* @.str.45, i32 0, i32 0), i32 966, i32 3 }, %"struct.pov::Opcode" { i8* getelementptr inbounds ([6 x i8], [6 x i8]* @.str.46, i32 0, i32 0), i32 967, i32 3 }, %"struct.pov::Opcode" { i8* getelementptr inbounds ([5 x i8], [5 x i8]* @.str.47, i32 0, i32 0), i32 968, i32 3 }, %"struct.pov::Opcode" { i8* getelementptr inbounds ([5 x i8], [5 x i8]* @.str.48, i32 0, i32 0), i32 969, i32 3 }, %"struct.pov::Opcode" { i8* getelementptr inbounds ([4 x i8], [4 x i8]* @.str.49, i32 0, i32 0), i32 970, i32 3 }, %"struct.pov::Opcode" { i8* getelementptr inbounds ([4 x i8], [4 x i8]* @.str.50, i32 0, i32 0), i32 991, i32 4 }, %"struct.pov::Opcode" zeroinitializer], align 16, !dbg !0
@_ZN3pov16POVFPU_Sys1TableE = dso_local constant [20 x double (double)*] [double (double)* @sin, double (double)* @cos, double (double)* @tan, double (double)* @asin, double (double)* @acos, double (double)* @atan, double (double)* @sinh, double (double)* @cosh, double (double)* @tanh, double (double)* @asinh, double (double)* @acosh, double (double)* @atanh, double (double)* @floor, double (double)* @ceil, double (double)* @sqrt, double (double)* @exp, double (double)* @log, double (double)* @log10, double (double)* @_ZN3pov8math_intEd, double (double)* null], align 16, !dbg !20
@_ZN3pov16POVFPU_Sys2TableE = dso_local constant [5 x double (double, double)*] [double (double, double)* @pow, double (double, double)* @atan2, double (double, double)* @fmod, double (double, double)* @_ZN3pov8math_divEdd, double (double, double)* null], align 16, !dbg !31
@_ZN3pov20POVFPU_Sys1TableSizeE = dso_local constant i32 19, align 4, !dbg !41
@_ZN3pov20POVFPU_Sys2TableSizeE = dso_local constant i32 4, align 4, !dbg !44
@_ZN3pov14POVFPU_GlobalsE = dso_local global double* null, align 8, !dbg !46
@_ZN3pov13POVFPU_ConstsE = dso_local global double* null, align 8, !dbg !49
@_ZN3pov16POVFPU_GlobalCntE = dso_local global i32 0, align 4, !dbg !51
@_ZN3pov15POVFPU_ConstCntE = dso_local global i32 0, align 4, !dbg !53
@_ZN3pov16POVFPU_FunctionsE = dso_local global %"struct.pov::FunctionEntry_Struct"* null, align 8, !dbg !55
@_ZN3pov18POVFPU_FunctionCntE = dso_local global i32 0, align 4, !dbg !107
@_ZN3pov19POVFPU_Context_RootE = dso_local global %"struct.pov::FPUContext_Struct"* null, align 8, !dbg !109
@_ZN3pov22POVFPU_Current_ContextE = dso_local global %"struct.pov::FPUContext_Struct"* null, align 8, !dbg !128
@.str.51 = private unnamed_addr constant [13 x i8] c"fnpovfpu.cpp\00", align 1
@.str.52 = private unnamed_addr constant [10 x i8] c"fn: stack\00", align 1
@.str.53 = private unnamed_addr constant [12 x i8] c"fn: globals\00", align 1
@.str.54 = private unnamed_addr constant [31 x i8] c"Unknown user defined function.\00", align 1
@.str.55 = private unnamed_addr constant [20 x i8] c"fn: constant floats\00", align 1
@.str.56 = private unnamed_addr constant [59 x i8] c"More than %d constants in all functions are not supported.\00", align 1
@.str.57 = private unnamed_addr constant [18 x i8] c"fn: FunctionEntry\00", align 1
@.str.58 = private unnamed_addr constant [52 x i8] c"Maximum number (%d) of functions per scene reached.\00", align 1
@.str.59 = private unnamed_addr constant [44 x i8] c"Runtime error detected in function '%s'. %s\00", align 1
@.str.60 = private unnamed_addr constant [194 x i8] c"Floating-point exception detected in function '%s'. Your function either attempted a division by zero, used a function outside its domain or called an internal function with invalid parameters.\00", align 1
@.str.61 = private unnamed_addr constant [39 x i8] c"Runtime error detected in function. %s\00", align 1
@.str.62 = private unnamed_addr constant [197 x i8] c"Floating-point exception detected in unnamed function. Your function either attempted a division by zero, used a function outside its domain or called an internal function with invalid parameters.\00", align 1
@.str.63 = private unnamed_addr constant [12 x i8] c"fn: context\00", align 1
@.str.64 = private unnamed_addr constant [13 x i8] c"fn: dblstack\00", align 1
@.str.65 = private unnamed_addr constant [11 x i8] c"fn: pstack\00", align 1
@_ZN3pov5statsE = external dso_local global [123 x i64], align 16
@.str.66 = private unnamed_addr constant [53 x i8] c"Maximum function evaluation recursion level reached.\00", align 1
@_ZN3pov16POVFPU_TrapTableE = external dso_local global [0 x %"struct.pov::Trap"], align 8
@_ZN3pov17POVFPU_TrapSTableE = external dso_local global [0 x %"struct.pov::TrapS"], align 8
@.str.67 = private unnamed_addr constant [55 x i8] c"Stack full. Possible infinite recursive function call.\00", align 1
@.str.68 = private unnamed_addr constant [36 x i8] c"Function evaluation stack overflow.\00", align 1
@.str.69 = private unnamed_addr constant [37 x i8] c"Function evaluation stack underflow.\00", align 1

; Function Attrs: nounwind
declare dso_local double @sin(double) #0

; Function Attrs: nounwind
declare dso_local double @cos(double) #0

; Function Attrs: nounwind
declare dso_local double @tan(double) #0

; Function Attrs: nounwind
declare dso_local double @asin(double) #0

; Function Attrs: nounwind
declare dso_local double @acos(double) #0

; Function Attrs: nounwind
declare dso_local double @atan(double) #0

; Function Attrs: nounwind
declare dso_local double @sinh(double) #0

; Function Attrs: nounwind
declare dso_local double @cosh(double) #0

; Function Attrs: nounwind
declare dso_local double @tanh(double) #0

; Function Attrs: nounwind
declare dso_local double @asinh(double) #0

; Function Attrs: nounwind
declare dso_local double @acosh(double) #0

; Function Attrs: nounwind
declare dso_local double @atanh(double) #0

; Function Attrs: nounwind readnone
declare dso_local double @floor(double) #1

; Function Attrs: nounwind readnone
declare dso_local double @ceil(double) #1

; Function Attrs: nounwind
declare dso_local double @sqrt(double) #0

; Function Attrs: nounwind
declare dso_local double @exp(double) #0

; Function Attrs: nounwind
declare dso_local double @log(double) #0

; Function Attrs: nounwind
declare dso_local double @log10(double) #0

; Function Attrs: noinline nounwind uwtable
define dso_local double @_ZN3pov8math_intEd(double %i) #2 !dbg !1223 {
entry:
  %i.addr = alloca double, align 8
  store double %i, double* %i.addr, align 8
  call void @llvm.dbg.declare(metadata double* %i.addr, metadata !1225, metadata !DIExpression()), !dbg !1226
  %0 = load double, double* %i.addr, align 8, !dbg !1227
  %conv = fptosi double %0 to i32, !dbg !1228
  %conv1 = sitofp i32 %conv to double, !dbg !1229
  ret double %conv1, !dbg !1230
}

; Function Attrs: nounwind
declare dso_local double @pow(double, double) #0

; Function Attrs: nounwind
declare dso_local double @atan2(double, double) #0

; Function Attrs: nounwind
declare dso_local double @fmod(double, double) #0

; Function Attrs: noinline nounwind uwtable
define dso_local double @_ZN3pov8math_divEdd(double %i1, double %i2) #2 !dbg !1231 {
entry:
  %i1.addr = alloca double, align 8
  %i2.addr = alloca double, align 8
  store double %i1, double* %i1.addr, align 8
  call void @llvm.dbg.declare(metadata double* %i1.addr, metadata !1232, metadata !DIExpression()), !dbg !1233
  store double %i2, double* %i2.addr, align 8
  call void @llvm.dbg.declare(metadata double* %i2.addr, metadata !1234, metadata !DIExpression()), !dbg !1235
  %0 = load double, double* %i1.addr, align 8, !dbg !1236
  %1 = load double, double* %i2.addr, align 8, !dbg !1237
  %div = fdiv double %0, %1, !dbg !1238
  %conv = fptosi double %div to i32, !dbg !1239
  %conv1 = sitofp i32 %conv to double, !dbg !1240
  ret double %conv1, !dbg !1241
}

; Function Attrs: nounwind readnone speculatable willreturn
declare void @llvm.dbg.declare(metadata, metadata, metadata) #3

; Function Attrs: noinline uwtable
define dso_local void @_ZN3pov11POVFPU_InitEv() #4 !dbg !1242 {
entry:
  store double* null, double** @_ZN3pov14POVFPU_GlobalsE, align 8, !dbg !1243
  store double* null, double** @_ZN3pov13POVFPU_ConstsE, align 8, !dbg !1244
  store i32 0, i32* @_ZN3pov16POVFPU_GlobalCntE, align 4, !dbg !1245
  store i32 0, i32* @_ZN3pov15POVFPU_ConstCntE, align 4, !dbg !1246
  store %"struct.pov::FunctionEntry_Struct"* null, %"struct.pov::FunctionEntry_Struct"** @_ZN3pov16POVFPU_FunctionsE, align 8, !dbg !1247
  store i32 0, i32* @_ZN3pov18POVFPU_FunctionCntE, align 4, !dbg !1248
  store %"struct.pov::FPUContext_Struct"* null, %"struct.pov::FPUContext_Struct"** @_ZN3pov19POVFPU_Context_RootE, align 8, !dbg !1249
  %call = call %"struct.pov::FPUContext_Struct"* @_ZN3pov17POVFPU_NewContextEv(), !dbg !1250
  store %"struct.pov::FPUContext_Struct"* %call, %"struct.pov::FPUContext_Struct"** @_ZN3pov22POVFPU_Current_ContextE, align 8, !dbg !1251
  %call1 = call i32 @_ZN3pov18POVFPU_AddConstantEd(double 0.000000e+00), !dbg !1252
  %call2 = call i32 @_ZN3pov18POVFPU_AddConstantEd(double 1.000000e+00), !dbg !1253
  ret void, !dbg !1254
}

; Function Attrs: noinline uwtable
define dso_local %"struct.pov::FPUContext_Struct"* @_ZN3pov17POVFPU_NewContextEv() #4 !dbg !1255 {
entry:
  %context = alloca %"struct.pov::FPUContext_Struct"*, align 8
  call void @llvm.dbg.declare(metadata %"struct.pov::FPUContext_Struct"** %context, metadata !1258, metadata !DIExpression()), !dbg !1259
  %call = call i8* @_ZN3pov10pov_mallocEmPKciS1_(i64 32, i8* getelementptr inbounds ([13 x i8], [13 x i8]* @.str.51, i64 0, i64 0), i32 1299, i8* getelementptr inbounds ([12 x i8], [12 x i8]* @.str.63, i64 0, i64 0)), !dbg !1260
  %0 = bitcast i8* %call to %"struct.pov::FPUContext_Struct"*, !dbg !1261
  store %"struct.pov::FPUContext_Struct"* %0, %"struct.pov::FPUContext_Struct"** %context, align 8, !dbg !1259
  %1 = load %"struct.pov::FPUContext_Struct"*, %"struct.pov::FPUContext_Struct"** @_ZN3pov19POVFPU_Context_RootE, align 8, !dbg !1262
  %2 = load %"struct.pov::FPUContext_Struct"*, %"struct.pov::FPUContext_Struct"** %context, align 8, !dbg !1263
  %next = getelementptr inbounds %"struct.pov::FPUContext_Struct", %"struct.pov::FPUContext_Struct"* %2, i32 0, i32 0, !dbg !1264
  store %"struct.pov::FPUContext_Struct"* %1, %"struct.pov::FPUContext_Struct"** %next, align 8, !dbg !1265
  %3 = load %"struct.pov::FPUContext_Struct"*, %"struct.pov::FPUContext_Struct"** %context, align 8, !dbg !1266
  %maxdblstacksize = getelementptr inbounds %"struct.pov::FPUContext_Struct", %"struct.pov::FPUContext_Struct"* %3, i32 0, i32 3, !dbg !1267
  store i32 256, i32* %maxdblstacksize, align 8, !dbg !1268
  %4 = load %"struct.pov::FPUContext_Struct"*, %"struct.pov::FPUContext_Struct"** %context, align 8, !dbg !1269
  %maxdblstacksize1 = getelementptr inbounds %"struct.pov::FPUContext_Struct", %"struct.pov::FPUContext_Struct"* %4, i32 0, i32 3, !dbg !1269
  %5 = load i32, i32* %maxdblstacksize1, align 8, !dbg !1269
  %conv = zext i32 %5 to i64, !dbg !1269
  %mul = mul i64 8, %conv, !dbg !1269
  %call2 = call i8* @_ZN3pov10pov_mallocEmPKciS1_(i64 %mul, i8* getelementptr inbounds ([13 x i8], [13 x i8]* @.str.51, i64 0, i64 0), i32 1303, i8* getelementptr inbounds ([13 x i8], [13 x i8]* @.str.64, i64 0, i64 0)), !dbg !1269
  %6 = bitcast i8* %call2 to double*, !dbg !1270
  %7 = load %"struct.pov::FPUContext_Struct"*, %"struct.pov::FPUContext_Struct"** %context, align 8, !dbg !1271
  %dblstackbase = getelementptr inbounds %"struct.pov::FPUContext_Struct", %"struct.pov::FPUContext_Struct"* %7, i32 0, i32 2, !dbg !1272
  store double* %6, double** %dblstackbase, align 8, !dbg !1273
  %call3 = call i8* @_ZN3pov10pov_mallocEmPKciS1_(i64 8192, i8* getelementptr inbounds ([13 x i8], [13 x i8]* @.str.51, i64 0, i64 0), i32 1304, i8* getelementptr inbounds ([11 x i8], [11 x i8]* @.str.65, i64 0, i64 0)), !dbg !1274
  %8 = bitcast i8* %call3 to %"struct.pov::StackFrame_Struct"*, !dbg !1275
  %9 = load %"struct.pov::FPUContext_Struct"*, %"struct.pov::FPUContext_Struct"** %context, align 8, !dbg !1276
  %pstackbase = getelementptr inbounds %"struct.pov::FPUContext_Struct", %"struct.pov::FPUContext_Struct"* %9, i32 0, i32 1, !dbg !1277
  store %"struct.pov::StackFrame_Struct"* %8, %"struct.pov::StackFrame_Struct"** %pstackbase, align 8, !dbg !1278
  %10 = load %"struct.pov::FPUContext_Struct"*, %"struct.pov::FPUContext_Struct"** %context, align 8, !dbg !1279
  store %"struct.pov::FPUContext_Struct"* %10, %"struct.pov::FPUContext_Struct"** @_ZN3pov19POVFPU_Context_RootE, align 8, !dbg !1280
  %11 = load %"struct.pov::FPUContext_Struct"*, %"struct.pov::FPUContext_Struct"** %context, align 8, !dbg !1281
  ret %"struct.pov::FPUContext_Struct"* %11, !dbg !1282
}

; Function Attrs: noinline uwtable
define dso_local i32 @_ZN3pov18POVFPU_AddConstantEd(double %v) #4 !dbg !1283 {
entry:
  %retval = alloca i32, align 4
  %v.addr = alloca double, align 8
  %i = alloca i32, align 4
  store double %v, double* %v.addr, align 8
  call void @llvm.dbg.declare(metadata double* %v.addr, metadata !1286, metadata !DIExpression()), !dbg !1287
  call void @llvm.dbg.declare(metadata i32* %i, metadata !1288, metadata !DIExpression()), !dbg !1289
  %0 = load double*, double** @_ZN3pov13POVFPU_ConstsE, align 8, !dbg !1290
  %cmp = icmp eq double* %0, null, !dbg !1292
  br i1 %cmp, label %if.then, label %if.end, !dbg !1293

if.then:                                          ; preds = %entry
  %call = call i8* @_ZN3pov10pov_mallocEmPKciS1_(i64 8, i8* getelementptr inbounds ([13 x i8], [13 x i8]* @.str.51, i64 0, i64 0), i32 1033, i8* getelementptr inbounds ([20 x i8], [20 x i8]* @.str.55, i64 0, i64 0)), !dbg !1294
  %1 = bitcast i8* %call to double*, !dbg !1296
  store double* %1, double** @_ZN3pov13POVFPU_ConstsE, align 8, !dbg !1297
  %2 = load double, double* %v.addr, align 8, !dbg !1298
  %3 = load double*, double** @_ZN3pov13POVFPU_ConstsE, align 8, !dbg !1299
  %arrayidx = getelementptr inbounds double, double* %3, i64 0, !dbg !1299
  store double %2, double* %arrayidx, align 8, !dbg !1300
  store i32 1, i32* @_ZN3pov15POVFPU_ConstCntE, align 4, !dbg !1301
  store i32 0, i32* %retval, align 4, !dbg !1302
  br label %return, !dbg !1302

if.end:                                           ; preds = %entry
  store i32 0, i32* %i, align 4, !dbg !1303
  br label %for.cond, !dbg !1305

for.cond:                                         ; preds = %for.inc, %if.end
  %4 = load i32, i32* %i, align 4, !dbg !1306
  %5 = load i32, i32* @_ZN3pov15POVFPU_ConstCntE, align 4, !dbg !1308
  %cmp1 = icmp ult i32 %4, %5, !dbg !1309
  br i1 %cmp1, label %for.body, label %for.end, !dbg !1310

for.body:                                         ; preds = %for.cond
  %6 = load double*, double** @_ZN3pov13POVFPU_ConstsE, align 8, !dbg !1311
  %7 = load i32, i32* %i, align 4, !dbg !1314
  %idxprom = zext i32 %7 to i64, !dbg !1311
  %arrayidx2 = getelementptr inbounds double, double* %6, i64 %idxprom, !dbg !1311
  %8 = load double, double* %arrayidx2, align 8, !dbg !1311
  %9 = load double, double* %v.addr, align 8, !dbg !1315
  %cmp3 = fcmp oeq double %8, %9, !dbg !1316
  br i1 %cmp3, label %if.then4, label %if.end5, !dbg !1317

if.then4:                                         ; preds = %for.body
  %10 = load i32, i32* %i, align 4, !dbg !1318
  store i32 %10, i32* %retval, align 4, !dbg !1319
  br label %return, !dbg !1319

if.end5:                                          ; preds = %for.body
  br label %for.inc, !dbg !1320

for.inc:                                          ; preds = %if.end5
  %11 = load i32, i32* %i, align 4, !dbg !1321
  %inc = add i32 %11, 1, !dbg !1321
  store i32 %inc, i32* %i, align 4, !dbg !1321
  br label %for.cond, !dbg !1322, !llvm.loop !1323

for.end:                                          ; preds = %for.cond
  %12 = load i32, i32* @_ZN3pov15POVFPU_ConstCntE, align 4, !dbg !1325
  %cmp6 = icmp eq i32 %12, 1048575, !dbg !1327
  br i1 %cmp6, label %if.then7, label %if.end9, !dbg !1328

if.then7:                                         ; preds = %for.end
  %call8 = call i32 (i8*, ...) @_ZN3pov5ErrorEPKcz(i8* getelementptr inbounds ([59 x i8], [59 x i8]* @.str.56, i64 0, i64 0), i32 1048575), !dbg !1329
  br label %if.end9, !dbg !1329

if.end9:                                          ; preds = %if.then7, %for.end
  %13 = load i32, i32* @_ZN3pov15POVFPU_ConstCntE, align 4, !dbg !1330
  %inc10 = add i32 %13, 1, !dbg !1330
  store i32 %inc10, i32* @_ZN3pov15POVFPU_ConstCntE, align 4, !dbg !1330
  %14 = load double*, double** @_ZN3pov13POVFPU_ConstsE, align 8, !dbg !1331
  %15 = bitcast double* %14 to i8*, !dbg !1331
  %16 = load i32, i32* @_ZN3pov15POVFPU_ConstCntE, align 4, !dbg !1331
  %conv = zext i32 %16 to i64, !dbg !1331
  %mul = mul i64 8, %conv, !dbg !1331
  %call11 = call i8* @_ZN3pov11pov_reallocEPvmPKciS2_(i8* %15, i64 %mul, i8* getelementptr inbounds ([13 x i8], [13 x i8]* @.str.51, i64 0, i64 0), i32 1049, i8* getelementptr inbounds ([20 x i8], [20 x i8]* @.str.55, i64 0, i64 0)), !dbg !1331
  %17 = bitcast i8* %call11 to double*, !dbg !1332
  store double* %17, double** @_ZN3pov13POVFPU_ConstsE, align 8, !dbg !1333
  %18 = load double, double* %v.addr, align 8, !dbg !1334
  %19 = load double*, double** @_ZN3pov13POVFPU_ConstsE, align 8, !dbg !1335
  %20 = load i32, i32* @_ZN3pov15POVFPU_ConstCntE, align 4, !dbg !1336
  %sub = sub i32 %20, 1, !dbg !1337
  %idxprom12 = zext i32 %sub to i64, !dbg !1335
  %arrayidx13 = getelementptr inbounds double, double* %19, i64 %idxprom12, !dbg !1335
  store double %18, double* %arrayidx13, align 8, !dbg !1338
  %21 = load i32, i32* @_ZN3pov15POVFPU_ConstCntE, align 4, !dbg !1339
  %sub14 = sub i32 %21, 1, !dbg !1340
  store i32 %sub14, i32* %retval, align 4, !dbg !1341
  br label %return, !dbg !1341

return:                                           ; preds = %if.end9, %if.then4, %if.then
  %22 = load i32, i32* %retval, align 4, !dbg !1342
  ret i32 %22, !dbg !1342
}

; Function Attrs: noinline uwtable
define dso_local void @_ZN3pov16POVFPU_TerminateEv() #4 !dbg !1343 {
entry:
  %0 = load %"struct.pov::FPUContext_Struct"*, %"struct.pov::FPUContext_Struct"** @_ZN3pov19POVFPU_Context_RootE, align 8, !dbg !1344
  %cmp = icmp eq %"struct.pov::FPUContext_Struct"* %0, null, !dbg !1346
  br i1 %cmp, label %if.then, label %if.end, !dbg !1347

if.then:                                          ; preds = %entry
  br label %return, !dbg !1348

if.end:                                           ; preds = %entry
  call void @_ZN3pov12POVFPU_ResetEv(), !dbg !1349
  br label %while.cond, !dbg !1350

while.cond:                                       ; preds = %while.body, %if.end
  %1 = load %"struct.pov::FPUContext_Struct"*, %"struct.pov::FPUContext_Struct"** @_ZN3pov19POVFPU_Context_RootE, align 8, !dbg !1351
  %cmp1 = icmp ne %"struct.pov::FPUContext_Struct"* %1, null, !dbg !1352
  br i1 %cmp1, label %while.body, label %while.end, !dbg !1350

while.body:                                       ; preds = %while.cond
  %2 = load %"struct.pov::FPUContext_Struct"*, %"struct.pov::FPUContext_Struct"** @_ZN3pov19POVFPU_Context_RootE, align 8, !dbg !1353
  %dblstackbase = getelementptr inbounds %"struct.pov::FPUContext_Struct", %"struct.pov::FPUContext_Struct"* %2, i32 0, i32 2, !dbg !1353
  %3 = load double*, double** %dblstackbase, align 8, !dbg !1353
  %4 = bitcast double* %3 to i8*, !dbg !1353
  call void @_ZN3pov8pov_freeEPvPKci(i8* %4, i8* getelementptr inbounds ([13 x i8], [13 x i8]* @.str.51, i64 0, i64 0), i32 656), !dbg !1353
  %5 = load %"struct.pov::FPUContext_Struct"*, %"struct.pov::FPUContext_Struct"** @_ZN3pov19POVFPU_Context_RootE, align 8, !dbg !1353
  %dblstackbase2 = getelementptr inbounds %"struct.pov::FPUContext_Struct", %"struct.pov::FPUContext_Struct"* %5, i32 0, i32 2, !dbg !1353
  store double* null, double** %dblstackbase2, align 8, !dbg !1353
  %6 = load %"struct.pov::FPUContext_Struct"*, %"struct.pov::FPUContext_Struct"** @_ZN3pov19POVFPU_Context_RootE, align 8, !dbg !1356
  %pstackbase = getelementptr inbounds %"struct.pov::FPUContext_Struct", %"struct.pov::FPUContext_Struct"* %6, i32 0, i32 1, !dbg !1356
  %7 = load %"struct.pov::StackFrame_Struct"*, %"struct.pov::StackFrame_Struct"** %pstackbase, align 8, !dbg !1356
  %8 = bitcast %"struct.pov::StackFrame_Struct"* %7 to i8*, !dbg !1356
  call void @_ZN3pov8pov_freeEPvPKci(i8* %8, i8* getelementptr inbounds ([13 x i8], [13 x i8]* @.str.51, i64 0, i64 0), i32 657), !dbg !1356
  %9 = load %"struct.pov::FPUContext_Struct"*, %"struct.pov::FPUContext_Struct"** @_ZN3pov19POVFPU_Context_RootE, align 8, !dbg !1356
  %pstackbase3 = getelementptr inbounds %"struct.pov::FPUContext_Struct", %"struct.pov::FPUContext_Struct"* %9, i32 0, i32 1, !dbg !1356
  store %"struct.pov::StackFrame_Struct"* null, %"struct.pov::StackFrame_Struct"** %pstackbase3, align 8, !dbg !1356
  %10 = load %"struct.pov::FPUContext_Struct"*, %"struct.pov::FPUContext_Struct"** @_ZN3pov19POVFPU_Context_RootE, align 8, !dbg !1358
  store %"struct.pov::FPUContext_Struct"* %10, %"struct.pov::FPUContext_Struct"** @_ZN3pov22POVFPU_Current_ContextE, align 8, !dbg !1359
  %11 = load %"struct.pov::FPUContext_Struct"*, %"struct.pov::FPUContext_Struct"** @_ZN3pov19POVFPU_Context_RootE, align 8, !dbg !1360
  %next = getelementptr inbounds %"struct.pov::FPUContext_Struct", %"struct.pov::FPUContext_Struct"* %11, i32 0, i32 0, !dbg !1361
  %12 = load %"struct.pov::FPUContext_Struct"*, %"struct.pov::FPUContext_Struct"** %next, align 8, !dbg !1361
  store %"struct.pov::FPUContext_Struct"* %12, %"struct.pov::FPUContext_Struct"** @_ZN3pov19POVFPU_Context_RootE, align 8, !dbg !1362
  %13 = load %"struct.pov::FPUContext_Struct"*, %"struct.pov::FPUContext_Struct"** @_ZN3pov22POVFPU_Current_ContextE, align 8, !dbg !1363
  %14 = bitcast %"struct.pov::FPUContext_Struct"* %13 to i8*, !dbg !1363
  call void @_ZN3pov8pov_freeEPvPKci(i8* %14, i8* getelementptr inbounds ([13 x i8], [13 x i8]* @.str.51, i64 0, i64 0), i32 660), !dbg !1363
  store %"struct.pov::FPUContext_Struct"* null, %"struct.pov::FPUContext_Struct"** @_ZN3pov22POVFPU_Current_ContextE, align 8, !dbg !1363
  br label %while.cond, !dbg !1350, !llvm.loop !1365

while.end:                                        ; preds = %while.cond
  store %"struct.pov::FPUContext_Struct"* null, %"struct.pov::FPUContext_Struct"** @_ZN3pov22POVFPU_Current_ContextE, align 8, !dbg !1367
  br label %return, !dbg !1368

return:                                           ; preds = %while.end, %if.then
  ret void, !dbg !1368
}

; Function Attrs: noinline uwtable
define dso_local void @_ZN3pov12POVFPU_ResetEv() #4 !dbg !1369 {
entry:
  %i = alloca i32, align 4
  %0 = load double*, double** @_ZN3pov14POVFPU_GlobalsE, align 8, !dbg !1370
  %cmp = icmp ne double* %0, null, !dbg !1372
  br i1 %cmp, label %if.then, label %if.end, !dbg !1373

if.then:                                          ; preds = %entry
  %1 = load double*, double** @_ZN3pov14POVFPU_GlobalsE, align 8, !dbg !1374
  %2 = bitcast double* %1 to i8*, !dbg !1374
  call void @_ZN3pov8pov_freeEPvPKci(i8* %2, i8* getelementptr inbounds ([13 x i8], [13 x i8]* @.str.51, i64 0, i64 0), i32 699), !dbg !1374
  store double* null, double** @_ZN3pov14POVFPU_GlobalsE, align 8, !dbg !1374
  store double* null, double** @_ZN3pov14POVFPU_GlobalsE, align 8, !dbg !1377
  store i32 0, i32* @_ZN3pov16POVFPU_GlobalCntE, align 4, !dbg !1378
  br label %if.end, !dbg !1379

if.end:                                           ; preds = %if.then, %entry
  %3 = load double*, double** @_ZN3pov13POVFPU_ConstsE, align 8, !dbg !1380
  %cmp1 = icmp ne double* %3, null, !dbg !1382
  br i1 %cmp1, label %if.then2, label %if.end3, !dbg !1383

if.then2:                                         ; preds = %if.end
  %4 = load double*, double** @_ZN3pov13POVFPU_ConstsE, align 8, !dbg !1384
  %5 = bitcast double* %4 to i8*, !dbg !1384
  call void @_ZN3pov8pov_freeEPvPKci(i8* %5, i8* getelementptr inbounds ([13 x i8], [13 x i8]* @.str.51, i64 0, i64 0), i32 705), !dbg !1384
  store double* null, double** @_ZN3pov13POVFPU_ConstsE, align 8, !dbg !1384
  store double* null, double** @_ZN3pov13POVFPU_ConstsE, align 8, !dbg !1387
  store i32 0, i32* @_ZN3pov15POVFPU_ConstCntE, align 4, !dbg !1388
  br label %if.end3, !dbg !1389

if.end3:                                          ; preds = %if.then2, %if.end
  %6 = load %"struct.pov::FunctionEntry_Struct"*, %"struct.pov::FunctionEntry_Struct"** @_ZN3pov16POVFPU_FunctionsE, align 8, !dbg !1390
  %cmp4 = icmp ne %"struct.pov::FunctionEntry_Struct"* %6, null, !dbg !1392
  br i1 %cmp4, label %if.then5, label %if.end15, !dbg !1393

if.then5:                                         ; preds = %if.end3
  call void @llvm.dbg.declare(metadata i32* %i, metadata !1394, metadata !DIExpression()), !dbg !1397
  store i32 0, i32* %i, align 4, !dbg !1397
  br label %for.cond, !dbg !1398

for.cond:                                         ; preds = %for.inc, %if.then5
  %7 = load i32, i32* %i, align 4, !dbg !1399
  %8 = load i32, i32* @_ZN3pov18POVFPU_FunctionCntE, align 4, !dbg !1401
  %cmp6 = icmp ult i32 %7, %8, !dbg !1402
  br i1 %cmp6, label %for.body, label %for.end, !dbg !1403

for.body:                                         ; preds = %for.cond
  %9 = load %"struct.pov::FunctionEntry_Struct"*, %"struct.pov::FunctionEntry_Struct"** @_ZN3pov16POVFPU_FunctionsE, align 8, !dbg !1404
  %10 = load i32, i32* %i, align 4, !dbg !1407
  %idxprom = zext i32 %10 to i64, !dbg !1404
  %arrayidx = getelementptr inbounds %"struct.pov::FunctionEntry_Struct", %"struct.pov::FunctionEntry_Struct"* %9, i64 %idxprom, !dbg !1404
  %reference_count = getelementptr inbounds %"struct.pov::FunctionEntry_Struct", %"struct.pov::FunctionEntry_Struct"* %arrayidx, i32 0, i32 1, !dbg !1408
  %11 = load i32, i32* %reference_count, align 8, !dbg !1408
  %cmp7 = icmp ugt i32 %11, 0, !dbg !1409
  br i1 %cmp7, label %if.then8, label %if.end14, !dbg !1410

if.then8:                                         ; preds = %for.body
  %12 = load %"struct.pov::FunctionEntry_Struct"*, %"struct.pov::FunctionEntry_Struct"** @_ZN3pov16POVFPU_FunctionsE, align 8, !dbg !1411
  %13 = load i32, i32* %i, align 4, !dbg !1413
  %idxprom9 = zext i32 %13 to i64, !dbg !1411
  %arrayidx10 = getelementptr inbounds %"struct.pov::FunctionEntry_Struct", %"struct.pov::FunctionEntry_Struct"* %12, i64 %idxprom9, !dbg !1411
  %fn = getelementptr inbounds %"struct.pov::FunctionEntry_Struct", %"struct.pov::FunctionEntry_Struct"* %arrayidx10, i32 0, i32 0, !dbg !1414
  call void @_ZN3pov13FNCode_DeleteEPNS_12FunctionCodeE(%"struct.pov::FunctionCode"* %fn), !dbg !1415
  %14 = load %"struct.pov::FunctionEntry_Struct"*, %"struct.pov::FunctionEntry_Struct"** @_ZN3pov16POVFPU_FunctionsE, align 8, !dbg !1416
  %15 = load i32, i32* %i, align 4, !dbg !1417
  %idxprom11 = zext i32 %15 to i64, !dbg !1416
  %arrayidx12 = getelementptr inbounds %"struct.pov::FunctionEntry_Struct", %"struct.pov::FunctionEntry_Struct"* %14, i64 %idxprom11, !dbg !1416
  %reference_count13 = getelementptr inbounds %"struct.pov::FunctionEntry_Struct", %"struct.pov::FunctionEntry_Struct"* %arrayidx12, i32 0, i32 1, !dbg !1418
  store i32 0, i32* %reference_count13, align 8, !dbg !1419
  br label %if.end14, !dbg !1420

if.end14:                                         ; preds = %if.then8, %for.body
  br label %for.inc, !dbg !1421

for.inc:                                          ; preds = %if.end14
  %16 = load i32, i32* %i, align 4, !dbg !1422
  %inc = add i32 %16, 1, !dbg !1422
  store i32 %inc, i32* %i, align 4, !dbg !1422
  br label %for.cond, !dbg !1423, !llvm.loop !1424

for.end:                                          ; preds = %for.cond
  %17 = load %"struct.pov::FunctionEntry_Struct"*, %"struct.pov::FunctionEntry_Struct"** @_ZN3pov16POVFPU_FunctionsE, align 8, !dbg !1426
  %18 = bitcast %"struct.pov::FunctionEntry_Struct"* %17 to i8*, !dbg !1426
  call void @_ZN3pov8pov_freeEPvPKci(i8* %18, i8* getelementptr inbounds ([13 x i8], [13 x i8]* @.str.51, i64 0, i64 0), i32 724), !dbg !1426
  store %"struct.pov::FunctionEntry_Struct"* null, %"struct.pov::FunctionEntry_Struct"** @_ZN3pov16POVFPU_FunctionsE, align 8, !dbg !1426
  store %"struct.pov::FunctionEntry_Struct"* null, %"struct.pov::FunctionEntry_Struct"** @_ZN3pov16POVFPU_FunctionsE, align 8, !dbg !1428
  store i32 0, i32* @_ZN3pov18POVFPU_FunctionCntE, align 4, !dbg !1429
  br label %if.end15, !dbg !1430

if.end15:                                         ; preds = %for.end, %if.end3
  br label %while.cond, !dbg !1431

while.cond:                                       ; preds = %while.body, %if.end15
  %19 = load %"struct.pov::FPUContext_Struct"*, %"struct.pov::FPUContext_Struct"** @_ZN3pov19POVFPU_Context_RootE, align 8, !dbg !1432
  %cmp16 = icmp ne %"struct.pov::FPUContext_Struct"* %19, null, !dbg !1433
  br i1 %cmp16, label %while.body, label %while.end, !dbg !1431

while.body:                                       ; preds = %while.cond
  %20 = load %"struct.pov::FPUContext_Struct"*, %"struct.pov::FPUContext_Struct"** @_ZN3pov19POVFPU_Context_RootE, align 8, !dbg !1434
  %dblstackbase = getelementptr inbounds %"struct.pov::FPUContext_Struct", %"struct.pov::FPUContext_Struct"* %20, i32 0, i32 2, !dbg !1434
  %21 = load double*, double** %dblstackbase, align 8, !dbg !1434
  %22 = bitcast double* %21 to i8*, !dbg !1434
  call void @_ZN3pov8pov_freeEPvPKci(i8* %22, i8* getelementptr inbounds ([13 x i8], [13 x i8]* @.str.51, i64 0, i64 0), i32 731), !dbg !1434
  %23 = load %"struct.pov::FPUContext_Struct"*, %"struct.pov::FPUContext_Struct"** @_ZN3pov19POVFPU_Context_RootE, align 8, !dbg !1434
  %dblstackbase17 = getelementptr inbounds %"struct.pov::FPUContext_Struct", %"struct.pov::FPUContext_Struct"* %23, i32 0, i32 2, !dbg !1434
  store double* null, double** %dblstackbase17, align 8, !dbg !1434
  %24 = load %"struct.pov::FPUContext_Struct"*, %"struct.pov::FPUContext_Struct"** @_ZN3pov19POVFPU_Context_RootE, align 8, !dbg !1437
  %pstackbase = getelementptr inbounds %"struct.pov::FPUContext_Struct", %"struct.pov::FPUContext_Struct"* %24, i32 0, i32 1, !dbg !1437
  %25 = load %"struct.pov::StackFrame_Struct"*, %"struct.pov::StackFrame_Struct"** %pstackbase, align 8, !dbg !1437
  %26 = bitcast %"struct.pov::StackFrame_Struct"* %25 to i8*, !dbg !1437
  call void @_ZN3pov8pov_freeEPvPKci(i8* %26, i8* getelementptr inbounds ([13 x i8], [13 x i8]* @.str.51, i64 0, i64 0), i32 732), !dbg !1437
  %27 = load %"struct.pov::FPUContext_Struct"*, %"struct.pov::FPUContext_Struct"** @_ZN3pov19POVFPU_Context_RootE, align 8, !dbg !1437
  %pstackbase18 = getelementptr inbounds %"struct.pov::FPUContext_Struct", %"struct.pov::FPUContext_Struct"* %27, i32 0, i32 1, !dbg !1437
  store %"struct.pov::StackFrame_Struct"* null, %"struct.pov::StackFrame_Struct"** %pstackbase18, align 8, !dbg !1437
  %28 = load %"struct.pov::FPUContext_Struct"*, %"struct.pov::FPUContext_Struct"** @_ZN3pov19POVFPU_Context_RootE, align 8, !dbg !1439
  store %"struct.pov::FPUContext_Struct"* %28, %"struct.pov::FPUContext_Struct"** @_ZN3pov22POVFPU_Current_ContextE, align 8, !dbg !1440
  %29 = load %"struct.pov::FPUContext_Struct"*, %"struct.pov::FPUContext_Struct"** @_ZN3pov19POVFPU_Context_RootE, align 8, !dbg !1441
  %next = getelementptr inbounds %"struct.pov::FPUContext_Struct", %"struct.pov::FPUContext_Struct"* %29, i32 0, i32 0, !dbg !1442
  %30 = load %"struct.pov::FPUContext_Struct"*, %"struct.pov::FPUContext_Struct"** %next, align 8, !dbg !1442
  store %"struct.pov::FPUContext_Struct"* %30, %"struct.pov::FPUContext_Struct"** @_ZN3pov19POVFPU_Context_RootE, align 8, !dbg !1443
  %31 = load %"struct.pov::FPUContext_Struct"*, %"struct.pov::FPUContext_Struct"** @_ZN3pov22POVFPU_Current_ContextE, align 8, !dbg !1444
  %32 = bitcast %"struct.pov::FPUContext_Struct"* %31 to i8*, !dbg !1444
  call void @_ZN3pov8pov_freeEPvPKci(i8* %32, i8* getelementptr inbounds ([13 x i8], [13 x i8]* @.str.51, i64 0, i64 0), i32 735), !dbg !1444
  store %"struct.pov::FPUContext_Struct"* null, %"struct.pov::FPUContext_Struct"** @_ZN3pov22POVFPU_Current_ContextE, align 8, !dbg !1444
  br label %while.cond, !dbg !1431, !llvm.loop !1446

while.end:                                        ; preds = %while.cond
  %call = call %"struct.pov::FPUContext_Struct"* @_ZN3pov17POVFPU_NewContextEv(), !dbg !1448
  store %"struct.pov::FPUContext_Struct"* %call, %"struct.pov::FPUContext_Struct"** @_ZN3pov22POVFPU_Current_ContextE, align 8, !dbg !1449
  ret void, !dbg !1450
}

declare dso_local void @_ZN3pov8pov_freeEPvPKci(i8*, i8*, i32) #5

declare dso_local void @_ZN3pov13FNCode_DeleteEPNS_12FunctionCodeE(%"struct.pov::FunctionCode"*) #5

; Function Attrs: noinline uwtable
define dso_local void @_ZN3pov15POVFPU_SetLocalEjd(i32 %k, double %v) #4 !dbg !1451 {
entry:
  %k.addr = alloca i32, align 4
  %v.addr = alloca double, align 8
  %ref.tmp = alloca i32, align 4
  %ref.tmp1 = alloca i32, align 4
  store i32 %k, i32* %k.addr, align 4
  call void @llvm.dbg.declare(metadata i32* %k.addr, metadata !1454, metadata !DIExpression()), !dbg !1455
  store double %v, double* %v.addr, align 8
  call void @llvm.dbg.declare(metadata double* %v.addr, metadata !1456, metadata !DIExpression()), !dbg !1457
  %0 = load i32, i32* %k.addr, align 4, !dbg !1458
  %1 = load %"struct.pov::FPUContext_Struct"*, %"struct.pov::FPUContext_Struct"** @_ZN3pov22POVFPU_Current_ContextE, align 8, !dbg !1460
  %maxdblstacksize = getelementptr inbounds %"struct.pov::FPUContext_Struct", %"struct.pov::FPUContext_Struct"* %1, i32 0, i32 3, !dbg !1461
  %2 = load i32, i32* %maxdblstacksize, align 8, !dbg !1461
  %cmp = icmp uge i32 %0, %2, !dbg !1462
  br i1 %cmp, label %if.then, label %if.end, !dbg !1463

if.then:                                          ; preds = %entry
  %3 = load i32, i32* %k.addr, align 4, !dbg !1464
  %add = add i32 %3, 1, !dbg !1466
  store i32 %add, i32* %ref.tmp, align 4, !dbg !1464
  store i32 256, i32* %ref.tmp1, align 4, !dbg !1467
  %call = call dereferenceable(4) i32* @_ZSt3maxIjERKT_S2_S2_(i32* dereferenceable(4) %ref.tmp, i32* dereferenceable(4) %ref.tmp1), !dbg !1468
  %4 = load i32, i32* %call, align 4, !dbg !1468
  %5 = load %"struct.pov::FPUContext_Struct"*, %"struct.pov::FPUContext_Struct"** @_ZN3pov22POVFPU_Current_ContextE, align 8, !dbg !1469
  %maxdblstacksize2 = getelementptr inbounds %"struct.pov::FPUContext_Struct", %"struct.pov::FPUContext_Struct"* %5, i32 0, i32 3, !dbg !1470
  store i32 %4, i32* %maxdblstacksize2, align 8, !dbg !1471
  %6 = load %"struct.pov::FPUContext_Struct"*, %"struct.pov::FPUContext_Struct"** @_ZN3pov22POVFPU_Current_ContextE, align 8, !dbg !1472
  %dblstackbase = getelementptr inbounds %"struct.pov::FPUContext_Struct", %"struct.pov::FPUContext_Struct"* %6, i32 0, i32 2, !dbg !1472
  %7 = load double*, double** %dblstackbase, align 8, !dbg !1472
  %8 = bitcast double* %7 to i8*, !dbg !1472
  %9 = load %"struct.pov::FPUContext_Struct"*, %"struct.pov::FPUContext_Struct"** @_ZN3pov22POVFPU_Current_ContextE, align 8, !dbg !1472
  %maxdblstacksize3 = getelementptr inbounds %"struct.pov::FPUContext_Struct", %"struct.pov::FPUContext_Struct"* %9, i32 0, i32 3, !dbg !1472
  %10 = load i32, i32* %maxdblstacksize3, align 8, !dbg !1472
  %conv = zext i32 %10 to i64, !dbg !1472
  %mul = mul i64 8, %conv, !dbg !1472
  %call4 = call i8* @_ZN3pov11pov_reallocEPvmPKciS2_(i8* %8, i64 %mul, i8* getelementptr inbounds ([13 x i8], [13 x i8]* @.str.51, i64 0, i64 0), i32 781, i8* getelementptr inbounds ([10 x i8], [10 x i8]* @.str.52, i64 0, i64 0)), !dbg !1472
  %11 = bitcast i8* %call4 to double*, !dbg !1473
  %12 = load %"struct.pov::FPUContext_Struct"*, %"struct.pov::FPUContext_Struct"** @_ZN3pov22POVFPU_Current_ContextE, align 8, !dbg !1474
  %dblstackbase5 = getelementptr inbounds %"struct.pov::FPUContext_Struct", %"struct.pov::FPUContext_Struct"* %12, i32 0, i32 2, !dbg !1475
  store double* %11, double** %dblstackbase5, align 8, !dbg !1476
  br label %if.end, !dbg !1477

if.end:                                           ; preds = %if.then, %entry
  %13 = load double, double* %v.addr, align 8, !dbg !1478
  %14 = load %"struct.pov::FPUContext_Struct"*, %"struct.pov::FPUContext_Struct"** @_ZN3pov22POVFPU_Current_ContextE, align 8, !dbg !1479
  %dblstackbase6 = getelementptr inbounds %"struct.pov::FPUContext_Struct", %"struct.pov::FPUContext_Struct"* %14, i32 0, i32 2, !dbg !1480
  %15 = load double*, double** %dblstackbase6, align 8, !dbg !1480
  %16 = load i32, i32* %k.addr, align 4, !dbg !1481
  %idxprom = zext i32 %16 to i64, !dbg !1479
  %arrayidx = getelementptr inbounds double, double* %15, i64 %idxprom, !dbg !1479
  store double %13, double* %arrayidx, align 8, !dbg !1482
  ret void, !dbg !1483
}

; Function Attrs: noinline nounwind uwtable
define linkonce_odr dso_local dereferenceable(4) i32* @_ZSt3maxIjERKT_S2_S2_(i32* dereferenceable(4) %__a, i32* dereferenceable(4) %__b) #2 comdat !dbg !1484 {
entry:
  %retval = alloca i32*, align 8
  %__a.addr = alloca i32*, align 8
  %__b.addr = alloca i32*, align 8
  store i32* %__a, i32** %__a.addr, align 8
  call void @llvm.dbg.declare(metadata i32** %__a.addr, metadata !1491, metadata !DIExpression()), !dbg !1493
  store i32* %__b, i32** %__b.addr, align 8
  call void @llvm.dbg.declare(metadata i32** %__b.addr, metadata !1494, metadata !DIExpression()), !dbg !1495
  %0 = load i32*, i32** %__a.addr, align 8, !dbg !1496
  %1 = load i32, i32* %0, align 4, !dbg !1496
  %2 = load i32*, i32** %__b.addr, align 8, !dbg !1498
  %3 = load i32, i32* %2, align 4, !dbg !1498
  %cmp = icmp ult i32 %1, %3, !dbg !1499
  br i1 %cmp, label %if.then, label %if.end, !dbg !1500

if.then:                                          ; preds = %entry
  %4 = load i32*, i32** %__b.addr, align 8, !dbg !1501
  store i32* %4, i32** %retval, align 8, !dbg !1502
  br label %return, !dbg !1502

if.end:                                           ; preds = %entry
  %5 = load i32*, i32** %__a.addr, align 8, !dbg !1503
  store i32* %5, i32** %retval, align 8, !dbg !1504
  br label %return, !dbg !1504

return:                                           ; preds = %if.end, %if.then
  %6 = load i32*, i32** %retval, align 8, !dbg !1505
  ret i32* %6, !dbg !1505
}

declare dso_local i8* @_ZN3pov11pov_reallocEPvmPKciS2_(i8*, i64, i8*, i32, i8*) #5

; Function Attrs: noinline nounwind uwtable
define dso_local double @_ZN3pov15POVFPU_GetLocalEj(i32 %k) #2 !dbg !1506 {
entry:
  %retval = alloca double, align 8
  %k.addr = alloca i32, align 4
  store i32 %k, i32* %k.addr, align 4
  call void @llvm.dbg.declare(metadata i32* %k.addr, metadata !1509, metadata !DIExpression()), !dbg !1510
  %0 = load i32, i32* %k.addr, align 4, !dbg !1511
  %1 = load %"struct.pov::FPUContext_Struct"*, %"struct.pov::FPUContext_Struct"** @_ZN3pov22POVFPU_Current_ContextE, align 8, !dbg !1513
  %maxdblstacksize = getelementptr inbounds %"struct.pov::FPUContext_Struct", %"struct.pov::FPUContext_Struct"* %1, i32 0, i32 3, !dbg !1514
  %2 = load i32, i32* %maxdblstacksize, align 8, !dbg !1514
  %cmp = icmp uge i32 %0, %2, !dbg !1515
  br i1 %cmp, label %if.then, label %if.end, !dbg !1516

if.then:                                          ; preds = %entry
  store double 0.000000e+00, double* %retval, align 8, !dbg !1517
  br label %return, !dbg !1517

if.end:                                           ; preds = %entry
  %3 = load %"struct.pov::FPUContext_Struct"*, %"struct.pov::FPUContext_Struct"** @_ZN3pov22POVFPU_Current_ContextE, align 8, !dbg !1518
  %dblstackbase = getelementptr inbounds %"struct.pov::FPUContext_Struct", %"struct.pov::FPUContext_Struct"* %3, i32 0, i32 2, !dbg !1519
  %4 = load double*, double** %dblstackbase, align 8, !dbg !1519
  %5 = load i32, i32* %k.addr, align 4, !dbg !1520
  %idxprom = zext i32 %5 to i64, !dbg !1518
  %arrayidx = getelementptr inbounds double, double* %4, i64 %idxprom, !dbg !1518
  %6 = load double, double* %arrayidx, align 8, !dbg !1518
  store double %6, double* %retval, align 8, !dbg !1521
  br label %return, !dbg !1521

return:                                           ; preds = %if.end, %if.then
  %7 = load double, double* %retval, align 8, !dbg !1522
  ret double %7, !dbg !1522
}

; Function Attrs: noinline uwtable
define dso_local void @_ZN3pov16POVFPU_SetGlobalEjd(i32 %k, double %v) #4 !dbg !1523 {
entry:
  %k.addr = alloca i32, align 4
  %v.addr = alloca double, align 8
  store i32 %k, i32* %k.addr, align 4
  call void @llvm.dbg.declare(metadata i32* %k.addr, metadata !1524, metadata !DIExpression()), !dbg !1525
  store double %v, double* %v.addr, align 8
  call void @llvm.dbg.declare(metadata double* %v.addr, metadata !1526, metadata !DIExpression()), !dbg !1527
  %0 = load double*, double** @_ZN3pov14POVFPU_GlobalsE, align 8, !dbg !1528
  %cmp = icmp eq double* %0, null, !dbg !1530
  br i1 %cmp, label %if.then, label %if.else, !dbg !1531

if.then:                                          ; preds = %entry
  %1 = load i32, i32* %k.addr, align 4, !dbg !1532
  %add = add i32 %1, 1, !dbg !1534
  store i32 %add, i32* @_ZN3pov16POVFPU_GlobalCntE, align 4, !dbg !1535
  %2 = load i32, i32* @_ZN3pov16POVFPU_GlobalCntE, align 4, !dbg !1536
  %conv = zext i32 %2 to i64, !dbg !1536
  %mul = mul i64 8, %conv, !dbg !1536
  %call = call i8* @_ZN3pov10pov_mallocEmPKciS1_(i64 %mul, i8* getelementptr inbounds ([13 x i8], [13 x i8]* @.str.51, i64 0, i64 0), i32 865, i8* getelementptr inbounds ([12 x i8], [12 x i8]* @.str.53, i64 0, i64 0)), !dbg !1536
  %3 = bitcast i8* %call to double*, !dbg !1537
  store double* %3, double** @_ZN3pov14POVFPU_GlobalsE, align 8, !dbg !1538
  br label %if.end8, !dbg !1539

if.else:                                          ; preds = %entry
  %4 = load i32, i32* @_ZN3pov16POVFPU_GlobalCntE, align 4, !dbg !1540
  %5 = load i32, i32* %k.addr, align 4, !dbg !1542
  %add1 = add i32 %5, 1, !dbg !1543
  %cmp2 = icmp ult i32 %4, %add1, !dbg !1544
  br i1 %cmp2, label %if.then3, label %if.end, !dbg !1545

if.then3:                                         ; preds = %if.else
  %6 = load i32, i32* %k.addr, align 4, !dbg !1546
  %add4 = add i32 %6, 1, !dbg !1548
  store i32 %add4, i32* @_ZN3pov16POVFPU_GlobalCntE, align 4, !dbg !1549
  %7 = load double*, double** @_ZN3pov14POVFPU_GlobalsE, align 8, !dbg !1550
  %8 = bitcast double* %7 to i8*, !dbg !1550
  %9 = load i32, i32* @_ZN3pov16POVFPU_GlobalCntE, align 4, !dbg !1550
  %conv5 = zext i32 %9 to i64, !dbg !1550
  %mul6 = mul i64 8, %conv5, !dbg !1550
  %call7 = call i8* @_ZN3pov11pov_reallocEPvmPKciS2_(i8* %8, i64 %mul6, i8* getelementptr inbounds ([13 x i8], [13 x i8]* @.str.51, i64 0, i64 0), i32 870, i8* getelementptr inbounds ([12 x i8], [12 x i8]* @.str.53, i64 0, i64 0)), !dbg !1550
  %10 = bitcast i8* %call7 to double*, !dbg !1551
  store double* %10, double** @_ZN3pov14POVFPU_GlobalsE, align 8, !dbg !1552
  br label %if.end, !dbg !1553

if.end:                                           ; preds = %if.then3, %if.else
  br label %if.end8

if.end8:                                          ; preds = %if.end, %if.then
  %11 = load double, double* %v.addr, align 8, !dbg !1554
  %12 = load double*, double** @_ZN3pov14POVFPU_GlobalsE, align 8, !dbg !1555
  %13 = load i32, i32* %k.addr, align 4, !dbg !1556
  %idxprom = zext i32 %13 to i64, !dbg !1555
  %arrayidx = getelementptr inbounds double, double* %12, i64 %idxprom, !dbg !1555
  store double %11, double* %arrayidx, align 8, !dbg !1557
  ret void, !dbg !1558
}

declare dso_local i8* @_ZN3pov10pov_mallocEmPKciS1_(i64, i8*, i32, i8*) #5

; Function Attrs: noinline nounwind uwtable
define dso_local double @_ZN3pov16POVFPU_GetGlobalEj(i32 %k) #2 !dbg !1559 {
entry:
  %retval = alloca double, align 8
  %k.addr = alloca i32, align 4
  store i32 %k, i32* %k.addr, align 4
  call void @llvm.dbg.declare(metadata i32* %k.addr, metadata !1560, metadata !DIExpression()), !dbg !1561
  %0 = load i32, i32* %k.addr, align 4, !dbg !1562
  %1 = load i32, i32* @_ZN3pov16POVFPU_GlobalCntE, align 4, !dbg !1564
  %cmp = icmp uge i32 %0, %1, !dbg !1565
  br i1 %cmp, label %if.then, label %if.end, !dbg !1566

if.then:                                          ; preds = %entry
  store double 0.000000e+00, double* %retval, align 8, !dbg !1567
  br label %return, !dbg !1567

if.end:                                           ; preds = %entry
  %2 = load double*, double** @_ZN3pov14POVFPU_GlobalsE, align 8, !dbg !1568
  %3 = load i32, i32* %k.addr, align 4, !dbg !1569
  %idxprom = zext i32 %3 to i64, !dbg !1568
  %arrayidx = getelementptr inbounds double, double* %2, i64 %idxprom, !dbg !1568
  %4 = load double, double* %arrayidx, align 8, !dbg !1568
  store double %4, double* %retval, align 8, !dbg !1570
  br label %return, !dbg !1570

return:                                           ; preds = %if.end, %if.then
  %5 = load double, double* %retval, align 8, !dbg !1571
  ret double %5, !dbg !1571
}

; Function Attrs: noinline uwtable
define dso_local %"struct.pov::FunctionCode"* @_ZN3pov18POVFPU_GetFunctionEj(i32 %k) #4 !dbg !1572 {
entry:
  %k.addr = alloca i32, align 4
  store i32 %k, i32* %k.addr, align 4
  call void @llvm.dbg.declare(metadata i32* %k.addr, metadata !1576, metadata !DIExpression()), !dbg !1577
  %0 = load i32, i32* %k.addr, align 4, !dbg !1578
  %1 = load i32, i32* @_ZN3pov18POVFPU_FunctionCntE, align 4, !dbg !1580
  %cmp = icmp uge i32 %0, %1, !dbg !1581
  br i1 %cmp, label %if.then, label %if.end, !dbg !1582

if.then:                                          ; preds = %entry
  %call = call i32 (i8*, ...) @_ZN3pov5ErrorEPKcz(i8* getelementptr inbounds ([31 x i8], [31 x i8]* @.str.54, i64 0, i64 0)), !dbg !1583
  br label %if.end, !dbg !1583

if.end:                                           ; preds = %if.then, %entry
  %2 = load %"struct.pov::FunctionEntry_Struct"*, %"struct.pov::FunctionEntry_Struct"** @_ZN3pov16POVFPU_FunctionsE, align 8, !dbg !1584
  %3 = load i32, i32* %k.addr, align 4, !dbg !1585
  %idxprom = zext i32 %3 to i64, !dbg !1584
  %arrayidx = getelementptr inbounds %"struct.pov::FunctionEntry_Struct", %"struct.pov::FunctionEntry_Struct"* %2, i64 %idxprom, !dbg !1584
  %fn = getelementptr inbounds %"struct.pov::FunctionEntry_Struct", %"struct.pov::FunctionEntry_Struct"* %arrayidx, i32 0, i32 0, !dbg !1586
  ret %"struct.pov::FunctionCode"* %fn, !dbg !1587
}

declare dso_local i32 @_ZN3pov5ErrorEPKcz(i8*, ...) #5

; Function Attrs: noinline uwtable
define dso_local %"struct.pov::FunctionCode"* @_ZN3pov30POVFPU_GetFunctionAndReferenceEj(i32 %k) #4 !dbg !1588 {
entry:
  %k.addr = alloca i32, align 4
  store i32 %k, i32* %k.addr, align 4
  call void @llvm.dbg.declare(metadata i32* %k.addr, metadata !1589, metadata !DIExpression()), !dbg !1590
  %0 = load i32, i32* %k.addr, align 4, !dbg !1591
  %1 = load i32, i32* @_ZN3pov18POVFPU_FunctionCntE, align 4, !dbg !1593
  %cmp = icmp uge i32 %0, %1, !dbg !1594
  br i1 %cmp, label %if.then, label %if.end, !dbg !1595

if.then:                                          ; preds = %entry
  %call = call i32 (i8*, ...) @_ZN3pov5ErrorEPKcz(i8* getelementptr inbounds ([31 x i8], [31 x i8]* @.str.54, i64 0, i64 0)), !dbg !1596
  br label %if.end, !dbg !1596

if.end:                                           ; preds = %if.then, %entry
  %2 = load %"struct.pov::FunctionEntry_Struct"*, %"struct.pov::FunctionEntry_Struct"** @_ZN3pov16POVFPU_FunctionsE, align 8, !dbg !1597
  %3 = load i32, i32* %k.addr, align 4, !dbg !1598
  %idxprom = zext i32 %3 to i64, !dbg !1597
  %arrayidx = getelementptr inbounds %"struct.pov::FunctionEntry_Struct", %"struct.pov::FunctionEntry_Struct"* %2, i64 %idxprom, !dbg !1597
  %reference_count = getelementptr inbounds %"struct.pov::FunctionEntry_Struct", %"struct.pov::FunctionEntry_Struct"* %arrayidx, i32 0, i32 1, !dbg !1599
  %4 = load i32, i32* %reference_count, align 8, !dbg !1600
  %inc = add i32 %4, 1, !dbg !1600
  store i32 %inc, i32* %reference_count, align 8, !dbg !1600
  %5 = load %"struct.pov::FunctionEntry_Struct"*, %"struct.pov::FunctionEntry_Struct"** @_ZN3pov16POVFPU_FunctionsE, align 8, !dbg !1601
  %6 = load i32, i32* %k.addr, align 4, !dbg !1602
  %idxprom1 = zext i32 %6 to i64, !dbg !1601
  %arrayidx2 = getelementptr inbounds %"struct.pov::FunctionEntry_Struct", %"struct.pov::FunctionEntry_Struct"* %5, i64 %idxprom1, !dbg !1601
  %fn = getelementptr inbounds %"struct.pov::FunctionEntry_Struct", %"struct.pov::FunctionEntry_Struct"* %arrayidx2, i32 0, i32 0, !dbg !1603
  ret %"struct.pov::FunctionCode"* %fn, !dbg !1604
}

; Function Attrs: noinline uwtable
define dso_local i32 @_ZN3pov18POVFPU_AddFunctionEPNS_12FunctionCodeE(%"struct.pov::FunctionCode"* %f) #4 !dbg !1605 {
entry:
  %retval = alloca i32, align 4
  %f.addr = alloca %"struct.pov::FunctionCode"*, align 8
  %fn = alloca i32, align 4
  store %"struct.pov::FunctionCode"* %f, %"struct.pov::FunctionCode"** %f.addr, align 8
  call void @llvm.dbg.declare(metadata %"struct.pov::FunctionCode"** %f.addr, metadata !1608, metadata !DIExpression()), !dbg !1609
  call void @llvm.dbg.declare(metadata i32* %fn, metadata !1610, metadata !DIExpression()), !dbg !1611
  store i32 0, i32* %fn, align 4, !dbg !1611
  %0 = load %"struct.pov::FunctionEntry_Struct"*, %"struct.pov::FunctionEntry_Struct"** @_ZN3pov16POVFPU_FunctionsE, align 8, !dbg !1612
  %cmp = icmp eq %"struct.pov::FunctionEntry_Struct"* %0, null, !dbg !1614
  br i1 %cmp, label %if.then, label %if.end, !dbg !1615

if.then:                                          ; preds = %entry
  %call = call i8* @_ZN3pov10pov_mallocEmPKciS1_(i64 1208, i8* getelementptr inbounds ([13 x i8], [13 x i8]* @.str.51, i64 0, i64 0), i32 1094, i8* getelementptr inbounds ([18 x i8], [18 x i8]* @.str.57, i64 0, i64 0)), !dbg !1616
  %1 = bitcast i8* %call to %"struct.pov::FunctionEntry_Struct"*, !dbg !1618
  store %"struct.pov::FunctionEntry_Struct"* %1, %"struct.pov::FunctionEntry_Struct"** @_ZN3pov16POVFPU_FunctionsE, align 8, !dbg !1619
  %2 = load %"struct.pov::FunctionCode"*, %"struct.pov::FunctionCode"** %f.addr, align 8, !dbg !1620
  %3 = load %"struct.pov::FunctionEntry_Struct"*, %"struct.pov::FunctionEntry_Struct"** @_ZN3pov16POVFPU_FunctionsE, align 8, !dbg !1621
  %arrayidx = getelementptr inbounds %"struct.pov::FunctionEntry_Struct", %"struct.pov::FunctionEntry_Struct"* %3, i64 0, !dbg !1621
  %fn1 = getelementptr inbounds %"struct.pov::FunctionEntry_Struct", %"struct.pov::FunctionEntry_Struct"* %arrayidx, i32 0, i32 0, !dbg !1622
  %4 = bitcast %"struct.pov::FunctionCode"* %fn1 to i8*, !dbg !1623
  %5 = bitcast %"struct.pov::FunctionCode"* %2 to i8*, !dbg !1623
  call void @llvm.memcpy.p0i8.p0i8.i64(i8* align 8 %4, i8* align 8 %5, i64 1200, i1 false), !dbg !1623
  %6 = load %"struct.pov::FunctionEntry_Struct"*, %"struct.pov::FunctionEntry_Struct"** @_ZN3pov16POVFPU_FunctionsE, align 8, !dbg !1624
  %arrayidx2 = getelementptr inbounds %"struct.pov::FunctionEntry_Struct", %"struct.pov::FunctionEntry_Struct"* %6, i64 0, !dbg !1624
  %reference_count = getelementptr inbounds %"struct.pov::FunctionEntry_Struct", %"struct.pov::FunctionEntry_Struct"* %arrayidx2, i32 0, i32 1, !dbg !1625
  store i32 1, i32* %reference_count, align 8, !dbg !1626
  store i32 1, i32* @_ZN3pov18POVFPU_FunctionCntE, align 4, !dbg !1627
  store i32 0, i32* %retval, align 4, !dbg !1628
  br label %return, !dbg !1628

if.end:                                           ; preds = %entry
  %7 = load i32, i32* @_ZN3pov18POVFPU_FunctionCntE, align 4, !dbg !1629
  %cmp3 = icmp eq i32 %7, 1048575, !dbg !1631
  br i1 %cmp3, label %if.then4, label %if.else, !dbg !1632

if.then4:                                         ; preds = %if.end
  store i32 0, i32* %fn, align 4, !dbg !1633
  br label %for.cond, !dbg !1636

for.cond:                                         ; preds = %for.inc, %if.then4
  %8 = load i32, i32* %fn, align 4, !dbg !1637
  %cmp5 = icmp ult i32 %8, 1048575, !dbg !1639
  br i1 %cmp5, label %for.body, label %for.end, !dbg !1640

for.body:                                         ; preds = %for.cond
  %9 = load %"struct.pov::FunctionEntry_Struct"*, %"struct.pov::FunctionEntry_Struct"** @_ZN3pov16POVFPU_FunctionsE, align 8, !dbg !1641
  %10 = load i32, i32* %fn, align 4, !dbg !1644
  %idxprom = zext i32 %10 to i64, !dbg !1641
  %arrayidx6 = getelementptr inbounds %"struct.pov::FunctionEntry_Struct", %"struct.pov::FunctionEntry_Struct"* %9, i64 %idxprom, !dbg !1641
  %reference_count7 = getelementptr inbounds %"struct.pov::FunctionEntry_Struct", %"struct.pov::FunctionEntry_Struct"* %arrayidx6, i32 0, i32 1, !dbg !1645
  %11 = load i32, i32* %reference_count7, align 8, !dbg !1645
  %cmp8 = icmp eq i32 %11, 0, !dbg !1646
  br i1 %cmp8, label %if.then9, label %if.end10, !dbg !1647

if.then9:                                         ; preds = %for.body
  br label %for.end, !dbg !1648

if.end10:                                         ; preds = %for.body
  br label %for.inc, !dbg !1649

for.inc:                                          ; preds = %if.end10
  %12 = load i32, i32* %fn, align 4, !dbg !1650
  %inc = add i32 %12, 1, !dbg !1650
  store i32 %inc, i32* %fn, align 4, !dbg !1650
  br label %for.cond, !dbg !1651, !llvm.loop !1652

for.end:                                          ; preds = %if.then9, %for.cond
  %13 = load i32, i32* %fn, align 4, !dbg !1654
  %cmp11 = icmp eq i32 %13, 1048575, !dbg !1656
  br i1 %cmp11, label %if.then12, label %if.end14, !dbg !1657

if.then12:                                        ; preds = %for.end
  %call13 = call i32 (i8*, ...) @_ZN3pov5ErrorEPKcz(i8* getelementptr inbounds ([52 x i8], [52 x i8]* @.str.58, i64 0, i64 0), i32 1048575), !dbg !1658
  br label %if.end14, !dbg !1658

if.end14:                                         ; preds = %if.then12, %for.end
  br label %if.end16, !dbg !1659

if.else:                                          ; preds = %if.end
  %14 = load i32, i32* @_ZN3pov18POVFPU_FunctionCntE, align 4, !dbg !1660
  store i32 %14, i32* %fn, align 4, !dbg !1662
  %15 = load i32, i32* @_ZN3pov18POVFPU_FunctionCntE, align 4, !dbg !1663
  %inc15 = add i32 %15, 1, !dbg !1663
  store i32 %inc15, i32* @_ZN3pov18POVFPU_FunctionCntE, align 4, !dbg !1663
  br label %if.end16

if.end16:                                         ; preds = %if.else, %if.end14
  %16 = load %"struct.pov::FunctionEntry_Struct"*, %"struct.pov::FunctionEntry_Struct"** @_ZN3pov16POVFPU_FunctionsE, align 8, !dbg !1664
  %17 = bitcast %"struct.pov::FunctionEntry_Struct"* %16 to i8*, !dbg !1664
  %18 = load i32, i32* @_ZN3pov18POVFPU_FunctionCntE, align 4, !dbg !1664
  %conv = zext i32 %18 to i64, !dbg !1664
  %mul = mul i64 1208, %conv, !dbg !1664
  %call17 = call i8* @_ZN3pov11pov_reallocEPvmPKciS2_(i8* %17, i64 %mul, i8* getelementptr inbounds ([13 x i8], [13 x i8]* @.str.51, i64 0, i64 0), i32 1120, i8* getelementptr inbounds ([18 x i8], [18 x i8]* @.str.57, i64 0, i64 0)), !dbg !1664
  %19 = bitcast i8* %call17 to %"struct.pov::FunctionEntry_Struct"*, !dbg !1665
  store %"struct.pov::FunctionEntry_Struct"* %19, %"struct.pov::FunctionEntry_Struct"** @_ZN3pov16POVFPU_FunctionsE, align 8, !dbg !1666
  %20 = load %"struct.pov::FunctionCode"*, %"struct.pov::FunctionCode"** %f.addr, align 8, !dbg !1667
  %21 = load %"struct.pov::FunctionEntry_Struct"*, %"struct.pov::FunctionEntry_Struct"** @_ZN3pov16POVFPU_FunctionsE, align 8, !dbg !1668
  %22 = load i32, i32* %fn, align 4, !dbg !1669
  %idxprom18 = zext i32 %22 to i64, !dbg !1668
  %arrayidx19 = getelementptr inbounds %"struct.pov::FunctionEntry_Struct", %"struct.pov::FunctionEntry_Struct"* %21, i64 %idxprom18, !dbg !1668
  %fn20 = getelementptr inbounds %"struct.pov::FunctionEntry_Struct", %"struct.pov::FunctionEntry_Struct"* %arrayidx19, i32 0, i32 0, !dbg !1670
  %23 = bitcast %"struct.pov::FunctionCode"* %fn20 to i8*, !dbg !1671
  %24 = bitcast %"struct.pov::FunctionCode"* %20 to i8*, !dbg !1671
  call void @llvm.memcpy.p0i8.p0i8.i64(i8* align 8 %23, i8* align 8 %24, i64 1200, i1 false), !dbg !1671
  %25 = load %"struct.pov::FunctionEntry_Struct"*, %"struct.pov::FunctionEntry_Struct"** @_ZN3pov16POVFPU_FunctionsE, align 8, !dbg !1672
  %26 = load i32, i32* %fn, align 4, !dbg !1673
  %idxprom21 = zext i32 %26 to i64, !dbg !1672
  %arrayidx22 = getelementptr inbounds %"struct.pov::FunctionEntry_Struct", %"struct.pov::FunctionEntry_Struct"* %25, i64 %idxprom21, !dbg !1672
  %reference_count23 = getelementptr inbounds %"struct.pov::FunctionEntry_Struct", %"struct.pov::FunctionEntry_Struct"* %arrayidx22, i32 0, i32 1, !dbg !1674
  store i32 1, i32* %reference_count23, align 8, !dbg !1675
  %27 = load i32, i32* %fn, align 4, !dbg !1676
  store i32 %27, i32* %retval, align 4, !dbg !1677
  br label %return, !dbg !1677

return:                                           ; preds = %if.end16, %if.then
  %28 = load i32, i32* %retval, align 4, !dbg !1678
  ret i32 %28, !dbg !1678
}

; Function Attrs: argmemonly nounwind willreturn
declare void @llvm.memcpy.p0i8.p0i8.i64(i8* noalias nocapture writeonly, i8* noalias nocapture readonly, i64, i1 immarg) #6

; Function Attrs: noinline uwtable
define dso_local void @_ZN3pov21POVFPU_RemoveFunctionEj(i32 %fn) #4 !dbg !1679 {
entry:
  %fn.addr = alloca i32, align 4
  %f = alloca %"struct.pov::FunctionEntry_Struct", align 8
  %i = alloca i32, align 4
  %j = alloca i32, align 4
  store i32 %fn, i32* %fn.addr, align 4
  call void @llvm.dbg.declare(metadata i32* %fn.addr, metadata !1682, metadata !DIExpression()), !dbg !1683
  %0 = load %"struct.pov::FunctionEntry_Struct"*, %"struct.pov::FunctionEntry_Struct"** @_ZN3pov16POVFPU_FunctionsE, align 8, !dbg !1684
  %cmp = icmp eq %"struct.pov::FunctionEntry_Struct"* %0, null, !dbg !1686
  br i1 %cmp, label %if.then, label %lor.lhs.false, !dbg !1687

lor.lhs.false:                                    ; preds = %entry
  %1 = load i32, i32* %fn.addr, align 4, !dbg !1688
  %2 = load i32, i32* @_ZN3pov18POVFPU_FunctionCntE, align 4, !dbg !1689
  %cmp1 = icmp uge i32 %1, %2, !dbg !1690
  br i1 %cmp1, label %if.then, label %if.end, !dbg !1691

if.then:                                          ; preds = %lor.lhs.false, %entry
  br label %if.end47, !dbg !1692

if.end:                                           ; preds = %lor.lhs.false
  %3 = load %"struct.pov::FunctionEntry_Struct"*, %"struct.pov::FunctionEntry_Struct"** @_ZN3pov16POVFPU_FunctionsE, align 8, !dbg !1693
  %4 = load i32, i32* %fn.addr, align 4, !dbg !1695
  %idxprom = zext i32 %4 to i64, !dbg !1693
  %arrayidx = getelementptr inbounds %"struct.pov::FunctionEntry_Struct", %"struct.pov::FunctionEntry_Struct"* %3, i64 %idxprom, !dbg !1693
  %reference_count = getelementptr inbounds %"struct.pov::FunctionEntry_Struct", %"struct.pov::FunctionEntry_Struct"* %arrayidx, i32 0, i32 1, !dbg !1696
  %5 = load i32, i32* %reference_count, align 8, !dbg !1696
  %cmp2 = icmp ugt i32 %5, 0, !dbg !1697
  br i1 %cmp2, label %if.then3, label %if.end47, !dbg !1698

if.then3:                                         ; preds = %if.end
  %6 = load %"struct.pov::FunctionEntry_Struct"*, %"struct.pov::FunctionEntry_Struct"** @_ZN3pov16POVFPU_FunctionsE, align 8, !dbg !1699
  %7 = load i32, i32* %fn.addr, align 4, !dbg !1701
  %idxprom4 = zext i32 %7 to i64, !dbg !1699
  %arrayidx5 = getelementptr inbounds %"struct.pov::FunctionEntry_Struct", %"struct.pov::FunctionEntry_Struct"* %6, i64 %idxprom4, !dbg !1699
  %reference_count6 = getelementptr inbounds %"struct.pov::FunctionEntry_Struct", %"struct.pov::FunctionEntry_Struct"* %arrayidx5, i32 0, i32 1, !dbg !1702
  %8 = load i32, i32* %reference_count6, align 8, !dbg !1703
  %dec = add i32 %8, -1, !dbg !1703
  store i32 %dec, i32* %reference_count6, align 8, !dbg !1703
  %9 = load %"struct.pov::FunctionEntry_Struct"*, %"struct.pov::FunctionEntry_Struct"** @_ZN3pov16POVFPU_FunctionsE, align 8, !dbg !1704
  %10 = load i32, i32* %fn.addr, align 4, !dbg !1706
  %idxprom7 = zext i32 %10 to i64, !dbg !1704
  %arrayidx8 = getelementptr inbounds %"struct.pov::FunctionEntry_Struct", %"struct.pov::FunctionEntry_Struct"* %9, i64 %idxprom7, !dbg !1704
  %reference_count9 = getelementptr inbounds %"struct.pov::FunctionEntry_Struct", %"struct.pov::FunctionEntry_Struct"* %arrayidx8, i32 0, i32 1, !dbg !1707
  %11 = load i32, i32* %reference_count9, align 8, !dbg !1707
  %cmp10 = icmp eq i32 %11, 0, !dbg !1708
  br i1 %cmp10, label %if.then11, label %if.end46, !dbg !1709

if.then11:                                        ; preds = %if.then3
  call void @llvm.dbg.declare(metadata %"struct.pov::FunctionEntry_Struct"* %f, metadata !1710, metadata !DIExpression()), !dbg !1712
  %12 = load %"struct.pov::FunctionEntry_Struct"*, %"struct.pov::FunctionEntry_Struct"** @_ZN3pov16POVFPU_FunctionsE, align 8, !dbg !1713
  %13 = load i32, i32* %fn.addr, align 4, !dbg !1714
  %idxprom12 = zext i32 %13 to i64, !dbg !1713
  %arrayidx13 = getelementptr inbounds %"struct.pov::FunctionEntry_Struct", %"struct.pov::FunctionEntry_Struct"* %12, i64 %idxprom12, !dbg !1713
  %14 = bitcast %"struct.pov::FunctionEntry_Struct"* %f to i8*, !dbg !1713
  %15 = bitcast %"struct.pov::FunctionEntry_Struct"* %arrayidx13 to i8*, !dbg !1713
  call void @llvm.memcpy.p0i8.p0i8.i64(i8* align 8 %14, i8* align 8 %15, i64 1208, i1 false), !dbg !1713
  call void @llvm.dbg.declare(metadata i32* %i, metadata !1715, metadata !DIExpression()), !dbg !1716
  store i32 0, i32* %i, align 4, !dbg !1716
  call void @llvm.dbg.declare(metadata i32* %j, metadata !1717, metadata !DIExpression()), !dbg !1718
  store i32 0, i32* %j, align 4, !dbg !1718
  store i32 0, i32* %i, align 4, !dbg !1719
  br label %for.cond, !dbg !1721

for.cond:                                         ; preds = %for.inc, %if.then11
  %16 = load i32, i32* %i, align 4, !dbg !1722
  %fn14 = getelementptr inbounds %"struct.pov::FunctionEntry_Struct", %"struct.pov::FunctionEntry_Struct"* %f, i32 0, i32 0, !dbg !1724
  %program_size = getelementptr inbounds %"struct.pov::FunctionCode", %"struct.pov::FunctionCode"* %fn14, i32 0, i32 1, !dbg !1725
  %17 = load i32, i32* %program_size, align 8, !dbg !1725
  %cmp15 = icmp ult i32 %16, %17, !dbg !1726
  br i1 %cmp15, label %for.body, label %for.end, !dbg !1727

for.body:                                         ; preds = %for.cond
  %fn16 = getelementptr inbounds %"struct.pov::FunctionEntry_Struct", %"struct.pov::FunctionEntry_Struct"* %f, i32 0, i32 0, !dbg !1728
  %program = getelementptr inbounds %"struct.pov::FunctionCode", %"struct.pov::FunctionCode"* %fn16, i32 0, i32 0, !dbg !1728
  %18 = load i32*, i32** %program, align 8, !dbg !1728
  %19 = load i32, i32* %i, align 4, !dbg !1728
  %idxprom17 = zext i32 %19 to i64, !dbg !1728
  %arrayidx18 = getelementptr inbounds i32, i32* %18, i64 %idxprom17, !dbg !1728
  %20 = load i32, i32* %arrayidx18, align 4, !dbg !1728
  %and = and i32 %20, 4095, !dbg !1728
  %cmp19 = icmp eq i32 %and, 963, !dbg !1731
  br i1 %cmp19, label %if.then20, label %if.end26, !dbg !1732

if.then20:                                        ; preds = %for.body
  %fn21 = getelementptr inbounds %"struct.pov::FunctionEntry_Struct", %"struct.pov::FunctionEntry_Struct"* %f, i32 0, i32 0, !dbg !1733
  %program22 = getelementptr inbounds %"struct.pov::FunctionCode", %"struct.pov::FunctionCode"* %fn21, i32 0, i32 0, !dbg !1733
  %21 = load i32*, i32** %program22, align 8, !dbg !1733
  %22 = load i32, i32* %i, align 4, !dbg !1733
  %idxprom23 = zext i32 %22 to i64, !dbg !1733
  %arrayidx24 = getelementptr inbounds i32, i32* %21, i64 %idxprom23, !dbg !1733
  %23 = load i32, i32* %arrayidx24, align 4, !dbg !1733
  %shr = lshr i32 %23, 12, !dbg !1733
  %and25 = and i32 %shr, 1048575, !dbg !1733
  call void @_ZN3pov21POVFPU_RemoveFunctionEj(i32 %and25), !dbg !1734
  br label %if.end26, !dbg !1734

if.end26:                                         ; preds = %if.then20, %for.body
  br label %for.inc, !dbg !1735

for.inc:                                          ; preds = %if.end26
  %24 = load i32, i32* %i, align 4, !dbg !1736
  %inc = add i32 %24, 1, !dbg !1736
  store i32 %inc, i32* %i, align 4, !dbg !1736
  br label %for.cond, !dbg !1737, !llvm.loop !1738

for.end:                                          ; preds = %for.cond
  %fn27 = getelementptr inbounds %"struct.pov::FunctionEntry_Struct", %"struct.pov::FunctionEntry_Struct"* %f, i32 0, i32 0, !dbg !1740
  call void @_ZN3pov13FNCode_DeleteEPNS_12FunctionCodeE(%"struct.pov::FunctionCode"* %fn27), !dbg !1741
  %25 = load i32, i32* @_ZN3pov18POVFPU_FunctionCntE, align 4, !dbg !1742
  %cmp28 = icmp eq i32 %25, 0, !dbg !1744
  br i1 %cmp28, label %if.then29, label %if.end30, !dbg !1745

if.then29:                                        ; preds = %for.end
  br label %if.end47, !dbg !1746

if.end30:                                         ; preds = %for.end
  %26 = load i32, i32* @_ZN3pov18POVFPU_FunctionCntE, align 4, !dbg !1747
  %sub = sub i32 %26, 1, !dbg !1749
  store i32 %sub, i32* %j, align 4, !dbg !1750
  br label %for.cond31, !dbg !1751

for.cond31:                                       ; preds = %for.inc39, %if.end30
  %27 = load i32, i32* %j, align 4, !dbg !1752
  %cmp32 = icmp sge i32 %27, 0, !dbg !1754
  br i1 %cmp32, label %for.body33, label %for.end42, !dbg !1755

for.body33:                                       ; preds = %for.cond31
  %28 = load %"struct.pov::FunctionEntry_Struct"*, %"struct.pov::FunctionEntry_Struct"** @_ZN3pov16POVFPU_FunctionsE, align 8, !dbg !1756
  %29 = load i32, i32* %j, align 4, !dbg !1758
  %idxprom34 = sext i32 %29 to i64, !dbg !1756
  %arrayidx35 = getelementptr inbounds %"struct.pov::FunctionEntry_Struct", %"struct.pov::FunctionEntry_Struct"* %28, i64 %idxprom34, !dbg !1756
  %reference_count36 = getelementptr inbounds %"struct.pov::FunctionEntry_Struct", %"struct.pov::FunctionEntry_Struct"* %arrayidx35, i32 0, i32 1, !dbg !1759
  %30 = load i32, i32* %reference_count36, align 8, !dbg !1759
  %tobool = icmp ne i32 %30, 0, !dbg !1756
  br i1 %tobool, label %if.then37, label %if.end38, !dbg !1760

if.then37:                                        ; preds = %for.body33
  br label %for.end42, !dbg !1761

if.end38:                                         ; preds = %for.body33
  br label %for.inc39, !dbg !1759

for.inc39:                                        ; preds = %if.end38
  %31 = load i32, i32* %j, align 4, !dbg !1762
  %dec40 = add nsw i32 %31, -1, !dbg !1762
  store i32 %dec40, i32* %j, align 4, !dbg !1762
  %32 = load i32, i32* @_ZN3pov18POVFPU_FunctionCntE, align 4, !dbg !1763
  %dec41 = add i32 %32, -1, !dbg !1763
  store i32 %dec41, i32* @_ZN3pov18POVFPU_FunctionCntE, align 4, !dbg !1763
  br label %for.cond31, !dbg !1764, !llvm.loop !1765

for.end42:                                        ; preds = %if.then37, %for.cond31
  %33 = load i32, i32* @_ZN3pov18POVFPU_FunctionCntE, align 4, !dbg !1767
  %cmp43 = icmp eq i32 %33, 0, !dbg !1769
  br i1 %cmp43, label %if.then44, label %if.else, !dbg !1770

if.then44:                                        ; preds = %for.end42
  %34 = load %"struct.pov::FunctionEntry_Struct"*, %"struct.pov::FunctionEntry_Struct"** @_ZN3pov16POVFPU_FunctionsE, align 8, !dbg !1771
  %35 = bitcast %"struct.pov::FunctionEntry_Struct"* %34 to i8*, !dbg !1771
  call void @_ZN3pov8pov_freeEPvPKci(i8* %35, i8* getelementptr inbounds ([13 x i8], [13 x i8]* @.str.51, i64 0, i64 0), i32 1203), !dbg !1771
  store %"struct.pov::FunctionEntry_Struct"* null, %"struct.pov::FunctionEntry_Struct"** @_ZN3pov16POVFPU_FunctionsE, align 8, !dbg !1771
  store %"struct.pov::FunctionEntry_Struct"* null, %"struct.pov::FunctionEntry_Struct"** @_ZN3pov16POVFPU_FunctionsE, align 8, !dbg !1774
  br label %if.end45, !dbg !1775

if.else:                                          ; preds = %for.end42
  %36 = load %"struct.pov::FunctionEntry_Struct"*, %"struct.pov::FunctionEntry_Struct"** @_ZN3pov16POVFPU_FunctionsE, align 8, !dbg !1776
  %37 = bitcast %"struct.pov::FunctionEntry_Struct"* %36 to i8*, !dbg !1776
  %38 = load i32, i32* @_ZN3pov18POVFPU_FunctionCntE, align 4, !dbg !1776
  %conv = zext i32 %38 to i64, !dbg !1776
  %mul = mul i64 1208, %conv, !dbg !1776
  %call = call i8* @_ZN3pov11pov_reallocEPvmPKciS2_(i8* %37, i64 %mul, i8* getelementptr inbounds ([13 x i8], [13 x i8]* @.str.51, i64 0, i64 0), i32 1207, i8* getelementptr inbounds ([18 x i8], [18 x i8]* @.str.57, i64 0, i64 0)), !dbg !1776
  %39 = bitcast i8* %call to %"struct.pov::FunctionEntry_Struct"*, !dbg !1777
  store %"struct.pov::FunctionEntry_Struct"* %39, %"struct.pov::FunctionEntry_Struct"** @_ZN3pov16POVFPU_FunctionsE, align 8, !dbg !1778
  br label %if.end45

if.end45:                                         ; preds = %if.else, %if.then44
  br label %if.end46, !dbg !1779

if.end46:                                         ; preds = %if.end45, %if.then3
  br label %if.end47, !dbg !1780

if.end47:                                         ; preds = %if.then, %if.then29, %if.end46, %if.end
  ret void, !dbg !1781
}

; Function Attrs: noinline uwtable
define dso_local void @_ZN3pov16POVFPU_ExceptionEjPKc(i32 %fn, i8* %msg) #4 !dbg !1782 {
entry:
  %fn.addr = alloca i32, align 4
  %msg.addr = alloca i8*, align 8
  store i32 %fn, i32* %fn.addr, align 4
  call void @llvm.dbg.declare(metadata i32* %fn.addr, metadata !1785, metadata !DIExpression()), !dbg !1786
  store i8* %msg, i8** %msg.addr, align 8
  call void @llvm.dbg.declare(metadata i8** %msg.addr, metadata !1787, metadata !DIExpression()), !dbg !1788
  %0 = load %"struct.pov::FunctionEntry_Struct"*, %"struct.pov::FunctionEntry_Struct"** @_ZN3pov16POVFPU_FunctionsE, align 8, !dbg !1789
  %1 = load i32, i32* %fn.addr, align 4, !dbg !1791
  %idxprom = zext i32 %1 to i64, !dbg !1789
  %arrayidx = getelementptr inbounds %"struct.pov::FunctionEntry_Struct", %"struct.pov::FunctionEntry_Struct"* %0, i64 %idxprom, !dbg !1789
  %fn1 = getelementptr inbounds %"struct.pov::FunctionEntry_Struct", %"struct.pov::FunctionEntry_Struct"* %arrayidx, i32 0, i32 0, !dbg !1792
  %name = getelementptr inbounds %"struct.pov::FunctionCode", %"struct.pov::FunctionCode"* %fn1, i32 0, i32 8, !dbg !1793
  %2 = load i8*, i8** %name, align 8, !dbg !1793
  %cmp = icmp ne i8* %2, null, !dbg !1794
  br i1 %cmp, label %if.then, label %if.else38, !dbg !1795

if.then:                                          ; preds = %entry
  %3 = load i8*, i8** %msg.addr, align 8, !dbg !1796
  %cmp2 = icmp ne i8* %3, null, !dbg !1799
  br i1 %cmp2, label %if.then3, label %if.else, !dbg !1800

if.then3:                                         ; preds = %if.then
  %4 = load %"struct.pov::FunctionEntry_Struct"*, %"struct.pov::FunctionEntry_Struct"** @_ZN3pov16POVFPU_FunctionsE, align 8, !dbg !1801
  %5 = load i32, i32* %fn.addr, align 4, !dbg !1802
  %idxprom4 = zext i32 %5 to i64, !dbg !1801
  %arrayidx5 = getelementptr inbounds %"struct.pov::FunctionEntry_Struct", %"struct.pov::FunctionEntry_Struct"* %4, i64 %idxprom4, !dbg !1801
  %fn6 = getelementptr inbounds %"struct.pov::FunctionEntry_Struct", %"struct.pov::FunctionEntry_Struct"* %arrayidx5, i32 0, i32 0, !dbg !1803
  %filename = getelementptr inbounds %"struct.pov::FunctionCode", %"struct.pov::FunctionCode"* %fn6, i32 0, i32 9, !dbg !1804
  %6 = load i8*, i8** %filename, align 8, !dbg !1804
  %7 = load %"struct.pov::FunctionEntry_Struct"*, %"struct.pov::FunctionEntry_Struct"** @_ZN3pov16POVFPU_FunctionsE, align 8, !dbg !1805
  %8 = load i32, i32* %fn.addr, align 4, !dbg !1806
  %idxprom7 = zext i32 %8 to i64, !dbg !1805
  %arrayidx8 = getelementptr inbounds %"struct.pov::FunctionEntry_Struct", %"struct.pov::FunctionEntry_Struct"* %7, i64 %idxprom7, !dbg !1805
  %fn9 = getelementptr inbounds %"struct.pov::FunctionEntry_Struct", %"struct.pov::FunctionEntry_Struct"* %arrayidx8, i32 0, i32 0, !dbg !1807
  %filepos = getelementptr inbounds %"struct.pov::FunctionCode", %"struct.pov::FunctionCode"* %fn9, i32 0, i32 10, !dbg !1808
  %lineno = getelementptr inbounds %"struct.pov_base::ITextStream::FilePos", %"struct.pov_base::ITextStream::FilePos"* %filepos, i32 0, i32 1, !dbg !1809
  %9 = load i32, i32* %lineno, align 8, !dbg !1809
  %conv = sext i32 %9 to i64, !dbg !1805
  %10 = load %"struct.pov::FunctionEntry_Struct"*, %"struct.pov::FunctionEntry_Struct"** @_ZN3pov16POVFPU_FunctionsE, align 8, !dbg !1810
  %11 = load i32, i32* %fn.addr, align 4, !dbg !1811
  %idxprom10 = zext i32 %11 to i64, !dbg !1810
  %arrayidx11 = getelementptr inbounds %"struct.pov::FunctionEntry_Struct", %"struct.pov::FunctionEntry_Struct"* %10, i64 %idxprom10, !dbg !1810
  %fn12 = getelementptr inbounds %"struct.pov::FunctionEntry_Struct", %"struct.pov::FunctionEntry_Struct"* %arrayidx11, i32 0, i32 0, !dbg !1812
  %filepos13 = getelementptr inbounds %"struct.pov::FunctionCode", %"struct.pov::FunctionCode"* %fn12, i32 0, i32 10, !dbg !1813
  %offset = getelementptr inbounds %"struct.pov_base::ITextStream::FilePos", %"struct.pov_base::ITextStream::FilePos"* %filepos13, i32 0, i32 0, !dbg !1814
  %12 = load i64, i64* %offset, align 8, !dbg !1814
  %13 = load %"struct.pov::FunctionEntry_Struct"*, %"struct.pov::FunctionEntry_Struct"** @_ZN3pov16POVFPU_FunctionsE, align 8, !dbg !1815
  %14 = load i32, i32* %fn.addr, align 4, !dbg !1816
  %idxprom14 = zext i32 %14 to i64, !dbg !1815
  %arrayidx15 = getelementptr inbounds %"struct.pov::FunctionEntry_Struct", %"struct.pov::FunctionEntry_Struct"* %13, i64 %idxprom14, !dbg !1815
  %fn16 = getelementptr inbounds %"struct.pov::FunctionEntry_Struct", %"struct.pov::FunctionEntry_Struct"* %arrayidx15, i32 0, i32 0, !dbg !1817
  %name17 = getelementptr inbounds %"struct.pov::FunctionCode", %"struct.pov::FunctionCode"* %fn16, i32 0, i32 8, !dbg !1818
  %15 = load i8*, i8** %name17, align 8, !dbg !1818
  %16 = load i8*, i8** %msg.addr, align 8, !dbg !1819
  %call = call i32 (i8*, i64, i64, i8*, ...) @_ZN3pov7ErrorAtEPKclmS1_z(i8* %6, i64 %conv, i64 %12, i8* getelementptr inbounds ([44 x i8], [44 x i8]* @.str.59, i64 0, i64 0), i8* %15, i8* %16), !dbg !1820
  br label %if.end, !dbg !1820

if.else:                                          ; preds = %if.then
  %17 = load %"struct.pov::FunctionEntry_Struct"*, %"struct.pov::FunctionEntry_Struct"** @_ZN3pov16POVFPU_FunctionsE, align 8, !dbg !1821
  %18 = load i32, i32* %fn.addr, align 4, !dbg !1822
  %idxprom18 = zext i32 %18 to i64, !dbg !1821
  %arrayidx19 = getelementptr inbounds %"struct.pov::FunctionEntry_Struct", %"struct.pov::FunctionEntry_Struct"* %17, i64 %idxprom18, !dbg !1821
  %fn20 = getelementptr inbounds %"struct.pov::FunctionEntry_Struct", %"struct.pov::FunctionEntry_Struct"* %arrayidx19, i32 0, i32 0, !dbg !1823
  %filename21 = getelementptr inbounds %"struct.pov::FunctionCode", %"struct.pov::FunctionCode"* %fn20, i32 0, i32 9, !dbg !1824
  %19 = load i8*, i8** %filename21, align 8, !dbg !1824
  %20 = load %"struct.pov::FunctionEntry_Struct"*, %"struct.pov::FunctionEntry_Struct"** @_ZN3pov16POVFPU_FunctionsE, align 8, !dbg !1825
  %21 = load i32, i32* %fn.addr, align 4, !dbg !1826
  %idxprom22 = zext i32 %21 to i64, !dbg !1825
  %arrayidx23 = getelementptr inbounds %"struct.pov::FunctionEntry_Struct", %"struct.pov::FunctionEntry_Struct"* %20, i64 %idxprom22, !dbg !1825
  %fn24 = getelementptr inbounds %"struct.pov::FunctionEntry_Struct", %"struct.pov::FunctionEntry_Struct"* %arrayidx23, i32 0, i32 0, !dbg !1827
  %filepos25 = getelementptr inbounds %"struct.pov::FunctionCode", %"struct.pov::FunctionCode"* %fn24, i32 0, i32 10, !dbg !1828
  %lineno26 = getelementptr inbounds %"struct.pov_base::ITextStream::FilePos", %"struct.pov_base::ITextStream::FilePos"* %filepos25, i32 0, i32 1, !dbg !1829
  %22 = load i32, i32* %lineno26, align 8, !dbg !1829
  %conv27 = sext i32 %22 to i64, !dbg !1825
  %23 = load %"struct.pov::FunctionEntry_Struct"*, %"struct.pov::FunctionEntry_Struct"** @_ZN3pov16POVFPU_FunctionsE, align 8, !dbg !1830
  %24 = load i32, i32* %fn.addr, align 4, !dbg !1831
  %idxprom28 = zext i32 %24 to i64, !dbg !1830
  %arrayidx29 = getelementptr inbounds %"struct.pov::FunctionEntry_Struct", %"struct.pov::FunctionEntry_Struct"* %23, i64 %idxprom28, !dbg !1830
  %fn30 = getelementptr inbounds %"struct.pov::FunctionEntry_Struct", %"struct.pov::FunctionEntry_Struct"* %arrayidx29, i32 0, i32 0, !dbg !1832
  %filepos31 = getelementptr inbounds %"struct.pov::FunctionCode", %"struct.pov::FunctionCode"* %fn30, i32 0, i32 10, !dbg !1833
  %offset32 = getelementptr inbounds %"struct.pov_base::ITextStream::FilePos", %"struct.pov_base::ITextStream::FilePos"* %filepos31, i32 0, i32 0, !dbg !1834
  %25 = load i64, i64* %offset32, align 8, !dbg !1834
  %26 = load %"struct.pov::FunctionEntry_Struct"*, %"struct.pov::FunctionEntry_Struct"** @_ZN3pov16POVFPU_FunctionsE, align 8, !dbg !1835
  %27 = load i32, i32* %fn.addr, align 4, !dbg !1836
  %idxprom33 = zext i32 %27 to i64, !dbg !1835
  %arrayidx34 = getelementptr inbounds %"struct.pov::FunctionEntry_Struct", %"struct.pov::FunctionEntry_Struct"* %26, i64 %idxprom33, !dbg !1835
  %fn35 = getelementptr inbounds %"struct.pov::FunctionEntry_Struct", %"struct.pov::FunctionEntry_Struct"* %arrayidx34, i32 0, i32 0, !dbg !1837
  %name36 = getelementptr inbounds %"struct.pov::FunctionCode", %"struct.pov::FunctionCode"* %fn35, i32 0, i32 8, !dbg !1838
  %28 = load i8*, i8** %name36, align 8, !dbg !1838
  %call37 = call i32 (i8*, i64, i64, i8*, ...) @_ZN3pov7ErrorAtEPKclmS1_z(i8* %19, i64 %conv27, i64 %25, i8* getelementptr inbounds ([194 x i8], [194 x i8]* @.str.60, i64 0, i64 0), i8* %28), !dbg !1839
  br label %if.end

if.end:                                           ; preds = %if.else, %if.then3
  br label %if.end75, !dbg !1840

if.else38:                                        ; preds = %entry
  %29 = load i8*, i8** %msg.addr, align 8, !dbg !1841
  %cmp39 = icmp ne i8* %29, null, !dbg !1844
  br i1 %cmp39, label %if.then40, label %if.else57, !dbg !1845

if.then40:                                        ; preds = %if.else38
  %30 = load %"struct.pov::FunctionEntry_Struct"*, %"struct.pov::FunctionEntry_Struct"** @_ZN3pov16POVFPU_FunctionsE, align 8, !dbg !1846
  %31 = load i32, i32* %fn.addr, align 4, !dbg !1847
  %idxprom41 = zext i32 %31 to i64, !dbg !1846
  %arrayidx42 = getelementptr inbounds %"struct.pov::FunctionEntry_Struct", %"struct.pov::FunctionEntry_Struct"* %30, i64 %idxprom41, !dbg !1846
  %fn43 = getelementptr inbounds %"struct.pov::FunctionEntry_Struct", %"struct.pov::FunctionEntry_Struct"* %arrayidx42, i32 0, i32 0, !dbg !1848
  %filename44 = getelementptr inbounds %"struct.pov::FunctionCode", %"struct.pov::FunctionCode"* %fn43, i32 0, i32 9, !dbg !1849
  %32 = load i8*, i8** %filename44, align 8, !dbg !1849
  %33 = load %"struct.pov::FunctionEntry_Struct"*, %"struct.pov::FunctionEntry_Struct"** @_ZN3pov16POVFPU_FunctionsE, align 8, !dbg !1850
  %34 = load i32, i32* %fn.addr, align 4, !dbg !1851
  %idxprom45 = zext i32 %34 to i64, !dbg !1850
  %arrayidx46 = getelementptr inbounds %"struct.pov::FunctionEntry_Struct", %"struct.pov::FunctionEntry_Struct"* %33, i64 %idxprom45, !dbg !1850
  %fn47 = getelementptr inbounds %"struct.pov::FunctionEntry_Struct", %"struct.pov::FunctionEntry_Struct"* %arrayidx46, i32 0, i32 0, !dbg !1852
  %filepos48 = getelementptr inbounds %"struct.pov::FunctionCode", %"struct.pov::FunctionCode"* %fn47, i32 0, i32 10, !dbg !1853
  %lineno49 = getelementptr inbounds %"struct.pov_base::ITextStream::FilePos", %"struct.pov_base::ITextStream::FilePos"* %filepos48, i32 0, i32 1, !dbg !1854
  %35 = load i32, i32* %lineno49, align 8, !dbg !1854
  %conv50 = sext i32 %35 to i64, !dbg !1850
  %36 = load %"struct.pov::FunctionEntry_Struct"*, %"struct.pov::FunctionEntry_Struct"** @_ZN3pov16POVFPU_FunctionsE, align 8, !dbg !1855
  %37 = load i32, i32* %fn.addr, align 4, !dbg !1856
  %idxprom51 = zext i32 %37 to i64, !dbg !1855
  %arrayidx52 = getelementptr inbounds %"struct.pov::FunctionEntry_Struct", %"struct.pov::FunctionEntry_Struct"* %36, i64 %idxprom51, !dbg !1855
  %fn53 = getelementptr inbounds %"struct.pov::FunctionEntry_Struct", %"struct.pov::FunctionEntry_Struct"* %arrayidx52, i32 0, i32 0, !dbg !1857
  %filepos54 = getelementptr inbounds %"struct.pov::FunctionCode", %"struct.pov::FunctionCode"* %fn53, i32 0, i32 10, !dbg !1858
  %offset55 = getelementptr inbounds %"struct.pov_base::ITextStream::FilePos", %"struct.pov_base::ITextStream::FilePos"* %filepos54, i32 0, i32 0, !dbg !1859
  %38 = load i64, i64* %offset55, align 8, !dbg !1859
  %39 = load i8*, i8** %msg.addr, align 8, !dbg !1860
  %call56 = call i32 (i8*, i64, i64, i8*, ...) @_ZN3pov7ErrorAtEPKclmS1_z(i8* %32, i64 %conv50, i64 %38, i8* getelementptr inbounds ([39 x i8], [39 x i8]* @.str.61, i64 0, i64 0), i8* %39), !dbg !1861
  br label %if.end74, !dbg !1861

if.else57:                                        ; preds = %if.else38
  %40 = load %"struct.pov::FunctionEntry_Struct"*, %"struct.pov::FunctionEntry_Struct"** @_ZN3pov16POVFPU_FunctionsE, align 8, !dbg !1862
  %41 = load i32, i32* %fn.addr, align 4, !dbg !1863
  %idxprom58 = zext i32 %41 to i64, !dbg !1862
  %arrayidx59 = getelementptr inbounds %"struct.pov::FunctionEntry_Struct", %"struct.pov::FunctionEntry_Struct"* %40, i64 %idxprom58, !dbg !1862
  %fn60 = getelementptr inbounds %"struct.pov::FunctionEntry_Struct", %"struct.pov::FunctionEntry_Struct"* %arrayidx59, i32 0, i32 0, !dbg !1864
  %filename61 = getelementptr inbounds %"struct.pov::FunctionCode", %"struct.pov::FunctionCode"* %fn60, i32 0, i32 9, !dbg !1865
  %42 = load i8*, i8** %filename61, align 8, !dbg !1865
  %43 = load %"struct.pov::FunctionEntry_Struct"*, %"struct.pov::FunctionEntry_Struct"** @_ZN3pov16POVFPU_FunctionsE, align 8, !dbg !1866
  %44 = load i32, i32* %fn.addr, align 4, !dbg !1867
  %idxprom62 = zext i32 %44 to i64, !dbg !1866
  %arrayidx63 = getelementptr inbounds %"struct.pov::FunctionEntry_Struct", %"struct.pov::FunctionEntry_Struct"* %43, i64 %idxprom62, !dbg !1866
  %fn64 = getelementptr inbounds %"struct.pov::FunctionEntry_Struct", %"struct.pov::FunctionEntry_Struct"* %arrayidx63, i32 0, i32 0, !dbg !1868
  %filepos65 = getelementptr inbounds %"struct.pov::FunctionCode", %"struct.pov::FunctionCode"* %fn64, i32 0, i32 10, !dbg !1869
  %lineno66 = getelementptr inbounds %"struct.pov_base::ITextStream::FilePos", %"struct.pov_base::ITextStream::FilePos"* %filepos65, i32 0, i32 1, !dbg !1870
  %45 = load i32, i32* %lineno66, align 8, !dbg !1870
  %conv67 = sext i32 %45 to i64, !dbg !1866
  %46 = load %"struct.pov::FunctionEntry_Struct"*, %"struct.pov::FunctionEntry_Struct"** @_ZN3pov16POVFPU_FunctionsE, align 8, !dbg !1871
  %47 = load i32, i32* %fn.addr, align 4, !dbg !1872
  %idxprom68 = zext i32 %47 to i64, !dbg !1871
  %arrayidx69 = getelementptr inbounds %"struct.pov::FunctionEntry_Struct", %"struct.pov::FunctionEntry_Struct"* %46, i64 %idxprom68, !dbg !1871
  %fn70 = getelementptr inbounds %"struct.pov::FunctionEntry_Struct", %"struct.pov::FunctionEntry_Struct"* %arrayidx69, i32 0, i32 0, !dbg !1873
  %filepos71 = getelementptr inbounds %"struct.pov::FunctionCode", %"struct.pov::FunctionCode"* %fn70, i32 0, i32 10, !dbg !1874
  %offset72 = getelementptr inbounds %"struct.pov_base::ITextStream::FilePos", %"struct.pov_base::ITextStream::FilePos"* %filepos71, i32 0, i32 0, !dbg !1875
  %48 = load i64, i64* %offset72, align 8, !dbg !1875
  %call73 = call i32 (i8*, i64, i64, i8*, ...) @_ZN3pov7ErrorAtEPKclmS1_z(i8* %42, i64 %conv67, i64 %48, i8* getelementptr inbounds ([197 x i8], [197 x i8]* @.str.62, i64 0, i64 0)), !dbg !1876
  br label %if.end74

if.end74:                                         ; preds = %if.else57, %if.then40
  br label %if.end75

if.end75:                                         ; preds = %if.end74, %if.end
  ret void, !dbg !1877
}

declare dso_local i32 @_ZN3pov7ErrorAtEPKclmS1_z(i8*, i64, i64, i8*, ...) #5

; Function Attrs: noinline nounwind uwtable
define dso_local %"struct.pov::FPUContext_Struct"* @_ZN3pov20POVFPU_SwitchContextEPNS_17FPUContext_StructE(%"struct.pov::FPUContext_Struct"* %context) #2 !dbg !1878 {
entry:
  %context.addr = alloca %"struct.pov::FPUContext_Struct"*, align 8
  %previous = alloca %"struct.pov::FPUContext_Struct"*, align 8
  store %"struct.pov::FPUContext_Struct"* %context, %"struct.pov::FPUContext_Struct"** %context.addr, align 8
  call void @llvm.dbg.declare(metadata %"struct.pov::FPUContext_Struct"** %context.addr, metadata !1881, metadata !DIExpression()), !dbg !1882
  call void @llvm.dbg.declare(metadata %"struct.pov::FPUContext_Struct"** %previous, metadata !1883, metadata !DIExpression()), !dbg !1884
  %0 = load %"struct.pov::FPUContext_Struct"*, %"struct.pov::FPUContext_Struct"** @_ZN3pov22POVFPU_Current_ContextE, align 8, !dbg !1885
  store %"struct.pov::FPUContext_Struct"* %0, %"struct.pov::FPUContext_Struct"** %previous, align 8, !dbg !1884
  %1 = load %"struct.pov::FPUContext_Struct"*, %"struct.pov::FPUContext_Struct"** %context.addr, align 8, !dbg !1886
  store %"struct.pov::FPUContext_Struct"* %1, %"struct.pov::FPUContext_Struct"** @_ZN3pov22POVFPU_Current_ContextE, align 8, !dbg !1887
  %2 = load %"struct.pov::FPUContext_Struct"*, %"struct.pov::FPUContext_Struct"** %previous, align 8, !dbg !1888
  ret %"struct.pov::FPUContext_Struct"* %2, !dbg !1889
}

; Function Attrs: noinline uwtable
define dso_local double @_ZN3pov17POVFPU_RunDefaultEj(i32 %fn) #4 !dbg !1890 {
entry:
  %fn.addr = alloca i32, align 4
  %pstack = alloca %"struct.pov::StackFrame_Struct"*, align 8
  %dblstack = alloca double*, align 8
  %maxdblstacksize = alloca i32, align 4
  %r0 = alloca double, align 8
  %r1 = alloca double, align 8
  %r2 = alloca double, align 8
  %r3 = alloca double, align 8
  %r4 = alloca double, align 8
  %r5 = alloca double, align 8
  %r6 = alloca double, align 8
  %r7 = alloca double, align 8
  %program = alloca i32*, align 8
  %k = alloca i32, align 4
  %pc = alloca i32, align 4
  %ccr = alloca i32, align 4
  %sp = alloca i32, align 4
  %psp = alloca i32, align 4
  %ref.tmp = alloca i32, align 4
  %ref.tmp2403 = alloca i32, align 4
  store i32 %fn, i32* %fn.addr, align 4
  call void @llvm.dbg.declare(metadata i32* %fn.addr, metadata !1893, metadata !DIExpression()), !dbg !1894
  call void @llvm.dbg.declare(metadata %"struct.pov::StackFrame_Struct"** %pstack, metadata !1895, metadata !DIExpression()), !dbg !1896
  %0 = load %"struct.pov::FPUContext_Struct"*, %"struct.pov::FPUContext_Struct"** @_ZN3pov22POVFPU_Current_ContextE, align 8, !dbg !1897
  %pstackbase = getelementptr inbounds %"struct.pov::FPUContext_Struct", %"struct.pov::FPUContext_Struct"* %0, i32 0, i32 1, !dbg !1898
  %1 = load %"struct.pov::StackFrame_Struct"*, %"struct.pov::StackFrame_Struct"** %pstackbase, align 8, !dbg !1898
  store %"struct.pov::StackFrame_Struct"* %1, %"struct.pov::StackFrame_Struct"** %pstack, align 8, !dbg !1896
  call void @llvm.dbg.declare(metadata double** %dblstack, metadata !1899, metadata !DIExpression()), !dbg !1900
  %2 = load %"struct.pov::FPUContext_Struct"*, %"struct.pov::FPUContext_Struct"** @_ZN3pov22POVFPU_Current_ContextE, align 8, !dbg !1901
  %dblstackbase = getelementptr inbounds %"struct.pov::FPUContext_Struct", %"struct.pov::FPUContext_Struct"* %2, i32 0, i32 2, !dbg !1902
  %3 = load double*, double** %dblstackbase, align 8, !dbg !1902
  store double* %3, double** %dblstack, align 8, !dbg !1900
  call void @llvm.dbg.declare(metadata i32* %maxdblstacksize, metadata !1903, metadata !DIExpression()), !dbg !1904
  %4 = load %"struct.pov::FPUContext_Struct"*, %"struct.pov::FPUContext_Struct"** @_ZN3pov22POVFPU_Current_ContextE, align 8, !dbg !1905
  %maxdblstacksize1 = getelementptr inbounds %"struct.pov::FPUContext_Struct", %"struct.pov::FPUContext_Struct"* %4, i32 0, i32 3, !dbg !1906
  %5 = load i32, i32* %maxdblstacksize1, align 8, !dbg !1906
  store i32 %5, i32* %maxdblstacksize, align 4, !dbg !1904
  call void @llvm.dbg.declare(metadata double* %r0, metadata !1907, metadata !DIExpression()), !dbg !1908
  call void @llvm.dbg.declare(metadata double* %r1, metadata !1909, metadata !DIExpression()), !dbg !1910
  call void @llvm.dbg.declare(metadata double* %r2, metadata !1911, metadata !DIExpression()), !dbg !1912
  call void @llvm.dbg.declare(metadata double* %r3, metadata !1913, metadata !DIExpression()), !dbg !1914
  call void @llvm.dbg.declare(metadata double* %r4, metadata !1915, metadata !DIExpression()), !dbg !1916
  call void @llvm.dbg.declare(metadata double* %r5, metadata !1917, metadata !DIExpression()), !dbg !1918
  call void @llvm.dbg.declare(metadata double* %r6, metadata !1919, metadata !DIExpression()), !dbg !1920
  call void @llvm.dbg.declare(metadata double* %r7, metadata !1921, metadata !DIExpression()), !dbg !1922
  call void @llvm.dbg.declare(metadata i32** %program, metadata !1923, metadata !DIExpression()), !dbg !1924
  store i32* null, i32** %program, align 8, !dbg !1924
  call void @llvm.dbg.declare(metadata i32* %k, metadata !1925, metadata !DIExpression()), !dbg !1926
  store i32 0, i32* %k, align 4, !dbg !1926
  call void @llvm.dbg.declare(metadata i32* %pc, metadata !1927, metadata !DIExpression()), !dbg !1928
  store i32 0, i32* %pc, align 4, !dbg !1928
  call void @llvm.dbg.declare(metadata i32* %ccr, metadata !1929, metadata !DIExpression()), !dbg !1930
  store i32 0, i32* %ccr, align 4, !dbg !1930
  call void @llvm.dbg.declare(metadata i32* %sp, metadata !1931, metadata !DIExpression()), !dbg !1932
  store i32 0, i32* %sp, align 4, !dbg !1932
  call void @llvm.dbg.declare(metadata i32* %psp, metadata !1933, metadata !DIExpression()), !dbg !1934
  store i32 0, i32* %psp, align 4, !dbg !1934
  call void @_ZN3pov16Increase_CounterERx(i64* dereferenceable(8) getelementptr inbounds ([123 x i64], [123 x i64]* @_ZN3pov5statsE, i64 0, i64 93)), !dbg !1935
  %6 = load %"struct.pov::FunctionEntry_Struct"*, %"struct.pov::FunctionEntry_Struct"** @_ZN3pov16POVFPU_FunctionsE, align 8, !dbg !1936
  %7 = load i32, i32* %fn.addr, align 4, !dbg !1937
  %idxprom = zext i32 %7 to i64, !dbg !1936
  %arrayidx = getelementptr inbounds %"struct.pov::FunctionEntry_Struct", %"struct.pov::FunctionEntry_Struct"* %6, i64 %idxprom, !dbg !1936
  %fn2 = getelementptr inbounds %"struct.pov::FunctionEntry_Struct", %"struct.pov::FunctionEntry_Struct"* %arrayidx, i32 0, i32 0, !dbg !1938
  %program3 = getelementptr inbounds %"struct.pov::FunctionCode", %"struct.pov::FunctionCode"* %fn2, i32 0, i32 0, !dbg !1939
  %8 = load i32*, i32** %program3, align 8, !dbg !1939
  store i32* %8, i32** %program, align 8, !dbg !1940
  br label %while.body, !dbg !1941

while.body:                                       ; preds = %entry, %if.end2338, %sw.bb2339, %if.end2364, %sw.epilog
  %9 = load i32*, i32** %program, align 8, !dbg !1942
  %10 = load i32, i32* %pc, align 4, !dbg !1942
  %idxprom4 = zext i32 %10 to i64, !dbg !1942
  %arrayidx5 = getelementptr inbounds i32, i32* %9, i64 %idxprom4, !dbg !1942
  %11 = load i32, i32* %arrayidx5, align 4, !dbg !1942
  %shr = lshr i32 %11, 12, !dbg !1942
  %and = and i32 %shr, 1048575, !dbg !1942
  store i32 %and, i32* %k, align 4, !dbg !1944
  %12 = load i32*, i32** %program, align 8, !dbg !1945
  %13 = load i32, i32* %pc, align 4, !dbg !1945
  %idxprom6 = zext i32 %13 to i64, !dbg !1945
  %arrayidx7 = getelementptr inbounds i32, i32* %12, i64 %idxprom6, !dbg !1945
  %14 = load i32, i32* %arrayidx7, align 4, !dbg !1945
  %and8 = and i32 %14, 4095, !dbg !1945
  switch i32 %and8, label %sw.default [
    i32 0, label %sw.bb
    i32 1, label %sw.bb9
    i32 2, label %sw.bb11
    i32 3, label %sw.bb13
    i32 4, label %sw.bb15
    i32 5, label %sw.bb17
    i32 6, label %sw.bb19
    i32 7, label %sw.bb21
    i32 8, label %sw.bb23
    i32 9, label %sw.bb25
    i32 10, label %sw.bb27
    i32 11, label %sw.bb29
    i32 12, label %sw.bb31
    i32 13, label %sw.bb33
    i32 14, label %sw.bb35
    i32 15, label %sw.bb37
    i32 16, label %sw.bb39
    i32 17, label %sw.bb41
    i32 18, label %sw.bb43
    i32 19, label %sw.bb45
    i32 20, label %sw.bb47
    i32 21, label %sw.bb49
    i32 22, label %sw.bb51
    i32 23, label %sw.bb53
    i32 24, label %sw.bb55
    i32 25, label %sw.bb57
    i32 26, label %sw.bb59
    i32 27, label %sw.bb61
    i32 28, label %sw.bb63
    i32 29, label %sw.bb65
    i32 30, label %sw.bb67
    i32 31, label %sw.bb69
    i32 32, label %sw.bb71
    i32 33, label %sw.bb73
    i32 34, label %sw.bb75
    i32 35, label %sw.bb77
    i32 36, label %sw.bb79
    i32 37, label %sw.bb81
    i32 38, label %sw.bb83
    i32 39, label %sw.bb85
    i32 40, label %sw.bb87
    i32 41, label %sw.bb89
    i32 42, label %sw.bb91
    i32 43, label %sw.bb93
    i32 44, label %sw.bb95
    i32 45, label %sw.bb97
    i32 46, label %sw.bb99
    i32 47, label %sw.bb101
    i32 48, label %sw.bb103
    i32 49, label %sw.bb105
    i32 50, label %sw.bb107
    i32 51, label %sw.bb109
    i32 52, label %sw.bb111
    i32 53, label %sw.bb113
    i32 54, label %sw.bb115
    i32 55, label %sw.bb117
    i32 56, label %sw.bb119
    i32 57, label %sw.bb121
    i32 58, label %sw.bb123
    i32 59, label %sw.bb125
    i32 60, label %sw.bb127
    i32 61, label %sw.bb129
    i32 62, label %sw.bb131
    i32 63, label %sw.bb133
    i32 64, label %sw.bb135
    i32 65, label %sw.bb136
    i32 66, label %sw.bb138
    i32 67, label %sw.bb140
    i32 68, label %sw.bb142
    i32 69, label %sw.bb144
    i32 70, label %sw.bb146
    i32 71, label %sw.bb148
    i32 72, label %sw.bb150
    i32 73, label %sw.bb152
    i32 74, label %sw.bb154
    i32 75, label %sw.bb156
    i32 76, label %sw.bb158
    i32 77, label %sw.bb160
    i32 78, label %sw.bb162
    i32 79, label %sw.bb164
    i32 80, label %sw.bb166
    i32 81, label %sw.bb168
    i32 82, label %sw.bb170
    i32 83, label %sw.bb172
    i32 84, label %sw.bb174
    i32 85, label %sw.bb176
    i32 86, label %sw.bb178
    i32 87, label %sw.bb180
    i32 88, label %sw.bb182
    i32 89, label %sw.bb184
    i32 90, label %sw.bb186
    i32 91, label %sw.bb188
    i32 92, label %sw.bb190
    i32 93, label %sw.bb192
    i32 94, label %sw.bb194
    i32 95, label %sw.bb196
    i32 96, label %sw.bb198
    i32 97, label %sw.bb200
    i32 98, label %sw.bb202
    i32 99, label %sw.bb204
    i32 100, label %sw.bb206
    i32 101, label %sw.bb208
    i32 102, label %sw.bb210
    i32 103, label %sw.bb212
    i32 104, label %sw.bb214
    i32 105, label %sw.bb216
    i32 106, label %sw.bb218
    i32 107, label %sw.bb220
    i32 108, label %sw.bb222
    i32 109, label %sw.bb224
    i32 110, label %sw.bb226
    i32 111, label %sw.bb228
    i32 112, label %sw.bb230
    i32 113, label %sw.bb232
    i32 114, label %sw.bb234
    i32 115, label %sw.bb236
    i32 116, label %sw.bb238
    i32 117, label %sw.bb240
    i32 118, label %sw.bb242
    i32 119, label %sw.bb244
    i32 120, label %sw.bb246
    i32 121, label %sw.bb248
    i32 122, label %sw.bb250
    i32 123, label %sw.bb252
    i32 124, label %sw.bb254
    i32 125, label %sw.bb256
    i32 126, label %sw.bb258
    i32 127, label %sw.bb260
    i32 128, label %sw.bb262
    i32 129, label %sw.bb263
    i32 130, label %sw.bb265
    i32 131, label %sw.bb267
    i32 132, label %sw.bb269
    i32 133, label %sw.bb271
    i32 134, label %sw.bb273
    i32 135, label %sw.bb275
    i32 136, label %sw.bb277
    i32 137, label %sw.bb279
    i32 138, label %sw.bb281
    i32 139, label %sw.bb283
    i32 140, label %sw.bb285
    i32 141, label %sw.bb287
    i32 142, label %sw.bb289
    i32 143, label %sw.bb291
    i32 144, label %sw.bb293
    i32 145, label %sw.bb295
    i32 146, label %sw.bb297
    i32 147, label %sw.bb299
    i32 148, label %sw.bb301
    i32 149, label %sw.bb303
    i32 150, label %sw.bb305
    i32 151, label %sw.bb307
    i32 152, label %sw.bb309
    i32 153, label %sw.bb311
    i32 154, label %sw.bb313
    i32 155, label %sw.bb315
    i32 156, label %sw.bb317
    i32 157, label %sw.bb319
    i32 158, label %sw.bb321
    i32 159, label %sw.bb323
    i32 160, label %sw.bb325
    i32 161, label %sw.bb327
    i32 162, label %sw.bb329
    i32 163, label %sw.bb331
    i32 164, label %sw.bb333
    i32 165, label %sw.bb335
    i32 166, label %sw.bb337
    i32 167, label %sw.bb339
    i32 168, label %sw.bb341
    i32 169, label %sw.bb343
    i32 170, label %sw.bb345
    i32 171, label %sw.bb347
    i32 172, label %sw.bb349
    i32 173, label %sw.bb351
    i32 174, label %sw.bb353
    i32 175, label %sw.bb355
    i32 176, label %sw.bb357
    i32 177, label %sw.bb359
    i32 178, label %sw.bb361
    i32 179, label %sw.bb363
    i32 180, label %sw.bb365
    i32 181, label %sw.bb367
    i32 182, label %sw.bb369
    i32 183, label %sw.bb371
    i32 184, label %sw.bb373
    i32 185, label %sw.bb375
    i32 186, label %sw.bb377
    i32 187, label %sw.bb379
    i32 188, label %sw.bb381
    i32 189, label %sw.bb383
    i32 190, label %sw.bb385
    i32 191, label %sw.bb387
    i32 192, label %sw.bb389
    i32 193, label %sw.bb390
    i32 194, label %sw.bb392
    i32 195, label %sw.bb394
    i32 196, label %sw.bb396
    i32 197, label %sw.bb398
    i32 198, label %sw.bb400
    i32 199, label %sw.bb402
    i32 200, label %sw.bb404
    i32 201, label %sw.bb406
    i32 202, label %sw.bb408
    i32 203, label %sw.bb410
    i32 204, label %sw.bb412
    i32 205, label %sw.bb414
    i32 206, label %sw.bb416
    i32 207, label %sw.bb418
    i32 208, label %sw.bb420
    i32 209, label %sw.bb422
    i32 210, label %sw.bb424
    i32 211, label %sw.bb426
    i32 212, label %sw.bb428
    i32 213, label %sw.bb430
    i32 214, label %sw.bb432
    i32 215, label %sw.bb434
    i32 216, label %sw.bb436
    i32 217, label %sw.bb438
    i32 218, label %sw.bb440
    i32 219, label %sw.bb442
    i32 220, label %sw.bb444
    i32 221, label %sw.bb446
    i32 222, label %sw.bb448
    i32 223, label %sw.bb450
    i32 224, label %sw.bb452
    i32 225, label %sw.bb454
    i32 226, label %sw.bb456
    i32 227, label %sw.bb458
    i32 228, label %sw.bb460
    i32 229, label %sw.bb462
    i32 230, label %sw.bb464
    i32 231, label %sw.bb466
    i32 232, label %sw.bb468
    i32 233, label %sw.bb470
    i32 234, label %sw.bb472
    i32 235, label %sw.bb474
    i32 236, label %sw.bb476
    i32 237, label %sw.bb478
    i32 238, label %sw.bb480
    i32 239, label %sw.bb482
    i32 240, label %sw.bb484
    i32 241, label %sw.bb486
    i32 242, label %sw.bb488
    i32 243, label %sw.bb490
    i32 244, label %sw.bb492
    i32 245, label %sw.bb494
    i32 246, label %sw.bb496
    i32 247, label %sw.bb498
    i32 248, label %sw.bb500
    i32 249, label %sw.bb502
    i32 250, label %sw.bb504
    i32 251, label %sw.bb506
    i32 252, label %sw.bb508
    i32 253, label %sw.bb510
    i32 254, label %sw.bb512
    i32 255, label %sw.bb514
    i32 256, label %sw.bb516
    i32 257, label %sw.bb517
    i32 258, label %sw.bb519
    i32 259, label %sw.bb521
    i32 260, label %sw.bb523
    i32 261, label %sw.bb525
    i32 262, label %sw.bb527
    i32 263, label %sw.bb529
    i32 264, label %sw.bb531
    i32 265, label %sw.bb533
    i32 266, label %sw.bb535
    i32 267, label %sw.bb537
    i32 268, label %sw.bb539
    i32 269, label %sw.bb541
    i32 270, label %sw.bb543
    i32 271, label %sw.bb545
    i32 272, label %sw.bb547
    i32 273, label %sw.bb549
    i32 274, label %sw.bb551
    i32 275, label %sw.bb553
    i32 276, label %sw.bb555
    i32 277, label %sw.bb557
    i32 278, label %sw.bb559
    i32 279, label %sw.bb561
    i32 280, label %sw.bb563
    i32 281, label %sw.bb565
    i32 282, label %sw.bb567
    i32 283, label %sw.bb569
    i32 284, label %sw.bb571
    i32 285, label %sw.bb573
    i32 286, label %sw.bb575
    i32 287, label %sw.bb577
    i32 288, label %sw.bb579
    i32 289, label %sw.bb581
    i32 290, label %sw.bb583
    i32 291, label %sw.bb585
    i32 292, label %sw.bb587
    i32 293, label %sw.bb589
    i32 294, label %sw.bb591
    i32 295, label %sw.bb593
    i32 296, label %sw.bb595
    i32 297, label %sw.bb597
    i32 298, label %sw.bb599
    i32 299, label %sw.bb601
    i32 300, label %sw.bb603
    i32 301, label %sw.bb605
    i32 302, label %sw.bb607
    i32 303, label %sw.bb609
    i32 304, label %sw.bb611
    i32 305, label %sw.bb613
    i32 306, label %sw.bb615
    i32 307, label %sw.bb617
    i32 308, label %sw.bb619
    i32 309, label %sw.bb621
    i32 310, label %sw.bb623
    i32 311, label %sw.bb625
    i32 312, label %sw.bb627
    i32 313, label %sw.bb629
    i32 314, label %sw.bb631
    i32 315, label %sw.bb633
    i32 316, label %sw.bb635
    i32 317, label %sw.bb637
    i32 318, label %sw.bb639
    i32 319, label %sw.bb641
    i32 320, label %sw.bb643
    i32 321, label %sw.bb644
    i32 322, label %sw.bb645
    i32 323, label %sw.bb646
    i32 324, label %sw.bb647
    i32 325, label %sw.bb648
    i32 326, label %sw.bb649
    i32 327, label %sw.bb650
    i32 328, label %sw.bb651
    i32 329, label %sw.bb652
    i32 330, label %sw.bb653
    i32 331, label %sw.bb654
    i32 332, label %sw.bb655
    i32 333, label %sw.bb656
    i32 334, label %sw.bb657
    i32 335, label %sw.bb658
    i32 336, label %sw.bb659
    i32 337, label %sw.bb660
    i32 338, label %sw.bb661
    i32 339, label %sw.bb662
    i32 340, label %sw.bb663
    i32 341, label %sw.bb664
    i32 342, label %sw.bb665
    i32 343, label %sw.bb666
    i32 344, label %sw.bb667
    i32 345, label %sw.bb668
    i32 346, label %sw.bb669
    i32 347, label %sw.bb670
    i32 348, label %sw.bb671
    i32 349, label %sw.bb672
    i32 350, label %sw.bb673
    i32 351, label %sw.bb674
    i32 352, label %sw.bb675
    i32 353, label %sw.bb676
    i32 354, label %sw.bb677
    i32 355, label %sw.bb678
    i32 356, label %sw.bb679
    i32 357, label %sw.bb680
    i32 358, label %sw.bb681
    i32 359, label %sw.bb682
    i32 360, label %sw.bb683
    i32 361, label %sw.bb684
    i32 362, label %sw.bb685
    i32 363, label %sw.bb686
    i32 364, label %sw.bb687
    i32 365, label %sw.bb688
    i32 366, label %sw.bb689
    i32 367, label %sw.bb690
    i32 368, label %sw.bb691
    i32 369, label %sw.bb692
    i32 370, label %sw.bb693
    i32 371, label %sw.bb694
    i32 372, label %sw.bb695
    i32 373, label %sw.bb696
    i32 374, label %sw.bb697
    i32 375, label %sw.bb698
    i32 376, label %sw.bb699
    i32 377, label %sw.bb700
    i32 378, label %sw.bb701
    i32 379, label %sw.bb702
    i32 380, label %sw.bb703
    i32 381, label %sw.bb704
    i32 382, label %sw.bb705
    i32 383, label %sw.bb706
    i32 384, label %sw.bb707
    i32 385, label %sw.bb712
    i32 386, label %sw.bb721
    i32 387, label %sw.bb730
    i32 388, label %sw.bb739
    i32 389, label %sw.bb748
    i32 390, label %sw.bb757
    i32 391, label %sw.bb766
    i32 392, label %sw.bb775
    i32 393, label %sw.bb784
    i32 394, label %sw.bb793
    i32 395, label %sw.bb802
    i32 396, label %sw.bb811
    i32 397, label %sw.bb820
    i32 398, label %sw.bb829
    i32 399, label %sw.bb838
    i32 400, label %sw.bb847
    i32 401, label %sw.bb856
    i32 402, label %sw.bb865
    i32 403, label %sw.bb874
    i32 404, label %sw.bb883
    i32 405, label %sw.bb892
    i32 406, label %sw.bb901
    i32 407, label %sw.bb910
    i32 408, label %sw.bb919
    i32 409, label %sw.bb928
    i32 410, label %sw.bb937
    i32 411, label %sw.bb946
    i32 412, label %sw.bb955
    i32 413, label %sw.bb964
    i32 414, label %sw.bb973
    i32 415, label %sw.bb982
    i32 416, label %sw.bb991
    i32 417, label %sw.bb1000
    i32 418, label %sw.bb1009
    i32 419, label %sw.bb1018
    i32 420, label %sw.bb1027
    i32 421, label %sw.bb1036
    i32 422, label %sw.bb1045
    i32 423, label %sw.bb1054
    i32 424, label %sw.bb1063
    i32 425, label %sw.bb1072
    i32 426, label %sw.bb1081
    i32 427, label %sw.bb1090
    i32 428, label %sw.bb1099
    i32 429, label %sw.bb1108
    i32 430, label %sw.bb1117
    i32 431, label %sw.bb1126
    i32 432, label %sw.bb1135
    i32 433, label %sw.bb1144
    i32 434, label %sw.bb1153
    i32 435, label %sw.bb1162
    i32 436, label %sw.bb1171
    i32 437, label %sw.bb1180
    i32 438, label %sw.bb1189
    i32 439, label %sw.bb1198
    i32 440, label %sw.bb1207
    i32 441, label %sw.bb1216
    i32 442, label %sw.bb1225
    i32 443, label %sw.bb1234
    i32 444, label %sw.bb1243
    i32 445, label %sw.bb1252
    i32 446, label %sw.bb1261
    i32 447, label %sw.bb1270
    i32 448, label %sw.bb1279
    i32 449, label %sw.bb1280
    i32 450, label %sw.bb1282
    i32 451, label %sw.bb1284
    i32 452, label %sw.bb1286
    i32 453, label %sw.bb1288
    i32 454, label %sw.bb1290
    i32 455, label %sw.bb1292
    i32 456, label %sw.bb1294
    i32 457, label %sw.bb1296
    i32 458, label %sw.bb1298
    i32 459, label %sw.bb1300
    i32 460, label %sw.bb1302
    i32 461, label %sw.bb1304
    i32 462, label %sw.bb1306
    i32 463, label %sw.bb1308
    i32 464, label %sw.bb1310
    i32 465, label %sw.bb1312
    i32 466, label %sw.bb1314
    i32 467, label %sw.bb1316
    i32 468, label %sw.bb1318
    i32 469, label %sw.bb1320
    i32 470, label %sw.bb1322
    i32 471, label %sw.bb1324
    i32 472, label %sw.bb1326
    i32 473, label %sw.bb1328
    i32 474, label %sw.bb1330
    i32 475, label %sw.bb1332
    i32 476, label %sw.bb1334
    i32 477, label %sw.bb1336
    i32 478, label %sw.bb1338
    i32 479, label %sw.bb1340
    i32 480, label %sw.bb1342
    i32 481, label %sw.bb1344
    i32 482, label %sw.bb1346
    i32 483, label %sw.bb1348
    i32 484, label %sw.bb1350
    i32 485, label %sw.bb1352
    i32 486, label %sw.bb1354
    i32 487, label %sw.bb1356
    i32 488, label %sw.bb1358
    i32 489, label %sw.bb1360
    i32 490, label %sw.bb1362
    i32 491, label %sw.bb1364
    i32 492, label %sw.bb1366
    i32 493, label %sw.bb1368
    i32 494, label %sw.bb1370
    i32 495, label %sw.bb1372
    i32 496, label %sw.bb1374
    i32 497, label %sw.bb1376
    i32 498, label %sw.bb1378
    i32 499, label %sw.bb1380
    i32 500, label %sw.bb1382
    i32 501, label %sw.bb1384
    i32 502, label %sw.bb1386
    i32 503, label %sw.bb1388
    i32 504, label %sw.bb1390
    i32 505, label %sw.bb1392
    i32 506, label %sw.bb1394
    i32 507, label %sw.bb1396
    i32 508, label %sw.bb1398
    i32 509, label %sw.bb1400
    i32 510, label %sw.bb1402
    i32 511, label %sw.bb1404
    i32 512, label %sw.bb1406
    i32 513, label %sw.bb1407
    i32 514, label %sw.bb1408
    i32 515, label %sw.bb1409
    i32 516, label %sw.bb1410
    i32 517, label %sw.bb1411
    i32 518, label %sw.bb1412
    i32 519, label %sw.bb1413
    i32 520, label %sw.bb1414
    i32 521, label %sw.bb1415
    i32 522, label %sw.bb1416
    i32 523, label %sw.bb1417
    i32 524, label %sw.bb1418
    i32 525, label %sw.bb1419
    i32 526, label %sw.bb1420
    i32 527, label %sw.bb1421
    i32 528, label %sw.bb1422
    i32 529, label %sw.bb1423
    i32 530, label %sw.bb1424
    i32 531, label %sw.bb1425
    i32 532, label %sw.bb1426
    i32 533, label %sw.bb1427
    i32 534, label %sw.bb1428
    i32 535, label %sw.bb1429
    i32 536, label %sw.bb1430
    i32 537, label %sw.bb1431
    i32 538, label %sw.bb1432
    i32 539, label %sw.bb1433
    i32 540, label %sw.bb1434
    i32 541, label %sw.bb1435
    i32 542, label %sw.bb1436
    i32 543, label %sw.bb1437
    i32 544, label %sw.bb1438
    i32 545, label %sw.bb1439
    i32 546, label %sw.bb1440
    i32 547, label %sw.bb1441
    i32 548, label %sw.bb1442
    i32 549, label %sw.bb1443
    i32 550, label %sw.bb1444
    i32 551, label %sw.bb1445
    i32 552, label %sw.bb1446
    i32 553, label %sw.bb1447
    i32 554, label %sw.bb1448
    i32 555, label %sw.bb1449
    i32 556, label %sw.bb1450
    i32 557, label %sw.bb1451
    i32 558, label %sw.bb1452
    i32 559, label %sw.bb1453
    i32 560, label %sw.bb1454
    i32 561, label %sw.bb1455
    i32 562, label %sw.bb1456
    i32 563, label %sw.bb1457
    i32 564, label %sw.bb1458
    i32 565, label %sw.bb1459
    i32 566, label %sw.bb1460
    i32 567, label %sw.bb1461
    i32 568, label %sw.bb1462
    i32 569, label %sw.bb1463
    i32 570, label %sw.bb1464
    i32 571, label %sw.bb1465
    i32 572, label %sw.bb1466
    i32 573, label %sw.bb1467
    i32 574, label %sw.bb1468
    i32 575, label %sw.bb1469
    i32 576, label %sw.bb1470
    i32 577, label %sw.bb1474
    i32 578, label %sw.bb1478
    i32 579, label %sw.bb1482
    i32 580, label %sw.bb1486
    i32 581, label %sw.bb1490
    i32 582, label %sw.bb1494
    i32 583, label %sw.bb1498
    i32 584, label %sw.bb1502
    i32 585, label %sw.bb1506
    i32 586, label %sw.bb1510
    i32 587, label %sw.bb1514
    i32 588, label %sw.bb1518
    i32 589, label %sw.bb1522
    i32 590, label %sw.bb1526
    i32 591, label %sw.bb1530
    i32 592, label %sw.bb1534
    i32 593, label %sw.bb1538
    i32 594, label %sw.bb1542
    i32 595, label %sw.bb1546
    i32 596, label %sw.bb1550
    i32 597, label %sw.bb1554
    i32 598, label %sw.bb1558
    i32 599, label %sw.bb1562
    i32 600, label %sw.bb1566
    i32 601, label %sw.bb1570
    i32 602, label %sw.bb1574
    i32 603, label %sw.bb1578
    i32 604, label %sw.bb1582
    i32 605, label %sw.bb1586
    i32 606, label %sw.bb1590
    i32 607, label %sw.bb1594
    i32 608, label %sw.bb1598
    i32 609, label %sw.bb1602
    i32 610, label %sw.bb1606
    i32 611, label %sw.bb1610
    i32 612, label %sw.bb1614
    i32 613, label %sw.bb1618
    i32 614, label %sw.bb1622
    i32 615, label %sw.bb1626
    i32 616, label %sw.bb1630
    i32 617, label %sw.bb1633
    i32 618, label %sw.bb1636
    i32 619, label %sw.bb1639
    i32 620, label %sw.bb1642
    i32 621, label %sw.bb1645
    i32 622, label %sw.bb1648
    i32 623, label %sw.bb1651
    i32 624, label %sw.bb1654
    i32 625, label %sw.bb1667
    i32 626, label %sw.bb1680
    i32 627, label %sw.bb1693
    i32 628, label %sw.bb1706
    i32 629, label %sw.bb1719
    i32 630, label %sw.bb1732
    i32 631, label %sw.bb1745
    i32 640, label %sw.bb1758
    i32 641, label %sw.bb1761
    i32 642, label %sw.bb1764
    i32 643, label %sw.bb1767
    i32 644, label %sw.bb1770
    i32 645, label %sw.bb1773
    i32 646, label %sw.bb1776
    i32 647, label %sw.bb1779
    i32 648, label %sw.bb1782
    i32 649, label %sw.bb1785
    i32 650, label %sw.bb1788
    i32 651, label %sw.bb1791
    i32 652, label %sw.bb1794
    i32 653, label %sw.bb1797
    i32 654, label %sw.bb1800
    i32 655, label %sw.bb1803
    i32 656, label %sw.bb1806
    i32 657, label %sw.bb1809
    i32 658, label %sw.bb1812
    i32 659, label %sw.bb1815
    i32 660, label %sw.bb1818
    i32 661, label %sw.bb1821
    i32 662, label %sw.bb1824
    i32 663, label %sw.bb1827
    i32 664, label %sw.bb1830
    i32 665, label %sw.bb1833
    i32 666, label %sw.bb1836
    i32 667, label %sw.bb1839
    i32 668, label %sw.bb1842
    i32 669, label %sw.bb1845
    i32 670, label %sw.bb1848
    i32 671, label %sw.bb1851
    i32 672, label %sw.bb1854
    i32 673, label %sw.bb1857
    i32 674, label %sw.bb1860
    i32 675, label %sw.bb1863
    i32 676, label %sw.bb1866
    i32 677, label %sw.bb1869
    i32 678, label %sw.bb1872
    i32 679, label %sw.bb1875
    i32 680, label %sw.bb1878
    i32 681, label %sw.bb1881
    i32 682, label %sw.bb1884
    i32 683, label %sw.bb1887
    i32 684, label %sw.bb1890
    i32 685, label %sw.bb1893
    i32 686, label %sw.bb1896
    i32 687, label %sw.bb1899
    i32 688, label %sw.bb1902
    i32 689, label %sw.bb1905
    i32 690, label %sw.bb1908
    i32 691, label %sw.bb1911
    i32 692, label %sw.bb1914
    i32 693, label %sw.bb1917
    i32 694, label %sw.bb1920
    i32 695, label %sw.bb1923
    i32 696, label %sw.bb1926
    i32 697, label %sw.bb1929
    i32 698, label %sw.bb1932
    i32 699, label %sw.bb1935
    i32 700, label %sw.bb1938
    i32 701, label %sw.bb1941
    i32 702, label %sw.bb1944
    i32 703, label %sw.bb1947
    i32 704, label %sw.bb1950
    i32 705, label %sw.bb1953
    i32 706, label %sw.bb1956
    i32 707, label %sw.bb1959
    i32 708, label %sw.bb1962
    i32 709, label %sw.bb1965
    i32 710, label %sw.bb1968
    i32 711, label %sw.bb1971
    i32 712, label %sw.bb1974
    i32 713, label %sw.bb1978
    i32 714, label %sw.bb1982
    i32 715, label %sw.bb1986
    i32 716, label %sw.bb1990
    i32 717, label %sw.bb1994
    i32 718, label %sw.bb1998
    i32 719, label %sw.bb2002
    i32 768, label %sw.bb2006
    i32 769, label %sw.bb2009
    i32 770, label %sw.bb2012
    i32 771, label %sw.bb2015
    i32 772, label %sw.bb2018
    i32 773, label %sw.bb2021
    i32 774, label %sw.bb2024
    i32 775, label %sw.bb2027
    i32 776, label %sw.bb2030
    i32 777, label %sw.bb2034
    i32 778, label %sw.bb2038
    i32 779, label %sw.bb2042
    i32 780, label %sw.bb2046
    i32 781, label %sw.bb2050
    i32 782, label %sw.bb2054
    i32 783, label %sw.bb2058
    i32 832, label %sw.bb2062
    i32 840, label %sw.bb2065
    i32 848, label %sw.bb2070
    i32 856, label %sw.bb2075
    i32 864, label %sw.bb2080
    i32 872, label %sw.bb2085
    i32 896, label %sw.bb2090
    i32 897, label %sw.bb2094
    i32 898, label %sw.bb2098
    i32 899, label %sw.bb2102
    i32 900, label %sw.bb2106
    i32 901, label %sw.bb2110
    i32 902, label %sw.bb2114
    i32 903, label %sw.bb2118
    i32 904, label %sw.bb2122
    i32 905, label %sw.bb2126
    i32 906, label %sw.bb2130
    i32 907, label %sw.bb2134
    i32 908, label %sw.bb2138
    i32 909, label %sw.bb2142
    i32 910, label %sw.bb2146
    i32 911, label %sw.bb2150
    i32 912, label %sw.bb2154
    i32 913, label %sw.bb2158
    i32 914, label %sw.bb2162
    i32 915, label %sw.bb2166
    i32 916, label %sw.bb2170
    i32 917, label %sw.bb2174
    i32 918, label %sw.bb2178
    i32 919, label %sw.bb2182
    i32 920, label %sw.bb2186
    i32 921, label %sw.bb2190
    i32 922, label %sw.bb2194
    i32 923, label %sw.bb2198
    i32 924, label %sw.bb2202
    i32 925, label %sw.bb2206
    i32 926, label %sw.bb2210
    i32 927, label %sw.bb2214
    i32 928, label %sw.bb2218
    i32 929, label %sw.bb2222
    i32 930, label %sw.bb2226
    i32 931, label %sw.bb2230
    i32 932, label %sw.bb2234
    i32 933, label %sw.bb2238
    i32 934, label %sw.bb2242
    i32 935, label %sw.bb2246
    i32 936, label %sw.bb2250
    i32 937, label %sw.bb2254
    i32 938, label %sw.bb2258
    i32 939, label %sw.bb2262
    i32 940, label %sw.bb2266
    i32 941, label %sw.bb2270
    i32 942, label %sw.bb2274
    i32 943, label %sw.bb2278
    i32 944, label %sw.bb2282
    i32 945, label %sw.bb2287
    i32 946, label %sw.bb2293
    i32 947, label %sw.bb2299
    i32 948, label %sw.bb2305
    i32 949, label %sw.bb2311
    i32 950, label %sw.bb2317
    i32 951, label %sw.bb2323
    i32 960, label %sw.bb2329
    i32 961, label %sw.bb2339
    i32 962, label %sw.bb2340
    i32 963, label %sw.bb2354
    i32 964, label %sw.bb2369
    i32 965, label %sw.bb2373
    i32 966, label %sw.bb2377
    i32 967, label %sw.bb2386
    i32 968, label %sw.bb2394
    i32 969, label %sw.bb2413
    i32 970, label %sw.bb2419
  ], !dbg !1946

sw.bb:                                            ; preds = %while.body
  %15 = load double, double* %r0, align 8, !dbg !1947
  %16 = load double, double* %r0, align 8, !dbg !1947
  %add = fadd double %15, %16, !dbg !1947
  store double %add, double* %r0, align 8, !dbg !1947
  br label %sw.epilog, !dbg !1947

sw.bb9:                                           ; preds = %while.body
  %17 = load double, double* %r1, align 8, !dbg !1947
  %18 = load double, double* %r0, align 8, !dbg !1947
  %add10 = fadd double %17, %18, !dbg !1947
  store double %add10, double* %r1, align 8, !dbg !1947
  br label %sw.epilog, !dbg !1947

sw.bb11:                                          ; preds = %while.body
  %19 = load double, double* %r2, align 8, !dbg !1947
  %20 = load double, double* %r0, align 8, !dbg !1947
  %add12 = fadd double %19, %20, !dbg !1947
  store double %add12, double* %r2, align 8, !dbg !1947
  br label %sw.epilog, !dbg !1947

sw.bb13:                                          ; preds = %while.body
  %21 = load double, double* %r3, align 8, !dbg !1947
  %22 = load double, double* %r0, align 8, !dbg !1947
  %add14 = fadd double %21, %22, !dbg !1947
  store double %add14, double* %r3, align 8, !dbg !1947
  br label %sw.epilog, !dbg !1947

sw.bb15:                                          ; preds = %while.body
  %23 = load double, double* %r4, align 8, !dbg !1947
  %24 = load double, double* %r0, align 8, !dbg !1947
  %add16 = fadd double %23, %24, !dbg !1947
  store double %add16, double* %r4, align 8, !dbg !1947
  br label %sw.epilog, !dbg !1947

sw.bb17:                                          ; preds = %while.body
  %25 = load double, double* %r5, align 8, !dbg !1947
  %26 = load double, double* %r0, align 8, !dbg !1947
  %add18 = fadd double %25, %26, !dbg !1947
  store double %add18, double* %r5, align 8, !dbg !1947
  br label %sw.epilog, !dbg !1947

sw.bb19:                                          ; preds = %while.body
  %27 = load double, double* %r6, align 8, !dbg !1947
  %28 = load double, double* %r0, align 8, !dbg !1947
  %add20 = fadd double %27, %28, !dbg !1947
  store double %add20, double* %r6, align 8, !dbg !1947
  br label %sw.epilog, !dbg !1947

sw.bb21:                                          ; preds = %while.body
  %29 = load double, double* %r7, align 8, !dbg !1947
  %30 = load double, double* %r0, align 8, !dbg !1947
  %add22 = fadd double %29, %30, !dbg !1947
  store double %add22, double* %r7, align 8, !dbg !1947
  br label %sw.epilog, !dbg !1947

sw.bb23:                                          ; preds = %while.body
  %31 = load double, double* %r0, align 8, !dbg !1947
  %32 = load double, double* %r1, align 8, !dbg !1947
  %add24 = fadd double %31, %32, !dbg !1947
  store double %add24, double* %r0, align 8, !dbg !1947
  br label %sw.epilog, !dbg !1947

sw.bb25:                                          ; preds = %while.body
  %33 = load double, double* %r1, align 8, !dbg !1947
  %34 = load double, double* %r1, align 8, !dbg !1947
  %add26 = fadd double %33, %34, !dbg !1947
  store double %add26, double* %r1, align 8, !dbg !1947
  br label %sw.epilog, !dbg !1947

sw.bb27:                                          ; preds = %while.body
  %35 = load double, double* %r2, align 8, !dbg !1947
  %36 = load double, double* %r1, align 8, !dbg !1947
  %add28 = fadd double %35, %36, !dbg !1947
  store double %add28, double* %r2, align 8, !dbg !1947
  br label %sw.epilog, !dbg !1947

sw.bb29:                                          ; preds = %while.body
  %37 = load double, double* %r3, align 8, !dbg !1947
  %38 = load double, double* %r1, align 8, !dbg !1947
  %add30 = fadd double %37, %38, !dbg !1947
  store double %add30, double* %r3, align 8, !dbg !1947
  br label %sw.epilog, !dbg !1947

sw.bb31:                                          ; preds = %while.body
  %39 = load double, double* %r4, align 8, !dbg !1947
  %40 = load double, double* %r1, align 8, !dbg !1947
  %add32 = fadd double %39, %40, !dbg !1947
  store double %add32, double* %r4, align 8, !dbg !1947
  br label %sw.epilog, !dbg !1947

sw.bb33:                                          ; preds = %while.body
  %41 = load double, double* %r5, align 8, !dbg !1947
  %42 = load double, double* %r1, align 8, !dbg !1947
  %add34 = fadd double %41, %42, !dbg !1947
  store double %add34, double* %r5, align 8, !dbg !1947
  br label %sw.epilog, !dbg !1947

sw.bb35:                                          ; preds = %while.body
  %43 = load double, double* %r6, align 8, !dbg !1947
  %44 = load double, double* %r1, align 8, !dbg !1947
  %add36 = fadd double %43, %44, !dbg !1947
  store double %add36, double* %r6, align 8, !dbg !1947
  br label %sw.epilog, !dbg !1947

sw.bb37:                                          ; preds = %while.body
  %45 = load double, double* %r7, align 8, !dbg !1947
  %46 = load double, double* %r1, align 8, !dbg !1947
  %add38 = fadd double %45, %46, !dbg !1947
  store double %add38, double* %r7, align 8, !dbg !1947
  br label %sw.epilog, !dbg !1947

sw.bb39:                                          ; preds = %while.body
  %47 = load double, double* %r0, align 8, !dbg !1947
  %48 = load double, double* %r2, align 8, !dbg !1947
  %add40 = fadd double %47, %48, !dbg !1947
  store double %add40, double* %r0, align 8, !dbg !1947
  br label %sw.epilog, !dbg !1947

sw.bb41:                                          ; preds = %while.body
  %49 = load double, double* %r1, align 8, !dbg !1947
  %50 = load double, double* %r2, align 8, !dbg !1947
  %add42 = fadd double %49, %50, !dbg !1947
  store double %add42, double* %r1, align 8, !dbg !1947
  br label %sw.epilog, !dbg !1947

sw.bb43:                                          ; preds = %while.body
  %51 = load double, double* %r2, align 8, !dbg !1947
  %52 = load double, double* %r2, align 8, !dbg !1947
  %add44 = fadd double %51, %52, !dbg !1947
  store double %add44, double* %r2, align 8, !dbg !1947
  br label %sw.epilog, !dbg !1947

sw.bb45:                                          ; preds = %while.body
  %53 = load double, double* %r3, align 8, !dbg !1947
  %54 = load double, double* %r2, align 8, !dbg !1947
  %add46 = fadd double %53, %54, !dbg !1947
  store double %add46, double* %r3, align 8, !dbg !1947
  br label %sw.epilog, !dbg !1947

sw.bb47:                                          ; preds = %while.body
  %55 = load double, double* %r4, align 8, !dbg !1947
  %56 = load double, double* %r2, align 8, !dbg !1947
  %add48 = fadd double %55, %56, !dbg !1947
  store double %add48, double* %r4, align 8, !dbg !1947
  br label %sw.epilog, !dbg !1947

sw.bb49:                                          ; preds = %while.body
  %57 = load double, double* %r5, align 8, !dbg !1947
  %58 = load double, double* %r2, align 8, !dbg !1947
  %add50 = fadd double %57, %58, !dbg !1947
  store double %add50, double* %r5, align 8, !dbg !1947
  br label %sw.epilog, !dbg !1947

sw.bb51:                                          ; preds = %while.body
  %59 = load double, double* %r6, align 8, !dbg !1947
  %60 = load double, double* %r2, align 8, !dbg !1947
  %add52 = fadd double %59, %60, !dbg !1947
  store double %add52, double* %r6, align 8, !dbg !1947
  br label %sw.epilog, !dbg !1947

sw.bb53:                                          ; preds = %while.body
  %61 = load double, double* %r7, align 8, !dbg !1947
  %62 = load double, double* %r2, align 8, !dbg !1947
  %add54 = fadd double %61, %62, !dbg !1947
  store double %add54, double* %r7, align 8, !dbg !1947
  br label %sw.epilog, !dbg !1947

sw.bb55:                                          ; preds = %while.body
  %63 = load double, double* %r0, align 8, !dbg !1947
  %64 = load double, double* %r3, align 8, !dbg !1947
  %add56 = fadd double %63, %64, !dbg !1947
  store double %add56, double* %r0, align 8, !dbg !1947
  br label %sw.epilog, !dbg !1947

sw.bb57:                                          ; preds = %while.body
  %65 = load double, double* %r1, align 8, !dbg !1947
  %66 = load double, double* %r3, align 8, !dbg !1947
  %add58 = fadd double %65, %66, !dbg !1947
  store double %add58, double* %r1, align 8, !dbg !1947
  br label %sw.epilog, !dbg !1947

sw.bb59:                                          ; preds = %while.body
  %67 = load double, double* %r2, align 8, !dbg !1947
  %68 = load double, double* %r3, align 8, !dbg !1947
  %add60 = fadd double %67, %68, !dbg !1947
  store double %add60, double* %r2, align 8, !dbg !1947
  br label %sw.epilog, !dbg !1947

sw.bb61:                                          ; preds = %while.body
  %69 = load double, double* %r3, align 8, !dbg !1947
  %70 = load double, double* %r3, align 8, !dbg !1947
  %add62 = fadd double %69, %70, !dbg !1947
  store double %add62, double* %r3, align 8, !dbg !1947
  br label %sw.epilog, !dbg !1947

sw.bb63:                                          ; preds = %while.body
  %71 = load double, double* %r4, align 8, !dbg !1947
  %72 = load double, double* %r3, align 8, !dbg !1947
  %add64 = fadd double %71, %72, !dbg !1947
  store double %add64, double* %r4, align 8, !dbg !1947
  br label %sw.epilog, !dbg !1947

sw.bb65:                                          ; preds = %while.body
  %73 = load double, double* %r5, align 8, !dbg !1947
  %74 = load double, double* %r3, align 8, !dbg !1947
  %add66 = fadd double %73, %74, !dbg !1947
  store double %add66, double* %r5, align 8, !dbg !1947
  br label %sw.epilog, !dbg !1947

sw.bb67:                                          ; preds = %while.body
  %75 = load double, double* %r6, align 8, !dbg !1947
  %76 = load double, double* %r3, align 8, !dbg !1947
  %add68 = fadd double %75, %76, !dbg !1947
  store double %add68, double* %r6, align 8, !dbg !1947
  br label %sw.epilog, !dbg !1947

sw.bb69:                                          ; preds = %while.body
  %77 = load double, double* %r7, align 8, !dbg !1947
  %78 = load double, double* %r3, align 8, !dbg !1947
  %add70 = fadd double %77, %78, !dbg !1947
  store double %add70, double* %r7, align 8, !dbg !1947
  br label %sw.epilog, !dbg !1947

sw.bb71:                                          ; preds = %while.body
  %79 = load double, double* %r0, align 8, !dbg !1947
  %80 = load double, double* %r4, align 8, !dbg !1947
  %add72 = fadd double %79, %80, !dbg !1947
  store double %add72, double* %r0, align 8, !dbg !1947
  br label %sw.epilog, !dbg !1947

sw.bb73:                                          ; preds = %while.body
  %81 = load double, double* %r1, align 8, !dbg !1947
  %82 = load double, double* %r4, align 8, !dbg !1947
  %add74 = fadd double %81, %82, !dbg !1947
  store double %add74, double* %r1, align 8, !dbg !1947
  br label %sw.epilog, !dbg !1947

sw.bb75:                                          ; preds = %while.body
  %83 = load double, double* %r2, align 8, !dbg !1947
  %84 = load double, double* %r4, align 8, !dbg !1947
  %add76 = fadd double %83, %84, !dbg !1947
  store double %add76, double* %r2, align 8, !dbg !1947
  br label %sw.epilog, !dbg !1947

sw.bb77:                                          ; preds = %while.body
  %85 = load double, double* %r3, align 8, !dbg !1947
  %86 = load double, double* %r4, align 8, !dbg !1947
  %add78 = fadd double %85, %86, !dbg !1947
  store double %add78, double* %r3, align 8, !dbg !1947
  br label %sw.epilog, !dbg !1947

sw.bb79:                                          ; preds = %while.body
  %87 = load double, double* %r4, align 8, !dbg !1947
  %88 = load double, double* %r4, align 8, !dbg !1947
  %add80 = fadd double %87, %88, !dbg !1947
  store double %add80, double* %r4, align 8, !dbg !1947
  br label %sw.epilog, !dbg !1947

sw.bb81:                                          ; preds = %while.body
  %89 = load double, double* %r5, align 8, !dbg !1947
  %90 = load double, double* %r4, align 8, !dbg !1947
  %add82 = fadd double %89, %90, !dbg !1947
  store double %add82, double* %r5, align 8, !dbg !1947
  br label %sw.epilog, !dbg !1947

sw.bb83:                                          ; preds = %while.body
  %91 = load double, double* %r6, align 8, !dbg !1947
  %92 = load double, double* %r4, align 8, !dbg !1947
  %add84 = fadd double %91, %92, !dbg !1947
  store double %add84, double* %r6, align 8, !dbg !1947
  br label %sw.epilog, !dbg !1947

sw.bb85:                                          ; preds = %while.body
  %93 = load double, double* %r7, align 8, !dbg !1947
  %94 = load double, double* %r4, align 8, !dbg !1947
  %add86 = fadd double %93, %94, !dbg !1947
  store double %add86, double* %r7, align 8, !dbg !1947
  br label %sw.epilog, !dbg !1947

sw.bb87:                                          ; preds = %while.body
  %95 = load double, double* %r0, align 8, !dbg !1947
  %96 = load double, double* %r5, align 8, !dbg !1947
  %add88 = fadd double %95, %96, !dbg !1947
  store double %add88, double* %r0, align 8, !dbg !1947
  br label %sw.epilog, !dbg !1947

sw.bb89:                                          ; preds = %while.body
  %97 = load double, double* %r1, align 8, !dbg !1947
  %98 = load double, double* %r5, align 8, !dbg !1947
  %add90 = fadd double %97, %98, !dbg !1947
  store double %add90, double* %r1, align 8, !dbg !1947
  br label %sw.epilog, !dbg !1947

sw.bb91:                                          ; preds = %while.body
  %99 = load double, double* %r2, align 8, !dbg !1947
  %100 = load double, double* %r5, align 8, !dbg !1947
  %add92 = fadd double %99, %100, !dbg !1947
  store double %add92, double* %r2, align 8, !dbg !1947
  br label %sw.epilog, !dbg !1947

sw.bb93:                                          ; preds = %while.body
  %101 = load double, double* %r3, align 8, !dbg !1947
  %102 = load double, double* %r5, align 8, !dbg !1947
  %add94 = fadd double %101, %102, !dbg !1947
  store double %add94, double* %r3, align 8, !dbg !1947
  br label %sw.epilog, !dbg !1947

sw.bb95:                                          ; preds = %while.body
  %103 = load double, double* %r4, align 8, !dbg !1947
  %104 = load double, double* %r5, align 8, !dbg !1947
  %add96 = fadd double %103, %104, !dbg !1947
  store double %add96, double* %r4, align 8, !dbg !1947
  br label %sw.epilog, !dbg !1947

sw.bb97:                                          ; preds = %while.body
  %105 = load double, double* %r5, align 8, !dbg !1947
  %106 = load double, double* %r5, align 8, !dbg !1947
  %add98 = fadd double %105, %106, !dbg !1947
  store double %add98, double* %r5, align 8, !dbg !1947
  br label %sw.epilog, !dbg !1947

sw.bb99:                                          ; preds = %while.body
  %107 = load double, double* %r6, align 8, !dbg !1947
  %108 = load double, double* %r5, align 8, !dbg !1947
  %add100 = fadd double %107, %108, !dbg !1947
  store double %add100, double* %r6, align 8, !dbg !1947
  br label %sw.epilog, !dbg !1947

sw.bb101:                                         ; preds = %while.body
  %109 = load double, double* %r7, align 8, !dbg !1947
  %110 = load double, double* %r5, align 8, !dbg !1947
  %add102 = fadd double %109, %110, !dbg !1947
  store double %add102, double* %r7, align 8, !dbg !1947
  br label %sw.epilog, !dbg !1947

sw.bb103:                                         ; preds = %while.body
  %111 = load double, double* %r0, align 8, !dbg !1947
  %112 = load double, double* %r6, align 8, !dbg !1947
  %add104 = fadd double %111, %112, !dbg !1947
  store double %add104, double* %r0, align 8, !dbg !1947
  br label %sw.epilog, !dbg !1947

sw.bb105:                                         ; preds = %while.body
  %113 = load double, double* %r1, align 8, !dbg !1947
  %114 = load double, double* %r6, align 8, !dbg !1947
  %add106 = fadd double %113, %114, !dbg !1947
  store double %add106, double* %r1, align 8, !dbg !1947
  br label %sw.epilog, !dbg !1947

sw.bb107:                                         ; preds = %while.body
  %115 = load double, double* %r2, align 8, !dbg !1947
  %116 = load double, double* %r6, align 8, !dbg !1947
  %add108 = fadd double %115, %116, !dbg !1947
  store double %add108, double* %r2, align 8, !dbg !1947
  br label %sw.epilog, !dbg !1947

sw.bb109:                                         ; preds = %while.body
  %117 = load double, double* %r3, align 8, !dbg !1947
  %118 = load double, double* %r6, align 8, !dbg !1947
  %add110 = fadd double %117, %118, !dbg !1947
  store double %add110, double* %r3, align 8, !dbg !1947
  br label %sw.epilog, !dbg !1947

sw.bb111:                                         ; preds = %while.body
  %119 = load double, double* %r4, align 8, !dbg !1947
  %120 = load double, double* %r6, align 8, !dbg !1947
  %add112 = fadd double %119, %120, !dbg !1947
  store double %add112, double* %r4, align 8, !dbg !1947
  br label %sw.epilog, !dbg !1947

sw.bb113:                                         ; preds = %while.body
  %121 = load double, double* %r5, align 8, !dbg !1947
  %122 = load double, double* %r6, align 8, !dbg !1947
  %add114 = fadd double %121, %122, !dbg !1947
  store double %add114, double* %r5, align 8, !dbg !1947
  br label %sw.epilog, !dbg !1947

sw.bb115:                                         ; preds = %while.body
  %123 = load double, double* %r6, align 8, !dbg !1947
  %124 = load double, double* %r6, align 8, !dbg !1947
  %add116 = fadd double %123, %124, !dbg !1947
  store double %add116, double* %r6, align 8, !dbg !1947
  br label %sw.epilog, !dbg !1947

sw.bb117:                                         ; preds = %while.body
  %125 = load double, double* %r7, align 8, !dbg !1947
  %126 = load double, double* %r6, align 8, !dbg !1947
  %add118 = fadd double %125, %126, !dbg !1947
  store double %add118, double* %r7, align 8, !dbg !1947
  br label %sw.epilog, !dbg !1947

sw.bb119:                                         ; preds = %while.body
  %127 = load double, double* %r0, align 8, !dbg !1947
  %128 = load double, double* %r7, align 8, !dbg !1947
  %add120 = fadd double %127, %128, !dbg !1947
  store double %add120, double* %r0, align 8, !dbg !1947
  br label %sw.epilog, !dbg !1947

sw.bb121:                                         ; preds = %while.body
  %129 = load double, double* %r1, align 8, !dbg !1947
  %130 = load double, double* %r7, align 8, !dbg !1947
  %add122 = fadd double %129, %130, !dbg !1947
  store double %add122, double* %r1, align 8, !dbg !1947
  br label %sw.epilog, !dbg !1947

sw.bb123:                                         ; preds = %while.body
  %131 = load double, double* %r2, align 8, !dbg !1947
  %132 = load double, double* %r7, align 8, !dbg !1947
  %add124 = fadd double %131, %132, !dbg !1947
  store double %add124, double* %r2, align 8, !dbg !1947
  br label %sw.epilog, !dbg !1947

sw.bb125:                                         ; preds = %while.body
  %133 = load double, double* %r3, align 8, !dbg !1947
  %134 = load double, double* %r7, align 8, !dbg !1947
  %add126 = fadd double %133, %134, !dbg !1947
  store double %add126, double* %r3, align 8, !dbg !1947
  br label %sw.epilog, !dbg !1947

sw.bb127:                                         ; preds = %while.body
  %135 = load double, double* %r4, align 8, !dbg !1947
  %136 = load double, double* %r7, align 8, !dbg !1947
  %add128 = fadd double %135, %136, !dbg !1947
  store double %add128, double* %r4, align 8, !dbg !1947
  br label %sw.epilog, !dbg !1947

sw.bb129:                                         ; preds = %while.body
  %137 = load double, double* %r5, align 8, !dbg !1947
  %138 = load double, double* %r7, align 8, !dbg !1947
  %add130 = fadd double %137, %138, !dbg !1947
  store double %add130, double* %r5, align 8, !dbg !1947
  br label %sw.epilog, !dbg !1947

sw.bb131:                                         ; preds = %while.body
  %139 = load double, double* %r6, align 8, !dbg !1947
  %140 = load double, double* %r7, align 8, !dbg !1947
  %add132 = fadd double %139, %140, !dbg !1947
  store double %add132, double* %r6, align 8, !dbg !1947
  br label %sw.epilog, !dbg !1947

sw.bb133:                                         ; preds = %while.body
  %141 = load double, double* %r7, align 8, !dbg !1947
  %142 = load double, double* %r7, align 8, !dbg !1947
  %add134 = fadd double %141, %142, !dbg !1947
  store double %add134, double* %r7, align 8, !dbg !1947
  br label %sw.epilog, !dbg !1947

sw.bb135:                                         ; preds = %while.body
  %143 = load double, double* %r0, align 8, !dbg !1949
  %144 = load double, double* %r0, align 8, !dbg !1949
  %sub = fsub double %143, %144, !dbg !1949
  store double %sub, double* %r0, align 8, !dbg !1949
  br label %sw.epilog, !dbg !1949

sw.bb136:                                         ; preds = %while.body
  %145 = load double, double* %r1, align 8, !dbg !1949
  %146 = load double, double* %r0, align 8, !dbg !1949
  %sub137 = fsub double %145, %146, !dbg !1949
  store double %sub137, double* %r1, align 8, !dbg !1949
  br label %sw.epilog, !dbg !1949

sw.bb138:                                         ; preds = %while.body
  %147 = load double, double* %r2, align 8, !dbg !1949
  %148 = load double, double* %r0, align 8, !dbg !1949
  %sub139 = fsub double %147, %148, !dbg !1949
  store double %sub139, double* %r2, align 8, !dbg !1949
  br label %sw.epilog, !dbg !1949

sw.bb140:                                         ; preds = %while.body
  %149 = load double, double* %r3, align 8, !dbg !1949
  %150 = load double, double* %r0, align 8, !dbg !1949
  %sub141 = fsub double %149, %150, !dbg !1949
  store double %sub141, double* %r3, align 8, !dbg !1949
  br label %sw.epilog, !dbg !1949

sw.bb142:                                         ; preds = %while.body
  %151 = load double, double* %r4, align 8, !dbg !1949
  %152 = load double, double* %r0, align 8, !dbg !1949
  %sub143 = fsub double %151, %152, !dbg !1949
  store double %sub143, double* %r4, align 8, !dbg !1949
  br label %sw.epilog, !dbg !1949

sw.bb144:                                         ; preds = %while.body
  %153 = load double, double* %r5, align 8, !dbg !1949
  %154 = load double, double* %r0, align 8, !dbg !1949
  %sub145 = fsub double %153, %154, !dbg !1949
  store double %sub145, double* %r5, align 8, !dbg !1949
  br label %sw.epilog, !dbg !1949

sw.bb146:                                         ; preds = %while.body
  %155 = load double, double* %r6, align 8, !dbg !1949
  %156 = load double, double* %r0, align 8, !dbg !1949
  %sub147 = fsub double %155, %156, !dbg !1949
  store double %sub147, double* %r6, align 8, !dbg !1949
  br label %sw.epilog, !dbg !1949

sw.bb148:                                         ; preds = %while.body
  %157 = load double, double* %r7, align 8, !dbg !1949
  %158 = load double, double* %r0, align 8, !dbg !1949
  %sub149 = fsub double %157, %158, !dbg !1949
  store double %sub149, double* %r7, align 8, !dbg !1949
  br label %sw.epilog, !dbg !1949

sw.bb150:                                         ; preds = %while.body
  %159 = load double, double* %r0, align 8, !dbg !1949
  %160 = load double, double* %r1, align 8, !dbg !1949
  %sub151 = fsub double %159, %160, !dbg !1949
  store double %sub151, double* %r0, align 8, !dbg !1949
  br label %sw.epilog, !dbg !1949

sw.bb152:                                         ; preds = %while.body
  %161 = load double, double* %r1, align 8, !dbg !1949
  %162 = load double, double* %r1, align 8, !dbg !1949
  %sub153 = fsub double %161, %162, !dbg !1949
  store double %sub153, double* %r1, align 8, !dbg !1949
  br label %sw.epilog, !dbg !1949

sw.bb154:                                         ; preds = %while.body
  %163 = load double, double* %r2, align 8, !dbg !1949
  %164 = load double, double* %r1, align 8, !dbg !1949
  %sub155 = fsub double %163, %164, !dbg !1949
  store double %sub155, double* %r2, align 8, !dbg !1949
  br label %sw.epilog, !dbg !1949

sw.bb156:                                         ; preds = %while.body
  %165 = load double, double* %r3, align 8, !dbg !1949
  %166 = load double, double* %r1, align 8, !dbg !1949
  %sub157 = fsub double %165, %166, !dbg !1949
  store double %sub157, double* %r3, align 8, !dbg !1949
  br label %sw.epilog, !dbg !1949

sw.bb158:                                         ; preds = %while.body
  %167 = load double, double* %r4, align 8, !dbg !1949
  %168 = load double, double* %r1, align 8, !dbg !1949
  %sub159 = fsub double %167, %168, !dbg !1949
  store double %sub159, double* %r4, align 8, !dbg !1949
  br label %sw.epilog, !dbg !1949

sw.bb160:                                         ; preds = %while.body
  %169 = load double, double* %r5, align 8, !dbg !1949
  %170 = load double, double* %r1, align 8, !dbg !1949
  %sub161 = fsub double %169, %170, !dbg !1949
  store double %sub161, double* %r5, align 8, !dbg !1949
  br label %sw.epilog, !dbg !1949

sw.bb162:                                         ; preds = %while.body
  %171 = load double, double* %r6, align 8, !dbg !1949
  %172 = load double, double* %r1, align 8, !dbg !1949
  %sub163 = fsub double %171, %172, !dbg !1949
  store double %sub163, double* %r6, align 8, !dbg !1949
  br label %sw.epilog, !dbg !1949

sw.bb164:                                         ; preds = %while.body
  %173 = load double, double* %r7, align 8, !dbg !1949
  %174 = load double, double* %r1, align 8, !dbg !1949
  %sub165 = fsub double %173, %174, !dbg !1949
  store double %sub165, double* %r7, align 8, !dbg !1949
  br label %sw.epilog, !dbg !1949

sw.bb166:                                         ; preds = %while.body
  %175 = load double, double* %r0, align 8, !dbg !1949
  %176 = load double, double* %r2, align 8, !dbg !1949
  %sub167 = fsub double %175, %176, !dbg !1949
  store double %sub167, double* %r0, align 8, !dbg !1949
  br label %sw.epilog, !dbg !1949

sw.bb168:                                         ; preds = %while.body
  %177 = load double, double* %r1, align 8, !dbg !1949
  %178 = load double, double* %r2, align 8, !dbg !1949
  %sub169 = fsub double %177, %178, !dbg !1949
  store double %sub169, double* %r1, align 8, !dbg !1949
  br label %sw.epilog, !dbg !1949

sw.bb170:                                         ; preds = %while.body
  %179 = load double, double* %r2, align 8, !dbg !1949
  %180 = load double, double* %r2, align 8, !dbg !1949
  %sub171 = fsub double %179, %180, !dbg !1949
  store double %sub171, double* %r2, align 8, !dbg !1949
  br label %sw.epilog, !dbg !1949

sw.bb172:                                         ; preds = %while.body
  %181 = load double, double* %r3, align 8, !dbg !1949
  %182 = load double, double* %r2, align 8, !dbg !1949
  %sub173 = fsub double %181, %182, !dbg !1949
  store double %sub173, double* %r3, align 8, !dbg !1949
  br label %sw.epilog, !dbg !1949

sw.bb174:                                         ; preds = %while.body
  %183 = load double, double* %r4, align 8, !dbg !1949
  %184 = load double, double* %r2, align 8, !dbg !1949
  %sub175 = fsub double %183, %184, !dbg !1949
  store double %sub175, double* %r4, align 8, !dbg !1949
  br label %sw.epilog, !dbg !1949

sw.bb176:                                         ; preds = %while.body
  %185 = load double, double* %r5, align 8, !dbg !1949
  %186 = load double, double* %r2, align 8, !dbg !1949
  %sub177 = fsub double %185, %186, !dbg !1949
  store double %sub177, double* %r5, align 8, !dbg !1949
  br label %sw.epilog, !dbg !1949

sw.bb178:                                         ; preds = %while.body
  %187 = load double, double* %r6, align 8, !dbg !1949
  %188 = load double, double* %r2, align 8, !dbg !1949
  %sub179 = fsub double %187, %188, !dbg !1949
  store double %sub179, double* %r6, align 8, !dbg !1949
  br label %sw.epilog, !dbg !1949

sw.bb180:                                         ; preds = %while.body
  %189 = load double, double* %r7, align 8, !dbg !1949
  %190 = load double, double* %r2, align 8, !dbg !1949
  %sub181 = fsub double %189, %190, !dbg !1949
  store double %sub181, double* %r7, align 8, !dbg !1949
  br label %sw.epilog, !dbg !1949

sw.bb182:                                         ; preds = %while.body
  %191 = load double, double* %r0, align 8, !dbg !1949
  %192 = load double, double* %r3, align 8, !dbg !1949
  %sub183 = fsub double %191, %192, !dbg !1949
  store double %sub183, double* %r0, align 8, !dbg !1949
  br label %sw.epilog, !dbg !1949

sw.bb184:                                         ; preds = %while.body
  %193 = load double, double* %r1, align 8, !dbg !1949
  %194 = load double, double* %r3, align 8, !dbg !1949
  %sub185 = fsub double %193, %194, !dbg !1949
  store double %sub185, double* %r1, align 8, !dbg !1949
  br label %sw.epilog, !dbg !1949

sw.bb186:                                         ; preds = %while.body
  %195 = load double, double* %r2, align 8, !dbg !1949
  %196 = load double, double* %r3, align 8, !dbg !1949
  %sub187 = fsub double %195, %196, !dbg !1949
  store double %sub187, double* %r2, align 8, !dbg !1949
  br label %sw.epilog, !dbg !1949

sw.bb188:                                         ; preds = %while.body
  %197 = load double, double* %r3, align 8, !dbg !1949
  %198 = load double, double* %r3, align 8, !dbg !1949
  %sub189 = fsub double %197, %198, !dbg !1949
  store double %sub189, double* %r3, align 8, !dbg !1949
  br label %sw.epilog, !dbg !1949

sw.bb190:                                         ; preds = %while.body
  %199 = load double, double* %r4, align 8, !dbg !1949
  %200 = load double, double* %r3, align 8, !dbg !1949
  %sub191 = fsub double %199, %200, !dbg !1949
  store double %sub191, double* %r4, align 8, !dbg !1949
  br label %sw.epilog, !dbg !1949

sw.bb192:                                         ; preds = %while.body
  %201 = load double, double* %r5, align 8, !dbg !1949
  %202 = load double, double* %r3, align 8, !dbg !1949
  %sub193 = fsub double %201, %202, !dbg !1949
  store double %sub193, double* %r5, align 8, !dbg !1949
  br label %sw.epilog, !dbg !1949

sw.bb194:                                         ; preds = %while.body
  %203 = load double, double* %r6, align 8, !dbg !1949
  %204 = load double, double* %r3, align 8, !dbg !1949
  %sub195 = fsub double %203, %204, !dbg !1949
  store double %sub195, double* %r6, align 8, !dbg !1949
  br label %sw.epilog, !dbg !1949

sw.bb196:                                         ; preds = %while.body
  %205 = load double, double* %r7, align 8, !dbg !1949
  %206 = load double, double* %r3, align 8, !dbg !1949
  %sub197 = fsub double %205, %206, !dbg !1949
  store double %sub197, double* %r7, align 8, !dbg !1949
  br label %sw.epilog, !dbg !1949

sw.bb198:                                         ; preds = %while.body
  %207 = load double, double* %r0, align 8, !dbg !1949
  %208 = load double, double* %r4, align 8, !dbg !1949
  %sub199 = fsub double %207, %208, !dbg !1949
  store double %sub199, double* %r0, align 8, !dbg !1949
  br label %sw.epilog, !dbg !1949

sw.bb200:                                         ; preds = %while.body
  %209 = load double, double* %r1, align 8, !dbg !1949
  %210 = load double, double* %r4, align 8, !dbg !1949
  %sub201 = fsub double %209, %210, !dbg !1949
  store double %sub201, double* %r1, align 8, !dbg !1949
  br label %sw.epilog, !dbg !1949

sw.bb202:                                         ; preds = %while.body
  %211 = load double, double* %r2, align 8, !dbg !1949
  %212 = load double, double* %r4, align 8, !dbg !1949
  %sub203 = fsub double %211, %212, !dbg !1949
  store double %sub203, double* %r2, align 8, !dbg !1949
  br label %sw.epilog, !dbg !1949

sw.bb204:                                         ; preds = %while.body
  %213 = load double, double* %r3, align 8, !dbg !1949
  %214 = load double, double* %r4, align 8, !dbg !1949
  %sub205 = fsub double %213, %214, !dbg !1949
  store double %sub205, double* %r3, align 8, !dbg !1949
  br label %sw.epilog, !dbg !1949

sw.bb206:                                         ; preds = %while.body
  %215 = load double, double* %r4, align 8, !dbg !1949
  %216 = load double, double* %r4, align 8, !dbg !1949
  %sub207 = fsub double %215, %216, !dbg !1949
  store double %sub207, double* %r4, align 8, !dbg !1949
  br label %sw.epilog, !dbg !1949

sw.bb208:                                         ; preds = %while.body
  %217 = load double, double* %r5, align 8, !dbg !1949
  %218 = load double, double* %r4, align 8, !dbg !1949
  %sub209 = fsub double %217, %218, !dbg !1949
  store double %sub209, double* %r5, align 8, !dbg !1949
  br label %sw.epilog, !dbg !1949

sw.bb210:                                         ; preds = %while.body
  %219 = load double, double* %r6, align 8, !dbg !1949
  %220 = load double, double* %r4, align 8, !dbg !1949
  %sub211 = fsub double %219, %220, !dbg !1949
  store double %sub211, double* %r6, align 8, !dbg !1949
  br label %sw.epilog, !dbg !1949

sw.bb212:                                         ; preds = %while.body
  %221 = load double, double* %r7, align 8, !dbg !1949
  %222 = load double, double* %r4, align 8, !dbg !1949
  %sub213 = fsub double %221, %222, !dbg !1949
  store double %sub213, double* %r7, align 8, !dbg !1949
  br label %sw.epilog, !dbg !1949

sw.bb214:                                         ; preds = %while.body
  %223 = load double, double* %r0, align 8, !dbg !1949
  %224 = load double, double* %r5, align 8, !dbg !1949
  %sub215 = fsub double %223, %224, !dbg !1949
  store double %sub215, double* %r0, align 8, !dbg !1949
  br label %sw.epilog, !dbg !1949

sw.bb216:                                         ; preds = %while.body
  %225 = load double, double* %r1, align 8, !dbg !1949
  %226 = load double, double* %r5, align 8, !dbg !1949
  %sub217 = fsub double %225, %226, !dbg !1949
  store double %sub217, double* %r1, align 8, !dbg !1949
  br label %sw.epilog, !dbg !1949

sw.bb218:                                         ; preds = %while.body
  %227 = load double, double* %r2, align 8, !dbg !1949
  %228 = load double, double* %r5, align 8, !dbg !1949
  %sub219 = fsub double %227, %228, !dbg !1949
  store double %sub219, double* %r2, align 8, !dbg !1949
  br label %sw.epilog, !dbg !1949

sw.bb220:                                         ; preds = %while.body
  %229 = load double, double* %r3, align 8, !dbg !1949
  %230 = load double, double* %r5, align 8, !dbg !1949
  %sub221 = fsub double %229, %230, !dbg !1949
  store double %sub221, double* %r3, align 8, !dbg !1949
  br label %sw.epilog, !dbg !1949

sw.bb222:                                         ; preds = %while.body
  %231 = load double, double* %r4, align 8, !dbg !1949
  %232 = load double, double* %r5, align 8, !dbg !1949
  %sub223 = fsub double %231, %232, !dbg !1949
  store double %sub223, double* %r4, align 8, !dbg !1949
  br label %sw.epilog, !dbg !1949

sw.bb224:                                         ; preds = %while.body
  %233 = load double, double* %r5, align 8, !dbg !1949
  %234 = load double, double* %r5, align 8, !dbg !1949
  %sub225 = fsub double %233, %234, !dbg !1949
  store double %sub225, double* %r5, align 8, !dbg !1949
  br label %sw.epilog, !dbg !1949

sw.bb226:                                         ; preds = %while.body
  %235 = load double, double* %r6, align 8, !dbg !1949
  %236 = load double, double* %r5, align 8, !dbg !1949
  %sub227 = fsub double %235, %236, !dbg !1949
  store double %sub227, double* %r6, align 8, !dbg !1949
  br label %sw.epilog, !dbg !1949

sw.bb228:                                         ; preds = %while.body
  %237 = load double, double* %r7, align 8, !dbg !1949
  %238 = load double, double* %r5, align 8, !dbg !1949
  %sub229 = fsub double %237, %238, !dbg !1949
  store double %sub229, double* %r7, align 8, !dbg !1949
  br label %sw.epilog, !dbg !1949

sw.bb230:                                         ; preds = %while.body
  %239 = load double, double* %r0, align 8, !dbg !1949
  %240 = load double, double* %r6, align 8, !dbg !1949
  %sub231 = fsub double %239, %240, !dbg !1949
  store double %sub231, double* %r0, align 8, !dbg !1949
  br label %sw.epilog, !dbg !1949

sw.bb232:                                         ; preds = %while.body
  %241 = load double, double* %r1, align 8, !dbg !1949
  %242 = load double, double* %r6, align 8, !dbg !1949
  %sub233 = fsub double %241, %242, !dbg !1949
  store double %sub233, double* %r1, align 8, !dbg !1949
  br label %sw.epilog, !dbg !1949

sw.bb234:                                         ; preds = %while.body
  %243 = load double, double* %r2, align 8, !dbg !1949
  %244 = load double, double* %r6, align 8, !dbg !1949
  %sub235 = fsub double %243, %244, !dbg !1949
  store double %sub235, double* %r2, align 8, !dbg !1949
  br label %sw.epilog, !dbg !1949

sw.bb236:                                         ; preds = %while.body
  %245 = load double, double* %r3, align 8, !dbg !1949
  %246 = load double, double* %r6, align 8, !dbg !1949
  %sub237 = fsub double %245, %246, !dbg !1949
  store double %sub237, double* %r3, align 8, !dbg !1949
  br label %sw.epilog, !dbg !1949

sw.bb238:                                         ; preds = %while.body
  %247 = load double, double* %r4, align 8, !dbg !1949
  %248 = load double, double* %r6, align 8, !dbg !1949
  %sub239 = fsub double %247, %248, !dbg !1949
  store double %sub239, double* %r4, align 8, !dbg !1949
  br label %sw.epilog, !dbg !1949

sw.bb240:                                         ; preds = %while.body
  %249 = load double, double* %r5, align 8, !dbg !1949
  %250 = load double, double* %r6, align 8, !dbg !1949
  %sub241 = fsub double %249, %250, !dbg !1949
  store double %sub241, double* %r5, align 8, !dbg !1949
  br label %sw.epilog, !dbg !1949

sw.bb242:                                         ; preds = %while.body
  %251 = load double, double* %r6, align 8, !dbg !1949
  %252 = load double, double* %r6, align 8, !dbg !1949
  %sub243 = fsub double %251, %252, !dbg !1949
  store double %sub243, double* %r6, align 8, !dbg !1949
  br label %sw.epilog, !dbg !1949

sw.bb244:                                         ; preds = %while.body
  %253 = load double, double* %r7, align 8, !dbg !1949
  %254 = load double, double* %r6, align 8, !dbg !1949
  %sub245 = fsub double %253, %254, !dbg !1949
  store double %sub245, double* %r7, align 8, !dbg !1949
  br label %sw.epilog, !dbg !1949

sw.bb246:                                         ; preds = %while.body
  %255 = load double, double* %r0, align 8, !dbg !1949
  %256 = load double, double* %r7, align 8, !dbg !1949
  %sub247 = fsub double %255, %256, !dbg !1949
  store double %sub247, double* %r0, align 8, !dbg !1949
  br label %sw.epilog, !dbg !1949

sw.bb248:                                         ; preds = %while.body
  %257 = load double, double* %r1, align 8, !dbg !1949
  %258 = load double, double* %r7, align 8, !dbg !1949
  %sub249 = fsub double %257, %258, !dbg !1949
  store double %sub249, double* %r1, align 8, !dbg !1949
  br label %sw.epilog, !dbg !1949

sw.bb250:                                         ; preds = %while.body
  %259 = load double, double* %r2, align 8, !dbg !1949
  %260 = load double, double* %r7, align 8, !dbg !1949
  %sub251 = fsub double %259, %260, !dbg !1949
  store double %sub251, double* %r2, align 8, !dbg !1949
  br label %sw.epilog, !dbg !1949

sw.bb252:                                         ; preds = %while.body
  %261 = load double, double* %r3, align 8, !dbg !1949
  %262 = load double, double* %r7, align 8, !dbg !1949
  %sub253 = fsub double %261, %262, !dbg !1949
  store double %sub253, double* %r3, align 8, !dbg !1949
  br label %sw.epilog, !dbg !1949

sw.bb254:                                         ; preds = %while.body
  %263 = load double, double* %r4, align 8, !dbg !1949
  %264 = load double, double* %r7, align 8, !dbg !1949
  %sub255 = fsub double %263, %264, !dbg !1949
  store double %sub255, double* %r4, align 8, !dbg !1949
  br label %sw.epilog, !dbg !1949

sw.bb256:                                         ; preds = %while.body
  %265 = load double, double* %r5, align 8, !dbg !1949
  %266 = load double, double* %r7, align 8, !dbg !1949
  %sub257 = fsub double %265, %266, !dbg !1949
  store double %sub257, double* %r5, align 8, !dbg !1949
  br label %sw.epilog, !dbg !1949

sw.bb258:                                         ; preds = %while.body
  %267 = load double, double* %r6, align 8, !dbg !1949
  %268 = load double, double* %r7, align 8, !dbg !1949
  %sub259 = fsub double %267, %268, !dbg !1949
  store double %sub259, double* %r6, align 8, !dbg !1949
  br label %sw.epilog, !dbg !1949

sw.bb260:                                         ; preds = %while.body
  %269 = load double, double* %r7, align 8, !dbg !1949
  %270 = load double, double* %r7, align 8, !dbg !1949
  %sub261 = fsub double %269, %270, !dbg !1949
  store double %sub261, double* %r7, align 8, !dbg !1949
  br label %sw.epilog, !dbg !1949

sw.bb262:                                         ; preds = %while.body
  %271 = load double, double* %r0, align 8, !dbg !1950
  %272 = load double, double* %r0, align 8, !dbg !1950
  %mul = fmul double %271, %272, !dbg !1950
  store double %mul, double* %r0, align 8, !dbg !1950
  br label %sw.epilog, !dbg !1950

sw.bb263:                                         ; preds = %while.body
  %273 = load double, double* %r1, align 8, !dbg !1950
  %274 = load double, double* %r0, align 8, !dbg !1950
  %mul264 = fmul double %273, %274, !dbg !1950
  store double %mul264, double* %r1, align 8, !dbg !1950
  br label %sw.epilog, !dbg !1950

sw.bb265:                                         ; preds = %while.body
  %275 = load double, double* %r2, align 8, !dbg !1950
  %276 = load double, double* %r0, align 8, !dbg !1950
  %mul266 = fmul double %275, %276, !dbg !1950
  store double %mul266, double* %r2, align 8, !dbg !1950
  br label %sw.epilog, !dbg !1950

sw.bb267:                                         ; preds = %while.body
  %277 = load double, double* %r3, align 8, !dbg !1950
  %278 = load double, double* %r0, align 8, !dbg !1950
  %mul268 = fmul double %277, %278, !dbg !1950
  store double %mul268, double* %r3, align 8, !dbg !1950
  br label %sw.epilog, !dbg !1950

sw.bb269:                                         ; preds = %while.body
  %279 = load double, double* %r4, align 8, !dbg !1950
  %280 = load double, double* %r0, align 8, !dbg !1950
  %mul270 = fmul double %279, %280, !dbg !1950
  store double %mul270, double* %r4, align 8, !dbg !1950
  br label %sw.epilog, !dbg !1950

sw.bb271:                                         ; preds = %while.body
  %281 = load double, double* %r5, align 8, !dbg !1950
  %282 = load double, double* %r0, align 8, !dbg !1950
  %mul272 = fmul double %281, %282, !dbg !1950
  store double %mul272, double* %r5, align 8, !dbg !1950
  br label %sw.epilog, !dbg !1950

sw.bb273:                                         ; preds = %while.body
  %283 = load double, double* %r6, align 8, !dbg !1950
  %284 = load double, double* %r0, align 8, !dbg !1950
  %mul274 = fmul double %283, %284, !dbg !1950
  store double %mul274, double* %r6, align 8, !dbg !1950
  br label %sw.epilog, !dbg !1950

sw.bb275:                                         ; preds = %while.body
  %285 = load double, double* %r7, align 8, !dbg !1950
  %286 = load double, double* %r0, align 8, !dbg !1950
  %mul276 = fmul double %285, %286, !dbg !1950
  store double %mul276, double* %r7, align 8, !dbg !1950
  br label %sw.epilog, !dbg !1950

sw.bb277:                                         ; preds = %while.body
  %287 = load double, double* %r0, align 8, !dbg !1950
  %288 = load double, double* %r1, align 8, !dbg !1950
  %mul278 = fmul double %287, %288, !dbg !1950
  store double %mul278, double* %r0, align 8, !dbg !1950
  br label %sw.epilog, !dbg !1950

sw.bb279:                                         ; preds = %while.body
  %289 = load double, double* %r1, align 8, !dbg !1950
  %290 = load double, double* %r1, align 8, !dbg !1950
  %mul280 = fmul double %289, %290, !dbg !1950
  store double %mul280, double* %r1, align 8, !dbg !1950
  br label %sw.epilog, !dbg !1950

sw.bb281:                                         ; preds = %while.body
  %291 = load double, double* %r2, align 8, !dbg !1950
  %292 = load double, double* %r1, align 8, !dbg !1950
  %mul282 = fmul double %291, %292, !dbg !1950
  store double %mul282, double* %r2, align 8, !dbg !1950
  br label %sw.epilog, !dbg !1950

sw.bb283:                                         ; preds = %while.body
  %293 = load double, double* %r3, align 8, !dbg !1950
  %294 = load double, double* %r1, align 8, !dbg !1950
  %mul284 = fmul double %293, %294, !dbg !1950
  store double %mul284, double* %r3, align 8, !dbg !1950
  br label %sw.epilog, !dbg !1950

sw.bb285:                                         ; preds = %while.body
  %295 = load double, double* %r4, align 8, !dbg !1950
  %296 = load double, double* %r1, align 8, !dbg !1950
  %mul286 = fmul double %295, %296, !dbg !1950
  store double %mul286, double* %r4, align 8, !dbg !1950
  br label %sw.epilog, !dbg !1950

sw.bb287:                                         ; preds = %while.body
  %297 = load double, double* %r5, align 8, !dbg !1950
  %298 = load double, double* %r1, align 8, !dbg !1950
  %mul288 = fmul double %297, %298, !dbg !1950
  store double %mul288, double* %r5, align 8, !dbg !1950
  br label %sw.epilog, !dbg !1950

sw.bb289:                                         ; preds = %while.body
  %299 = load double, double* %r6, align 8, !dbg !1950
  %300 = load double, double* %r1, align 8, !dbg !1950
  %mul290 = fmul double %299, %300, !dbg !1950
  store double %mul290, double* %r6, align 8, !dbg !1950
  br label %sw.epilog, !dbg !1950

sw.bb291:                                         ; preds = %while.body
  %301 = load double, double* %r7, align 8, !dbg !1950
  %302 = load double, double* %r1, align 8, !dbg !1950
  %mul292 = fmul double %301, %302, !dbg !1950
  store double %mul292, double* %r7, align 8, !dbg !1950
  br label %sw.epilog, !dbg !1950

sw.bb293:                                         ; preds = %while.body
  %303 = load double, double* %r0, align 8, !dbg !1950
  %304 = load double, double* %r2, align 8, !dbg !1950
  %mul294 = fmul double %303, %304, !dbg !1950
  store double %mul294, double* %r0, align 8, !dbg !1950
  br label %sw.epilog, !dbg !1950

sw.bb295:                                         ; preds = %while.body
  %305 = load double, double* %r1, align 8, !dbg !1950
  %306 = load double, double* %r2, align 8, !dbg !1950
  %mul296 = fmul double %305, %306, !dbg !1950
  store double %mul296, double* %r1, align 8, !dbg !1950
  br label %sw.epilog, !dbg !1950

sw.bb297:                                         ; preds = %while.body
  %307 = load double, double* %r2, align 8, !dbg !1950
  %308 = load double, double* %r2, align 8, !dbg !1950
  %mul298 = fmul double %307, %308, !dbg !1950
  store double %mul298, double* %r2, align 8, !dbg !1950
  br label %sw.epilog, !dbg !1950

sw.bb299:                                         ; preds = %while.body
  %309 = load double, double* %r3, align 8, !dbg !1950
  %310 = load double, double* %r2, align 8, !dbg !1950
  %mul300 = fmul double %309, %310, !dbg !1950
  store double %mul300, double* %r3, align 8, !dbg !1950
  br label %sw.epilog, !dbg !1950

sw.bb301:                                         ; preds = %while.body
  %311 = load double, double* %r4, align 8, !dbg !1950
  %312 = load double, double* %r2, align 8, !dbg !1950
  %mul302 = fmul double %311, %312, !dbg !1950
  store double %mul302, double* %r4, align 8, !dbg !1950
  br label %sw.epilog, !dbg !1950

sw.bb303:                                         ; preds = %while.body
  %313 = load double, double* %r5, align 8, !dbg !1950
  %314 = load double, double* %r2, align 8, !dbg !1950
  %mul304 = fmul double %313, %314, !dbg !1950
  store double %mul304, double* %r5, align 8, !dbg !1950
  br label %sw.epilog, !dbg !1950

sw.bb305:                                         ; preds = %while.body
  %315 = load double, double* %r6, align 8, !dbg !1950
  %316 = load double, double* %r2, align 8, !dbg !1950
  %mul306 = fmul double %315, %316, !dbg !1950
  store double %mul306, double* %r6, align 8, !dbg !1950
  br label %sw.epilog, !dbg !1950

sw.bb307:                                         ; preds = %while.body
  %317 = load double, double* %r7, align 8, !dbg !1950
  %318 = load double, double* %r2, align 8, !dbg !1950
  %mul308 = fmul double %317, %318, !dbg !1950
  store double %mul308, double* %r7, align 8, !dbg !1950
  br label %sw.epilog, !dbg !1950

sw.bb309:                                         ; preds = %while.body
  %319 = load double, double* %r0, align 8, !dbg !1950
  %320 = load double, double* %r3, align 8, !dbg !1950
  %mul310 = fmul double %319, %320, !dbg !1950
  store double %mul310, double* %r0, align 8, !dbg !1950
  br label %sw.epilog, !dbg !1950

sw.bb311:                                         ; preds = %while.body
  %321 = load double, double* %r1, align 8, !dbg !1950
  %322 = load double, double* %r3, align 8, !dbg !1950
  %mul312 = fmul double %321, %322, !dbg !1950
  store double %mul312, double* %r1, align 8, !dbg !1950
  br label %sw.epilog, !dbg !1950

sw.bb313:                                         ; preds = %while.body
  %323 = load double, double* %r2, align 8, !dbg !1950
  %324 = load double, double* %r3, align 8, !dbg !1950
  %mul314 = fmul double %323, %324, !dbg !1950
  store double %mul314, double* %r2, align 8, !dbg !1950
  br label %sw.epilog, !dbg !1950

sw.bb315:                                         ; preds = %while.body
  %325 = load double, double* %r3, align 8, !dbg !1950
  %326 = load double, double* %r3, align 8, !dbg !1950
  %mul316 = fmul double %325, %326, !dbg !1950
  store double %mul316, double* %r3, align 8, !dbg !1950
  br label %sw.epilog, !dbg !1950

sw.bb317:                                         ; preds = %while.body
  %327 = load double, double* %r4, align 8, !dbg !1950
  %328 = load double, double* %r3, align 8, !dbg !1950
  %mul318 = fmul double %327, %328, !dbg !1950
  store double %mul318, double* %r4, align 8, !dbg !1950
  br label %sw.epilog, !dbg !1950

sw.bb319:                                         ; preds = %while.body
  %329 = load double, double* %r5, align 8, !dbg !1950
  %330 = load double, double* %r3, align 8, !dbg !1950
  %mul320 = fmul double %329, %330, !dbg !1950
  store double %mul320, double* %r5, align 8, !dbg !1950
  br label %sw.epilog, !dbg !1950

sw.bb321:                                         ; preds = %while.body
  %331 = load double, double* %r6, align 8, !dbg !1950
  %332 = load double, double* %r3, align 8, !dbg !1950
  %mul322 = fmul double %331, %332, !dbg !1950
  store double %mul322, double* %r6, align 8, !dbg !1950
  br label %sw.epilog, !dbg !1950

sw.bb323:                                         ; preds = %while.body
  %333 = load double, double* %r7, align 8, !dbg !1950
  %334 = load double, double* %r3, align 8, !dbg !1950
  %mul324 = fmul double %333, %334, !dbg !1950
  store double %mul324, double* %r7, align 8, !dbg !1950
  br label %sw.epilog, !dbg !1950

sw.bb325:                                         ; preds = %while.body
  %335 = load double, double* %r0, align 8, !dbg !1950
  %336 = load double, double* %r4, align 8, !dbg !1950
  %mul326 = fmul double %335, %336, !dbg !1950
  store double %mul326, double* %r0, align 8, !dbg !1950
  br label %sw.epilog, !dbg !1950

sw.bb327:                                         ; preds = %while.body
  %337 = load double, double* %r1, align 8, !dbg !1950
  %338 = load double, double* %r4, align 8, !dbg !1950
  %mul328 = fmul double %337, %338, !dbg !1950
  store double %mul328, double* %r1, align 8, !dbg !1950
  br label %sw.epilog, !dbg !1950

sw.bb329:                                         ; preds = %while.body
  %339 = load double, double* %r2, align 8, !dbg !1950
  %340 = load double, double* %r4, align 8, !dbg !1950
  %mul330 = fmul double %339, %340, !dbg !1950
  store double %mul330, double* %r2, align 8, !dbg !1950
  br label %sw.epilog, !dbg !1950

sw.bb331:                                         ; preds = %while.body
  %341 = load double, double* %r3, align 8, !dbg !1950
  %342 = load double, double* %r4, align 8, !dbg !1950
  %mul332 = fmul double %341, %342, !dbg !1950
  store double %mul332, double* %r3, align 8, !dbg !1950
  br label %sw.epilog, !dbg !1950

sw.bb333:                                         ; preds = %while.body
  %343 = load double, double* %r4, align 8, !dbg !1950
  %344 = load double, double* %r4, align 8, !dbg !1950
  %mul334 = fmul double %343, %344, !dbg !1950
  store double %mul334, double* %r4, align 8, !dbg !1950
  br label %sw.epilog, !dbg !1950

sw.bb335:                                         ; preds = %while.body
  %345 = load double, double* %r5, align 8, !dbg !1950
  %346 = load double, double* %r4, align 8, !dbg !1950
  %mul336 = fmul double %345, %346, !dbg !1950
  store double %mul336, double* %r5, align 8, !dbg !1950
  br label %sw.epilog, !dbg !1950

sw.bb337:                                         ; preds = %while.body
  %347 = load double, double* %r6, align 8, !dbg !1950
  %348 = load double, double* %r4, align 8, !dbg !1950
  %mul338 = fmul double %347, %348, !dbg !1950
  store double %mul338, double* %r6, align 8, !dbg !1950
  br label %sw.epilog, !dbg !1950

sw.bb339:                                         ; preds = %while.body
  %349 = load double, double* %r7, align 8, !dbg !1950
  %350 = load double, double* %r4, align 8, !dbg !1950
  %mul340 = fmul double %349, %350, !dbg !1950
  store double %mul340, double* %r7, align 8, !dbg !1950
  br label %sw.epilog, !dbg !1950

sw.bb341:                                         ; preds = %while.body
  %351 = load double, double* %r0, align 8, !dbg !1950
  %352 = load double, double* %r5, align 8, !dbg !1950
  %mul342 = fmul double %351, %352, !dbg !1950
  store double %mul342, double* %r0, align 8, !dbg !1950
  br label %sw.epilog, !dbg !1950

sw.bb343:                                         ; preds = %while.body
  %353 = load double, double* %r1, align 8, !dbg !1950
  %354 = load double, double* %r5, align 8, !dbg !1950
  %mul344 = fmul double %353, %354, !dbg !1950
  store double %mul344, double* %r1, align 8, !dbg !1950
  br label %sw.epilog, !dbg !1950

sw.bb345:                                         ; preds = %while.body
  %355 = load double, double* %r2, align 8, !dbg !1950
  %356 = load double, double* %r5, align 8, !dbg !1950
  %mul346 = fmul double %355, %356, !dbg !1950
  store double %mul346, double* %r2, align 8, !dbg !1950
  br label %sw.epilog, !dbg !1950

sw.bb347:                                         ; preds = %while.body
  %357 = load double, double* %r3, align 8, !dbg !1950
  %358 = load double, double* %r5, align 8, !dbg !1950
  %mul348 = fmul double %357, %358, !dbg !1950
  store double %mul348, double* %r3, align 8, !dbg !1950
  br label %sw.epilog, !dbg !1950

sw.bb349:                                         ; preds = %while.body
  %359 = load double, double* %r4, align 8, !dbg !1950
  %360 = load double, double* %r5, align 8, !dbg !1950
  %mul350 = fmul double %359, %360, !dbg !1950
  store double %mul350, double* %r4, align 8, !dbg !1950
  br label %sw.epilog, !dbg !1950

sw.bb351:                                         ; preds = %while.body
  %361 = load double, double* %r5, align 8, !dbg !1950
  %362 = load double, double* %r5, align 8, !dbg !1950
  %mul352 = fmul double %361, %362, !dbg !1950
  store double %mul352, double* %r5, align 8, !dbg !1950
  br label %sw.epilog, !dbg !1950

sw.bb353:                                         ; preds = %while.body
  %363 = load double, double* %r6, align 8, !dbg !1950
  %364 = load double, double* %r5, align 8, !dbg !1950
  %mul354 = fmul double %363, %364, !dbg !1950
  store double %mul354, double* %r6, align 8, !dbg !1950
  br label %sw.epilog, !dbg !1950

sw.bb355:                                         ; preds = %while.body
  %365 = load double, double* %r7, align 8, !dbg !1950
  %366 = load double, double* %r5, align 8, !dbg !1950
  %mul356 = fmul double %365, %366, !dbg !1950
  store double %mul356, double* %r7, align 8, !dbg !1950
  br label %sw.epilog, !dbg !1950

sw.bb357:                                         ; preds = %while.body
  %367 = load double, double* %r0, align 8, !dbg !1950
  %368 = load double, double* %r6, align 8, !dbg !1950
  %mul358 = fmul double %367, %368, !dbg !1950
  store double %mul358, double* %r0, align 8, !dbg !1950
  br label %sw.epilog, !dbg !1950

sw.bb359:                                         ; preds = %while.body
  %369 = load double, double* %r1, align 8, !dbg !1950
  %370 = load double, double* %r6, align 8, !dbg !1950
  %mul360 = fmul double %369, %370, !dbg !1950
  store double %mul360, double* %r1, align 8, !dbg !1950
  br label %sw.epilog, !dbg !1950

sw.bb361:                                         ; preds = %while.body
  %371 = load double, double* %r2, align 8, !dbg !1950
  %372 = load double, double* %r6, align 8, !dbg !1950
  %mul362 = fmul double %371, %372, !dbg !1950
  store double %mul362, double* %r2, align 8, !dbg !1950
  br label %sw.epilog, !dbg !1950

sw.bb363:                                         ; preds = %while.body
  %373 = load double, double* %r3, align 8, !dbg !1950
  %374 = load double, double* %r6, align 8, !dbg !1950
  %mul364 = fmul double %373, %374, !dbg !1950
  store double %mul364, double* %r3, align 8, !dbg !1950
  br label %sw.epilog, !dbg !1950

sw.bb365:                                         ; preds = %while.body
  %375 = load double, double* %r4, align 8, !dbg !1950
  %376 = load double, double* %r6, align 8, !dbg !1950
  %mul366 = fmul double %375, %376, !dbg !1950
  store double %mul366, double* %r4, align 8, !dbg !1950
  br label %sw.epilog, !dbg !1950

sw.bb367:                                         ; preds = %while.body
  %377 = load double, double* %r5, align 8, !dbg !1950
  %378 = load double, double* %r6, align 8, !dbg !1950
  %mul368 = fmul double %377, %378, !dbg !1950
  store double %mul368, double* %r5, align 8, !dbg !1950
  br label %sw.epilog, !dbg !1950

sw.bb369:                                         ; preds = %while.body
  %379 = load double, double* %r6, align 8, !dbg !1950
  %380 = load double, double* %r6, align 8, !dbg !1950
  %mul370 = fmul double %379, %380, !dbg !1950
  store double %mul370, double* %r6, align 8, !dbg !1950
  br label %sw.epilog, !dbg !1950

sw.bb371:                                         ; preds = %while.body
  %381 = load double, double* %r7, align 8, !dbg !1950
  %382 = load double, double* %r6, align 8, !dbg !1950
  %mul372 = fmul double %381, %382, !dbg !1950
  store double %mul372, double* %r7, align 8, !dbg !1950
  br label %sw.epilog, !dbg !1950

sw.bb373:                                         ; preds = %while.body
  %383 = load double, double* %r0, align 8, !dbg !1950
  %384 = load double, double* %r7, align 8, !dbg !1950
  %mul374 = fmul double %383, %384, !dbg !1950
  store double %mul374, double* %r0, align 8, !dbg !1950
  br label %sw.epilog, !dbg !1950

sw.bb375:                                         ; preds = %while.body
  %385 = load double, double* %r1, align 8, !dbg !1950
  %386 = load double, double* %r7, align 8, !dbg !1950
  %mul376 = fmul double %385, %386, !dbg !1950
  store double %mul376, double* %r1, align 8, !dbg !1950
  br label %sw.epilog, !dbg !1950

sw.bb377:                                         ; preds = %while.body
  %387 = load double, double* %r2, align 8, !dbg !1950
  %388 = load double, double* %r7, align 8, !dbg !1950
  %mul378 = fmul double %387, %388, !dbg !1950
  store double %mul378, double* %r2, align 8, !dbg !1950
  br label %sw.epilog, !dbg !1950

sw.bb379:                                         ; preds = %while.body
  %389 = load double, double* %r3, align 8, !dbg !1950
  %390 = load double, double* %r7, align 8, !dbg !1950
  %mul380 = fmul double %389, %390, !dbg !1950
  store double %mul380, double* %r3, align 8, !dbg !1950
  br label %sw.epilog, !dbg !1950

sw.bb381:                                         ; preds = %while.body
  %391 = load double, double* %r4, align 8, !dbg !1950
  %392 = load double, double* %r7, align 8, !dbg !1950
  %mul382 = fmul double %391, %392, !dbg !1950
  store double %mul382, double* %r4, align 8, !dbg !1950
  br label %sw.epilog, !dbg !1950

sw.bb383:                                         ; preds = %while.body
  %393 = load double, double* %r5, align 8, !dbg !1950
  %394 = load double, double* %r7, align 8, !dbg !1950
  %mul384 = fmul double %393, %394, !dbg !1950
  store double %mul384, double* %r5, align 8, !dbg !1950
  br label %sw.epilog, !dbg !1950

sw.bb385:                                         ; preds = %while.body
  %395 = load double, double* %r6, align 8, !dbg !1950
  %396 = load double, double* %r7, align 8, !dbg !1950
  %mul386 = fmul double %395, %396, !dbg !1950
  store double %mul386, double* %r6, align 8, !dbg !1950
  br label %sw.epilog, !dbg !1950

sw.bb387:                                         ; preds = %while.body
  %397 = load double, double* %r7, align 8, !dbg !1950
  %398 = load double, double* %r7, align 8, !dbg !1950
  %mul388 = fmul double %397, %398, !dbg !1950
  store double %mul388, double* %r7, align 8, !dbg !1950
  br label %sw.epilog, !dbg !1950

sw.bb389:                                         ; preds = %while.body
  %399 = load double, double* %r0, align 8, !dbg !1951
  %400 = load double, double* %r0, align 8, !dbg !1951
  %div = fdiv double %399, %400, !dbg !1951
  store double %div, double* %r0, align 8, !dbg !1951
  br label %sw.epilog, !dbg !1951

sw.bb390:                                         ; preds = %while.body
  %401 = load double, double* %r1, align 8, !dbg !1951
  %402 = load double, double* %r0, align 8, !dbg !1951
  %div391 = fdiv double %401, %402, !dbg !1951
  store double %div391, double* %r1, align 8, !dbg !1951
  br label %sw.epilog, !dbg !1951

sw.bb392:                                         ; preds = %while.body
  %403 = load double, double* %r2, align 8, !dbg !1951
  %404 = load double, double* %r0, align 8, !dbg !1951
  %div393 = fdiv double %403, %404, !dbg !1951
  store double %div393, double* %r2, align 8, !dbg !1951
  br label %sw.epilog, !dbg !1951

sw.bb394:                                         ; preds = %while.body
  %405 = load double, double* %r3, align 8, !dbg !1951
  %406 = load double, double* %r0, align 8, !dbg !1951
  %div395 = fdiv double %405, %406, !dbg !1951
  store double %div395, double* %r3, align 8, !dbg !1951
  br label %sw.epilog, !dbg !1951

sw.bb396:                                         ; preds = %while.body
  %407 = load double, double* %r4, align 8, !dbg !1951
  %408 = load double, double* %r0, align 8, !dbg !1951
  %div397 = fdiv double %407, %408, !dbg !1951
  store double %div397, double* %r4, align 8, !dbg !1951
  br label %sw.epilog, !dbg !1951

sw.bb398:                                         ; preds = %while.body
  %409 = load double, double* %r5, align 8, !dbg !1951
  %410 = load double, double* %r0, align 8, !dbg !1951
  %div399 = fdiv double %409, %410, !dbg !1951
  store double %div399, double* %r5, align 8, !dbg !1951
  br label %sw.epilog, !dbg !1951

sw.bb400:                                         ; preds = %while.body
  %411 = load double, double* %r6, align 8, !dbg !1951
  %412 = load double, double* %r0, align 8, !dbg !1951
  %div401 = fdiv double %411, %412, !dbg !1951
  store double %div401, double* %r6, align 8, !dbg !1951
  br label %sw.epilog, !dbg !1951

sw.bb402:                                         ; preds = %while.body
  %413 = load double, double* %r7, align 8, !dbg !1951
  %414 = load double, double* %r0, align 8, !dbg !1951
  %div403 = fdiv double %413, %414, !dbg !1951
  store double %div403, double* %r7, align 8, !dbg !1951
  br label %sw.epilog, !dbg !1951

sw.bb404:                                         ; preds = %while.body
  %415 = load double, double* %r0, align 8, !dbg !1951
  %416 = load double, double* %r1, align 8, !dbg !1951
  %div405 = fdiv double %415, %416, !dbg !1951
  store double %div405, double* %r0, align 8, !dbg !1951
  br label %sw.epilog, !dbg !1951

sw.bb406:                                         ; preds = %while.body
  %417 = load double, double* %r1, align 8, !dbg !1951
  %418 = load double, double* %r1, align 8, !dbg !1951
  %div407 = fdiv double %417, %418, !dbg !1951
  store double %div407, double* %r1, align 8, !dbg !1951
  br label %sw.epilog, !dbg !1951

sw.bb408:                                         ; preds = %while.body
  %419 = load double, double* %r2, align 8, !dbg !1951
  %420 = load double, double* %r1, align 8, !dbg !1951
  %div409 = fdiv double %419, %420, !dbg !1951
  store double %div409, double* %r2, align 8, !dbg !1951
  br label %sw.epilog, !dbg !1951

sw.bb410:                                         ; preds = %while.body
  %421 = load double, double* %r3, align 8, !dbg !1951
  %422 = load double, double* %r1, align 8, !dbg !1951
  %div411 = fdiv double %421, %422, !dbg !1951
  store double %div411, double* %r3, align 8, !dbg !1951
  br label %sw.epilog, !dbg !1951

sw.bb412:                                         ; preds = %while.body
  %423 = load double, double* %r4, align 8, !dbg !1951
  %424 = load double, double* %r1, align 8, !dbg !1951
  %div413 = fdiv double %423, %424, !dbg !1951
  store double %div413, double* %r4, align 8, !dbg !1951
  br label %sw.epilog, !dbg !1951

sw.bb414:                                         ; preds = %while.body
  %425 = load double, double* %r5, align 8, !dbg !1951
  %426 = load double, double* %r1, align 8, !dbg !1951
  %div415 = fdiv double %425, %426, !dbg !1951
  store double %div415, double* %r5, align 8, !dbg !1951
  br label %sw.epilog, !dbg !1951

sw.bb416:                                         ; preds = %while.body
  %427 = load double, double* %r6, align 8, !dbg !1951
  %428 = load double, double* %r1, align 8, !dbg !1951
  %div417 = fdiv double %427, %428, !dbg !1951
  store double %div417, double* %r6, align 8, !dbg !1951
  br label %sw.epilog, !dbg !1951

sw.bb418:                                         ; preds = %while.body
  %429 = load double, double* %r7, align 8, !dbg !1951
  %430 = load double, double* %r1, align 8, !dbg !1951
  %div419 = fdiv double %429, %430, !dbg !1951
  store double %div419, double* %r7, align 8, !dbg !1951
  br label %sw.epilog, !dbg !1951

sw.bb420:                                         ; preds = %while.body
  %431 = load double, double* %r0, align 8, !dbg !1951
  %432 = load double, double* %r2, align 8, !dbg !1951
  %div421 = fdiv double %431, %432, !dbg !1951
  store double %div421, double* %r0, align 8, !dbg !1951
  br label %sw.epilog, !dbg !1951

sw.bb422:                                         ; preds = %while.body
  %433 = load double, double* %r1, align 8, !dbg !1951
  %434 = load double, double* %r2, align 8, !dbg !1951
  %div423 = fdiv double %433, %434, !dbg !1951
  store double %div423, double* %r1, align 8, !dbg !1951
  br label %sw.epilog, !dbg !1951

sw.bb424:                                         ; preds = %while.body
  %435 = load double, double* %r2, align 8, !dbg !1951
  %436 = load double, double* %r2, align 8, !dbg !1951
  %div425 = fdiv double %435, %436, !dbg !1951
  store double %div425, double* %r2, align 8, !dbg !1951
  br label %sw.epilog, !dbg !1951

sw.bb426:                                         ; preds = %while.body
  %437 = load double, double* %r3, align 8, !dbg !1951
  %438 = load double, double* %r2, align 8, !dbg !1951
  %div427 = fdiv double %437, %438, !dbg !1951
  store double %div427, double* %r3, align 8, !dbg !1951
  br label %sw.epilog, !dbg !1951

sw.bb428:                                         ; preds = %while.body
  %439 = load double, double* %r4, align 8, !dbg !1951
  %440 = load double, double* %r2, align 8, !dbg !1951
  %div429 = fdiv double %439, %440, !dbg !1951
  store double %div429, double* %r4, align 8, !dbg !1951
  br label %sw.epilog, !dbg !1951

sw.bb430:                                         ; preds = %while.body
  %441 = load double, double* %r5, align 8, !dbg !1951
  %442 = load double, double* %r2, align 8, !dbg !1951
  %div431 = fdiv double %441, %442, !dbg !1951
  store double %div431, double* %r5, align 8, !dbg !1951
  br label %sw.epilog, !dbg !1951

sw.bb432:                                         ; preds = %while.body
  %443 = load double, double* %r6, align 8, !dbg !1951
  %444 = load double, double* %r2, align 8, !dbg !1951
  %div433 = fdiv double %443, %444, !dbg !1951
  store double %div433, double* %r6, align 8, !dbg !1951
  br label %sw.epilog, !dbg !1951

sw.bb434:                                         ; preds = %while.body
  %445 = load double, double* %r7, align 8, !dbg !1951
  %446 = load double, double* %r2, align 8, !dbg !1951
  %div435 = fdiv double %445, %446, !dbg !1951
  store double %div435, double* %r7, align 8, !dbg !1951
  br label %sw.epilog, !dbg !1951

sw.bb436:                                         ; preds = %while.body
  %447 = load double, double* %r0, align 8, !dbg !1951
  %448 = load double, double* %r3, align 8, !dbg !1951
  %div437 = fdiv double %447, %448, !dbg !1951
  store double %div437, double* %r0, align 8, !dbg !1951
  br label %sw.epilog, !dbg !1951

sw.bb438:                                         ; preds = %while.body
  %449 = load double, double* %r1, align 8, !dbg !1951
  %450 = load double, double* %r3, align 8, !dbg !1951
  %div439 = fdiv double %449, %450, !dbg !1951
  store double %div439, double* %r1, align 8, !dbg !1951
  br label %sw.epilog, !dbg !1951

sw.bb440:                                         ; preds = %while.body
  %451 = load double, double* %r2, align 8, !dbg !1951
  %452 = load double, double* %r3, align 8, !dbg !1951
  %div441 = fdiv double %451, %452, !dbg !1951
  store double %div441, double* %r2, align 8, !dbg !1951
  br label %sw.epilog, !dbg !1951

sw.bb442:                                         ; preds = %while.body
  %453 = load double, double* %r3, align 8, !dbg !1951
  %454 = load double, double* %r3, align 8, !dbg !1951
  %div443 = fdiv double %453, %454, !dbg !1951
  store double %div443, double* %r3, align 8, !dbg !1951
  br label %sw.epilog, !dbg !1951

sw.bb444:                                         ; preds = %while.body
  %455 = load double, double* %r4, align 8, !dbg !1951
  %456 = load double, double* %r3, align 8, !dbg !1951
  %div445 = fdiv double %455, %456, !dbg !1951
  store double %div445, double* %r4, align 8, !dbg !1951
  br label %sw.epilog, !dbg !1951

sw.bb446:                                         ; preds = %while.body
  %457 = load double, double* %r5, align 8, !dbg !1951
  %458 = load double, double* %r3, align 8, !dbg !1951
  %div447 = fdiv double %457, %458, !dbg !1951
  store double %div447, double* %r5, align 8, !dbg !1951
  br label %sw.epilog, !dbg !1951

sw.bb448:                                         ; preds = %while.body
  %459 = load double, double* %r6, align 8, !dbg !1951
  %460 = load double, double* %r3, align 8, !dbg !1951
  %div449 = fdiv double %459, %460, !dbg !1951
  store double %div449, double* %r6, align 8, !dbg !1951
  br label %sw.epilog, !dbg !1951

sw.bb450:                                         ; preds = %while.body
  %461 = load double, double* %r7, align 8, !dbg !1951
  %462 = load double, double* %r3, align 8, !dbg !1951
  %div451 = fdiv double %461, %462, !dbg !1951
  store double %div451, double* %r7, align 8, !dbg !1951
  br label %sw.epilog, !dbg !1951

sw.bb452:                                         ; preds = %while.body
  %463 = load double, double* %r0, align 8, !dbg !1951
  %464 = load double, double* %r4, align 8, !dbg !1951
  %div453 = fdiv double %463, %464, !dbg !1951
  store double %div453, double* %r0, align 8, !dbg !1951
  br label %sw.epilog, !dbg !1951

sw.bb454:                                         ; preds = %while.body
  %465 = load double, double* %r1, align 8, !dbg !1951
  %466 = load double, double* %r4, align 8, !dbg !1951
  %div455 = fdiv double %465, %466, !dbg !1951
  store double %div455, double* %r1, align 8, !dbg !1951
  br label %sw.epilog, !dbg !1951

sw.bb456:                                         ; preds = %while.body
  %467 = load double, double* %r2, align 8, !dbg !1951
  %468 = load double, double* %r4, align 8, !dbg !1951
  %div457 = fdiv double %467, %468, !dbg !1951
  store double %div457, double* %r2, align 8, !dbg !1951
  br label %sw.epilog, !dbg !1951

sw.bb458:                                         ; preds = %while.body
  %469 = load double, double* %r3, align 8, !dbg !1951
  %470 = load double, double* %r4, align 8, !dbg !1951
  %div459 = fdiv double %469, %470, !dbg !1951
  store double %div459, double* %r3, align 8, !dbg !1951
  br label %sw.epilog, !dbg !1951

sw.bb460:                                         ; preds = %while.body
  %471 = load double, double* %r4, align 8, !dbg !1951
  %472 = load double, double* %r4, align 8, !dbg !1951
  %div461 = fdiv double %471, %472, !dbg !1951
  store double %div461, double* %r4, align 8, !dbg !1951
  br label %sw.epilog, !dbg !1951

sw.bb462:                                         ; preds = %while.body
  %473 = load double, double* %r5, align 8, !dbg !1951
  %474 = load double, double* %r4, align 8, !dbg !1951
  %div463 = fdiv double %473, %474, !dbg !1951
  store double %div463, double* %r5, align 8, !dbg !1951
  br label %sw.epilog, !dbg !1951

sw.bb464:                                         ; preds = %while.body
  %475 = load double, double* %r6, align 8, !dbg !1951
  %476 = load double, double* %r4, align 8, !dbg !1951
  %div465 = fdiv double %475, %476, !dbg !1951
  store double %div465, double* %r6, align 8, !dbg !1951
  br label %sw.epilog, !dbg !1951

sw.bb466:                                         ; preds = %while.body
  %477 = load double, double* %r7, align 8, !dbg !1951
  %478 = load double, double* %r4, align 8, !dbg !1951
  %div467 = fdiv double %477, %478, !dbg !1951
  store double %div467, double* %r7, align 8, !dbg !1951
  br label %sw.epilog, !dbg !1951

sw.bb468:                                         ; preds = %while.body
  %479 = load double, double* %r0, align 8, !dbg !1951
  %480 = load double, double* %r5, align 8, !dbg !1951
  %div469 = fdiv double %479, %480, !dbg !1951
  store double %div469, double* %r0, align 8, !dbg !1951
  br label %sw.epilog, !dbg !1951

sw.bb470:                                         ; preds = %while.body
  %481 = load double, double* %r1, align 8, !dbg !1951
  %482 = load double, double* %r5, align 8, !dbg !1951
  %div471 = fdiv double %481, %482, !dbg !1951
  store double %div471, double* %r1, align 8, !dbg !1951
  br label %sw.epilog, !dbg !1951

sw.bb472:                                         ; preds = %while.body
  %483 = load double, double* %r2, align 8, !dbg !1951
  %484 = load double, double* %r5, align 8, !dbg !1951
  %div473 = fdiv double %483, %484, !dbg !1951
  store double %div473, double* %r2, align 8, !dbg !1951
  br label %sw.epilog, !dbg !1951

sw.bb474:                                         ; preds = %while.body
  %485 = load double, double* %r3, align 8, !dbg !1951
  %486 = load double, double* %r5, align 8, !dbg !1951
  %div475 = fdiv double %485, %486, !dbg !1951
  store double %div475, double* %r3, align 8, !dbg !1951
  br label %sw.epilog, !dbg !1951

sw.bb476:                                         ; preds = %while.body
  %487 = load double, double* %r4, align 8, !dbg !1951
  %488 = load double, double* %r5, align 8, !dbg !1951
  %div477 = fdiv double %487, %488, !dbg !1951
  store double %div477, double* %r4, align 8, !dbg !1951
  br label %sw.epilog, !dbg !1951

sw.bb478:                                         ; preds = %while.body
  %489 = load double, double* %r5, align 8, !dbg !1951
  %490 = load double, double* %r5, align 8, !dbg !1951
  %div479 = fdiv double %489, %490, !dbg !1951
  store double %div479, double* %r5, align 8, !dbg !1951
  br label %sw.epilog, !dbg !1951

sw.bb480:                                         ; preds = %while.body
  %491 = load double, double* %r6, align 8, !dbg !1951
  %492 = load double, double* %r5, align 8, !dbg !1951
  %div481 = fdiv double %491, %492, !dbg !1951
  store double %div481, double* %r6, align 8, !dbg !1951
  br label %sw.epilog, !dbg !1951

sw.bb482:                                         ; preds = %while.body
  %493 = load double, double* %r7, align 8, !dbg !1951
  %494 = load double, double* %r5, align 8, !dbg !1951
  %div483 = fdiv double %493, %494, !dbg !1951
  store double %div483, double* %r7, align 8, !dbg !1951
  br label %sw.epilog, !dbg !1951

sw.bb484:                                         ; preds = %while.body
  %495 = load double, double* %r0, align 8, !dbg !1951
  %496 = load double, double* %r6, align 8, !dbg !1951
  %div485 = fdiv double %495, %496, !dbg !1951
  store double %div485, double* %r0, align 8, !dbg !1951
  br label %sw.epilog, !dbg !1951

sw.bb486:                                         ; preds = %while.body
  %497 = load double, double* %r1, align 8, !dbg !1951
  %498 = load double, double* %r6, align 8, !dbg !1951
  %div487 = fdiv double %497, %498, !dbg !1951
  store double %div487, double* %r1, align 8, !dbg !1951
  br label %sw.epilog, !dbg !1951

sw.bb488:                                         ; preds = %while.body
  %499 = load double, double* %r2, align 8, !dbg !1951
  %500 = load double, double* %r6, align 8, !dbg !1951
  %div489 = fdiv double %499, %500, !dbg !1951
  store double %div489, double* %r2, align 8, !dbg !1951
  br label %sw.epilog, !dbg !1951

sw.bb490:                                         ; preds = %while.body
  %501 = load double, double* %r3, align 8, !dbg !1951
  %502 = load double, double* %r6, align 8, !dbg !1951
  %div491 = fdiv double %501, %502, !dbg !1951
  store double %div491, double* %r3, align 8, !dbg !1951
  br label %sw.epilog, !dbg !1951

sw.bb492:                                         ; preds = %while.body
  %503 = load double, double* %r4, align 8, !dbg !1951
  %504 = load double, double* %r6, align 8, !dbg !1951
  %div493 = fdiv double %503, %504, !dbg !1951
  store double %div493, double* %r4, align 8, !dbg !1951
  br label %sw.epilog, !dbg !1951

sw.bb494:                                         ; preds = %while.body
  %505 = load double, double* %r5, align 8, !dbg !1951
  %506 = load double, double* %r6, align 8, !dbg !1951
  %div495 = fdiv double %505, %506, !dbg !1951
  store double %div495, double* %r5, align 8, !dbg !1951
  br label %sw.epilog, !dbg !1951

sw.bb496:                                         ; preds = %while.body
  %507 = load double, double* %r6, align 8, !dbg !1951
  %508 = load double, double* %r6, align 8, !dbg !1951
  %div497 = fdiv double %507, %508, !dbg !1951
  store double %div497, double* %r6, align 8, !dbg !1951
  br label %sw.epilog, !dbg !1951

sw.bb498:                                         ; preds = %while.body
  %509 = load double, double* %r7, align 8, !dbg !1951
  %510 = load double, double* %r6, align 8, !dbg !1951
  %div499 = fdiv double %509, %510, !dbg !1951
  store double %div499, double* %r7, align 8, !dbg !1951
  br label %sw.epilog, !dbg !1951

sw.bb500:                                         ; preds = %while.body
  %511 = load double, double* %r0, align 8, !dbg !1951
  %512 = load double, double* %r7, align 8, !dbg !1951
  %div501 = fdiv double %511, %512, !dbg !1951
  store double %div501, double* %r0, align 8, !dbg !1951
  br label %sw.epilog, !dbg !1951

sw.bb502:                                         ; preds = %while.body
  %513 = load double, double* %r1, align 8, !dbg !1951
  %514 = load double, double* %r7, align 8, !dbg !1951
  %div503 = fdiv double %513, %514, !dbg !1951
  store double %div503, double* %r1, align 8, !dbg !1951
  br label %sw.epilog, !dbg !1951

sw.bb504:                                         ; preds = %while.body
  %515 = load double, double* %r2, align 8, !dbg !1951
  %516 = load double, double* %r7, align 8, !dbg !1951
  %div505 = fdiv double %515, %516, !dbg !1951
  store double %div505, double* %r2, align 8, !dbg !1951
  br label %sw.epilog, !dbg !1951

sw.bb506:                                         ; preds = %while.body
  %517 = load double, double* %r3, align 8, !dbg !1951
  %518 = load double, double* %r7, align 8, !dbg !1951
  %div507 = fdiv double %517, %518, !dbg !1951
  store double %div507, double* %r3, align 8, !dbg !1951
  br label %sw.epilog, !dbg !1951

sw.bb508:                                         ; preds = %while.body
  %519 = load double, double* %r4, align 8, !dbg !1951
  %520 = load double, double* %r7, align 8, !dbg !1951
  %div509 = fdiv double %519, %520, !dbg !1951
  store double %div509, double* %r4, align 8, !dbg !1951
  br label %sw.epilog, !dbg !1951

sw.bb510:                                         ; preds = %while.body
  %521 = load double, double* %r5, align 8, !dbg !1951
  %522 = load double, double* %r7, align 8, !dbg !1951
  %div511 = fdiv double %521, %522, !dbg !1951
  store double %div511, double* %r5, align 8, !dbg !1951
  br label %sw.epilog, !dbg !1951

sw.bb512:                                         ; preds = %while.body
  %523 = load double, double* %r6, align 8, !dbg !1951
  %524 = load double, double* %r7, align 8, !dbg !1951
  %div513 = fdiv double %523, %524, !dbg !1951
  store double %div513, double* %r6, align 8, !dbg !1951
  br label %sw.epilog, !dbg !1951

sw.bb514:                                         ; preds = %while.body
  %525 = load double, double* %r7, align 8, !dbg !1951
  %526 = load double, double* %r7, align 8, !dbg !1951
  %div515 = fdiv double %525, %526, !dbg !1951
  store double %div515, double* %r7, align 8, !dbg !1951
  br label %sw.epilog, !dbg !1951

sw.bb516:                                         ; preds = %while.body
  %527 = load double, double* %r0, align 8, !dbg !1952
  %528 = load double, double* %r0, align 8, !dbg !1952
  %call = call double @fmod(double %527, double %528) #7, !dbg !1952
  store double %call, double* %r0, align 8, !dbg !1952
  br label %sw.epilog, !dbg !1952

sw.bb517:                                         ; preds = %while.body
  %529 = load double, double* %r1, align 8, !dbg !1952
  %530 = load double, double* %r0, align 8, !dbg !1952
  %call518 = call double @fmod(double %529, double %530) #7, !dbg !1952
  store double %call518, double* %r1, align 8, !dbg !1952
  br label %sw.epilog, !dbg !1952

sw.bb519:                                         ; preds = %while.body
  %531 = load double, double* %r2, align 8, !dbg !1952
  %532 = load double, double* %r0, align 8, !dbg !1952
  %call520 = call double @fmod(double %531, double %532) #7, !dbg !1952
  store double %call520, double* %r2, align 8, !dbg !1952
  br label %sw.epilog, !dbg !1952

sw.bb521:                                         ; preds = %while.body
  %533 = load double, double* %r3, align 8, !dbg !1952
  %534 = load double, double* %r0, align 8, !dbg !1952
  %call522 = call double @fmod(double %533, double %534) #7, !dbg !1952
  store double %call522, double* %r3, align 8, !dbg !1952
  br label %sw.epilog, !dbg !1952

sw.bb523:                                         ; preds = %while.body
  %535 = load double, double* %r4, align 8, !dbg !1952
  %536 = load double, double* %r0, align 8, !dbg !1952
  %call524 = call double @fmod(double %535, double %536) #7, !dbg !1952
  store double %call524, double* %r4, align 8, !dbg !1952
  br label %sw.epilog, !dbg !1952

sw.bb525:                                         ; preds = %while.body
  %537 = load double, double* %r5, align 8, !dbg !1952
  %538 = load double, double* %r0, align 8, !dbg !1952
  %call526 = call double @fmod(double %537, double %538) #7, !dbg !1952
  store double %call526, double* %r5, align 8, !dbg !1952
  br label %sw.epilog, !dbg !1952

sw.bb527:                                         ; preds = %while.body
  %539 = load double, double* %r6, align 8, !dbg !1952
  %540 = load double, double* %r0, align 8, !dbg !1952
  %call528 = call double @fmod(double %539, double %540) #7, !dbg !1952
  store double %call528, double* %r6, align 8, !dbg !1952
  br label %sw.epilog, !dbg !1952

sw.bb529:                                         ; preds = %while.body
  %541 = load double, double* %r7, align 8, !dbg !1952
  %542 = load double, double* %r0, align 8, !dbg !1952
  %call530 = call double @fmod(double %541, double %542) #7, !dbg !1952
  store double %call530, double* %r7, align 8, !dbg !1952
  br label %sw.epilog, !dbg !1952

sw.bb531:                                         ; preds = %while.body
  %543 = load double, double* %r0, align 8, !dbg !1952
  %544 = load double, double* %r1, align 8, !dbg !1952
  %call532 = call double @fmod(double %543, double %544) #7, !dbg !1952
  store double %call532, double* %r0, align 8, !dbg !1952
  br label %sw.epilog, !dbg !1952

sw.bb533:                                         ; preds = %while.body
  %545 = load double, double* %r1, align 8, !dbg !1952
  %546 = load double, double* %r1, align 8, !dbg !1952
  %call534 = call double @fmod(double %545, double %546) #7, !dbg !1952
  store double %call534, double* %r1, align 8, !dbg !1952
  br label %sw.epilog, !dbg !1952

sw.bb535:                                         ; preds = %while.body
  %547 = load double, double* %r2, align 8, !dbg !1952
  %548 = load double, double* %r1, align 8, !dbg !1952
  %call536 = call double @fmod(double %547, double %548) #7, !dbg !1952
  store double %call536, double* %r2, align 8, !dbg !1952
  br label %sw.epilog, !dbg !1952

sw.bb537:                                         ; preds = %while.body
  %549 = load double, double* %r3, align 8, !dbg !1952
  %550 = load double, double* %r1, align 8, !dbg !1952
  %call538 = call double @fmod(double %549, double %550) #7, !dbg !1952
  store double %call538, double* %r3, align 8, !dbg !1952
  br label %sw.epilog, !dbg !1952

sw.bb539:                                         ; preds = %while.body
  %551 = load double, double* %r4, align 8, !dbg !1952
  %552 = load double, double* %r1, align 8, !dbg !1952
  %call540 = call double @fmod(double %551, double %552) #7, !dbg !1952
  store double %call540, double* %r4, align 8, !dbg !1952
  br label %sw.epilog, !dbg !1952

sw.bb541:                                         ; preds = %while.body
  %553 = load double, double* %r5, align 8, !dbg !1952
  %554 = load double, double* %r1, align 8, !dbg !1952
  %call542 = call double @fmod(double %553, double %554) #7, !dbg !1952
  store double %call542, double* %r5, align 8, !dbg !1952
  br label %sw.epilog, !dbg !1952

sw.bb543:                                         ; preds = %while.body
  %555 = load double, double* %r6, align 8, !dbg !1952
  %556 = load double, double* %r1, align 8, !dbg !1952
  %call544 = call double @fmod(double %555, double %556) #7, !dbg !1952
  store double %call544, double* %r6, align 8, !dbg !1952
  br label %sw.epilog, !dbg !1952

sw.bb545:                                         ; preds = %while.body
  %557 = load double, double* %r7, align 8, !dbg !1952
  %558 = load double, double* %r1, align 8, !dbg !1952
  %call546 = call double @fmod(double %557, double %558) #7, !dbg !1952
  store double %call546, double* %r7, align 8, !dbg !1952
  br label %sw.epilog, !dbg !1952

sw.bb547:                                         ; preds = %while.body
  %559 = load double, double* %r0, align 8, !dbg !1952
  %560 = load double, double* %r2, align 8, !dbg !1952
  %call548 = call double @fmod(double %559, double %560) #7, !dbg !1952
  store double %call548, double* %r0, align 8, !dbg !1952
  br label %sw.epilog, !dbg !1952

sw.bb549:                                         ; preds = %while.body
  %561 = load double, double* %r1, align 8, !dbg !1952
  %562 = load double, double* %r2, align 8, !dbg !1952
  %call550 = call double @fmod(double %561, double %562) #7, !dbg !1952
  store double %call550, double* %r1, align 8, !dbg !1952
  br label %sw.epilog, !dbg !1952

sw.bb551:                                         ; preds = %while.body
  %563 = load double, double* %r2, align 8, !dbg !1952
  %564 = load double, double* %r2, align 8, !dbg !1952
  %call552 = call double @fmod(double %563, double %564) #7, !dbg !1952
  store double %call552, double* %r2, align 8, !dbg !1952
  br label %sw.epilog, !dbg !1952

sw.bb553:                                         ; preds = %while.body
  %565 = load double, double* %r3, align 8, !dbg !1952
  %566 = load double, double* %r2, align 8, !dbg !1952
  %call554 = call double @fmod(double %565, double %566) #7, !dbg !1952
  store double %call554, double* %r3, align 8, !dbg !1952
  br label %sw.epilog, !dbg !1952

sw.bb555:                                         ; preds = %while.body
  %567 = load double, double* %r4, align 8, !dbg !1952
  %568 = load double, double* %r2, align 8, !dbg !1952
  %call556 = call double @fmod(double %567, double %568) #7, !dbg !1952
  store double %call556, double* %r4, align 8, !dbg !1952
  br label %sw.epilog, !dbg !1952

sw.bb557:                                         ; preds = %while.body
  %569 = load double, double* %r5, align 8, !dbg !1952
  %570 = load double, double* %r2, align 8, !dbg !1952
  %call558 = call double @fmod(double %569, double %570) #7, !dbg !1952
  store double %call558, double* %r5, align 8, !dbg !1952
  br label %sw.epilog, !dbg !1952

sw.bb559:                                         ; preds = %while.body
  %571 = load double, double* %r6, align 8, !dbg !1952
  %572 = load double, double* %r2, align 8, !dbg !1952
  %call560 = call double @fmod(double %571, double %572) #7, !dbg !1952
  store double %call560, double* %r6, align 8, !dbg !1952
  br label %sw.epilog, !dbg !1952

sw.bb561:                                         ; preds = %while.body
  %573 = load double, double* %r7, align 8, !dbg !1952
  %574 = load double, double* %r2, align 8, !dbg !1952
  %call562 = call double @fmod(double %573, double %574) #7, !dbg !1952
  store double %call562, double* %r7, align 8, !dbg !1952
  br label %sw.epilog, !dbg !1952

sw.bb563:                                         ; preds = %while.body
  %575 = load double, double* %r0, align 8, !dbg !1952
  %576 = load double, double* %r3, align 8, !dbg !1952
  %call564 = call double @fmod(double %575, double %576) #7, !dbg !1952
  store double %call564, double* %r0, align 8, !dbg !1952
  br label %sw.epilog, !dbg !1952

sw.bb565:                                         ; preds = %while.body
  %577 = load double, double* %r1, align 8, !dbg !1952
  %578 = load double, double* %r3, align 8, !dbg !1952
  %call566 = call double @fmod(double %577, double %578) #7, !dbg !1952
  store double %call566, double* %r1, align 8, !dbg !1952
  br label %sw.epilog, !dbg !1952

sw.bb567:                                         ; preds = %while.body
  %579 = load double, double* %r2, align 8, !dbg !1952
  %580 = load double, double* %r3, align 8, !dbg !1952
  %call568 = call double @fmod(double %579, double %580) #7, !dbg !1952
  store double %call568, double* %r2, align 8, !dbg !1952
  br label %sw.epilog, !dbg !1952

sw.bb569:                                         ; preds = %while.body
  %581 = load double, double* %r3, align 8, !dbg !1952
  %582 = load double, double* %r3, align 8, !dbg !1952
  %call570 = call double @fmod(double %581, double %582) #7, !dbg !1952
  store double %call570, double* %r3, align 8, !dbg !1952
  br label %sw.epilog, !dbg !1952

sw.bb571:                                         ; preds = %while.body
  %583 = load double, double* %r4, align 8, !dbg !1952
  %584 = load double, double* %r3, align 8, !dbg !1952
  %call572 = call double @fmod(double %583, double %584) #7, !dbg !1952
  store double %call572, double* %r4, align 8, !dbg !1952
  br label %sw.epilog, !dbg !1952

sw.bb573:                                         ; preds = %while.body
  %585 = load double, double* %r5, align 8, !dbg !1952
  %586 = load double, double* %r3, align 8, !dbg !1952
  %call574 = call double @fmod(double %585, double %586) #7, !dbg !1952
  store double %call574, double* %r5, align 8, !dbg !1952
  br label %sw.epilog, !dbg !1952

sw.bb575:                                         ; preds = %while.body
  %587 = load double, double* %r6, align 8, !dbg !1952
  %588 = load double, double* %r3, align 8, !dbg !1952
  %call576 = call double @fmod(double %587, double %588) #7, !dbg !1952
  store double %call576, double* %r6, align 8, !dbg !1952
  br label %sw.epilog, !dbg !1952

sw.bb577:                                         ; preds = %while.body
  %589 = load double, double* %r7, align 8, !dbg !1952
  %590 = load double, double* %r3, align 8, !dbg !1952
  %call578 = call double @fmod(double %589, double %590) #7, !dbg !1952
  store double %call578, double* %r7, align 8, !dbg !1952
  br label %sw.epilog, !dbg !1952

sw.bb579:                                         ; preds = %while.body
  %591 = load double, double* %r0, align 8, !dbg !1952
  %592 = load double, double* %r4, align 8, !dbg !1952
  %call580 = call double @fmod(double %591, double %592) #7, !dbg !1952
  store double %call580, double* %r0, align 8, !dbg !1952
  br label %sw.epilog, !dbg !1952

sw.bb581:                                         ; preds = %while.body
  %593 = load double, double* %r1, align 8, !dbg !1952
  %594 = load double, double* %r4, align 8, !dbg !1952
  %call582 = call double @fmod(double %593, double %594) #7, !dbg !1952
  store double %call582, double* %r1, align 8, !dbg !1952
  br label %sw.epilog, !dbg !1952

sw.bb583:                                         ; preds = %while.body
  %595 = load double, double* %r2, align 8, !dbg !1952
  %596 = load double, double* %r4, align 8, !dbg !1952
  %call584 = call double @fmod(double %595, double %596) #7, !dbg !1952
  store double %call584, double* %r2, align 8, !dbg !1952
  br label %sw.epilog, !dbg !1952

sw.bb585:                                         ; preds = %while.body
  %597 = load double, double* %r3, align 8, !dbg !1952
  %598 = load double, double* %r4, align 8, !dbg !1952
  %call586 = call double @fmod(double %597, double %598) #7, !dbg !1952
  store double %call586, double* %r3, align 8, !dbg !1952
  br label %sw.epilog, !dbg !1952

sw.bb587:                                         ; preds = %while.body
  %599 = load double, double* %r4, align 8, !dbg !1952
  %600 = load double, double* %r4, align 8, !dbg !1952
  %call588 = call double @fmod(double %599, double %600) #7, !dbg !1952
  store double %call588, double* %r4, align 8, !dbg !1952
  br label %sw.epilog, !dbg !1952

sw.bb589:                                         ; preds = %while.body
  %601 = load double, double* %r5, align 8, !dbg !1952
  %602 = load double, double* %r4, align 8, !dbg !1952
  %call590 = call double @fmod(double %601, double %602) #7, !dbg !1952
  store double %call590, double* %r5, align 8, !dbg !1952
  br label %sw.epilog, !dbg !1952

sw.bb591:                                         ; preds = %while.body
  %603 = load double, double* %r6, align 8, !dbg !1952
  %604 = load double, double* %r4, align 8, !dbg !1952
  %call592 = call double @fmod(double %603, double %604) #7, !dbg !1952
  store double %call592, double* %r6, align 8, !dbg !1952
  br label %sw.epilog, !dbg !1952

sw.bb593:                                         ; preds = %while.body
  %605 = load double, double* %r7, align 8, !dbg !1952
  %606 = load double, double* %r4, align 8, !dbg !1952
  %call594 = call double @fmod(double %605, double %606) #7, !dbg !1952
  store double %call594, double* %r7, align 8, !dbg !1952
  br label %sw.epilog, !dbg !1952

sw.bb595:                                         ; preds = %while.body
  %607 = load double, double* %r0, align 8, !dbg !1952
  %608 = load double, double* %r5, align 8, !dbg !1952
  %call596 = call double @fmod(double %607, double %608) #7, !dbg !1952
  store double %call596, double* %r0, align 8, !dbg !1952
  br label %sw.epilog, !dbg !1952

sw.bb597:                                         ; preds = %while.body
  %609 = load double, double* %r1, align 8, !dbg !1952
  %610 = load double, double* %r5, align 8, !dbg !1952
  %call598 = call double @fmod(double %609, double %610) #7, !dbg !1952
  store double %call598, double* %r1, align 8, !dbg !1952
  br label %sw.epilog, !dbg !1952

sw.bb599:                                         ; preds = %while.body
  %611 = load double, double* %r2, align 8, !dbg !1952
  %612 = load double, double* %r5, align 8, !dbg !1952
  %call600 = call double @fmod(double %611, double %612) #7, !dbg !1952
  store double %call600, double* %r2, align 8, !dbg !1952
  br label %sw.epilog, !dbg !1952

sw.bb601:                                         ; preds = %while.body
  %613 = load double, double* %r3, align 8, !dbg !1952
  %614 = load double, double* %r5, align 8, !dbg !1952
  %call602 = call double @fmod(double %613, double %614) #7, !dbg !1952
  store double %call602, double* %r3, align 8, !dbg !1952
  br label %sw.epilog, !dbg !1952

sw.bb603:                                         ; preds = %while.body
  %615 = load double, double* %r4, align 8, !dbg !1952
  %616 = load double, double* %r5, align 8, !dbg !1952
  %call604 = call double @fmod(double %615, double %616) #7, !dbg !1952
  store double %call604, double* %r4, align 8, !dbg !1952
  br label %sw.epilog, !dbg !1952

sw.bb605:                                         ; preds = %while.body
  %617 = load double, double* %r5, align 8, !dbg !1952
  %618 = load double, double* %r5, align 8, !dbg !1952
  %call606 = call double @fmod(double %617, double %618) #7, !dbg !1952
  store double %call606, double* %r5, align 8, !dbg !1952
  br label %sw.epilog, !dbg !1952

sw.bb607:                                         ; preds = %while.body
  %619 = load double, double* %r6, align 8, !dbg !1952
  %620 = load double, double* %r5, align 8, !dbg !1952
  %call608 = call double @fmod(double %619, double %620) #7, !dbg !1952
  store double %call608, double* %r6, align 8, !dbg !1952
  br label %sw.epilog, !dbg !1952

sw.bb609:                                         ; preds = %while.body
  %621 = load double, double* %r7, align 8, !dbg !1952
  %622 = load double, double* %r5, align 8, !dbg !1952
  %call610 = call double @fmod(double %621, double %622) #7, !dbg !1952
  store double %call610, double* %r7, align 8, !dbg !1952
  br label %sw.epilog, !dbg !1952

sw.bb611:                                         ; preds = %while.body
  %623 = load double, double* %r0, align 8, !dbg !1952
  %624 = load double, double* %r6, align 8, !dbg !1952
  %call612 = call double @fmod(double %623, double %624) #7, !dbg !1952
  store double %call612, double* %r0, align 8, !dbg !1952
  br label %sw.epilog, !dbg !1952

sw.bb613:                                         ; preds = %while.body
  %625 = load double, double* %r1, align 8, !dbg !1952
  %626 = load double, double* %r6, align 8, !dbg !1952
  %call614 = call double @fmod(double %625, double %626) #7, !dbg !1952
  store double %call614, double* %r1, align 8, !dbg !1952
  br label %sw.epilog, !dbg !1952

sw.bb615:                                         ; preds = %while.body
  %627 = load double, double* %r2, align 8, !dbg !1952
  %628 = load double, double* %r6, align 8, !dbg !1952
  %call616 = call double @fmod(double %627, double %628) #7, !dbg !1952
  store double %call616, double* %r2, align 8, !dbg !1952
  br label %sw.epilog, !dbg !1952

sw.bb617:                                         ; preds = %while.body
  %629 = load double, double* %r3, align 8, !dbg !1952
  %630 = load double, double* %r6, align 8, !dbg !1952
  %call618 = call double @fmod(double %629, double %630) #7, !dbg !1952
  store double %call618, double* %r3, align 8, !dbg !1952
  br label %sw.epilog, !dbg !1952

sw.bb619:                                         ; preds = %while.body
  %631 = load double, double* %r4, align 8, !dbg !1952
  %632 = load double, double* %r6, align 8, !dbg !1952
  %call620 = call double @fmod(double %631, double %632) #7, !dbg !1952
  store double %call620, double* %r4, align 8, !dbg !1952
  br label %sw.epilog, !dbg !1952

sw.bb621:                                         ; preds = %while.body
  %633 = load double, double* %r5, align 8, !dbg !1952
  %634 = load double, double* %r6, align 8, !dbg !1952
  %call622 = call double @fmod(double %633, double %634) #7, !dbg !1952
  store double %call622, double* %r5, align 8, !dbg !1952
  br label %sw.epilog, !dbg !1952

sw.bb623:                                         ; preds = %while.body
  %635 = load double, double* %r6, align 8, !dbg !1952
  %636 = load double, double* %r6, align 8, !dbg !1952
  %call624 = call double @fmod(double %635, double %636) #7, !dbg !1952
  store double %call624, double* %r6, align 8, !dbg !1952
  br label %sw.epilog, !dbg !1952

sw.bb625:                                         ; preds = %while.body
  %637 = load double, double* %r7, align 8, !dbg !1952
  %638 = load double, double* %r6, align 8, !dbg !1952
  %call626 = call double @fmod(double %637, double %638) #7, !dbg !1952
  store double %call626, double* %r7, align 8, !dbg !1952
  br label %sw.epilog, !dbg !1952

sw.bb627:                                         ; preds = %while.body
  %639 = load double, double* %r0, align 8, !dbg !1952
  %640 = load double, double* %r7, align 8, !dbg !1952
  %call628 = call double @fmod(double %639, double %640) #7, !dbg !1952
  store double %call628, double* %r0, align 8, !dbg !1952
  br label %sw.epilog, !dbg !1952

sw.bb629:                                         ; preds = %while.body
  %641 = load double, double* %r1, align 8, !dbg !1952
  %642 = load double, double* %r7, align 8, !dbg !1952
  %call630 = call double @fmod(double %641, double %642) #7, !dbg !1952
  store double %call630, double* %r1, align 8, !dbg !1952
  br label %sw.epilog, !dbg !1952

sw.bb631:                                         ; preds = %while.body
  %643 = load double, double* %r2, align 8, !dbg !1952
  %644 = load double, double* %r7, align 8, !dbg !1952
  %call632 = call double @fmod(double %643, double %644) #7, !dbg !1952
  store double %call632, double* %r2, align 8, !dbg !1952
  br label %sw.epilog, !dbg !1952

sw.bb633:                                         ; preds = %while.body
  %645 = load double, double* %r3, align 8, !dbg !1952
  %646 = load double, double* %r7, align 8, !dbg !1952
  %call634 = call double @fmod(double %645, double %646) #7, !dbg !1952
  store double %call634, double* %r3, align 8, !dbg !1952
  br label %sw.epilog, !dbg !1952

sw.bb635:                                         ; preds = %while.body
  %647 = load double, double* %r4, align 8, !dbg !1952
  %648 = load double, double* %r7, align 8, !dbg !1952
  %call636 = call double @fmod(double %647, double %648) #7, !dbg !1952
  store double %call636, double* %r4, align 8, !dbg !1952
  br label %sw.epilog, !dbg !1952

sw.bb637:                                         ; preds = %while.body
  %649 = load double, double* %r5, align 8, !dbg !1952
  %650 = load double, double* %r7, align 8, !dbg !1952
  %call638 = call double @fmod(double %649, double %650) #7, !dbg !1952
  store double %call638, double* %r5, align 8, !dbg !1952
  br label %sw.epilog, !dbg !1952

sw.bb639:                                         ; preds = %while.body
  %651 = load double, double* %r6, align 8, !dbg !1952
  %652 = load double, double* %r7, align 8, !dbg !1952
  %call640 = call double @fmod(double %651, double %652) #7, !dbg !1952
  store double %call640, double* %r6, align 8, !dbg !1952
  br label %sw.epilog, !dbg !1952

sw.bb641:                                         ; preds = %while.body
  %653 = load double, double* %r7, align 8, !dbg !1952
  %654 = load double, double* %r7, align 8, !dbg !1952
  %call642 = call double @fmod(double %653, double %654) #7, !dbg !1952
  store double %call642, double* %r7, align 8, !dbg !1952
  br label %sw.epilog, !dbg !1952

sw.bb643:                                         ; preds = %while.body
  %655 = load double, double* %r0, align 8, !dbg !1953
  store double %655, double* %r0, align 8, !dbg !1953
  br label %sw.epilog, !dbg !1953

sw.bb644:                                         ; preds = %while.body
  %656 = load double, double* %r0, align 8, !dbg !1953
  store double %656, double* %r1, align 8, !dbg !1953
  br label %sw.epilog, !dbg !1953

sw.bb645:                                         ; preds = %while.body
  %657 = load double, double* %r0, align 8, !dbg !1953
  store double %657, double* %r2, align 8, !dbg !1953
  br label %sw.epilog, !dbg !1953

sw.bb646:                                         ; preds = %while.body
  %658 = load double, double* %r0, align 8, !dbg !1953
  store double %658, double* %r3, align 8, !dbg !1953
  br label %sw.epilog, !dbg !1953

sw.bb647:                                         ; preds = %while.body
  %659 = load double, double* %r0, align 8, !dbg !1953
  store double %659, double* %r4, align 8, !dbg !1953
  br label %sw.epilog, !dbg !1953

sw.bb648:                                         ; preds = %while.body
  %660 = load double, double* %r0, align 8, !dbg !1953
  store double %660, double* %r5, align 8, !dbg !1953
  br label %sw.epilog, !dbg !1953

sw.bb649:                                         ; preds = %while.body
  %661 = load double, double* %r0, align 8, !dbg !1953
  store double %661, double* %r6, align 8, !dbg !1953
  br label %sw.epilog, !dbg !1953

sw.bb650:                                         ; preds = %while.body
  %662 = load double, double* %r0, align 8, !dbg !1953
  store double %662, double* %r7, align 8, !dbg !1953
  br label %sw.epilog, !dbg !1953

sw.bb651:                                         ; preds = %while.body
  %663 = load double, double* %r1, align 8, !dbg !1954
  store double %663, double* %r0, align 8, !dbg !1954
  br label %sw.epilog, !dbg !1954

sw.bb652:                                         ; preds = %while.body
  %664 = load double, double* %r1, align 8, !dbg !1954
  store double %664, double* %r1, align 8, !dbg !1954
  br label %sw.epilog, !dbg !1954

sw.bb653:                                         ; preds = %while.body
  %665 = load double, double* %r1, align 8, !dbg !1954
  store double %665, double* %r2, align 8, !dbg !1954
  br label %sw.epilog, !dbg !1954

sw.bb654:                                         ; preds = %while.body
  %666 = load double, double* %r1, align 8, !dbg !1954
  store double %666, double* %r3, align 8, !dbg !1954
  br label %sw.epilog, !dbg !1954

sw.bb655:                                         ; preds = %while.body
  %667 = load double, double* %r1, align 8, !dbg !1954
  store double %667, double* %r4, align 8, !dbg !1954
  br label %sw.epilog, !dbg !1954

sw.bb656:                                         ; preds = %while.body
  %668 = load double, double* %r1, align 8, !dbg !1954
  store double %668, double* %r5, align 8, !dbg !1954
  br label %sw.epilog, !dbg !1954

sw.bb657:                                         ; preds = %while.body
  %669 = load double, double* %r1, align 8, !dbg !1954
  store double %669, double* %r6, align 8, !dbg !1954
  br label %sw.epilog, !dbg !1954

sw.bb658:                                         ; preds = %while.body
  %670 = load double, double* %r1, align 8, !dbg !1954
  store double %670, double* %r7, align 8, !dbg !1954
  br label %sw.epilog, !dbg !1954

sw.bb659:                                         ; preds = %while.body
  %671 = load double, double* %r2, align 8, !dbg !1955
  store double %671, double* %r0, align 8, !dbg !1955
  br label %sw.epilog, !dbg !1955

sw.bb660:                                         ; preds = %while.body
  %672 = load double, double* %r2, align 8, !dbg !1955
  store double %672, double* %r1, align 8, !dbg !1955
  br label %sw.epilog, !dbg !1955

sw.bb661:                                         ; preds = %while.body
  %673 = load double, double* %r2, align 8, !dbg !1955
  store double %673, double* %r2, align 8, !dbg !1955
  br label %sw.epilog, !dbg !1955

sw.bb662:                                         ; preds = %while.body
  %674 = load double, double* %r2, align 8, !dbg !1955
  store double %674, double* %r3, align 8, !dbg !1955
  br label %sw.epilog, !dbg !1955

sw.bb663:                                         ; preds = %while.body
  %675 = load double, double* %r2, align 8, !dbg !1955
  store double %675, double* %r4, align 8, !dbg !1955
  br label %sw.epilog, !dbg !1955

sw.bb664:                                         ; preds = %while.body
  %676 = load double, double* %r2, align 8, !dbg !1955
  store double %676, double* %r5, align 8, !dbg !1955
  br label %sw.epilog, !dbg !1955

sw.bb665:                                         ; preds = %while.body
  %677 = load double, double* %r2, align 8, !dbg !1955
  store double %677, double* %r6, align 8, !dbg !1955
  br label %sw.epilog, !dbg !1955

sw.bb666:                                         ; preds = %while.body
  %678 = load double, double* %r2, align 8, !dbg !1955
  store double %678, double* %r7, align 8, !dbg !1955
  br label %sw.epilog, !dbg !1955

sw.bb667:                                         ; preds = %while.body
  %679 = load double, double* %r3, align 8, !dbg !1956
  store double %679, double* %r0, align 8, !dbg !1956
  br label %sw.epilog, !dbg !1956

sw.bb668:                                         ; preds = %while.body
  %680 = load double, double* %r3, align 8, !dbg !1956
  store double %680, double* %r1, align 8, !dbg !1956
  br label %sw.epilog, !dbg !1956

sw.bb669:                                         ; preds = %while.body
  %681 = load double, double* %r3, align 8, !dbg !1956
  store double %681, double* %r2, align 8, !dbg !1956
  br label %sw.epilog, !dbg !1956

sw.bb670:                                         ; preds = %while.body
  %682 = load double, double* %r3, align 8, !dbg !1956
  store double %682, double* %r3, align 8, !dbg !1956
  br label %sw.epilog, !dbg !1956

sw.bb671:                                         ; preds = %while.body
  %683 = load double, double* %r3, align 8, !dbg !1956
  store double %683, double* %r4, align 8, !dbg !1956
  br label %sw.epilog, !dbg !1956

sw.bb672:                                         ; preds = %while.body
  %684 = load double, double* %r3, align 8, !dbg !1956
  store double %684, double* %r5, align 8, !dbg !1956
  br label %sw.epilog, !dbg !1956

sw.bb673:                                         ; preds = %while.body
  %685 = load double, double* %r3, align 8, !dbg !1956
  store double %685, double* %r6, align 8, !dbg !1956
  br label %sw.epilog, !dbg !1956

sw.bb674:                                         ; preds = %while.body
  %686 = load double, double* %r3, align 8, !dbg !1956
  store double %686, double* %r7, align 8, !dbg !1956
  br label %sw.epilog, !dbg !1956

sw.bb675:                                         ; preds = %while.body
  %687 = load double, double* %r4, align 8, !dbg !1957
  store double %687, double* %r0, align 8, !dbg !1957
  br label %sw.epilog, !dbg !1957

sw.bb676:                                         ; preds = %while.body
  %688 = load double, double* %r4, align 8, !dbg !1957
  store double %688, double* %r1, align 8, !dbg !1957
  br label %sw.epilog, !dbg !1957

sw.bb677:                                         ; preds = %while.body
  %689 = load double, double* %r4, align 8, !dbg !1957
  store double %689, double* %r2, align 8, !dbg !1957
  br label %sw.epilog, !dbg !1957

sw.bb678:                                         ; preds = %while.body
  %690 = load double, double* %r4, align 8, !dbg !1957
  store double %690, double* %r3, align 8, !dbg !1957
  br label %sw.epilog, !dbg !1957

sw.bb679:                                         ; preds = %while.body
  %691 = load double, double* %r4, align 8, !dbg !1957
  store double %691, double* %r4, align 8, !dbg !1957
  br label %sw.epilog, !dbg !1957

sw.bb680:                                         ; preds = %while.body
  %692 = load double, double* %r4, align 8, !dbg !1957
  store double %692, double* %r5, align 8, !dbg !1957
  br label %sw.epilog, !dbg !1957

sw.bb681:                                         ; preds = %while.body
  %693 = load double, double* %r4, align 8, !dbg !1957
  store double %693, double* %r6, align 8, !dbg !1957
  br label %sw.epilog, !dbg !1957

sw.bb682:                                         ; preds = %while.body
  %694 = load double, double* %r4, align 8, !dbg !1957
  store double %694, double* %r7, align 8, !dbg !1957
  br label %sw.epilog, !dbg !1957

sw.bb683:                                         ; preds = %while.body
  %695 = load double, double* %r5, align 8, !dbg !1958
  store double %695, double* %r0, align 8, !dbg !1958
  br label %sw.epilog, !dbg !1958

sw.bb684:                                         ; preds = %while.body
  %696 = load double, double* %r5, align 8, !dbg !1958
  store double %696, double* %r1, align 8, !dbg !1958
  br label %sw.epilog, !dbg !1958

sw.bb685:                                         ; preds = %while.body
  %697 = load double, double* %r5, align 8, !dbg !1958
  store double %697, double* %r2, align 8, !dbg !1958
  br label %sw.epilog, !dbg !1958

sw.bb686:                                         ; preds = %while.body
  %698 = load double, double* %r5, align 8, !dbg !1958
  store double %698, double* %r3, align 8, !dbg !1958
  br label %sw.epilog, !dbg !1958

sw.bb687:                                         ; preds = %while.body
  %699 = load double, double* %r5, align 8, !dbg !1958
  store double %699, double* %r4, align 8, !dbg !1958
  br label %sw.epilog, !dbg !1958

sw.bb688:                                         ; preds = %while.body
  %700 = load double, double* %r5, align 8, !dbg !1958
  store double %700, double* %r5, align 8, !dbg !1958
  br label %sw.epilog, !dbg !1958

sw.bb689:                                         ; preds = %while.body
  %701 = load double, double* %r5, align 8, !dbg !1958
  store double %701, double* %r6, align 8, !dbg !1958
  br label %sw.epilog, !dbg !1958

sw.bb690:                                         ; preds = %while.body
  %702 = load double, double* %r5, align 8, !dbg !1958
  store double %702, double* %r7, align 8, !dbg !1958
  br label %sw.epilog, !dbg !1958

sw.bb691:                                         ; preds = %while.body
  %703 = load double, double* %r6, align 8, !dbg !1959
  store double %703, double* %r0, align 8, !dbg !1959
  br label %sw.epilog, !dbg !1959

sw.bb692:                                         ; preds = %while.body
  %704 = load double, double* %r6, align 8, !dbg !1959
  store double %704, double* %r1, align 8, !dbg !1959
  br label %sw.epilog, !dbg !1959

sw.bb693:                                         ; preds = %while.body
  %705 = load double, double* %r6, align 8, !dbg !1959
  store double %705, double* %r2, align 8, !dbg !1959
  br label %sw.epilog, !dbg !1959

sw.bb694:                                         ; preds = %while.body
  %706 = load double, double* %r6, align 8, !dbg !1959
  store double %706, double* %r3, align 8, !dbg !1959
  br label %sw.epilog, !dbg !1959

sw.bb695:                                         ; preds = %while.body
  %707 = load double, double* %r6, align 8, !dbg !1959
  store double %707, double* %r4, align 8, !dbg !1959
  br label %sw.epilog, !dbg !1959

sw.bb696:                                         ; preds = %while.body
  %708 = load double, double* %r6, align 8, !dbg !1959
  store double %708, double* %r5, align 8, !dbg !1959
  br label %sw.epilog, !dbg !1959

sw.bb697:                                         ; preds = %while.body
  %709 = load double, double* %r6, align 8, !dbg !1959
  store double %709, double* %r6, align 8, !dbg !1959
  br label %sw.epilog, !dbg !1959

sw.bb698:                                         ; preds = %while.body
  %710 = load double, double* %r6, align 8, !dbg !1959
  store double %710, double* %r7, align 8, !dbg !1959
  br label %sw.epilog, !dbg !1959

sw.bb699:                                         ; preds = %while.body
  %711 = load double, double* %r7, align 8, !dbg !1960
  store double %711, double* %r0, align 8, !dbg !1960
  br label %sw.epilog, !dbg !1960

sw.bb700:                                         ; preds = %while.body
  %712 = load double, double* %r7, align 8, !dbg !1960
  store double %712, double* %r1, align 8, !dbg !1960
  br label %sw.epilog, !dbg !1960

sw.bb701:                                         ; preds = %while.body
  %713 = load double, double* %r7, align 8, !dbg !1960
  store double %713, double* %r2, align 8, !dbg !1960
  br label %sw.epilog, !dbg !1960

sw.bb702:                                         ; preds = %while.body
  %714 = load double, double* %r7, align 8, !dbg !1960
  store double %714, double* %r3, align 8, !dbg !1960
  br label %sw.epilog, !dbg !1960

sw.bb703:                                         ; preds = %while.body
  %715 = load double, double* %r7, align 8, !dbg !1960
  store double %715, double* %r4, align 8, !dbg !1960
  br label %sw.epilog, !dbg !1960

sw.bb704:                                         ; preds = %while.body
  %716 = load double, double* %r7, align 8, !dbg !1960
  store double %716, double* %r5, align 8, !dbg !1960
  br label %sw.epilog, !dbg !1960

sw.bb705:                                         ; preds = %while.body
  %717 = load double, double* %r7, align 8, !dbg !1960
  store double %717, double* %r6, align 8, !dbg !1960
  br label %sw.epilog, !dbg !1960

sw.bb706:                                         ; preds = %while.body
  %718 = load double, double* %r7, align 8, !dbg !1960
  store double %718, double* %r7, align 8, !dbg !1960
  br label %sw.epilog, !dbg !1960

sw.bb707:                                         ; preds = %while.body
  %719 = load double, double* %r0, align 8, !dbg !1961
  %720 = load double, double* %r0, align 8, !dbg !1961
  %cmp = fcmp ogt double %719, %720, !dbg !1961
  %conv = zext i1 %cmp to i32, !dbg !1961
  %and708 = and i32 %conv, 1, !dbg !1961
  %shl = shl i32 %and708, 1, !dbg !1961
  %721 = load double, double* %r0, align 8, !dbg !1961
  %722 = load double, double* %r0, align 8, !dbg !1961
  %cmp709 = fcmp oeq double %721, %722, !dbg !1961
  %conv710 = zext i1 %cmp709 to i32, !dbg !1961
  %and711 = and i32 %conv710, 1, !dbg !1961
  %or = or i32 %shl, %and711, !dbg !1961
  store i32 %or, i32* %ccr, align 4, !dbg !1961
  br label %sw.epilog, !dbg !1961

sw.bb712:                                         ; preds = %while.body
  %723 = load double, double* %r0, align 8, !dbg !1961
  %724 = load double, double* %r1, align 8, !dbg !1961
  %cmp713 = fcmp ogt double %723, %724, !dbg !1961
  %conv714 = zext i1 %cmp713 to i32, !dbg !1961
  %and715 = and i32 %conv714, 1, !dbg !1961
  %shl716 = shl i32 %and715, 1, !dbg !1961
  %725 = load double, double* %r0, align 8, !dbg !1961
  %726 = load double, double* %r1, align 8, !dbg !1961
  %cmp717 = fcmp oeq double %725, %726, !dbg !1961
  %conv718 = zext i1 %cmp717 to i32, !dbg !1961
  %and719 = and i32 %conv718, 1, !dbg !1961
  %or720 = or i32 %shl716, %and719, !dbg !1961
  store i32 %or720, i32* %ccr, align 4, !dbg !1961
  br label %sw.epilog, !dbg !1961

sw.bb721:                                         ; preds = %while.body
  %727 = load double, double* %r0, align 8, !dbg !1961
  %728 = load double, double* %r2, align 8, !dbg !1961
  %cmp722 = fcmp ogt double %727, %728, !dbg !1961
  %conv723 = zext i1 %cmp722 to i32, !dbg !1961
  %and724 = and i32 %conv723, 1, !dbg !1961
  %shl725 = shl i32 %and724, 1, !dbg !1961
  %729 = load double, double* %r0, align 8, !dbg !1961
  %730 = load double, double* %r2, align 8, !dbg !1961
  %cmp726 = fcmp oeq double %729, %730, !dbg !1961
  %conv727 = zext i1 %cmp726 to i32, !dbg !1961
  %and728 = and i32 %conv727, 1, !dbg !1961
  %or729 = or i32 %shl725, %and728, !dbg !1961
  store i32 %or729, i32* %ccr, align 4, !dbg !1961
  br label %sw.epilog, !dbg !1961

sw.bb730:                                         ; preds = %while.body
  %731 = load double, double* %r0, align 8, !dbg !1961
  %732 = load double, double* %r3, align 8, !dbg !1961
  %cmp731 = fcmp ogt double %731, %732, !dbg !1961
  %conv732 = zext i1 %cmp731 to i32, !dbg !1961
  %and733 = and i32 %conv732, 1, !dbg !1961
  %shl734 = shl i32 %and733, 1, !dbg !1961
  %733 = load double, double* %r0, align 8, !dbg !1961
  %734 = load double, double* %r3, align 8, !dbg !1961
  %cmp735 = fcmp oeq double %733, %734, !dbg !1961
  %conv736 = zext i1 %cmp735 to i32, !dbg !1961
  %and737 = and i32 %conv736, 1, !dbg !1961
  %or738 = or i32 %shl734, %and737, !dbg !1961
  store i32 %or738, i32* %ccr, align 4, !dbg !1961
  br label %sw.epilog, !dbg !1961

sw.bb739:                                         ; preds = %while.body
  %735 = load double, double* %r0, align 8, !dbg !1961
  %736 = load double, double* %r4, align 8, !dbg !1961
  %cmp740 = fcmp ogt double %735, %736, !dbg !1961
  %conv741 = zext i1 %cmp740 to i32, !dbg !1961
  %and742 = and i32 %conv741, 1, !dbg !1961
  %shl743 = shl i32 %and742, 1, !dbg !1961
  %737 = load double, double* %r0, align 8, !dbg !1961
  %738 = load double, double* %r4, align 8, !dbg !1961
  %cmp744 = fcmp oeq double %737, %738, !dbg !1961
  %conv745 = zext i1 %cmp744 to i32, !dbg !1961
  %and746 = and i32 %conv745, 1, !dbg !1961
  %or747 = or i32 %shl743, %and746, !dbg !1961
  store i32 %or747, i32* %ccr, align 4, !dbg !1961
  br label %sw.epilog, !dbg !1961

sw.bb748:                                         ; preds = %while.body
  %739 = load double, double* %r0, align 8, !dbg !1961
  %740 = load double, double* %r5, align 8, !dbg !1961
  %cmp749 = fcmp ogt double %739, %740, !dbg !1961
  %conv750 = zext i1 %cmp749 to i32, !dbg !1961
  %and751 = and i32 %conv750, 1, !dbg !1961
  %shl752 = shl i32 %and751, 1, !dbg !1961
  %741 = load double, double* %r0, align 8, !dbg !1961
  %742 = load double, double* %r5, align 8, !dbg !1961
  %cmp753 = fcmp oeq double %741, %742, !dbg !1961
  %conv754 = zext i1 %cmp753 to i32, !dbg !1961
  %and755 = and i32 %conv754, 1, !dbg !1961
  %or756 = or i32 %shl752, %and755, !dbg !1961
  store i32 %or756, i32* %ccr, align 4, !dbg !1961
  br label %sw.epilog, !dbg !1961

sw.bb757:                                         ; preds = %while.body
  %743 = load double, double* %r0, align 8, !dbg !1961
  %744 = load double, double* %r6, align 8, !dbg !1961
  %cmp758 = fcmp ogt double %743, %744, !dbg !1961
  %conv759 = zext i1 %cmp758 to i32, !dbg !1961
  %and760 = and i32 %conv759, 1, !dbg !1961
  %shl761 = shl i32 %and760, 1, !dbg !1961
  %745 = load double, double* %r0, align 8, !dbg !1961
  %746 = load double, double* %r6, align 8, !dbg !1961
  %cmp762 = fcmp oeq double %745, %746, !dbg !1961
  %conv763 = zext i1 %cmp762 to i32, !dbg !1961
  %and764 = and i32 %conv763, 1, !dbg !1961
  %or765 = or i32 %shl761, %and764, !dbg !1961
  store i32 %or765, i32* %ccr, align 4, !dbg !1961
  br label %sw.epilog, !dbg !1961

sw.bb766:                                         ; preds = %while.body
  %747 = load double, double* %r0, align 8, !dbg !1961
  %748 = load double, double* %r7, align 8, !dbg !1961
  %cmp767 = fcmp ogt double %747, %748, !dbg !1961
  %conv768 = zext i1 %cmp767 to i32, !dbg !1961
  %and769 = and i32 %conv768, 1, !dbg !1961
  %shl770 = shl i32 %and769, 1, !dbg !1961
  %749 = load double, double* %r0, align 8, !dbg !1961
  %750 = load double, double* %r7, align 8, !dbg !1961
  %cmp771 = fcmp oeq double %749, %750, !dbg !1961
  %conv772 = zext i1 %cmp771 to i32, !dbg !1961
  %and773 = and i32 %conv772, 1, !dbg !1961
  %or774 = or i32 %shl770, %and773, !dbg !1961
  store i32 %or774, i32* %ccr, align 4, !dbg !1961
  br label %sw.epilog, !dbg !1961

sw.bb775:                                         ; preds = %while.body
  %751 = load double, double* %r1, align 8, !dbg !1962
  %752 = load double, double* %r0, align 8, !dbg !1962
  %cmp776 = fcmp ogt double %751, %752, !dbg !1962
  %conv777 = zext i1 %cmp776 to i32, !dbg !1962
  %and778 = and i32 %conv777, 1, !dbg !1962
  %shl779 = shl i32 %and778, 1, !dbg !1962
  %753 = load double, double* %r1, align 8, !dbg !1962
  %754 = load double, double* %r0, align 8, !dbg !1962
  %cmp780 = fcmp oeq double %753, %754, !dbg !1962
  %conv781 = zext i1 %cmp780 to i32, !dbg !1962
  %and782 = and i32 %conv781, 1, !dbg !1962
  %or783 = or i32 %shl779, %and782, !dbg !1962
  store i32 %or783, i32* %ccr, align 4, !dbg !1962
  br label %sw.epilog, !dbg !1962

sw.bb784:                                         ; preds = %while.body
  %755 = load double, double* %r1, align 8, !dbg !1962
  %756 = load double, double* %r1, align 8, !dbg !1962
  %cmp785 = fcmp ogt double %755, %756, !dbg !1962
  %conv786 = zext i1 %cmp785 to i32, !dbg !1962
  %and787 = and i32 %conv786, 1, !dbg !1962
  %shl788 = shl i32 %and787, 1, !dbg !1962
  %757 = load double, double* %r1, align 8, !dbg !1962
  %758 = load double, double* %r1, align 8, !dbg !1962
  %cmp789 = fcmp oeq double %757, %758, !dbg !1962
  %conv790 = zext i1 %cmp789 to i32, !dbg !1962
  %and791 = and i32 %conv790, 1, !dbg !1962
  %or792 = or i32 %shl788, %and791, !dbg !1962
  store i32 %or792, i32* %ccr, align 4, !dbg !1962
  br label %sw.epilog, !dbg !1962

sw.bb793:                                         ; preds = %while.body
  %759 = load double, double* %r1, align 8, !dbg !1962
  %760 = load double, double* %r2, align 8, !dbg !1962
  %cmp794 = fcmp ogt double %759, %760, !dbg !1962
