; ModuleID = 'parstxtr.cpp'
source_filename = "parstxtr.cpp"
target datalayout = "e-m:e-p270:32:32-p271:32:32-p272:64:64-i64:64-f80:128-n8:16:32:64-S128"
target triple = "x86_64-unknown-linux-gnu"

%"struct.pov::Texture_Struct" = type { i16, i16, i16, i32, float, float, float, %"struct.pov::Warps_Struct"*, %"struct.pov::Pattern_Struct"*, %"struct.pov::Blend_Map_Struct"*, %union.anon.25, %"struct.pov::Texture_Struct"*, %"struct.pov::Pigment_Struct"*, %"struct.pov::Tnormal_Struct"*, %"struct.pov::Finish_Struct"*, %"struct.pov::Texture_Struct"*, i32 }
%"struct.pov::Warps_Struct" = type { i16, %"struct.pov::Warps_Struct"*, %"struct.pov::Warps_Struct"* }
%"struct.pov::Pattern_Struct" = type { i16, i16, i16, i32, float, float, float, %"struct.pov::Warps_Struct"*, %"struct.pov::Pattern_Struct"*, %"struct.pov::Blend_Map_Struct"*, %union.anon.17 }
%union.anon.17 = type { %struct.anon.21 }
%struct.anon.21 = type { [3 x double], [3 x double], double, double, i16, [3 x double]*, i32, [3 x double] }
%"struct.pov::Blend_Map_Struct" = type { i32, i16, i8, i8, %"struct.pov::Blend_Map_Entry"* }
%"struct.pov::Blend_Map_Entry" = type { float, i8, %union.anon }
%union.anon = type { [2 x double], [8 x i8] }
%union.anon.25 = type { %struct.anon.29 }
%struct.anon.29 = type { [3 x double], [3 x double], double, double, i16, [3 x double]*, i32, [3 x double] }
%"struct.pov::Pigment_Struct" = type { i16, i16, i16, i32, float, float, float, %"struct.pov::Warps_Struct"*, %"struct.pov::Pattern_Struct"*, %"struct.pov::Blend_Map_Struct"*, %union.anon.0, [5 x float] }
%union.anon.0 = type { %struct.anon.5 }
%struct.anon.5 = type { [3 x double], [3 x double], double, double, i16, [3 x double]*, i32, [3 x double] }
%"struct.pov::Tnormal_Struct" = type { i16, i16, i16, i32, float, float, float, %"struct.pov::Warps_Struct"*, %"struct.pov::Pattern_Struct"*, %"struct.pov::Blend_Map_Struct"*, %union.anon.9, float, float }
%union.anon.9 = type { %struct.anon.13 }
%struct.anon.13 = type { [3 x double], [3 x double], double, double, i16, [3 x double]*, i32, [3 x double] }
%"struct.pov::Finish_Struct" = type { float, float, float, float, float, float, float, float, float, float, float, float, float, float, float, float, [3 x float], [3 x float], [3 x float], float, i32, float, i32 }
%"struct.pov::Token_Struct" = type { i32, i32, %"struct.pov_base::ITextStream::FilePos", i32, i32, i8*, double, i32, i32, %"class.pov_base::ITextStream"*, i8*, i32*, i8**, i8 }
%"struct.pov_base::ITextStream::FilePos" = type { i64, i32 }
%"class.pov_base::ITextStream" = type { i32 (...)**, %"class.pov_base::IStream"*, [512 x i8], i64, i64, i64, i64, i8*, i32, i32 }
%"class.pov_base::IStream" = type { %"class.pov_base::IOBase" }
%"class.pov_base::IOBase" = type { i32 (...)**, i8, %struct._IO_FILE*, i32, i32, i8* }
%struct._IO_FILE = type { i32, i8*, i8*, i8*, i8*, i8*, i8*, i8*, i8*, i8*, i8*, i8*, %struct._IO_marker*, %struct._IO_FILE*, i32, i32, i64, i16, i8, [1 x i8], i8*, i64, %struct._IO_codecvt*, %struct._IO_wide_data*, %struct._IO_FILE*, i8*, i64, i32, [20 x i8] }
%struct._IO_marker = type opaque
%struct._IO_codecvt = type opaque
%struct._IO_wide_data = type opaque
%"struct.pov::OPTIONS_STRUCT" = type { i32, i8, i8, i8, i32, i32, [4096 x i8], [4096 x i8], [4096 x i8], [4096 x i8], [4096 x i8], float, float, i32, i32, double, i8, double, i32, [25 x i8*], i32, i32, i32, double, double, i32, i32, double, double, i32, i8, i64, i32, i32, i32, %"struct.pov::FRAMESEQ", double, i64, double, double, double, double, double, i64, i32, i64, i32, i32, i32, i32, i32, i32, double, double, double, i32, i32, i8*, i8*, i32, i8, double, double, i32, i32, i8, i32, i32, [4096 x i8], [6 x %"struct.pov::shelldata"], [4096 x i8], [4096 x i8], i32, i32, i64, i32, i32, i32, %struct.POVMSData }
%"struct.pov::FRAMESEQ" = type { i32, double, i32, i32, double, i32, i32, double, i32, double, i32, double, i8, i8 }
%"struct.pov::shelldata" = type { i32, i32, [250 x i8] }
%struct.POVMSData = type { i32, i32, %union.anon.33 }
%union.anon.33 = type { i8* }
%"struct.pov::Image_Struct" = type { i32, i32, i32, i32, i32, i32, i32, i16, i8, i8, [3 x double], float, float, [2 x double], double, double, %"struct.pov::Image_Colour_Struct"*, i8*, %union.anon.2 }
%"struct.pov::Image_Colour_Struct" = type { i16, i16, i16, i16, i16 }
%union.anon.2 = type { %"struct.pov::Image8_Line_Struct"* }
%"struct.pov::Image8_Line_Struct" = type { i8*, i8*, i8*, i8* }
%"struct.pov::FunctionCode" = type { i32*, i32, i8, i8, i8, [56 x i32], [56 x i8*], [56 x i8*], i8*, i8*, %"struct.pov_base::ITextStream::FilePos", i32, i8* (i8*)*, void (i8*)*, i8* }
%"struct.pov::Image16_Line_Struct" = type { i16*, i16*, i16*, i16* }
%"struct.pov::Transform_Struct" = type { [4 x [4 x double]], [4 x [4 x double]] }
%"struct.pov::Turb_Struct" = type { i16, %"struct.pov::Warps_Struct"*, %"struct.pov::Warps_Struct"*, [3 x double], i32, float, float }
%"struct.pov::Density_file_Struct" = type { i32, %"struct.pov::Density_file_Data_Struct"* }
%"struct.pov::Density_file_Data_Struct" = type { i32, i8*, i32, i32, i32, i32, %union.anon.1 }
%union.anon.1 = type { i8* }
%struct.anon.24 = type { i8*, i8* }
%struct.anon.23 = type { [2 x double], i16, i16, i16, double, double, i32 }
%"struct.pov::Object_Struct" = type { %"struct.pov::Method_Struct"*, i32, %"struct.pov::Object_Struct"*, %"struct.pov::Texture_Struct"*, %"struct.pov::Texture_Struct"*, %"struct.pov::Interior_Struct"*, %"struct.pov::Object_Struct"*, %"struct.pov::Object_Struct"*, %"struct.pov::Light_Source_Struct"*, %"struct.pov::Bounding_Box_Struct", %"struct.pov::Transform_Struct"*, %"struct.pov::Transform_Struct"*, float, i32 }
%"struct.pov::Method_Struct" = type { i32 (%"struct.pov::Object_Struct"*, %"struct.pov::Ray_Struct"*, %"struct.pov::istack_struct"*)*, i32 (double*, %"struct.pov::Object_Struct"*)*, void (double*, %"struct.pov::Object_Struct"*, %"struct.pov::istk_entry"*)*, void (double*, %"struct.pov::Object_Struct"*, %"struct.pov::istk_entry"*)*, i8* (%"struct.pov::Object_Struct"*)*, void (%"struct.pov::Object_Struct"*, double*, %"struct.pov::Transform_Struct"*)*, void (%"struct.pov::Object_Struct"*, double*, %"struct.pov::Transform_Struct"*)*, void (%"struct.pov::Object_Struct"*, double*, %"struct.pov::Transform_Struct"*)*, void (%"struct.pov::Object_Struct"*, %"struct.pov::Transform_Struct"*)*, void (%"struct.pov::Object_Struct"*)*, void (%"struct.pov::Object_Struct"*)* }
%"struct.pov::Ray_Struct" = type { [3 x double], [3 x double], i32, i32, [100 x %"struct.pov::Interior_Struct"*] }
%"struct.pov::istack_struct" = type { %"struct.pov::istack_struct"*, %"struct.pov::istk_entry"*, i32, i32 }
%"struct.pov::istk_entry" = type { double, [3 x double], [3 x double], [3 x double], [2 x double], %"struct.pov::Object_Struct"*, i32, i32, double, double, double, double, double, double, double, double, double, i8*, i8* }
%"struct.pov::Interior_Struct" = type { i32, i32, i32, float, float, float, float, float, float, [5 x float], %"struct.pov::Media_Struct"* }
%"struct.pov::Media_Struct" = type { i32, i32, i32, i32, i32, double, i32, double, double, i32, i32, i32, i32, [5 x float], [5 x float], [5 x float], [5 x float], double, double, double, double*, double, i32, i32, %"struct.pov::Pigment_Struct"*, %"struct.pov::Media_Struct"* }
%"struct.pov::Light_Source_Struct" = type { %"struct.pov::Method_Struct"*, i32, %"struct.pov::Object_Struct"*, %"struct.pov::Texture_Struct"*, %"struct.pov::Texture_Struct"*, %"struct.pov::Interior_Struct"*, %"struct.pov::Object_Struct"*, %"struct.pov::Object_Struct"*, %"struct.pov::Light_Source_Struct"*, %"struct.pov::Bounding_Box_Struct", %"struct.pov::Transform_Struct"*, %"struct.pov::Transform_Struct"*, float, i32, %"struct.pov::Object_Struct"*, [5 x float], [3 x double], [3 x double], [3 x double], [3 x double], [3 x double], double, double, double, double, double, %"struct.pov::Light_Source_Struct"*, i8, i8, i8, i8, i8, i8, i8, i8, i32, i32, i32, i32, i32, [5 x float]**, %"struct.pov::Object_Struct"*, %"struct.pov::Object_Struct"*, %"struct.pov::Blend_Map_Struct"*, [6 x %"struct.pov::Project_Tree_Node_Struct"*] }
%"struct.pov::Project_Tree_Node_Struct" = type { i16, %"struct.pov::BBox_Tree_Struct"*, %"struct.pov::Project_Struct", i16, %"struct.pov::Project_Tree_Node_Struct"** }
%"struct.pov::BBox_Tree_Struct" = type { i16, i16, %"struct.pov::Bounding_Box_Struct", %"struct.pov::BBox_Tree_Struct"** }
%"struct.pov::Project_Struct" = type { i32, i32, i32, i32 }
%"struct.pov::Bounding_Box_Struct" = type { [3 x float], [3 x float] }
%struct.anon.18 = type { float, [3 x double] }
%struct.anon.19 = type { float, float }
%struct.anon.20 = type { double, double, [3 x double] }
%struct.anon.22 = type { [3 x double], [3 x double], i16, i16, double, double, [2 x double], [2 x double] }
%"struct.pov::Fog_Struct" = type { i32, double, double, double, [5 x float], [3 x double], %"struct.pov::Turb_Struct"*, float, %"struct.pov::Fog_Struct"* }
%"struct.pov::Rainbow_Struct" = type { double, double, double, double, double, double, double, [3 x double], [3 x double], [3 x double], %"struct.pov::Pigment_Struct"*, %"struct.pov::Rainbow_Struct"* }
%"struct.pov::Skysphere_Struct" = type { i32, %"struct.pov::Pigment_Struct"**, %"struct.pov::Transform_Struct"* }
%"struct.pov::Material_Struct" = type { %"struct.pov::Texture_Struct"*, %"struct.pov::Interior_Struct"*, %"struct.pov::Texture_Struct"* }
%"struct.pov::Repeat_Warp" = type { i16, %"struct.pov::Warps_Struct"*, %"struct.pov::Warps_Struct"*, i32, float, [3 x double], [3 x double] }
%"struct.pov::Black_Hole_Warp" = type { i16, %"struct.pov::Warps_Struct"*, %"struct.pov::Warps_Struct"*, [3 x double], [3 x double], [3 x double], double, double, double, double, double, i16, i16, i16, i16 }
%"struct.pov::Cylindrical_Warp" = type { i16, %"struct.pov::Warps_Struct"*, %"struct.pov::Warps_Struct"*, [3 x double], double }
%"struct.pov::Spherical_Warp" = type { i16, %"struct.pov::Warps_Struct"*, %"struct.pov::Warps_Struct"*, [3 x double], double }
%"struct.pov::Toroidal_Warp" = type { i16, %"struct.pov::Warps_Struct"*, %"struct.pov::Warps_Struct"*, [3 x double], double, double }
%"struct.pov::Planar_Warp" = type { i16, %"struct.pov::Warps_Struct"*, %"struct.pov::Warps_Struct"*, [3 x double], double }

$_ZN3pov10Assign_RGBEPfS0_ = comdat any

$_ZN3pov8Make_RGBEPffff = comdat any

$_ZN3pov10VNormalizeEPdPKd = comdat any

$_ZN3pov11Make_VectorEPdddd = comdat any

$_ZN3pov4VDotERdPKdS2_ = comdat any

$_ZN3pov12VNormalizeEqEPd = comdat any

$_ZN3pov6VCrossEPdPKdS2_ = comdat any

$_ZN3pov7VLengthERdPKd = comdat any

$_ZN3pov13Assign_ColourEPfS0_ = comdat any

$_ZN3pov13VInverseScaleEPdPKdd = comdat any

$_ZN3pov15VInverseScaleEqEPdd = comdat any

$_ZN3pov13Assign_VectorEPdS0_ = comdat any

@_ZN3pov15Default_TextureE = dso_local global %"struct.pov::Texture_Struct"* null, align 8, !dbg !0
@_ZN3pov5TokenE = external dso_local global %"struct.pov::Token_Struct", align 8
@.str = private unnamed_addr constant [72 x i8] c"Old style orientation vector or map type not supported. Ignoring value.\00", align 1
@.str.1 = private unnamed_addr constant [16 x i8] c"Missing { after\00", align 1
@.str.2 = private unnamed_addr constant [11 x i8] c"expression\00", align 1
@.str.3 = private unnamed_addr constant [13 x i8] c"parstxtr.cpp\00", align 1
@.str.4 = private unnamed_addr constant [63 x i8] c"This feature is not supported in the POV-Ray 3.6 SPEC version!\00", align 1
@_ZN3pov4optsE = external dso_local global %"struct.pov::OPTIONS_STRUCT", align 8
@.str.5 = private unnamed_addr constant [57 x i8] c"Default image type not supported for current output type\00", align 1
@.str.6 = private unnamed_addr constant [14 x i8] c"map file spec\00", align 1
@.str.7 = private unnamed_addr constant [30 x i8] c"File type not supported here.\00", align 1
@_ZN3pov14Not_In_DefaultE = external dso_local global i16, align 2
@.str.8 = private unnamed_addr constant [42 x i8] c"Pigment type unspecified or not 1st item.\00", align 1
@.str.9 = private unnamed_addr constant [30 x i8] c"fresnel must be true or false\00", align 1
@.str.10 = private unnamed_addr constant [21 x i8] c"Zero roughness used.\00", align 1
@.str.11 = private unnamed_addr constant [76 x i8] c"Index of refraction value should be specified in 'interior{...}' statement.\00", align 1
@.str.12 = private unnamed_addr constant [65 x i8] c"Caustics value should be specified in 'interior{...}' statement.\00", align 1
@.str.13 = private unnamed_addr constant [158 x i8] c"Refraction value unnecessary to turn on refraction.\0ATo attenuate, the fade_power and fade_distance keywords should be specified in 'interior{...}' statement.\00", align 1
@.str.14 = private unnamed_addr constant [42 x i8] c"At least one interval is needed in media.\00", align 1
@.str.15 = private unnamed_addr constant [53 x i8] c"At least one sample per interval is needed in media.\00", align 1
@.str.16 = private unnamed_addr constant [68 x i8] c"Maximum number of samples per interval smaller than minimum number.\00", align 1
@.str.17 = private unnamed_addr constant [38 x i8] c"Sample method choices are 1, 2, or 3.\00", align 1
@.str.18 = private unnamed_addr constant [49 x i8] c"aa_threshold in media must be greater than zero.\00", align 1
@.str.19 = private unnamed_addr constant [40 x i8] c"aa_level in media must be at least one.\00", align 1
@.str.20 = private unnamed_addr constant [37 x i8] c"Unknown atmospheric scattering type.\00", align 1
@.str.21 = private unnamed_addr constant [55 x i8] c"Eccentricity cannot be used with this scattering type.\00", align 1
@.str.22 = private unnamed_addr constant [35 x i8] c"Illegal confidence value in media.\00", align 1
@.str.23 = private unnamed_addr constant [33 x i8] c"Dispersion samples minimum is 2.\00", align 1
@.str.24 = private unnamed_addr constant [29 x i8] c"Should use distance keyword.\00", align 1
@.str.25 = private unnamed_addr constant [18 x i8] c"Unknown fog type.\00", align 1
@.str.26 = private unnamed_addr constant [39 x i8] c"A fog's up vector can't be translated.\00", align 1
@.str.27 = private unnamed_addr constant [68 x i8] c"Illegal falloff angle in rainbow (Use value from 0 to 360 degrees).\00", align 1
@.str.28 = private unnamed_addr constant [64 x i8] c"Illegal arc angle in rainbow (Use value from 0 to 360 degrees).\00", align 1
@.str.29 = private unnamed_addr constant [52 x i8] c"Arc angle is smaller than falloff angle in rainbow.\00", align 1
@.str.30 = private unnamed_addr constant [36 x i8] c"Rainbow's direction vector is zero.\00", align 1
@.str.31 = private unnamed_addr constant [29 x i8] c"Rainbow's up vector is zero.\00", align 1
@.str.32 = private unnamed_addr constant [49 x i8] c"Rainbow's up and direction vector are co-linear.\00", align 1
@.str.33 = private unnamed_addr constant [19 x i8] c"sky-sphere pigment\00", align 1
@.str.34 = private unnamed_addr constant [28 x i8] c"Empty sky_sphere statement.\00", align 1
@.str.35 = private unnamed_addr constant [67 x i8] c"Invalid magnet-mandel pattern type found. Valid types are 1 and 2.\00", align 1
@.str.36 = private unnamed_addr constant [66 x i8] c"Invalid magnet-julia pattern type found. Valid types are 1 and 2.\00", align 1
@.str.37 = private unnamed_addr constant [68 x i8] c"Invalid magnet pattern found. Valid types are 'mandel' and 'julia'.\00", align 1
@.str.38 = private unnamed_addr constant [14 x i8] c"crackle cache\00", align 1
@.str.39 = private unnamed_addr constant [38 x i8] c"object or object identifier expected.\00", align 1
@.str.40 = private unnamed_addr constant [6 x i8] c"solid\00", align 1
@.str.41 = private unnamed_addr constant [8 x i8] c"crackle\00", align 1
@.str.42 = private unnamed_addr constant [9 x i8] c"exterior\00", align 1
@.str.43 = private unnamed_addr constant [24 x i8] c"mandel, julia or magnet\00", align 1
@.str.44 = private unnamed_addr constant [63 x i8] c"Invalid fractal pattern exterior type. Valid types are 0 to 6.\00", align 1
@.str.45 = private unnamed_addr constant [63 x i8] c"Invalid fractal pattern interior type. Valid types are 0 to 6.\00", align 1
@.str.46 = private unnamed_addr constant [9 x i8] c"exponent\00", align 1
@.str.47 = private unnamed_addr constant [16 x i8] c"mandel or julia\00", align 1
@.str.48 = private unnamed_addr constant [97 x i8] c"Invalid julia pattern exponent found. Supported exponents are 2 to 33.\0AUsing default exponent 2.\00", align 1
@.str.49 = private unnamed_addr constant [98 x i8] c"Invalid mandel pattern exponent found. Supported exponents are 2 to 33.\0AUsing default exponent 2.\00", align 1
@.str.50 = private unnamed_addr constant [7 x i8] c"coords\00", align 1
@.str.51 = private unnamed_addr constant [7 x i8] c"facets\00", align 1
@.str.52 = private unnamed_addr constant [5 x i8] c"size\00", align 1
@.str.53 = private unnamed_addr constant [7 x i8] c"metric\00", align 1
@.str.54 = private unnamed_addr constant [18 x i8] c"facets or crackle\00", align 1
@.str.55 = private unnamed_addr constant [5 x i8] c"form\00", align 1
@.str.56 = private unnamed_addr constant [7 x i8] c"offset\00", align 1
@.str.57 = private unnamed_addr constant [9 x i8] c"control0\00", align 1
@.str.58 = private unnamed_addr constant [13 x i8] c"this pattern\00", align 1
@.str.59 = private unnamed_addr constant [9 x i8] c"control1\00", align 1
@.str.60 = private unnamed_addr constant [49 x i8] c"Value for noise_generator must be 0, 1, 2, or 3.\00", align 1
@.str.61 = private unnamed_addr constant [11 x i8] c"agate_turb\00", align 1
@.str.62 = private unnamed_addr constant [10 x i8] c"non-agate\00", align 1
@.str.63 = private unnamed_addr constant [11 x i8] c"brick_size\00", align 1
@.str.64 = private unnamed_addr constant [10 x i8] c"non-brick\00", align 1
@.str.65 = private unnamed_addr constant [7 x i8] c"mortar\00", align 1
@.str.66 = private unnamed_addr constant [12 x i8] c"interpolate\00", align 1
@.str.67 = private unnamed_addr constant [17 x i8] c"non-density_file\00", align 1
@.str.68 = private unnamed_addr constant [15 x i8] c"function image\00", align 1
@.str.69 = private unnamed_addr constant [20 x i8] c"function image line\00", align 1
@.str.70 = private unnamed_addr constant [45 x i8] c"Unsupported function type in function image.\00", align 1
@.str.71 = private unnamed_addr constant [6 x i8] c"color\00", align 1
@.str.72 = private unnamed_addr constant [19 x i8] c"pigment or density\00", align 1
@_ZN3pov17Check_Default_MapE = external dso_local global %"struct.pov::Blend_Map_Struct", align 8
@_ZN3pov17Brick_Default_MapE = external dso_local global %"struct.pov::Blend_Map_Struct", align 8
@_ZN3pov15Hex_Default_MapE = external dso_local global %"struct.pov::Blend_Map_Struct", align 8
@.str.73 = private unnamed_addr constant [10 x i8] c"image_map\00", align 1
@.str.74 = private unnamed_addr constant [8 x i8] c"pigment\00", align 1
@.str.75 = private unnamed_addr constant [9 x i8] c"bump_map\00", align 1
@.str.76 = private unnamed_addr constant [7 x i8] c"normal\00", align 1
@.str.77 = private unnamed_addr constant [28 x i8] c"Zero slope range, ignoring.\00", align 1
@_ZN3pov17Experimental_FlagE = external dso_local global i32, align 4
@.str.78 = private unnamed_addr constant [31 x i8] c"Zero gradient range, ignoring.\00", align 1
@.str.79 = private unnamed_addr constant [41 x i8] c"Zero length for both slope and gradient.\00", align 1
@.str.80 = private unnamed_addr constant [48 x i8] c"accuracy can only be used with normal patterns.\00", align 1
@.str.81 = private unnamed_addr constant [10 x i8] c"color_map\00", align 1
@.str.82 = private unnamed_addr constant [45 x i8] c"Cannot use color_map with this pattern type.\00", align 1
@.str.83 = private unnamed_addr constant [12 x i8] c"pigment_map\00", align 1
@.str.84 = private unnamed_addr constant [18 x i8] c"this pigment type\00", align 1
@.str.85 = private unnamed_addr constant [12 x i8] c"density_map\00", align 1
@.str.86 = private unnamed_addr constant [8 x i8] c"density\00", align 1
@.str.87 = private unnamed_addr constant [18 x i8] c"this density type\00", align 1
@.str.88 = private unnamed_addr constant [10 x i8] c"slope_map\00", align 1
@.str.89 = private unnamed_addr constant [17 x i8] c"this normal type\00", align 1
@.str.90 = private unnamed_addr constant [11 x i8] c"normal_map\00", align 1
@.str.91 = private unnamed_addr constant [12 x i8] c"texture_map\00", align 1
@.str.92 = private unnamed_addr constant [8 x i8] c"texture\00", align 1
@.str.93 = private unnamed_addr constant [18 x i8] c"this pattern type\00", align 1
@.str.94 = private unnamed_addr constant [12 x i8] c"quick_color\00", align 1
@.str.95 = private unnamed_addr constant [10 x i8] c"bump_size\00", align 1
@.str.96 = private unnamed_addr constant [23 x i8] c"Average must have map.\00", align 1
@.str.97 = private unnamed_addr constant [41 x i8] c"Patterned texture must have texture_map.\00", align 1
@.str.98 = private unnamed_addr constant [38 x i8] c"Zero or Negative Image Repeat Vector.\00", align 1
@.str.99 = private unnamed_addr constant [48 x i8] c"Keyword ALPHA discontinued. Use FILTER instead.\00", align 1
@.str.100 = private unnamed_addr constant [7 x i8] c"filter\00", align 1
@.str.101 = private unnamed_addr constant [23 x i8] c"non color-mapped image\00", align 1
@.str.102 = private unnamed_addr constant [42 x i8] c"FILTER color register value out of range.\00", align 1
@.str.103 = private unnamed_addr constant [9 x i8] c"transmit\00", align 1
@.str.104 = private unnamed_addr constant [44 x i8] c"TRANSMIT color register value out of range.\00", align 1
@.str.105 = private unnamed_addr constant [19 x i8] c"filter or transmit\00", align 1
@.str.106 = private unnamed_addr constant [45 x i8] c"Cannot use color map with this pigment type.\00", align 1
@.str.107 = private unnamed_addr constant [39 x i8] c"Cannot use frequency with this normal.\00", align 1
@.str.108 = private unnamed_addr constant [35 x i8] c"Cannot use phase with this normal.\00", align 1
@.str.109 = private unnamed_addr constant [46 x i8] c"Should use crand keyword in finish statement.\00", align 1
@.str.110 = private unnamed_addr constant [48 x i8] c"Texture identifier overwriting previous values.\00", align 1
@.str.111 = private unnamed_addr constant [30 x i8] c"Can only repeat along 1 axis.\00", align 1
@.str.112 = private unnamed_addr constant [29 x i8] c"No axis specified in repeat.\00", align 1
@.str.113 = private unnamed_addr constant [10 x i8] c"warp type\00", align 1
@.str.114 = private unnamed_addr constant [22 x i8] c"Empty warp statement.\00", align 1
@.str.115 = private unnamed_addr constant [55 x i8] c"Black Hole repeat vector X too small ; increased to %g\00", align 1
@.str.116 = private unnamed_addr constant [53 x i8] c"Black Hole repeat vector X is less than %f ; ignored\00", align 1
@.str.117 = private unnamed_addr constant [55 x i8] c"Black Hole repeat vector Y too small ; increased to %g\00", align 1
@.str.118 = private unnamed_addr constant [53 x i8] c"Black Hole repeat vector Y is less than %f ; ignored\00", align 1
@.str.119 = private unnamed_addr constant [55 x i8] c"Black Hole repeat vector Z too small ; increased to %g\00", align 1
@.str.120 = private unnamed_addr constant [53 x i8] c"Black Hole repeat vector Z is less than %f ; ignored\00", align 1

; Function Attrs: noinline uwtable
define dso_local %"struct.pov::Image_Struct"* @_ZN3pov11Parse_ImageEi(i32 %Legal) #0 !dbg !2237 {
entry:
  %Legal.addr = alloca i32, align 4
  %Image = alloca %"struct.pov::Image_Struct"*, align 8
  %Local_Vector = alloca [3 x double], align 16
  %Name = alloca i8*, align 8
  %token_id = alloca i32, align 4
  %Exit_Flag = alloca i32, align 4
  %Exit_Flag3 = alloca i32, align 4
  store i32 %Legal, i32* %Legal.addr, align 4
  call void @llvm.dbg.declare(metadata i32* %Legal.addr, metadata !2241, metadata !DIExpression()), !dbg !2242
  call void @llvm.dbg.declare(metadata %"struct.pov::Image_Struct"** %Image, metadata !2243, metadata !DIExpression()), !dbg !2244
  call void @llvm.dbg.declare(metadata [3 x double]* %Local_Vector, metadata !2245, metadata !DIExpression()), !dbg !2246
  call void @llvm.dbg.declare(metadata i8** %Name, metadata !2247, metadata !DIExpression()), !dbg !2248
  call void @llvm.dbg.declare(metadata i32* %token_id, metadata !2249, metadata !DIExpression()), !dbg !2250
  %call = call %"struct.pov::Image_Struct"* @_ZN3pov12Create_ImageEv(), !dbg !2251
  store %"struct.pov::Image_Struct"* %call, %"struct.pov::Image_Struct"** %Image, align 8, !dbg !2252
  %0 = load i32, i32* %Legal.addr, align 4, !dbg !2253
  %1 = load %"struct.pov::Image_Struct"*, %"struct.pov::Image_Struct"** %Image, align 8, !dbg !2254
  %Image_Type = getelementptr inbounds %"struct.pov::Image_Struct", %"struct.pov::Image_Struct"* %1, i32 0, i32 3, !dbg !2255
  store i32 %0, i32* %Image_Type, align 4, !dbg !2256
  %2 = load i32, i32* %Legal.addr, align 4, !dbg !2257
  %and = and i32 %2, 32, !dbg !2259
  %tobool = icmp ne i32 %and, 0, !dbg !2257
  br i1 %tobool, label %if.then, label %if.end, !dbg !2260

if.then:                                          ; preds = %entry
  call void @llvm.dbg.declare(metadata i32* %Exit_Flag, metadata !2261, metadata !DIExpression()), !dbg !2264
  store i32 0, i32* %Exit_Flag, align 4, !dbg !2264
  br label %while.cond, !dbg !2264

while.cond:                                       ; preds = %sw.epilog, %if.then
  %3 = load i32, i32* %Exit_Flag, align 4, !dbg !2264
  %tobool1 = icmp ne i32 %3, 0, !dbg !2264
  %lnot = xor i1 %tobool1, true, !dbg !2264
  br i1 %lnot, label %while.body, label %while.end, !dbg !2264

while.body:                                       ; preds = %while.cond
  call void @_ZN3pov9Get_TokenEv(), !dbg !2265
  %4 = load i32, i32* getelementptr inbounds (%"struct.pov::Token_Struct", %"struct.pov::Token_Struct"* @_ZN3pov5TokenE, i32 0, i32 0), align 8, !dbg !2265
  switch i32 %4, label %sw.default [
    i32 488, label %sw.bb
    i32 77, label %sw.bb
    i32 171, label %sw.bb
    i32 400, label %sw.bb
    i32 401, label %sw.bb
    i32 452, label %sw.bb
    i32 453, label %sw.bb
    i32 504, label %sw.bb
    i32 173, label %sw.bb
    i32 64, label %sw.bb
    i32 203, label %sw.bb
    i32 133, label %sw.bb
    i32 487, label %sw.bb
    i32 145, label %sw.bb
  ], !dbg !2265

sw.bb:                                            ; preds = %while.body, %while.body, %while.body, %while.body, %while.body, %while.body, %while.body, %while.body, %while.body, %while.body, %while.body, %while.body, %while.body, %while.body
  call void @_ZN3pov11Unget_TokenEv(), !dbg !2267
  %call2 = call i32 (i32, i8*, ...) @_ZN3pov7WarningEjPKcz(i32 150, i8* getelementptr inbounds ([72 x i8], [72 x i8]* @.str, i64 0, i64 0)), !dbg !2269
  %arraydecay = getelementptr inbounds [3 x double], [3 x double]* %Local_Vector, i64 0, i64 0, !dbg !2270
  call void @_ZN3pov12Parse_VectorEPd(double* %arraydecay), !dbg !2271
  br label %sw.epilog, !dbg !2272

sw.default:                                       ; preds = %while.body
  call void @_ZN3pov11Unget_TokenEv(), !dbg !2273
  store i32 1, i32* %Exit_Flag, align 4, !dbg !2274
  br label %sw.epilog, !dbg !2275

sw.epilog:                                        ; preds = %sw.default, %sw.bb
  br label %while.cond, !dbg !2264, !llvm.loop !2276

while.end:                                        ; preds = %while.cond
  br label %if.end, !dbg !2278

if.end:                                           ; preds = %while.end, %entry
  call void @llvm.dbg.declare(metadata i32* %Exit_Flag3, metadata !2279, metadata !DIExpression()), !dbg !2281
  store i32 0, i32* %Exit_Flag3, align 4, !dbg !2281
  br label %while.cond4, !dbg !2281

while.cond4:                                      ; preds = %sw.epilog63, %if.end
  %5 = load i32, i32* %Exit_Flag3, align 4, !dbg !2281
  %tobool5 = icmp ne i32 %5, 0, !dbg !2281
  %lnot6 = xor i1 %tobool5, true, !dbg !2281
  br i1 %lnot6, label %while.body7, label %while.end64, !dbg !2281

while.body7:                                      ; preds = %while.cond4
  call void @_ZN3pov9Get_TokenEv(), !dbg !2282
  %6 = load i32, i32* getelementptr inbounds (%"struct.pov::Token_Struct", %"struct.pov::Token_Struct"* @_ZN3pov5TokenE, i32 0, i32 0), align 8, !dbg !2282
  switch i32 %6, label %sw.default62 [
    i32 485, label %sw.bb8
    i32 162, label %sw.bb18
    i32 154, label %sw.bb21
    i32 206, label %sw.bb23
    i32 397, label %sw.bb25
    i32 242, label %sw.bb27
    i32 403, label %sw.bb30
    i32 344, label %sw.bb32
    i32 343, label %sw.bb35
    i32 517, label %sw.bb38
    i32 244, label %sw.bb40
    i32 237, label %sw.bb42
    i32 369, label %sw.bb42
    i32 370, label %sw.bb42
    i32 366, label %sw.bb42
    i32 367, label %sw.bb42
    i32 368, label %sw.bb42
    i32 398, label %sw.bb42
    i32 399, label %sw.bb42
  ], !dbg !2282

sw.bb8:                                           ; preds = %while.body7
  %7 = load %"struct.pov::Image_Struct"*, %"struct.pov::Image_Struct"** %Image, align 8, !dbg !2284
  %File_Type = getelementptr inbounds %"struct.pov::Image_Struct", %"struct.pov::Image_Struct"* %7, i32 0, i32 2, !dbg !2286
  store i32 16, i32* %File_Type, align 8, !dbg !2287
  %call9 = call double @_ZN3pov11Parse_FloatEv(), !dbg !2288
  %add = fadd double %call9, 5.000000e-01, !dbg !2289
  %conv = fptosi double %add to i32, !dbg !2288
  %conv10 = sitofp i32 %conv to float, !dbg !2290
  %8 = load %"struct.pov::Image_Struct"*, %"struct.pov::Image_Struct"** %Image, align 8, !dbg !2291
  %width = getelementptr inbounds %"struct.pov::Image_Struct", %"struct.pov::Image_Struct"* %8, i32 0, i32 11, !dbg !2292
  store float %conv10, float* %width, align 8, !dbg !2293
  call void @_ZN3pov11Parse_CommaEv(), !dbg !2294
  %call11 = call double @_ZN3pov11Parse_FloatEv(), !dbg !2295
  %add12 = fadd double %call11, 5.000000e-01, !dbg !2296
  %conv13 = fptosi double %add12 to i32, !dbg !2295
  %conv14 = sitofp i32 %conv13 to float, !dbg !2297
  %9 = load %"struct.pov::Image_Struct"*, %"struct.pov::Image_Struct"** %Image, align 8, !dbg !2298
  %height = getelementptr inbounds %"struct.pov::Image_Struct", %"struct.pov::Image_Struct"* %9, i32 0, i32 12, !dbg !2299
  store float %conv14, float* %height, align 4, !dbg !2300
  call void @_ZN3pov9Get_TokenEv(), !dbg !2301
  %10 = load i32, i32* getelementptr inbounds (%"struct.pov::Token_Struct", %"struct.pov::Token_Struct"* @_ZN3pov5TokenE, i32 0, i32 0), align 8, !dbg !2302
  %cmp = icmp ne i32 %10, 172, !dbg !2304
  br i1 %cmp, label %if.then15, label %if.end16, !dbg !2305

if.then15:                                        ; preds = %sw.bb8
  call void @_ZN3pov19Found_Instead_ErrorEPKcS1_(i8* getelementptr inbounds ([16 x i8], [16 x i8]* @.str.1, i64 0, i64 0), i8* getelementptr inbounds ([11 x i8], [11 x i8]* @.str.2, i64 0, i64 0)), !dbg !2306
  br label %if.end16, !dbg !2306

if.end16:                                         ; preds = %if.then15, %sw.bb8
  call void @_ZN3pov11Unget_TokenEv(), !dbg !2307
  %11 = load %"struct.pov::Image_Struct"*, %"struct.pov::Image_Struct"** %Image, align 8, !dbg !2308
  %call17 = call i32* @_ZN3pov21Parse_DeclareFunctionEPiPKcb(i32* %token_id, i8* null, i1 zeroext false), !dbg !2309
  call void @_ZN3povL18Make_Pattern_ImageEPNS_12Image_StructEPjPi(%"struct.pov::Image_Struct"* %11, i32* %call17, i32* %token_id), !dbg !2310
  store i32 1, i32* %Exit_Flag3, align 4, !dbg !2311
  br label %sw.epilog63, !dbg !2312

sw.bb18:                                          ; preds = %while.body7
  %12 = load %"struct.pov::Image_Struct"*, %"struct.pov::Image_Struct"** %Image, align 8, !dbg !2313
  %File_Type19 = getelementptr inbounds %"struct.pov::Image_Struct", %"struct.pov::Image_Struct"* %12, i32 0, i32 2, !dbg !2314
  store i32 8, i32* %File_Type19, align 8, !dbg !2315
  %call20 = call i8* @_ZN3pov14Parse_C_StringEb(i1 zeroext true), !dbg !2316
  store i8* %call20, i8** %Name, align 8, !dbg !2317
  %13 = load %"struct.pov::Image_Struct"*, %"struct.pov::Image_Struct"** %Image, align 8, !dbg !2318
  %14 = load i8*, i8** %Name, align 8, !dbg !2319
  call void @_ZN3pov14Read_Iff_ImageEPNS_12Image_StructEPc(%"struct.pov::Image_Struct"* %13, i8* %14), !dbg !2320
  %15 = load i8*, i8** %Name, align 8, !dbg !2321
  call void @_ZN3pov8pov_freeEPvPKci(i8* %15, i8* getelementptr inbounds ([13 x i8], [13 x i8]* @.str.3, i64 0, i64 0), i32 269), !dbg !2321
  store i8* null, i8** %Name, align 8, !dbg !2321
  store i32 1, i32* %Exit_Flag3, align 4, !dbg !2323
  br label %sw.epilog63, !dbg !2324

sw.bb21:                                          ; preds = %while.body7
  %call22 = call i32 (i8*, ...) @_ZN3pov5ErrorEPKcz(i8* getelementptr inbounds ([63 x i8], [63 x i8]* @.str.4, i64 0, i64 0)), !dbg !2325
  store i32 1, i32* %Exit_Flag3, align 4, !dbg !2326
  br label %sw.epilog63, !dbg !2327

sw.bb23:                                          ; preds = %while.body7
  %call24 = call i32 (i8*, ...) @_ZN3pov5ErrorEPKcz(i8* getelementptr inbounds ([63 x i8], [63 x i8]* @.str.4, i64 0, i64 0)), !dbg !2328
  store i32 1, i32* %Exit_Flag3, align 4, !dbg !2329
  br label %sw.epilog63, !dbg !2330

sw.bb25:                                          ; preds = %while.body7
  %call26 = call i32 (i8*, ...) @_ZN3pov5ErrorEPKcz(i8* getelementptr inbounds ([63 x i8], [63 x i8]* @.str.4, i64 0, i64 0)), !dbg !2331
  store i32 1, i32* %Exit_Flag3, align 4, !dbg !2332
  br label %sw.epilog63, !dbg !2333

sw.bb27:                                          ; preds = %while.body7
  %16 = load %"struct.pov::Image_Struct"*, %"struct.pov::Image_Struct"** %Image, align 8, !dbg !2334
  %File_Type28 = getelementptr inbounds %"struct.pov::Image_Struct", %"struct.pov::Image_Struct"* %16, i32 0, i32 2, !dbg !2335
  store i32 16, i32* %File_Type28, align 8, !dbg !2336
  %call29 = call i8* @_ZN3pov14Parse_C_StringEb(i1 zeroext true), !dbg !2337
  store i8* %call29, i8** %Name, align 8, !dbg !2338
  %17 = load %"struct.pov::Image_Struct"*, %"struct.pov::Image_Struct"** %Image, align 8, !dbg !2339
  %18 = load i8*, i8** %Name, align 8, !dbg !2340
  call void @_ZN3pov16Read_Targa_ImageEPNS_12Image_StructEPc(%"struct.pov::Image_Struct"* %17, i8* %18), !dbg !2341
  %19 = load i8*, i8** %Name, align 8, !dbg !2342
  call void @_ZN3pov8pov_freeEPvPKci(i8* %19, i8* getelementptr inbounds ([13 x i8], [13 x i8]* @.str.3, i64 0, i64 0), i32 292), !dbg !2342
  store i8* null, i8** %Name, align 8, !dbg !2342
  store i32 1, i32* %Exit_Flag3, align 4, !dbg !2344
  br label %sw.epilog63, !dbg !2345

sw.bb30:                                          ; preds = %while.body7
  %call31 = call i32 (i8*, ...) @_ZN3pov5ErrorEPKcz(i8* getelementptr inbounds ([63 x i8], [63 x i8]* @.str.4, i64 0, i64 0)), !dbg !2346
  store i32 1, i32* %Exit_Flag3, align 4, !dbg !2347
  br label %sw.epilog63, !dbg !2348

sw.bb32:                                          ; preds = %while.body7
  %20 = load %"struct.pov::Image_Struct"*, %"struct.pov::Image_Struct"** %Image, align 8, !dbg !2349
  %File_Type33 = getelementptr inbounds %"struct.pov::Image_Struct", %"struct.pov::Image_Struct"* %20, i32 0, i32 2, !dbg !2350
  store i32 64, i32* %File_Type33, align 8, !dbg !2351
  %call34 = call i8* @_ZN3pov14Parse_C_StringEb(i1 zeroext true), !dbg !2352
  store i8* %call34, i8** %Name, align 8, !dbg !2353
  %21 = load %"struct.pov::Image_Struct"*, %"struct.pov::Image_Struct"** %Image, align 8, !dbg !2354
  %22 = load i8*, i8** %Name, align 8, !dbg !2355
  call void @_ZN3pov14Read_PGM_ImageEPNS_12Image_StructEPc(%"struct.pov::Image_Struct"* %21, i8* %22), !dbg !2356
  %23 = load i8*, i8** %Name, align 8, !dbg !2357
  call void @_ZN3pov8pov_freeEPvPKci(i8* %23, i8* getelementptr inbounds ([13 x i8], [13 x i8]* @.str.3, i64 0, i64 0), i32 305), !dbg !2357
  store i8* null, i8** %Name, align 8, !dbg !2357
  store i32 1, i32* %Exit_Flag3, align 4, !dbg !2359
  br label %sw.epilog63, !dbg !2360

sw.bb35:                                          ; preds = %while.body7
  %24 = load %"struct.pov::Image_Struct"*, %"struct.pov::Image_Struct"** %Image, align 8, !dbg !2361
  %File_Type36 = getelementptr inbounds %"struct.pov::Image_Struct", %"struct.pov::Image_Struct"* %24, i32 0, i32 2, !dbg !2362
  store i32 128, i32* %File_Type36, align 8, !dbg !2363
  %call37 = call i8* @_ZN3pov14Parse_C_StringEb(i1 zeroext true), !dbg !2364
  store i8* %call37, i8** %Name, align 8, !dbg !2365
  %25 = load %"struct.pov::Image_Struct"*, %"struct.pov::Image_Struct"** %Image, align 8, !dbg !2366
  %26 = load i8*, i8** %Name, align 8, !dbg !2367
  call void @_ZN3pov14Read_PPM_ImageEPNS_12Image_StructEPc(%"struct.pov::Image_Struct"* %25, i8* %26), !dbg !2368
  %27 = load i8*, i8** %Name, align 8, !dbg !2369
  call void @_ZN3pov8pov_freeEPvPKci(i8* %27, i8* getelementptr inbounds ([13 x i8], [13 x i8]* @.str.3, i64 0, i64 0), i32 313), !dbg !2369
  store i8* null, i8** %Name, align 8, !dbg !2369
  store i32 1, i32* %Exit_Flag3, align 4, !dbg !2371
  br label %sw.epilog63, !dbg !2372

sw.bb38:                                          ; preds = %while.body7
  %call39 = call i32 (i8*, ...) @_ZN3pov5ErrorEPKcz(i8* getelementptr inbounds ([63 x i8], [63 x i8]* @.str.4, i64 0, i64 0)), !dbg !2373
  store i32 1, i32* %Exit_Flag3, align 4, !dbg !2374
  br label %sw.epilog63, !dbg !2375

sw.bb40:                                          ; preds = %while.body7
  %call41 = call i32 (i8*, ...) @_ZN3pov5ErrorEPKcz(i8* getelementptr inbounds ([63 x i8], [63 x i8]* @.str.4, i64 0, i64 0)), !dbg !2376
  store i32 1, i32* %Exit_Flag3, align 4, !dbg !2377
  br label %sw.epilog63, !dbg !2378

sw.bb42:                                          ; preds = %while.body7, %while.body7, %while.body7, %while.body7, %while.body7, %while.body7, %while.body7, %while.body7
  call void @_ZN3pov11Unget_TokenEv(), !dbg !2379
  %call43 = call i8* @_ZN3pov14Parse_C_StringEb(i1 zeroext true), !dbg !2380
  store i8* %call43, i8** %Name, align 8, !dbg !2381
  %28 = load i32, i32* getelementptr inbounds (%"struct.pov::OPTIONS_STRUCT", %"struct.pov::OPTIONS_STRUCT"* @_ZN3pov4optsE, i32 0, i32 5), align 4, !dbg !2382
  %and44 = and i32 %28, 2047, !dbg !2383
  switch i32 %and44, label %sw.default59 [
    i32 1, label %sw.bb45
    i32 8, label %sw.bb47
    i32 4, label %sw.bb49
    i32 16, label %sw.bb51
    i32 256, label %sw.bb53
    i32 128, label %sw.bb55
    i32 512, label %sw.bb57
  ], !dbg !2384

sw.bb45:                                          ; preds = %sw.bb42
  %call46 = call i32 (i8*, ...) @_ZN3pov5ErrorEPKcz(i8* getelementptr inbounds ([63 x i8], [63 x i8]* @.str.4, i64 0, i64 0)), !dbg !2385
  br label %sw.epilog61, !dbg !2387

sw.bb47:                                          ; preds = %sw.bb42
  %29 = load %"struct.pov::Image_Struct"*, %"struct.pov::Image_Struct"** %Image, align 8, !dbg !2388
  %File_Type48 = getelementptr inbounds %"struct.pov::Image_Struct", %"struct.pov::Image_Struct"* %29, i32 0, i32 2, !dbg !2389
  store i32 8, i32* %File_Type48, align 8, !dbg !2390
  %30 = load %"struct.pov::Image_Struct"*, %"struct.pov::Image_Struct"** %Image, align 8, !dbg !2391
  %31 = load i8*, i8** %Name, align 8, !dbg !2392
  call void @_ZN3pov14Read_Iff_ImageEPNS_12Image_StructEPc(%"struct.pov::Image_Struct"* %30, i8* %31), !dbg !2393
  br label %sw.epilog61, !dbg !2394

sw.bb49:                                          ; preds = %sw.bb42
  %call50 = call i32 (i8*, ...) @_ZN3pov5ErrorEPKcz(i8* getelementptr inbounds ([63 x i8], [63 x i8]* @.str.4, i64 0, i64 0)), !dbg !2395
  br label %sw.epilog61, !dbg !2396

sw.bb51:                                          ; preds = %sw.bb42
  %32 = load %"struct.pov::Image_Struct"*, %"struct.pov::Image_Struct"** %Image, align 8, !dbg !2397
  %File_Type52 = getelementptr inbounds %"struct.pov::Image_Struct", %"struct.pov::Image_Struct"* %32, i32 0, i32 2, !dbg !2398
  store i32 16, i32* %File_Type52, align 8, !dbg !2399
  %33 = load %"struct.pov::Image_Struct"*, %"struct.pov::Image_Struct"** %Image, align 8, !dbg !2400
  %34 = load i8*, i8** %Name, align 8, !dbg !2401
  call void @_ZN3pov16Read_Targa_ImageEPNS_12Image_StructEPc(%"struct.pov::Image_Struct"* %33, i8* %34), !dbg !2402
  br label %sw.epilog61, !dbg !2403

sw.bb53:                                          ; preds = %sw.bb42
  %call54 = call i32 (i8*, ...) @_ZN3pov5ErrorEPKcz(i8* getelementptr inbounds ([63 x i8], [63 x i8]* @.str.4, i64 0, i64 0)), !dbg !2404
  br label %sw.epilog61, !dbg !2405

sw.bb55:                                          ; preds = %sw.bb42
  %35 = load %"struct.pov::Image_Struct"*, %"struct.pov::Image_Struct"** %Image, align 8, !dbg !2406
  %File_Type56 = getelementptr inbounds %"struct.pov::Image_Struct", %"struct.pov::Image_Struct"* %35, i32 0, i32 2, !dbg !2407
  store i32 128, i32* %File_Type56, align 8, !dbg !2408
  %36 = load %"struct.pov::Image_Struct"*, %"struct.pov::Image_Struct"** %Image, align 8, !dbg !2409
  %37 = load i8*, i8** %Name, align 8, !dbg !2410
  call void @_ZN3pov14Read_PPM_ImageEPNS_12Image_StructEPc(%"struct.pov::Image_Struct"* %36, i8* %37), !dbg !2411
  br label %sw.epilog61, !dbg !2412

sw.bb57:                                          ; preds = %sw.bb42
  %call58 = call i32 (i8*, ...) @_ZN3pov5ErrorEPKcz(i8* getelementptr inbounds ([63 x i8], [63 x i8]* @.str.4, i64 0, i64 0)), !dbg !2413
  br label %sw.epilog61, !dbg !2414

sw.default59:                                     ; preds = %sw.bb42
  %call60 = call i32 (i8*, ...) @_ZN3pov5ErrorEPKcz(i8* getelementptr inbounds ([57 x i8], [57 x i8]* @.str.5, i64 0, i64 0)), !dbg !2415
  br label %sw.epilog61, !dbg !2416

sw.epilog61:                                      ; preds = %sw.default59, %sw.bb57, %sw.bb55, %sw.bb53, %sw.bb51, %sw.bb49, %sw.bb47, %sw.bb45
  %38 = load i8*, i8** %Name, align 8, !dbg !2417
  call void @_ZN3pov8pov_freeEPvPKci(i8* %38, i8* getelementptr inbounds ([13 x i8], [13 x i8]* @.str.3, i64 0, i64 0), i32 366), !dbg !2417
  store i8* null, i8** %Name, align 8, !dbg !2417
  store i32 1, i32* %Exit_Flag3, align 4, !dbg !2419
  br label %sw.epilog63, !dbg !2420

sw.default62:                                     ; preds = %while.body7
  call void @_ZN3pov17Expectation_ErrorEPKc(i8* getelementptr inbounds ([14 x i8], [14 x i8]* @.str.6, i64 0, i64 0)), !dbg !2421
  br label %sw.epilog63, !dbg !2422

sw.epilog63:                                      ; preds = %sw.default62, %sw.epilog61, %sw.bb40, %sw.bb38, %sw.bb35, %sw.bb32, %sw.bb30, %sw.bb27, %sw.bb25, %sw.bb23, %sw.bb21, %sw.bb18, %if.end16
  br label %while.cond4, !dbg !2281, !llvm.loop !2423

while.end64:                                      ; preds = %while.cond4
  %39 = load %"struct.pov::Image_Struct"*, %"struct.pov::Image_Struct"** %Image, align 8, !dbg !2425
  %File_Type65 = getelementptr inbounds %"struct.pov::Image_Struct", %"struct.pov::Image_Struct"* %39, i32 0, i32 2, !dbg !2427
  %40 = load i32, i32* %File_Type65, align 8, !dbg !2427
  %41 = load i32, i32* %Legal.addr, align 4, !dbg !2428
  %and66 = and i32 %40, %41, !dbg !2429
  %tobool67 = icmp ne i32 %and66, 0, !dbg !2430
  br i1 %tobool67, label %if.end70, label %if.then68, !dbg !2431

if.then68:                                        ; preds = %while.end64
  %call69 = call i32 (i8*, ...) @_ZN3pov5ErrorEPKcz(i8* getelementptr inbounds ([30 x i8], [30 x i8]* @.str.7, i64 0, i64 0)), !dbg !2432
  br label %if.end70, !dbg !2432

if.end70:                                         ; preds = %if.then68, %while.end64
  %42 = load %"struct.pov::Image_Struct"*, %"struct.pov::Image_Struct"** %Image, align 8, !dbg !2433
  ret %"struct.pov::Image_Struct"* %42, !dbg !2434
}

; Function Attrs: nounwind readnone speculatable willreturn
declare void @llvm.dbg.declare(metadata, metadata, metadata) #1

declare dso_local %"struct.pov::Image_Struct"* @_ZN3pov12Create_ImageEv() #2

declare dso_local void @_ZN3pov9Get_TokenEv() #2

declare dso_local void @_ZN3pov11Unget_TokenEv() #2

declare dso_local i32 @_ZN3pov7WarningEjPKcz(i32, i8*, ...) #2

declare dso_local void @_ZN3pov12Parse_VectorEPd(double*) #2

declare dso_local double @_ZN3pov11Parse_FloatEv() #2

declare dso_local void @_ZN3pov11Parse_CommaEv() #2

declare dso_local void @_ZN3pov19Found_Instead_ErrorEPKcS1_(i8*, i8*) #2

; Function Attrs: noinline uwtable
define internal void @_ZN3povL18Make_Pattern_ImageEPNS_12Image_StructEPjPi(%"struct.pov::Image_Struct"* %Image, i32* %fn, i32* %token) #0 !dbg !2435 {
entry:
  %Image.addr = alloca %"struct.pov::Image_Struct"*, align 8
  %fn.addr = alloca i32*, align 8
  %token.addr = alloca i32*, align 8
  %i = alloca i32, align 4
  %j = alloca i32, align 4
  %val = alloca double, align 8
  %f = alloca %"struct.pov::FunctionCode"*, align 8
  %rgb16_line = alloca %"struct.pov::Image16_Line_Struct"*, align 8
  %gray16_line = alloca i16*, align 8
  %Point = alloca [3 x double], align 16
  store %"struct.pov::Image_Struct"* %Image, %"struct.pov::Image_Struct"** %Image.addr, align 8
  call void @llvm.dbg.declare(metadata %"struct.pov::Image_Struct"** %Image.addr, metadata !2441, metadata !DIExpression()), !dbg !2442
  store i32* %fn, i32** %fn.addr, align 8
  call void @llvm.dbg.declare(metadata i32** %fn.addr, metadata !2443, metadata !DIExpression()), !dbg !2444
  store i32* %token, i32** %token.addr, align 8
  call void @llvm.dbg.declare(metadata i32** %token.addr, metadata !2445, metadata !DIExpression()), !dbg !2446
  call void @llvm.dbg.declare(metadata i32* %i, metadata !2447, metadata !DIExpression()), !dbg !2448
  store i32 0, i32* %i, align 4, !dbg !2448
  call void @llvm.dbg.declare(metadata i32* %j, metadata !2449, metadata !DIExpression()), !dbg !2450
  store i32 0, i32* %j, align 4, !dbg !2450
  call void @llvm.dbg.declare(metadata double* %val, metadata !2451, metadata !DIExpression()), !dbg !2452
  store double 0.000000e+00, double* %val, align 8, !dbg !2452
  call void @llvm.dbg.declare(metadata %"struct.pov::FunctionCode"** %f, metadata !2453, metadata !DIExpression()), !dbg !2490
  %0 = load i32*, i32** %fn.addr, align 8, !dbg !2491
  %1 = load i32, i32* %0, align 4, !dbg !2492
  %call = call %"struct.pov::FunctionCode"* @_ZN3pov18POVFPU_GetFunctionEj(i32 %1), !dbg !2493
  store %"struct.pov::FunctionCode"* %call, %"struct.pov::FunctionCode"** %f, align 8, !dbg !2490
  call void @llvm.dbg.declare(metadata %"struct.pov::Image16_Line_Struct"** %rgb16_line, metadata !2494, metadata !DIExpression()), !dbg !2495
  call void @llvm.dbg.declare(metadata i16** %gray16_line, metadata !2496, metadata !DIExpression()), !dbg !2497
  call void @llvm.dbg.declare(metadata [3 x double]* %Point, metadata !2498, metadata !DIExpression()), !dbg !2499
  %2 = load %"struct.pov::Image_Struct"*, %"struct.pov::Image_Struct"** %Image.addr, align 8, !dbg !2500
  %width = getelementptr inbounds %"struct.pov::Image_Struct", %"struct.pov::Image_Struct"* %2, i32 0, i32 11, !dbg !2501
  %3 = load float, float* %width, align 8, !dbg !2501
  %conv = fptosi float %3 to i32, !dbg !2500
  %4 = load %"struct.pov::Image_Struct"*, %"struct.pov::Image_Struct"** %Image.addr, align 8, !dbg !2502
  %iwidth = getelementptr inbounds %"struct.pov::Image_Struct", %"struct.pov::Image_Struct"* %4, i32 0, i32 5, !dbg !2503
  store i32 %conv, i32* %iwidth, align 4, !dbg !2504
  %5 = load %"struct.pov::Image_Struct"*, %"struct.pov::Image_Struct"** %Image.addr, align 8, !dbg !2505
  %height = getelementptr inbounds %"struct.pov::Image_Struct", %"struct.pov::Image_Struct"* %5, i32 0, i32 12, !dbg !2506
  %6 = load float, float* %height, align 4, !dbg !2506
  %conv1 = fptosi float %6 to i32, !dbg !2505
  %7 = load %"struct.pov::Image_Struct"*, %"struct.pov::Image_Struct"** %Image.addr, align 8, !dbg !2507
  %iheight = getelementptr inbounds %"struct.pov::Image_Struct", %"struct.pov::Image_Struct"* %7, i32 0, i32 6, !dbg !2508
  store i32 %conv1, i32* %iheight, align 8, !dbg !2509
  %8 = load %"struct.pov::Image_Struct"*, %"struct.pov::Image_Struct"** %Image.addr, align 8, !dbg !2510
  %Colour_Map_Size = getelementptr inbounds %"struct.pov::Image_Struct", %"struct.pov::Image_Struct"* %8, i32 0, i32 7, !dbg !2511
  store i16 0, i16* %Colour_Map_Size, align 4, !dbg !2512
  %9 = load %"struct.pov::Image_Struct"*, %"struct.pov::Image_Struct"** %Image.addr, align 8, !dbg !2513
  %Colour_Map = getelementptr inbounds %"struct.pov::Image_Struct", %"struct.pov::Image_Struct"* %9, i32 0, i32 16, !dbg !2514
  store %"struct.pov::Image_Colour_Struct"* null, %"struct.pov::Image_Colour_Struct"** %Colour_Map, align 8, !dbg !2515
  %10 = load %"struct.pov::Image_Struct"*, %"struct.pov::Image_Struct"** %Image.addr, align 8, !dbg !2516
  %Image_Type = getelementptr inbounds %"struct.pov::Image_Struct", %"struct.pov::Image_Struct"* %10, i32 0, i32 3, !dbg !2517
  %11 = load i32, i32* %Image_Type, align 4, !dbg !2518
  %or = or i32 %11, 131072, !dbg !2518
  store i32 %or, i32* %Image_Type, align 4, !dbg !2518
  %12 = load i32*, i32** %token.addr, align 8, !dbg !2519
  %13 = load i32, i32* %12, align 4, !dbg !2521
  %cmp = icmp eq i32 %13, 487, !dbg !2522
  br i1 %cmp, label %if.then, label %if.else, !dbg !2523

if.then:                                          ; preds = %entry
  %14 = load %"struct.pov::Image_Struct"*, %"struct.pov::Image_Struct"** %Image.addr, align 8, !dbg !2524
  %Image_Type2 = getelementptr inbounds %"struct.pov::Image_Struct", %"struct.pov::Image_Struct"* %14, i32 0, i32 3, !dbg !2526
  %15 = load i32, i32* %Image_Type2, align 4, !dbg !2527
  %or3 = or i32 %15, 262144, !dbg !2527
  store i32 %or3, i32* %Image_Type2, align 4, !dbg !2527
  %16 = load %"struct.pov::Image_Struct"*, %"struct.pov::Image_Struct"** %Image.addr, align 8, !dbg !2528
  %iheight4 = getelementptr inbounds %"struct.pov::Image_Struct", %"struct.pov::Image_Struct"* %16, i32 0, i32 6, !dbg !2528
  %17 = load i32, i32* %iheight4, align 8, !dbg !2528
  %conv5 = sext i32 %17 to i64, !dbg !2528
  %mul = mul i64 %conv5, 8, !dbg !2528
  %call6 = call i8* @_ZN3pov10pov_mallocEmPKciS1_(i64 %mul, i8* getelementptr inbounds ([13 x i8], [13 x i8]* @.str.3, i64 0, i64 0), i32 143, i8* getelementptr inbounds ([15 x i8], [15 x i8]* @.str.68, i64 0, i64 0)), !dbg !2528
  %18 = bitcast i8* %call6 to i16**, !dbg !2529
  %19 = load %"struct.pov::Image_Struct"*, %"struct.pov::Image_Struct"** %Image.addr, align 8, !dbg !2530
  %data = getelementptr inbounds %"struct.pov::Image_Struct", %"struct.pov::Image_Struct"* %19, i32 0, i32 18, !dbg !2531
  %gray16_lines = bitcast %union.anon.2* %data to i16***, !dbg !2532
  store i16** %18, i16*** %gray16_lines, align 8, !dbg !2533
  %arrayidx = getelementptr inbounds [3 x double], [3 x double]* %Point, i64 0, i64 2, !dbg !2534
  store double 0.000000e+00, double* %arrayidx, align 16, !dbg !2535
  store i32 0, i32* %i, align 4, !dbg !2536
  br label %for.cond, !dbg !2538

for.cond:                                         ; preds = %for.inc38, %if.then
  %20 = load i32, i32* %i, align 4, !dbg !2539
  %21 = load %"struct.pov::Image_Struct"*, %"struct.pov::Image_Struct"** %Image.addr, align 8, !dbg !2541
  %iheight7 = getelementptr inbounds %"struct.pov::Image_Struct", %"struct.pov::Image_Struct"* %21, i32 0, i32 6, !dbg !2542
  %22 = load i32, i32* %iheight7, align 8, !dbg !2542
  %cmp8 = icmp slt i32 %20, %22, !dbg !2543
  br i1 %cmp8, label %for.body, label %for.end40, !dbg !2544

for.body:                                         ; preds = %for.cond
  %23 = load i32, i32* %i, align 4, !dbg !2545
  %conv9 = sitofp i32 %23 to double, !dbg !2545
  %24 = load %"struct.pov::Image_Struct"*, %"struct.pov::Image_Struct"** %Image.addr, align 8, !dbg !2547
  %height10 = getelementptr inbounds %"struct.pov::Image_Struct", %"struct.pov::Image_Struct"* %24, i32 0, i32 12, !dbg !2548
  %25 = load float, float* %height10, align 4, !dbg !2548
  %sub = fsub float %25, 1.000000e+00, !dbg !2549
  %conv11 = fpext float %sub to double, !dbg !2550
  %div = fdiv double %conv9, %conv11, !dbg !2551
  %arrayidx12 = getelementptr inbounds [3 x double], [3 x double]* %Point, i64 0, i64 1, !dbg !2552
  store double %div, double* %arrayidx12, align 8, !dbg !2553
  %26 = load %"struct.pov::Image_Struct"*, %"struct.pov::Image_Struct"** %Image.addr, align 8, !dbg !2554
  %iwidth13 = getelementptr inbounds %"struct.pov::Image_Struct", %"struct.pov::Image_Struct"* %26, i32 0, i32 5, !dbg !2554
  %27 = load i32, i32* %iwidth13, align 4, !dbg !2554
  %conv14 = sext i32 %27 to i64, !dbg !2554
  %mul15 = mul i64 2, %conv14, !dbg !2554
  %call16 = call i8* @_ZN3pov10pov_mallocEmPKciS1_(i64 %mul15, i8* getelementptr inbounds ([13 x i8], [13 x i8]* @.str.3, i64 0, i64 0), i32 150, i8* getelementptr inbounds ([20 x i8], [20 x i8]* @.str.69, i64 0, i64 0)), !dbg !2554
  %28 = bitcast i8* %call16 to i16*, !dbg !2555
  %29 = load %"struct.pov::Image_Struct"*, %"struct.pov::Image_Struct"** %Image.addr, align 8, !dbg !2556
  %data17 = getelementptr inbounds %"struct.pov::Image_Struct", %"struct.pov::Image_Struct"* %29, i32 0, i32 18, !dbg !2557
  %gray16_lines18 = bitcast %union.anon.2* %data17 to i16***, !dbg !2558
  %30 = load i16**, i16*** %gray16_lines18, align 8, !dbg !2558
  %31 = load i32, i32* %i, align 4, !dbg !2559
  %idxprom = sext i32 %31 to i64, !dbg !2556
  %arrayidx19 = getelementptr inbounds i16*, i16** %30, i64 %idxprom, !dbg !2556
  store i16* %28, i16** %arrayidx19, align 8, !dbg !2560
  store i16* %28, i16** %gray16_line, align 8, !dbg !2561
  store i32 0, i32* %j, align 4, !dbg !2562
  br label %for.cond20, !dbg !2564

for.cond20:                                       ; preds = %for.inc, %for.body
  %32 = load i32, i32* %j, align 4, !dbg !2565
  %33 = load %"struct.pov::Image_Struct"*, %"struct.pov::Image_Struct"** %Image.addr, align 8, !dbg !2567
  %iwidth21 = getelementptr inbounds %"struct.pov::Image_Struct", %"struct.pov::Image_Struct"* %33, i32 0, i32 5, !dbg !2568
  %34 = load i32, i32* %iwidth21, align 4, !dbg !2568
  %cmp22 = icmp slt i32 %32, %34, !dbg !2569
  br i1 %cmp22, label %for.body23, label %for.end, !dbg !2570

for.body23:                                       ; preds = %for.cond20
  %35 = load i32, i32* %j, align 4, !dbg !2571
  %conv24 = sitofp i32 %35 to double, !dbg !2571
  %36 = load %"struct.pov::Image_Struct"*, %"struct.pov::Image_Struct"** %Image.addr, align 8, !dbg !2573
  %width25 = getelementptr inbounds %"struct.pov::Image_Struct", %"struct.pov::Image_Struct"* %36, i32 0, i32 11, !dbg !2574
  %37 = load float, float* %width25, align 8, !dbg !2574
  %sub26 = fsub float %37, 1.000000e+00, !dbg !2575
  %conv27 = fpext float %sub26 to double, !dbg !2576
  %div28 = fdiv double %conv24, %conv27, !dbg !2577
  %arrayidx29 = getelementptr inbounds [3 x double], [3 x double]* %Point, i64 0, i64 0, !dbg !2578
  store double %div28, double* %arrayidx29, align 16, !dbg !2579
  %arrayidx30 = getelementptr inbounds [3 x double], [3 x double]* %Point, i64 0, i64 0, !dbg !2580
  %38 = load double, double* %arrayidx30, align 16, !dbg !2580
  call void @_ZN3pov15POVFPU_SetLocalEjd(i32 0, double %38), !dbg !2581
  %arrayidx31 = getelementptr inbounds [3 x double], [3 x double]* %Point, i64 0, i64 1, !dbg !2582
  %39 = load double, double* %arrayidx31, align 8, !dbg !2582
  call void @_ZN3pov15POVFPU_SetLocalEjd(i32 1, double %39), !dbg !2583
  %arrayidx32 = getelementptr inbounds [3 x double], [3 x double]* %Point, i64 0, i64 2, !dbg !2584
  %40 = load double, double* %arrayidx32, align 16, !dbg !2584
  call void @_ZN3pov15POVFPU_SetLocalEjd(i32 2, double %40), !dbg !2585
  %41 = load i32*, i32** %fn.addr, align 8, !dbg !2586
  %42 = load i32, i32* %41, align 4, !dbg !2586
  %call33 = call double @_ZN3pov17POVFPU_RunDefaultEj(i32 %42), !dbg !2586
  %mul34 = fmul double 6.553500e+04, %call33, !dbg !2587
  %conv35 = fptoui double %mul34 to i16, !dbg !2588
  %43 = load i16*, i16** %gray16_line, align 8, !dbg !2589
  %44 = load i32, i32* %j, align 4, !dbg !2590
  %idxprom36 = sext i32 %44 to i64, !dbg !2589
  %arrayidx37 = getelementptr inbounds i16, i16* %43, i64 %idxprom36, !dbg !2589
  store i16 %conv35, i16* %arrayidx37, align 2, !dbg !2591
  br label %for.inc, !dbg !2592

for.inc:                                          ; preds = %for.body23
  %45 = load i32, i32* %j, align 4, !dbg !2593
  %inc = add nsw i32 %45, 1, !dbg !2593
  store i32 %inc, i32* %j, align 4, !dbg !2593
  br label %for.cond20, !dbg !2594, !llvm.loop !2595

for.end:                                          ; preds = %for.cond20
  br label %for.inc38, !dbg !2597

for.inc38:                                        ; preds = %for.end
  %46 = load i32, i32* %i, align 4, !dbg !2598
  %inc39 = add nsw i32 %46, 1, !dbg !2598
  store i32 %inc39, i32* %i, align 4, !dbg !2598
  br label %for.cond, !dbg !2599, !llvm.loop !2600

for.end40:                                        ; preds = %for.cond
  br label %if.end135, !dbg !2602

if.else:                                          ; preds = %entry
  %47 = load i32*, i32** %token.addr, align 8, !dbg !2603
  %48 = load i32, i32* %47, align 4, !dbg !2605
  %cmp41 = icmp eq i32 %48, 488, !dbg !2606
  br i1 %cmp41, label %land.lhs.true, label %if.else133, !dbg !2607

land.lhs.true:                                    ; preds = %if.else
  %49 = load %"struct.pov::FunctionCode"*, %"struct.pov::FunctionCode"** %f, align 8, !dbg !2608
  %return_size = getelementptr inbounds %"struct.pov::FunctionCode", %"struct.pov::FunctionCode"* %49, i32 0, i32 2, !dbg !2609
  %50 = load i8, i8* %return_size, align 4, !dbg !2609
  %conv42 = zext i8 %50 to i32, !dbg !2608
  %cmp43 = icmp eq i32 %conv42, 5, !dbg !2610
  br i1 %cmp43, label %if.then44, label %if.else133, !dbg !2611

if.then44:                                        ; preds = %land.lhs.true
  %51 = load %"struct.pov::Image_Struct"*, %"struct.pov::Image_Struct"** %Image.addr, align 8, !dbg !2612
  %iheight45 = getelementptr inbounds %"struct.pov::Image_Struct", %"struct.pov::Image_Struct"* %51, i32 0, i32 6, !dbg !2612
  %52 = load i32, i32* %iheight45, align 8, !dbg !2612
  %conv46 = sext i32 %52 to i64, !dbg !2612
  %mul47 = mul i64 %conv46, 32, !dbg !2612
  %call48 = call i8* @_ZN3pov10pov_mallocEmPKciS1_(i64 %mul47, i8* getelementptr inbounds ([13 x i8], [13 x i8]* @.str.3, i64 0, i64 0), i32 166, i8* getelementptr inbounds ([15 x i8], [15 x i8]* @.str.68, i64 0, i64 0)), !dbg !2612
  %53 = bitcast i8* %call48 to %"struct.pov::Image16_Line_Struct"*, !dbg !2614
  %54 = load %"struct.pov::Image_Struct"*, %"struct.pov::Image_Struct"** %Image.addr, align 8, !dbg !2615
  %data49 = getelementptr inbounds %"struct.pov::Image_Struct", %"struct.pov::Image_Struct"* %54, i32 0, i32 18, !dbg !2616
  %rgb16_lines = bitcast %union.anon.2* %data49 to %"struct.pov::Image16_Line_Struct"**, !dbg !2617
  store %"struct.pov::Image16_Line_Struct"* %53, %"struct.pov::Image16_Line_Struct"** %rgb16_lines, align 8, !dbg !2618
  %arrayidx50 = getelementptr inbounds [3 x double], [3 x double]* %Point, i64 0, i64 2, !dbg !2619
  store double 0.000000e+00, double* %arrayidx50, align 16, !dbg !2620
  store i32 0, i32* %i, align 4, !dbg !2621
  br label %for.cond51, !dbg !2623

for.cond51:                                       ; preds = %for.inc130, %if.then44
  %55 = load i32, i32* %i, align 4, !dbg !2624
  %56 = load %"struct.pov::Image_Struct"*, %"struct.pov::Image_Struct"** %Image.addr, align 8, !dbg !2626
  %iheight52 = getelementptr inbounds %"struct.pov::Image_Struct", %"struct.pov::Image_Struct"* %56, i32 0, i32 6, !dbg !2627
  %57 = load i32, i32* %iheight52, align 8, !dbg !2627
  %cmp53 = icmp slt i32 %55, %57, !dbg !2628
  br i1 %cmp53, label %for.body54, label %for.end132, !dbg !2629

for.body54:                                       ; preds = %for.cond51
  %58 = load i32, i32* %i, align 4, !dbg !2630
  %conv55 = sitofp i32 %58 to double, !dbg !2630
  %59 = load %"struct.pov::Image_Struct"*, %"struct.pov::Image_Struct"** %Image.addr, align 8, !dbg !2632
  %height56 = getelementptr inbounds %"struct.pov::Image_Struct", %"struct.pov::Image_Struct"* %59, i32 0, i32 12, !dbg !2633
  %60 = load float, float* %height56, align 4, !dbg !2633
  %sub57 = fsub float %60, 1.000000e+00, !dbg !2634
  %conv58 = fpext float %sub57 to double, !dbg !2635
  %div59 = fdiv double %conv55, %conv58, !dbg !2636
  %arrayidx60 = getelementptr inbounds [3 x double], [3 x double]* %Point, i64 0, i64 1, !dbg !2637
  store double %div59, double* %arrayidx60, align 8, !dbg !2638
  %61 = load %"struct.pov::Image_Struct"*, %"struct.pov::Image_Struct"** %Image.addr, align 8, !dbg !2639
  %data61 = getelementptr inbounds %"struct.pov::Image_Struct", %"struct.pov::Image_Struct"* %61, i32 0, i32 18, !dbg !2640
  %rgb16_lines62 = bitcast %union.anon.2* %data61 to %"struct.pov::Image16_Line_Struct"**, !dbg !2641
  %62 = load %"struct.pov::Image16_Line_Struct"*, %"struct.pov::Image16_Line_Struct"** %rgb16_lines62, align 8, !dbg !2641
  %63 = load i32, i32* %i, align 4, !dbg !2642
  %idxprom63 = sext i32 %63 to i64, !dbg !2639
  %arrayidx64 = getelementptr inbounds %"struct.pov::Image16_Line_Struct", %"struct.pov::Image16_Line_Struct"* %62, i64 %idxprom63, !dbg !2639
  store %"struct.pov::Image16_Line_Struct"* %arrayidx64, %"struct.pov::Image16_Line_Struct"** %rgb16_line, align 8, !dbg !2643
  %64 = load %"struct.pov::Image_Struct"*, %"struct.pov::Image_Struct"** %Image.addr, align 8, !dbg !2644
  %iwidth65 = getelementptr inbounds %"struct.pov::Image_Struct", %"struct.pov::Image_Struct"* %64, i32 0, i32 5, !dbg !2644
  %65 = load i32, i32* %iwidth65, align 4, !dbg !2644
  %conv66 = sext i32 %65 to i64, !dbg !2644
  %mul67 = mul i64 2, %conv66, !dbg !2644
  %call68 = call i8* @_ZN3pov10pov_mallocEmPKciS1_(i64 %mul67, i8* getelementptr inbounds ([13 x i8], [13 x i8]* @.str.3, i64 0, i64 0), i32 175, i8* getelementptr inbounds ([20 x i8], [20 x i8]* @.str.69, i64 0, i64 0)), !dbg !2644
  %66 = bitcast i8* %call68 to i16*, !dbg !2645
  %67 = load %"struct.pov::Image16_Line_Struct"*, %"struct.pov::Image16_Line_Struct"** %rgb16_line, align 8, !dbg !2646
  %red = getelementptr inbounds %"struct.pov::Image16_Line_Struct", %"struct.pov::Image16_Line_Struct"* %67, i32 0, i32 0, !dbg !2647
  store i16* %66, i16** %red, align 8, !dbg !2648
  %68 = load %"struct.pov::Image_Struct"*, %"struct.pov::Image_Struct"** %Image.addr, align 8, !dbg !2649
  %iwidth69 = getelementptr inbounds %"struct.pov::Image_Struct", %"struct.pov::Image_Struct"* %68, i32 0, i32 5, !dbg !2649
  %69 = load i32, i32* %iwidth69, align 4, !dbg !2649
  %conv70 = sext i32 %69 to i64, !dbg !2649
  %mul71 = mul i64 2, %conv70, !dbg !2649
  %call72 = call i8* @_ZN3pov10pov_mallocEmPKciS1_(i64 %mul71, i8* getelementptr inbounds ([13 x i8], [13 x i8]* @.str.3, i64 0, i64 0), i32 176, i8* getelementptr inbounds ([20 x i8], [20 x i8]* @.str.69, i64 0, i64 0)), !dbg !2649
  %70 = bitcast i8* %call72 to i16*, !dbg !2650
  %71 = load %"struct.pov::Image16_Line_Struct"*, %"struct.pov::Image16_Line_Struct"** %rgb16_line, align 8, !dbg !2651
  %green = getelementptr inbounds %"struct.pov::Image16_Line_Struct", %"struct.pov::Image16_Line_Struct"* %71, i32 0, i32 1, !dbg !2652
  store i16* %70, i16** %green, align 8, !dbg !2653
  %72 = load %"struct.pov::Image_Struct"*, %"struct.pov::Image_Struct"** %Image.addr, align 8, !dbg !2654
  %iwidth73 = getelementptr inbounds %"struct.pov::Image_Struct", %"struct.pov::Image_Struct"* %72, i32 0, i32 5, !dbg !2654
  %73 = load i32, i32* %iwidth73, align 4, !dbg !2654
  %conv74 = sext i32 %73 to i64, !dbg !2654
  %mul75 = mul i64 2, %conv74, !dbg !2654
  %call76 = call i8* @_ZN3pov10pov_mallocEmPKciS1_(i64 %mul75, i8* getelementptr inbounds ([13 x i8], [13 x i8]* @.str.3, i64 0, i64 0), i32 177, i8* getelementptr inbounds ([20 x i8], [20 x i8]* @.str.69, i64 0, i64 0)), !dbg !2654
  %74 = bitcast i8* %call76 to i16*, !dbg !2655
  %75 = load %"struct.pov::Image16_Line_Struct"*, %"struct.pov::Image16_Line_Struct"** %rgb16_line, align 8, !dbg !2656
  %blue = getelementptr inbounds %"struct.pov::Image16_Line_Struct", %"struct.pov::Image16_Line_Struct"* %75, i32 0, i32 2, !dbg !2657
  store i16* %74, i16** %blue, align 8, !dbg !2658
  %76 = load %"struct.pov::Image_Struct"*, %"struct.pov::Image_Struct"** %Image.addr, align 8, !dbg !2659
  %iwidth77 = getelementptr inbounds %"struct.pov::Image_Struct", %"struct.pov::Image_Struct"* %76, i32 0, i32 5, !dbg !2659
  %77 = load i32, i32* %iwidth77, align 4, !dbg !2659
  %conv78 = sext i32 %77 to i64, !dbg !2659
  %mul79 = mul i64 2, %conv78, !dbg !2659
  %call80 = call i8* @_ZN3pov10pov_mallocEmPKciS1_(i64 %mul79, i8* getelementptr inbounds ([13 x i8], [13 x i8]* @.str.3, i64 0, i64 0), i32 178, i8* getelementptr inbounds ([20 x i8], [20 x i8]* @.str.69, i64 0, i64 0)), !dbg !2659
  %78 = bitcast i8* %call80 to i16*, !dbg !2660
  %79 = load %"struct.pov::Image16_Line_Struct"*, %"struct.pov::Image16_Line_Struct"** %rgb16_line, align 8, !dbg !2661
  %transm = getelementptr inbounds %"struct.pov::Image16_Line_Struct", %"struct.pov::Image16_Line_Struct"* %79, i32 0, i32 3, !dbg !2662
  store i16* %78, i16** %transm, align 8, !dbg !2663
  store i32 0, i32* %j, align 4, !dbg !2664
  br label %for.cond81, !dbg !2666

for.cond81:                                       ; preds = %for.inc127, %for.body54
  %80 = load i32, i32* %j, align 4, !dbg !2667
  %81 = load %"struct.pov::Image_Struct"*, %"struct.pov::Image_Struct"** %Image.addr, align 8, !dbg !2669
  %iwidth82 = getelementptr inbounds %"struct.pov::Image_Struct", %"struct.pov::Image_Struct"* %81, i32 0, i32 5, !dbg !2670
  %82 = load i32, i32* %iwidth82, align 4, !dbg !2670
  %cmp83 = icmp slt i32 %80, %82, !dbg !2671
  br i1 %cmp83, label %for.body84, label %for.end129, !dbg !2672

for.body84:                                       ; preds = %for.cond81
  %83 = load i32, i32* %j, align 4, !dbg !2673
  %conv85 = sitofp i32 %83 to double, !dbg !2673
  %84 = load %"struct.pov::Image_Struct"*, %"struct.pov::Image_Struct"** %Image.addr, align 8, !dbg !2675
  %width86 = getelementptr inbounds %"struct.pov::Image_Struct", %"struct.pov::Image_Struct"* %84, i32 0, i32 11, !dbg !2676
  %85 = load float, float* %width86, align 8, !dbg !2676
  %sub87 = fsub float %85, 1.000000e+00, !dbg !2677
  %conv88 = fpext float %sub87 to double, !dbg !2678
  %div89 = fdiv double %conv85, %conv88, !dbg !2679
  %arrayidx90 = getelementptr inbounds [3 x double], [3 x double]* %Point, i64 0, i64 0, !dbg !2680
  store double %div89, double* %arrayidx90, align 16, !dbg !2681
  %86 = load %"struct.pov::FunctionCode"*, %"struct.pov::FunctionCode"** %f, align 8, !dbg !2682
  %return_size91 = getelementptr inbounds %"struct.pov::FunctionCode", %"struct.pov::FunctionCode"* %86, i32 0, i32 2, !dbg !2683
  %87 = load i8, i8* %return_size91, align 4, !dbg !2683
  %conv92 = zext i8 %87 to i32, !dbg !2682
  %add = add nsw i32 0, %conv92, !dbg !2684
  %arrayidx93 = getelementptr inbounds [3 x double], [3 x double]* %Point, i64 0, i64 0, !dbg !2685
  %88 = load double, double* %arrayidx93, align 16, !dbg !2685
  call void @_ZN3pov15POVFPU_SetLocalEjd(i32 %add, double %88), !dbg !2686
  %89 = load %"struct.pov::FunctionCode"*, %"struct.pov::FunctionCode"** %f, align 8, !dbg !2687
  %return_size94 = getelementptr inbounds %"struct.pov::FunctionCode", %"struct.pov::FunctionCode"* %89, i32 0, i32 2, !dbg !2688
  %90 = load i8, i8* %return_size94, align 4, !dbg !2688
  %conv95 = zext i8 %90 to i32, !dbg !2687
  %add96 = add nsw i32 1, %conv95, !dbg !2689
  %arrayidx97 = getelementptr inbounds [3 x double], [3 x double]* %Point, i64 0, i64 1, !dbg !2690
  %91 = load double, double* %arrayidx97, align 8, !dbg !2690
  call void @_ZN3pov15POVFPU_SetLocalEjd(i32 %add96, double %91), !dbg !2691
  %92 = load %"struct.pov::FunctionCode"*, %"struct.pov::FunctionCode"** %f, align 8, !dbg !2692
  %return_size98 = getelementptr inbounds %"struct.pov::FunctionCode", %"struct.pov::FunctionCode"* %92, i32 0, i32 2, !dbg !2693
  %93 = load i8, i8* %return_size98, align 4, !dbg !2693
  %conv99 = zext i8 %93 to i32, !dbg !2692
  %add100 = add nsw i32 2, %conv99, !dbg !2694
  %arrayidx101 = getelementptr inbounds [3 x double], [3 x double]* %Point, i64 0, i64 2, !dbg !2695
  %94 = load double, double* %arrayidx101, align 16, !dbg !2695
  call void @_ZN3pov15POVFPU_SetLocalEjd(i32 %add100, double %94), !dbg !2696
  %95 = load i32*, i32** %fn.addr, align 8, !dbg !2697
  %96 = load i32, i32* %95, align 4, !dbg !2697
  %call102 = call double @_ZN3pov17POVFPU_RunDefaultEj(i32 %96), !dbg !2697
  %call103 = call double @_ZN3pov15POVFPU_GetLocalEj(i32 0), !dbg !2698
  %mul104 = fmul double 6.553500e+04, %call103, !dbg !2699
  %conv105 = fptoui double %mul104 to i16, !dbg !2700
  %97 = load %"struct.pov::Image16_Line_Struct"*, %"struct.pov::Image16_Line_Struct"** %rgb16_line, align 8, !dbg !2701
  %red106 = getelementptr inbounds %"struct.pov::Image16_Line_Struct", %"struct.pov::Image16_Line_Struct"* %97, i32 0, i32 0, !dbg !2702
  %98 = load i16*, i16** %red106, align 8, !dbg !2702
  %99 = load i32, i32* %j, align 4, !dbg !2703
  %idxprom107 = sext i32 %99 to i64, !dbg !2701
  %arrayidx108 = getelementptr inbounds i16, i16* %98, i64 %idxprom107, !dbg !2701
  store i16 %conv105, i16* %arrayidx108, align 2, !dbg !2704
  %call109 = call double @_ZN3pov15POVFPU_GetLocalEj(i32 1), !dbg !2705
  %mul110 = fmul double 6.553500e+04, %call109, !dbg !2706
  %conv111 = fptoui double %mul110 to i16, !dbg !2707
  %100 = load %"struct.pov::Image16_Line_Struct"*, %"struct.pov::Image16_Line_Struct"** %rgb16_line, align 8, !dbg !2708
  %green112 = getelementptr inbounds %"struct.pov::Image16_Line_Struct", %"struct.pov::Image16_Line_Struct"* %100, i32 0, i32 1, !dbg !2709
  %101 = load i16*, i16** %green112, align 8, !dbg !2709
  %102 = load i32, i32* %j, align 4, !dbg !2710
  %idxprom113 = sext i32 %102 to i64, !dbg !2708
  %arrayidx114 = getelementptr inbounds i16, i16* %101, i64 %idxprom113, !dbg !2708
  store i16 %conv111, i16* %arrayidx114, align 2, !dbg !2711
  %call115 = call double @_ZN3pov15POVFPU_GetLocalEj(i32 2), !dbg !2712
  %mul116 = fmul double 6.553500e+04, %call115, !dbg !2713
  %conv117 = fptoui double %mul116 to i16, !dbg !2714
  %103 = load %"struct.pov::Image16_Line_Struct"*, %"struct.pov::Image16_Line_Struct"** %rgb16_line, align 8, !dbg !2715
  %blue118 = getelementptr inbounds %"struct.pov::Image16_Line_Struct", %"struct.pov::Image16_Line_Struct"* %103, i32 0, i32 2, !dbg !2716
  %104 = load i16*, i16** %blue118, align 8, !dbg !2716
  %105 = load i32, i32* %j, align 4, !dbg !2717
  %idxprom119 = sext i32 %105 to i64, !dbg !2715
  %arrayidx120 = getelementptr inbounds i16, i16* %104, i64 %idxprom119, !dbg !2715
  store i16 %conv117, i16* %arrayidx120, align 2, !dbg !2718
  %call121 = call double @_ZN3pov15POVFPU_GetLocalEj(i32 4), !dbg !2719
  %mul122 = fmul double 6.553500e+04, %call121, !dbg !2720
  %conv123 = fptoui double %mul122 to i16, !dbg !2721
  %106 = load %"struct.pov::Image16_Line_Struct"*, %"struct.pov::Image16_Line_Struct"** %rgb16_line, align 8, !dbg !2722
  %transm124 = getelementptr inbounds %"struct.pov::Image16_Line_Struct", %"struct.pov::Image16_Line_Struct"* %106, i32 0, i32 3, !dbg !2723
  %107 = load i16*, i16** %transm124, align 8, !dbg !2723
  %108 = load i32, i32* %j, align 4, !dbg !2724
  %idxprom125 = sext i32 %108 to i64, !dbg !2722
  %arrayidx126 = getelementptr inbounds i16, i16* %107, i64 %idxprom125, !dbg !2722
  store i16 %conv123, i16* %arrayidx126, align 2, !dbg !2725
  br label %for.inc127, !dbg !2726

for.inc127:                                       ; preds = %for.body84
  %109 = load i32, i32* %j, align 4, !dbg !2727
  %inc128 = add nsw i32 %109, 1, !dbg !2727
  store i32 %inc128, i32* %j, align 4, !dbg !2727
  br label %for.cond81, !dbg !2728, !llvm.loop !2729

for.end129:                                       ; preds = %for.cond81
  br label %for.inc130, !dbg !2731

for.inc130:                                       ; preds = %for.end129
  %110 = load i32, i32* %i, align 4, !dbg !2732
  %inc131 = add nsw i32 %110, 1, !dbg !2732
  store i32 %inc131, i32* %i, align 4, !dbg !2732
  br label %for.cond51, !dbg !2733, !llvm.loop !2734

for.end132:                                       ; preds = %for.cond51
  br label %if.end, !dbg !2736

if.else133:                                       ; preds = %land.lhs.true, %if.else
  %call134 = call i32 (i8*, ...) @_ZN3pov5ErrorEPKcz(i8* getelementptr inbounds ([45 x i8], [45 x i8]* @.str.70, i64 0, i64 0)), !dbg !2737
  br label %if.end

if.end:                                           ; preds = %if.else133, %for.end132
  br label %if.end135

if.end135:                                        ; preds = %if.end, %for.end40
  %111 = load i32*, i32** %fn.addr, align 8, !dbg !2738
  call void @_ZN3pov16Destroy_FunctionEPj(i32* %111), !dbg !2739
  ret void, !dbg !2740
}

declare dso_local i32* @_ZN3pov21Parse_DeclareFunctionEPiPKcb(i32*, i8*, i1 zeroext) #2

declare dso_local i8* @_ZN3pov14Parse_C_StringEb(i1 zeroext) #2

declare dso_local void @_ZN3pov14Read_Iff_ImageEPNS_12Image_StructEPc(%"struct.pov::Image_Struct"*, i8*) #2

declare dso_local void @_ZN3pov8pov_freeEPvPKci(i8*, i8*, i32) #2

declare dso_local i32 @_ZN3pov5ErrorEPKcz(i8*, ...) #2

declare dso_local void @_ZN3pov16Read_Targa_ImageEPNS_12Image_StructEPc(%"struct.pov::Image_Struct"*, i8*) #2

declare dso_local void @_ZN3pov14Read_PGM_ImageEPNS_12Image_StructEPc(%"struct.pov::Image_Struct"*, i8*) #2

declare dso_local void @_ZN3pov14Read_PPM_ImageEPNS_12Image_StructEPc(%"struct.pov::Image_Struct"*, i8*) #2

declare dso_local void @_ZN3pov17Expectation_ErrorEPKc(i8*) #2

; Function Attrs: noinline uwtable
define dso_local void @_ZN3pov13Parse_PigmentEPPNS_14Pigment_StructE(%"struct.pov::Pigment_Struct"** %Pigment_Ptr) #0 !dbg !2741 {
entry:
  %Pigment_Ptr.addr = alloca %"struct.pov::Pigment_Struct"**, align 8
  %Exit_Flag = alloca i32, align 4
  store %"struct.pov::Pigment_Struct"** %Pigment_Ptr, %"struct.pov::Pigment_Struct"*** %Pigment_Ptr.addr, align 8
  call void @llvm.dbg.declare(metadata %"struct.pov::Pigment_Struct"*** %Pigment_Ptr.addr, metadata !2744, metadata !DIExpression()), !dbg !2745
  call void @llvm.dbg.declare(metadata i32* %Exit_Flag, metadata !2746, metadata !DIExpression()), !dbg !2748
  store i32 0, i32* %Exit_Flag, align 4, !dbg !2748
  br label %while.cond, !dbg !2748

while.cond:                                       ; preds = %sw.epilog, %entry
  %0 = load i32, i32* %Exit_Flag, align 4, !dbg !2748
  %tobool = icmp ne i32 %0, 0, !dbg !2748
  %lnot = xor i1 %tobool, true, !dbg !2748
  br i1 %lnot, label %while.body, label %while.end, !dbg !2748

while.body:                                       ; preds = %while.cond
  call void @_ZN3pov9Get_TokenEv(), !dbg !2749
  %1 = load i32, i32* getelementptr inbounds (%"struct.pov::Token_Struct", %"struct.pov::Token_Struct"* @_ZN3pov5TokenE, i32 0, i32 0), align 8, !dbg !2749
  switch i32 %1, label %sw.default [
    i32 200, label %sw.bb
  ], !dbg !2749

sw.bb:                                            ; preds = %while.body
  %2 = load %"struct.pov::Pigment_Struct"**, %"struct.pov::Pigment_Struct"*** %Pigment_Ptr.addr, align 8, !dbg !2751
  %3 = load %"struct.pov::Pigment_Struct"*, %"struct.pov::Pigment_Struct"** %2, align 8, !dbg !2753
  call void @_ZN3pov15Destroy_PigmentEPNS_14Pigment_StructE(%"struct.pov::Pigment_Struct"* %3), !dbg !2754
  %4 = load i8*, i8** getelementptr inbounds (%"struct.pov::Token_Struct", %"struct.pov::Token_Struct"* @_ZN3pov5TokenE, i32 0, i32 10), align 8, !dbg !2755
  %5 = bitcast i8* %4 to %"struct.pov::Pigment_Struct"*, !dbg !2756
  %call = call %"struct.pov::Pigment_Struct"* @_ZN3pov12Copy_PigmentEPNS_14Pigment_StructE(%"struct.pov::Pigment_Struct"* %5), !dbg !2757
  %6 = load %"struct.pov::Pigment_Struct"**, %"struct.pov::Pigment_Struct"*** %Pigment_Ptr.addr, align 8, !dbg !2758
  store %"struct.pov::Pigment_Struct"* %call, %"struct.pov::Pigment_Struct"** %6, align 8, !dbg !2759
  store i32 1, i32* %Exit_Flag, align 4, !dbg !2760
  br label %sw.epilog, !dbg !2761

sw.default:                                       ; preds = %while.body
  call void @_ZN3pov11Unget_TokenEv(), !dbg !2762
  store i32 1, i32* %Exit_Flag, align 4, !dbg !2763
  br label %sw.epilog, !dbg !2764

sw.epilog:                                        ; preds = %sw.default, %sw.bb
  br label %while.cond, !dbg !2748, !llvm.loop !2765

while.end:                                        ; preds = %while.cond
  %7 = load %"struct.pov::Pigment_Struct"**, %"struct.pov::Pigment_Struct"*** %Pigment_Ptr.addr, align 8, !dbg !2767
  %8 = load %"struct.pov::Pigment_Struct"*, %"struct.pov::Pigment_Struct"** %7, align 8, !dbg !2768
  %9 = bitcast %"struct.pov::Pigment_Struct"* %8 to %"struct.pov::Pattern_Struct"*, !dbg !2769
  call void @_ZN3povL13Parse_PatternEPNS_14Pattern_StructEi(%"struct.pov::Pattern_Struct"* %9, i32 0), !dbg !2770
  %10 = load i16, i16* @_ZN3pov14Not_In_DefaultE, align 2, !dbg !2771
  %tobool1 = icmp ne i16 %10, 0, !dbg !2771
  br i1 %tobool1, label %land.lhs.true, label %if.end, !dbg !2773

land.lhs.true:                                    ; preds = %while.end
  %11 = load %"struct.pov::Pigment_Struct"**, %"struct.pov::Pigment_Struct"*** %Pigment_Ptr.addr, align 8, !dbg !2774
  %12 = load %"struct.pov::Pigment_Struct"*, %"struct.pov::Pigment_Struct"** %11, align 8, !dbg !2775
  %Type = getelementptr inbounds %"struct.pov::Pigment_Struct", %"struct.pov::Pigment_Struct"* %12, i32 0, i32 0, !dbg !2776
  %13 = load i16, i16* %Type, align 8, !dbg !2776
  %conv = zext i16 %13 to i32, !dbg !2777
  %cmp = icmp eq i32 %conv, 0, !dbg !2778
  br i1 %cmp, label %if.then, label %if.end, !dbg !2779

if.then:                                          ; preds = %land.lhs.true
  %call2 = call i32 (i32, i8*, ...) @_ZN3pov7WarningEjPKcz(i32 155, i8* getelementptr inbounds ([42 x i8], [42 x i8]* @.str.8, i64 0, i64 0)), !dbg !2780
  br label %if.end, !dbg !2782

if.end:                                           ; preds = %if.then, %land.lhs.true, %while.end
  ret void, !dbg !2783
}

declare dso_local void @_ZN3pov15Destroy_PigmentEPNS_14Pigment_StructE(%"struct.pov::Pigment_Struct"*) #2

declare dso_local %"struct.pov::Pigment_Struct"* @_ZN3pov12Copy_PigmentEPNS_14Pigment_StructE(%"struct.pov::Pigment_Struct"*) #2

; Function Attrs: noinline uwtable
define internal void @_ZN3povL13Parse_PatternEPNS_14Pattern_StructEi(%"struct.pov::Pattern_Struct"* %New, i32 %TPat_Type) #0 !dbg !2784 {
entry:
  %New.addr = alloca %"struct.pov::Pattern_Struct"*, align 8
  %TPat_Type.addr = alloca i32, align 4
  %Local_Vector = alloca [3 x double], align 16
  %Local_Colour = alloca [5 x float], align 16
  %Local_Matrix = alloca [4 x [4 x double]], align 16
  %Local_Trans = alloca %"struct.pov::Transform_Struct", align 8
  %Local_Turb = alloca %"struct.pov::Turb_Struct"*, align 8
  %Old_Type = alloca i16, align 2
  %Old_Image = alloca %"struct.pov::Image_Struct"*, align 8
  %Old_Density_File = alloca %"struct.pov::Density_file_Struct"*, align 8
  %i = alloca i32, align 4
  %Tot_Len = alloca float, align 4
  %Exit_Flag = alloca i32, align 4
  %Exit_Flag91 = alloca i32, align 4
  %Exit_Flag369 = alloca i32, align 4
  %Exit_Flag427 = alloca i32, align 4
  %Exit_Flag637 = alloca i32, align 4
  %noise_generator = alloca i32, align 4
  store %"struct.pov::Pattern_Struct"* %New, %"struct.pov::Pattern_Struct"** %New.addr, align 8
  call void @llvm.dbg.declare(metadata %"struct.pov::Pattern_Struct"** %New.addr, metadata !2787, metadata !DIExpression()), !dbg !2788
  store i32 %TPat_Type, i32* %TPat_Type.addr, align 4
  call void @llvm.dbg.declare(metadata i32* %TPat_Type.addr, metadata !2789, metadata !DIExpression()), !dbg !2790
  call void @llvm.dbg.declare(metadata [3 x double]* %Local_Vector, metadata !2791, metadata !DIExpression()), !dbg !2792
  call void @llvm.dbg.declare(metadata [5 x float]* %Local_Colour, metadata !2793, metadata !DIExpression()), !dbg !2794
  call void @llvm.dbg.declare(metadata [4 x [4 x double]]* %Local_Matrix, metadata !2795, metadata !DIExpression()), !dbg !2796
  call void @llvm.dbg.declare(metadata %"struct.pov::Transform_Struct"* %Local_Trans, metadata !2797, metadata !DIExpression()), !dbg !2798
  call void @llvm.dbg.declare(metadata %"struct.pov::Turb_Struct"** %Local_Turb, metadata !2799, metadata !DIExpression()), !dbg !2800
  call void @llvm.dbg.declare(metadata i16* %Old_Type, metadata !2801, metadata !DIExpression()), !dbg !2802
  %0 = load %"struct.pov::Pattern_Struct"*, %"struct.pov::Pattern_Struct"** %New.addr, align 8, !dbg !2803
  %Type = getelementptr inbounds %"struct.pov::Pattern_Struct", %"struct.pov::Pattern_Struct"* %0, i32 0, i32 0, !dbg !2804
  %1 = load i16, i16* %Type, align 8, !dbg !2804
  store i16 %1, i16* %Old_Type, align 2, !dbg !2802
  call void @llvm.dbg.declare(metadata %"struct.pov::Image_Struct"** %Old_Image, metadata !2805, metadata !DIExpression()), !dbg !2806
  store %"struct.pov::Image_Struct"* null, %"struct.pov::Image_Struct"** %Old_Image, align 8, !dbg !2806
  call void @llvm.dbg.declare(metadata %"struct.pov::Density_file_Struct"** %Old_Density_File, metadata !2807, metadata !DIExpression()), !dbg !2808
  store %"struct.pov::Density_file_Struct"* null, %"struct.pov::Density_file_Struct"** %Old_Density_File, align 8, !dbg !2808
  call void @llvm.dbg.declare(metadata i32* %i, metadata !2809, metadata !DIExpression()), !dbg !2810
  call void @llvm.dbg.declare(metadata float* %Tot_Len, metadata !2811, metadata !DIExpression()), !dbg !2812
  %2 = load i16, i16* %Old_Type, align 2, !dbg !2813
  %conv = zext i16 %2 to i32, !dbg !2813
  %cmp = icmp eq i32 %conv, 4, !dbg !2815
  br i1 %cmp, label %if.then, label %if.end, !dbg !2816

if.then:                                          ; preds = %entry
  %3 = load %"struct.pov::Pattern_Struct"*, %"struct.pov::Pattern_Struct"** %New.addr, align 8, !dbg !2817
  %Vals = getelementptr inbounds %"struct.pov::Pattern_Struct", %"struct.pov::Pattern_Struct"* %3, i32 0, i32 10, !dbg !2819
  %Image = bitcast %union.anon.17* %Vals to %"struct.pov::Image_Struct"**, !dbg !2820
  %4 = load %"struct.pov::Image_Struct"*, %"struct.pov::Image_Struct"** %Image, align 8, !dbg !2820
  store %"struct.pov::Image_Struct"* %4, %"struct.pov::Image_Struct"** %Old_Image, align 8, !dbg !2821
  br label %if.end, !dbg !2822

if.end:                                           ; preds = %if.then, %entry
  %5 = load i16, i16* %Old_Type, align 2, !dbg !2823
  %conv1 = zext i16 %5 to i32, !dbg !2823
  %cmp2 = icmp eq i32 %conv1, 46, !dbg !2825
  br i1 %cmp2, label %if.then3, label %if.end5, !dbg !2826

if.then3:                                         ; preds = %if.end
  %6 = load %"struct.pov::Pattern_Struct"*, %"struct.pov::Pattern_Struct"** %New.addr, align 8, !dbg !2827
  %Vals4 = getelementptr inbounds %"struct.pov::Pattern_Struct", %"struct.pov::Pattern_Struct"* %6, i32 0, i32 10, !dbg !2829
  %Density_File = bitcast %union.anon.17* %Vals4 to %"struct.pov::Density_file_Struct"**, !dbg !2830
  %7 = load %"struct.pov::Density_file_Struct"*, %"struct.pov::Density_file_Struct"** %Density_File, align 8, !dbg !2830
  store %"struct.pov::Density_file_Struct"* %7, %"struct.pov::Density_file_Struct"** %Old_Density_File, align 8, !dbg !2831
  br label %if.end5, !dbg !2832

if.end5:                                          ; preds = %if.then3, %if.end
  call void @llvm.dbg.declare(metadata i32* %Exit_Flag, metadata !2833, metadata !DIExpression()), !dbg !2835
  store i32 0, i32* %Exit_Flag, align 4, !dbg !2835
  br label %while.cond, !dbg !2835

while.cond:                                       ; preds = %sw.epilog612, %if.end5
  %8 = load i32, i32* %Exit_Flag, align 4, !dbg !2835
  %tobool = icmp ne i32 %8, 0, !dbg !2835
  %lnot = xor i1 %tobool, true, !dbg !2835
  br i1 %lnot, label %while.body, label %while.end613, !dbg !2835

while.body:                                       ; preds = %while.cond
  call void @_ZN3pov9Get_TokenEv(), !dbg !2836
  %9 = load i32, i32* getelementptr inbounds (%"struct.pov::Token_Struct", %"struct.pov::Token_Struct"* @_ZN3pov5TokenE, i32 0, i32 0), align 8, !dbg !2836
  switch i32 %9, label %sw.default611 [
    i32 97, label %sw.bb
    i32 111, label %sw.bb8
    i32 485, label %sw.bb10
    i32 530, label %sw.bb16
    i32 156, label %sw.bb25
    i32 175, label %sw.bb27
    i32 182, label %sw.bb29
    i32 180, label %sw.bb31
    i32 533, label %sw.bb47
    i32 534, label %sw.bb72
    i32 195, label %sw.bb123
    i32 314, label %sw.bb125
    i32 315, label %sw.bb131
    i32 235, label %sw.bb138
    i32 267, label %sw.bb140
    i32 155, label %sw.bb143
    i32 212, label %sw.bb150
    i32 275, label %sw.bb152
    i32 91, label %sw.bb185
    i32 89, label %sw.bb185
    i32 92, label %sw.bb185
    i32 454, label %sw.bb192
    i32 120, label %sw.bb196
    i32 191, label %sw.bb204
    i32 119, label %sw.bb218
    i32 112, label %sw.bb220
    i32 160, label %sw.bb239
    i32 163, label %sw.bb249
    i32 115, label %sw.bb259
    i32 266, label %sw.bb269
    i32 222, label %sw.bb271
    i32 268, label %sw.bb273
    i32 114, label %sw.bb275
    i32 136, label %sw.bb277
    i32 290, label %sw.bb279
    i32 506, label %sw.bb285
    i32 345, label %sw.bb306
    i32 463, label %sw.bb308
    i32 439, label %sw.bb317
    i32 441, label %sw.bb319
    i32 440, label %sw.bb321
    i32 442, label %sw.bb323
    i32 414, label %sw.bb325
    i32 507, label %sw.bb343
  ], !dbg !2836

sw.bb:                                            ; preds = %while.body
  %10 = load %"struct.pov::Pattern_Struct"*, %"struct.pov::Pattern_Struct"** %New.addr, align 8, !dbg !2838
  %Type6 = getelementptr inbounds %"struct.pov::Pattern_Struct", %"struct.pov::Pattern_Struct"* %10, i32 0, i32 0, !dbg !2840
  store i16 21, i16* %Type6, align 8, !dbg !2841
  %11 = load %"struct.pov::Pattern_Struct"*, %"struct.pov::Pattern_Struct"** %New.addr, align 8, !dbg !2842
  %Warps = getelementptr inbounds %"struct.pov::Pattern_Struct", %"struct.pov::Pattern_Struct"* %11, i32 0, i32 7, !dbg !2843
  %call = call %"struct.pov::Turb_Struct"* @_ZN3povL10Check_TurbEPPNS_12Warps_StructE(%"struct.pov::Warps_Struct"** %Warps), !dbg !2844
  %12 = load %"struct.pov::Pattern_Struct"*, %"struct.pov::Pattern_Struct"** %New.addr, align 8, !dbg !2845
  %Vals7 = getelementptr inbounds %"struct.pov::Pattern_Struct", %"struct.pov::Pattern_Struct"* %12, i32 0, i32 10, !dbg !2846
  %Agate_Turb_Scale = bitcast %union.anon.17* %Vals7 to float*, !dbg !2847
  store float 1.000000e+00, float* %Agate_Turb_Scale, align 8, !dbg !2848
  store i32 1, i32* %Exit_Flag, align 4, !dbg !2849
  br label %sw.epilog612, !dbg !2850

sw.bb8:                                           ; preds = %while.body
  %13 = load %"struct.pov::Pattern_Struct"*, %"struct.pov::Pattern_Struct"** %New.addr, align 8, !dbg !2851
  %Type9 = getelementptr inbounds %"struct.pov::Pattern_Struct", %"struct.pov::Pattern_Struct"* %13, i32 0, i32 0, !dbg !2852
  store i16 16, i16* %Type9, align 8, !dbg !2853
  store i32 1, i32* %Exit_Flag, align 4, !dbg !2854
  br label %sw.epilog612, !dbg !2855

sw.bb10:                                          ; preds = %while.body
  %14 = load %"struct.pov::Pattern_Struct"*, %"struct.pov::Pattern_Struct"** %New.addr, align 8, !dbg !2856
  %Type11 = getelementptr inbounds %"struct.pov::Pattern_Struct", %"struct.pov::Pattern_Struct"* %14, i32 0, i32 0, !dbg !2857
  store i16 47, i16* %Type11, align 8, !dbg !2858
  %15 = load %"struct.pov::Pattern_Struct"*, %"struct.pov::Pattern_Struct"** %New.addr, align 8, !dbg !2859
  %Vals12 = getelementptr inbounds %"struct.pov::Pattern_Struct", %"struct.pov::Pattern_Struct"* %15, i32 0, i32 10, !dbg !2860
  %Function = bitcast %union.anon.17* %Vals12 to %struct.anon.24*, !dbg !2861
  %Data = getelementptr inbounds %struct.anon.24, %struct.anon.24* %Function, i32 0, i32 1, !dbg !2862
  store i8* null, i8** %Data, align 8, !dbg !2863
  %call13 = call i32* @_ZN3pov14Parse_FunctionEv(), !dbg !2864
  %16 = bitcast i32* %call13 to i8*, !dbg !2864
  %17 = load %"struct.pov::Pattern_Struct"*, %"struct.pov::Pattern_Struct"** %New.addr, align 8, !dbg !2865
  %Vals14 = getelementptr inbounds %"struct.pov::Pattern_Struct", %"struct.pov::Pattern_Struct"* %17, i32 0, i32 10, !dbg !2866
  %Function15 = bitcast %union.anon.17* %Vals14 to %struct.anon.24*, !dbg !2867
  %Fn = getelementptr inbounds %struct.anon.24, %struct.anon.24* %Function15, i32 0, i32 0, !dbg !2868
  store i8* %16, i8** %Fn, align 8, !dbg !2869
  store i32 1, i32* %Exit_Flag, align 4, !dbg !2870
  br label %sw.epilog612, !dbg !2871

sw.bb16:                                          ; preds = %while.body
  call void @_ZN3pov11Parse_BeginEv(), !dbg !2872
  %18 = load %"struct.pov::Pattern_Struct"*, %"struct.pov::Pattern_Struct"** %New.addr, align 8, !dbg !2873
  %Type17 = getelementptr inbounds %"struct.pov::Pattern_Struct", %"struct.pov::Pattern_Struct"* %18, i32 0, i32 0, !dbg !2874
  store i16 49, i16* %Type17, align 8, !dbg !2875
  %call18 = call %"struct.pov::Pigment_Struct"* @_ZN3pov14Create_PigmentEv(), !dbg !2876
  %19 = load %"struct.pov::Pattern_Struct"*, %"struct.pov::Pattern_Struct"** %New.addr, align 8, !dbg !2877
  %Vals19 = getelementptr inbounds %"struct.pov::Pattern_Struct", %"struct.pov::Pattern_Struct"* %19, i32 0, i32 10, !dbg !2878
  %Pigment = bitcast %union.anon.17* %Vals19 to %"struct.pov::Pigment_Struct"**, !dbg !2879
  store %"struct.pov::Pigment_Struct"* %call18, %"struct.pov::Pigment_Struct"** %Pigment, align 8, !dbg !2880
  %20 = load %"struct.pov::Pattern_Struct"*, %"struct.pov::Pattern_Struct"** %New.addr, align 8, !dbg !2881
  %Vals20 = getelementptr inbounds %"struct.pov::Pattern_Struct", %"struct.pov::Pattern_Struct"* %20, i32 0, i32 10, !dbg !2882
  %Pigment21 = bitcast %union.anon.17* %Vals20 to %"struct.pov::Pigment_Struct"**, !dbg !2883
  call void @_ZN3pov13Parse_PigmentEPPNS_14Pigment_StructE(%"struct.pov::Pigment_Struct"** %Pigment21), !dbg !2884
  %21 = load %"struct.pov::Pattern_Struct"*, %"struct.pov::Pattern_Struct"** %New.addr, align 8, !dbg !2885
  %Vals22 = getelementptr inbounds %"struct.pov::Pattern_Struct", %"struct.pov::Pattern_Struct"* %21, i32 0, i32 10, !dbg !2886
  %Pigment23 = bitcast %union.anon.17* %Vals22 to %"struct.pov::Pigment_Struct"**, !dbg !2887
  %22 = load %"struct.pov::Pigment_Struct"*, %"struct.pov::Pigment_Struct"** %Pigment23, align 8, !dbg !2887
  %call24 = call i32 @_ZN3pov12Post_PigmentEPNS_14Pigment_StructE(%"struct.pov::Pigment_Struct"* %22), !dbg !2888
  call void @_ZN3pov9Parse_EndEv(), !dbg !2889
  br label %sw.epilog612, !dbg !2890

sw.bb25:                                          ; preds = %while.body
  %23 = load %"struct.pov::Pattern_Struct"*, %"struct.pov::Pattern_Struct"** %New.addr, align 8, !dbg !2891
  %Type26 = getelementptr inbounds %"struct.pov::Pattern_Struct", %"struct.pov::Pattern_Struct"* %23, i32 0, i32 0, !dbg !2892
  store i16 22, i16* %Type26, align 8, !dbg !2893
  store i32 1, i32* %Exit_Flag, align 4, !dbg !2894
  br label %sw.epilog612, !dbg !2895

sw.bb27:                                          ; preds = %while.body
  %24 = load %"struct.pov::Pattern_Struct"*, %"struct.pov::Pattern_Struct"** %New.addr, align 8, !dbg !2896
  %Type28 = getelementptr inbounds %"struct.pov::Pattern_Struct", %"struct.pov::Pattern_Struct"* %24, i32 0, i32 0, !dbg !2897
  store i16 25, i16* %Type28, align 8, !dbg !2898
  store i32 1, i32* %Exit_Flag, align 4, !dbg !2899
  br label %sw.epilog612, !dbg !2900

sw.bb29:                                          ; preds = %while.body
  %25 = load %"struct.pov::Pattern_Struct"*, %"struct.pov::Pattern_Struct"** %New.addr, align 8, !dbg !2901
  %Type30 = getelementptr inbounds %"struct.pov::Pattern_Struct", %"struct.pov::Pattern_Struct"* %25, i32 0, i32 0, !dbg !2902
  store i16 18, i16* %Type30, align 8, !dbg !2903
  %26 = load %"struct.pov::Pattern_Struct"*, %"struct.pov::Pattern_Struct"** %New.addr, align 8, !dbg !2904
  %Wave_Type = getelementptr inbounds %"struct.pov::Pattern_Struct", %"struct.pov::Pattern_Struct"* %26, i32 0, i32 1, !dbg !2905
  store i16 2, i16* %Wave_Type, align 2, !dbg !2906
  store i32 1, i32* %Exit_Flag, align 4, !dbg !2907
  br label %sw.epilog612, !dbg !2908

sw.bb31:                                          ; preds = %while.body
  %27 = load %"struct.pov::Pattern_Struct"*, %"struct.pov::Pattern_Struct"** %New.addr, align 8, !dbg !2909
  %Type32 = getelementptr inbounds %"struct.pov::Pattern_Struct", %"struct.pov::Pattern_Struct"* %27, i32 0, i32 0, !dbg !2910
  store i16 30, i16* %Type32, align 8, !dbg !2911
  %call33 = call double @_ZN3pov11Parse_FloatEv(), !dbg !2912
  %conv34 = fptosi double %call33 to i32, !dbg !2912
  %conv35 = trunc i32 %conv34 to i16, !dbg !2913
  %28 = load %"struct.pov::Pattern_Struct"*, %"struct.pov::Pattern_Struct"** %New.addr, align 8, !dbg !2914
  %Vals36 = getelementptr inbounds %"struct.pov::Pattern_Struct", %"struct.pov::Pattern_Struct"* %28, i32 0, i32 10, !dbg !2915
  %Fractal = bitcast %union.anon.17* %Vals36 to %struct.anon.23*, !dbg !2916
  %Iterations = getelementptr inbounds %struct.anon.23, %struct.anon.23* %Fractal, i32 0, i32 1, !dbg !2917
  store i16 %conv35, i16* %Iterations, align 8, !dbg !2918
  %29 = load %"struct.pov::Pattern_Struct"*, %"struct.pov::Pattern_Struct"** %New.addr, align 8, !dbg !2919
  %Vals37 = getelementptr inbounds %"struct.pov::Pattern_Struct", %"struct.pov::Pattern_Struct"* %29, i32 0, i32 10, !dbg !2920
  %Fractal38 = bitcast %union.anon.17* %Vals37 to %struct.anon.23*, !dbg !2921
  %interior_type = getelementptr inbounds %struct.anon.23, %struct.anon.23* %Fractal38, i32 0, i32 2, !dbg !2922
  store i16 0, i16* %interior_type, align 2, !dbg !2923
  %30 = load %"struct.pov::Pattern_Struct"*, %"struct.pov::Pattern_Struct"** %New.addr, align 8, !dbg !2924
  %Vals39 = getelementptr inbounds %"struct.pov::Pattern_Struct", %"struct.pov::Pattern_Struct"* %30, i32 0, i32 10, !dbg !2925
  %Fractal40 = bitcast %union.anon.17* %Vals39 to %struct.anon.23*, !dbg !2926
  %exterior_type = getelementptr inbounds %struct.anon.23, %struct.anon.23* %Fractal40, i32 0, i32 3, !dbg !2927
  store i16 1, i16* %exterior_type, align 4, !dbg !2928
  %31 = load %"struct.pov::Pattern_Struct"*, %"struct.pov::Pattern_Struct"** %New.addr, align 8, !dbg !2929
  %Vals41 = getelementptr inbounds %"struct.pov::Pattern_Struct", %"struct.pov::Pattern_Struct"* %31, i32 0, i32 10, !dbg !2930
  %Fractal42 = bitcast %union.anon.17* %Vals41 to %struct.anon.23*, !dbg !2931
  %efactor = getelementptr inbounds %struct.anon.23, %struct.anon.23* %Fractal42, i32 0, i32 4, !dbg !2932
  store double 1.000000e+00, double* %efactor, align 8, !dbg !2933
  %32 = load %"struct.pov::Pattern_Struct"*, %"struct.pov::Pattern_Struct"** %New.addr, align 8, !dbg !2934
  %Vals43 = getelementptr inbounds %"struct.pov::Pattern_Struct", %"struct.pov::Pattern_Struct"* %32, i32 0, i32 10, !dbg !2935
  %Fractal44 = bitcast %union.anon.17* %Vals43 to %struct.anon.23*, !dbg !2936
  %ifactor = getelementptr inbounds %struct.anon.23, %struct.anon.23* %Fractal44, i32 0, i32 5, !dbg !2937
  store double 1.000000e+00, double* %ifactor, align 8, !dbg !2938
  %33 = load %"struct.pov::Pattern_Struct"*, %"struct.pov::Pattern_Struct"** %New.addr, align 8, !dbg !2939
  %Vals45 = getelementptr inbounds %"struct.pov::Pattern_Struct", %"struct.pov::Pattern_Struct"* %33, i32 0, i32 10, !dbg !2940
  %Fractal46 = bitcast %union.anon.17* %Vals45 to %struct.anon.23*, !dbg !2941
  %Exponent = getelementptr inbounds %struct.anon.23, %struct.anon.23* %Fractal46, i32 0, i32 6, !dbg !2942
  store i32 2, i32* %Exponent, align 8, !dbg !2943
  store i32 1, i32* %Exit_Flag, align 4, !dbg !2944
  br label %sw.epilog612, !dbg !2945

sw.bb47:                                          ; preds = %while.body
  %34 = load %"struct.pov::Pattern_Struct"*, %"struct.pov::Pattern_Struct"** %New.addr, align 8, !dbg !2946
  %Type48 = getelementptr inbounds %"struct.pov::Pattern_Struct", %"struct.pov::Pattern_Struct"* %34, i32 0, i32 0, !dbg !2947
  store i16 26, i16* %Type48, align 8, !dbg !2948
  %35 = load %"struct.pov::Pattern_Struct"*, %"struct.pov::Pattern_Struct"** %New.addr, align 8, !dbg !2949
  %Vals49 = getelementptr inbounds %"struct.pov::Pattern_Struct", %"struct.pov::Pattern_Struct"* %35, i32 0, i32 10, !dbg !2950
  %Fractal50 = bitcast %union.anon.17* %Vals49 to %struct.anon.23*, !dbg !2951
  %Coord = getelementptr inbounds %struct.anon.23, %struct.anon.23* %Fractal50, i32 0, i32 0, !dbg !2952
  %arraydecay = getelementptr inbounds [2 x double], [2 x double]* %Coord, i64 0, i64 0, !dbg !2949
  call void @_ZN3pov13Parse_UV_VectEPd(double* %arraydecay), !dbg !2953
  call void @_ZN3pov11Parse_CommaEv(), !dbg !2954
  %call51 = call double @_ZN3pov11Parse_FloatEv(), !dbg !2955
  %conv52 = fptosi double %call51 to i32, !dbg !2955
  %conv53 = trunc i32 %conv52 to i16, !dbg !2956
  %36 = load %"struct.pov::Pattern_Struct"*, %"struct.pov::Pattern_Struct"** %New.addr, align 8, !dbg !2957
  %Vals54 = getelementptr inbounds %"struct.pov::Pattern_Struct", %"struct.pov::Pattern_Struct"* %36, i32 0, i32 10, !dbg !2958
  %Fractal55 = bitcast %union.anon.17* %Vals54 to %struct.anon.23*, !dbg !2959
  %Iterations56 = getelementptr inbounds %struct.anon.23, %struct.anon.23* %Fractal55, i32 0, i32 1, !dbg !2960
  store i16 %conv53, i16* %Iterations56, align 8, !dbg !2961
  %37 = load %"struct.pov::Pattern_Struct"*, %"struct.pov::Pattern_Struct"** %New.addr, align 8, !dbg !2962
  %Vals57 = getelementptr inbounds %"struct.pov::Pattern_Struct", %"struct.pov::Pattern_Struct"* %37, i32 0, i32 10, !dbg !2963
  %Fractal58 = bitcast %union.anon.17* %Vals57 to %struct.anon.23*, !dbg !2964
  %interior_type59 = getelementptr inbounds %struct.anon.23, %struct.anon.23* %Fractal58, i32 0, i32 2, !dbg !2965
  store i16 0, i16* %interior_type59, align 2, !dbg !2966
  %38 = load %"struct.pov::Pattern_Struct"*, %"struct.pov::Pattern_Struct"** %New.addr, align 8, !dbg !2967
  %Vals60 = getelementptr inbounds %"struct.pov::Pattern_Struct", %"struct.pov::Pattern_Struct"* %38, i32 0, i32 10, !dbg !2968
  %Fractal61 = bitcast %union.anon.17* %Vals60 to %struct.anon.23*, !dbg !2969
  %exterior_type62 = getelementptr inbounds %struct.anon.23, %struct.anon.23* %Fractal61, i32 0, i32 3, !dbg !2970
  store i16 1, i16* %exterior_type62, align 4, !dbg !2971
  %39 = load %"struct.pov::Pattern_Struct"*, %"struct.pov::Pattern_Struct"** %New.addr, align 8, !dbg !2972
  %Vals63 = getelementptr inbounds %"struct.pov::Pattern_Struct", %"struct.pov::Pattern_Struct"* %39, i32 0, i32 10, !dbg !2973
  %Fractal64 = bitcast %union.anon.17* %Vals63 to %struct.anon.23*, !dbg !2974
  %efactor65 = getelementptr inbounds %struct.anon.23, %struct.anon.23* %Fractal64, i32 0, i32 4, !dbg !2975
  store double 1.000000e+00, double* %efactor65, align 8, !dbg !2976
  %40 = load %"struct.pov::Pattern_Struct"*, %"struct.pov::Pattern_Struct"** %New.addr, align 8, !dbg !2977
  %Vals66 = getelementptr inbounds %"struct.pov::Pattern_Struct", %"struct.pov::Pattern_Struct"* %40, i32 0, i32 10, !dbg !2978
  %Fractal67 = bitcast %union.anon.17* %Vals66 to %struct.anon.23*, !dbg !2979
  %ifactor68 = getelementptr inbounds %struct.anon.23, %struct.anon.23* %Fractal67, i32 0, i32 5, !dbg !2980
  store double 1.000000e+00, double* %ifactor68, align 8, !dbg !2981
  %41 = load %"struct.pov::Pattern_Struct"*, %"struct.pov::Pattern_Struct"** %New.addr, align 8, !dbg !2982
  %Vals69 = getelementptr inbounds %"struct.pov::Pattern_Struct", %"struct.pov::Pattern_Struct"* %41, i32 0, i32 10, !dbg !2983
  %Fractal70 = bitcast %union.anon.17* %Vals69 to %struct.anon.23*, !dbg !2984
  %Exponent71 = getelementptr inbounds %struct.anon.23, %struct.anon.23* %Fractal70, i32 0, i32 6, !dbg !2985
  store i32 2, i32* %Exponent71, align 8, !dbg !2986
  store i32 1, i32* %Exit_Flag, align 4, !dbg !2987
  br label %sw.epilog612, !dbg !2988

sw.bb72:                                          ; preds = %while.body
  %42 = load %"struct.pov::Pattern_Struct"*, %"struct.pov::Pattern_Struct"** %New.addr, align 8, !dbg !2989
  %Type73 = getelementptr inbounds %"struct.pov::Pattern_Struct", %"struct.pov::Pattern_Struct"* %42, i32 0, i32 0, !dbg !2990
  store i16 0, i16* %Type73, align 8, !dbg !2991
  %43 = load %"struct.pov::Pattern_Struct"*, %"struct.pov::Pattern_Struct"** %New.addr, align 8, !dbg !2992
  %Vals74 = getelementptr inbounds %"struct.pov::Pattern_Struct", %"struct.pov::Pattern_Struct"* %43, i32 0, i32 10, !dbg !2993
  %Fractal75 = bitcast %union.anon.17* %Vals74 to %struct.anon.23*, !dbg !2994
  %interior_type76 = getelementptr inbounds %struct.anon.23, %struct.anon.23* %Fractal75, i32 0, i32 2, !dbg !2995
  store i16 0, i16* %interior_type76, align 2, !dbg !2996
  %44 = load %"struct.pov::Pattern_Struct"*, %"struct.pov::Pattern_Struct"** %New.addr, align 8, !dbg !2997
  %Vals77 = getelementptr inbounds %"struct.pov::Pattern_Struct", %"struct.pov::Pattern_Struct"* %44, i32 0, i32 10, !dbg !2998
  %Fractal78 = bitcast %union.anon.17* %Vals77 to %struct.anon.23*, !dbg !2999
  %exterior_type79 = getelementptr inbounds %struct.anon.23, %struct.anon.23* %Fractal78, i32 0, i32 3, !dbg !3000
  store i16 1, i16* %exterior_type79, align 4, !dbg !3001
  %45 = load %"struct.pov::Pattern_Struct"*, %"struct.pov::Pattern_Struct"** %New.addr, align 8, !dbg !3002
  %Vals80 = getelementptr inbounds %"struct.pov::Pattern_Struct", %"struct.pov::Pattern_Struct"* %45, i32 0, i32 10, !dbg !3003
  %Fractal81 = bitcast %union.anon.17* %Vals80 to %struct.anon.23*, !dbg !3004
  %efactor82 = getelementptr inbounds %struct.anon.23, %struct.anon.23* %Fractal81, i32 0, i32 4, !dbg !3005
  store double 1.000000e+00, double* %efactor82, align 8, !dbg !3006
  %46 = load %"struct.pov::Pattern_Struct"*, %"struct.pov::Pattern_Struct"** %New.addr, align 8, !dbg !3007
  %Vals83 = getelementptr inbounds %"struct.pov::Pattern_Struct", %"struct.pov::Pattern_Struct"* %46, i32 0, i32 10, !dbg !3008
  %Fractal84 = bitcast %union.anon.17* %Vals83 to %struct.anon.23*, !dbg !3009
  %ifactor85 = getelementptr inbounds %struct.anon.23, %struct.anon.23* %Fractal84, i32 0, i32 5, !dbg !3010
  store double 1.000000e+00, double* %ifactor85, align 8, !dbg !3011
  %47 = load %"struct.pov::Pattern_Struct"*, %"struct.pov::Pattern_Struct"** %New.addr, align 8, !dbg !3012
  %Vals86 = getelementptr inbounds %"struct.pov::Pattern_Struct", %"struct.pov::Pattern_Struct"* %47, i32 0, i32 10, !dbg !3013
  %Fractal87 = bitcast %union.anon.17* %Vals86 to %struct.anon.23*, !dbg !3014
  %Exponent88 = getelementptr inbounds %struct.anon.23, %struct.anon.23* %Fractal87, i32 0, i32 6, !dbg !3015
  store i32 0, i32* %Exponent88, align 8, !dbg !3016
  %call89 = call double @_ZN3pov11Parse_FloatEv(), !dbg !3017
  %conv90 = fptosi double %call89 to i32, !dbg !3017
  store i32 %conv90, i32* %i, align 4, !dbg !3018
  call void @llvm.dbg.declare(metadata i32* %Exit_Flag91, metadata !3019, metadata !DIExpression()), !dbg !3021
  store i32 0, i32* %Exit_Flag91, align 4, !dbg !3021
  br label %while.cond92, !dbg !3021

while.cond92:                                     ; preds = %sw.epilog116, %sw.bb72
  %48 = load i32, i32* %Exit_Flag91, align 4, !dbg !3021
  %tobool93 = icmp ne i32 %48, 0, !dbg !3021
  %lnot94 = xor i1 %tobool93, true, !dbg !3021
  br i1 %lnot94, label %while.body95, label %while.end, !dbg !3021

while.body95:                                     ; preds = %while.cond92
  call void @_ZN3pov9Get_TokenEv(), !dbg !3022
  %49 = load i32, i32* getelementptr inbounds (%"struct.pov::Token_Struct", %"struct.pov::Token_Struct"* @_ZN3pov5TokenE, i32 0, i32 0), align 8, !dbg !3022
  switch i32 %49, label %sw.default114 [
    i32 180, label %sw.bb96
    i32 533, label %sw.bb102
  ], !dbg !3022

sw.bb96:                                          ; preds = %while.body95
  %50 = load i32, i32* %i, align 4, !dbg !3024
  switch i32 %50, label %sw.default [
    i32 1, label %sw.bb97
    i32 2, label %sw.bb99
  ], !dbg !3026

sw.bb97:                                          ; preds = %sw.bb96
  %51 = load %"struct.pov::Pattern_Struct"*, %"struct.pov::Pattern_Struct"** %New.addr, align 8, !dbg !3027
  %Type98 = getelementptr inbounds %"struct.pov::Pattern_Struct", %"struct.pov::Pattern_Struct"* %51, i32 0, i32 0, !dbg !3029
  store i16 34, i16* %Type98, align 8, !dbg !3030
  br label %sw.epilog, !dbg !3031

sw.bb99:                                          ; preds = %sw.bb96
  %52 = load %"struct.pov::Pattern_Struct"*, %"struct.pov::Pattern_Struct"** %New.addr, align 8, !dbg !3032
  %Type100 = getelementptr inbounds %"struct.pov::Pattern_Struct", %"struct.pov::Pattern_Struct"* %52, i32 0, i32 0, !dbg !3033
  store i16 36, i16* %Type100, align 8, !dbg !3034
  br label %sw.epilog, !dbg !3035

sw.default:                                       ; preds = %sw.bb96
  %call101 = call i32 (i8*, ...) @_ZN3pov5ErrorEPKcz(i8* getelementptr inbounds ([67 x i8], [67 x i8]* @.str.35, i64 0, i64 0)), !dbg !3036
  br label %sw.epilog, !dbg !3037

sw.epilog:                                        ; preds = %sw.default, %sw.bb99, %sw.bb97
  store i32 1, i32* %Exit_Flag91, align 4, !dbg !3038
  br label %sw.epilog116, !dbg !3039

sw.bb102:                                         ; preds = %while.body95
  %53 = load i32, i32* %i, align 4, !dbg !3040
  switch i32 %53, label %sw.default107 [
    i32 1, label %sw.bb103
    i32 2, label %sw.bb105
  ], !dbg !3041

sw.bb103:                                         ; preds = %sw.bb102
  %54 = load %"struct.pov::Pattern_Struct"*, %"struct.pov::Pattern_Struct"** %New.addr, align 8, !dbg !3042
  %Type104 = getelementptr inbounds %"struct.pov::Pattern_Struct", %"struct.pov::Pattern_Struct"* %54, i32 0, i32 0, !dbg !3044
  store i16 35, i16* %Type104, align 8, !dbg !3045
  br label %sw.epilog109, !dbg !3046

sw.bb105:                                         ; preds = %sw.bb102
  %55 = load %"struct.pov::Pattern_Struct"*, %"struct.pov::Pattern_Struct"** %New.addr, align 8, !dbg !3047
  %Type106 = getelementptr inbounds %"struct.pov::Pattern_Struct", %"struct.pov::Pattern_Struct"* %55, i32 0, i32 0, !dbg !3048
  store i16 37, i16* %Type106, align 8, !dbg !3049
  br label %sw.epilog109, !dbg !3050

sw.default107:                                    ; preds = %sw.bb102
  %call108 = call i32 (i8*, ...) @_ZN3pov5ErrorEPKcz(i8* getelementptr inbounds ([66 x i8], [66 x i8]* @.str.36, i64 0, i64 0)), !dbg !3051
  br label %sw.epilog109, !dbg !3052

sw.epilog109:                                     ; preds = %sw.default107, %sw.bb105, %sw.bb103
  %56 = load %"struct.pov::Pattern_Struct"*, %"struct.pov::Pattern_Struct"** %New.addr, align 8, !dbg !3053
  %Vals110 = getelementptr inbounds %"struct.pov::Pattern_Struct", %"struct.pov::Pattern_Struct"* %56, i32 0, i32 10, !dbg !3054
  %Fractal111 = bitcast %union.anon.17* %Vals110 to %struct.anon.23*, !dbg !3055
  %Coord112 = getelementptr inbounds %struct.anon.23, %struct.anon.23* %Fractal111, i32 0, i32 0, !dbg !3056
  %arraydecay113 = getelementptr inbounds [2 x double], [2 x double]* %Coord112, i64 0, i64 0, !dbg !3053
  call void @_ZN3pov13Parse_UV_VectEPd(double* %arraydecay113), !dbg !3057
  call void @_ZN3pov11Parse_CommaEv(), !dbg !3058
  store i32 1, i32* %Exit_Flag91, align 4, !dbg !3059
  br label %sw.epilog116, !dbg !3060

sw.default114:                                    ; preds = %while.body95
  %call115 = call i32 (i8*, ...) @_ZN3pov5ErrorEPKcz(i8* getelementptr inbounds ([68 x i8], [68 x i8]* @.str.37, i64 0, i64 0)), !dbg !3061
  br label %sw.epilog116, !dbg !3062

sw.epilog116:                                     ; preds = %sw.default114, %sw.epilog109, %sw.epilog
  br label %while.cond92, !dbg !3021, !llvm.loop !3063

while.end:                                        ; preds = %while.cond92
  %call117 = call double @_ZN3pov11Parse_FloatEv(), !dbg !3065
  %conv118 = fptosi double %call117 to i32, !dbg !3065
  %conv119 = trunc i32 %conv118 to i16, !dbg !3066
  %57 = load %"struct.pov::Pattern_Struct"*, %"struct.pov::Pattern_Struct"** %New.addr, align 8, !dbg !3067
  %Vals120 = getelementptr inbounds %"struct.pov::Pattern_Struct", %"struct.pov::Pattern_Struct"* %57, i32 0, i32 10, !dbg !3068
  %Fractal121 = bitcast %union.anon.17* %Vals120 to %struct.anon.23*, !dbg !3069
  %Iterations122 = getelementptr inbounds %struct.anon.23, %struct.anon.23* %Fractal121, i32 0, i32 1, !dbg !3070
  store i16 %conv119, i16* %Iterations122, align 8, !dbg !3071
  store i32 1, i32* %Exit_Flag, align 4, !dbg !3072
  br label %sw.epilog612, !dbg !3073

sw.bb123:                                         ; preds = %while.body
  %58 = load %"struct.pov::Pattern_Struct"*, %"struct.pov::Pattern_Struct"** %New.addr, align 8, !dbg !3074
  %Type124 = getelementptr inbounds %"struct.pov::Pattern_Struct", %"struct.pov::Pattern_Struct"* %58, i32 0, i32 0, !dbg !3075
  store i16 24, i16* %Type124, align 8, !dbg !3076
  store i32 1, i32* %Exit_Flag, align 4, !dbg !3077
  br label %sw.epilog612, !dbg !3078

sw.bb125:                                         ; preds = %while.body
  %59 = load %"struct.pov::Pattern_Struct"*, %"struct.pov::Pattern_Struct"** %New.addr, align 8, !dbg !3079
  %Type126 = getelementptr inbounds %"struct.pov::Pattern_Struct", %"struct.pov::Pattern_Struct"* %59, i32 0, i32 0, !dbg !3080
  store i16 40, i16* %Type126, align 8, !dbg !3081
  %call127 = call double @_ZN3pov11Parse_FloatEv(), !dbg !3082
  %conv128 = fptosi double %call127 to i16, !dbg !3082
  %60 = load %"struct.pov::Pattern_Struct"*, %"struct.pov::Pattern_Struct"** %New.addr, align 8, !dbg !3083
  %Vals129 = getelementptr inbounds %"struct.pov::Pattern_Struct", %"struct.pov::Pattern_Struct"* %60, i32 0, i32 10, !dbg !3084
  %Arms = bitcast %union.anon.17* %Vals129 to i16*, !dbg !3085
  store i16 %conv128, i16* %Arms, align 8, !dbg !3086
  %61 = load %"struct.pov::Pattern_Struct"*, %"struct.pov::Pattern_Struct"** %New.addr, align 8, !dbg !3087
  %Wave_Type130 = getelementptr inbounds %"struct.pov::Pattern_Struct", %"struct.pov::Pattern_Struct"* %61, i32 0, i32 1, !dbg !3088
  store i16 2, i16* %Wave_Type130, align 2, !dbg !3089
  store i32 1, i32* %Exit_Flag, align 4, !dbg !3090
  br label %sw.epilog612, !dbg !3091

sw.bb131:                                         ; preds = %while.body
  %62 = load %"struct.pov::Pattern_Struct"*, %"struct.pov::Pattern_Struct"** %New.addr, align 8, !dbg !3092
  %Type132 = getelementptr inbounds %"struct.pov::Pattern_Struct", %"struct.pov::Pattern_Struct"* %62, i32 0, i32 0, !dbg !3093
  store i16 41, i16* %Type132, align 8, !dbg !3094
  %call133 = call double @_ZN3pov11Parse_FloatEv(), !dbg !3095
  %conv134 = fptosi double %call133 to i16, !dbg !3095
  %63 = load %"struct.pov::Pattern_Struct"*, %"struct.pov::Pattern_Struct"** %New.addr, align 8, !dbg !3096
  %Vals135 = getelementptr inbounds %"struct.pov::Pattern_Struct", %"struct.pov::Pattern_Struct"* %63, i32 0, i32 10, !dbg !3097
  %Arms136 = bitcast %union.anon.17* %Vals135 to i16*, !dbg !3098
  store i16 %conv134, i16* %Arms136, align 8, !dbg !3099
  %64 = load %"struct.pov::Pattern_Struct"*, %"struct.pov::Pattern_Struct"** %New.addr, align 8, !dbg !3100
  %Wave_Type137 = getelementptr inbounds %"struct.pov::Pattern_Struct", %"struct.pov::Pattern_Struct"* %64, i32 0, i32 1, !dbg !3101
  store i16 2, i16* %Wave_Type137, align 2, !dbg !3102
  store i32 1, i32* %Exit_Flag, align 4, !dbg !3103
  br label %sw.epilog612, !dbg !3104

sw.bb138:                                         ; preds = %while.body
  %65 = load %"struct.pov::Pattern_Struct"*, %"struct.pov::Pattern_Struct"** %New.addr, align 8, !dbg !3105
  %Type139 = getelementptr inbounds %"struct.pov::Pattern_Struct", %"struct.pov::Pattern_Struct"* %65, i32 0, i32 0, !dbg !3106
  store i16 20, i16* %Type139, align 8, !dbg !3107
  store i32 1, i32* %Exit_Flag, align 4, !dbg !3108
  br label %sw.epilog612, !dbg !3109

sw.bb140:                                         ; preds = %while.body
  %66 = load %"struct.pov::Pattern_Struct"*, %"struct.pov::Pattern_Struct"** %New.addr, align 8, !dbg !3110
  %Type141 = getelementptr inbounds %"struct.pov::Pattern_Struct", %"struct.pov::Pattern_Struct"* %66, i32 0, i32 0, !dbg !3111
  store i16 19, i16* %Type141, align 8, !dbg !3112
  %67 = load %"struct.pov::Pattern_Struct"*, %"struct.pov::Pattern_Struct"** %New.addr, align 8, !dbg !3113
  %Wave_Type142 = getelementptr inbounds %"struct.pov::Pattern_Struct", %"struct.pov::Pattern_Struct"* %67, i32 0, i32 1, !dbg !3114
  store i16 2, i16* %Wave_Type142, align 2, !dbg !3115
  store i32 1, i32* %Exit_Flag, align 4, !dbg !3116
  br label %sw.epilog612, !dbg !3117

sw.bb143:                                         ; preds = %while.body
  %68 = load %"struct.pov::Pattern_Struct"*, %"struct.pov::Pattern_Struct"** %New.addr, align 8, !dbg !3118
  %Type144 = getelementptr inbounds %"struct.pov::Pattern_Struct", %"struct.pov::Pattern_Struct"* %68, i32 0, i32 0, !dbg !3119
  store i16 23, i16* %Type144, align 8, !dbg !3120
  %69 = load %"struct.pov::Pattern_Struct"*, %"struct.pov::Pattern_Struct"** %New.addr, align 8, !dbg !3121
  %Vals145 = getelementptr inbounds %"struct.pov::Pattern_Struct", %"struct.pov::Pattern_Struct"* %69, i32 0, i32 10, !dbg !3122
  %Gradient = bitcast %union.anon.17* %Vals145 to [3 x double]*, !dbg !3123
  %arraydecay146 = getelementptr inbounds [3 x double], [3 x double]* %Gradient, i64 0, i64 0, !dbg !3121
  call void @_ZN3pov12Parse_VectorEPd(double* %arraydecay146), !dbg !3124
  %70 = load %"struct.pov::Pattern_Struct"*, %"struct.pov::Pattern_Struct"** %New.addr, align 8, !dbg !3125
  %Vals147 = getelementptr inbounds %"struct.pov::Pattern_Struct", %"struct.pov::Pattern_Struct"* %70, i32 0, i32 10, !dbg !3126
  %Gradient148 = bitcast %union.anon.17* %Vals147 to [3 x double]*, !dbg !3127
  %arraydecay149 = getelementptr inbounds [3 x double], [3 x double]* %Gradient148, i64 0, i64 0, !dbg !3125
  call void @_ZN3pov12VNormalizeEqEPd(double* %arraydecay149), !dbg !3128
  store i32 1, i32* %Exit_Flag, align 4, !dbg !3129
  br label %sw.epilog612, !dbg !3130

sw.bb150:                                         ; preds = %while.body
  %71 = load %"struct.pov::Pattern_Struct"*, %"struct.pov::Pattern_Struct"** %New.addr, align 8, !dbg !3131
  %Type151 = getelementptr inbounds %"struct.pov::Pattern_Struct", %"struct.pov::Pattern_Struct"* %71, i32 0, i32 0, !dbg !3132
  store i16 38, i16* %Type151, align 8, !dbg !3133
  store i32 1, i32* %Exit_Flag, align 4, !dbg !3134
  br label %sw.epilog612, !dbg !3135

sw.bb152:                                         ; preds = %while.body
  %72 = load %"struct.pov::Pattern_Struct"*, %"struct.pov::Pattern_Struct"** %New.addr, align 8, !dbg !3136
  %Type153 = getelementptr inbounds %"struct.pov::Pattern_Struct", %"struct.pov::Pattern_Struct"* %72, i32 0, i32 0, !dbg !3137
  store i16 39, i16* %Type153, align 8, !dbg !3138
  %73 = load %"struct.pov::Pattern_Struct"*, %"struct.pov::Pattern_Struct"** %New.addr, align 8, !dbg !3139
  %Vals154 = getelementptr inbounds %"struct.pov::Pattern_Struct", %"struct.pov::Pattern_Struct"* %73, i32 0, i32 10, !dbg !3140
  %Crackle = bitcast %union.anon.17* %Vals154 to %struct.anon.21*, !dbg !3141
  %IsSolid = getelementptr inbounds %struct.anon.21, %struct.anon.21* %Crackle, i32 0, i32 4, !dbg !3142
  store i16 0, i16* %IsSolid, align 8, !dbg !3143
  %74 = load %"struct.pov::Pattern_Struct"*, %"struct.pov::Pattern_Struct"** %New.addr, align 8, !dbg !3144
  %Vals155 = getelementptr inbounds %"struct.pov::Pattern_Struct", %"struct.pov::Pattern_Struct"* %74, i32 0, i32 10, !dbg !3145
  %Crackle156 = bitcast %union.anon.17* %Vals155 to %struct.anon.21*, !dbg !3146
  %Form = getelementptr inbounds %struct.anon.21, %struct.anon.21* %Crackle156, i32 0, i32 0, !dbg !3147
  %arrayidx = getelementptr inbounds [3 x double], [3 x double]* %Form, i64 0, i64 0, !dbg !3144
  store double -1.000000e+00, double* %arrayidx, align 8, !dbg !3148
  %75 = load %"struct.pov::Pattern_Struct"*, %"struct.pov::Pattern_Struct"** %New.addr, align 8, !dbg !3149
  %Vals157 = getelementptr inbounds %"struct.pov::Pattern_Struct", %"struct.pov::Pattern_Struct"* %75, i32 0, i32 10, !dbg !3150
  %Crackle158 = bitcast %union.anon.17* %Vals157 to %struct.anon.21*, !dbg !3151
  %Form159 = getelementptr inbounds %struct.anon.21, %struct.anon.21* %Crackle158, i32 0, i32 0, !dbg !3152
  %arrayidx160 = getelementptr inbounds [3 x double], [3 x double]* %Form159, i64 0, i64 1, !dbg !3149
  store double 1.000000e+00, double* %arrayidx160, align 8, !dbg !3153
  %76 = load %"struct.pov::Pattern_Struct"*, %"struct.pov::Pattern_Struct"** %New.addr, align 8, !dbg !3154
  %Vals161 = getelementptr inbounds %"struct.pov::Pattern_Struct", %"struct.pov::Pattern_Struct"* %76, i32 0, i32 10, !dbg !3155
  %Crackle162 = bitcast %union.anon.17* %Vals161 to %struct.anon.21*, !dbg !3156
  %Form163 = getelementptr inbounds %struct.anon.21, %struct.anon.21* %Crackle162, i32 0, i32 0, !dbg !3157
  %arrayidx164 = getelementptr inbounds [3 x double], [3 x double]* %Form163, i64 0, i64 2, !dbg !3154
  store double 0.000000e+00, double* %arrayidx164, align 8, !dbg !3158
  %77 = load %"struct.pov::Pattern_Struct"*, %"struct.pov::Pattern_Struct"** %New.addr, align 8, !dbg !3159
  %Vals165 = getelementptr inbounds %"struct.pov::Pattern_Struct", %"struct.pov::Pattern_Struct"* %77, i32 0, i32 10, !dbg !3160
  %Crackle166 = bitcast %union.anon.17* %Vals165 to %struct.anon.21*, !dbg !3161
  %Metric = getelementptr inbounds %struct.anon.21, %struct.anon.21* %Crackle166, i32 0, i32 1, !dbg !3162
  %arrayidx167 = getelementptr inbounds [3 x double], [3 x double]* %Metric, i64 0, i64 2, !dbg !3159
  store double 2.000000e+00, double* %arrayidx167, align 8, !dbg !3163
  %78 = load %"struct.pov::Pattern_Struct"*, %"struct.pov::Pattern_Struct"** %New.addr, align 8, !dbg !3164
  %Vals168 = getelementptr inbounds %"struct.pov::Pattern_Struct", %"struct.pov::Pattern_Struct"* %78, i32 0, i32 10, !dbg !3165
  %Crackle169 = bitcast %union.anon.17* %Vals168 to %struct.anon.21*, !dbg !3166
  %Metric170 = getelementptr inbounds %struct.anon.21, %struct.anon.21* %Crackle169, i32 0, i32 1, !dbg !3167
  %arrayidx171 = getelementptr inbounds [3 x double], [3 x double]* %Metric170, i64 0, i64 1, !dbg !3164
  store double 2.000000e+00, double* %arrayidx171, align 8, !dbg !3168
  %79 = load %"struct.pov::Pattern_Struct"*, %"struct.pov::Pattern_Struct"** %New.addr, align 8, !dbg !3169
  %Vals172 = getelementptr inbounds %"struct.pov::Pattern_Struct", %"struct.pov::Pattern_Struct"* %79, i32 0, i32 10, !dbg !3170
  %Crackle173 = bitcast %union.anon.17* %Vals172 to %struct.anon.21*, !dbg !3171
  %Metric174 = getelementptr inbounds %struct.anon.21, %struct.anon.21* %Crackle173, i32 0, i32 1, !dbg !3172
  %arrayidx175 = getelementptr inbounds [3 x double], [3 x double]* %Metric174, i64 0, i64 0, !dbg !3169
  store double 2.000000e+00, double* %arrayidx175, align 8, !dbg !3173
  %80 = load %"struct.pov::Pattern_Struct"*, %"struct.pov::Pattern_Struct"** %New.addr, align 8, !dbg !3174
  %Vals176 = getelementptr inbounds %"struct.pov::Pattern_Struct", %"struct.pov::Pattern_Struct"* %80, i32 0, i32 10, !dbg !3175
  %Crackle177 = bitcast %union.anon.17* %Vals176 to %struct.anon.21*, !dbg !3176
  %Offset = getelementptr inbounds %struct.anon.21, %struct.anon.21* %Crackle177, i32 0, i32 2, !dbg !3177
  store double 0.000000e+00, double* %Offset, align 8, !dbg !3178
  %81 = load %"struct.pov::Pattern_Struct"*, %"struct.pov::Pattern_Struct"** %New.addr, align 8, !dbg !3179
  %Vals178 = getelementptr inbounds %"struct.pov::Pattern_Struct", %"struct.pov::Pattern_Struct"* %81, i32 0, i32 10, !dbg !3180
  %Crackle179 = bitcast %union.anon.17* %Vals178 to %struct.anon.21*, !dbg !3181
  %Dim = getelementptr inbounds %struct.anon.21, %struct.anon.21* %Crackle179, i32 0, i32 3, !dbg !3182
  store double 3.000000e+00, double* %Dim, align 8, !dbg !3183
  %call180 = call i8* @_ZN3pov10pov_mallocEmPKciS1_(i64 3000, i8* getelementptr inbounds ([13 x i8], [13 x i8]* @.str.3, i64 0, i64 0), i32 961, i8* getelementptr inbounds ([14 x i8], [14 x i8]* @.str.38, i64 0, i64 0)), !dbg !3184
  %82 = bitcast i8* %call180 to [3 x double]*, !dbg !3185
  %83 = load %"struct.pov::Pattern_Struct"*, %"struct.pov::Pattern_Struct"** %New.addr, align 8, !dbg !3186
  %Vals181 = getelementptr inbounds %"struct.pov::Pattern_Struct", %"struct.pov::Pattern_Struct"* %83, i32 0, i32 10, !dbg !3187
  %Crackle182 = bitcast %union.anon.17* %Vals181 to %struct.anon.21*, !dbg !3188
  %cv = getelementptr inbounds %struct.anon.21, %struct.anon.21* %Crackle182, i32 0, i32 5, !dbg !3189
  store [3 x double]* %82, [3 x double]** %cv, align 8, !dbg !3190
  %84 = load %"struct.pov::Pattern_Struct"*, %"struct.pov::Pattern_Struct"** %New.addr, align 8, !dbg !3191
  %Vals183 = getelementptr inbounds %"struct.pov::Pattern_Struct", %"struct.pov::Pattern_Struct"* %84, i32 0, i32 10, !dbg !3192
  %Crackle184 = bitcast %union.anon.17* %Vals183 to %struct.anon.21*, !dbg !3193
  %lastseed = getelementptr inbounds %struct.anon.21, %struct.anon.21* %Crackle184, i32 0, i32 6, !dbg !3194
  store i32 134217728, i32* %lastseed, align 8, !dbg !3195
  store i32 1, i32* %Exit_Flag, align 4, !dbg !3196
  br label %sw.epilog612, !dbg !3197

sw.bb185:                                         ; preds = %while.body, %while.body, %while.body
  call void @_ZN3pov11Unget_TokenEv(), !dbg !3198
  %85 = load i32, i32* %TPat_Type.addr, align 4, !dbg !3199
  %cmp186 = icmp ne i32 %85, 0, !dbg !3201
  br i1 %cmp186, label %land.lhs.true, label %if.end189, !dbg !3202

land.lhs.true:                                    ; preds = %sw.bb185
  %86 = load i32, i32* %TPat_Type.addr, align 4, !dbg !3203
  %cmp187 = icmp ne i32 %86, 7, !dbg !3204
  br i1 %cmp187, label %if.then188, label %if.end189, !dbg !3205

if.then188:                                       ; preds = %land.lhs.true
  call void @_ZN3pov7Only_InEPKcS1_(i8* getelementptr inbounds ([6 x i8], [6 x i8]* @.str.71, i64 0, i64 0), i8* getelementptr inbounds ([19 x i8], [19 x i8]* @.str.72, i64 0, i64 0)), !dbg !3206
  br label %if.end189, !dbg !3208

if.end189:                                        ; preds = %if.then188, %land.lhs.true, %sw.bb185
  %87 = load %"struct.pov::Pattern_Struct"*, %"struct.pov::Pattern_Struct"** %New.addr, align 8, !dbg !3209
  %Type190 = getelementptr inbounds %"struct.pov::Pattern_Struct", %"struct.pov::Pattern_Struct"* %87, i32 0, i32 0, !dbg !3210
  store i16 1, i16* %Type190, align 8, !dbg !3211
  %88 = load %"struct.pov::Pattern_Struct"*, %"struct.pov::Pattern_Struct"** %New.addr, align 8, !dbg !3212
  %89 = bitcast %"struct.pov::Pattern_Struct"* %88 to %"struct.pov::Pigment_Struct"*, !dbg !3213
  %Colour = getelementptr inbounds %"struct.pov::Pigment_Struct", %"struct.pov::Pigment_Struct"* %89, i32 0, i32 11, !dbg !3213
  %arraydecay191 = getelementptr inbounds [5 x float], [5 x float]* %Colour, i64 0, i64 0, !dbg !3214
  call void @_ZN3pov12Parse_ColourEPf(float* %arraydecay191), !dbg !3215
  store i32 1, i32* %Exit_Flag, align 4, !dbg !3216
  br label %sw.epilog612, !dbg !3217

sw.bb192:                                         ; preds = %while.body
  %90 = load %"struct.pov::Pattern_Struct"*, %"struct.pov::Pattern_Struct"** %New.addr, align 8, !dbg !3218
  %Type193 = getelementptr inbounds %"struct.pov::Pattern_Struct", %"struct.pov::Pattern_Struct"* %90, i32 0, i32 0, !dbg !3219
  store i16 3, i16* %Type193, align 8, !dbg !3220
  %91 = load %"struct.pov::Pattern_Struct"*, %"struct.pov::Pattern_Struct"** %New.addr, align 8, !dbg !3221
  %Blend_Map = getelementptr inbounds %"struct.pov::Pattern_Struct", %"struct.pov::Pattern_Struct"* %91, i32 0, i32 9, !dbg !3222
  %92 = load %"struct.pov::Blend_Map_Struct"*, %"struct.pov::Blend_Map_Struct"** %Blend_Map, align 8, !dbg !3222
  call void @_ZN3pov17Destroy_Blend_MapEPNS_16Blend_Map_StructE(%"struct.pov::Blend_Map_Struct"* %92), !dbg !3223
  %93 = load i32, i32* %TPat_Type.addr, align 4, !dbg !3224
  %call194 = call %"struct.pov::Blend_Map_Struct"* @_ZN3pov26Parse_Item_Into_Blend_ListEi(i32 %93), !dbg !3225
  %94 = load %"struct.pov::Pattern_Struct"*, %"struct.pov::Pattern_Struct"** %New.addr, align 8, !dbg !3226
  %Blend_Map195 = getelementptr inbounds %"struct.pov::Pattern_Struct", %"struct.pov::Pattern_Struct"* %94, i32 0, i32 9, !dbg !3227
  store %"struct.pov::Blend_Map_Struct"* %call194, %"struct.pov::Blend_Map_Struct"** %Blend_Map195, align 8, !dbg !3228
  br label %sw.epilog612, !dbg !3229

sw.bb196:                                         ; preds = %while.body
  %95 = load %"struct.pov::Pattern_Struct"*, %"struct.pov::Pattern_Struct"** %New.addr, align 8, !dbg !3230
  %Type197 = getelementptr inbounds %"struct.pov::Pattern_Struct", %"struct.pov::Pattern_Struct"* %95, i32 0, i32 0, !dbg !3231
  store i16 12, i16* %Type197, align 8, !dbg !3232
  %96 = load %"struct.pov::Pattern_Struct"*, %"struct.pov::Pattern_Struct"** %New.addr, align 8, !dbg !3233
  %Frequency = getelementptr inbounds %"struct.pov::Pattern_Struct", %"struct.pov::Pattern_Struct"* %96, i32 0, i32 4, !dbg !3234
  store float 0.000000e+00, float* %Frequency, align 4, !dbg !3235
  %97 = load %"struct.pov::Pattern_Struct"*, %"struct.pov::Pattern_Struct"** %New.addr, align 8, !dbg !3236
  %Blend_Map198 = getelementptr inbounds %"struct.pov::Pattern_Struct", %"struct.pov::Pattern_Struct"* %97, i32 0, i32 9, !dbg !3237
  %98 = load %"struct.pov::Blend_Map_Struct"*, %"struct.pov::Blend_Map_Struct"** %Blend_Map198, align 8, !dbg !3237
  call void @_ZN3pov17Destroy_Blend_MapEPNS_16Blend_Map_StructE(%"struct.pov::Blend_Map_Struct"* %98), !dbg !3238
  %99 = load i32, i32* %TPat_Type.addr, align 4, !dbg !3239
  %call199 = call %"struct.pov::Blend_Map_Struct"* @_ZN3pov16Parse_Blend_ListEiPNS_16Blend_Map_StructEi(i32 2, %"struct.pov::Blend_Map_Struct"* @_ZN3pov17Check_Default_MapE, i32 %99), !dbg !3240
  %100 = load %"struct.pov::Pattern_Struct"*, %"struct.pov::Pattern_Struct"** %New.addr, align 8, !dbg !3241
  %Blend_Map200 = getelementptr inbounds %"struct.pov::Pattern_Struct", %"struct.pov::Pattern_Struct"* %100, i32 0, i32 9, !dbg !3242
  store %"struct.pov::Blend_Map_Struct"* %call199, %"struct.pov::Blend_Map_Struct"** %Blend_Map200, align 8, !dbg !3243
  %101 = load i32, i32* %TPat_Type.addr, align 4, !dbg !3244
  %cmp201 = icmp eq i32 %101, 1, !dbg !3246
  br i1 %cmp201, label %if.then202, label %if.end203, !dbg !3247

if.then202:                                       ; preds = %sw.bb196
  %102 = load %"struct.pov::Pattern_Struct"*, %"struct.pov::Pattern_Struct"** %New.addr, align 8, !dbg !3248
  %103 = bitcast %"struct.pov::Pattern_Struct"* %102 to %"struct.pov::Tnormal_Struct"*, !dbg !3249
  %Delta = getelementptr inbounds %"struct.pov::Tnormal_Struct", %"struct.pov::Tnormal_Struct"* %103, i32 0, i32 12, !dbg !3249
  store float 0x3F947AE140000000, float* %Delta, align 4, !dbg !3250
  br label %if.end203, !dbg !3251

if.end203:                                        ; preds = %if.then202, %sw.bb196
  store i32 1, i32* %Exit_Flag, align 4, !dbg !3252
  br label %sw.epilog612, !dbg !3253

sw.bb204:                                         ; preds = %while.body
  call void @_ZN3pov11Parse_BeginEv(), !dbg !3254
  %call205 = call %"struct.pov::Object_Struct"* @_ZN3pov16Parse_Bound_ClipEv(), !dbg !3255
  %104 = load %"struct.pov::Pattern_Struct"*, %"struct.pov::Pattern_Struct"** %New.addr, align 8, !dbg !3256
  %Vals206 = getelementptr inbounds %"struct.pov::Pattern_Struct", %"struct.pov::Pattern_Struct"* %104, i32 0, i32 10, !dbg !3257
  %Object = bitcast %union.anon.17* %Vals206 to %"struct.pov::Object_Struct"**, !dbg !3258
  store %"struct.pov::Object_Struct"* %call205, %"struct.pov::Object_Struct"** %Object, align 8, !dbg !3259
  %105 = load %"struct.pov::Pattern_Struct"*, %"struct.pov::Pattern_Struct"** %New.addr, align 8, !dbg !3260
  %Vals207 = getelementptr inbounds %"struct.pov::Pattern_Struct", %"struct.pov::Pattern_Struct"* %105, i32 0, i32 10, !dbg !3262
  %Object208 = bitcast %union.anon.17* %Vals207 to %"struct.pov::Object_Struct"**, !dbg !3263
  %106 = load %"struct.pov::Object_Struct"*, %"struct.pov::Object_Struct"** %Object208, align 8, !dbg !3263
  %cmp209 = icmp eq %"struct.pov::Object_Struct"* %106, null, !dbg !3264
  br i1 %cmp209, label %if.then210, label %if.end212, !dbg !3265

if.then210:                                       ; preds = %sw.bb204
  %call211 = call i32 (i8*, ...) @_ZN3pov5ErrorEPKcz(i8* getelementptr inbounds ([38 x i8], [38 x i8]* @.str.39, i64 0, i64 0)), !dbg !3266
  br label %if.end212, !dbg !3268

if.end212:                                        ; preds = %if.then210, %sw.bb204
  %107 = load %"struct.pov::Pattern_Struct"*, %"struct.pov::Pattern_Struct"** %New.addr, align 8, !dbg !3269
  %Type213 = getelementptr inbounds %"struct.pov::Pattern_Struct", %"struct.pov::Pattern_Struct"* %107, i32 0, i32 0, !dbg !3270
  store i16 13, i16* %Type213, align 8, !dbg !3271
  %108 = load %"struct.pov::Pattern_Struct"*, %"struct.pov::Pattern_Struct"** %New.addr, align 8, !dbg !3272
  %Frequency214 = getelementptr inbounds %"struct.pov::Pattern_Struct", %"struct.pov::Pattern_Struct"* %108, i32 0, i32 4, !dbg !3273
  store float 0.000000e+00, float* %Frequency214, align 4, !dbg !3274
  %109 = load %"struct.pov::Pattern_Struct"*, %"struct.pov::Pattern_Struct"** %New.addr, align 8, !dbg !3275
  %Blend_Map215 = getelementptr inbounds %"struct.pov::Pattern_Struct", %"struct.pov::Pattern_Struct"* %109, i32 0, i32 9, !dbg !3276
  %110 = load %"struct.pov::Blend_Map_Struct"*, %"struct.pov::Blend_Map_Struct"** %Blend_Map215, align 8, !dbg !3276
  call void @_ZN3pov17Destroy_Blend_MapEPNS_16Blend_Map_StructE(%"struct.pov::Blend_Map_Struct"* %110), !dbg !3277
  %111 = load i32, i32* %TPat_Type.addr, align 4, !dbg !3278
  %call216 = call %"struct.pov::Blend_Map_Struct"* @_ZN3pov16Parse_Blend_ListEiPNS_16Blend_Map_StructEi(i32 2, %"struct.pov::Blend_Map_Struct"* @_ZN3pov17Check_Default_MapE, i32 %111), !dbg !3279
  %112 = load %"struct.pov::Pattern_Struct"*, %"struct.pov::Pattern_Struct"** %New.addr, align 8, !dbg !3280
  %Blend_Map217 = getelementptr inbounds %"struct.pov::Pattern_Struct", %"struct.pov::Pattern_Struct"* %112, i32 0, i32 9, !dbg !3281
  store %"struct.pov::Blend_Map_Struct"* %call216, %"struct.pov::Blend_Map_Struct"** %Blend_Map217, align 8, !dbg !3282
  call void @_ZN3pov9Parse_EndEv(), !dbg !3283
  store i32 1, i32* %Exit_Flag, align 4, !dbg !3284
  br label %sw.epilog612, !dbg !3285

sw.bb218:                                         ; preds = %while.body
  %113 = load %"struct.pov::Pattern_Struct"*, %"struct.pov::Pattern_Struct"** %New.addr, align 8, !dbg !3286
  %Type219 = getelementptr inbounds %"struct.pov::Pattern_Struct", %"struct.pov::Pattern_Struct"* %113, i32 0, i32 0, !dbg !3287
  store i16 17, i16* %Type219, align 8, !dbg !3288
  store i32 1, i32* %Exit_Flag, align 4, !dbg !3289
  br label %sw.epilog612, !dbg !3290

sw.bb220:                                         ; preds = %while.body
  %114 = load %"struct.pov::Pattern_Struct"*, %"struct.pov::Pattern_Struct"** %New.addr, align 8, !dbg !3291
  %Type221 = getelementptr inbounds %"struct.pov::Pattern_Struct", %"struct.pov::Pattern_Struct"* %114, i32 0, i32 0, !dbg !3293
  %115 = load i16, i16* %Type221, align 8, !dbg !3293
  %conv222 = zext i16 %115 to i32, !dbg !3291
  %cmp223 = icmp ne i32 %conv222, 14, !dbg !3294
  br i1 %cmp223, label %if.then224, label %if.end230, !dbg !3295

if.then224:                                       ; preds = %sw.bb220
  %116 = load %"struct.pov::Pattern_Struct"*, %"struct.pov::Pattern_Struct"** %New.addr, align 8, !dbg !3296
  %Vals225 = getelementptr inbounds %"struct.pov::Pattern_Struct", %"struct.pov::Pattern_Struct"* %116, i32 0, i32 10, !dbg !3298
  %Brick = bitcast %union.anon.17* %Vals225 to %struct.anon.18*, !dbg !3299
  %Size = getelementptr inbounds %struct.anon.18, %struct.anon.18* %Brick, i32 0, i32 1, !dbg !3300
  %arraydecay226 = getelementptr inbounds [3 x double], [3 x double]* %Size, i64 0, i64 0, !dbg !3296
  call void @_ZN3pov11Make_VectorEPdddd(double* %arraydecay226, double 8.000000e+00, double 3.000000e+00, double 4.500000e+00), !dbg !3301
  %117 = load %"struct.pov::Pattern_Struct"*, %"struct.pov::Pattern_Struct"** %New.addr, align 8, !dbg !3302
  %Vals227 = getelementptr inbounds %"struct.pov::Pattern_Struct", %"struct.pov::Pattern_Struct"* %117, i32 0, i32 10, !dbg !3303
  %Brick228 = bitcast %union.anon.17* %Vals227 to %struct.anon.18*, !dbg !3304
  %Mortar = getelementptr inbounds %struct.anon.18, %struct.anon.18* %Brick228, i32 0, i32 0, !dbg !3305
  store float 0x3FDFDF3B60000000, float* %Mortar, align 8, !dbg !3306
  %118 = load %"struct.pov::Pattern_Struct"*, %"struct.pov::Pattern_Struct"** %New.addr, align 8, !dbg !3307
  %Type229 = getelementptr inbounds %"struct.pov::Pattern_Struct", %"struct.pov::Pattern_Struct"* %118, i32 0, i32 0, !dbg !3308
  store i16 14, i16* %Type229, align 8, !dbg !3309
  br label %if.end230, !dbg !3310

if.end230:                                        ; preds = %if.then224, %sw.bb220
  %119 = load %"struct.pov::Pattern_Struct"*, %"struct.pov::Pattern_Struct"** %New.addr, align 8, !dbg !3311
  %Frequency231 = getelementptr inbounds %"struct.pov::Pattern_Struct", %"struct.pov::Pattern_Struct"* %119, i32 0, i32 4, !dbg !3312
  store float 0.000000e+00, float* %Frequency231, align 4, !dbg !3313
  %120 = load %"struct.pov::Pattern_Struct"*, %"struct.pov::Pattern_Struct"** %New.addr, align 8, !dbg !3314
  %Blend_Map232 = getelementptr inbounds %"struct.pov::Pattern_Struct", %"struct.pov::Pattern_Struct"* %120, i32 0, i32 9, !dbg !3315
  %121 = load %"struct.pov::Blend_Map_Struct"*, %"struct.pov::Blend_Map_Struct"** %Blend_Map232, align 8, !dbg !3315
  call void @_ZN3pov17Destroy_Blend_MapEPNS_16Blend_Map_StructE(%"struct.pov::Blend_Map_Struct"* %121), !dbg !3316
  %122 = load i32, i32* %TPat_Type.addr, align 4, !dbg !3317
  %call233 = call %"struct.pov::Blend_Map_Struct"* @_ZN3pov16Parse_Blend_ListEiPNS_16Blend_Map_StructEi(i32 2, %"struct.pov::Blend_Map_Struct"* @_ZN3pov17Brick_Default_MapE, i32 %122), !dbg !3318
  %123 = load %"struct.pov::Pattern_Struct"*, %"struct.pov::Pattern_Struct"** %New.addr, align 8, !dbg !3319
  %Blend_Map234 = getelementptr inbounds %"struct.pov::Pattern_Struct", %"struct.pov::Pattern_Struct"* %123, i32 0, i32 9, !dbg !3320
  store %"struct.pov::Blend_Map_Struct"* %call233, %"struct.pov::Blend_Map_Struct"** %Blend_Map234, align 8, !dbg !3321
  %124 = load i32, i32* %TPat_Type.addr, align 4, !dbg !3322
  %cmp235 = icmp eq i32 %124, 1, !dbg !3324
  br i1 %cmp235, label %if.then236, label %if.end238, !dbg !3325

if.then236:                                       ; preds = %if.end230
  %125 = load %"struct.pov::Pattern_Struct"*, %"struct.pov::Pattern_Struct"** %New.addr, align 8, !dbg !3326
  %126 = bitcast %"struct.pov::Pattern_Struct"* %125 to %"struct.pov::Tnormal_Struct"*, !dbg !3327
  %Delta237 = getelementptr inbounds %"struct.pov::Tnormal_Struct", %"struct.pov::Tnormal_Struct"* %126, i32 0, i32 12, !dbg !3327
  store float 0x3F947AE140000000, float* %Delta237, align 4, !dbg !3328
  br label %if.end238, !dbg !3329

if.end238:                                        ; preds = %if.then236, %if.end230
  store i32 1, i32* %Exit_Flag, align 4, !dbg !3330
  br label %sw.epilog612, !dbg !3331

sw.bb239:                                         ; preds = %while.body
  %127 = load %"struct.pov::Pattern_Struct"*, %"struct.pov::Pattern_Struct"** %New.addr, align 8, !dbg !3332
  %Type240 = getelementptr inbounds %"struct.pov::Pattern_Struct", %"struct.pov::Pattern_Struct"* %127, i32 0, i32 0, !dbg !3333
  store i16 15, i16* %Type240, align 8, !dbg !3334
  %128 = load %"struct.pov::Pattern_Struct"*, %"struct.pov::Pattern_Struct"** %New.addr, align 8, !dbg !3335
  %Frequency241 = getelementptr inbounds %"struct.pov::Pattern_Struct", %"struct.pov::Pattern_Struct"* %128, i32 0, i32 4, !dbg !3336
  store float 0.000000e+00, float* %Frequency241, align 4, !dbg !3337
  %129 = load %"struct.pov::Pattern_Struct"*, %"struct.pov::Pattern_Struct"** %New.addr, align 8, !dbg !3338
  %Blend_Map242 = getelementptr inbounds %"struct.pov::Pattern_Struct", %"struct.pov::Pattern_Struct"* %129, i32 0, i32 9, !dbg !3339
  %130 = load %"struct.pov::Blend_Map_Struct"*, %"struct.pov::Blend_Map_Struct"** %Blend_Map242, align 8, !dbg !3339
  call void @_ZN3pov17Destroy_Blend_MapEPNS_16Blend_Map_StructE(%"struct.pov::Blend_Map_Struct"* %130), !dbg !3340
  %131 = load i32, i32* %TPat_Type.addr, align 4, !dbg !3341
  %call243 = call %"struct.pov::Blend_Map_Struct"* @_ZN3pov16Parse_Blend_ListEiPNS_16Blend_Map_StructEi(i32 3, %"struct.pov::Blend_Map_Struct"* @_ZN3pov15Hex_Default_MapE, i32 %131), !dbg !3342
  %132 = load %"struct.pov::Pattern_Struct"*, %"struct.pov::Pattern_Struct"** %New.addr, align 8, !dbg !3343
  %Blend_Map244 = getelementptr inbounds %"struct.pov::Pattern_Struct", %"struct.pov::Pattern_Struct"* %132, i32 0, i32 9, !dbg !3344
  store %"struct.pov::Blend_Map_Struct"* %call243, %"struct.pov::Blend_Map_Struct"** %Blend_Map244, align 8, !dbg !3345
  %133 = load i32, i32* %TPat_Type.addr, align 4, !dbg !3346
  %cmp245 = icmp eq i32 %133, 1, !dbg !3348
  br i1 %cmp245, label %if.then246, label %if.end248, !dbg !3349

if.then246:                                       ; preds = %sw.bb239
  %134 = load %"struct.pov::Pattern_Struct"*, %"struct.pov::Pattern_Struct"** %New.addr, align 8, !dbg !3350
  %135 = bitcast %"struct.pov::Pattern_Struct"* %134 to %"struct.pov::Tnormal_Struct"*, !dbg !3351
  %Delta247 = getelementptr inbounds %"struct.pov::Tnormal_Struct", %"struct.pov::Tnormal_Struct"* %135, i32 0, i32 12, !dbg !3351
  store float 0x3F947AE140000000, float* %Delta247, align 4, !dbg !3352
  br label %if.end248, !dbg !3353

if.end248:                                        ; preds = %if.then246, %sw.bb239
  store i32 1, i32* %Exit_Flag, align 4, !dbg !3354
  br label %sw.epilog612, !dbg !3355

sw.bb249:                                         ; preds = %while.body
  %136 = load i32, i32* %TPat_Type.addr, align 4, !dbg !3356
  %cmp250 = icmp ne i32 %136, 0, !dbg !3358
  br i1 %cmp250, label %if.then251, label %if.end252, !dbg !3359

if.then251:                                       ; preds = %sw.bb249
  call void @_ZN3pov7Only_InEPKcS1_(i8* getelementptr inbounds ([10 x i8], [10 x i8]* @.str.73, i64 0, i64 0), i8* getelementptr inbounds ([8 x i8], [8 x i8]* @.str.74, i64 0, i64 0)), !dbg !3360
  br label %if.end252, !dbg !3362

if.end252:                                        ; preds = %if.then251, %sw.bb249
  %137 = load i16, i16* %Old_Type, align 2, !dbg !3363
  %conv253 = zext i16 %137 to i32, !dbg !3363
  %cmp254 = icmp eq i32 %conv253, 4, !dbg !3365
  br i1 %cmp254, label %if.then255, label %if.end256, !dbg !3366

if.then255:                                       ; preds = %if.end252
  %138 = load %"struct.pov::Image_Struct"*, %"struct.pov::Image_Struct"** %Old_Image, align 8, !dbg !3367
  call void @_ZN3pov13Destroy_ImageEPNS_12Image_StructE(%"struct.pov::Image_Struct"* %138), !dbg !3369
  br label %if.end256, !dbg !3370

if.end256:                                        ; preds = %if.then255, %if.end252
  %139 = load %"struct.pov::Pattern_Struct"*, %"struct.pov::Pattern_Struct"** %New.addr, align 8, !dbg !3371
  %Type257 = getelementptr inbounds %"struct.pov::Pattern_Struct", %"struct.pov::Pattern_Struct"* %139, i32 0, i32 0, !dbg !3372
  store i16 4, i16* %Type257, align 8, !dbg !3373
  %140 = load %"struct.pov::Pattern_Struct"*, %"struct.pov::Pattern_Struct"** %New.addr, align 8, !dbg !3374
  %Frequency258 = getelementptr inbounds %"struct.pov::Pattern_Struct", %"struct.pov::Pattern_Struct"* %140, i32 0, i32 4, !dbg !3375
  store float 0.000000e+00, float* %Frequency258, align 4, !dbg !3376
  %141 = load %"struct.pov::Pattern_Struct"*, %"struct.pov::Pattern_Struct"** %New.addr, align 8, !dbg !3377
  %142 = bitcast %"struct.pov::Pattern_Struct"* %141 to %"struct.pov::Pigment_Struct"*, !dbg !3378
  call void @_ZN3povL15Parse_Image_MapEPNS_14Pigment_StructE(%"struct.pov::Pigment_Struct"* %142), !dbg !3379
  store i32 1, i32* %Exit_Flag, align 4, !dbg !3380
  br label %sw.epilog612, !dbg !3381

sw.bb259:                                         ; preds = %while.body
  %143 = load i32, i32* %TPat_Type.addr, align 4, !dbg !3382
  %cmp260 = icmp ne i32 %143, 1, !dbg !3384
  br i1 %cmp260, label %if.then261, label %if.end262, !dbg !3385

if.then261:                                       ; preds = %sw.bb259
  call void @_ZN3pov7Only_InEPKcS1_(i8* getelementptr inbounds ([9 x i8], [9 x i8]* @.str.75, i64 0, i64 0), i8* getelementptr inbounds ([7 x i8], [7 x i8]* @.str.76, i64 0, i64 0)), !dbg !3386
  br label %if.end262, !dbg !3388

if.end262:                                        ; preds = %if.then261, %sw.bb259
  %144 = load i16, i16* %Old_Type, align 2, !dbg !3389
  %conv263 = zext i16 %144 to i32, !dbg !3389
  %cmp264 = icmp eq i32 %conv263, 4, !dbg !3391
  br i1 %cmp264, label %if.then265, label %if.end266, !dbg !3392

if.then265:                                       ; preds = %if.end262
  %145 = load %"struct.pov::Image_Struct"*, %"struct.pov::Image_Struct"** %Old_Image, align 8, !dbg !3393
  call void @_ZN3pov13Destroy_ImageEPNS_12Image_StructE(%"struct.pov::Image_Struct"* %145), !dbg !3395
  br label %if.end266, !dbg !3396

if.end266:                                        ; preds = %if.then265, %if.end262
  %146 = load %"struct.pov::Pattern_Struct"*, %"struct.pov::Pattern_Struct"** %New.addr, align 8, !dbg !3397
  %Type267 = getelementptr inbounds %"struct.pov::Pattern_Struct", %"struct.pov::Pattern_Struct"* %146, i32 0, i32 0, !dbg !3398
  store i16 4, i16* %Type267, align 8, !dbg !3399
  %147 = load %"struct.pov::Pattern_Struct"*, %"struct.pov::Pattern_Struct"** %New.addr, align 8, !dbg !3400
  %Frequency268 = getelementptr inbounds %"struct.pov::Pattern_Struct", %"struct.pov::Pattern_Struct"* %147, i32 0, i32 4, !dbg !3401
  store float 0.000000e+00, float* %Frequency268, align 4, !dbg !3402
  %148 = load %"struct.pov::Pattern_Struct"*, %"struct.pov::Pattern_Struct"** %New.addr, align 8, !dbg !3403
  %149 = bitcast %"struct.pov::Pattern_Struct"* %148 to %"struct.pov::Tnormal_Struct"*, !dbg !3404
  call void @_ZN3povL14Parse_Bump_MapEPNS_14Tnormal_StructE(%"struct.pov::Tnormal_Struct"* %149), !dbg !3405
  store i32 1, i32* %Exit_Flag, align 4, !dbg !3406
  br label %sw.epilog612, !dbg !3407

sw.bb269:                                         ; preds = %while.body
  %150 = load %"struct.pov::Pattern_Struct"*, %"struct.pov::Pattern_Struct"** %New.addr, align 8, !dbg !3408
  %Type270 = getelementptr inbounds %"struct.pov::Pattern_Struct", %"struct.pov::Pattern_Struct"* %150, i32 0, i32 0, !dbg !3409
  store i16 5, i16* %Type270, align 8, !dbg !3410
  store i32 1, i32* %Exit_Flag, align 4, !dbg !3411
  br label %sw.epilog612, !dbg !3412

sw.bb271:                                         ; preds = %while.body
  %151 = load %"struct.pov::Pattern_Struct"*, %"struct.pov::Pattern_Struct"** %New.addr, align 8, !dbg !3413
  %Type272 = getelementptr inbounds %"struct.pov::Pattern_Struct", %"struct.pov::Pattern_Struct"* %151, i32 0, i32 0, !dbg !3414
  store i16 6, i16* %Type272, align 8, !dbg !3415
  store i32 1, i32* %Exit_Flag, align 4, !dbg !3416
  br label %sw.epilog612, !dbg !3417

sw.bb273:                                         ; preds = %while.body
  %152 = load %"struct.pov::Pattern_Struct"*, %"struct.pov::Pattern_Struct"** %New.addr, align 8, !dbg !3418
  %Type274 = getelementptr inbounds %"struct.pov::Pattern_Struct", %"struct.pov::Pattern_Struct"* %152, i32 0, i32 0, !dbg !3419
  store i16 7, i16* %Type274, align 8, !dbg !3420
  store i32 1, i32* %Exit_Flag, align 4, !dbg !3421
  br label %sw.epilog612, !dbg !3422

sw.bb275:                                         ; preds = %while.body
  %153 = load %"struct.pov::Pattern_Struct"*, %"struct.pov::Pattern_Struct"** %New.addr, align 8, !dbg !3423
  %Type276 = getelementptr inbounds %"struct.pov::Pattern_Struct", %"struct.pov::Pattern_Struct"* %153, i32 0, i32 0, !dbg !3424
  store i16 8, i16* %Type276, align 8, !dbg !3425
  store i32 1, i32* %Exit_Flag, align 4, !dbg !3426
  br label %sw.epilog612, !dbg !3427

sw.bb277:                                         ; preds = %while.body
  %154 = load %"struct.pov::Pattern_Struct"*, %"struct.pov::Pattern_Struct"** %New.addr, align 8, !dbg !3428
  %Type278 = getelementptr inbounds %"struct.pov::Pattern_Struct", %"struct.pov::Pattern_Struct"* %154, i32 0, i32 0, !dbg !3429
  store i16 11, i16* %Type278, align 8, !dbg !3430
  store i32 1, i32* %Exit_Flag, align 4, !dbg !3431
  br label %sw.epilog612, !dbg !3432

sw.bb279:                                         ; preds = %while.body
  %155 = load %"struct.pov::Pattern_Struct"*, %"struct.pov::Pattern_Struct"** %New.addr, align 8, !dbg !3433
  %Type280 = getelementptr inbounds %"struct.pov::Pattern_Struct", %"struct.pov::Pattern_Struct"* %155, i32 0, i32 0, !dbg !3434
  store i16 9, i16* %Type280, align 8, !dbg !3435
  %156 = load %"struct.pov::Pattern_Struct"*, %"struct.pov::Pattern_Struct"** %New.addr, align 8, !dbg !3436
  %Vals281 = getelementptr inbounds %"struct.pov::Pattern_Struct", %"struct.pov::Pattern_Struct"* %156, i32 0, i32 10, !dbg !3437
  %Quilted = bitcast %union.anon.17* %Vals281 to %struct.anon.19*, !dbg !3438
  %Control0 = getelementptr inbounds %struct.anon.19, %struct.anon.19* %Quilted, i32 0, i32 0, !dbg !3439
  store float 1.000000e+00, float* %Control0, align 8, !dbg !3440
  %157 = load %"struct.pov::Pattern_Struct"*, %"struct.pov::Pattern_Struct"** %New.addr, align 8, !dbg !3441
  %Vals282 = getelementptr inbounds %"struct.pov::Pattern_Struct", %"struct.pov::Pattern_Struct"* %157, i32 0, i32 10, !dbg !3442
  %Quilted283 = bitcast %union.anon.17* %Vals282 to %struct.anon.19*, !dbg !3443
  %Control1 = getelementptr inbounds %struct.anon.19, %struct.anon.19* %Quilted283, i32 0, i32 1, !dbg !3444
  store float 1.000000e+00, float* %Control1, align 4, !dbg !3445
  %158 = load %"struct.pov::Pattern_Struct"*, %"struct.pov::Pattern_Struct"** %New.addr, align 8, !dbg !3446
  %Frequency284 = getelementptr inbounds %"struct.pov::Pattern_Struct", %"struct.pov::Pattern_Struct"* %158, i32 0, i32 4, !dbg !3447
  store float 0.000000e+00, float* %Frequency284, align 4, !dbg !3448
  store i32 1, i32* %Exit_Flag, align 4, !dbg !3449
  br label %sw.epilog612, !dbg !3450

sw.bb285:                                         ; preds = %while.body
  %159 = load i32, i32* %TPat_Type.addr, align 4, !dbg !3451
  %cmp286 = icmp ne i32 %159, 1, !dbg !3453
  br i1 %cmp286, label %if.then287, label %if.end288, !dbg !3454

if.then287:                                       ; preds = %sw.bb285
  call void @_ZN3pov7Only_InEPKcS1_(i8* getelementptr inbounds ([7 x i8], [7 x i8]* @.str.51, i64 0, i64 0), i8* getelementptr inbounds ([7 x i8], [7 x i8]* @.str.76, i64 0, i64 0)), !dbg !3455
  br label %if.end288, !dbg !3457

if.end288:                                        ; preds = %if.then287, %sw.bb285
  %160 = load %"struct.pov::Pattern_Struct"*, %"struct.pov::Pattern_Struct"** %New.addr, align 8, !dbg !3458
  %Type289 = getelementptr inbounds %"struct.pov::Pattern_Struct", %"struct.pov::Pattern_Struct"* %160, i32 0, i32 0, !dbg !3459
  store i16 10, i16* %Type289, align 8, !dbg !3460
  %161 = load %"struct.pov::Pattern_Struct"*, %"struct.pov::Pattern_Struct"** %New.addr, align 8, !dbg !3461
  %Vals290 = getelementptr inbounds %"struct.pov::Pattern_Struct", %"struct.pov::Pattern_Struct"* %161, i32 0, i32 10, !dbg !3462
  %Facets = bitcast %union.anon.17* %Vals290 to %struct.anon.20*, !dbg !3463
  %Size291 = getelementptr inbounds %struct.anon.20, %struct.anon.20* %Facets, i32 0, i32 0, !dbg !3464
  store double 1.000000e-01, double* %Size291, align 8, !dbg !3465
  %162 = load %"struct.pov::Pattern_Struct"*, %"struct.pov::Pattern_Struct"** %New.addr, align 8, !dbg !3466
  %Vals292 = getelementptr inbounds %"struct.pov::Pattern_Struct", %"struct.pov::Pattern_Struct"* %162, i32 0, i32 10, !dbg !3467
  %Facets293 = bitcast %union.anon.17* %Vals292 to %struct.anon.20*, !dbg !3468
  %UseCoords = getelementptr inbounds %struct.anon.20, %struct.anon.20* %Facets293, i32 0, i32 1, !dbg !3469
  store double 0.000000e+00, double* %UseCoords, align 8, !dbg !3470
  %163 = load %"struct.pov::Pattern_Struct"*, %"struct.pov::Pattern_Struct"** %New.addr, align 8, !dbg !3471
  %Vals294 = getelementptr inbounds %"struct.pov::Pattern_Struct", %"struct.pov::Pattern_Struct"* %163, i32 0, i32 10, !dbg !3472
  %Facets295 = bitcast %union.anon.17* %Vals294 to %struct.anon.20*, !dbg !3473
  %Metric296 = getelementptr inbounds %struct.anon.20, %struct.anon.20* %Facets295, i32 0, i32 2, !dbg !3474
  %arrayidx297 = getelementptr inbounds [3 x double], [3 x double]* %Metric296, i64 0, i64 2, !dbg !3471
  store double 2.000000e+00, double* %arrayidx297, align 8, !dbg !3475
  %164 = load %"struct.pov::Pattern_Struct"*, %"struct.pov::Pattern_Struct"** %New.addr, align 8, !dbg !3476
  %Vals298 = getelementptr inbounds %"struct.pov::Pattern_Struct", %"struct.pov::Pattern_Struct"* %164, i32 0, i32 10, !dbg !3477
  %Facets299 = bitcast %union.anon.17* %Vals298 to %struct.anon.20*, !dbg !3478
  %Metric300 = getelementptr inbounds %struct.anon.20, %struct.anon.20* %Facets299, i32 0, i32 2, !dbg !3479
  %arrayidx301 = getelementptr inbounds [3 x double], [3 x double]* %Metric300, i64 0, i64 1, !dbg !3476
  store double 2.000000e+00, double* %arrayidx301, align 8, !dbg !3480
  %165 = load %"struct.pov::Pattern_Struct"*, %"struct.pov::Pattern_Struct"** %New.addr, align 8, !dbg !3481
  %Vals302 = getelementptr inbounds %"struct.pov::Pattern_Struct", %"struct.pov::Pattern_Struct"* %165, i32 0, i32 10, !dbg !3482
  %Facets303 = bitcast %union.anon.17* %Vals302 to %struct.anon.20*, !dbg !3483
  %Metric304 = getelementptr inbounds %struct.anon.20, %struct.anon.20* %Facets303, i32 0, i32 2, !dbg !3484
  %arrayidx305 = getelementptr inbounds [3 x double], [3 x double]* %Metric304, i64 0, i64 0, !dbg !3481
  store double 2.000000e+00, double* %arrayidx305, align 8, !dbg !3485
  store i32 1, i32* %Exit_Flag, align 4, !dbg !3486
  br label %sw.epilog612, !dbg !3487

sw.bb306:                                         ; preds = %while.body
  %166 = load %"struct.pov::Pattern_Struct"*, %"struct.pov::Pattern_Struct"** %New.addr, align 8, !dbg !3488
  %Type307 = getelementptr inbounds %"struct.pov::Pattern_Struct", %"struct.pov::Pattern_Struct"* %166, i32 0, i32 0, !dbg !3489
  store i16 2, i16* %Type307, align 8, !dbg !3490
  store i32 1, i32* %Exit_Flag, align 4, !dbg !3491
  br label %sw.epilog612, !dbg !3492

sw.bb308:                                         ; preds = %while.body
  %167 = load i16, i16* %Old_Type, align 2, !dbg !3493
  %conv309 = zext i16 %167 to i32, !dbg !3493
  %cmp310 = icmp eq i32 %conv309, 4, !dbg !3495
  br i1 %cmp310, label %if.then313, label %lor.lhs.false, !dbg !3496

lor.lhs.false:                                    ; preds = %sw.bb308
  %168 = load i16, i16* %Old_Type, align 2, !dbg !3497
  %conv311 = zext i16 %168 to i32, !dbg !3497
  %cmp312 = icmp eq i32 %conv311, 50, !dbg !3498
  br i1 %cmp312, label %if.then313, label %if.end314, !dbg !3499

if.then313:                                       ; preds = %lor.lhs.false, %sw.bb308
  %169 = load %"struct.pov::Image_Struct"*, %"struct.pov::Image_Struct"** %Old_Image, align 8, !dbg !3500
  call void @_ZN3pov13Destroy_ImageEPNS_12Image_StructE(%"struct.pov::Image_Struct"* %169), !dbg !3502
  br label %if.end314, !dbg !3503

if.end314:                                        ; preds = %if.then313, %lor.lhs.false
  %170 = load %"struct.pov::Pattern_Struct"*, %"struct.pov::Pattern_Struct"** %New.addr, align 8, !dbg !3504
  %Type315 = getelementptr inbounds %"struct.pov::Pattern_Struct", %"struct.pov::Pattern_Struct"* %170, i32 0, i32 0, !dbg !3505
  store i16 50, i16* %Type315, align 8, !dbg !3506
  %171 = load %"struct.pov::Pattern_Struct"*, %"struct.pov::Pattern_Struct"** %New.addr, align 8, !dbg !3507
  %Frequency316 = getelementptr inbounds %"struct.pov::Pattern_Struct", %"struct.pov::Pattern_Struct"* %171, i32 0, i32 4, !dbg !3508
  store float 0.000000e+00, float* %Frequency316, align 4, !dbg !3509
  %172 = load %"struct.pov::Pattern_Struct"*, %"struct.pov::Pattern_Struct"** %New.addr, align 8, !dbg !3510
  call void @_ZN3povL19Parse_Image_PatternEPNS_14Pattern_StructE(%"struct.pov::Pattern_Struct"* %172), !dbg !3511
  store i32 1, i32* %Exit_Flag, align 4, !dbg !3512
  br label %sw.epilog612, !dbg !3513

sw.bb317:                                         ; preds = %while.body
  %173 = load %"struct.pov::Pattern_Struct"*, %"struct.pov::Pattern_Struct"** %New.addr, align 8, !dbg !3514
  %Type318 = getelementptr inbounds %"struct.pov::Pattern_Struct", %"struct.pov::Pattern_Struct"* %173, i32 0, i32 0, !dbg !3515
  store i16 42, i16* %Type318, align 8, !dbg !3516
  store i32 1, i32* %Exit_Flag, align 4, !dbg !3517
  br label %sw.epilog612, !dbg !3518

sw.bb319:                                         ; preds = %while.body
  %174 = load %"struct.pov::Pattern_Struct"*, %"struct.pov::Pattern_Struct"** %New.addr, align 8, !dbg !3519
  %Type320 = getelementptr inbounds %"struct.pov::Pattern_Struct", %"struct.pov::Pattern_Struct"* %174, i32 0, i32 0, !dbg !3520
  store i16 44, i16* %Type320, align 8, !dbg !3521
  store i32 1, i32* %Exit_Flag, align 4, !dbg !3522
  br label %sw.epilog612, !dbg !3523

sw.bb321:                                         ; preds = %while.body
  %175 = load %"struct.pov::Pattern_Struct"*, %"struct.pov::Pattern_Struct"** %New.addr, align 8, !dbg !3524
  %Type322 = getelementptr inbounds %"struct.pov::Pattern_Struct", %"struct.pov::Pattern_Struct"* %175, i32 0, i32 0, !dbg !3525
  store i16 43, i16* %Type322, align 8, !dbg !3526
  store i32 1, i32* %Exit_Flag, align 4, !dbg !3527
  br label %sw.epilog612, !dbg !3528

sw.bb323:                                         ; preds = %while.body
  %176 = load %"struct.pov::Pattern_Struct"*, %"struct.pov::Pattern_Struct"** %New.addr, align 8, !dbg !3529
  %Type324 = getelementptr inbounds %"struct.pov::Pattern_Struct", %"struct.pov::Pattern_Struct"* %176, i32 0, i32 0, !dbg !3530
  store i16 45, i16* %Type324, align 8, !dbg !3531
  store i32 1, i32* %Exit_Flag, align 4, !dbg !3532
  br label %sw.epilog612, !dbg !3533

sw.bb325:                                         ; preds = %while.body
  %177 = load i16, i16* %Old_Type, align 2, !dbg !3534
  %conv326 = zext i16 %177 to i32, !dbg !3534
  %cmp327 = icmp eq i32 %conv326, 46, !dbg !3536
  br i1 %cmp327, label %if.then328, label %if.end329, !dbg !3537

if.then328:                                       ; preds = %sw.bb325
  %178 = load %"struct.pov::Density_file_Struct"*, %"struct.pov::Density_file_Struct"** %Old_Density_File, align 8, !dbg !3538
  call void @_ZN3pov20Destroy_Density_FileEPNS_19Density_file_StructE(%"struct.pov::Density_file_Struct"* %178), !dbg !3540
  br label %if.end329, !dbg !3541

if.end329:                                        ; preds = %if.then328, %sw.bb325
  %179 = load %"struct.pov::Pattern_Struct"*, %"struct.pov::Pattern_Struct"** %New.addr, align 8, !dbg !3542
  %Type330 = getelementptr inbounds %"struct.pov::Pattern_Struct", %"struct.pov::Pattern_Struct"* %179, i32 0, i32 0, !dbg !3543
  store i16 46, i16* %Type330, align 8, !dbg !3544
  %call331 = call %"struct.pov::Density_file_Struct"* @_ZN3pov19Create_Density_FileEv(), !dbg !3545
  %180 = load %"struct.pov::Pattern_Struct"*, %"struct.pov::Pattern_Struct"** %New.addr, align 8, !dbg !3546
  %Vals332 = getelementptr inbounds %"struct.pov::Pattern_Struct", %"struct.pov::Pattern_Struct"* %180, i32 0, i32 10, !dbg !3547
  %Density_File333 = bitcast %union.anon.17* %Vals332 to %"struct.pov::Density_file_Struct"**, !dbg !3548
  store %"struct.pov::Density_file_Struct"* %call331, %"struct.pov::Density_file_Struct"** %Density_File333, align 8, !dbg !3549
  call void @_ZN3pov9Get_TokenEv(), !dbg !3550
  %181 = load i32, i32* getelementptr inbounds (%"struct.pov::Token_Struct", %"struct.pov::Token_Struct"* @_ZN3pov5TokenE, i32 0, i32 0), align 8, !dbg !3551
  %cmp334 = icmp ne i32 %181, 448, !dbg !3551
  br i1 %cmp334, label %if.then335, label %if.end336, !dbg !3550

if.then335:                                       ; preds = %if.end329
  call void @_ZN3pov11Parse_ErrorEi(i32 448), !dbg !3551
  br label %if.end336, !dbg !3551

if.end336:                                        ; preds = %if.then335, %if.end329
  %call337 = call i8* @_ZN3pov14Parse_C_StringEb(i1 zeroext true), !dbg !3553
  %182 = load %"struct.pov::Pattern_Struct"*, %"struct.pov::Pattern_Struct"** %New.addr, align 8, !dbg !3554
  %Vals338 = getelementptr inbounds %"struct.pov::Pattern_Struct", %"struct.pov::Pattern_Struct"* %182, i32 0, i32 10, !dbg !3555
  %Density_File339 = bitcast %union.anon.17* %Vals338 to %"struct.pov::Density_file_Struct"**, !dbg !3556
  %183 = load %"struct.pov::Density_file_Struct"*, %"struct.pov::Density_file_Struct"** %Density_File339, align 8, !dbg !3556
  %Data340 = getelementptr inbounds %"struct.pov::Density_file_Struct", %"struct.pov::Density_file_Struct"* %183, i32 0, i32 1, !dbg !3557
  %184 = load %"struct.pov::Density_file_Data_Struct"*, %"struct.pov::Density_file_Data_Struct"** %Data340, align 8, !dbg !3557
  %Name = getelementptr inbounds %"struct.pov::Density_file_Data_Struct", %"struct.pov::Density_file_Data_Struct"* %184, i32 0, i32 1, !dbg !3558
  store i8* %call337, i8** %Name, align 8, !dbg !3559
  %185 = load %"struct.pov::Pattern_Struct"*, %"struct.pov::Pattern_Struct"** %New.addr, align 8, !dbg !3560
  %Vals341 = getelementptr inbounds %"struct.pov::Pattern_Struct", %"struct.pov::Pattern_Struct"* %185, i32 0, i32 10, !dbg !3561
  %Density_File342 = bitcast %union.anon.17* %Vals341 to %"struct.pov::Density_file_Struct"**, !dbg !3562
  %186 = load %"struct.pov::Density_file_Struct"*, %"struct.pov::Density_file_Struct"** %Density_File342, align 8, !dbg !3562
  call void @_ZN3pov17Read_Density_FileEPNS_19Density_file_StructE(%"struct.pov::Density_file_Struct"* %186), !dbg !3563
  store i32 1, i32* %Exit_Flag, align 4, !dbg !3564
  br label %sw.epilog612, !dbg !3565

sw.bb343:                                         ; preds = %while.body
  %187 = load %"struct.pov::Pattern_Struct"*, %"struct.pov::Pattern_Struct"** %New.addr, align 8, !dbg !3566
  %Type344 = getelementptr inbounds %"struct.pov::Pattern_Struct", %"struct.pov::Pattern_Struct"* %187, i32 0, i32 0, !dbg !3567
  store i16 48, i16* %Type344, align 8, !dbg !3568
  %188 = load %"struct.pov::Pattern_Struct"*, %"struct.pov::Pattern_Struct"** %New.addr, align 8, !dbg !3569
  %Vals345 = getelementptr inbounds %"struct.pov::Pattern_Struct", %"struct.pov::Pattern_Struct"* %188, i32 0, i32 10, !dbg !3570
  %Slope = bitcast %union.anon.17* %Vals345 to %struct.anon.22*, !dbg !3571
  %Altit_Vector = getelementptr inbounds %struct.anon.22, %struct.anon.22* %Slope, i32 0, i32 1, !dbg !3572
  %arrayidx346 = getelementptr inbounds [3 x double], [3 x double]* %Altit_Vector, i64 0, i64 0, !dbg !3569
  store double 0.000000e+00, double* %arrayidx346, align 8, !dbg !3573
  %189 = load %"struct.pov::Pattern_Struct"*, %"struct.pov::Pattern_Struct"** %New.addr, align 8, !dbg !3574
  %Vals347 = getelementptr inbounds %"struct.pov::Pattern_Struct", %"struct.pov::Pattern_Struct"* %189, i32 0, i32 10, !dbg !3575
  %Slope348 = bitcast %union.anon.17* %Vals347 to %struct.anon.22*, !dbg !3576
  %Altit_Vector349 = getelementptr inbounds %struct.anon.22, %struct.anon.22* %Slope348, i32 0, i32 1, !dbg !3577
  %arrayidx350 = getelementptr inbounds [3 x double], [3 x double]* %Altit_Vector349, i64 0, i64 1, !dbg !3574
  store double 0.000000e+00, double* %arrayidx350, align 8, !dbg !3578
  %190 = load %"struct.pov::Pattern_Struct"*, %"struct.pov::Pattern_Struct"** %New.addr, align 8, !dbg !3579
  %Vals351 = getelementptr inbounds %"struct.pov::Pattern_Struct", %"struct.pov::Pattern_Struct"* %190, i32 0, i32 10, !dbg !3580
  %Slope352 = bitcast %union.anon.17* %Vals351 to %struct.anon.22*, !dbg !3581
  %Altit_Vector353 = getelementptr inbounds %struct.anon.22, %struct.anon.22* %Slope352, i32 0, i32 1, !dbg !3582
  %arrayidx354 = getelementptr inbounds [3 x double], [3 x double]* %Altit_Vector353, i64 0, i64 2, !dbg !3579
  store double 0.000000e+00, double* %arrayidx354, align 8, !dbg !3583
  %191 = load %"struct.pov::Pattern_Struct"*, %"struct.pov::Pattern_Struct"** %New.addr, align 8, !dbg !3584
  %Vals355 = getelementptr inbounds %"struct.pov::Pattern_Struct", %"struct.pov::Pattern_Struct"* %191, i32 0, i32 10, !dbg !3585
  %Slope356 = bitcast %union.anon.17* %Vals355 to %struct.anon.22*, !dbg !3586
  %Slope_Mod = getelementptr inbounds %struct.anon.22, %struct.anon.22* %Slope356, i32 0, i32 6, !dbg !3587
  %arrayidx357 = getelementptr inbounds [2 x double], [2 x double]* %Slope_Mod, i64 0, i64 0, !dbg !3584
  store double 0.000000e+00, double* %arrayidx357, align 8, !dbg !3588
  %192 = load %"struct.pov::Pattern_Struct"*, %"struct.pov::Pattern_Struct"** %New.addr, align 8, !dbg !3589
  %Vals358 = getelementptr inbounds %"struct.pov::Pattern_Struct", %"struct.pov::Pattern_Struct"* %192, i32 0, i32 10, !dbg !3590
  %Slope359 = bitcast %union.anon.17* %Vals358 to %struct.anon.22*, !dbg !3591
  %Altit_Mod = getelementptr inbounds %struct.anon.22, %struct.anon.22* %Slope359, i32 0, i32 7, !dbg !3592
  %arrayidx360 = getelementptr inbounds [2 x double], [2 x double]* %Altit_Mod, i64 0, i64 0, !dbg !3589
  store double 0.000000e+00, double* %arrayidx360, align 8, !dbg !3593
  %193 = load %"struct.pov::Pattern_Struct"*, %"struct.pov::Pattern_Struct"** %New.addr, align 8, !dbg !3594
  %Vals361 = getelementptr inbounds %"struct.pov::Pattern_Struct", %"struct.pov::Pattern_Struct"* %193, i32 0, i32 10, !dbg !3595
  %Slope362 = bitcast %union.anon.17* %Vals361 to %struct.anon.22*, !dbg !3596
  %Slope_Mod363 = getelementptr inbounds %struct.anon.22, %struct.anon.22* %Slope362, i32 0, i32 6, !dbg !3597
  %arrayidx364 = getelementptr inbounds [2 x double], [2 x double]* %Slope_Mod363, i64 0, i64 1, !dbg !3594
  store double 0.000000e+00, double* %arrayidx364, align 8, !dbg !3598
  %194 = load %"struct.pov::Pattern_Struct"*, %"struct.pov::Pattern_Struct"** %New.addr, align 8, !dbg !3599
  %Vals365 = getelementptr inbounds %"struct.pov::Pattern_Struct", %"struct.pov::Pattern_Struct"* %194, i32 0, i32 10, !dbg !3600
  %Slope366 = bitcast %union.anon.17* %Vals365 to %struct.anon.22*, !dbg !3601
  %Altit_Mod367 = getelementptr inbounds %struct.anon.22, %struct.anon.22* %Slope366, i32 0, i32 7, !dbg !3602
  %arrayidx368 = getelementptr inbounds [2 x double], [2 x double]* %Altit_Mod367, i64 0, i64 1, !dbg !3599
  store double 0.000000e+00, double* %arrayidx368, align 8, !dbg !3603
  call void @llvm.dbg.declare(metadata i32* %Exit_Flag369, metadata !3604, metadata !DIExpression()), !dbg !3606
  store i32 0, i32* %Exit_Flag369, align 4, !dbg !3606
  br label %while.cond370, !dbg !3606

while.cond370:                                    ; preds = %sw.epilog487, %sw.bb343
  %195 = load i32, i32* %Exit_Flag369, align 4, !dbg !3606
  %tobool371 = icmp ne i32 %195, 0, !dbg !3606
  %lnot372 = xor i1 %tobool371, true, !dbg !3606
  br i1 %lnot372, label %while.body373, label %while.end488, !dbg !3606

while.body373:                                    ; preds = %while.cond370
  call void @_ZN3pov9Get_TokenEv(), !dbg !3607
  %196 = load i32, i32* getelementptr inbounds (%"struct.pov::Token_Struct", %"struct.pov::Token_Struct"* @_ZN3pov5TokenE, i32 0, i32 0), align 8, !dbg !3607
  switch i32 %196, label %sw.default486 [
    i32 91, label %sw.bb374
    i32 89, label %sw.bb374
    i32 92, label %sw.bb374
    i32 488, label %sw.bb374
    i32 77, label %sw.bb374
    i32 171, label %sw.bb374
    i32 400, label %sw.bb374
    i32 401, label %sw.bb374
    i32 452, label %sw.bb374
    i32 453, label %sw.bb374
    i32 504, label %sw.bb374
    i32 173, label %sw.bb374
    i32 64, label %sw.bb374
    i32 203, label %sw.bb374
    i32 133, label %sw.bb374
    i32 487, label %sw.bb374
    i32 145, label %sw.bb374
    i32 172, label %sw.bb378
  ], !dbg !3607

sw.bb374:                                         ; preds = %while.body373, %while.body373, %while.body373, %while.body373, %while.body373, %while.body373, %while.body373, %while.body373, %while.body373, %while.body373, %while.body373, %while.body373, %while.body373, %while.body373, %while.body373, %while.body373, %while.body373
  call void @_ZN3pov11Unget_TokenEv(), !dbg !3609
  %197 = load %"struct.pov::Pattern_Struct"*, %"struct.pov::Pattern_Struct"** %New.addr, align 8, !dbg !3611
  %Vals375 = getelementptr inbounds %"struct.pov::Pattern_Struct", %"struct.pov::Pattern_Struct"* %197, i32 0, i32 10, !dbg !3612
  %Slope376 = bitcast %union.anon.17* %Vals375 to %struct.anon.22*, !dbg !3613
  %Slope_Vector = getelementptr inbounds %struct.anon.22, %struct.anon.22* %Slope376, i32 0, i32 0, !dbg !3614
  %arraydecay377 = getelementptr inbounds [3 x double], [3 x double]* %Slope_Vector, i64 0, i64 0, !dbg !3611
  call void @_ZN3pov12Parse_VectorEPd(double* %arraydecay377), !dbg !3615
  store i32 1, i32* %Exit_Flag369, align 4, !dbg !3616
  br label %sw.epilog487, !dbg !3617

sw.bb378:                                         ; preds = %while.body373
  call void @_ZN3pov11Unget_TokenEv(), !dbg !3618
  call void @_ZN3pov11Parse_BeginEv(), !dbg !3619
  %198 = load %"struct.pov::Pattern_Struct"*, %"struct.pov::Pattern_Struct"** %New.addr, align 8, !dbg !3620
  %Vals379 = getelementptr inbounds %"struct.pov::Pattern_Struct", %"struct.pov::Pattern_Struct"* %198, i32 0, i32 10, !dbg !3621
  %Slope380 = bitcast %union.anon.17* %Vals379 to %struct.anon.22*, !dbg !3622
  %Slope_Vector381 = getelementptr inbounds %struct.anon.22, %struct.anon.22* %Slope380, i32 0, i32 0, !dbg !3623
  %arraydecay382 = getelementptr inbounds [3 x double], [3 x double]* %Slope_Vector381, i64 0, i64 0, !dbg !3620
  call void @_ZN3pov12Parse_VectorEPd(double* %arraydecay382), !dbg !3624
  call void @_ZN3pov11Parse_CommaEv(), !dbg !3625
  %call383 = call double @_ZN3pov11Allow_FloatEd(double 0.000000e+00), !dbg !3626
  %199 = load %"struct.pov::Pattern_Struct"*, %"struct.pov::Pattern_Struct"** %New.addr, align 8, !dbg !3627
  %Vals384 = getelementptr inbounds %"struct.pov::Pattern_Struct", %"struct.pov::Pattern_Struct"* %199, i32 0, i32 10, !dbg !3628
  %Slope385 = bitcast %union.anon.17* %Vals384 to %struct.anon.22*, !dbg !3629
  %Slope_Mod386 = getelementptr inbounds %struct.anon.22, %struct.anon.22* %Slope385, i32 0, i32 6, !dbg !3630
  %arrayidx387 = getelementptr inbounds [2 x double], [2 x double]* %Slope_Mod386, i64 0, i64 0, !dbg !3627
  store double %call383, double* %arrayidx387, align 8, !dbg !3631
  call void @_ZN3pov11Parse_CommaEv(), !dbg !3632
  %call388 = call double @_ZN3pov11Allow_FloatEd(double 0.000000e+00), !dbg !3633
  %200 = load %"struct.pov::Pattern_Struct"*, %"struct.pov::Pattern_Struct"** %New.addr, align 8, !dbg !3634
  %Vals389 = getelementptr inbounds %"struct.pov::Pattern_Struct", %"struct.pov::Pattern_Struct"* %200, i32 0, i32 10, !dbg !3635
  %Slope390 = bitcast %union.anon.17* %Vals389 to %struct.anon.22*, !dbg !3636
  %Slope_Mod391 = getelementptr inbounds %struct.anon.22, %struct.anon.22* %Slope390, i32 0, i32 6, !dbg !3637
  %arrayidx392 = getelementptr inbounds [2 x double], [2 x double]* %Slope_Mod391, i64 0, i64 1, !dbg !3634
  store double %call388, double* %arrayidx392, align 8, !dbg !3638
  %201 = load %"struct.pov::Pattern_Struct"*, %"struct.pov::Pattern_Struct"** %New.addr, align 8, !dbg !3639
  %Vals393 = getelementptr inbounds %"struct.pov::Pattern_Struct", %"struct.pov::Pattern_Struct"* %201, i32 0, i32 10, !dbg !3641
  %Slope394 = bitcast %union.anon.17* %Vals393 to %struct.anon.22*, !dbg !3642
  %Slope_Mod395 = getelementptr inbounds %struct.anon.22, %struct.anon.22* %Slope394, i32 0, i32 6, !dbg !3643
  %arrayidx396 = getelementptr inbounds [2 x double], [2 x double]* %Slope_Mod395, i64 0, i64 1, !dbg !3639
  %202 = load double, double* %arrayidx396, align 8, !dbg !3639
  %cmp397 = fcmp une double %202, 0.000000e+00, !dbg !3644
  br i1 %cmp397, label %land.lhs.true398, label %if.else, !dbg !3645

land.lhs.true398:                                 ; preds = %sw.bb378
  %203 = load %"struct.pov::Pattern_Struct"*, %"struct.pov::Pattern_Struct"** %New.addr, align 8, !dbg !3646
  %Vals399 = getelementptr inbounds %"struct.pov::Pattern_Struct", %"struct.pov::Pattern_Struct"* %203, i32 0, i32 10, !dbg !3647
  %Slope400 = bitcast %union.anon.17* %Vals399 to %struct.anon.22*, !dbg !3648
  %Slope_Mod401 = getelementptr inbounds %struct.anon.22, %struct.anon.22* %Slope400, i32 0, i32 6, !dbg !3649
  %arrayidx402 = getelementptr inbounds [2 x double], [2 x double]* %Slope_Mod401, i64 0, i64 1, !dbg !3646
  %204 = load double, double* %arrayidx402, align 8, !dbg !3646
  %205 = load %"struct.pov::Pattern_Struct"*, %"struct.pov::Pattern_Struct"** %New.addr, align 8, !dbg !3650
  %Vals403 = getelementptr inbounds %"struct.pov::Pattern_Struct", %"struct.pov::Pattern_Struct"* %205, i32 0, i32 10, !dbg !3651
  %Slope404 = bitcast %union.anon.17* %Vals403 to %struct.anon.22*, !dbg !3652
  %Slope_Mod405 = getelementptr inbounds %struct.anon.22, %struct.anon.22* %Slope404, i32 0, i32 6, !dbg !3653
  %arrayidx406 = getelementptr inbounds [2 x double], [2 x double]* %Slope_Mod405, i64 0, i64 0, !dbg !3650
  %206 = load double, double* %arrayidx406, align 8, !dbg !3650
  %cmp407 = fcmp oeq double %204, %206, !dbg !3654
  br i1 %cmp407, label %if.then408, label %if.else, !dbg !3655

if.then408:                                       ; preds = %land.lhs.true398
  %207 = load %"struct.pov::Pattern_Struct"*, %"struct.pov::Pattern_Struct"** %New.addr, align 8, !dbg !3656
  %Vals409 = getelementptr inbounds %"struct.pov::Pattern_Struct", %"struct.pov::Pattern_Struct"* %207, i32 0, i32 10, !dbg !3658
  %Slope410 = bitcast %union.anon.17* %Vals409 to %struct.anon.22*, !dbg !3659
  %Slope_Mod411 = getelementptr inbounds %struct.anon.22, %struct.anon.22* %Slope410, i32 0, i32 6, !dbg !3660
  %arrayidx412 = getelementptr inbounds [2 x double], [2 x double]* %Slope_Mod411, i64 0, i64 0, !dbg !3656
  store double 0.000000e+00, double* %arrayidx412, align 8, !dbg !3661
  %208 = load %"struct.pov::Pattern_Struct"*, %"struct.pov::Pattern_Struct"** %New.addr, align 8, !dbg !3662
  %Vals413 = getelementptr inbounds %"struct.pov::Pattern_Struct", %"struct.pov::Pattern_Struct"* %208, i32 0, i32 10, !dbg !3663
  %Slope414 = bitcast %union.anon.17* %Vals413 to %struct.anon.22*, !dbg !3664
  %Slope_Mod415 = getelementptr inbounds %struct.anon.22, %struct.anon.22* %Slope414, i32 0, i32 6, !dbg !3665
  %arrayidx416 = getelementptr inbounds [2 x double], [2 x double]* %Slope_Mod415, i64 0, i64 1, !dbg !3662
  store double 0.000000e+00, double* %arrayidx416, align 8, !dbg !3666
  %call417 = call i32 (i32, i8*, ...) @_ZN3pov7WarningEjPKcz(i32 0, i8* getelementptr inbounds ([28 x i8], [28 x i8]* @.str.77, i64 0, i64 0)), !dbg !3667
  br label %if.end426, !dbg !3668

if.else:                                          ; preds = %land.lhs.true398, %sw.bb378
  %209 = load %"struct.pov::Pattern_Struct"*, %"struct.pov::Pattern_Struct"** %New.addr, align 8, !dbg !3669
  %Vals418 = getelementptr inbounds %"struct.pov::Pattern_Struct", %"struct.pov::Pattern_Struct"* %209, i32 0, i32 10, !dbg !3671
  %Slope419 = bitcast %union.anon.17* %Vals418 to %struct.anon.22*, !dbg !3672
  %Slope_Mod420 = getelementptr inbounds %struct.anon.22, %struct.anon.22* %Slope419, i32 0, i32 6, !dbg !3673
  %arrayidx421 = getelementptr inbounds [2 x double], [2 x double]* %Slope_Mod420, i64 0, i64 0, !dbg !3669
  %210 = load double, double* %arrayidx421, align 8, !dbg !3669
  %211 = load %"struct.pov::Pattern_Struct"*, %"struct.pov::Pattern_Struct"** %New.addr, align 8, !dbg !3674
  %Vals422 = getelementptr inbounds %"struct.pov::Pattern_Struct", %"struct.pov::Pattern_Struct"* %211, i32 0, i32 10, !dbg !3675
  %Slope423 = bitcast %union.anon.17* %Vals422 to %struct.anon.22*, !dbg !3676
  %Slope_Mod424 = getelementptr inbounds %struct.anon.22, %struct.anon.22* %Slope423, i32 0, i32 6, !dbg !3677
  %arrayidx425 = getelementptr inbounds [2 x double], [2 x double]* %Slope_Mod424, i64 0, i64 1, !dbg !3674
  %212 = load double, double* %arrayidx425, align 8, !dbg !3678
  %sub = fsub double %212, %210, !dbg !3678
  store double %sub, double* %arrayidx425, align 8, !dbg !3678
  br label %if.end426

if.end426:                                        ; preds = %if.else, %if.then408
  call void @llvm.dbg.declare(metadata i32* %Exit_Flag427, metadata !3679, metadata !DIExpression()), !dbg !3681
  store i32 0, i32* %Exit_Flag427, align 4, !dbg !3681
  br label %while.cond428, !dbg !3681

while.cond428:                                    ; preds = %sw.epilog484, %if.end426
  %213 = load i32, i32* %Exit_Flag427, align 4, !dbg !3681
  %tobool429 = icmp ne i32 %213, 0, !dbg !3681
  %lnot430 = xor i1 %tobool429, true, !dbg !3681
  br i1 %lnot430, label %while.body431, label %while.end485, !dbg !3681

while.body431:                                    ; preds = %while.cond428
  call void @_ZN3pov9Get_TokenEv(), !dbg !3682
  %214 = load i32, i32* getelementptr inbounds (%"struct.pov::Token_Struct", %"struct.pov::Token_Struct"* @_ZN3pov5TokenE, i32 0, i32 0), align 8, !dbg !3682
  switch i32 %214, label %sw.default483 [
    i32 99, label %sw.bb432
  ], !dbg !3682

sw.bb432:                                         ; preds = %while.body431
  %215 = load i32, i32* @_ZN3pov17Experimental_FlagE, align 4, !dbg !3684
  %or = or i32 %215, 2, !dbg !3684
  store i32 %or, i32* @_ZN3pov17Experimental_FlagE, align 4, !dbg !3684
  %216 = load %"struct.pov::Pattern_Struct"*, %"struct.pov::Pattern_Struct"** %New.addr, align 8, !dbg !3686
  %Vals433 = getelementptr inbounds %"struct.pov::Pattern_Struct", %"struct.pov::Pattern_Struct"* %216, i32 0, i32 10, !dbg !3687
  %Slope434 = bitcast %union.anon.17* %Vals433 to %struct.anon.22*, !dbg !3688
  %Altit_Vector435 = getelementptr inbounds %struct.anon.22, %struct.anon.22* %Slope434, i32 0, i32 1, !dbg !3689
  %arraydecay436 = getelementptr inbounds [3 x double], [3 x double]* %Altit_Vector435, i64 0, i64 0, !dbg !3686
  call void @_ZN3pov12Parse_VectorEPd(double* %arraydecay436), !dbg !3690
  call void @_ZN3pov11Parse_CommaEv(), !dbg !3691
  %call437 = call double @_ZN3pov11Allow_FloatEd(double 0.000000e+00), !dbg !3692
  %217 = load %"struct.pov::Pattern_Struct"*, %"struct.pov::Pattern_Struct"** %New.addr, align 8, !dbg !3693
  %Vals438 = getelementptr inbounds %"struct.pov::Pattern_Struct", %"struct.pov::Pattern_Struct"* %217, i32 0, i32 10, !dbg !3694
  %Slope439 = bitcast %union.anon.17* %Vals438 to %struct.anon.22*, !dbg !3695
  %Altit_Mod440 = getelementptr inbounds %struct.anon.22, %struct.anon.22* %Slope439, i32 0, i32 7, !dbg !3696
  %arrayidx441 = getelementptr inbounds [2 x double], [2 x double]* %Altit_Mod440, i64 0, i64 0, !dbg !3693
  store double %call437, double* %arrayidx441, align 8, !dbg !3697
  call void @_ZN3pov11Parse_CommaEv(), !dbg !3698
  %call442 = call double @_ZN3pov11Allow_FloatEd(double 0.000000e+00), !dbg !3699
  %218 = load %"struct.pov::Pattern_Struct"*, %"struct.pov::Pattern_Struct"** %New.addr, align 8, !dbg !3700
  %Vals443 = getelementptr inbounds %"struct.pov::Pattern_Struct", %"struct.pov::Pattern_Struct"* %218, i32 0, i32 10, !dbg !3701
  %Slope444 = bitcast %union.anon.17* %Vals443 to %struct.anon.22*, !dbg !3702
  %Altit_Mod445 = getelementptr inbounds %struct.anon.22, %struct.anon.22* %Slope444, i32 0, i32 7, !dbg !3703
  %arrayidx446 = getelementptr inbounds [2 x double], [2 x double]* %Altit_Mod445, i64 0, i64 1, !dbg !3700
  store double %call442, double* %arrayidx446, align 8, !dbg !3704
  %219 = load %"struct.pov::Pattern_Struct"*, %"struct.pov::Pattern_Struct"** %New.addr, align 8, !dbg !3705
  %Vals447 = getelementptr inbounds %"struct.pov::Pattern_Struct", %"struct.pov::Pattern_Struct"* %219, i32 0, i32 10, !dbg !3707
  %Slope448 = bitcast %union.anon.17* %Vals447 to %struct.anon.22*, !dbg !3708
  %Altit_Mod449 = getelementptr inbounds %struct.anon.22, %struct.anon.22* %Slope448, i32 0, i32 7, !dbg !3709
  %arrayidx450 = getelementptr inbounds [2 x double], [2 x double]* %Altit_Mod449, i64 0, i64 1, !dbg !3705
  %220 = load double, double* %arrayidx450, align 8, !dbg !3705
  %cmp451 = fcmp une double %220, 0.000000e+00, !dbg !3710
  br i1 %cmp451, label %land.lhs.true452, label %if.else472, !dbg !3711

land.lhs.true452:                                 ; preds = %sw.bb432
  %221 = load %"struct.pov::Pattern_Struct"*, %"struct.pov::Pattern_Struct"** %New.addr, align 8, !dbg !3712
  %Vals453 = getelementptr inbounds %"struct.pov::Pattern_Struct", %"struct.pov::Pattern_Struct"* %221, i32 0, i32 10, !dbg !3713
  %Slope454 = bitcast %union.anon.17* %Vals453 to %struct.anon.22*, !dbg !3714
  %Altit_Mod455 = getelementptr inbounds %struct.anon.22, %struct.anon.22* %Slope454, i32 0, i32 7, !dbg !3715
  %arrayidx456 = getelementptr inbounds [2 x double], [2 x double]* %Altit_Mod455, i64 0, i64 1, !dbg !3712
  %222 = load double, double* %arrayidx456, align 8, !dbg !3712
  %223 = load %"struct.pov::Pattern_Struct"*, %"struct.pov::Pattern_Struct"** %New.addr, align 8, !dbg !3716
  %Vals457 = getelementptr inbounds %"struct.pov::Pattern_Struct", %"struct.pov::Pattern_Struct"* %223, i32 0, i32 10, !dbg !3717
  %Slope458 = bitcast %union.anon.17* %Vals457 to %struct.anon.22*, !dbg !3718
  %Altit_Mod459 = getelementptr inbounds %struct.anon.22, %struct.anon.22* %Slope458, i32 0, i32 7, !dbg !3719
  %arrayidx460 = getelementptr inbounds [2 x double], [2 x double]* %Altit_Mod459, i64 0, i64 0, !dbg !3716
  %224 = load double, double* %arrayidx460, align 8, !dbg !3716
  %cmp461 = fcmp oeq double %222, %224, !dbg !3720
  br i1 %cmp461, label %if.then462, label %if.else472, !dbg !3721

if.then462:                                       ; preds = %land.lhs.true452
  %225 = load %"struct.pov::Pattern_Struct"*, %"struct.pov::Pattern_Struct"** %New.addr, align 8, !dbg !3722
  %Vals463 = getelementptr inbounds %"struct.pov::Pattern_Struct", %"struct.pov::Pattern_Struct"* %225, i32 0, i32 10, !dbg !3724
  %Slope464 = bitcast %union.anon.17* %Vals463 to %struct.anon.22*, !dbg !3725
  %Altit_Mod465 = getelementptr inbounds %struct.anon.22, %struct.anon.22* %Slope464, i32 0, i32 7, !dbg !3726
  %arrayidx466 = getelementptr inbounds [2 x double], [2 x double]* %Altit_Mod465, i64 0, i64 0, !dbg !3722
  store double 0.000000e+00, double* %arrayidx466, align 8, !dbg !3727
  %226 = load %"struct.pov::Pattern_Struct"*, %"struct.pov::Pattern_Struct"** %New.addr, align 8, !dbg !3728
  %Vals467 = getelementptr inbounds %"struct.pov::Pattern_Struct", %"struct.pov::Pattern_Struct"* %226, i32 0, i32 10, !dbg !3729
  %Slope468 = bitcast %union.anon.17* %Vals467 to %struct.anon.22*, !dbg !3730
  %Altit_Mod469 = getelementptr inbounds %struct.anon.22, %struct.anon.22* %Slope468, i32 0, i32 7, !dbg !3731
  %arrayidx470 = getelementptr inbounds [2 x double], [2 x double]* %Altit_Mod469, i64 0, i64 1, !dbg !3728
  store double 0.000000e+00, double* %arrayidx470, align 8, !dbg !3732
  %call471 = call i32 (i32, i8*, ...) @_ZN3pov7WarningEjPKcz(i32 0, i8* getelementptr inbounds ([31 x i8], [31 x i8]* @.str.78, i64 0, i64 0)), !dbg !3733
  br label %if.end482, !dbg !3734

if.else472:                                       ; preds = %land.lhs.true452, %sw.bb432
  %227 = load %"struct.pov::Pattern_Struct"*, %"struct.pov::Pattern_Struct"** %New.addr, align 8, !dbg !3735
  %Vals473 = getelementptr inbounds %"struct.pov::Pattern_Struct", %"struct.pov::Pattern_Struct"* %227, i32 0, i32 10, !dbg !3737
  %Slope474 = bitcast %union.anon.17* %Vals473 to %struct.anon.22*, !dbg !3738
  %Altit_Mod475 = getelementptr inbounds %struct.anon.22, %struct.anon.22* %Slope474, i32 0, i32 7, !dbg !3739
  %arrayidx476 = getelementptr inbounds [2 x double], [2 x double]* %Altit_Mod475, i64 0, i64 0, !dbg !3735
  %228 = load double, double* %arrayidx476, align 8, !dbg !3735
  %229 = load %"struct.pov::Pattern_Struct"*, %"struct.pov::Pattern_Struct"** %New.addr, align 8, !dbg !3740
  %Vals477 = getelementptr inbounds %"struct.pov::Pattern_Struct", %"struct.pov::Pattern_Struct"* %229, i32 0, i32 10, !dbg !3741
  %Slope478 = bitcast %union.anon.17* %Vals477 to %struct.anon.22*, !dbg !3742
  %Altit_Mod479 = getelementptr inbounds %struct.anon.22, %struct.anon.22* %Slope478, i32 0, i32 7, !dbg !3743
  %arrayidx480 = getelementptr inbounds [2 x double], [2 x double]* %Altit_Mod479, i64 0, i64 1, !dbg !3740
  %230 = load double, double* %arrayidx480, align 8, !dbg !3744
  %sub481 = fsub double %230, %228, !dbg !3744
  store double %sub481, double* %arrayidx480, align 8, !dbg !3744
  br label %if.end482

if.end482:                                        ; preds = %if.else472, %if.then462
  br label %sw.epilog484, !dbg !3745

sw.default483:                                    ; preds = %while.body431
  call void @_ZN3pov11Unget_TokenEv(), !dbg !3746
  store i32 1, i32* %Exit_Flag427, align 4, !dbg !3747
  br label %sw.epilog484, !dbg !3748

sw.epilog484:                                     ; preds = %sw.default483, %if.end482
  br label %while.cond428, !dbg !3681, !llvm.loop !3749

while.end485:                                     ; preds = %while.cond428
  call void @_ZN3pov9Parse_EndEv(), !dbg !3751
  store i32 1, i32* %Exit_Flag369, align 4, !dbg !3752
  br label %sw.epilog487, !dbg !3753

sw.default486:                                    ; preds = %while.body373
  call void @_ZN3pov11Unget_TokenEv(), !dbg !3754
  store i32 1, i32* %Exit_Flag369, align 4, !dbg !3755
  br label %sw.epilog487, !dbg !3756

sw.epilog487:                                     ; preds = %sw.default486, %while.end485, %sw.bb374
  br label %while.cond370, !dbg !3606, !llvm.loop !3757

while.end488:                                     ; preds = %while.cond370
  %231 = load %"struct.pov::Pattern_Struct"*, %"struct.pov::Pattern_Struct"** %New.addr, align 8, !dbg !3759
  %Vals489 = getelementptr inbounds %"struct.pov::Pattern_Struct", %"struct.pov::Pattern_Struct"* %231, i32 0, i32 10, !dbg !3760
  %Slope490 = bitcast %union.anon.17* %Vals489 to %struct.anon.22*, !dbg !3761
  %Slope_Len = getelementptr inbounds %struct.anon.22, %struct.anon.22* %Slope490, i32 0, i32 4, !dbg !3762
  %232 = load %"struct.pov::Pattern_Struct"*, %"struct.pov::Pattern_Struct"** %New.addr, align 8, !dbg !3763
  %Vals491 = getelementptr inbounds %"struct.pov::Pattern_Struct", %"struct.pov::Pattern_Struct"* %232, i32 0, i32 10, !dbg !3764
  %Slope492 = bitcast %union.anon.17* %Vals491 to %struct.anon.22*, !dbg !3765
  %Slope_Vector493 = getelementptr inbounds %struct.anon.22, %struct.anon.22* %Slope492, i32 0, i32 0, !dbg !3766
  %arraydecay494 = getelementptr inbounds [3 x double], [3 x double]* %Slope_Vector493, i64 0, i64 0, !dbg !3763
  call void @_ZN3pov7VLengthERdPKd(double* dereferenceable(8) %Slope_Len, double* %arraydecay494), !dbg !3767
  %233 = load %"struct.pov::Pattern_Struct"*, %"struct.pov::Pattern_Struct"** %New.addr, align 8, !dbg !3768
  %Vals495 = getelementptr inbounds %"struct.pov::Pattern_Struct", %"struct.pov::Pattern_Struct"* %233, i32 0, i32 10, !dbg !3769
  %Slope496 = bitcast %union.anon.17* %Vals495 to %struct.anon.22*, !dbg !3770
  %Altit_Len = getelementptr inbounds %struct.anon.22, %struct.anon.22* %Slope496, i32 0, i32 5, !dbg !3771
  %234 = load %"struct.pov::Pattern_Struct"*, %"struct.pov::Pattern_Struct"** %New.addr, align 8, !dbg !3772
  %Vals497 = getelementptr inbounds %"struct.pov::Pattern_Struct", %"struct.pov::Pattern_Struct"* %234, i32 0, i32 10, !dbg !3773
  %Slope498 = bitcast %union.anon.17* %Vals497 to %struct.anon.22*, !dbg !3774
  %Altit_Vector499 = getelementptr inbounds %struct.anon.22, %struct.anon.22* %Slope498, i32 0, i32 1, !dbg !3775
  %arraydecay500 = getelementptr inbounds [3 x double], [3 x double]* %Altit_Vector499, i64 0, i64 0, !dbg !3772
  call void @_ZN3pov7VLengthERdPKd(double* dereferenceable(8) %Altit_Len, double* %arraydecay500), !dbg !3776
  %235 = load %"struct.pov::Pattern_Struct"*, %"struct.pov::Pattern_Struct"** %New.addr, align 8, !dbg !3777
  %Vals501 = getelementptr inbounds %"struct.pov::Pattern_Struct", %"struct.pov::Pattern_Struct"* %235, i32 0, i32 10, !dbg !3779
  %Slope502 = bitcast %union.anon.17* %Vals501 to %struct.anon.22*, !dbg !3780
  %Slope_Len503 = getelementptr inbounds %struct.anon.22, %struct.anon.22* %Slope502, i32 0, i32 4, !dbg !3781
  %236 = load double, double* %Slope_Len503, align 8, !dbg !3781
  %cmp504 = fcmp une double %236, 0.000000e+00, !dbg !3782
  br i1 %cmp504, label %if.then505, label %if.end510, !dbg !3783

if.then505:                                       ; preds = %while.end488
  %237 = load %"struct.pov::Pattern_Struct"*, %"struct.pov::Pattern_Struct"** %New.addr, align 8, !dbg !3784
  %Vals506 = getelementptr inbounds %"struct.pov::Pattern_Struct", %"struct.pov::Pattern_Struct"* %237, i32 0, i32 10, !dbg !3785
  %Slope507 = bitcast %union.anon.17* %Vals506 to %struct.anon.22*, !dbg !3786
  %Slope_Vector508 = getelementptr inbounds %struct.anon.22, %struct.anon.22* %Slope507, i32 0, i32 0, !dbg !3787
  %arraydecay509 = getelementptr inbounds [3 x double], [3 x double]* %Slope_Vector508, i64 0, i64 0, !dbg !3784
  call void @_ZN3pov12VNormalizeEqEPd(double* %arraydecay509), !dbg !3788
  br label %if.end510, !dbg !3788

if.end510:                                        ; preds = %if.then505, %while.end488
  %238 = load %"struct.pov::Pattern_Struct"*, %"struct.pov::Pattern_Struct"** %New.addr, align 8, !dbg !3789
  %Vals511 = getelementptr inbounds %"struct.pov::Pattern_Struct", %"struct.pov::Pattern_Struct"* %238, i32 0, i32 10, !dbg !3791
  %Slope512 = bitcast %union.anon.17* %Vals511 to %struct.anon.22*, !dbg !3792
  %Altit_Len513 = getelementptr inbounds %struct.anon.22, %struct.anon.22* %Slope512, i32 0, i32 5, !dbg !3793
  %239 = load double, double* %Altit_Len513, align 8, !dbg !3793
  %cmp514 = fcmp une double %239, 0.000000e+00, !dbg !3794
  br i1 %cmp514, label %if.then515, label %if.end520, !dbg !3795

if.then515:                                       ; preds = %if.end510
  %240 = load %"struct.pov::Pattern_Struct"*, %"struct.pov::Pattern_Struct"** %New.addr, align 8, !dbg !3796
  %Vals516 = getelementptr inbounds %"struct.pov::Pattern_Struct", %"struct.pov::Pattern_Struct"* %240, i32 0, i32 10, !dbg !3797
  %Slope517 = bitcast %union.anon.17* %Vals516 to %struct.anon.22*, !dbg !3798
  %Altit_Vector518 = getelementptr inbounds %struct.anon.22, %struct.anon.22* %Slope517, i32 0, i32 1, !dbg !3799
  %arraydecay519 = getelementptr inbounds [3 x double], [3 x double]* %Altit_Vector518, i64 0, i64 0, !dbg !3796
  call void @_ZN3pov12VNormalizeEqEPd(double* %arraydecay519), !dbg !3800
  br label %if.end520, !dbg !3800

if.end520:                                        ; preds = %if.then515, %if.end510
  %241 = load %"struct.pov::Pattern_Struct"*, %"struct.pov::Pattern_Struct"** %New.addr, align 8, !dbg !3801
  %Vals521 = getelementptr inbounds %"struct.pov::Pattern_Struct", %"struct.pov::Pattern_Struct"* %241, i32 0, i32 10, !dbg !3802
  %Slope522 = bitcast %union.anon.17* %Vals521 to %struct.anon.22*, !dbg !3803
  %Slope_Len523 = getelementptr inbounds %struct.anon.22, %struct.anon.22* %Slope522, i32 0, i32 4, !dbg !3804
  %242 = load double, double* %Slope_Len523, align 8, !dbg !3804
  %243 = load %"struct.pov::Pattern_Struct"*, %"struct.pov::Pattern_Struct"** %New.addr, align 8, !dbg !3805
  %Vals524 = getelementptr inbounds %"struct.pov::Pattern_Struct", %"struct.pov::Pattern_Struct"* %243, i32 0, i32 10, !dbg !3806
  %Slope525 = bitcast %union.anon.17* %Vals524 to %struct.anon.22*, !dbg !3807
  %Altit_Len526 = getelementptr inbounds %struct.anon.22, %struct.anon.22* %Slope525, i32 0, i32 5, !dbg !3808
  %244 = load double, double* %Altit_Len526, align 8, !dbg !3808
  %add = fadd double %242, %244, !dbg !3809
  %conv527 = fptrunc double %add to float, !dbg !3801
  store float %conv527, float* %Tot_Len, align 4, !dbg !3810
  %245 = load float, float* %Tot_Len, align 4, !dbg !3811
  %conv528 = fpext float %245 to double, !dbg !3811
  %cmp529 = fcmp une double %conv528, 0.000000e+00, !dbg !3813
  br i1 %cmp529, label %if.then530, label %if.else542, !dbg !3814

if.then530:                                       ; preds = %if.end520
  %246 = load float, float* %Tot_Len, align 4, !dbg !3815
  %conv531 = fpext float %246 to double, !dbg !3815
  %247 = load %"struct.pov::Pattern_Struct"*, %"struct.pov::Pattern_Struct"** %New.addr, align 8, !dbg !3817
  %Vals532 = getelementptr inbounds %"struct.pov::Pattern_Struct", %"struct.pov::Pattern_Struct"* %247, i32 0, i32 10, !dbg !3818
  %Slope533 = bitcast %union.anon.17* %Vals532 to %struct.anon.22*, !dbg !3819
  %Slope_Len534 = getelementptr inbounds %struct.anon.22, %struct.anon.22* %Slope533, i32 0, i32 4, !dbg !3820
  %248 = load double, double* %Slope_Len534, align 8, !dbg !3821
  %div = fdiv double %248, %conv531, !dbg !3821
  store double %div, double* %Slope_Len534, align 8, !dbg !3821
  %249 = load %"struct.pov::Pattern_Struct"*, %"struct.pov::Pattern_Struct"** %New.addr, align 8, !dbg !3822
  %Vals535 = getelementptr inbounds %"struct.pov::Pattern_Struct", %"struct.pov::Pattern_Struct"* %249, i32 0, i32 10, !dbg !3823
  %Slope536 = bitcast %union.anon.17* %Vals535 to %struct.anon.22*, !dbg !3824
  %Slope_Len537 = getelementptr inbounds %struct.anon.22, %struct.anon.22* %Slope536, i32 0, i32 4, !dbg !3825
  %250 = load double, double* %Slope_Len537, align 8, !dbg !3825
  %sub538 = fsub double 1.000000e+00, %250, !dbg !3826
  %251 = load %"struct.pov::Pattern_Struct"*, %"struct.pov::Pattern_Struct"** %New.addr, align 8, !dbg !3827
  %Vals539 = getelementptr inbounds %"struct.pov::Pattern_Struct", %"struct.pov::Pattern_Struct"* %251, i32 0, i32 10, !dbg !3828
  %Slope540 = bitcast %union.anon.17* %Vals539 to %struct.anon.22*, !dbg !3829
  %Altit_Len541 = getelementptr inbounds %struct.anon.22, %struct.anon.22* %Slope540, i32 0, i32 5, !dbg !3830
  store double %sub538, double* %Altit_Len541, align 8, !dbg !3831
  br label %if.end544, !dbg !3832

if.else542:                                       ; preds = %if.end520
  %call543 = call i32 (i8*, ...) @_ZN3pov5ErrorEPKcz(i8* getelementptr inbounds ([41 x i8], [41 x i8]* @.str.79, i64 0, i64 0)), !dbg !3833
  br label %if.end544

if.end544:                                        ; preds = %if.else542, %if.then530
  %252 = load %"struct.pov::Pattern_Struct"*, %"struct.pov::Pattern_Struct"** %New.addr, align 8, !dbg !3835
  %Vals545 = getelementptr inbounds %"struct.pov::Pattern_Struct", %"struct.pov::Pattern_Struct"* %252, i32 0, i32 10, !dbg !3836
  %Slope546 = bitcast %union.anon.17* %Vals545 to %struct.anon.22*, !dbg !3837
  %Altit_Base = getelementptr inbounds %struct.anon.22, %struct.anon.22* %Slope546, i32 0, i32 3, !dbg !3838
  store i16 0, i16* %Altit_Base, align 2, !dbg !3839
  %253 = load %"struct.pov::Pattern_Struct"*, %"struct.pov::Pattern_Struct"** %New.addr, align 8, !dbg !3840
  %Vals547 = getelementptr inbounds %"struct.pov::Pattern_Struct", %"struct.pov::Pattern_Struct"* %253, i32 0, i32 10, !dbg !3841
  %Slope548 = bitcast %union.anon.17* %Vals547 to %struct.anon.22*, !dbg !3842
  %Slope_Base = getelementptr inbounds %struct.anon.22, %struct.anon.22* %Slope548, i32 0, i32 2, !dbg !3843
  store i16 0, i16* %Slope_Base, align 8, !dbg !3844
  store i32 0, i32* %i, align 4, !dbg !3845
  br label %for.cond, !dbg !3847

for.cond:                                         ; preds = %for.inc, %if.end544
  %254 = load i32, i32* %i, align 4, !dbg !3848
  %cmp549 = icmp sle i32 %254, 2, !dbg !3850
  br i1 %cmp549, label %for.body, label %for.end, !dbg !3851

for.body:                                         ; preds = %for.cond
  %255 = load %"struct.pov::Pattern_Struct"*, %"struct.pov::Pattern_Struct"** %New.addr, align 8, !dbg !3852
  %Vals550 = getelementptr inbounds %"struct.pov::Pattern_Struct", %"struct.pov::Pattern_Struct"* %255, i32 0, i32 10, !dbg !3855
  %Slope551 = bitcast %union.anon.17* %Vals550 to %struct.anon.22*, !dbg !3856
  %Slope_Vector552 = getelementptr inbounds %struct.anon.22, %struct.anon.22* %Slope551, i32 0, i32 0, !dbg !3857
  %256 = load i32, i32* %i, align 4, !dbg !3858
  %idxprom = sext i32 %256 to i64, !dbg !3852
  %arrayidx553 = getelementptr inbounds [3 x double], [3 x double]* %Slope_Vector552, i64 0, i64 %idxprom, !dbg !3852
  %257 = load double, double* %arrayidx553, align 8, !dbg !3852
  %cmp554 = fcmp oeq double %257, 1.000000e+00, !dbg !3859
  br i1 %cmp554, label %if.then555, label %if.else561, !dbg !3860

if.then555:                                       ; preds = %for.body
  %258 = load i32, i32* %i, align 4, !dbg !3861
  %add556 = add nsw i32 %258, 1, !dbg !3863
  %conv557 = trunc i32 %add556 to i16, !dbg !3861
  %259 = load %"struct.pov::Pattern_Struct"*, %"struct.pov::Pattern_Struct"** %New.addr, align 8, !dbg !3864
  %Vals558 = getelementptr inbounds %"struct.pov::Pattern_Struct", %"struct.pov::Pattern_Struct"* %259, i32 0, i32 10, !dbg !3865
  %Slope559 = bitcast %union.anon.17* %Vals558 to %struct.anon.22*, !dbg !3866
  %Slope_Base560 = getelementptr inbounds %struct.anon.22, %struct.anon.22* %Slope559, i32 0, i32 2, !dbg !3867
  store i16 %conv557, i16* %Slope_Base560, align 8, !dbg !3868
  br label %for.end, !dbg !3869

if.else561:                                       ; preds = %for.body
  %260 = load %"struct.pov::Pattern_Struct"*, %"struct.pov::Pattern_Struct"** %New.addr, align 8, !dbg !3870
  %Vals562 = getelementptr inbounds %"struct.pov::Pattern_Struct", %"struct.pov::Pattern_Struct"* %260, i32 0, i32 10, !dbg !3872
  %Slope563 = bitcast %union.anon.17* %Vals562 to %struct.anon.22*, !dbg !3873
  %Slope_Vector564 = getelementptr inbounds %struct.anon.22, %struct.anon.22* %Slope563, i32 0, i32 0, !dbg !3874
  %261 = load i32, i32* %i, align 4, !dbg !3875
  %idxprom565 = sext i32 %261 to i64, !dbg !3870
  %arrayidx566 = getelementptr inbounds [3 x double], [3 x double]* %Slope_Vector564, i64 0, i64 %idxprom565, !dbg !3870
  %262 = load double, double* %arrayidx566, align 8, !dbg !3870
  %cmp567 = fcmp oeq double %262, -1.000000e+00, !dbg !3876
  br i1 %cmp567, label %if.then568, label %if.end575, !dbg !3877

if.then568:                                       ; preds = %if.else561
  %263 = load i32, i32* %i, align 4, !dbg !3878
  %add569 = add nsw i32 %263, 1, !dbg !3880
  %sub570 = sub nsw i32 0, %add569, !dbg !3881
  %conv571 = trunc i32 %sub570 to i16, !dbg !3881
  %264 = load %"struct.pov::Pattern_Struct"*, %"struct.pov::Pattern_Struct"** %New.addr, align 8, !dbg !3882
  %Vals572 = getelementptr inbounds %"struct.pov::Pattern_Struct", %"struct.pov::Pattern_Struct"* %264, i32 0, i32 10, !dbg !3883
  %Slope573 = bitcast %union.anon.17* %Vals572 to %struct.anon.22*, !dbg !3884
  %Slope_Base574 = getelementptr inbounds %struct.anon.22, %struct.anon.22* %Slope573, i32 0, i32 2, !dbg !3885
  store i16 %conv571, i16* %Slope_Base574, align 8, !dbg !3886
  br label %for.end, !dbg !3887

if.end575:                                        ; preds = %if.else561
  br label %if.end576

if.end576:                                        ; preds = %if.end575
  br label %for.inc, !dbg !3888

for.inc:                                          ; preds = %if.end576
  %265 = load i32, i32* %i, align 4, !dbg !3889
  %inc = add nsw i32 %265, 1, !dbg !3889
  store i32 %inc, i32* %i, align 4, !dbg !3889
  br label %for.cond, !dbg !3890, !llvm.loop !3891

for.end:                                          ; preds = %if.then568, %if.then555, %for.cond
  store i32 0, i32* %i, align 4, !dbg !3893
  br label %for.cond577, !dbg !3895

for.cond577:                                      ; preds = %for.inc608, %for.end
  %266 = load i32, i32* %i, align 4, !dbg !3896
  %cmp578 = icmp sle i32 %266, 2, !dbg !3898
  br i1 %cmp578, label %for.body579, label %for.end610, !dbg !3899

for.body579:                                      ; preds = %for.cond577
  %267 = load %"struct.pov::Pattern_Struct"*, %"struct.pov::Pattern_Struct"** %New.addr, align 8, !dbg !3900
  %Vals580 = getelementptr inbounds %"struct.pov::Pattern_Struct", %"struct.pov::Pattern_Struct"* %267, i32 0, i32 10, !dbg !3903
  %Slope581 = bitcast %union.anon.17* %Vals580 to %struct.anon.22*, !dbg !3904
  %Altit_Vector582 = getelementptr inbounds %struct.anon.22, %struct.anon.22* %Slope581, i32 0, i32 1, !dbg !3905
  %268 = load i32, i32* %i, align 4, !dbg !3906
  %idxprom583 = sext i32 %268 to i64, !dbg !3900
  %arrayidx584 = getelementptr inbounds [3 x double], [3 x double]* %Altit_Vector582, i64 0, i64 %idxprom583, !dbg !3900
  %269 = load double, double* %arrayidx584, align 8, !dbg !3900
  %cmp585 = fcmp oeq double %269, 1.000000e+00, !dbg !3907
  br i1 %cmp585, label %if.then586, label %if.else592, !dbg !3908

if.then586:                                       ; preds = %for.body579
  %270 = load i32, i32* %i, align 4, !dbg !3909
  %add587 = add nsw i32 %270, 1, !dbg !3911
  %conv588 = trunc i32 %add587 to i16, !dbg !3909
  %271 = load %"struct.pov::Pattern_Struct"*, %"struct.pov::Pattern_Struct"** %New.addr, align 8, !dbg !3912
  %Vals589 = getelementptr inbounds %"struct.pov::Pattern_Struct", %"struct.pov::Pattern_Struct"* %271, i32 0, i32 10, !dbg !3913
  %Slope590 = bitcast %union.anon.17* %Vals589 to %struct.anon.22*, !dbg !3914
  %Altit_Base591 = getelementptr inbounds %struct.anon.22, %struct.anon.22* %Slope590, i32 0, i32 3, !dbg !3915
  store i16 %conv588, i16* %Altit_Base591, align 2, !dbg !3916
  br label %for.end610, !dbg !3917

if.else592:                                       ; preds = %for.body579
  %272 = load %"struct.pov::Pattern_Struct"*, %"struct.pov::Pattern_Struct"** %New.addr, align 8, !dbg !3918
  %Vals593 = getelementptr inbounds %"struct.pov::Pattern_Struct", %"struct.pov::Pattern_Struct"* %272, i32 0, i32 10, !dbg !3920
  %Slope594 = bitcast %union.anon.17* %Vals593 to %struct.anon.22*, !dbg !3921
  %Altit_Vector595 = getelementptr inbounds %struct.anon.22, %struct.anon.22* %Slope594, i32 0, i32 1, !dbg !3922
  %273 = load i32, i32* %i, align 4, !dbg !3923
  %idxprom596 = sext i32 %273 to i64, !dbg !3918
  %arrayidx597 = getelementptr inbounds [3 x double], [3 x double]* %Altit_Vector595, i64 0, i64 %idxprom596, !dbg !3918
  %274 = load double, double* %arrayidx597, align 8, !dbg !3918
  %cmp598 = fcmp oeq double %274, -1.000000e+00, !dbg !3924
  br i1 %cmp598, label %if.then599, label %if.end606, !dbg !3925

if.then599:                                       ; preds = %if.else592
  %275 = load i32, i32* %i, align 4, !dbg !3926
  %add600 = add nsw i32 %275, 1, !dbg !3928
  %sub601 = sub nsw i32 0, %add600, !dbg !3929
  %conv602 = trunc i32 %sub601 to i16, !dbg !3929
  %276 = load %"struct.pov::Pattern_Struct"*, %"struct.pov::Pattern_Struct"** %New.addr, align 8, !dbg !3930
  %Vals603 = getelementptr inbounds %"struct.pov::Pattern_Struct", %"struct.pov::Pattern_Struct"* %276, i32 0, i32 10, !dbg !3931
  %Slope604 = bitcast %union.anon.17* %Vals603 to %struct.anon.22*, !dbg !3932
  %Altit_Base605 = getelementptr inbounds %struct.anon.22, %struct.anon.22* %Slope604, i32 0, i32 3, !dbg !3933
  store i16 %conv602, i16* %Altit_Base605, align 2, !dbg !3934
  br label %for.end610, !dbg !3935

if.end606:                                        ; preds = %if.else592
  br label %if.end607

if.end607:                                        ; preds = %if.end606
  br label %for.inc608, !dbg !3936

for.inc608:                                       ; preds = %if.end607
  %277 = load i32, i32* %i, align 4, !dbg !3937
  %inc609 = add nsw i32 %277, 1, !dbg !3937
  store i32 %inc609, i32* %i, align 4, !dbg !3937
  br label %for.cond577, !dbg !3938, !llvm.loop !3939

for.end610:                                       ; preds = %if.then599, %if.then586, %for.cond577
  br label %sw.epilog612, !dbg !3941

sw.default611:                                    ; preds = %while.body
  call void @_ZN3pov11Unget_TokenEv(), !dbg !3942
  store i32 1, i32* %Exit_Flag, align 4, !dbg !3943
  br label %sw.epilog612, !dbg !3944

sw.epilog612:                                     ; preds = %sw.default611, %for.end610, %if.end336, %sw.bb323, %sw.bb321, %sw.bb319, %sw.bb317, %if.end314, %sw.bb306, %if.end288, %sw.bb279, %sw.bb277, %sw.bb275, %sw.bb273, %sw.bb271, %sw.bb269, %if.end266, %if.end256, %if.end248, %if.end238, %sw.bb218, %if.end212, %if.end203, %sw.bb192, %if.end189, %sw.bb152, %sw.bb150, %sw.bb143, %sw.bb140, %sw.bb138, %sw.bb131, %sw.bb125, %sw.bb123, %while.end, %sw.bb47, %sw.bb31, %sw.bb29, %sw.bb27, %sw.bb25, %sw.bb16, %sw.bb10, %sw.bb8, %sw.bb
  br label %while.cond, !dbg !2835, !llvm.loop !3945

while.end613:                                     ; preds = %while.cond
  %278 = load i16, i16* %Old_Type, align 2, !dbg !3947
  %conv614 = zext i16 %278 to i32, !dbg !3947
  %cmp615 = icmp eq i32 %conv614, 4, !dbg !3949
  br i1 %cmp615, label %land.lhs.true616, label %if.end621, !dbg !3950

land.lhs.true616:                                 ; preds = %while.end613
  %279 = load %"struct.pov::Pattern_Struct"*, %"struct.pov::Pattern_Struct"** %New.addr, align 8, !dbg !3951
  %Type617 = getelementptr inbounds %"struct.pov::Pattern_Struct", %"struct.pov::Pattern_Struct"* %279, i32 0, i32 0, !dbg !3952
  %280 = load i16, i16* %Type617, align 8, !dbg !3952
  %conv618 = zext i16 %280 to i32, !dbg !3951
  %cmp619 = icmp ne i32 %conv618, 4, !dbg !3953
  br i1 %cmp619, label %if.then620, label %if.end621, !dbg !3954

if.then620:                                       ; preds = %land.lhs.true616
  %281 = load %"struct.pov::Image_Struct"*, %"struct.pov::Image_Struct"** %Old_Image, align 8, !dbg !3955
  call void @_ZN3pov13Destroy_ImageEPNS_12Image_StructE(%"struct.pov::Image_Struct"* %281), !dbg !3957
  br label %if.end621, !dbg !3958

if.end621:                                        ; preds = %if.then620, %land.lhs.true616, %while.end613
  %282 = load i16, i16* %Old_Type, align 2, !dbg !3959
  %conv622 = zext i16 %282 to i32, !dbg !3959
  %cmp623 = icmp eq i32 %conv622, 46, !dbg !3961
  br i1 %cmp623, label %land.lhs.true624, label %if.end629, !dbg !3962

land.lhs.true624:                                 ; preds = %if.end621
  %283 = load %"struct.pov::Pattern_Struct"*, %"struct.pov::Pattern_Struct"** %New.addr, align 8, !dbg !3963
  %Type625 = getelementptr inbounds %"struct.pov::Pattern_Struct", %"struct.pov::Pattern_Struct"* %283, i32 0, i32 0, !dbg !3964
  %284 = load i16, i16* %Type625, align 8, !dbg !3964
  %conv626 = zext i16 %284 to i32, !dbg !3963
  %cmp627 = icmp ne i32 %conv626, 46, !dbg !3965
  br i1 %cmp627, label %if.then628, label %if.end629, !dbg !3966

if.then628:                                       ; preds = %land.lhs.true624
  %285 = load %"struct.pov::Density_file_Struct"*, %"struct.pov::Density_file_Struct"** %Old_Density_File, align 8, !dbg !3967
  call void @_ZN3pov20Destroy_Density_FileEPNS_19Density_file_StructE(%"struct.pov::Density_file_Struct"* %285), !dbg !3969
  br label %if.end629, !dbg !3970

if.end629:                                        ; preds = %if.then628, %land.lhs.true624, %if.end621
  %286 = load i32, i32* %TPat_Type.addr, align 4, !dbg !3971
  %cmp630 = icmp eq i32 %286, 1, !dbg !3973
  br i1 %cmp630, label %if.then631, label %if.end636, !dbg !3974

if.then631:                                       ; preds = %if.end629
  call void @_ZN3pov11Parse_CommaEv(), !dbg !3975
  %287 = load %"struct.pov::Pattern_Struct"*, %"struct.pov::Pattern_Struct"** %New.addr, align 8, !dbg !3977
  %288 = bitcast %"struct.pov::Pattern_Struct"* %287 to %"struct.pov::Tnormal_Struct"*, !dbg !3978
  %Amount = getelementptr inbounds %"struct.pov::Tnormal_Struct", %"struct.pov::Tnormal_Struct"* %288, i32 0, i32 11, !dbg !3978
  %289 = load float, float* %Amount, align 8, !dbg !3978
  %conv632 = fpext float %289 to double, !dbg !3979
  %call633 = call double @_ZN3pov11Allow_FloatEd(double %conv632), !dbg !3980
  %conv634 = fptrunc double %call633 to float, !dbg !3980
  %290 = load %"struct.pov::Pattern_Struct"*, %"struct.pov::Pattern_Struct"** %New.addr, align 8, !dbg !3981
  %291 = bitcast %"struct.pov::Pattern_Struct"* %290 to %"struct.pov::Tnormal_Struct"*, !dbg !3982
  %Amount635 = getelementptr inbounds %"struct.pov::Tnormal_Struct", %"struct.pov::Tnormal_Struct"* %291, i32 0, i32 11, !dbg !3982
  store float %conv634, float* %Amount635, align 8, !dbg !3983
  br label %if.end636, !dbg !3984

if.end636:                                        ; preds = %if.then631, %if.end629
  call void @llvm.dbg.declare(metadata i32* %Exit_Flag637, metadata !3985, metadata !DIExpression()), !dbg !3987
  store i32 0, i32* %Exit_Flag637, align 4, !dbg !3987
  br label %while.cond638, !dbg !3987

while.cond638:                                    ; preds = %sw.epilog1362, %if.end636
  %292 = load i32, i32* %Exit_Flag637, align 4, !dbg !3987
  %tobool639 = icmp ne i32 %292, 0, !dbg !3987
  %lnot640 = xor i1 %tobool639, true, !dbg !3987
  br i1 %lnot640, label %while.body641, label %while.end1363, !dbg !3987

while.body641:                                    ; preds = %while.cond638
  call void @_ZN3pov9Get_TokenEv(), !dbg !3988
  %293 = load i32, i32* getelementptr inbounds (%"struct.pov::Token_Struct", %"struct.pov::Token_Struct"* @_ZN3pov5TokenE, i32 0, i32 0), align 8, !dbg !3988
  switch i32 %293, label %sw.default1361 [
    i32 482, label %sw.bb642
    i32 508, label %sw.bb650
    i32 423, label %sw.bb659
    i32 421, label %sw.bb733
    i32 146, label %sw.bb807
    i32 509, label %sw.bb912
    i32 510, label %sw.bb922
    i32 511, label %sw.bb933
    i32 512, label %sw.bb954
    i32 348, label %sw.bb964
    i32 256, label %sw.bb974
    i32 125, label %sw.bb978
    i32 322, label %sw.bb1017
    i32 445, label %sw.bb1051
    i32 324, label %sw.bb1085
    i32 323, label %sw.bb1123
    i32 325, label %sw.bb1157
    i32 211, label %sw.bb1191
    i32 291, label %sw.bb1204
    i32 292, label %sw.bb1216
    i32 192, label %sw.bb1228
    i32 193, label %sw.bb1243
    i32 170, label %sw.bb1248
    i32 152, label %sw.bb1253
    i32 318, label %sw.bb1257
    i32 319, label %sw.bb1259
    i32 320, label %sw.bb1261
    i32 321, label %sw.bb1263
    i32 443, label %sw.bb1265
    i32 444, label %sw.bb1267
    i32 197, label %sw.bb1274
    i32 116, label %sw.bb1277
    i32 532, label %sw.bb1284
    i32 271, label %sw.bb1296
    i32 214, label %sw.bb1308
    i32 188, label %sw.bb1318
    i32 165, label %sw.bb1330
    i32 347, label %sw.bb1340
    i32 254, label %sw.bb1342
    i32 223, label %sw.bb1345
    i32 225, label %sw.bb1348
    i32 395, label %sw.bb1351
    i32 253, label %sw.bb1354
    i32 528, label %sw.bb1356
  ], !dbg !3988

sw.bb642:                                         ; preds = %while.body641
  %294 = load i32, i32* %TPat_Type.addr, align 4, !dbg !3990
  %cmp643 = icmp ne i32 %294, 1, !dbg !3993
  br i1 %cmp643, label %if.then644, label %if.end646, !dbg !3994

if.then644:                                       ; preds = %sw.bb642
  %call645 = call i32 (i8*, ...) @_ZN3pov5ErrorEPKcz(i8* getelementptr inbounds ([48 x i8], [48 x i8]* @.str.80, i64 0, i64 0)), !dbg !3995
  br label %if.end646, !dbg !3997

if.end646:                                        ; preds = %if.then644, %sw.bb642
  %call647 = call double @_ZN3pov11Parse_FloatEv(), !dbg !3998
  %conv648 = fptrunc double %call647 to float, !dbg !3998
  %295 = load %"struct.pov::Pattern_Struct"*, %"struct.pov::Pattern_Struct"** %New.addr, align 8, !dbg !3999
  %296 = bitcast %"struct.pov::Pattern_Struct"* %295 to %"struct.pov::Tnormal_Struct"*, !dbg !4000
  %Delta649 = getelementptr inbounds %"struct.pov::Tnormal_Struct", %"struct.pov::Tnormal_Struct"* %296, i32 0, i32 12, !dbg !4000
  store float %conv648, float* %Delta649, align 4, !dbg !4001
  br label %sw.epilog1362, !dbg !4002

sw.bb650:                                         ; preds = %while.body641
  %297 = load %"struct.pov::Pattern_Struct"*, %"struct.pov::Pattern_Struct"** %New.addr, align 8, !dbg !4003
  %Type651 = getelementptr inbounds %"struct.pov::Pattern_Struct", %"struct.pov::Pattern_Struct"* %297, i32 0, i32 0, !dbg !4005
  %298 = load i16, i16* %Type651, align 8, !dbg !4005
  %conv652 = zext i16 %298 to i32, !dbg !4003
  %cmp653 = icmp ne i32 %conv652, 39, !dbg !4006
  br i1 %cmp653, label %if.then654, label %if.end655, !dbg !4007

if.then654:                                       ; preds = %sw.bb650
  call void @_ZN3pov7Only_InEPKcS1_(i8* getelementptr inbounds ([6 x i8], [6 x i8]* @.str.40, i64 0, i64 0), i8* getelementptr inbounds ([8 x i8], [8 x i8]* @.str.41, i64 0, i64 0)), !dbg !4008
  br label %if.end655, !dbg !4010

if.end655:                                        ; preds = %if.then654, %sw.bb650
  %299 = load %"struct.pov::Pattern_Struct"*, %"struct.pov::Pattern_Struct"** %New.addr, align 8, !dbg !4011
  %Vals656 = getelementptr inbounds %"struct.pov::Pattern_Struct", %"struct.pov::Pattern_Struct"* %299, i32 0, i32 10, !dbg !4012
  %Crackle657 = bitcast %union.anon.17* %Vals656 to %struct.anon.21*, !dbg !4013
  %IsSolid658 = getelementptr inbounds %struct.anon.21, %struct.anon.21* %Crackle657, i32 0, i32 4, !dbg !4014
  store i16 1, i16* %IsSolid658, align 8, !dbg !4015
  br label %sw.epilog1362, !dbg !4016

sw.bb659:                                         ; preds = %while.body641
  %300 = load %"struct.pov::Pattern_Struct"*, %"struct.pov::Pattern_Struct"** %New.addr, align 8, !dbg !4017
  %Type660 = getelementptr inbounds %"struct.pov::Pattern_Struct", %"struct.pov::Pattern_Struct"* %300, i32 0, i32 0, !dbg !4019
  %301 = load i16, i16* %Type660, align 8, !dbg !4019
  %conv661 = zext i16 %301 to i32, !dbg !4017
  %cmp662 = icmp eq i32 %conv661, 30, !dbg !4020
  br i1 %cmp662, label %if.end708, label %lor.lhs.false663, !dbg !4021

lor.lhs.false663:                                 ; preds = %sw.bb659
  %302 = load %"struct.pov::Pattern_Struct"*, %"struct.pov::Pattern_Struct"** %New.addr, align 8, !dbg !4022
  %Type664 = getelementptr inbounds %"struct.pov::Pattern_Struct", %"struct.pov::Pattern_Struct"* %302, i32 0, i32 0, !dbg !4023
  %303 = load i16, i16* %Type664, align 8, !dbg !4023
  %conv665 = zext i16 %303 to i32, !dbg !4022
  %cmp666 = icmp eq i32 %conv665, 31, !dbg !4024
  br i1 %cmp666, label %if.end708, label %lor.lhs.false667, !dbg !4025

lor.lhs.false667:                                 ; preds = %lor.lhs.false663
  %304 = load %"struct.pov::Pattern_Struct"*, %"struct.pov::Pattern_Struct"** %New.addr, align 8, !dbg !4026
  %Type668 = getelementptr inbounds %"struct.pov::Pattern_Struct", %"struct.pov::Pattern_Struct"* %304, i32 0, i32 0, !dbg !4027
  %305 = load i16, i16* %Type668, align 8, !dbg !4027
  %conv669 = zext i16 %305 to i32, !dbg !4026
  %cmp670 = icmp eq i32 %conv669, 32, !dbg !4028
  br i1 %cmp670, label %if.end708, label %lor.lhs.false671, !dbg !4029

lor.lhs.false671:                                 ; preds = %lor.lhs.false667
  %306 = load %"struct.pov::Pattern_Struct"*, %"struct.pov::Pattern_Struct"** %New.addr, align 8, !dbg !4030
  %Type672 = getelementptr inbounds %"struct.pov::Pattern_Struct", %"struct.pov::Pattern_Struct"* %306, i32 0, i32 0, !dbg !4031
  %307 = load i16, i16* %Type672, align 8, !dbg !4031
  %conv673 = zext i16 %307 to i32, !dbg !4030
  %cmp674 = icmp eq i32 %conv673, 33, !dbg !4032
  br i1 %cmp674, label %if.end708, label %lor.lhs.false675, !dbg !4033

lor.lhs.false675:                                 ; preds = %lor.lhs.false671
  %308 = load %"struct.pov::Pattern_Struct"*, %"struct.pov::Pattern_Struct"** %New.addr, align 8, !dbg !4034
  %Type676 = getelementptr inbounds %"struct.pov::Pattern_Struct", %"struct.pov::Pattern_Struct"* %308, i32 0, i32 0, !dbg !4035
  %309 = load i16, i16* %Type676, align 8, !dbg !4035
  %conv677 = zext i16 %309 to i32, !dbg !4034
  %cmp678 = icmp eq i32 %conv677, 26, !dbg !4036
  br i1 %cmp678, label %if.end708, label %lor.lhs.false679, !dbg !4037

lor.lhs.false679:                                 ; preds = %lor.lhs.false675
  %310 = load %"struct.pov::Pattern_Struct"*, %"struct.pov::Pattern_Struct"** %New.addr, align 8, !dbg !4038
  %Type680 = getelementptr inbounds %"struct.pov::Pattern_Struct", %"struct.pov::Pattern_Struct"* %310, i32 0, i32 0, !dbg !4039
  %311 = load i16, i16* %Type680, align 8, !dbg !4039
  %conv681 = zext i16 %311 to i32, !dbg !4038
  %cmp682 = icmp eq i32 %conv681, 27, !dbg !4040
  br i1 %cmp682, label %if.end708, label %lor.lhs.false683, !dbg !4041

lor.lhs.false683:                                 ; preds = %lor.lhs.false679
  %312 = load %"struct.pov::Pattern_Struct"*, %"struct.pov::Pattern_Struct"** %New.addr, align 8, !dbg !4042
  %Type684 = getelementptr inbounds %"struct.pov::Pattern_Struct", %"struct.pov::Pattern_Struct"* %312, i32 0, i32 0, !dbg !4043
  %313 = load i16, i16* %Type684, align 8, !dbg !4043
  %conv685 = zext i16 %313 to i32, !dbg !4042
  %cmp686 = icmp eq i32 %conv685, 28, !dbg !4044
  br i1 %cmp686, label %if.end708, label %lor.lhs.false687, !dbg !4045

lor.lhs.false687:                                 ; preds = %lor.lhs.false683
  %314 = load %"struct.pov::Pattern_Struct"*, %"struct.pov::Pattern_Struct"** %New.addr, align 8, !dbg !4046
  %Type688 = getelementptr inbounds %"struct.pov::Pattern_Struct", %"struct.pov::Pattern_Struct"* %314, i32 0, i32 0, !dbg !4047
  %315 = load i16, i16* %Type688, align 8, !dbg !4047
  %conv689 = zext i16 %315 to i32, !dbg !4046
  %cmp690 = icmp eq i32 %conv689, 29, !dbg !4048
  br i1 %cmp690, label %if.end708, label %lor.lhs.false691, !dbg !4049

lor.lhs.false691:                                 ; preds = %lor.lhs.false687
  %316 = load %"struct.pov::Pattern_Struct"*, %"struct.pov::Pattern_Struct"** %New.addr, align 8, !dbg !4050
  %Type692 = getelementptr inbounds %"struct.pov::Pattern_Struct", %"struct.pov::Pattern_Struct"* %316, i32 0, i32 0, !dbg !4051
  %317 = load i16, i16* %Type692, align 8, !dbg !4051
  %conv693 = zext i16 %317 to i32, !dbg !4050
  %cmp694 = icmp eq i32 %conv693, 34, !dbg !4052
  br i1 %cmp694, label %if.end708, label %lor.lhs.false695, !dbg !4053

lor.lhs.false695:                                 ; preds = %lor.lhs.false691
  %318 = load %"struct.pov::Pattern_Struct"*, %"struct.pov::Pattern_Struct"** %New.addr, align 8, !dbg !4054
  %Type696 = getelementptr inbounds %"struct.pov::Pattern_Struct", %"struct.pov::Pattern_Struct"* %318, i32 0, i32 0, !dbg !4055
  %319 = load i16, i16* %Type696, align 8, !dbg !4055
  %conv697 = zext i16 %319 to i32, !dbg !4054
  %cmp698 = icmp eq i32 %conv697, 36, !dbg !4056
  br i1 %cmp698, label %if.end708, label %lor.lhs.false699, !dbg !4057

lor.lhs.false699:                                 ; preds = %lor.lhs.false695
  %320 = load %"struct.pov::Pattern_Struct"*, %"struct.pov::Pattern_Struct"** %New.addr, align 8, !dbg !4058
  %Type700 = getelementptr inbounds %"struct.pov::Pattern_Struct", %"struct.pov::Pattern_Struct"* %320, i32 0, i32 0, !dbg !4059
  %321 = load i16, i16* %Type700, align 8, !dbg !4059
  %conv701 = zext i16 %321 to i32, !dbg !4058
  %cmp702 = icmp eq i32 %conv701, 35, !dbg !4060
  br i1 %cmp702, label %if.end708, label %lor.lhs.false703, !dbg !4061

lor.lhs.false703:                                 ; preds = %lor.lhs.false699
  %322 = load %"struct.pov::Pattern_Struct"*, %"struct.pov::Pattern_Struct"** %New.addr, align 8, !dbg !4062
  %Type704 = getelementptr inbounds %"struct.pov::Pattern_Struct", %"struct.pov::Pattern_Struct"* %322, i32 0, i32 0, !dbg !4063
  %323 = load i16, i16* %Type704, align 8, !dbg !4063
  %conv705 = zext i16 %323 to i32, !dbg !4062
  %cmp706 = icmp eq i32 %conv705, 37, !dbg !4064
  br i1 %cmp706, label %if.end708, label %if.then707, !dbg !4065

if.then707:                                       ; preds = %lor.lhs.false703
  call void @_ZN3pov7Only_InEPKcS1_(i8* getelementptr inbounds ([9 x i8], [9 x i8]* @.str.42, i64 0, i64 0), i8* getelementptr inbounds ([24 x i8], [24 x i8]* @.str.43, i64 0, i64 0)), !dbg !4066
  br label %if.end708, !dbg !4068

if.end708:                                        ; preds = %if.then707, %lor.lhs.false703, %lor.lhs.false699, %lor.lhs.false695, %lor.lhs.false691, %lor.lhs.false687, %lor.lhs.false683, %lor.lhs.false679, %lor.lhs.false675, %lor.lhs.false671, %lor.lhs.false667, %lor.lhs.false663, %sw.bb659
  %call709 = call double @_ZN3pov11Parse_FloatEv(), !dbg !4069
  %conv710 = fptosi double %call709 to i32, !dbg !4069
  %conv711 = trunc i32 %conv710 to i16, !dbg !4070
  %324 = load %"struct.pov::Pattern_Struct"*, %"struct.pov::Pattern_Struct"** %New.addr, align 8, !dbg !4071
  %Vals712 = getelementptr inbounds %"struct.pov::Pattern_Struct", %"struct.pov::Pattern_Struct"* %324, i32 0, i32 10, !dbg !4072
  %Fractal713 = bitcast %union.anon.17* %Vals712 to %struct.anon.23*, !dbg !4073
  %exterior_type714 = getelementptr inbounds %struct.anon.23, %struct.anon.23* %Fractal713, i32 0, i32 3, !dbg !4074
  store i16 %conv711, i16* %exterior_type714, align 4, !dbg !4075
  %325 = load %"struct.pov::Pattern_Struct"*, %"struct.pov::Pattern_Struct"** %New.addr, align 8, !dbg !4076
  %Vals715 = getelementptr inbounds %"struct.pov::Pattern_Struct", %"struct.pov::Pattern_Struct"* %325, i32 0, i32 10, !dbg !4078
  %Fractal716 = bitcast %union.anon.17* %Vals715 to %struct.anon.23*, !dbg !4079
  %exterior_type717 = getelementptr inbounds %struct.anon.23, %struct.anon.23* %Fractal716, i32 0, i32 3, !dbg !4080
  %326 = load i16, i16* %exterior_type717, align 4, !dbg !4080
  %conv718 = sext i16 %326 to i32, !dbg !4076
  %cmp719 = icmp slt i32 %conv718, 0, !dbg !4081
  br i1 %cmp719, label %if.then726, label %lor.lhs.false720, !dbg !4082

lor.lhs.false720:                                 ; preds = %if.end708
  %327 = load %"struct.pov::Pattern_Struct"*, %"struct.pov::Pattern_Struct"** %New.addr, align 8, !dbg !4083
  %Vals721 = getelementptr inbounds %"struct.pov::Pattern_Struct", %"struct.pov::Pattern_Struct"* %327, i32 0, i32 10, !dbg !4084
  %Fractal722 = bitcast %union.anon.17* %Vals721 to %struct.anon.23*, !dbg !4085
  %exterior_type723 = getelementptr inbounds %struct.anon.23, %struct.anon.23* %Fractal722, i32 0, i32 3, !dbg !4086
  %328 = load i16, i16* %exterior_type723, align 4, !dbg !4086
  %conv724 = sext i16 %328 to i32, !dbg !4083
  %cmp725 = icmp sgt i32 %conv724, 6, !dbg !4087
  br i1 %cmp725, label %if.then726, label %if.end728, !dbg !4088

if.then726:                                       ; preds = %lor.lhs.false720, %if.end708
  %call727 = call i32 (i8*, ...) @_ZN3pov5ErrorEPKcz(i8* getelementptr inbounds ([63 x i8], [63 x i8]* @.str.44, i64 0, i64 0)), !dbg !4089
  br label %if.end728, !dbg !4089

if.end728:                                        ; preds = %if.then726, %lor.lhs.false720
  call void @_ZN3pov11Parse_CommaEv(), !dbg !4090
  %call729 = call double @_ZN3pov11Parse_FloatEv(), !dbg !4091
  %329 = load %"struct.pov::Pattern_Struct"*, %"struct.pov::Pattern_Struct"** %New.addr, align 8, !dbg !4092
  %Vals730 = getelementptr inbounds %"struct.pov::Pattern_Struct", %"struct.pov::Pattern_Struct"* %329, i32 0, i32 10, !dbg !4093
  %Fractal731 = bitcast %union.anon.17* %Vals730 to %struct.anon.23*, !dbg !4094
  %efactor732 = getelementptr inbounds %struct.anon.23, %struct.anon.23* %Fractal731, i32 0, i32 4, !dbg !4095
  store double %call729, double* %efactor732, align 8, !dbg !4096
  br label %sw.epilog1362, !dbg !4097

sw.bb733:                                         ; preds = %while.body641
  %330 = load %"struct.pov::Pattern_Struct"*, %"struct.pov::Pattern_Struct"** %New.addr, align 8, !dbg !4098
  %Type734 = getelementptr inbounds %"struct.pov::Pattern_Struct", %"struct.pov::Pattern_Struct"* %330, i32 0, i32 0, !dbg !4100
  %331 = load i16, i16* %Type734, align 8, !dbg !4100
  %conv735 = zext i16 %331 to i32, !dbg !4098
  %cmp736 = icmp eq i32 %conv735, 30, !dbg !4101
  br i1 %cmp736, label %if.end782, label %lor.lhs.false737, !dbg !4102

lor.lhs.false737:                                 ; preds = %sw.bb733
  %332 = load %"struct.pov::Pattern_Struct"*, %"struct.pov::Pattern_Struct"** %New.addr, align 8, !dbg !4103
  %Type738 = getelementptr inbounds %"struct.pov::Pattern_Struct", %"struct.pov::Pattern_Struct"* %332, i32 0, i32 0, !dbg !4104
  %333 = load i16, i16* %Type738, align 8, !dbg !4104
  %conv739 = zext i16 %333 to i32, !dbg !4103
  %cmp740 = icmp eq i32 %conv739, 31, !dbg !4105
  br i1 %cmp740, label %if.end782, label %lor.lhs.false741, !dbg !4106

lor.lhs.false741:                                 ; preds = %lor.lhs.false737
  %334 = load %"struct.pov::Pattern_Struct"*, %"struct.pov::Pattern_Struct"** %New.addr, align 8, !dbg !4107
  %Type742 = getelementptr inbounds %"struct.pov::Pattern_Struct", %"struct.pov::Pattern_Struct"* %334, i32 0, i32 0, !dbg !4108
  %335 = load i16, i16* %Type742, align 8, !dbg !4108
  %conv743 = zext i16 %335 to i32, !dbg !4107
  %cmp744 = icmp eq i32 %conv743, 32, !dbg !4109
  br i1 %cmp744, label %if.end782, label %lor.lhs.false745, !dbg !4110

lor.lhs.false745:                                 ; preds = %lor.lhs.false741
  %336 = load %"struct.pov::Pattern_Struct"*, %"struct.pov::Pattern_Struct"** %New.addr, align 8, !dbg !4111
  %Type746 = getelementptr inbounds %"struct.pov::Pattern_Struct", %"struct.pov::Pattern_Struct"* %336, i32 0, i32 0, !dbg !4112
  %337 = load i16, i16* %Type746, align 8, !dbg !4112
  %conv747 = zext i16 %337 to i32, !dbg !4111
  %cmp748 = icmp eq i32 %conv747, 33, !dbg !4113
  br i1 %cmp748, label %if.end782, label %lor.lhs.false749, !dbg !4114

lor.lhs.false749:                                 ; preds = %lor.lhs.false745
  %338 = load %"struct.pov::Pattern_Struct"*, %"struct.pov::Pattern_Struct"** %New.addr, align 8, !dbg !4115
  %Type750 = getelementptr inbounds %"struct.pov::Pattern_Struct", %"struct.pov::Pattern_Struct"* %338, i32 0, i32 0, !dbg !4116
  %339 = load i16, i16* %Type750, align 8, !dbg !4116
  %conv751 = zext i16 %339 to i32, !dbg !4115
  %cmp752 = icmp eq i32 %conv751, 26, !dbg !4117
  br i1 %cmp752, label %if.end782, label %lor.lhs.false753, !dbg !4118

lor.lhs.false753:                                 ; preds = %lor.lhs.false749
  %340 = load %"struct.pov::Pattern_Struct"*, %"struct.pov::Pattern_Struct"** %New.addr, align 8, !dbg !4119
  %Type754 = getelementptr inbounds %"struct.pov::Pattern_Struct", %"struct.pov::Pattern_Struct"* %340, i32 0, i32 0, !dbg !4120
  %341 = load i16, i16* %Type754, align 8, !dbg !4120
  %conv755 = zext i16 %341 to i32, !dbg !4119
  %cmp756 = icmp eq i32 %conv755, 27, !dbg !4121
  br i1 %cmp756, label %if.end782, label %lor.lhs.false757, !dbg !4122

lor.lhs.false757:                                 ; preds = %lor.lhs.false753
  %342 = load %"struct.pov::Pattern_Struct"*, %"struct.pov::Pattern_Struct"** %New.addr, align 8, !dbg !4123
  %Type758 = getelementptr inbounds %"struct.pov::Pattern_Struct", %"struct.pov::Pattern_Struct"* %342, i32 0, i32 0, !dbg !4124
  %343 = load i16, i16* %Type758, align 8, !dbg !4124
  %conv759 = zext i16 %343 to i32, !dbg !4123
  %cmp760 = icmp eq i32 %conv759, 28, !dbg !4125
  br i1 %cmp760, label %if.end782, label %lor.lhs.false761, !dbg !4126

lor.lhs.false761:                                 ; preds = %lor.lhs.false757
  %344 = load %"struct.pov::Pattern_Struct"*, %"struct.pov::Pattern_Struct"** %New.addr, align 8, !dbg !4127
  %Type762 = getelementptr inbounds %"struct.pov::Pattern_Struct", %"struct.pov::Pattern_Struct"* %344, i32 0, i32 0, !dbg !4128
  %345 = load i16, i16* %Type762, align 8, !dbg !4128
  %conv763 = zext i16 %345 to i32, !dbg !4127
  %cmp764 = icmp eq i32 %conv763, 29, !dbg !4129
  br i1 %cmp764, label %if.end782, label %lor.lhs.false765, !dbg !4130

lor.lhs.false765:                                 ; preds = %lor.lhs.false761
  %346 = load %"struct.pov::Pattern_Struct"*, %"struct.pov::Pattern_Struct"** %New.addr, align 8, !dbg !4131
  %Type766 = getelementptr inbounds %"struct.pov::Pattern_Struct", %"struct.pov::Pattern_Struct"* %346, i32 0, i32 0, !dbg !4132
  %347 = load i16, i16* %Type766, align 8, !dbg !4132
  %conv767 = zext i16 %347 to i32, !dbg !4131
  %cmp768 = icmp eq i32 %conv767, 34, !dbg !4133
  br i1 %cmp768, label %if.end782, label %lor.lhs.false769, !dbg !4134

lor.lhs.false769:                                 ; preds = %lor.lhs.false765
  %348 = load %"struct.pov::Pattern_Struct"*, %"struct.pov::Pattern_Struct"** %New.addr, align 8, !dbg !4135
  %Type770 = getelementptr inbounds %"struct.pov::Pattern_Struct", %"struct.pov::Pattern_Struct"* %348, i32 0, i32 0, !dbg !4136
  %349 = load i16, i16* %Type770, align 8, !dbg !4136
  %conv771 = zext i16 %349 to i32, !dbg !4135
  %cmp772 = icmp eq i32 %conv771, 36, !dbg !4137
  br i1 %cmp772, label %if.end782, label %lor.lhs.false773, !dbg !4138

lor.lhs.false773:                                 ; preds = %lor.lhs.false769
  %350 = load %"struct.pov::Pattern_Struct"*, %"struct.pov::Pattern_Struct"** %New.addr, align 8, !dbg !4139
  %Type774 = getelementptr inbounds %"struct.pov::Pattern_Struct", %"struct.pov::Pattern_Struct"* %350, i32 0, i32 0, !dbg !4140
  %351 = load i16, i16* %Type774, align 8, !dbg !4140
  %conv775 = zext i16 %351 to i32, !dbg !4139
  %cmp776 = icmp eq i32 %conv775, 35, !dbg !4141
  br i1 %cmp776, label %if.end782, label %lor.lhs.false777, !dbg !4142

lor.lhs.false777:                                 ; preds = %lor.lhs.false773
  %352 = load %"struct.pov::Pattern_Struct"*, %"struct.pov::Pattern_Struct"** %New.addr, align 8, !dbg !4143
  %Type778 = getelementptr inbounds %"struct.pov::Pattern_Struct", %"struct.pov::Pattern_Struct"* %352, i32 0, i32 0, !dbg !4144
  %353 = load i16, i16* %Type778, align 8, !dbg !4144
  %conv779 = zext i16 %353 to i32, !dbg !4143
  %cmp780 = icmp eq i32 %conv779, 37, !dbg !4145
  br i1 %cmp780, label %if.end782, label %if.then781, !dbg !4146

if.then781:                                       ; preds = %lor.lhs.false777
  call void @_ZN3pov7Only_InEPKcS1_(i8* getelementptr inbounds ([9 x i8], [9 x i8]* @.str.42, i64 0, i64 0), i8* getelementptr inbounds ([24 x i8], [24 x i8]* @.str.43, i64 0, i64 0)), !dbg !4147
  br label %if.end782, !dbg !4149

if.end782:                                        ; preds = %if.then781, %lor.lhs.false777, %lor.lhs.false773, %lor.lhs.false769, %lor.lhs.false765, %lor.lhs.false761, %lor.lhs.false757, %lor.lhs.false753, %lor.lhs.false749, %lor.lhs.false745, %lor.lhs.false741, %lor.lhs.false737, %sw.bb733
  %call783 = call double @_ZN3pov11Parse_FloatEv(), !dbg !4150
  %conv784 = fptosi double %call783 to i32, !dbg !4150
  %conv785 = trunc i32 %conv784 to i16, !dbg !4151
  %354 = load %"struct.pov::Pattern_Struct"*, %"struct.pov::Pattern_Struct"** %New.addr, align 8, !dbg !4152
  %Vals786 = getelementptr inbounds %"struct.pov::Pattern_Struct", %"struct.pov::Pattern_Struct"* %354, i32 0, i32 10, !dbg !4153
  %Fractal787 = bitcast %union.anon.17* %Vals786 to %struct.anon.23*, !dbg !4154
  %interior_type788 = getelementptr inbounds %struct.anon.23, %struct.anon.23* %Fractal787, i32 0, i32 2, !dbg !4155
  store i16 %conv785, i16* %interior_type788, align 2, !dbg !4156
  %355 = load %"struct.pov::Pattern_Struct"*, %"struct.pov::Pattern_Struct"** %New.addr, align 8, !dbg !4157
  %Vals789 = getelementptr inbounds %"struct.pov::Pattern_Struct", %"struct.pov::Pattern_Struct"* %355, i32 0, i32 10, !dbg !4159
  %Fractal790 = bitcast %union.anon.17* %Vals789 to %struct.anon.23*, !dbg !4160
  %interior_type791 = getelementptr inbounds %struct.anon.23, %struct.anon.23* %Fractal790, i32 0, i32 2, !dbg !4161
  %356 = load i16, i16* %interior_type791, align 2, !dbg !4161
  %conv792 = sext i16 %356 to i32, !dbg !4157
  %cmp793 = icmp slt i32 %conv792, 0, !dbg !4162
  br i1 %cmp793, label %if.then800, label %lor.lhs.false794, !dbg !4163

lor.lhs.false794:                                 ; preds = %if.end782
  %357 = load %"struct.pov::Pattern_Struct"*, %"struct.pov::Pattern_Struct"** %New.addr, align 8, !dbg !4164
  %Vals795 = getelementptr inbounds %"struct.pov::Pattern_Struct", %"struct.pov::Pattern_Struct"* %357, i32 0, i32 10, !dbg !4165
  %Fractal796 = bitcast %union.anon.17* %Vals795 to %struct.anon.23*, !dbg !4166
  %interior_type797 = getelementptr inbounds %struct.anon.23, %struct.anon.23* %Fractal796, i32 0, i32 2, !dbg !4167
  %358 = load i16, i16* %interior_type797, align 2, !dbg !4167
  %conv798 = sext i16 %358 to i32, !dbg !4164
  %cmp799 = icmp sgt i32 %conv798, 6, !dbg !4168
  br i1 %cmp799, label %if.then800, label %if.end802, !dbg !4169

if.then800:                                       ; preds = %lor.lhs.false794, %if.end782
  %call801 = call i32 (i8*, ...) @_ZN3pov5ErrorEPKcz(i8* getelementptr inbounds ([63 x i8], [63 x i8]* @.str.45, i64 0, i64 0)), !dbg !4170
  br label %if.end802, !dbg !4170

if.end802:                                        ; preds = %if.then800, %lor.lhs.false794
  call void @_ZN3pov11Parse_CommaEv(), !dbg !4171
  %call803 = call double @_ZN3pov11Parse_FloatEv(), !dbg !4172
  %359 = load %"struct.pov::Pattern_Struct"*, %"struct.pov::Pattern_Struct"** %New.addr, align 8, !dbg !4173
  %Vals804 = getelementptr inbounds %"struct.pov::Pattern_Struct", %"struct.pov::Pattern_Struct"* %359, i32 0, i32 10, !dbg !4174
  %Fractal805 = bitcast %union.anon.17* %Vals804 to %struct.anon.23*, !dbg !4175
  %ifactor806 = getelementptr inbounds %struct.anon.23, %struct.anon.23* %Fractal805, i32 0, i32 5, !dbg !4176
  store double %call803, double* %ifactor806, align 8, !dbg !4177
  br label %sw.epilog1362, !dbg !4178

sw.bb807:                                         ; preds = %while.body641
  %360 = load %"struct.pov::Pattern_Struct"*, %"struct.pov::Pattern_Struct"** %New.addr, align 8, !dbg !4179
  %Type808 = getelementptr inbounds %"struct.pov::Pattern_Struct", %"struct.pov::Pattern_Struct"* %360, i32 0, i32 0, !dbg !4181
  %361 = load i16, i16* %Type808, align 8, !dbg !4181
  %conv809 = zext i16 %361 to i32, !dbg !4179
  %cmp810 = icmp eq i32 %conv809, 30, !dbg !4182
  br i1 %cmp810, label %if.end840, label %lor.lhs.false811, !dbg !4183

lor.lhs.false811:                                 ; preds = %sw.bb807
  %362 = load %"struct.pov::Pattern_Struct"*, %"struct.pov::Pattern_Struct"** %New.addr, align 8, !dbg !4184
  %Type812 = getelementptr inbounds %"struct.pov::Pattern_Struct", %"struct.pov::Pattern_Struct"* %362, i32 0, i32 0, !dbg !4185
  %363 = load i16, i16* %Type812, align 8, !dbg !4185
  %conv813 = zext i16 %363 to i32, !dbg !4184
  %cmp814 = icmp eq i32 %conv813, 31, !dbg !4186
  br i1 %cmp814, label %if.end840, label %lor.lhs.false815, !dbg !4187

lor.lhs.false815:                                 ; preds = %lor.lhs.false811
  %364 = load %"struct.pov::Pattern_Struct"*, %"struct.pov::Pattern_Struct"** %New.addr, align 8, !dbg !4188
  %Type816 = getelementptr inbounds %"struct.pov::Pattern_Struct", %"struct.pov::Pattern_Struct"* %364, i32 0, i32 0, !dbg !4189
  %365 = load i16, i16* %Type816, align 8, !dbg !4189
  %conv817 = zext i16 %365 to i32, !dbg !4188
  %cmp818 = icmp eq i32 %conv817, 32, !dbg !4190
  br i1 %cmp818, label %if.end840, label %lor.lhs.false819, !dbg !4191

lor.lhs.false819:                                 ; preds = %lor.lhs.false815
  %366 = load %"struct.pov::Pattern_Struct"*, %"struct.pov::Pattern_Struct"** %New.addr, align 8, !dbg !4192
  %Type820 = getelementptr inbounds %"struct.pov::Pattern_Struct", %"struct.pov::Pattern_Struct"* %366, i32 0, i32 0, !dbg !4193
  %367 = load i16, i16* %Type820, align 8, !dbg !4193
  %conv821 = zext i16 %367 to i32, !dbg !4192
  %cmp822 = icmp eq i32 %conv821, 33, !dbg !4194
  br i1 %cmp822, label %if.end840, label %lor.lhs.false823, !dbg !4195

lor.lhs.false823:                                 ; preds = %lor.lhs.false819
  %368 = load %"struct.pov::Pattern_Struct"*, %"struct.pov::Pattern_Struct"** %New.addr, align 8, !dbg !4196
  %Type824 = getelementptr inbounds %"struct.pov::Pattern_Struct", %"struct.pov::Pattern_Struct"* %368, i32 0, i32 0, !dbg !4197
  %369 = load i16, i16* %Type824, align 8, !dbg !4197
  %conv825 = zext i16 %369 to i32, !dbg !4196
  %cmp826 = icmp eq i32 %conv825, 26, !dbg !4198
  br i1 %cmp826, label %if.end840, label %lor.lhs.false827, !dbg !4199

lor.lhs.false827:                                 ; preds = %lor.lhs.false823
  %370 = load %"struct.pov::Pattern_Struct"*, %"struct.pov::Pattern_Struct"** %New.addr, align 8, !dbg !4200
  %Type828 = getelementptr inbounds %"struct.pov::Pattern_Struct", %"struct.pov::Pattern_Struct"* %370, i32 0, i32 0, !dbg !4201
  %371 = load i16, i16* %Type828, align 8, !dbg !4201
  %conv829 = zext i16 %371 to i32, !dbg !4200
  %cmp830 = icmp eq i32 %conv829, 27, !dbg !4202
  br i1 %cmp830, label %if.end840, label %lor.lhs.false831, !dbg !4203

lor.lhs.false831:                                 ; preds = %lor.lhs.false827
  %372 = load %"struct.pov::Pattern_Struct"*, %"struct.pov::Pattern_Struct"** %New.addr, align 8, !dbg !4204
  %Type832 = getelementptr inbounds %"struct.pov::Pattern_Struct", %"struct.pov::Pattern_Struct"* %372, i32 0, i32 0, !dbg !4205
  %373 = load i16, i16* %Type832, align 8, !dbg !4205
  %conv833 = zext i16 %373 to i32, !dbg !4204
  %cmp834 = icmp eq i32 %conv833, 28, !dbg !4206
  br i1 %cmp834, label %if.end840, label %lor.lhs.false835, !dbg !4207

lor.lhs.false835:                                 ; preds = %lor.lhs.false831
  %374 = load %"struct.pov::Pattern_Struct"*, %"struct.pov::Pattern_Struct"** %New.addr, align 8, !dbg !4208
  %Type836 = getelementptr inbounds %"struct.pov::Pattern_Struct", %"struct.pov::Pattern_Struct"* %374, i32 0, i32 0, !dbg !4209
  %375 = load i16, i16* %Type836, align 8, !dbg !4209
  %conv837 = zext i16 %375 to i32, !dbg !4208
  %cmp838 = icmp eq i32 %conv837, 29, !dbg !4210
  br i1 %cmp838, label %if.end840, label %if.then839, !dbg !4211

if.then839:                                       ; preds = %lor.lhs.false835
  call void @_ZN3pov7Only_InEPKcS1_(i8* getelementptr inbounds ([9 x i8], [9 x i8]* @.str.46, i64 0, i64 0), i8* getelementptr inbounds ([16 x i8], [16 x i8]* @.str.47, i64 0, i64 0)), !dbg !4212
  br label %if.end840, !dbg !4214

if.end840:                                        ; preds = %if.then839, %lor.lhs.false835, %lor.lhs.false831, %lor.lhs.false827, %lor.lhs.false823, %lor.lhs.false819, %lor.lhs.false815, %lor.lhs.false811, %sw.bb807
  %376 = load %"struct.pov::Pattern_Struct"*, %"struct.pov::Pattern_Struct"** %New.addr, align 8, !dbg !4215
  %Type841 = getelementptr inbounds %"struct.pov::Pattern_Struct", %"struct.pov::Pattern_Struct"* %376, i32 0, i32 0, !dbg !4217
  %377 = load i16, i16* %Type841, align 8, !dbg !4217
  %conv842 = zext i16 %377 to i32, !dbg !4215
  %cmp843 = icmp eq i32 %conv842, 26, !dbg !4218
  br i1 %cmp843, label %if.then852, label %lor.lhs.false844, !dbg !4219

lor.lhs.false844:                                 ; preds = %if.end840
  %378 = load %"struct.pov::Pattern_Struct"*, %"struct.pov::Pattern_Struct"** %New.addr, align 8, !dbg !4220
  %Type845 = getelementptr inbounds %"struct.pov::Pattern_Struct", %"struct.pov::Pattern_Struct"* %378, i32 0, i32 0, !dbg !4221
  %379 = load i16, i16* %Type845, align 8, !dbg !4221
  %conv846 = zext i16 %379 to i32, !dbg !4220
  %cmp847 = icmp eq i32 %conv846, 27, !dbg !4222
  br i1 %cmp847, label %if.then852, label %lor.lhs.false848, !dbg !4223

lor.lhs.false848:                                 ; preds = %lor.lhs.false844
  %380 = load %"struct.pov::Pattern_Struct"*, %"struct.pov::Pattern_Struct"** %New.addr, align 8, !dbg !4224
  %Type849 = getelementptr inbounds %"struct.pov::Pattern_Struct", %"struct.pov::Pattern_Struct"* %380, i32 0, i32 0, !dbg !4225
  %381 = load i16, i16* %Type849, align 8, !dbg !4225
  %conv850 = zext i16 %381 to i32, !dbg !4224
  %cmp851 = icmp eq i32 %conv850, 28, !dbg !4226
  br i1 %cmp851, label %if.then852, label %if.else875, !dbg !4227

if.then852:                                       ; preds = %lor.lhs.false848, %lor.lhs.false844, %if.end840
  %call853 = call double @_ZN3pov11Parse_FloatEv(), !dbg !4228
  %conv854 = fptosi double %call853 to i32, !dbg !4228
  store i32 %conv854, i32* %i, align 4, !dbg !4230
  %382 = load %"struct.pov::Pattern_Struct"*, %"struct.pov::Pattern_Struct"** %New.addr, align 8, !dbg !4231
  %Vals855 = getelementptr inbounds %"struct.pov::Pattern_Struct", %"struct.pov::Pattern_Struct"* %382, i32 0, i32 10, !dbg !4232
  %Fractal856 = bitcast %union.anon.17* %Vals855 to %struct.anon.23*, !dbg !4233
  %Exponent857 = getelementptr inbounds %struct.anon.23, %struct.anon.23* %Fractal856, i32 0, i32 6, !dbg !4234
  store i32 %conv854, i32* %Exponent857, align 8, !dbg !4235
  %383 = load i32, i32* %i, align 4, !dbg !4236
  switch i32 %383, label %sw.default864 [
    i32 2, label %sw.bb858
    i32 3, label %sw.bb860
    i32 4, label %sw.bb862
  ], !dbg !4237

sw.bb858:                                         ; preds = %if.then852
  %384 = load %"struct.pov::Pattern_Struct"*, %"struct.pov::Pattern_Struct"** %New.addr, align 8, !dbg !4238
  %Type859 = getelementptr inbounds %"struct.pov::Pattern_Struct", %"struct.pov::Pattern_Struct"* %384, i32 0, i32 0, !dbg !4240
  store i16 26, i16* %Type859, align 8, !dbg !4241
  br label %sw.epilog874, !dbg !4242

sw.bb860:                                         ; preds = %if.then852
  %385 = load %"struct.pov::Pattern_Struct"*, %"struct.pov::Pattern_Struct"** %New.addr, align 8, !dbg !4243
  %Type861 = getelementptr inbounds %"struct.pov::Pattern_Struct", %"struct.pov::Pattern_Struct"* %385, i32 0, i32 0, !dbg !4244
  store i16 27, i16* %Type861, align 8, !dbg !4245
  br label %sw.epilog874, !dbg !4246

sw.bb862:                                         ; preds = %if.then852
  %386 = load %"struct.pov::Pattern_Struct"*, %"struct.pov::Pattern_Struct"** %New.addr, align 8, !dbg !4247
  %Type863 = getelementptr inbounds %"struct.pov::Pattern_Struct", %"struct.pov::Pattern_Struct"* %386, i32 0, i32 0, !dbg !4248
  store i16 28, i16* %Type863, align 8, !dbg !4249
  br label %sw.epilog874, !dbg !4250

sw.default864:                                    ; preds = %if.then852
  %387 = load i32, i32* %i, align 4, !dbg !4251
  %cmp865 = icmp sgt i32 %387, 4, !dbg !4253
  br i1 %cmp865, label %land.lhs.true866, label %if.else870, !dbg !4254

land.lhs.true866:                                 ; preds = %sw.default864
  %388 = load i32, i32* %i, align 4, !dbg !4255
  %cmp867 = icmp sle i32 %388, 33, !dbg !4256
  br i1 %cmp867, label %if.then868, label %if.else870, !dbg !4257

if.then868:                                       ; preds = %land.lhs.true866
  %389 = load %"struct.pov::Pattern_Struct"*, %"struct.pov::Pattern_Struct"** %New.addr, align 8, !dbg !4258
  %Type869 = getelementptr inbounds %"struct.pov::Pattern_Struct", %"struct.pov::Pattern_Struct"* %389, i32 0, i32 0, !dbg !4260
  store i16 29, i16* %Type869, align 8, !dbg !4261
  br label %if.end873, !dbg !4262

if.else870:                                       ; preds = %land.lhs.true866, %sw.default864
  %390 = load %"struct.pov::Pattern_Struct"*, %"struct.pov::Pattern_Struct"** %New.addr, align 8, !dbg !4263
  %Type871 = getelementptr inbounds %"struct.pov::Pattern_Struct", %"struct.pov::Pattern_Struct"* %390, i32 0, i32 0, !dbg !4265
  store i16 26, i16* %Type871, align 8, !dbg !4266
  %call872 = call i32 (i32, i8*, ...) @_ZN3pov7WarningEjPKcz(i32 0, i8* getelementptr inbounds ([97 x i8], [97 x i8]* @.str.48, i64 0, i64 0)), !dbg !4267
  br label %if.end873

if.end873:                                        ; preds = %if.else870, %if.then868
  br label %sw.epilog874, !dbg !4268

sw.epilog874:                                     ; preds = %if.end873, %sw.bb862, %sw.bb860, %sw.bb858
  br label %if.end911, !dbg !4269

if.else875:                                       ; preds = %lor.lhs.false848
  %391 = load %"struct.pov::Pattern_Struct"*, %"struct.pov::Pattern_Struct"** %New.addr, align 8, !dbg !4270
  %Type876 = getelementptr inbounds %"struct.pov::Pattern_Struct", %"struct.pov::Pattern_Struct"* %391, i32 0, i32 0, !dbg !4272
  %392 = load i16, i16* %Type876, align 8, !dbg !4272
  %conv877 = zext i16 %392 to i32, !dbg !4270
  %cmp878 = icmp eq i32 %conv877, 30, !dbg !4273
  br i1 %cmp878, label %if.then887, label %lor.lhs.false879, !dbg !4274

lor.lhs.false879:                                 ; preds = %if.else875
  %393 = load %"struct.pov::Pattern_Struct"*, %"struct.pov::Pattern_Struct"** %New.addr, align 8, !dbg !4275
  %Type880 = getelementptr inbounds %"struct.pov::Pattern_Struct", %"struct.pov::Pattern_Struct"* %393, i32 0, i32 0, !dbg !4276
  %394 = load i16, i16* %Type880, align 8, !dbg !4276
  %conv881 = zext i16 %394 to i32, !dbg !4275
  %cmp882 = icmp eq i32 %conv881, 31, !dbg !4277
  br i1 %cmp882, label %if.then887, label %lor.lhs.false883, !dbg !4278

lor.lhs.false883:                                 ; preds = %lor.lhs.false879
  %395 = load %"struct.pov::Pattern_Struct"*, %"struct.pov::Pattern_Struct"** %New.addr, align 8, !dbg !4279
  %Type884 = getelementptr inbounds %"struct.pov::Pattern_Struct", %"struct.pov::Pattern_Struct"* %395, i32 0, i32 0, !dbg !4280
  %396 = load i16, i16* %Type884, align 8, !dbg !4280
  %conv885 = zext i16 %396 to i32, !dbg !4279
  %cmp886 = icmp eq i32 %conv885, 32, !dbg !4281
  br i1 %cmp886, label %if.then887, label %if.end910, !dbg !4282

if.then887:                                       ; preds = %lor.lhs.false883, %lor.lhs.false879, %if.else875
  %call888 = call double @_ZN3pov11Parse_FloatEv(), !dbg !4283
  %conv889 = fptosi double %call888 to i32, !dbg !4283
  store i32 %conv889, i32* %i, align 4, !dbg !4285
  %397 = load %"struct.pov::Pattern_Struct"*, %"struct.pov::Pattern_Struct"** %New.addr, align 8, !dbg !4286
  %Vals890 = getelementptr inbounds %"struct.pov::Pattern_Struct", %"struct.pov::Pattern_Struct"* %397, i32 0, i32 10, !dbg !4287
  %Fractal891 = bitcast %union.anon.17* %Vals890 to %struct.anon.23*, !dbg !4288
  %Exponent892 = getelementptr inbounds %struct.anon.23, %struct.anon.23* %Fractal891, i32 0, i32 6, !dbg !4289
  store i32 %conv889, i32* %Exponent892, align 8, !dbg !4290
  %398 = load i32, i32* %i, align 4, !dbg !4291
  switch i32 %398, label %sw.default899 [
    i32 2, label %sw.bb893
    i32 3, label %sw.bb895
    i32 4, label %sw.bb897
  ], !dbg !4292

sw.bb893:                                         ; preds = %if.then887
  %399 = load %"struct.pov::Pattern_Struct"*, %"struct.pov::Pattern_Struct"** %New.addr, align 8, !dbg !4293
  %Type894 = getelementptr inbounds %"struct.pov::Pattern_Struct", %"struct.pov::Pattern_Struct"* %399, i32 0, i32 0, !dbg !4295
  store i16 30, i16* %Type894, align 8, !dbg !4296
  br label %sw.epilog909, !dbg !4297

sw.bb895:                                         ; preds = %if.then887
  %400 = load %"struct.pov::Pattern_Struct"*, %"struct.pov::Pattern_Struct"** %New.addr, align 8, !dbg !4298
  %Type896 = getelementptr inbounds %"struct.pov::Pattern_Struct", %"struct.pov::Pattern_Struct"* %400, i32 0, i32 0, !dbg !4299
  store i16 31, i16* %Type896, align 8, !dbg !4300
  br label %sw.epilog909, !dbg !4301

sw.bb897:                                         ; preds = %if.then887
  %401 = load %"struct.pov::Pattern_Struct"*, %"struct.pov::Pattern_Struct"** %New.addr, align 8, !dbg !4302
  %Type898 = getelementptr inbounds %"struct.pov::Pattern_Struct", %"struct.pov::Pattern_Struct"* %401, i32 0, i32 0, !dbg !4303
  store i16 32, i16* %Type898, align 8, !dbg !4304
  br label %sw.epilog909, !dbg !4305

sw.default899:                                    ; preds = %if.then887
  %402 = load i32, i32* %i, align 4, !dbg !4306
  %cmp900 = icmp sgt i32 %402, 4, !dbg !4308
  br i1 %cmp900, label %land.lhs.true901, label %if.else905, !dbg !4309

land.lhs.true901:                                 ; preds = %sw.default899
  %403 = load i32, i32* %i, align 4, !dbg !4310
  %cmp902 = icmp sle i32 %403, 33, !dbg !4311
  br i1 %cmp902, label %if.then903, label %if.else905, !dbg !4312

if.then903:                                       ; preds = %land.lhs.true901
  %404 = load %"struct.pov::Pattern_Struct"*, %"struct.pov::Pattern_Struct"** %New.addr, align 8, !dbg !4313
  %Type904 = getelementptr inbounds %"struct.pov::Pattern_Struct", %"struct.pov::Pattern_Struct"* %404, i32 0, i32 0, !dbg !4315
  store i16 33, i16* %Type904, align 8, !dbg !4316
  br label %if.end908, !dbg !4317

if.else905:                                       ; preds = %land.lhs.true901, %sw.default899
  %405 = load %"struct.pov::Pattern_Struct"*, %"struct.pov::Pattern_Struct"** %New.addr, align 8, !dbg !4318
  %Type906 = getelementptr inbounds %"struct.pov::Pattern_Struct", %"struct.pov::Pattern_Struct"* %405, i32 0, i32 0, !dbg !4320
  store i16 30, i16* %Type906, align 8, !dbg !4321
  %call907 = call i32 (i32, i8*, ...) @_ZN3pov7WarningEjPKcz(i32 0, i8* getelementptr inbounds ([98 x i8], [98 x i8]* @.str.49, i64 0, i64 0)), !dbg !4322
  br label %if.end908

if.end908:                                        ; preds = %if.else905, %if.then903
  br label %sw.epilog909, !dbg !4323

sw.epilog909:                                     ; preds = %if.end908, %sw.bb897, %sw.bb895, %sw.bb893
  br label %if.end910, !dbg !4324

if.end910:                                        ; preds = %sw.epilog909, %lor.lhs.false883
  br label %if.end911

if.end911:                                        ; preds = %if.end910, %sw.epilog874
  br label %sw.epilog1362, !dbg !4325

sw.bb912:                                         ; preds = %while.body641
  %406 = load %"struct.pov::Pattern_Struct"*, %"struct.pov::Pattern_Struct"** %New.addr, align 8, !dbg !4326
  %Type913 = getelementptr inbounds %"struct.pov::Pattern_Struct", %"struct.pov::Pattern_Struct"* %406, i32 0, i32 0, !dbg !4328
  %407 = load i16, i16* %Type913, align 8, !dbg !4328
  %conv914 = zext i16 %407 to i32, !dbg !4326
  %cmp915 = icmp ne i32 %conv914, 10, !dbg !4329
  br i1 %cmp915, label %if.then916, label %if.end917, !dbg !4330

if.then916:                                       ; preds = %sw.bb912
  call void @_ZN3pov7Only_InEPKcS1_(i8* getelementptr inbounds ([7 x i8], [7 x i8]* @.str.50, i64 0, i64 0), i8* getelementptr inbounds ([7 x i8], [7 x i8]* @.str.51, i64 0, i64 0)), !dbg !4331
  br label %if.end917, !dbg !4333

if.end917:                                        ; preds = %if.then916, %sw.bb912
  %call918 = call double @_ZN3pov11Parse_FloatEv(), !dbg !4334
  %408 = load %"struct.pov::Pattern_Struct"*, %"struct.pov::Pattern_Struct"** %New.addr, align 8, !dbg !4335
  %Vals919 = getelementptr inbounds %"struct.pov::Pattern_Struct", %"struct.pov::Pattern_Struct"* %408, i32 0, i32 10, !dbg !4336
  %Facets920 = bitcast %union.anon.17* %Vals919 to %struct.anon.20*, !dbg !4337
  %UseCoords921 = getelementptr inbounds %struct.anon.20, %struct.anon.20* %Facets920, i32 0, i32 1, !dbg !4338
  store double %call918, double* %UseCoords921, align 8, !dbg !4339
  br label %sw.epilog1362, !dbg !4340

sw.bb922:                                         ; preds = %while.body641
  %409 = load %"struct.pov::Pattern_Struct"*, %"struct.pov::Pattern_Struct"** %New.addr, align 8, !dbg !4341
  %Type923 = getelementptr inbounds %"struct.pov::Pattern_Struct", %"struct.pov::Pattern_Struct"* %409, i32 0, i32 0, !dbg !4343
  %410 = load i16, i16* %Type923, align 8, !dbg !4343
  %conv924 = zext i16 %410 to i32, !dbg !4341
  %cmp925 = icmp eq i32 %conv924, 10, !dbg !4344
  br i1 %cmp925, label %if.then926, label %if.else931, !dbg !4345

if.then926:                                       ; preds = %sw.bb922
  %call927 = call double @_ZN3pov11Parse_FloatEv(), !dbg !4346
  %411 = load %"struct.pov::Pattern_Struct"*, %"struct.pov::Pattern_Struct"** %New.addr, align 8, !dbg !4348
  %Vals928 = getelementptr inbounds %"struct.pov::Pattern_Struct", %"struct.pov::Pattern_Struct"* %411, i32 0, i32 10, !dbg !4349
  %Facets929 = bitcast %union.anon.17* %Vals928 to %struct.anon.20*, !dbg !4350
  %Size930 = getelementptr inbounds %struct.anon.20, %struct.anon.20* %Facets929, i32 0, i32 0, !dbg !4351
  store double %call927, double* %Size930, align 8, !dbg !4352
  br label %if.end932, !dbg !4353

if.else931:                                       ; preds = %sw.bb922
  call void @_ZN3pov7Only_InEPKcS1_(i8* getelementptr inbounds ([5 x i8], [5 x i8]* @.str.52, i64 0, i64 0), i8* getelementptr inbounds ([7 x i8], [7 x i8]* @.str.51, i64 0, i64 0)), !dbg !4354
  br label %if.end932

if.end932:                                        ; preds = %if.else931, %if.then926
  br label %sw.epilog1362, !dbg !4356

sw.bb933:                                         ; preds = %while.body641
  %412 = load %"struct.pov::Pattern_Struct"*, %"struct.pov::Pattern_Struct"** %New.addr, align 8, !dbg !4357
  %Type934 = getelementptr inbounds %"struct.pov::Pattern_Struct", %"struct.pov::Pattern_Struct"* %412, i32 0, i32 0, !dbg !4359
  %413 = load i16, i16* %Type934, align 8, !dbg !4359
  %conv935 = zext i16 %413 to i32, !dbg !4357
  %cmp936 = icmp eq i32 %conv935, 10, !dbg !4360
  br i1 %cmp936, label %if.then937, label %if.else942, !dbg !4361

if.then937:                                       ; preds = %sw.bb933
  %414 = load %"struct.pov::Pattern_Struct"*, %"struct.pov::Pattern_Struct"** %New.addr, align 8, !dbg !4362
  %Vals938 = getelementptr inbounds %"struct.pov::Pattern_Struct", %"struct.pov::Pattern_Struct"* %414, i32 0, i32 10, !dbg !4364
  %Facets939 = bitcast %union.anon.17* %Vals938 to %struct.anon.20*, !dbg !4365
  %Metric940 = getelementptr inbounds %struct.anon.20, %struct.anon.20* %Facets939, i32 0, i32 2, !dbg !4366
  %arraydecay941 = getelementptr inbounds [3 x double], [3 x double]* %Metric940, i64 0, i64 0, !dbg !4362
  call void @_ZN3pov12Parse_VectorEPd(double* %arraydecay941), !dbg !4367
  br label %if.end953, !dbg !4368

