; ModuleID = 'tokenize.cpp'
source_filename = "tokenize.cpp"
target datalayout = "e-m:e-p270:32:32-p271:32:32-p272:64:64-i64:64-f80:128-n8:16:32:64-S128"
target triple = "x86_64-unknown-linux-gnu"

%"struct.pov::Sym_Table_Struct" = type { i8*, [257 x %"struct.pov::Sym_Table_Entry"*] }
%"struct.pov::Sym_Table_Entry" = type { %"struct.pov::Sym_Table_Entry"*, i8*, i8*, i32 }
%"struct.pov::InputFileData" = type { %"class.pov_base::ITextStream"*, i8 }
%"class.pov_base::ITextStream" = type { i32 (...)**, %"class.pov_base::IStream"*, [512 x i8], i64, i64, i64, i64, i8*, i32, i32 }
%"class.pov_base::IStream" = type { %"class.pov_base::IOBase" }
%"class.pov_base::IOBase" = type { i32 (...)**, i8, %struct._IO_FILE*, i32, i32, i8* }
%struct._IO_FILE = type { i32, i8*, i8*, i8*, i8*, i8*, i8*, i8*, i8*, i8*, i8*, i8*, %struct._IO_marker*, %struct._IO_FILE*, i32, i32, i64, i16, i8, [1 x i8], i8*, i64, %struct._IO_codecvt*, %struct._IO_wide_data*, %struct._IO_FILE*, i8*, i64, i32, [20 x i8] }
%struct._IO_marker = type opaque
%struct._IO_codecvt = type opaque
%struct._IO_wide_data = type opaque
%"struct.pov::Token_Struct" = type { i32, i32, %"struct.pov_base::ITextStream::FilePos", i32, i32, i8*, double, i32, i32, %"class.pov_base::ITextStream"*, i8*, i32*, i8**, i8 }
%"struct.pov_base::ITextStream::FilePos" = type { i64, i32 }
%"struct.pov::Cond_Stack_Entry" = type { i32, double, %"class.pov_base::ITextStream"*, %"class.pov_base::ITextStream"*, i8*, i32, %"struct.pov::Pov_Macro_Struct"*, %"struct.pov_base::ITextStream::FilePos" }
%"struct.pov::Pov_Macro_Struct" = type { i8*, i8*, %"struct.pov_base::ITextStream::FilePos", i64, i32, [56 x i8*] }
%"struct.pov::OPTIONS_STRUCT" = type { i32, i8, i8, i8, i32, i32, [4096 x i8], [4096 x i8], [4096 x i8], [4096 x i8], [4096 x i8], float, float, i32, i32, double, i8, double, i32, [25 x i8*], i32, i32, i32, double, double, i32, i32, double, double, i32, i8, i64, i32, i32, i32, %"struct.pov::FRAMESEQ", double, i64, double, double, double, double, double, i64, i32, i64, i32, i32, i32, i32, i32, i32, double, double, double, i32, i32, i8*, i8*, i32, i8, double, double, i32, i32, i8, i32, i32, [4096 x i8], [6 x %"struct.pov::shelldata"], [4096 x i8], [4096 x i8], i32, i32, i64, i32, i32, i32, %struct.POVMSData }
%"struct.pov::FRAMESEQ" = type { i32, double, i32, i32, double, i32, i32, double, i32, double, i32, double, i8, i8 }
%"struct.pov::shelldata" = type { i32, i32, [250 x i8] }
%struct.POVMSData = type { i32, i32, %union.anon }
%union.anon = type { i8* }
%"struct.pov::Reserved_Word_Struct" = type { i32, i8* }
%"struct.pov::Pov_Array_Struct" = type { i32, i32, i32, [5 x i32], [5 x i32], i8** }
%"struct.pov::Pov_Param_Struct" = type { i32*, i8**, i32 }
%"class.pov_base::OStream" = type { %"class.pov_base::IOBase" }
%"struct.pov::Data_File_Struct" = type { %"class.pov_base::ITextStream"*, %"class.pov_base::OTextStream"*, i8 }
%"class.pov_base::OTextStream" = type { i32 (...)**, %"class.pov_base::OStream"*, i8* }

$_ZN3pov17Begin_String_FastEv = comdat any

$_ZN3pov11Write_TokenEii = comdat any

$_ZN3pov12Begin_StringEv = comdat any

$_ZN3pov15Stuff_CharacterEi = comdat any

$_ZN3pov10End_StringEv = comdat any

$_ZN8pov_base11ITextStream4nameEv = comdat any

$_ZN3pov20Stuff_Character_FastEi = comdat any

$_ZN3pov15End_String_FastEv = comdat any

$_ZN8pov_base11OTextStream4nameEv = comdat any

$_ZN3pov14Assign_UV_VectEPdS0_ = comdat any

$_ZN3pov13Assign_VectorEPdS0_ = comdat any

$_ZN3pov16Assign_Vector_4DEPdS0_ = comdat any

$_ZN3pov21Assign_Colour_ExpressEPfPd = comdat any

@_ZN3pov6TablesE = dso_local global [100 x %"struct.pov::Sym_Table_Struct"*] zeroinitializer, align 16, !dbg !0
@_ZN3pov11Table_IndexE = dso_local global i32 0, align 4, !dbg !32
@_ZN3pov18String_Fast_BufferE = dso_local global [256 x i8] zeroinitializer, align 16, !dbg !34
@_ZN3pov12String_IndexE = dso_local global i32 0, align 4, !dbg !39
@_ZN3pov18String_Buffer_FreeE = dso_local global i32 0, align 4, !dbg !41
@_ZN3pov6StringE = dso_local global i8* null, align 8, !dbg !43
@_ZN3pov7String2E = dso_local global i8* null, align 8, !dbg !45
@_ZN3pov19Current_Token_CountE = dso_local global i64 0, align 8, !dbg !47
@_ZN3pov11token_countE = dso_local global i32 0, align 4, !dbg !50
@_ZN3pov10line_countE = dso_local global i32 10, align 4, !dbg !52
@_ZN3pov18Include_File_IndexE = dso_local global i32 0, align 4, !dbg !54
@_ZN3pov10Input_FileE = dso_local global %"struct.pov::InputFileData"* null, align 8, !dbg !56
@_ZN3pov13Include_FilesE = dso_local global [32 x %"struct.pov::InputFileData"] zeroinitializer, align 16, !dbg !68
@_ZN3pov5TokenE = dso_local global %"struct.pov::Token_Struct" zeroinitializer, align 8, !dbg !73
@_ZN3pov9Echo_IndxE = dso_local global i32 0, align 4, !dbg !100
@_ZN3pov10Cond_StackE = dso_local global %"struct.pov::Cond_Stack_Entry"* null, align 8, !dbg !102
@_ZN3pov8CS_IndexE = dso_local global i32 0, align 4, !dbg !145
@_ZN3pov8SkippingE = dso_local global i32 0, align 4, !dbg !147
@_ZN3pov12Inside_IfdefE = dso_local global i32 0, align 4, !dbg !149
@_ZN3pov15Inside_MacroDefE = dso_local global i32 0, align 4, !dbg !151
@_ZN3pov7Got_EOFE = dso_local global i32 0, align 4, !dbg !153
@_ZN3pov21Conversion_Util_TableE = dso_local global [535 x i32] zeroinitializer, align 16, !dbg !155
@_ZN3pov5StageE = external dso_local global i32, align 4
@_ZN3pov4optsE = external dso_local global %"struct.pov::OPTIONS_STRUCT", align 8
@.str = private unnamed_addr constant [6 x i8] c"stdin\00", align 1
@.str.1 = private unnamed_addr constant [24 x i8] c"Cannot open input file.\00", align 1
@.str.2 = private unnamed_addr constant [13 x i8] c"tokenize.cpp\00", align 1
@.str.3 = private unnamed_addr constant [18 x i8] c"conditional stack\00", align 1
@_ZN3pov15Max_Trace_LevelE = external dso_local global i32, align 4
@_ZN3pov19Had_Max_Trace_LevelE = external dso_local global i8, align 1
@.str.4 = private unnamed_addr constant [39 x i8] c"End of file reached but #end expected.\00", align 1
@.str.5 = private unnamed_addr constant [48 x i8] c"Illegal character in input file, value is %02x.\00", align 1
@.str.6 = private unnamed_addr constant [25 x i8] c"No end quote for string.\00", align 1
@.str.7 = private unnamed_addr constant [29 x i8] c"Unterminated string literal.\00", align 1
@.str.8 = private unnamed_addr constant [20 x i8] c"Mis-matched '#end'.\00", align 1
@_ZN3pov13Ok_To_DeclareE = external dso_local global i16, align 2
@.str.9 = private unnamed_addr constant [21 x i8] c"Mis-matched '#else'.\00", align 1
@.str.10 = private unnamed_addr constant [41 x i8] c"#switch not followed by #case or #range.\00", align 1
@.str.11 = private unnamed_addr constant [33 x i8] c"Mis-matched '#case' or '#range'.\00", align 1
@.str.12 = private unnamed_addr constant [50 x i8] c"#while loop did not end in file where it started.\00", align 1
@.str.13 = private unnamed_addr constant [51 x i8] c"Unable to seek in input file for #while directive.\00", align 1
@.str.14 = private unnamed_addr constant [11 x i8] c"unofficial\00", align 1
@.str.15 = private unnamed_addr constant [98 x i8] c"This file was created for an unofficial version and\0Acannot work as-is with this official version.\00", align 1
@.str.16 = private unnamed_addr constant [55 x i8] c"Your scene file requires POV-Ray version %g or later!\0A\00", align 1
@.str.17 = private unnamed_addr constant [21 x i8] c"object or directive.\00", align 1
@.str.18 = private unnamed_addr constant [3 x i8] c"%s\00", align 1
@.str.19 = private unnamed_addr constant [53 x i8] c"User message '%s'\0AParsing stopped at user's request!\00", align 1
@.str.20 = private unnamed_addr constant [94 x i8] c"#render and #statistics streams are no longer available.\0ARedirecting output to #debug stream.\00", align 1
@.str.21 = private unnamed_addr constant [36 x i8] c"Attempt to undef unknown identifier\00", align 1
@.str.22 = private unnamed_addr constant [30 x i8] c"Cannot nest macro definitions\00", align 1
@.str.23 = private unnamed_addr constant [34 x i8] c"Expecting a string after INCLUDE.\00", align 1
@.str.24 = private unnamed_addr constant [31 x i8] c"Too many nested include files.\00", align 1
@.str.25 = private unnamed_addr constant [29 x i8] c"Cannot open include file %s.\00", align 1
@.str.26 = private unnamed_addr constant [19 x i8] c"symbol table entry\00", align 1
@.str.27 = private unnamed_addr constant [6 x i8] c"array\00", align 1
@.str.28 = private unnamed_addr constant [26 x i8] c"Too many array dimensions\00", align 1
@.str.29 = private unnamed_addr constant [36 x i8] c"Invalid dimension size for an array\00", align 1
@.str.30 = private unnamed_addr constant [54 x i8] c"An array declaration must have at least one dimension\00", align 1
@.str.31 = private unnamed_addr constant [19 x i8] c"Negative subscript\00", align 1
@.str.32 = private unnamed_addr constant [29 x i8] c"Array subscript out of range\00", align 1
@.str.33 = private unnamed_addr constant [36 x i8] c"Cannot open include header file %s.\00", align 1
@.str.34 = private unnamed_addr constant [29 x i8] c"No */ closing comment found.\00", align 1
@.str.35 = private unnamed_addr constant [9 x i8] c"C String\00", align 1
@.str.36 = private unnamed_addr constant [17 x i8] c"String too long.\00", align 1
@.str.37 = private unnamed_addr constant [22 x i8] c"String Literal Buffer\00", align 1
@.str.38 = private unnamed_addr constant [24 x i8] c"Unexpected end of file.\00", align 1
@.str.39 = private unnamed_addr constant [23 x i8] c"Unexpected end of file\00", align 1
@.str.40 = private unnamed_addr constant [23 x i8] c"Invalid decimal number\00", align 1
@.str.41 = private unnamed_addr constant [4 x i8] c"%lf\00", align 1
@_ZN3pov9LValue_OkE = external dso_local global i16, align 2
@.str.42 = private unnamed_addr constant [47 x i8] c"Attempt to access uninitialized array element.\00", align 1
@.str.43 = private unnamed_addr constant [15 x i8] c"reserved words\00", align 1
@_ZN3pov14Reserved_WordsE = external dso_local global [535 x %"struct.pov::Reserved_Word_Struct"], align 16
@.str.44 = private unnamed_addr constant [19 x i8] c"global identifiers\00", align 1
@.str.45 = private unnamed_addr constant [30 x i8] c"Too many nested symbol tables\00", align 1
@.str.46 = private unnamed_addr constant [13 x i8] c"symbol table\00", align 1
@.str.47 = private unnamed_addr constant [23 x i8] c"Invalid array element!\00", align 1
@.str.48 = private unnamed_addr constant [31 x i8] c"Tried to free undefined symbol\00", align 1
@.str.49 = private unnamed_addr constant [6 x i8] c"macro\00", align 1
@.str.50 = private unnamed_addr constant [52 x i8] c"Can't invoke a macro while declaring its parameters\00", align 1
@.str.51 = private unnamed_addr constant [26 x i8] c"identifier or expression.\00", align 1
@.str.52 = private unnamed_addr constant [20 x i8] c"Too many parameters\00", align 1
@.str.53 = private unnamed_addr constant [66 x i8] c"Macros require #version 3.1 or later but #version %x.%02d is set.\00", align 1
@.str.54 = private unnamed_addr constant [22 x i8] c"Error in Invoke_Macro\00", align 1
@.str.55 = private unnamed_addr constant [11 x i8] c"parameters\00", align 1
@.str.56 = private unnamed_addr constant [42 x i8] c"Expected %d parameters but only %d found.\00", align 1
@.str.57 = private unnamed_addr constant [29 x i8] c"Cannot open macro file '%s'.\00", align 1
@.str.58 = private unnamed_addr constant [30 x i8] c"Unable to file seek in macro.\00", align 1
@.str.59 = private unnamed_addr constant [42 x i8] c"Unable to file seek in return from macro.\00", align 1
@.str.60 = private unnamed_addr constant [35 x i8] c"Insufficent number of initializers\00", align 1
@.str.61 = private unnamed_addr constant [10 x i8] c"user file\00", align 1
@.str.62 = private unnamed_addr constant [33 x i8] c"Cannot open user file %s (read).\00", align 1
@.str.63 = private unnamed_addr constant [34 x i8] c"Cannot open user file %s (write).\00", align 1
@.str.64 = private unnamed_addr constant [35 x i8] c"Cannot open user file %s (append).\00", align 1
@.str.65 = private unnamed_addr constant [14 x i8] c"read or write\00", align 1
@.str.66 = private unnamed_addr constant [68 x i8] c"Cannot read from file %s because the file is open for writing only.\00", align 1
@.str.67 = private unnamed_addr constant [70 x i8] c"Cannot read from file '%s' because the file is open for writing only.\00", align 1
@.str.68 = private unnamed_addr constant [21 x i8] c"Vector data too long\00", align 1
@.str.69 = private unnamed_addr constant [7 x i8] c"vector\00", align 1
@.str.70 = private unnamed_addr constant [33 x i8] c"float, vector, or string literal\00", align 1
@.str.71 = private unnamed_addr constant [67 x i8] c"Cannot write to file %s because the file is open for reading only.\00", align 1
@.str.72 = private unnamed_addr constant [3 x i8] c"%c\00", align 1
@.str.73 = private unnamed_addr constant [3 x i8] c"%g\00", align 1
@.str.74 = private unnamed_addr constant [9 x i8] c"<%g,%g> \00", align 1
@.str.75 = private unnamed_addr constant [12 x i8] c"<%g,%g,%g> \00", align 1
@.str.76 = private unnamed_addr constant [15 x i8] c"<%g,%g,%g,%g> \00", align 1
@.str.77 = private unnamed_addr constant [18 x i8] c"<%g,%g,%g,%g,%g> \00", align 1
@.str.78 = private unnamed_addr constant [11 x i8] c"expression\00", align 1
@.str.79 = private unnamed_addr constant [7 x i8] c"string\00", align 1
@.str.80 = private unnamed_addr constant [40 x i8] c"Too many nested conditionals or macros.\00", align 1

; Function Attrs: noinline uwtable
define dso_local void @_ZN3pov20Initialize_TokenizerEv() #0 personality i8* bitcast (i32 (...)* @__gxx_personality_v0 to i8*) !dbg !1901 {
entry:
  %rfile = alloca %"class.pov_base::IStream"*, align 8
  %b = alloca [4096 x i8], align 16
  %c = alloca i32, align 4
  %exn.slot = alloca i8*
  %ehselector.slot = alloca i32
  call void @llvm.dbg.declare(metadata %"class.pov_base::IStream"** %rfile, metadata !1903, metadata !DIExpression()), !dbg !1906
  store %"class.pov_base::IStream"* null, %"class.pov_base::IStream"** %rfile, align 8, !dbg !1906
  call void @llvm.dbg.declare(metadata [4096 x i8]* %b, metadata !1907, metadata !DIExpression()), !dbg !1911
  call void @llvm.dbg.declare(metadata i32* %c, metadata !1912, metadata !DIExpression()), !dbg !1913
  store i32 11, i32* @_ZN3pov5StageE, align 4, !dbg !1914
  call void @_ZN3pov18pre_init_tokenizerEv(), !dbg !1915
  %0 = load i32, i32* getelementptr inbounds (%"struct.pov::OPTIONS_STRUCT", %"struct.pov::OPTIONS_STRUCT"* @_ZN3pov4optsE, i32 0, i32 0), align 8, !dbg !1916
  %conv = zext i32 %0 to i64, !dbg !1918
  %and = and i64 %conv, 524288, !dbg !1919
  %tobool = icmp ne i64 %and, 0, !dbg !1918
  br i1 %tobool, label %if.then, label %if.else, !dbg !1920

if.then:                                          ; preds = %entry
  %call = call %"class.pov_base::IStream"* @_ZN8pov_base11New_IStreamEPKcj(i8* getelementptr inbounds ([6 x i8], [6 x i8]* @.str, i64 0, i64 0), i32 10), !dbg !1921
  store %"class.pov_base::IStream"* %call, %"class.pov_base::IStream"** %rfile, align 8, !dbg !1923
  %1 = load %"class.pov_base::IStream"*, %"class.pov_base::IStream"** %rfile, align 8, !dbg !1924
  %cmp = icmp ne %"class.pov_base::IStream"* %1, null, !dbg !1926
  br i1 %cmp, label %if.then1, label %if.end, !dbg !1927

if.then1:                                         ; preds = %if.then
  %call2 = call i8* @_Znwm(i64 576) #9, !dbg !1928
  %2 = bitcast i8* %call2 to %"class.pov_base::ITextStream"*, !dbg !1928
  %3 = load %"class.pov_base::IStream"*, %"class.pov_base::IStream"** %rfile, align 8, !dbg !1929
  invoke void @_ZN8pov_base11ITextStreamC1EPKcPNS_7IStreamE(%"class.pov_base::ITextStream"* %2, i8* getelementptr inbounds ([6 x i8], [6 x i8]* @.str, i64 0, i64 0), %"class.pov_base::IStream"* %3)
          to label %invoke.cont unwind label %lpad, !dbg !1930

invoke.cont:                                      ; preds = %if.then1
  %4 = load %"struct.pov::InputFileData"*, %"struct.pov::InputFileData"** @_ZN3pov10Input_FileE, align 8, !dbg !1931
  %In_File = getelementptr inbounds %"struct.pov::InputFileData", %"struct.pov::InputFileData"* %4, i32 0, i32 0, !dbg !1932
  store %"class.pov_base::ITextStream"* %2, %"class.pov_base::ITextStream"** %In_File, align 8, !dbg !1933
  br label %if.end, !dbg !1931

lpad:                                             ; preds = %if.then1
  %5 = landingpad { i8*, i32 }
          cleanup, !dbg !1934
  %6 = extractvalue { i8*, i32 } %5, 0, !dbg !1934
  store i8* %6, i8** %exn.slot, align 8, !dbg !1934
  %7 = extractvalue { i8*, i32 } %5, 1, !dbg !1934
  store i32 %7, i32* %ehselector.slot, align 4, !dbg !1934
  call void @_ZdlPv(i8* %call2) #10, !dbg !1928
  br label %eh.resume, !dbg !1928

if.end:                                           ; preds = %invoke.cont, %if.then
  br label %if.end14, !dbg !1935

if.else:                                          ; preds = %entry
  %arraydecay = getelementptr inbounds [4096 x i8], [4096 x i8]* %b, i64 0, i64 0, !dbg !1936
  %call3 = call %"class.pov_base::IStream"* @_ZN3pov11Locate_FileEPcjS0_b(i8* getelementptr inbounds (%"struct.pov::OPTIONS_STRUCT", %"struct.pov::OPTIONS_STRUCT"* @_ZN3pov4optsE, i32 0, i32 6, i64 0), i32 10, i8* %arraydecay, i1 zeroext true), !dbg !1938
  store %"class.pov_base::IStream"* %call3, %"class.pov_base::IStream"** %rfile, align 8, !dbg !1939
  %8 = load %"class.pov_base::IStream"*, %"class.pov_base::IStream"** %rfile, align 8, !dbg !1940
  %cmp4 = icmp ne %"class.pov_base::IStream"* %8, null, !dbg !1942
  br i1 %cmp4, label %if.then5, label %if.end13, !dbg !1943

if.then5:                                         ; preds = %if.else
  %call6 = call i8* @_Znwm(i64 576) #9, !dbg !1944
  %9 = bitcast i8* %call6 to %"class.pov_base::ITextStream"*, !dbg !1944
  %arraydecay7 = getelementptr inbounds [4096 x i8], [4096 x i8]* %b, i64 0, i64 0, !dbg !1946
  %10 = load %"class.pov_base::IStream"*, %"class.pov_base::IStream"** %rfile, align 8, !dbg !1947
  invoke void @_ZN8pov_base11ITextStreamC1EPKcPNS_7IStreamE(%"class.pov_base::ITextStream"* %9, i8* %arraydecay7, %"class.pov_base::IStream"* %10)
          to label %invoke.cont9 unwind label %lpad8, !dbg !1948

invoke.cont9:                                     ; preds = %if.then5
  %11 = load %"struct.pov::InputFileData"*, %"struct.pov::InputFileData"** @_ZN3pov10Input_FileE, align 8, !dbg !1949
  %In_File10 = getelementptr inbounds %"struct.pov::InputFileData", %"struct.pov::InputFileData"* %11, i32 0, i32 0, !dbg !1950
  store %"class.pov_base::ITextStream"* %9, %"class.pov_base::ITextStream"** %In_File10, align 8, !dbg !1951
  %arraydecay11 = getelementptr inbounds [4096 x i8], [4096 x i8]* %b, i64 0, i64 0, !dbg !1952
  %call12 = call i8* @strcpy(i8* getelementptr inbounds (%"struct.pov::OPTIONS_STRUCT", %"struct.pov::OPTIONS_STRUCT"* @_ZN3pov4optsE, i32 0, i32 6, i64 0), i8* %arraydecay11) #11, !dbg !1953
  br label %if.end13, !dbg !1954

lpad8:                                            ; preds = %if.then5
  %12 = landingpad { i8*, i32 }
          cleanup, !dbg !1955
  %13 = extractvalue { i8*, i32 } %12, 0, !dbg !1955
  store i8* %13, i8** %exn.slot, align 8, !dbg !1955
  %14 = extractvalue { i8*, i32 } %12, 1, !dbg !1955
  store i32 %14, i32* %ehselector.slot, align 4, !dbg !1955
  call void @_ZdlPv(i8* %call6) #10, !dbg !1944
  br label %eh.resume, !dbg !1944

if.end13:                                         ; preds = %invoke.cont9, %if.else
  br label %if.end14

if.end14:                                         ; preds = %if.end13, %if.end
  %15 = load %"struct.pov::InputFileData"*, %"struct.pov::InputFileData"** @_ZN3pov10Input_FileE, align 8, !dbg !1956
  %In_File15 = getelementptr inbounds %"struct.pov::InputFileData", %"struct.pov::InputFileData"* %15, i32 0, i32 0, !dbg !1958
  %16 = load %"class.pov_base::ITextStream"*, %"class.pov_base::ITextStream"** %In_File15, align 8, !dbg !1958
  %cmp16 = icmp eq %"class.pov_base::ITextStream"* %16, null, !dbg !1959
  br i1 %cmp16, label %if.then17, label %if.end19, !dbg !1960

if.then17:                                        ; preds = %if.end14
  %call18 = call i32 (i8*, ...) @_ZN3pov5ErrorEPKcz(i8* getelementptr inbounds ([24 x i8], [24 x i8]* @.str.1, i64 0, i64 0)), !dbg !1961
  br label %if.end19, !dbg !1963

if.end19:                                         ; preds = %if.then17, %if.end14
  %17 = load %"struct.pov::InputFileData"*, %"struct.pov::InputFileData"** @_ZN3pov10Input_FileE, align 8, !dbg !1964
  %R_Flag = getelementptr inbounds %"struct.pov::InputFileData", %"struct.pov::InputFileData"* %17, i32 0, i32 1, !dbg !1965
  store i8 0, i8* %R_Flag, align 8, !dbg !1966
  store i32 0, i32* @_ZN3pov7Got_EOFE, align 4, !dbg !1967
  %call20 = call i8* @_ZN3pov10pov_mallocEmPKciS1_(i64 14400, i8* getelementptr inbounds ([13 x i8], [13 x i8]* @.str.2, i64 0, i64 0), i32 275, i8* getelementptr inbounds ([18 x i8], [18 x i8]* @.str.3, i64 0, i64 0)), !dbg !1968
  %18 = bitcast i8* %call20 to %"struct.pov::Cond_Stack_Entry"*, !dbg !1969
  store %"struct.pov::Cond_Stack_Entry"* %18, %"struct.pov::Cond_Stack_Entry"** @_ZN3pov10Cond_StackE, align 8, !dbg !1970
  %19 = load %"struct.pov::Cond_Stack_Entry"*, %"struct.pov::Cond_Stack_Entry"** @_ZN3pov10Cond_StackE, align 8, !dbg !1971
  %arrayidx = getelementptr inbounds %"struct.pov::Cond_Stack_Entry", %"struct.pov::Cond_Stack_Entry"* %19, i64 0, !dbg !1971
  %Cond_Type = getelementptr inbounds %"struct.pov::Cond_Stack_Entry", %"struct.pov::Cond_Stack_Entry"* %arrayidx, i32 0, i32 0, !dbg !1972
  store i32 0, i32* %Cond_Type, align 8, !dbg !1973
  %20 = load %"struct.pov::Cond_Stack_Entry"*, %"struct.pov::Cond_Stack_Entry"** @_ZN3pov10Cond_StackE, align 8, !dbg !1974
  %arrayidx21 = getelementptr inbounds %"struct.pov::Cond_Stack_Entry", %"struct.pov::Cond_Stack_Entry"* %20, i64 0, !dbg !1974
  %Switch_Value = getelementptr inbounds %"struct.pov::Cond_Stack_Entry", %"struct.pov::Cond_Stack_Entry"* %arrayidx21, i32 0, i32 1, !dbg !1975
  store double 0.000000e+00, double* %Switch_Value, align 8, !dbg !1976
  call void @_ZN3povL15init_sym_tablesEv(), !dbg !1977
  store i32 5, i32* @_ZN3pov15Max_Trace_LevelE, align 4, !dbg !1978
  store i8 0, i8* @_ZN3pov19Had_Max_Trace_LevelE, align 1, !dbg !1979
  %call22 = call i32 @_ZN3povL9Echo_getcEv(), !dbg !1980
  store i32 %call22, i32* %c, align 4, !dbg !1982
  br label %for.cond, !dbg !1983

for.cond:                                         ; preds = %for.inc, %if.end19
  %21 = load i32, i32* %c, align 4, !dbg !1984
  %cmp23 = icmp sgt i32 %21, 127, !dbg !1986
  br i1 %cmp23, label %for.body, label %for.end, !dbg !1987

for.body:                                         ; preds = %for.cond
  store i32 1, i32* getelementptr inbounds (%"struct.pov::OPTIONS_STRUCT", %"struct.pov::OPTIONS_STRUCT"* @_ZN3pov4optsE, i32 0, i32 76), align 4, !dbg !1988
  br label %for.inc, !dbg !1989

for.inc:                                          ; preds = %for.body
  %call24 = call i32 @_ZN3povL9Echo_getcEv(), !dbg !1990
  store i32 %call24, i32* %c, align 4, !dbg !1991
  br label %for.cond, !dbg !1992, !llvm.loop !1993

for.end:                                          ; preds = %for.cond
  %22 = load i32, i32* %c, align 4, !dbg !1995
  call void @_ZN3povL11Echo_ungetcEi(i32 %22), !dbg !1996
  ret void, !dbg !1997

eh.resume:                                        ; preds = %lpad8, %lpad
  %exn = load i8*, i8** %exn.slot, align 8, !dbg !1928
  %sel = load i32, i32* %ehselector.slot, align 4, !dbg !1928
  %lpad.val = insertvalue { i8*, i32 } undef, i8* %exn, 0, !dbg !1928
  %lpad.val25 = insertvalue { i8*, i32 } %lpad.val, i32 %sel, 1, !dbg !1928
  resume { i8*, i32 } %lpad.val25, !dbg !1928
}

; Function Attrs: nounwind readnone speculatable willreturn
declare void @llvm.dbg.declare(metadata, metadata, metadata) #1

; Function Attrs: noinline nounwind uwtable
define dso_local void @_ZN3pov18pre_init_tokenizerEv() #2 !dbg !1998 {
entry:
  %i = alloca i32, align 4
  call void @llvm.dbg.declare(metadata i32* %i, metadata !1999, metadata !DIExpression()), !dbg !2000
  store i32 0, i32* getelementptr inbounds (%"struct.pov::Token_Struct", %"struct.pov::Token_Struct"* @_ZN3pov5TokenE, i32 0, i32 2, i32 1), align 8, !dbg !2001
  store i64 0, i64* getelementptr inbounds (%"struct.pov::Token_Struct", %"struct.pov::Token_Struct"* @_ZN3pov5TokenE, i32 0, i32 2, i32 0), align 8, !dbg !2002
  store i32 0, i32* getelementptr inbounds (%"struct.pov::Token_Struct", %"struct.pov::Token_Struct"* @_ZN3pov5TokenE, i32 0, i32 3), align 8, !dbg !2003
  store i8* null, i8** getelementptr inbounds (%"struct.pov::Token_Struct", %"struct.pov::Token_Struct"* @_ZN3pov5TokenE, i32 0, i32 5), align 8, !dbg !2004
  store i32 0, i32* getelementptr inbounds (%"struct.pov::Token_Struct", %"struct.pov::Token_Struct"* @_ZN3pov5TokenE, i32 0, i32 7), align 8, !dbg !2005
  store i32 0, i32* getelementptr inbounds (%"struct.pov::Token_Struct", %"struct.pov::Token_Struct"* @_ZN3pov5TokenE, i32 0, i32 8), align 4, !dbg !2006
  store i8* null, i8** getelementptr inbounds (%"struct.pov::Token_Struct", %"struct.pov::Token_Struct"* @_ZN3pov5TokenE, i32 0, i32 10), align 8, !dbg !2007
  store i32 10, i32* @_ZN3pov10line_countE, align 4, !dbg !2008
  store i32 0, i32* @_ZN3pov11token_countE, align 4, !dbg !2009
  store i64 0, i64* @_ZN3pov19Current_Token_CountE, align 8, !dbg !2010
  store i32 0, i32* @_ZN3pov18Include_File_IndexE, align 4, !dbg !2011
  store i32 0, i32* @_ZN3pov9Echo_IndxE, align 4, !dbg !2012
  store i32 0, i32* @_ZN3pov8CS_IndexE, align 4, !dbg !2013
  store i32 0, i32* @_ZN3pov8SkippingE, align 4, !dbg !2014
  store i32 0, i32* @_ZN3pov12Inside_IfdefE, align 4, !dbg !2015
  store i32 0, i32* @_ZN3pov15Inside_MacroDefE, align 4, !dbg !2016
  store %"struct.pov::Cond_Stack_Entry"* null, %"struct.pov::Cond_Stack_Entry"** @_ZN3pov10Cond_StackE, align 8, !dbg !2017
  store %"struct.pov::InputFileData"* getelementptr inbounds ([32 x %"struct.pov::InputFileData"], [32 x %"struct.pov::InputFileData"]* @_ZN3pov13Include_FilesE, i64 0, i64 0), %"struct.pov::InputFileData"** @_ZN3pov10Input_FileE, align 8, !dbg !2018
  store i32 -1, i32* @_ZN3pov11Table_IndexE, align 4, !dbg !2019
  store i32 0, i32* %i, align 4, !dbg !2020
  br label %for.cond, !dbg !2022

for.cond:                                         ; preds = %for.inc, %entry
  %0 = load i32, i32* %i, align 4, !dbg !2023
  %cmp = icmp slt i32 %0, 535, !dbg !2025
  br i1 %cmp, label %for.body, label %for.end, !dbg !2026

for.body:                                         ; preds = %for.cond
  %1 = load i32, i32* %i, align 4, !dbg !2027
  %2 = load i32, i32* %i, align 4, !dbg !2029
  %idxprom = sext i32 %2 to i64, !dbg !2030
  %arrayidx = getelementptr inbounds [535 x i32], [535 x i32]* @_ZN3pov21Conversion_Util_TableE, i64 0, i64 %idxprom, !dbg !2030
  store i32 %1, i32* %arrayidx, align 4, !dbg !2031
  %3 = load i32, i32* %i, align 4, !dbg !2032
  %cmp1 = icmp slt i32 %3, 64, !dbg !2034
  br i1 %cmp1, label %if.then, label %if.else, !dbg !2035

if.then:                                          ; preds = %for.body
  %4 = load i32, i32* %i, align 4, !dbg !2036
  %idxprom2 = sext i32 %4 to i64, !dbg !2037
  %arrayidx3 = getelementptr inbounds [535 x i32], [535 x i32]* @_ZN3pov21Conversion_Util_TableE, i64 0, i64 %idxprom2, !dbg !2037
  store i32 64, i32* %arrayidx3, align 4, !dbg !2038
  br label %if.end14, !dbg !2037

if.else:                                          ; preds = %for.body
  %5 = load i32, i32* %i, align 4, !dbg !2039
  %cmp4 = icmp slt i32 %5, 77, !dbg !2042
  br i1 %cmp4, label %if.then5, label %if.else8, !dbg !2043

if.then5:                                         ; preds = %if.else
  %6 = load i32, i32* %i, align 4, !dbg !2044
  %idxprom6 = sext i32 %6 to i64, !dbg !2045
  %arrayidx7 = getelementptr inbounds [535 x i32], [535 x i32]* @_ZN3pov21Conversion_Util_TableE, i64 0, i64 %idxprom6, !dbg !2045
  store i32 77, i32* %arrayidx7, align 4, !dbg !2046
  br label %if.end13, !dbg !2045

if.else8:                                         ; preds = %if.else
  %7 = load i32, i32* %i, align 4, !dbg !2047
  %cmp9 = icmp slt i32 %7, 89, !dbg !2050
  br i1 %cmp9, label %if.then10, label %if.end, !dbg !2051

if.then10:                                        ; preds = %if.else8
  %8 = load i32, i32* %i, align 4, !dbg !2052
  %idxprom11 = sext i32 %8 to i64, !dbg !2053
  %arrayidx12 = getelementptr inbounds [535 x i32], [535 x i32]* @_ZN3pov21Conversion_Util_TableE, i64 0, i64 %idxprom11, !dbg !2053
  store i32 89, i32* %arrayidx12, align 4, !dbg !2054
  br label %if.end, !dbg !2053

if.end:                                           ; preds = %if.then10, %if.else8
  br label %if.end13

if.end13:                                         ; preds = %if.end, %if.then5
  br label %if.end14

if.end14:                                         ; preds = %if.end13, %if.then
  br label %for.inc, !dbg !2055

for.inc:                                          ; preds = %if.end14
  %9 = load i32, i32* %i, align 4, !dbg !2056
  %inc = add nsw i32 %9, 1, !dbg !2056
  store i32 %inc, i32* %i, align 4, !dbg !2056
  br label %for.cond, !dbg !2057, !llvm.loop !2058

for.end:                                          ; preds = %for.cond
  ret void, !dbg !2060
}

declare dso_local %"class.pov_base::IStream"* @_ZN8pov_base11New_IStreamEPKcj(i8*, i32) #3

; Function Attrs: nobuiltin
declare dso_local noalias i8* @_Znwm(i64) #4

declare dso_local void @_ZN8pov_base11ITextStreamC1EPKcPNS_7IStreamE(%"class.pov_base::ITextStream"*, i8*, %"class.pov_base::IStream"*) unnamed_addr #3

declare dso_local i32 @__gxx_personality_v0(...)

; Function Attrs: nobuiltin nounwind
declare dso_local void @_ZdlPv(i8*) #5

declare dso_local %"class.pov_base::IStream"* @_ZN3pov11Locate_FileEPcjS0_b(i8*, i32, i8*, i1 zeroext) #3

; Function Attrs: nounwind
declare dso_local i8* @strcpy(i8*, i8*) #6

declare dso_local i32 @_ZN3pov5ErrorEPKcz(i8*, ...) #3

declare dso_local i8* @_ZN3pov10pov_mallocEmPKciS1_(i64, i8*, i32, i8*) #3

; Function Attrs: noinline uwtable
define internal void @_ZN3povL15init_sym_tablesEv() #0 !dbg !2061 {
entry:
  %i = alloca i32, align 4
  call void @llvm.dbg.declare(metadata i32* %i, metadata !2062, metadata !DIExpression()), !dbg !2063
  call void @_ZN3povL13Add_Sym_TableEPKc(i8* getelementptr inbounds ([15 x i8], [15 x i8]* @.str.43, i64 0, i64 0)), !dbg !2064
  store i32 0, i32* %i, align 4, !dbg !2065
  br label %for.cond, !dbg !2067

for.cond:                                         ; preds = %for.inc, %entry
  %0 = load i32, i32* %i, align 4, !dbg !2068
  %cmp = icmp slt i32 %0, 535, !dbg !2070
  br i1 %cmp, label %for.body, label %for.end, !dbg !2071

for.body:                                         ; preds = %for.cond
  %1 = load i32, i32* %i, align 4, !dbg !2072
  %idxprom = sext i32 %1 to i64, !dbg !2074
  %arrayidx = getelementptr inbounds [535 x %"struct.pov::Reserved_Word_Struct"], [535 x %"struct.pov::Reserved_Word_Struct"]* @_ZN3pov14Reserved_WordsE, i64 0, i64 %idxprom, !dbg !2074
  %Token_Name = getelementptr inbounds %"struct.pov::Reserved_Word_Struct", %"struct.pov::Reserved_Word_Struct"* %arrayidx, i32 0, i32 1, !dbg !2075
  %2 = load i8*, i8** %Token_Name, align 8, !dbg !2075
  %3 = load i32, i32* %i, align 4, !dbg !2076
  %idxprom1 = sext i32 %3 to i64, !dbg !2077
  %arrayidx2 = getelementptr inbounds [535 x %"struct.pov::Reserved_Word_Struct"], [535 x %"struct.pov::Reserved_Word_Struct"]* @_ZN3pov14Reserved_WordsE, i64 0, i64 %idxprom1, !dbg !2077
  %Token_Number = getelementptr inbounds %"struct.pov::Reserved_Word_Struct", %"struct.pov::Reserved_Word_Struct"* %arrayidx2, i32 0, i32 0, !dbg !2078
  %4 = load i32, i32* %Token_Number, align 16, !dbg !2078
  %call = call %"struct.pov::Sym_Table_Entry"* @_ZN3pov10Add_SymbolEiPKci(i32 0, i8* %2, i32 %4), !dbg !2079
  br label %for.inc, !dbg !2080

for.inc:                                          ; preds = %for.body
  %5 = load i32, i32* %i, align 4, !dbg !2081
  %inc = add nsw i32 %5, 1, !dbg !2081
  store i32 %inc, i32* %i, align 4, !dbg !2081
  br label %for.cond, !dbg !2082, !llvm.loop !2083

for.end:                                          ; preds = %for.cond
  call void @_ZN3povL13Add_Sym_TableEPKc(i8* getelementptr inbounds ([19 x i8], [19 x i8]* @.str.44, i64 0, i64 0)), !dbg !2085
  ret void, !dbg !2086
}

; Function Attrs: noinline uwtable
define internal i32 @_ZN3povL9Echo_getcEv() #0 !dbg !2087 {
entry:
  %retval = alloca i32, align 4
  %c = alloca i32, align 4
  call void @llvm.dbg.declare(metadata i32* %c, metadata !2088, metadata !DIExpression()), !dbg !2089
  %0 = load %"struct.pov::InputFileData"*, %"struct.pov::InputFileData"** @_ZN3pov10Input_FileE, align 8, !dbg !2090
  %cmp = icmp eq %"struct.pov::InputFileData"* %0, null, !dbg !2092
  br i1 %cmp, label %if.then, label %lor.lhs.false, !dbg !2093

lor.lhs.false:                                    ; preds = %entry
  %1 = load %"struct.pov::InputFileData"*, %"struct.pov::InputFileData"** @_ZN3pov10Input_FileE, align 8, !dbg !2094
  %In_File = getelementptr inbounds %"struct.pov::InputFileData", %"struct.pov::InputFileData"* %1, i32 0, i32 0, !dbg !2095
  %2 = load %"class.pov_base::ITextStream"*, %"class.pov_base::ITextStream"** %In_File, align 8, !dbg !2095
  %cmp1 = icmp eq %"class.pov_base::ITextStream"* %2, null, !dbg !2096
  br i1 %cmp1, label %if.then, label %lor.lhs.false2, !dbg !2097

lor.lhs.false2:                                   ; preds = %lor.lhs.false
  %3 = load %"struct.pov::InputFileData"*, %"struct.pov::InputFileData"** @_ZN3pov10Input_FileE, align 8, !dbg !2098
  %In_File3 = getelementptr inbounds %"struct.pov::InputFileData", %"struct.pov::InputFileData"* %3, i32 0, i32 0, !dbg !2099
  %4 = load %"class.pov_base::ITextStream"*, %"class.pov_base::ITextStream"** %In_File3, align 8, !dbg !2099
  %call = call i32 @_ZN8pov_base11ITextStream7getcharEv(%"class.pov_base::ITextStream"* %4), !dbg !2100
  store i32 %call, i32* %c, align 4, !dbg !2101
  %cmp4 = icmp eq i32 %call, -1, !dbg !2102
  br i1 %cmp4, label %if.then, label %if.end6, !dbg !2103

if.then:                                          ; preds = %lor.lhs.false2, %lor.lhs.false, %entry
  %5 = load i32, i32* @_ZN3pov7Got_EOFE, align 4, !dbg !2104
  %tobool = icmp ne i32 %5, 0, !dbg !2104
  br i1 %tobool, label %if.then5, label %if.end, !dbg !2107

if.then5:                                         ; preds = %if.then
  store i32 -1, i32* %retval, align 4, !dbg !2108
  br label %return, !dbg !2108

if.end:                                           ; preds = %if.then
  store i32 1, i32* @_ZN3pov7Got_EOFE, align 4, !dbg !2109
  store i32 0, i32* @_ZN3pov9Echo_IndxE, align 4, !dbg !2110
  store i32 10, i32* %retval, align 4, !dbg !2111
  br label %return, !dbg !2111

if.end6:                                          ; preds = %lor.lhs.false2
  %6 = load i32, i32* @_ZN3pov9Echo_IndxE, align 4, !dbg !2112
  %inc = add nsw i32 %6, 1, !dbg !2112
  store i32 %inc, i32* @_ZN3pov9Echo_IndxE, align 4, !dbg !2112
  %7 = load i32, i32* %c, align 4, !dbg !2113
  %cmp7 = icmp eq i32 %7, 10, !dbg !2115
  br i1 %cmp7, label %if.then8, label %if.end9, !dbg !2116

if.then8:                                         ; preds = %if.end6
  store i32 0, i32* @_ZN3pov9Echo_IndxE, align 4, !dbg !2117
  br label %if.end9, !dbg !2118

if.end9:                                          ; preds = %if.then8, %if.end6
  %8 = load i32, i32* %c, align 4, !dbg !2119
  store i32 %8, i32* %retval, align 4, !dbg !2120
  br label %return, !dbg !2120

return:                                           ; preds = %if.end9, %if.end, %if.then5
  %9 = load i32, i32* %retval, align 4, !dbg !2121
  ret i32 %9, !dbg !2121
}

; Function Attrs: noinline uwtable
define internal void @_ZN3povL11Echo_ungetcEi(i32 %c) #0 !dbg !2122 {
entry:
  %c.addr = alloca i32, align 4
  store i32 %c, i32* %c.addr, align 4
  call void @llvm.dbg.declare(metadata i32* %c.addr, metadata !2123, metadata !DIExpression()), !dbg !2124
  %0 = load i32, i32* @_ZN3pov9Echo_IndxE, align 4, !dbg !2125
  %cmp = icmp sgt i32 %0, 0, !dbg !2127
  br i1 %cmp, label %if.then, label %if.end, !dbg !2128

if.then:                                          ; preds = %entry
  %1 = load i32, i32* @_ZN3pov9Echo_IndxE, align 4, !dbg !2129
  %dec = add nsw i32 %1, -1, !dbg !2129
  store i32 %dec, i32* @_ZN3pov9Echo_IndxE, align 4, !dbg !2129
  br label %if.end, !dbg !2130

if.end:                                           ; preds = %if.then, %entry
  %2 = load %"struct.pov::InputFileData"*, %"struct.pov::InputFileData"** @_ZN3pov10Input_FileE, align 8, !dbg !2131
  %In_File = getelementptr inbounds %"struct.pov::InputFileData", %"struct.pov::InputFileData"* %2, i32 0, i32 0, !dbg !2132
  %3 = load %"class.pov_base::ITextStream"*, %"class.pov_base::ITextStream"** %In_File, align 8, !dbg !2132
  %4 = load i32, i32* %c.addr, align 4, !dbg !2133
  call void @_ZN8pov_base11ITextStream9ungetcharEi(%"class.pov_base::ITextStream"* %3, i32 %4), !dbg !2134
  ret void, !dbg !2135
}

; Function Attrs: noinline uwtable
define dso_local void @_ZN3pov19Terminate_TokenizerEv() #0 !dbg !2136 {
entry:
  %i = alloca i32, align 4
  br label %while.cond, !dbg !2137

while.cond:                                       ; preds = %while.body, %entry
  %0 = load i32, i32* @_ZN3pov11Table_IndexE, align 4, !dbg !2138
  %cmp = icmp sge i32 %0, 0, !dbg !2139
  br i1 %cmp, label %while.body, label %while.end, !dbg !2137

while.body:                                       ; preds = %while.cond
  %1 = load i32, i32* @_ZN3pov11Table_IndexE, align 4, !dbg !2140
  %dec = add nsw i32 %1, -1, !dbg !2140
  store i32 %dec, i32* @_ZN3pov11Table_IndexE, align 4, !dbg !2140
  call void @_ZN3povL13Destroy_TableEi(i32 %1), !dbg !2142
  br label %while.cond, !dbg !2137, !llvm.loop !2143

while.end:                                        ; preds = %while.cond
  %2 = load %"struct.pov::InputFileData"*, %"struct.pov::InputFileData"** @_ZN3pov10Input_FileE, align 8, !dbg !2145
  %In_File = getelementptr inbounds %"struct.pov::InputFileData", %"struct.pov::InputFileData"* %2, i32 0, i32 0, !dbg !2147
  %3 = load %"class.pov_base::ITextStream"*, %"class.pov_base::ITextStream"** %In_File, align 8, !dbg !2147
  %cmp1 = icmp ne %"class.pov_base::ITextStream"* %3, null, !dbg !2148
  br i1 %cmp1, label %if.then, label %if.end, !dbg !2149

if.then:                                          ; preds = %while.end
  %4 = load %"struct.pov::InputFileData"*, %"struct.pov::InputFileData"** @_ZN3pov10Input_FileE, align 8, !dbg !2150
  %In_File2 = getelementptr inbounds %"struct.pov::InputFileData", %"struct.pov::InputFileData"* %4, i32 0, i32 0, !dbg !2152
  %5 = load %"class.pov_base::ITextStream"*, %"class.pov_base::ITextStream"** %In_File2, align 8, !dbg !2152
  %isnull = icmp eq %"class.pov_base::ITextStream"* %5, null, !dbg !2153
  br i1 %isnull, label %delete.end, label %delete.notnull, !dbg !2153

delete.notnull:                                   ; preds = %if.then
  %6 = bitcast %"class.pov_base::ITextStream"* %5 to void (%"class.pov_base::ITextStream"*)***, !dbg !2153
  %vtable = load void (%"class.pov_base::ITextStream"*)**, void (%"class.pov_base::ITextStream"*)*** %6, align 8, !dbg !2153
  %vfn = getelementptr inbounds void (%"class.pov_base::ITextStream"*)*, void (%"class.pov_base::ITextStream"*)** %vtable, i64 1, !dbg !2153
  %7 = load void (%"class.pov_base::ITextStream"*)*, void (%"class.pov_base::ITextStream"*)** %vfn, align 8, !dbg !2153
  call void %7(%"class.pov_base::ITextStream"* %5) #11, !dbg !2153
  br label %delete.end, !dbg !2153

delete.end:                                       ; preds = %delete.notnull, %if.then
  %8 = load %"struct.pov::InputFileData"*, %"struct.pov::InputFileData"** @_ZN3pov10Input_FileE, align 8, !dbg !2154
  %In_File3 = getelementptr inbounds %"struct.pov::InputFileData", %"struct.pov::InputFileData"* %8, i32 0, i32 0, !dbg !2155
  store %"class.pov_base::ITextStream"* null, %"class.pov_base::ITextStream"** %In_File3, align 8, !dbg !2156
  store i32 0, i32* @_ZN3pov7Got_EOFE, align 4, !dbg !2157
  br label %if.end, !dbg !2158

if.end:                                           ; preds = %delete.end, %while.end
  br label %while.cond4, !dbg !2159

while.cond4:                                      ; preds = %if.end18, %if.end
  %9 = load i32, i32* @_ZN3pov18Include_File_IndexE, align 4, !dbg !2160
  %cmp5 = icmp sge i32 %9, 0, !dbg !2161
  br i1 %cmp5, label %while.body6, label %while.end19, !dbg !2159

while.body6:                                      ; preds = %while.cond4
  %10 = load i32, i32* @_ZN3pov18Include_File_IndexE, align 4, !dbg !2162
  %dec7 = add nsw i32 %10, -1, !dbg !2162
  store i32 %dec7, i32* @_ZN3pov18Include_File_IndexE, align 4, !dbg !2162
  %idxprom = sext i32 %10 to i64, !dbg !2164
  %arrayidx = getelementptr inbounds [32 x %"struct.pov::InputFileData"], [32 x %"struct.pov::InputFileData"]* @_ZN3pov13Include_FilesE, i64 0, i64 %idxprom, !dbg !2164
  store %"struct.pov::InputFileData"* %arrayidx, %"struct.pov::InputFileData"** @_ZN3pov10Input_FileE, align 8, !dbg !2165
  %11 = load %"struct.pov::InputFileData"*, %"struct.pov::InputFileData"** @_ZN3pov10Input_FileE, align 8, !dbg !2166
  %In_File8 = getelementptr inbounds %"struct.pov::InputFileData", %"struct.pov::InputFileData"* %11, i32 0, i32 0, !dbg !2168
  %12 = load %"class.pov_base::ITextStream"*, %"class.pov_base::ITextStream"** %In_File8, align 8, !dbg !2168
  %cmp9 = icmp ne %"class.pov_base::ITextStream"* %12, null, !dbg !2169
  br i1 %cmp9, label %if.then10, label %if.end18, !dbg !2170

if.then10:                                        ; preds = %while.body6
  %13 = load %"struct.pov::InputFileData"*, %"struct.pov::InputFileData"** @_ZN3pov10Input_FileE, align 8, !dbg !2171
  %In_File11 = getelementptr inbounds %"struct.pov::InputFileData", %"struct.pov::InputFileData"* %13, i32 0, i32 0, !dbg !2173
  %14 = load %"class.pov_base::ITextStream"*, %"class.pov_base::ITextStream"** %In_File11, align 8, !dbg !2173
  %isnull12 = icmp eq %"class.pov_base::ITextStream"* %14, null, !dbg !2174
  br i1 %isnull12, label %delete.end16, label %delete.notnull13, !dbg !2174

delete.notnull13:                                 ; preds = %if.then10
  %15 = bitcast %"class.pov_base::ITextStream"* %14 to void (%"class.pov_base::ITextStream"*)***, !dbg !2174
  %vtable14 = load void (%"class.pov_base::ITextStream"*)**, void (%"class.pov_base::ITextStream"*)*** %15, align 8, !dbg !2174
  %vfn15 = getelementptr inbounds void (%"class.pov_base::ITextStream"*)*, void (%"class.pov_base::ITextStream"*)** %vtable14, i64 1, !dbg !2174
  %16 = load void (%"class.pov_base::ITextStream"*)*, void (%"class.pov_base::ITextStream"*)** %vfn15, align 8, !dbg !2174
  call void %16(%"class.pov_base::ITextStream"* %14) #11, !dbg !2174
  br label %delete.end16, !dbg !2174

delete.end16:                                     ; preds = %delete.notnull13, %if.then10
  %17 = load %"struct.pov::InputFileData"*, %"struct.pov::InputFileData"** @_ZN3pov10Input_FileE, align 8, !dbg !2175
  %In_File17 = getelementptr inbounds %"struct.pov::InputFileData", %"struct.pov::InputFileData"* %17, i32 0, i32 0, !dbg !2176
  store %"class.pov_base::ITextStream"* null, %"class.pov_base::ITextStream"** %In_File17, align 8, !dbg !2177
  store i32 0, i32* @_ZN3pov7Got_EOFE, align 4, !dbg !2178
  br label %if.end18, !dbg !2179

if.end18:                                         ; preds = %delete.end16, %while.body6
  br label %while.cond4, !dbg !2159, !llvm.loop !2180

while.end19:                                      ; preds = %while.cond4
  %18 = load %"struct.pov::Cond_Stack_Entry"*, %"struct.pov::Cond_Stack_Entry"** @_ZN3pov10Cond_StackE, align 8, !dbg !2182
  %cmp20 = icmp ne %"struct.pov::Cond_Stack_Entry"* %18, null, !dbg !2184
  br i1 %cmp20, label %if.then21, label %if.end38, !dbg !2185

if.then21:                                        ; preds = %while.end19
  call void @llvm.dbg.declare(metadata i32* %i, metadata !2186, metadata !DIExpression()), !dbg !2189
  store i32 0, i32* %i, align 4, !dbg !2189
  br label %for.cond, !dbg !2190

for.cond:                                         ; preds = %for.inc, %if.then21
  %19 = load i32, i32* %i, align 4, !dbg !2191
  %20 = load i32, i32* @_ZN3pov8CS_IndexE, align 4, !dbg !2193
  %cmp22 = icmp sle i32 %19, %20, !dbg !2194
  br i1 %cmp22, label %for.body, label %for.end, !dbg !2195

for.body:                                         ; preds = %for.cond
  %21 = load %"struct.pov::Cond_Stack_Entry"*, %"struct.pov::Cond_Stack_Entry"** @_ZN3pov10Cond_StackE, align 8, !dbg !2196
  %22 = load i32, i32* %i, align 4, !dbg !2199
  %idxprom23 = sext i32 %22 to i64, !dbg !2196
  %arrayidx24 = getelementptr inbounds %"struct.pov::Cond_Stack_Entry", %"struct.pov::Cond_Stack_Entry"* %21, i64 %idxprom23, !dbg !2196
  %Cond_Type = getelementptr inbounds %"struct.pov::Cond_Stack_Entry", %"struct.pov::Cond_Stack_Entry"* %arrayidx24, i32 0, i32 0, !dbg !2200
  %23 = load i32, i32* %Cond_Type, align 8, !dbg !2200
  %cmp25 = icmp eq i32 %23, 9, !dbg !2201
  br i1 %cmp25, label %land.lhs.true, label %if.end37, !dbg !2202

land.lhs.true:                                    ; preds = %for.body
  %24 = load %"struct.pov::Cond_Stack_Entry"*, %"struct.pov::Cond_Stack_Entry"** @_ZN3pov10Cond_StackE, align 8, !dbg !2203
  %25 = load i32, i32* %i, align 4, !dbg !2204
  %idxprom26 = sext i32 %25 to i64, !dbg !2203
  %arrayidx27 = getelementptr inbounds %"struct.pov::Cond_Stack_Entry", %"struct.pov::Cond_Stack_Entry"* %24, i64 %idxprom26, !dbg !2203
  %Macro_Same_Flag = getelementptr inbounds %"struct.pov::Cond_Stack_Entry", %"struct.pov::Cond_Stack_Entry"* %arrayidx27, i32 0, i32 5, !dbg !2205
  %26 = load i32, i32* %Macro_Same_Flag, align 8, !dbg !2205
  %cmp28 = icmp eq i32 %26, 0, !dbg !2206
  br i1 %cmp28, label %if.then29, label %if.end37, !dbg !2207

if.then29:                                        ; preds = %land.lhs.true
  %27 = load %"struct.pov::Cond_Stack_Entry"*, %"struct.pov::Cond_Stack_Entry"** @_ZN3pov10Cond_StackE, align 8, !dbg !2208
  %28 = load i32, i32* %i, align 4, !dbg !2209
  %idxprom30 = sext i32 %28 to i64, !dbg !2208
  %arrayidx31 = getelementptr inbounds %"struct.pov::Cond_Stack_Entry", %"struct.pov::Cond_Stack_Entry"* %27, i64 %idxprom30, !dbg !2208
  %Macro_File = getelementptr inbounds %"struct.pov::Cond_Stack_Entry", %"struct.pov::Cond_Stack_Entry"* %arrayidx31, i32 0, i32 3, !dbg !2210
  %29 = load %"class.pov_base::ITextStream"*, %"class.pov_base::ITextStream"** %Macro_File, align 8, !dbg !2210
  %isnull32 = icmp eq %"class.pov_base::ITextStream"* %29, null, !dbg !2211
  br i1 %isnull32, label %delete.end36, label %delete.notnull33, !dbg !2211

delete.notnull33:                                 ; preds = %if.then29
  %30 = bitcast %"class.pov_base::ITextStream"* %29 to void (%"class.pov_base::ITextStream"*)***, !dbg !2211
  %vtable34 = load void (%"class.pov_base::ITextStream"*)**, void (%"class.pov_base::ITextStream"*)*** %30, align 8, !dbg !2211
  %vfn35 = getelementptr inbounds void (%"class.pov_base::ITextStream"*)*, void (%"class.pov_base::ITextStream"*)** %vtable34, i64 1, !dbg !2211
  %31 = load void (%"class.pov_base::ITextStream"*)*, void (%"class.pov_base::ITextStream"*)** %vfn35, align 8, !dbg !2211
  call void %31(%"class.pov_base::ITextStream"* %29) #11, !dbg !2211
  br label %delete.end36, !dbg !2211

delete.end36:                                     ; preds = %delete.notnull33, %if.then29
  br label %if.end37, !dbg !2211

if.end37:                                         ; preds = %delete.end36, %land.lhs.true, %for.body
  br label %for.inc, !dbg !2212

for.inc:                                          ; preds = %if.end37
  %32 = load i32, i32* %i, align 4, !dbg !2213
  %inc = add nsw i32 %32, 1, !dbg !2213
  store i32 %inc, i32* %i, align 4, !dbg !2213
  br label %for.cond, !dbg !2214, !llvm.loop !2215

for.end:                                          ; preds = %for.cond
  %33 = load %"struct.pov::Cond_Stack_Entry"*, %"struct.pov::Cond_Stack_Entry"** @_ZN3pov10Cond_StackE, align 8, !dbg !2217
  %34 = bitcast %"struct.pov::Cond_Stack_Entry"* %33 to i8*, !dbg !2217
  call void @_ZN3pov8pov_freeEPvPKci(i8* %34, i8* getelementptr inbounds ([13 x i8], [13 x i8]* @.str.2, i64 0, i64 0), i32 407), !dbg !2217
  store %"struct.pov::Cond_Stack_Entry"* null, %"struct.pov::Cond_Stack_Entry"** @_ZN3pov10Cond_StackE, align 8, !dbg !2217
  store %"struct.pov::Cond_Stack_Entry"* null, %"struct.pov::Cond_Stack_Entry"** @_ZN3pov10Cond_StackE, align 8, !dbg !2219
  br label %if.end38, !dbg !2220

if.end38:                                         ; preds = %for.end, %while.end19
  %35 = load i8*, i8** @_ZN3pov6StringE, align 8, !dbg !2221
  %cmp39 = icmp ne i8* %35, null, !dbg !2223
  br i1 %cmp39, label %land.lhs.true40, label %if.end43, !dbg !2224

land.lhs.true40:                                  ; preds = %if.end38
  %36 = load i8*, i8** @_ZN3pov6StringE, align 8, !dbg !2225
  %cmp41 = icmp ne i8* %36, getelementptr inbounds ([256 x i8], [256 x i8]* @_ZN3pov18String_Fast_BufferE, i64 0, i64 0), !dbg !2226
  br i1 %cmp41, label %if.then42, label %if.end43, !dbg !2227

if.then42:                                        ; preds = %land.lhs.true40
  %37 = load i8*, i8** @_ZN3pov6StringE, align 8, !dbg !2228
  call void @_ZN3pov8pov_freeEPvPKci(i8* %37, i8* getelementptr inbounds ([13 x i8], [13 x i8]* @.str.2, i64 0, i64 0), i32 413), !dbg !2228
  store i8* null, i8** @_ZN3pov6StringE, align 8, !dbg !2228
  br label %if.end43, !dbg !2228

if.end43:                                         ; preds = %if.then42, %land.lhs.true40, %if.end38
  store i8* null, i8** @_ZN3pov6StringE, align 8, !dbg !2230
  %38 = load i8*, i8** @_ZN3pov7String2E, align 8, !dbg !2231
  %cmp44 = icmp ne i8* %38, null, !dbg !2233
  br i1 %cmp44, label %land.lhs.true45, label %if.end48, !dbg !2234

land.lhs.true45:                                  ; preds = %if.end43
  %39 = load i8*, i8** @_ZN3pov7String2E, align 8, !dbg !2235
  %cmp46 = icmp ne i8* %39, getelementptr inbounds ([256 x i8], [256 x i8]* @_ZN3pov18String_Fast_BufferE, i64 0, i64 0), !dbg !2236
  br i1 %cmp46, label %if.then47, label %if.end48, !dbg !2237

if.then47:                                        ; preds = %land.lhs.true45
  %40 = load i8*, i8** @_ZN3pov7String2E, align 8, !dbg !2238
  call void @_ZN3pov8pov_freeEPvPKci(i8* %40, i8* getelementptr inbounds ([13 x i8], [13 x i8]* @.str.2, i64 0, i64 0), i32 417), !dbg !2238
  store i8* null, i8** @_ZN3pov7String2E, align 8, !dbg !2238
  br label %if.end48, !dbg !2238

if.end48:                                         ; preds = %if.then47, %land.lhs.true45, %if.end43
  store i8* null, i8** @_ZN3pov7String2E, align 8, !dbg !2240
  ret void, !dbg !2241
}

; Function Attrs: noinline uwtable
define internal void @_ZN3povL13Destroy_TableEi(i32 %index) #0 !dbg !2242 {
entry:
  %index.addr = alloca i32, align 4
  %i = alloca i32, align 4
  %Table = alloca %"struct.pov::Sym_Table_Struct"*, align 8
  %Entry = alloca %"struct.pov::Sym_Table_Entry"*, align 8
  store i32 %index, i32* %index.addr, align 4
  call void @llvm.dbg.declare(metadata i32* %index.addr, metadata !2243, metadata !DIExpression()), !dbg !2244
  call void @llvm.dbg.declare(metadata i32* %i, metadata !2245, metadata !DIExpression()), !dbg !2246
  call void @llvm.dbg.declare(metadata %"struct.pov::Sym_Table_Struct"** %Table, metadata !2247, metadata !DIExpression()), !dbg !2248
  %0 = load i32, i32* %index.addr, align 4, !dbg !2249
  %idxprom = sext i32 %0 to i64, !dbg !2250
  %arrayidx = getelementptr inbounds [100 x %"struct.pov::Sym_Table_Struct"*], [100 x %"struct.pov::Sym_Table_Struct"*]* @_ZN3pov6TablesE, i64 0, i64 %idxprom, !dbg !2250
  %1 = load %"struct.pov::Sym_Table_Struct"*, %"struct.pov::Sym_Table_Struct"** %arrayidx, align 8, !dbg !2250
  store %"struct.pov::Sym_Table_Struct"* %1, %"struct.pov::Sym_Table_Struct"** %Table, align 8, !dbg !2248
  call void @llvm.dbg.declare(metadata %"struct.pov::Sym_Table_Entry"** %Entry, metadata !2251, metadata !DIExpression()), !dbg !2252
  store i32 256, i32* %i, align 4, !dbg !2253
  br label %for.cond, !dbg !2255

for.cond:                                         ; preds = %for.inc, %entry
  %2 = load i32, i32* %i, align 4, !dbg !2256
  %cmp = icmp sge i32 %2, 0, !dbg !2258
  br i1 %cmp, label %for.body, label %for.end, !dbg !2259

for.body:                                         ; preds = %for.cond
  %3 = load %"struct.pov::Sym_Table_Struct"*, %"struct.pov::Sym_Table_Struct"** %Table, align 8, !dbg !2260
  %Table1 = getelementptr inbounds %"struct.pov::Sym_Table_Struct", %"struct.pov::Sym_Table_Struct"* %3, i32 0, i32 1, !dbg !2262
  %4 = load i32, i32* %i, align 4, !dbg !2263
  %idxprom2 = sext i32 %4 to i64, !dbg !2260
  %arrayidx3 = getelementptr inbounds [257 x %"struct.pov::Sym_Table_Entry"*], [257 x %"struct.pov::Sym_Table_Entry"*]* %Table1, i64 0, i64 %idxprom2, !dbg !2260
  %5 = load %"struct.pov::Sym_Table_Entry"*, %"struct.pov::Sym_Table_Entry"** %arrayidx3, align 8, !dbg !2260
  store %"struct.pov::Sym_Table_Entry"* %5, %"struct.pov::Sym_Table_Entry"** %Entry, align 8, !dbg !2264
  br label %while.cond, !dbg !2265

while.cond:                                       ; preds = %while.body, %for.body
  %6 = load %"struct.pov::Sym_Table_Entry"*, %"struct.pov::Sym_Table_Entry"** %Entry, align 8, !dbg !2266
  %tobool = icmp ne %"struct.pov::Sym_Table_Entry"* %6, null, !dbg !2266
  br i1 %tobool, label %while.body, label %while.end, !dbg !2265

while.body:                                       ; preds = %while.cond
  %7 = load i32, i32* %index.addr, align 4, !dbg !2267
  %8 = load %"struct.pov::Sym_Table_Entry"*, %"struct.pov::Sym_Table_Entry"** %Entry, align 8, !dbg !2269
  %call = call %"struct.pov::Sym_Table_Entry"* @_ZN3pov13Destroy_EntryEiPNS_15Sym_Table_EntryE(i32 %7, %"struct.pov::Sym_Table_Entry"* %8), !dbg !2270
  store %"struct.pov::Sym_Table_Entry"* %call, %"struct.pov::Sym_Table_Entry"** %Entry, align 8, !dbg !2271
  br label %while.cond, !dbg !2265, !llvm.loop !2272

while.end:                                        ; preds = %while.cond
  %9 = load %"struct.pov::Sym_Table_Struct"*, %"struct.pov::Sym_Table_Struct"** %Table, align 8, !dbg !2274
  %Table4 = getelementptr inbounds %"struct.pov::Sym_Table_Struct", %"struct.pov::Sym_Table_Struct"* %9, i32 0, i32 1, !dbg !2275
  %10 = load i32, i32* %i, align 4, !dbg !2276
  %idxprom5 = sext i32 %10 to i64, !dbg !2274
  %arrayidx6 = getelementptr inbounds [257 x %"struct.pov::Sym_Table_Entry"*], [257 x %"struct.pov::Sym_Table_Entry"*]* %Table4, i64 0, i64 %idxprom5, !dbg !2274
  store %"struct.pov::Sym_Table_Entry"* null, %"struct.pov::Sym_Table_Entry"** %arrayidx6, align 8, !dbg !2277
  br label %for.inc, !dbg !2278

for.inc:                                          ; preds = %while.end
  %11 = load i32, i32* %i, align 4, !dbg !2279
  %dec = add nsw i32 %11, -1, !dbg !2279
  store i32 %dec, i32* %i, align 4, !dbg !2279
  br label %for.cond, !dbg !2280, !llvm.loop !2281

for.end:                                          ; preds = %for.cond
  %12 = load %"struct.pov::Sym_Table_Struct"*, %"struct.pov::Sym_Table_Struct"** %Table, align 8, !dbg !2283
  %Table_Name = getelementptr inbounds %"struct.pov::Sym_Table_Struct", %"struct.pov::Sym_Table_Struct"* %12, i32 0, i32 0, !dbg !2283
  %13 = load i8*, i8** %Table_Name, align 8, !dbg !2283
  call void @_ZN3pov8pov_freeEPvPKci(i8* %13, i8* getelementptr inbounds ([13 x i8], [13 x i8]* @.str.2, i64 0, i64 0), i32 2600), !dbg !2283
  %14 = load %"struct.pov::Sym_Table_Struct"*, %"struct.pov::Sym_Table_Struct"** %Table, align 8, !dbg !2283
  %Table_Name7 = getelementptr inbounds %"struct.pov::Sym_Table_Struct", %"struct.pov::Sym_Table_Struct"* %14, i32 0, i32 0, !dbg !2283
  store i8* null, i8** %Table_Name7, align 8, !dbg !2283
  %15 = load %"struct.pov::Sym_Table_Struct"*, %"struct.pov::Sym_Table_Struct"** %Table, align 8, !dbg !2285
  %16 = bitcast %"struct.pov::Sym_Table_Struct"* %15 to i8*, !dbg !2285
  call void @_ZN3pov8pov_freeEPvPKci(i8* %16, i8* getelementptr inbounds ([13 x i8], [13 x i8]* @.str.2, i64 0, i64 0), i32 2601), !dbg !2285
  store %"struct.pov::Sym_Table_Struct"* null, %"struct.pov::Sym_Table_Struct"** %Table, align 8, !dbg !2285
  ret void, !dbg !2287
}

declare dso_local void @_ZN3pov8pov_freeEPvPKci(i8*, i8*, i32) #3

; Function Attrs: noinline uwtable
define dso_local void @_ZN3pov9Get_TokenEv() #0 !dbg !2288 {
entry:
  %c = alloca i32, align 4
  %c2 = alloca i32, align 4
  %col = alloca i32, align 4
  call void @llvm.dbg.declare(metadata i32* %c, metadata !2289, metadata !DIExpression()), !dbg !2290
  call void @llvm.dbg.declare(metadata i32* %c2, metadata !2291, metadata !DIExpression()), !dbg !2292
  call void @llvm.dbg.declare(metadata i32* %col, metadata !2293, metadata !DIExpression()), !dbg !2294
  %0 = load i32, i32* getelementptr inbounds (%"struct.pov::Token_Struct", %"struct.pov::Token_Struct"* @_ZN3pov5TokenE, i32 0, i32 7), align 8, !dbg !2295
  %tobool = icmp ne i32 %0, 0, !dbg !2297
  br i1 %tobool, label %if.then, label %if.end, !dbg !2298

if.then:                                          ; preds = %entry
  store i32 0, i32* getelementptr inbounds (%"struct.pov::Token_Struct", %"struct.pov::Token_Struct"* @_ZN3pov5TokenE, i32 0, i32 7), align 8, !dbg !2299
  br label %if.end96, !dbg !2301

if.end:                                           ; preds = %entry
  %1 = load i32, i32* getelementptr inbounds (%"struct.pov::Token_Struct", %"struct.pov::Token_Struct"* @_ZN3pov5TokenE, i32 0, i32 8), align 4, !dbg !2302
  %tobool1 = icmp ne i32 %1, 0, !dbg !2304
  br i1 %tobool1, label %if.then2, label %if.end3, !dbg !2305

if.then2:                                         ; preds = %if.end
  br label %if.end96, !dbg !2306

if.end3:                                          ; preds = %if.end
  store i32 143, i32* getelementptr inbounds (%"struct.pov::Token_Struct", %"struct.pov::Token_Struct"* @_ZN3pov5TokenE, i32 0, i32 0), align 8, !dbg !2308
  store i8 0, i8* getelementptr inbounds (%"struct.pov::Token_Struct", %"struct.pov::Token_Struct"* @_ZN3pov5TokenE, i32 0, i32 13), align 8, !dbg !2309
  br label %while.cond, !dbg !2310

while.cond:                                       ; preds = %sw.epilog, %delete.end, %if.end3
  %2 = load i32, i32* getelementptr inbounds (%"struct.pov::Token_Struct", %"struct.pov::Token_Struct"* @_ZN3pov5TokenE, i32 0, i32 0), align 8, !dbg !2311
  %cmp = icmp eq i32 %2, 143, !dbg !2312
  br i1 %cmp, label %while.body, label %while.end91, !dbg !2310

while.body:                                       ; preds = %while.cond
  %call = call zeroext i1 @_ZN3povL11Skip_SpacesEv(), !dbg !2313
  %3 = load i32, i32* @_ZN3pov9Echo_IndxE, align 4, !dbg !2315
  store i32 %3, i32* %col, align 4, !dbg !2316
  %call4 = call i32 @_ZN3povL9Echo_getcEv(), !dbg !2317
  store i32 %call4, i32* %c, align 4, !dbg !2318
  %4 = load i32, i32* %c, align 4, !dbg !2319
  %cmp5 = icmp eq i32 %4, -1, !dbg !2321
  br i1 %cmp5, label %if.then6, label %if.end19, !dbg !2322

if.then6:                                         ; preds = %while.body
  %5 = load %"struct.pov::InputFileData"*, %"struct.pov::InputFileData"** @_ZN3pov10Input_FileE, align 8, !dbg !2323
  %R_Flag = getelementptr inbounds %"struct.pov::InputFileData", %"struct.pov::InputFileData"* %5, i32 0, i32 1, !dbg !2326
  %6 = load i8, i8* %R_Flag, align 8, !dbg !2326
  %tobool7 = trunc i8 %6 to i1, !dbg !2326
  br i1 %tobool7, label %if.then8, label %if.end9, !dbg !2327

if.then8:                                         ; preds = %if.then6
  store i32 143, i32* getelementptr inbounds (%"struct.pov::Token_Struct", %"struct.pov::Token_Struct"* @_ZN3pov5TokenE, i32 0, i32 0), align 8, !dbg !2328
  store i8 0, i8* getelementptr inbounds (%"struct.pov::Token_Struct", %"struct.pov::Token_Struct"* @_ZN3pov5TokenE, i32 0, i32 13), align 8, !dbg !2330
  store i32 1, i32* getelementptr inbounds (%"struct.pov::Token_Struct", %"struct.pov::Token_Struct"* @_ZN3pov5TokenE, i32 0, i32 8), align 4, !dbg !2331
  br label %if.end96, !dbg !2332

if.end9:                                          ; preds = %if.then6
  %7 = load i32, i32* @_ZN3pov18Include_File_IndexE, align 4, !dbg !2333
  %cmp10 = icmp eq i32 %7, 0, !dbg !2335
  br i1 %cmp10, label %if.then11, label %if.end16, !dbg !2336

if.then11:                                        ; preds = %if.end9
  %8 = load i32, i32* @_ZN3pov8CS_IndexE, align 4, !dbg !2337
  %cmp12 = icmp ne i32 %8, 0, !dbg !2340
  br i1 %cmp12, label %if.then13, label %if.end15, !dbg !2341

if.then13:                                        ; preds = %if.then11
  %call14 = call i32 (i8*, ...) @_ZN3pov5ErrorEPKcz(i8* getelementptr inbounds ([39 x i8], [39 x i8]* @.str.4, i64 0, i64 0)), !dbg !2342
  br label %if.end15, !dbg !2342

if.end15:                                         ; preds = %if.then13, %if.then11
  store i32 143, i32* getelementptr inbounds (%"struct.pov::Token_Struct", %"struct.pov::Token_Struct"* @_ZN3pov5TokenE, i32 0, i32 0), align 8, !dbg !2343
  store i8 0, i8* getelementptr inbounds (%"struct.pov::Token_Struct", %"struct.pov::Token_Struct"* @_ZN3pov5TokenE, i32 0, i32 13), align 8, !dbg !2344
  store i32 1, i32* getelementptr inbounds (%"struct.pov::Token_Struct", %"struct.pov::Token_Struct"* @_ZN3pov5TokenE, i32 0, i32 8), align 4, !dbg !2345
  br label %if.end96, !dbg !2346

if.end16:                                         ; preds = %if.end9
  %9 = load %"struct.pov::InputFileData"*, %"struct.pov::InputFileData"** @_ZN3pov10Input_FileE, align 8, !dbg !2347
  %In_File = getelementptr inbounds %"struct.pov::InputFileData", %"struct.pov::InputFileData"* %9, i32 0, i32 0, !dbg !2348
  %10 = load %"class.pov_base::ITextStream"*, %"class.pov_base::ITextStream"** %In_File, align 8, !dbg !2348
  %isnull = icmp eq %"class.pov_base::ITextStream"* %10, null, !dbg !2349
  br i1 %isnull, label %delete.end, label %delete.notnull, !dbg !2349

delete.notnull:                                   ; preds = %if.end16
  %11 = bitcast %"class.pov_base::ITextStream"* %10 to void (%"class.pov_base::ITextStream"*)***, !dbg !2349
  %vtable = load void (%"class.pov_base::ITextStream"*)**, void (%"class.pov_base::ITextStream"*)*** %11, align 8, !dbg !2349
  %vfn = getelementptr inbounds void (%"class.pov_base::ITextStream"*)*, void (%"class.pov_base::ITextStream"*)** %vtable, i64 1, !dbg !2349
  %12 = load void (%"class.pov_base::ITextStream"*)*, void (%"class.pov_base::ITextStream"*)** %vfn, align 8, !dbg !2349
  call void %12(%"class.pov_base::ITextStream"* %10) #11, !dbg !2349
  br label %delete.end, !dbg !2349

delete.end:                                       ; preds = %delete.notnull, %if.end16
  %13 = load %"struct.pov::InputFileData"*, %"struct.pov::InputFileData"** @_ZN3pov10Input_FileE, align 8, !dbg !2350
  %In_File17 = getelementptr inbounds %"struct.pov::InputFileData", %"struct.pov::InputFileData"* %13, i32 0, i32 0, !dbg !2351
  store %"class.pov_base::ITextStream"* null, %"class.pov_base::ITextStream"** %In_File17, align 8, !dbg !2352
  store i32 0, i32* @_ZN3pov7Got_EOFE, align 4, !dbg !2353
  %14 = load i32, i32* @_ZN3pov11Table_IndexE, align 4, !dbg !2354
  %dec = add nsw i32 %14, -1, !dbg !2354
  store i32 %dec, i32* @_ZN3pov11Table_IndexE, align 4, !dbg !2354
  call void @_ZN3povL13Destroy_TableEi(i32 %14), !dbg !2355
  %15 = load i32, i32* @_ZN3pov18Include_File_IndexE, align 4, !dbg !2356
  %dec18 = add nsw i32 %15, -1, !dbg !2356
  store i32 %dec18, i32* @_ZN3pov18Include_File_IndexE, align 4, !dbg !2356
  %idxprom = sext i32 %dec18 to i64, !dbg !2357
  %arrayidx = getelementptr inbounds [32 x %"struct.pov::InputFileData"], [32 x %"struct.pov::InputFileData"]* @_ZN3pov13Include_FilesE, i64 0, i64 %idxprom, !dbg !2357
  store %"struct.pov::InputFileData"* %arrayidx, %"struct.pov::InputFileData"** @_ZN3pov10Input_FileE, align 8, !dbg !2358
  br label %while.cond, !dbg !2359, !llvm.loop !2360

if.end19:                                         ; preds = %while.body
  call void @_ZN3pov17Begin_String_FastEv(), !dbg !2362
  %16 = load i32, i32* %c, align 4, !dbg !2363
  %conv = trunc i32 %16 to i8, !dbg !2363
  %17 = load i8*, i8** @_ZN3pov6StringE, align 8, !dbg !2364
  %arrayidx20 = getelementptr inbounds i8, i8* %17, i64 0, !dbg !2364
  store i8 %conv, i8* %arrayidx20, align 1, !dbg !2365
  %18 = load i8*, i8** @_ZN3pov6StringE, align 8, !dbg !2366
  %arrayidx21 = getelementptr inbounds i8, i8* %18, i64 1, !dbg !2366
  store i8 0, i8* %arrayidx21, align 1, !dbg !2367
  %19 = load i32, i32* %c, align 4, !dbg !2368
  switch i32 %19, label %sw.default [
    i32 10, label %sw.bb
    i32 123, label %sw.bb22
    i32 125, label %sw.bb23
    i32 64, label %sw.bb24
    i32 38, label %sw.bb25
    i32 96, label %sw.bb26
    i32 92, label %sw.bb27
    i32 124, label %sw.bb28
    i32 58, label %sw.bb29
    i32 44, label %sw.bb30
    i32 45, label %sw.bb31
    i32 36, label %sw.bb32
    i32 61, label %sw.bb33
    i32 33, label %sw.bb34
    i32 35, label %sw.bb39
    i32 94, label %sw.bb40
    i32 60, label %sw.bb41
    i32 40, label %sw.bb47
    i32 91, label %sw.bb48
    i32 37, label %sw.bb49
    i32 43, label %sw.bb50
    i32 63, label %sw.bb51
    i32 62, label %sw.bb52
    i32 41, label %sw.bb58
    i32 93, label %sw.bb59
    i32 59, label %sw.bb60
    i32 39, label %sw.bb61
    i32 47, label %sw.bb62
    i32 42, label %sw.bb79
    i32 126, label %sw.bb80
    i32 34, label %sw.bb81
    i32 48, label %sw.bb82
    i32 49, label %sw.bb82
    i32 50, label %sw.bb82
    i32 51, label %sw.bb82
    i32 52, label %sw.bb82
    i32 53, label %sw.bb82
    i32 54, label %sw.bb82
    i32 55, label %sw.bb82
    i32 56, label %sw.bb82
    i32 57, label %sw.bb82
    i32 46, label %sw.bb82
    i32 97, label %sw.bb88
    i32 98, label %sw.bb88
    i32 99, label %sw.bb88
    i32 100, label %sw.bb88
    i32 101, label %sw.bb88
    i32 102, label %sw.bb88
    i32 103, label %sw.bb88
    i32 104, label %sw.bb88
    i32 105, label %sw.bb88
    i32 106, label %sw.bb88
    i32 107, label %sw.bb88
    i32 108, label %sw.bb88
    i32 109, label %sw.bb88
    i32 110, label %sw.bb88
    i32 111, label %sw.bb88
    i32 112, label %sw.bb88
    i32 113, label %sw.bb88
    i32 114, label %sw.bb88
    i32 115, label %sw.bb88
    i32 116, label %sw.bb88
    i32 117, label %sw.bb88
    i32 118, label %sw.bb88
    i32 119, label %sw.bb88
    i32 120, label %sw.bb88
    i32 121, label %sw.bb88
    i32 122, label %sw.bb88
    i32 65, label %sw.bb88
    i32 66, label %sw.bb88
    i32 67, label %sw.bb88
    i32 68, label %sw.bb88
    i32 69, label %sw.bb88
    i32 70, label %sw.bb88
    i32 71, label %sw.bb88
    i32 72, label %sw.bb88
    i32 73, label %sw.bb88
    i32 74, label %sw.bb88
    i32 75, label %sw.bb88
    i32 76, label %sw.bb88
    i32 77, label %sw.bb88
    i32 78, label %sw.bb88
    i32 79, label %sw.bb88
    i32 80, label %sw.bb88
    i32 81, label %sw.bb88
    i32 82, label %sw.bb88
    i32 83, label %sw.bb88
    i32 84, label %sw.bb88
    i32 85, label %sw.bb88
    i32 86, label %sw.bb88
    i32 87, label %sw.bb88
    i32 88, label %sw.bb88
    i32 89, label %sw.bb88
    i32 90, label %sw.bb88
    i32 95, label %sw.bb88
    i32 9, label %sw.bb89
    i32 13, label %sw.bb89
    i32 26, label %sw.bb89
    i32 0, label %sw.bb89
  ], !dbg !2369

sw.bb:                                            ; preds = %if.end19
  br label %sw.epilog, !dbg !2370

sw.bb22:                                          ; preds = %if.end19
  %20 = load i32, i32* %col, align 4, !dbg !2372
  call void @_ZN3pov11Write_TokenEii(i32 172, i32 %20), !dbg !2373
  br label %sw.epilog, !dbg !2374

sw.bb23:                                          ; preds = %if.end19
  %21 = load i32, i32* %col, align 4, !dbg !2375
  call void @_ZN3pov11Write_TokenEii(i32 218, i32 %21), !dbg !2376
  br label %sw.epilog, !dbg !2377

sw.bb24:                                          ; preds = %if.end19
  %22 = load i32, i32* %col, align 4, !dbg !2378
  call void @_ZN3pov11Write_TokenEii(i32 103, i32 %22), !dbg !2379
  br label %sw.epilog, !dbg !2380

sw.bb25:                                          ; preds = %if.end19
  %23 = load i32, i32* %col, align 4, !dbg !2381
  call void @_ZN3pov11Write_TokenEii(i32 101, i32 %23), !dbg !2382
  br label %sw.epilog, !dbg !2383

sw.bb26:                                          ; preds = %if.end19
  %24 = load i32, i32* %col, align 4, !dbg !2384
  call void @_ZN3pov11Write_TokenEii(i32 104, i32 %24), !dbg !2385
  br label %sw.epilog, !dbg !2386

sw.bb27:                                          ; preds = %if.end19
  %25 = load i32, i32* %col, align 4, !dbg !2387
  call void @_ZN3pov11Write_TokenEii(i32 105, i32 %25), !dbg !2388
  br label %sw.epilog, !dbg !2389

sw.bb28:                                          ; preds = %if.end19
  %26 = load i32, i32* %col, align 4, !dbg !2390
  call void @_ZN3pov11Write_TokenEii(i32 106, i32 %26), !dbg !2391
  br label %sw.epilog, !dbg !2392

sw.bb29:                                          ; preds = %if.end19
  %27 = load i32, i32* %col, align 4, !dbg !2393
  call void @_ZN3pov11Write_TokenEii(i32 122, i32 %27), !dbg !2394
  br label %sw.epilog, !dbg !2395

sw.bb30:                                          ; preds = %if.end19
  %28 = load i32, i32* %col, align 4, !dbg !2396
  call void @_ZN3pov11Write_TokenEii(i32 126, i32 %28), !dbg !2397
  br label %sw.epilog, !dbg !2398

sw.bb31:                                          ; preds = %if.end19
  %29 = load i32, i32* %col, align 4, !dbg !2399
  call void @_ZN3pov11Write_TokenEii(i32 133, i32 %29), !dbg !2400
  br label %sw.epilog, !dbg !2401

sw.bb32:                                          ; preds = %if.end19
  %30 = load i32, i32* %col, align 4, !dbg !2402
  call void @_ZN3pov11Write_TokenEii(i32 142, i32 %30), !dbg !2403
  br label %sw.epilog, !dbg !2404

sw.bb33:                                          ; preds = %if.end19
  %31 = load i32, i32* %col, align 4, !dbg !2405
  call void @_ZN3pov11Write_TokenEii(i32 144, i32 %31), !dbg !2406
  br label %sw.epilog, !dbg !2407

sw.bb34:                                          ; preds = %if.end19
  %call35 = call i32 @_ZN3povL9Echo_getcEv(), !dbg !2408
  store i32 %call35, i32* %c2, align 4, !dbg !2409
  %32 = load i32, i32* %c2, align 4, !dbg !2410
  %cmp36 = icmp eq i32 %32, 61, !dbg !2412
  br i1 %cmp36, label %if.then37, label %if.else, !dbg !2413

if.then37:                                        ; preds = %sw.bb34
  %33 = load i32, i32* %col, align 4, !dbg !2414
  call void @_ZN3pov11Write_TokenEii(i32 286, i32 %33), !dbg !2416
  br label %if.end38, !dbg !2417

if.else:                                          ; preds = %sw.bb34
  %34 = load i32, i32* %c2, align 4, !dbg !2418
  call void @_ZN3povL11Echo_ungetcEi(i32 %34), !dbg !2420
  %35 = load i32, i32* %col, align 4, !dbg !2421
  call void @_ZN3pov11Write_TokenEii(i32 145, i32 %35), !dbg !2422
  br label %if.end38

if.end38:                                         ; preds = %if.else, %if.then37
  br label %sw.epilog, !dbg !2423

sw.bb39:                                          ; preds = %if.end19
  call void @_ZN3pov15Parse_DirectiveEi(i32 1), !dbg !2424
  br label %sw.epilog, !dbg !2425

sw.bb40:                                          ; preds = %if.end19
  %36 = load i32, i32* %col, align 4, !dbg !2426
  call void @_ZN3pov11Write_TokenEii(i32 158, i32 %36), !dbg !2427
  br label %sw.epilog, !dbg !2428

sw.bb41:                                          ; preds = %if.end19
  %call42 = call i32 @_ZN3povL9Echo_getcEv(), !dbg !2429
  store i32 %call42, i32* %c2, align 4, !dbg !2430
  %37 = load i32, i32* %c2, align 4, !dbg !2431
  %cmp43 = icmp eq i32 %37, 61, !dbg !2433
  br i1 %cmp43, label %if.then44, label %if.else45, !dbg !2434

if.then44:                                        ; preds = %sw.bb41
  %38 = load i32, i32* %col, align 4, !dbg !2435
  call void @_ZN3pov11Write_TokenEii(i32 285, i32 %38), !dbg !2437
  br label %if.end46, !dbg !2438

if.else45:                                        ; preds = %sw.bb41
  %39 = load i32, i32* %c2, align 4, !dbg !2439
  call void @_ZN3povL11Echo_ungetcEi(i32 %39), !dbg !2441
  %40 = load i32, i32* %col, align 4, !dbg !2442
  call void @_ZN3pov11Write_TokenEii(i32 171, i32 %40), !dbg !2443
  br label %if.end46

if.end46:                                         ; preds = %if.else45, %if.then44
  br label %sw.epilog, !dbg !2444

sw.bb47:                                          ; preds = %if.end19
  %41 = load i32, i32* %col, align 4, !dbg !2445
  call void @_ZN3pov11Write_TokenEii(i32 173, i32 %41), !dbg !2446
  br label %sw.epilog, !dbg !2447

sw.bb48:                                          ; preds = %if.end19
  %42 = load i32, i32* %col, align 4, !dbg !2448
  call void @_ZN3pov11Write_TokenEii(i32 174, i32 %42), !dbg !2449
  br label %sw.epilog, !dbg !2450

sw.bb49:                                          ; preds = %if.end19
  %43 = load i32, i32* %col, align 4, !dbg !2451
  call void @_ZN3pov11Write_TokenEii(i32 196, i32 %43), !dbg !2452
  br label %sw.epilog, !dbg !2453

sw.bb50:                                          ; preds = %if.end19
  %44 = load i32, i32* %col, align 4, !dbg !2454
  call void @_ZN3pov11Write_TokenEii(i32 203, i32 %44), !dbg !2455
  br label %sw.epilog, !dbg !2456

sw.bb51:                                          ; preds = %if.end19
  %45 = load i32, i32* %col, align 4, !dbg !2457
  call void @_ZN3pov11Write_TokenEii(i32 209, i32 %45), !dbg !2458
  br label %sw.epilog, !dbg !2459

sw.bb52:                                          ; preds = %if.end19
  %call53 = call i32 @_ZN3povL9Echo_getcEv(), !dbg !2460
  store i32 %call53, i32* %c2, align 4, !dbg !2461
  %46 = load i32, i32* %c2, align 4, !dbg !2462
  %cmp54 = icmp eq i32 %46, 61, !dbg !2464
  br i1 %cmp54, label %if.then55, label %if.else56, !dbg !2465

if.then55:                                        ; preds = %sw.bb52
  %47 = load i32, i32* %col, align 4, !dbg !2466
  call void @_ZN3pov11Write_TokenEii(i32 284, i32 %47), !dbg !2468
  br label %if.end57, !dbg !2469

if.else56:                                        ; preds = %sw.bb52
  %48 = load i32, i32* %c2, align 4, !dbg !2470
  call void @_ZN3povL11Echo_ungetcEi(i32 %48), !dbg !2472
  %49 = load i32, i32* %col, align 4, !dbg !2473
  call void @_ZN3pov11Write_TokenEii(i32 217, i32 %49), !dbg !2474
  br label %if.end57

if.end57:                                         ; preds = %if.else56, %if.then55
  br label %sw.epilog, !dbg !2475

sw.bb58:                                          ; preds = %if.end19
  %50 = load i32, i32* %col, align 4, !dbg !2476
  call void @_ZN3pov11Write_TokenEii(i32 219, i32 %50), !dbg !2477
  br label %sw.epilog, !dbg !2478

sw.bb59:                                          ; preds = %if.end19
  %51 = load i32, i32* %col, align 4, !dbg !2479
  call void @_ZN3pov11Write_TokenEii(i32 220, i32 %51), !dbg !2480
  br label %sw.epilog, !dbg !2481

sw.bb60:                                          ; preds = %if.end19
  %52 = load i32, i32* %col, align 4, !dbg !2482
  call void @_ZN3pov11Write_TokenEii(i32 226, i32 %52), !dbg !2483
  br label %sw.epilog, !dbg !2484

sw.bb61:                                          ; preds = %if.end19
  %53 = load i32, i32* %col, align 4, !dbg !2485
  call void @_ZN3pov11Write_TokenEii(i32 227, i32 %53), !dbg !2486
  br label %sw.epilog, !dbg !2487

sw.bb62:                                          ; preds = %if.end19
  %call63 = call i32 @_ZN3povL9Echo_getcEv(), !dbg !2488
  store i32 %call63, i32* %c2, align 4, !dbg !2489
  %54 = load i32, i32* %c2, align 4, !dbg !2490
  %cmp64 = icmp ne i32 %54, 47, !dbg !2492
  br i1 %cmp64, label %land.lhs.true, label %if.end67, !dbg !2493

land.lhs.true:                                    ; preds = %sw.bb62
  %55 = load i32, i32* %c2, align 4, !dbg !2494
  %cmp65 = icmp ne i32 %55, 42, !dbg !2495
  br i1 %cmp65, label %if.then66, label %if.end67, !dbg !2496

if.then66:                                        ; preds = %land.lhs.true
  %56 = load i32, i32* %c2, align 4, !dbg !2497
  call void @_ZN3povL11Echo_ungetcEi(i32 %56), !dbg !2499
  %57 = load i32, i32* %col, align 4, !dbg !2500
  call void @_ZN3pov11Write_TokenEii(i32 229, i32 %57), !dbg !2501
  br label %sw.epilog, !dbg !2502

if.end67:                                         ; preds = %land.lhs.true, %sw.bb62
  %58 = load i32, i32* %c2, align 4, !dbg !2503
  %cmp68 = icmp eq i32 %58, 42, !dbg !2505
  br i1 %cmp68, label %if.then69, label %if.end71, !dbg !2506

if.then69:                                        ; preds = %if.end67
  %call70 = call i32 @_ZN3povL16Parse_C_CommentsEv(), !dbg !2507
  br label %sw.epilog, !dbg !2509

if.end71:                                         ; preds = %if.end67
  br label %while.cond72, !dbg !2510

while.cond72:                                     ; preds = %if.end78, %if.end71
  %59 = load i32, i32* %c2, align 4, !dbg !2511
  %cmp73 = icmp ne i32 %59, 10, !dbg !2512
  br i1 %cmp73, label %while.body74, label %while.end, !dbg !2510

while.body74:                                     ; preds = %while.cond72
  %call75 = call i32 @_ZN3povL9Echo_getcEv(), !dbg !2513
  store i32 %call75, i32* %c2, align 4, !dbg !2515
  %60 = load i32, i32* %c2, align 4, !dbg !2516
  %cmp76 = icmp eq i32 %60, -1, !dbg !2518
  br i1 %cmp76, label %if.then77, label %if.end78, !dbg !2519

if.then77:                                        ; preds = %while.body74
  %61 = load i32, i32* %c2, align 4, !dbg !2520
  call void @_ZN3povL11Echo_ungetcEi(i32 %61), !dbg !2522
  br label %while.end, !dbg !2523

if.end78:                                         ; preds = %while.body74
  br label %while.cond72, !dbg !2510, !llvm.loop !2524

while.end:                                        ; preds = %if.then77, %while.cond72
  br label %sw.epilog, !dbg !2526

sw.bb79:                                          ; preds = %if.end19
  %62 = load i32, i32* %col, align 4, !dbg !2527
  call void @_ZN3pov11Write_TokenEii(i32 236, i32 %62), !dbg !2528
  br label %sw.epilog, !dbg !2529

sw.bb80:                                          ; preds = %if.end19
  %63 = load i32, i32* %col, align 4, !dbg !2530
  call void @_ZN3pov11Write_TokenEii(i32 246, i32 %63), !dbg !2531
  br label %sw.epilog, !dbg !2532

sw.bb81:                                          ; preds = %if.end19
  call void @_ZN3pov20Parse_String_LiteralEv(), !dbg !2533
  br label %sw.epilog, !dbg !2534

sw.bb82:                                          ; preds = %if.end19, %if.end19, %if.end19, %if.end19, %if.end19, %if.end19, %if.end19, %if.end19, %if.end19, %if.end19, %if.end19
  %64 = load i32, i32* %c, align 4, !dbg !2535
  call void @_ZN3povL11Echo_ungetcEi(i32 %64), !dbg !2536
  %call83 = call zeroext i1 @_ZN3povL10Read_FloatEv(), !dbg !2537
  %conv84 = zext i1 %call83 to i32, !dbg !2537
  %cmp85 = icmp ne i32 %conv84, 1, !dbg !2539
  br i1 %cmp85, label %if.then86, label %if.end87, !dbg !2540

if.then86:                                        ; preds = %sw.bb82
  br label %if.end96, !dbg !2541

if.end87:                                         ; preds = %sw.bb82
  br label %sw.epilog, !dbg !2542

sw.bb88:                                          ; preds = %if.end19, %if.end19, %if.end19, %if.end19, %if.end19, %if.end19, %if.end19, %if.end19, %if.end19, %if.end19, %if.end19, %if.end19, %if.end19, %if.end19, %if.end19, %if.end19, %if.end19, %if.end19, %if.end19, %if.end19, %if.end19, %if.end19, %if.end19, %if.end19, %if.end19, %if.end19, %if.end19, %if.end19, %if.end19, %if.end19, %if.end19, %if.end19, %if.end19, %if.end19, %if.end19, %if.end19, %if.end19, %if.end19, %if.end19, %if.end19, %if.end19, %if.end19, %if.end19, %if.end19, %if.end19, %if.end19, %if.end19, %if.end19, %if.end19, %if.end19, %if.end19, %if.end19, %if.end19
  %65 = load i32, i32* %c, align 4, !dbg !2543
  call void @_ZN3povL11Echo_ungetcEi(i32 %65), !dbg !2544
  call void @_ZN3povL11Read_SymbolEv(), !dbg !2545
  br label %sw.epilog, !dbg !2546

sw.bb89:                                          ; preds = %if.end19, %if.end19, %if.end19, %if.end19
  br label %sw.epilog, !dbg !2547

sw.default:                                       ; preds = %if.end19
  %66 = load i32, i32* %c, align 4, !dbg !2548
  %call90 = call i32 (i8*, ...) @_ZN3pov5ErrorEPKcz(i8* getelementptr inbounds ([48 x i8], [48 x i8]* @.str.5, i64 0, i64 0), i32 %66), !dbg !2549
  br label %sw.epilog, !dbg !2550

sw.epilog:                                        ; preds = %sw.default, %sw.bb89, %sw.bb88, %if.end87, %sw.bb81, %sw.bb80, %sw.bb79, %while.end, %if.then69, %if.then66, %sw.bb61, %sw.bb60, %sw.bb59, %sw.bb58, %if.end57, %sw.bb51, %sw.bb50, %sw.bb49, %sw.bb48, %sw.bb47, %if.end46, %sw.bb40, %sw.bb39, %if.end38, %sw.bb33, %sw.bb32, %sw.bb31, %sw.bb30, %sw.bb29, %sw.bb28, %sw.bb27, %sw.bb26, %sw.bb25, %sw.bb24, %sw.bb23, %sw.bb22, %sw.bb
  br label %while.cond, !dbg !2310, !llvm.loop !2360

while.end91:                                      ; preds = %while.cond
  %67 = load i64, i64* @_ZN3pov19Current_Token_CountE, align 8, !dbg !2551
  %inc = add nsw i64 %67, 1, !dbg !2551
  store i64 %inc, i64* @_ZN3pov19Current_Token_CountE, align 8, !dbg !2551
  %68 = load i32, i32* @_ZN3pov11token_countE, align 4, !dbg !2552
  %inc92 = add nsw i32 %68, 1, !dbg !2552
  store i32 %inc92, i32* @_ZN3pov11token_countE, align 4, !dbg !2552
  %69 = load i32, i32* @_ZN3pov11token_countE, align 4, !dbg !2553
  %cmp93 = icmp sgt i32 %69, 2500, !dbg !2555
  br i1 %cmp93, label %if.then94, label %if.end96, !dbg !2556

if.then94:                                        ; preds = %while.end91
  store i32 0, i32* @_ZN3pov11token_countE, align 4, !dbg !2557
  call void @_ZN3pov12Do_CooperateEi(i32 0), !dbg !2559
  call void @_ZN3pov16Check_User_AbortEi(i32 0), !dbg !2560
  %call95 = call i32 @_ZN3pov19Send_ProgressUpdateEii(i32 14, i32 1), !dbg !2561
  br label %if.end96, !dbg !2562

if.end96:                                         ; preds = %if.then, %if.then2, %if.then8, %if.end15, %if.then86, %if.then94, %while.end91
  ret void, !dbg !2563
}

; Function Attrs: noinline uwtable
define internal zeroext i1 @_ZN3povL11Skip_SpacesEv() #0 !dbg !2564 {
entry:
  %retval = alloca i1, align 1
  %c = alloca i32, align 4
  call void @llvm.dbg.declare(metadata i32* %c, metadata !2567, metadata !DIExpression()), !dbg !2568
  br label %while.body, !dbg !2569

while.body:                                       ; preds = %entry, %if.end3
  %call = call i32 @_ZN3povL9Echo_getcEv(), !dbg !2570
  store i32 %call, i32* %c, align 4, !dbg !2572
  %0 = load i32, i32* %c, align 4, !dbg !2573
  %cmp = icmp eq i32 %0, -1, !dbg !2575
  br i1 %cmp, label %if.then, label %if.end, !dbg !2576

if.then:                                          ; preds = %while.body
  store i1 false, i1* %retval, align 1, !dbg !2577
  br label %return, !dbg !2577

if.end:                                           ; preds = %while.body
  %1 = load i32, i32* %c, align 4, !dbg !2578
  %call1 = call i32 @isspace(i32 %1) #12, !dbg !2580
  %tobool = icmp ne i32 %call1, 0, !dbg !2581
  br i1 %tobool, label %if.end3, label %if.then2, !dbg !2582

if.then2:                                         ; preds = %if.end
  br label %while.end, !dbg !2583

if.end3:                                          ; preds = %if.end
  br label %while.body, !dbg !2569, !llvm.loop !2584

while.end:                                        ; preds = %if.then2
  %2 = load i32, i32* %c, align 4, !dbg !2586
  call void @_ZN3povL11Echo_ungetcEi(i32 %2), !dbg !2587
  store i1 true, i1* %retval, align 1, !dbg !2588
  br label %return, !dbg !2588

return:                                           ; preds = %while.end, %if.then
  %3 = load i1, i1* %retval, align 1, !dbg !2589
  ret i1 %3, !dbg !2589
}

; Function Attrs: noinline uwtable
define linkonce_odr dso_local void @_ZN3pov17Begin_String_FastEv() #0 comdat !dbg !2590 {
entry:
  %0 = load i8*, i8** @_ZN3pov6StringE, align 8, !dbg !2591
  %cmp = icmp ne i8* %0, null, !dbg !2593
  br i1 %cmp, label %land.lhs.true, label %if.end, !dbg !2594

land.lhs.true:                                    ; preds = %entry
  %1 = load i8*, i8** @_ZN3pov6StringE, align 8, !dbg !2595
  %cmp1 = icmp ne i8* %1, getelementptr inbounds ([256 x i8], [256 x i8]* @_ZN3pov18String_Fast_BufferE, i64 0, i64 0), !dbg !2596
  br i1 %cmp1, label %if.then, label %if.end, !dbg !2597

if.then:                                          ; preds = %land.lhs.true
  %2 = load i8*, i8** @_ZN3pov6StringE, align 8, !dbg !2598
  call void @_ZN3pov8pov_freeEPvPKci(i8* %2, i8* getelementptr inbounds ([13 x i8], [13 x i8]* @.str.2, i64 0, i64 0), i32 1051), !dbg !2598
  store i8* null, i8** @_ZN3pov6StringE, align 8, !dbg !2598
  br label %if.end, !dbg !2598

if.end:                                           ; preds = %if.then, %land.lhs.true, %entry
  store i8* getelementptr inbounds ([256 x i8], [256 x i8]* @_ZN3pov18String_Fast_BufferE, i64 0, i64 0), i8** @_ZN3pov6StringE, align 8, !dbg !2600
  store i32 0, i32* @_ZN3pov12String_IndexE, align 4, !dbg !2601
  ret void, !dbg !2602
}

; Function Attrs: noinline uwtable
define linkonce_odr dso_local void @_ZN3pov11Write_TokenEii(i32 %Token_Id, i32 %col) #0 comdat !dbg !2603 {
entry:
  %Token_Id.addr = alloca i32, align 4
  %col.addr = alloca i32, align 4
  %ref.tmp = alloca %"struct.pov_base::ITextStream::FilePos", align 8
  store i32 %Token_Id, i32* %Token_Id.addr, align 4
  call void @llvm.dbg.declare(metadata i32* %Token_Id.addr, metadata !2606, metadata !DIExpression()), !dbg !2607
  store i32 %col, i32* %col.addr, align 4
  call void @llvm.dbg.declare(metadata i32* %col.addr, metadata !2608, metadata !DIExpression()), !dbg !2609
  %0 = load %"struct.pov::InputFileData"*, %"struct.pov::InputFileData"** @_ZN3pov10Input_FileE, align 8, !dbg !2610
  %In_File = getelementptr inbounds %"struct.pov::InputFileData", %"struct.pov::InputFileData"* %0, i32 0, i32 0, !dbg !2611
  %1 = load %"class.pov_base::ITextStream"*, %"class.pov_base::ITextStream"** %In_File, align 8, !dbg !2611
  %call = call { i64, i32 } @_ZN8pov_base11ITextStream5tellgEv(%"class.pov_base::ITextStream"* %1), !dbg !2612
  %2 = bitcast %"struct.pov_base::ITextStream::FilePos"* %ref.tmp to { i64, i32 }*, !dbg !2612
  %3 = getelementptr inbounds { i64, i32 }, { i64, i32 }* %2, i32 0, i32 0, !dbg !2612
  %4 = extractvalue { i64, i32 } %call, 0, !dbg !2612
  store i64 %4, i64* %3, align 8, !dbg !2612
  %5 = getelementptr inbounds { i64, i32 }, { i64, i32 }* %2, i32 0, i32 1, !dbg !2612
  %6 = extractvalue { i64, i32 } %call, 1, !dbg !2612
  store i32 %6, i32* %5, align 8, !dbg !2612
  %7 = bitcast %"struct.pov_base::ITextStream::FilePos"* %ref.tmp to i8*, !dbg !2613
  call void @llvm.memcpy.p0i8.p0i8.i64(i8* align 8 bitcast (%"struct.pov_base::ITextStream::FilePos"* getelementptr inbounds (%"struct.pov::Token_Struct", %"struct.pov::Token_Struct"* @_ZN3pov5TokenE, i32 0, i32 2) to i8*), i8* align 8 %7, i64 16, i1 false), !dbg !2613
  %8 = load i32, i32* %col.addr, align 4, !dbg !2614
  store i32 %8, i32* getelementptr inbounds (%"struct.pov::Token_Struct", %"struct.pov::Token_Struct"* @_ZN3pov5TokenE, i32 0, i32 3), align 8, !dbg !2615
  %9 = load %"struct.pov::InputFileData"*, %"struct.pov::InputFileData"** @_ZN3pov10Input_FileE, align 8, !dbg !2616
  %In_File1 = getelementptr inbounds %"struct.pov::InputFileData", %"struct.pov::InputFileData"* %9, i32 0, i32 0, !dbg !2617
  %10 = load %"class.pov_base::ITextStream"*, %"class.pov_base::ITextStream"** %In_File1, align 8, !dbg !2617
  store %"class.pov_base::ITextStream"* %10, %"class.pov_base::ITextStream"** getelementptr inbounds (%"struct.pov::Token_Struct", %"struct.pov::Token_Struct"* @_ZN3pov5TokenE, i32 0, i32 9), align 8, !dbg !2618
  %11 = load i8*, i8** @_ZN3pov6StringE, align 8, !dbg !2619
  store i8* %11, i8** getelementptr inbounds (%"struct.pov::Token_Struct", %"struct.pov::Token_Struct"* @_ZN3pov5TokenE, i32 0, i32 5), align 8, !dbg !2620
  store i8* null, i8** getelementptr inbounds (%"struct.pov::Token_Struct", %"struct.pov::Token_Struct"* @_ZN3pov5TokenE, i32 0, i32 10), align 8, !dbg !2621
  %12 = load i32, i32* %Token_Id.addr, align 4, !dbg !2622
  %idxprom = sext i32 %12 to i64, !dbg !2623
  %arrayidx = getelementptr inbounds [535 x i32], [535 x i32]* @_ZN3pov21Conversion_Util_TableE, i64 0, i64 %idxprom, !dbg !2623
  %13 = load i32, i32* %arrayidx, align 4, !dbg !2623
  store i32 %13, i32* getelementptr inbounds (%"struct.pov::Token_Struct", %"struct.pov::Token_Struct"* @_ZN3pov5TokenE, i32 0, i32 0), align 8, !dbg !2624
  %14 = load i32, i32* %Token_Id.addr, align 4, !dbg !2625
  store i32 %14, i32* getelementptr inbounds (%"struct.pov::Token_Struct", %"struct.pov::Token_Struct"* @_ZN3pov5TokenE, i32 0, i32 1), align 4, !dbg !2626
  ret void, !dbg !2627
}

; Function Attrs: noinline uwtable
define dso_local void @_ZN3pov15Parse_DirectiveEi(i32 %After_Hash) #0 !dbg !2628 {
entry:
  %After_Hash.addr = alloca i32, align 4
  %Value = alloca double, align 8
  %Value2 = alloca double, align 8
  %Flag = alloca i32, align 4
  %ts = alloca i8*, align 8
  %PMac = alloca %"struct.pov::Pov_Macro_Struct"*, align 8
  %Curr_Type = alloca i32, align 4
  %Hash_Loc = alloca i64, align 8
  %ref.tmp = alloca %"struct.pov_base::ITextStream::FilePos", align 8
  %Exit_Flag = alloca i32, align 4
  %ref.tmp82 = alloca %"struct.pov_base::ITextStream::FilePos", align 8
  %Exit_Flag130 = alloca i32, align 4
  %agg.tmp = alloca %"struct.pov_base::ITextStream::FilePos", align 8
  %Exit_Flag397 = alloca i32, align 4
  store i32 %After_Hash, i32* %After_Hash.addr, align 4
  call void @llvm.dbg.declare(metadata i32* %After_Hash.addr, metadata !2629, metadata !DIExpression()), !dbg !2630
  call void @llvm.dbg.declare(metadata double* %Value, metadata !2631, metadata !DIExpression()), !dbg !2632
  call void @llvm.dbg.declare(metadata double* %Value2, metadata !2633, metadata !DIExpression()), !dbg !2634
  call void @llvm.dbg.declare(metadata i32* %Flag, metadata !2635, metadata !DIExpression()), !dbg !2636
  call void @llvm.dbg.declare(metadata i8** %ts, metadata !2637, metadata !DIExpression()), !dbg !2638
  call void @llvm.dbg.declare(metadata %"struct.pov::Pov_Macro_Struct"** %PMac, metadata !2639, metadata !DIExpression()), !dbg !2640
  store %"struct.pov::Pov_Macro_Struct"* null, %"struct.pov::Pov_Macro_Struct"** %PMac, align 8, !dbg !2640
  call void @llvm.dbg.declare(metadata i32* %Curr_Type, metadata !2641, metadata !DIExpression()), !dbg !2642
  %0 = load %"struct.pov::Cond_Stack_Entry"*, %"struct.pov::Cond_Stack_Entry"** @_ZN3pov10Cond_StackE, align 8, !dbg !2643
  %1 = load i32, i32* @_ZN3pov8CS_IndexE, align 4, !dbg !2644
  %idxprom = sext i32 %1 to i64, !dbg !2643
  %arrayidx = getelementptr inbounds %"struct.pov::Cond_Stack_Entry", %"struct.pov::Cond_Stack_Entry"* %0, i64 %idxprom, !dbg !2643
  %Cond_Type = getelementptr inbounds %"struct.pov::Cond_Stack_Entry", %"struct.pov::Cond_Stack_Entry"* %arrayidx, i32 0, i32 0, !dbg !2645
  %2 = load i32, i32* %Cond_Type, align 8, !dbg !2645
  store i32 %2, i32* %Curr_Type, align 4, !dbg !2642
  call void @llvm.dbg.declare(metadata i64* %Hash_Loc, metadata !2646, metadata !DIExpression()), !dbg !2647
  %3 = load %"struct.pov::InputFileData"*, %"struct.pov::InputFileData"** @_ZN3pov10Input_FileE, align 8, !dbg !2648
  %In_File = getelementptr inbounds %"struct.pov::InputFileData", %"struct.pov::InputFileData"* %3, i32 0, i32 0, !dbg !2649
  %4 = load %"class.pov_base::ITextStream"*, %"class.pov_base::ITextStream"** %In_File, align 8, !dbg !2649
  %call = call { i64, i32 } @_ZN8pov_base11ITextStream5tellgEv(%"class.pov_base::ITextStream"* %4), !dbg !2650
  %5 = bitcast %"struct.pov_base::ITextStream::FilePos"* %ref.tmp to { i64, i32 }*, !dbg !2650
  %6 = getelementptr inbounds { i64, i32 }, { i64, i32 }* %5, i32 0, i32 0, !dbg !2650
  %7 = extractvalue { i64, i32 } %call, 0, !dbg !2650
  store i64 %7, i64* %6, align 8, !dbg !2650
  %8 = getelementptr inbounds { i64, i32 }, { i64, i32 }* %5, i32 0, i32 1, !dbg !2650
  %9 = extractvalue { i64, i32 } %call, 1, !dbg !2650
  store i32 %9, i32* %8, align 8, !dbg !2650
  %offset = getelementptr inbounds %"struct.pov_base::ITextStream::FilePos", %"struct.pov_base::ITextStream::FilePos"* %ref.tmp, i32 0, i32 0, !dbg !2651
  %10 = load i64, i64* %offset, align 8, !dbg !2651
  store i64 %10, i64* %Hash_Loc, align 8, !dbg !2647
  %11 = load i32, i32* %Curr_Type, align 4, !dbg !2652
  %cmp = icmp eq i32 %11, 9, !dbg !2654
  br i1 %cmp, label %if.then, label %if.end10, !dbg !2655

if.then:                                          ; preds = %entry
  %12 = load %"struct.pov::Cond_Stack_Entry"*, %"struct.pov::Cond_Stack_Entry"** @_ZN3pov10Cond_StackE, align 8, !dbg !2656
  %13 = load i32, i32* @_ZN3pov8CS_IndexE, align 4, !dbg !2659
  %idxprom1 = sext i32 %13 to i64, !dbg !2656
  %arrayidx2 = getelementptr inbounds %"struct.pov::Cond_Stack_Entry", %"struct.pov::Cond_Stack_Entry"* %12, i64 %idxprom1, !dbg !2656
  %PMac3 = getelementptr inbounds %"struct.pov::Cond_Stack_Entry", %"struct.pov::Cond_Stack_Entry"* %arrayidx2, i32 0, i32 6, !dbg !2660
  %14 = load %"struct.pov::Pov_Macro_Struct"*, %"struct.pov::Pov_Macro_Struct"** %PMac3, align 8, !dbg !2660
  %Macro_End = getelementptr inbounds %"struct.pov::Pov_Macro_Struct", %"struct.pov::Pov_Macro_Struct"* %14, i32 0, i32 3, !dbg !2661
  %15 = load i64, i64* %Macro_End, align 8, !dbg !2661
  %16 = load i64, i64* %Hash_Loc, align 8, !dbg !2662
  %cmp4 = icmp eq i64 %15, %16, !dbg !2663
  br i1 %cmp4, label %if.then5, label %if.end9, !dbg !2664

if.then5:                                         ; preds = %if.then
  call void @_ZN3povL17Return_From_MacroEv(), !dbg !2665
  %17 = load i32, i32* @_ZN3pov8CS_IndexE, align 4, !dbg !2667
  %dec = add nsw i32 %17, -1, !dbg !2667
  store i32 %dec, i32* @_ZN3pov8CS_IndexE, align 4, !dbg !2667
  %cmp6 = icmp slt i32 %dec, 0, !dbg !2669
  br i1 %cmp6, label %if.then7, label %if.end, !dbg !2670

if.then7:                                         ; preds = %if.then5
  %call8 = call i32 (i8*, ...) @_ZN3pov5ErrorEPKcz(i8* getelementptr inbounds ([20 x i8], [20 x i8]* @.str.8, i64 0, i64 0)), !dbg !2671
  br label %if.end, !dbg !2673

if.end:                                           ; preds = %if.then7, %if.then5
  store i32 143, i32* getelementptr inbounds (%"struct.pov::Token_Struct", %"struct.pov::Token_Struct"* @_ZN3pov5TokenE, i32 0, i32 0), align 8, !dbg !2674
  store i8 0, i8* getelementptr inbounds (%"struct.pov::Token_Struct", %"struct.pov::Token_Struct"* @_ZN3pov5TokenE, i32 0, i32 13), align 8, !dbg !2675
  br label %if.end441, !dbg !2676

if.end9:                                          ; preds = %if.then
  br label %if.end10, !dbg !2677

if.end10:                                         ; preds = %if.end9, %entry
  %18 = load i16, i16* @_ZN3pov13Ok_To_DeclareE, align 2, !dbg !2678
  %tobool = icmp ne i16 %18, 0, !dbg !2678
  br i1 %tobool, label %if.end15, label %if.then11, !dbg !2680

if.then11:                                        ; preds = %if.end10
  %19 = load i32, i32* %After_Hash.addr, align 4, !dbg !2681
  %tobool12 = icmp ne i32 %19, 0, !dbg !2681
  br i1 %tobool12, label %if.then13, label %if.end14, !dbg !2684

if.then13:                                        ; preds = %if.then11
  store i32 157, i32* getelementptr inbounds (%"struct.pov::Token_Struct", %"struct.pov::Token_Struct"* @_ZN3pov5TokenE, i32 0, i32 0), align 8, !dbg !2685
  store i8 0, i8* getelementptr inbounds (%"struct.pov::Token_Struct", %"struct.pov::Token_Struct"* @_ZN3pov5TokenE, i32 0, i32 13), align 8, !dbg !2687
  br label %if.end14, !dbg !2688

if.end14:                                         ; preds = %if.then13, %if.then11
  store i32 0, i32* getelementptr inbounds (%"struct.pov::Token_Struct", %"struct.pov::Token_Struct"* @_ZN3pov5TokenE, i32 0, i32 7), align 8, !dbg !2689
  br label %if.end441, !dbg !2690

if.end15:                                         ; preds = %if.end10
  call void @llvm.dbg.declare(metadata i32* %Exit_Flag, metadata !2691, metadata !DIExpression()), !dbg !2693
  store i32 0, i32* %Exit_Flag, align 4, !dbg !2693
  br label %while.cond, !dbg !2693

while.cond:                                       ; preds = %sw.epilog436, %if.end15
  %20 = load i32, i32* %Exit_Flag, align 4, !dbg !2693
  %tobool16 = icmp ne i32 %20, 0, !dbg !2693
  %lnot = xor i1 %tobool16, true, !dbg !2693
  br i1 %lnot, label %while.body, label %while.end437, !dbg !2693

while.body:                                       ; preds = %while.cond
  call void @_ZN3pov9Get_TokenEv(), !dbg !2694
  %21 = load i32, i32* getelementptr inbounds (%"struct.pov::Token_Struct", %"struct.pov::Token_Struct"* @_ZN3pov5TokenE, i32 0, i32 0), align 8, !dbg !2694
  switch i32 %21, label %sw.default435 [
    i32 402, label %sw.bb
    i32 409, label %sw.bb34
    i32 353, label %sw.bb53
    i32 359, label %sw.bb72
    i32 354, label %sw.bb99
    i32 356, label %sw.bb117
    i32 360, label %sw.bb168
    i32 357, label %sw.bb175
    i32 358, label %sw.bb175
    i32 355, label %sw.bb214
    i32 134, label %sw.bb268
    i32 424, label %sw.bb268
    i32 135, label %sw.bb286
    i32 164, label %sw.bb291
    i32 64, label %sw.bb296
    i32 372, label %sw.bb326
    i32 373, label %sw.bb341
    i32 374, label %sw.bb356
    i32 375, label %sw.bb356
    i32 376, label %sw.bb358
    i32 434, label %sw.bb373
    i32 435, label %sw.bb378
    i32 437, label %sw.bb383
    i32 436, label %sw.bb388
    i32 425, label %sw.bb393
    i32 427, label %sw.bb415
    i32 426, label %sw.bb420
  ], !dbg !2694

sw.bb:                                            ; preds = %while.body
  call void @_ZN3povL12Inc_CS_IndexEv(), !dbg !2696
  %22 = load i32, i32* @_ZN3pov8SkippingE, align 4, !dbg !2698
  %tobool17 = icmp ne i32 %22, 0, !dbg !2698
  br i1 %tobool17, label %if.then18, label %if.else, !dbg !2700

if.then18:                                        ; preds = %sw.bb
  %23 = load %"struct.pov::Cond_Stack_Entry"*, %"struct.pov::Cond_Stack_Entry"** @_ZN3pov10Cond_StackE, align 8, !dbg !2701
  %24 = load i32, i32* @_ZN3pov8CS_IndexE, align 4, !dbg !2703
  %idxprom19 = sext i32 %24 to i64, !dbg !2701
  %arrayidx20 = getelementptr inbounds %"struct.pov::Cond_Stack_Entry", %"struct.pov::Cond_Stack_Entry"* %23, i64 %idxprom19, !dbg !2701
  %Cond_Type21 = getelementptr inbounds %"struct.pov::Cond_Stack_Entry", %"struct.pov::Cond_Stack_Entry"* %arrayidx20, i32 0, i32 0, !dbg !2704
  store i32 8, i32* %Cond_Type21, align 8, !dbg !2705
  call void @_ZN3povL11Skip_TokensENS_9cond_typeE(i32 8), !dbg !2706
  br label %if.end33, !dbg !2707

if.else:                                          ; preds = %sw.bb
  %call22 = call i32 @_ZN3pov17Parse_Ifdef_ParamEv(), !dbg !2708
  %tobool23 = icmp ne i32 %call22, 0, !dbg !2708
  br i1 %tobool23, label %if.then24, label %if.else28, !dbg !2711

if.then24:                                        ; preds = %if.else
  %25 = load %"struct.pov::Cond_Stack_Entry"*, %"struct.pov::Cond_Stack_Entry"** @_ZN3pov10Cond_StackE, align 8, !dbg !2712
  %26 = load i32, i32* @_ZN3pov8CS_IndexE, align 4, !dbg !2714
  %idxprom25 = sext i32 %26 to i64, !dbg !2712
  %arrayidx26 = getelementptr inbounds %"struct.pov::Cond_Stack_Entry", %"struct.pov::Cond_Stack_Entry"* %25, i64 %idxprom25, !dbg !2712
  %Cond_Type27 = getelementptr inbounds %"struct.pov::Cond_Stack_Entry", %"struct.pov::Cond_Stack_Entry"* %arrayidx26, i32 0, i32 0, !dbg !2715
  store i32 2, i32* %Cond_Type27, align 8, !dbg !2716
  br label %if.end32, !dbg !2717

if.else28:                                        ; preds = %if.else
  %27 = load %"struct.pov::Cond_Stack_Entry"*, %"struct.pov::Cond_Stack_Entry"** @_ZN3pov10Cond_StackE, align 8, !dbg !2718
  %28 = load i32, i32* @_ZN3pov8CS_IndexE, align 4, !dbg !2720
  %idxprom29 = sext i32 %28 to i64, !dbg !2718
  %arrayidx30 = getelementptr inbounds %"struct.pov::Cond_Stack_Entry", %"struct.pov::Cond_Stack_Entry"* %27, i64 %idxprom29, !dbg !2718
  %Cond_Type31 = getelementptr inbounds %"struct.pov::Cond_Stack_Entry", %"struct.pov::Cond_Stack_Entry"* %arrayidx30, i32 0, i32 0, !dbg !2721
  store i32 3, i32* %Cond_Type31, align 8, !dbg !2722
  call void @_ZN3povL11Skip_TokensENS_9cond_typeE(i32 3), !dbg !2723
  br label %if.end32

if.end32:                                         ; preds = %if.else28, %if.then24
  br label %if.end33

if.end33:                                         ; preds = %if.end32, %if.then18
  store i32 1, i32* %Exit_Flag, align 4, !dbg !2724
  br label %sw.epilog436, !dbg !2725

sw.bb34:                                          ; preds = %while.body
  call void @_ZN3povL12Inc_CS_IndexEv(), !dbg !2726
  %29 = load i32, i32* @_ZN3pov8SkippingE, align 4, !dbg !2727
  %tobool35 = icmp ne i32 %29, 0, !dbg !2727
  br i1 %tobool35, label %if.then36, label %if.else40, !dbg !2729

if.then36:                                        ; preds = %sw.bb34
  %30 = load %"struct.pov::Cond_Stack_Entry"*, %"struct.pov::Cond_Stack_Entry"** @_ZN3pov10Cond_StackE, align 8, !dbg !2730
  %31 = load i32, i32* @_ZN3pov8CS_IndexE, align 4, !dbg !2732
  %idxprom37 = sext i32 %31 to i64, !dbg !2730
  %arrayidx38 = getelementptr inbounds %"struct.pov::Cond_Stack_Entry", %"struct.pov::Cond_Stack_Entry"* %30, i64 %idxprom37, !dbg !2730
  %Cond_Type39 = getelementptr inbounds %"struct.pov::Cond_Stack_Entry", %"struct.pov::Cond_Stack_Entry"* %arrayidx38, i32 0, i32 0, !dbg !2733
  store i32 8, i32* %Cond_Type39, align 8, !dbg !2734
  call void @_ZN3povL11Skip_TokensENS_9cond_typeE(i32 8), !dbg !2735
  br label %if.end52, !dbg !2736

if.else40:                                        ; preds = %sw.bb34
  %call41 = call i32 @_ZN3pov17Parse_Ifdef_ParamEv(), !dbg !2737
  %tobool42 = icmp ne i32 %call41, 0, !dbg !2737
  br i1 %tobool42, label %if.then43, label %if.else47, !dbg !2740

if.then43:                                        ; preds = %if.else40
  %32 = load %"struct.pov::Cond_Stack_Entry"*, %"struct.pov::Cond_Stack_Entry"** @_ZN3pov10Cond_StackE, align 8, !dbg !2741
  %33 = load i32, i32* @_ZN3pov8CS_IndexE, align 4, !dbg !2743
  %idxprom44 = sext i32 %33 to i64, !dbg !2741
  %arrayidx45 = getelementptr inbounds %"struct.pov::Cond_Stack_Entry", %"struct.pov::Cond_Stack_Entry"* %32, i64 %idxprom44, !dbg !2741
  %Cond_Type46 = getelementptr inbounds %"struct.pov::Cond_Stack_Entry", %"struct.pov::Cond_Stack_Entry"* %arrayidx45, i32 0, i32 0, !dbg !2744
  store i32 3, i32* %Cond_Type46, align 8, !dbg !2745
  call void @_ZN3povL11Skip_TokensENS_9cond_typeE(i32 3), !dbg !2746
  br label %if.end51, !dbg !2747

if.else47:                                        ; preds = %if.else40
  %34 = load %"struct.pov::Cond_Stack_Entry"*, %"struct.pov::Cond_Stack_Entry"** @_ZN3pov10Cond_StackE, align 8, !dbg !2748
  %35 = load i32, i32* @_ZN3pov8CS_IndexE, align 4, !dbg !2750
  %idxprom48 = sext i32 %35 to i64, !dbg !2748
  %arrayidx49 = getelementptr inbounds %"struct.pov::Cond_Stack_Entry", %"struct.pov::Cond_Stack_Entry"* %34, i64 %idxprom48, !dbg !2748
  %Cond_Type50 = getelementptr inbounds %"struct.pov::Cond_Stack_Entry", %"struct.pov::Cond_Stack_Entry"* %arrayidx49, i32 0, i32 0, !dbg !2751
  store i32 2, i32* %Cond_Type50, align 8, !dbg !2752
  br label %if.end51

if.end51:                                         ; preds = %if.else47, %if.then43
  br label %if.end52

if.end52:                                         ; preds = %if.end51, %if.then36
  store i32 1, i32* %Exit_Flag, align 4, !dbg !2753
  br label %sw.epilog436, !dbg !2754

sw.bb53:                                          ; preds = %while.body
  call void @_ZN3povL12Inc_CS_IndexEv(), !dbg !2755
  %36 = load i32, i32* @_ZN3pov8SkippingE, align 4, !dbg !2756
  %tobool54 = icmp ne i32 %36, 0, !dbg !2756
  br i1 %tobool54, label %if.then55, label %if.else59, !dbg !2758

if.then55:                                        ; preds = %sw.bb53
  %37 = load %"struct.pov::Cond_Stack_Entry"*, %"struct.pov::Cond_Stack_Entry"** @_ZN3pov10Cond_StackE, align 8, !dbg !2759
  %38 = load i32, i32* @_ZN3pov8CS_IndexE, align 4, !dbg !2761
  %idxprom56 = sext i32 %38 to i64, !dbg !2759
  %arrayidx57 = getelementptr inbounds %"struct.pov::Cond_Stack_Entry", %"struct.pov::Cond_Stack_Entry"* %37, i64 %idxprom56, !dbg !2759
  %Cond_Type58 = getelementptr inbounds %"struct.pov::Cond_Stack_Entry", %"struct.pov::Cond_Stack_Entry"* %arrayidx57, i32 0, i32 0, !dbg !2762
  store i32 8, i32* %Cond_Type58, align 8, !dbg !2763
  call void @_ZN3povL11Skip_TokensENS_9cond_typeE(i32 8), !dbg !2764
  br label %if.end71, !dbg !2765

if.else59:                                        ; preds = %sw.bb53
  %call60 = call double @_ZN3povL16Parse_Cond_ParamEv(), !dbg !2766
  store double %call60, double* %Value, align 8, !dbg !2768
  %39 = load double, double* %Value, align 8, !dbg !2769
  %40 = call double @llvm.fabs.f64(double %39), !dbg !2771
  %cmp61 = fcmp ogt double %40, 0x3E7AD7F29ABCAF48, !dbg !2772
  br i1 %cmp61, label %if.then62, label %if.else66, !dbg !2773

if.then62:                                        ; preds = %if.else59
  %41 = load %"struct.pov::Cond_Stack_Entry"*, %"struct.pov::Cond_Stack_Entry"** @_ZN3pov10Cond_StackE, align 8, !dbg !2774
  %42 = load i32, i32* @_ZN3pov8CS_IndexE, align 4, !dbg !2776
  %idxprom63 = sext i32 %42 to i64, !dbg !2774
  %arrayidx64 = getelementptr inbounds %"struct.pov::Cond_Stack_Entry", %"struct.pov::Cond_Stack_Entry"* %41, i64 %idxprom63, !dbg !2774
  %Cond_Type65 = getelementptr inbounds %"struct.pov::Cond_Stack_Entry", %"struct.pov::Cond_Stack_Entry"* %arrayidx64, i32 0, i32 0, !dbg !2777
  store i32 2, i32* %Cond_Type65, align 8, !dbg !2778
  br label %if.end70, !dbg !2779

if.else66:                                        ; preds = %if.else59
  %43 = load %"struct.pov::Cond_Stack_Entry"*, %"struct.pov::Cond_Stack_Entry"** @_ZN3pov10Cond_StackE, align 8, !dbg !2780
  %44 = load i32, i32* @_ZN3pov8CS_IndexE, align 4, !dbg !2782
  %idxprom67 = sext i32 %44 to i64, !dbg !2780
  %arrayidx68 = getelementptr inbounds %"struct.pov::Cond_Stack_Entry", %"struct.pov::Cond_Stack_Entry"* %43, i64 %idxprom67, !dbg !2780
  %Cond_Type69 = getelementptr inbounds %"struct.pov::Cond_Stack_Entry", %"struct.pov::Cond_Stack_Entry"* %arrayidx68, i32 0, i32 0, !dbg !2783
  store i32 3, i32* %Cond_Type69, align 8, !dbg !2784
  call void @_ZN3povL11Skip_TokensENS_9cond_typeE(i32 3), !dbg !2785
  br label %if.end70

if.end70:                                         ; preds = %if.else66, %if.then62
  br label %if.end71

if.end71:                                         ; preds = %if.end70, %if.then55
  store i32 1, i32* %Exit_Flag, align 4, !dbg !2786
  br label %sw.epilog436, !dbg !2787

sw.bb72:                                          ; preds = %while.body
  call void @_ZN3povL12Inc_CS_IndexEv(), !dbg !2788
  %45 = load i32, i32* @_ZN3pov8SkippingE, align 4, !dbg !2789
  %tobool73 = icmp ne i32 %45, 0, !dbg !2789
  br i1 %tobool73, label %if.then74, label %if.else78, !dbg !2791

if.then74:                                        ; preds = %sw.bb72
  %46 = load %"struct.pov::Cond_Stack_Entry"*, %"struct.pov::Cond_Stack_Entry"** @_ZN3pov10Cond_StackE, align 8, !dbg !2792
  %47 = load i32, i32* @_ZN3pov8CS_IndexE, align 4, !dbg !2794
  %idxprom75 = sext i32 %47 to i64, !dbg !2792
  %arrayidx76 = getelementptr inbounds %"struct.pov::Cond_Stack_Entry", %"struct.pov::Cond_Stack_Entry"* %46, i64 %idxprom75, !dbg !2792
  %Cond_Type77 = getelementptr inbounds %"struct.pov::Cond_Stack_Entry", %"struct.pov::Cond_Stack_Entry"* %arrayidx76, i32 0, i32 0, !dbg !2795
  store i32 8, i32* %Cond_Type77, align 8, !dbg !2796
  call void @_ZN3povL11Skip_TokensENS_9cond_typeE(i32 8), !dbg !2797
  br label %if.end98, !dbg !2798

if.else78:                                        ; preds = %sw.bb72
  %48 = load %"struct.pov::InputFileData"*, %"struct.pov::InputFileData"** @_ZN3pov10Input_FileE, align 8, !dbg !2799
  %In_File79 = getelementptr inbounds %"struct.pov::InputFileData", %"struct.pov::InputFileData"* %48, i32 0, i32 0, !dbg !2801
  %49 = load %"class.pov_base::ITextStream"*, %"class.pov_base::ITextStream"** %In_File79, align 8, !dbg !2801
  %50 = load %"struct.pov::Cond_Stack_Entry"*, %"struct.pov::Cond_Stack_Entry"** @_ZN3pov10Cond_StackE, align 8, !dbg !2802
  %51 = load i32, i32* @_ZN3pov8CS_IndexE, align 4, !dbg !2803
  %idxprom80 = sext i32 %51 to i64, !dbg !2802
  %arrayidx81 = getelementptr inbounds %"struct.pov::Cond_Stack_Entry", %"struct.pov::Cond_Stack_Entry"* %50, i64 %idxprom80, !dbg !2802
  %While_File = getelementptr inbounds %"struct.pov::Cond_Stack_Entry", %"struct.pov::Cond_Stack_Entry"* %arrayidx81, i32 0, i32 2, !dbg !2804
  store %"class.pov_base::ITextStream"* %49, %"class.pov_base::ITextStream"** %While_File, align 8, !dbg !2805
  %52 = load %"struct.pov::InputFileData"*, %"struct.pov::InputFileData"** @_ZN3pov10Input_FileE, align 8, !dbg !2806
  %In_File83 = getelementptr inbounds %"struct.pov::InputFileData", %"struct.pov::InputFileData"* %52, i32 0, i32 0, !dbg !2807
  %53 = load %"class.pov_base::ITextStream"*, %"class.pov_base::ITextStream"** %In_File83, align 8, !dbg !2807
  %call84 = call { i64, i32 } @_ZN8pov_base11ITextStream5tellgEv(%"class.pov_base::ITextStream"* %53), !dbg !2808
  %54 = bitcast %"struct.pov_base::ITextStream::FilePos"* %ref.tmp82 to { i64, i32 }*, !dbg !2808
  %55 = getelementptr inbounds { i64, i32 }, { i64, i32 }* %54, i32 0, i32 0, !dbg !2808
  %56 = extractvalue { i64, i32 } %call84, 0, !dbg !2808
  store i64 %56, i64* %55, align 8, !dbg !2808
  %57 = getelementptr inbounds { i64, i32 }, { i64, i32 }* %54, i32 0, i32 1, !dbg !2808
  %58 = extractvalue { i64, i32 } %call84, 1, !dbg !2808
  store i32 %58, i32* %57, align 8, !dbg !2808
  %59 = load %"struct.pov::Cond_Stack_Entry"*, %"struct.pov::Cond_Stack_Entry"** @_ZN3pov10Cond_StackE, align 8, !dbg !2809
  %60 = load i32, i32* @_ZN3pov8CS_IndexE, align 4, !dbg !2810
  %idxprom85 = sext i32 %60 to i64, !dbg !2809
  %arrayidx86 = getelementptr inbounds %"struct.pov::Cond_Stack_Entry", %"struct.pov::Cond_Stack_Entry"* %59, i64 %idxprom85, !dbg !2809
  %File_Pos = getelementptr inbounds %"struct.pov::Cond_Stack_Entry", %"struct.pov::Cond_Stack_Entry"* %arrayidx86, i32 0, i32 7, !dbg !2811
  %61 = bitcast %"struct.pov_base::ITextStream::FilePos"* %File_Pos to i8*, !dbg !2812
  %62 = bitcast %"struct.pov_base::ITextStream::FilePos"* %ref.tmp82 to i8*, !dbg !2812
  call void @llvm.memcpy.p0i8.p0i8.i64(i8* align 8 %61, i8* align 8 %62, i64 16, i1 false), !dbg !2812
  %call87 = call double @_ZN3povL16Parse_Cond_ParamEv(), !dbg !2813
  store double %call87, double* %Value, align 8, !dbg !2814
  %63 = load double, double* %Value, align 8, !dbg !2815
  %64 = call double @llvm.fabs.f64(double %63), !dbg !2817
  %cmp88 = fcmp ogt double %64, 0x3E7AD7F29ABCAF48, !dbg !2818
  br i1 %cmp88, label %if.then89, label %if.else93, !dbg !2819

if.then89:                                        ; preds = %if.else78
  %65 = load %"struct.pov::Cond_Stack_Entry"*, %"struct.pov::Cond_Stack_Entry"** @_ZN3pov10Cond_StackE, align 8, !dbg !2820
  %66 = load i32, i32* @_ZN3pov8CS_IndexE, align 4, !dbg !2822
  %idxprom90 = sext i32 %66 to i64, !dbg !2820
  %arrayidx91 = getelementptr inbounds %"struct.pov::Cond_Stack_Entry", %"struct.pov::Cond_Stack_Entry"* %65, i64 %idxprom90, !dbg !2820
  %Cond_Type92 = getelementptr inbounds %"struct.pov::Cond_Stack_Entry", %"struct.pov::Cond_Stack_Entry"* %arrayidx91, i32 0, i32 0, !dbg !2823
  store i32 1, i32* %Cond_Type92, align 8, !dbg !2824
  br label %if.end97, !dbg !2825

if.else93:                                        ; preds = %if.else78
  %67 = load %"struct.pov::Cond_Stack_Entry"*, %"struct.pov::Cond_Stack_Entry"** @_ZN3pov10Cond_StackE, align 8, !dbg !2826
  %68 = load i32, i32* @_ZN3pov8CS_IndexE, align 4, !dbg !2828
  %idxprom94 = sext i32 %68 to i64, !dbg !2826
  %arrayidx95 = getelementptr inbounds %"struct.pov::Cond_Stack_Entry", %"struct.pov::Cond_Stack_Entry"* %67, i64 %idxprom94, !dbg !2826
  %Cond_Type96 = getelementptr inbounds %"struct.pov::Cond_Stack_Entry", %"struct.pov::Cond_Stack_Entry"* %arrayidx95, i32 0, i32 0, !dbg !2829
  store i32 8, i32* %Cond_Type96, align 8, !dbg !2830
  call void @_ZN3povL11Skip_TokensENS_9cond_typeE(i32 8), !dbg !2831
  br label %if.end97

if.end97:                                         ; preds = %if.else93, %if.then89
  br label %if.end98

if.end98:                                         ; preds = %if.end97, %if.then74
  store i32 1, i32* %Exit_Flag, align 4, !dbg !2832
  br label %sw.epilog436, !dbg !2833

sw.bb99:                                          ; preds = %while.body
  %69 = load i32, i32* %Curr_Type, align 4, !dbg !2834
  switch i32 %69, label %sw.default [
    i32 2, label %sw.bb100
    i32 3, label %sw.bb104
    i32 6, label %sw.bb108
    i32 8, label %sw.bb108
    i32 7, label %sw.bb109
  ], !dbg !2835

sw.bb100:                                         ; preds = %sw.bb99
  %70 = load %"struct.pov::Cond_Stack_Entry"*, %"struct.pov::Cond_Stack_Entry"** @_ZN3pov10Cond_StackE, align 8, !dbg !2836
  %71 = load i32, i32* @_ZN3pov8CS_IndexE, align 4, !dbg !2838
  %idxprom101 = sext i32 %71 to i64, !dbg !2836
  %arrayidx102 = getelementptr inbounds %"struct.pov::Cond_Stack_Entry", %"struct.pov::Cond_Stack_Entry"* %70, i64 %idxprom101, !dbg !2836
  %Cond_Type103 = getelementptr inbounds %"struct.pov::Cond_Stack_Entry", %"struct.pov::Cond_Stack_Entry"* %arrayidx102, i32 0, i32 0, !dbg !2839
  store i32 8, i32* %Cond_Type103, align 8, !dbg !2840
  call void @_ZN3povL11Skip_TokensENS_9cond_typeE(i32 8), !dbg !2841
  br label %sw.epilog, !dbg !2842

sw.bb104:                                         ; preds = %sw.bb99
  %72 = load %"struct.pov::Cond_Stack_Entry"*, %"struct.pov::Cond_Stack_Entry"** @_ZN3pov10Cond_StackE, align 8, !dbg !2843
  %73 = load i32, i32* @_ZN3pov8CS_IndexE, align 4, !dbg !2844
  %idxprom105 = sext i32 %73 to i64, !dbg !2843
  %arrayidx106 = getelementptr inbounds %"struct.pov::Cond_Stack_Entry", %"struct.pov::Cond_Stack_Entry"* %72, i64 %idxprom105, !dbg !2843
  %Cond_Type107 = getelementptr inbounds %"struct.pov::Cond_Stack_Entry", %"struct.pov::Cond_Stack_Entry"* %arrayidx106, i32 0, i32 0, !dbg !2845
  store i32 4, i32* %Cond_Type107, align 8, !dbg !2846
  store i32 157, i32* getelementptr inbounds (%"struct.pov::Token_Struct", %"struct.pov::Token_Struct"* @_ZN3pov5TokenE, i32 0, i32 0), align 8, !dbg !2847
  store i8 0, i8* getelementptr inbounds (%"struct.pov::Token_Struct", %"struct.pov::Token_Struct"* @_ZN3pov5TokenE, i32 0, i32 13), align 8, !dbg !2848
  call void @_ZN3pov11Unget_TokenEv(), !dbg !2849
  br label %sw.epilog, !dbg !2850

sw.bb108:                                         ; preds = %sw.bb99, %sw.bb99
  br label %sw.epilog, !dbg !2851

sw.bb109:                                         ; preds = %sw.bb99
  %74 = load %"struct.pov::Cond_Stack_Entry"*, %"struct.pov::Cond_Stack_Entry"** @_ZN3pov10Cond_StackE, align 8, !dbg !2852
  %75 = load i32, i32* @_ZN3pov8CS_IndexE, align 4, !dbg !2853
  %idxprom110 = sext i32 %75 to i64, !dbg !2852
  %arrayidx111 = getelementptr inbounds %"struct.pov::Cond_Stack_Entry", %"struct.pov::Cond_Stack_Entry"* %74, i64 %idxprom110, !dbg !2852
  %Cond_Type112 = getelementptr inbounds %"struct.pov::Cond_Stack_Entry", %"struct.pov::Cond_Stack_Entry"* %arrayidx111, i32 0, i32 0, !dbg !2854
  store i32 6, i32* %Cond_Type112, align 8, !dbg !2855
  %76 = load i32, i32* @_ZN3pov8SkippingE, align 4, !dbg !2856
  %tobool113 = icmp ne i32 %76, 0, !dbg !2856
  br i1 %tobool113, label %if.then114, label %if.end115, !dbg !2858

if.then114:                                       ; preds = %sw.bb109
  store i32 157, i32* getelementptr inbounds (%"struct.pov::Token_Struct", %"struct.pov::Token_Struct"* @_ZN3pov5TokenE, i32 0, i32 0), align 8, !dbg !2859
  store i8 0, i8* getelementptr inbounds (%"struct.pov::Token_Struct", %"struct.pov::Token_Struct"* @_ZN3pov5TokenE, i32 0, i32 13), align 8, !dbg !2861
  call void @_ZN3pov11Unget_TokenEv(), !dbg !2862
  br label %if.end115, !dbg !2863

if.end115:                                        ; preds = %if.then114, %sw.bb109
  br label %sw.epilog, !dbg !2864

sw.default:                                       ; preds = %sw.bb99
  %call116 = call i32 (i8*, ...) @_ZN3pov5ErrorEPKcz(i8* getelementptr inbounds ([21 x i8], [21 x i8]* @.str.9, i64 0, i64 0)), !dbg !2865
  br label %sw.epilog, !dbg !2866

sw.epilog:                                        ; preds = %sw.default, %if.end115, %sw.bb108, %sw.bb104, %sw.bb100
  store i32 1, i32* %Exit_Flag, align 4, !dbg !2867
  br label %sw.epilog436, !dbg !2868

sw.bb117:                                         ; preds = %while.body
  call void @_ZN3povL12Inc_CS_IndexEv(), !dbg !2869
  %77 = load i32, i32* @_ZN3pov8SkippingE, align 4, !dbg !2870
  %tobool118 = icmp ne i32 %77, 0, !dbg !2870
  br i1 %tobool118, label %if.then119, label %if.else123, !dbg !2872

if.then119:                                       ; preds = %sw.bb117
  %78 = load %"struct.pov::Cond_Stack_Entry"*, %"struct.pov::Cond_Stack_Entry"** @_ZN3pov10Cond_StackE, align 8, !dbg !2873
  %79 = load i32, i32* @_ZN3pov8CS_IndexE, align 4, !dbg !2875
  %idxprom120 = sext i32 %79 to i64, !dbg !2873
  %arrayidx121 = getelementptr inbounds %"struct.pov::Cond_Stack_Entry", %"struct.pov::Cond_Stack_Entry"* %78, i64 %idxprom120, !dbg !2873
  %Cond_Type122 = getelementptr inbounds %"struct.pov::Cond_Stack_Entry", %"struct.pov::Cond_Stack_Entry"* %arrayidx121, i32 0, i32 0, !dbg !2876
  store i32 8, i32* %Cond_Type122, align 8, !dbg !2877
  call void @_ZN3povL11Skip_TokensENS_9cond_typeE(i32 8), !dbg !2878
  br label %if.end167, !dbg !2879

if.else123:                                       ; preds = %sw.bb117
  %call124 = call double @_ZN3povL16Parse_Cond_ParamEv(), !dbg !2880
  %80 = load %"struct.pov::Cond_Stack_Entry"*, %"struct.pov::Cond_Stack_Entry"** @_ZN3pov10Cond_StackE, align 8, !dbg !2882
  %81 = load i32, i32* @_ZN3pov8CS_IndexE, align 4, !dbg !2883
  %idxprom125 = sext i32 %81 to i64, !dbg !2882
  %arrayidx126 = getelementptr inbounds %"struct.pov::Cond_Stack_Entry", %"struct.pov::Cond_Stack_Entry"* %80, i64 %idxprom125, !dbg !2882
  %Switch_Value = getelementptr inbounds %"struct.pov::Cond_Stack_Entry", %"struct.pov::Cond_Stack_Entry"* %arrayidx126, i32 0, i32 1, !dbg !2884
  store double %call124, double* %Switch_Value, align 8, !dbg !2885
  %82 = load %"struct.pov::Cond_Stack_Entry"*, %"struct.pov::Cond_Stack_Entry"** @_ZN3pov10Cond_StackE, align 8, !dbg !2886
  %83 = load i32, i32* @_ZN3pov8CS_IndexE, align 4, !dbg !2887
  %idxprom127 = sext i32 %83 to i64, !dbg !2886
  %arrayidx128 = getelementptr inbounds %"struct.pov::Cond_Stack_Entry", %"struct.pov::Cond_Stack_Entry"* %82, i64 %idxprom127, !dbg !2886
  %Cond_Type129 = getelementptr inbounds %"struct.pov::Cond_Stack_Entry", %"struct.pov::Cond_Stack_Entry"* %arrayidx128, i32 0, i32 0, !dbg !2888
  store i32 5, i32* %Cond_Type129, align 8, !dbg !2889
  call void @llvm.dbg.declare(metadata i32* %Exit_Flag130, metadata !2890, metadata !DIExpression()), !dbg !2892
  store i32 0, i32* %Exit_Flag130, align 4, !dbg !2892
  br label %while.cond131, !dbg !2892

while.cond131:                                    ; preds = %sw.epilog166, %if.else123
  %84 = load i32, i32* %Exit_Flag130, align 4, !dbg !2892
  %tobool132 = icmp ne i32 %84, 0, !dbg !2892
  %lnot133 = xor i1 %tobool132, true, !dbg !2892
  br i1 %lnot133, label %while.body134, label %while.end, !dbg !2892

while.body134:                                    ; preds = %while.cond131
  call void @_ZN3pov9Get_TokenEv(), !dbg !2893
  %85 = load i32, i32* getelementptr inbounds (%"struct.pov::Token_Struct", %"struct.pov::Token_Struct"* @_ZN3pov5TokenE, i32 0, i32 0), align 8, !dbg !2893
  switch i32 %85, label %sw.default164 [
    i32 357, label %sw.bb135
    i32 358, label %sw.bb135
  ], !dbg !2893

sw.bb135:                                         ; preds = %while.body134, %while.body134
  %86 = load i32, i32* getelementptr inbounds (%"struct.pov::Token_Struct", %"struct.pov::Token_Struct"* @_ZN3pov5TokenE, i32 0, i32 0), align 8, !dbg !2895
  %cmp136 = icmp eq i32 %86, 357, !dbg !2898
  br i1 %cmp136, label %if.then137, label %if.else143, !dbg !2899

if.then137:                                       ; preds = %sw.bb135
  %call138 = call double @_ZN3povL16Parse_Cond_ParamEv(), !dbg !2900
  store double %call138, double* %Value, align 8, !dbg !2902
  %87 = load double, double* %Value, align 8, !dbg !2903
  %88 = load %"struct.pov::Cond_Stack_Entry"*, %"struct.pov::Cond_Stack_Entry"** @_ZN3pov10Cond_StackE, align 8, !dbg !2904
  %89 = load i32, i32* @_ZN3pov8CS_IndexE, align 4, !dbg !2905
  %idxprom139 = sext i32 %89 to i64, !dbg !2904
  %arrayidx140 = getelementptr inbounds %"struct.pov::Cond_Stack_Entry", %"struct.pov::Cond_Stack_Entry"* %88, i64 %idxprom139, !dbg !2904
  %Switch_Value141 = getelementptr inbounds %"struct.pov::Cond_Stack_Entry", %"struct.pov::Cond_Stack_Entry"* %arrayidx140, i32 0, i32 1, !dbg !2906
  %90 = load double, double* %Switch_Value141, align 8, !dbg !2906
  %sub = fsub double %87, %90, !dbg !2907
  %91 = call double @llvm.fabs.f64(double %sub), !dbg !2908
  %cmp142 = fcmp olt double %91, 0x3E7AD7F29ABCAF48, !dbg !2909
  %conv = zext i1 %cmp142 to i32, !dbg !2910
  store i32 %conv, i32* %Flag, align 4, !dbg !2911
  br label %if.end153, !dbg !2912

if.else143:                                       ; preds = %sw.bb135
  call void @_ZN3povL17Parse_Cond_Param2EPdS0_(double* %Value, double* %Value2), !dbg !2913
  %92 = load %"struct.pov::Cond_Stack_Entry"*, %"struct.pov::Cond_Stack_Entry"** @_ZN3pov10Cond_StackE, align 8, !dbg !2915
  %93 = load i32, i32* @_ZN3pov8CS_IndexE, align 4, !dbg !2916
  %idxprom144 = sext i32 %93 to i64, !dbg !2915
  %arrayidx145 = getelementptr inbounds %"struct.pov::Cond_Stack_Entry", %"struct.pov::Cond_Stack_Entry"* %92, i64 %idxprom144, !dbg !2915
  %Switch_Value146 = getelementptr inbounds %"struct.pov::Cond_Stack_Entry", %"struct.pov::Cond_Stack_Entry"* %arrayidx145, i32 0, i32 1, !dbg !2917
  %94 = load double, double* %Switch_Value146, align 8, !dbg !2917
  %95 = load double, double* %Value, align 8, !dbg !2918
  %cmp147 = fcmp oge double %94, %95, !dbg !2919
  br i1 %cmp147, label %land.rhs, label %land.end, !dbg !2920

land.rhs:                                         ; preds = %if.else143
  %96 = load %"struct.pov::Cond_Stack_Entry"*, %"struct.pov::Cond_Stack_Entry"** @_ZN3pov10Cond_StackE, align 8, !dbg !2921
  %97 = load i32, i32* @_ZN3pov8CS_IndexE, align 4, !dbg !2922
  %idxprom148 = sext i32 %97 to i64, !dbg !2921
  %arrayidx149 = getelementptr inbounds %"struct.pov::Cond_Stack_Entry", %"struct.pov::Cond_Stack_Entry"* %96, i64 %idxprom148, !dbg !2921
  %Switch_Value150 = getelementptr inbounds %"struct.pov::Cond_Stack_Entry", %"struct.pov::Cond_Stack_Entry"* %arrayidx149, i32 0, i32 1, !dbg !2923
  %98 = load double, double* %Switch_Value150, align 8, !dbg !2923
  %99 = load double, double* %Value2, align 8, !dbg !2924
  %cmp151 = fcmp ole double %98, %99, !dbg !2925
  br label %land.end

land.end:                                         ; preds = %land.rhs, %if.else143
  %100 = phi i1 [ false, %if.else143 ], [ %cmp151, %land.rhs ], !dbg !2926
  %conv152 = zext i1 %100 to i32, !dbg !2927
  store i32 %conv152, i32* %Flag, align 4, !dbg !2928
  br label %if.end153

if.end153:                                        ; preds = %land.end, %if.then137
  %101 = load i32, i32* %Flag, align 4, !dbg !2929
  %tobool154 = icmp ne i32 %101, 0, !dbg !2929
  br i1 %tobool154, label %if.then155, label %if.else159, !dbg !2931

if.then155:                                       ; preds = %if.end153
  %102 = load %"struct.pov::Cond_Stack_Entry"*, %"struct.pov::Cond_Stack_Entry"** @_ZN3pov10Cond_StackE, align 8, !dbg !2932
  %103 = load i32, i32* @_ZN3pov8CS_IndexE, align 4, !dbg !2934
  %idxprom156 = sext i32 %103 to i64, !dbg !2932
  %arrayidx157 = getelementptr inbounds %"struct.pov::Cond_Stack_Entry", %"struct.pov::Cond_Stack_Entry"* %102, i64 %idxprom156, !dbg !2932
  %Cond_Type158 = getelementptr inbounds %"struct.pov::Cond_Stack_Entry", %"struct.pov::Cond_Stack_Entry"* %arrayidx157, i32 0, i32 0, !dbg !2935
  store i32 6, i32* %Cond_Type158, align 8, !dbg !2936
  br label %if.end163, !dbg !2937

if.else159:                                       ; preds = %if.end153
  %104 = load %"struct.pov::Cond_Stack_Entry"*, %"struct.pov::Cond_Stack_Entry"** @_ZN3pov10Cond_StackE, align 8, !dbg !2938
  %105 = load i32, i32* @_ZN3pov8CS_IndexE, align 4, !dbg !2940
  %idxprom160 = sext i32 %105 to i64, !dbg !2938
  %arrayidx161 = getelementptr inbounds %"struct.pov::Cond_Stack_Entry", %"struct.pov::Cond_Stack_Entry"* %104, i64 %idxprom160, !dbg !2938
  %Cond_Type162 = getelementptr inbounds %"struct.pov::Cond_Stack_Entry", %"struct.pov::Cond_Stack_Entry"* %arrayidx161, i32 0, i32 0, !dbg !2941
  store i32 7, i32* %Cond_Type162, align 8, !dbg !2942
  call void @_ZN3povL11Skip_TokensENS_9cond_typeE(i32 7), !dbg !2943
  br label %if.end163

if.end163:                                        ; preds = %if.else159, %if.then155
  store i32 1, i32* %Exit_Flag130, align 4, !dbg !2944
  br label %sw.epilog166, !dbg !2945

sw.default164:                                    ; preds = %while.body134
  %call165 = call i32 (i8*, ...) @_ZN3pov5ErrorEPKcz(i8* getelementptr inbounds ([41 x i8], [41 x i8]* @.str.10, i64 0, i64 0)), !dbg !2946
  br label %sw.epilog166, !dbg !2947

sw.epilog166:                                     ; preds = %sw.default164, %if.end163
  br label %while.cond131, !dbg !2892, !llvm.loop !2948

while.end:                                        ; preds = %while.cond131
  br label %if.end167

if.end167:                                        ; preds = %while.end, %if.then119
  store i32 1, i32* %Exit_Flag, align 4, !dbg !2950
  br label %sw.epilog436, !dbg !2951

sw.bb168:                                         ; preds = %while.body
  %106 = load i32, i32* %Curr_Type, align 4, !dbg !2952
  %cmp169 = icmp eq i32 %106, 6, !dbg !2954
  br i1 %cmp169, label %if.then170, label %if.end174, !dbg !2955

if.then170:                                       ; preds = %sw.bb168
  %107 = load %"struct.pov::Cond_Stack_Entry"*, %"struct.pov::Cond_Stack_Entry"** @_ZN3pov10Cond_StackE, align 8, !dbg !2956
  %108 = load i32, i32* @_ZN3pov8CS_IndexE, align 4, !dbg !2958
  %idxprom171 = sext i32 %108 to i64, !dbg !2956
  %arrayidx172 = getelementptr inbounds %"struct.pov::Cond_Stack_Entry", %"struct.pov::Cond_Stack_Entry"* %107, i64 %idxprom171, !dbg !2956
  %Cond_Type173 = getelementptr inbounds %"struct.pov::Cond_Stack_Entry", %"struct.pov::Cond_Stack_Entry"* %arrayidx172, i32 0, i32 0, !dbg !2959
  store i32 8, i32* %Cond_Type173, align 8, !dbg !2960
  call void @_ZN3povL11Skip_TokensENS_9cond_typeE(i32 8), !dbg !2961
  br label %if.end174, !dbg !2962

if.end174:                                        ; preds = %if.then170, %sw.bb168
  store i32 1, i32* %Exit_Flag, align 4, !dbg !2963
  br label %sw.epilog436, !dbg !2964

sw.bb175:                                         ; preds = %while.body, %while.body
  %109 = load i32, i32* %Curr_Type, align 4, !dbg !2965
  switch i32 %109, label %sw.default211 [
    i32 6, label %sw.bb176
    i32 7, label %sw.bb176
    i32 5, label %sw.bb209
    i32 8, label %sw.bb210
  ], !dbg !2966

sw.bb176:                                         ; preds = %sw.bb175, %sw.bb175
  %110 = load i32, i32* getelementptr inbounds (%"struct.pov::Token_Struct", %"struct.pov::Token_Struct"* @_ZN3pov5TokenE, i32 0, i32 0), align 8, !dbg !2967
  %cmp177 = icmp eq i32 %110, 357, !dbg !2970
  br i1 %cmp177, label %if.then178, label %if.else186, !dbg !2971

if.then178:                                       ; preds = %sw.bb176
  %call179 = call double @_ZN3povL16Parse_Cond_ParamEv(), !dbg !2972
  store double %call179, double* %Value, align 8, !dbg !2974
  %111 = load double, double* %Value, align 8, !dbg !2975
  %112 = load %"struct.pov::Cond_Stack_Entry"*, %"struct.pov::Cond_Stack_Entry"** @_ZN3pov10Cond_StackE, align 8, !dbg !2976
  %113 = load i32, i32* @_ZN3pov8CS_IndexE, align 4, !dbg !2977
  %idxprom180 = sext i32 %113 to i64, !dbg !2976
  %arrayidx181 = getelementptr inbounds %"struct.pov::Cond_Stack_Entry", %"struct.pov::Cond_Stack_Entry"* %112, i64 %idxprom180, !dbg !2976
  %Switch_Value182 = getelementptr inbounds %"struct.pov::Cond_Stack_Entry", %"struct.pov::Cond_Stack_Entry"* %arrayidx181, i32 0, i32 1, !dbg !2978
  %114 = load double, double* %Switch_Value182, align 8, !dbg !2978
  %sub183 = fsub double %111, %114, !dbg !2979
  %115 = call double @llvm.fabs.f64(double %sub183), !dbg !2980
  %cmp184 = fcmp olt double %115, 0x3E7AD7F29ABCAF48, !dbg !2981
  %conv185 = zext i1 %cmp184 to i32, !dbg !2982
  store i32 %conv185, i32* %Flag, align 4, !dbg !2983
  br label %if.end198, !dbg !2984

if.else186:                                       ; preds = %sw.bb176
  call void @_ZN3povL17Parse_Cond_Param2EPdS0_(double* %Value, double* %Value2), !dbg !2985
  %116 = load %"struct.pov::Cond_Stack_Entry"*, %"struct.pov::Cond_Stack_Entry"** @_ZN3pov10Cond_StackE, align 8, !dbg !2987
  %117 = load i32, i32* @_ZN3pov8CS_IndexE, align 4, !dbg !2988
  %idxprom187 = sext i32 %117 to i64, !dbg !2987
  %arrayidx188 = getelementptr inbounds %"struct.pov::Cond_Stack_Entry", %"struct.pov::Cond_Stack_Entry"* %116, i64 %idxprom187, !dbg !2987
  %Switch_Value189 = getelementptr inbounds %"struct.pov::Cond_Stack_Entry", %"struct.pov::Cond_Stack_Entry"* %arrayidx188, i32 0, i32 1, !dbg !2989
  %118 = load double, double* %Switch_Value189, align 8, !dbg !2989
  %119 = load double, double* %Value, align 8, !dbg !2990
  %cmp190 = fcmp oge double %118, %119, !dbg !2991
  br i1 %cmp190, label %land.rhs191, label %land.end196, !dbg !2992

land.rhs191:                                      ; preds = %if.else186
  %120 = load %"struct.pov::Cond_Stack_Entry"*, %"struct.pov::Cond_Stack_Entry"** @_ZN3pov10Cond_StackE, align 8, !dbg !2993
  %121 = load i32, i32* @_ZN3pov8CS_IndexE, align 4, !dbg !2994
  %idxprom192 = sext i32 %121 to i64, !dbg !2993
  %arrayidx193 = getelementptr inbounds %"struct.pov::Cond_Stack_Entry", %"struct.pov::Cond_Stack_Entry"* %120, i64 %idxprom192, !dbg !2993
  %Switch_Value194 = getelementptr inbounds %"struct.pov::Cond_Stack_Entry", %"struct.pov::Cond_Stack_Entry"* %arrayidx193, i32 0, i32 1, !dbg !2995
  %122 = load double, double* %Switch_Value194, align 8, !dbg !2995
  %123 = load double, double* %Value2, align 8, !dbg !2996
  %cmp195 = fcmp ole double %122, %123, !dbg !2997
  br label %land.end196

land.end196:                                      ; preds = %land.rhs191, %if.else186
  %124 = phi i1 [ false, %if.else186 ], [ %cmp195, %land.rhs191 ], !dbg !2998
  %conv197 = zext i1 %124 to i32, !dbg !2999
  store i32 %conv197, i32* %Flag, align 4, !dbg !3000
  br label %if.end198

if.end198:                                        ; preds = %land.end196, %if.then178
  %125 = load i32, i32* %Flag, align 4, !dbg !3001
  %tobool199 = icmp ne i32 %125, 0, !dbg !3001
  br i1 %tobool199, label %land.lhs.true, label %if.end208, !dbg !3003

land.lhs.true:                                    ; preds = %if.end198
  %126 = load i32, i32* %Curr_Type, align 4, !dbg !3004
  %cmp200 = icmp eq i32 %126, 7, !dbg !3005
  br i1 %cmp200, label %if.then201, label %if.end208, !dbg !3006

if.then201:                                       ; preds = %land.lhs.true
  %127 = load %"struct.pov::Cond_Stack_Entry"*, %"struct.pov::Cond_Stack_Entry"** @_ZN3pov10Cond_StackE, align 8, !dbg !3007
  %128 = load i32, i32* @_ZN3pov8CS_IndexE, align 4, !dbg !3009
  %idxprom202 = sext i32 %128 to i64, !dbg !3007
  %arrayidx203 = getelementptr inbounds %"struct.pov::Cond_Stack_Entry", %"struct.pov::Cond_Stack_Entry"* %127, i64 %idxprom202, !dbg !3007
  %Cond_Type204 = getelementptr inbounds %"struct.pov::Cond_Stack_Entry", %"struct.pov::Cond_Stack_Entry"* %arrayidx203, i32 0, i32 0, !dbg !3010
  store i32 6, i32* %Cond_Type204, align 8, !dbg !3011
  %129 = load i32, i32* @_ZN3pov8SkippingE, align 4, !dbg !3012
  %tobool205 = icmp ne i32 %129, 0, !dbg !3012
  br i1 %tobool205, label %if.then206, label %if.end207, !dbg !3014

if.then206:                                       ; preds = %if.then201
  store i32 157, i32* getelementptr inbounds (%"struct.pov::Token_Struct", %"struct.pov::Token_Struct"* @_ZN3pov5TokenE, i32 0, i32 0), align 8, !dbg !3015
  store i8 0, i8* getelementptr inbounds (%"struct.pov::Token_Struct", %"struct.pov::Token_Struct"* @_ZN3pov5TokenE, i32 0, i32 13), align 8, !dbg !3017
  call void @_ZN3pov11Unget_TokenEv(), !dbg !3018
  br label %if.end207, !dbg !3019

if.end207:                                        ; preds = %if.then206, %if.then201
  br label %if.end208, !dbg !3020

if.end208:                                        ; preds = %if.end207, %land.lhs.true, %if.end198
  br label %sw.epilog213, !dbg !3021

sw.bb209:                                         ; preds = %sw.bb175
  call void @_ZN3pov11Unget_TokenEv(), !dbg !3022
  br label %sw.bb210, !dbg !3022

sw.bb210:                                         ; preds = %sw.bb175, %sw.bb209
  br label %sw.epilog213, !dbg !3023

sw.default211:                                    ; preds = %sw.bb175
  %call212 = call i32 (i8*, ...) @_ZN3pov5ErrorEPKcz(i8* getelementptr inbounds ([33 x i8], [33 x i8]* @.str.11, i64 0, i64 0)), !dbg !3024
  br label %sw.epilog213, !dbg !3025

sw.epilog213:                                     ; preds = %sw.default211, %sw.bb210, %if.end208
  store i32 1, i32* %Exit_Flag, align 4, !dbg !3026
  br label %sw.epilog436, !dbg !3027

sw.bb214:                                         ; preds = %while.body
  %130 = load i32, i32* %Curr_Type, align 4, !dbg !3028
  switch i32 %130, label %sw.default265 [
    i32 9, label %sw.bb215
    i32 3, label %sw.bb221
    i32 2, label %sw.bb222
    i32 4, label %sw.bb222
    i32 6, label %sw.bb222
    i32 7, label %sw.bb222
    i32 10, label %sw.bb222
    i32 8, label %sw.bb222
    i32 1, label %sw.bb241
  ], !dbg !3029

sw.bb215:                                         ; preds = %sw.bb214
  call void @_ZN3povL17Return_From_MacroEv(), !dbg !3030
  %131 = load i32, i32* @_ZN3pov8CS_IndexE, align 4, !dbg !3032
  %dec216 = add nsw i32 %131, -1, !dbg !3032
  store i32 %dec216, i32* @_ZN3pov8CS_IndexE, align 4, !dbg !3032
  %cmp217 = icmp slt i32 %dec216, 0, !dbg !3034
  br i1 %cmp217, label %if.then218, label %if.end220, !dbg !3035

if.then218:                                       ; preds = %sw.bb215
  %call219 = call i32 (i8*, ...) @_ZN3pov5ErrorEPKcz(i8* getelementptr inbounds ([20 x i8], [20 x i8]* @.str.8, i64 0, i64 0)), !dbg !3036
  br label %if.end220, !dbg !3038

if.end220:                                        ; preds = %if.then218, %sw.bb215
  br label %sw.epilog267, !dbg !3039

sw.bb221:                                         ; preds = %sw.bb214
  store i32 157, i32* getelementptr inbounds (%"struct.pov::Token_Struct", %"struct.pov::Token_Struct"* @_ZN3pov5TokenE, i32 0, i32 0), align 8, !dbg !3040
  store i8 0, i8* getelementptr inbounds (%"struct.pov::Token_Struct", %"struct.pov::Token_Struct"* @_ZN3pov5TokenE, i32 0, i32 13), align 8, !dbg !3041
  call void @_ZN3pov11Unget_TokenEv(), !dbg !3042
  br label %sw.bb222, !dbg !3042

sw.bb222:                                         ; preds = %sw.bb214, %sw.bb214, %sw.bb214, %sw.bb214, %sw.bb214, %sw.bb214, %sw.bb221
  %132 = load i32, i32* %Curr_Type, align 4, !dbg !3043
  %cmp223 = icmp eq i32 %132, 10, !dbg !3045
  br i1 %cmp223, label %if.then224, label %if.end232, !dbg !3046

if.then224:                                       ; preds = %sw.bb222
  %133 = load %"struct.pov::Cond_Stack_Entry"*, %"struct.pov::Cond_Stack_Entry"** @_ZN3pov10Cond_StackE, align 8, !dbg !3047
  %134 = load i32, i32* @_ZN3pov8CS_IndexE, align 4, !dbg !3050
  %idxprom225 = sext i32 %134 to i64, !dbg !3047
  %arrayidx226 = getelementptr inbounds %"struct.pov::Cond_Stack_Entry", %"struct.pov::Cond_Stack_Entry"* %133, i64 %idxprom225, !dbg !3047
  %PMac227 = getelementptr inbounds %"struct.pov::Cond_Stack_Entry", %"struct.pov::Cond_Stack_Entry"* %arrayidx226, i32 0, i32 6, !dbg !3051
  %135 = load %"struct.pov::Pov_Macro_Struct"*, %"struct.pov::Pov_Macro_Struct"** %PMac227, align 8, !dbg !3051
  store %"struct.pov::Pov_Macro_Struct"* %135, %"struct.pov::Pov_Macro_Struct"** %PMac, align 8, !dbg !3052
  %cmp228 = icmp ne %"struct.pov::Pov_Macro_Struct"* %135, null, !dbg !3053
  br i1 %cmp228, label %if.then229, label %if.end231, !dbg !3054

if.then229:                                       ; preds = %if.then224
  %136 = load i64, i64* %Hash_Loc, align 8, !dbg !3055
  %137 = load %"struct.pov::Pov_Macro_Struct"*, %"struct.pov::Pov_Macro_Struct"** %PMac, align 8, !dbg !3057
  %Macro_End230 = getelementptr inbounds %"struct.pov::Pov_Macro_Struct", %"struct.pov::Pov_Macro_Struct"* %137, i32 0, i32 3, !dbg !3058
  store i64 %136, i64* %Macro_End230, align 8, !dbg !3059
  br label %if.end231, !dbg !3060

if.end231:                                        ; preds = %if.then229, %if.then224
  br label %if.end232, !dbg !3061

if.end232:                                        ; preds = %if.end231, %sw.bb222
  %138 = load i32, i32* @_ZN3pov8CS_IndexE, align 4, !dbg !3062
  %dec233 = add nsw i32 %138, -1, !dbg !3062
  store i32 %dec233, i32* @_ZN3pov8CS_IndexE, align 4, !dbg !3062
  %cmp234 = icmp slt i32 %dec233, 0, !dbg !3064
  br i1 %cmp234, label %if.then235, label %if.end237, !dbg !3065

if.then235:                                       ; preds = %if.end232
  %call236 = call i32 (i8*, ...) @_ZN3pov5ErrorEPKcz(i8* getelementptr inbounds ([20 x i8], [20 x i8]* @.str.8, i64 0, i64 0)), !dbg !3066
  br label %if.end237, !dbg !3068

if.end237:                                        ; preds = %if.then235, %if.end232
  %139 = load i32, i32* @_ZN3pov8SkippingE, align 4, !dbg !3069
  %tobool238 = icmp ne i32 %139, 0, !dbg !3069
  br i1 %tobool238, label %if.then239, label %if.end240, !dbg !3071

if.then239:                                       ; preds = %if.end237
  store i32 157, i32* getelementptr inbounds (%"struct.pov::Token_Struct", %"struct.pov::Token_Struct"* @_ZN3pov5TokenE, i32 0, i32 0), align 8, !dbg !3072
  store i8 0, i8* getelementptr inbounds (%"struct.pov::Token_Struct", %"struct.pov::Token_Struct"* @_ZN3pov5TokenE, i32 0, i32 13), align 8, !dbg !3074
  call void @_ZN3pov11Unget_TokenEv(), !dbg !3075
  br label %if.end240, !dbg !3076

if.end240:                                        ; preds = %if.then239, %if.end237
  br label %sw.epilog267, !dbg !3077

sw.bb241:                                         ; preds = %sw.bb214
  %140 = load %"struct.pov::Cond_Stack_Entry"*, %"struct.pov::Cond_Stack_Entry"** @_ZN3pov10Cond_StackE, align 8, !dbg !3078
  %141 = load i32, i32* @_ZN3pov8CS_IndexE, align 4, !dbg !3080
  %idxprom242 = sext i32 %141 to i64, !dbg !3078
  %arrayidx243 = getelementptr inbounds %"struct.pov::Cond_Stack_Entry", %"struct.pov::Cond_Stack_Entry"* %140, i64 %idxprom242, !dbg !3078
  %While_File244 = getelementptr inbounds %"struct.pov::Cond_Stack_Entry", %"struct.pov::Cond_Stack_Entry"* %arrayidx243, i32 0, i32 2, !dbg !3081
  %142 = load %"class.pov_base::ITextStream"*, %"class.pov_base::ITextStream"** %While_File244, align 8, !dbg !3081
  %143 = load %"struct.pov::InputFileData"*, %"struct.pov::InputFileData"** @_ZN3pov10Input_FileE, align 8, !dbg !3082
  %In_File245 = getelementptr inbounds %"struct.pov::InputFileData", %"struct.pov::InputFileData"* %143, i32 0, i32 0, !dbg !3083
  %144 = load %"class.pov_base::ITextStream"*, %"class.pov_base::ITextStream"** %In_File245, align 8, !dbg !3083
  %cmp246 = icmp ne %"class.pov_base::ITextStream"* %142, %144, !dbg !3084
  br i1 %cmp246, label %if.then247, label %if.end249, !dbg !3085

if.then247:                                       ; preds = %sw.bb241
  %call248 = call i32 (i8*, ...) @_ZN3pov5ErrorEPKcz(i8* getelementptr inbounds ([50 x i8], [50 x i8]* @.str.12, i64 0, i64 0)), !dbg !3086
  br label %if.end249, !dbg !3088

if.end249:                                        ; preds = %if.then247, %sw.bb241
  store i32 0, i32* @_ZN3pov7Got_EOFE, align 4, !dbg !3089
  %145 = load %"struct.pov::InputFileData"*, %"struct.pov::InputFileData"** @_ZN3pov10Input_FileE, align 8, !dbg !3090
  %In_File250 = getelementptr inbounds %"struct.pov::InputFileData", %"struct.pov::InputFileData"* %145, i32 0, i32 0, !dbg !3092
  %146 = load %"class.pov_base::ITextStream"*, %"class.pov_base::ITextStream"** %In_File250, align 8, !dbg !3092
  %147 = load %"struct.pov::Cond_Stack_Entry"*, %"struct.pov::Cond_Stack_Entry"** @_ZN3pov10Cond_StackE, align 8, !dbg !3093
  %148 = load i32, i32* @_ZN3pov8CS_IndexE, align 4, !dbg !3094
  %idxprom251 = sext i32 %148 to i64, !dbg !3093
  %arrayidx252 = getelementptr inbounds %"struct.pov::Cond_Stack_Entry", %"struct.pov::Cond_Stack_Entry"* %147, i64 %idxprom251, !dbg !3093
  %File_Pos253 = getelementptr inbounds %"struct.pov::Cond_Stack_Entry", %"struct.pov::Cond_Stack_Entry"* %arrayidx252, i32 0, i32 7, !dbg !3095
  %149 = bitcast %"struct.pov_base::ITextStream::FilePos"* %agg.tmp to i8*, !dbg !3093
  %150 = bitcast %"struct.pov_base::ITextStream::FilePos"* %File_Pos253 to i8*, !dbg !3093
  call void @llvm.memcpy.p0i8.p0i8.i64(i8* align 8 %149, i8* align 8 %150, i64 16, i1 false), !dbg !3093
  %151 = bitcast %"struct.pov_base::ITextStream::FilePos"* %agg.tmp to { i64, i32 }*, !dbg !3096
  %152 = getelementptr inbounds { i64, i32 }, { i64, i32 }* %151, i32 0, i32 0, !dbg !3096
  %153 = load i64, i64* %152, align 8, !dbg !3096
  %154 = getelementptr inbounds { i64, i32 }, { i64, i32 }* %151, i32 0, i32 1, !dbg !3096
  %155 = load i32, i32* %154, align 8, !dbg !3096
  %call254 = call zeroext i1 @_ZN8pov_base11ITextStream5seekgENS0_7FilePosE(%"class.pov_base::ITextStream"* %146, i64 %153, i32 %155), !dbg !3096
  br i1 %call254, label %if.end257, label %if.then255, !dbg !3097

if.then255:                                       ; preds = %if.end249
  %call256 = call i32 (i8*, ...) @_ZN3pov5ErrorEPKcz(i8* getelementptr inbounds ([51 x i8], [51 x i8]* @.str.13, i64 0, i64 0)), !dbg !3098
  br label %if.end257, !dbg !3100

if.end257:                                        ; preds = %if.then255, %if.end249
  %call258 = call double @_ZN3povL16Parse_Cond_ParamEv(), !dbg !3101
  store double %call258, double* %Value, align 8, !dbg !3102
  %156 = load double, double* %Value, align 8, !dbg !3103
  %157 = call double @llvm.fabs.f64(double %156), !dbg !3105
  %cmp259 = fcmp olt double %157, 0x3E7AD7F29ABCAF48, !dbg !3106
  br i1 %cmp259, label %if.then260, label %if.end264, !dbg !3107

if.then260:                                       ; preds = %if.end257
  %158 = load %"struct.pov::Cond_Stack_Entry"*, %"struct.pov::Cond_Stack_Entry"** @_ZN3pov10Cond_StackE, align 8, !dbg !3108
  %159 = load i32, i32* @_ZN3pov8CS_IndexE, align 4, !dbg !3110
  %idxprom261 = sext i32 %159 to i64, !dbg !3108
  %arrayidx262 = getelementptr inbounds %"struct.pov::Cond_Stack_Entry", %"struct.pov::Cond_Stack_Entry"* %158, i64 %idxprom261, !dbg !3108
  %Cond_Type263 = getelementptr inbounds %"struct.pov::Cond_Stack_Entry", %"struct.pov::Cond_Stack_Entry"* %arrayidx262, i32 0, i32 0, !dbg !3111
  store i32 8, i32* %Cond_Type263, align 8, !dbg !3112
  call void @_ZN3povL11Skip_TokensENS_9cond_typeE(i32 8), !dbg !3113
  br label %if.end264, !dbg !3114

if.end264:                                        ; preds = %if.then260, %if.end257
  br label %sw.epilog267, !dbg !3115

sw.default265:                                    ; preds = %sw.bb214
  %call266 = call i32 (i8*, ...) @_ZN3pov5ErrorEPKcz(i8* getelementptr inbounds ([20 x i8], [20 x i8]* @.str.8, i64 0, i64 0)), !dbg !3116
  br label %sw.epilog267, !dbg !3117

sw.epilog267:                                     ; preds = %sw.default265, %if.end264, %if.end240, %if.end220
  store i32 1, i32* %Exit_Flag, align 4, !dbg !3118
  br label %sw.epilog436, !dbg !3119

sw.bb268:                                         ; preds = %while.body, %while.body
  %160 = load i32, i32* @_ZN3pov8SkippingE, align 4, !dbg !3120
  %tobool269 = icmp ne i32 %160, 0, !dbg !3120
  br i1 %tobool269, label %if.then270, label %if.else271, !dbg !3122

if.then270:                                       ; preds = %sw.bb268
  call void @_ZN3pov11Unget_TokenEv(), !dbg !3123
  store i32 1, i32* %Exit_Flag, align 4, !dbg !3125
  br label %if.end285, !dbg !3126

if.else271:                                       ; preds = %sw.bb268
  %161 = load i32, i32* getelementptr inbounds (%"struct.pov::Token_Struct", %"struct.pov::Token_Struct"* @_ZN3pov5TokenE, i32 0, i32 0), align 8, !dbg !3127
  %cmp272 = icmp eq i32 %161, 424, !dbg !3129
  %162 = load i32, i32* %After_Hash.addr, align 4, !dbg !3130
  %tobool273 = icmp ne i32 %162, 0, !dbg !3130
  call void @_ZN3pov13Parse_DeclareEbb(i1 zeroext %cmp272, i1 zeroext %tobool273), !dbg !3131
  %163 = load %"struct.pov::Cond_Stack_Entry"*, %"struct.pov::Cond_Stack_Entry"** @_ZN3pov10Cond_StackE, align 8, !dbg !3132
  %164 = load i32, i32* @_ZN3pov8CS_IndexE, align 4, !dbg !3133
  %idxprom274 = sext i32 %164 to i64, !dbg !3132
  %arrayidx275 = getelementptr inbounds %"struct.pov::Cond_Stack_Entry", %"struct.pov::Cond_Stack_Entry"* %163, i64 %idxprom274, !dbg !3132
  %Cond_Type276 = getelementptr inbounds %"struct.pov::Cond_Stack_Entry", %"struct.pov::Cond_Stack_Entry"* %arrayidx275, i32 0, i32 0, !dbg !3134
  %165 = load i32, i32* %Cond_Type276, align 8, !dbg !3134
  store i32 %165, i32* %Curr_Type, align 4, !dbg !3135
  %166 = load i32, i32* getelementptr inbounds (%"struct.pov::Token_Struct", %"struct.pov::Token_Struct"* @_ZN3pov5TokenE, i32 0, i32 7), align 8, !dbg !3136
  %tobool277 = icmp ne i32 %166, 0, !dbg !3138
  br i1 %tobool277, label %if.then278, label %if.else283, !dbg !3139

if.then278:                                       ; preds = %if.else271
  %167 = load i32, i32* getelementptr inbounds (%"struct.pov::Token_Struct", %"struct.pov::Token_Struct"* @_ZN3pov5TokenE, i32 0, i32 0), align 8, !dbg !3140
  switch i32 %167, label %sw.default281 [
    i32 157, label %sw.bb279
    i32 427, label %sw.bb280
  ], !dbg !3142

sw.bb279:                                         ; preds = %if.then278
  store i32 0, i32* getelementptr inbounds (%"struct.pov::Token_Struct", %"struct.pov::Token_Struct"* @_ZN3pov5TokenE, i32 0, i32 7), align 8, !dbg !3143
  br label %sw.epilog282, !dbg !3145

sw.bb280:                                         ; preds = %if.then278
  br label %sw.epilog282, !dbg !3146

sw.default281:                                    ; preds = %if.then278
  store i32 1, i32* %Exit_Flag, align 4, !dbg !3147
  br label %sw.epilog282, !dbg !3148

sw.epilog282:                                     ; preds = %sw.default281, %sw.bb280, %sw.bb279
  br label %if.end284, !dbg !3149

if.else283:                                       ; preds = %if.else271
  store i32 1, i32* %Exit_Flag, align 4, !dbg !3150
  br label %if.end284

if.end284:                                        ; preds = %if.else283, %sw.epilog282
  br label %if.end285

if.end285:                                        ; preds = %if.end284, %if.then270
  br label %sw.epilog436, !dbg !3152

sw.bb286:                                         ; preds = %while.body
  %168 = load i32, i32* @_ZN3pov8SkippingE, align 4, !dbg !3153
  %tobool287 = icmp ne i32 %168, 0, !dbg !3153
  br i1 %tobool287, label %if.then288, label %if.else289, !dbg !3155

if.then288:                                       ; preds = %sw.bb286
  call void @_ZN3pov11Unget_TokenEv(), !dbg !3156
  br label %if.end290, !dbg !3158

if.else289:                                       ; preds = %sw.bb286
  call void @_ZN3pov13Parse_DefaultEv(), !dbg !3159
  br label %if.end290

if.end290:                                        ; preds = %if.else289, %if.then288
  store i32 1, i32* %Exit_Flag, align 4, !dbg !3161
  br label %sw.epilog436, !dbg !3162

sw.bb291:                                         ; preds = %while.body
  %169 = load i32, i32* @_ZN3pov8SkippingE, align 4, !dbg !3163
  %tobool292 = icmp ne i32 %169, 0, !dbg !3163
  br i1 %tobool292, label %if.then293, label %if.else294, !dbg !3165

if.then293:                                       ; preds = %sw.bb291
  call void @_ZN3pov11Unget_TokenEv(), !dbg !3166
  br label %if.end295, !dbg !3168

if.else294:                                       ; preds = %sw.bb291
  call void @_ZN3pov12Open_IncludeEv(), !dbg !3169
  br label %if.end295

if.end295:                                        ; preds = %if.else294, %if.then293
  store i32 1, i32* %Exit_Flag, align 4, !dbg !3171
  br label %sw.epilog436, !dbg !3172

sw.bb296:                                         ; preds = %while.body
  %170 = load i32, i32* @_ZN3pov8SkippingE, align 4, !dbg !3173
  %tobool297 = icmp ne i32 %170, 0, !dbg !3173
  br i1 %tobool297, label %if.then298, label %if.else299, !dbg !3175

if.then298:                                       ; preds = %sw.bb296
  call void @_ZN3pov11Unget_TokenEv(), !dbg !3176
  store i32 1, i32* %Exit_Flag, align 4, !dbg !3178
  br label %if.end325, !dbg !3179

if.else299:                                       ; preds = %sw.bb296
  %171 = load i32, i32* getelementptr inbounds (%"struct.pov::Token_Struct", %"struct.pov::Token_Struct"* @_ZN3pov5TokenE, i32 0, i32 1), align 4, !dbg !3180
  switch i32 %171, label %sw.default323 [
    i32 35, label %sw.bb300
  ], !dbg !3182

sw.bb300:                                         ; preds = %if.else299
  store i16 0, i16* @_ZN3pov13Ok_To_DeclareE, align 2, !dbg !3183
  call void @_ZN3pov9Get_TokenEv(), !dbg !3185
  %172 = load i8*, i8** getelementptr inbounds (%"struct.pov::Token_Struct", %"struct.pov::Token_Struct"* @_ZN3pov5TokenE, i32 0, i32 5), align 8, !dbg !3186
  %call301 = call i32 @_ZN8pov_base11pov_stricmpEPKcS1_(i8* %172, i8* getelementptr inbounds ([11 x i8], [11 x i8]* @.str.14, i64 0, i64 0)), !dbg !3188
  %cmp302 = icmp ne i32 %call301, 0, !dbg !3189
  br i1 %cmp302, label %if.then303, label %if.else306, !dbg !3190

if.then303:                                       ; preds = %sw.bb300
  call void @_ZN3pov11Unget_TokenEv(), !dbg !3191
  %call304 = call double @_ZN3pov11Parse_FloatEv(), !dbg !3193
  %mul = fmul double %call304, 1.000000e+02, !dbg !3194
  %add = fadd double %mul, 5.000000e-01, !dbg !3195
  %conv305 = fptosi double %add to i32, !dbg !3196
  store i32 %conv305, i32* getelementptr inbounds (%"struct.pov::OPTIONS_STRUCT", %"struct.pov::OPTIONS_STRUCT"* @_ZN3pov4optsE, i32 0, i32 29), align 8, !dbg !3197
  call void @_ZN3pov16Parse_Semi_ColonEb(i1 zeroext false), !dbg !3198
  br label %if.end308, !dbg !3199

if.else306:                                       ; preds = %sw.bb300
  call void @_ZN3pov9Get_TokenEv(), !dbg !3200
  %call307 = call i32 (i8*, ...) @_ZN3pov5ErrorEPKcz(i8* getelementptr inbounds ([98 x i8], [98 x i8]* @.str.15, i64 0, i64 0)), !dbg !3202
  br label %if.end308

if.end308:                                        ; preds = %if.else306, %if.then303
  %173 = load i32, i32* getelementptr inbounds (%"struct.pov::OPTIONS_STRUCT", %"struct.pov::OPTIONS_STRUCT"* @_ZN3pov4optsE, i32 0, i32 29), align 8, !dbg !3203
  %cmp309 = icmp sgt i32 %173, 362, !dbg !3205
  br i1 %cmp309, label %if.then310, label %if.end313, !dbg !3206

if.then310:                                       ; preds = %if.end308
  %174 = load i32, i32* getelementptr inbounds (%"struct.pov::OPTIONS_STRUCT", %"struct.pov::OPTIONS_STRUCT"* @_ZN3pov4optsE, i32 0, i32 29), align 8, !dbg !3207
  %conv311 = sitofp i32 %174 to double, !dbg !3209
  %div = fdiv double %conv311, 1.000000e+02, !dbg !3210
  %call312 = call i32 (i8*, ...) @_ZN3pov5ErrorEPKcz(i8* getelementptr inbounds ([55 x i8], [55 x i8]* @.str.16, i64 0, i64 0), double %div), !dbg !3211
  br label %if.end313, !dbg !3212

if.end313:                                        ; preds = %if.then310, %if.end308
  store i16 1, i16* @_ZN3pov13Ok_To_DeclareE, align 2, !dbg !3213
  %175 = load %"struct.pov::Cond_Stack_Entry"*, %"struct.pov::Cond_Stack_Entry"** @_ZN3pov10Cond_StackE, align 8, !dbg !3214
  %176 = load i32, i32* @_ZN3pov8CS_IndexE, align 4, !dbg !3215
  %idxprom314 = sext i32 %176 to i64, !dbg !3214
  %arrayidx315 = getelementptr inbounds %"struct.pov::Cond_Stack_Entry", %"struct.pov::Cond_Stack_Entry"* %175, i64 %idxprom314, !dbg !3214
  %Cond_Type316 = getelementptr inbounds %"struct.pov::Cond_Stack_Entry", %"struct.pov::Cond_Stack_Entry"* %arrayidx315, i32 0, i32 0, !dbg !3216
  %177 = load i32, i32* %Cond_Type316, align 8, !dbg !3216
  store i32 %177, i32* %Curr_Type, align 4, !dbg !3217
  %178 = load i32, i32* getelementptr inbounds (%"struct.pov::Token_Struct", %"struct.pov::Token_Struct"* @_ZN3pov5TokenE, i32 0, i32 7), align 8, !dbg !3218
  %tobool317 = icmp ne i32 %178, 0, !dbg !3220
  br i1 %tobool317, label %land.lhs.true318, label %if.else321, !dbg !3221

land.lhs.true318:                                 ; preds = %if.end313
  %179 = load i32, i32* getelementptr inbounds (%"struct.pov::Token_Struct", %"struct.pov::Token_Struct"* @_ZN3pov5TokenE, i32 0, i32 0), align 8, !dbg !3222
  %cmp319 = icmp eq i32 %179, 157, !dbg !3223
  br i1 %cmp319, label %if.then320, label %if.else321, !dbg !3224

if.then320:                                       ; preds = %land.lhs.true318
  store i32 0, i32* getelementptr inbounds (%"struct.pov::Token_Struct", %"struct.pov::Token_Struct"* @_ZN3pov5TokenE, i32 0, i32 7), align 8, !dbg !3225
  br label %if.end322, !dbg !3227

if.else321:                                       ; preds = %land.lhs.true318, %if.end313
  store i32 1, i32* %Exit_Flag, align 4, !dbg !3228
  br label %if.end322

if.end322:                                        ; preds = %if.else321, %if.then320
  br label %sw.epilog324, !dbg !3230

sw.default323:                                    ; preds = %if.else299
  call void @_ZN3pov11Unget_TokenEv(), !dbg !3231
  call void @_ZN3pov17Expectation_ErrorEPKc(i8* getelementptr inbounds ([21 x i8], [21 x i8]* @.str.17, i64 0, i64 0)), !dbg !3232
  br label %sw.epilog324, !dbg !3233

sw.epilog324:                                     ; preds = %sw.default323, %if.end322
  br label %if.end325

if.end325:                                        ; preds = %sw.epilog324, %if.then298
  br label %sw.epilog436, !dbg !3234

sw.bb326:                                         ; preds = %while.body
  %180 = load i32, i32* @_ZN3pov8SkippingE, align 4, !dbg !3235
  %tobool327 = icmp ne i32 %180, 0, !dbg !3235
  br i1 %tobool327, label %if.then328, label %if.else329, !dbg !3237

if.then328:                                       ; preds = %sw.bb326
  call void @_ZN3pov11Unget_TokenEv(), !dbg !3238
  br label %if.end340, !dbg !3240

if.else329:                                       ; preds = %sw.bb326
  %call330 = call i8* @_ZN3pov14Parse_C_StringEb(i1 zeroext false), !dbg !3241
  store i8* %call330, i8** %ts, align 8, !dbg !3243
  %181 = load i8*, i8** %ts, align 8, !dbg !3244
  %call331 = call i64 @strlen(i8* %181) #12, !dbg !3246
  %cmp332 = icmp ugt i64 %call331, 160, !dbg !3247
  br i1 %cmp332, label %if.then333, label %if.end338, !dbg !3248

if.then333:                                       ; preds = %if.else329
  %182 = load i8*, i8** %ts, align 8, !dbg !3249
  %arrayidx334 = getelementptr inbounds i8, i8* %182, i64 126, !dbg !3249
  store i8 46, i8* %arrayidx334, align 1, !dbg !3251
  %183 = load i8*, i8** %ts, align 8, !dbg !3252
  %arrayidx335 = getelementptr inbounds i8, i8* %183, i64 125, !dbg !3252
  store i8 46, i8* %arrayidx335, align 1, !dbg !3253
  %184 = load i8*, i8** %ts, align 8, !dbg !3254
  %arrayidx336 = getelementptr inbounds i8, i8* %184, i64 124, !dbg !3254
  store i8 46, i8* %arrayidx336, align 1, !dbg !3255
  %185 = load i8*, i8** %ts, align 8, !dbg !3256
  %arrayidx337 = getelementptr inbounds i8, i8* %185, i64 127, !dbg !3256
  store i8 0, i8* %arrayidx337, align 1, !dbg !3257
  br label %if.end338, !dbg !3258

if.end338:                                        ; preds = %if.then333, %if.else329
  %186 = load i8*, i8** %ts, align 8, !dbg !3259
  %call339 = call i32 (i32, i8*, ...) @_ZN3pov7WarningEjPKcz(i32 0, i8* getelementptr inbounds ([3 x i8], [3 x i8]* @.str.18, i64 0, i64 0), i8* %186), !dbg !3260
  %187 = load i8*, i8** %ts, align 8, !dbg !3261
  call void @_ZN3pov8pov_freeEPvPKci(i8* %187, i8* getelementptr inbounds ([13 x i8], [13 x i8]* @.str.2, i64 0, i64 0), i32 2173), !dbg !3261
  store i8* null, i8** %ts, align 8, !dbg !3261
  br label %if.end340

if.end340:                                        ; preds = %if.end338, %if.then328
  store i32 1, i32* %Exit_Flag, align 4, !dbg !3263
  br label %sw.epilog436, !dbg !3264

sw.bb341:                                         ; preds = %while.body
  %188 = load i32, i32* @_ZN3pov8SkippingE, align 4, !dbg !3265
  %tobool342 = icmp ne i32 %188, 0, !dbg !3265
  br i1 %tobool342, label %if.then343, label %if.else344, !dbg !3267

if.then343:                                       ; preds = %sw.bb341
  call void @_ZN3pov11Unget_TokenEv(), !dbg !3268
  br label %if.end355, !dbg !3270

if.else344:                                       ; preds = %sw.bb341
  %call345 = call i8* @_ZN3pov14Parse_C_StringEb(i1 zeroext false), !dbg !3271
  store i8* %call345, i8** %ts, align 8, !dbg !3273
  %189 = load i8*, i8** %ts, align 8, !dbg !3274
  %call346 = call i64 @strlen(i8* %189) #12, !dbg !3276
  %cmp347 = icmp ugt i64 %call346, 160, !dbg !3277
  br i1 %cmp347, label %if.then348, label %if.end353, !dbg !3278

if.then348:                                       ; preds = %if.else344
  %190 = load i8*, i8** %ts, align 8, !dbg !3279
  %arrayidx349 = getelementptr inbounds i8, i8* %190, i64 126, !dbg !3279
  store i8 46, i8* %arrayidx349, align 1, !dbg !3281
  %191 = load i8*, i8** %ts, align 8, !dbg !3282
  %arrayidx350 = getelementptr inbounds i8, i8* %191, i64 125, !dbg !3282
  store i8 46, i8* %arrayidx350, align 1, !dbg !3283
  %192 = load i8*, i8** %ts, align 8, !dbg !3284
  %arrayidx351 = getelementptr inbounds i8, i8* %192, i64 124, !dbg !3284
  store i8 46, i8* %arrayidx351, align 1, !dbg !3285
  %193 = load i8*, i8** %ts, align 8, !dbg !3286
  %arrayidx352 = getelementptr inbounds i8, i8* %193, i64 127, !dbg !3286
  store i8 0, i8* %arrayidx352, align 1, !dbg !3287
  br label %if.end353, !dbg !3288

if.end353:                                        ; preds = %if.then348, %if.else344
  %194 = load i8*, i8** %ts, align 8, !dbg !3289
  %call354 = call i32 (i8*, ...) @_ZN3pov5ErrorEPKcz(i8* getelementptr inbounds ([53 x i8], [53 x i8]* @.str.19, i64 0, i64 0), i8* %194), !dbg !3290
  %195 = load i8*, i8** %ts, align 8, !dbg !3291
  call void @_ZN3pov8pov_freeEPvPKci(i8* %195, i8* getelementptr inbounds ([13 x i8], [13 x i8]* @.str.2, i64 0, i64 0), i32 2192), !dbg !3291
  store i8* null, i8** %ts, align 8, !dbg !3291
  br label %if.end355

if.end355:                                        ; preds = %if.end353, %if.then343
  store i32 1, i32* %Exit_Flag, align 4, !dbg !3293
  br label %sw.epilog436, !dbg !3294

sw.bb356:                                         ; preds = %while.body, %while.body
  %call357 = call i32 (i32, i8*, ...) @_ZN3pov7WarningEjPKcz(i32 0, i8* getelementptr inbounds ([94 x i8], [94 x i8]* @.str.20, i64 0, i64 0)), !dbg !3295
  br label %sw.bb358, !dbg !3295

sw.bb358:                                         ; preds = %while.body, %sw.bb356
  %196 = load i32, i32* @_ZN3pov8SkippingE, align 4, !dbg !3296
  %tobool359 = icmp ne i32 %196, 0, !dbg !3296
  br i1 %tobool359, label %if.then360, label %if.else361, !dbg !3298

if.then360:                                       ; preds = %sw.bb358
  call void @_ZN3pov11Unget_TokenEv(), !dbg !3299
  br label %if.end372, !dbg !3301

if.else361:                                       ; preds = %sw.bb358
  %call362 = call i8* @_ZN3pov14Parse_C_StringEb(i1 zeroext false), !dbg !3302
  store i8* %call362, i8** %ts, align 8, !dbg !3304
  %197 = load i8*, i8** %ts, align 8, !dbg !3305
  %call363 = call i64 @strlen(i8* %197) #12, !dbg !3307
  %cmp364 = icmp ugt i64 %call363, 200, !dbg !3308
  br i1 %cmp364, label %if.then365, label %if.end370, !dbg !3309

if.then365:                                       ; preds = %if.else361
  %198 = load i8*, i8** %ts, align 8, !dbg !3310
  %arrayidx366 = getelementptr inbounds i8, i8* %198, i64 158, !dbg !3310
  store i8 46, i8* %arrayidx366, align 1, !dbg !3312
  %199 = load i8*, i8** %ts, align 8, !dbg !3313
  %arrayidx367 = getelementptr inbounds i8, i8* %199, i64 157, !dbg !3313
  store i8 46, i8* %arrayidx367, align 1, !dbg !3314
  %200 = load i8*, i8** %ts, align 8, !dbg !3315
  %arrayidx368 = getelementptr inbounds i8, i8* %200, i64 156, !dbg !3315
  store i8 46, i8* %arrayidx368, align 1, !dbg !3316
  %201 = load i8*, i8** %ts, align 8, !dbg !3317
  %arrayidx369 = getelementptr inbounds i8, i8* %201, i64 159, !dbg !3317
  store i8 0, i8* %arrayidx369, align 1, !dbg !3318
  br label %if.end370, !dbg !3319

if.end370:                                        ; preds = %if.then365, %if.else361
  %202 = load i8*, i8** %ts, align 8, !dbg !3320
  %call371 = call i32 (i8*, ...) @_ZN3pov10Debug_InfoEPKcz(i8* getelementptr inbounds ([3 x i8], [3 x i8]* @.str.18, i64 0, i64 0), i8* %202), !dbg !3321
  %203 = load i8*, i8** %ts, align 8, !dbg !3322
  call void @_ZN3pov8pov_freeEPvPKci(i8* %203, i8* getelementptr inbounds ([13 x i8], [13 x i8]* @.str.2, i64 0, i64 0), i32 2218), !dbg !3322
  store i8* null, i8** %ts, align 8, !dbg !3322
  br label %if.end372

if.end372:                                        ; preds = %if.end370, %if.then360
  store i32 1, i32* %Exit_Flag, align 4, !dbg !3324
  br label %sw.epilog436, !dbg !3325

sw.bb373:                                         ; preds = %while.body
  %204 = load i32, i32* @_ZN3pov8SkippingE, align 4, !dbg !3326
  %tobool374 = icmp ne i32 %204, 0, !dbg !3326
  br i1 %tobool374, label %if.then375, label %if.else376, !dbg !3328

if.then375:                                       ; preds = %sw.bb373
  call void @_ZN3pov11Unget_TokenEv(), !dbg !3329
  br label %if.end377, !dbg !3331

if.else376:                                       ; preds = %sw.bb373
  call void @_ZN3povL11Parse_FopenEv(), !dbg !3332
  br label %if.end377

if.end377:                                        ; preds = %if.else376, %if.then375
  store i32 1, i32* %Exit_Flag, align 4, !dbg !3334
  br label %sw.epilog436, !dbg !3335

sw.bb378:                                         ; preds = %while.body
  %205 = load i32, i32* @_ZN3pov8SkippingE, align 4, !dbg !3336
  %tobool379 = icmp ne i32 %205, 0, !dbg !3336
  br i1 %tobool379, label %if.then380, label %if.else381, !dbg !3338

if.then380:                                       ; preds = %sw.bb378
  call void @_ZN3pov11Unget_TokenEv(), !dbg !3339
  br label %if.end382, !dbg !3341

if.else381:                                       ; preds = %sw.bb378
  call void @_ZN3povL12Parse_FcloseEv(), !dbg !3342
  br label %if.end382

if.end382:                                        ; preds = %if.else381, %if.then380
  store i32 1, i32* %Exit_Flag, align 4, !dbg !3344
  br label %sw.epilog436, !dbg !3345

sw.bb383:                                         ; preds = %while.body
  %206 = load i32, i32* @_ZN3pov8SkippingE, align 4, !dbg !3346
  %tobool384 = icmp ne i32 %206, 0, !dbg !3346
  br i1 %tobool384, label %if.then385, label %if.else386, !dbg !3348

if.then385:                                       ; preds = %sw.bb383
  call void @_ZN3pov11Unget_TokenEv(), !dbg !3349
  br label %if.end387, !dbg !3351

if.else386:                                       ; preds = %sw.bb383
  call void @_ZN3povL10Parse_ReadEv(), !dbg !3352
  br label %if.end387

if.end387:                                        ; preds = %if.else386, %if.then385
  store i32 1, i32* %Exit_Flag, align 4, !dbg !3354
  br label %sw.epilog436, !dbg !3355

sw.bb388:                                         ; preds = %while.body
  %207 = load i32, i32* @_ZN3pov8SkippingE, align 4, !dbg !3356
  %tobool389 = icmp ne i32 %207, 0, !dbg !3356
  br i1 %tobool389, label %if.then390, label %if.else391, !dbg !3358

if.then390:                                       ; preds = %sw.bb388
  call void @_ZN3pov11Unget_TokenEv(), !dbg !3359
  br label %if.end392, !dbg !3361

if.else391:                                       ; preds = %sw.bb388
  call void @_ZN3povL11Parse_WriteEv(), !dbg !3362
  br label %if.end392

if.end392:                                        ; preds = %if.else391, %if.then390
  store i32 1, i32* %Exit_Flag, align 4, !dbg !3364
  br label %sw.epilog436, !dbg !3365

sw.bb393:                                         ; preds = %while.body
  %208 = load i32, i32* @_ZN3pov8SkippingE, align 4, !dbg !3366
  %tobool394 = icmp ne i32 %208, 0, !dbg !3366
  br i1 %tobool394, label %if.then395, label %if.else396, !dbg !3368

if.then395:                                       ; preds = %sw.bb393
  call void @_ZN3pov11Unget_TokenEv(), !dbg !3369
  br label %if.end414, !dbg !3371

if.else396:                                       ; preds = %sw.bb393
  store i16 0, i16* @_ZN3pov13Ok_To_DeclareE, align 2, !dbg !3372
  call void @llvm.dbg.declare(metadata i32* %Exit_Flag397, metadata !3374, metadata !DIExpression()), !dbg !3376
  store i32 0, i32* %Exit_Flag397, align 4, !dbg !3376
  br label %while.cond398, !dbg !3376

while.cond398:                                    ; preds = %sw.epilog412, %if.else396
  %209 = load i32, i32* %Exit_Flag397, align 4, !dbg !3376
  %tobool399 = icmp ne i32 %209, 0, !dbg !3376
  %lnot400 = xor i1 %tobool399, true, !dbg !3376
  br i1 %lnot400, label %while.body401, label %while.end413, !dbg !3376

while.body401:                                    ; preds = %while.cond398
  call void @_ZN3pov9Get_TokenEv(), !dbg !3377
  %210 = load i32, i32* getelementptr inbounds (%"struct.pov::Token_Struct", %"struct.pov::Token_Struct"* @_ZN3pov5TokenE, i32 0, i32 0), align 8, !dbg !3377
  switch i32 %210, label %sw.default411 [
    i32 161, label %sw.bb402
    i32 427, label %sw.bb404
    i32 429, label %sw.bb404
    i32 433, label %sw.bb404
    i32 487, label %sw.bb404
    i32 488, label %sw.bb404
    i32 249, label %sw.bb404
    i32 148, label %sw.bb404
    i32 239, label %sw.bb404
    i32 190, label %sw.bb404
    i32 124, label %sw.bb404
    i32 252, label %sw.bb404
    i32 117, label %sw.bb404
    i32 200, label %sw.bb404
    i32 328, label %sw.bb404
    i32 327, label %sw.bb404
    i32 329, label %sw.bb404
    i32 92, label %sw.bb404
    i32 326, label %sw.bb404
    i32 411, label %sw.bb404
    i32 371, label %sw.bb404
    i32 422, label %sw.bb404
    i32 412, label %sw.bb404
    i32 431, label %sw.bb404
    i32 446, label %sw.bb404
    i32 452, label %sw.bb404
    i32 453, label %sw.bb404
    i32 335, label %sw.bb404
    i32 336, label %sw.bb404
    i32 337, label %sw.bb404
    i32 451, label %sw.bb404
    i32 504, label %sw.bb404
    i32 77, label %sw.bb406
    i32 64, label %sw.bb406
  ], !dbg !3377

sw.bb402:                                         ; preds = %while.body401
  %call403 = call i32 (i32, i8*, ...) @_ZN3pov7WarningEjPKcz(i32 0, i8* getelementptr inbounds ([36 x i8], [36 x i8]* @.str.21, i64 0, i64 0)), !dbg !3379
  store i32 1, i32* %Exit_Flag397, align 4, !dbg !3381
  br label %sw.epilog412, !dbg !3382

sw.bb404:                                         ; preds = %while.body401, %while.body401, %while.body401, %while.body401, %while.body401, %while.body401, %while.body401, %while.body401, %while.body401, %while.body401, %while.body401, %while.body401, %while.body401, %while.body401, %while.body401, %while.body401, %while.body401, %while.body401, %while.body401, %while.body401, %while.body401, %while.body401, %while.body401, %while.body401, %while.body401, %while.body401, %while.body401, %while.body401, %while.body401, %while.body401, %while.body401
  %211 = load i32, i32* getelementptr inbounds (%"struct.pov::Token_Struct", %"struct.pov::Token_Struct"* @_ZN3pov5TokenE, i32 0, i32 4), align 4, !dbg !3383
  %212 = load i8*, i8** getelementptr inbounds (%"struct.pov::Token_Struct", %"struct.pov::Token_Struct"* @_ZN3pov5TokenE, i32 0, i32 5), align 8, !dbg !3384
  %213 = load i8, i8* getelementptr inbounds (%"struct.pov::Token_Struct", %"struct.pov::Token_Struct"* @_ZN3pov5TokenE, i32 0, i32 13), align 8, !dbg !3385
  %tobool405 = trunc i8 %213 to i1, !dbg !3385
  %214 = load i8**, i8*** getelementptr inbounds (%"struct.pov::Token_Struct", %"struct.pov::Token_Struct"* @_ZN3pov5TokenE, i32 0, i32 12), align 8, !dbg !3386
  %215 = load i32, i32* getelementptr inbounds (%"struct.pov::Token_Struct", %"struct.pov::Token_Struct"* @_ZN3pov5TokenE, i32 0, i32 0), align 8, !dbg !3387
  call void @_ZN3povL13Remove_SymbolEiPcbPPvi(i32 %211, i8* %212, i1 zeroext %tobool405, i8** %214, i32 %215), !dbg !3388
  store i32 1, i32* %Exit_Flag397, align 4, !dbg !3389
  br label %sw.epilog412, !dbg !3390

sw.bb406:                                         ; preds = %while.body401, %while.body401
  %216 = load i32, i32* getelementptr inbounds (%"struct.pov::Token_Struct", %"struct.pov::Token_Struct"* @_ZN3pov5TokenE, i32 0, i32 1), align 4, !dbg !3391
  switch i32 %216, label %sw.default409 [
    i32 67, label %sw.bb407
    i32 10, label %sw.bb407
  ], !dbg !3392

sw.bb407:                                         ; preds = %sw.bb406, %sw.bb406
  %217 = load i32, i32* getelementptr inbounds (%"struct.pov::Token_Struct", %"struct.pov::Token_Struct"* @_ZN3pov5TokenE, i32 0, i32 4), align 4, !dbg !3393
  %218 = load i8*, i8** getelementptr inbounds (%"struct.pov::Token_Struct", %"struct.pov::Token_Struct"* @_ZN3pov5TokenE, i32 0, i32 5), align 8, !dbg !3395
  %219 = load i8, i8* getelementptr inbounds (%"struct.pov::Token_Struct", %"struct.pov::Token_Struct"* @_ZN3pov5TokenE, i32 0, i32 13), align 8, !dbg !3396
  %tobool408 = trunc i8 %219 to i1, !dbg !3396
  %220 = load i8**, i8*** getelementptr inbounds (%"struct.pov::Token_Struct", %"struct.pov::Token_Struct"* @_ZN3pov5TokenE, i32 0, i32 12), align 8, !dbg !3397
  %221 = load i32, i32* getelementptr inbounds (%"struct.pov::Token_Struct", %"struct.pov::Token_Struct"* @_ZN3pov5TokenE, i32 0, i32 0), align 8, !dbg !3398
  call void @_ZN3povL13Remove_SymbolEiPcbPPvi(i32 %217, i8* %218, i1 zeroext %tobool408, i8** %220, i32 %221), !dbg !3399
  br label %sw.epilog410, !dbg !3400

sw.default409:                                    ; preds = %sw.bb406
  call void @_ZN3pov11Parse_ErrorEi(i32 161), !dbg !3401
  br label %sw.epilog410, !dbg !3402

sw.epilog410:                                     ; preds = %sw.default409, %sw.bb407
  store i32 1, i32* %Exit_Flag397, align 4, !dbg !3403
  br label %sw.epilog412, !dbg !3404

sw.default411:                                    ; preds = %while.body401
  call void @_ZN3pov11Parse_ErrorEi(i32 161), !dbg !3405
  br label %sw.epilog412, !dbg !3406

sw.epilog412:                                     ; preds = %sw.default411, %sw.epilog410, %sw.bb404, %sw.bb402
  br label %while.cond398, !dbg !3376, !llvm.loop !3407

while.end413:                                     ; preds = %while.cond398
  store i16 1, i16* @_ZN3pov13Ok_To_DeclareE, align 2, !dbg !3409
  br label %if.end414

if.end414:                                        ; preds = %while.end413, %if.then395
  store i32 1, i32* %Exit_Flag, align 4, !dbg !3410
  br label %sw.epilog436, !dbg !3411

sw.bb415:                                         ; preds = %while.body
  %222 = load i32, i32* @_ZN3pov8SkippingE, align 4, !dbg !3412
  %tobool416 = icmp ne i32 %222, 0, !dbg !3412
  br i1 %tobool416, label %if.then417, label %if.else418, !dbg !3414

if.then417:                                       ; preds = %sw.bb415
  call void @_ZN3pov11Unget_TokenEv(), !dbg !3415
  br label %if.end419, !dbg !3417

if.else418:                                       ; preds = %sw.bb415
  call void @_ZN3povL12Invoke_MacroEv(), !dbg !3418
  br label %if.end419

if.end419:                                        ; preds = %if.else418, %if.then417
  store i32 1, i32* %Exit_Flag, align 4, !dbg !3420
  br label %sw.epilog436, !dbg !3421

sw.bb420:                                         ; preds = %while.body
  %223 = load i32, i32* @_ZN3pov8SkippingE, align 4, !dbg !3422
  %tobool421 = icmp ne i32 %223, 0, !dbg !3422
  br i1 %tobool421, label %if.end428, label %if.then422, !dbg !3424

if.then422:                                       ; preds = %sw.bb420
  %224 = load i32, i32* @_ZN3pov15Inside_MacroDefE, align 4, !dbg !3425
  %tobool423 = icmp ne i32 %224, 0, !dbg !3425
  br i1 %tobool423, label %if.then424, label %if.end426, !dbg !3428

if.then424:                                       ; preds = %if.then422
  %call425 = call i32 (i8*, ...) @_ZN3pov5ErrorEPKcz(i8* getelementptr inbounds ([30 x i8], [30 x i8]* @.str.22, i64 0, i64 0)), !dbg !3429
  br label %if.end426, !dbg !3431

if.end426:                                        ; preds = %if.then424, %if.then422
  store i32 1, i32* @_ZN3pov15Inside_MacroDefE, align 4, !dbg !3432
  %call427 = call %"struct.pov::Pov_Macro_Struct"* @_ZN3povL11Parse_MacroEv(), !dbg !3433
  store %"struct.pov::Pov_Macro_Struct"* %call427, %"struct.pov::Pov_Macro_Struct"** %PMac, align 8, !dbg !3434
  store i32 0, i32* @_ZN3pov15Inside_MacroDefE, align 4, !dbg !3435
  br label %if.end428, !dbg !3436

if.end428:                                        ; preds = %if.end426, %sw.bb420
  call void @_ZN3povL12Inc_CS_IndexEv(), !dbg !3437
  %225 = load %"struct.pov::Cond_Stack_Entry"*, %"struct.pov::Cond_Stack_Entry"** @_ZN3pov10Cond_StackE, align 8, !dbg !3438
  %226 = load i32, i32* @_ZN3pov8CS_IndexE, align 4, !dbg !3439
  %idxprom429 = sext i32 %226 to i64, !dbg !3438
  %arrayidx430 = getelementptr inbounds %"struct.pov::Cond_Stack_Entry", %"struct.pov::Cond_Stack_Entry"* %225, i64 %idxprom429, !dbg !3438
  %Cond_Type431 = getelementptr inbounds %"struct.pov::Cond_Stack_Entry", %"struct.pov::Cond_Stack_Entry"* %arrayidx430, i32 0, i32 0, !dbg !3440
  store i32 10, i32* %Cond_Type431, align 8, !dbg !3441
  %227 = load %"struct.pov::Pov_Macro_Struct"*, %"struct.pov::Pov_Macro_Struct"** %PMac, align 8, !dbg !3442
  %228 = load %"struct.pov::Cond_Stack_Entry"*, %"struct.pov::Cond_Stack_Entry"** @_ZN3pov10Cond_StackE, align 8, !dbg !3443
  %229 = load i32, i32* @_ZN3pov8CS_IndexE, align 4, !dbg !3444
  %idxprom432 = sext i32 %229 to i64, !dbg !3443
  %arrayidx433 = getelementptr inbounds %"struct.pov::Cond_Stack_Entry", %"struct.pov::Cond_Stack_Entry"* %228, i64 %idxprom432, !dbg !3443
  %PMac434 = getelementptr inbounds %"struct.pov::Cond_Stack_Entry", %"struct.pov::Cond_Stack_Entry"* %arrayidx433, i32 0, i32 6, !dbg !3445
  store %"struct.pov::Pov_Macro_Struct"* %227, %"struct.pov::Pov_Macro_Struct"** %PMac434, align 8, !dbg !3446
  call void @_ZN3povL11Skip_TokensENS_9cond_typeE(i32 10), !dbg !3447
  store i32 1, i32* %Exit_Flag, align 4, !dbg !3448
  br label %sw.epilog436, !dbg !3449

sw.default435:                                    ; preds = %while.body
  call void @_ZN3pov11Unget_TokenEv(), !dbg !3450
  store i32 1, i32* %Exit_Flag, align 4, !dbg !3451
  br label %sw.epilog436, !dbg !3452

sw.epilog436:                                     ; preds = %sw.default435, %if.end428, %if.end419, %if.end414, %if.end392, %if.end387, %if.end382, %if.end377, %if.end372, %if.end355, %if.end340, %if.end325, %if.end295, %if.end290, %if.end285, %sw.epilog267, %sw.epilog213, %if.end174, %if.end167, %sw.epilog, %if.end98, %if.end71, %if.end52, %if.end33
  br label %while.cond, !dbg !2693, !llvm.loop !3453

while.end437:                                     ; preds = %while.cond
  %230 = load i32, i32* getelementptr inbounds (%"struct.pov::Token_Struct", %"struct.pov::Token_Struct"* @_ZN3pov5TokenE, i32 0, i32 7), align 8, !dbg !3455
  %tobool438 = icmp ne i32 %230, 0, !dbg !3457
  br i1 %tobool438, label %if.then439, label %if.else440, !dbg !3458

if.then439:                                       ; preds = %while.end437
  store i32 0, i32* getelementptr inbounds (%"struct.pov::Token_Struct", %"struct.pov::Token_Struct"* @_ZN3pov5TokenE, i32 0, i32 7), align 8, !dbg !3459
  br label %if.end441, !dbg !3461

if.else440:                                       ; preds = %while.end437
  store i32 143, i32* getelementptr inbounds (%"struct.pov::Token_Struct", %"struct.pov::Token_Struct"* @_ZN3pov5TokenE, i32 0, i32 0), align 8, !dbg !3462
  store i8 0, i8* getelementptr inbounds (%"struct.pov::Token_Struct", %"struct.pov::Token_Struct"* @_ZN3pov5TokenE, i32 0, i32 13), align 8, !dbg !3464
  br label %if.end441

if.end441:                                        ; preds = %if.end, %if.end14, %if.else440, %if.then439
  ret void, !dbg !3465
}

; Function Attrs: noinline uwtable
define internal i32 @_ZN3povL16Parse_C_CommentsEv() #0 !dbg !3466 {
entry:
  %c = alloca i32, align 4
  %c2 = alloca i32, align 4
  %End_Of_Comment = alloca i8, align 1
  call void @llvm.dbg.declare(metadata i32* %c, metadata !3467, metadata !DIExpression()), !dbg !3468
  call void @llvm.dbg.declare(metadata i32* %c2, metadata !3469, metadata !DIExpression()), !dbg !3470
  call void @llvm.dbg.declare(metadata i8* %End_Of_Comment, metadata !3471, metadata !DIExpression()), !dbg !3472
  store i8 0, i8* %End_Of_Comment, align 1, !dbg !3472
  br label %while.cond, !dbg !3473

while.cond:                                       ; preds = %if.end17, %entry
  %0 = load i8, i8* %End_Of_Comment, align 1, !dbg !3474
  %tobool = trunc i8 %0 to i1, !dbg !3474
  %lnot = xor i1 %tobool, true, !dbg !3475
  br i1 %lnot, label %while.body, label %while.end, !dbg !3473

while.body:                                       ; preds = %while.cond
  %call = call i32 @_ZN3povL9Echo_getcEv(), !dbg !3476
  store i32 %call, i32* %c, align 4, !dbg !3478
  %1 = load i32, i32* %c, align 4, !dbg !3479
  %cmp = icmp eq i32 %1, -1, !dbg !3481
  br i1 %cmp, label %if.then, label %if.end, !dbg !3482

if.then:                                          ; preds = %while.body
  %call1 = call i32 (i8*, ...) @_ZN3pov5ErrorEPKcz(i8* getelementptr inbounds ([29 x i8], [29 x i8]* @.str.34, i64 0, i64 0)), !dbg !3483
  br label %if.end, !dbg !3483

if.end:                                           ; preds = %if.then, %while.body
  %2 = load i32, i32* %c, align 4, !dbg !3484
  %cmp2 = icmp eq i32 %2, 42, !dbg !3486
  br i1 %cmp2, label %if.then3, label %if.end8, !dbg !3487

if.then3:                                         ; preds = %if.end
  %call4 = call i32 @_ZN3povL9Echo_getcEv(), !dbg !3488
  store i32 %call4, i32* %c2, align 4, !dbg !3490
  %3 = load i32, i32* %c2, align 4, !dbg !3491
  %cmp5 = icmp ne i32 %3, 47, !dbg !3493
  br i1 %cmp5, label %if.then6, label %if.else, !dbg !3494

if.then6:                                         ; preds = %if.then3
  %4 = load i32, i32* %c2, align 4, !dbg !3495
  call void @_ZN3povL11Echo_ungetcEi(i32 %4), !dbg !3496
  br label %if.end7, !dbg !3496

if.else:                                          ; preds = %if.then3
  store i8 1, i8* %End_Of_Comment, align 1, !dbg !3497
  br label %if.end7

if.end7:                                          ; preds = %if.else, %if.then6
  br label %if.end8, !dbg !3498

if.end8:                                          ; preds = %if.end7, %if.end
  %5 = load i32, i32* %c, align 4, !dbg !3499
  %cmp9 = icmp eq i32 %5, 47, !dbg !3501
  br i1 %cmp9, label %if.then10, label %if.end17, !dbg !3502

if.then10:                                        ; preds = %if.end8
  %call11 = call i32 @_ZN3povL9Echo_getcEv(), !dbg !3503
  store i32 %call11, i32* %c2, align 4, !dbg !3505
  %6 = load i32, i32* %c2, align 4, !dbg !3506
  %cmp12 = icmp ne i32 %6, 42, !dbg !3508
  br i1 %cmp12, label %if.then13, label %if.else14, !dbg !3509

if.then13:                                        ; preds = %if.then10
  %7 = load i32, i32* %c2, align 4, !dbg !3510
  call void @_ZN3povL11Echo_ungetcEi(i32 %7), !dbg !3511
  br label %if.end16, !dbg !3511

if.else14:                                        ; preds = %if.then10
  %call15 = call i32 @_ZN3povL16Parse_C_CommentsEv(), !dbg !3512
  br label %if.end16

if.end16:                                         ; preds = %if.else14, %if.then13
  br label %if.end17, !dbg !3513

if.end17:                                         ; preds = %if.end16, %if.end8
  br label %while.cond, !dbg !3473, !llvm.loop !3514

while.end:                                        ; preds = %while.cond
  ret i32 1, !dbg !3516
}

; Function Attrs: noinline uwtable
define dso_local void @_ZN3pov20Parse_String_LiteralEv() #0 !dbg !3517 {
entry:
  %c = alloca i32, align 4
  %col = alloca i32, align 4
  call void @llvm.dbg.declare(metadata i32* %c, metadata !3518, metadata !DIExpression()), !dbg !3519
  call void @llvm.dbg.declare(metadata i32* %col, metadata !3520, metadata !DIExpression()), !dbg !3521
  %0 = load i32, i32* @_ZN3pov9Echo_IndxE, align 4, !dbg !3522
  store i32 %0, i32* %col, align 4, !dbg !3521
  call void @_ZN3pov12Begin_StringEv(), !dbg !3523
  br label %while.body, !dbg !3524

while.body:                                       ; preds = %entry, %if.end13
  %call = call i32 @_ZN3povL9Echo_getcEv(), !dbg !3525
  store i32 %call, i32* %c, align 4, !dbg !3527
  %1 = load i32, i32* %c, align 4, !dbg !3528
  %cmp = icmp eq i32 %1, -1, !dbg !3530
  br i1 %cmp, label %if.then, label %if.end, !dbg !3531

if.then:                                          ; preds = %while.body
  %call1 = call i32 (i8*, ...) @_ZN3pov5ErrorEPKcz(i8* getelementptr inbounds ([25 x i8], [25 x i8]* @.str.6, i64 0, i64 0)), !dbg !3532
  br label %if.end, !dbg !3532

if.end:                                           ; preds = %if.then, %while.body
  %2 = load i32, i32* %c, align 4, !dbg !3533
  %cmp2 = icmp eq i32 %2, 92, !dbg !3535
  br i1 %cmp2, label %if.then3, label %if.else, !dbg !3536

if.then3:                                         ; preds = %if.end
  %call4 = call i32 @_ZN3povL9Echo_getcEv(), !dbg !3537
  store i32 %call4, i32* %c, align 4, !dbg !3539
  switch i32 %call4, label %sw.default [
    i32 10, label %sw.bb
    i32 13, label %sw.bb
    i32 34, label %sw.bb6
    i32 -1, label %sw.bb7
  ], !dbg !3540

sw.bb:                                            ; preds = %if.then3, %if.then3
  %call5 = call i32 (i8*, ...) @_ZN3pov5ErrorEPKcz(i8* getelementptr inbounds ([29 x i8], [29 x i8]* @.str.7, i64 0, i64 0)), !dbg !3541
  br label %sw.epilog, !dbg !3543

sw.bb6:                                           ; preds = %if.then3
  store i32 34, i32* %c, align 4, !dbg !3544
  br label %sw.epilog, !dbg !3545

sw.bb7:                                           ; preds = %if.then3
  %call8 = call i32 (i8*, ...) @_ZN3pov5ErrorEPKcz(i8* getelementptr inbounds ([25 x i8], [25 x i8]* @.str.6, i64 0, i64 0)), !dbg !3546
  br label %sw.epilog, !dbg !3547

sw.default:                                       ; preds = %if.then3
  call void @_ZN3pov15Stuff_CharacterEi(i32 92), !dbg !3548
  br label %sw.epilog, !dbg !3549

sw.epilog:                                        ; preds = %sw.default, %sw.bb7, %sw.bb6, %sw.bb
  %3 = load i32, i32* %c, align 4, !dbg !3550
  call void @_ZN3pov15Stuff_CharacterEi(i32 %3), !dbg !3551
  br label %if.end13, !dbg !3552

if.else:                                          ; preds = %if.end
  %4 = load i32, i32* %c, align 4, !dbg !3553
  %cmp9 = icmp ne i32 %4, 34, !dbg !3556
  br i1 %cmp9, label %if.then10, label %if.else11, !dbg !3557

if.then10:                                        ; preds = %if.else
  %5 = load i32, i32* %c, align 4, !dbg !3558
  call void @_ZN3pov15Stuff_CharacterEi(i32 %5), !dbg !3559
  br label %if.end12, !dbg !3559

if.else11:                                        ; preds = %if.else
  br label %while.end, !dbg !3560

if.end12:                                         ; preds = %if.then10
  br label %if.end13

if.end13:                                         ; preds = %if.end12, %sw.epilog
  br label %while.body, !dbg !3524, !llvm.loop !3561

while.end:                                        ; preds = %if.else11
  call void @_ZN3pov10End_StringEv(), !dbg !3563
  %6 = load i32, i32* %col, align 4, !dbg !3564
  call void @_ZN3pov11Write_TokenEii(i32 237, i32 %6), !dbg !3565
  %7 = load i8*, i8** @_ZN3pov6StringE, align 8, !dbg !3566
  store i8* %7, i8** getelementptr inbounds (%"struct.pov::Token_Struct", %"struct.pov::Token_Struct"* @_ZN3pov5TokenE, i32 0, i32 5), align 8, !dbg !3567
  ret void, !dbg !3568
}

; Function Attrs: noinline uwtable
define internal zeroext i1 @_ZN3povL10Read_FloatEv() #0 !dbg !3569 {
entry:
  %retval = alloca i1, align 1
  %c = alloca i32, align 4
  %Phase = alloca i32, align 4
  %Finished = alloca i8, align 1
  %col = alloca i32, align 4
  call void @llvm.dbg.declare(metadata i32* %c, metadata !3570, metadata !DIExpression()), !dbg !3571
  call void @llvm.dbg.declare(metadata i32* %Phase, metadata !3572, metadata !DIExpression()), !dbg !3573
  call void @llvm.dbg.declare(metadata i8* %Finished, metadata !3574, metadata !DIExpression()), !dbg !3575
  call void @llvm.dbg.declare(metadata i32* %col, metadata !3576, metadata !DIExpression()), !dbg !3577
  %0 = load i32, i32* @_ZN3pov9Echo_IndxE, align 4, !dbg !3578
  store i32 %0, i32* %col, align 4, !dbg !3577
  store i8 0, i8* %Finished, align 1, !dbg !3579
  store i32 0, i32* %Phase, align 4, !dbg !3580
  call void @_ZN3pov17Begin_String_FastEv(), !dbg !3581
  br label %while.cond, !dbg !3582

while.cond:                                       ; preds = %sw.epilog, %entry
  %1 = load i8, i8* %Finished, align 1, !dbg !3583
  %tobool = trunc i8 %1 to i1, !dbg !3583
  %lnot = xor i1 %tobool, true, !dbg !3584
  br i1 %lnot, label %while.body, label %while.end, !dbg !3582

while.body:                                       ; preds = %while.cond
  %call = call i32 @_ZN3povL9Echo_getcEv(), !dbg !3585
  store i32 %call, i32* %c, align 4, !dbg !3587
  %2 = load i32, i32* %c, align 4, !dbg !3588
  %cmp = icmp eq i32 %2, -1, !dbg !3590
  br i1 %cmp, label %if.then, label %if.end, !dbg !3591

if.then:                                          ; preds = %while.body
  %call1 = call i32 (i8*, ...) @_ZN3pov5ErrorEPKcz(i8* getelementptr inbounds ([24 x i8], [24 x i8]* @.str.38, i64 0, i64 0)), !dbg !3592
  br label %if.end, !dbg !3594

if.end:                                           ; preds = %if.then, %while.body
  %3 = load i32, i32* %Phase, align 4, !dbg !3595
  switch i32 %3, label %sw.epilog [
    i32 0, label %sw.bb
    i32 1, label %sw.bb21
    i32 2, label %sw.bb36
    i32 3, label %sw.bb48
    i32 4, label %sw.bb58
  ], !dbg !3596

sw.bb:                                            ; preds = %if.end
  store i32 1, i32* %Phase, align 4, !dbg !3597
  %4 = load i32, i32* %c, align 4, !dbg !3599
  %call2 = call i32 @isdigit(i32 %4) #12, !dbg !3601
  %tobool3 = icmp ne i32 %call2, 0, !dbg !3601
  br i1 %tobool3, label %if.then4, label %if.else, !dbg !3602

if.then4:                                         ; preds = %sw.bb
  %5 = load i32, i32* %c, align 4, !dbg !3603
  call void @_ZN3pov20Stuff_Character_FastEi(i32 %5), !dbg !3605
  br label %if.end20, !dbg !3606

if.else:                                          ; preds = %sw.bb
  %6 = load i32, i32* %c, align 4, !dbg !3607
  %cmp5 = icmp eq i32 %6, 46, !dbg !3610
  br i1 %cmp5, label %if.then6, label %if.else17, !dbg !3611

if.then6:                                         ; preds = %if.else
  %call7 = call i32 @_ZN3povL9Echo_getcEv(), !dbg !3612
  store i32 %call7, i32* %c, align 4, !dbg !3614
  %7 = load i32, i32* %c, align 4, !dbg !3615
  %cmp8 = icmp eq i32 %7, -1, !dbg !3617
  br i1 %cmp8, label %if.then9, label %if.end11, !dbg !3618

if.then9:                                         ; preds = %if.then6
  %call10 = call i32 (i8*, ...) @_ZN3pov5ErrorEPKcz(i8* getelementptr inbounds ([23 x i8], [23 x i8]* @.str.39, i64 0, i64 0)), !dbg !3619
  br label %if.end11, !dbg !3621

if.end11:                                         ; preds = %if.then9, %if.then6
  %8 = load i32, i32* %c, align 4, !dbg !3622
  %call12 = call i32 @isdigit(i32 %8) #12, !dbg !3624
  %tobool13 = icmp ne i32 %call12, 0, !dbg !3624
  br i1 %tobool13, label %if.then14, label %if.else15, !dbg !3625

if.then14:                                        ; preds = %if.end11
  call void @_ZN3pov20Stuff_Character_FastEi(i32 48), !dbg !3626
  call void @_ZN3pov20Stuff_Character_FastEi(i32 46), !dbg !3628
  %9 = load i32, i32* %c, align 4, !dbg !3629
  call void @_ZN3pov20Stuff_Character_FastEi(i32 %9), !dbg !3630
  store i32 2, i32* %Phase, align 4, !dbg !3631
  br label %if.end16, !dbg !3632

if.else15:                                        ; preds = %if.end11
  %10 = load i32, i32* %c, align 4, !dbg !3633
  call void @_ZN3povL11Echo_ungetcEi(i32 %10), !dbg !3635
  %11 = load i32, i32* %col, align 4, !dbg !3636
  call void @_ZN3pov11Write_TokenEii(i32 396, i32 %11), !dbg !3637
  store i1 true, i1* %retval, align 1, !dbg !3638
  br label %return, !dbg !3638

if.end16:                                         ; preds = %if.then14
  br label %if.end19, !dbg !3639

if.else17:                                        ; preds = %if.else
  %call18 = call i32 (i8*, ...) @_ZN3pov5ErrorEPKcz(i8* getelementptr inbounds ([23 x i8], [23 x i8]* @.str.40, i64 0, i64 0)), !dbg !3640
  br label %if.end19

if.end19:                                         ; preds = %if.else17, %if.end16
  br label %if.end20

if.end20:                                         ; preds = %if.end19, %if.then4
  br label %sw.epilog, !dbg !3642

sw.bb21:                                          ; preds = %if.end
  %12 = load i32, i32* %c, align 4, !dbg !3643
  %call22 = call i32 @isdigit(i32 %12) #12, !dbg !3645
  %tobool23 = icmp ne i32 %call22, 0, !dbg !3645
  br i1 %tobool23, label %if.then24, label %if.else25, !dbg !3646

if.then24:                                        ; preds = %sw.bb21
  %13 = load i32, i32* %c, align 4, !dbg !3647
  call void @_ZN3pov20Stuff_Character_FastEi(i32 %13), !dbg !3649
  br label %if.end35, !dbg !3650

if.else25:                                        ; preds = %sw.bb21
  %14 = load i32, i32* %c, align 4, !dbg !3651
  %cmp26 = icmp eq i32 %14, 46, !dbg !3654
  br i1 %cmp26, label %if.then27, label %if.else28, !dbg !3655

if.then27:                                        ; preds = %if.else25
  %15 = load i32, i32* %c, align 4, !dbg !3656
  call void @_ZN3pov20Stuff_Character_FastEi(i32 %15), !dbg !3658
  store i32 2, i32* %Phase, align 4, !dbg !3659
  br label %if.end34, !dbg !3660

if.else28:                                        ; preds = %if.else25
  %16 = load i32, i32* %c, align 4, !dbg !3661
  %cmp29 = icmp eq i32 %16, 101, !dbg !3664
  br i1 %cmp29, label %if.then31, label %lor.lhs.false, !dbg !3665

lor.lhs.false:                                    ; preds = %if.else28
  %17 = load i32, i32* %c, align 4, !dbg !3666
  %cmp30 = icmp eq i32 %17, 69, !dbg !3667
  br i1 %cmp30, label %if.then31, label %if.else32, !dbg !3668

if.then31:                                        ; preds = %lor.lhs.false, %if.else28
  %18 = load i32, i32* %c, align 4, !dbg !3669
  call void @_ZN3pov20Stuff_Character_FastEi(i32 %18), !dbg !3671
  store i32 3, i32* %Phase, align 4, !dbg !3672
  br label %if.end33, !dbg !3673

if.else32:                                        ; preds = %lor.lhs.false
  store i8 1, i8* %Finished, align 1, !dbg !3674
  br label %if.end33

if.end33:                                         ; preds = %if.else32, %if.then31
  br label %if.end34

if.end34:                                         ; preds = %if.end33, %if.then27
  br label %if.end35

if.end35:                                         ; preds = %if.end34, %if.then24
  br label %sw.epilog, !dbg !3676

sw.bb36:                                          ; preds = %if.end
  %19 = load i32, i32* %c, align 4, !dbg !3677
  %call37 = call i32 @isdigit(i32 %19) #12, !dbg !3679
  %tobool38 = icmp ne i32 %call37, 0, !dbg !3679
  br i1 %tobool38, label %if.then39, label %if.else40, !dbg !3680

if.then39:                                        ; preds = %sw.bb36
  %20 = load i32, i32* %c, align 4, !dbg !3681
  call void @_ZN3pov20Stuff_Character_FastEi(i32 %20), !dbg !3683
  br label %if.end47, !dbg !3684

if.else40:                                        ; preds = %sw.bb36
  %21 = load i32, i32* %c, align 4, !dbg !3685
  %cmp41 = icmp eq i32 %21, 101, !dbg !3688
  br i1 %cmp41, label %if.then44, label %lor.lhs.false42, !dbg !3689

lor.lhs.false42:                                  ; preds = %if.else40
  %22 = load i32, i32* %c, align 4, !dbg !3690
  %cmp43 = icmp eq i32 %22, 69, !dbg !3691
  br i1 %cmp43, label %if.then44, label %if.else45, !dbg !3692

if.then44:                                        ; preds = %lor.lhs.false42, %if.else40
  %23 = load i32, i32* %c, align 4, !dbg !3693
  call void @_ZN3pov20Stuff_Character_FastEi(i32 %23), !dbg !3695
  store i32 3, i32* %Phase, align 4, !dbg !3696
  br label %if.end46, !dbg !3697

if.else45:                                        ; preds = %lor.lhs.false42
  store i8 1, i8* %Finished, align 1, !dbg !3698
  br label %if.end46

if.end46:                                         ; preds = %if.else45, %if.then44
  br label %if.end47

if.end47:                                         ; preds = %if.end46, %if.then39
  br label %sw.epilog, !dbg !3700

sw.bb48:                                          ; preds = %if.end
  %24 = load i32, i32* %c, align 4, !dbg !3701
  %call49 = call i32 @isdigit(i32 %24) #12, !dbg !3703
  %tobool50 = icmp ne i32 %call49, 0, !dbg !3703
  br i1 %tobool50, label %if.then55, label %lor.lhs.false51, !dbg !3704

lor.lhs.false51:                                  ; preds = %sw.bb48
  %25 = load i32, i32* %c, align 4, !dbg !3705
  %cmp52 = icmp eq i32 %25, 43, !dbg !3706
  br i1 %cmp52, label %if.then55, label %lor.lhs.false53, !dbg !3707

lor.lhs.false53:                                  ; preds = %lor.lhs.false51
  %26 = load i32, i32* %c, align 4, !dbg !3708
  %cmp54 = icmp eq i32 %26, 45, !dbg !3709
  br i1 %cmp54, label %if.then55, label %if.else56, !dbg !3710

if.then55:                                        ; preds = %lor.lhs.false53, %lor.lhs.false51, %sw.bb48
  %27 = load i32, i32* %c, align 4, !dbg !3711
  call void @_ZN3pov20Stuff_Character_FastEi(i32 %27), !dbg !3713
  store i32 4, i32* %Phase, align 4, !dbg !3714
  br label %if.end57, !dbg !3715

if.else56:                                        ; preds = %lor.lhs.false53
  store i8 1, i8* %Finished, align 1, !dbg !3716
  br label %if.end57

if.end57:                                         ; preds = %if.else56, %if.then55
  br label %sw.epilog, !dbg !3718

sw.bb58:                                          ; preds = %if.end
  %28 = load i32, i32* %c, align 4, !dbg !3719
  %call59 = call i32 @isdigit(i32 %28) #12, !dbg !3721
  %tobool60 = icmp ne i32 %call59, 0, !dbg !3721
  br i1 %tobool60, label %if.then61, label %if.else62, !dbg !3722

if.then61:                                        ; preds = %sw.bb58
  %29 = load i32, i32* %c, align 4, !dbg !3723
  call void @_ZN3pov20Stuff_Character_FastEi(i32 %29), !dbg !3725
  br label %if.end63, !dbg !3726

if.else62:                                        ; preds = %sw.bb58
  store i8 1, i8* %Finished, align 1, !dbg !3727
  br label %if.end63

if.end63:                                         ; preds = %if.else62, %if.then61
  br label %sw.epilog, !dbg !3729

sw.epilog:                                        ; preds = %if.end, %if.end63, %if.end57, %if.end47, %if.end35, %if.end20
  br label %while.cond, !dbg !3582, !llvm.loop !3730

while.end:                                        ; preds = %while.cond
  %30 = load i32, i32* %c, align 4, !dbg !3732
  call void @_ZN3povL11Echo_ungetcEi(i32 %30), !dbg !3733
  call void @_ZN3pov15End_String_FastEv(), !dbg !3734
  %31 = load i32, i32* %col, align 4, !dbg !3735
  call void @_ZN3pov11Write_TokenEii(i32 11, i32 %31), !dbg !3736
  %32 = load i8*, i8** @_ZN3pov6StringE, align 8, !dbg !3737
  %call64 = call i32 (i8*, i8*, ...) @__isoc99_sscanf(i8* %32, i8* getelementptr inbounds ([4 x i8], [4 x i8]* @.str.41, i64 0, i64 0), double* getelementptr inbounds (%"struct.pov::Token_Struct", %"struct.pov::Token_Struct"* @_ZN3pov5TokenE, i32 0, i32 6)) #11, !dbg !3739
  %cmp65 = icmp eq i32 %call64, 0, !dbg !3740
  br i1 %cmp65, label %if.then66, label %if.end67, !dbg !3741

if.then66:                                        ; preds = %while.end
  store i1 false, i1* %retval, align 1, !dbg !3742
  br label %return, !dbg !3742

if.end67:                                         ; preds = %while.end
  store i1 true, i1* %retval, align 1, !dbg !3744
  br label %return, !dbg !3744

return:                                           ; preds = %if.end67, %if.then66, %if.else15
  %33 = load i1, i1* %retval, align 1, !dbg !3745
  ret i1 %33, !dbg !3745
}

; Function Attrs: noinline uwtable
define internal void @_ZN3povL11Read_SymbolEv() #0 !dbg !3746 {
entry:
  %c = alloca i32, align 4
  %Local_Index = alloca i32, align 4
  %i = alloca i32, align 4
  %j = alloca i32, align 4
  %k = alloca i32, align 4
  %a = alloca %"struct.pov::Pov_Array_Struct"*, align 8
  %Temp_Entry = alloca %"struct.pov::Sym_Table_Entry"*, align 8
  %Par = alloca %"struct.pov::Pov_Param_Struct"*, align 8
  %val = alloca double, align 8
  call void @llvm.dbg.declare(metadata i32* %c, metadata !3747, metadata !DIExpression()), !dbg !3748
  call void @llvm.dbg.declare(metadata i32* %Local_Index, metadata !3749, metadata !DIExpression()), !dbg !3750
  call void @llvm.dbg.declare(metadata i32* %i, metadata !3751, metadata !DIExpression()), !dbg !3752
  call void @llvm.dbg.declare(metadata i32* %j, metadata !3753, metadata !DIExpression()), !dbg !3754
  call void @llvm.dbg.declare(metadata i32* %k, metadata !3755, metadata !DIExpression()), !dbg !3756
  call void @llvm.dbg.declare(metadata %"struct.pov::Pov_Array_Struct"** %a, metadata !3757, metadata !DIExpression()), !dbg !3758
  call void @llvm.dbg.declare(metadata %"struct.pov::Sym_Table_Entry"** %Temp_Entry, metadata !3759, metadata !DIExpression()), !dbg !3760
  call void @llvm.dbg.declare(metadata %"struct.pov::Pov_Param_Struct"** %Par, metadata !3761, metadata !DIExpression()), !dbg !3762
  call void @llvm.dbg.declare(metadata double* %val, metadata !3763, metadata !DIExpression()), !dbg !3764
  call void @_ZN3pov17Begin_String_FastEv(), !dbg !3765
  br label %while.body, !dbg !3766

while.body:                                       ; preds = %entry, %if.end8
  %call = call i32 @_ZN3povL9Echo_getcEv(), !dbg !3767
  store i32 %call, i32* %c, align 4, !dbg !3769
  %0 = load i32, i32* %c, align 4, !dbg !3770
  %cmp = icmp eq i32 %0, -1, !dbg !3772
  br i1 %cmp, label %if.then, label %if.end, !dbg !3773

if.then:                                          ; preds = %while.body
  %call1 = call i32 (i8*, ...) @_ZN3pov5ErrorEPKcz(i8* getelementptr inbounds ([24 x i8], [24 x i8]* @.str.38, i64 0, i64 0)), !dbg !3774
  br label %if.end, !dbg !3776

if.end:                                           ; preds = %if.then, %while.body
  %1 = load i32, i32* %c, align 4, !dbg !3777
  %call2 = call i32 @isalpha(i32 %1) #12, !dbg !3779
  %tobool = icmp ne i32 %call2, 0, !dbg !3779
  br i1 %tobool, label %if.then7, label %lor.lhs.false, !dbg !3780

lor.lhs.false:                                    ; preds = %if.end
  %2 = load i32, i32* %c, align 4, !dbg !3781
  %call3 = call i32 @isdigit(i32 %2) #12, !dbg !3782
  %tobool4 = icmp ne i32 %call3, 0, !dbg !3782
  br i1 %tobool4, label %if.then7, label %lor.lhs.false5, !dbg !3783

lor.lhs.false5:                                   ; preds = %lor.lhs.false
  %3 = load i32, i32* %c, align 4, !dbg !3784
  %cmp6 = icmp eq i32 %3, 95, !dbg !3785
  br i1 %cmp6, label %if.then7, label %if.else, !dbg !3786

if.then7:                                         ; preds = %lor.lhs.false5, %lor.lhs.false, %if.end
  %4 = load i32, i32* %c, align 4, !dbg !3787
  call void @_ZN3pov20Stuff_Character_FastEi(i32 %4), !dbg !3789
  br label %if.end8, !dbg !3790

if.else:                                          ; preds = %lor.lhs.false5
  %5 = load i32, i32* %c, align 4, !dbg !3791
  call void @_ZN3povL11Echo_ungetcEi(i32 %5), !dbg !3793
  br label %while.end, !dbg !3794

if.end8:                                          ; preds = %if.then7
  br label %while.body, !dbg !3766, !llvm.loop !3795

while.end:                                        ; preds = %if.else
  call void @_ZN3pov15End_String_FastEv(), !dbg !3797
  %6 = load i32, i32* @_ZN3pov12Inside_IfdefE, align 4, !dbg !3798
  %tobool9 = icmp ne i32 %6, 0, !dbg !3798
  br i1 %tobool9, label %if.then10, label %if.end11, !dbg !3800

if.then10:                                        ; preds = %while.end
  store i32 161, i32* getelementptr inbounds (%"struct.pov::Token_Struct", %"struct.pov::Token_Struct"* @_ZN3pov5TokenE, i32 0, i32 0), align 8, !dbg !3801
  store i8 0, i8* getelementptr inbounds (%"struct.pov::Token_Struct", %"struct.pov::Token_Struct"* @_ZN3pov5TokenE, i32 0, i32 13), align 8, !dbg !3803
  br label %return, !dbg !3804

if.end11:                                         ; preds = %while.end
  %7 = load i8*, i8** @_ZN3pov6StringE, align 8, !dbg !3805
  %call12 = call %"struct.pov::Sym_Table_Entry"* @_ZN3povL11Find_SymbolEiPc(i32 0, i8* %7), !dbg !3807
  store %"struct.pov::Sym_Table_Entry"* %call12, %"struct.pov::Sym_Table_Entry"** %Temp_Entry, align 8, !dbg !3808
  %cmp13 = icmp ne %"struct.pov::Sym_Table_Entry"* %call12, null, !dbg !3809
  br i1 %cmp13, label %if.then14, label %if.end15, !dbg !3810

if.then14:                                        ; preds = %if.end11
  %8 = load %"struct.pov::Sym_Table_Entry"*, %"struct.pov::Sym_Table_Entry"** %Temp_Entry, align 8, !dbg !3811
  %Token_Number = getelementptr inbounds %"struct.pov::Sym_Table_Entry", %"struct.pov::Sym_Table_Entry"* %8, i32 0, i32 3, !dbg !3813
  %9 = load i32, i32* %Token_Number, align 8, !dbg !3813
  %10 = load i32, i32* getelementptr inbounds (%"struct.pov::Token_Struct", %"struct.pov::Token_Struct"* @_ZN3pov5TokenE, i32 0, i32 3), align 8, !dbg !3814
  call void @_ZN3pov11Write_TokenEii(i32 %9, i32 %10), !dbg !3815
  br label %return, !dbg !3816

if.end15:                                         ; preds = %if.end11
  %11 = load i32, i32* @_ZN3pov8SkippingE, align 4, !dbg !3817
  %tobool16 = icmp ne i32 %11, 0, !dbg !3817
  br i1 %tobool16, label %if.end86, label %if.then17, !dbg !3819

if.then17:                                        ; preds = %if.end15
  %12 = load i32, i32* @_ZN3pov11Table_IndexE, align 4, !dbg !3820
  store i32 %12, i32* %Local_Index, align 4, !dbg !3823
  br label %for.cond, !dbg !3824

for.cond:                                         ; preds = %for.inc84, %if.then17
  %13 = load i32, i32* %Local_Index, align 4, !dbg !3825
  %cmp18 = icmp sgt i32 %13, 0, !dbg !3827
  br i1 %cmp18, label %for.body, label %for.end85, !dbg !3828

for.body:                                         ; preds = %for.cond
  %14 = load i32, i32* %Local_Index, align 4, !dbg !3829
  %15 = load i8*, i8** @_ZN3pov6StringE, align 8, !dbg !3832
  %call19 = call %"struct.pov::Sym_Table_Entry"* @_ZN3povL11Find_SymbolEiPc(i32 %14, i8* %15), !dbg !3833
  store %"struct.pov::Sym_Table_Entry"* %call19, %"struct.pov::Sym_Table_Entry"** %Temp_Entry, align 8, !dbg !3834
  %cmp20 = icmp ne %"struct.pov::Sym_Table_Entry"* %call19, null, !dbg !3835
  br i1 %cmp20, label %if.then21, label %if.end83, !dbg !3836

if.then21:                                        ; preds = %for.body
  %16 = load %"struct.pov::Sym_Table_Entry"*, %"struct.pov::Sym_Table_Entry"** %Temp_Entry, align 8, !dbg !3837
  %Token_Number22 = getelementptr inbounds %"struct.pov::Sym_Table_Entry", %"struct.pov::Sym_Table_Entry"* %16, i32 0, i32 3, !dbg !3840
  %17 = load i32, i32* %Token_Number22, align 8, !dbg !3840
  %cmp23 = icmp eq i32 %17, 427, !dbg !3841
  br i1 %cmp23, label %if.then24, label %if.end31, !dbg !3842

if.then24:                                        ; preds = %if.then21
  %18 = load %"struct.pov::Sym_Table_Entry"*, %"struct.pov::Sym_Table_Entry"** %Temp_Entry, align 8, !dbg !3843
  %Data = getelementptr inbounds %"struct.pov::Sym_Table_Entry", %"struct.pov::Sym_Table_Entry"* %18, i32 0, i32 2, !dbg !3845
  %19 = load i8*, i8** %Data, align 8, !dbg !3845
  store i8* %19, i8** getelementptr inbounds (%"struct.pov::Token_Struct", %"struct.pov::Token_Struct"* @_ZN3pov5TokenE, i32 0, i32 10), align 8, !dbg !3846
  %20 = load i16, i16* @_ZN3pov13Ok_To_DeclareE, align 2, !dbg !3847
  %tobool25 = icmp ne i16 %20, 0, !dbg !3847
  br i1 %tobool25, label %if.then26, label %if.else27, !dbg !3849

if.then26:                                        ; preds = %if.then24
  call void @_ZN3povL12Invoke_MacroEv(), !dbg !3850
  br label %if.end30, !dbg !3852

if.else27:                                        ; preds = %if.then24
  store i32 427, i32* getelementptr inbounds (%"struct.pov::Token_Struct", %"struct.pov::Token_Struct"* @_ZN3pov5TokenE, i32 0, i32 0), align 8, !dbg !3853
  store i8 0, i8* getelementptr inbounds (%"struct.pov::Token_Struct", %"struct.pov::Token_Struct"* @_ZN3pov5TokenE, i32 0, i32 13), align 8, !dbg !3855
  %21 = load %"struct.pov::Sym_Table_Entry"*, %"struct.pov::Sym_Table_Entry"** %Temp_Entry, align 8, !dbg !3856
  %Token_Number28 = getelementptr inbounds %"struct.pov::Sym_Table_Entry", %"struct.pov::Sym_Table_Entry"* %21, i32 0, i32 3, !dbg !3857
  store i32* %Token_Number28, i32** getelementptr inbounds (%"struct.pov::Token_Struct", %"struct.pov::Token_Struct"* @_ZN3pov5TokenE, i32 0, i32 11), align 8, !dbg !3858
  %22 = load %"struct.pov::Sym_Table_Entry"*, %"struct.pov::Sym_Table_Entry"** %Temp_Entry, align 8, !dbg !3859
  %Data29 = getelementptr inbounds %"struct.pov::Sym_Table_Entry", %"struct.pov::Sym_Table_Entry"* %22, i32 0, i32 2, !dbg !3860
  store i8** %Data29, i8*** getelementptr inbounds (%"struct.pov::Token_Struct", %"struct.pov::Token_Struct"* @_ZN3pov5TokenE, i32 0, i32 12), align 8, !dbg !3861
  %23 = load i32, i32* getelementptr inbounds (%"struct.pov::Token_Struct", %"struct.pov::Token_Struct"* @_ZN3pov5TokenE, i32 0, i32 0), align 8, !dbg !3862
  %24 = load i32, i32* getelementptr inbounds (%"struct.pov::Token_Struct", %"struct.pov::Token_Struct"* @_ZN3pov5TokenE, i32 0, i32 3), align 8, !dbg !3863
  call void @_ZN3pov11Write_TokenEii(i32 %23, i32 %24), !dbg !3864
  %25 = load i32, i32* %Local_Index, align 4, !dbg !3865
  store i32 %25, i32* getelementptr inbounds (%"struct.pov::Token_Struct", %"struct.pov::Token_Struct"* @_ZN3pov5TokenE, i32 0, i32 4), align 4, !dbg !3866
  br label %if.end30

if.end30:                                         ; preds = %if.else27, %if.then26
  br label %return, !dbg !3867

if.end31:                                         ; preds = %if.then21
  %26 = load %"struct.pov::Sym_Table_Entry"*, %"struct.pov::Sym_Table_Entry"** %Temp_Entry, align 8, !dbg !3868
  %Token_Number32 = getelementptr inbounds %"struct.pov::Sym_Table_Entry", %"struct.pov::Sym_Table_Entry"* %26, i32 0, i32 3, !dbg !3869
  %27 = load i32, i32* %Token_Number32, align 8, !dbg !3869
  store i32 %27, i32* getelementptr inbounds (%"struct.pov::Token_Struct", %"struct.pov::Token_Struct"* @_ZN3pov5TokenE, i32 0, i32 0), align 8, !dbg !3870
  store i8 0, i8* getelementptr inbounds (%"struct.pov::Token_Struct", %"struct.pov::Token_Struct"* @_ZN3pov5TokenE, i32 0, i32 13), align 8, !dbg !3871
  %28 = load %"struct.pov::Sym_Table_Entry"*, %"struct.pov::Sym_Table_Entry"** %Temp_Entry, align 8, !dbg !3872
  %Token_Number33 = getelementptr inbounds %"struct.pov::Sym_Table_Entry", %"struct.pov::Sym_Table_Entry"* %28, i32 0, i32 3, !dbg !3873
  store i32* %Token_Number33, i32** getelementptr inbounds (%"struct.pov::Token_Struct", %"struct.pov::Token_Struct"* @_ZN3pov5TokenE, i32 0, i32 11), align 8, !dbg !3874
  %29 = load %"struct.pov::Sym_Table_Entry"*, %"struct.pov::Sym_Table_Entry"** %Temp_Entry, align 8, !dbg !3875
  %Data34 = getelementptr inbounds %"struct.pov::Sym_Table_Entry", %"struct.pov::Sym_Table_Entry"* %29, i32 0, i32 2, !dbg !3876
  store i8** %Data34, i8*** getelementptr inbounds (%"struct.pov::Token_Struct", %"struct.pov::Token_Struct"* @_ZN3pov5TokenE, i32 0, i32 12), align 8, !dbg !3877
  br label %while.cond, !dbg !3878

while.cond:                                       ; preds = %if.end81, %if.end31
  %30 = load i32, i32* getelementptr inbounds (%"struct.pov::Token_Struct", %"struct.pov::Token_Struct"* @_ZN3pov5TokenE, i32 0, i32 0), align 8, !dbg !3879
  %cmp35 = icmp eq i32 %30, 429, !dbg !3880
  br i1 %cmp35, label %lor.end, label %lor.rhs, !dbg !3881

lor.rhs:                                          ; preds = %while.cond
  %31 = load i32, i32* getelementptr inbounds (%"struct.pov::Token_Struct", %"struct.pov::Token_Struct"* @_ZN3pov5TokenE, i32 0, i32 0), align 8, !dbg !3882
  %cmp36 = icmp eq i32 %31, 431, !dbg !3883
  br label %lor.end, !dbg !3881

lor.end:                                          ; preds = %lor.rhs, %while.cond
  %32 = phi i1 [ true, %while.cond ], [ %cmp36, %lor.rhs ]
  br i1 %32, label %while.body37, label %while.end82, !dbg !3878

while.body37:                                     ; preds = %lor.end
  %33 = load i32, i32* getelementptr inbounds (%"struct.pov::Token_Struct", %"struct.pov::Token_Struct"* @_ZN3pov5TokenE, i32 0, i32 0), align 8, !dbg !3884
  %cmp38 = icmp eq i32 %33, 431, !dbg !3887
  br i1 %cmp38, label %if.then39, label %if.else78, !dbg !3888

if.then39:                                        ; preds = %while.body37
  %call40 = call zeroext i1 @_ZN3povL11Skip_SpacesEv(), !dbg !3889
  %call41 = call i32 @_ZN3povL9Echo_getcEv(), !dbg !3891
  store i32 %call41, i32* %c, align 4, !dbg !3892
  %34 = load i32, i32* %c, align 4, !dbg !3893
  call void @_ZN3povL11Echo_ungetcEi(i32 %34), !dbg !3894
  %35 = load i32, i32* %c, align 4, !dbg !3895
  %cmp42 = icmp ne i32 %35, 91, !dbg !3897
  br i1 %cmp42, label %if.then43, label %if.end44, !dbg !3898

if.then43:                                        ; preds = %if.then39
  br label %while.end82, !dbg !3899

if.end44:                                         ; preds = %if.then39
  %36 = load i8**, i8*** getelementptr inbounds (%"struct.pov::Token_Struct", %"struct.pov::Token_Struct"* @_ZN3pov5TokenE, i32 0, i32 12), align 8, !dbg !3901
  %37 = load i8*, i8** %36, align 8, !dbg !3902
  %38 = bitcast i8* %37 to %"struct.pov::Pov_Array_Struct"*, !dbg !3903
  store %"struct.pov::Pov_Array_Struct"* %38, %"struct.pov::Pov_Array_Struct"** %a, align 8, !dbg !3904
  store i32 0, i32* %j, align 4, !dbg !3905
  store i32 0, i32* %i, align 4, !dbg !3906
  br label %for.cond45, !dbg !3908

for.cond45:                                       ; preds = %for.inc, %if.end44
  %39 = load i32, i32* %i, align 4, !dbg !3909
  %40 = load %"struct.pov::Pov_Array_Struct"*, %"struct.pov::Pov_Array_Struct"** %a, align 8, !dbg !3911
  %Dims = getelementptr inbounds %"struct.pov::Pov_Array_Struct", %"struct.pov::Pov_Array_Struct"* %40, i32 0, i32 0, !dbg !3912
  %41 = load i32, i32* %Dims, align 8, !dbg !3912
  %cmp46 = icmp sle i32 %39, %41, !dbg !3913
  br i1 %cmp46, label %for.body47, label %for.end, !dbg !3914

for.body47:                                       ; preds = %for.cond45
  call void @_ZN3pov9Get_TokenEv(), !dbg !3915
  %42 = load i32, i32* getelementptr inbounds (%"struct.pov::Token_Struct", %"struct.pov::Token_Struct"* @_ZN3pov5TokenE, i32 0, i32 0), align 8, !dbg !3917
  %cmp48 = icmp ne i32 %42, 174, !dbg !3917
  br i1 %cmp48, label %if.then49, label %if.end50, !dbg !3915

if.then49:                                        ; preds = %for.body47
  call void @_ZN3pov11Parse_ErrorEi(i32 174), !dbg !3917
  br label %if.end50, !dbg !3917

if.end50:                                         ; preds = %if.then49, %for.body47
  %call51 = call double @_ZN3pov11Parse_FloatEv(), !dbg !3919
  store double %call51, double* %val, align 8, !dbg !3920
  %43 = load double, double* %val, align 8, !dbg !3921
  %add = fadd double %43, 0x3E7AD7F29ABCAF48, !dbg !3922
  %conv = fptosi double %add to i32, !dbg !3923
  store i32 %conv, i32* %k, align 4, !dbg !3924
  %44 = load i32, i32* %k, align 4, !dbg !3925
  %cmp52 = icmp slt i32 %44, 0, !dbg !3927
  br i1 %cmp52, label %if.then55, label %lor.lhs.false53, !dbg !3928

lor.lhs.false53:                                  ; preds = %if.end50
  %45 = load double, double* %val, align 8, !dbg !3929
  %cmp54 = fcmp olt double %45, 0xBE7AD7F29ABCAF48, !dbg !3930
  br i1 %cmp54, label %if.then55, label %if.end57, !dbg !3931

if.then55:                                        ; preds = %lor.lhs.false53, %if.end50
  %call56 = call i32 (i8*, ...) @_ZN3pov5ErrorEPKcz(i8* getelementptr inbounds ([19 x i8], [19 x i8]* @.str.31, i64 0, i64 0)), !dbg !3932
  br label %if.end57, !dbg !3934

if.end57:                                         ; preds = %if.then55, %lor.lhs.false53
  %46 = load i32, i32* %k, align 4, !dbg !3935
  %47 = load %"struct.pov::Pov_Array_Struct"*, %"struct.pov::Pov_Array_Struct"** %a, align 8, !dbg !3937
  %Sizes = getelementptr inbounds %"struct.pov::Pov_Array_Struct", %"struct.pov::Pov_Array_Struct"* %47, i32 0, i32 3, !dbg !3938
  %48 = load i32, i32* %i, align 4, !dbg !3939
  %idxprom = sext i32 %48 to i64, !dbg !3937
  %arrayidx = getelementptr inbounds [5 x i32], [5 x i32]* %Sizes, i64 0, i64 %idxprom, !dbg !3937
  %49 = load i32, i32* %arrayidx, align 4, !dbg !3937
  %cmp58 = icmp sge i32 %46, %49, !dbg !3940
  br i1 %cmp58, label %if.then59, label %if.end61, !dbg !3941

if.then59:                                        ; preds = %if.end57
  %call60 = call i32 (i8*, ...) @_ZN3pov5ErrorEPKcz(i8* getelementptr inbounds ([29 x i8], [29 x i8]* @.str.32, i64 0, i64 0)), !dbg !3942
  br label %if.end61, !dbg !3944

if.end61:                                         ; preds = %if.then59, %if.end57
  %50 = load i32, i32* %k, align 4, !dbg !3945
  %51 = load %"struct.pov::Pov_Array_Struct"*, %"struct.pov::Pov_Array_Struct"** %a, align 8, !dbg !3946
  %Mags = getelementptr inbounds %"struct.pov::Pov_Array_Struct", %"struct.pov::Pov_Array_Struct"* %51, i32 0, i32 4, !dbg !3947
  %52 = load i32, i32* %i, align 4, !dbg !3948
  %idxprom62 = sext i32 %52 to i64, !dbg !3946
  %arrayidx63 = getelementptr inbounds [5 x i32], [5 x i32]* %Mags, i64 0, i64 %idxprom62, !dbg !3946
  %53 = load i32, i32* %arrayidx63, align 4, !dbg !3946
  %mul = mul nsw i32 %50, %53, !dbg !3949
  %54 = load i32, i32* %j, align 4, !dbg !3950
  %add64 = add nsw i32 %54, %mul, !dbg !3950
  store i32 %add64, i32* %j, align 4, !dbg !3950
  call void @_ZN3pov9Get_TokenEv(), !dbg !3951
  %55 = load i32, i32* getelementptr inbounds (%"struct.pov::Token_Struct", %"struct.pov::Token_Struct"* @_ZN3pov5TokenE, i32 0, i32 0), align 8, !dbg !3952
  %cmp65 = icmp ne i32 %55, 220, !dbg !3952
  br i1 %cmp65, label %if.then66, label %if.end67, !dbg !3951

if.then66:                                        ; preds = %if.end61
  call void @_ZN3pov11Parse_ErrorEi(i32 220), !dbg !3952
  br label %if.end67, !dbg !3952

if.end67:                                         ; preds = %if.then66, %if.end61
  br label %for.inc, !dbg !3954

for.inc:                                          ; preds = %if.end67
  %56 = load i32, i32* %i, align 4, !dbg !3955
  %inc = add nsw i32 %56, 1, !dbg !3955
  store i32 %inc, i32* %i, align 4, !dbg !3955
  br label %for.cond45, !dbg !3956, !llvm.loop !3957

for.end:                                          ; preds = %for.cond45
  %57 = load %"struct.pov::Pov_Array_Struct"*, %"struct.pov::Pov_Array_Struct"** %a, align 8, !dbg !3959
  %DataPtrs = getelementptr inbounds %"struct.pov::Pov_Array_Struct", %"struct.pov::Pov_Array_Struct"* %57, i32 0, i32 5, !dbg !3960
  %58 = load i8**, i8*** %DataPtrs, align 8, !dbg !3960
  %59 = load i32, i32* %j, align 4, !dbg !3961
  %idxprom68 = sext i32 %59 to i64, !dbg !3959
  %arrayidx69 = getelementptr inbounds i8*, i8** %58, i64 %idxprom68, !dbg !3959
  store i8** %arrayidx69, i8*** getelementptr inbounds (%"struct.pov::Token_Struct", %"struct.pov::Token_Struct"* @_ZN3pov5TokenE, i32 0, i32 12), align 8, !dbg !3962
  %60 = load %"struct.pov::Pov_Array_Struct"*, %"struct.pov::Pov_Array_Struct"** %a, align 8, !dbg !3963
  %Type = getelementptr inbounds %"struct.pov::Pov_Array_Struct", %"struct.pov::Pov_Array_Struct"* %60, i32 0, i32 1, !dbg !3964
  store i32* %Type, i32** getelementptr inbounds (%"struct.pov::Token_Struct", %"struct.pov::Token_Struct"* @_ZN3pov5TokenE, i32 0, i32 11), align 8, !dbg !3965
  %61 = load %"struct.pov::Pov_Array_Struct"*, %"struct.pov::Pov_Array_Struct"** %a, align 8, !dbg !3966
  %Type70 = getelementptr inbounds %"struct.pov::Pov_Array_Struct", %"struct.pov::Pov_Array_Struct"* %61, i32 0, i32 1, !dbg !3967
  %62 = load i32, i32* %Type70, align 4, !dbg !3967
  store i32 %62, i32* getelementptr inbounds (%"struct.pov::Token_Struct", %"struct.pov::Token_Struct"* @_ZN3pov5TokenE, i32 0, i32 0), align 8, !dbg !3968
  store i8 1, i8* getelementptr inbounds (%"struct.pov::Token_Struct", %"struct.pov::Token_Struct"* @_ZN3pov5TokenE, i32 0, i32 13), align 8, !dbg !3969
  %63 = load i16, i16* @_ZN3pov9LValue_OkE, align 2, !dbg !3970
  %tobool71 = icmp ne i16 %63, 0, !dbg !3970
  br i1 %tobool71, label %if.end77, label %if.then72, !dbg !3972

if.then72:                                        ; preds = %for.end
  %64 = load i8**, i8*** getelementptr inbounds (%"struct.pov::Token_Struct", %"struct.pov::Token_Struct"* @_ZN3pov5TokenE, i32 0, i32 12), align 8, !dbg !3973
  %65 = load i8*, i8** %64, align 8, !dbg !3976
  %cmp73 = icmp eq i8* %65, null, !dbg !3977
  br i1 %cmp73, label %if.then74, label %if.end76, !dbg !3978

if.then74:                                        ; preds = %if.then72
  %call75 = call i32 (i8*, ...) @_ZN3pov5ErrorEPKcz(i8* getelementptr inbounds ([47 x i8], [47 x i8]* @.str.42, i64 0, i64 0)), !dbg !3979
  br label %if.end76, !dbg !3979

if.end76:                                         ; preds = %if.then74, %if.then72
  br label %if.end77, !dbg !3980

if.end77:                                         ; preds = %if.end76, %for.end
  br label %if.end81, !dbg !3981

if.else78:                                        ; preds = %while.body37
  %66 = load %"struct.pov::Sym_Table_Entry"*, %"struct.pov::Sym_Table_Entry"** %Temp_Entry, align 8, !dbg !3982
  %Data79 = getelementptr inbounds %"struct.pov::Sym_Table_Entry", %"struct.pov::Sym_Table_Entry"* %66, i32 0, i32 2, !dbg !3984
  %67 = load i8*, i8** %Data79, align 8, !dbg !3984
  %68 = bitcast i8* %67 to %"struct.pov::Pov_Param_Struct"*, !dbg !3985
  store %"struct.pov::Pov_Param_Struct"* %68, %"struct.pov::Pov_Param_Struct"** %Par, align 8, !dbg !3986
  %69 = load %"struct.pov::Pov_Param_Struct"*, %"struct.pov::Pov_Param_Struct"** %Par, align 8, !dbg !3987
  %NumberPtr = getelementptr inbounds %"struct.pov::Pov_Param_Struct", %"struct.pov::Pov_Param_Struct"* %69, i32 0, i32 0, !dbg !3988
  %70 = load i32*, i32** %NumberPtr, align 8, !dbg !3988
  %71 = load i32, i32* %70, align 4, !dbg !3989
  store i32 %71, i32* getelementptr inbounds (%"struct.pov::Token_Struct", %"struct.pov::Token_Struct"* @_ZN3pov5TokenE, i32 0, i32 0), align 8, !dbg !3990
  store i8 0, i8* getelementptr inbounds (%"struct.pov::Token_Struct", %"struct.pov::Token_Struct"* @_ZN3pov5TokenE, i32 0, i32 13), align 8, !dbg !3991
  %72 = load %"struct.pov::Pov_Param_Struct"*, %"struct.pov::Pov_Param_Struct"** %Par, align 8, !dbg !3992
  %NumberPtr80 = getelementptr inbounds %"struct.pov::Pov_Param_Struct", %"struct.pov::Pov_Param_Struct"* %72, i32 0, i32 0, !dbg !3993
  %73 = load i32*, i32** %NumberPtr80, align 8, !dbg !3993
  store i32* %73, i32** getelementptr inbounds (%"struct.pov::Token_Struct", %"struct.pov::Token_Struct"* @_ZN3pov5TokenE, i32 0, i32 11), align 8, !dbg !3994
  %74 = load %"struct.pov::Pov_Param_Struct"*, %"struct.pov::Pov_Param_Struct"** %Par, align 8, !dbg !3995
  %DataPtr = getelementptr inbounds %"struct.pov::Pov_Param_Struct", %"struct.pov::Pov_Param_Struct"* %74, i32 0, i32 1, !dbg !3996
  %75 = load i8**, i8*** %DataPtr, align 8, !dbg !3996
  store i8** %75, i8*** getelementptr inbounds (%"struct.pov::Token_Struct", %"struct.pov::Token_Struct"* @_ZN3pov5TokenE, i32 0, i32 12), align 8, !dbg !3997
  br label %if.end81

if.end81:                                         ; preds = %if.else78, %if.end77
  br label %while.cond, !dbg !3878, !llvm.loop !3998

while.end82:                                      ; preds = %if.then43, %lor.end
  %76 = load i32, i32* getelementptr inbounds (%"struct.pov::Token_Struct", %"struct.pov::Token_Struct"* @_ZN3pov5TokenE, i32 0, i32 0), align 8, !dbg !4000
  %77 = load i32, i32* getelementptr inbounds (%"struct.pov::Token_Struct", %"struct.pov::Token_Struct"* @_ZN3pov5TokenE, i32 0, i32 3), align 8, !dbg !4001
  call void @_ZN3pov11Write_TokenEii(i32 %76, i32 %77), !dbg !4002
  %78 = load i8**, i8*** getelementptr inbounds (%"struct.pov::Token_Struct", %"struct.pov::Token_Struct"* @_ZN3pov5TokenE, i32 0, i32 12), align 8, !dbg !4003
  %79 = load i8*, i8** %78, align 8, !dbg !4004
  store i8* %79, i8** getelementptr inbounds (%"struct.pov::Token_Struct", %"struct.pov::Token_Struct"* @_ZN3pov5TokenE, i32 0, i32 10), align 8, !dbg !4005
  %80 = load i32, i32* %Local_Index, align 4, !dbg !4006
  store i32 %80, i32* getelementptr inbounds (%"struct.pov::Token_Struct", %"struct.pov::Token_Struct"* @_ZN3pov5TokenE, i32 0, i32 4), align 4, !dbg !4007
  br label %return, !dbg !4008

if.end83:                                         ; preds = %for.body
  br label %for.inc84, !dbg !4009

for.inc84:                                        ; preds = %if.end83
  %81 = load i32, i32* %Local_Index, align 4, !dbg !4010
  %dec = add nsw i32 %81, -1, !dbg !4010
  store i32 %dec, i32* %Local_Index, align 4, !dbg !4010
  br label %for.cond, !dbg !4011, !llvm.loop !4012

for.end85:                                        ; preds = %for.cond
  br label %if.end86, !dbg !4014

if.end86:                                         ; preds = %for.end85, %if.end15
  %82 = load i32, i32* getelementptr inbounds (%"struct.pov::Token_Struct", %"struct.pov::Token_Struct"* @_ZN3pov5TokenE, i32 0, i32 3), align 8, !dbg !4015
  call void @_ZN3pov11Write_TokenEii(i32 161, i32 %82), !dbg !4016
  br label %return, !dbg !4017

return:                                           ; preds = %if.end86, %while.end82, %if.end30, %if.then14, %if.then10
  ret void, !dbg !4017
}

declare dso_local void @_ZN3pov12Do_CooperateEi(i32) #3

declare dso_local void @_ZN3pov16Check_User_AbortEi(i32) #3

declare dso_local i32 @_ZN3pov19Send_ProgressUpdateEii(i32, i32) #3

; Function Attrs: noinline nounwind uwtable
define dso_local void @_ZN3pov11Unget_TokenEv() #2 !dbg !4018 {
entry:
  store i32 1, i32* getelementptr inbounds (%"struct.pov::Token_Struct", %"struct.pov::Token_Struct"* @_ZN3pov5TokenE, i32 0, i32 7), align 8, !dbg !4019
  ret void, !dbg !4020
}

; Function Attrs: noinline uwtable
define linkonce_odr dso_local void @_ZN3pov12Begin_StringEv() #0 comdat !dbg !4021 {
entry:
  %0 = load i8*, i8** @_ZN3pov6StringE, align 8, !dbg !4022
  %cmp = icmp ne i8* %0, null, !dbg !4024
  br i1 %cmp, label %land.lhs.true, label %if.end, !dbg !4025

land.lhs.true:                                    ; preds = %entry
  %1 = load i8*, i8** @_ZN3pov6StringE, align 8, !dbg !4026
  %cmp1 = icmp ne i8* %1, getelementptr inbounds ([256 x i8], [256 x i8]* @_ZN3pov18String_Fast_BufferE, i64 0, i64 0), !dbg !4027
  br i1 %cmp1, label %if.then, label %if.end, !dbg !4028

if.then:                                          ; preds = %land.lhs.true
  %2 = load i8*, i8** @_ZN3pov6StringE, align 8, !dbg !4029
  call void @_ZN3pov8pov_freeEPvPKci(i8* %2, i8* getelementptr inbounds ([13 x i8], [13 x i8]* @.str.2, i64 0, i64 0), i32 956), !dbg !4029
  store i8* null, i8** @_ZN3pov6StringE, align 8, !dbg !4029
  br label %if.end, !dbg !4029

if.end:                                           ; preds = %if.then, %land.lhs.true, %entry
  %call = call i8* @_ZN3pov10pov_mallocEmPKciS1_(i64 256, i8* getelementptr inbounds ([13 x i8], [13 x i8]* @.str.2, i64 0, i64 0), i32 958, i8* getelementptr inbounds ([9 x i8], [9 x i8]* @.str.35, i64 0, i64 0)), !dbg !4031
  store i8* %call, i8** @_ZN3pov6StringE, align 8, !dbg !4032
  store i32 256, i32* @_ZN3pov18String_Buffer_FreeE, align 4, !dbg !4033
  store i32 0, i32* @_ZN3pov12String_IndexE, align 4, !dbg !4034
  ret void, !dbg !4035
}

; Function Attrs: noinline uwtable
define linkonce_odr dso_local void @_ZN3pov15Stuff_CharacterEi(i32 %chr) #0 comdat !dbg !4036 {
entry:
  %chr.addr = alloca i32, align 4
  store i32 %chr, i32* %chr.addr, align 4
  call void @llvm.dbg.declare(metadata i32* %chr.addr, metadata !4037, metadata !DIExpression()), !dbg !4038
  %0 = load i32, i32* @_ZN3pov18String_Buffer_FreeE, align 4, !dbg !4039
  %cmp = icmp sle i32 %0, 0, !dbg !4041
  br i1 %cmp, label %if.then, label %if.end, !dbg !4042

if.then:                                          ; preds = %entry
  %call = call i32 (i8*, ...) @_ZN3pov5ErrorEPKcz(i8* getelementptr inbounds ([17 x i8], [17 x i8]* @.str.36, i64 0, i64 0)), !dbg !4043
  br label %if.end, !dbg !4045

if.end:                                           ; preds = %if.then, %entry
  %1 = load i32, i32* %chr.addr, align 4, !dbg !4046
  %conv = trunc i32 %1 to i8, !dbg !4046
  %2 = load i8*, i8** @_ZN3pov6StringE, align 8, !dbg !4047
  %3 = load i32, i32* @_ZN3pov12String_IndexE, align 4, !dbg !4048
  %idxprom = sext i32 %3 to i64, !dbg !4047
  %arrayidx = getelementptr inbounds i8, i8* %2, i64 %idxprom, !dbg !4047
  store i8 %conv, i8* %arrayidx, align 1, !dbg !4049
  %4 = load i32, i32* @_ZN3pov18String_Buffer_FreeE, align 4, !dbg !4050
  %dec = add nsw i32 %4, -1, !dbg !4050
  store i32 %dec, i32* @_ZN3pov18String_Buffer_FreeE, align 4, !dbg !4050
  %5 = load i32, i32* @_ZN3pov12String_IndexE, align 4, !dbg !4051
  %inc = add nsw i32 %5, 1, !dbg !4051
  store i32 %inc, i32* @_ZN3pov12String_IndexE, align 4, !dbg !4051
  ret void, !dbg !4052
}

; Function Attrs: noinline uwtable
define linkonce_odr dso_local void @_ZN3pov10End_StringEv() #0 comdat !dbg !4053 {
entry:
  call void @_ZN3pov15Stuff_CharacterEi(i32 0), !dbg !4054
  %0 = load i32, i32* @_ZN3pov18String_Buffer_FreeE, align 4, !dbg !4055
  %cmp = icmp sgt i32 %0, 0, !dbg !4057
  br i1 %cmp, label %if.then, label %if.end, !dbg !4058

if.then:                                          ; preds = %entry
  %1 = load i8*, i8** @_ZN3pov6StringE, align 8, !dbg !4059
  %2 = load i32, i32* @_ZN3pov12String_IndexE, align 4, !dbg !4059
  %conv = sext i32 %2 to i64, !dbg !4059
  %call = call i8* @_ZN3pov11pov_reallocEPvmPKciS2_(i8* %1, i64 %conv, i8* getelementptr inbounds ([13 x i8], [13 x i8]* @.str.2, i64 0, i64 0), i32 1023, i8* getelementptr inbounds ([22 x i8], [22 x i8]* @.str.37, i64 0, i64 0)), !dbg !4059
  store i8* %call, i8** @_ZN3pov6StringE, align 8, !dbg !4060
  br label %if.end, !dbg !4061

if.end:                                           ; preds = %if.then, %entry
  store i32 0, i32* @_ZN3pov18String_Buffer_FreeE, align 4, !dbg !4062
  ret void, !dbg !4063
}

; Function Attrs: noinline uwtable
define dso_local void @_ZN3pov11Where_ErrorEP9POVMSData(%struct.POVMSData* %msg) #0 !dbg !4064 {
entry:
  %msg.addr = alloca %struct.POVMSData*, align 8
  %ref.tmp = alloca %"struct.pov_base::ITextStream::FilePos", align 8
  store %struct.POVMSData* %msg, %struct.POVMSData** %msg.addr, align 8
  call void @llvm.dbg.declare(metadata %struct.POVMSData** %msg.addr, metadata !4082, metadata !DIExpression()), !dbg !4083
  %0 = load %"class.pov_base::ITextStream"*, %"class.pov_base::ITextStream"** getelementptr inbounds (%"struct.pov::Token_Struct", %"struct.pov::Token_Struct"* @_ZN3pov5TokenE, i32 0, i32 9), align 8, !dbg !4084
  %cmp = icmp eq %"class.pov_base::ITextStream"* %0, null, !dbg !4086
  br i1 %cmp, label %if.then, label %if.end, !dbg !4087

if.then:                                          ; preds = %entry
  br label %if.end9, !dbg !4088

if.end:                                           ; preds = %entry
  %1 = load %struct.POVMSData*, %struct.POVMSData** %msg.addr, align 8, !dbg !4089
  %2 = load %"class.pov_base::ITextStream"*, %"class.pov_base::ITextStream"** getelementptr inbounds (%"struct.pov::Token_Struct", %"struct.pov::Token_Struct"* @_ZN3pov5TokenE, i32 0, i32 9), align 8, !dbg !4090
  %call = call i8* @_ZN8pov_base11ITextStream4nameEv(%"class.pov_base::ITextStream"* %2), !dbg !4091
  %call1 = call i32 @_Z19POVMSUtil_SetStringP9POVMSDatajPKc(%struct.POVMSData* %1, i32 1181314149, i8* %call), !dbg !4092
  %3 = load %struct.POVMSData*, %struct.POVMSData** %msg.addr, align 8, !dbg !4093
  %4 = load i8*, i8** getelementptr inbounds (%"struct.pov::Token_Struct", %"struct.pov::Token_Struct"* @_ZN3pov5TokenE, i32 0, i32 5), align 8, !dbg !4094
  %call2 = call i32 @_Z19POVMSUtil_SetStringP9POVMSDatajPKc(%struct.POVMSData* %3, i32 1416588110, i8* %4), !dbg !4095
  %5 = load %struct.POVMSData*, %struct.POVMSData** %msg.addr, align 8, !dbg !4096
  %6 = load i32, i32* getelementptr inbounds (%"struct.pov::Token_Struct", %"struct.pov::Token_Struct"* @_ZN3pov5TokenE, i32 0, i32 2, i32 1), align 8, !dbg !4097
  %call3 = call i32 @_Z16POVMSUtil_SetIntP9POVMSDataji(%struct.POVMSData* %5, i32 1281977957, i32 %6), !dbg !4098
  %7 = load %struct.POVMSData*, %struct.POVMSData** %msg.addr, align 8, !dbg !4099
  %8 = load i32, i32* getelementptr inbounds (%"struct.pov::Token_Struct", %"struct.pov::Token_Struct"* @_ZN3pov5TokenE, i32 0, i32 3), align 8, !dbg !4100
  %call4 = call i32 @_Z16POVMSUtil_SetIntP9POVMSDataji(%struct.POVMSData* %7, i32 1131375733, i32 %8), !dbg !4101
  %9 = load %"class.pov_base::ITextStream"*, %"class.pov_base::ITextStream"** getelementptr inbounds (%"struct.pov::Token_Struct", %"struct.pov::Token_Struct"* @_ZN3pov5TokenE, i32 0, i32 9), align 8, !dbg !4102
  %cmp5 = icmp ne %"class.pov_base::ITextStream"* %9, null, !dbg !4104
  br i1 %cmp5, label %if.then6, label %if.end9, !dbg !4105

if.then6:                                         ; preds = %if.end
  %10 = load %struct.POVMSData*, %struct.POVMSData** %msg.addr, align 8, !dbg !4106
  %11 = load %"class.pov_base::ITextStream"*, %"class.pov_base::ITextStream"** getelementptr inbounds (%"struct.pov::Token_Struct", %"struct.pov::Token_Struct"* @_ZN3pov5TokenE, i32 0, i32 9), align 8, !dbg !4107
  %call7 = call { i64, i32 } @_ZN8pov_base11ITextStream5tellgEv(%"class.pov_base::ITextStream"* %11), !dbg !4108
  %12 = bitcast %"struct.pov_base::ITextStream::FilePos"* %ref.tmp to { i64, i32 }*, !dbg !4108
  %13 = getelementptr inbounds { i64, i32 }, { i64, i32 }* %12, i32 0, i32 0, !dbg !4108
  %14 = extractvalue { i64, i32 } %call7, 0, !dbg !4108
  store i64 %14, i64* %13, align 8, !dbg !4108
  %15 = getelementptr inbounds { i64, i32 }, { i64, i32 }* %12, i32 0, i32 1, !dbg !4108
  %16 = extractvalue { i64, i32 } %call7, 1, !dbg !4108
  store i32 %16, i32* %15, align 8, !dbg !4108
  %offset = getelementptr inbounds %"struct.pov_base::ITextStream::FilePos", %"struct.pov_base::ITextStream::FilePos"* %ref.tmp, i32 0, i32 0, !dbg !4109
  %17 = load i64, i64* %offset, align 8, !dbg !4109
  %call8 = call i32 @_Z17POVMSUtil_SetLongP9POVMSDatajx(%struct.POVMSData* %10, i32 1179676531, i64 %17), !dbg !4110
  br label %if.end9, !dbg !4111

if.end9:                                          ; preds = %if.then, %if.then6, %if.end
  ret void, !dbg !4112
}

declare dso_local i32 @_Z19POVMSUtil_SetStringP9POVMSDatajPKc(%struct.POVMSData*, i32, i8*) #3

; Function Attrs: noinline nounwind uwtable
define linkonce_odr dso_local i8* @_ZN8pov_base11ITextStream4nameEv(%"class.pov_base::ITextStream"* %this) #2 comdat align 2 !dbg !4113 {
entry:
  %this.addr = alloca %"class.pov_base::ITextStream"*, align 8
  store %"class.pov_base::ITextStream"* %this, %"class.pov_base::ITextStream"** %this.addr, align 8
  call void @llvm.dbg.declare(metadata %"class.pov_base::ITextStream"** %this.addr, metadata !4118, metadata !DIExpression()), !dbg !4119
  %this1 = load %"class.pov_base::ITextStream"*, %"class.pov_base::ITextStream"** %this.addr, align 8
  %filename = getelementptr inbounds %"class.pov_base::ITextStream", %"class.pov_base::ITextStream"* %this1, i32 0, i32 7, !dbg !4120
  %0 = load i8*, i8** %filename, align 8, !dbg !4120
  ret i8* %0, !dbg !4121
}

declare dso_local i32 @_Z16POVMSUtil_SetIntP9POVMSDataji(%struct.POVMSData*, i32, i32) #3

declare dso_local i32 @_Z17POVMSUtil_SetLongP9POVMSDatajx(%struct.POVMSData*, i32, i64) #3

declare dso_local { i64, i32 } @_ZN8pov_base11ITextStream5tellgEv(%"class.pov_base::ITextStream"*) #3

; Function Attrs: noinline uwtable
define dso_local void @_ZN3pov13Where_WarningEP9POVMSData(%struct.POVMSData* %msg) #0 !dbg !4122 {
entry:
  %msg.addr = alloca %struct.POVMSData*, align 8
  %ref.tmp = alloca %"struct.pov_base::ITextStream::FilePos", align 8
  store %struct.POVMSData* %msg, %struct.POVMSData** %msg.addr, align 8
  call void @llvm.dbg.declare(metadata %struct.POVMSData** %msg.addr, metadata !4123, metadata !DIExpression()), !dbg !4124
  %0 = load %"class.pov_base::ITextStream"*, %"class.pov_base::ITextStream"** getelementptr inbounds (%"struct.pov::Token_Struct", %"struct.pov::Token_Struct"* @_ZN3pov5TokenE, i32 0, i32 9), align 8, !dbg !4125
  %cmp = icmp eq %"class.pov_base::ITextStream"* %0, null, !dbg !4127
  br i1 %cmp, label %if.then, label %if.end, !dbg !4128

if.then:                                          ; preds = %entry
  br label %if.end9, !dbg !4129

if.end:                                           ; preds = %entry
  %1 = load %struct.POVMSData*, %struct.POVMSData** %msg.addr, align 8, !dbg !4130
  %2 = load %"class.pov_base::ITextStream"*, %"class.pov_base::ITextStream"** getelementptr inbounds (%"struct.pov::Token_Struct", %"struct.pov::Token_Struct"* @_ZN3pov5TokenE, i32 0, i32 9), align 8, !dbg !4131
  %call = call i8* @_ZN8pov_base11ITextStream4nameEv(%"class.pov_base::ITextStream"* %2), !dbg !4132
  %call1 = call i32 @_Z19POVMSUtil_SetStringP9POVMSDatajPKc(%struct.POVMSData* %1, i32 1181314149, i8* %call), !dbg !4133
  %3 = load %struct.POVMSData*, %struct.POVMSData** %msg.addr, align 8, !dbg !4134
  %4 = load i8*, i8** getelementptr inbounds (%"struct.pov::Token_Struct", %"struct.pov::Token_Struct"* @_ZN3pov5TokenE, i32 0, i32 5), align 8, !dbg !4135
  %call2 = call i32 @_Z19POVMSUtil_SetStringP9POVMSDatajPKc(%struct.POVMSData* %3, i32 1416588110, i8* %4), !dbg !4136
  %5 = load %struct.POVMSData*, %struct.POVMSData** %msg.addr, align 8, !dbg !4137
  %6 = load i32, i32* getelementptr inbounds (%"struct.pov::Token_Struct", %"struct.pov::Token_Struct"* @_ZN3pov5TokenE, i32 0, i32 2, i32 1), align 8, !dbg !4138
  %call3 = call i32 @_Z16POVMSUtil_SetIntP9POVMSDataji(%struct.POVMSData* %5, i32 1281977957, i32 %6), !dbg !4139
  %7 = load %struct.POVMSData*, %struct.POVMSData** %msg.addr, align 8, !dbg !4140
  %8 = load i32, i32* getelementptr inbounds (%"struct.pov::Token_Struct", %"struct.pov::Token_Struct"* @_ZN3pov5TokenE, i32 0, i32 3), align 8, !dbg !4141
  %call4 = call i32 @_Z16POVMSUtil_SetIntP9POVMSDataji(%struct.POVMSData* %7, i32 1131375733, i32 %8), !dbg !4142
  %9 = load %"class.pov_base::ITextStream"*, %"class.pov_base::ITextStream"** getelementptr inbounds (%"struct.pov::Token_Struct", %"struct.pov::Token_Struct"* @_ZN3pov5TokenE, i32 0, i32 9), align 8, !dbg !4143
  %cmp5 = icmp ne %"class.pov_base::ITextStream"* %9, null, !dbg !4145
  br i1 %cmp5, label %if.then6, label %if.end9, !dbg !4146

if.then6:                                         ; preds = %if.end
  %10 = load %struct.POVMSData*, %struct.POVMSData** %msg.addr, align 8, !dbg !4147
  %11 = load %"class.pov_base::ITextStream"*, %"class.pov_base::ITextStream"** getelementptr inbounds (%"struct.pov::Token_Struct", %"struct.pov::Token_Struct"* @_ZN3pov5TokenE, i32 0, i32 9), align 8, !dbg !4148
  %call7 = call { i64, i32 } @_ZN8pov_base11ITextStream5tellgEv(%"class.pov_base::ITextStream"* %11), !dbg !4149
  %12 = bitcast %"struct.pov_base::ITextStream::FilePos"* %ref.tmp to { i64, i32 }*, !dbg !4149
  %13 = getelementptr inbounds { i64, i32 }, { i64, i32 }* %12, i32 0, i32 0, !dbg !4149
  %14 = extractvalue { i64, i32 } %call7, 0, !dbg !4149
  store i64 %14, i64* %13, align 8, !dbg !4149
  %15 = getelementptr inbounds { i64, i32 }, { i64, i32 }* %12, i32 0, i32 1, !dbg !4149
  %16 = extractvalue { i64, i32 } %call7, 1, !dbg !4149
  store i32 %16, i32* %15, align 8, !dbg !4149
  %offset = getelementptr inbounds %"struct.pov_base::ITextStream::FilePos", %"struct.pov_base::ITextStream::FilePos"* %ref.tmp, i32 0, i32 0, !dbg !4150
  %17 = load i64, i64* %offset, align 8, !dbg !4150
  %call8 = call i32 @_Z17POVMSUtil_SetLongP9POVMSDatajx(%struct.POVMSData* %10, i32 1179676531, i64 %17), !dbg !4151
  br label %if.end9, !dbg !4152

if.end9:                                          ; preds = %if.then, %if.then6, %if.end
  ret void, !dbg !4153
}

; Function Attrs: noinline uwtable
define internal void @_ZN3povL17Return_From_MacroEv() #0 !dbg !4154 {
entry:
  %agg.tmp = alloca %"struct.pov_base::ITextStream::FilePos", align 8
  call void @_ZN3povL16Check_Macro_VersEv(), !dbg !4155
  %0 = load %"struct.pov::Cond_Stack_Entry"*, %"struct.pov::Cond_Stack_Entry"** @_ZN3pov10Cond_StackE, align 8, !dbg !4156
  %1 = load i32, i32* @_ZN3pov8CS_IndexE, align 4, !dbg !4158
  %idxprom = sext i32 %1 to i64, !dbg !4156
  %arrayidx = getelementptr inbounds %"struct.pov::Cond_Stack_Entry", %"struct.pov::Cond_Stack_Entry"* %0, i64 %idxprom, !dbg !4156
  %Macro_Same_Flag = getelementptr inbounds %"struct.pov::Cond_Stack_Entry", %"struct.pov::Cond_Stack_Entry"* %arrayidx, i32 0, i32 5, !dbg !4159
  %2 = load i32, i32* %Macro_Same_Flag, align 8, !dbg !4159
  %tobool = icmp ne i32 %2, 0, !dbg !4156
  br i1 %tobool, label %if.end, label %if.then, !dbg !4160

if.then:                                          ; preds = %entry
  %3 = load %"struct.pov::InputFileData"*, %"struct.pov::InputFileData"** @_ZN3pov10Input_FileE, align 8, !dbg !4161
  %In_File = getelementptr inbounds %"struct.pov::InputFileData", %"struct.pov::InputFileData"* %3, i32 0, i32 0, !dbg !4163
  %4 = load %"class.pov_base::ITextStream"*, %"class.pov_base::ITextStream"** %In_File, align 8, !dbg !4163
  %isnull = icmp eq %"class.pov_base::ITextStream"* %4, null, !dbg !4164
  br i1 %isnull, label %delete.end, label %delete.notnull, !dbg !4164

delete.notnull:                                   ; preds = %if.then
  %5 = bitcast %"class.pov_base::ITextStream"* %4 to void (%"class.pov_base::ITextStream"*)***, !dbg !4164
  %vtable = load void (%"class.pov_base::ITextStream"*)**, void (%"class.pov_base::ITextStream"*)*** %5, align 8, !dbg !4164
  %vfn = getelementptr inbounds void (%"class.pov_base::ITextStream"*)*, void (%"class.pov_base::ITextStream"*)** %vtable, i64 1, !dbg !4164
  %6 = load void (%"class.pov_base::ITextStream"*)*, void (%"class.pov_base::ITextStream"*)** %vfn, align 8, !dbg !4164
  call void %6(%"class.pov_base::ITextStream"* %4) #11, !dbg !4164
  br label %delete.end, !dbg !4164

delete.end:                                       ; preds = %delete.notnull, %if.then
  %7 = load %"struct.pov::InputFileData"*, %"struct.pov::InputFileData"** @_ZN3pov10Input_FileE, align 8, !dbg !4165
  %R_Flag = getelementptr inbounds %"struct.pov::InputFileData", %"struct.pov::InputFileData"* %7, i32 0, i32 1, !dbg !4166
  store i8 0, i8* %R_Flag, align 8, !dbg !4167
  %8 = load %"struct.pov::Cond_Stack_Entry"*, %"struct.pov::Cond_Stack_Entry"** @_ZN3pov10Cond_StackE, align 8, !dbg !4168
  %9 = load i32, i32* @_ZN3pov8CS_IndexE, align 4, !dbg !4169
  %idxprom1 = sext i32 %9 to i64, !dbg !4168
  %arrayidx2 = getelementptr inbounds %"struct.pov::Cond_Stack_Entry", %"struct.pov::Cond_Stack_Entry"* %8, i64 %idxprom1, !dbg !4168
  %Macro_File = getelementptr inbounds %"struct.pov::Cond_Stack_Entry", %"struct.pov::Cond_Stack_Entry"* %arrayidx2, i32 0, i32 3, !dbg !4170
  %10 = load %"class.pov_base::ITextStream"*, %"class.pov_base::ITextStream"** %Macro_File, align 8, !dbg !4170
  %11 = load %"struct.pov::InputFileData"*, %"struct.pov::InputFileData"** @_ZN3pov10Input_FileE, align 8, !dbg !4171
  %In_File3 = getelementptr inbounds %"struct.pov::InputFileData", %"struct.pov::InputFileData"* %11, i32 0, i32 0, !dbg !4172
  store %"class.pov_base::ITextStream"* %10, %"class.pov_base::ITextStream"** %In_File3, align 8, !dbg !4173
  br label %if.end, !dbg !4174

if.end:                                           ; preds = %delete.end, %entry
  store i32 0, i32* @_ZN3pov7Got_EOFE, align 4, !dbg !4175
  %12 = load %"struct.pov::InputFileData"*, %"struct.pov::InputFileData"** @_ZN3pov10Input_FileE, align 8, !dbg !4176
  %In_File4 = getelementptr inbounds %"struct.pov::InputFileData", %"struct.pov::InputFileData"* %12, i32 0, i32 0, !dbg !4178
  %13 = load %"class.pov_base::ITextStream"*, %"class.pov_base::ITextStream"** %In_File4, align 8, !dbg !4178
  %14 = load %"struct.pov::Cond_Stack_Entry"*, %"struct.pov::Cond_Stack_Entry"** @_ZN3pov10Cond_StackE, align 8, !dbg !4179
  %15 = load i32, i32* @_ZN3pov8CS_IndexE, align 4, !dbg !4180
  %idxprom5 = sext i32 %15 to i64, !dbg !4179
  %arrayidx6 = getelementptr inbounds %"struct.pov::Cond_Stack_Entry", %"struct.pov::Cond_Stack_Entry"* %14, i64 %idxprom5, !dbg !4179
  %File_Pos = getelementptr inbounds %"struct.pov::Cond_Stack_Entry", %"struct.pov::Cond_Stack_Entry"* %arrayidx6, i32 0, i32 7, !dbg !4181
  %16 = bitcast %"struct.pov_base::ITextStream::FilePos"* %agg.tmp to i8*, !dbg !4179
  %17 = bitcast %"struct.pov_base::ITextStream::FilePos"* %File_Pos to i8*, !dbg !4179
  call void @llvm.memcpy.p0i8.p0i8.i64(i8* align 8 %16, i8* align 8 %17, i64 16, i1 false), !dbg !4179
  %18 = bitcast %"struct.pov_base::ITextStream::FilePos"* %agg.tmp to { i64, i32 }*, !dbg !4182
  %19 = getelementptr inbounds { i64, i32 }, { i64, i32 }* %18, i32 0, i32 0, !dbg !4182
  %20 = load i64, i64* %19, align 8, !dbg !4182
  %21 = getelementptr inbounds { i64, i32 }, { i64, i32 }* %18, i32 0, i32 1, !dbg !4182
  %22 = load i32, i32* %21, align 8, !dbg !4182
  %call = call zeroext i1 @_ZN8pov_base11ITextStream5seekgENS0_7FilePosE(%"class.pov_base::ITextStream"* %13, i64 %20, i32 %22), !dbg !4182
  br i1 %call, label %if.end9, label %if.then7, !dbg !4183

if.then7:                                         ; preds = %if.end
  %call8 = call i32 (i8*, ...) @_ZN3pov5ErrorEPKcz(i8* getelementptr inbounds ([42 x i8], [42 x i8]* @.str.59, i64 0, i64 0)), !dbg !4184
  br label %if.end9, !dbg !4186

if.end9:                                          ; preds = %if.then7, %if.end
  %23 = load i32, i32* @_ZN3pov11Table_IndexE, align 4, !dbg !4187
  %dec = add nsw i32 %23, -1, !dbg !4187
  store i32 %dec, i32* @_ZN3pov11Table_IndexE, align 4, !dbg !4187
  call void @_ZN3povL13Destroy_TableEi(i32 %23), !dbg !4188
  ret void, !dbg !4189
}

; Function Attrs: noinline uwtable
define internal void @_ZN3povL12Inc_CS_IndexEv() #0 !dbg !4190 {
entry:
  %0 = load i32, i32* @_ZN3pov8CS_IndexE, align 4, !dbg !4191
  %inc = add nsw i32 %0, 1, !dbg !4191
  store i32 %inc, i32* @_ZN3pov8CS_IndexE, align 4, !dbg !4191
  %cmp = icmp sge i32 %inc, 200, !dbg !4193
  br i1 %cmp, label %if.then, label %if.end, !dbg !4194

if.then:                                          ; preds = %entry
  %call = call i32 (i8*, ...) @_ZN3pov5ErrorEPKcz(i8* getelementptr inbounds ([40 x i8], [40 x i8]* @.str.80, i64 0, i64 0)), !dbg !4195
  br label %if.end, !dbg !4197

if.end:                                           ; preds = %if.then, %entry
  %1 = load %"struct.pov::Cond_Stack_Entry"*, %"struct.pov::Cond_Stack_Entry"** @_ZN3pov10Cond_StackE, align 8, !dbg !4198
  %2 = load i32, i32* @_ZN3pov8CS_IndexE, align 4, !dbg !4199
  %idxprom = sext i32 %2 to i64, !dbg !4198
  %arrayidx = getelementptr inbounds %"struct.pov::Cond_Stack_Entry", %"struct.pov::Cond_Stack_Entry"* %1, i64 %idxprom, !dbg !4198
  %Macro_File = getelementptr inbounds %"struct.pov::Cond_Stack_Entry", %"struct.pov::Cond_Stack_Entry"* %arrayidx, i32 0, i32 3, !dbg !4200
  store %"class.pov_base::ITextStream"* null, %"class.pov_base::ITextStream"** %Macro_File, align 8, !dbg !4201
  %3 = load %"struct.pov::Cond_Stack_Entry"*, %"struct.pov::Cond_Stack_Entry"** @_ZN3pov10Cond_StackE, align 8, !dbg !4202
  %4 = load i32, i32* @_ZN3pov8CS_IndexE, align 4, !dbg !4203
  %idxprom1 = sext i32 %4 to i64, !dbg !4202
  %arrayidx2 = getelementptr inbounds %"struct.pov::Cond_Stack_Entry", %"struct.pov::Cond_Stack_Entry"* %3, i64 %idxprom1, !dbg !4202
  %Macro_Return_Name = getelementptr inbounds %"struct.pov::Cond_Stack_Entry", %"struct.pov::Cond_Stack_Entry"* %arrayidx2, i32 0, i32 4, !dbg !4204
  store i8* null, i8** %Macro_Return_Name, align 8, !dbg !4205
  %5 = load %"struct.pov::Cond_Stack_Entry"*, %"struct.pov::Cond_Stack_Entry"** @_ZN3pov10Cond_StackE, align 8, !dbg !4206
  %6 = load i32, i32* @_ZN3pov8CS_IndexE, align 4, !dbg !4207
  %idxprom3 = sext i32 %6 to i64, !dbg !4206
  %arrayidx4 = getelementptr inbounds %"struct.pov::Cond_Stack_Entry", %"struct.pov::Cond_Stack_Entry"* %5, i64 %idxprom3, !dbg !4206
  %PMac = getelementptr inbounds %"struct.pov::Cond_Stack_Entry", %"struct.pov::Cond_Stack_Entry"* %arrayidx4, i32 0, i32 6, !dbg !4208
  store %"struct.pov::Pov_Macro_Struct"* null, %"struct.pov::Pov_Macro_Struct"** %PMac, align 8, !dbg !4209
  %7 = load %"struct.pov::Cond_Stack_Entry"*, %"struct.pov::Cond_Stack_Entry"** @_ZN3pov10Cond_StackE, align 8, !dbg !4210
  %8 = load i32, i32* @_ZN3pov8CS_IndexE, align 4, !dbg !4211
  %idxprom5 = sext i32 %8 to i64, !dbg !4210
  %arrayidx6 = getelementptr inbounds %"struct.pov::Cond_Stack_Entry", %"struct.pov::Cond_Stack_Entry"* %7, i64 %idxprom5, !dbg !4210
  %While_File = getelementptr inbounds %"struct.pov::Cond_Stack_Entry", %"struct.pov::Cond_Stack_Entry"* %arrayidx6, i32 0, i32 2, !dbg !4212
  store %"class.pov_base::ITextStream"* null, %"class.pov_base::ITextStream"** %While_File, align 8, !dbg !4213
  ret void, !dbg !4214
}

; Function Attrs: noinline uwtable
define internal void @_ZN3povL11Skip_TokensENS_9cond_typeE(i32 %cond) #0 !dbg !4215 {
entry:
  %cond.addr = alloca i32, align 4
  %Temp = alloca i32, align 4
  %Prev_Skip = alloca i32, align 4
  store i32 %cond, i32* %cond.addr, align 4
  call void @llvm.dbg.declare(metadata i32* %cond.addr, metadata !4218, metadata !DIExpression()), !dbg !4219
  call void @llvm.dbg.declare(metadata i32* %Temp, metadata !4220, metadata !DIExpression()), !dbg !4221
  %0 = load i32, i32* @_ZN3pov8CS_IndexE, align 4, !dbg !4222
  store i32 %0, i32* %Temp, align 4, !dbg !4221
  call void @llvm.dbg.declare(metadata i32* %Prev_Skip, metadata !4223, metadata !DIExpression()), !dbg !4224
  %1 = load i32, i32* @_ZN3pov8SkippingE, align 4, !dbg !4225
  store i32 %1, i32* %Prev_Skip, align 4, !dbg !4224
  store i32 1, i32* @_ZN3pov8SkippingE, align 4, !dbg !4226
  br label %while.cond, !dbg !4227

while.cond:                                       ; preds = %while.body, %entry
  %2 = load i32, i32* @_ZN3pov8CS_IndexE, align 4, !dbg !4228
  %3 = load i32, i32* %Temp, align 4, !dbg !4229
  %cmp = icmp sgt i32 %2, %3, !dbg !4230
  br i1 %cmp, label %lor.end, label %lor.rhs, !dbg !4231

lor.rhs:                                          ; preds = %while.cond
  %4 = load i32, i32* @_ZN3pov8CS_IndexE, align 4, !dbg !4232
  %5 = load i32, i32* %Temp, align 4, !dbg !4233
  %cmp1 = icmp eq i32 %4, %5, !dbg !4234
  br i1 %cmp1, label %land.rhs, label %land.end, !dbg !4235

land.rhs:                                         ; preds = %lor.rhs
  %6 = load %"struct.pov::Cond_Stack_Entry"*, %"struct.pov::Cond_Stack_Entry"** @_ZN3pov10Cond_StackE, align 8, !dbg !4236
  %7 = load i32, i32* @_ZN3pov8CS_IndexE, align 4, !dbg !4237
  %idxprom = sext i32 %7 to i64, !dbg !4236
  %arrayidx = getelementptr inbounds %"struct.pov::Cond_Stack_Entry", %"struct.pov::Cond_Stack_Entry"* %6, i64 %idxprom, !dbg !4236
  %Cond_Type = getelementptr inbounds %"struct.pov::Cond_Stack_Entry", %"struct.pov::Cond_Stack_Entry"* %arrayidx, i32 0, i32 0, !dbg !4238
  %8 = load i32, i32* %Cond_Type, align 8, !dbg !4238
  %9 = load i32, i32* %cond.addr, align 4, !dbg !4239
  %cmp2 = icmp eq i32 %8, %9, !dbg !4240
  br label %land.end

land.end:                                         ; preds = %land.rhs, %lor.rhs
  %10 = phi i1 [ false, %lor.rhs ], [ %cmp2, %land.rhs ], !dbg !4241
  br label %lor.end, !dbg !4231

lor.end:                                          ; preds = %land.end, %while.cond
  %11 = phi i1 [ true, %while.cond ], [ %10, %land.end ]
  br i1 %11, label %while.body, label %while.end, !dbg !4227

while.body:                                       ; preds = %lor.end
  call void @_ZN3pov9Get_TokenEv(), !dbg !4242
  br label %while.cond, !dbg !4227, !llvm.loop !4244

while.end:                                        ; preds = %lor.end
  %12 = load i32, i32* %Prev_Skip, align 4, !dbg !4246
  store i32 %12, i32* @_ZN3pov8SkippingE, align 4, !dbg !4247
  %13 = load i32, i32* getelementptr inbounds (%"struct.pov::Token_Struct", %"struct.pov::Token_Struct"* @_ZN3pov5TokenE, i32 0, i32 0), align 8, !dbg !4248
  %cmp3 = icmp eq i32 %13, 157, !dbg !4250
  br i1 %cmp3, label %if.then, label %if.else, !dbg !4251

if.then:                                          ; preds = %while.end
  store i32 143, i32* getelementptr inbounds (%"struct.pov::Token_Struct", %"struct.pov::Token_Struct"* @_ZN3pov5TokenE, i32 0, i32 0), align 8, !dbg !4252
  store i8 0, i8* getelementptr inbounds (%"struct.pov::Token_Struct", %"struct.pov::Token_Struct"* @_ZN3pov5TokenE, i32 0, i32 13), align 8, !dbg !4254
