; ModuleID = 'fnintern.cpp'
source_filename = "fnintern.cpp"
target datalayout = "e-m:e-p270:32:32-p271:32:32-p272:64:64-i64:64-f80:128-n8:16:32:64-S128"
target triple = "x86_64-unknown-linux-gnu"

%"struct.pov::Trap" = type { double (double*, i32)*, i32 }
%"struct.pov::TrapS" = type { void (double*, i32, i32)*, i32 }
%"struct.pov::Pattern_Struct" = type { i16, i16, i16, i32, float, float, float, %"struct.pov::Warps_Struct"*, %"struct.pov::Pattern_Struct"*, %"struct.pov::Blend_Map_Struct"*, %union.anon.25 }
%"struct.pov::Warps_Struct" = type { i16, %"struct.pov::Warps_Struct"*, %"struct.pov::Warps_Struct"* }
%"struct.pov::Blend_Map_Struct" = type { i32, i16, i8, i8, %"struct.pov::Blend_Map_Entry"* }
%"struct.pov::Blend_Map_Entry" = type { float, i8, %union.anon }
%union.anon = type { [2 x double], [8 x i8] }
%union.anon.25 = type { %struct.anon.29 }
%struct.anon.29 = type { [3 x double], [3 x double], double, double, i16, [3 x double]*, i32, [3 x double] }
%"struct.pov::FunctionCode" = type { i32*, i32, i8, i8, i8, [56 x i32], [56 x i8*], [56 x i8*], i8*, i8*, %"struct.pov_base::ITextStream::FilePos", i32, i8* (i8*)*, void (i8*)*, i8* }
%"struct.pov_base::ITextStream::FilePos" = type { i64, i32 }
%"struct.pov::istk_entry" = type { double, [3 x double], [3 x double], [3 x double], [2 x double], %"struct.pov::Object_Struct"*, i32, i32, double, double, double, double, double, double, double, double, double, i8*, i8* }
%"struct.pov::Object_Struct" = type { %"struct.pov::Method_Struct"*, i32, %"struct.pov::Object_Struct"*, %"struct.pov::Texture_Struct"*, %"struct.pov::Texture_Struct"*, %"struct.pov::Interior_Struct"*, %"struct.pov::Object_Struct"*, %"struct.pov::Object_Struct"*, %"struct.pov::Light_Source_Struct"*, %"struct.pov::Bounding_Box_Struct", %"struct.pov::Transform_Struct"*, %"struct.pov::Transform_Struct"*, float, i32 }
%"struct.pov::Method_Struct" = type { i32 (%"struct.pov::Object_Struct"*, %"struct.pov::Ray_Struct"*, %"struct.pov::istack_struct"*)*, i32 (double*, %"struct.pov::Object_Struct"*)*, void (double*, %"struct.pov::Object_Struct"*, %"struct.pov::istk_entry"*)*, void (double*, %"struct.pov::Object_Struct"*, %"struct.pov::istk_entry"*)*, i8* (%"struct.pov::Object_Struct"*)*, void (%"struct.pov::Object_Struct"*, double*, %"struct.pov::Transform_Struct"*)*, void (%"struct.pov::Object_Struct"*, double*, %"struct.pov::Transform_Struct"*)*, void (%"struct.pov::Object_Struct"*, double*, %"struct.pov::Transform_Struct"*)*, void (%"struct.pov::Object_Struct"*, %"struct.pov::Transform_Struct"*)*, void (%"struct.pov::Object_Struct"*)*, void (%"struct.pov::Object_Struct"*)* }
%"struct.pov::Ray_Struct" = type { [3 x double], [3 x double], i32, i32, [100 x %"struct.pov::Interior_Struct"*] }
%"struct.pov::istack_struct" = type { %"struct.pov::istack_struct"*, %"struct.pov::istk_entry"*, i32, i32 }
%"struct.pov::Texture_Struct" = type { i16, i16, i16, i32, float, float, float, %"struct.pov::Warps_Struct"*, %"struct.pov::Pattern_Struct"*, %"struct.pov::Blend_Map_Struct"*, %union.anon.9, %"struct.pov::Texture_Struct"*, %"struct.pov::Pigment_Struct"*, %"struct.pov::Tnormal_Struct"*, %"struct.pov::Finish_Struct"*, %"struct.pov::Texture_Struct"*, i32 }
%union.anon.9 = type { %struct.anon.13 }
%struct.anon.13 = type { [3 x double], [3 x double], double, double, i16, [3 x double]*, i32, [3 x double] }
%"struct.pov::Pigment_Struct" = type { i16, i16, i16, i32, float, float, float, %"struct.pov::Warps_Struct"*, %"struct.pov::Pattern_Struct"*, %"struct.pov::Blend_Map_Struct"*, %union.anon.0, [5 x float] }
%union.anon.0 = type { %struct.anon.5 }
%struct.anon.5 = type { [3 x double], [3 x double], double, double, i16, [3 x double]*, i32, [3 x double] }
%"struct.pov::Tnormal_Struct" = type { i16, i16, i16, i32, float, float, float, %"struct.pov::Warps_Struct"*, %"struct.pov::Pattern_Struct"*, %"struct.pov::Blend_Map_Struct"*, %union.anon.17, float, float }
%union.anon.17 = type { %struct.anon.21 }
%struct.anon.21 = type { [3 x double], [3 x double], double, double, i16, [3 x double]*, i32, [3 x double] }
%"struct.pov::Finish_Struct" = type { float, float, float, float, float, float, float, float, float, float, float, float, float, float, float, float, [3 x float], [3 x float], [3 x float], float, i32, float, i32 }
%"struct.pov::Interior_Struct" = type { i32, i32, i32, float, float, float, float, float, float, [5 x float], %"struct.pov::Media_Struct"* }
%"struct.pov::Media_Struct" = type { i32, i32, i32, i32, i32, double, i32, double, double, i32, i32, i32, i32, [5 x float], [5 x float], [5 x float], [5 x float], double, double, double, double*, double, i32, i32, %"struct.pov::Pigment_Struct"*, %"struct.pov::Media_Struct"* }
%"struct.pov::Light_Source_Struct" = type { %"struct.pov::Method_Struct"*, i32, %"struct.pov::Object_Struct"*, %"struct.pov::Texture_Struct"*, %"struct.pov::Texture_Struct"*, %"struct.pov::Interior_Struct"*, %"struct.pov::Object_Struct"*, %"struct.pov::Object_Struct"*, %"struct.pov::Light_Source_Struct"*, %"struct.pov::Bounding_Box_Struct", %"struct.pov::Transform_Struct"*, %"struct.pov::Transform_Struct"*, float, i32, %"struct.pov::Object_Struct"*, [5 x float], [3 x double], [3 x double], [3 x double], [3 x double], [3 x double], double, double, double, double, double, %"struct.pov::Light_Source_Struct"*, i8, i8, i8, i8, i8, i8, i8, i8, i32, i32, i32, i32, i32, [5 x float]**, %"struct.pov::Object_Struct"*, %"struct.pov::Object_Struct"*, %"struct.pov::Blend_Map_Struct"*, [6 x %"struct.pov::Project_Tree_Node_Struct"*] }
%"struct.pov::Project_Tree_Node_Struct" = type { i16, %"struct.pov::BBox_Tree_Struct"*, %"struct.pov::Project_Struct", i16, %"struct.pov::Project_Tree_Node_Struct"** }
%"struct.pov::BBox_Tree_Struct" = type { i16, i16, %"struct.pov::Bounding_Box_Struct", %"struct.pov::BBox_Tree_Struct"** }
%"struct.pov::Project_Struct" = type { i32, i32, i32, i32 }
%"struct.pov::Bounding_Box_Struct" = type { [3 x float], [3 x float] }
%"struct.pov::Transform_Struct" = type { [4 x [4 x double]], [4 x [4 x double]] }
%"struct.pov::Spline_Struct" = type { i32, i32, i32, %"struct.pov::Spline_Entry"*, i32, i32, i8, i32, double, [5 x double] }
%"struct.pov::Spline_Entry" = type { double, [5 x double], [5 x double] }

$_ZSt3minIdERKT_S2_S2_ = comdat any

$_ZSt3maxIdERKT_S2_S2_ = comdat any

$_ZSt4fmodIdiEN9__gnu_cxx11__promote_2IT_T0_NS0_9__promoteIS2_Xsr3std12__is_integerIS2_EE7__valueEE6__typeENS4_IS3_Xsr3std12__is_integerIS3_EE7__valueEE6__typeEE6__typeES2_S3_ = comdat any

$_ZN3pov11Make_VectorEPdddd = comdat any

$_ZN3pov8VScaleEqEPdd = comdat any

$_ZN3pov6VScaleEPdPKdd = comdat any

@_ZN3pov16POVFPU_TrapTableE = dso_local constant [80 x %"struct.pov::Trap"] [%"struct.pov::Trap" { double (double*, i32)* @_ZN3pov12f_algbr_cyl1EPdj, i32 8 }, %"struct.pov::Trap" { double (double*, i32)* @_ZN3pov12f_algbr_cyl2EPdj, i32 8 }, %"struct.pov::Trap" { double (double*, i32)* @_ZN3pov12f_algbr_cyl3EPdj, i32 8 }, %"struct.pov::Trap" { double (double*, i32)* @_ZN3pov12f_algbr_cyl4EPdj, i32 8 }, %"struct.pov::Trap" { double (double*, i32)* @_ZN3pov8f_bicornEPdj, i32 5 }, %"struct.pov::Trap" { double (double*, i32)* @_ZN3pov9f_bifoliaEPdj, i32 5 }, %"struct.pov::Trap" { double (double*, i32)* @_ZN3pov6f_blobEPdj, i32 8 }, %"struct.pov::Trap" { double (double*, i32)* @_ZN3pov7f_blob2EPdj, i32 7 }, %"struct.pov::Trap" { double (double*, i32)* @_ZN3pov13f_boy_surfaceEPdj, i32 5 }, %"struct.pov::Trap" { double (double*, i32)* @_ZN3pov7f_commaEPdj, i32 4 }, %"struct.pov::Trap" { double (double*, i32)* @_ZN3pov18f_cross_ellipsoidsEPdj, i32 7 }, %"struct.pov::Trap" { double (double*, i32)* @_ZN3pov16f_crossed_troughEPdj, i32 4 }, %"struct.pov::Trap" { double (double*, i32)* @_ZN3pov14f_cubic_saddleEPdj, i32 4 }, %"struct.pov::Trap" { double (double*, i32)* @_ZN3pov9f_cushionEPdj, i32 4 }, %"struct.pov::Trap" { double (double*, i32)* @_ZN3pov14f_devils_curveEPdj, i32 4 }, %"struct.pov::Trap" { double (double*, i32)* @_ZN3pov17f_devils_curve_2dEPdj, i32 9 }, %"struct.pov::Trap" { double (double*, i32)* @_ZN3pov14f_dupin_cyclidEPdj, i32 9 }, %"struct.pov::Trap" { double (double*, i32)* @_ZN3pov11f_ellipsoidEPdj, i32 6 }, %"struct.pov::Trap" { double (double*, i32)* @_ZN3pov9f_enneperEPdj, i32 4 }, %"struct.pov::Trap" { double (double*, i32)* @_ZN3pov14f_flange_coverEPdj, i32 7 }, %"struct.pov::Trap" { double (double*, i32)* @_ZN3pov16f_folium_surfaceEPdj, i32 6 }, %"struct.pov::Trap" { double (double*, i32)* @_ZN3pov19f_folium_surface_2dEPdj, i32 9 }, %"struct.pov::Trap" { double (double*, i32)* @_ZN3pov6f_globEPdj, i32 4 }, %"struct.pov::Trap" { double (double*, i32)* @_ZN3pov7f_heartEPdj, i32 4 }, %"struct.pov::Trap" { double (double*, i32)* @_ZN3pov15f_helical_torusEPdj, i32 13 }, %"struct.pov::Trap" { double (double*, i32)* @_ZN3pov8f_helix1EPdj, i32 10 }, %"struct.pov::Trap" { double (double*, i32)* @_ZN3pov8f_helix2EPdj, i32 10 }, %"struct.pov::Trap" { double (double*, i32)* @_ZN3pov7f_hex_xEPdj, i32 4 }, %"struct.pov::Trap" { double (double*, i32)* @_ZN3pov7f_hex_yEPdj, i32 4 }, %"struct.pov::Trap" { double (double*, i32)* @_ZN3pov11f_hetero_mfEPdj, i32 9 }, %"struct.pov::Trap" { double (double*, i32)* @_ZN3pov14f_hunt_surfaceEPdj, i32 4 }, %"struct.pov::Trap" { double (double*, i32)* @_ZN3pov18f_hyperbolic_torusEPdj, i32 6 }, %"struct.pov::Trap" { double (double*, i32)* @_ZN3pov18f_isect_ellipsoidsEPdj, i32 7 }, %"struct.pov::Trap" { double (double*, i32)* @_ZN3pov20f_kampyle_of_eudoxusEPdj, i32 6 }, %"struct.pov::Trap" { double (double*, i32)* @_ZN3pov23f_kampyle_of_eudoxus_2dEPdj, i32 9 }, %"struct.pov::Trap" { double (double*, i32)* @_ZN3pov14f_klein_bottleEPdj, i32 4 }, %"struct.pov::Trap" { double (double*, i32)* @_ZN3pov19f_kummer_surface_v1EPdj, i32 4 }, %"struct.pov::Trap" { double (double*, i32)* @_ZN3pov19f_kummer_surface_v2EPdj, i32 7 }, %"struct.pov::Trap" { double (double*, i32)* @_ZN3pov22f_lemniscate_of_geronoEPdj, i32 4 }, %"struct.pov::Trap" { double (double*, i32)* @_ZN3pov25f_lemniscate_of_gerono_2dEPdj, i32 9 }, %"struct.pov::Trap" { double (double*, i32)* @_ZN3pov7f_mesh1EPdj, i32 8 }, %"struct.pov::Trap" { double (double*, i32)* @_ZN3pov7f_mitreEPdj, i32 4 }, %"struct.pov::Trap" { double (double*, i32)* @_ZN3pov13f_nodal_cubicEPdj, i32 4 }, %"struct.pov::Trap" { double (double*, i32)* @_ZN3pov5f_oddEPdj, i32 4 }, %"struct.pov::Trap" { double (double*, i32)* @_ZN3pov18f_ovals_of_cassiniEPdj, i32 7 }, %"struct.pov::Trap" { double (double*, i32)* @_ZN3pov12f_paraboloidEPdj, i32 4 }, %"struct.pov::Trap" { double (double*, i32)* @_ZN3pov17f_parabolic_torusEPdj, i32 6 }, %"struct.pov::Trap" { double (double*, i32)* @_ZN3pov4f_phEPdj, i32 3 }, %"struct.pov::Trap" { double (double*, i32)* @_ZN3pov8f_pillowEPdj, i32 4 }, %"struct.pov::Trap" { double (double*, i32)* @_ZN3pov10f_piriformEPdj, i32 4 }, %"struct.pov::Trap" { double (double*, i32)* @_ZN3pov13f_piriform_2dEPdj, i32 10 }, %"struct.pov::Trap" { double (double*, i32)* @_ZN3pov7f_poly4EPdj, i32 8 }, %"struct.pov::Trap" { double (double*, i32)* @_ZN3pov11f_polytubesEPdj, i32 9 }, %"struct.pov::Trap" { double (double*, i32)* @_ZN3pov9f_quantumEPdj, i32 4 }, %"struct.pov::Trap" { double (double*, i32)* @_ZN3pov20f_quartic_paraboloidEPdj, i32 4 }, %"struct.pov::Trap" { double (double*, i32)* @_ZN3pov16f_quartic_saddleEPdj, i32 4 }, %"struct.pov::Trap" { double (double*, i32)* @_ZN3pov18f_quartic_cylinderEPdj, i32 6 }, %"struct.pov::Trap" { double (double*, i32)* @_ZN3pov3f_rEPdj, i32 3 }, %"struct.pov::Trap" { double (double*, i32)* @_ZN3pov7f_ridgeEPdj, i32 9 }, %"struct.pov::Trap" { double (double*, i32)* @_ZN3pov11f_ridged_mfEPdj, i32 9 }, %"struct.pov::Trap" { double (double*, i32)* @_ZN3pov13f_rounded_boxEPdj, i32 7 }, %"struct.pov::Trap" { double (double*, i32)* @_ZN3pov8f_sphereEPdj, i32 4 }, %"struct.pov::Trap" { double (double*, i32)* @_ZN3pov8f_spikesEPdj, i32 8 }, %"struct.pov::Trap" { double (double*, i32)* @_ZN3pov11f_spikes_2dEPdj, i32 7 }, %"struct.pov::Trap" { double (double*, i32)* @_ZN3pov8f_spiralEPdj, i32 9 }, %"struct.pov::Trap" { double (double*, i32)* @_ZN3pov16f_steiners_romanEPdj, i32 4 }, %"struct.pov::Trap" { double (double*, i32)* @_ZN3pov11f_strophoidEPdj, i32 7 }, %"struct.pov::Trap" { double (double*, i32)* @_ZN3pov14f_strophoid_2dEPdj, i32 10 }, %"struct.pov::Trap" { double (double*, i32)* @_ZN3pov16f_superellipsoidEPdj, i32 5 }, %"struct.pov::Trap" { double (double*, i32)* @_ZN3pov4f_thEPdj, i32 3 }, %"struct.pov::Trap" { double (double*, i32)* @_ZN3pov7f_torusEPdj, i32 5 }, %"struct.pov::Trap" { double (double*, i32)* @_ZN3pov8f_torus2EPdj, i32 6 }, %"struct.pov::Trap" { double (double*, i32)* @_ZN3pov15f_torus_gumdropEPdj, i32 4 }, %"struct.pov::Trap" { double (double*, i32)* @_ZN3pov10f_umbrellaEPdj, i32 4 }, %"struct.pov::Trap" { double (double*, i32)* @_ZN3pov17f_witch_of_agnesiEPdj, i32 5 }, %"struct.pov::Trap" { double (double*, i32)* @_ZN3pov20f_witch_of_agnesi_2dEPdj, i32 9 }, %"struct.pov::Trap" { double (double*, i32)* @_ZN3pov9f_noise3dEPdj, i32 3 }, %"struct.pov::Trap" { double (double*, i32)* @_ZN3pov9f_patternEPdj, i32 3 }, %"struct.pov::Trap" { double (double*, i32)* @_ZN3pov17f_noise_generatorEPdj, i32 4 }, %"struct.pov::Trap" zeroinitializer], align 16, !dbg !0
@_ZN3pov17POVFPU_TrapSTableE = dso_local constant [4 x %"struct.pov::TrapS"] [%"struct.pov::TrapS" { void (double*, i32, i32)* @_ZN3pov9f_pigmentEPdjj, i32 3 }, %"struct.pov::TrapS" { void (double*, i32, i32)* @_ZN3pov11f_transformEPdjj, i32 3 }, %"struct.pov::TrapS" { void (double*, i32, i32)* @_ZN3pov8f_splineEPdjj, i32 1 }, %"struct.pov::TrapS" zeroinitializer], align 16, !dbg !20
@_ZN3pov20POVFPU_TrapTableSizeE = dso_local constant i32 79, align 4, !dbg !34
@_ZN3pov21POVFPU_TrapSTableSizeE = dso_local constant i32 3, align 4, !dbg !37
@.str = private unnamed_addr constant [13 x i8] c"fnintern.cpp\00", align 1
@.str.1 = private unnamed_addr constant [15 x i8] c"exponent array\00", align 1

; Function Attrs: noinline uwtable
define dso_local double @_ZN3pov12f_algbr_cyl1EPdj(double* %ptr, i32 %0) #0 !dbg !1202 {
entry:
  %ptr.addr = alloca double*, align 8
  %.addr = alloca i32, align 4
  %r = alloca double, align 8
  %x2 = alloca double, align 8
  %y2 = alloca double, align 8
  %th = alloca double, align 8
  %ref.tmp = alloca double, align 8
  %ref.tmp45 = alloca double, align 8
  store double* %ptr, double** %ptr.addr, align 8
  call void @llvm.dbg.declare(metadata double** %ptr.addr, metadata !1203, metadata !DIExpression()), !dbg !1204
  store i32 %0, i32* %.addr, align 4
  call void @llvm.dbg.declare(metadata i32* %.addr, metadata !1205, metadata !DIExpression()), !dbg !1206
  call void @llvm.dbg.declare(metadata double* %r, metadata !1207, metadata !DIExpression()), !dbg !1208
  call void @llvm.dbg.declare(metadata double* %x2, metadata !1209, metadata !DIExpression()), !dbg !1210
  call void @llvm.dbg.declare(metadata double* %y2, metadata !1211, metadata !DIExpression()), !dbg !1212
  call void @llvm.dbg.declare(metadata double* %th, metadata !1213, metadata !DIExpression()), !dbg !1214
  %1 = load double*, double** %ptr.addr, align 8, !dbg !1215
  %arrayidx = getelementptr inbounds double, double* %1, i64 0, !dbg !1215
  %2 = load double, double* %arrayidx, align 8, !dbg !1215
  %3 = load double*, double** %ptr.addr, align 8, !dbg !1216
  %arrayidx1 = getelementptr inbounds double, double* %3, i64 0, !dbg !1216
  %4 = load double, double* %arrayidx1, align 8, !dbg !1216
  %mul = fmul double %2, %4, !dbg !1217
  store double %mul, double* %x2, align 8, !dbg !1218
  %5 = load double*, double** %ptr.addr, align 8, !dbg !1219
  %arrayidx2 = getelementptr inbounds double, double* %5, i64 1, !dbg !1219
  %6 = load double, double* %arrayidx2, align 8, !dbg !1219
  %7 = load double*, double** %ptr.addr, align 8, !dbg !1220
  %arrayidx3 = getelementptr inbounds double, double* %7, i64 1, !dbg !1220
  %8 = load double, double* %arrayidx3, align 8, !dbg !1220
  %mul4 = fmul double %6, %8, !dbg !1221
  store double %mul4, double* %y2, align 8, !dbg !1222
  %9 = load double*, double** %ptr.addr, align 8, !dbg !1223
  %arrayidx5 = getelementptr inbounds double, double* %9, i64 5, !dbg !1223
  %10 = load double, double* %arrayidx5, align 8, !dbg !1223
  %cmp = fcmp ogt double %10, 0.000000e+00, !dbg !1223
  br i1 %cmp, label %if.then, label %if.end35, !dbg !1225

if.then:                                          ; preds = %entry
  %11 = load double, double* %x2, align 8, !dbg !1226
  %12 = load double*, double** %ptr.addr, align 8, !dbg !1226
  %arrayidx6 = getelementptr inbounds double, double* %12, i64 2, !dbg !1226
  %13 = load double, double* %arrayidx6, align 8, !dbg !1226
  %14 = load double*, double** %ptr.addr, align 8, !dbg !1226
  %arrayidx7 = getelementptr inbounds double, double* %14, i64 2, !dbg !1226
  %15 = load double, double* %arrayidx7, align 8, !dbg !1226
  %mul8 = fmul double %13, %15, !dbg !1226
  %add = fadd double %11, %mul8, !dbg !1226
  %call = call double @sqrt(double %add) #5, !dbg !1226
  %16 = load double*, double** %ptr.addr, align 8, !dbg !1226
  %arrayidx9 = getelementptr inbounds double, double* %16, i64 6, !dbg !1226
  %17 = load double, double* %arrayidx9, align 8, !dbg !1226
  %sub = fsub double %call, %17, !dbg !1226
  store double %sub, double* %x2, align 8, !dbg !1226
  %18 = load double*, double** %ptr.addr, align 8, !dbg !1226
  %arrayidx10 = getelementptr inbounds double, double* %18, i64 7, !dbg !1226
  %19 = load double, double* %arrayidx10, align 8, !dbg !1226
  %mul11 = fmul double %19, 0x3F91DF46A2529D39, !dbg !1226
  store double %mul11, double* %th, align 8, !dbg !1226
  %20 = load double, double* %th, align 8, !dbg !1228
  %cmp12 = fcmp une double %20, 0.000000e+00, !dbg !1228
  br i1 %cmp12, label %if.then13, label %if.else, !dbg !1226

if.then13:                                        ; preds = %if.then
  %21 = load double, double* %x2, align 8, !dbg !1230
  %22 = load double, double* %th, align 8, !dbg !1230
  %call14 = call double @cos(double %22) #5, !dbg !1230
  %mul15 = fmul double %21, %call14, !dbg !1230
  %23 = load double*, double** %ptr.addr, align 8, !dbg !1230
  %arrayidx16 = getelementptr inbounds double, double* %23, i64 1, !dbg !1230
  %24 = load double, double* %arrayidx16, align 8, !dbg !1230
  %25 = load double, double* %th, align 8, !dbg !1230
  %call17 = call double @sin(double %25) #5, !dbg !1230
  %mul18 = fmul double %24, %call17, !dbg !1230
  %sub19 = fsub double %mul15, %mul18, !dbg !1230
  %26 = load double*, double** %ptr.addr, align 8, !dbg !1230
  %arrayidx20 = getelementptr inbounds double, double* %26, i64 0, !dbg !1230
  store double %sub19, double* %arrayidx20, align 8, !dbg !1230
  %27 = load double, double* %x2, align 8, !dbg !1230
  %28 = load double, double* %th, align 8, !dbg !1230
  %call21 = call double @sin(double %28) #5, !dbg !1230
  %mul22 = fmul double %27, %call21, !dbg !1230
  %29 = load double*, double** %ptr.addr, align 8, !dbg !1230
  %arrayidx23 = getelementptr inbounds double, double* %29, i64 1, !dbg !1230
  %30 = load double, double* %arrayidx23, align 8, !dbg !1230
  %31 = load double, double* %th, align 8, !dbg !1230
  %call24 = call double @cos(double %31) #5, !dbg !1230
  %mul25 = fmul double %30, %call24, !dbg !1230
  %add26 = fadd double %mul22, %mul25, !dbg !1230
  %32 = load double*, double** %ptr.addr, align 8, !dbg !1230
  %arrayidx27 = getelementptr inbounds double, double* %32, i64 1, !dbg !1230
  store double %add26, double* %arrayidx27, align 8, !dbg !1230
  br label %if.end, !dbg !1230

if.else:                                          ; preds = %if.then
  %33 = load double, double* %x2, align 8, !dbg !1228
  %34 = load double*, double** %ptr.addr, align 8, !dbg !1228
  %arrayidx28 = getelementptr inbounds double, double* %34, i64 0, !dbg !1228
  store double %33, double* %arrayidx28, align 8, !dbg !1228
  br label %if.end

if.end:                                           ; preds = %if.else, %if.then13
  %35 = load double*, double** %ptr.addr, align 8, !dbg !1226
  %arrayidx29 = getelementptr inbounds double, double* %35, i64 0, !dbg !1226
  %36 = load double, double* %arrayidx29, align 8, !dbg !1226
  %37 = load double*, double** %ptr.addr, align 8, !dbg !1226
  %arrayidx30 = getelementptr inbounds double, double* %37, i64 0, !dbg !1226
  %38 = load double, double* %arrayidx30, align 8, !dbg !1226
  %mul31 = fmul double %36, %38, !dbg !1226
  store double %mul31, double* %x2, align 8, !dbg !1226
  %39 = load double*, double** %ptr.addr, align 8, !dbg !1226
  %arrayidx32 = getelementptr inbounds double, double* %39, i64 1, !dbg !1226
  %40 = load double, double* %arrayidx32, align 8, !dbg !1226
  %41 = load double*, double** %ptr.addr, align 8, !dbg !1226
  %arrayidx33 = getelementptr inbounds double, double* %41, i64 1, !dbg !1226
  %42 = load double, double* %arrayidx33, align 8, !dbg !1226
  %mul34 = fmul double %40, %42, !dbg !1226
  store double %mul34, double* %y2, align 8, !dbg !1226
  br label %if.end35, !dbg !1226

if.end35:                                         ; preds = %if.end, %entry
  %43 = load double*, double** %ptr.addr, align 8, !dbg !1232
  %arrayidx36 = getelementptr inbounds double, double* %43, i64 0, !dbg !1232
  %44 = load double, double* %arrayidx36, align 8, !dbg !1232
  %45 = call double @llvm.fabs.f64(double %44), !dbg !1233
  %46 = load double*, double** %ptr.addr, align 8, !dbg !1234
  %arrayidx37 = getelementptr inbounds double, double* %46, i64 0, !dbg !1234
  store double %45, double* %arrayidx37, align 8, !dbg !1235
  %47 = load double, double* %x2, align 8, !dbg !1236
  %48 = load double*, double** %ptr.addr, align 8, !dbg !1237
  %arrayidx38 = getelementptr inbounds double, double* %48, i64 0, !dbg !1237
  %49 = load double, double* %arrayidx38, align 8, !dbg !1237
  %mul39 = fmul double %47, %49, !dbg !1238
  %50 = load double, double* %x2, align 8, !dbg !1239
  %sub40 = fsub double %mul39, %50, !dbg !1240
  %51 = load double, double* %y2, align 8, !dbg !1241
  %add41 = fadd double %sub40, %51, !dbg !1242
  %fneg = fneg double %add41, !dbg !1243
  store double %fneg, double* %r, align 8, !dbg !1244
  %52 = load double*, double** %ptr.addr, align 8, !dbg !1245
  %arrayidx42 = getelementptr inbounds double, double* %52, i64 4, !dbg !1245
  %53 = load double*, double** %ptr.addr, align 8, !dbg !1246
  %arrayidx43 = getelementptr inbounds double, double* %53, i64 3, !dbg !1246
  %54 = load double, double* %arrayidx43, align 8, !dbg !1246
  %55 = load double, double* %r, align 8, !dbg !1247
  %mul44 = fmul double %54, %55, !dbg !1248
  store double %mul44, double* %ref.tmp, align 8, !dbg !1246
  %56 = load double*, double** %ptr.addr, align 8, !dbg !1249
  %arrayidx46 = getelementptr inbounds double, double* %56, i64 4, !dbg !1249
  %57 = load double, double* %arrayidx46, align 8, !dbg !1249
  %fneg47 = fneg double %57, !dbg !1250
  store double %fneg47, double* %ref.tmp45, align 8, !dbg !1250
  %call48 = call dereferenceable(8) double* @_ZSt3maxIdERKT_S2_S2_(double* dereferenceable(8) %ref.tmp, double* dereferenceable(8) %ref.tmp45), !dbg !1251
  %call49 = call dereferenceable(8) double* @_ZSt3minIdERKT_S2_S2_(double* dereferenceable(8) %arrayidx42, double* dereferenceable(8) %call48), !dbg !1252
  %58 = load double, double* %call49, align 8, !dbg !1252
  %fneg50 = fneg double %58, !dbg !1253
  ret double %fneg50, !dbg !1254
}

; Function Attrs: noinline uwtable
define dso_local double @_ZN3pov12f_algbr_cyl2EPdj(double* %ptr, i32 %0) #0 !dbg !1255 {
entry:
  %ptr.addr = alloca double*, align 8
  %.addr = alloca i32, align 4
  %r = alloca double, align 8
  %x2 = alloca double, align 8
  %y2 = alloca double, align 8
  %th = alloca double, align 8
  %ref.tmp = alloca double, align 8
  %ref.tmp52 = alloca double, align 8
  store double* %ptr, double** %ptr.addr, align 8
  call void @llvm.dbg.declare(metadata double** %ptr.addr, metadata !1256, metadata !DIExpression()), !dbg !1257
  store i32 %0, i32* %.addr, align 4
  call void @llvm.dbg.declare(metadata i32* %.addr, metadata !1258, metadata !DIExpression()), !dbg !1259
  call void @llvm.dbg.declare(metadata double* %r, metadata !1260, metadata !DIExpression()), !dbg !1261
  call void @llvm.dbg.declare(metadata double* %x2, metadata !1262, metadata !DIExpression()), !dbg !1263
  %1 = load double*, double** %ptr.addr, align 8, !dbg !1264
  %arrayidx = getelementptr inbounds double, double* %1, i64 0, !dbg !1264
  %2 = load double, double* %arrayidx, align 8, !dbg !1264
  %3 = load double*, double** %ptr.addr, align 8, !dbg !1265
  %arrayidx1 = getelementptr inbounds double, double* %3, i64 0, !dbg !1265
  %4 = load double, double* %arrayidx1, align 8, !dbg !1265
  %mul = fmul double %2, %4, !dbg !1266
  store double %mul, double* %x2, align 8, !dbg !1263
  call void @llvm.dbg.declare(metadata double* %y2, metadata !1267, metadata !DIExpression()), !dbg !1268
  %5 = load double*, double** %ptr.addr, align 8, !dbg !1269
  %arrayidx2 = getelementptr inbounds double, double* %5, i64 1, !dbg !1269
  %6 = load double, double* %arrayidx2, align 8, !dbg !1269
  %7 = load double*, double** %ptr.addr, align 8, !dbg !1270
  %arrayidx3 = getelementptr inbounds double, double* %7, i64 1, !dbg !1270
  %8 = load double, double* %arrayidx3, align 8, !dbg !1270
  %mul4 = fmul double %6, %8, !dbg !1271
  store double %mul4, double* %y2, align 8, !dbg !1268
  call void @llvm.dbg.declare(metadata double* %th, metadata !1272, metadata !DIExpression()), !dbg !1273
  %9 = load double*, double** %ptr.addr, align 8, !dbg !1274
  %arrayidx5 = getelementptr inbounds double, double* %9, i64 5, !dbg !1274
  %10 = load double, double* %arrayidx5, align 8, !dbg !1274
  %cmp = fcmp ogt double %10, 0.000000e+00, !dbg !1274
  br i1 %cmp, label %if.then, label %if.end35, !dbg !1276

if.then:                                          ; preds = %entry
  %11 = load double, double* %x2, align 8, !dbg !1277
  %12 = load double*, double** %ptr.addr, align 8, !dbg !1277
  %arrayidx6 = getelementptr inbounds double, double* %12, i64 2, !dbg !1277
  %13 = load double, double* %arrayidx6, align 8, !dbg !1277
  %14 = load double*, double** %ptr.addr, align 8, !dbg !1277
  %arrayidx7 = getelementptr inbounds double, double* %14, i64 2, !dbg !1277
  %15 = load double, double* %arrayidx7, align 8, !dbg !1277
  %mul8 = fmul double %13, %15, !dbg !1277
  %add = fadd double %11, %mul8, !dbg !1277
  %call = call double @sqrt(double %add) #5, !dbg !1277
  %16 = load double*, double** %ptr.addr, align 8, !dbg !1277
  %arrayidx9 = getelementptr inbounds double, double* %16, i64 6, !dbg !1277
  %17 = load double, double* %arrayidx9, align 8, !dbg !1277
  %sub = fsub double %call, %17, !dbg !1277
  store double %sub, double* %x2, align 8, !dbg !1277
  %18 = load double*, double** %ptr.addr, align 8, !dbg !1277
  %arrayidx10 = getelementptr inbounds double, double* %18, i64 7, !dbg !1277
  %19 = load double, double* %arrayidx10, align 8, !dbg !1277
  %mul11 = fmul double %19, 0x3F91DF46A2529D39, !dbg !1277
  store double %mul11, double* %th, align 8, !dbg !1277
  %20 = load double, double* %th, align 8, !dbg !1279
  %cmp12 = fcmp une double %20, 0.000000e+00, !dbg !1279
  br i1 %cmp12, label %if.then13, label %if.else, !dbg !1277

if.then13:                                        ; preds = %if.then
  %21 = load double, double* %x2, align 8, !dbg !1281
  %22 = load double, double* %th, align 8, !dbg !1281
  %call14 = call double @cos(double %22) #5, !dbg !1281
  %mul15 = fmul double %21, %call14, !dbg !1281
  %23 = load double*, double** %ptr.addr, align 8, !dbg !1281
  %arrayidx16 = getelementptr inbounds double, double* %23, i64 1, !dbg !1281
  %24 = load double, double* %arrayidx16, align 8, !dbg !1281
  %25 = load double, double* %th, align 8, !dbg !1281
  %call17 = call double @sin(double %25) #5, !dbg !1281
  %mul18 = fmul double %24, %call17, !dbg !1281
  %sub19 = fsub double %mul15, %mul18, !dbg !1281
  %26 = load double*, double** %ptr.addr, align 8, !dbg !1281
  %arrayidx20 = getelementptr inbounds double, double* %26, i64 0, !dbg !1281
  store double %sub19, double* %arrayidx20, align 8, !dbg !1281
  %27 = load double, double* %x2, align 8, !dbg !1281
  %28 = load double, double* %th, align 8, !dbg !1281
  %call21 = call double @sin(double %28) #5, !dbg !1281
  %mul22 = fmul double %27, %call21, !dbg !1281
  %29 = load double*, double** %ptr.addr, align 8, !dbg !1281
  %arrayidx23 = getelementptr inbounds double, double* %29, i64 1, !dbg !1281
  %30 = load double, double* %arrayidx23, align 8, !dbg !1281
  %31 = load double, double* %th, align 8, !dbg !1281
  %call24 = call double @cos(double %31) #5, !dbg !1281
  %mul25 = fmul double %30, %call24, !dbg !1281
  %add26 = fadd double %mul22, %mul25, !dbg !1281
  %32 = load double*, double** %ptr.addr, align 8, !dbg !1281
  %arrayidx27 = getelementptr inbounds double, double* %32, i64 1, !dbg !1281
  store double %add26, double* %arrayidx27, align 8, !dbg !1281
  br label %if.end, !dbg !1281

if.else:                                          ; preds = %if.then
  %33 = load double, double* %x2, align 8, !dbg !1279
  %34 = load double*, double** %ptr.addr, align 8, !dbg !1279
  %arrayidx28 = getelementptr inbounds double, double* %34, i64 0, !dbg !1279
  store double %33, double* %arrayidx28, align 8, !dbg !1279
  br label %if.end

if.end:                                           ; preds = %if.else, %if.then13
  %35 = load double*, double** %ptr.addr, align 8, !dbg !1277
  %arrayidx29 = getelementptr inbounds double, double* %35, i64 0, !dbg !1277
  %36 = load double, double* %arrayidx29, align 8, !dbg !1277
  %37 = load double*, double** %ptr.addr, align 8, !dbg !1277
  %arrayidx30 = getelementptr inbounds double, double* %37, i64 0, !dbg !1277
  %38 = load double, double* %arrayidx30, align 8, !dbg !1277
  %mul31 = fmul double %36, %38, !dbg !1277
  store double %mul31, double* %x2, align 8, !dbg !1277
  %39 = load double*, double** %ptr.addr, align 8, !dbg !1277
  %arrayidx32 = getelementptr inbounds double, double* %39, i64 1, !dbg !1277
  %40 = load double, double* %arrayidx32, align 8, !dbg !1277
  %41 = load double*, double** %ptr.addr, align 8, !dbg !1277
  %arrayidx33 = getelementptr inbounds double, double* %41, i64 1, !dbg !1277
  %42 = load double, double* %arrayidx33, align 8, !dbg !1277
  %mul34 = fmul double %40, %42, !dbg !1277
  store double %mul34, double* %y2, align 8, !dbg !1277
  br label %if.end35, !dbg !1277

if.end35:                                         ; preds = %if.end, %entry
  %43 = load double, double* %x2, align 8, !dbg !1283
  %mul36 = fmul double 2.000000e+00, %43, !dbg !1284
  %44 = load double, double* %x2, align 8, !dbg !1285
  %mul37 = fmul double %mul36, %44, !dbg !1286
  %45 = load double, double* %x2, align 8, !dbg !1287
  %mul38 = fmul double 3.000000e+00, %45, !dbg !1288
  %46 = load double*, double** %ptr.addr, align 8, !dbg !1289
  %arrayidx39 = getelementptr inbounds double, double* %46, i64 1, !dbg !1289
  %47 = load double, double* %arrayidx39, align 8, !dbg !1289
  %mul40 = fmul double %mul38, %47, !dbg !1290
  %sub41 = fsub double %mul37, %mul40, !dbg !1291
  %48 = load double, double* %y2, align 8, !dbg !1292
  %add42 = fadd double %sub41, %48, !dbg !1293
  %49 = load double, double* %y2, align 8, !dbg !1294
  %mul43 = fmul double 2.000000e+00, %49, !dbg !1295
  %50 = load double*, double** %ptr.addr, align 8, !dbg !1296
  %arrayidx44 = getelementptr inbounds double, double* %50, i64 1, !dbg !1296
  %51 = load double, double* %arrayidx44, align 8, !dbg !1296
  %mul45 = fmul double %mul43, %51, !dbg !1297
  %sub46 = fsub double %add42, %mul45, !dbg !1298
  %52 = load double, double* %y2, align 8, !dbg !1299
  %53 = load double, double* %y2, align 8, !dbg !1300
  %mul47 = fmul double %52, %53, !dbg !1301
  %add48 = fadd double %sub46, %mul47, !dbg !1302
  %fneg = fneg double %add48, !dbg !1303
  store double %fneg, double* %r, align 8, !dbg !1304
  %54 = load double*, double** %ptr.addr, align 8, !dbg !1305
  %arrayidx49 = getelementptr inbounds double, double* %54, i64 4, !dbg !1305
  %55 = load double*, double** %ptr.addr, align 8, !dbg !1306
  %arrayidx50 = getelementptr inbounds double, double* %55, i64 3, !dbg !1306
  %56 = load double, double* %arrayidx50, align 8, !dbg !1306
  %57 = load double, double* %r, align 8, !dbg !1307
  %mul51 = fmul double %56, %57, !dbg !1308
  store double %mul51, double* %ref.tmp, align 8, !dbg !1306
  %58 = load double*, double** %ptr.addr, align 8, !dbg !1309
  %arrayidx53 = getelementptr inbounds double, double* %58, i64 4, !dbg !1309
  %59 = load double, double* %arrayidx53, align 8, !dbg !1309
  %fneg54 = fneg double %59, !dbg !1310
  store double %fneg54, double* %ref.tmp52, align 8, !dbg !1310
  %call55 = call dereferenceable(8) double* @_ZSt3maxIdERKT_S2_S2_(double* dereferenceable(8) %ref.tmp, double* dereferenceable(8) %ref.tmp52), !dbg !1311
  %call56 = call dereferenceable(8) double* @_ZSt3minIdERKT_S2_S2_(double* dereferenceable(8) %arrayidx49, double* dereferenceable(8) %call55), !dbg !1312
  %60 = load double, double* %call56, align 8, !dbg !1312
  ret double %60, !dbg !1313
}

; Function Attrs: noinline uwtable
define dso_local double @_ZN3pov12f_algbr_cyl3EPdj(double* %ptr, i32 %0) #0 !dbg !1314 {
entry:
  %ptr.addr = alloca double*, align 8
  %.addr = alloca i32, align 4
  %r = alloca double, align 8
  %x2 = alloca double, align 8
  %y2 = alloca double, align 8
  %th = alloca double, align 8
  %ref.tmp = alloca double, align 8
  %ref.tmp50 = alloca double, align 8
  store double* %ptr, double** %ptr.addr, align 8
  call void @llvm.dbg.declare(metadata double** %ptr.addr, metadata !1315, metadata !DIExpression()), !dbg !1316
  store i32 %0, i32* %.addr, align 4
  call void @llvm.dbg.declare(metadata i32* %.addr, metadata !1317, metadata !DIExpression()), !dbg !1318
  call void @llvm.dbg.declare(metadata double* %r, metadata !1319, metadata !DIExpression()), !dbg !1320
  call void @llvm.dbg.declare(metadata double* %x2, metadata !1321, metadata !DIExpression()), !dbg !1322
  %1 = load double*, double** %ptr.addr, align 8, !dbg !1323
  %arrayidx = getelementptr inbounds double, double* %1, i64 0, !dbg !1323
  %2 = load double, double* %arrayidx, align 8, !dbg !1323
  %3 = load double*, double** %ptr.addr, align 8, !dbg !1324
  %arrayidx1 = getelementptr inbounds double, double* %3, i64 0, !dbg !1324
  %4 = load double, double* %arrayidx1, align 8, !dbg !1324
  %mul = fmul double %2, %4, !dbg !1325
  store double %mul, double* %x2, align 8, !dbg !1322
  call void @llvm.dbg.declare(metadata double* %y2, metadata !1326, metadata !DIExpression()), !dbg !1327
  %5 = load double*, double** %ptr.addr, align 8, !dbg !1328
  %arrayidx2 = getelementptr inbounds double, double* %5, i64 1, !dbg !1328
  %6 = load double, double* %arrayidx2, align 8, !dbg !1328
  %7 = load double*, double** %ptr.addr, align 8, !dbg !1329
  %arrayidx3 = getelementptr inbounds double, double* %7, i64 1, !dbg !1329
  %8 = load double, double* %arrayidx3, align 8, !dbg !1329
  %mul4 = fmul double %6, %8, !dbg !1330
  store double %mul4, double* %y2, align 8, !dbg !1327
  call void @llvm.dbg.declare(metadata double* %th, metadata !1331, metadata !DIExpression()), !dbg !1332
  %9 = load double*, double** %ptr.addr, align 8, !dbg !1333
  %arrayidx5 = getelementptr inbounds double, double* %9, i64 5, !dbg !1333
  %10 = load double, double* %arrayidx5, align 8, !dbg !1333
  %cmp = fcmp ogt double %10, 0.000000e+00, !dbg !1333
  br i1 %cmp, label %if.then, label %if.end35, !dbg !1335

if.then:                                          ; preds = %entry
  %11 = load double, double* %x2, align 8, !dbg !1336
  %12 = load double*, double** %ptr.addr, align 8, !dbg !1336
  %arrayidx6 = getelementptr inbounds double, double* %12, i64 2, !dbg !1336
  %13 = load double, double* %arrayidx6, align 8, !dbg !1336
  %14 = load double*, double** %ptr.addr, align 8, !dbg !1336
  %arrayidx7 = getelementptr inbounds double, double* %14, i64 2, !dbg !1336
  %15 = load double, double* %arrayidx7, align 8, !dbg !1336
  %mul8 = fmul double %13, %15, !dbg !1336
  %add = fadd double %11, %mul8, !dbg !1336
  %call = call double @sqrt(double %add) #5, !dbg !1336
  %16 = load double*, double** %ptr.addr, align 8, !dbg !1336
  %arrayidx9 = getelementptr inbounds double, double* %16, i64 6, !dbg !1336
  %17 = load double, double* %arrayidx9, align 8, !dbg !1336
  %sub = fsub double %call, %17, !dbg !1336
  store double %sub, double* %x2, align 8, !dbg !1336
  %18 = load double*, double** %ptr.addr, align 8, !dbg !1336
  %arrayidx10 = getelementptr inbounds double, double* %18, i64 7, !dbg !1336
  %19 = load double, double* %arrayidx10, align 8, !dbg !1336
  %mul11 = fmul double %19, 0x3F91DF46A2529D39, !dbg !1336
  store double %mul11, double* %th, align 8, !dbg !1336
  %20 = load double, double* %th, align 8, !dbg !1338
  %cmp12 = fcmp une double %20, 0.000000e+00, !dbg !1338
  br i1 %cmp12, label %if.then13, label %if.else, !dbg !1336

if.then13:                                        ; preds = %if.then
  %21 = load double, double* %x2, align 8, !dbg !1340
  %22 = load double, double* %th, align 8, !dbg !1340
  %call14 = call double @cos(double %22) #5, !dbg !1340
  %mul15 = fmul double %21, %call14, !dbg !1340
  %23 = load double*, double** %ptr.addr, align 8, !dbg !1340
  %arrayidx16 = getelementptr inbounds double, double* %23, i64 1, !dbg !1340
  %24 = load double, double* %arrayidx16, align 8, !dbg !1340
  %25 = load double, double* %th, align 8, !dbg !1340
  %call17 = call double @sin(double %25) #5, !dbg !1340
  %mul18 = fmul double %24, %call17, !dbg !1340
  %sub19 = fsub double %mul15, %mul18, !dbg !1340
  %26 = load double*, double** %ptr.addr, align 8, !dbg !1340
  %arrayidx20 = getelementptr inbounds double, double* %26, i64 0, !dbg !1340
  store double %sub19, double* %arrayidx20, align 8, !dbg !1340
  %27 = load double, double* %x2, align 8, !dbg !1340
  %28 = load double, double* %th, align 8, !dbg !1340
  %call21 = call double @sin(double %28) #5, !dbg !1340
  %mul22 = fmul double %27, %call21, !dbg !1340
  %29 = load double*, double** %ptr.addr, align 8, !dbg !1340
  %arrayidx23 = getelementptr inbounds double, double* %29, i64 1, !dbg !1340
  %30 = load double, double* %arrayidx23, align 8, !dbg !1340
  %31 = load double, double* %th, align 8, !dbg !1340
  %call24 = call double @cos(double %31) #5, !dbg !1340
  %mul25 = fmul double %30, %call24, !dbg !1340
  %add26 = fadd double %mul22, %mul25, !dbg !1340
  %32 = load double*, double** %ptr.addr, align 8, !dbg !1340
  %arrayidx27 = getelementptr inbounds double, double* %32, i64 1, !dbg !1340
  store double %add26, double* %arrayidx27, align 8, !dbg !1340
  br label %if.end, !dbg !1340

if.else:                                          ; preds = %if.then
  %33 = load double, double* %x2, align 8, !dbg !1338
  %34 = load double*, double** %ptr.addr, align 8, !dbg !1338
  %arrayidx28 = getelementptr inbounds double, double* %34, i64 0, !dbg !1338
  store double %33, double* %arrayidx28, align 8, !dbg !1338
  br label %if.end

if.end:                                           ; preds = %if.else, %if.then13
  %35 = load double*, double** %ptr.addr, align 8, !dbg !1336
  %arrayidx29 = getelementptr inbounds double, double* %35, i64 0, !dbg !1336
  %36 = load double, double* %arrayidx29, align 8, !dbg !1336
  %37 = load double*, double** %ptr.addr, align 8, !dbg !1336
  %arrayidx30 = getelementptr inbounds double, double* %37, i64 0, !dbg !1336
  %38 = load double, double* %arrayidx30, align 8, !dbg !1336
  %mul31 = fmul double %36, %38, !dbg !1336
  store double %mul31, double* %x2, align 8, !dbg !1336
  %39 = load double*, double** %ptr.addr, align 8, !dbg !1336
  %arrayidx32 = getelementptr inbounds double, double* %39, i64 1, !dbg !1336
  %40 = load double, double* %arrayidx32, align 8, !dbg !1336
  %41 = load double*, double** %ptr.addr, align 8, !dbg !1336
  %arrayidx33 = getelementptr inbounds double, double* %41, i64 1, !dbg !1336
  %42 = load double, double* %arrayidx33, align 8, !dbg !1336
  %mul34 = fmul double %40, %42, !dbg !1336
  store double %mul34, double* %y2, align 8, !dbg !1336
  br label %if.end35, !dbg !1336

if.end35:                                         ; preds = %if.end, %entry
  %43 = load double, double* %x2, align 8, !dbg !1342
  %44 = load double, double* %x2, align 8, !dbg !1343
  %mul36 = fmul double %43, %44, !dbg !1344
  %45 = load double, double* %x2, align 8, !dbg !1345
  %46 = load double, double* %y2, align 8, !dbg !1346
  %mul37 = fmul double %45, %46, !dbg !1347
  %add38 = fadd double %mul36, %mul37, !dbg !1348
  %47 = load double, double* %x2, align 8, !dbg !1349
  %mul39 = fmul double 2.000000e+00, %47, !dbg !1350
  %48 = load double*, double** %ptr.addr, align 8, !dbg !1351
  %arrayidx40 = getelementptr inbounds double, double* %48, i64 1, !dbg !1351
  %49 = load double, double* %arrayidx40, align 8, !dbg !1351
  %mul41 = fmul double %mul39, %49, !dbg !1352
  %sub42 = fsub double %add38, %mul41, !dbg !1353
  %50 = load double*, double** %ptr.addr, align 8, !dbg !1354
  %arrayidx43 = getelementptr inbounds double, double* %50, i64 0, !dbg !1354
  %51 = load double, double* %arrayidx43, align 8, !dbg !1354
  %52 = load double, double* %y2, align 8, !dbg !1355
  %mul44 = fmul double %51, %52, !dbg !1356
  %sub45 = fsub double %sub42, %mul44, !dbg !1357
  %53 = load double, double* %y2, align 8, !dbg !1358
  %add46 = fadd double %sub45, %53, !dbg !1359
  %fneg = fneg double %add46, !dbg !1360
  store double %fneg, double* %r, align 8, !dbg !1361
  %54 = load double*, double** %ptr.addr, align 8, !dbg !1362
  %arrayidx47 = getelementptr inbounds double, double* %54, i64 4, !dbg !1362
  %55 = load double*, double** %ptr.addr, align 8, !dbg !1363
  %arrayidx48 = getelementptr inbounds double, double* %55, i64 3, !dbg !1363
  %56 = load double, double* %arrayidx48, align 8, !dbg !1363
  %57 = load double, double* %r, align 8, !dbg !1364
  %mul49 = fmul double %56, %57, !dbg !1365
  store double %mul49, double* %ref.tmp, align 8, !dbg !1363
  %58 = load double*, double** %ptr.addr, align 8, !dbg !1366
  %arrayidx51 = getelementptr inbounds double, double* %58, i64 4, !dbg !1366
  %59 = load double, double* %arrayidx51, align 8, !dbg !1366
  %fneg52 = fneg double %59, !dbg !1367
  store double %fneg52, double* %ref.tmp50, align 8, !dbg !1367
  %call53 = call dereferenceable(8) double* @_ZSt3maxIdERKT_S2_S2_(double* dereferenceable(8) %ref.tmp, double* dereferenceable(8) %ref.tmp50), !dbg !1368
  %call54 = call dereferenceable(8) double* @_ZSt3minIdERKT_S2_S2_(double* dereferenceable(8) %arrayidx47, double* dereferenceable(8) %call53), !dbg !1369
  %60 = load double, double* %call54, align 8, !dbg !1369
  ret double %60, !dbg !1370
}

; Function Attrs: noinline uwtable
define dso_local double @_ZN3pov12f_algbr_cyl4EPdj(double* %ptr, i32 %0) #0 !dbg !1371 {
entry:
  %ptr.addr = alloca double*, align 8
  %.addr = alloca i32, align 4
  %r = alloca double, align 8
  %x2 = alloca double, align 8
  %y2 = alloca double, align 8
  %th = alloca double, align 8
  %ref.tmp = alloca double, align 8
  %ref.tmp52 = alloca double, align 8
  store double* %ptr, double** %ptr.addr, align 8
  call void @llvm.dbg.declare(metadata double** %ptr.addr, metadata !1372, metadata !DIExpression()), !dbg !1373
  store i32 %0, i32* %.addr, align 4
  call void @llvm.dbg.declare(metadata i32* %.addr, metadata !1374, metadata !DIExpression()), !dbg !1375
  call void @llvm.dbg.declare(metadata double* %r, metadata !1376, metadata !DIExpression()), !dbg !1377
  call void @llvm.dbg.declare(metadata double* %x2, metadata !1378, metadata !DIExpression()), !dbg !1379
  %1 = load double*, double** %ptr.addr, align 8, !dbg !1380
  %arrayidx = getelementptr inbounds double, double* %1, i64 0, !dbg !1380
  %2 = load double, double* %arrayidx, align 8, !dbg !1380
  %3 = load double*, double** %ptr.addr, align 8, !dbg !1381
  %arrayidx1 = getelementptr inbounds double, double* %3, i64 0, !dbg !1381
  %4 = load double, double* %arrayidx1, align 8, !dbg !1381
  %mul = fmul double %2, %4, !dbg !1382
  store double %mul, double* %x2, align 8, !dbg !1379
  call void @llvm.dbg.declare(metadata double* %y2, metadata !1383, metadata !DIExpression()), !dbg !1384
  %5 = load double*, double** %ptr.addr, align 8, !dbg !1385
  %arrayidx2 = getelementptr inbounds double, double* %5, i64 1, !dbg !1385
  %6 = load double, double* %arrayidx2, align 8, !dbg !1385
  %7 = load double*, double** %ptr.addr, align 8, !dbg !1386
  %arrayidx3 = getelementptr inbounds double, double* %7, i64 1, !dbg !1386
  %8 = load double, double* %arrayidx3, align 8, !dbg !1386
  %mul4 = fmul double %6, %8, !dbg !1387
  store double %mul4, double* %y2, align 8, !dbg !1384
  call void @llvm.dbg.declare(metadata double* %th, metadata !1388, metadata !DIExpression()), !dbg !1389
  %9 = load double*, double** %ptr.addr, align 8, !dbg !1390
  %arrayidx5 = getelementptr inbounds double, double* %9, i64 5, !dbg !1390
  %10 = load double, double* %arrayidx5, align 8, !dbg !1390
  %cmp = fcmp ogt double %10, 0.000000e+00, !dbg !1390
  br i1 %cmp, label %if.then, label %if.end35, !dbg !1392

if.then:                                          ; preds = %entry
  %11 = load double, double* %x2, align 8, !dbg !1393
  %12 = load double*, double** %ptr.addr, align 8, !dbg !1393
  %arrayidx6 = getelementptr inbounds double, double* %12, i64 2, !dbg !1393
  %13 = load double, double* %arrayidx6, align 8, !dbg !1393
  %14 = load double*, double** %ptr.addr, align 8, !dbg !1393
  %arrayidx7 = getelementptr inbounds double, double* %14, i64 2, !dbg !1393
  %15 = load double, double* %arrayidx7, align 8, !dbg !1393
  %mul8 = fmul double %13, %15, !dbg !1393
  %add = fadd double %11, %mul8, !dbg !1393
  %call = call double @sqrt(double %add) #5, !dbg !1393
  %16 = load double*, double** %ptr.addr, align 8, !dbg !1393
  %arrayidx9 = getelementptr inbounds double, double* %16, i64 6, !dbg !1393
  %17 = load double, double* %arrayidx9, align 8, !dbg !1393
  %sub = fsub double %call, %17, !dbg !1393
  store double %sub, double* %x2, align 8, !dbg !1393
  %18 = load double*, double** %ptr.addr, align 8, !dbg !1393
  %arrayidx10 = getelementptr inbounds double, double* %18, i64 7, !dbg !1393
  %19 = load double, double* %arrayidx10, align 8, !dbg !1393
  %mul11 = fmul double %19, 0x3F91DF46A2529D39, !dbg !1393
  store double %mul11, double* %th, align 8, !dbg !1393
  %20 = load double, double* %th, align 8, !dbg !1395
  %cmp12 = fcmp une double %20, 0.000000e+00, !dbg !1395
  br i1 %cmp12, label %if.then13, label %if.else, !dbg !1393

if.then13:                                        ; preds = %if.then
  %21 = load double, double* %x2, align 8, !dbg !1397
  %22 = load double, double* %th, align 8, !dbg !1397
  %call14 = call double @cos(double %22) #5, !dbg !1397
  %mul15 = fmul double %21, %call14, !dbg !1397
  %23 = load double*, double** %ptr.addr, align 8, !dbg !1397
  %arrayidx16 = getelementptr inbounds double, double* %23, i64 1, !dbg !1397
  %24 = load double, double* %arrayidx16, align 8, !dbg !1397
  %25 = load double, double* %th, align 8, !dbg !1397
  %call17 = call double @sin(double %25) #5, !dbg !1397
  %mul18 = fmul double %24, %call17, !dbg !1397
  %sub19 = fsub double %mul15, %mul18, !dbg !1397
  %26 = load double*, double** %ptr.addr, align 8, !dbg !1397
  %arrayidx20 = getelementptr inbounds double, double* %26, i64 0, !dbg !1397
  store double %sub19, double* %arrayidx20, align 8, !dbg !1397
  %27 = load double, double* %x2, align 8, !dbg !1397
  %28 = load double, double* %th, align 8, !dbg !1397
  %call21 = call double @sin(double %28) #5, !dbg !1397
  %mul22 = fmul double %27, %call21, !dbg !1397
  %29 = load double*, double** %ptr.addr, align 8, !dbg !1397
  %arrayidx23 = getelementptr inbounds double, double* %29, i64 1, !dbg !1397
  %30 = load double, double* %arrayidx23, align 8, !dbg !1397
  %31 = load double, double* %th, align 8, !dbg !1397
  %call24 = call double @cos(double %31) #5, !dbg !1397
  %mul25 = fmul double %30, %call24, !dbg !1397
  %add26 = fadd double %mul22, %mul25, !dbg !1397
  %32 = load double*, double** %ptr.addr, align 8, !dbg !1397
  %arrayidx27 = getelementptr inbounds double, double* %32, i64 1, !dbg !1397
  store double %add26, double* %arrayidx27, align 8, !dbg !1397
  br label %if.end, !dbg !1397

if.else:                                          ; preds = %if.then
  %33 = load double, double* %x2, align 8, !dbg !1395
  %34 = load double*, double** %ptr.addr, align 8, !dbg !1395
  %arrayidx28 = getelementptr inbounds double, double* %34, i64 0, !dbg !1395
  store double %33, double* %arrayidx28, align 8, !dbg !1395
  br label %if.end

if.end:                                           ; preds = %if.else, %if.then13
  %35 = load double*, double** %ptr.addr, align 8, !dbg !1393
  %arrayidx29 = getelementptr inbounds double, double* %35, i64 0, !dbg !1393
  %36 = load double, double* %arrayidx29, align 8, !dbg !1393
  %37 = load double*, double** %ptr.addr, align 8, !dbg !1393
  %arrayidx30 = getelementptr inbounds double, double* %37, i64 0, !dbg !1393
  %38 = load double, double* %arrayidx30, align 8, !dbg !1393
  %mul31 = fmul double %36, %38, !dbg !1393
  store double %mul31, double* %x2, align 8, !dbg !1393
  %39 = load double*, double** %ptr.addr, align 8, !dbg !1393
  %arrayidx32 = getelementptr inbounds double, double* %39, i64 1, !dbg !1393
  %40 = load double, double* %arrayidx32, align 8, !dbg !1393
  %41 = load double*, double** %ptr.addr, align 8, !dbg !1393
  %arrayidx33 = getelementptr inbounds double, double* %41, i64 1, !dbg !1393
  %42 = load double, double* %arrayidx33, align 8, !dbg !1393
  %mul34 = fmul double %40, %42, !dbg !1393
  store double %mul34, double* %y2, align 8, !dbg !1393
  br label %if.end35, !dbg !1393

if.end35:                                         ; preds = %if.end, %entry
  %43 = load double, double* %x2, align 8, !dbg !1399
  %44 = load double, double* %x2, align 8, !dbg !1400
  %mul36 = fmul double %43, %44, !dbg !1401
  %45 = load double, double* %y2, align 8, !dbg !1402
  %46 = load double, double* %y2, align 8, !dbg !1403
  %mul37 = fmul double %45, %46, !dbg !1404
  %add38 = fadd double %mul36, %mul37, !dbg !1405
  %47 = load double, double* %x2, align 8, !dbg !1406
  %mul39 = fmul double 2.000000e+00, %47, !dbg !1407
  %48 = load double, double* %y2, align 8, !dbg !1408
  %mul40 = fmul double %mul39, %48, !dbg !1409
  %add41 = fadd double %add38, %mul40, !dbg !1410
  %49 = load double, double* %x2, align 8, !dbg !1411
  %mul42 = fmul double 3.000000e+00, %49, !dbg !1412
  %50 = load double*, double** %ptr.addr, align 8, !dbg !1413
  %arrayidx43 = getelementptr inbounds double, double* %50, i64 1, !dbg !1413
  %51 = load double, double* %arrayidx43, align 8, !dbg !1413
  %mul44 = fmul double %mul42, %51, !dbg !1414
  %add45 = fadd double %add41, %mul44, !dbg !1415
  %52 = load double, double* %y2, align 8, !dbg !1416
  %53 = load double*, double** %ptr.addr, align 8, !dbg !1417
  %arrayidx46 = getelementptr inbounds double, double* %53, i64 1, !dbg !1417
  %54 = load double, double* %arrayidx46, align 8, !dbg !1417
  %mul47 = fmul double %52, %54, !dbg !1418
  %sub48 = fsub double %add45, %mul47, !dbg !1419
  %fneg = fneg double %sub48, !dbg !1420
  store double %fneg, double* %r, align 8, !dbg !1421
  %55 = load double*, double** %ptr.addr, align 8, !dbg !1422
  %arrayidx49 = getelementptr inbounds double, double* %55, i64 4, !dbg !1422
  %56 = load double*, double** %ptr.addr, align 8, !dbg !1423
  %arrayidx50 = getelementptr inbounds double, double* %56, i64 3, !dbg !1423
  %57 = load double, double* %arrayidx50, align 8, !dbg !1423
  %58 = load double, double* %r, align 8, !dbg !1424
  %mul51 = fmul double %57, %58, !dbg !1425
  store double %mul51, double* %ref.tmp, align 8, !dbg !1423
  %59 = load double*, double** %ptr.addr, align 8, !dbg !1426
  %arrayidx53 = getelementptr inbounds double, double* %59, i64 4, !dbg !1426
  %60 = load double, double* %arrayidx53, align 8, !dbg !1426
  %fneg54 = fneg double %60, !dbg !1427
  store double %fneg54, double* %ref.tmp52, align 8, !dbg !1427
  %call55 = call dereferenceable(8) double* @_ZSt3maxIdERKT_S2_S2_(double* dereferenceable(8) %ref.tmp, double* dereferenceable(8) %ref.tmp52), !dbg !1428
  %call56 = call dereferenceable(8) double* @_ZSt3minIdERKT_S2_S2_(double* dereferenceable(8) %arrayidx49, double* dereferenceable(8) %call55), !dbg !1429
  %61 = load double, double* %call56, align 8, !dbg !1429
  ret double %61, !dbg !1430
}

; Function Attrs: noinline uwtable
define dso_local double @_ZN3pov8f_bicornEPdj(double* %ptr, i32 %0) #0 !dbg !1431 {
entry:
  %ptr.addr = alloca double*, align 8
  %.addr = alloca i32, align 4
  %r = alloca double, align 8
  %r2 = alloca double, align 8
  %x2 = alloca double, align 8
  %y2 = alloca double, align 8
  %z2 = alloca double, align 8
  %ref.tmp = alloca double, align 8
  %ref.tmp21 = alloca double, align 8
  %ref.tmp24 = alloca double, align 8
  store double* %ptr, double** %ptr.addr, align 8
  call void @llvm.dbg.declare(metadata double** %ptr.addr, metadata !1432, metadata !DIExpression()), !dbg !1433
  store i32 %0, i32* %.addr, align 4
  call void @llvm.dbg.declare(metadata i32* %.addr, metadata !1434, metadata !DIExpression()), !dbg !1435
  call void @llvm.dbg.declare(metadata double* %r, metadata !1436, metadata !DIExpression()), !dbg !1437
  call void @llvm.dbg.declare(metadata double* %r2, metadata !1438, metadata !DIExpression()), !dbg !1439
  call void @llvm.dbg.declare(metadata double* %x2, metadata !1440, metadata !DIExpression()), !dbg !1441
  %1 = load double*, double** %ptr.addr, align 8, !dbg !1442
  %arrayidx = getelementptr inbounds double, double* %1, i64 0, !dbg !1442
  %2 = load double, double* %arrayidx, align 8, !dbg !1442
  %3 = load double*, double** %ptr.addr, align 8, !dbg !1443
  %arrayidx1 = getelementptr inbounds double, double* %3, i64 0, !dbg !1443
  %4 = load double, double* %arrayidx1, align 8, !dbg !1443
  %mul = fmul double %2, %4, !dbg !1444
  store double %mul, double* %x2, align 8, !dbg !1441
  call void @llvm.dbg.declare(metadata double* %y2, metadata !1445, metadata !DIExpression()), !dbg !1446
  %5 = load double*, double** %ptr.addr, align 8, !dbg !1447
  %arrayidx2 = getelementptr inbounds double, double* %5, i64 1, !dbg !1447
  %6 = load double, double* %arrayidx2, align 8, !dbg !1447
  %7 = load double*, double** %ptr.addr, align 8, !dbg !1448
  %arrayidx3 = getelementptr inbounds double, double* %7, i64 1, !dbg !1448
  %8 = load double, double* %arrayidx3, align 8, !dbg !1448
  %mul4 = fmul double %6, %8, !dbg !1449
  store double %mul4, double* %y2, align 8, !dbg !1446
  call void @llvm.dbg.declare(metadata double* %z2, metadata !1450, metadata !DIExpression()), !dbg !1451
  %9 = load double*, double** %ptr.addr, align 8, !dbg !1452
  %arrayidx5 = getelementptr inbounds double, double* %9, i64 2, !dbg !1452
  %10 = load double, double* %arrayidx5, align 8, !dbg !1452
  %11 = load double*, double** %ptr.addr, align 8, !dbg !1453
  %arrayidx6 = getelementptr inbounds double, double* %11, i64 2, !dbg !1453
  %12 = load double, double* %arrayidx6, align 8, !dbg !1453
  %mul7 = fmul double %10, %12, !dbg !1454
  store double %mul7, double* %z2, align 8, !dbg !1451
  %13 = load double*, double** %ptr.addr, align 8, !dbg !1455
  %arrayidx8 = getelementptr inbounds double, double* %13, i64 4, !dbg !1455
  %14 = load double, double* %arrayidx8, align 8, !dbg !1455
  %15 = load double*, double** %ptr.addr, align 8, !dbg !1456
  %arrayidx9 = getelementptr inbounds double, double* %15, i64 4, !dbg !1456
  %16 = load double, double* %arrayidx9, align 8, !dbg !1456
  %mul10 = fmul double %14, %16, !dbg !1457
  store double %mul10, double* %r, align 8, !dbg !1458
  %17 = load double, double* %x2, align 8, !dbg !1459
  %18 = load double, double* %z2, align 8, !dbg !1460
  %add = fadd double %17, %18, !dbg !1461
  %19 = load double*, double** %ptr.addr, align 8, !dbg !1462
  %arrayidx11 = getelementptr inbounds double, double* %19, i64 4, !dbg !1462
  %20 = load double, double* %arrayidx11, align 8, !dbg !1462
  %mul12 = fmul double 2.000000e+00, %20, !dbg !1463
  %21 = load double*, double** %ptr.addr, align 8, !dbg !1464
  %arrayidx13 = getelementptr inbounds double, double* %21, i64 1, !dbg !1464
  %22 = load double, double* %arrayidx13, align 8, !dbg !1464
  %mul14 = fmul double %mul12, %22, !dbg !1465
  %add15 = fadd double %add, %mul14, !dbg !1466
  %23 = load double, double* %r, align 8, !dbg !1467
  %sub = fsub double %add15, %23, !dbg !1468
  store double %sub, double* %r2, align 8, !dbg !1469
  %24 = load double, double* %y2, align 8, !dbg !1470
  %25 = load double, double* %r, align 8, !dbg !1471
  %26 = load double, double* %x2, align 8, !dbg !1472
  %27 = load double, double* %z2, align 8, !dbg !1473
  %add16 = fadd double %26, %27, !dbg !1474
  %sub17 = fsub double %25, %add16, !dbg !1475
  %mul18 = fmul double %24, %sub17, !dbg !1476
  %28 = load double, double* %r2, align 8, !dbg !1477
  %29 = load double, double* %r2, align 8, !dbg !1478
  %mul19 = fmul double %28, %29, !dbg !1479
  %sub20 = fsub double %mul18, %mul19, !dbg !1480
  store double %sub20, double* %r, align 8, !dbg !1481
  store double 1.000000e+01, double* %ref.tmp, align 8, !dbg !1482
  %30 = load double*, double** %ptr.addr, align 8, !dbg !1483
  %arrayidx22 = getelementptr inbounds double, double* %30, i64 3, !dbg !1483
  %31 = load double, double* %arrayidx22, align 8, !dbg !1483
  %32 = load double, double* %r, align 8, !dbg !1484
  %mul23 = fmul double %31, %32, !dbg !1485
  store double %mul23, double* %ref.tmp21, align 8, !dbg !1483
  store double -1.000000e+01, double* %ref.tmp24, align 8, !dbg !1486
  %call = call dereferenceable(8) double* @_ZSt3maxIdERKT_S2_S2_(double* dereferenceable(8) %ref.tmp21, double* dereferenceable(8) %ref.tmp24), !dbg !1487
  %call25 = call dereferenceable(8) double* @_ZSt3minIdERKT_S2_S2_(double* dereferenceable(8) %ref.tmp, double* dereferenceable(8) %call), !dbg !1488
  %33 = load double, double* %call25, align 8, !dbg !1488
  ret double %33, !dbg !1489
}

; Function Attrs: noinline uwtable
define dso_local double @_ZN3pov9f_bifoliaEPdj(double* %ptr, i32 %0) #0 !dbg !1490 {
entry:
  %ptr.addr = alloca double*, align 8
  %.addr = alloca i32, align 4
  %r = alloca double, align 8
  %x2 = alloca double, align 8
  %z2 = alloca double, align 8
  %ref.tmp = alloca double, align 8
  %ref.tmp15 = alloca double, align 8
  %ref.tmp18 = alloca double, align 8
  store double* %ptr, double** %ptr.addr, align 8
  call void @llvm.dbg.declare(metadata double** %ptr.addr, metadata !1491, metadata !DIExpression()), !dbg !1492
  store i32 %0, i32* %.addr, align 4
  call void @llvm.dbg.declare(metadata i32* %.addr, metadata !1493, metadata !DIExpression()), !dbg !1494
  call void @llvm.dbg.declare(metadata double* %r, metadata !1495, metadata !DIExpression()), !dbg !1496
  call void @llvm.dbg.declare(metadata double* %x2, metadata !1497, metadata !DIExpression()), !dbg !1498
  %1 = load double*, double** %ptr.addr, align 8, !dbg !1499
  %arrayidx = getelementptr inbounds double, double* %1, i64 0, !dbg !1499
  %2 = load double, double* %arrayidx, align 8, !dbg !1499
  %3 = load double*, double** %ptr.addr, align 8, !dbg !1500
  %arrayidx1 = getelementptr inbounds double, double* %3, i64 0, !dbg !1500
  %4 = load double, double* %arrayidx1, align 8, !dbg !1500
  %mul = fmul double %2, %4, !dbg !1501
  store double %mul, double* %x2, align 8, !dbg !1498
  call void @llvm.dbg.declare(metadata double* %z2, metadata !1502, metadata !DIExpression()), !dbg !1503
  %5 = load double*, double** %ptr.addr, align 8, !dbg !1504
  %arrayidx2 = getelementptr inbounds double, double* %5, i64 2, !dbg !1504
  %6 = load double, double* %arrayidx2, align 8, !dbg !1504
  %7 = load double*, double** %ptr.addr, align 8, !dbg !1505
  %arrayidx3 = getelementptr inbounds double, double* %7, i64 2, !dbg !1505
  %8 = load double, double* %arrayidx3, align 8, !dbg !1505
  %mul4 = fmul double %6, %8, !dbg !1506
  store double %mul4, double* %z2, align 8, !dbg !1503
  %9 = load double, double* %x2, align 8, !dbg !1507
  %10 = load double*, double** %ptr.addr, align 8, !dbg !1508
  %arrayidx5 = getelementptr inbounds double, double* %10, i64 1, !dbg !1508
  %11 = load double, double* %arrayidx5, align 8, !dbg !1508
  %12 = load double*, double** %ptr.addr, align 8, !dbg !1509
  %arrayidx6 = getelementptr inbounds double, double* %12, i64 1, !dbg !1509
  %13 = load double, double* %arrayidx6, align 8, !dbg !1509
  %mul7 = fmul double %11, %13, !dbg !1510
  %add = fadd double %9, %mul7, !dbg !1511
  %14 = load double, double* %z2, align 8, !dbg !1512
  %add8 = fadd double %add, %14, !dbg !1513
  store double %add8, double* %r, align 8, !dbg !1514
  %15 = load double, double* %r, align 8, !dbg !1515
  %16 = load double, double* %r, align 8, !dbg !1516
  %mul9 = fmul double %15, %16, !dbg !1517
  %17 = load double*, double** %ptr.addr, align 8, !dbg !1518
  %arrayidx10 = getelementptr inbounds double, double* %17, i64 4, !dbg !1518
  %18 = load double, double* %arrayidx10, align 8, !dbg !1518
  %19 = load double, double* %x2, align 8, !dbg !1519
  %20 = load double, double* %z2, align 8, !dbg !1520
  %add11 = fadd double %19, %20, !dbg !1521
  %mul12 = fmul double %18, %add11, !dbg !1522
  %21 = load double*, double** %ptr.addr, align 8, !dbg !1523
  %arrayidx13 = getelementptr inbounds double, double* %21, i64 1, !dbg !1523
  %22 = load double, double* %arrayidx13, align 8, !dbg !1523
  %mul14 = fmul double %mul12, %22, !dbg !1524
  %sub = fsub double %mul9, %mul14, !dbg !1525
  %fneg = fneg double %sub, !dbg !1526
  store double %fneg, double* %r, align 8, !dbg !1527
  store double 1.000000e+01, double* %ref.tmp, align 8, !dbg !1528
  %23 = load double*, double** %ptr.addr, align 8, !dbg !1529
  %arrayidx16 = getelementptr inbounds double, double* %23, i64 3, !dbg !1529
  %24 = load double, double* %arrayidx16, align 8, !dbg !1529
  %25 = load double, double* %r, align 8, !dbg !1530
  %mul17 = fmul double %24, %25, !dbg !1531
  store double %mul17, double* %ref.tmp15, align 8, !dbg !1529
  store double -1.000000e+01, double* %ref.tmp18, align 8, !dbg !1532
  %call = call dereferenceable(8) double* @_ZSt3maxIdERKT_S2_S2_(double* dereferenceable(8) %ref.tmp15, double* dereferenceable(8) %ref.tmp18), !dbg !1533
  %call19 = call dereferenceable(8) double* @_ZSt3minIdERKT_S2_S2_(double* dereferenceable(8) %ref.tmp, double* dereferenceable(8) %call), !dbg !1534
  %26 = load double, double* %call19, align 8, !dbg !1534
  ret double %26, !dbg !1535
}

; Function Attrs: noinline nounwind uwtable
define dso_local double @_ZN3pov6f_blobEPdj(double* %ptr, i32 %0) #1 !dbg !1536 {
entry:
  %ptr.addr = alloca double*, align 8
  %.addr = alloca i32, align 4
  %r = alloca double, align 8
  %r2 = alloca double, align 8
  %y2 = alloca double, align 8
  %z2 = alloca double, align 8
  %temp = alloca double, align 8
  store double* %ptr, double** %ptr.addr, align 8
  call void @llvm.dbg.declare(metadata double** %ptr.addr, metadata !1537, metadata !DIExpression()), !dbg !1538
  store i32 %0, i32* %.addr, align 4
  call void @llvm.dbg.declare(metadata i32* %.addr, metadata !1539, metadata !DIExpression()), !dbg !1540
  call void @llvm.dbg.declare(metadata double* %r, metadata !1541, metadata !DIExpression()), !dbg !1542
  call void @llvm.dbg.declare(metadata double* %r2, metadata !1543, metadata !DIExpression()), !dbg !1544
  call void @llvm.dbg.declare(metadata double* %y2, metadata !1545, metadata !DIExpression()), !dbg !1546
  call void @llvm.dbg.declare(metadata double* %z2, metadata !1547, metadata !DIExpression()), !dbg !1548
  call void @llvm.dbg.declare(metadata double* %temp, metadata !1549, metadata !DIExpression()), !dbg !1550
  %1 = load double*, double** %ptr.addr, align 8, !dbg !1551
  %arrayidx = getelementptr inbounds double, double* %1, i64 1, !dbg !1551
  %2 = load double, double* %arrayidx, align 8, !dbg !1551
  %3 = load double*, double** %ptr.addr, align 8, !dbg !1552
  %arrayidx1 = getelementptr inbounds double, double* %3, i64 1, !dbg !1552
  %4 = load double, double* %arrayidx1, align 8, !dbg !1552
  %mul = fmul double %2, %4, !dbg !1553
  store double %mul, double* %y2, align 8, !dbg !1554
  %5 = load double*, double** %ptr.addr, align 8, !dbg !1555
  %arrayidx2 = getelementptr inbounds double, double* %5, i64 2, !dbg !1555
  %6 = load double, double* %arrayidx2, align 8, !dbg !1555
  %7 = load double*, double** %ptr.addr, align 8, !dbg !1556
  %arrayidx3 = getelementptr inbounds double, double* %7, i64 2, !dbg !1556
  %8 = load double, double* %arrayidx3, align 8, !dbg !1556
  %mul4 = fmul double %6, %8, !dbg !1557
  store double %mul4, double* %z2, align 8, !dbg !1558
  %9 = load double*, double** %ptr.addr, align 8, !dbg !1559
  %arrayidx5 = getelementptr inbounds double, double* %9, i64 3, !dbg !1559
  %10 = load double, double* %arrayidx5, align 8, !dbg !1559
  %mul6 = fmul double %10, 5.000000e-01, !dbg !1560
  store double %mul6, double* %r2, align 8, !dbg !1561
  %11 = load double*, double** %ptr.addr, align 8, !dbg !1562
  %arrayidx7 = getelementptr inbounds double, double* %11, i64 0, !dbg !1562
  %12 = load double, double* %arrayidx7, align 8, !dbg !1562
  %13 = load double, double* %r2, align 8, !dbg !1563
  %add = fadd double %12, %13, !dbg !1564
  %14 = load double*, double** %ptr.addr, align 8, !dbg !1565
  %arrayidx8 = getelementptr inbounds double, double* %14, i64 0, !dbg !1565
  %15 = load double, double* %arrayidx8, align 8, !dbg !1565
  %16 = load double, double* %r2, align 8, !dbg !1566
  %add9 = fadd double %15, %16, !dbg !1567
  %mul10 = fmul double %add, %add9, !dbg !1568
  %17 = load double, double* %y2, align 8, !dbg !1569
  %add11 = fadd double %mul10, %17, !dbg !1570
  %18 = load double, double* %z2, align 8, !dbg !1571
  %add12 = fadd double %add11, %18, !dbg !1572
  %19 = load double*, double** %ptr.addr, align 8, !dbg !1573
  %arrayidx13 = getelementptr inbounds double, double* %19, i64 5, !dbg !1573
  %20 = load double, double* %arrayidx13, align 8, !dbg !1573
  %mul14 = fmul double %add12, %20, !dbg !1574
  %21 = load double*, double** %ptr.addr, align 8, !dbg !1575
  %arrayidx15 = getelementptr inbounds double, double* %21, i64 5, !dbg !1575
  %22 = load double, double* %arrayidx15, align 8, !dbg !1575
  %mul16 = fmul double %mul14, %22, !dbg !1576
  store double %mul16, double* %r, align 8, !dbg !1577
  %23 = load double, double* %r, align 8, !dbg !1578
  %cmp = fcmp ogt double %23, 1.000000e+00, !dbg !1580
  br i1 %cmp, label %if.then, label %if.end, !dbg !1581

if.then:                                          ; preds = %entry
  store double 1.000000e+00, double* %r, align 8, !dbg !1582
  br label %if.end, !dbg !1583

if.end:                                           ; preds = %if.then, %entry
  %24 = load double*, double** %ptr.addr, align 8, !dbg !1584
  %arrayidx17 = getelementptr inbounds double, double* %24, i64 0, !dbg !1584
  %25 = load double, double* %arrayidx17, align 8, !dbg !1584
  %26 = load double, double* %r2, align 8, !dbg !1585
  %sub = fsub double %25, %26, !dbg !1586
  %27 = load double*, double** %ptr.addr, align 8, !dbg !1587
  %arrayidx18 = getelementptr inbounds double, double* %27, i64 0, !dbg !1587
  %28 = load double, double* %arrayidx18, align 8, !dbg !1587
  %29 = load double, double* %r2, align 8, !dbg !1588
  %sub19 = fsub double %28, %29, !dbg !1589
  %mul20 = fmul double %sub, %sub19, !dbg !1590
  %30 = load double, double* %y2, align 8, !dbg !1591
  %add21 = fadd double %mul20, %30, !dbg !1592
  %31 = load double, double* %z2, align 8, !dbg !1593
  %add22 = fadd double %add21, %31, !dbg !1594
  %32 = load double*, double** %ptr.addr, align 8, !dbg !1595
  %arrayidx23 = getelementptr inbounds double, double* %32, i64 7, !dbg !1595
  %33 = load double, double* %arrayidx23, align 8, !dbg !1595
  %mul24 = fmul double %add22, %33, !dbg !1596
  %34 = load double*, double** %ptr.addr, align 8, !dbg !1597
  %arrayidx25 = getelementptr inbounds double, double* %34, i64 7, !dbg !1597
  %35 = load double, double* %arrayidx25, align 8, !dbg !1597
  %mul26 = fmul double %mul24, %35, !dbg !1598
  store double %mul26, double* %temp, align 8, !dbg !1599
  %36 = load double, double* %temp, align 8, !dbg !1600
  %cmp27 = fcmp ogt double %36, 1.000000e+00, !dbg !1602
  br i1 %cmp27, label %if.then28, label %if.end29, !dbg !1603

if.then28:                                        ; preds = %if.end
  store double 1.000000e+00, double* %temp, align 8, !dbg !1604
  br label %if.end29, !dbg !1605

if.end29:                                         ; preds = %if.then28, %if.end
  %37 = load double*, double** %ptr.addr, align 8, !dbg !1606
  %arrayidx30 = getelementptr inbounds double, double* %37, i64 4, !dbg !1606
  %38 = load double, double* %arrayidx30, align 8, !dbg !1606
  %39 = load double, double* %r, align 8, !dbg !1607
  %sub31 = fsub double 1.000000e+00, %39, !dbg !1608
  %mul32 = fmul double %38, %sub31, !dbg !1609
  %40 = load double, double* %r, align 8, !dbg !1610
  %sub33 = fsub double 1.000000e+00, %40, !dbg !1611
  %mul34 = fmul double %mul32, %sub33, !dbg !1612
  %41 = load double*, double** %ptr.addr, align 8, !dbg !1613
  %arrayidx35 = getelementptr inbounds double, double* %41, i64 6, !dbg !1613
  %42 = load double, double* %arrayidx35, align 8, !dbg !1613
  %43 = load double, double* %temp, align 8, !dbg !1614
  %sub36 = fsub double 1.000000e+00, %43, !dbg !1615
  %mul37 = fmul double %42, %sub36, !dbg !1616
  %44 = load double, double* %temp, align 8, !dbg !1617
  %sub38 = fsub double 1.000000e+00, %44, !dbg !1618
  %mul39 = fmul double %mul37, %sub38, !dbg !1619
  %add40 = fadd double %mul34, %mul39, !dbg !1620
  %fneg = fneg double %add40, !dbg !1621
  ret double %fneg, !dbg !1622
}

; Function Attrs: noinline nounwind uwtable
define dso_local double @_ZN3pov7f_blob2EPdj(double* %ptr, i32 %0) #1 !dbg !1623 {
entry:
  %ptr.addr = alloca double*, align 8
  %.addr = alloca i32, align 4
  %r = alloca double, align 8
  %x2 = alloca double, align 8
  %y2 = alloca double, align 8
  %z2 = alloca double, align 8
  store double* %ptr, double** %ptr.addr, align 8
  call void @llvm.dbg.declare(metadata double** %ptr.addr, metadata !1624, metadata !DIExpression()), !dbg !1625
  store i32 %0, i32* %.addr, align 4
  call void @llvm.dbg.declare(metadata i32* %.addr, metadata !1626, metadata !DIExpression()), !dbg !1627
  call void @llvm.dbg.declare(metadata double* %r, metadata !1628, metadata !DIExpression()), !dbg !1629
  call void @llvm.dbg.declare(metadata double* %x2, metadata !1630, metadata !DIExpression()), !dbg !1631
  call void @llvm.dbg.declare(metadata double* %y2, metadata !1632, metadata !DIExpression()), !dbg !1633
  call void @llvm.dbg.declare(metadata double* %z2, metadata !1634, metadata !DIExpression()), !dbg !1635
  %1 = load double*, double** %ptr.addr, align 8, !dbg !1636
  %arrayidx = getelementptr inbounds double, double* %1, i64 0, !dbg !1636
  %2 = load double, double* %arrayidx, align 8, !dbg !1636
  %3 = load double*, double** %ptr.addr, align 8, !dbg !1637
  %arrayidx1 = getelementptr inbounds double, double* %3, i64 0, !dbg !1637
  %4 = load double, double* %arrayidx1, align 8, !dbg !1637
  %mul = fmul double %2, %4, !dbg !1638
  store double %mul, double* %x2, align 8, !dbg !1639
  %5 = load double*, double** %ptr.addr, align 8, !dbg !1640
  %arrayidx2 = getelementptr inbounds double, double* %5, i64 1, !dbg !1640
  %6 = load double, double* %arrayidx2, align 8, !dbg !1640
  %7 = load double*, double** %ptr.addr, align 8, !dbg !1641
  %arrayidx3 = getelementptr inbounds double, double* %7, i64 1, !dbg !1641
  %8 = load double, double* %arrayidx3, align 8, !dbg !1641
  %mul4 = fmul double %6, %8, !dbg !1642
  store double %mul4, double* %y2, align 8, !dbg !1643
  %9 = load double*, double** %ptr.addr, align 8, !dbg !1644
  %arrayidx5 = getelementptr inbounds double, double* %9, i64 2, !dbg !1644
  %10 = load double, double* %arrayidx5, align 8, !dbg !1644
  %11 = load double*, double** %ptr.addr, align 8, !dbg !1645
  %arrayidx6 = getelementptr inbounds double, double* %11, i64 2, !dbg !1645
  %12 = load double, double* %arrayidx6, align 8, !dbg !1645
  %mul7 = fmul double %10, %12, !dbg !1646
  store double %mul7, double* %z2, align 8, !dbg !1647
  %13 = load double, double* %x2, align 8, !dbg !1648
  %14 = load double, double* %y2, align 8, !dbg !1649
  %add = fadd double %13, %14, !dbg !1650
  %15 = load double, double* %z2, align 8, !dbg !1651
  %add8 = fadd double %add, %15, !dbg !1652
  %fneg = fneg double %add8, !dbg !1653
  %16 = load double*, double** %ptr.addr, align 8, !dbg !1654
  %arrayidx9 = getelementptr inbounds double, double* %16, i64 4, !dbg !1654
  %17 = load double, double* %arrayidx9, align 8, !dbg !1654
  %mul10 = fmul double %fneg, %17, !dbg !1655
  %call = call double @exp(double %mul10) #5, !dbg !1656
  %18 = load double*, double** %ptr.addr, align 8, !dbg !1657
  %arrayidx11 = getelementptr inbounds double, double* %18, i64 0, !dbg !1657
  %19 = load double, double* %arrayidx11, align 8, !dbg !1657
  %20 = load double*, double** %ptr.addr, align 8, !dbg !1658
  %arrayidx12 = getelementptr inbounds double, double* %20, i64 3, !dbg !1658
  %21 = load double, double* %arrayidx12, align 8, !dbg !1658
  %sub = fsub double %19, %21, !dbg !1659
  %22 = load double*, double** %ptr.addr, align 8, !dbg !1660
  %arrayidx13 = getelementptr inbounds double, double* %22, i64 0, !dbg !1660
  %23 = load double, double* %arrayidx13, align 8, !dbg !1660
  %24 = load double*, double** %ptr.addr, align 8, !dbg !1661
  %arrayidx14 = getelementptr inbounds double, double* %24, i64 3, !dbg !1661
  %25 = load double, double* %arrayidx14, align 8, !dbg !1661
  %sub15 = fsub double %23, %25, !dbg !1662
  %mul16 = fmul double %sub, %sub15, !dbg !1663
  %26 = load double, double* %y2, align 8, !dbg !1664
  %add17 = fadd double %mul16, %26, !dbg !1665
  %27 = load double, double* %z2, align 8, !dbg !1666
  %add18 = fadd double %add17, %27, !dbg !1667
  %fneg19 = fneg double %add18, !dbg !1668
  %28 = load double*, double** %ptr.addr, align 8, !dbg !1669
  %arrayidx20 = getelementptr inbounds double, double* %28, i64 4, !dbg !1669
  %29 = load double, double* %arrayidx20, align 8, !dbg !1669
  %mul21 = fmul double %fneg19, %29, !dbg !1670
  %call22 = call double @exp(double %mul21) #5, !dbg !1671
  %add23 = fadd double %call, %call22, !dbg !1672
  store double %add23, double* %r, align 8, !dbg !1673
  %30 = load double*, double** %ptr.addr, align 8, !dbg !1674
  %arrayidx24 = getelementptr inbounds double, double* %30, i64 6, !dbg !1674
  %31 = load double, double* %arrayidx24, align 8, !dbg !1674
  %32 = load double, double* %r, align 8, !dbg !1675
  %33 = load double*, double** %ptr.addr, align 8, !dbg !1676
  %arrayidx25 = getelementptr inbounds double, double* %33, i64 5, !dbg !1676
  %34 = load double, double* %arrayidx25, align 8, !dbg !1676
  %mul26 = fmul double %32, %34, !dbg !1677
  %sub27 = fsub double %31, %mul26, !dbg !1678
  ret double %sub27, !dbg !1679
}

; Function Attrs: noinline uwtable
define dso_local double @_ZN3pov13f_boy_surfaceEPdj(double* %ptr, i32 %0) #0 !dbg !1680 {
entry:
  %ptr.addr = alloca double*, align 8
  %.addr = alloca i32, align 4
  %r = alloca double, align 8
  %r2 = alloca double, align 8
  %ph = alloca double, align 8
  %x2 = alloca double, align 8
  %y2 = alloca double, align 8
  %z2 = alloca double, align 8
  %ref.tmp = alloca double, align 8
  %ref.tmp74 = alloca double, align 8
  %ref.tmp77 = alloca double, align 8
  store double* %ptr, double** %ptr.addr, align 8
  call void @llvm.dbg.declare(metadata double** %ptr.addr, metadata !1681, metadata !DIExpression()), !dbg !1682
  store i32 %0, i32* %.addr, align 4
  call void @llvm.dbg.declare(metadata i32* %.addr, metadata !1683, metadata !DIExpression()), !dbg !1684
  call void @llvm.dbg.declare(metadata double* %r, metadata !1685, metadata !DIExpression()), !dbg !1686
  call void @llvm.dbg.declare(metadata double* %r2, metadata !1687, metadata !DIExpression()), !dbg !1688
  call void @llvm.dbg.declare(metadata double* %ph, metadata !1689, metadata !DIExpression()), !dbg !1690
  call void @llvm.dbg.declare(metadata double* %x2, metadata !1691, metadata !DIExpression()), !dbg !1692
  %1 = load double*, double** %ptr.addr, align 8, !dbg !1693
  %arrayidx = getelementptr inbounds double, double* %1, i64 0, !dbg !1693
  %2 = load double, double* %arrayidx, align 8, !dbg !1693
  %3 = load double*, double** %ptr.addr, align 8, !dbg !1694
  %arrayidx1 = getelementptr inbounds double, double* %3, i64 0, !dbg !1694
  %4 = load double, double* %arrayidx1, align 8, !dbg !1694
  %mul = fmul double %2, %4, !dbg !1695
  store double %mul, double* %x2, align 8, !dbg !1692
  call void @llvm.dbg.declare(metadata double* %y2, metadata !1696, metadata !DIExpression()), !dbg !1697
  %5 = load double*, double** %ptr.addr, align 8, !dbg !1698
  %arrayidx2 = getelementptr inbounds double, double* %5, i64 1, !dbg !1698
  %6 = load double, double* %arrayidx2, align 8, !dbg !1698
  %7 = load double*, double** %ptr.addr, align 8, !dbg !1699
  %arrayidx3 = getelementptr inbounds double, double* %7, i64 1, !dbg !1699
  %8 = load double, double* %arrayidx3, align 8, !dbg !1699
  %mul4 = fmul double %6, %8, !dbg !1700
  store double %mul4, double* %y2, align 8, !dbg !1697
  call void @llvm.dbg.declare(metadata double* %z2, metadata !1701, metadata !DIExpression()), !dbg !1702
  %9 = load double*, double** %ptr.addr, align 8, !dbg !1703
  %arrayidx5 = getelementptr inbounds double, double* %9, i64 2, !dbg !1703
  %10 = load double, double* %arrayidx5, align 8, !dbg !1703
  %11 = load double*, double** %ptr.addr, align 8, !dbg !1704
  %arrayidx6 = getelementptr inbounds double, double* %11, i64 2, !dbg !1704
  %12 = load double, double* %arrayidx6, align 8, !dbg !1704
  %mul7 = fmul double %10, %12, !dbg !1705
  store double %mul7, double* %z2, align 8, !dbg !1702
  %13 = load double*, double** %ptr.addr, align 8, !dbg !1706
  %arrayidx8 = getelementptr inbounds double, double* %13, i64 2, !dbg !1706
  %14 = load double, double* %arrayidx8, align 8, !dbg !1706
  %sub = fsub double 1.000000e+00, %14, !dbg !1707
  store double %sub, double* %r2, align 8, !dbg !1708
  %15 = load double, double* %x2, align 8, !dbg !1709
  %16 = load double, double* %y2, align 8, !dbg !1710
  %add = fadd double %15, %16, !dbg !1711
  store double %add, double* %ph, align 8, !dbg !1712
  %17 = load double*, double** %ptr.addr, align 8, !dbg !1713
  %arrayidx9 = getelementptr inbounds double, double* %17, i64 4, !dbg !1713
  %18 = load double, double* %arrayidx9, align 8, !dbg !1713
  %19 = load double, double* %r2, align 8, !dbg !1714
  %mul10 = fmul double 6.400000e+01, %19, !dbg !1715
  %20 = load double, double* %r2, align 8, !dbg !1716
  %mul11 = fmul double %mul10, %20, !dbg !1717
  %21 = load double, double* %r2, align 8, !dbg !1718
  %mul12 = fmul double %mul11, %21, !dbg !1719
  %22 = load double, double* %z2, align 8, !dbg !1720
  %mul13 = fmul double %mul12, %22, !dbg !1721
  %23 = load double*, double** %ptr.addr, align 8, !dbg !1722
  %arrayidx14 = getelementptr inbounds double, double* %23, i64 2, !dbg !1722
  %24 = load double, double* %arrayidx14, align 8, !dbg !1722
  %mul15 = fmul double %mul13, %24, !dbg !1723
  %25 = load double, double* %r2, align 8, !dbg !1724
  %mul16 = fmul double 4.800000e+01, %25, !dbg !1725
  %26 = load double, double* %r2, align 8, !dbg !1726
  %mul17 = fmul double %mul16, %26, !dbg !1727
  %27 = load double, double* %z2, align 8, !dbg !1728
  %mul18 = fmul double %mul17, %27, !dbg !1729
  %28 = load double, double* %x2, align 8, !dbg !1730
  %mul19 = fmul double 3.000000e+00, %28, !dbg !1731
  %29 = load double, double* %y2, align 8, !dbg !1732
  %mul20 = fmul double 3.000000e+00, %29, !dbg !1733
  %add21 = fadd double %mul19, %mul20, !dbg !1734
  %30 = load double, double* %z2, align 8, !dbg !1735
  %mul22 = fmul double 2.000000e+00, %30, !dbg !1736
  %add23 = fadd double %add21, %mul22, !dbg !1737
  %mul24 = fmul double %mul18, %add23, !dbg !1738
  %sub25 = fsub double %mul15, %mul24, !dbg !1739
  %31 = load double, double* %r2, align 8, !dbg !1740
  %mul26 = fmul double 1.200000e+01, %31, !dbg !1741
  %32 = load double*, double** %ptr.addr, align 8, !dbg !1742
  %arrayidx27 = getelementptr inbounds double, double* %32, i64 2, !dbg !1742
  %33 = load double, double* %arrayidx27, align 8, !dbg !1742
  %mul28 = fmul double %mul26, %33, !dbg !1743
  %34 = load double, double* %ph, align 8, !dbg !1744
  %mul29 = fmul double 2.700000e+01, %34, !dbg !1745
  %35 = load double, double* %ph, align 8, !dbg !1746
  %mul30 = fmul double %mul29, %35, !dbg !1747
  %36 = load double, double* %z2, align 8, !dbg !1748
  %mul31 = fmul double 2.400000e+01, %36, !dbg !1749
  %37 = load double, double* %ph, align 8, !dbg !1750
  %mul32 = fmul double %mul31, %37, !dbg !1751
  %sub33 = fsub double %mul30, %mul32, !dbg !1752
  %call = call double @sqrt(double 2.000000e+00) #5, !dbg !1753
  %mul34 = fmul double 3.600000e+01, %call, !dbg !1754
  %38 = load double*, double** %ptr.addr, align 8, !dbg !1755
  %arrayidx35 = getelementptr inbounds double, double* %38, i64 1, !dbg !1755
  %39 = load double, double* %arrayidx35, align 8, !dbg !1755
  %mul36 = fmul double %mul34, %39, !dbg !1756
  %40 = load double*, double** %ptr.addr, align 8, !dbg !1757
  %arrayidx37 = getelementptr inbounds double, double* %40, i64 2, !dbg !1757
  %41 = load double, double* %arrayidx37, align 8, !dbg !1757
  %mul38 = fmul double %mul36, %41, !dbg !1758
  %42 = load double, double* %y2, align 8, !dbg !1759
  %43 = load double, double* %x2, align 8, !dbg !1760
  %mul39 = fmul double 3.000000e+00, %43, !dbg !1761
  %sub40 = fsub double %42, %mul39, !dbg !1762
  %mul41 = fmul double %mul38, %sub40, !dbg !1763
  %add42 = fadd double %sub33, %mul41, !dbg !1764
  %44 = load double, double* %z2, align 8, !dbg !1765
  %mul43 = fmul double 4.000000e+00, %44, !dbg !1766
  %45 = load double, double* %z2, align 8, !dbg !1767
  %mul44 = fmul double %mul43, %45, !dbg !1768
  %add45 = fadd double %add42, %mul44, !dbg !1769
  %mul46 = fmul double %mul28, %add45, !dbg !1770
  %add47 = fadd double %sub25, %mul46, !dbg !1771
  %46 = load double, double* %x2, align 8, !dbg !1772
  %mul48 = fmul double 9.000000e+00, %46, !dbg !1773
  %47 = load double, double* %y2, align 8, !dbg !1774
  %mul49 = fmul double 9.000000e+00, %47, !dbg !1775
  %add50 = fadd double %mul48, %mul49, !dbg !1776
  %48 = load double, double* %z2, align 8, !dbg !1777
  %mul51 = fmul double 2.000000e+00, %48, !dbg !1778
  %sub52 = fsub double %add50, %mul51, !dbg !1779
  %49 = load double, double* %ph, align 8, !dbg !1780
  %mul53 = fmul double -8.100000e+01, %49, !dbg !1781
  %50 = load double, double* %ph, align 8, !dbg !1782
  %mul54 = fmul double %mul53, %50, !dbg !1783
  %51 = load double, double* %z2, align 8, !dbg !1784
  %mul55 = fmul double 7.200000e+01, %51, !dbg !1785
  %52 = load double, double* %ph, align 8, !dbg !1786
  %mul56 = fmul double %mul55, %52, !dbg !1787
  %sub57 = fsub double %mul54, %mul56, !dbg !1788
  %call58 = call double @sqrt(double 2.000000e+00) #5, !dbg !1789
  %mul59 = fmul double 1.080000e+02, %call58, !dbg !1790
  %53 = load double*, double** %ptr.addr, align 8, !dbg !1791
  %arrayidx60 = getelementptr inbounds double, double* %53, i64 0, !dbg !1791
  %54 = load double, double* %arrayidx60, align 8, !dbg !1791
  %mul61 = fmul double %mul59, %54, !dbg !1792
  %55 = load double*, double** %ptr.addr, align 8, !dbg !1793
  %arrayidx62 = getelementptr inbounds double, double* %55, i64 2, !dbg !1793
  %56 = load double, double* %arrayidx62, align 8, !dbg !1793
  %mul63 = fmul double %mul61, %56, !dbg !1794
  %57 = load double, double* %x2, align 8, !dbg !1795
  %58 = load double, double* %y2, align 8, !dbg !1796
  %mul64 = fmul double 3.000000e+00, %58, !dbg !1797
  %sub65 = fsub double %57, %mul64, !dbg !1798
  %mul66 = fmul double %mul63, %sub65, !dbg !1799
  %add67 = fadd double %sub57, %mul66, !dbg !1800
  %59 = load double, double* %z2, align 8, !dbg !1801
  %mul68 = fmul double 4.000000e+00, %59, !dbg !1802
  %60 = load double, double* %z2, align 8, !dbg !1803
  %mul69 = fmul double %mul68, %60, !dbg !1804
  %add70 = fadd double %add67, %mul69, !dbg !1805
  %mul71 = fmul double %sub52, %add70, !dbg !1806
  %add72 = fadd double %add47, %mul71, !dbg !1807
  %mul73 = fmul double %18, %add72, !dbg !1808
  store double %mul73, double* %r, align 8, !dbg !1809
  store double 1.000000e+01, double* %ref.tmp, align 8, !dbg !1810
  %61 = load double*, double** %ptr.addr, align 8, !dbg !1811
  %arrayidx75 = getelementptr inbounds double, double* %61, i64 3, !dbg !1811
  %62 = load double, double* %arrayidx75, align 8, !dbg !1811
  %63 = load double, double* %r, align 8, !dbg !1812
  %mul76 = fmul double %62, %63, !dbg !1813
  store double %mul76, double* %ref.tmp74, align 8, !dbg !1811
  store double -1.000000e+01, double* %ref.tmp77, align 8, !dbg !1814
  %call78 = call dereferenceable(8) double* @_ZSt3maxIdERKT_S2_S2_(double* dereferenceable(8) %ref.tmp74, double* dereferenceable(8) %ref.tmp77), !dbg !1815
  %call79 = call dereferenceable(8) double* @_ZSt3minIdERKT_S2_S2_(double* dereferenceable(8) %ref.tmp, double* dereferenceable(8) %call78), !dbg !1816
  %64 = load double, double* %call79, align 8, !dbg !1816
  ret double %64, !dbg !1817
}

; Function Attrs: noinline uwtable
define dso_local double @_ZN3pov7f_commaEPdj(double* %ptr, i32 %0) #0 !dbg !1818 {
entry:
  %ptr.addr = alloca double*, align 8
  %.addr = alloca i32, align 4
  %r = alloca double, align 8
  %th = alloca double, align 8
  %temp = alloca double, align 8
  store double* %ptr, double** %ptr.addr, align 8
  call void @llvm.dbg.declare(metadata double** %ptr.addr, metadata !1819, metadata !DIExpression()), !dbg !1820
  store i32 %0, i32* %.addr, align 4
  call void @llvm.dbg.declare(metadata i32* %.addr, metadata !1821, metadata !DIExpression()), !dbg !1822
  call void @llvm.dbg.declare(metadata double* %r, metadata !1823, metadata !DIExpression()), !dbg !1824
  call void @llvm.dbg.declare(metadata double* %th, metadata !1825, metadata !DIExpression()), !dbg !1826
  call void @llvm.dbg.declare(metadata double* %temp, metadata !1827, metadata !DIExpression()), !dbg !1828
  %1 = load double*, double** %ptr.addr, align 8, !dbg !1829
  %arrayidx = getelementptr inbounds double, double* %1, i64 0, !dbg !1829
  %2 = load double, double* %arrayidx, align 8, !dbg !1829
  %cmp = fcmp oeq double %2, 0.000000e+00, !dbg !1831
  br i1 %cmp, label %land.lhs.true, label %if.end, !dbg !1832

land.lhs.true:                                    ; preds = %entry
  %3 = load double*, double** %ptr.addr, align 8, !dbg !1833
  %arrayidx1 = getelementptr inbounds double, double* %3, i64 2, !dbg !1833
  %4 = load double, double* %arrayidx1, align 8, !dbg !1833
  %cmp2 = fcmp oeq double %4, 0.000000e+00, !dbg !1834
  br i1 %cmp2, label %if.then, label %if.end, !dbg !1835

if.then:                                          ; preds = %land.lhs.true
  %5 = load double*, double** %ptr.addr, align 8, !dbg !1836
  %arrayidx3 = getelementptr inbounds double, double* %5, i64 0, !dbg !1836
  store double 1.000000e-04, double* %arrayidx3, align 8, !dbg !1837
  br label %if.end, !dbg !1836

if.end:                                           ; preds = %if.then, %land.lhs.true, %entry
  %6 = load double*, double** %ptr.addr, align 8, !dbg !1838
  %arrayidx4 = getelementptr inbounds double, double* %6, i64 2, !dbg !1838
  %7 = load double, double* %arrayidx4, align 8, !dbg !1838
  %8 = load double*, double** %ptr.addr, align 8, !dbg !1839
  %arrayidx5 = getelementptr inbounds double, double* %8, i64 0, !dbg !1839
  %9 = load double, double* %arrayidx5, align 8, !dbg !1839
  %call = call double @atan2(double %7, double %9) #5, !dbg !1840
  store double %call, double* %th, align 8, !dbg !1841
  %10 = load double*, double** %ptr.addr, align 8, !dbg !1842
  %arrayidx6 = getelementptr inbounds double, double* %10, i64 0, !dbg !1842
  %11 = load double, double* %arrayidx6, align 8, !dbg !1842
  %12 = load double*, double** %ptr.addr, align 8, !dbg !1843
  %arrayidx7 = getelementptr inbounds double, double* %12, i64 3, !dbg !1843
  %13 = load double, double* %arrayidx7, align 8, !dbg !1843
  %mul = fmul double %13, 2.500000e-01, !dbg !1844
  %add = fadd double %11, %mul, !dbg !1845
  %14 = load double*, double** %ptr.addr, align 8, !dbg !1846
  %arrayidx8 = getelementptr inbounds double, double* %14, i64 0, !dbg !1846
  %15 = load double, double* %arrayidx8, align 8, !dbg !1846
  %16 = load double*, double** %ptr.addr, align 8, !dbg !1847
  %arrayidx9 = getelementptr inbounds double, double* %16, i64 3, !dbg !1847
  %17 = load double, double* %arrayidx9, align 8, !dbg !1847
  %mul10 = fmul double %17, 2.500000e-01, !dbg !1848
  %add11 = fadd double %15, %mul10, !dbg !1849
  %mul12 = fmul double %add, %add11, !dbg !1850
  %18 = load double*, double** %ptr.addr, align 8, !dbg !1851
  %arrayidx13 = getelementptr inbounds double, double* %18, i64 2, !dbg !1851
  %19 = load double, double* %arrayidx13, align 8, !dbg !1851
  %20 = load double*, double** %ptr.addr, align 8, !dbg !1852
  %arrayidx14 = getelementptr inbounds double, double* %20, i64 2, !dbg !1852
  %21 = load double, double* %arrayidx14, align 8, !dbg !1852
  %mul15 = fmul double %19, %21, !dbg !1853
  %add16 = fadd double %mul12, %mul15, !dbg !1854
  %call17 = call double @sqrt(double %add16) #5, !dbg !1855
  store double %call17, double* %r, align 8, !dbg !1856
  %22 = load double, double* %th, align 8, !dbg !1857
  %mul18 = fmul double %22, 5.000000e-01, !dbg !1858
  %call19 = call double @cos(double %mul18) #5, !dbg !1859
  %23 = load double*, double** %ptr.addr, align 8, !dbg !1860
  %arrayidx20 = getelementptr inbounds double, double* %23, i64 3, !dbg !1860
  %24 = load double, double* %arrayidx20, align 8, !dbg !1860
  %mul21 = fmul double %call19, %24, !dbg !1861
  %mul22 = fmul double %mul21, 5.000000e-01, !dbg !1862
  %25 = load double, double* %r, align 8, !dbg !1863
  %26 = load double*, double** %ptr.addr, align 8, !dbg !1864
  %arrayidx23 = getelementptr inbounds double, double* %26, i64 3, !dbg !1864
  %27 = load double, double* %arrayidx23, align 8, !dbg !1864
  %mul24 = fmul double %27, 7.500000e-01, !dbg !1865
  %sub = fsub double %25, %mul24, !dbg !1866
  %28 = load double, double* %r, align 8, !dbg !1867
  %29 = load double*, double** %ptr.addr, align 8, !dbg !1868
  %arrayidx25 = getelementptr inbounds double, double* %29, i64 3, !dbg !1868
  %30 = load double, double* %arrayidx25, align 8, !dbg !1868
  %mul26 = fmul double %30, 7.500000e-01, !dbg !1869
  %sub27 = fsub double %28, %mul26, !dbg !1870
  %mul28 = fmul double %sub, %sub27, !dbg !1871
  %31 = load double*, double** %ptr.addr, align 8, !dbg !1872
  %arrayidx29 = getelementptr inbounds double, double* %31, i64 1, !dbg !1872
  %32 = load double, double* %arrayidx29, align 8, !dbg !1872
  %33 = load double*, double** %ptr.addr, align 8, !dbg !1873
  %arrayidx30 = getelementptr inbounds double, double* %33, i64 1, !dbg !1873
  %34 = load double, double* %arrayidx30, align 8, !dbg !1873
  %mul31 = fmul double %32, %34, !dbg !1874
  %add32 = fadd double %mul28, %mul31, !dbg !1875
  %call33 = call double @sqrt(double %add32) #5, !dbg !1876
  %sub34 = fsub double %mul22, %call33, !dbg !1877
  store double %sub34, double* %temp, align 8, !dbg !1878
  %35 = load double*, double** %ptr.addr, align 8, !dbg !1879
  %arrayidx35 = getelementptr inbounds double, double* %35, i64 2, !dbg !1879
  %call36 = call dereferenceable(8) double* @_ZSt3minIdERKT_S2_S2_(double* dereferenceable(8) %arrayidx35, double* dereferenceable(8) %temp), !dbg !1880
  %36 = load double, double* %call36, align 8, !dbg !1880
  store double %36, double* %temp, align 8, !dbg !1881
  %37 = load double*, double** %ptr.addr, align 8, !dbg !1882
  %arrayidx37 = getelementptr inbounds double, double* %37, i64 3, !dbg !1882
  %38 = load double, double* %arrayidx37, align 8, !dbg !1882
  %mul38 = fmul double %38, 5.000000e-01, !dbg !1883
  %39 = load double*, double** %ptr.addr, align 8, !dbg !1884
  %arrayidx39 = getelementptr inbounds double, double* %39, i64 0, !dbg !1884
  %40 = load double, double* %arrayidx39, align 8, !dbg !1884
  %41 = load double*, double** %ptr.addr, align 8, !dbg !1885
  %arrayidx40 = getelementptr inbounds double, double* %41, i64 3, !dbg !1885
  %42 = load double, double* %arrayidx40, align 8, !dbg !1885
  %mul41 = fmul double %42, 5.000000e-01, !dbg !1886
  %sub42 = fsub double %40, %mul41, !dbg !1887
  %43 = load double*, double** %ptr.addr, align 8, !dbg !1888
  %arrayidx43 = getelementptr inbounds double, double* %43, i64 0, !dbg !1888
  %44 = load double, double* %arrayidx43, align 8, !dbg !1888
  %45 = load double*, double** %ptr.addr, align 8, !dbg !1889
  %arrayidx44 = getelementptr inbounds double, double* %45, i64 3, !dbg !1889
  %46 = load double, double* %arrayidx44, align 8, !dbg !1889
  %mul45 = fmul double %46, 5.000000e-01, !dbg !1890
  %sub46 = fsub double %44, %mul45, !dbg !1891
  %mul47 = fmul double %sub42, %sub46, !dbg !1892
  %47 = load double*, double** %ptr.addr, align 8, !dbg !1893
  %arrayidx48 = getelementptr inbounds double, double* %47, i64 2, !dbg !1893
  %48 = load double, double* %arrayidx48, align 8, !dbg !1893
  %49 = load double*, double** %ptr.addr, align 8, !dbg !1894
  %arrayidx49 = getelementptr inbounds double, double* %49, i64 2, !dbg !1894
  %50 = load double, double* %arrayidx49, align 8, !dbg !1894
  %mul50 = fmul double %48, %50, !dbg !1895
  %add51 = fadd double %mul47, %mul50, !dbg !1896
  %51 = load double*, double** %ptr.addr, align 8, !dbg !1897
  %arrayidx52 = getelementptr inbounds double, double* %51, i64 1, !dbg !1897
  %52 = load double, double* %arrayidx52, align 8, !dbg !1897
  %53 = load double*, double** %ptr.addr, align 8, !dbg !1898
  %arrayidx53 = getelementptr inbounds double, double* %53, i64 1, !dbg !1898
  %54 = load double, double* %arrayidx53, align 8, !dbg !1898
  %mul54 = fmul double %52, %54, !dbg !1899
  %add55 = fadd double %add51, %mul54, !dbg !1900
  %call56 = call double @sqrt(double %add55) #5, !dbg !1901
  %sub57 = fsub double %mul38, %call56, !dbg !1902
  store double %sub57, double* %r, align 8, !dbg !1903
  %call58 = call dereferenceable(8) double* @_ZSt3maxIdERKT_S2_S2_(double* dereferenceable(8) %temp, double* dereferenceable(8) %r), !dbg !1904
  %55 = load double, double* %call58, align 8, !dbg !1904
  %fneg = fneg double %55, !dbg !1905
  ret double %fneg, !dbg !1906
}

; Function Attrs: noinline uwtable
define dso_local double @_ZN3pov18f_cross_ellipsoidsEPdj(double* %ptr, i32 %0) #0 !dbg !1907 {
entry:
  %ptr.addr = alloca double*, align 8
  %.addr = alloca i32, align 4
  %r = alloca double, align 8
  %x2 = alloca double, align 8
  %y2 = alloca double, align 8
  %z2 = alloca double, align 8
  %ref.tmp = alloca double, align 8
  %ref.tmp15 = alloca double, align 8
  %ref.tmp27 = alloca double, align 8
  store double* %ptr, double** %ptr.addr, align 8
  call void @llvm.dbg.declare(metadata double** %ptr.addr, metadata !1908, metadata !DIExpression()), !dbg !1909
  store i32 %0, i32* %.addr, align 4
  call void @llvm.dbg.declare(metadata i32* %.addr, metadata !1910, metadata !DIExpression()), !dbg !1911
  call void @llvm.dbg.declare(metadata double* %r, metadata !1912, metadata !DIExpression()), !dbg !1913
  call void @llvm.dbg.declare(metadata double* %x2, metadata !1914, metadata !DIExpression()), !dbg !1915
  call void @llvm.dbg.declare(metadata double* %y2, metadata !1916, metadata !DIExpression()), !dbg !1917
  call void @llvm.dbg.declare(metadata double* %z2, metadata !1918, metadata !DIExpression()), !dbg !1919
  %1 = load double*, double** %ptr.addr, align 8, !dbg !1920
  %arrayidx = getelementptr inbounds double, double* %1, i64 0, !dbg !1920
  %2 = load double, double* %arrayidx, align 8, !dbg !1920
  %3 = load double*, double** %ptr.addr, align 8, !dbg !1921
  %arrayidx1 = getelementptr inbounds double, double* %3, i64 0, !dbg !1921
  %4 = load double, double* %arrayidx1, align 8, !dbg !1921
  %mul = fmul double %2, %4, !dbg !1922
  store double %mul, double* %x2, align 8, !dbg !1923
  %5 = load double*, double** %ptr.addr, align 8, !dbg !1924
  %arrayidx2 = getelementptr inbounds double, double* %5, i64 1, !dbg !1924
  %6 = load double, double* %arrayidx2, align 8, !dbg !1924
  %7 = load double*, double** %ptr.addr, align 8, !dbg !1925
  %arrayidx3 = getelementptr inbounds double, double* %7, i64 1, !dbg !1925
  %8 = load double, double* %arrayidx3, align 8, !dbg !1925
  %mul4 = fmul double %6, %8, !dbg !1926
  store double %mul4, double* %y2, align 8, !dbg !1927
  %9 = load double*, double** %ptr.addr, align 8, !dbg !1928
  %arrayidx5 = getelementptr inbounds double, double* %9, i64 2, !dbg !1928
  %10 = load double, double* %arrayidx5, align 8, !dbg !1928
  %11 = load double*, double** %ptr.addr, align 8, !dbg !1929
  %arrayidx6 = getelementptr inbounds double, double* %11, i64 2, !dbg !1929
  %12 = load double, double* %arrayidx6, align 8, !dbg !1929
  %mul7 = fmul double %10, %12, !dbg !1930
  store double %mul7, double* %z2, align 8, !dbg !1931
  %13 = load double, double* %x2, align 8, !dbg !1932
  %14 = load double*, double** %ptr.addr, align 8, !dbg !1933
  %arrayidx8 = getelementptr inbounds double, double* %14, i64 3, !dbg !1933
  %15 = load double, double* %arrayidx8, align 8, !dbg !1933
  %mul9 = fmul double %13, %15, !dbg !1934
  %16 = load double, double* %y2, align 8, !dbg !1935
  %17 = load double*, double** %ptr.addr, align 8, !dbg !1936
  %arrayidx10 = getelementptr inbounds double, double* %17, i64 3, !dbg !1936
  %18 = load double, double* %arrayidx10, align 8, !dbg !1936
  %mul11 = fmul double %16, %18, !dbg !1937
  %add = fadd double %mul9, %mul11, !dbg !1938
  %19 = load double, double* %z2, align 8, !dbg !1939
  %add12 = fadd double %add, %19, !dbg !1940
  %fneg = fneg double %add12, !dbg !1941
  %20 = load double*, double** %ptr.addr, align 8, !dbg !1942
  %arrayidx13 = getelementptr inbounds double, double* %20, i64 4, !dbg !1942
  %21 = load double, double* %arrayidx13, align 8, !dbg !1942
  %mul14 = fmul double %fneg, %21, !dbg !1943
  %call = call double @exp(double %mul14) #5, !dbg !1944
  store double %call, double* %ref.tmp, align 8, !dbg !1944
  %22 = load double, double* %x2, align 8, !dbg !1945
  %23 = load double*, double** %ptr.addr, align 8, !dbg !1946
  %arrayidx16 = getelementptr inbounds double, double* %23, i64 3, !dbg !1946
  %24 = load double, double* %arrayidx16, align 8, !dbg !1946
  %mul17 = fmul double %22, %24, !dbg !1947
  %25 = load double, double* %y2, align 8, !dbg !1948
  %add18 = fadd double %mul17, %25, !dbg !1949
  %26 = load double, double* %z2, align 8, !dbg !1950
  %27 = load double*, double** %ptr.addr, align 8, !dbg !1951
  %arrayidx19 = getelementptr inbounds double, double* %27, i64 3, !dbg !1951
  %28 = load double, double* %arrayidx19, align 8, !dbg !1951
  %mul20 = fmul double %26, %28, !dbg !1952
  %add21 = fadd double %add18, %mul20, !dbg !1953
  %fneg22 = fneg double %add21, !dbg !1954
  %29 = load double*, double** %ptr.addr, align 8, !dbg !1955
  %arrayidx23 = getelementptr inbounds double, double* %29, i64 4, !dbg !1955
  %30 = load double, double* %arrayidx23, align 8, !dbg !1955
  %mul24 = fmul double %fneg22, %30, !dbg !1956
  %call25 = call double @exp(double %mul24) #5, !dbg !1957
  store double %call25, double* %ref.tmp15, align 8, !dbg !1957
  %call26 = call dereferenceable(8) double* @_ZSt3maxIdERKT_S2_S2_(double* dereferenceable(8) %ref.tmp, double* dereferenceable(8) %ref.tmp15), !dbg !1958
  %31 = load double, double* %call26, align 8, !dbg !1958
  store double %31, double* %r, align 8, !dbg !1959
  %32 = load double, double* %x2, align 8, !dbg !1960
  %33 = load double, double* %y2, align 8, !dbg !1961
  %34 = load double*, double** %ptr.addr, align 8, !dbg !1962
  %arrayidx28 = getelementptr inbounds double, double* %34, i64 3, !dbg !1962
  %35 = load double, double* %arrayidx28, align 8, !dbg !1962
  %mul29 = fmul double %33, %35, !dbg !1963
  %add30 = fadd double %32, %mul29, !dbg !1964
  %36 = load double, double* %z2, align 8, !dbg !1965
  %37 = load double*, double** %ptr.addr, align 8, !dbg !1966
  %arrayidx31 = getelementptr inbounds double, double* %37, i64 3, !dbg !1966
  %38 = load double, double* %arrayidx31, align 8, !dbg !1966
  %mul32 = fmul double %36, %38, !dbg !1967
  %add33 = fadd double %add30, %mul32, !dbg !1968
  %fneg34 = fneg double %add33, !dbg !1969
  %39 = load double*, double** %ptr.addr, align 8, !dbg !1970
  %arrayidx35 = getelementptr inbounds double, double* %39, i64 4, !dbg !1970
  %40 = load double, double* %arrayidx35, align 8, !dbg !1970
  %mul36 = fmul double %fneg34, %40, !dbg !1971
  %call37 = call double @exp(double %mul36) #5, !dbg !1972
  store double %call37, double* %ref.tmp27, align 8, !dbg !1972
  %call38 = call dereferenceable(8) double* @_ZSt3maxIdERKT_S2_S2_(double* dereferenceable(8) %r, double* dereferenceable(8) %ref.tmp27), !dbg !1973
  %41 = load double, double* %call38, align 8, !dbg !1973
  store double %41, double* %r, align 8, !dbg !1974
  %42 = load double*, double** %ptr.addr, align 8, !dbg !1975
  %arrayidx39 = getelementptr inbounds double, double* %42, i64 6, !dbg !1975
  %43 = load double, double* %arrayidx39, align 8, !dbg !1975
  %44 = load double, double* %r, align 8, !dbg !1976
  %45 = load double*, double** %ptr.addr, align 8, !dbg !1977
  %arrayidx40 = getelementptr inbounds double, double* %45, i64 5, !dbg !1977
  %46 = load double, double* %arrayidx40, align 8, !dbg !1977
  %mul41 = fmul double %44, %46, !dbg !1978
  %sub = fsub double %43, %mul41, !dbg !1979
  ret double %sub, !dbg !1980
}

; Function Attrs: noinline uwtable
define dso_local double @_ZN3pov16f_crossed_troughEPdj(double* %ptr, i32 %0) #0 !dbg !1981 {
entry:
  %ptr.addr = alloca double*, align 8
  %.addr = alloca i32, align 4
  %r = alloca double, align 8
  %ref.tmp = alloca double, align 8
  %ref.tmp7 = alloca double, align 8
  %ref.tmp10 = alloca double, align 8
  store double* %ptr, double** %ptr.addr, align 8
  call void @llvm.dbg.declare(metadata double** %ptr.addr, metadata !1982, metadata !DIExpression()), !dbg !1983
  store i32 %0, i32* %.addr, align 4
  call void @llvm.dbg.declare(metadata i32* %.addr, metadata !1984, metadata !DIExpression()), !dbg !1985
  call void @llvm.dbg.declare(metadata double* %r, metadata !1986, metadata !DIExpression()), !dbg !1987
  %1 = load double*, double** %ptr.addr, align 8, !dbg !1988
  %arrayidx = getelementptr inbounds double, double* %1, i64 0, !dbg !1988
  %2 = load double, double* %arrayidx, align 8, !dbg !1988
  %3 = load double*, double** %ptr.addr, align 8, !dbg !1989
  %arrayidx1 = getelementptr inbounds double, double* %3, i64 0, !dbg !1989
  %4 = load double, double* %arrayidx1, align 8, !dbg !1989
  %mul = fmul double %2, %4, !dbg !1990
  %5 = load double*, double** %ptr.addr, align 8, !dbg !1991
  %arrayidx2 = getelementptr inbounds double, double* %5, i64 2, !dbg !1991
  %6 = load double, double* %arrayidx2, align 8, !dbg !1991
  %mul3 = fmul double %mul, %6, !dbg !1992
  %7 = load double*, double** %ptr.addr, align 8, !dbg !1993
  %arrayidx4 = getelementptr inbounds double, double* %7, i64 2, !dbg !1993
  %8 = load double, double* %arrayidx4, align 8, !dbg !1993
  %mul5 = fmul double %mul3, %8, !dbg !1994
  %9 = load double*, double** %ptr.addr, align 8, !dbg !1995
  %arrayidx6 = getelementptr inbounds double, double* %9, i64 1, !dbg !1995
  %10 = load double, double* %arrayidx6, align 8, !dbg !1995
  %sub = fsub double %mul5, %10, !dbg !1996
  store double %sub, double* %r, align 8, !dbg !1997
  store double 1.000000e+01, double* %ref.tmp, align 8, !dbg !1998
  %11 = load double*, double** %ptr.addr, align 8, !dbg !1999
  %arrayidx8 = getelementptr inbounds double, double* %11, i64 3, !dbg !1999
  %12 = load double, double* %arrayidx8, align 8, !dbg !1999
  %13 = load double, double* %r, align 8, !dbg !2000
  %mul9 = fmul double %12, %13, !dbg !2001
  store double %mul9, double* %ref.tmp7, align 8, !dbg !1999
  store double -1.000000e+01, double* %ref.tmp10, align 8, !dbg !2002
  %call = call dereferenceable(8) double* @_ZSt3maxIdERKT_S2_S2_(double* dereferenceable(8) %ref.tmp7, double* dereferenceable(8) %ref.tmp10), !dbg !2003
  %call11 = call dereferenceable(8) double* @_ZSt3minIdERKT_S2_S2_(double* dereferenceable(8) %ref.tmp, double* dereferenceable(8) %call), !dbg !2004
  %14 = load double, double* %call11, align 8, !dbg !2004
  ret double %14, !dbg !2005
}

; Function Attrs: noinline uwtable
define dso_local double @_ZN3pov14f_cubic_saddleEPdj(double* %ptr, i32 %0) #0 !dbg !2006 {
entry:
  %ptr.addr = alloca double*, align 8
  %.addr = alloca i32, align 4
  %r = alloca double, align 8
  %ref.tmp = alloca double, align 8
  %ref.tmp11 = alloca double, align 8
  %ref.tmp14 = alloca double, align 8
  store double* %ptr, double** %ptr.addr, align 8
  call void @llvm.dbg.declare(metadata double** %ptr.addr, metadata !2007, metadata !DIExpression()), !dbg !2008
  store i32 %0, i32* %.addr, align 4
  call void @llvm.dbg.declare(metadata i32* %.addr, metadata !2009, metadata !DIExpression()), !dbg !2010
  call void @llvm.dbg.declare(metadata double* %r, metadata !2011, metadata !DIExpression()), !dbg !2012
  %1 = load double*, double** %ptr.addr, align 8, !dbg !2013
  %arrayidx = getelementptr inbounds double, double* %1, i64 0, !dbg !2013
  %2 = load double, double* %arrayidx, align 8, !dbg !2013
  %3 = load double*, double** %ptr.addr, align 8, !dbg !2014
  %arrayidx1 = getelementptr inbounds double, double* %3, i64 0, !dbg !2014
  %4 = load double, double* %arrayidx1, align 8, !dbg !2014
  %mul = fmul double %2, %4, !dbg !2015
  %5 = load double*, double** %ptr.addr, align 8, !dbg !2016
  %arrayidx2 = getelementptr inbounds double, double* %5, i64 0, !dbg !2016
  %6 = load double, double* %arrayidx2, align 8, !dbg !2016
  %mul3 = fmul double %mul, %6, !dbg !2017
  %7 = load double*, double** %ptr.addr, align 8, !dbg !2018
  %arrayidx4 = getelementptr inbounds double, double* %7, i64 1, !dbg !2018
  %8 = load double, double* %arrayidx4, align 8, !dbg !2018
  %9 = load double*, double** %ptr.addr, align 8, !dbg !2019
  %arrayidx5 = getelementptr inbounds double, double* %9, i64 1, !dbg !2019
  %10 = load double, double* %arrayidx5, align 8, !dbg !2019
  %mul6 = fmul double %8, %10, !dbg !2020
  %11 = load double*, double** %ptr.addr, align 8, !dbg !2021
  %arrayidx7 = getelementptr inbounds double, double* %11, i64 1, !dbg !2021
  %12 = load double, double* %arrayidx7, align 8, !dbg !2021
  %mul8 = fmul double %mul6, %12, !dbg !2022
  %sub = fsub double %mul3, %mul8, !dbg !2023
  %13 = load double*, double** %ptr.addr, align 8, !dbg !2024
  %arrayidx9 = getelementptr inbounds double, double* %13, i64 2, !dbg !2024
  %14 = load double, double* %arrayidx9, align 8, !dbg !2024
  %sub10 = fsub double %sub, %14, !dbg !2025
  %fneg = fneg double %sub10, !dbg !2026
  store double %fneg, double* %r, align 8, !dbg !2027
  store double 1.000000e+01, double* %ref.tmp, align 8, !dbg !2028
  %15 = load double*, double** %ptr.addr, align 8, !dbg !2029
  %arrayidx12 = getelementptr inbounds double, double* %15, i64 3, !dbg !2029
  %16 = load double, double* %arrayidx12, align 8, !dbg !2029
  %17 = load double, double* %r, align 8, !dbg !2030
  %mul13 = fmul double %16, %17, !dbg !2031
  store double %mul13, double* %ref.tmp11, align 8, !dbg !2029
  store double -1.000000e+01, double* %ref.tmp14, align 8, !dbg !2032
  %call = call dereferenceable(8) double* @_ZSt3maxIdERKT_S2_S2_(double* dereferenceable(8) %ref.tmp11, double* dereferenceable(8) %ref.tmp14), !dbg !2033
  %call15 = call dereferenceable(8) double* @_ZSt3minIdERKT_S2_S2_(double* dereferenceable(8) %ref.tmp, double* dereferenceable(8) %call), !dbg !2034
  %18 = load double, double* %call15, align 8, !dbg !2034
  ret double %18, !dbg !2035
}

; Function Attrs: noinline uwtable
define dso_local double @_ZN3pov9f_cushionEPdj(double* %ptr, i32 %0) #0 !dbg !2036 {
entry:
  %ptr.addr = alloca double*, align 8
  %.addr = alloca i32, align 4
  %r = alloca double, align 8
  %x2 = alloca double, align 8
  %y2 = alloca double, align 8
  %z2 = alloca double, align 8
  %ref.tmp = alloca double, align 8
  %ref.tmp37 = alloca double, align 8
  %ref.tmp40 = alloca double, align 8
  store double* %ptr, double** %ptr.addr, align 8
  call void @llvm.dbg.declare(metadata double** %ptr.addr, metadata !2037, metadata !DIExpression()), !dbg !2038
  store i32 %0, i32* %.addr, align 4
  call void @llvm.dbg.declare(metadata i32* %.addr, metadata !2039, metadata !DIExpression()), !dbg !2040
  call void @llvm.dbg.declare(metadata double* %r, metadata !2041, metadata !DIExpression()), !dbg !2042
  call void @llvm.dbg.declare(metadata double* %x2, metadata !2043, metadata !DIExpression()), !dbg !2044
  %1 = load double*, double** %ptr.addr, align 8, !dbg !2045
  %arrayidx = getelementptr inbounds double, double* %1, i64 0, !dbg !2045
  %2 = load double, double* %arrayidx, align 8, !dbg !2045
  %3 = load double*, double** %ptr.addr, align 8, !dbg !2046
  %arrayidx1 = getelementptr inbounds double, double* %3, i64 0, !dbg !2046
  %4 = load double, double* %arrayidx1, align 8, !dbg !2046
  %mul = fmul double %2, %4, !dbg !2047
  store double %mul, double* %x2, align 8, !dbg !2044
  call void @llvm.dbg.declare(metadata double* %y2, metadata !2048, metadata !DIExpression()), !dbg !2049
  %5 = load double*, double** %ptr.addr, align 8, !dbg !2050
  %arrayidx2 = getelementptr inbounds double, double* %5, i64 1, !dbg !2050
  %6 = load double, double* %arrayidx2, align 8, !dbg !2050
  %7 = load double*, double** %ptr.addr, align 8, !dbg !2051
  %arrayidx3 = getelementptr inbounds double, double* %7, i64 1, !dbg !2051
  %8 = load double, double* %arrayidx3, align 8, !dbg !2051
  %mul4 = fmul double %6, %8, !dbg !2052
  store double %mul4, double* %y2, align 8, !dbg !2049
  call void @llvm.dbg.declare(metadata double* %z2, metadata !2053, metadata !DIExpression()), !dbg !2054
  %9 = load double*, double** %ptr.addr, align 8, !dbg !2055
  %arrayidx5 = getelementptr inbounds double, double* %9, i64 2, !dbg !2055
  %10 = load double, double* %arrayidx5, align 8, !dbg !2055
  %11 = load double*, double** %ptr.addr, align 8, !dbg !2056
  %arrayidx6 = getelementptr inbounds double, double* %11, i64 2, !dbg !2056
  %12 = load double, double* %arrayidx6, align 8, !dbg !2056
  %mul7 = fmul double %10, %12, !dbg !2057
  store double %mul7, double* %z2, align 8, !dbg !2054
  %13 = load double, double* %z2, align 8, !dbg !2058
  %14 = load double, double* %x2, align 8, !dbg !2059
  %mul8 = fmul double %13, %14, !dbg !2060
  %15 = load double, double* %z2, align 8, !dbg !2061
  %16 = load double, double* %z2, align 8, !dbg !2062
  %mul9 = fmul double %15, %16, !dbg !2063
  %sub = fsub double %mul8, %mul9, !dbg !2064
  %17 = load double*, double** %ptr.addr, align 8, !dbg !2065
  %arrayidx10 = getelementptr inbounds double, double* %17, i64 2, !dbg !2065
  %18 = load double, double* %arrayidx10, align 8, !dbg !2065
  %mul11 = fmul double 2.000000e+00, %18, !dbg !2066
  %19 = load double, double* %x2, align 8, !dbg !2067
  %mul12 = fmul double %mul11, %19, !dbg !2068
  %sub13 = fsub double %sub, %mul12, !dbg !2069
  %20 = load double, double* %z2, align 8, !dbg !2070
  %mul14 = fmul double 2.000000e+00, %20, !dbg !2071
  %21 = load double*, double** %ptr.addr, align 8, !dbg !2072
  %arrayidx15 = getelementptr inbounds double, double* %21, i64 2, !dbg !2072
  %22 = load double, double* %arrayidx15, align 8, !dbg !2072
  %mul16 = fmul double %mul14, %22, !dbg !2073
  %add = fadd double %sub13, %mul16, !dbg !2074
  %23 = load double, double* %x2, align 8, !dbg !2075
  %add17 = fadd double %add, %23, !dbg !2076
  %24 = load double, double* %z2, align 8, !dbg !2077
  %sub18 = fsub double %add17, %24, !dbg !2078
  %25 = load double, double* %x2, align 8, !dbg !2079
  %26 = load double*, double** %ptr.addr, align 8, !dbg !2080
  %arrayidx19 = getelementptr inbounds double, double* %26, i64 2, !dbg !2080
  %27 = load double, double* %arrayidx19, align 8, !dbg !2080
  %sub20 = fsub double %25, %27, !dbg !2081
  %28 = load double, double* %x2, align 8, !dbg !2082
  %29 = load double*, double** %ptr.addr, align 8, !dbg !2083
  %arrayidx21 = getelementptr inbounds double, double* %29, i64 2, !dbg !2083
  %30 = load double, double* %arrayidx21, align 8, !dbg !2083
  %sub22 = fsub double %28, %30, !dbg !2084
  %mul23 = fmul double %sub20, %sub22, !dbg !2085
  %sub24 = fsub double %sub18, %mul23, !dbg !2086
  %31 = load double, double* %y2, align 8, !dbg !2087
  %32 = load double, double* %y2, align 8, !dbg !2088
  %mul25 = fmul double %31, %32, !dbg !2089
  %sub26 = fsub double %sub24, %mul25, !dbg !2090
  %33 = load double, double* %x2, align 8, !dbg !2091
  %mul27 = fmul double 2.000000e+00, %33, !dbg !2092
  %34 = load double, double* %y2, align 8, !dbg !2093
  %mul28 = fmul double %mul27, %34, !dbg !2094
  %sub29 = fsub double %sub26, %mul28, !dbg !2095
  %35 = load double, double* %y2, align 8, !dbg !2096
  %36 = load double, double* %z2, align 8, !dbg !2097
  %mul30 = fmul double %35, %36, !dbg !2098
  %sub31 = fsub double %sub29, %mul30, !dbg !2099
  %37 = load double, double* %y2, align 8, !dbg !2100
  %mul32 = fmul double 2.000000e+00, %37, !dbg !2101
  %38 = load double*, double** %ptr.addr, align 8, !dbg !2102
  %arrayidx33 = getelementptr inbounds double, double* %38, i64 2, !dbg !2102
  %39 = load double, double* %arrayidx33, align 8, !dbg !2102
  %mul34 = fmul double %mul32, %39, !dbg !2103
  %add35 = fadd double %sub31, %mul34, !dbg !2104
  %40 = load double, double* %y2, align 8, !dbg !2105
  %add36 = fadd double %add35, %40, !dbg !2106
  store double %add36, double* %r, align 8, !dbg !2107
  store double 1.000000e+01, double* %ref.tmp, align 8, !dbg !2108
  %41 = load double*, double** %ptr.addr, align 8, !dbg !2109
  %arrayidx38 = getelementptr inbounds double, double* %41, i64 3, !dbg !2109
  %42 = load double, double* %arrayidx38, align 8, !dbg !2109
  %43 = load double, double* %r, align 8, !dbg !2110
  %mul39 = fmul double %42, %43, !dbg !2111
  store double %mul39, double* %ref.tmp37, align 8, !dbg !2109
  store double -1.000000e+01, double* %ref.tmp40, align 8, !dbg !2112
  %call = call dereferenceable(8) double* @_ZSt3maxIdERKT_S2_S2_(double* dereferenceable(8) %ref.tmp37, double* dereferenceable(8) %ref.tmp40), !dbg !2113
  %call41 = call dereferenceable(8) double* @_ZSt3minIdERKT_S2_S2_(double* dereferenceable(8) %ref.tmp, double* dereferenceable(8) %call), !dbg !2114
  %44 = load double, double* %call41, align 8, !dbg !2114
  ret double %44, !dbg !2115
}

; Function Attrs: noinline uwtable
define dso_local double @_ZN3pov14f_devils_curveEPdj(double* %ptr, i32 %0) #0 !dbg !2116 {
entry:
  %ptr.addr = alloca double*, align 8
  %.addr = alloca i32, align 4
  %r = alloca double, align 8
  %x2 = alloca double, align 8
  %y2 = alloca double, align 8
  %z2 = alloca double, align 8
  %ref.tmp = alloca double, align 8
  %ref.tmp18 = alloca double, align 8
  %ref.tmp21 = alloca double, align 8
  store double* %ptr, double** %ptr.addr, align 8
  call void @llvm.dbg.declare(metadata double** %ptr.addr, metadata !2117, metadata !DIExpression()), !dbg !2118
  store i32 %0, i32* %.addr, align 4
  call void @llvm.dbg.declare(metadata i32* %.addr, metadata !2119, metadata !DIExpression()), !dbg !2120
  call void @llvm.dbg.declare(metadata double* %r, metadata !2121, metadata !DIExpression()), !dbg !2122
  call void @llvm.dbg.declare(metadata double* %x2, metadata !2123, metadata !DIExpression()), !dbg !2124
  %1 = load double*, double** %ptr.addr, align 8, !dbg !2125
  %arrayidx = getelementptr inbounds double, double* %1, i64 0, !dbg !2125
  %2 = load double, double* %arrayidx, align 8, !dbg !2125
  %3 = load double*, double** %ptr.addr, align 8, !dbg !2126
  %arrayidx1 = getelementptr inbounds double, double* %3, i64 0, !dbg !2126
  %4 = load double, double* %arrayidx1, align 8, !dbg !2126
  %mul = fmul double %2, %4, !dbg !2127
  store double %mul, double* %x2, align 8, !dbg !2124
  call void @llvm.dbg.declare(metadata double* %y2, metadata !2128, metadata !DIExpression()), !dbg !2129
  %5 = load double*, double** %ptr.addr, align 8, !dbg !2130
  %arrayidx2 = getelementptr inbounds double, double* %5, i64 1, !dbg !2130
  %6 = load double, double* %arrayidx2, align 8, !dbg !2130
  %7 = load double*, double** %ptr.addr, align 8, !dbg !2131
  %arrayidx3 = getelementptr inbounds double, double* %7, i64 1, !dbg !2131
  %8 = load double, double* %arrayidx3, align 8, !dbg !2131
  %mul4 = fmul double %6, %8, !dbg !2132
  store double %mul4, double* %y2, align 8, !dbg !2129
  call void @llvm.dbg.declare(metadata double* %z2, metadata !2133, metadata !DIExpression()), !dbg !2134
  %9 = load double*, double** %ptr.addr, align 8, !dbg !2135
  %arrayidx5 = getelementptr inbounds double, double* %9, i64 2, !dbg !2135
  %10 = load double, double* %arrayidx5, align 8, !dbg !2135
  %11 = load double*, double** %ptr.addr, align 8, !dbg !2136
  %arrayidx6 = getelementptr inbounds double, double* %11, i64 2, !dbg !2136
  %12 = load double, double* %arrayidx6, align 8, !dbg !2136
  %mul7 = fmul double %10, %12, !dbg !2137
  store double %mul7, double* %z2, align 8, !dbg !2134
  %13 = load double, double* %x2, align 8, !dbg !2138
  %14 = load double, double* %x2, align 8, !dbg !2139
  %mul8 = fmul double %13, %14, !dbg !2140
  %15 = load double, double* %x2, align 8, !dbg !2141
  %mul9 = fmul double 2.000000e+00, %15, !dbg !2142
  %16 = load double, double* %z2, align 8, !dbg !2143
  %mul10 = fmul double %mul9, %16, !dbg !2144
  %add = fadd double %mul8, %mul10, !dbg !2145
  %17 = load double, double* %x2, align 8, !dbg !2146
  %mul11 = fmul double 3.600000e-01, %17, !dbg !2147
  %sub = fsub double %add, %mul11, !dbg !2148
  %18 = load double, double* %y2, align 8, !dbg !2149
  %19 = load double, double* %y2, align 8, !dbg !2150
  %mul12 = fmul double %18, %19, !dbg !2151
  %sub13 = fsub double %sub, %mul12, !dbg !2152
  %20 = load double, double* %y2, align 8, !dbg !2153
  %mul14 = fmul double 2.500000e-01, %20, !dbg !2154
  %add15 = fadd double %sub13, %mul14, !dbg !2155
  %21 = load double, double* %z2, align 8, !dbg !2156
  %22 = load double, double* %z2, align 8, !dbg !2157
  %mul16 = fmul double %21, %22, !dbg !2158
  %add17 = fadd double %add15, %mul16, !dbg !2159
  %fneg = fneg double %add17, !dbg !2160
  store double %fneg, double* %r, align 8, !dbg !2161
  store double 1.000000e+01, double* %ref.tmp, align 8, !dbg !2162
  %23 = load double*, double** %ptr.addr, align 8, !dbg !2163
  %arrayidx19 = getelementptr inbounds double, double* %23, i64 3, !dbg !2163
  %24 = load double, double* %arrayidx19, align 8, !dbg !2163
  %25 = load double, double* %r, align 8, !dbg !2164
  %mul20 = fmul double %24, %25, !dbg !2165
  store double %mul20, double* %ref.tmp18, align 8, !dbg !2163
  store double -1.000000e+01, double* %ref.tmp21, align 8, !dbg !2166
  %call = call dereferenceable(8) double* @_ZSt3maxIdERKT_S2_S2_(double* dereferenceable(8) %ref.tmp18, double* dereferenceable(8) %ref.tmp21), !dbg !2167
  %call22 = call dereferenceable(8) double* @_ZSt3minIdERKT_S2_S2_(double* dereferenceable(8) %ref.tmp, double* dereferenceable(8) %call), !dbg !2168
  %26 = load double, double* %call22, align 8, !dbg !2168
  ret double %26, !dbg !2169
}

; Function Attrs: noinline uwtable
define dso_local double @_ZN3pov17f_devils_curve_2dEPdj(double* %ptr, i32 %0) #0 !dbg !2170 {
entry:
  %ptr.addr = alloca double*, align 8
  %.addr = alloca i32, align 4
  %r = alloca double, align 8
  %x2 = alloca double, align 8
  %y2 = alloca double, align 8
  %th = alloca double, align 8
  %ref.tmp = alloca double, align 8
  %ref.tmp47 = alloca double, align 8
  %ref.tmp50 = alloca double, align 8
  store double* %ptr, double** %ptr.addr, align 8
  call void @llvm.dbg.declare(metadata double** %ptr.addr, metadata !2171, metadata !DIExpression()), !dbg !2172
  store i32 %0, i32* %.addr, align 4
  call void @llvm.dbg.declare(metadata i32* %.addr, metadata !2173, metadata !DIExpression()), !dbg !2174
  call void @llvm.dbg.declare(metadata double* %r, metadata !2175, metadata !DIExpression()), !dbg !2176
  call void @llvm.dbg.declare(metadata double* %x2, metadata !2177, metadata !DIExpression()), !dbg !2178
  %1 = load double*, double** %ptr.addr, align 8, !dbg !2179
  %arrayidx = getelementptr inbounds double, double* %1, i64 0, !dbg !2179
  %2 = load double, double* %arrayidx, align 8, !dbg !2179
  %3 = load double*, double** %ptr.addr, align 8, !dbg !2180
  %arrayidx1 = getelementptr inbounds double, double* %3, i64 0, !dbg !2180
  %4 = load double, double* %arrayidx1, align 8, !dbg !2180
  %mul = fmul double %2, %4, !dbg !2181
  store double %mul, double* %x2, align 8, !dbg !2178
  call void @llvm.dbg.declare(metadata double* %y2, metadata !2182, metadata !DIExpression()), !dbg !2183
  %5 = load double*, double** %ptr.addr, align 8, !dbg !2184
  %arrayidx2 = getelementptr inbounds double, double* %5, i64 1, !dbg !2184
  %6 = load double, double* %arrayidx2, align 8, !dbg !2184
  %7 = load double*, double** %ptr.addr, align 8, !dbg !2185
  %arrayidx3 = getelementptr inbounds double, double* %7, i64 1, !dbg !2185
  %8 = load double, double* %arrayidx3, align 8, !dbg !2185
  %mul4 = fmul double %6, %8, !dbg !2186
  store double %mul4, double* %y2, align 8, !dbg !2183
  call void @llvm.dbg.declare(metadata double* %th, metadata !2187, metadata !DIExpression()), !dbg !2188
  %9 = load double*, double** %ptr.addr, align 8, !dbg !2189
  %arrayidx5 = getelementptr inbounds double, double* %9, i64 6, !dbg !2189
  %10 = load double, double* %arrayidx5, align 8, !dbg !2189
  %cmp = fcmp ogt double %10, 0.000000e+00, !dbg !2189
  br i1 %cmp, label %if.then, label %if.end35, !dbg !2191

if.then:                                          ; preds = %entry
  %11 = load double, double* %x2, align 8, !dbg !2192
  %12 = load double*, double** %ptr.addr, align 8, !dbg !2192
  %arrayidx6 = getelementptr inbounds double, double* %12, i64 2, !dbg !2192
  %13 = load double, double* %arrayidx6, align 8, !dbg !2192
  %14 = load double*, double** %ptr.addr, align 8, !dbg !2192
  %arrayidx7 = getelementptr inbounds double, double* %14, i64 2, !dbg !2192
  %15 = load double, double* %arrayidx7, align 8, !dbg !2192
  %mul8 = fmul double %13, %15, !dbg !2192
  %add = fadd double %11, %mul8, !dbg !2192
  %call = call double @sqrt(double %add) #5, !dbg !2192
  %16 = load double*, double** %ptr.addr, align 8, !dbg !2192
  %arrayidx9 = getelementptr inbounds double, double* %16, i64 7, !dbg !2192
  %17 = load double, double* %arrayidx9, align 8, !dbg !2192
  %sub = fsub double %call, %17, !dbg !2192
  store double %sub, double* %x2, align 8, !dbg !2192
  %18 = load double*, double** %ptr.addr, align 8, !dbg !2192
  %arrayidx10 = getelementptr inbounds double, double* %18, i64 8, !dbg !2192
  %19 = load double, double* %arrayidx10, align 8, !dbg !2192
  %mul11 = fmul double %19, 0x3F91DF46A2529D39, !dbg !2192
  store double %mul11, double* %th, align 8, !dbg !2192
  %20 = load double, double* %th, align 8, !dbg !2194
  %cmp12 = fcmp une double %20, 0.000000e+00, !dbg !2194
  br i1 %cmp12, label %if.then13, label %if.else, !dbg !2192

if.then13:                                        ; preds = %if.then
  %21 = load double, double* %x2, align 8, !dbg !2196
  %22 = load double, double* %th, align 8, !dbg !2196
  %call14 = call double @cos(double %22) #5, !dbg !2196
  %mul15 = fmul double %21, %call14, !dbg !2196
  %23 = load double*, double** %ptr.addr, align 8, !dbg !2196
  %arrayidx16 = getelementptr inbounds double, double* %23, i64 1, !dbg !2196
  %24 = load double, double* %arrayidx16, align 8, !dbg !2196
  %25 = load double, double* %th, align 8, !dbg !2196
  %call17 = call double @sin(double %25) #5, !dbg !2196
  %mul18 = fmul double %24, %call17, !dbg !2196
  %sub19 = fsub double %mul15, %mul18, !dbg !2196
  %26 = load double*, double** %ptr.addr, align 8, !dbg !2196
  %arrayidx20 = getelementptr inbounds double, double* %26, i64 0, !dbg !2196
  store double %sub19, double* %arrayidx20, align 8, !dbg !2196
  %27 = load double, double* %x2, align 8, !dbg !2196
  %28 = load double, double* %th, align 8, !dbg !2196
  %call21 = call double @sin(double %28) #5, !dbg !2196
  %mul22 = fmul double %27, %call21, !dbg !2196
  %29 = load double*, double** %ptr.addr, align 8, !dbg !2196
  %arrayidx23 = getelementptr inbounds double, double* %29, i64 1, !dbg !2196
  %30 = load double, double* %arrayidx23, align 8, !dbg !2196
  %31 = load double, double* %th, align 8, !dbg !2196
  %call24 = call double @cos(double %31) #5, !dbg !2196
  %mul25 = fmul double %30, %call24, !dbg !2196
  %add26 = fadd double %mul22, %mul25, !dbg !2196
  %32 = load double*, double** %ptr.addr, align 8, !dbg !2196
  %arrayidx27 = getelementptr inbounds double, double* %32, i64 1, !dbg !2196
  store double %add26, double* %arrayidx27, align 8, !dbg !2196
  br label %if.end, !dbg !2196

if.else:                                          ; preds = %if.then
  %33 = load double, double* %x2, align 8, !dbg !2194
  %34 = load double*, double** %ptr.addr, align 8, !dbg !2194
  %arrayidx28 = getelementptr inbounds double, double* %34, i64 0, !dbg !2194
  store double %33, double* %arrayidx28, align 8, !dbg !2194
  br label %if.end

if.end:                                           ; preds = %if.else, %if.then13
  %35 = load double*, double** %ptr.addr, align 8, !dbg !2192
  %arrayidx29 = getelementptr inbounds double, double* %35, i64 0, !dbg !2192
  %36 = load double, double* %arrayidx29, align 8, !dbg !2192
  %37 = load double*, double** %ptr.addr, align 8, !dbg !2192
  %arrayidx30 = getelementptr inbounds double, double* %37, i64 0, !dbg !2192
  %38 = load double, double* %arrayidx30, align 8, !dbg !2192
  %mul31 = fmul double %36, %38, !dbg !2192
  store double %mul31, double* %x2, align 8, !dbg !2192
  %39 = load double*, double** %ptr.addr, align 8, !dbg !2192
  %arrayidx32 = getelementptr inbounds double, double* %39, i64 1, !dbg !2192
  %40 = load double, double* %arrayidx32, align 8, !dbg !2192
  %41 = load double*, double** %ptr.addr, align 8, !dbg !2192
  %arrayidx33 = getelementptr inbounds double, double* %41, i64 1, !dbg !2192
  %42 = load double, double* %arrayidx33, align 8, !dbg !2192
  %mul34 = fmul double %40, %42, !dbg !2192
  store double %mul34, double* %y2, align 8, !dbg !2192
  br label %if.end35, !dbg !2192

if.end35:                                         ; preds = %if.end, %entry
  %43 = load double, double* %x2, align 8, !dbg !2198
  %44 = load double, double* %x2, align 8, !dbg !2199
  %45 = load double*, double** %ptr.addr, align 8, !dbg !2200
  %arrayidx36 = getelementptr inbounds double, double* %45, i64 4, !dbg !2200
  %46 = load double, double* %arrayidx36, align 8, !dbg !2200
  %47 = load double*, double** %ptr.addr, align 8, !dbg !2201
  %arrayidx37 = getelementptr inbounds double, double* %47, i64 4, !dbg !2201
  %48 = load double, double* %arrayidx37, align 8, !dbg !2201
  %mul38 = fmul double %46, %48, !dbg !2202
  %sub39 = fsub double %44, %mul38, !dbg !2203
  %mul40 = fmul double %43, %sub39, !dbg !2204
  %49 = load double, double* %y2, align 8, !dbg !2205
  %50 = load double, double* %y2, align 8, !dbg !2206
  %51 = load double*, double** %ptr.addr, align 8, !dbg !2207
  %arrayidx41 = getelementptr inbounds double, double* %51, i64 5, !dbg !2207
  %52 = load double, double* %arrayidx41, align 8, !dbg !2207
  %53 = load double*, double** %ptr.addr, align 8, !dbg !2208
  %arrayidx42 = getelementptr inbounds double, double* %53, i64 5, !dbg !2208
  %54 = load double, double* %arrayidx42, align 8, !dbg !2208
  %mul43 = fmul double %52, %54, !dbg !2209
  %sub44 = fsub double %50, %mul43, !dbg !2210
  %mul45 = fmul double %49, %sub44, !dbg !2211
  %sub46 = fsub double %mul40, %mul45, !dbg !2212
  %fneg = fneg double %sub46, !dbg !2213
  store double %fneg, double* %r, align 8, !dbg !2214
  store double 1.000000e+01, double* %ref.tmp, align 8, !dbg !2215
  %55 = load double*, double** %ptr.addr, align 8, !dbg !2216
  %arrayidx48 = getelementptr inbounds double, double* %55, i64 3, !dbg !2216
  %56 = load double, double* %arrayidx48, align 8, !dbg !2216
  %57 = load double, double* %r, align 8, !dbg !2217
  %mul49 = fmul double %56, %57, !dbg !2218
  store double %mul49, double* %ref.tmp47, align 8, !dbg !2216
  store double -1.000000e+01, double* %ref.tmp50, align 8, !dbg !2219
  %call51 = call dereferenceable(8) double* @_ZSt3maxIdERKT_S2_S2_(double* dereferenceable(8) %ref.tmp47, double* dereferenceable(8) %ref.tmp50), !dbg !2220
  %call52 = call dereferenceable(8) double* @_ZSt3minIdERKT_S2_S2_(double* dereferenceable(8) %ref.tmp, double* dereferenceable(8) %call51), !dbg !2221
  %58 = load double, double* %call52, align 8, !dbg !2221
  ret double %58, !dbg !2222
}

; Function Attrs: noinline uwtable
define dso_local double @_ZN3pov14f_dupin_cyclidEPdj(double* %ptr, i32 %0) #0 !dbg !2223 {
entry:
  %ptr.addr = alloca double*, align 8
  %.addr = alloca i32, align 4
  %r = alloca double, align 8
  %r2 = alloca double, align 8
  %x2 = alloca double, align 8
  %y2 = alloca double, align 8
  %z2 = alloca double, align 8
  %ph = alloca double, align 8
  %th = alloca double, align 8
  %p1 = alloca double, align 8
  %p2 = alloca double, align 8
  %p3 = alloca double, align 8
  %p4 = alloca double, align 8
  %ref.tmp = alloca double, align 8
  %ref.tmp112 = alloca double, align 8
  %ref.tmp115 = alloca double, align 8
  store double* %ptr, double** %ptr.addr, align 8
  call void @llvm.dbg.declare(metadata double** %ptr.addr, metadata !2224, metadata !DIExpression()), !dbg !2225
  store i32 %0, i32* %.addr, align 4
  call void @llvm.dbg.declare(metadata i32* %.addr, metadata !2226, metadata !DIExpression()), !dbg !2227
  call void @llvm.dbg.declare(metadata double* %r, metadata !2228, metadata !DIExpression()), !dbg !2229
  call void @llvm.dbg.declare(metadata double* %r2, metadata !2230, metadata !DIExpression()), !dbg !2231
  call void @llvm.dbg.declare(metadata double* %x2, metadata !2232, metadata !DIExpression()), !dbg !2233
  %1 = load double*, double** %ptr.addr, align 8, !dbg !2234
  %arrayidx = getelementptr inbounds double, double* %1, i64 0, !dbg !2234
  %2 = load double, double* %arrayidx, align 8, !dbg !2234
  %3 = load double*, double** %ptr.addr, align 8, !dbg !2235
  %arrayidx1 = getelementptr inbounds double, double* %3, i64 0, !dbg !2235
  %4 = load double, double* %arrayidx1, align 8, !dbg !2235
  %mul = fmul double %2, %4, !dbg !2236
  store double %mul, double* %x2, align 8, !dbg !2233
  call void @llvm.dbg.declare(metadata double* %y2, metadata !2237, metadata !DIExpression()), !dbg !2238
  %5 = load double*, double** %ptr.addr, align 8, !dbg !2239
  %arrayidx2 = getelementptr inbounds double, double* %5, i64 1, !dbg !2239
  %6 = load double, double* %arrayidx2, align 8, !dbg !2239
  %7 = load double*, double** %ptr.addr, align 8, !dbg !2240
  %arrayidx3 = getelementptr inbounds double, double* %7, i64 1, !dbg !2240
  %8 = load double, double* %arrayidx3, align 8, !dbg !2240
  %mul4 = fmul double %6, %8, !dbg !2241
  store double %mul4, double* %y2, align 8, !dbg !2238
  call void @llvm.dbg.declare(metadata double* %z2, metadata !2242, metadata !DIExpression()), !dbg !2243
  %9 = load double*, double** %ptr.addr, align 8, !dbg !2244
  %arrayidx5 = getelementptr inbounds double, double* %9, i64 2, !dbg !2244
  %10 = load double, double* %arrayidx5, align 8, !dbg !2244
  %11 = load double*, double** %ptr.addr, align 8, !dbg !2245
  %arrayidx6 = getelementptr inbounds double, double* %11, i64 2, !dbg !2245
  %12 = load double, double* %arrayidx6, align 8, !dbg !2245
  %mul7 = fmul double %10, %12, !dbg !2246
  store double %mul7, double* %z2, align 8, !dbg !2243
  call void @llvm.dbg.declare(metadata double* %ph, metadata !2247, metadata !DIExpression()), !dbg !2248
  call void @llvm.dbg.declare(metadata double* %th, metadata !2249, metadata !DIExpression()), !dbg !2250
  call void @llvm.dbg.declare(metadata double* %p1, metadata !2251, metadata !DIExpression()), !dbg !2252
  call void @llvm.dbg.declare(metadata double* %p2, metadata !2253, metadata !DIExpression()), !dbg !2254
  call void @llvm.dbg.declare(metadata double* %p3, metadata !2255, metadata !DIExpression()), !dbg !2256
  call void @llvm.dbg.declare(metadata double* %p4, metadata !2257, metadata !DIExpression()), !dbg !2258
  %13 = load double*, double** %ptr.addr, align 8, !dbg !2259
  %arrayidx8 = getelementptr inbounds double, double* %13, i64 8, !dbg !2259
  %14 = load double, double* %arrayidx8, align 8, !dbg !2259
  %15 = load double*, double** %ptr.addr, align 8, !dbg !2260
  %arrayidx9 = getelementptr inbounds double, double* %15, i64 8, !dbg !2260
  %16 = load double, double* %arrayidx9, align 8, !dbg !2260
  %mul10 = fmul double %14, %16, !dbg !2261
  store double %mul10, double* %r2, align 8, !dbg !2262
  %17 = load double*, double** %ptr.addr, align 8, !dbg !2263
  %arrayidx11 = getelementptr inbounds double, double* %17, i64 5, !dbg !2263
  %18 = load double, double* %arrayidx11, align 8, !dbg !2263
  %19 = load double*, double** %ptr.addr, align 8, !dbg !2264
  %arrayidx12 = getelementptr inbounds double, double* %19, i64 5, !dbg !2264
  %20 = load double, double* %arrayidx12, align 8, !dbg !2264
  %mul13 = fmul double %18, %20, !dbg !2265
  store double %mul13, double* %ph, align 8, !dbg !2266
  %21 = load double*, double** %ptr.addr, align 8, !dbg !2267
  %arrayidx14 = getelementptr inbounds double, double* %21, i64 7, !dbg !2267
  %22 = load double, double* %arrayidx14, align 8, !dbg !2267
  %23 = load double*, double** %ptr.addr, align 8, !dbg !2268
  %arrayidx15 = getelementptr inbounds double, double* %23, i64 7, !dbg !2268
  %24 = load double, double* %arrayidx15, align 8, !dbg !2268
  %mul16 = fmul double %22, %24, !dbg !2269
  store double %mul16, double* %th, align 8, !dbg !2270
  %25 = load double, double* %ph, align 8, !dbg !2271
  %26 = load double, double* %th, align 8, !dbg !2272
  %sub = fsub double %25, %26, !dbg !2273
  %27 = load double*, double** %ptr.addr, align 8, !dbg !2274
  %arrayidx17 = getelementptr inbounds double, double* %27, i64 6, !dbg !2274
  %28 = load double, double* %arrayidx17, align 8, !dbg !2274
  %29 = load double*, double** %ptr.addr, align 8, !dbg !2275
  %arrayidx18 = getelementptr inbounds double, double* %29, i64 4, !dbg !2275
  %30 = load double, double* %arrayidx18, align 8, !dbg !2275
  %add = fadd double %28, %30, !dbg !2276
  %31 = load double*, double** %ptr.addr, align 8, !dbg !2277
  %arrayidx19 = getelementptr inbounds double, double* %31, i64 6, !dbg !2277
  %32 = load double, double* %arrayidx19, align 8, !dbg !2277
  %33 = load double*, double** %ptr.addr, align 8, !dbg !2278
  %arrayidx20 = getelementptr inbounds double, double* %33, i64 4, !dbg !2278
  %34 = load double, double* %arrayidx20, align 8, !dbg !2278
  %add21 = fadd double %32, %34, !dbg !2279
  %mul22 = fmul double %add, %add21, !dbg !2280
  %sub23 = fsub double %sub, %mul22, !dbg !2281
  store double %sub23, double* %p1, align 8, !dbg !2282
  %35 = load double, double* %ph, align 8, !dbg !2283
  %36 = load double, double* %th, align 8, !dbg !2284
  %sub24 = fsub double %35, %36, !dbg !2285
  %37 = load double*, double** %ptr.addr, align 8, !dbg !2286
  %arrayidx25 = getelementptr inbounds double, double* %37, i64 6, !dbg !2286
  %38 = load double, double* %arrayidx25, align 8, !dbg !2286
  %39 = load double*, double** %ptr.addr, align 8, !dbg !2287
  %arrayidx26 = getelementptr inbounds double, double* %39, i64 4, !dbg !2287
  %40 = load double, double* %arrayidx26, align 8, !dbg !2287
  %sub27 = fsub double %38, %40, !dbg !2288
  %41 = load double*, double** %ptr.addr, align 8, !dbg !2289
  %arrayidx28 = getelementptr inbounds double, double* %41, i64 6, !dbg !2289
  %42 = load double, double* %arrayidx28, align 8, !dbg !2289
  %43 = load double*, double** %ptr.addr, align 8, !dbg !2290
  %arrayidx29 = getelementptr inbounds double, double* %43, i64 4, !dbg !2290
  %44 = load double, double* %arrayidx29, align 8, !dbg !2290
  %sub30 = fsub double %42, %44, !dbg !2291
  %mul31 = fmul double %sub27, %sub30, !dbg !2292
  %sub32 = fsub double %sub24, %mul31, !dbg !2293
  store double %sub32, double* %p2, align 8, !dbg !2294
  %45 = load double*, double** %ptr.addr, align 8, !dbg !2295
  %arrayidx33 = getelementptr inbounds double, double* %45, i64 6, !dbg !2295
  %46 = load double, double* %arrayidx33, align 8, !dbg !2295
  %47 = load double*, double** %ptr.addr, align 8, !dbg !2296
  %arrayidx34 = getelementptr inbounds double, double* %47, i64 6, !dbg !2296
  %48 = load double, double* %arrayidx34, align 8, !dbg !2296
  %mul35 = fmul double %46, %48, !dbg !2297
  store double %mul35, double* %p3, align 8, !dbg !2298
  %49 = load double*, double** %ptr.addr, align 8, !dbg !2299
  %arrayidx36 = getelementptr inbounds double, double* %49, i64 4, !dbg !2299
  %50 = load double, double* %arrayidx36, align 8, !dbg !2299
  %51 = load double*, double** %ptr.addr, align 8, !dbg !2300
  %arrayidx37 = getelementptr inbounds double, double* %51, i64 4, !dbg !2300
  %52 = load double, double* %arrayidx37, align 8, !dbg !2300
  %mul38 = fmul double %50, %52, !dbg !2301
  store double %mul38, double* %p4, align 8, !dbg !2302
  %53 = load double, double* %p1, align 8, !dbg !2303
  %54 = load double, double* %p2, align 8, !dbg !2304
  %mul39 = fmul double %53, %54, !dbg !2305
  %55 = load double, double* %x2, align 8, !dbg !2306
  %56 = load double, double* %x2, align 8, !dbg !2307
  %mul40 = fmul double %55, %56, !dbg !2308
  %57 = load double, double* %y2, align 8, !dbg !2309
  %58 = load double, double* %y2, align 8, !dbg !2310
  %mul41 = fmul double %57, %58, !dbg !2311
  %add42 = fadd double %mul40, %mul41, !dbg !2312
  %59 = load double, double* %z2, align 8, !dbg !2313
  %60 = load double, double* %z2, align 8, !dbg !2314
  %mul43 = fmul double %59, %60, !dbg !2315
  %add44 = fadd double %add42, %mul43, !dbg !2316
  %mul45 = fmul double %mul39, %add44, !dbg !2317
  %61 = load double, double* %p1, align 8, !dbg !2318
  %62 = load double, double* %p2, align 8, !dbg !2319
  %mul46 = fmul double %61, %62, !dbg !2320
  %63 = load double, double* %x2, align 8, !dbg !2321
  %64 = load double, double* %y2, align 8, !dbg !2322
  %mul47 = fmul double %63, %64, !dbg !2323
  %65 = load double, double* %x2, align 8, !dbg !2324
  %66 = load double, double* %z2, align 8, !dbg !2325
  %mul48 = fmul double %65, %66, !dbg !2326
  %add49 = fadd double %mul47, %mul48, !dbg !2327
  %67 = load double, double* %y2, align 8, !dbg !2328
  %68 = load double, double* %z2, align 8, !dbg !2329
  %mul50 = fmul double %67, %68, !dbg !2330
  %add51 = fadd double %add49, %mul50, !dbg !2331
  %mul52 = fmul double %mul46, %add51, !dbg !2332
  %mul53 = fmul double 2.000000e+00, %mul52, !dbg !2333
  %add54 = fadd double %mul45, %mul53, !dbg !2334
  %69 = load double, double* %r2, align 8, !dbg !2335
  %mul55 = fmul double 2.000000e+00, %69, !dbg !2336
  %70 = load double, double* %th, align 8, !dbg !2337
  %fneg = fneg double %70, !dbg !2338
  %71 = load double, double* %p3, align 8, !dbg !2339
  %sub56 = fsub double %fneg, %71, !dbg !2340
  %72 = load double, double* %ph, align 8, !dbg !2341
  %add57 = fadd double %sub56, %72, !dbg !2342
  %73 = load double, double* %p4, align 8, !dbg !2343
  %add58 = fadd double %add57, %73, !dbg !2344
  %74 = load double*, double** %ptr.addr, align 8, !dbg !2345
  %arrayidx59 = getelementptr inbounds double, double* %74, i64 0, !dbg !2345
  %75 = load double, double* %arrayidx59, align 8, !dbg !2345
  %mul60 = fmul double 2.000000e+00, %75, !dbg !2346
  %76 = load double*, double** %ptr.addr, align 8, !dbg !2347
  %arrayidx61 = getelementptr inbounds double, double* %76, i64 6, !dbg !2347
  %77 = load double, double* %arrayidx61, align 8, !dbg !2347
  %mul62 = fmul double %mul60, %77, !dbg !2348
  %78 = load double*, double** %ptr.addr, align 8, !dbg !2349
  %arrayidx63 = getelementptr inbounds double, double* %78, i64 1, !dbg !2349
  %79 = load double, double* %arrayidx63, align 8, !dbg !2349
  %mul64 = fmul double 2.000000e+00, %79, !dbg !2350
  %80 = load double*, double** %ptr.addr, align 8, !dbg !2351
  %arrayidx65 = getelementptr inbounds double, double* %80, i64 7, !dbg !2351
  %81 = load double, double* %arrayidx65, align 8, !dbg !2351
  %mul66 = fmul double %mul64, %81, !dbg !2352
  %add67 = fadd double %mul62, %mul66, !dbg !2353
  %82 = load double, double* %r2, align 8, !dbg !2354
  %sub68 = fsub double %add67, %82, !dbg !2355
  %mul69 = fmul double %add58, %sub68, !dbg !2356
  %83 = load double*, double** %ptr.addr, align 8, !dbg !2357
  %arrayidx70 = getelementptr inbounds double, double* %83, i64 7, !dbg !2357
  %84 = load double, double* %arrayidx70, align 8, !dbg !2357
  %mul71 = fmul double 4.000000e+00, %84, !dbg !2358
  %85 = load double, double* %ph, align 8, !dbg !2359
  %mul72 = fmul double %mul71, %85, !dbg !2360
  %86 = load double*, double** %ptr.addr, align 8, !dbg !2361
  %arrayidx73 = getelementptr inbounds double, double* %86, i64 1, !dbg !2361
  %87 = load double, double* %arrayidx73, align 8, !dbg !2361
  %mul74 = fmul double %mul72, %87, !dbg !2362
  %sub75 = fsub double %mul69, %mul74, !dbg !2363
  %mul76 = fmul double %mul55, %sub75, !dbg !2364
  %88 = load double, double* %x2, align 8, !dbg !2365
  %89 = load double, double* %y2, align 8, !dbg !2366
  %add77 = fadd double %88, %89, !dbg !2367
  %90 = load double, double* %z2, align 8, !dbg !2368
  %add78 = fadd double %add77, %90, !dbg !2369
  %mul79 = fmul double %mul76, %add78, !dbg !2370
  %add80 = fadd double %add54, %mul79, !dbg !2371
  %91 = load double, double* %r2, align 8, !dbg !2372
  %mul81 = fmul double 4.000000e+00, %91, !dbg !2373
  %92 = load double, double* %r2, align 8, !dbg !2374
  %mul82 = fmul double %mul81, %92, !dbg !2375
  %93 = load double*, double** %ptr.addr, align 8, !dbg !2376
  %arrayidx83 = getelementptr inbounds double, double* %93, i64 6, !dbg !2376
  %94 = load double, double* %arrayidx83, align 8, !dbg !2376
  %95 = load double*, double** %ptr.addr, align 8, !dbg !2377
  %arrayidx84 = getelementptr inbounds double, double* %95, i64 0, !dbg !2377
  %96 = load double, double* %arrayidx84, align 8, !dbg !2377
  %mul85 = fmul double %94, %96, !dbg !2378
  %97 = load double*, double** %ptr.addr, align 8, !dbg !2379
  %arrayidx86 = getelementptr inbounds double, double* %97, i64 7, !dbg !2379
  %98 = load double, double* %arrayidx86, align 8, !dbg !2379
  %99 = load double*, double** %ptr.addr, align 8, !dbg !2380
  %arrayidx87 = getelementptr inbounds double, double* %99, i64 1, !dbg !2380
  %100 = load double, double* %arrayidx87, align 8, !dbg !2380
  %mul88 = fmul double %98, %100, !dbg !2381
  %add89 = fadd double %mul85, %mul88, !dbg !2382
  %mul90 = fmul double %mul82, %add89, !dbg !2383
  %101 = load double, double* %r2, align 8, !dbg !2384
  %fneg91 = fneg double %101, !dbg !2385
  %102 = load double*, double** %ptr.addr, align 8, !dbg !2386
  %arrayidx92 = getelementptr inbounds double, double* %102, i64 7, !dbg !2386
  %103 = load double, double* %arrayidx92, align 8, !dbg !2386
  %104 = load double*, double** %ptr.addr, align 8, !dbg !2387
  %arrayidx93 = getelementptr inbounds double, double* %104, i64 1, !dbg !2387
  %105 = load double, double* %arrayidx93, align 8, !dbg !2387
  %mul94 = fmul double %103, %105, !dbg !2388
  %add95 = fadd double %fneg91, %mul94, !dbg !2389
  %106 = load double*, double** %ptr.addr, align 8, !dbg !2390
  %arrayidx96 = getelementptr inbounds double, double* %106, i64 6, !dbg !2390
  %107 = load double, double* %arrayidx96, align 8, !dbg !2390
  %108 = load double*, double** %ptr.addr, align 8, !dbg !2391
  %arrayidx97 = getelementptr inbounds double, double* %108, i64 0, !dbg !2391
  %109 = load double, double* %arrayidx97, align 8, !dbg !2391
  %mul98 = fmul double %107, %109, !dbg !2392
  %add99 = fadd double %add95, %mul98, !dbg !2393
  %mul100 = fmul double %mul90, %add99, !dbg !2394
  %add101 = fadd double %add80, %mul100, !dbg !2395
  %110 = load double, double* %r2, align 8, !dbg !2396
  %mul102 = fmul double 4.000000e+00, %110, !dbg !2397
  %111 = load double, double* %r2, align 8, !dbg !2398
  %mul103 = fmul double %mul102, %111, !dbg !2399
  %112 = load double, double* %p4, align 8, !dbg !2400
  %mul104 = fmul double %mul103, %112, !dbg !2401
  %113 = load double, double* %y2, align 8, !dbg !2402
  %mul105 = fmul double %mul104, %113, !dbg !2403
  %add106 = fadd double %add101, %mul105, !dbg !2404
  %114 = load double, double* %r2, align 8, !dbg !2405
  %115 = load double, double* %r2, align 8, !dbg !2406
  %mul107 = fmul double %114, %115, !dbg !2407
  %116 = load double, double* %r2, align 8, !dbg !2408
  %mul108 = fmul double %mul107, %116, !dbg !2409
  %117 = load double, double* %r2, align 8, !dbg !2410
  %mul109 = fmul double %mul108, %117, !dbg !2411
  %add110 = fadd double %add106, %mul109, !dbg !2412
  %fneg111 = fneg double %add110, !dbg !2413
  store double %fneg111, double* %r, align 8, !dbg !2414
  store double 1.000000e+01, double* %ref.tmp, align 8, !dbg !2415
  %118 = load double*, double** %ptr.addr, align 8, !dbg !2416
  %arrayidx113 = getelementptr inbounds double, double* %118, i64 3, !dbg !2416
  %119 = load double, double* %arrayidx113, align 8, !dbg !2416
  %120 = load double, double* %r, align 8, !dbg !2417
  %mul114 = fmul double %119, %120, !dbg !2418
  store double %mul114, double* %ref.tmp112, align 8, !dbg !2416
  store double -1.000000e+01, double* %ref.tmp115, align 8, !dbg !2419
  %call = call dereferenceable(8) double* @_ZSt3maxIdERKT_S2_S2_(double* dereferenceable(8) %ref.tmp112, double* dereferenceable(8) %ref.tmp115), !dbg !2420
  %call116 = call dereferenceable(8) double* @_ZSt3minIdERKT_S2_S2_(double* dereferenceable(8) %ref.tmp, double* dereferenceable(8) %call), !dbg !2421
  %121 = load double, double* %call116, align 8, !dbg !2421
  ret double %121, !dbg !2422
}

; Function Attrs: noinline nounwind uwtable
define dso_local double @_ZN3pov11f_ellipsoidEPdj(double* %ptr, i32 %0) #1 !dbg !2423 {
entry:
  %ptr.addr = alloca double*, align 8
  %.addr = alloca i32, align 4
  store double* %ptr, double** %ptr.addr, align 8
  call void @llvm.dbg.declare(metadata double** %ptr.addr, metadata !2424, metadata !DIExpression()), !dbg !2425
  store i32 %0, i32* %.addr, align 4
  call void @llvm.dbg.declare(metadata i32* %.addr, metadata !2426, metadata !DIExpression()), !dbg !2427
  %1 = load double*, double** %ptr.addr, align 8, !dbg !2428
  %arrayidx = getelementptr inbounds double, double* %1, i64 0, !dbg !2428
  %2 = load double, double* %arrayidx, align 8, !dbg !2428
  %3 = load double*, double** %ptr.addr, align 8, !dbg !2429
  %arrayidx1 = getelementptr inbounds double, double* %3, i64 0, !dbg !2429
  %4 = load double, double* %arrayidx1, align 8, !dbg !2429
  %mul = fmul double %2, %4, !dbg !2430
  %5 = load double*, double** %ptr.addr, align 8, !dbg !2431
  %arrayidx2 = getelementptr inbounds double, double* %5, i64 3, !dbg !2431
  %6 = load double, double* %arrayidx2, align 8, !dbg !2431
  %mul3 = fmul double %mul, %6, !dbg !2432
  %7 = load double*, double** %ptr.addr, align 8, !dbg !2433
  %arrayidx4 = getelementptr inbounds double, double* %7, i64 3, !dbg !2433
  %8 = load double, double* %arrayidx4, align 8, !dbg !2433
  %mul5 = fmul double %mul3, %8, !dbg !2434
  %9 = load double*, double** %ptr.addr, align 8, !dbg !2435
  %arrayidx6 = getelementptr inbounds double, double* %9, i64 1, !dbg !2435
  %10 = load double, double* %arrayidx6, align 8, !dbg !2435
  %11 = load double*, double** %ptr.addr, align 8, !dbg !2436
  %arrayidx7 = getelementptr inbounds double, double* %11, i64 1, !dbg !2436
  %12 = load double, double* %arrayidx7, align 8, !dbg !2436
  %mul8 = fmul double %10, %12, !dbg !2437
  %13 = load double*, double** %ptr.addr, align 8, !dbg !2438
  %arrayidx9 = getelementptr inbounds double, double* %13, i64 4, !dbg !2438
  %14 = load double, double* %arrayidx9, align 8, !dbg !2438
  %mul10 = fmul double %mul8, %14, !dbg !2439
  %15 = load double*, double** %ptr.addr, align 8, !dbg !2440
  %arrayidx11 = getelementptr inbounds double, double* %15, i64 4, !dbg !2440
  %16 = load double, double* %arrayidx11, align 8, !dbg !2440
  %mul12 = fmul double %mul10, %16, !dbg !2441
  %add = fadd double %mul5, %mul12, !dbg !2442
  %17 = load double*, double** %ptr.addr, align 8, !dbg !2443
  %arrayidx13 = getelementptr inbounds double, double* %17, i64 2, !dbg !2443
  %18 = load double, double* %arrayidx13, align 8, !dbg !2443
  %19 = load double*, double** %ptr.addr, align 8, !dbg !2444
  %arrayidx14 = getelementptr inbounds double, double* %19, i64 2, !dbg !2444
  %20 = load double, double* %arrayidx14, align 8, !dbg !2444
  %mul15 = fmul double %18, %20, !dbg !2445
  %21 = load double*, double** %ptr.addr, align 8, !dbg !2446
  %arrayidx16 = getelementptr inbounds double, double* %21, i64 5, !dbg !2446
  %22 = load double, double* %arrayidx16, align 8, !dbg !2446
  %mul17 = fmul double %mul15, %22, !dbg !2447
  %23 = load double*, double** %ptr.addr, align 8, !dbg !2448
  %arrayidx18 = getelementptr inbounds double, double* %23, i64 5, !dbg !2448
  %24 = load double, double* %arrayidx18, align 8, !dbg !2448
  %mul19 = fmul double %mul17, %24, !dbg !2449
  %add20 = fadd double %add, %mul19, !dbg !2450
  %call = call double @sqrt(double %add20) #5, !dbg !2451
  ret double %call, !dbg !2452
}

; Function Attrs: noinline uwtable
define dso_local double @_ZN3pov9f_enneperEPdj(double* %ptr, i32 %0) #0 !dbg !2453 {
entry:
  %ptr.addr = alloca double*, align 8
  %.addr = alloca i32, align 4
  %r = alloca double, align 8
  %r2 = alloca double, align 8
  %x2 = alloca double, align 8
  %y2 = alloca double, align 8
  %z2 = alloca double, align 8
  %ref.tmp = alloca double, align 8
  %ref.tmp30 = alloca double, align 8
  %ref.tmp33 = alloca double, align 8
  store double* %ptr, double** %ptr.addr, align 8
  call void @llvm.dbg.declare(metadata double** %ptr.addr, metadata !2454, metadata !DIExpression()), !dbg !2455
  store i32 %0, i32* %.addr, align 4
  call void @llvm.dbg.declare(metadata i32* %.addr, metadata !2456, metadata !DIExpression()), !dbg !2457
  call void @llvm.dbg.declare(metadata double* %r, metadata !2458, metadata !DIExpression()), !dbg !2459
  call void @llvm.dbg.declare(metadata double* %r2, metadata !2460, metadata !DIExpression()), !dbg !2461
  call void @llvm.dbg.declare(metadata double* %x2, metadata !2462, metadata !DIExpression()), !dbg !2463
  %1 = load double*, double** %ptr.addr, align 8, !dbg !2464
  %arrayidx = getelementptr inbounds double, double* %1, i64 0, !dbg !2464
  %2 = load double, double* %arrayidx, align 8, !dbg !2464
  %3 = load double*, double** %ptr.addr, align 8, !dbg !2465
  %arrayidx1 = getelementptr inbounds double, double* %3, i64 0, !dbg !2465
  %4 = load double, double* %arrayidx1, align 8, !dbg !2465
  %mul = fmul double %2, %4, !dbg !2466
  store double %mul, double* %x2, align 8, !dbg !2463
  call void @llvm.dbg.declare(metadata double* %y2, metadata !2467, metadata !DIExpression()), !dbg !2468
  %5 = load double*, double** %ptr.addr, align 8, !dbg !2469
  %arrayidx2 = getelementptr inbounds double, double* %5, i64 1, !dbg !2469
  %6 = load double, double* %arrayidx2, align 8, !dbg !2469
  %7 = load double*, double** %ptr.addr, align 8, !dbg !2470
  %arrayidx3 = getelementptr inbounds double, double* %7, i64 1, !dbg !2470
  %8 = load double, double* %arrayidx3, align 8, !dbg !2470
  %mul4 = fmul double %6, %8, !dbg !2471
  store double %mul4, double* %y2, align 8, !dbg !2468
  call void @llvm.dbg.declare(metadata double* %z2, metadata !2472, metadata !DIExpression()), !dbg !2473
  %9 = load double*, double** %ptr.addr, align 8, !dbg !2474
  %arrayidx5 = getelementptr inbounds double, double* %9, i64 2, !dbg !2474
  %10 = load double, double* %arrayidx5, align 8, !dbg !2474
  %11 = load double*, double** %ptr.addr, align 8, !dbg !2475
  %arrayidx6 = getelementptr inbounds double, double* %11, i64 2, !dbg !2475
  %12 = load double, double* %arrayidx6, align 8, !dbg !2475
  %mul7 = fmul double %10, %12, !dbg !2476
  store double %mul7, double* %z2, align 8, !dbg !2473
  %13 = load double*, double** %ptr.addr, align 8, !dbg !2477
  %arrayidx8 = getelementptr inbounds double, double* %13, i64 2, !dbg !2477
  %14 = load double, double* %arrayidx8, align 8, !dbg !2477
  %15 = call double @llvm.fabs.f64(double %14), !dbg !2479
  %cmp = fcmp olt double %15, 2.000000e-01, !dbg !2480
  br i1 %cmp, label %if.then, label %if.end, !dbg !2481

if.then:                                          ; preds = %entry
  %16 = load double*, double** %ptr.addr, align 8, !dbg !2482
  %arrayidx9 = getelementptr inbounds double, double* %16, i64 2, !dbg !2482
  store double 2.000000e-01, double* %arrayidx9, align 8, !dbg !2483
  br label %if.end, !dbg !2482

if.end:                                           ; preds = %if.then, %entry
  %17 = load double, double* %y2, align 8, !dbg !2484
  %18 = load double, double* %x2, align 8, !dbg !2485
  %sub = fsub double %17, %18, !dbg !2486
  %19 = load double*, double** %ptr.addr, align 8, !dbg !2487
  %arrayidx10 = getelementptr inbounds double, double* %19, i64 2, !dbg !2487
  %20 = load double, double* %arrayidx10, align 8, !dbg !2487
  %mul11 = fmul double 2.000000e+00, %20, !dbg !2488
  %div = fdiv double %sub, %mul11, !dbg !2489
  %21 = load double, double* %z2, align 8, !dbg !2490
  %mul12 = fmul double 2.000000e+00, %21, !dbg !2491
  %div13 = fdiv double %mul12, 9.000000e+00, !dbg !2492
  %add = fadd double %div, %div13, !dbg !2493
  %add14 = fadd double %add, 0.000000e+00, !dbg !2494
  store double %add14, double* %r, align 8, !dbg !2495
  %22 = load double, double* %y2, align 8, !dbg !2496
  %23 = load double, double* %x2, align 8, !dbg !2497
  %sub15 = fsub double %22, %23, !dbg !2498
  %24 = load double*, double** %ptr.addr, align 8, !dbg !2499
  %arrayidx16 = getelementptr inbounds double, double* %24, i64 2, !dbg !2499
  %25 = load double, double* %arrayidx16, align 8, !dbg !2499
  %mul17 = fmul double 4.000000e+00, %25, !dbg !2500
  %div18 = fdiv double %sub15, %mul17, !dbg !2501
  %26 = load double, double* %x2, align 8, !dbg !2502
  %27 = load double, double* %y2, align 8, !dbg !2503
  %add19 = fadd double %26, %27, !dbg !2504
  %28 = load double, double* %z2, align 8, !dbg !2505
  %mul20 = fmul double 0.000000e+00, %28, !dbg !2506
  %add21 = fadd double %add19, %mul20, !dbg !2507
  %mul22 = fmul double 0.000000e+00, %add21, !dbg !2508
  %sub23 = fsub double %div18, %mul22, !dbg !2509
  %add24 = fadd double %sub23, 0.000000e+00, !dbg !2510
  store double %add24, double* %r2, align 8, !dbg !2511
  %29 = load double, double* %r, align 8, !dbg !2512
  %30 = load double, double* %r, align 8, !dbg !2513
  %mul25 = fmul double %29, %30, !dbg !2514
  %31 = load double, double* %r, align 8, !dbg !2515
  %mul26 = fmul double %mul25, %31, !dbg !2516
  %32 = load double, double* %r2, align 8, !dbg !2517
  %mul27 = fmul double 6.000000e+00, %32, !dbg !2518
  %33 = load double, double* %r2, align 8, !dbg !2519
  %mul28 = fmul double %mul27, %33, !dbg !2520
  %sub29 = fsub double %mul26, %mul28, !dbg !2521
  %fneg = fneg double %sub29, !dbg !2522
  store double %fneg, double* %r, align 8, !dbg !2523
  store double 1.000000e+01, double* %ref.tmp, align 8, !dbg !2524
  %34 = load double*, double** %ptr.addr, align 8, !dbg !2525
  %arrayidx31 = getelementptr inbounds double, double* %34, i64 3, !dbg !2525
  %35 = load double, double* %arrayidx31, align 8, !dbg !2525
  %36 = load double, double* %r, align 8, !dbg !2526
  %mul32 = fmul double %35, %36, !dbg !2527
  store double %mul32, double* %ref.tmp30, align 8, !dbg !2525
  store double -1.000000e+01, double* %ref.tmp33, align 8, !dbg !2528
  %call = call dereferenceable(8) double* @_ZSt3maxIdERKT_S2_S2_(double* dereferenceable(8) %ref.tmp30, double* dereferenceable(8) %ref.tmp33), !dbg !2529
  %call34 = call dereferenceable(8) double* @_ZSt3minIdERKT_S2_S2_(double* dereferenceable(8) %ref.tmp, double* dereferenceable(8) %call), !dbg !2530
  %37 = load double, double* %call34, align 8, !dbg !2530
  ret double %37, !dbg !2531
}

; Function Attrs: noinline nounwind uwtable
define dso_local double @_ZN3pov14f_flange_coverEPdj(double* %ptr, i32 %0) #1 !dbg !2532 {
entry:
  %ptr.addr = alloca double*, align 8
  %.addr = alloca i32, align 4
  %r = alloca double, align 8
  %x2 = alloca double, align 8
  %y2 = alloca double, align 8
  %z2 = alloca double, align 8
  store double* %ptr, double** %ptr.addr, align 8
  call void @llvm.dbg.declare(metadata double** %ptr.addr, metadata !2533, metadata !DIExpression()), !dbg !2534
  store i32 %0, i32* %.addr, align 4
  call void @llvm.dbg.declare(metadata i32* %.addr, metadata !2535, metadata !DIExpression()), !dbg !2536
  call void @llvm.dbg.declare(metadata double* %r, metadata !2537, metadata !DIExpression()), !dbg !2538
  call void @llvm.dbg.declare(metadata double* %x2, metadata !2539, metadata !DIExpression()), !dbg !2540
  call void @llvm.dbg.declare(metadata double* %y2, metadata !2541, metadata !DIExpression()), !dbg !2542
  call void @llvm.dbg.declare(metadata double* %z2, metadata !2543, metadata !DIExpression()), !dbg !2544
  %1 = load double*, double** %ptr.addr, align 8, !dbg !2545
  %arrayidx = getelementptr inbounds double, double* %1, i64 0, !dbg !2545
  %2 = load double, double* %arrayidx, align 8, !dbg !2545
  %3 = load double*, double** %ptr.addr, align 8, !dbg !2546
  %arrayidx1 = getelementptr inbounds double, double* %3, i64 0, !dbg !2546
  %4 = load double, double* %arrayidx1, align 8, !dbg !2546
  %mul = fmul double %2, %4, !dbg !2547
  store double %mul, double* %x2, align 8, !dbg !2548
  %5 = load double*, double** %ptr.addr, align 8, !dbg !2549
  %arrayidx2 = getelementptr inbounds double, double* %5, i64 1, !dbg !2549
  %6 = load double, double* %arrayidx2, align 8, !dbg !2549
  %7 = load double*, double** %ptr.addr, align 8, !dbg !2550
  %arrayidx3 = getelementptr inbounds double, double* %7, i64 1, !dbg !2550
  %8 = load double, double* %arrayidx3, align 8, !dbg !2550
  %mul4 = fmul double %6, %8, !dbg !2551
  store double %mul4, double* %y2, align 8, !dbg !2552
  %9 = load double*, double** %ptr.addr, align 8, !dbg !2553
  %arrayidx5 = getelementptr inbounds double, double* %9, i64 2, !dbg !2553
  %10 = load double, double* %arrayidx5, align 8, !dbg !2553
  %11 = load double*, double** %ptr.addr, align 8, !dbg !2554
  %arrayidx6 = getelementptr inbounds double, double* %11, i64 2, !dbg !2554
  %12 = load double, double* %arrayidx6, align 8, !dbg !2554
  %mul7 = fmul double %10, %12, !dbg !2555
  store double %mul7, double* %z2, align 8, !dbg !2556
  %13 = load double, double* %x2, align 8, !dbg !2557
  %14 = load double*, double** %ptr.addr, align 8, !dbg !2558
  %arrayidx8 = getelementptr inbounds double, double* %14, i64 3, !dbg !2558
  %15 = load double, double* %arrayidx8, align 8, !dbg !2558
  %mul9 = fmul double %13, %15, !dbg !2559
  %16 = load double, double* %y2, align 8, !dbg !2560
  %17 = load double*, double** %ptr.addr, align 8, !dbg !2561
  %arrayidx10 = getelementptr inbounds double, double* %17, i64 3, !dbg !2561
  %18 = load double, double* %arrayidx10, align 8, !dbg !2561
  %mul11 = fmul double %16, %18, !dbg !2562
  %add = fadd double %mul9, %mul11, !dbg !2563
  %19 = load double, double* %z2, align 8, !dbg !2564
  %add12 = fadd double %add, %19, !dbg !2565
  %fneg = fneg double %add12, !dbg !2566
  %20 = load double*, double** %ptr.addr, align 8, !dbg !2567
  %arrayidx13 = getelementptr inbounds double, double* %20, i64 4, !dbg !2567
  %21 = load double, double* %arrayidx13, align 8, !dbg !2567
  %mul14 = fmul double %fneg, %21, !dbg !2568
  %call = call double @exp(double %mul14) #5, !dbg !2569
  %22 = load double, double* %x2, align 8, !dbg !2570
  %23 = load double*, double** %ptr.addr, align 8, !dbg !2571
  %arrayidx15 = getelementptr inbounds double, double* %23, i64 3, !dbg !2571
  %24 = load double, double* %arrayidx15, align 8, !dbg !2571
  %mul16 = fmul double %22, %24, !dbg !2572
  %25 = load double, double* %y2, align 8, !dbg !2573
  %add17 = fadd double %mul16, %25, !dbg !2574
  %26 = load double, double* %z2, align 8, !dbg !2575
  %27 = load double*, double** %ptr.addr, align 8, !dbg !2576
  %arrayidx18 = getelementptr inbounds double, double* %27, i64 3, !dbg !2576
  %28 = load double, double* %arrayidx18, align 8, !dbg !2576
  %mul19 = fmul double %26, %28, !dbg !2577
  %add20 = fadd double %add17, %mul19, !dbg !2578
  %fneg21 = fneg double %add20, !dbg !2579
  %29 = load double*, double** %ptr.addr, align 8, !dbg !2580
  %arrayidx22 = getelementptr inbounds double, double* %29, i64 4, !dbg !2580
  %30 = load double, double* %arrayidx22, align 8, !dbg !2580
  %mul23 = fmul double %fneg21, %30, !dbg !2581
  %call24 = call double @exp(double %mul23) #5, !dbg !2582
  %add25 = fadd double %call, %call24, !dbg !2583
  %31 = load double, double* %x2, align 8, !dbg !2584
  %32 = load double, double* %y2, align 8, !dbg !2585
  %33 = load double*, double** %ptr.addr, align 8, !dbg !2586
  %arrayidx26 = getelementptr inbounds double, double* %33, i64 3, !dbg !2586
  %34 = load double, double* %arrayidx26, align 8, !dbg !2586
  %mul27 = fmul double %32, %34, !dbg !2587
  %add28 = fadd double %31, %mul27, !dbg !2588
  %35 = load double, double* %z2, align 8, !dbg !2589
  %36 = load double*, double** %ptr.addr, align 8, !dbg !2590
  %arrayidx29 = getelementptr inbounds double, double* %36, i64 3, !dbg !2590
  %37 = load double, double* %arrayidx29, align 8, !dbg !2590
  %mul30 = fmul double %35, %37, !dbg !2591
  %add31 = fadd double %add28, %mul30, !dbg !2592
  %fneg32 = fneg double %add31, !dbg !2593
  %38 = load double*, double** %ptr.addr, align 8, !dbg !2594
  %arrayidx33 = getelementptr inbounds double, double* %38, i64 4, !dbg !2594
  %39 = load double, double* %arrayidx33, align 8, !dbg !2594
  %mul34 = fmul double %fneg32, %39, !dbg !2595
  %call35 = call double @exp(double %mul34) #5, !dbg !2596
  %add36 = fadd double %add25, %call35, !dbg !2597
  store double %add36, double* %r, align 8, !dbg !2598
  %40 = load double*, double** %ptr.addr, align 8, !dbg !2599
  %arrayidx37 = getelementptr inbounds double, double* %40, i64 6, !dbg !2599
  %41 = load double, double* %arrayidx37, align 8, !dbg !2599
  %42 = load double, double* %r, align 8, !dbg !2600
  %43 = load double*, double** %ptr.addr, align 8, !dbg !2601
  %arrayidx38 = getelementptr inbounds double, double* %43, i64 5, !dbg !2601
  %44 = load double, double* %arrayidx38, align 8, !dbg !2601
  %mul39 = fmul double %42, %44, !dbg !2602
  %sub = fsub double %41, %mul39, !dbg !2603
  ret double %sub, !dbg !2604
}

; Function Attrs: noinline uwtable
define dso_local double @_ZN3pov16f_folium_surfaceEPdj(double* %ptr, i32 %0) #0 !dbg !2605 {
entry:
  %ptr.addr = alloca double*, align 8
  %.addr = alloca i32, align 4
  %r = alloca double, align 8
  %x2 = alloca double, align 8
  %y2 = alloca double, align 8
  %z2 = alloca double, align 8
  %ref.tmp = alloca double, align 8
  %ref.tmp19 = alloca double, align 8
  %ref.tmp22 = alloca double, align 8
  store double* %ptr, double** %ptr.addr, align 8
  call void @llvm.dbg.declare(metadata double** %ptr.addr, metadata !2606, metadata !DIExpression()), !dbg !2607
  store i32 %0, i32* %.addr, align 4
  call void @llvm.dbg.declare(metadata i32* %.addr, metadata !2608, metadata !DIExpression()), !dbg !2609
  call void @llvm.dbg.declare(metadata double* %r, metadata !2610, metadata !DIExpression()), !dbg !2611
  call void @llvm.dbg.declare(metadata double* %x2, metadata !2612, metadata !DIExpression()), !dbg !2613
  %1 = load double*, double** %ptr.addr, align 8, !dbg !2614
  %arrayidx = getelementptr inbounds double, double* %1, i64 0, !dbg !2614
  %2 = load double, double* %arrayidx, align 8, !dbg !2614
  %3 = load double*, double** %ptr.addr, align 8, !dbg !2615
  %arrayidx1 = getelementptr inbounds double, double* %3, i64 0, !dbg !2615
  %4 = load double, double* %arrayidx1, align 8, !dbg !2615
  %mul = fmul double %2, %4, !dbg !2616
  store double %mul, double* %x2, align 8, !dbg !2613
  call void @llvm.dbg.declare(metadata double* %y2, metadata !2617, metadata !DIExpression()), !dbg !2618
  %5 = load double*, double** %ptr.addr, align 8, !dbg !2619
  %arrayidx2 = getelementptr inbounds double, double* %5, i64 1, !dbg !2619
  %6 = load double, double* %arrayidx2, align 8, !dbg !2619
  %7 = load double*, double** %ptr.addr, align 8, !dbg !2620
  %arrayidx3 = getelementptr inbounds double, double* %7, i64 1, !dbg !2620
  %8 = load double, double* %arrayidx3, align 8, !dbg !2620
  %mul4 = fmul double %6, %8, !dbg !2621
  store double %mul4, double* %y2, align 8, !dbg !2618
  call void @llvm.dbg.declare(metadata double* %z2, metadata !2622, metadata !DIExpression()), !dbg !2623
  %9 = load double*, double** %ptr.addr, align 8, !dbg !2624
  %arrayidx5 = getelementptr inbounds double, double* %9, i64 2, !dbg !2624
  %10 = load double, double* %arrayidx5, align 8, !dbg !2624
  %11 = load double*, double** %ptr.addr, align 8, !dbg !2625
  %arrayidx6 = getelementptr inbounds double, double* %11, i64 2, !dbg !2625
  %12 = load double, double* %arrayidx6, align 8, !dbg !2625
  %mul7 = fmul double %10, %12, !dbg !2626
  store double %mul7, double* %z2, align 8, !dbg !2623
  %13 = load double, double* %y2, align 8, !dbg !2627
  %14 = load double, double* %z2, align 8, !dbg !2628
  %add = fadd double %13, %14, !dbg !2629
  %15 = load double*, double** %ptr.addr, align 8, !dbg !2630
  %arrayidx8 = getelementptr inbounds double, double* %15, i64 5, !dbg !2630
  %16 = load double, double* %arrayidx8, align 8, !dbg !2630
  %17 = load double*, double** %ptr.addr, align 8, !dbg !2631
  %arrayidx9 = getelementptr inbounds double, double* %17, i64 4, !dbg !2631
  %18 = load double, double* %arrayidx9, align 8, !dbg !2631
  %mul10 = fmul double 4.000000e+00, %18, !dbg !2632
  %sub = fsub double %16, %mul10, !dbg !2633
  %19 = load double*, double** %ptr.addr, align 8, !dbg !2634
  %arrayidx11 = getelementptr inbounds double, double* %19, i64 0, !dbg !2634
  %20 = load double, double* %arrayidx11, align 8, !dbg !2634
  %mul12 = fmul double %sub, %20, !dbg !2635
  %add13 = fadd double 1.000000e+00, %mul12, !dbg !2636
  %mul14 = fmul double %add, %add13, !dbg !2637
  %21 = load double, double* %x2, align 8, !dbg !2638
  %22 = load double*, double** %ptr.addr, align 8, !dbg !2639
  %arrayidx15 = getelementptr inbounds double, double* %22, i64 5, !dbg !2639
  %23 = load double, double* %arrayidx15, align 8, !dbg !2639
  %add16 = fadd double 1.000000e+00, %23, !dbg !2640
  %mul17 = fmul double %21, %add16, !dbg !2641
  %add18 = fadd double %mul14, %mul17, !dbg !2642
  store double %add18, double* %r, align 8, !dbg !2643
  store double 1.000000e+01, double* %ref.tmp, align 8, !dbg !2644
  %24 = load double*, double** %ptr.addr, align 8, !dbg !2645
  %arrayidx20 = getelementptr inbounds double, double* %24, i64 3, !dbg !2645
  %25 = load double, double* %arrayidx20, align 8, !dbg !2645
  %26 = load double, double* %r, align 8, !dbg !2646
  %mul21 = fmul double %25, %26, !dbg !2647
  store double %mul21, double* %ref.tmp19, align 8, !dbg !2645
  store double -1.000000e+01, double* %ref.tmp22, align 8, !dbg !2648
  %call = call dereferenceable(8) double* @_ZSt3maxIdERKT_S2_S2_(double* dereferenceable(8) %ref.tmp19, double* dereferenceable(8) %ref.tmp22), !dbg !2649
  %call23 = call dereferenceable(8) double* @_ZSt3minIdERKT_S2_S2_(double* dereferenceable(8) %ref.tmp, double* dereferenceable(8) %call), !dbg !2650
  %27 = load double, double* %call23, align 8, !dbg !2650
  ret double %27, !dbg !2651
}

; Function Attrs: noinline uwtable
define dso_local double @_ZN3pov19f_folium_surface_2dEPdj(double* %ptr, i32 %0) #0 !dbg !2652 {
entry:
  %ptr.addr = alloca double*, align 8
  %.addr = alloca i32, align 4
  %r = alloca double, align 8
  %x2 = alloca double, align 8
  %y2 = alloca double, align 8
  %z2 = alloca double, align 8
  %th = alloca double, align 8
  %ref.tmp = alloca double, align 8
  %ref.tmp51 = alloca double, align 8
  %ref.tmp54 = alloca double, align 8
  store double* %ptr, double** %ptr.addr, align 8
  call void @llvm.dbg.declare(metadata double** %ptr.addr, metadata !2653, metadata !DIExpression()), !dbg !2654
  store i32 %0, i32* %.addr, align 4
  call void @llvm.dbg.declare(metadata i32* %.addr, metadata !2655, metadata !DIExpression()), !dbg !2656
  call void @llvm.dbg.declare(metadata double* %r, metadata !2657, metadata !DIExpression()), !dbg !2658
  call void @llvm.dbg.declare(metadata double* %x2, metadata !2659, metadata !DIExpression()), !dbg !2660
  %1 = load double*, double** %ptr.addr, align 8, !dbg !2661
  %arrayidx = getelementptr inbounds double, double* %1, i64 0, !dbg !2661
  %2 = load double, double* %arrayidx, align 8, !dbg !2661
  %3 = load double*, double** %ptr.addr, align 8, !dbg !2662
  %arrayidx1 = getelementptr inbounds double, double* %3, i64 0, !dbg !2662
  %4 = load double, double* %arrayidx1, align 8, !dbg !2662
  %mul = fmul double %2, %4, !dbg !2663
  store double %mul, double* %x2, align 8, !dbg !2660
  call void @llvm.dbg.declare(metadata double* %y2, metadata !2664, metadata !DIExpression()), !dbg !2665
  %5 = load double*, double** %ptr.addr, align 8, !dbg !2666
  %arrayidx2 = getelementptr inbounds double, double* %5, i64 1, !dbg !2666
  %6 = load double, double* %arrayidx2, align 8, !dbg !2666
  %7 = load double*, double** %ptr.addr, align 8, !dbg !2667
  %arrayidx3 = getelementptr inbounds double, double* %7, i64 1, !dbg !2667
  %8 = load double, double* %arrayidx3, align 8, !dbg !2667
  %mul4 = fmul double %6, %8, !dbg !2668
  store double %mul4, double* %y2, align 8, !dbg !2665
  call void @llvm.dbg.declare(metadata double* %z2, metadata !2669, metadata !DIExpression()), !dbg !2670
  %9 = load double*, double** %ptr.addr, align 8, !dbg !2671
  %arrayidx5 = getelementptr inbounds double, double* %9, i64 2, !dbg !2671
  %10 = load double, double* %arrayidx5, align 8, !dbg !2671
  %11 = load double*, double** %ptr.addr, align 8, !dbg !2672
  %arrayidx6 = getelementptr inbounds double, double* %11, i64 2, !dbg !2672
  %12 = load double, double* %arrayidx6, align 8, !dbg !2672
  %mul7 = fmul double %10, %12, !dbg !2673
  store double %mul7, double* %z2, align 8, !dbg !2670
  call void @llvm.dbg.declare(metadata double* %th, metadata !2674, metadata !DIExpression()), !dbg !2675
  %13 = load double*, double** %ptr.addr, align 8, !dbg !2676
  %arrayidx8 = getelementptr inbounds double, double* %13, i64 6, !dbg !2676
  %14 = load double, double* %arrayidx8, align 8, !dbg !2676
  %cmp = fcmp ogt double %14, 0.000000e+00, !dbg !2676
  br i1 %cmp, label %if.then, label %if.end38, !dbg !2678

if.then:                                          ; preds = %entry
  %15 = load double, double* %x2, align 8, !dbg !2679
  %16 = load double*, double** %ptr.addr, align 8, !dbg !2679
  %arrayidx9 = getelementptr inbounds double, double* %16, i64 2, !dbg !2679
  %17 = load double, double* %arrayidx9, align 8, !dbg !2679
  %18 = load double*, double** %ptr.addr, align 8, !dbg !2679
  %arrayidx10 = getelementptr inbounds double, double* %18, i64 2, !dbg !2679
  %19 = load double, double* %arrayidx10, align 8, !dbg !2679
  %mul11 = fmul double %17, %19, !dbg !2679
  %add = fadd double %15, %mul11, !dbg !2679
  %call = call double @sqrt(double %add) #5, !dbg !2679
  %20 = load double*, double** %ptr.addr, align 8, !dbg !2679
  %arrayidx12 = getelementptr inbounds double, double* %20, i64 7, !dbg !2679
  %21 = load double, double* %arrayidx12, align 8, !dbg !2679
  %sub = fsub double %call, %21, !dbg !2679
  store double %sub, double* %x2, align 8, !dbg !2679
  %22 = load double*, double** %ptr.addr, align 8, !dbg !2679
  %arrayidx13 = getelementptr inbounds double, double* %22, i64 8, !dbg !2679
  %23 = load double, double* %arrayidx13, align 8, !dbg !2679
  %mul14 = fmul double %23, 0x3F91DF46A2529D39, !dbg !2679
  store double %mul14, double* %th, align 8, !dbg !2679
  %24 = load double, double* %th, align 8, !dbg !2681
  %cmp15 = fcmp une double %24, 0.000000e+00, !dbg !2681
  br i1 %cmp15, label %if.then16, label %if.else, !dbg !2679

if.then16:                                        ; preds = %if.then
  %25 = load double, double* %x2, align 8, !dbg !2683
  %26 = load double, double* %th, align 8, !dbg !2683
  %call17 = call double @cos(double %26) #5, !dbg !2683
  %mul18 = fmul double %25, %call17, !dbg !2683
  %27 = load double*, double** %ptr.addr, align 8, !dbg !2683
  %arrayidx19 = getelementptr inbounds double, double* %27, i64 1, !dbg !2683
  %28 = load double, double* %arrayidx19, align 8, !dbg !2683
  %29 = load double, double* %th, align 8, !dbg !2683
  %call20 = call double @sin(double %29) #5, !dbg !2683
  %mul21 = fmul double %28, %call20, !dbg !2683
  %sub22 = fsub double %mul18, %mul21, !dbg !2683
  %30 = load double*, double** %ptr.addr, align 8, !dbg !2683
  %arrayidx23 = getelementptr inbounds double, double* %30, i64 0, !dbg !2683
  store double %sub22, double* %arrayidx23, align 8, !dbg !2683
  %31 = load double, double* %x2, align 8, !dbg !2683
  %32 = load double, double* %th, align 8, !dbg !2683
  %call24 = call double @sin(double %32) #5, !dbg !2683
  %mul25 = fmul double %31, %call24, !dbg !2683
  %33 = load double*, double** %ptr.addr, align 8, !dbg !2683
  %arrayidx26 = getelementptr inbounds double, double* %33, i64 1, !dbg !2683
  %34 = load double, double* %arrayidx26, align 8, !dbg !2683
  %35 = load double, double* %th, align 8, !dbg !2683
  %call27 = call double @cos(double %35) #5, !dbg !2683
  %mul28 = fmul double %34, %call27, !dbg !2683
  %add29 = fadd double %mul25, %mul28, !dbg !2683
  %36 = load double*, double** %ptr.addr, align 8, !dbg !2683
  %arrayidx30 = getelementptr inbounds double, double* %36, i64 1, !dbg !2683
  store double %add29, double* %arrayidx30, align 8, !dbg !2683
  br label %if.end, !dbg !2683

if.else:                                          ; preds = %if.then
  %37 = load double, double* %x2, align 8, !dbg !2681
  %38 = load double*, double** %ptr.addr, align 8, !dbg !2681
  %arrayidx31 = getelementptr inbounds double, double* %38, i64 0, !dbg !2681
  store double %37, double* %arrayidx31, align 8, !dbg !2681
  br label %if.end

if.end:                                           ; preds = %if.else, %if.then16
  %39 = load double*, double** %ptr.addr, align 8, !dbg !2679
  %arrayidx32 = getelementptr inbounds double, double* %39, i64 0, !dbg !2679
  %40 = load double, double* %arrayidx32, align 8, !dbg !2679
  %41 = load double*, double** %ptr.addr, align 8, !dbg !2679
  %arrayidx33 = getelementptr inbounds double, double* %41, i64 0, !dbg !2679
  %42 = load double, double* %arrayidx33, align 8, !dbg !2679
  %mul34 = fmul double %40, %42, !dbg !2679
  store double %mul34, double* %x2, align 8, !dbg !2679
  %43 = load double*, double** %ptr.addr, align 8, !dbg !2679
  %arrayidx35 = getelementptr inbounds double, double* %43, i64 1, !dbg !2679
  %44 = load double, double* %arrayidx35, align 8, !dbg !2679
  %45 = load double*, double** %ptr.addr, align 8, !dbg !2679
  %arrayidx36 = getelementptr inbounds double, double* %45, i64 1, !dbg !2679
  %46 = load double, double* %arrayidx36, align 8, !dbg !2679
  %mul37 = fmul double %44, %46, !dbg !2679
  store double %mul37, double* %y2, align 8, !dbg !2679
  br label %if.end38, !dbg !2679

if.end38:                                         ; preds = %if.end, %entry
  %47 = load double, double* %y2, align 8, !dbg !2685
  %48 = load double*, double** %ptr.addr, align 8, !dbg !2686
  %arrayidx39 = getelementptr inbounds double, double* %48, i64 5, !dbg !2686
  %49 = load double, double* %arrayidx39, align 8, !dbg !2686
  %50 = load double*, double** %ptr.addr, align 8, !dbg !2687
  %arrayidx40 = getelementptr inbounds double, double* %50, i64 4, !dbg !2687
  %51 = load double, double* %arrayidx40, align 8, !dbg !2687
  %mul41 = fmul double 4.000000e+00, %51, !dbg !2688
  %sub42 = fsub double %49, %mul41, !dbg !2689
  %52 = load double*, double** %ptr.addr, align 8, !dbg !2690
  %arrayidx43 = getelementptr inbounds double, double* %52, i64 0, !dbg !2690
  %53 = load double, double* %arrayidx43, align 8, !dbg !2690
  %mul44 = fmul double %sub42, %53, !dbg !2691
  %add45 = fadd double 1.000000e+00, %mul44, !dbg !2692
  %mul46 = fmul double %47, %add45, !dbg !2693
  %54 = load double, double* %x2, align 8, !dbg !2694
  %55 = load double*, double** %ptr.addr, align 8, !dbg !2695
  %arrayidx47 = getelementptr inbounds double, double* %55, i64 5, !dbg !2695
  %56 = load double, double* %arrayidx47, align 8, !dbg !2695
  %add48 = fadd double 1.000000e+00, %56, !dbg !2696
  %mul49 = fmul double %54, %add48, !dbg !2697
  %add50 = fadd double %mul46, %mul49, !dbg !2698
  %fneg = fneg double %add50, !dbg !2699
  store double %fneg, double* %r, align 8, !dbg !2700
  store double 1.000000e+01, double* %ref.tmp, align 8, !dbg !2701
  %57 = load double*, double** %ptr.addr, align 8, !dbg !2702
  %arrayidx52 = getelementptr inbounds double, double* %57, i64 3, !dbg !2702
  %58 = load double, double* %arrayidx52, align 8, !dbg !2702
  %59 = load double, double* %r, align 8, !dbg !2703
  %mul53 = fmul double %58, %59, !dbg !2704
  store double %mul53, double* %ref.tmp51, align 8, !dbg !2702
  store double -1.000000e+01, double* %ref.tmp54, align 8, !dbg !2705
  %call55 = call dereferenceable(8) double* @_ZSt3maxIdERKT_S2_S2_(double* dereferenceable(8) %ref.tmp51, double* dereferenceable(8) %ref.tmp54), !dbg !2706
  %call56 = call dereferenceable(8) double* @_ZSt3minIdERKT_S2_S2_(double* dereferenceable(8) %ref.tmp, double* dereferenceable(8) %call55), !dbg !2707
  %60 = load double, double* %call56, align 8, !dbg !2707
  ret double %60, !dbg !2708
}

; Function Attrs: noinline uwtable
define dso_local double @_ZN3pov6f_globEPdj(double* %ptr, i32 %0) #0 !dbg !2709 {
entry:
  %ptr.addr = alloca double*, align 8
  %.addr = alloca i32, align 4
  %r = alloca double, align 8
  %x2 = alloca double, align 8
  %ref.tmp = alloca double, align 8
  %ref.tmp15 = alloca double, align 8
  %ref.tmp18 = alloca double, align 8
  store double* %ptr, double** %ptr.addr, align 8
  call void @llvm.dbg.declare(metadata double** %ptr.addr, metadata !2710, metadata !DIExpression()), !dbg !2711
  store i32 %0, i32* %.addr, align 4
  call void @llvm.dbg.declare(metadata i32* %.addr, metadata !2712, metadata !DIExpression()), !dbg !2713
  call void @llvm.dbg.declare(metadata double* %r, metadata !2714, metadata !DIExpression()), !dbg !2715
  call void @llvm.dbg.declare(metadata double* %x2, metadata !2716, metadata !DIExpression()), !dbg !2717
  %1 = load double*, double** %ptr.addr, align 8, !dbg !2718
  %arrayidx = getelementptr inbounds double, double* %1, i64 0, !dbg !2718
  %2 = load double, double* %arrayidx, align 8, !dbg !2718
  %3 = load double*, double** %ptr.addr, align 8, !dbg !2719
  %arrayidx1 = getelementptr inbounds double, double* %3, i64 0, !dbg !2719
  %4 = load double, double* %arrayidx1, align 8, !dbg !2719
  %mul = fmul double %2, %4, !dbg !2720
  store double %mul, double* %x2, align 8, !dbg !2717
  %5 = load double, double* %x2, align 8, !dbg !2721
  %mul2 = fmul double 5.000000e-01, %5, !dbg !2722
  %6 = load double, double* %x2, align 8, !dbg !2723
  %mul3 = fmul double %mul2, %6, !dbg !2724
  %7 = load double*, double** %ptr.addr, align 8, !dbg !2725
  %arrayidx4 = getelementptr inbounds double, double* %7, i64 0, !dbg !2725
  %8 = load double, double* %arrayidx4, align 8, !dbg !2725
  %mul5 = fmul double %mul3, %8, !dbg !2726
  %9 = load double, double* %x2, align 8, !dbg !2727
  %mul6 = fmul double 5.000000e-01, %9, !dbg !2728
  %10 = load double, double* %x2, align 8, !dbg !2729
  %mul7 = fmul double %mul6, %10, !dbg !2730
  %add = fadd double %mul5, %mul7, !dbg !2731
  %11 = load double*, double** %ptr.addr, align 8, !dbg !2732
  %arrayidx8 = getelementptr inbounds double, double* %11, i64 1, !dbg !2732
  %12 = load double, double* %arrayidx8, align 8, !dbg !2732
  %13 = load double*, double** %ptr.addr, align 8, !dbg !2733
  %arrayidx9 = getelementptr inbounds double, double* %13, i64 1, !dbg !2733
  %14 = load double, double* %arrayidx9, align 8, !dbg !2733
  %mul10 = fmul double %12, %14, !dbg !2734
  %15 = load double*, double** %ptr.addr, align 8, !dbg !2735
  %arrayidx11 = getelementptr inbounds double, double* %15, i64 2, !dbg !2735
  %16 = load double, double* %arrayidx11, align 8, !dbg !2735
  %17 = load double*, double** %ptr.addr, align 8, !dbg !2736
  %arrayidx12 = getelementptr inbounds double, double* %17, i64 2, !dbg !2736
  %18 = load double, double* %arrayidx12, align 8, !dbg !2736
  %mul13 = fmul double %16, %18, !dbg !2737
  %add14 = fadd double %mul10, %mul13, !dbg !2738
  %sub = fsub double %add, %add14, !dbg !2739
  store double %sub, double* %r, align 8, !dbg !2740
  store double 1.000000e+01, double* %ref.tmp, align 8, !dbg !2741
  %19 = load double*, double** %ptr.addr, align 8, !dbg !2742
  %arrayidx16 = getelementptr inbounds double, double* %19, i64 3, !dbg !2742
  %20 = load double, double* %arrayidx16, align 8, !dbg !2742
  %21 = load double, double* %r, align 8, !dbg !2743
  %mul17 = fmul double %20, %21, !dbg !2744
  store double %mul17, double* %ref.tmp15, align 8, !dbg !2742
  store double -1.000000e+01, double* %ref.tmp18, align 8, !dbg !2745
  %call = call dereferenceable(8) double* @_ZSt3maxIdERKT_S2_S2_(double* dereferenceable(8) %ref.tmp15, double* dereferenceable(8) %ref.tmp18), !dbg !2746
  %call19 = call dereferenceable(8) double* @_ZSt3minIdERKT_S2_S2_(double* dereferenceable(8) %ref.tmp, double* dereferenceable(8) %call), !dbg !2747
  %22 = load double, double* %call19, align 8, !dbg !2747
  ret double %22, !dbg !2748
}

; Function Attrs: noinline uwtable
define dso_local double @_ZN3pov7f_heartEPdj(double* %ptr, i32 %0) #0 !dbg !2749 {
entry:
  %ptr.addr = alloca double*, align 8
  %.addr = alloca i32, align 4
  %r = alloca double, align 8
  %x2 = alloca double, align 8
  %y2 = alloca double, align 8
  %z2 = alloca double, align 8
  %ref.tmp = alloca double, align 8
  %ref.tmp29 = alloca double, align 8
  %ref.tmp32 = alloca double, align 8
  store double* %ptr, double** %ptr.addr, align 8
  call void @llvm.dbg.declare(metadata double** %ptr.addr, metadata !2750, metadata !DIExpression()), !dbg !2751
  store i32 %0, i32* %.addr, align 4
  call void @llvm.dbg.declare(metadata i32* %.addr, metadata !2752, metadata !DIExpression()), !dbg !2753
  call void @llvm.dbg.declare(metadata double* %r, metadata !2754, metadata !DIExpression()), !dbg !2755
  call void @llvm.dbg.declare(metadata double* %x2, metadata !2756, metadata !DIExpression()), !dbg !2757
  %1 = load double*, double** %ptr.addr, align 8, !dbg !2758
  %arrayidx = getelementptr inbounds double, double* %1, i64 0, !dbg !2758
  %2 = load double, double* %arrayidx, align 8, !dbg !2758
  %3 = load double*, double** %ptr.addr, align 8, !dbg !2759
  %arrayidx1 = getelementptr inbounds double, double* %3, i64 0, !dbg !2759
  %4 = load double, double* %arrayidx1, align 8, !dbg !2759
  %mul = fmul double %2, %4, !dbg !2760
  store double %mul, double* %x2, align 8, !dbg !2757
  call void @llvm.dbg.declare(metadata double* %y2, metadata !2761, metadata !DIExpression()), !dbg !2762
  %5 = load double*, double** %ptr.addr, align 8, !dbg !2763
  %arrayidx2 = getelementptr inbounds double, double* %5, i64 1, !dbg !2763
  %6 = load double, double* %arrayidx2, align 8, !dbg !2763
  %7 = load double*, double** %ptr.addr, align 8, !dbg !2764
  %arrayidx3 = getelementptr inbounds double, double* %7, i64 1, !dbg !2764
  %8 = load double, double* %arrayidx3, align 8, !dbg !2764
  %mul4 = fmul double %6, %8, !dbg !2765
  store double %mul4, double* %y2, align 8, !dbg !2762
  call void @llvm.dbg.declare(metadata double* %z2, metadata !2766, metadata !DIExpression()), !dbg !2767
  %9 = load double*, double** %ptr.addr, align 8, !dbg !2768
  %arrayidx5 = getelementptr inbounds double, double* %9, i64 2, !dbg !2768
  %10 = load double, double* %arrayidx5, align 8, !dbg !2768
  %11 = load double*, double** %ptr.addr, align 8, !dbg !2769
  %arrayidx6 = getelementptr inbounds double, double* %11, i64 2, !dbg !2769
  %12 = load double, double* %arrayidx6, align 8, !dbg !2769
  %mul7 = fmul double %10, %12, !dbg !2770
  store double %mul7, double* %z2, align 8, !dbg !2767
  %13 = load double, double* %x2, align 8, !dbg !2771
  %mul8 = fmul double 2.000000e+00, %13, !dbg !2772
  %14 = load double, double* %y2, align 8, !dbg !2773
  %add = fadd double %mul8, %14, !dbg !2774
  %15 = load double, double* %z2, align 8, !dbg !2775
  %add9 = fadd double %add, %15, !dbg !2776
  %sub = fsub double %add9, 1.000000e+00, !dbg !2777
  %16 = load double, double* %x2, align 8, !dbg !2778
  %mul10 = fmul double 2.000000e+00, %16, !dbg !2779
  %17 = load double, double* %y2, align 8, !dbg !2780
  %add11 = fadd double %mul10, %17, !dbg !2781
  %18 = load double, double* %z2, align 8, !dbg !2782
  %add12 = fadd double %add11, %18, !dbg !2783
  %sub13 = fsub double %add12, 1.000000e+00, !dbg !2784
  %mul14 = fmul double %sub, %sub13, !dbg !2785
  %19 = load double, double* %x2, align 8, !dbg !2786
  %mul15 = fmul double 2.000000e+00, %19, !dbg !2787
  %20 = load double, double* %y2, align 8, !dbg !2788
  %add16 = fadd double %mul15, %20, !dbg !2789
  %21 = load double, double* %z2, align 8, !dbg !2790
  %add17 = fadd double %add16, %21, !dbg !2791
  %sub18 = fsub double %add17, 1.000000e+00, !dbg !2792
  %mul19 = fmul double %mul14, %sub18, !dbg !2793
  %22 = load double, double* %x2, align 8, !dbg !2794
  %mul20 = fmul double 1.000000e-01, %22, !dbg !2795
  %23 = load double, double* %z2, align 8, !dbg !2796
  %mul21 = fmul double %mul20, %23, !dbg !2797
  %24 = load double*, double** %ptr.addr, align 8, !dbg !2798
  %arrayidx22 = getelementptr inbounds double, double* %24, i64 2, !dbg !2798
  %25 = load double, double* %arrayidx22, align 8, !dbg !2798
  %mul23 = fmul double %mul21, %25, !dbg !2799
  %sub24 = fsub double %mul19, %mul23, !dbg !2800
  %26 = load double, double* %y2, align 8, !dbg !2801
  %27 = load double, double* %z2, align 8, !dbg !2802
  %mul25 = fmul double %26, %27, !dbg !2803
  %28 = load double*, double** %ptr.addr, align 8, !dbg !2804
  %arrayidx26 = getelementptr inbounds double, double* %28, i64 2, !dbg !2804
  %29 = load double, double* %arrayidx26, align 8, !dbg !2804
  %mul27 = fmul double %mul25, %29, !dbg !2805
  %sub28 = fsub double %sub24, %mul27, !dbg !2806
  %fneg = fneg double %sub28, !dbg !2807
  store double %fneg, double* %r, align 8, !dbg !2808
  store double 1.000000e+01, double* %ref.tmp, align 8, !dbg !2809
  %30 = load double*, double** %ptr.addr, align 8, !dbg !2810
  %arrayidx30 = getelementptr inbounds double, double* %30, i64 3, !dbg !2810
  %31 = load double, double* %arrayidx30, align 8, !dbg !2810
  %32 = load double, double* %r, align 8, !dbg !2811
  %mul31 = fmul double %31, %32, !dbg !2812
  store double %mul31, double* %ref.tmp29, align 8, !dbg !2810
  store double -1.000000e+01, double* %ref.tmp32, align 8, !dbg !2813
  %call = call dereferenceable(8) double* @_ZSt3maxIdERKT_S2_S2_(double* dereferenceable(8) %ref.tmp29, double* dereferenceable(8) %ref.tmp32), !dbg !2814
  %call33 = call dereferenceable(8) double* @_ZSt3minIdERKT_S2_S2_(double* dereferenceable(8) %ref.tmp, double* dereferenceable(8) %call), !dbg !2815
  %33 = load double, double* %call33, align 8, !dbg !2815
  ret double %33, !dbg !2816
}

; Function Attrs: noinline uwtable
define dso_local double @_ZN3pov15f_helical_torusEPdj(double* %ptr, i32 %0) #0 !dbg !2817 {
entry:
  %ptr.addr = alloca double*, align 8
  %.addr = alloca i32, align 4
  %r = alloca double, align 8
  %r2 = alloca double, align 8
  %temp = alloca double, align 8
  %th = alloca double, align 8
  %ph = alloca double, align 8
  %ref.tmp = alloca double, align 8
  %ref.tmp68 = alloca double, align 8
  store double* %ptr, double** %ptr.addr, align 8
  call void @llvm.dbg.declare(metadata double** %ptr.addr, metadata !2818, metadata !DIExpression()), !dbg !2819
  store i32 %0, i32* %.addr, align 4
  call void @llvm.dbg.declare(metadata i32* %.addr, metadata !2820, metadata !DIExpression()), !dbg !2821
  call void @llvm.dbg.declare(metadata double* %r, metadata !2822, metadata !DIExpression()), !dbg !2823
  call void @llvm.dbg.declare(metadata double* %r2, metadata !2824, metadata !DIExpression()), !dbg !2825
  call void @llvm.dbg.declare(metadata double* %temp, metadata !2826, metadata !DIExpression()), !dbg !2827
  call void @llvm.dbg.declare(metadata double* %th, metadata !2828, metadata !DIExpression()), !dbg !2829
  call void @llvm.dbg.declare(metadata double* %ph, metadata !2830, metadata !DIExpression()), !dbg !2831
  %1 = load double*, double** %ptr.addr, align 8, !dbg !2832
  %arrayidx = getelementptr inbounds double, double* %1, i64 0, !dbg !2832
  %2 = load double, double* %arrayidx, align 8, !dbg !2832
  %3 = load double*, double** %ptr.addr, align 8, !dbg !2833
  %arrayidx1 = getelementptr inbounds double, double* %3, i64 0, !dbg !2833
  %4 = load double, double* %arrayidx1, align 8, !dbg !2833
  %mul = fmul double %2, %4, !dbg !2834
  %5 = load double*, double** %ptr.addr, align 8, !dbg !2835
  %arrayidx2 = getelementptr inbounds double, double* %5, i64 2, !dbg !2835
  %6 = load double, double* %arrayidx2, align 8, !dbg !2835
  %7 = load double*, double** %ptr.addr, align 8, !dbg !2836
  %arrayidx3 = getelementptr inbounds double, double* %7, i64 2, !dbg !2836
  %8 = load double, double* %arrayidx3, align 8, !dbg !2836
  %mul4 = fmul double %6, %8, !dbg !2837
  %add = fadd double %mul, %mul4, !dbg !2838
  %call = call double @sqrt(double %add) #5, !dbg !2839
  store double %call, double* %r2, align 8, !dbg !2840
  %9 = load double*, double** %ptr.addr, align 8, !dbg !2841
  %arrayidx5 = getelementptr inbounds double, double* %9, i64 0, !dbg !2841
  %10 = load double, double* %arrayidx5, align 8, !dbg !2841
  %cmp = fcmp oeq double %10, 0.000000e+00, !dbg !2843
  br i1 %cmp, label %land.lhs.true, label %if.end, !dbg !2844

land.lhs.true:                                    ; preds = %entry
  %11 = load double*, double** %ptr.addr, align 8, !dbg !2845
  %arrayidx6 = getelementptr inbounds double, double* %11, i64 2, !dbg !2845
  %12 = load double, double* %arrayidx6, align 8, !dbg !2845
  %cmp7 = fcmp oeq double %12, 0.000000e+00, !dbg !2846
  br i1 %cmp7, label %if.then, label %if.end, !dbg !2847

if.then:                                          ; preds = %land.lhs.true
  %13 = load double*, double** %ptr.addr, align 8, !dbg !2848
  %arrayidx8 = getelementptr inbounds double, double* %13, i64 0, !dbg !2848
  store double 0x3EB0C6F7A0B5ED8D, double* %arrayidx8, align 8, !dbg !2849
  br label %if.end, !dbg !2848

if.end:                                           ; preds = %if.then, %land.lhs.true, %entry
  %14 = load double*, double** %ptr.addr, align 8, !dbg !2850
  %arrayidx9 = getelementptr inbounds double, double* %14, i64 0, !dbg !2850
  %15 = load double, double* %arrayidx9, align 8, !dbg !2850
  %16 = load double*, double** %ptr.addr, align 8, !dbg !2851
  %arrayidx10 = getelementptr inbounds double, double* %16, i64 2, !dbg !2851
  %17 = load double, double* %arrayidx10, align 8, !dbg !2851
  %call11 = call double @atan2(double %15, double %17) #5, !dbg !2852
  store double %call11, double* %ph, align 8, !dbg !2853
  %18 = load double, double* %r2, align 8, !dbg !2854
  %19 = load double*, double** %ptr.addr, align 8, !dbg !2855
  %arrayidx12 = getelementptr inbounds double, double* %19, i64 3, !dbg !2855
  %20 = load double, double* %arrayidx12, align 8, !dbg !2855
  %sub = fsub double %18, %20, !dbg !2856
  %21 = load double*, double** %ptr.addr, align 8, !dbg !2857
  %arrayidx13 = getelementptr inbounds double, double* %21, i64 1, !dbg !2857
  %22 = load double, double* %arrayidx13, align 8, !dbg !2857
  %call14 = call double @atan2(double %sub, double %22) #5, !dbg !2858
  store double %call14, double* %temp, align 8, !dbg !2859
  %23 = load double, double* %r2, align 8, !dbg !2860
  %24 = load double*, double** %ptr.addr, align 8, !dbg !2861
  %arrayidx15 = getelementptr inbounds double, double* %24, i64 3, !dbg !2861
  %25 = load double, double* %arrayidx15, align 8, !dbg !2861
  %sub16 = fsub double %23, %25, !dbg !2862
  %26 = load double, double* %r2, align 8, !dbg !2863
  %27 = load double*, double** %ptr.addr, align 8, !dbg !2864
  %arrayidx17 = getelementptr inbounds double, double* %27, i64 3, !dbg !2864
  %28 = load double, double* %arrayidx17, align 8, !dbg !2864
  %sub18 = fsub double %26, %28, !dbg !2865
  %mul19 = fmul double %sub16, %sub18, !dbg !2866
  %29 = load double*, double** %ptr.addr, align 8, !dbg !2867
  %arrayidx20 = getelementptr inbounds double, double* %29, i64 1, !dbg !2867
  %30 = load double, double* %arrayidx20, align 8, !dbg !2867
  %31 = load double*, double** %ptr.addr, align 8, !dbg !2868
  %arrayidx21 = getelementptr inbounds double, double* %31, i64 1, !dbg !2868
  %32 = load double, double* %arrayidx21, align 8, !dbg !2868
  %mul22 = fmul double %30, %32, !dbg !2869
  %add23 = fadd double %mul19, %mul22, !dbg !2870
  %call24 = call double @sqrt(double %add23) #5, !dbg !2871
  store double %call24, double* %r, align 8, !dbg !2872
  %33 = load double, double* %ph, align 8, !dbg !2873
  %34 = load double*, double** %ptr.addr, align 8, !dbg !2874
  %arrayidx25 = getelementptr inbounds double, double* %34, i64 4, !dbg !2874
  %35 = load double, double* %arrayidx25, align 8, !dbg !2874
  %mul26 = fmul double %33, %35, !dbg !2875
  %36 = load double, double* %temp, align 8, !dbg !2876
  %37 = load double*, double** %ptr.addr, align 8, !dbg !2877
  %arrayidx27 = getelementptr inbounds double, double* %37, i64 5, !dbg !2877
  %38 = load double, double* %arrayidx27, align 8, !dbg !2877
  %mul28 = fmul double %36, %38, !dbg !2878
  %add29 = fadd double %mul26, %mul28, !dbg !2879
  %call30 = call double @fmod(double %add29, double 0x401921FB54442D18) #5, !dbg !2880
  store double %call30, double* %th, align 8, !dbg !2881
  %39 = load double, double* %th, align 8, !dbg !2882
  %cmp31 = fcmp olt double %39, 0.000000e+00, !dbg !2884
  br i1 %cmp31, label %if.then32, label %if.end34, !dbg !2885

if.then32:                                        ; preds = %if.end
  %40 = load double, double* %th, align 8, !dbg !2886
  %add33 = fadd double %40, 0x401921FB54442D18, !dbg !2886
  store double %add33, double* %th, align 8, !dbg !2886
  br label %if.end34, !dbg !2887

if.end34:                                         ; preds = %if.then32, %if.end
  %41 = load double, double* %th, align 8, !dbg !2888
  %sub35 = fsub double %41, 0x400921FB54442D18, !dbg !2889
  %42 = load double*, double** %ptr.addr, align 8, !dbg !2890
  %arrayidx36 = getelementptr inbounds double, double* %42, i64 11, !dbg !2890
  %43 = load double, double* %arrayidx36, align 8, !dbg !2890
  %mul37 = fmul double %sub35, %43, !dbg !2891
  %44 = load double, double* %r, align 8, !dbg !2892
  %45 = load double*, double** %ptr.addr, align 8, !dbg !2893
  %arrayidx38 = getelementptr inbounds double, double* %45, i64 8, !dbg !2893
  %46 = load double, double* %arrayidx38, align 8, !dbg !2893
  %sub39 = fsub double %44, %46, !dbg !2894
  %call40 = call double @atan2(double %mul37, double %sub39) #5, !dbg !2895
  store double %call40, double* %temp, align 8, !dbg !2896
  %47 = load double, double* %temp, align 8, !dbg !2897
  %48 = load double*, double** %ptr.addr, align 8, !dbg !2898
  %arrayidx41 = getelementptr inbounds double, double* %48, i64 10, !dbg !2898
  %49 = load double, double* %arrayidx41, align 8, !dbg !2898
  %mul42 = fmul double %47, %49, !dbg !2899
  %50 = load double, double* %ph, align 8, !dbg !2900
  %51 = load double*, double** %ptr.addr, align 8, !dbg !2901
  %arrayidx43 = getelementptr inbounds double, double* %51, i64 12, !dbg !2901
  %52 = load double, double* %arrayidx43, align 8, !dbg !2901
  %mul44 = fmul double %50, %52, !dbg !2902
  %add45 = fadd double %mul42, %mul44, !dbg !2903
  %call46 = call double @cos(double %add45) #5, !dbg !2904
  %53 = load double*, double** %ptr.addr, align 8, !dbg !2905
  %arrayidx47 = getelementptr inbounds double, double* %53, i64 6, !dbg !2905
  %54 = load double, double* %arrayidx47, align 8, !dbg !2905
  %mul48 = fmul double %call46, %54, !dbg !2906
  %55 = load double*, double** %ptr.addr, align 8, !dbg !2907
  %arrayidx49 = getelementptr inbounds double, double* %55, i64 7, !dbg !2907
  %56 = load double, double* %arrayidx49, align 8, !dbg !2907
  %add50 = fadd double %mul48, %56, !dbg !2908
  store double %add50, double* %temp, align 8, !dbg !2909
  %57 = load double*, double** %ptr.addr, align 8, !dbg !2910
  %arrayidx51 = getelementptr inbounds double, double* %57, i64 7, !dbg !2910
  %58 = load double, double* %arrayidx51, align 8, !dbg !2910
  %59 = load double*, double** %ptr.addr, align 8, !dbg !2911
  %arrayidx52 = getelementptr inbounds double, double* %59, i64 8, !dbg !2911
  %60 = load double, double* %arrayidx52, align 8, !dbg !2911
  %add53 = fadd double %58, %60, !dbg !2912
  %61 = load double*, double** %ptr.addr, align 8, !dbg !2913
  %arrayidx54 = getelementptr inbounds double, double* %61, i64 3, !dbg !2913
  %62 = load double, double* %arrayidx54, align 8, !dbg !2913
  %sub55 = fsub double %add53, %62, !dbg !2914
  %63 = load double, double* %r2, align 8, !dbg !2915
  %sub56 = fsub double %sub55, %63, !dbg !2916
  store double %sub56, double* %r2, align 8, !dbg !2917
  %64 = load double, double* %th, align 8, !dbg !2918
  %sub57 = fsub double %64, 0x400921FB54442D18, !dbg !2919
  store double %sub57, double* %th, align 8, !dbg !2920
  %65 = load double, double* %temp, align 8, !dbg !2921
  %66 = load double, double* %r, align 8, !dbg !2922
  %67 = load double*, double** %ptr.addr, align 8, !dbg !2923
  %arrayidx58 = getelementptr inbounds double, double* %67, i64 8, !dbg !2923
  %68 = load double, double* %arrayidx58, align 8, !dbg !2923
  %sub59 = fsub double %66, %68, !dbg !2924
  %69 = load double, double* %r, align 8, !dbg !2925
  %70 = load double*, double** %ptr.addr, align 8, !dbg !2926
  %arrayidx60 = getelementptr inbounds double, double* %70, i64 8, !dbg !2926
  %71 = load double, double* %arrayidx60, align 8, !dbg !2926
  %sub61 = fsub double %69, %71, !dbg !2927
  %mul62 = fmul double %sub59, %sub61, !dbg !2928
  %72 = load double, double* %th, align 8, !dbg !2929
  %73 = load double, double* %th, align 8, !dbg !2930
  %mul63 = fmul double %72, %73, !dbg !2931
  %74 = load double*, double** %ptr.addr, align 8, !dbg !2932
  %arrayidx64 = getelementptr inbounds double, double* %74, i64 9, !dbg !2932
  %75 = load double, double* %arrayidx64, align 8, !dbg !2932
  %mul65 = fmul double %mul63, %75, !dbg !2933
  %add66 = fadd double %mul62, %mul65, !dbg !2934
  %call67 = call double @sqrt(double %add66) #5, !dbg !2935
  store double %call67, double* %ref.tmp, align 8, !dbg !2935
  %76 = load double, double* %r, align 8, !dbg !2936
  %77 = load double*, double** %ptr.addr, align 8, !dbg !2937
  %arrayidx69 = getelementptr inbounds double, double* %77, i64 8, !dbg !2937
  %78 = load double, double* %arrayidx69, align 8, !dbg !2937
  %add70 = fadd double %76, %78, !dbg !2938
  store double %add70, double* %ref.tmp68, align 8, !dbg !2939
  %call71 = call dereferenceable(8) double* @_ZSt3minIdERKT_S2_S2_(double* dereferenceable(8) %ref.tmp, double* dereferenceable(8) %ref.tmp68), !dbg !2940
  %79 = load double, double* %call71, align 8, !dbg !2940
  %sub72 = fsub double %65, %79, !dbg !2941
  store double %sub72, double* %temp, align 8, !dbg !2942
  %call73 = call dereferenceable(8) double* @_ZSt3maxIdERKT_S2_S2_(double* dereferenceable(8) %r2, double* dereferenceable(8) %temp), !dbg !2943
  %80 = load double, double* %call73, align 8, !dbg !2943
  %fneg = fneg double %80, !dbg !2944
  ret double %fneg, !dbg !2945
}

; Function Attrs: noinline uwtable
define dso_local double @_ZN3pov8f_helix1EPdj(double* %ptr, i32 %0) #0 !dbg !2946 {
entry:
  %ptr.addr = alloca double*, align 8
  %.addr = alloca i32, align 4
  %r = alloca double, align 8
  %r2 = alloca double, align 8
  %temp = alloca double, align 8
  %th = alloca double, align 8
  %ph = alloca double, align 8
  %x2 = alloca double, align 8
  %ref.tmp = alloca double, align 8
  %ref.tmp82 = alloca double, align 8
  %ref.tmp88 = alloca double, align 8
  store double* %ptr, double** %ptr.addr, align 8
  call void @llvm.dbg.declare(metadata double** %ptr.addr, metadata !2947, metadata !DIExpression()), !dbg !2948
  store i32 %0, i32* %.addr, align 4
  call void @llvm.dbg.declare(metadata i32* %.addr, metadata !2949, metadata !DIExpression()), !dbg !2950
  call void @llvm.dbg.declare(metadata double* %r, metadata !2951, metadata !DIExpression()), !dbg !2952
  call void @llvm.dbg.declare(metadata double* %r2, metadata !2953, metadata !DIExpression()), !dbg !2954
  call void @llvm.dbg.declare(metadata double* %temp, metadata !2955, metadata !DIExpression()), !dbg !2956
  call void @llvm.dbg.declare(metadata double* %th, metadata !2957, metadata !DIExpression()), !dbg !2958
  call void @llvm.dbg.declare(metadata double* %ph, metadata !2959, metadata !DIExpression()), !dbg !2960
  call void @llvm.dbg.declare(metadata double* %x2, metadata !2961, metadata !DIExpression()), !dbg !2962
  %1 = load double*, double** %ptr.addr, align 8, !dbg !2963
  %arrayidx = getelementptr inbounds double, double* %1, i64 0, !dbg !2963
  %2 = load double, double* %arrayidx, align 8, !dbg !2963
  %3 = load double*, double** %ptr.addr, align 8, !dbg !2964
  %arrayidx1 = getelementptr inbounds double, double* %3, i64 0, !dbg !2964
  %4 = load double, double* %arrayidx1, align 8, !dbg !2964
  %mul = fmul double %2, %4, !dbg !2965
  %5 = load double*, double** %ptr.addr, align 8, !dbg !2966
  %arrayidx2 = getelementptr inbounds double, double* %5, i64 2, !dbg !2966
  %6 = load double, double* %arrayidx2, align 8, !dbg !2966
  %7 = load double*, double** %ptr.addr, align 8, !dbg !2967
  %arrayidx3 = getelementptr inbounds double, double* %7, i64 2, !dbg !2967
  %8 = load double, double* %arrayidx3, align 8, !dbg !2967
  %mul4 = fmul double %6, %8, !dbg !2968
  %add = fadd double %mul, %mul4, !dbg !2969
  %call = call double @sqrt(double %add) #5, !dbg !2970
  store double %call, double* %r, align 8, !dbg !2971
  %9 = load double*, double** %ptr.addr, align 8, !dbg !2972
  %arrayidx5 = getelementptr inbounds double, double* %9, i64 0, !dbg !2972
  %10 = load double, double* %arrayidx5, align 8, !dbg !2972
  %cmp = fcmp oeq double %10, 0.000000e+00, !dbg !2974
  br i1 %cmp, label %land.lhs.true, label %if.end, !dbg !2975

land.lhs.true:                                    ; preds = %entry
  %11 = load double*, double** %ptr.addr, align 8, !dbg !2976
  %arrayidx6 = getelementptr inbounds double, double* %11, i64 2, !dbg !2976
  %12 = load double, double* %arrayidx6, align 8, !dbg !2976
  %cmp7 = fcmp oeq double %12, 0.000000e+00, !dbg !2977
  br i1 %cmp7, label %if.then, label %if.end, !dbg !2978

if.then:                                          ; preds = %land.lhs.true
  %13 = load double*, double** %ptr.addr, align 8, !dbg !2979
  %arrayidx8 = getelementptr inbounds double, double* %13, i64 0, !dbg !2979
  store double 0x3EB0C6F7A0B5ED8D, double* %arrayidx8, align 8, !dbg !2980
  br label %if.end, !dbg !2979

if.end:                                           ; preds = %if.then, %land.lhs.true, %entry
  %14 = load double*, double** %ptr.addr, align 8, !dbg !2981
  %arrayidx9 = getelementptr inbounds double, double* %14, i64 2, !dbg !2981
  %15 = load double, double* %arrayidx9, align 8, !dbg !2981
  %16 = load double*, double** %ptr.addr, align 8, !dbg !2982
  %arrayidx10 = getelementptr inbounds double, double* %16, i64 0, !dbg !2982
  %17 = load double, double* %arrayidx10, align 8, !dbg !2982
  %call11 = call double @atan2(double %15, double %17) #5, !dbg !2983
  store double %call11, double* %th, align 8, !dbg !2984
  %18 = load double, double* %th, align 8, !dbg !2985
  %19 = load double*, double** %ptr.addr, align 8, !dbg !2986
  %arrayidx12 = getelementptr inbounds double, double* %19, i64 3, !dbg !2986
  %20 = load double, double* %arrayidx12, align 8, !dbg !2986
  %mul13 = fmul double %18, %20, !dbg !2987
  %21 = load double*, double** %ptr.addr, align 8, !dbg !2988
  %arrayidx14 = getelementptr inbounds double, double* %21, i64 1, !dbg !2988
  %22 = load double, double* %arrayidx14, align 8, !dbg !2988
  %23 = load double*, double** %ptr.addr, align 8, !dbg !2989
  %arrayidx15 = getelementptr inbounds double, double* %23, i64 4, !dbg !2989
  %24 = load double, double* %arrayidx15, align 8, !dbg !2989
  %mul16 = fmul double %22, %24, !dbg !2990
  %25 = load double*, double** %ptr.addr, align 8, !dbg !2991
  %arrayidx17 = getelementptr inbounds double, double* %25, i64 3, !dbg !2991
  %26 = load double, double* %arrayidx17, align 8, !dbg !2991
  %mul18 = fmul double %mul16, %26, !dbg !2992
  %add19 = fadd double %mul13, %mul18, !dbg !2993
  %call20 = call double @fmod(double %add19, double 0x401921FB54442D18) #5, !dbg !2994
  store double %call20, double* %th, align 8, !dbg !2995
  %27 = load double, double* %th, align 8, !dbg !2996
  %cmp21 = fcmp olt double %27, 0.000000e+00, !dbg !2998
  br i1 %cmp21, label %if.then22, label %if.end24, !dbg !2999

if.then22:                                        ; preds = %if.end
  %28 = load double, double* %th, align 8, !dbg !3000
  %add23 = fadd double %28, 0x401921FB54442D18, !dbg !3000
  store double %add23, double* %th, align 8, !dbg !3000
  br label %if.end24, !dbg !3001

if.end24:                                         ; preds = %if.then22, %if.end
  %29 = load double, double* %th, align 8, !dbg !3002
  %sub = fsub double %29, 0x400921FB54442D18, !dbg !3003
  %30 = load double*, double** %ptr.addr, align 8, !dbg !3004
  %arrayidx25 = getelementptr inbounds double, double* %30, i64 7, !dbg !3004
  %31 = load double, double* %arrayidx25, align 8, !dbg !3004
  %div = fdiv double %sub, %31, !dbg !3005
  %32 = load double*, double** %ptr.addr, align 8, !dbg !3006
  %arrayidx26 = getelementptr inbounds double, double* %32, i64 4, !dbg !3006
  %33 = load double, double* %arrayidx26, align 8, !dbg !3006
  %34 = load double*, double** %ptr.addr, align 8, !dbg !3007
  %arrayidx27 = getelementptr inbounds double, double* %34, i64 3, !dbg !3007
  %35 = load double, double* %arrayidx27, align 8, !dbg !3007
  %mul28 = fmul double %33, %35, !dbg !3008
  %div29 = fdiv double %div, %mul28, !dbg !3009
  %36 = load double*, double** %ptr.addr, align 8, !dbg !3010
  %arrayidx30 = getelementptr inbounds double, double* %36, i64 2, !dbg !3010
  store double %div29, double* %arrayidx30, align 8, !dbg !3011
  %37 = load double, double* %r, align 8, !dbg !3012
  %38 = load double*, double** %ptr.addr, align 8, !dbg !3013
  %arrayidx31 = getelementptr inbounds double, double* %38, i64 6, !dbg !3013
  %39 = load double, double* %arrayidx31, align 8, !dbg !3013
  %sub32 = fsub double %37, %39, !dbg !3014
  %40 = load double*, double** %ptr.addr, align 8, !dbg !3015
  %arrayidx33 = getelementptr inbounds double, double* %40, i64 0, !dbg !3015
  store double %sub32, double* %arrayidx33, align 8, !dbg !3016
  %41 = load double*, double** %ptr.addr, align 8, !dbg !3017
  %arrayidx34 = getelementptr inbounds double, double* %41, i64 8, !dbg !3017
  %42 = load double, double* %arrayidx34, align 8, !dbg !3017
  %cmp35 = fcmp oeq double %42, 1.000000e+00, !dbg !3019
  br i1 %cmp35, label %if.then36, label %if.else, !dbg !3020

if.then36:                                        ; preds = %if.end24
  %43 = load double*, double** %ptr.addr, align 8, !dbg !3021
  %arrayidx37 = getelementptr inbounds double, double* %43, i64 0, !dbg !3021
  %44 = load double, double* %arrayidx37, align 8, !dbg !3021
  %45 = load double*, double** %ptr.addr, align 8, !dbg !3022
  %arrayidx38 = getelementptr inbounds double, double* %45, i64 0, !dbg !3022
  %46 = load double, double* %arrayidx38, align 8, !dbg !3022
  %mul39 = fmul double %44, %46, !dbg !3023
  %47 = load double*, double** %ptr.addr, align 8, !dbg !3024
  %arrayidx40 = getelementptr inbounds double, double* %47, i64 2, !dbg !3024
  %48 = load double, double* %arrayidx40, align 8, !dbg !3024
  %49 = load double*, double** %ptr.addr, align 8, !dbg !3025
  %arrayidx41 = getelementptr inbounds double, double* %49, i64 2, !dbg !3025
  %50 = load double, double* %arrayidx41, align 8, !dbg !3025
  %mul42 = fmul double %48, %50, !dbg !3026
  %add43 = fadd double %mul39, %mul42, !dbg !3027
  %call44 = call double @sqrt(double %add43) #5, !dbg !3028
  store double %call44, double* %r2, align 8, !dbg !3029
  br label %if.end86, !dbg !3030

if.else:                                          ; preds = %if.end24
  %51 = load double*, double** %ptr.addr, align 8, !dbg !3031
  %arrayidx45 = getelementptr inbounds double, double* %51, i64 9, !dbg !3031
  %52 = load double, double* %arrayidx45, align 8, !dbg !3031
  %cmp46 = fcmp une double %52, 0.000000e+00, !dbg !3034
  br i1 %cmp46, label %if.then47, label %if.end66, !dbg !3035

if.then47:                                        ; preds = %if.else
  %53 = load double*, double** %ptr.addr, align 8, !dbg !3036
  %arrayidx48 = getelementptr inbounds double, double* %53, i64 9, !dbg !3036
  %54 = load double, double* %arrayidx48, align 8, !dbg !3036
  %mul49 = fmul double %54, 0x3F91DF46A2529D39, !dbg !3038
  %call50 = call double @cos(double %mul49) #5, !dbg !3039
  store double %call50, double* %th, align 8, !dbg !3040
  %55 = load double*, double** %ptr.addr, align 8, !dbg !3041
  %arrayidx51 = getelementptr inbounds double, double* %55, i64 9, !dbg !3041
  %56 = load double, double* %arrayidx51, align 8, !dbg !3041
  %mul52 = fmul double %56, 0x3F91DF46A2529D39, !dbg !3042
  %call53 = call double @sin(double %mul52) #5, !dbg !3043
  store double %call53, double* %ph, align 8, !dbg !3044
  %57 = load double*, double** %ptr.addr, align 8, !dbg !3045
  %arrayidx54 = getelementptr inbounds double, double* %57, i64 0, !dbg !3045
  %58 = load double, double* %arrayidx54, align 8, !dbg !3045
  %59 = load double, double* %th, align 8, !dbg !3046
  %mul55 = fmul double %58, %59, !dbg !3047
  %60 = load double*, double** %ptr.addr, align 8, !dbg !3048
  %arrayidx56 = getelementptr inbounds double, double* %60, i64 2, !dbg !3048
  %61 = load double, double* %arrayidx56, align 8, !dbg !3048
  %62 = load double, double* %ph, align 8, !dbg !3049
  %mul57 = fmul double %61, %62, !dbg !3050
  %sub58 = fsub double %mul55, %mul57, !dbg !3051
  store double %sub58, double* %x2, align 8, !dbg !3052
  %63 = load double*, double** %ptr.addr, align 8, !dbg !3053
  %arrayidx59 = getelementptr inbounds double, double* %63, i64 0, !dbg !3053
  %64 = load double, double* %arrayidx59, align 8, !dbg !3053
  %65 = load double, double* %ph, align 8, !dbg !3054
  %mul60 = fmul double %64, %65, !dbg !3055
  %66 = load double*, double** %ptr.addr, align 8, !dbg !3056
  %arrayidx61 = getelementptr inbounds double, double* %66, i64 2, !dbg !3056
  %67 = load double, double* %arrayidx61, align 8, !dbg !3056
  %68 = load double, double* %th, align 8, !dbg !3057
  %mul62 = fmul double %67, %68, !dbg !3058
  %add63 = fadd double %mul60, %mul62, !dbg !3059
  %69 = load double*, double** %ptr.addr, align 8, !dbg !3060
  %arrayidx64 = getelementptr inbounds double, double* %69, i64 2, !dbg !3060
  store double %add63, double* %arrayidx64, align 8, !dbg !3061
  %70 = load double, double* %x2, align 8, !dbg !3062
  %71 = load double*, double** %ptr.addr, align 8, !dbg !3063
  %arrayidx65 = getelementptr inbounds double, double* %71, i64 0, !dbg !3063
  store double %70, double* %arrayidx65, align 8, !dbg !3064
  br label %if.end66, !dbg !3065

if.end66:                                         ; preds = %if.then47, %if.else
  %72 = load double*, double** %ptr.addr, align 8, !dbg !3066
  %arrayidx67 = getelementptr inbounds double, double* %72, i64 8, !dbg !3066
  %73 = load double, double* %arrayidx67, align 8, !dbg !3066
  %cmp68 = fcmp une double %73, 0.000000e+00, !dbg !3068
  br i1 %cmp68, label %if.then69, label %if.else80, !dbg !3069

if.then69:                                        ; preds = %if.end66
  %74 = load double*, double** %ptr.addr, align 8, !dbg !3070
  %arrayidx70 = getelementptr inbounds double, double* %74, i64 8, !dbg !3070
  %75 = load double, double* %arrayidx70, align 8, !dbg !3070
  %div71 = fdiv double 2.000000e+00, %75, !dbg !3072
  store double %div71, double* %temp, align 8, !dbg !3073
  %76 = load double*, double** %ptr.addr, align 8, !dbg !3074
  %arrayidx72 = getelementptr inbounds double, double* %76, i64 0, !dbg !3074
  %77 = load double, double* %arrayidx72, align 8, !dbg !3074
  %78 = call double @llvm.fabs.f64(double %77), !dbg !3075
  %79 = load double, double* %temp, align 8, !dbg !3076
  %call73 = call double @pow(double %78, double %79) #5, !dbg !3077
  %80 = load double*, double** %ptr.addr, align 8, !dbg !3078
  %arrayidx74 = getelementptr inbounds double, double* %80, i64 2, !dbg !3078
  %81 = load double, double* %arrayidx74, align 8, !dbg !3078
  %82 = call double @llvm.fabs.f64(double %81), !dbg !3079
  %83 = load double, double* %temp, align 8, !dbg !3080
  %call75 = call double @pow(double %82, double %83) #5, !dbg !3081
  %add76 = fadd double %call73, %call75, !dbg !3082
  %84 = load double*, double** %ptr.addr, align 8, !dbg !3083
  %arrayidx77 = getelementptr inbounds double, double* %84, i64 8, !dbg !3083
  %85 = load double, double* %arrayidx77, align 8, !dbg !3083
  %mul78 = fmul double %85, 5.000000e-01, !dbg !3084
  %call79 = call double @pow(double %add76, double %mul78) #5, !dbg !3085
  store double %call79, double* %r2, align 8, !dbg !3086
  br label %if.end85, !dbg !3087

if.else80:                                        ; preds = %if.end66
  %86 = load double*, double** %ptr.addr, align 8, !dbg !3088
  %arrayidx81 = getelementptr inbounds double, double* %86, i64 0, !dbg !3088
  %87 = load double, double* %arrayidx81, align 8, !dbg !3088
  %88 = call double @llvm.fabs.f64(double %87), !dbg !3089
  store double %88, double* %ref.tmp, align 8, !dbg !3089
  %89 = load double*, double** %ptr.addr, align 8, !dbg !3090
  %arrayidx83 = getelementptr inbounds double, double* %89, i64 2, !dbg !3090
  %90 = load double, double* %arrayidx83, align 8, !dbg !3090
  %91 = call double @llvm.fabs.f64(double %90), !dbg !3091
  store double %91, double* %ref.tmp82, align 8, !dbg !3091
  %call84 = call dereferenceable(8) double* @_ZSt3maxIdERKT_S2_S2_(double* dereferenceable(8) %ref.tmp, double* dereferenceable(8) %ref.tmp82), !dbg !3092
  %92 = load double, double* %call84, align 8, !dbg !3092
  store double %92, double* %r2, align 8, !dbg !3093
  br label %if.end85

if.end85:                                         ; preds = %if.else80, %if.then69
  br label %if.end86

if.end86:                                         ; preds = %if.end85, %if.then36
  %93 = load double*, double** %ptr.addr, align 8, !dbg !3094
  %arrayidx87 = getelementptr inbounds double, double* %93, i64 5, !dbg !3094
  %94 = load double, double* %arrayidx87, align 8, !dbg !3094
  %fneg = fneg double %94, !dbg !3095
  %95 = load double*, double** %ptr.addr, align 8, !dbg !3096
  %arrayidx89 = getelementptr inbounds double, double* %95, i64 6, !dbg !3096
  %96 = load double, double* %arrayidx89, align 8, !dbg !3096
  %97 = load double, double* %r, align 8, !dbg !3097
  %add90 = fadd double %96, %97, !dbg !3098
  store double %add90, double* %ref.tmp88, align 8, !dbg !3099
  %call91 = call dereferenceable(8) double* @_ZSt3minIdERKT_S2_S2_(double* dereferenceable(8) %ref.tmp88, double* dereferenceable(8) %r2), !dbg !3100
  %98 = load double, double* %call91, align 8, !dbg !3100
  %add92 = fadd double %fneg, %98, !dbg !3101
  ret double %add92, !dbg !3102
}

; Function Attrs: noinline uwtable
define dso_local double @_ZN3pov8f_helix2EPdj(double* %ptr, i32 %0) #0 !dbg !3103 {
entry:
  %retval = alloca double, align 8
  %ptr.addr = alloca double*, align 8
  %.addr = alloca i32, align 4
  %th = alloca double, align 8
  %ph = alloca double, align 8
  %x2 = alloca double, align 8
  %z2 = alloca double, align 8
  %r2 = alloca double, align 8
  %temp = alloca double, align 8
  %ref.tmp = alloca double, align 8
  %ref.tmp41 = alloca double, align 8
  store double* %ptr, double** %ptr.addr, align 8
  call void @llvm.dbg.declare(metadata double** %ptr.addr, metadata !3104, metadata !DIExpression()), !dbg !3105
  store i32 %0, i32* %.addr, align 4
  call void @llvm.dbg.declare(metadata i32* %.addr, metadata !3106, metadata !DIExpression()), !dbg !3107
  call void @llvm.dbg.declare(metadata double* %th, metadata !3108, metadata !DIExpression()), !dbg !3109
  call void @llvm.dbg.declare(metadata double* %ph, metadata !3110, metadata !DIExpression()), !dbg !3111
  call void @llvm.dbg.declare(metadata double* %x2, metadata !3112, metadata !DIExpression()), !dbg !3113
  call void @llvm.dbg.declare(metadata double* %z2, metadata !3114, metadata !DIExpression()), !dbg !3115
  call void @llvm.dbg.declare(metadata double* %r2, metadata !3116, metadata !DIExpression()), !dbg !3117
  call void @llvm.dbg.declare(metadata double* %temp, metadata !3118, metadata !DIExpression()), !dbg !3119
  %1 = load double*, double** %ptr.addr, align 8, !dbg !3120
  %arrayidx = getelementptr inbounds double, double* %1, i64 1, !dbg !3120
  %2 = load double, double* %arrayidx, align 8, !dbg !3120
  %3 = load double*, double** %ptr.addr, align 8, !dbg !3121
  %arrayidx1 = getelementptr inbounds double, double* %3, i64 4, !dbg !3121
  %4 = load double, double* %arrayidx1, align 8, !dbg !3121
  %mul = fmul double %2, %4, !dbg !3122
  store double %mul, double* %th, align 8, !dbg !3123
  %5 = load double, double* %th, align 8, !dbg !3124
  %call = call double @cos(double %5) #5, !dbg !3125
  store double %call, double* %ph, align 8, !dbg !3126
  %6 = load double, double* %th, align 8, !dbg !3127
  %call2 = call double @sin(double %6) #5, !dbg !3128
  store double %call2, double* %th, align 8, !dbg !3129
  %7 = load double*, double** %ptr.addr, align 8, !dbg !3130
  %arrayidx3 = getelementptr inbounds double, double* %7, i64 0, !dbg !3130
  %8 = load double, double* %arrayidx3, align 8, !dbg !3130
  %9 = load double*, double** %ptr.addr, align 8, !dbg !3131
  %arrayidx4 = getelementptr inbounds double, double* %9, i64 6, !dbg !3131
  %10 = load double, double* %arrayidx4, align 8, !dbg !3131
  %11 = load double, double* %ph, align 8, !dbg !3132
  %mul5 = fmul double %10, %11, !dbg !3133
  %sub = fsub double %8, %mul5, !dbg !3134
  store double %sub, double* %x2, align 8, !dbg !3135
  %12 = load double*, double** %ptr.addr, align 8, !dbg !3136
  %arrayidx6 = getelementptr inbounds double, double* %12, i64 2, !dbg !3136
  %13 = load double, double* %arrayidx6, align 8, !dbg !3136
  %14 = load double*, double** %ptr.addr, align 8, !dbg !3137
  %arrayidx7 = getelementptr inbounds double, double* %14, i64 6, !dbg !3137
  %15 = load double, double* %arrayidx7, align 8, !dbg !3137
  %16 = load double, double* %th, align 8, !dbg !3138
  %mul8 = fmul double %15, %16, !dbg !3139
  %sub9 = fsub double %13, %mul8, !dbg !3140
  store double %sub9, double* %z2, align 8, !dbg !3141
  %17 = load double, double* %x2, align 8, !dbg !3142
  %18 = load double, double* %ph, align 8, !dbg !3143
  %mul10 = fmul double %17, %18, !dbg !3144
  %19 = load double, double* %z2, align 8, !dbg !3145
  %20 = load double, double* %th, align 8, !dbg !3146
  %mul11 = fmul double %19, %20, !dbg !3147
  %add = fadd double %mul10, %mul11, !dbg !3148
  %21 = load double*, double** %ptr.addr, align 8, !dbg !3149
  %arrayidx12 = getelementptr inbounds double, double* %21, i64 0, !dbg !3149
  store double %add, double* %arrayidx12, align 8, !dbg !3150
  %22 = load double, double* %x2, align 8, !dbg !3151
  %fneg = fneg double %22, !dbg !3152
  %23 = load double, double* %th, align 8, !dbg !3153
  %mul13 = fmul double %fneg, %23, !dbg !3154
  %24 = load double, double* %z2, align 8, !dbg !3155
  %25 = load double, double* %ph, align 8, !dbg !3156
  %mul14 = fmul double %24, %25, !dbg !3157
  %add15 = fadd double %mul13, %mul14, !dbg !3158
  %26 = load double*, double** %ptr.addr, align 8, !dbg !3159
  %arrayidx16 = getelementptr inbounds double, double* %26, i64 2, !dbg !3159
  store double %add15, double* %arrayidx16, align 8, !dbg !3160
  %27 = load double*, double** %ptr.addr, align 8, !dbg !3161
  %arrayidx17 = getelementptr inbounds double, double* %27, i64 8, !dbg !3161
  %28 = load double, double* %arrayidx17, align 8, !dbg !3161
  %cmp = fcmp oeq double %28, 1.000000e+00, !dbg !3163
  br i1 %cmp, label %if.then, label %if.end, !dbg !3164

if.then:                                          ; preds = %entry
  %29 = load double*, double** %ptr.addr, align 8, !dbg !3165
  %arrayidx18 = getelementptr inbounds double, double* %29, i64 0, !dbg !3165
  %30 = load double, double* %arrayidx18, align 8, !dbg !3165
  %31 = load double*, double** %ptr.addr, align 8, !dbg !3166
  %arrayidx19 = getelementptr inbounds double, double* %31, i64 0, !dbg !3166
  %32 = load double, double* %arrayidx19, align 8, !dbg !3166
  %mul20 = fmul double %30, %32, !dbg !3167
  %33 = load double*, double** %ptr.addr, align 8, !dbg !3168
  %arrayidx21 = getelementptr inbounds double, double* %33, i64 2, !dbg !3168
  %34 = load double, double* %arrayidx21, align 8, !dbg !3168
  %35 = load double*, double** %ptr.addr, align 8, !dbg !3169
  %arrayidx22 = getelementptr inbounds double, double* %35, i64 2, !dbg !3169
  %36 = load double, double* %arrayidx22, align 8, !dbg !3169
  %mul23 = fmul double %34, %36, !dbg !3170
  %add24 = fadd double %mul20, %mul23, !dbg !3171
  %call25 = call double @sqrt(double %add24) #5, !dbg !3172
  %37 = load double*, double** %ptr.addr, align 8, !dbg !3173
  %arrayidx26 = getelementptr inbounds double, double* %37, i64 5, !dbg !3173
  %38 = load double, double* %arrayidx26, align 8, !dbg !3173
  %sub27 = fsub double %call25, %38, !dbg !3174
  store double %sub27, double* %retval, align 8, !dbg !3175
  br label %return, !dbg !3175

if.end:                                           ; preds = %entry
  %39 = load double*, double** %ptr.addr, align 8, !dbg !3176
  %arrayidx28 = getelementptr inbounds double, double* %39, i64 8, !dbg !3176
  %40 = load double, double* %arrayidx28, align 8, !dbg !3176
  %cmp29 = fcmp une double %40, 0.000000e+00, !dbg !3178
  br i1 %cmp29, label %if.then30, label %if.else, !dbg !3179

if.then30:                                        ; preds = %if.end
  %41 = load double*, double** %ptr.addr, align 8, !dbg !3180
  %arrayidx31 = getelementptr inbounds double, double* %41, i64 8, !dbg !3180
  %42 = load double, double* %arrayidx31, align 8, !dbg !3180
  %div = fdiv double 2.000000e+00, %42, !dbg !3182
  store double %div, double* %temp, align 8, !dbg !3183
  %43 = load double*, double** %ptr.addr, align 8, !dbg !3184
  %arrayidx32 = getelementptr inbounds double, double* %43, i64 0, !dbg !3184
  %44 = load double, double* %arrayidx32, align 8, !dbg !3184
  %45 = call double @llvm.fabs.f64(double %44), !dbg !3185
  %46 = load double, double* %temp, align 8, !dbg !3186
  %call33 = call double @pow(double %45, double %46) #5, !dbg !3187
  %47 = load double*, double** %ptr.addr, align 8, !dbg !3188
  %arrayidx34 = getelementptr inbounds double, double* %47, i64 2, !dbg !3188
  %48 = load double, double* %arrayidx34, align 8, !dbg !3188
  %49 = call double @llvm.fabs.f64(double %48), !dbg !3189
  %50 = load double, double* %temp, align 8, !dbg !3190
  %call35 = call double @pow(double %49, double %50) #5, !dbg !3191
  %add36 = fadd double %call33, %call35, !dbg !3192
  %51 = load double*, double** %ptr.addr, align 8, !dbg !3193
  %arrayidx37 = getelementptr inbounds double, double* %51, i64 8, !dbg !3193
  %52 = load double, double* %arrayidx37, align 8, !dbg !3193
  %mul38 = fmul double %52, 5.000000e-01, !dbg !3194
  %call39 = call double @pow(double %add36, double %mul38) #5, !dbg !3195
  store double %call39, double* %r2, align 8, !dbg !3196
  br label %if.end44, !dbg !3197

if.else:                                          ; preds = %if.end
  %53 = load double*, double** %ptr.addr, align 8, !dbg !3198
  %arrayidx40 = getelementptr inbounds double, double* %53, i64 0, !dbg !3198
  %54 = load double, double* %arrayidx40, align 8, !dbg !3198
  %55 = call double @llvm.fabs.f64(double %54), !dbg !3199
  store double %55, double* %ref.tmp, align 8, !dbg !3199
  %56 = load double*, double** %ptr.addr, align 8, !dbg !3200
  %arrayidx42 = getelementptr inbounds double, double* %56, i64 2, !dbg !3200
  %57 = load double, double* %arrayidx42, align 8, !dbg !3200
  %58 = call double @llvm.fabs.f64(double %57), !dbg !3201
  store double %58, double* %ref.tmp41, align 8, !dbg !3201
  %call43 = call dereferenceable(8) double* @_ZSt3maxIdERKT_S2_S2_(double* dereferenceable(8) %ref.tmp, double* dereferenceable(8) %ref.tmp41), !dbg !3202
  %59 = load double, double* %call43, align 8, !dbg !3202
  store double %59, double* %r2, align 8, !dbg !3203
  br label %if.end44

if.end44:                                         ; preds = %if.else, %if.then30
  %60 = load double, double* %r2, align 8, !dbg !3204
  %61 = load double*, double** %ptr.addr, align 8, !dbg !3205
  %arrayidx45 = getelementptr inbounds double, double* %61, i64 5, !dbg !3205
  %62 = load double, double* %arrayidx45, align 8, !dbg !3205
  %sub46 = fsub double %60, %62, !dbg !3206
  store double %sub46, double* %retval, align 8, !dbg !3207
  br label %return, !dbg !3207

return:                                           ; preds = %if.end44, %if.then
  %63 = load double, double* %retval, align 8, !dbg !3208
  ret double %63, !dbg !3208
}

; Function Attrs: noinline uwtable
define dso_local double @_ZN3pov7f_hex_xEPdj(double* %ptr, i32 %0) #0 !dbg !3209 {
entry:
  %retval = alloca double, align 8
  %ptr.addr = alloca double*, align 8
  %.addr = alloca i32, align 4
  %x1 = alloca double, align 8
  %y1 = alloca double, align 8
  %x2 = alloca double, align 8
  %y2 = alloca double, align 8
  %th = alloca double, align 8
  store double* %ptr, double** %ptr.addr, align 8
  call void @llvm.dbg.declare(metadata double** %ptr.addr, metadata !3210, metadata !DIExpression()), !dbg !3211
  store i32 %0, i32* %.addr, align 4
  call void @llvm.dbg.declare(metadata i32* %.addr, metadata !3212, metadata !DIExpression()), !dbg !3213
  call void @llvm.dbg.declare(metadata double* %x1, metadata !3214, metadata !DIExpression()), !dbg !3215
  call void @llvm.dbg.declare(metadata double* %y1, metadata !3216, metadata !DIExpression()), !dbg !3217
  call void @llvm.dbg.declare(metadata double* %x2, metadata !3218, metadata !DIExpression()), !dbg !3219
  call void @llvm.dbg.declare(metadata double* %y2, metadata !3220, metadata !DIExpression()), !dbg !3221
  call void @llvm.dbg.declare(metadata double* %th, metadata !3222, metadata !DIExpression()), !dbg !3223
  %1 = load double*, double** %ptr.addr, align 8, !dbg !3224
  %arrayidx = getelementptr inbounds double, double* %1, i64 0, !dbg !3224
  %2 = load double, double* %arrayidx, align 8, !dbg !3224
  %3 = call double @llvm.fabs.f64(double %2), !dbg !3225
  %call = call double @sqrt(double 3.000000e+00) #5, !dbg !3226
  %call1 = call double @fmod(double %3, double %call) #5, !dbg !3227
  %call2 = call double @sqrt(double 3.000000e+00) #5, !dbg !3228
  %div = fdiv double %call2, 2.000000e+00, !dbg !3229
  %sub = fsub double %call1, %div, !dbg !3230
  %4 = call double @llvm.fabs.f64(double %sub), !dbg !3231
  store double %4, double* %x1, align 8, !dbg !3232
  %5 = load double*, double** %ptr.addr, align 8, !dbg !3233
  %arrayidx3 = getelementptr inbounds double, double* %5, i64 1, !dbg !3233
  %6 = load double, double* %arrayidx3, align 8, !dbg !3233
  %7 = call double @llvm.fabs.f64(double %6), !dbg !3234
  %call4 = call double @_ZSt4fmodIdiEN9__gnu_cxx11__promote_2IT_T0_NS0_9__promoteIS2_Xsr3std12__is_integerIS2_EE7__valueEE6__typeENS4_IS3_Xsr3std12__is_integerIS3_EE7__valueEE6__typeEE6__typeES2_S3_(double %7, i32 3), !dbg !3235
  %sub5 = fsub double %call4, 1.500000e+00, !dbg !3236
  %8 = call double @llvm.fabs.f64(double %sub5), !dbg !3237
  store double %8, double* %y1, align 8, !dbg !3238
  %call6 = call double @sqrt(double 3.000000e+00) #5, !dbg !3239
  %div7 = fdiv double %call6, 2.000000e+00, !dbg !3240
  %9 = load double, double* %x1, align 8, !dbg !3241
  %sub8 = fsub double %div7, %9, !dbg !3242
  store double %sub8, double* %x2, align 8, !dbg !3243
  %10 = load double, double* %y1, align 8, !dbg !3244
  %sub9 = fsub double 1.500000e+00, %10, !dbg !3245
  store double %sub9, double* %y2, align 8, !dbg !3246
  %11 = load double, double* %x1, align 8, !dbg !3247
  %12 = load double, double* %x1, align 8, !dbg !3249
  %mul = fmul double %11, %12, !dbg !3250
  %13 = load double, double* %y1, align 8, !dbg !3251
  %14 = load double, double* %y1, align 8, !dbg !3252
  %mul10 = fmul double %13, %14, !dbg !3253
  %add = fadd double %mul, %mul10, !dbg !3254
  %15 = load double, double* %x2, align 8, !dbg !3255
  %16 = load double, double* %x2, align 8, !dbg !3256
  %mul11 = fmul double %15, %16, !dbg !3257
  %17 = load double, double* %y2, align 8, !dbg !3258
  %18 = load double, double* %y2, align 8, !dbg !3259
  %mul12 = fmul double %17, %18, !dbg !3260
  %add13 = fadd double %mul11, %mul12, !dbg !3261
  %cmp = fcmp ogt double %add, %add13, !dbg !3262
  br i1 %cmp, label %if.then, label %if.end, !dbg !3263

if.then:                                          ; preds = %entry
  %19 = load double, double* %x2, align 8, !dbg !3264
  store double %19, double* %x1, align 8, !dbg !3266
  %20 = load double, double* %y2, align 8, !dbg !3267
  store double %20, double* %y1, align 8, !dbg !3268
  br label %if.end, !dbg !3269

if.end:                                           ; preds = %if.then, %entry
  %21 = load double, double* %x1, align 8, !dbg !3270
  %cmp14 = fcmp oeq double %21, 0.000000e+00, !dbg !3272
  br i1 %cmp14, label %land.lhs.true, label %if.end18, !dbg !3273

land.lhs.true:                                    ; preds = %if.end
  %22 = load double, double* %y1, align 8, !dbg !3274
  %cmp15 = fcmp oeq double %22, 0.000000e+00, !dbg !3275
  br i1 %cmp15, label %if.then16, label %if.end18, !dbg !3276

if.then16:                                        ; preds = %land.lhs.true
  %23 = load double*, double** %ptr.addr, align 8, !dbg !3277
  %arrayidx17 = getelementptr inbounds double, double* %23, i64 0, !dbg !3277
  store double 0x3EB0C6F7A0B5ED8D, double* %arrayidx17, align 8, !dbg !3278
  br label %if.end18, !dbg !3277

if.end18:                                         ; preds = %if.then16, %land.lhs.true, %if.end
  %24 = load double, double* %y1, align 8, !dbg !3279
  %25 = load double, double* %x1, align 8, !dbg !3280
  %call19 = call double @atan2(double %24, double %25) #5, !dbg !3281
  store double %call19, double* %th, align 8, !dbg !3282
  %26 = load double, double* %th, align 8, !dbg !3283
  %cmp20 = fcmp olt double %26, 0x3FE0C152382D7365, !dbg !3285
  br i1 %cmp20, label %if.then21, label %if.else, !dbg !3286

if.then21:                                        ; preds = %if.end18
  %27 = load double, double* %x1, align 8, !dbg !3287
  store double %27, double* %retval, align 8, !dbg !3288
  br label %return, !dbg !3288

if.else:                                          ; preds = %if.end18
  %call22 = call double @cos(double 0x3FF0C152382D7365) #5, !dbg !3289
  %28 = load double, double* %x1, align 8, !dbg !3291
  %mul23 = fmul double %call22, %28, !dbg !3292
  %call24 = call double @sin(double 0x3FF0C152382D7365) #5, !dbg !3293
  %29 = load double, double* %y1, align 8, !dbg !3294
  %mul25 = fmul double %call24, %29, !dbg !3295
  %add26 = fadd double %mul23, %mul25, !dbg !3296
  store double %add26, double* %x1, align 8, !dbg !3297
  %30 = load double, double* %x1, align 8, !dbg !3298
  store double %30, double* %retval, align 8, !dbg !3299
  br label %return, !dbg !3299

return:                                           ; preds = %if.else, %if.then21
  %31 = load double, double* %retval, align 8, !dbg !3300
  ret double %31, !dbg !3300
}

; Function Attrs: noinline uwtable
define dso_local double @_ZN3pov7f_hex_yEPdj(double* %ptr, i32 %0) #0 !dbg !3301 {
entry:
  %retval = alloca double, align 8
  %ptr.addr = alloca double*, align 8
  %.addr = alloca i32, align 4
  %x1 = alloca double, align 8
  %y1 = alloca double, align 8
  %x2 = alloca double, align 8
  %y2 = alloca double, align 8
  %th = alloca double, align 8
  store double* %ptr, double** %ptr.addr, align 8
  call void @llvm.dbg.declare(metadata double** %ptr.addr, metadata !3302, metadata !DIExpression()), !dbg !3303
  store i32 %0, i32* %.addr, align 4
  call void @llvm.dbg.declare(metadata i32* %.addr, metadata !3304, metadata !DIExpression()), !dbg !3305
  call void @llvm.dbg.declare(metadata double* %x1, metadata !3306, metadata !DIExpression()), !dbg !3307
  call void @llvm.dbg.declare(metadata double* %y1, metadata !3308, metadata !DIExpression()), !dbg !3309
  call void @llvm.dbg.declare(metadata double* %x2, metadata !3310, metadata !DIExpression()), !dbg !3311
  call void @llvm.dbg.declare(metadata double* %y2, metadata !3312, metadata !DIExpression()), !dbg !3313
  call void @llvm.dbg.declare(metadata double* %th, metadata !3314, metadata !DIExpression()), !dbg !3315
  %1 = load double*, double** %ptr.addr, align 8, !dbg !3316
  %arrayidx = getelementptr inbounds double, double* %1, i64 0, !dbg !3316
  %2 = load double, double* %arrayidx, align 8, !dbg !3316
  %3 = call double @llvm.fabs.f64(double %2), !dbg !3317
  %call = call double @sqrt(double 3.000000e+00) #5, !dbg !3318
  %call1 = call double @fmod(double %3, double %call) #5, !dbg !3319
  %call2 = call double @sqrt(double 3.000000e+00) #5, !dbg !3320
  %div = fdiv double %call2, 2.000000e+00, !dbg !3321
  %sub = fsub double %call1, %div, !dbg !3322
  %4 = call double @llvm.fabs.f64(double %sub), !dbg !3323
  store double %4, double* %x1, align 8, !dbg !3324
  %5 = load double*, double** %ptr.addr, align 8, !dbg !3325
  %arrayidx3 = getelementptr inbounds double, double* %5, i64 1, !dbg !3325
  %6 = load double, double* %arrayidx3, align 8, !dbg !3325
  %7 = call double @llvm.fabs.f64(double %6), !dbg !3326
  %call4 = call double @_ZSt4fmodIdiEN9__gnu_cxx11__promote_2IT_T0_NS0_9__promoteIS2_Xsr3std12__is_integerIS2_EE7__valueEE6__typeENS4_IS3_Xsr3std12__is_integerIS3_EE7__valueEE6__typeEE6__typeES2_S3_(double %7, i32 3), !dbg !3327
  %sub5 = fsub double %call4, 1.500000e+00, !dbg !3328
  %8 = call double @llvm.fabs.f64(double %sub5), !dbg !3329
  store double %8, double* %y1, align 8, !dbg !3330
  %call6 = call double @sqrt(double 3.000000e+00) #5, !dbg !3331
  %div7 = fdiv double %call6, 2.000000e+00, !dbg !3332
  %9 = load double, double* %x1, align 8, !dbg !3333
  %sub8 = fsub double %div7, %9, !dbg !3334
  store double %sub8, double* %x2, align 8, !dbg !3335
  %10 = load double, double* %y1, align 8, !dbg !3336
  %sub9 = fsub double 1.500000e+00, %10, !dbg !3337
  store double %sub9, double* %y2, align 8, !dbg !3338
  %11 = load double, double* %x1, align 8, !dbg !3339
  %12 = load double, double* %x1, align 8, !dbg !3341
  %mul = fmul double %11, %12, !dbg !3342
  %13 = load double, double* %y1, align 8, !dbg !3343
  %14 = load double, double* %y1, align 8, !dbg !3344
  %mul10 = fmul double %13, %14, !dbg !3345
  %add = fadd double %mul, %mul10, !dbg !3346
  %15 = load double, double* %x2, align 8, !dbg !3347
  %16 = load double, double* %x2, align 8, !dbg !3348
  %mul11 = fmul double %15, %16, !dbg !3349
  %17 = load double, double* %y2, align 8, !dbg !3350
  %18 = load double, double* %y2, align 8, !dbg !3351
  %mul12 = fmul double %17, %18, !dbg !3352
  %add13 = fadd double %mul11, %mul12, !dbg !3353
  %cmp = fcmp ogt double %add, %add13, !dbg !3354
  br i1 %cmp, label %if.then, label %if.end, !dbg !3355

if.then:                                          ; preds = %entry
  %19 = load double, double* %x2, align 8, !dbg !3356
  store double %19, double* %x1, align 8, !dbg !3358
  %20 = load double, double* %y2, align 8, !dbg !3359
  store double %20, double* %y1, align 8, !dbg !3360
  br label %if.end, !dbg !3361

if.end:                                           ; preds = %if.then, %entry
  %21 = load double, double* %x1, align 8, !dbg !3362
  %cmp14 = fcmp oeq double %21, 0.000000e+00, !dbg !3364
  br i1 %cmp14, label %land.lhs.true, label %if.end18, !dbg !3365

land.lhs.true:                                    ; preds = %if.end
  %22 = load double, double* %y1, align 8, !dbg !3366
  %cmp15 = fcmp oeq double %22, 0.000000e+00, !dbg !3367
  br i1 %cmp15, label %if.then16, label %if.end18, !dbg !3368

if.then16:                                        ; preds = %land.lhs.true
  %23 = load double*, double** %ptr.addr, align 8, !dbg !3369
  %arrayidx17 = getelementptr inbounds double, double* %23, i64 0, !dbg !3369
  store double 0x3EB0C6F7A0B5ED8D, double* %arrayidx17, align 8, !dbg !3370
  br label %if.end18, !dbg !3369

if.end18:                                         ; preds = %if.then16, %land.lhs.true, %if.end
  %24 = load double, double* %y1, align 8, !dbg !3371
  %25 = load double, double* %x1, align 8, !dbg !3372
  %call19 = call double @atan2(double %24, double %25) #5, !dbg !3373
  store double %call19, double* %th, align 8, !dbg !3374
  %26 = load double, double* %th, align 8, !dbg !3375
  %cmp20 = fcmp olt double %26, 0x3FE0C152382D7365, !dbg !3377
  br i1 %cmp20, label %if.then21, label %if.else, !dbg !3378

if.then21:                                        ; preds = %if.end18
  %27 = load double, double* %y1, align 8, !dbg !3379
  store double %27, double* %retval, align 8, !dbg !3380
  br label %return, !dbg !3380

if.else:                                          ; preds = %if.end18
  %call22 = call double @sin(double 0x3FF0C152382D7365) #5, !dbg !3381
  %fneg = fneg double %call22, !dbg !3383
  %28 = load double, double* %x1, align 8, !dbg !3384
  %mul23 = fmul double %fneg, %28, !dbg !3385
  %call24 = call double @cos(double 0x3FF0C152382D7365) #5, !dbg !3386
  %29 = load double, double* %y1, align 8, !dbg !3387
  %mul25 = fmul double %call24, %29, !dbg !3388
  %add26 = fadd double %mul23, %mul25, !dbg !3389
  store double %add26, double* %y1, align 8, !dbg !3390
  %30 = load double, double* %y1, align 8, !dbg !3391
  %31 = call double @llvm.fabs.f64(double %30), !dbg !3392
  store double %31, double* %retval, align 8, !dbg !3393
  br label %return, !dbg !3393

return:                                           ; preds = %if.else, %if.then21
  %32 = load double, double* %retval, align 8, !dbg !3394
  ret double %32, !dbg !3394
}

; Function Attrs: noinline uwtable
define dso_local double @_ZN3pov11f_hetero_mfEPdj(double* %ptr, i32 %fn) #0 !dbg !3395 {
entry:
  %ptr.addr = alloca double*, align 8
  %fn.addr = alloca i32, align 4
  %signal = alloca double, align 8
  %V1 = alloca [3 x double], align 16
  %rem = alloca double, align 8
  %TPat = alloca %"struct.pov::Pattern_Struct", align 8
  %p1_2_mp0 = alloca double, align 8
  %ea = alloca double, align 8
  %i = alloca i32, align 4
  %inc = alloca double, align 8
  %p = alloca i32, align 4
  %inc40 = alloca double, align 8
  store double* %ptr, double** %ptr.addr, align 8
  call void @llvm.dbg.declare(metadata double** %ptr.addr, metadata !3396, metadata !DIExpression()), !dbg !3397
  store i32 %fn, i32* %fn.addr, align 4
  call void @llvm.dbg.declare(metadata i32* %fn.addr, metadata !3398, metadata !DIExpression()), !dbg !3399
  call void @llvm.dbg.declare(metadata double* %signal, metadata !3400, metadata !DIExpression()), !dbg !3401
  call void @llvm.dbg.declare(metadata [3 x double]* %V1, metadata !3402, metadata !DIExpression()), !dbg !3403
  call void @llvm.dbg.declare(metadata double* %rem, metadata !3404, metadata !DIExpression()), !dbg !3405
  %arraydecay = getelementptr inbounds [3 x double], [3 x double]* %V1, i64 0, i64 0, !dbg !3406
  %0 = load double*, double** %ptr.addr, align 8, !dbg !3407
  %arrayidx = getelementptr inbounds double, double* %0, i64 0, !dbg !3407
  %1 = load double, double* %arrayidx, align 8, !dbg !3407
  %2 = load double*, double** %ptr.addr, align 8, !dbg !3408
  %arrayidx1 = getelementptr inbounds double, double* %2, i64 1, !dbg !3408
  %3 = load double, double* %arrayidx1, align 8, !dbg !3408
  %4 = load double*, double** %ptr.addr, align 8, !dbg !3409
  %arrayidx2 = getelementptr inbounds double, double* %4, i64 2, !dbg !3409
  %5 = load double, double* %arrayidx2, align 8, !dbg !3409
  call void @_ZN3pov11Make_VectorEPdddd(double* %arraydecay, double %1, double %3, double %5), !dbg !3410
  call void @llvm.dbg.declare(metadata %"struct.pov::Pattern_Struct"* %TPat, metadata !3411, metadata !DIExpression()), !dbg !3412
  %6 = load double*, double** %ptr.addr, align 8, !dbg !3413
  %arrayidx3 = getelementptr inbounds double, double* %6, i64 8, !dbg !3413
  %7 = load double, double* %arrayidx3, align 8, !dbg !3413
  %conv = fptosi double %7 to i32, !dbg !3413
  %and = and i32 %conv, 3, !dbg !3414
  %shl = shl i32 %and, 4, !dbg !3415
  %conv4 = trunc i32 %shl to i16, !dbg !3416
  %Flags = getelementptr inbounds %"struct.pov::Pattern_Struct", %"struct.pov::Pattern_Struct"* %TPat, i32 0, i32 2, !dbg !3417
  store i16 %conv4, i16* %Flags, align 4, !dbg !3418
  %arraydecay5 = getelementptr inbounds [3 x double], [3 x double]* %V1, i64 0, i64 0, !dbg !3419
  %call = call double @_ZN3pov5NoiseEPdPNS_14Pattern_StructE(double* %arraydecay5, %"struct.pov::Pattern_Struct"* %TPat), !dbg !3420
  %mul = fmul double %call, 2.000000e+00, !dbg !3421
  %sub = fsub double %mul, 1.000000e+00, !dbg !3422
  %8 = load double*, double** %ptr.addr, align 8, !dbg !3423
  %arrayidx6 = getelementptr inbounds double, double* %8, i64 6, !dbg !3423
  %9 = load double, double* %arrayidx6, align 8, !dbg !3423
  %add = fadd double %sub, %9, !dbg !3424
  store double %add, double* %signal, align 8, !dbg !3425
  %arraydecay7 = getelementptr inbounds [3 x double], [3 x double]* %V1, i64 0, i64 0, !dbg !3426
  %10 = load double*, double** %ptr.addr, align 8, !dbg !3427
  %arrayidx8 = getelementptr inbounds double, double* %10, i64 4, !dbg !3427
  %11 = load double, double* %arrayidx8, align 8, !dbg !3427
  call void @_ZN3pov8VScaleEqEPdd(double* %arraydecay7, double %11), !dbg !3428
  call void @llvm.dbg.declare(metadata double* %p1_2_mp0, metadata !3429, metadata !DIExpression()), !dbg !3430
  %12 = load double*, double** %ptr.addr, align 8, !dbg !3431
  %arrayidx9 = getelementptr inbounds double, double* %12, i64 4, !dbg !3431
  %13 = load double, double* %arrayidx9, align 8, !dbg !3431
  %14 = load double*, double** %ptr.addr, align 8, !dbg !3432
  %arrayidx10 = getelementptr inbounds double, double* %14, i64 3, !dbg !3432
  %15 = load double, double* %arrayidx10, align 8, !dbg !3432
  %fneg = fneg double %15, !dbg !3433
  %call11 = call double @pow(double %13, double %fneg) #5, !dbg !3434
  store double %call11, double* %p1_2_mp0, align 8, !dbg !3430
  call void @llvm.dbg.declare(metadata double* %ea, metadata !3435, metadata !DIExpression()), !dbg !3436
  %16 = load double, double* %p1_2_mp0, align 8, !dbg !3437
  store double %16, double* %ea, align 8, !dbg !3436
  call void @llvm.dbg.declare(metadata i32* %i, metadata !3438, metadata !DIExpression()), !dbg !3440
  store i32 1, i32* %i, align 4, !dbg !3440
  br label %for.cond, !dbg !3441

for.cond:                                         ; preds = %for.inc31, %entry
  %17 = load i32, i32* %i, align 4, !dbg !3442
  %conv12 = sitofp i32 %17 to double, !dbg !3442
  %18 = load double*, double** %ptr.addr, align 8, !dbg !3444
  %arrayidx13 = getelementptr inbounds double, double* %18, i64 5, !dbg !3444
  %19 = load double, double* %arrayidx13, align 8, !dbg !3444
  %cmp = fcmp olt double %conv12, %19, !dbg !3445
  br i1 %cmp, label %for.body, label %for.end33, !dbg !3446

for.body:                                         ; preds = %for.cond
  call void @llvm.dbg.declare(metadata double* %inc, metadata !3447, metadata !DIExpression()), !dbg !3449
  %arraydecay14 = getelementptr inbounds [3 x double], [3 x double]* %V1, i64 0, i64 0, !dbg !3450
  %call15 = call double @_ZN3pov5NoiseEPdPNS_14Pattern_StructE(double* %arraydecay14, %"struct.pov::Pattern_Struct"* %TPat), !dbg !3451
  %mul16 = fmul double %call15, 2.000000e+00, !dbg !3452
  %sub17 = fsub double %mul16, 1.000000e+00, !dbg !3453
  %20 = load double*, double** %ptr.addr, align 8, !dbg !3454
  %arrayidx18 = getelementptr inbounds double, double* %20, i64 6, !dbg !3454
  %21 = load double, double* %arrayidx18, align 8, !dbg !3454
  %add19 = fadd double %sub17, %21, !dbg !3455
  %22 = load double, double* %ea, align 8, !dbg !3456
  %mul20 = fmul double %add19, %22, !dbg !3457
  store double %mul20, double* %inc, align 8, !dbg !3449
  call void @llvm.dbg.declare(metadata i32* %p, metadata !3458, metadata !DIExpression()), !dbg !3460
  %23 = load double*, double** %ptr.addr, align 8, !dbg !3461
  %arrayidx21 = getelementptr inbounds double, double* %23, i64 7, !dbg !3461
  %24 = load double, double* %arrayidx21, align 8, !dbg !3461
  %conv22 = fptosi double %24 to i32, !dbg !3461
  store i32 %conv22, i32* %p, align 4, !dbg !3460
  br label %for.cond23, !dbg !3462

for.cond23:                                       ; preds = %for.inc, %for.body
  %25 = load i32, i32* %p, align 4, !dbg !3463
  %cmp24 = icmp sgt i32 %25, 0, !dbg !3465
  br i1 %cmp24, label %for.body25, label %for.end, !dbg !3466

for.body25:                                       ; preds = %for.cond23
  %26 = load double, double* %signal, align 8, !dbg !3467
  %27 = load double, double* %inc, align 8, !dbg !3468
  %mul26 = fmul double %27, %26, !dbg !3468
  store double %mul26, double* %inc, align 8, !dbg !3468
  br label %for.inc, !dbg !3469

for.inc:                                          ; preds = %for.body25
  %28 = load i32, i32* %p, align 4, !dbg !3470
  %dec = add nsw i32 %28, -1, !dbg !3470
  store i32 %dec, i32* %p, align 4, !dbg !3470
  br label %for.cond23, !dbg !3471, !llvm.loop !3472

for.end:                                          ; preds = %for.cond23
  %29 = load double, double* %inc, align 8, !dbg !3474
  %30 = load double, double* %signal, align 8, !dbg !3475
  %add27 = fadd double %30, %29, !dbg !3475
  store double %add27, double* %signal, align 8, !dbg !3475
  %arraydecay28 = getelementptr inbounds [3 x double], [3 x double]* %V1, i64 0, i64 0, !dbg !3476
  %31 = load double*, double** %ptr.addr, align 8, !dbg !3477
  %arrayidx29 = getelementptr inbounds double, double* %31, i64 4, !dbg !3477
  %32 = load double, double* %arrayidx29, align 8, !dbg !3477
  call void @_ZN3pov8VScaleEqEPdd(double* %arraydecay28, double %32), !dbg !3478
  %33 = load double, double* %p1_2_mp0, align 8, !dbg !3479
  %34 = load double, double* %ea, align 8, !dbg !3480
  %mul30 = fmul double %34, %33, !dbg !3480
  store double %mul30, double* %ea, align 8, !dbg !3480
  br label %for.inc31, !dbg !3481

for.inc31:                                        ; preds = %for.end
  %35 = load i32, i32* %i, align 4, !dbg !3482
  %inc32 = add nsw i32 %35, 1, !dbg !3482
  store i32 %inc32, i32* %i, align 4, !dbg !3482
  br label %for.cond, !dbg !3483, !llvm.loop !3484

for.end33:                                        ; preds = %for.cond
  %36 = load double*, double** %ptr.addr, align 8, !dbg !3486
  %arrayidx34 = getelementptr inbounds double, double* %36, i64 5, !dbg !3486
  %37 = load double, double* %arrayidx34, align 8, !dbg !3486
  %38 = load double*, double** %ptr.addr, align 8, !dbg !3487
  %arrayidx35 = getelementptr inbounds double, double* %38, i64 5, !dbg !3487
  %39 = load double, double* %arrayidx35, align 8, !dbg !3487
  %conv36 = fptosi double %39 to i32, !dbg !3487
  %conv37 = sitofp i32 %conv36 to double, !dbg !3488
  %sub38 = fsub double %37, %conv37, !dbg !3489
  store double %sub38, double* %rem, align 8, !dbg !3490
  %40 = load double, double* %rem, align 8, !dbg !3491
  %cmp39 = fcmp une double %40, 0.000000e+00, !dbg !3493
  br i1 %cmp39, label %if.then, label %if.end, !dbg !3494

if.then:                                          ; preds = %for.end33
  call void @llvm.dbg.declare(metadata double* %inc40, metadata !3495, metadata !DIExpression()), !dbg !3497
  %arraydecay41 = getelementptr inbounds [3 x double], [3 x double]* %V1, i64 0, i64 0, !dbg !3498
  %call42 = call double @_ZN3pov5NoiseEPdPNS_14Pattern_StructE(double* %arraydecay41, %"struct.pov::Pattern_Struct"* %TPat), !dbg !3499
  %mul43 = fmul double %call42, 2.000000e+00, !dbg !3500
