; ModuleID = 'csg.cpp'
source_filename = "csg.cpp"
target datalayout = "e-m:e-p270:32:32-p271:32:32-p272:64:64-i64:64-f80:128-n8:16:32:64-S128"
target triple = "x86_64-unknown-linux-gnu"

%"struct.pov::Object_Struct" = type { %"struct.pov::Method_Struct"*, i32, %"struct.pov::Object_Struct"*, %"struct.pov::Texture_Struct"*, %"struct.pov::Texture_Struct"*, %"struct.pov::Interior_Struct"*, %"struct.pov::Object_Struct"*, %"struct.pov::Object_Struct"*, %"struct.pov::Light_Source_Struct"*, %"struct.pov::Bounding_Box_Struct", %"struct.pov::Transform_Struct"*, %"struct.pov::Transform_Struct"*, float, i32 }
%"struct.pov::Method_Struct" = type { {}*, i32 (double*, %"struct.pov::Object_Struct"*)*, void (double*, %"struct.pov::Object_Struct"*, %"struct.pov::istk_entry"*)*, void (double*, %"struct.pov::Object_Struct"*, %"struct.pov::istk_entry"*)*, i8* (%"struct.pov::Object_Struct"*)*, void (%"struct.pov::Object_Struct"*, double*, %"struct.pov::Transform_Struct"*)*, void (%"struct.pov::Object_Struct"*, double*, %"struct.pov::Transform_Struct"*)*, void (%"struct.pov::Object_Struct"*, double*, %"struct.pov::Transform_Struct"*)*, void (%"struct.pov::Object_Struct"*, %"struct.pov::Transform_Struct"*)*, void (%"struct.pov::Object_Struct"*)*, void (%"struct.pov::Object_Struct"*)* }
%"struct.pov::Texture_Struct" = type { i16, i16, i16, i32, float, float, float, %"struct.pov::Warps_Struct"*, %"struct.pov::Pattern_Struct"*, %"struct.pov::Blend_Map_Struct"*, %union.anon.25, %"struct.pov::Texture_Struct"*, %"struct.pov::Pigment_Struct"*, %"struct.pov::Tnormal_Struct"*, %"struct.pov::Finish_Struct"*, %"struct.pov::Texture_Struct"*, i32 }
%"struct.pov::Warps_Struct" = type { i16, %"struct.pov::Warps_Struct"*, %"struct.pov::Warps_Struct"* }
%"struct.pov::Pattern_Struct" = type { i16, i16, i16, i32, float, float, float, %"struct.pov::Warps_Struct"*, %"struct.pov::Pattern_Struct"*, %"struct.pov::Blend_Map_Struct"*, %union.anon.17 }
%union.anon.17 = type { %struct.anon.21 }
%struct.anon.21 = type { [3 x double], [3 x double], double, double, i16, [3 x double]*, i32, [3 x double] }
%"struct.pov::Blend_Map_Struct" = type { i32, i16, i8, i8, %"struct.pov::Blend_Map_Entry"* }
%"struct.pov::Blend_Map_Entry" = type { float, i8, %union.anon }
%union.anon = type { [2 x double], [8 x i8] }
%union.anon.25 = type { %struct.anon.29 }
%struct.anon.29 = type { [3 x double], [3 x double], double, double, i16, [3 x double]*, i32, [3 x double] }
%"struct.pov::Pigment_Struct" = type { i16, i16, i16, i32, float, float, float, %"struct.pov::Warps_Struct"*, %"struct.pov::Pattern_Struct"*, %"struct.pov::Blend_Map_Struct"*, %union.anon.0, [5 x float] }
%union.anon.0 = type { %struct.anon.5 }
%struct.anon.5 = type { [3 x double], [3 x double], double, double, i16, [3 x double]*, i32, [3 x double] }
%"struct.pov::Tnormal_Struct" = type { i16, i16, i16, i32, float, float, float, %"struct.pov::Warps_Struct"*, %"struct.pov::Pattern_Struct"*, %"struct.pov::Blend_Map_Struct"*, %union.anon.9, float, float }
%union.anon.9 = type { %struct.anon.13 }
%struct.anon.13 = type { [3 x double], [3 x double], double, double, i16, [3 x double]*, i32, [3 x double] }
%"struct.pov::Finish_Struct" = type { float, float, float, float, float, float, float, float, float, float, float, float, float, float, float, float, [3 x float], [3 x float], [3 x float], float, i32, float, i32 }
%"struct.pov::Interior_Struct" = type { i32, i32, i32, float, float, float, float, float, float, [5 x float], %"struct.pov::Media_Struct"* }
%"struct.pov::Media_Struct" = type { i32, i32, i32, i32, i32, double, i32, double, double, i32, i32, i32, i32, [5 x float], [5 x float], [5 x float], [5 x float], double, double, double, double*, double, i32, i32, %"struct.pov::Pigment_Struct"*, %"struct.pov::Media_Struct"* }
%"struct.pov::Light_Source_Struct" = type { %"struct.pov::Method_Struct"*, i32, %"struct.pov::Object_Struct"*, %"struct.pov::Texture_Struct"*, %"struct.pov::Texture_Struct"*, %"struct.pov::Interior_Struct"*, %"struct.pov::Object_Struct"*, %"struct.pov::Object_Struct"*, %"struct.pov::Light_Source_Struct"*, %"struct.pov::Bounding_Box_Struct", %"struct.pov::Transform_Struct"*, %"struct.pov::Transform_Struct"*, float, i32, %"struct.pov::Object_Struct"*, [5 x float], [3 x double], [3 x double], [3 x double], [3 x double], [3 x double], double, double, double, double, double, %"struct.pov::Light_Source_Struct"*, i8, i8, i8, i8, i8, i8, i8, i8, i32, i32, i32, i32, i32, [5 x float]**, %"struct.pov::Object_Struct"*, %"struct.pov::Object_Struct"*, %"struct.pov::Blend_Map_Struct"*, [6 x %"struct.pov::Project_Tree_Node_Struct"*] }
%"struct.pov::Project_Tree_Node_Struct" = type { i16, %"struct.pov::BBox_Tree_Struct"*, %"struct.pov::Project_Struct", i16, %"struct.pov::Project_Tree_Node_Struct"** }
%"struct.pov::BBox_Tree_Struct" = type { i16, i16, %"struct.pov::Bounding_Box_Struct", %"struct.pov::BBox_Tree_Struct"** }
%"struct.pov::Project_Struct" = type { i32, i32, i32, i32 }
%"struct.pov::Bounding_Box_Struct" = type { [3 x float], [3 x float] }
%"struct.pov::Transform_Struct" = type { [4 x [4 x double]], [4 x [4 x double]] }
%"struct.pov::Ray_Struct" = type { [3 x double], [3 x double], i32, i32, [100 x %"struct.pov::Interior_Struct"*] }
%"struct.pov::istack_struct" = type { %"struct.pov::istack_struct"*, %"struct.pov::istk_entry"*, i32, i32 }
%"struct.pov::istk_entry" = type { double, [3 x double], [3 x double], [3 x double], [2 x double], %"struct.pov::Object_Struct"*, i32, i32, double, double, double, double, double, double, double, double, double, i8*, i8* }
%"struct.pov::CSG_Struct" = type { %"struct.pov::Method_Struct"*, i32, %"struct.pov::Object_Struct"*, %"struct.pov::Texture_Struct"*, %"struct.pov::Texture_Struct"*, %"struct.pov::Interior_Struct"*, %"struct.pov::Object_Struct"*, %"struct.pov::Object_Struct"*, %"struct.pov::Light_Source_Struct"*, %"struct.pov::Bounding_Box_Struct", %"struct.pov::Transform_Struct"*, %"struct.pov::Transform_Struct"*, float, i32, %"struct.pov::Object_Struct"*, i32 }
%"struct.pov::Quadric_Struct" = type { %"struct.pov::Method_Struct"*, i32, %"struct.pov::Object_Struct"*, %"struct.pov::Texture_Struct"*, %"struct.pov::Texture_Struct"*, %"struct.pov::Interior_Struct"*, %"struct.pov::Object_Struct"*, %"struct.pov::Object_Struct"*, %"struct.pov::Light_Source_Struct"*, %"struct.pov::Bounding_Box_Struct", %"struct.pov::Transform_Struct"*, %"struct.pov::Transform_Struct"*, float, i32, [3 x double], [3 x double], [3 x double], double, i8 }
%"struct.pov::Plane_Struct" = type { %"struct.pov::Method_Struct"*, i32, %"struct.pov::Object_Struct"*, %"struct.pov::Texture_Struct"*, %"struct.pov::Texture_Struct"*, %"struct.pov::Interior_Struct"*, %"struct.pov::Object_Struct"*, %"struct.pov::Object_Struct"*, %"struct.pov::Light_Source_Struct"*, %"struct.pov::Bounding_Box_Struct", %"struct.pov::Transform_Struct"*, %"struct.pov::Transform_Struct"*, float, i32, [3 x double], double }

$_ZN3pov9Make_BBoxERNS_19Bounding_Box_StructEffffff = comdat any

$_ZN3pov11Make_VectorEPdddd = comdat any

$_ZN3pov22Make_min_max_from_BBoxERA3_dS1_NS_19Bounding_Box_StructE = comdat any

$_ZSt3maxIdERKT_S2_S2_ = comdat any

$_ZSt3minIdERKT_S2_S2_ = comdat any

$_ZN3pov13Assign_VectorEPdS0_ = comdat any

$_ZN3pov13BOUNDS_VOLUMEERdRKNS_19Bounding_Box_StructE = comdat any

$_ZN3pov22Make_BBox_from_min_maxERNS_19Bounding_Box_StructEPdS2_ = comdat any

$_ZN3pov16Increase_CounterERx = comdat any

$_ZN3pov9pop_entryEPNS_13istack_structE = comdat any

$_ZN3pov9push_copyEPNS_13istack_structEPNS_10istk_entryE = comdat any

$_ZN3pov4itopEPNS_13istack_structE = comdat any

@_ZN3pov17CSG_Union_MethodsE = dso_local global { i32 (%"struct.pov::Object_Struct"*, %"struct.pov::Ray_Struct"*, %"struct.pov::istack_struct"*)*, i32 (double*, %"struct.pov::Object_Struct"*)*, void (double*, %"struct.pov::Object_Struct"*, %"struct.pov::istk_entry"*)*, void (double*, %"struct.pov::Object_Struct"*, %"struct.pov::istk_entry"*)*, i8* (%"struct.pov::Object_Struct"*)*, void (%"struct.pov::Object_Struct"*, double*, %"struct.pov::Transform_Struct"*)*, void (%"struct.pov::Object_Struct"*, double*, %"struct.pov::Transform_Struct"*)*, void (%"struct.pov::Object_Struct"*, double*, %"struct.pov::Transform_Struct"*)*, void (%"struct.pov::Object_Struct"*, %"struct.pov::Transform_Struct"*)*, void (%"struct.pov::Object_Struct"*)*, void (%"struct.pov::Object_Struct"*)* } { i32 (%"struct.pov::Object_Struct"*, %"struct.pov::Ray_Struct"*, %"struct.pov::istack_struct"*)* @_ZN3povL27All_CSG_Union_IntersectionsEPNS_13Object_StructEPNS_10Ray_StructEPNS_13istack_structE, i32 (double*, %"struct.pov::Object_Struct"*)* @_ZN3povL16Inside_CSG_UnionEPdPNS_13Object_StructE, void (double*, %"struct.pov::Object_Struct"*, %"struct.pov::istk_entry"*)* null, void (double*, %"struct.pov::Object_Struct"*, %"struct.pov::istk_entry"*)* @_ZN3pov15Default_UVCoordEPdPNS_13Object_StructEPNS_10istk_entryE, i8* (%"struct.pov::Object_Struct"*)* bitcast (%"struct.pov::CSG_Struct"* (%"struct.pov::Object_Struct"*)* @_ZN3povL8Copy_CSGEPNS_13Object_StructE to i8* (%"struct.pov::Object_Struct"*)*), void (%"struct.pov::Object_Struct"*, double*, %"struct.pov::Transform_Struct"*)* @_ZN3povL13Translate_CSGEPNS_13Object_StructEPdPNS_16Transform_StructE, void (%"struct.pov::Object_Struct"*, double*, %"struct.pov::Transform_Struct"*)* @_ZN3povL10Rotate_CSGEPNS_13Object_StructEPdPNS_16Transform_StructE, void (%"struct.pov::Object_Struct"*, double*, %"struct.pov::Transform_Struct"*)* @_ZN3povL9Scale_CSGEPNS_13Object_StructEPdPNS_16Transform_StructE, void (%"struct.pov::Object_Struct"*, %"struct.pov::Transform_Struct"*)* @_ZN3povL13Transform_CSGEPNS_13Object_StructEPNS_16Transform_StructE, void (%"struct.pov::Object_Struct"*)* @_ZN3povL16Invert_CSG_UnionEPNS_13Object_StructE, void (%"struct.pov::Object_Struct"*)* @_ZN3povL11Destroy_CSGEPNS_13Object_StructE }, align 8, !dbg !0
@_ZN3pov17CSG_Merge_MethodsE = dso_local global { i32 (%"struct.pov::Object_Struct"*, %"struct.pov::Ray_Struct"*, %"struct.pov::istack_struct"*)*, i32 (double*, %"struct.pov::Object_Struct"*)*, void (double*, %"struct.pov::Object_Struct"*, %"struct.pov::istk_entry"*)*, void (double*, %"struct.pov::Object_Struct"*, %"struct.pov::istk_entry"*)*, i8* (%"struct.pov::Object_Struct"*)*, void (%"struct.pov::Object_Struct"*, double*, %"struct.pov::Transform_Struct"*)*, void (%"struct.pov::Object_Struct"*, double*, %"struct.pov::Transform_Struct"*)*, void (%"struct.pov::Object_Struct"*, double*, %"struct.pov::Transform_Struct"*)*, void (%"struct.pov::Object_Struct"*, %"struct.pov::Transform_Struct"*)*, void (%"struct.pov::Object_Struct"*)*, void (%"struct.pov::Object_Struct"*)* } { i32 (%"struct.pov::Object_Struct"*, %"struct.pov::Ray_Struct"*, %"struct.pov::istack_struct"*)* @_ZN3povL27All_CSG_Merge_IntersectionsEPNS_13Object_StructEPNS_10Ray_StructEPNS_13istack_structE, i32 (double*, %"struct.pov::Object_Struct"*)* @_ZN3povL16Inside_CSG_UnionEPdPNS_13Object_StructE, void (double*, %"struct.pov::Object_Struct"*, %"struct.pov::istk_entry"*)* null, void (double*, %"struct.pov::Object_Struct"*, %"struct.pov::istk_entry"*)* @_ZN3pov15Default_UVCoordEPdPNS_13Object_StructEPNS_10istk_entryE, i8* (%"struct.pov::Object_Struct"*)* bitcast (%"struct.pov::CSG_Struct"* (%"struct.pov::Object_Struct"*)* @_ZN3povL8Copy_CSGEPNS_13Object_StructE to i8* (%"struct.pov::Object_Struct"*)*), void (%"struct.pov::Object_Struct"*, double*, %"struct.pov::Transform_Struct"*)* @_ZN3povL13Translate_CSGEPNS_13Object_StructEPdPNS_16Transform_StructE, void (%"struct.pov::Object_Struct"*, double*, %"struct.pov::Transform_Struct"*)* @_ZN3povL10Rotate_CSGEPNS_13Object_StructEPdPNS_16Transform_StructE, void (%"struct.pov::Object_Struct"*, double*, %"struct.pov::Transform_Struct"*)* @_ZN3povL9Scale_CSGEPNS_13Object_StructEPdPNS_16Transform_StructE, void (%"struct.pov::Object_Struct"*, %"struct.pov::Transform_Struct"*)* @_ZN3povL13Transform_CSGEPNS_13Object_StructEPNS_16Transform_StructE, void (%"struct.pov::Object_Struct"*)* @_ZN3povL16Invert_CSG_UnionEPNS_13Object_StructE, void (%"struct.pov::Object_Struct"*)* @_ZN3povL11Destroy_CSGEPNS_13Object_StructE }, align 8, !dbg !212
@_ZN3pov24CSG_Intersection_MethodsE = dso_local global { i32 (%"struct.pov::Object_Struct"*, %"struct.pov::Ray_Struct"*, %"struct.pov::istack_struct"*)*, i32 (double*, %"struct.pov::Object_Struct"*)*, void (double*, %"struct.pov::Object_Struct"*, %"struct.pov::istk_entry"*)*, void (double*, %"struct.pov::Object_Struct"*, %"struct.pov::istk_entry"*)*, i8* (%"struct.pov::Object_Struct"*)*, void (%"struct.pov::Object_Struct"*, double*, %"struct.pov::Transform_Struct"*)*, void (%"struct.pov::Object_Struct"*, double*, %"struct.pov::Transform_Struct"*)*, void (%"struct.pov::Object_Struct"*, double*, %"struct.pov::Transform_Struct"*)*, void (%"struct.pov::Object_Struct"*, %"struct.pov::Transform_Struct"*)*, void (%"struct.pov::Object_Struct"*)*, void (%"struct.pov::Object_Struct"*)* } { i32 (%"struct.pov::Object_Struct"*, %"struct.pov::Ray_Struct"*, %"struct.pov::istack_struct"*)* @_ZN3povL31All_CSG_Intersect_IntersectionsEPNS_13Object_StructEPNS_10Ray_StructEPNS_13istack_structE, i32 (double*, %"struct.pov::Object_Struct"*)* @_ZN3povL23Inside_CSG_IntersectionEPdPNS_13Object_StructE, void (double*, %"struct.pov::Object_Struct"*, %"struct.pov::istk_entry"*)* null, void (double*, %"struct.pov::Object_Struct"*, %"struct.pov::istk_entry"*)* @_ZN3pov15Default_UVCoordEPdPNS_13Object_StructEPNS_10istk_entryE, i8* (%"struct.pov::Object_Struct"*)* bitcast (%"struct.pov::CSG_Struct"* (%"struct.pov::Object_Struct"*)* @_ZN3povL8Copy_CSGEPNS_13Object_StructE to i8* (%"struct.pov::Object_Struct"*)*), void (%"struct.pov::Object_Struct"*, double*, %"struct.pov::Transform_Struct"*)* @_ZN3povL13Translate_CSGEPNS_13Object_StructEPdPNS_16Transform_StructE, void (%"struct.pov::Object_Struct"*, double*, %"struct.pov::Transform_Struct"*)* @_ZN3povL10Rotate_CSGEPNS_13Object_StructEPdPNS_16Transform_StructE, void (%"struct.pov::Object_Struct"*, double*, %"struct.pov::Transform_Struct"*)* @_ZN3povL9Scale_CSGEPNS_13Object_StructEPdPNS_16Transform_StructE, void (%"struct.pov::Object_Struct"*, %"struct.pov::Transform_Struct"*)* @_ZN3povL13Transform_CSGEPNS_13Object_StructEPNS_16Transform_StructE, void (%"struct.pov::Object_Struct"*)* @_ZN3povL23Invert_CSG_IntersectionEPNS_13Object_StructE, void (%"struct.pov::Object_Struct"*)* @_ZN3povL11Destroy_CSGEPNS_13Object_StructE }, align 8, !dbg !214
@.str = private unnamed_addr constant [8 x i8] c"csg.cpp\00", align 1
@.str.1 = private unnamed_addr constant [6 x i8] c"union\00", align 1
@.str.2 = private unnamed_addr constant [6 x i8] c"merge\00", align 1
@.str.3 = private unnamed_addr constant [13 x i8] c"intersection\00", align 1
@_ZN3pov14HField_MethodsE = external dso_local global %"struct.pov::Method_Struct", align 8
@_ZN3pov15Quadric_MethodsE = external dso_local global %"struct.pov::Method_Struct", align 8
@.str.4 = private unnamed_addr constant [23 x i8] c"temporary quadric list\00", align 1
@_ZN3pov13Plane_MethodsE = external dso_local global %"struct.pov::Method_Struct", align 8
@.str.5 = private unnamed_addr constant [41 x i8] c"Degenerate CSG bounding box (not used!).\00", align 1
@.str.6 = private unnamed_addr constant [41 x i8] c"No textures in multi-texture CSG object.\00", align 1
@_ZN3pov5statsE = external dso_local global [123 x i64], align 16
@_ZN3pov13backtraceFlagE = external dso_local global i32, align 4
@_ZN3pov20Performing_SDL_TraceE = external dso_local global i8, align 1
@_ZN3pov17In_Reflection_RayE = external dso_local global i8, align 1
@.str.7 = private unnamed_addr constant [4 x i8] c"csg\00", align 1

; Function Attrs: noinline uwtable
define internal i32 @_ZN3povL27All_CSG_Union_IntersectionsEPNS_13Object_StructEPNS_10Ray_StructEPNS_13istack_structE(%"struct.pov::Object_Struct"* %Object, %"struct.pov::Ray_Struct"* %Ray, %"struct.pov::istack_struct"* %Depth_Stack) #0 !dbg !1201 {
entry:
  %Object.addr = alloca %"struct.pov::Object_Struct"*, align 8
  %Ray.addr = alloca %"struct.pov::Ray_Struct"*, align 8
  %Depth_Stack.addr = alloca %"struct.pov::istack_struct"*, align 8
  %Found = alloca i32, align 4
  %Current_Sib = alloca %"struct.pov::Object_Struct"*, align 8
  %Clip = alloca %"struct.pov::Object_Struct"*, align 8
  %Local_Stack = alloca %"struct.pov::istack_struct"*, align 8
  %Sibling_Intersection = alloca %"struct.pov::istk_entry"*, align 8
  store %"struct.pov::Object_Struct"* %Object, %"struct.pov::Object_Struct"** %Object.addr, align 8
  call void @llvm.dbg.declare(metadata %"struct.pov::Object_Struct"** %Object.addr, metadata !1203, metadata !DIExpression()), !dbg !1204
  store %"struct.pov::Ray_Struct"* %Ray, %"struct.pov::Ray_Struct"** %Ray.addr, align 8
  call void @llvm.dbg.declare(metadata %"struct.pov::Ray_Struct"** %Ray.addr, metadata !1205, metadata !DIExpression()), !dbg !1206
  store %"struct.pov::istack_struct"* %Depth_Stack, %"struct.pov::istack_struct"** %Depth_Stack.addr, align 8
  call void @llvm.dbg.declare(metadata %"struct.pov::istack_struct"** %Depth_Stack.addr, metadata !1207, metadata !DIExpression()), !dbg !1208
  call void @llvm.dbg.declare(metadata i32* %Found, metadata !1209, metadata !DIExpression()), !dbg !1210
  call void @llvm.dbg.declare(metadata %"struct.pov::Object_Struct"** %Current_Sib, metadata !1211, metadata !DIExpression()), !dbg !1212
  call void @llvm.dbg.declare(metadata %"struct.pov::Object_Struct"** %Clip, metadata !1213, metadata !DIExpression()), !dbg !1214
  call void @llvm.dbg.declare(metadata %"struct.pov::istack_struct"** %Local_Stack, metadata !1215, metadata !DIExpression()), !dbg !1216
  call void @llvm.dbg.declare(metadata %"struct.pov::istk_entry"** %Sibling_Intersection, metadata !1217, metadata !DIExpression()), !dbg !1218
  call void @_ZN3pov16Increase_CounterERx(i64* dereferenceable(8) getelementptr inbounds ([123 x i64], [123 x i64]* @_ZN3pov5statsE, i64 0, i64 26)), !dbg !1219
  store i32 0, i32* %Found, align 4, !dbg !1220
  %0 = load %"struct.pov::Object_Struct"*, %"struct.pov::Object_Struct"** %Object.addr, align 8, !dbg !1221
  %Clip1 = getelementptr inbounds %"struct.pov::Object_Struct", %"struct.pov::Object_Struct"* %0, i32 0, i32 7, !dbg !1223
  %1 = load %"struct.pov::Object_Struct"*, %"struct.pov::Object_Struct"** %Clip1, align 8, !dbg !1223
  store %"struct.pov::Object_Struct"* %1, %"struct.pov::Object_Struct"** %Clip, align 8, !dbg !1224
  %cmp = icmp eq %"struct.pov::Object_Struct"* %1, null, !dbg !1225
  br i1 %cmp, label %if.then, label %if.else, !dbg !1226

if.then:                                          ; preds = %entry
  %2 = load %"struct.pov::Object_Struct"*, %"struct.pov::Object_Struct"** %Object.addr, align 8, !dbg !1227
  %3 = bitcast %"struct.pov::Object_Struct"* %2 to %"struct.pov::CSG_Struct"*, !dbg !1230
  %Children = getelementptr inbounds %"struct.pov::CSG_Struct", %"struct.pov::CSG_Struct"* %3, i32 0, i32 14, !dbg !1230
  %4 = load %"struct.pov::Object_Struct"*, %"struct.pov::Object_Struct"** %Children, align 8, !dbg !1230
  store %"struct.pov::Object_Struct"* %4, %"struct.pov::Object_Struct"** %Current_Sib, align 8, !dbg !1231
  br label %for.cond, !dbg !1232

for.cond:                                         ; preds = %for.inc, %if.then
  %5 = load %"struct.pov::Object_Struct"*, %"struct.pov::Object_Struct"** %Current_Sib, align 8, !dbg !1233
  %cmp2 = icmp ne %"struct.pov::Object_Struct"* %5, null, !dbg !1235
  br i1 %cmp2, label %for.body, label %for.end, !dbg !1236

for.body:                                         ; preds = %for.cond
  %6 = load i32, i32* @_ZN3pov13backtraceFlagE, align 4, !dbg !1237
  %tobool = icmp ne i32 %6, 0, !dbg !1237
  br i1 %tobool, label %lor.lhs.false18, label %land.lhs.true, !dbg !1237

land.lhs.true:                                    ; preds = %for.body
  %7 = load %"struct.pov::Object_Struct"*, %"struct.pov::Object_Struct"** %Current_Sib, align 8, !dbg !1237
  %Flags = getelementptr inbounds %"struct.pov::Object_Struct", %"struct.pov::Object_Struct"* %7, i32 0, i32 13, !dbg !1237
  %8 = load i32, i32* %Flags, align 4, !dbg !1237
  %conv = zext i32 %8 to i64, !dbg !1237
  %and = and i64 %conv, 32768, !dbg !1237
  %tobool3 = icmp ne i64 %and, 0, !dbg !1237
  br i1 %tobool3, label %lor.lhs.false, label %land.lhs.true9, !dbg !1237

lor.lhs.false:                                    ; preds = %land.lhs.true
  %9 = load i8, i8* @_ZN3pov20Performing_SDL_TraceE, align 1, !dbg !1237
  %tobool4 = trunc i8 %9 to i1, !dbg !1237
  br i1 %tobool4, label %land.lhs.true9, label %lor.lhs.false5, !dbg !1237

lor.lhs.false5:                                   ; preds = %lor.lhs.false
  %10 = load i8, i8* @_ZN3pov17In_Reflection_RayE, align 1, !dbg !1237
  %tobool6 = trunc i8 %10 to i1, !dbg !1237
  %conv7 = zext i1 %tobool6 to i32, !dbg !1237
  %cmp8 = icmp eq i32 %conv7, 1, !dbg !1237
  br i1 %cmp8, label %land.lhs.true9, label %lor.lhs.false18, !dbg !1237

land.lhs.true9:                                   ; preds = %lor.lhs.false5, %lor.lhs.false, %land.lhs.true
  %11 = load %"struct.pov::Object_Struct"*, %"struct.pov::Object_Struct"** %Current_Sib, align 8, !dbg !1237
  %Flags10 = getelementptr inbounds %"struct.pov::Object_Struct", %"struct.pov::Object_Struct"* %11, i32 0, i32 13, !dbg !1237
  %12 = load i32, i32* %Flags10, align 4, !dbg !1237
  %conv11 = zext i32 %12 to i64, !dbg !1237
  %and12 = and i64 %conv11, 65536, !dbg !1237
  %tobool13 = icmp ne i64 %and12, 0, !dbg !1237
  br i1 %tobool13, label %lor.lhs.false14, label %if.then25, !dbg !1237

lor.lhs.false14:                                  ; preds = %land.lhs.true9
  %13 = load i8, i8* @_ZN3pov17In_Reflection_RayE, align 1, !dbg !1237
  %tobool15 = trunc i8 %13 to i1, !dbg !1237
  %conv16 = zext i1 %tobool15 to i32, !dbg !1237
  %cmp17 = icmp eq i32 %conv16, 0, !dbg !1237
  br i1 %cmp17, label %if.then25, label %lor.lhs.false18, !dbg !1237

lor.lhs.false18:                                  ; preds = %lor.lhs.false14, %lor.lhs.false5, %for.body
  %14 = load i32, i32* @_ZN3pov13backtraceFlagE, align 4, !dbg !1237
  %tobool19 = icmp ne i32 %14, 0, !dbg !1237
  br i1 %tobool19, label %land.lhs.true20, label %if.end32, !dbg !1237

land.lhs.true20:                                  ; preds = %lor.lhs.false18
  %15 = load %"struct.pov::Object_Struct"*, %"struct.pov::Object_Struct"** %Current_Sib, align 8, !dbg !1237
  %Flags21 = getelementptr inbounds %"struct.pov::Object_Struct", %"struct.pov::Object_Struct"* %15, i32 0, i32 13, !dbg !1237
  %16 = load i32, i32* %Flags21, align 4, !dbg !1237
  %conv22 = zext i32 %16 to i64, !dbg !1237
  %and23 = and i64 %conv22, 1, !dbg !1237
  %tobool24 = icmp ne i64 %and23, 0, !dbg !1237
  br i1 %tobool24, label %if.end32, label %if.then25, !dbg !1240

if.then25:                                        ; preds = %land.lhs.true20, %lor.lhs.false14, %land.lhs.true9
  %17 = load %"struct.pov::Ray_Struct"*, %"struct.pov::Ray_Struct"** %Ray.addr, align 8, !dbg !1241
  %18 = load %"struct.pov::Object_Struct"*, %"struct.pov::Object_Struct"** %Current_Sib, align 8, !dbg !1244
  %Bound = getelementptr inbounds %"struct.pov::Object_Struct", %"struct.pov::Object_Struct"* %18, i32 0, i32 6, !dbg !1245
  %19 = load %"struct.pov::Object_Struct"*, %"struct.pov::Object_Struct"** %Bound, align 8, !dbg !1245
  %call = call zeroext i1 @_ZN3pov12Ray_In_BoundEPNS_10Ray_StructEPNS_13Object_StructE(%"struct.pov::Ray_Struct"* %17, %"struct.pov::Object_Struct"* %19), !dbg !1246
  br i1 %call, label %if.then26, label %if.end31, !dbg !1247

if.then26:                                        ; preds = %if.then25
  %20 = load %"struct.pov::Object_Struct"*, %"struct.pov::Object_Struct"** %Current_Sib, align 8, !dbg !1248
  %Methods = getelementptr inbounds %"struct.pov::Object_Struct", %"struct.pov::Object_Struct"* %20, i32 0, i32 0, !dbg !1248
  %21 = load %"struct.pov::Method_Struct"*, %"struct.pov::Method_Struct"** %Methods, align 8, !dbg !1248
  %All_Intersections_Method = getelementptr inbounds %"struct.pov::Method_Struct", %"struct.pov::Method_Struct"* %21, i32 0, i32 0, !dbg !1248
  %All_Intersections_Method27 = bitcast {}** %All_Intersections_Method to i32 (%"struct.pov::Object_Struct"*, %"struct.pov::Ray_Struct"*, %"struct.pov::istack_struct"*)**, !dbg !1248
  %22 = load i32 (%"struct.pov::Object_Struct"*, %"struct.pov::Ray_Struct"*, %"struct.pov::istack_struct"*)*, i32 (%"struct.pov::Object_Struct"*, %"struct.pov::Ray_Struct"*, %"struct.pov::istack_struct"*)** %All_Intersections_Method27, align 8, !dbg !1248
  %23 = load %"struct.pov::Object_Struct"*, %"struct.pov::Object_Struct"** %Current_Sib, align 8, !dbg !1248
  %24 = load %"struct.pov::Ray_Struct"*, %"struct.pov::Ray_Struct"** %Ray.addr, align 8, !dbg !1248
  %25 = load %"struct.pov::istack_struct"*, %"struct.pov::istack_struct"** %Depth_Stack.addr, align 8, !dbg !1248
  %call28 = call i32 %22(%"struct.pov::Object_Struct"* %23, %"struct.pov::Ray_Struct"* %24, %"struct.pov::istack_struct"* %25), !dbg !1248
  %tobool29 = icmp ne i32 %call28, 0, !dbg !1248
  br i1 %tobool29, label %if.then30, label %if.end, !dbg !1251

if.then30:                                        ; preds = %if.then26
  store i32 1, i32* %Found, align 4, !dbg !1252
  br label %if.end, !dbg !1254

if.end:                                           ; preds = %if.then30, %if.then26
  br label %if.end31, !dbg !1255

if.end31:                                         ; preds = %if.end, %if.then25
  br label %if.end32, !dbg !1256

if.end32:                                         ; preds = %if.end31, %land.lhs.true20, %lor.lhs.false18
  br label %for.inc, !dbg !1257

for.inc:                                          ; preds = %if.end32
  %26 = load %"struct.pov::Object_Struct"*, %"struct.pov::Object_Struct"** %Current_Sib, align 8, !dbg !1258
  %Sibling = getelementptr inbounds %"struct.pov::Object_Struct", %"struct.pov::Object_Struct"* %26, i32 0, i32 2, !dbg !1259
  %27 = load %"struct.pov::Object_Struct"*, %"struct.pov::Object_Struct"** %Sibling, align 8, !dbg !1259
  store %"struct.pov::Object_Struct"* %27, %"struct.pov::Object_Struct"** %Current_Sib, align 8, !dbg !1260
  br label %for.cond, !dbg !1261, !llvm.loop !1262

for.end:                                          ; preds = %for.cond
  br label %if.end93, !dbg !1264

if.else:                                          ; preds = %entry
  %call33 = call %"struct.pov::istack_struct"* @_ZN3pov11open_istackEv(), !dbg !1265
  store %"struct.pov::istack_struct"* %call33, %"struct.pov::istack_struct"** %Local_Stack, align 8, !dbg !1267
  %28 = load %"struct.pov::Object_Struct"*, %"struct.pov::Object_Struct"** %Object.addr, align 8, !dbg !1268
  %29 = bitcast %"struct.pov::Object_Struct"* %28 to %"struct.pov::CSG_Struct"*, !dbg !1270
  %Children34 = getelementptr inbounds %"struct.pov::CSG_Struct", %"struct.pov::CSG_Struct"* %29, i32 0, i32 14, !dbg !1270
  %30 = load %"struct.pov::Object_Struct"*, %"struct.pov::Object_Struct"** %Children34, align 8, !dbg !1270
  store %"struct.pov::Object_Struct"* %30, %"struct.pov::Object_Struct"** %Current_Sib, align 8, !dbg !1271
  br label %for.cond35, !dbg !1272

for.cond35:                                       ; preds = %for.inc90, %if.else
  %31 = load %"struct.pov::Object_Struct"*, %"struct.pov::Object_Struct"** %Current_Sib, align 8, !dbg !1273
  %cmp36 = icmp ne %"struct.pov::Object_Struct"* %31, null, !dbg !1275
  br i1 %cmp36, label %for.body37, label %for.end92, !dbg !1276

for.body37:                                       ; preds = %for.cond35
  %32 = load i32, i32* @_ZN3pov13backtraceFlagE, align 4, !dbg !1277
  %tobool38 = icmp ne i32 %32, 0, !dbg !1277
  br i1 %tobool38, label %lor.lhs.false59, label %land.lhs.true39, !dbg !1277

land.lhs.true39:                                  ; preds = %for.body37
  %33 = load %"struct.pov::Object_Struct"*, %"struct.pov::Object_Struct"** %Current_Sib, align 8, !dbg !1277
  %Flags40 = getelementptr inbounds %"struct.pov::Object_Struct", %"struct.pov::Object_Struct"* %33, i32 0, i32 13, !dbg !1277
  %34 = load i32, i32* %Flags40, align 4, !dbg !1277
  %conv41 = zext i32 %34 to i64, !dbg !1277
  %and42 = and i64 %conv41, 32768, !dbg !1277
  %tobool43 = icmp ne i64 %and42, 0, !dbg !1277
  br i1 %tobool43, label %lor.lhs.false44, label %land.lhs.true50, !dbg !1277

lor.lhs.false44:                                  ; preds = %land.lhs.true39
  %35 = load i8, i8* @_ZN3pov20Performing_SDL_TraceE, align 1, !dbg !1277
  %tobool45 = trunc i8 %35 to i1, !dbg !1277
  br i1 %tobool45, label %land.lhs.true50, label %lor.lhs.false46, !dbg !1277

lor.lhs.false46:                                  ; preds = %lor.lhs.false44
  %36 = load i8, i8* @_ZN3pov17In_Reflection_RayE, align 1, !dbg !1277
  %tobool47 = trunc i8 %36 to i1, !dbg !1277
  %conv48 = zext i1 %tobool47 to i32, !dbg !1277
  %cmp49 = icmp eq i32 %conv48, 1, !dbg !1277
  br i1 %cmp49, label %land.lhs.true50, label %lor.lhs.false59, !dbg !1277

land.lhs.true50:                                  ; preds = %lor.lhs.false46, %lor.lhs.false44, %land.lhs.true39
  %37 = load %"struct.pov::Object_Struct"*, %"struct.pov::Object_Struct"** %Current_Sib, align 8, !dbg !1277
  %Flags51 = getelementptr inbounds %"struct.pov::Object_Struct", %"struct.pov::Object_Struct"* %37, i32 0, i32 13, !dbg !1277
  %38 = load i32, i32* %Flags51, align 4, !dbg !1277
  %conv52 = zext i32 %38 to i64, !dbg !1277
  %and53 = and i64 %conv52, 65536, !dbg !1277
  %tobool54 = icmp ne i64 %and53, 0, !dbg !1277
  br i1 %tobool54, label %lor.lhs.false55, label %if.then66, !dbg !1277

lor.lhs.false55:                                  ; preds = %land.lhs.true50
  %39 = load i8, i8* @_ZN3pov17In_Reflection_RayE, align 1, !dbg !1277
  %tobool56 = trunc i8 %39 to i1, !dbg !1277
  %conv57 = zext i1 %tobool56 to i32, !dbg !1277
  %cmp58 = icmp eq i32 %conv57, 0, !dbg !1277
  br i1 %cmp58, label %if.then66, label %lor.lhs.false59, !dbg !1277

lor.lhs.false59:                                  ; preds = %lor.lhs.false55, %lor.lhs.false46, %for.body37
  %40 = load i32, i32* @_ZN3pov13backtraceFlagE, align 4, !dbg !1277
  %tobool60 = icmp ne i32 %40, 0, !dbg !1277
  br i1 %tobool60, label %land.lhs.true61, label %if.end89, !dbg !1277

land.lhs.true61:                                  ; preds = %lor.lhs.false59
  %41 = load %"struct.pov::Object_Struct"*, %"struct.pov::Object_Struct"** %Current_Sib, align 8, !dbg !1277
  %Flags62 = getelementptr inbounds %"struct.pov::Object_Struct", %"struct.pov::Object_Struct"* %41, i32 0, i32 13, !dbg !1277
  %42 = load i32, i32* %Flags62, align 4, !dbg !1277
  %conv63 = zext i32 %42 to i64, !dbg !1277
  %and64 = and i64 %conv63, 1, !dbg !1277
  %tobool65 = icmp ne i64 %and64, 0, !dbg !1277
  br i1 %tobool65, label %if.end89, label %if.then66, !dbg !1280

if.then66:                                        ; preds = %land.lhs.true61, %lor.lhs.false55, %land.lhs.true50
  %43 = load %"struct.pov::Ray_Struct"*, %"struct.pov::Ray_Struct"** %Ray.addr, align 8, !dbg !1281
  %44 = load %"struct.pov::Object_Struct"*, %"struct.pov::Object_Struct"** %Current_Sib, align 8, !dbg !1284
  %Bound67 = getelementptr inbounds %"struct.pov::Object_Struct", %"struct.pov::Object_Struct"* %44, i32 0, i32 6, !dbg !1285
  %45 = load %"struct.pov::Object_Struct"*, %"struct.pov::Object_Struct"** %Bound67, align 8, !dbg !1285
  %call68 = call zeroext i1 @_ZN3pov12Ray_In_BoundEPNS_10Ray_StructEPNS_13Object_StructE(%"struct.pov::Ray_Struct"* %43, %"struct.pov::Object_Struct"* %45), !dbg !1286
  br i1 %call68, label %if.then69, label %if.end88, !dbg !1287

if.then69:                                        ; preds = %if.then66
  %46 = load %"struct.pov::Object_Struct"*, %"struct.pov::Object_Struct"** %Current_Sib, align 8, !dbg !1288
  %Methods70 = getelementptr inbounds %"struct.pov::Object_Struct", %"struct.pov::Object_Struct"* %46, i32 0, i32 0, !dbg !1288
  %47 = load %"struct.pov::Method_Struct"*, %"struct.pov::Method_Struct"** %Methods70, align 8, !dbg !1288
  %All_Intersections_Method71 = getelementptr inbounds %"struct.pov::Method_Struct", %"struct.pov::Method_Struct"* %47, i32 0, i32 0, !dbg !1288
  %All_Intersections_Method72 = bitcast {}** %All_Intersections_Method71 to i32 (%"struct.pov::Object_Struct"*, %"struct.pov::Ray_Struct"*, %"struct.pov::istack_struct"*)**, !dbg !1288
  %48 = load i32 (%"struct.pov::Object_Struct"*, %"struct.pov::Ray_Struct"*, %"struct.pov::istack_struct"*)*, i32 (%"struct.pov::Object_Struct"*, %"struct.pov::Ray_Struct"*, %"struct.pov::istack_struct"*)** %All_Intersections_Method72, align 8, !dbg !1288
  %49 = load %"struct.pov::Object_Struct"*, %"struct.pov::Object_Struct"** %Current_Sib, align 8, !dbg !1288
  %50 = load %"struct.pov::Ray_Struct"*, %"struct.pov::Ray_Struct"** %Ray.addr, align 8, !dbg !1288
  %51 = load %"struct.pov::istack_struct"*, %"struct.pov::istack_struct"** %Local_Stack, align 8, !dbg !1288
  %call73 = call i32 %48(%"struct.pov::Object_Struct"* %49, %"struct.pov::Ray_Struct"* %50, %"struct.pov::istack_struct"* %51), !dbg !1288
  %tobool74 = icmp ne i32 %call73, 0, !dbg !1288
  br i1 %tobool74, label %if.then75, label %if.end87, !dbg !1291

if.then75:                                        ; preds = %if.then69
  br label %while.cond, !dbg !1292

while.cond:                                       ; preds = %if.end86, %if.then75
  %52 = load %"struct.pov::istack_struct"*, %"struct.pov::istack_struct"** %Local_Stack, align 8, !dbg !1294
  %call76 = call %"struct.pov::istk_entry"* @_ZN3pov9pop_entryEPNS_13istack_structE(%"struct.pov::istack_struct"* %52), !dbg !1295
  store %"struct.pov::istk_entry"* %call76, %"struct.pov::istk_entry"** %Sibling_Intersection, align 8, !dbg !1296
  %cmp77 = icmp ne %"struct.pov::istk_entry"* %call76, null, !dbg !1297
  br i1 %cmp77, label %while.body, label %while.end, !dbg !1292

while.body:                                       ; preds = %while.cond
  %53 = load %"struct.pov::istk_entry"*, %"struct.pov::istk_entry"** %Sibling_Intersection, align 8, !dbg !1298
  %IPoint = getelementptr inbounds %"struct.pov::istk_entry", %"struct.pov::istk_entry"* %53, i32 0, i32 1, !dbg !1301
  %arraydecay = getelementptr inbounds [3 x double], [3 x double]* %IPoint, i64 0, i64 0, !dbg !1298
  %54 = load %"struct.pov::Object_Struct"*, %"struct.pov::Object_Struct"** %Clip, align 8, !dbg !1302
  %call78 = call zeroext i1 @_ZN3pov13Point_In_ClipEPdPNS_13Object_StructE(double* %arraydecay, %"struct.pov::Object_Struct"* %54), !dbg !1303
  br i1 %call78, label %if.then79, label %if.end86, !dbg !1304

if.then79:                                        ; preds = %while.body
  %55 = load %"struct.pov::Object_Struct"*, %"struct.pov::Object_Struct"** %Object.addr, align 8, !dbg !1305
  %Flags80 = getelementptr inbounds %"struct.pov::Object_Struct", %"struct.pov::Object_Struct"* %55, i32 0, i32 13, !dbg !1305
  %56 = load i32, i32* %Flags80, align 4, !dbg !1305
  %conv81 = zext i32 %56 to i64, !dbg !1305
  %and82 = and i64 %conv81, 256, !dbg !1305
  %tobool83 = icmp ne i64 %and82, 0, !dbg !1305
  br i1 %tobool83, label %if.then84, label %if.end85, !dbg !1308

if.then84:                                        ; preds = %if.then79
  %57 = load %"struct.pov::Object_Struct"*, %"struct.pov::Object_Struct"** %Object.addr, align 8, !dbg !1309
  %58 = bitcast %"struct.pov::Object_Struct"* %57 to i8*, !dbg !1309
  %59 = load %"struct.pov::istk_entry"*, %"struct.pov::istk_entry"** %Sibling_Intersection, align 8, !dbg !1311
  %Csg = getelementptr inbounds %"struct.pov::istk_entry", %"struct.pov::istk_entry"* %59, i32 0, i32 18, !dbg !1312
  store i8* %58, i8** %Csg, align 8, !dbg !1313
  br label %if.end85, !dbg !1314

if.end85:                                         ; preds = %if.then84, %if.then79
  %60 = load %"struct.pov::istack_struct"*, %"struct.pov::istack_struct"** %Depth_Stack.addr, align 8, !dbg !1315
  %61 = load %"struct.pov::istk_entry"*, %"struct.pov::istk_entry"** %Sibling_Intersection, align 8, !dbg !1316
  call void @_ZN3pov9push_copyEPNS_13istack_structEPNS_10istk_entryE(%"struct.pov::istack_struct"* %60, %"struct.pov::istk_entry"* %61), !dbg !1317
  store i32 1, i32* %Found, align 4, !dbg !1318
  br label %if.end86, !dbg !1319

if.end86:                                         ; preds = %if.end85, %while.body
  br label %while.cond, !dbg !1292, !llvm.loop !1320

while.end:                                        ; preds = %while.cond
  br label %if.end87, !dbg !1322

if.end87:                                         ; preds = %while.end, %if.then69
  br label %if.end88, !dbg !1323

if.end88:                                         ; preds = %if.end87, %if.then66
  br label %if.end89, !dbg !1324

if.end89:                                         ; preds = %if.end88, %land.lhs.true61, %lor.lhs.false59
  br label %for.inc90, !dbg !1325

for.inc90:                                        ; preds = %if.end89
  %62 = load %"struct.pov::Object_Struct"*, %"struct.pov::Object_Struct"** %Current_Sib, align 8, !dbg !1326
  %Sibling91 = getelementptr inbounds %"struct.pov::Object_Struct", %"struct.pov::Object_Struct"* %62, i32 0, i32 2, !dbg !1327
  %63 = load %"struct.pov::Object_Struct"*, %"struct.pov::Object_Struct"** %Sibling91, align 8, !dbg !1327
  store %"struct.pov::Object_Struct"* %63, %"struct.pov::Object_Struct"** %Current_Sib, align 8, !dbg !1328
  br label %for.cond35, !dbg !1329, !llvm.loop !1330

for.end92:                                        ; preds = %for.cond35
  %64 = load %"struct.pov::istack_struct"*, %"struct.pov::istack_struct"** %Local_Stack, align 8, !dbg !1332
  call void @_ZN3pov12close_istackEPNS_13istack_structE(%"struct.pov::istack_struct"* %64), !dbg !1333
  br label %if.end93

if.end93:                                         ; preds = %for.end92, %for.end
  %65 = load i32, i32* %Found, align 4, !dbg !1334
  %tobool94 = icmp ne i32 %65, 0, !dbg !1334
  br i1 %tobool94, label %if.then95, label %if.end96, !dbg !1336

if.then95:                                        ; preds = %if.end93
  call void @_ZN3pov16Increase_CounterERx(i64* dereferenceable(8) getelementptr inbounds ([123 x i64], [123 x i64]* @_ZN3pov5statsE, i64 0, i64 27)), !dbg !1337
  br label %if.end96, !dbg !1339

if.end96:                                         ; preds = %if.then95, %if.end93
  %66 = load i32, i32* %Found, align 4, !dbg !1340
  ret i32 %66, !dbg !1341
}

; Function Attrs: noinline uwtable
define internal i32 @_ZN3povL16Inside_CSG_UnionEPdPNS_13Object_StructE(double* %IPoint, %"struct.pov::Object_Struct"* %Object) #0 !dbg !1342 {
entry:
  %retval = alloca i32, align 4
  %IPoint.addr = alloca double*, align 8
  %Object.addr = alloca %"struct.pov::Object_Struct"*, align 8
  %Current_Sib = alloca %"struct.pov::Object_Struct"*, align 8
  store double* %IPoint, double** %IPoint.addr, align 8
  call void @llvm.dbg.declare(metadata double** %IPoint.addr, metadata !1343, metadata !DIExpression()), !dbg !1344
  store %"struct.pov::Object_Struct"* %Object, %"struct.pov::Object_Struct"** %Object.addr, align 8
  call void @llvm.dbg.declare(metadata %"struct.pov::Object_Struct"** %Object.addr, metadata !1345, metadata !DIExpression()), !dbg !1346
  call void @llvm.dbg.declare(metadata %"struct.pov::Object_Struct"** %Current_Sib, metadata !1347, metadata !DIExpression()), !dbg !1348
  %0 = load %"struct.pov::Object_Struct"*, %"struct.pov::Object_Struct"** %Object.addr, align 8, !dbg !1349
  %1 = bitcast %"struct.pov::Object_Struct"* %0 to %"struct.pov::CSG_Struct"*, !dbg !1351
  %Children = getelementptr inbounds %"struct.pov::CSG_Struct", %"struct.pov::CSG_Struct"* %1, i32 0, i32 14, !dbg !1351
  %2 = load %"struct.pov::Object_Struct"*, %"struct.pov::Object_Struct"** %Children, align 8, !dbg !1351
  store %"struct.pov::Object_Struct"* %2, %"struct.pov::Object_Struct"** %Current_Sib, align 8, !dbg !1352
  br label %for.cond, !dbg !1353

for.cond:                                         ; preds = %for.inc, %entry
  %3 = load %"struct.pov::Object_Struct"*, %"struct.pov::Object_Struct"** %Current_Sib, align 8, !dbg !1354
  %cmp = icmp ne %"struct.pov::Object_Struct"* %3, null, !dbg !1356
  br i1 %cmp, label %for.body, label %for.end, !dbg !1357

for.body:                                         ; preds = %for.cond
  %4 = load %"struct.pov::Object_Struct"*, %"struct.pov::Object_Struct"** %Current_Sib, align 8, !dbg !1358
  %Type = getelementptr inbounds %"struct.pov::Object_Struct", %"struct.pov::Object_Struct"* %4, i32 0, i32 1, !dbg !1361
  %5 = load i32, i32* %Type, align 8, !dbg !1361
  %and = and i32 %5, 32, !dbg !1362
  %tobool = icmp ne i32 %and, 0, !dbg !1363
  br i1 %tobool, label %lor.lhs.false, label %if.then, !dbg !1364

lor.lhs.false:                                    ; preds = %for.body
  %6 = load %"struct.pov::Object_Struct"*, %"struct.pov::Object_Struct"** %Current_Sib, align 8, !dbg !1365
  %7 = bitcast %"struct.pov::Object_Struct"* %6 to %"struct.pov::Light_Source_Struct"*, !dbg !1366
  %Children1 = getelementptr inbounds %"struct.pov::Light_Source_Struct", %"struct.pov::Light_Source_Struct"* %7, i32 0, i32 14, !dbg !1366
  %8 = load %"struct.pov::Object_Struct"*, %"struct.pov::Object_Struct"** %Children1, align 8, !dbg !1366
  %tobool2 = icmp ne %"struct.pov::Object_Struct"* %8, null, !dbg !1367
  br i1 %tobool2, label %if.then, label %if.end4, !dbg !1368

if.then:                                          ; preds = %lor.lhs.false, %for.body
  %9 = load double*, double** %IPoint.addr, align 8, !dbg !1369
  %10 = load %"struct.pov::Object_Struct"*, %"struct.pov::Object_Struct"** %Current_Sib, align 8, !dbg !1372
  %call = call zeroext i1 @_ZN3pov13Inside_ObjectEPdPNS_13Object_StructE(double* %9, %"struct.pov::Object_Struct"* %10), !dbg !1373
  br i1 %call, label %if.then3, label %if.end, !dbg !1374

if.then3:                                         ; preds = %if.then
  store i32 1, i32* %retval, align 4, !dbg !1375
  br label %return, !dbg !1375

if.end:                                           ; preds = %if.then
  br label %if.end4, !dbg !1377

if.end4:                                          ; preds = %if.end, %lor.lhs.false
  br label %for.inc, !dbg !1378

for.inc:                                          ; preds = %if.end4
  %11 = load %"struct.pov::Object_Struct"*, %"struct.pov::Object_Struct"** %Current_Sib, align 8, !dbg !1379
  %Sibling = getelementptr inbounds %"struct.pov::Object_Struct", %"struct.pov::Object_Struct"* %11, i32 0, i32 2, !dbg !1380
  %12 = load %"struct.pov::Object_Struct"*, %"struct.pov::Object_Struct"** %Sibling, align 8, !dbg !1380
  store %"struct.pov::Object_Struct"* %12, %"struct.pov::Object_Struct"** %Current_Sib, align 8, !dbg !1381
  br label %for.cond, !dbg !1382, !llvm.loop !1383

for.end:                                          ; preds = %for.cond
  store i32 0, i32* %retval, align 4, !dbg !1385
  br label %return, !dbg !1385

return:                                           ; preds = %for.end, %if.then3
  %13 = load i32, i32* %retval, align 4, !dbg !1386
  ret i32 %13, !dbg !1386
}

declare dso_local void @_ZN3pov15Default_UVCoordEPdPNS_13Object_StructEPNS_10istk_entryE(double*, %"struct.pov::Object_Struct"*, %"struct.pov::istk_entry"*) #1

; Function Attrs: noinline uwtable
define internal %"struct.pov::CSG_Struct"* @_ZN3povL8Copy_CSGEPNS_13Object_StructE(%"struct.pov::Object_Struct"* %Object) #0 !dbg !1387 {
entry:
  %Object.addr = alloca %"struct.pov::Object_Struct"*, align 8
  %New = alloca %"struct.pov::CSG_Struct"*, align 8
  %Old_Sib = alloca %"struct.pov::Object_Struct"*, align 8
  %New_Sib = alloca %"struct.pov::Object_Struct"*, align 8
  %Prev_Sib = alloca %"struct.pov::Object_Struct"*, align 8
  store %"struct.pov::Object_Struct"* %Object, %"struct.pov::Object_Struct"** %Object.addr, align 8
  call void @llvm.dbg.declare(metadata %"struct.pov::Object_Struct"** %Object.addr, metadata !1390, metadata !DIExpression()), !dbg !1391
  call void @llvm.dbg.declare(metadata %"struct.pov::CSG_Struct"** %New, metadata !1392, metadata !DIExpression()), !dbg !1393
  call void @llvm.dbg.declare(metadata %"struct.pov::Object_Struct"** %Old_Sib, metadata !1394, metadata !DIExpression()), !dbg !1395
  call void @llvm.dbg.declare(metadata %"struct.pov::Object_Struct"** %New_Sib, metadata !1396, metadata !DIExpression()), !dbg !1397
  call void @llvm.dbg.declare(metadata %"struct.pov::Object_Struct"** %Prev_Sib, metadata !1398, metadata !DIExpression()), !dbg !1399
  %call = call i8* @_ZN3pov10pov_mallocEmPKciS1_(i64 136, i8* getelementptr inbounds ([8 x i8], [8 x i8]* @.str, i64 0, i64 0), i32 902, i8* getelementptr inbounds ([4 x i8], [4 x i8]* @.str.7, i64 0, i64 0)), !dbg !1400
  %0 = bitcast i8* %call to %"struct.pov::CSG_Struct"*, !dbg !1401
  store %"struct.pov::CSG_Struct"* %0, %"struct.pov::CSG_Struct"** %New, align 8, !dbg !1402
  %1 = load %"struct.pov::Object_Struct"*, %"struct.pov::Object_Struct"** %Object.addr, align 8, !dbg !1403
  %2 = bitcast %"struct.pov::Object_Struct"* %1 to %"struct.pov::CSG_Struct"*, !dbg !1404
  %3 = load %"struct.pov::CSG_Struct"*, %"struct.pov::CSG_Struct"** %New, align 8, !dbg !1405
  %4 = bitcast %"struct.pov::CSG_Struct"* %3 to i8*, !dbg !1406
  %5 = bitcast %"struct.pov::CSG_Struct"* %2 to i8*, !dbg !1406
  call void @llvm.memcpy.p0i8.p0i8.i64(i8* align 8 %4, i8* align 8 %5, i64 136, i1 false), !dbg !1406
  store %"struct.pov::Object_Struct"* null, %"struct.pov::Object_Struct"** %Prev_Sib, align 8, !dbg !1407
  %6 = load %"struct.pov::CSG_Struct"*, %"struct.pov::CSG_Struct"** %New, align 8, !dbg !1408
  %Children = getelementptr inbounds %"struct.pov::CSG_Struct", %"struct.pov::CSG_Struct"* %6, i32 0, i32 14, !dbg !1409
  store %"struct.pov::Object_Struct"* null, %"struct.pov::Object_Struct"** %Children, align 8, !dbg !1410
  %7 = load %"struct.pov::Object_Struct"*, %"struct.pov::Object_Struct"** %Object.addr, align 8, !dbg !1411
  %8 = bitcast %"struct.pov::Object_Struct"* %7 to %"struct.pov::CSG_Struct"*, !dbg !1413
  %Children1 = getelementptr inbounds %"struct.pov::CSG_Struct", %"struct.pov::CSG_Struct"* %8, i32 0, i32 14, !dbg !1413
  %9 = load %"struct.pov::Object_Struct"*, %"struct.pov::Object_Struct"** %Children1, align 8, !dbg !1413
  store %"struct.pov::Object_Struct"* %9, %"struct.pov::Object_Struct"** %Old_Sib, align 8, !dbg !1414
  br label %for.cond, !dbg !1415

for.cond:                                         ; preds = %for.inc, %entry
  %10 = load %"struct.pov::Object_Struct"*, %"struct.pov::Object_Struct"** %Old_Sib, align 8, !dbg !1416
  %cmp = icmp ne %"struct.pov::Object_Struct"* %10, null, !dbg !1418
  br i1 %cmp, label %for.body, label %for.end, !dbg !1419

for.body:                                         ; preds = %for.cond
  %11 = load %"struct.pov::Object_Struct"*, %"struct.pov::Object_Struct"** %Old_Sib, align 8, !dbg !1420
  %call2 = call %"struct.pov::Object_Struct"* @_ZN3pov11Copy_ObjectEPNS_13Object_StructE(%"struct.pov::Object_Struct"* %11), !dbg !1422
  store %"struct.pov::Object_Struct"* %call2, %"struct.pov::Object_Struct"** %New_Sib, align 8, !dbg !1423
  %12 = load %"struct.pov::CSG_Struct"*, %"struct.pov::CSG_Struct"** %New, align 8, !dbg !1424
  %Children3 = getelementptr inbounds %"struct.pov::CSG_Struct", %"struct.pov::CSG_Struct"* %12, i32 0, i32 14, !dbg !1426
  %13 = load %"struct.pov::Object_Struct"*, %"struct.pov::Object_Struct"** %Children3, align 8, !dbg !1426
  %cmp4 = icmp eq %"struct.pov::Object_Struct"* %13, null, !dbg !1427
  br i1 %cmp4, label %if.then, label %if.end, !dbg !1428

if.then:                                          ; preds = %for.body
  %14 = load %"struct.pov::Object_Struct"*, %"struct.pov::Object_Struct"** %New_Sib, align 8, !dbg !1429
  %15 = load %"struct.pov::CSG_Struct"*, %"struct.pov::CSG_Struct"** %New, align 8, !dbg !1431
  %Children5 = getelementptr inbounds %"struct.pov::CSG_Struct", %"struct.pov::CSG_Struct"* %15, i32 0, i32 14, !dbg !1432
  store %"struct.pov::Object_Struct"* %14, %"struct.pov::Object_Struct"** %Children5, align 8, !dbg !1433
  br label %if.end, !dbg !1434

if.end:                                           ; preds = %if.then, %for.body
  %16 = load %"struct.pov::Object_Struct"*, %"struct.pov::Object_Struct"** %Prev_Sib, align 8, !dbg !1435
  %cmp6 = icmp ne %"struct.pov::Object_Struct"* %16, null, !dbg !1437
  br i1 %cmp6, label %if.then7, label %if.end8, !dbg !1438

if.then7:                                         ; preds = %if.end
  %17 = load %"struct.pov::Object_Struct"*, %"struct.pov::Object_Struct"** %New_Sib, align 8, !dbg !1439
  %18 = load %"struct.pov::Object_Struct"*, %"struct.pov::Object_Struct"** %Prev_Sib, align 8, !dbg !1441
  %Sibling = getelementptr inbounds %"struct.pov::Object_Struct", %"struct.pov::Object_Struct"* %18, i32 0, i32 2, !dbg !1442
  store %"struct.pov::Object_Struct"* %17, %"struct.pov::Object_Struct"** %Sibling, align 8, !dbg !1443
  br label %if.end8, !dbg !1444

if.end8:                                          ; preds = %if.then7, %if.end
  %19 = load %"struct.pov::Object_Struct"*, %"struct.pov::Object_Struct"** %New_Sib, align 8, !dbg !1445
  store %"struct.pov::Object_Struct"* %19, %"struct.pov::Object_Struct"** %Prev_Sib, align 8, !dbg !1446
  br label %for.inc, !dbg !1447

for.inc:                                          ; preds = %if.end8
  %20 = load %"struct.pov::Object_Struct"*, %"struct.pov::Object_Struct"** %Old_Sib, align 8, !dbg !1448
  %Sibling9 = getelementptr inbounds %"struct.pov::Object_Struct", %"struct.pov::Object_Struct"* %20, i32 0, i32 2, !dbg !1449
  %21 = load %"struct.pov::Object_Struct"*, %"struct.pov::Object_Struct"** %Sibling9, align 8, !dbg !1449
  store %"struct.pov::Object_Struct"* %21, %"struct.pov::Object_Struct"** %Old_Sib, align 8, !dbg !1450
  br label %for.cond, !dbg !1451, !llvm.loop !1452

for.end:                                          ; preds = %for.cond
  %22 = load %"struct.pov::Object_Struct"*, %"struct.pov::Object_Struct"** %Object.addr, align 8, !dbg !1454
  %Type = getelementptr inbounds %"struct.pov::Object_Struct", %"struct.pov::Object_Struct"* %22, i32 0, i32 1, !dbg !1456
  %23 = load i32, i32* %Type, align 8, !dbg !1456
  %and = and i32 %23, 2048, !dbg !1457
  %tobool = icmp ne i32 %and, 0, !dbg !1454
  br i1 %tobool, label %if.then10, label %if.end11, !dbg !1458

if.then10:                                        ; preds = %for.end
  %24 = load %"struct.pov::CSG_Struct"*, %"struct.pov::CSG_Struct"** %New, align 8, !dbg !1459
  %LLights = getelementptr inbounds %"struct.pov::CSG_Struct", %"struct.pov::CSG_Struct"* %24, i32 0, i32 8, !dbg !1461
  store %"struct.pov::Light_Source_Struct"* null, %"struct.pov::Light_Source_Struct"** %LLights, align 8, !dbg !1462
  %25 = load %"struct.pov::CSG_Struct"*, %"struct.pov::CSG_Struct"** %New, align 8, !dbg !1463
  call void @_ZN3pov20Promote_Local_LightsEPNS_10CSG_StructE(%"struct.pov::CSG_Struct"* %25), !dbg !1464
  br label %if.end11, !dbg !1465

if.end11:                                         ; preds = %if.then10, %for.end
  %26 = load %"struct.pov::CSG_Struct"*, %"struct.pov::CSG_Struct"** %New, align 8, !dbg !1466
  ret %"struct.pov::CSG_Struct"* %26, !dbg !1467
}

; Function Attrs: noinline uwtable
define internal void @_ZN3povL13Translate_CSGEPNS_13Object_StructEPdPNS_16Transform_StructE(%"struct.pov::Object_Struct"* %Object, double* %Vector, %"struct.pov::Transform_Struct"* %Trans) #0 !dbg !1468 {
entry:
  %Object.addr = alloca %"struct.pov::Object_Struct"*, align 8
  %Vector.addr = alloca double*, align 8
  %Trans.addr = alloca %"struct.pov::Transform_Struct"*, align 8
  %Sib = alloca %"struct.pov::Object_Struct"*, align 8
  store %"struct.pov::Object_Struct"* %Object, %"struct.pov::Object_Struct"** %Object.addr, align 8
  call void @llvm.dbg.declare(metadata %"struct.pov::Object_Struct"** %Object.addr, metadata !1469, metadata !DIExpression()), !dbg !1470
  store double* %Vector, double** %Vector.addr, align 8
  call void @llvm.dbg.declare(metadata double** %Vector.addr, metadata !1471, metadata !DIExpression()), !dbg !1472
  store %"struct.pov::Transform_Struct"* %Trans, %"struct.pov::Transform_Struct"** %Trans.addr, align 8
  call void @llvm.dbg.declare(metadata %"struct.pov::Transform_Struct"** %Trans.addr, metadata !1473, metadata !DIExpression()), !dbg !1474
  call void @llvm.dbg.declare(metadata %"struct.pov::Object_Struct"** %Sib, metadata !1475, metadata !DIExpression()), !dbg !1476
  %0 = load %"struct.pov::Object_Struct"*, %"struct.pov::Object_Struct"** %Object.addr, align 8, !dbg !1477
  %1 = bitcast %"struct.pov::Object_Struct"* %0 to %"struct.pov::CSG_Struct"*, !dbg !1479
  %Children = getelementptr inbounds %"struct.pov::CSG_Struct", %"struct.pov::CSG_Struct"* %1, i32 0, i32 14, !dbg !1479
  %2 = load %"struct.pov::Object_Struct"*, %"struct.pov::Object_Struct"** %Children, align 8, !dbg !1479
  store %"struct.pov::Object_Struct"* %2, %"struct.pov::Object_Struct"** %Sib, align 8, !dbg !1480
  br label %for.cond, !dbg !1481

for.cond:                                         ; preds = %for.inc, %entry
  %3 = load %"struct.pov::Object_Struct"*, %"struct.pov::Object_Struct"** %Sib, align 8, !dbg !1482
  %cmp = icmp ne %"struct.pov::Object_Struct"* %3, null, !dbg !1484
  br i1 %cmp, label %for.body, label %for.end, !dbg !1485

for.body:                                         ; preds = %for.cond
  %4 = load %"struct.pov::Object_Struct"*, %"struct.pov::Object_Struct"** %Sib, align 8, !dbg !1486
  %5 = load double*, double** %Vector.addr, align 8, !dbg !1488
  %6 = load %"struct.pov::Transform_Struct"*, %"struct.pov::Transform_Struct"** %Trans.addr, align 8, !dbg !1489
  call void @_ZN3pov16Translate_ObjectEPNS_13Object_StructEPdPNS_16Transform_StructE(%"struct.pov::Object_Struct"* %4, double* %5, %"struct.pov::Transform_Struct"* %6), !dbg !1490
  br label %for.inc, !dbg !1491

for.inc:                                          ; preds = %for.body
  %7 = load %"struct.pov::Object_Struct"*, %"struct.pov::Object_Struct"** %Sib, align 8, !dbg !1492
  %Sibling = getelementptr inbounds %"struct.pov::Object_Struct", %"struct.pov::Object_Struct"* %7, i32 0, i32 2, !dbg !1493
  %8 = load %"struct.pov::Object_Struct"*, %"struct.pov::Object_Struct"** %Sibling, align 8, !dbg !1493
  store %"struct.pov::Object_Struct"* %8, %"struct.pov::Object_Struct"** %Sib, align 8, !dbg !1494
  br label %for.cond, !dbg !1495, !llvm.loop !1496

for.end:                                          ; preds = %for.cond
  %9 = load %"struct.pov::Object_Struct"*, %"struct.pov::Object_Struct"** %Object.addr, align 8, !dbg !1498
  %BBox = getelementptr inbounds %"struct.pov::Object_Struct", %"struct.pov::Object_Struct"* %9, i32 0, i32 9, !dbg !1499
  %10 = load %"struct.pov::Transform_Struct"*, %"struct.pov::Transform_Struct"** %Trans.addr, align 8, !dbg !1500
  call void @_ZN3pov14Recompute_BBoxEPNS_19Bounding_Box_StructEPNS_16Transform_StructE(%"struct.pov::Bounding_Box_Struct"* %BBox, %"struct.pov::Transform_Struct"* %10), !dbg !1501
  ret void, !dbg !1502
}

; Function Attrs: noinline uwtable
define internal void @_ZN3povL10Rotate_CSGEPNS_13Object_StructEPdPNS_16Transform_StructE(%"struct.pov::Object_Struct"* %Object, double* %Vector, %"struct.pov::Transform_Struct"* %Trans) #0 !dbg !1503 {
entry:
  %Object.addr = alloca %"struct.pov::Object_Struct"*, align 8
  %Vector.addr = alloca double*, align 8
  %Trans.addr = alloca %"struct.pov::Transform_Struct"*, align 8
  %Sib = alloca %"struct.pov::Object_Struct"*, align 8
  store %"struct.pov::Object_Struct"* %Object, %"struct.pov::Object_Struct"** %Object.addr, align 8
  call void @llvm.dbg.declare(metadata %"struct.pov::Object_Struct"** %Object.addr, metadata !1504, metadata !DIExpression()), !dbg !1505
  store double* %Vector, double** %Vector.addr, align 8
  call void @llvm.dbg.declare(metadata double** %Vector.addr, metadata !1506, metadata !DIExpression()), !dbg !1507
  store %"struct.pov::Transform_Struct"* %Trans, %"struct.pov::Transform_Struct"** %Trans.addr, align 8
  call void @llvm.dbg.declare(metadata %"struct.pov::Transform_Struct"** %Trans.addr, metadata !1508, metadata !DIExpression()), !dbg !1509
  call void @llvm.dbg.declare(metadata %"struct.pov::Object_Struct"** %Sib, metadata !1510, metadata !DIExpression()), !dbg !1511
  %0 = load %"struct.pov::Object_Struct"*, %"struct.pov::Object_Struct"** %Object.addr, align 8, !dbg !1512
  %1 = bitcast %"struct.pov::Object_Struct"* %0 to %"struct.pov::CSG_Struct"*, !dbg !1514
  %Children = getelementptr inbounds %"struct.pov::CSG_Struct", %"struct.pov::CSG_Struct"* %1, i32 0, i32 14, !dbg !1514
  %2 = load %"struct.pov::Object_Struct"*, %"struct.pov::Object_Struct"** %Children, align 8, !dbg !1514
  store %"struct.pov::Object_Struct"* %2, %"struct.pov::Object_Struct"** %Sib, align 8, !dbg !1515
  br label %for.cond, !dbg !1516

for.cond:                                         ; preds = %for.inc, %entry
  %3 = load %"struct.pov::Object_Struct"*, %"struct.pov::Object_Struct"** %Sib, align 8, !dbg !1517
  %cmp = icmp ne %"struct.pov::Object_Struct"* %3, null, !dbg !1519
  br i1 %cmp, label %for.body, label %for.end, !dbg !1520

for.body:                                         ; preds = %for.cond
  %4 = load %"struct.pov::Object_Struct"*, %"struct.pov::Object_Struct"** %Sib, align 8, !dbg !1521
  %5 = load double*, double** %Vector.addr, align 8, !dbg !1523
  %6 = load %"struct.pov::Transform_Struct"*, %"struct.pov::Transform_Struct"** %Trans.addr, align 8, !dbg !1524
  call void @_ZN3pov13Rotate_ObjectEPNS_13Object_StructEPdPNS_16Transform_StructE(%"struct.pov::Object_Struct"* %4, double* %5, %"struct.pov::Transform_Struct"* %6), !dbg !1525
  br label %for.inc, !dbg !1526

for.inc:                                          ; preds = %for.body
  %7 = load %"struct.pov::Object_Struct"*, %"struct.pov::Object_Struct"** %Sib, align 8, !dbg !1527
  %Sibling = getelementptr inbounds %"struct.pov::Object_Struct", %"struct.pov::Object_Struct"* %7, i32 0, i32 2, !dbg !1528
  %8 = load %"struct.pov::Object_Struct"*, %"struct.pov::Object_Struct"** %Sibling, align 8, !dbg !1528
  store %"struct.pov::Object_Struct"* %8, %"struct.pov::Object_Struct"** %Sib, align 8, !dbg !1529
  br label %for.cond, !dbg !1530, !llvm.loop !1531

for.end:                                          ; preds = %for.cond
  %9 = load %"struct.pov::Object_Struct"*, %"struct.pov::Object_Struct"** %Object.addr, align 8, !dbg !1533
  %BBox = getelementptr inbounds %"struct.pov::Object_Struct", %"struct.pov::Object_Struct"* %9, i32 0, i32 9, !dbg !1534
  %10 = load %"struct.pov::Transform_Struct"*, %"struct.pov::Transform_Struct"** %Trans.addr, align 8, !dbg !1535
  call void @_ZN3pov14Recompute_BBoxEPNS_19Bounding_Box_StructEPNS_16Transform_StructE(%"struct.pov::Bounding_Box_Struct"* %BBox, %"struct.pov::Transform_Struct"* %10), !dbg !1536
  ret void, !dbg !1537
}

; Function Attrs: noinline uwtable
define internal void @_ZN3povL9Scale_CSGEPNS_13Object_StructEPdPNS_16Transform_StructE(%"struct.pov::Object_Struct"* %Object, double* %Vector, %"struct.pov::Transform_Struct"* %Trans) #0 !dbg !1538 {
entry:
  %Object.addr = alloca %"struct.pov::Object_Struct"*, align 8
  %Vector.addr = alloca double*, align 8
  %Trans.addr = alloca %"struct.pov::Transform_Struct"*, align 8
  %Sib = alloca %"struct.pov::Object_Struct"*, align 8
  store %"struct.pov::Object_Struct"* %Object, %"struct.pov::Object_Struct"** %Object.addr, align 8
  call void @llvm.dbg.declare(metadata %"struct.pov::Object_Struct"** %Object.addr, metadata !1539, metadata !DIExpression()), !dbg !1540
  store double* %Vector, double** %Vector.addr, align 8
  call void @llvm.dbg.declare(metadata double** %Vector.addr, metadata !1541, metadata !DIExpression()), !dbg !1542
  store %"struct.pov::Transform_Struct"* %Trans, %"struct.pov::Transform_Struct"** %Trans.addr, align 8
  call void @llvm.dbg.declare(metadata %"struct.pov::Transform_Struct"** %Trans.addr, metadata !1543, metadata !DIExpression()), !dbg !1544
  call void @llvm.dbg.declare(metadata %"struct.pov::Object_Struct"** %Sib, metadata !1545, metadata !DIExpression()), !dbg !1546
  %0 = load %"struct.pov::Object_Struct"*, %"struct.pov::Object_Struct"** %Object.addr, align 8, !dbg !1547
  %1 = bitcast %"struct.pov::Object_Struct"* %0 to %"struct.pov::CSG_Struct"*, !dbg !1549
  %Children = getelementptr inbounds %"struct.pov::CSG_Struct", %"struct.pov::CSG_Struct"* %1, i32 0, i32 14, !dbg !1549
  %2 = load %"struct.pov::Object_Struct"*, %"struct.pov::Object_Struct"** %Children, align 8, !dbg !1549
  store %"struct.pov::Object_Struct"* %2, %"struct.pov::Object_Struct"** %Sib, align 8, !dbg !1550
  br label %for.cond, !dbg !1551

for.cond:                                         ; preds = %for.inc, %entry
  %3 = load %"struct.pov::Object_Struct"*, %"struct.pov::Object_Struct"** %Sib, align 8, !dbg !1552
  %cmp = icmp ne %"struct.pov::Object_Struct"* %3, null, !dbg !1554
  br i1 %cmp, label %for.body, label %for.end, !dbg !1555

for.body:                                         ; preds = %for.cond
  %4 = load %"struct.pov::Object_Struct"*, %"struct.pov::Object_Struct"** %Sib, align 8, !dbg !1556
  %5 = load double*, double** %Vector.addr, align 8, !dbg !1558
  %6 = load %"struct.pov::Transform_Struct"*, %"struct.pov::Transform_Struct"** %Trans.addr, align 8, !dbg !1559
  call void @_ZN3pov12Scale_ObjectEPNS_13Object_StructEPdPNS_16Transform_StructE(%"struct.pov::Object_Struct"* %4, double* %5, %"struct.pov::Transform_Struct"* %6), !dbg !1560
  br label %for.inc, !dbg !1561

for.inc:                                          ; preds = %for.body
  %7 = load %"struct.pov::Object_Struct"*, %"struct.pov::Object_Struct"** %Sib, align 8, !dbg !1562
  %Sibling = getelementptr inbounds %"struct.pov::Object_Struct", %"struct.pov::Object_Struct"* %7, i32 0, i32 2, !dbg !1563
  %8 = load %"struct.pov::Object_Struct"*, %"struct.pov::Object_Struct"** %Sibling, align 8, !dbg !1563
  store %"struct.pov::Object_Struct"* %8, %"struct.pov::Object_Struct"** %Sib, align 8, !dbg !1564
  br label %for.cond, !dbg !1565, !llvm.loop !1566

for.end:                                          ; preds = %for.cond
  %9 = load %"struct.pov::Object_Struct"*, %"struct.pov::Object_Struct"** %Object.addr, align 8, !dbg !1568
  %BBox = getelementptr inbounds %"struct.pov::Object_Struct", %"struct.pov::Object_Struct"* %9, i32 0, i32 9, !dbg !1569
  %10 = load %"struct.pov::Transform_Struct"*, %"struct.pov::Transform_Struct"** %Trans.addr, align 8, !dbg !1570
  call void @_ZN3pov14Recompute_BBoxEPNS_19Bounding_Box_StructEPNS_16Transform_StructE(%"struct.pov::Bounding_Box_Struct"* %BBox, %"struct.pov::Transform_Struct"* %10), !dbg !1571
  ret void, !dbg !1572
}

; Function Attrs: noinline uwtable
define internal void @_ZN3povL13Transform_CSGEPNS_13Object_StructEPNS_16Transform_StructE(%"struct.pov::Object_Struct"* %Object, %"struct.pov::Transform_Struct"* %Trans) #0 !dbg !1573 {
entry:
  %Object.addr = alloca %"struct.pov::Object_Struct"*, align 8
  %Trans.addr = alloca %"struct.pov::Transform_Struct"*, align 8
  %Sib = alloca %"struct.pov::Object_Struct"*, align 8
  store %"struct.pov::Object_Struct"* %Object, %"struct.pov::Object_Struct"** %Object.addr, align 8
  call void @llvm.dbg.declare(metadata %"struct.pov::Object_Struct"** %Object.addr, metadata !1574, metadata !DIExpression()), !dbg !1575
  store %"struct.pov::Transform_Struct"* %Trans, %"struct.pov::Transform_Struct"** %Trans.addr, align 8
  call void @llvm.dbg.declare(metadata %"struct.pov::Transform_Struct"** %Trans.addr, metadata !1576, metadata !DIExpression()), !dbg !1577
  call void @llvm.dbg.declare(metadata %"struct.pov::Object_Struct"** %Sib, metadata !1578, metadata !DIExpression()), !dbg !1579
  %0 = load %"struct.pov::Object_Struct"*, %"struct.pov::Object_Struct"** %Object.addr, align 8, !dbg !1580
  %1 = bitcast %"struct.pov::Object_Struct"* %0 to %"struct.pov::CSG_Struct"*, !dbg !1582
  %Children = getelementptr inbounds %"struct.pov::CSG_Struct", %"struct.pov::CSG_Struct"* %1, i32 0, i32 14, !dbg !1582
  %2 = load %"struct.pov::Object_Struct"*, %"struct.pov::Object_Struct"** %Children, align 8, !dbg !1582
  store %"struct.pov::Object_Struct"* %2, %"struct.pov::Object_Struct"** %Sib, align 8, !dbg !1583
  br label %for.cond, !dbg !1584

for.cond:                                         ; preds = %for.inc, %entry
  %3 = load %"struct.pov::Object_Struct"*, %"struct.pov::Object_Struct"** %Sib, align 8, !dbg !1585
  %cmp = icmp ne %"struct.pov::Object_Struct"* %3, null, !dbg !1587
  br i1 %cmp, label %for.body, label %for.end, !dbg !1588

for.body:                                         ; preds = %for.cond
  %4 = load %"struct.pov::Object_Struct"*, %"struct.pov::Object_Struct"** %Sib, align 8, !dbg !1589
  %5 = load %"struct.pov::Transform_Struct"*, %"struct.pov::Transform_Struct"** %Trans.addr, align 8, !dbg !1591
  call void @_ZN3pov16Transform_ObjectEPNS_13Object_StructEPNS_16Transform_StructE(%"struct.pov::Object_Struct"* %4, %"struct.pov::Transform_Struct"* %5), !dbg !1592
  br label %for.inc, !dbg !1593

for.inc:                                          ; preds = %for.body
  %6 = load %"struct.pov::Object_Struct"*, %"struct.pov::Object_Struct"** %Sib, align 8, !dbg !1594
  %Sibling = getelementptr inbounds %"struct.pov::Object_Struct", %"struct.pov::Object_Struct"* %6, i32 0, i32 2, !dbg !1595
  %7 = load %"struct.pov::Object_Struct"*, %"struct.pov::Object_Struct"** %Sibling, align 8, !dbg !1595
  store %"struct.pov::Object_Struct"* %7, %"struct.pov::Object_Struct"** %Sib, align 8, !dbg !1596
  br label %for.cond, !dbg !1597, !llvm.loop !1598

for.end:                                          ; preds = %for.cond
  %8 = load %"struct.pov::Object_Struct"*, %"struct.pov::Object_Struct"** %Object.addr, align 8, !dbg !1600
  %BBox = getelementptr inbounds %"struct.pov::Object_Struct", %"struct.pov::Object_Struct"* %8, i32 0, i32 9, !dbg !1601
  %9 = load %"struct.pov::Transform_Struct"*, %"struct.pov::Transform_Struct"** %Trans.addr, align 8, !dbg !1602
  call void @_ZN3pov14Recompute_BBoxEPNS_19Bounding_Box_StructEPNS_16Transform_StructE(%"struct.pov::Bounding_Box_Struct"* %BBox, %"struct.pov::Transform_Struct"* %9), !dbg !1603
  ret void, !dbg !1604
}

; Function Attrs: noinline uwtable
define internal void @_ZN3povL16Invert_CSG_UnionEPNS_13Object_StructE(%"struct.pov::Object_Struct"* %Object) #0 !dbg !1605 {
entry:
  %Object.addr = alloca %"struct.pov::Object_Struct"*, align 8
  %Sib = alloca %"struct.pov::Object_Struct"*, align 8
  store %"struct.pov::Object_Struct"* %Object, %"struct.pov::Object_Struct"** %Object.addr, align 8
  call void @llvm.dbg.declare(metadata %"struct.pov::Object_Struct"** %Object.addr, metadata !1606, metadata !DIExpression()), !dbg !1607
  call void @llvm.dbg.declare(metadata %"struct.pov::Object_Struct"** %Sib, metadata !1608, metadata !DIExpression()), !dbg !1609
  %0 = load %"struct.pov::Object_Struct"*, %"struct.pov::Object_Struct"** %Object.addr, align 8, !dbg !1610
  %Methods = getelementptr inbounds %"struct.pov::Object_Struct", %"struct.pov::Object_Struct"* %0, i32 0, i32 0, !dbg !1611
  store %"struct.pov::Method_Struct"* bitcast ({ i32 (%"struct.pov::Object_Struct"*, %"struct.pov::Ray_Struct"*, %"struct.pov::istack_struct"*)*, i32 (double*, %"struct.pov::Object_Struct"*)*, void (double*, %"struct.pov::Object_Struct"*, %"struct.pov::istk_entry"*)*, void (double*, %"struct.pov::Object_Struct"*, %"struct.pov::istk_entry"*)*, i8* (%"struct.pov::Object_Struct"*)*, void (%"struct.pov::Object_Struct"*, double*, %"struct.pov::Transform_Struct"*)*, void (%"struct.pov::Object_Struct"*, double*, %"struct.pov::Transform_Struct"*)*, void (%"struct.pov::Object_Struct"*, double*, %"struct.pov::Transform_Struct"*)*, void (%"struct.pov::Object_Struct"*, %"struct.pov::Transform_Struct"*)*, void (%"struct.pov::Object_Struct"*)*, void (%"struct.pov::Object_Struct"*)* }* @_ZN3pov24CSG_Intersection_MethodsE to %"struct.pov::Method_Struct"*), %"struct.pov::Method_Struct"** %Methods, align 8, !dbg !1612
  %1 = load %"struct.pov::Object_Struct"*, %"struct.pov::Object_Struct"** %Object.addr, align 8, !dbg !1613
  %2 = bitcast %"struct.pov::Object_Struct"* %1 to %"struct.pov::CSG_Struct"*, !dbg !1615
  %Children = getelementptr inbounds %"struct.pov::CSG_Struct", %"struct.pov::CSG_Struct"* %2, i32 0, i32 14, !dbg !1615
  %3 = load %"struct.pov::Object_Struct"*, %"struct.pov::Object_Struct"** %Children, align 8, !dbg !1615
  store %"struct.pov::Object_Struct"* %3, %"struct.pov::Object_Struct"** %Sib, align 8, !dbg !1616
  br label %for.cond, !dbg !1617

for.cond:                                         ; preds = %for.inc, %entry
  %4 = load %"struct.pov::Object_Struct"*, %"struct.pov::Object_Struct"** %Sib, align 8, !dbg !1618
  %cmp = icmp ne %"struct.pov::Object_Struct"* %4, null, !dbg !1620
  br i1 %cmp, label %for.body, label %for.end, !dbg !1621

for.body:                                         ; preds = %for.cond
  %5 = load %"struct.pov::Object_Struct"*, %"struct.pov::Object_Struct"** %Sib, align 8, !dbg !1622
  call void @_ZN3pov13Invert_ObjectEPNS_13Object_StructE(%"struct.pov::Object_Struct"* %5), !dbg !1624
  br label %for.inc, !dbg !1625

for.inc:                                          ; preds = %for.body
  %6 = load %"struct.pov::Object_Struct"*, %"struct.pov::Object_Struct"** %Sib, align 8, !dbg !1626
  %Sibling = getelementptr inbounds %"struct.pov::Object_Struct", %"struct.pov::Object_Struct"* %6, i32 0, i32 2, !dbg !1627
  %7 = load %"struct.pov::Object_Struct"*, %"struct.pov::Object_Struct"** %Sibling, align 8, !dbg !1627
  store %"struct.pov::Object_Struct"* %7, %"struct.pov::Object_Struct"** %Sib, align 8, !dbg !1628
  br label %for.cond, !dbg !1629, !llvm.loop !1630

for.end:                                          ; preds = %for.cond
  %8 = load %"struct.pov::Object_Struct"*, %"struct.pov::Object_Struct"** %Object.addr, align 8, !dbg !1632
  %Flags = getelementptr inbounds %"struct.pov::Object_Struct", %"struct.pov::Object_Struct"* %8, i32 0, i32 13, !dbg !1632
  %9 = load i32, i32* %Flags, align 4, !dbg !1632
  %conv = zext i32 %9 to i64, !dbg !1632
  %xor = xor i64 %conv, 4, !dbg !1632
  %conv1 = trunc i64 %xor to i32, !dbg !1632
  store i32 %conv1, i32* %Flags, align 4, !dbg !1632
  ret void, !dbg !1634
}

; Function Attrs: noinline uwtable
define internal void @_ZN3povL11Destroy_CSGEPNS_13Object_StructE(%"struct.pov::Object_Struct"* %Object) #0 !dbg !1635 {
entry:
  %Object.addr = alloca %"struct.pov::Object_Struct"*, align 8
  store %"struct.pov::Object_Struct"* %Object, %"struct.pov::Object_Struct"** %Object.addr, align 8
  call void @llvm.dbg.declare(metadata %"struct.pov::Object_Struct"** %Object.addr, metadata !1636, metadata !DIExpression()), !dbg !1637
  %0 = load %"struct.pov::Object_Struct"*, %"struct.pov::Object_Struct"** %Object.addr, align 8, !dbg !1638
  %1 = bitcast %"struct.pov::Object_Struct"* %0 to %"struct.pov::CSG_Struct"*, !dbg !1639
  %Children = getelementptr inbounds %"struct.pov::CSG_Struct", %"struct.pov::CSG_Struct"* %1, i32 0, i32 14, !dbg !1639
  %2 = load %"struct.pov::Object_Struct"*, %"struct.pov::Object_Struct"** %Children, align 8, !dbg !1639
  call void @_ZN3pov14Destroy_ObjectEPNS_13Object_StructE(%"struct.pov::Object_Struct"* %2), !dbg !1640
  %3 = load %"struct.pov::Object_Struct"*, %"struct.pov::Object_Struct"** %Object.addr, align 8, !dbg !1641
  %4 = bitcast %"struct.pov::Object_Struct"* %3 to i8*, !dbg !1641
  call void @_ZN3pov8pov_freeEPvPKci(i8* %4, i8* getelementptr inbounds ([8 x i8], [8 x i8]* @.str, i64 0, i64 0), i32 966), !dbg !1641
  store %"struct.pov::Object_Struct"* null, %"struct.pov::Object_Struct"** %Object.addr, align 8, !dbg !1641
  ret void, !dbg !1643
}

; Function Attrs: noinline uwtable
define internal i32 @_ZN3povL27All_CSG_Merge_IntersectionsEPNS_13Object_StructEPNS_10Ray_StructEPNS_13istack_structE(%"struct.pov::Object_Struct"* %Object, %"struct.pov::Ray_Struct"* %Ray, %"struct.pov::istack_struct"* %Depth_Stack) #0 !dbg !1644 {
entry:
  %Object.addr = alloca %"struct.pov::Object_Struct"*, align 8
  %Ray.addr = alloca %"struct.pov::Ray_Struct"*, align 8
  %Depth_Stack.addr = alloca %"struct.pov::istack_struct"*, align 8
  %Found = alloca i32, align 4
  %inside_flag = alloca i8, align 1
  %Sib1 = alloca %"struct.pov::Object_Struct"*, align 8
  %Sib2 = alloca %"struct.pov::Object_Struct"*, align 8
  %Local_Stack = alloca %"struct.pov::istack_struct"*, align 8
  %Sibling_Intersection = alloca %"struct.pov::istk_entry"*, align 8
  %shadow_flag = alloca i32, align 4
  store %"struct.pov::Object_Struct"* %Object, %"struct.pov::Object_Struct"** %Object.addr, align 8
  call void @llvm.dbg.declare(metadata %"struct.pov::Object_Struct"** %Object.addr, metadata !1645, metadata !DIExpression()), !dbg !1646
  store %"struct.pov::Ray_Struct"* %Ray, %"struct.pov::Ray_Struct"** %Ray.addr, align 8
  call void @llvm.dbg.declare(metadata %"struct.pov::Ray_Struct"** %Ray.addr, metadata !1647, metadata !DIExpression()), !dbg !1648
  store %"struct.pov::istack_struct"* %Depth_Stack, %"struct.pov::istack_struct"** %Depth_Stack.addr, align 8
  call void @llvm.dbg.declare(metadata %"struct.pov::istack_struct"** %Depth_Stack.addr, metadata !1649, metadata !DIExpression()), !dbg !1650
  call void @llvm.dbg.declare(metadata i32* %Found, metadata !1651, metadata !DIExpression()), !dbg !1652
  call void @llvm.dbg.declare(metadata i8* %inside_flag, metadata !1653, metadata !DIExpression()), !dbg !1654
  call void @llvm.dbg.declare(metadata %"struct.pov::Object_Struct"** %Sib1, metadata !1655, metadata !DIExpression()), !dbg !1656
  call void @llvm.dbg.declare(metadata %"struct.pov::Object_Struct"** %Sib2, metadata !1657, metadata !DIExpression()), !dbg !1658
  call void @llvm.dbg.declare(metadata %"struct.pov::istack_struct"** %Local_Stack, metadata !1659, metadata !DIExpression()), !dbg !1660
  call void @llvm.dbg.declare(metadata %"struct.pov::istk_entry"** %Sibling_Intersection, metadata !1661, metadata !DIExpression()), !dbg !1662
  call void @_ZN3pov16Increase_CounterERx(i64* dereferenceable(8) getelementptr inbounds ([123 x i64], [123 x i64]* @_ZN3pov5statsE, i64 0, i64 24)), !dbg !1663
  store i32 0, i32* %Found, align 4, !dbg !1664
  %call = call %"struct.pov::istack_struct"* @_ZN3pov11open_istackEv(), !dbg !1665
  store %"struct.pov::istack_struct"* %call, %"struct.pov::istack_struct"** %Local_Stack, align 8, !dbg !1666
  call void @llvm.dbg.declare(metadata i32* %shadow_flag, metadata !1667, metadata !DIExpression()), !dbg !1668
  %0 = load %"struct.pov::Ray_Struct"*, %"struct.pov::Ray_Struct"** %Ray.addr, align 8, !dbg !1669
  %Optimisiation_Flags = getelementptr inbounds %"struct.pov::Ray_Struct", %"struct.pov::Ray_Struct"* %0, i32 0, i32 3, !dbg !1670
  %1 = load i32, i32* %Optimisiation_Flags, align 4, !dbg !1670
  %and = and i32 %1, 1, !dbg !1671
  %cmp = icmp eq i32 %and, 1, !dbg !1672
  %conv = zext i1 %cmp to i32, !dbg !1673
  store i32 %conv, i32* %shadow_flag, align 4, !dbg !1668
  %2 = load %"struct.pov::Object_Struct"*, %"struct.pov::Object_Struct"** %Object.addr, align 8, !dbg !1674
  %3 = bitcast %"struct.pov::Object_Struct"* %2 to %"struct.pov::CSG_Struct"*, !dbg !1676
  %Children = getelementptr inbounds %"struct.pov::CSG_Struct", %"struct.pov::CSG_Struct"* %3, i32 0, i32 14, !dbg !1676
  %4 = load %"struct.pov::Object_Struct"*, %"struct.pov::Object_Struct"** %Children, align 8, !dbg !1676
  store %"struct.pov::Object_Struct"* %4, %"struct.pov::Object_Struct"** %Sib1, align 8, !dbg !1677
  br label %for.cond, !dbg !1678

for.cond:                                         ; preds = %for.inc112, %entry
  %5 = load %"struct.pov::Object_Struct"*, %"struct.pov::Object_Struct"** %Sib1, align 8, !dbg !1679
  %cmp1 = icmp ne %"struct.pov::Object_Struct"* %5, null, !dbg !1681
  br i1 %cmp1, label %for.body, label %for.end114, !dbg !1682

for.body:                                         ; preds = %for.cond
  %6 = load i32, i32* @_ZN3pov13backtraceFlagE, align 4, !dbg !1683
  %tobool = icmp ne i32 %6, 0, !dbg !1683
  br i1 %tobool, label %lor.lhs.false17, label %land.lhs.true, !dbg !1683

land.lhs.true:                                    ; preds = %for.body
  %7 = load %"struct.pov::Object_Struct"*, %"struct.pov::Object_Struct"** %Sib1, align 8, !dbg !1683
  %Flags = getelementptr inbounds %"struct.pov::Object_Struct", %"struct.pov::Object_Struct"* %7, i32 0, i32 13, !dbg !1683
  %8 = load i32, i32* %Flags, align 4, !dbg !1683
  %conv2 = zext i32 %8 to i64, !dbg !1683
  %and3 = and i64 %conv2, 32768, !dbg !1683
  %tobool4 = icmp ne i64 %and3, 0, !dbg !1683
  br i1 %tobool4, label %lor.lhs.false, label %land.lhs.true8, !dbg !1683

lor.lhs.false:                                    ; preds = %land.lhs.true
  %9 = load i8, i8* @_ZN3pov17In_Reflection_RayE, align 1, !dbg !1683
  %tobool5 = trunc i8 %9 to i1, !dbg !1683
  %conv6 = zext i1 %tobool5 to i32, !dbg !1683
  %cmp7 = icmp eq i32 %conv6, 1, !dbg !1683
  br i1 %cmp7, label %land.lhs.true8, label %lor.lhs.false17, !dbg !1683

land.lhs.true8:                                   ; preds = %lor.lhs.false, %land.lhs.true
  %10 = load %"struct.pov::Object_Struct"*, %"struct.pov::Object_Struct"** %Sib1, align 8, !dbg !1683
  %Flags9 = getelementptr inbounds %"struct.pov::Object_Struct", %"struct.pov::Object_Struct"* %10, i32 0, i32 13, !dbg !1683
  %11 = load i32, i32* %Flags9, align 4, !dbg !1683
  %conv10 = zext i32 %11 to i64, !dbg !1683
  %and11 = and i64 %conv10, 65536, !dbg !1683
  %tobool12 = icmp ne i64 %and11, 0, !dbg !1683
  br i1 %tobool12, label %lor.lhs.false13, label %if.then, !dbg !1683

lor.lhs.false13:                                  ; preds = %land.lhs.true8
  %12 = load i8, i8* @_ZN3pov17In_Reflection_RayE, align 1, !dbg !1683
  %tobool14 = trunc i8 %12 to i1, !dbg !1683
  %conv15 = zext i1 %tobool14 to i32, !dbg !1683
  %cmp16 = icmp eq i32 %conv15, 0, !dbg !1683
  br i1 %cmp16, label %if.then, label %lor.lhs.false17, !dbg !1683

lor.lhs.false17:                                  ; preds = %lor.lhs.false13, %lor.lhs.false, %for.body
  %13 = load i32, i32* @_ZN3pov13backtraceFlagE, align 4, !dbg !1683
  %tobool18 = icmp ne i32 %13, 0, !dbg !1683
  br i1 %tobool18, label %land.lhs.true19, label %lor.lhs.false24, !dbg !1683

land.lhs.true19:                                  ; preds = %lor.lhs.false17
  %14 = load %"struct.pov::Object_Struct"*, %"struct.pov::Object_Struct"** %Sib1, align 8, !dbg !1683
  %Flags20 = getelementptr inbounds %"struct.pov::Object_Struct", %"struct.pov::Object_Struct"* %14, i32 0, i32 13, !dbg !1683
  %15 = load i32, i32* %Flags20, align 4, !dbg !1683
  %conv21 = zext i32 %15 to i64, !dbg !1683
  %and22 = and i64 %conv21, 1, !dbg !1683
  %tobool23 = icmp ne i64 %and22, 0, !dbg !1683
  br i1 %tobool23, label %lor.lhs.false24, label %if.then, !dbg !1683

lor.lhs.false24:                                  ; preds = %land.lhs.true19, %lor.lhs.false17
  %16 = load i32, i32* %shadow_flag, align 4, !dbg !1683
  %tobool25 = icmp ne i32 %16, 0, !dbg !1683
  br i1 %tobool25, label %land.lhs.true26, label %if.end111, !dbg !1683

land.lhs.true26:                                  ; preds = %lor.lhs.false24
  %17 = load %"struct.pov::Object_Struct"*, %"struct.pov::Object_Struct"** %Sib1, align 8, !dbg !1683
  %Flags27 = getelementptr inbounds %"struct.pov::Object_Struct", %"struct.pov::Object_Struct"* %17, i32 0, i32 13, !dbg !1683
  %18 = load i32, i32* %Flags27, align 4, !dbg !1683
  %conv28 = zext i32 %18 to i64, !dbg !1683
  %and29 = and i64 %conv28, 1, !dbg !1683
  %tobool30 = icmp ne i64 %and29, 0, !dbg !1683
  br i1 %tobool30, label %if.end111, label %if.then, !dbg !1686

if.then:                                          ; preds = %land.lhs.true26, %land.lhs.true19, %lor.lhs.false13, %land.lhs.true8
  %19 = load %"struct.pov::Ray_Struct"*, %"struct.pov::Ray_Struct"** %Ray.addr, align 8, !dbg !1687
  %20 = load %"struct.pov::Object_Struct"*, %"struct.pov::Object_Struct"** %Sib1, align 8, !dbg !1690
  %Bound = getelementptr inbounds %"struct.pov::Object_Struct", %"struct.pov::Object_Struct"* %20, i32 0, i32 6, !dbg !1691
  %21 = load %"struct.pov::Object_Struct"*, %"struct.pov::Object_Struct"** %Bound, align 8, !dbg !1691
  %call31 = call zeroext i1 @_ZN3pov12Ray_In_BoundEPNS_10Ray_StructEPNS_13Object_StructE(%"struct.pov::Ray_Struct"* %19, %"struct.pov::Object_Struct"* %21), !dbg !1692
  br i1 %call31, label %if.then32, label %if.end110, !dbg !1693

if.then32:                                        ; preds = %if.then
  %22 = load %"struct.pov::Object_Struct"*, %"struct.pov::Object_Struct"** %Sib1, align 8, !dbg !1694
  %Methods = getelementptr inbounds %"struct.pov::Object_Struct", %"struct.pov::Object_Struct"* %22, i32 0, i32 0, !dbg !1694
  %23 = load %"struct.pov::Method_Struct"*, %"struct.pov::Method_Struct"** %Methods, align 8, !dbg !1694
  %All_Intersections_Method = getelementptr inbounds %"struct.pov::Method_Struct", %"struct.pov::Method_Struct"* %23, i32 0, i32 0, !dbg !1694
  %All_Intersections_Method33 = bitcast {}** %All_Intersections_Method to i32 (%"struct.pov::Object_Struct"*, %"struct.pov::Ray_Struct"*, %"struct.pov::istack_struct"*)**, !dbg !1694
  %24 = load i32 (%"struct.pov::Object_Struct"*, %"struct.pov::Ray_Struct"*, %"struct.pov::istack_struct"*)*, i32 (%"struct.pov::Object_Struct"*, %"struct.pov::Ray_Struct"*, %"struct.pov::istack_struct"*)** %All_Intersections_Method33, align 8, !dbg !1694
  %25 = load %"struct.pov::Object_Struct"*, %"struct.pov::Object_Struct"** %Sib1, align 8, !dbg !1694
  %26 = load %"struct.pov::Ray_Struct"*, %"struct.pov::Ray_Struct"** %Ray.addr, align 8, !dbg !1694
  %27 = load %"struct.pov::istack_struct"*, %"struct.pov::istack_struct"** %Local_Stack, align 8, !dbg !1694
  %call34 = call i32 %24(%"struct.pov::Object_Struct"* %25, %"struct.pov::Ray_Struct"* %26, %"struct.pov::istack_struct"* %27), !dbg !1694
  %tobool35 = icmp ne i32 %call34, 0, !dbg !1694
  br i1 %tobool35, label %if.then36, label %if.end109, !dbg !1697

if.then36:                                        ; preds = %if.then32
  br label %while.cond, !dbg !1698

while.cond:                                       ; preds = %if.end108, %if.then36
  %28 = load %"struct.pov::istack_struct"*, %"struct.pov::istack_struct"** %Local_Stack, align 8, !dbg !1700
  %call37 = call %"struct.pov::istk_entry"* @_ZN3pov9pop_entryEPNS_13istack_structE(%"struct.pov::istack_struct"* %28), !dbg !1701
  store %"struct.pov::istk_entry"* %call37, %"struct.pov::istk_entry"** %Sibling_Intersection, align 8, !dbg !1702
  %cmp38 = icmp ne %"struct.pov::istk_entry"* %call37, null, !dbg !1703
  br i1 %cmp38, label %while.body, label %while.end, !dbg !1698

while.body:                                       ; preds = %while.cond
  %29 = load %"struct.pov::istk_entry"*, %"struct.pov::istk_entry"** %Sibling_Intersection, align 8, !dbg !1704
  %IPoint = getelementptr inbounds %"struct.pov::istk_entry", %"struct.pov::istk_entry"* %29, i32 0, i32 1, !dbg !1707
  %arraydecay = getelementptr inbounds [3 x double], [3 x double]* %IPoint, i64 0, i64 0, !dbg !1704
  %30 = load %"struct.pov::Object_Struct"*, %"struct.pov::Object_Struct"** %Object.addr, align 8, !dbg !1708
  %Clip = getelementptr inbounds %"struct.pov::Object_Struct", %"struct.pov::Object_Struct"* %30, i32 0, i32 7, !dbg !1709
  %31 = load %"struct.pov::Object_Struct"*, %"struct.pov::Object_Struct"** %Clip, align 8, !dbg !1709
  %call39 = call zeroext i1 @_ZN3pov13Point_In_ClipEPdPNS_13Object_StructE(double* %arraydecay, %"struct.pov::Object_Struct"* %31), !dbg !1710
  br i1 %call39, label %if.then40, label %if.end108, !dbg !1711

if.then40:                                        ; preds = %while.body
  store i8 1, i8* %inside_flag, align 1, !dbg !1712
  %32 = load %"struct.pov::Object_Struct"*, %"struct.pov::Object_Struct"** %Object.addr, align 8, !dbg !1714
  %33 = bitcast %"struct.pov::Object_Struct"* %32 to %"struct.pov::CSG_Struct"*, !dbg !1716
  %Children41 = getelementptr inbounds %"struct.pov::CSG_Struct", %"struct.pov::CSG_Struct"* %33, i32 0, i32 14, !dbg !1716
  %34 = load %"struct.pov::Object_Struct"*, %"struct.pov::Object_Struct"** %Children41, align 8, !dbg !1716
  store %"struct.pov::Object_Struct"* %34, %"struct.pov::Object_Struct"** %Sib2, align 8, !dbg !1717
  br label %for.cond42, !dbg !1718

for.cond42:                                       ; preds = %for.inc, %if.then40
  %35 = load %"struct.pov::Object_Struct"*, %"struct.pov::Object_Struct"** %Sib2, align 8, !dbg !1719
  %cmp43 = icmp ne %"struct.pov::Object_Struct"* %35, null, !dbg !1721
  br i1 %cmp43, label %land.rhs, label %land.end, !dbg !1722

land.rhs:                                         ; preds = %for.cond42
  %36 = load i8, i8* %inside_flag, align 1, !dbg !1723
  %tobool44 = trunc i8 %36 to i1, !dbg !1723
  %conv45 = zext i1 %tobool44 to i32, !dbg !1723
  %cmp46 = icmp eq i32 %conv45, 1, !dbg !1724
  br label %land.end

land.end:                                         ; preds = %land.rhs, %for.cond42
  %37 = phi i1 [ false, %for.cond42 ], [ %cmp46, %land.rhs ], !dbg !1725
  br i1 %37, label %for.body47, label %for.end, !dbg !1726

for.body47:                                       ; preds = %land.end
  %38 = load %"struct.pov::Object_Struct"*, %"struct.pov::Object_Struct"** %Sib1, align 8, !dbg !1727
  %39 = load %"struct.pov::Object_Struct"*, %"struct.pov::Object_Struct"** %Sib2, align 8, !dbg !1730
  %cmp48 = icmp ne %"struct.pov::Object_Struct"* %38, %39, !dbg !1731
  br i1 %cmp48, label %if.then49, label %if.end96, !dbg !1732

if.then49:                                        ; preds = %for.body47
  %40 = load %"struct.pov::Object_Struct"*, %"struct.pov::Object_Struct"** %Sib2, align 8, !dbg !1733
  %Type = getelementptr inbounds %"struct.pov::Object_Struct", %"struct.pov::Object_Struct"* %40, i32 0, i32 1, !dbg !1736
  %41 = load i32, i32* %Type, align 8, !dbg !1736
  %and50 = and i32 %41, 32, !dbg !1737
  %tobool51 = icmp ne i32 %and50, 0, !dbg !1738
  br i1 %tobool51, label %lor.lhs.false52, label %if.then55, !dbg !1739

lor.lhs.false52:                                  ; preds = %if.then49
  %42 = load %"struct.pov::Object_Struct"*, %"struct.pov::Object_Struct"** %Sib2, align 8, !dbg !1740
  %43 = bitcast %"struct.pov::Object_Struct"* %42 to %"struct.pov::Light_Source_Struct"*, !dbg !1741
  %Children53 = getelementptr inbounds %"struct.pov::Light_Source_Struct", %"struct.pov::Light_Source_Struct"* %43, i32 0, i32 14, !dbg !1741
  %44 = load %"struct.pov::Object_Struct"*, %"struct.pov::Object_Struct"** %Children53, align 8, !dbg !1741
  %tobool54 = icmp ne %"struct.pov::Object_Struct"* %44, null, !dbg !1742
  br i1 %tobool54, label %if.then55, label %if.end95, !dbg !1743

if.then55:                                        ; preds = %lor.lhs.false52, %if.then49
  %45 = load i32, i32* @_ZN3pov13backtraceFlagE, align 4, !dbg !1744
  %tobool56 = icmp ne i32 %45, 0, !dbg !1744
  br i1 %tobool56, label %lor.lhs.false75, label %land.lhs.true57, !dbg !1744

land.lhs.true57:                                  ; preds = %if.then55
  %46 = load %"struct.pov::Object_Struct"*, %"struct.pov::Object_Struct"** %Sib2, align 8, !dbg !1744
  %Flags58 = getelementptr inbounds %"struct.pov::Object_Struct", %"struct.pov::Object_Struct"* %46, i32 0, i32 13, !dbg !1744
  %47 = load i32, i32* %Flags58, align 4, !dbg !1744
  %conv59 = zext i32 %47 to i64, !dbg !1744
  %and60 = and i64 %conv59, 32768, !dbg !1744
  %tobool61 = icmp ne i64 %and60, 0, !dbg !1744
  br i1 %tobool61, label %lor.lhs.false62, label %land.lhs.true66, !dbg !1744

lor.lhs.false62:                                  ; preds = %land.lhs.true57
  %48 = load i8, i8* @_ZN3pov17In_Reflection_RayE, align 1, !dbg !1744
  %tobool63 = trunc i8 %48 to i1, !dbg !1744
  %conv64 = zext i1 %tobool63 to i32, !dbg !1744
  %cmp65 = icmp eq i32 %conv64, 1, !dbg !1744
  br i1 %cmp65, label %land.lhs.true66, label %lor.lhs.false75, !dbg !1744

land.lhs.true66:                                  ; preds = %lor.lhs.false62, %land.lhs.true57
  %49 = load %"struct.pov::Object_Struct"*, %"struct.pov::Object_Struct"** %Sib2, align 8, !dbg !1744
  %Flags67 = getelementptr inbounds %"struct.pov::Object_Struct", %"struct.pov::Object_Struct"* %49, i32 0, i32 13, !dbg !1744
  %50 = load i32, i32* %Flags67, align 4, !dbg !1744
  %conv68 = zext i32 %50 to i64, !dbg !1744
  %and69 = and i64 %conv68, 65536, !dbg !1744
  %tobool70 = icmp ne i64 %and69, 0, !dbg !1744
  br i1 %tobool70, label %lor.lhs.false71, label %if.then89, !dbg !1744

lor.lhs.false71:                                  ; preds = %land.lhs.true66
  %51 = load i8, i8* @_ZN3pov17In_Reflection_RayE, align 1, !dbg !1744
  %tobool72 = trunc i8 %51 to i1, !dbg !1744
  %conv73 = zext i1 %tobool72 to i32, !dbg !1744
  %cmp74 = icmp eq i32 %conv73, 0, !dbg !1744
  br i1 %cmp74, label %if.then89, label %lor.lhs.false75, !dbg !1744

lor.lhs.false75:                                  ; preds = %lor.lhs.false71, %lor.lhs.false62, %if.then55
  %52 = load i32, i32* @_ZN3pov13backtraceFlagE, align 4, !dbg !1744
  %tobool76 = icmp ne i32 %52, 0, !dbg !1744
  br i1 %tobool76, label %land.lhs.true77, label %lor.lhs.false82, !dbg !1744

land.lhs.true77:                                  ; preds = %lor.lhs.false75
  %53 = load %"struct.pov::Object_Struct"*, %"struct.pov::Object_Struct"** %Sib2, align 8, !dbg !1744
  %Flags78 = getelementptr inbounds %"struct.pov::Object_Struct", %"struct.pov::Object_Struct"* %53, i32 0, i32 13, !dbg !1744
  %54 = load i32, i32* %Flags78, align 4, !dbg !1744
  %conv79 = zext i32 %54 to i64, !dbg !1744
  %and80 = and i64 %conv79, 1, !dbg !1744
  %tobool81 = icmp ne i64 %and80, 0, !dbg !1744
  br i1 %tobool81, label %lor.lhs.false82, label %if.then89, !dbg !1744

lor.lhs.false82:                                  ; preds = %land.lhs.true77, %lor.lhs.false75
  %55 = load i32, i32* %shadow_flag, align 4, !dbg !1744
  %tobool83 = icmp ne i32 %55, 0, !dbg !1744
  br i1 %tobool83, label %land.lhs.true84, label %if.end94, !dbg !1744

land.lhs.true84:                                  ; preds = %lor.lhs.false82
  %56 = load %"struct.pov::Object_Struct"*, %"struct.pov::Object_Struct"** %Sib2, align 8, !dbg !1744
  %Flags85 = getelementptr inbounds %"struct.pov::Object_Struct", %"struct.pov::Object_Struct"* %56, i32 0, i32 13, !dbg !1744
  %57 = load i32, i32* %Flags85, align 4, !dbg !1744
  %conv86 = zext i32 %57 to i64, !dbg !1744
  %and87 = and i64 %conv86, 1, !dbg !1744
  %tobool88 = icmp ne i64 %and87, 0, !dbg !1744
  br i1 %tobool88, label %if.end94, label %if.then89, !dbg !1747

if.then89:                                        ; preds = %land.lhs.true84, %land.lhs.true77, %lor.lhs.false71, %land.lhs.true66
  %58 = load %"struct.pov::istk_entry"*, %"struct.pov::istk_entry"** %Sibling_Intersection, align 8, !dbg !1748
  %IPoint90 = getelementptr inbounds %"struct.pov::istk_entry", %"struct.pov::istk_entry"* %58, i32 0, i32 1, !dbg !1751
  %arraydecay91 = getelementptr inbounds [3 x double], [3 x double]* %IPoint90, i64 0, i64 0, !dbg !1748
  %59 = load %"struct.pov::Object_Struct"*, %"struct.pov::Object_Struct"** %Sib2, align 8, !dbg !1752
  %call92 = call zeroext i1 @_ZN3pov13Inside_ObjectEPdPNS_13Object_StructE(double* %arraydecay91, %"struct.pov::Object_Struct"* %59), !dbg !1753
  br i1 %call92, label %if.then93, label %if.end, !dbg !1754

if.then93:                                        ; preds = %if.then89
  store i8 0, i8* %inside_flag, align 1, !dbg !1755
  br label %if.end, !dbg !1757

if.end:                                           ; preds = %if.then93, %if.then89
  br label %if.end94, !dbg !1758

if.end94:                                         ; preds = %if.end, %land.lhs.true84, %lor.lhs.false82
  br label %if.end95, !dbg !1759

if.end95:                                         ; preds = %if.end94, %lor.lhs.false52
  br label %if.end96, !dbg !1760

if.end96:                                         ; preds = %if.end95, %for.body47
  br label %for.inc, !dbg !1761

for.inc:                                          ; preds = %if.end96
  %60 = load %"struct.pov::Object_Struct"*, %"struct.pov::Object_Struct"** %Sib2, align 8, !dbg !1762
  %Sibling = getelementptr inbounds %"struct.pov::Object_Struct", %"struct.pov::Object_Struct"* %60, i32 0, i32 2, !dbg !1763
  %61 = load %"struct.pov::Object_Struct"*, %"struct.pov::Object_Struct"** %Sibling, align 8, !dbg !1763
  store %"struct.pov::Object_Struct"* %61, %"struct.pov::Object_Struct"** %Sib2, align 8, !dbg !1764
  br label %for.cond42, !dbg !1765, !llvm.loop !1766

for.end:                                          ; preds = %land.end
  %62 = load i8, i8* %inside_flag, align 1, !dbg !1768
  %tobool97 = trunc i8 %62 to i1, !dbg !1768
  %conv98 = zext i1 %tobool97 to i32, !dbg !1768
  %cmp99 = icmp eq i32 %conv98, 1, !dbg !1770
  br i1 %cmp99, label %if.then100, label %if.end107, !dbg !1771

if.then100:                                       ; preds = %for.end
  %63 = load %"struct.pov::Object_Struct"*, %"struct.pov::Object_Struct"** %Object.addr, align 8, !dbg !1772
  %Flags101 = getelementptr inbounds %"struct.pov::Object_Struct", %"struct.pov::Object_Struct"* %63, i32 0, i32 13, !dbg !1772
  %64 = load i32, i32* %Flags101, align 4, !dbg !1772
  %conv102 = zext i32 %64 to i64, !dbg !1772
  %and103 = and i64 %conv102, 256, !dbg !1772
  %tobool104 = icmp ne i64 %and103, 0, !dbg !1772
  br i1 %tobool104, label %if.then105, label %if.end106, !dbg !1775

if.then105:                                       ; preds = %if.then100
  %65 = load %"struct.pov::Object_Struct"*, %"struct.pov::Object_Struct"** %Object.addr, align 8, !dbg !1776
  %66 = bitcast %"struct.pov::Object_Struct"* %65 to i8*, !dbg !1776
  %67 = load %"struct.pov::istk_entry"*, %"struct.pov::istk_entry"** %Sibling_Intersection, align 8, !dbg !1778
  %Csg = getelementptr inbounds %"struct.pov::istk_entry", %"struct.pov::istk_entry"* %67, i32 0, i32 18, !dbg !1779
  store i8* %66, i8** %Csg, align 8, !dbg !1780
  br label %if.end106, !dbg !1781

if.end106:                                        ; preds = %if.then105, %if.then100
  store i32 1, i32* %Found, align 4, !dbg !1782
  %68 = load %"struct.pov::istack_struct"*, %"struct.pov::istack_struct"** %Depth_Stack.addr, align 8, !dbg !1783
  %69 = load %"struct.pov::istk_entry"*, %"struct.pov::istk_entry"** %Sibling_Intersection, align 8, !dbg !1784
  call void @_ZN3pov9push_copyEPNS_13istack_structEPNS_10istk_entryE(%"struct.pov::istack_struct"* %68, %"struct.pov::istk_entry"* %69), !dbg !1785
  br label %if.end107, !dbg !1786

if.end107:                                        ; preds = %if.end106, %for.end
  br label %if.end108, !dbg !1787

if.end108:                                        ; preds = %if.end107, %while.body
  br label %while.cond, !dbg !1698, !llvm.loop !1788

while.end:                                        ; preds = %while.cond
  br label %if.end109, !dbg !1790

if.end109:                                        ; preds = %while.end, %if.then32
  br label %if.end110, !dbg !1791

if.end110:                                        ; preds = %if.end109, %if.then
  br label %if.end111, !dbg !1792

if.end111:                                        ; preds = %if.end110, %land.lhs.true26, %lor.lhs.false24
  br label %for.inc112, !dbg !1793

for.inc112:                                       ; preds = %if.end111
  %70 = load %"struct.pov::Object_Struct"*, %"struct.pov::Object_Struct"** %Sib1, align 8, !dbg !1794
  %Sibling113 = getelementptr inbounds %"struct.pov::Object_Struct", %"struct.pov::Object_Struct"* %70, i32 0, i32 2, !dbg !1795
  %71 = load %"struct.pov::Object_Struct"*, %"struct.pov::Object_Struct"** %Sibling113, align 8, !dbg !1795
  store %"struct.pov::Object_Struct"* %71, %"struct.pov::Object_Struct"** %Sib1, align 8, !dbg !1796
  br label %for.cond, !dbg !1797, !llvm.loop !1798

for.end114:                                       ; preds = %for.cond
  %72 = load %"struct.pov::istack_struct"*, %"struct.pov::istack_struct"** %Local_Stack, align 8, !dbg !1800
  call void @_ZN3pov12close_istackEPNS_13istack_structE(%"struct.pov::istack_struct"* %72), !dbg !1801
  %73 = load i32, i32* %Found, align 4, !dbg !1802
  %tobool115 = icmp ne i32 %73, 0, !dbg !1802
  br i1 %tobool115, label %if.then116, label %if.end117, !dbg !1804

if.then116:                                       ; preds = %for.end114
  call void @_ZN3pov16Increase_CounterERx(i64* dereferenceable(8) getelementptr inbounds ([123 x i64], [123 x i64]* @_ZN3pov5statsE, i64 0, i64 25)), !dbg !1805
  br label %if.end117, !dbg !1807

if.end117:                                        ; preds = %if.then116, %for.end114
  %74 = load i32, i32* %Found, align 4, !dbg !1808
  ret i32 %74, !dbg !1809
}

; Function Attrs: noinline uwtable
define internal i32 @_ZN3povL31All_CSG_Intersect_IntersectionsEPNS_13Object_StructEPNS_10Ray_StructEPNS_13istack_structE(%"struct.pov::Object_Struct"* %Object, %"struct.pov::Ray_Struct"* %Ray, %"struct.pov::istack_struct"* %Depth_Stack) #0 !dbg !1810 {
entry:
  %Object.addr = alloca %"struct.pov::Object_Struct"*, align 8
  %Ray.addr = alloca %"struct.pov::Ray_Struct"*, align 8
  %Depth_Stack.addr = alloca %"struct.pov::istack_struct"*, align 8
  %Maybe_Found = alloca i32, align 4
  %Found = alloca i32, align 4
  %Current_Sib = alloca %"struct.pov::Object_Struct"*, align 8
  %Inside_Sib = alloca %"struct.pov::Object_Struct"*, align 8
  %Local_Stack = alloca %"struct.pov::istack_struct"*, align 8
  %Sibling_Intersection = alloca %"struct.pov::istk_entry"*, align 8
  store %"struct.pov::Object_Struct"* %Object, %"struct.pov::Object_Struct"** %Object.addr, align 8
  call void @llvm.dbg.declare(metadata %"struct.pov::Object_Struct"** %Object.addr, metadata !1811, metadata !DIExpression()), !dbg !1812
  store %"struct.pov::Ray_Struct"* %Ray, %"struct.pov::Ray_Struct"** %Ray.addr, align 8
  call void @llvm.dbg.declare(metadata %"struct.pov::Ray_Struct"** %Ray.addr, metadata !1813, metadata !DIExpression()), !dbg !1814
  store %"struct.pov::istack_struct"* %Depth_Stack, %"struct.pov::istack_struct"** %Depth_Stack.addr, align 8
  call void @llvm.dbg.declare(metadata %"struct.pov::istack_struct"** %Depth_Stack.addr, metadata !1815, metadata !DIExpression()), !dbg !1816
  call void @llvm.dbg.declare(metadata i32* %Maybe_Found, metadata !1817, metadata !DIExpression()), !dbg !1818
  call void @llvm.dbg.declare(metadata i32* %Found, metadata !1819, metadata !DIExpression()), !dbg !1820
  call void @llvm.dbg.declare(metadata %"struct.pov::Object_Struct"** %Current_Sib, metadata !1821, metadata !DIExpression()), !dbg !1822
  call void @llvm.dbg.declare(metadata %"struct.pov::Object_Struct"** %Inside_Sib, metadata !1823, metadata !DIExpression()), !dbg !1824
  call void @llvm.dbg.declare(metadata %"struct.pov::istack_struct"** %Local_Stack, metadata !1825, metadata !DIExpression()), !dbg !1826
  call void @llvm.dbg.declare(metadata %"struct.pov::istk_entry"** %Sibling_Intersection, metadata !1827, metadata !DIExpression()), !dbg !1828
  call void @_ZN3pov16Increase_CounterERx(i64* dereferenceable(8) getelementptr inbounds ([123 x i64], [123 x i64]* @_ZN3pov5statsE, i64 0, i64 22)), !dbg !1829
  %call = call %"struct.pov::istack_struct"* @_ZN3pov11open_istackEv(), !dbg !1830
  store %"struct.pov::istack_struct"* %call, %"struct.pov::istack_struct"** %Local_Stack, align 8, !dbg !1831
  store i32 0, i32* %Found, align 4, !dbg !1832
  %0 = load %"struct.pov::Object_Struct"*, %"struct.pov::Object_Struct"** %Object.addr, align 8, !dbg !1833
  %1 = bitcast %"struct.pov::Object_Struct"* %0 to %"struct.pov::CSG_Struct"*, !dbg !1835
  %Children = getelementptr inbounds %"struct.pov::CSG_Struct", %"struct.pov::CSG_Struct"* %1, i32 0, i32 14, !dbg !1835
  %2 = load %"struct.pov::Object_Struct"*, %"struct.pov::Object_Struct"** %Children, align 8, !dbg !1835
  store %"struct.pov::Object_Struct"* %2, %"struct.pov::Object_Struct"** %Current_Sib, align 8, !dbg !1836
  br label %for.cond, !dbg !1837

for.cond:                                         ; preds = %for.inc35, %entry
  %3 = load %"struct.pov::Object_Struct"*, %"struct.pov::Object_Struct"** %Current_Sib, align 8, !dbg !1838
  %cmp = icmp ne %"struct.pov::Object_Struct"* %3, null, !dbg !1840
  br i1 %cmp, label %for.body, label %for.end37, !dbg !1841

for.body:                                         ; preds = %for.cond
  %4 = load %"struct.pov::Ray_Struct"*, %"struct.pov::Ray_Struct"** %Ray.addr, align 8, !dbg !1842
  %5 = load %"struct.pov::Object_Struct"*, %"struct.pov::Object_Struct"** %Current_Sib, align 8, !dbg !1845
  %Bound = getelementptr inbounds %"struct.pov::Object_Struct", %"struct.pov::Object_Struct"* %5, i32 0, i32 6, !dbg !1846
  %6 = load %"struct.pov::Object_Struct"*, %"struct.pov::Object_Struct"** %Bound, align 8, !dbg !1846
  %call1 = call zeroext i1 @_ZN3pov12Ray_In_BoundEPNS_10Ray_StructEPNS_13Object_StructE(%"struct.pov::Ray_Struct"* %4, %"struct.pov::Object_Struct"* %6), !dbg !1847
  br i1 %call1, label %if.then, label %if.end34, !dbg !1848

if.then:                                          ; preds = %for.body
  %7 = load %"struct.pov::Object_Struct"*, %"struct.pov::Object_Struct"** %Current_Sib, align 8, !dbg !1849
  %Methods = getelementptr inbounds %"struct.pov::Object_Struct", %"struct.pov::Object_Struct"* %7, i32 0, i32 0, !dbg !1849
  %8 = load %"struct.pov::Method_Struct"*, %"struct.pov::Method_Struct"** %Methods, align 8, !dbg !1849
  %All_Intersections_Method = getelementptr inbounds %"struct.pov::Method_Struct", %"struct.pov::Method_Struct"* %8, i32 0, i32 0, !dbg !1849
  %All_Intersections_Method2 = bitcast {}** %All_Intersections_Method to i32 (%"struct.pov::Object_Struct"*, %"struct.pov::Ray_Struct"*, %"struct.pov::istack_struct"*)**, !dbg !1849
  %9 = load i32 (%"struct.pov::Object_Struct"*, %"struct.pov::Ray_Struct"*, %"struct.pov::istack_struct"*)*, i32 (%"struct.pov::Object_Struct"*, %"struct.pov::Ray_Struct"*, %"struct.pov::istack_struct"*)** %All_Intersections_Method2, align 8, !dbg !1849
  %10 = load %"struct.pov::Object_Struct"*, %"struct.pov::Object_Struct"** %Current_Sib, align 8, !dbg !1849
  %11 = load %"struct.pov::Ray_Struct"*, %"struct.pov::Ray_Struct"** %Ray.addr, align 8, !dbg !1849
  %12 = load %"struct.pov::istack_struct"*, %"struct.pov::istack_struct"** %Local_Stack, align 8, !dbg !1849
  %call3 = call i32 %9(%"struct.pov::Object_Struct"* %10, %"struct.pov::Ray_Struct"* %11, %"struct.pov::istack_struct"* %12), !dbg !1849
  %tobool = icmp ne i32 %call3, 0, !dbg !1849
  br i1 %tobool, label %if.then4, label %if.end33, !dbg !1852

if.then4:                                         ; preds = %if.then
  br label %while.cond, !dbg !1853

while.cond:                                       ; preds = %if.end32, %if.then4
  %13 = load %"struct.pov::istack_struct"*, %"struct.pov::istack_struct"** %Local_Stack, align 8, !dbg !1855
  %call5 = call %"struct.pov::istk_entry"* @_ZN3pov9pop_entryEPNS_13istack_structE(%"struct.pov::istack_struct"* %13), !dbg !1856
  store %"struct.pov::istk_entry"* %call5, %"struct.pov::istk_entry"** %Sibling_Intersection, align 8, !dbg !1857
  %cmp6 = icmp ne %"struct.pov::istk_entry"* %call5, null, !dbg !1858
  br i1 %cmp6, label %while.body, label %while.end, !dbg !1853

while.body:                                       ; preds = %while.cond
  store i32 1, i32* %Maybe_Found, align 4, !dbg !1859
  %14 = load %"struct.pov::Object_Struct"*, %"struct.pov::Object_Struct"** %Object.addr, align 8, !dbg !1861
  %15 = bitcast %"struct.pov::Object_Struct"* %14 to %"struct.pov::CSG_Struct"*, !dbg !1863
  %Children7 = getelementptr inbounds %"struct.pov::CSG_Struct", %"struct.pov::CSG_Struct"* %15, i32 0, i32 14, !dbg !1863
  %16 = load %"struct.pov::Object_Struct"*, %"struct.pov::Object_Struct"** %Children7, align 8, !dbg !1863
  store %"struct.pov::Object_Struct"* %16, %"struct.pov::Object_Struct"** %Inside_Sib, align 8, !dbg !1864
  br label %for.cond8, !dbg !1865

for.cond8:                                        ; preds = %for.inc, %while.body
  %17 = load %"struct.pov::Object_Struct"*, %"struct.pov::Object_Struct"** %Inside_Sib, align 8, !dbg !1866
  %cmp9 = icmp ne %"struct.pov::Object_Struct"* %17, null, !dbg !1868
  br i1 %cmp9, label %for.body10, label %for.end, !dbg !1869

for.body10:                                       ; preds = %for.cond8
  %18 = load %"struct.pov::Object_Struct"*, %"struct.pov::Object_Struct"** %Inside_Sib, align 8, !dbg !1870
  %19 = load %"struct.pov::Object_Struct"*, %"struct.pov::Object_Struct"** %Current_Sib, align 8, !dbg !1873
  %cmp11 = icmp ne %"struct.pov::Object_Struct"* %18, %19, !dbg !1874
  br i1 %cmp11, label %if.then12, label %if.end20, !dbg !1875

if.then12:                                        ; preds = %for.body10
  %20 = load %"struct.pov::Object_Struct"*, %"struct.pov::Object_Struct"** %Inside_Sib, align 8, !dbg !1876
  %Type = getelementptr inbounds %"struct.pov::Object_Struct", %"struct.pov::Object_Struct"* %20, i32 0, i32 1, !dbg !1879
  %21 = load i32, i32* %Type, align 8, !dbg !1879
  %and = and i32 %21, 32, !dbg !1880
  %tobool13 = icmp ne i32 %and, 0, !dbg !1881
  br i1 %tobool13, label %lor.lhs.false, label %if.then16, !dbg !1882

lor.lhs.false:                                    ; preds = %if.then12
  %22 = load %"struct.pov::Object_Struct"*, %"struct.pov::Object_Struct"** %Inside_Sib, align 8, !dbg !1883
  %23 = bitcast %"struct.pov::Object_Struct"* %22 to %"struct.pov::Light_Source_Struct"*, !dbg !1884
  %Children14 = getelementptr inbounds %"struct.pov::Light_Source_Struct", %"struct.pov::Light_Source_Struct"* %23, i32 0, i32 14, !dbg !1884
  %24 = load %"struct.pov::Object_Struct"*, %"struct.pov::Object_Struct"** %Children14, align 8, !dbg !1884
  %tobool15 = icmp ne %"struct.pov::Object_Struct"* %24, null, !dbg !1885
  br i1 %tobool15, label %if.then16, label %if.end19, !dbg !1886

if.then16:                                        ; preds = %lor.lhs.false, %if.then12
  %25 = load %"struct.pov::istk_entry"*, %"struct.pov::istk_entry"** %Sibling_Intersection, align 8, !dbg !1887
  %IPoint = getelementptr inbounds %"struct.pov::istk_entry", %"struct.pov::istk_entry"* %25, i32 0, i32 1, !dbg !1890
  %arraydecay = getelementptr inbounds [3 x double], [3 x double]* %IPoint, i64 0, i64 0, !dbg !1887
  %26 = load %"struct.pov::Object_Struct"*, %"struct.pov::Object_Struct"** %Inside_Sib, align 8, !dbg !1891
  %call17 = call zeroext i1 @_ZN3pov13Inside_ObjectEPdPNS_13Object_StructE(double* %arraydecay, %"struct.pov::Object_Struct"* %26), !dbg !1892
  br i1 %call17, label %if.end, label %if.then18, !dbg !1893

if.then18:                                        ; preds = %if.then16
  store i32 0, i32* %Maybe_Found, align 4, !dbg !1894
  br label %for.end, !dbg !1896

if.end:                                           ; preds = %if.then16
  br label %if.end19, !dbg !1897

if.end19:                                         ; preds = %if.end, %lor.lhs.false
  br label %if.end20, !dbg !1898

if.end20:                                         ; preds = %if.end19, %for.body10
  br label %for.inc, !dbg !1899

for.inc:                                          ; preds = %if.end20
  %27 = load %"struct.pov::Object_Struct"*, %"struct.pov::Object_Struct"** %Inside_Sib, align 8, !dbg !1900
  %Sibling = getelementptr inbounds %"struct.pov::Object_Struct", %"struct.pov::Object_Struct"* %27, i32 0, i32 2, !dbg !1901
  %28 = load %"struct.pov::Object_Struct"*, %"struct.pov::Object_Struct"** %Sibling, align 8, !dbg !1901
  store %"struct.pov::Object_Struct"* %28, %"struct.pov::Object_Struct"** %Inside_Sib, align 8, !dbg !1902
  br label %for.cond8, !dbg !1903, !llvm.loop !1904

for.end:                                          ; preds = %if.then18, %for.cond8
  %29 = load i32, i32* %Maybe_Found, align 4, !dbg !1906
  %tobool21 = icmp ne i32 %29, 0, !dbg !1906
  br i1 %tobool21, label %if.then22, label %if.end32, !dbg !1908

if.then22:                                        ; preds = %for.end
  %30 = load %"struct.pov::istk_entry"*, %"struct.pov::istk_entry"** %Sibling_Intersection, align 8, !dbg !1909
  %IPoint23 = getelementptr inbounds %"struct.pov::istk_entry", %"struct.pov::istk_entry"* %30, i32 0, i32 1, !dbg !1912
  %arraydecay24 = getelementptr inbounds [3 x double], [3 x double]* %IPoint23, i64 0, i64 0, !dbg !1909
  %31 = load %"struct.pov::Object_Struct"*, %"struct.pov::Object_Struct"** %Object.addr, align 8, !dbg !1913
  %Clip = getelementptr inbounds %"struct.pov::Object_Struct", %"struct.pov::Object_Struct"* %31, i32 0, i32 7, !dbg !1914
  %32 = load %"struct.pov::Object_Struct"*, %"struct.pov::Object_Struct"** %Clip, align 8, !dbg !1914
  %call25 = call zeroext i1 @_ZN3pov13Point_In_ClipEPdPNS_13Object_StructE(double* %arraydecay24, %"struct.pov::Object_Struct"* %32), !dbg !1915
  br i1 %call25, label %if.then26, label %if.end31, !dbg !1916

if.then26:                                        ; preds = %if.then22
  %33 = load %"struct.pov::Object_Struct"*, %"struct.pov::Object_Struct"** %Object.addr, align 8, !dbg !1917
  %Flags = getelementptr inbounds %"struct.pov::Object_Struct", %"struct.pov::Object_Struct"* %33, i32 0, i32 13, !dbg !1917
  %34 = load i32, i32* %Flags, align 4, !dbg !1917
  %conv = zext i32 %34 to i64, !dbg !1917
  %and27 = and i64 %conv, 256, !dbg !1917
  %tobool28 = icmp ne i64 %and27, 0, !dbg !1917
  br i1 %tobool28, label %if.then29, label %if.end30, !dbg !1920

if.then29:                                        ; preds = %if.then26
  %35 = load %"struct.pov::Object_Struct"*, %"struct.pov::Object_Struct"** %Object.addr, align 8, !dbg !1921
  %36 = bitcast %"struct.pov::Object_Struct"* %35 to i8*, !dbg !1921
  %37 = load %"struct.pov::istk_entry"*, %"struct.pov::istk_entry"** %Sibling_Intersection, align 8, !dbg !1923
  %Csg = getelementptr inbounds %"struct.pov::istk_entry", %"struct.pov::istk_entry"* %37, i32 0, i32 18, !dbg !1924
  store i8* %36, i8** %Csg, align 8, !dbg !1925
  br label %if.end30, !dbg !1926

if.end30:                                         ; preds = %if.then29, %if.then26
  %38 = load %"struct.pov::istack_struct"*, %"struct.pov::istack_struct"** %Depth_Stack.addr, align 8, !dbg !1927
  %39 = load %"struct.pov::istk_entry"*, %"struct.pov::istk_entry"** %Sibling_Intersection, align 8, !dbg !1928
  call void @_ZN3pov9push_copyEPNS_13istack_structEPNS_10istk_entryE(%"struct.pov::istack_struct"* %38, %"struct.pov::istk_entry"* %39), !dbg !1929
  store i32 1, i32* %Found, align 4, !dbg !1930
  br label %if.end31, !dbg !1931

if.end31:                                         ; preds = %if.end30, %if.then22
  br label %if.end32, !dbg !1932

if.end32:                                         ; preds = %if.end31, %for.end
  br label %while.cond, !dbg !1853, !llvm.loop !1933

while.end:                                        ; preds = %while.cond
  br label %if.end33, !dbg !1935

if.end33:                                         ; preds = %while.end, %if.then
  br label %if.end34, !dbg !1936

if.end34:                                         ; preds = %if.end33, %for.body
  br label %for.inc35, !dbg !1937

for.inc35:                                        ; preds = %if.end34
  %40 = load %"struct.pov::Object_Struct"*, %"struct.pov::Object_Struct"** %Current_Sib, align 8, !dbg !1938
  %Sibling36 = getelementptr inbounds %"struct.pov::Object_Struct", %"struct.pov::Object_Struct"* %40, i32 0, i32 2, !dbg !1939
  %41 = load %"struct.pov::Object_Struct"*, %"struct.pov::Object_Struct"** %Sibling36, align 8, !dbg !1939
  store %"struct.pov::Object_Struct"* %41, %"struct.pov::Object_Struct"** %Current_Sib, align 8, !dbg !1940
  br label %for.cond, !dbg !1941, !llvm.loop !1942

for.end37:                                        ; preds = %for.cond
  %42 = load %"struct.pov::istack_struct"*, %"struct.pov::istack_struct"** %Local_Stack, align 8, !dbg !1944
  call void @_ZN3pov12close_istackEPNS_13istack_structE(%"struct.pov::istack_struct"* %42), !dbg !1945
  %43 = load i32, i32* %Found, align 4, !dbg !1946
  %tobool38 = icmp ne i32 %43, 0, !dbg !1946
  br i1 %tobool38, label %if.then39, label %if.end40, !dbg !1948

if.then39:                                        ; preds = %for.end37
  call void @_ZN3pov16Increase_CounterERx(i64* dereferenceable(8) getelementptr inbounds ([123 x i64], [123 x i64]* @_ZN3pov5statsE, i64 0, i64 23)), !dbg !1949
  br label %if.end40, !dbg !1951

if.end40:                                         ; preds = %if.then39, %for.end37
  %44 = load i32, i32* %Found, align 4, !dbg !1952
  ret i32 %44, !dbg !1953
}

; Function Attrs: noinline uwtable
define internal i32 @_ZN3povL23Inside_CSG_IntersectionEPdPNS_13Object_StructE(double* %IPoint, %"struct.pov::Object_Struct"* %Object) #0 !dbg !1954 {
entry:
  %retval = alloca i32, align 4
  %IPoint.addr = alloca double*, align 8
  %Object.addr = alloca %"struct.pov::Object_Struct"*, align 8
  %Current_Sib = alloca %"struct.pov::Object_Struct"*, align 8
  store double* %IPoint, double** %IPoint.addr, align 8
  call void @llvm.dbg.declare(metadata double** %IPoint.addr, metadata !1955, metadata !DIExpression()), !dbg !1956
  store %"struct.pov::Object_Struct"* %Object, %"struct.pov::Object_Struct"** %Object.addr, align 8
  call void @llvm.dbg.declare(metadata %"struct.pov::Object_Struct"** %Object.addr, metadata !1957, metadata !DIExpression()), !dbg !1958
  call void @llvm.dbg.declare(metadata %"struct.pov::Object_Struct"** %Current_Sib, metadata !1959, metadata !DIExpression()), !dbg !1960
  %0 = load %"struct.pov::Object_Struct"*, %"struct.pov::Object_Struct"** %Object.addr, align 8, !dbg !1961
  %1 = bitcast %"struct.pov::Object_Struct"* %0 to %"struct.pov::CSG_Struct"*, !dbg !1963
  %Children = getelementptr inbounds %"struct.pov::CSG_Struct", %"struct.pov::CSG_Struct"* %1, i32 0, i32 14, !dbg !1963
  %2 = load %"struct.pov::Object_Struct"*, %"struct.pov::Object_Struct"** %Children, align 8, !dbg !1963
  store %"struct.pov::Object_Struct"* %2, %"struct.pov::Object_Struct"** %Current_Sib, align 8, !dbg !1964
  br label %for.cond, !dbg !1965

for.cond:                                         ; preds = %for.inc, %entry
  %3 = load %"struct.pov::Object_Struct"*, %"struct.pov::Object_Struct"** %Current_Sib, align 8, !dbg !1966
  %cmp = icmp ne %"struct.pov::Object_Struct"* %3, null, !dbg !1968
  br i1 %cmp, label %for.body, label %for.end, !dbg !1969

for.body:                                         ; preds = %for.cond
  %4 = load %"struct.pov::Object_Struct"*, %"struct.pov::Object_Struct"** %Current_Sib, align 8, !dbg !1970
  %Type = getelementptr inbounds %"struct.pov::Object_Struct", %"struct.pov::Object_Struct"* %4, i32 0, i32 1, !dbg !1973
  %5 = load i32, i32* %Type, align 8, !dbg !1973
  %and = and i32 %5, 32, !dbg !1974
  %tobool = icmp ne i32 %and, 0, !dbg !1975
  br i1 %tobool, label %lor.lhs.false, label %if.then, !dbg !1976

lor.lhs.false:                                    ; preds = %for.body
  %6 = load %"struct.pov::Object_Struct"*, %"struct.pov::Object_Struct"** %Current_Sib, align 8, !dbg !1977
  %7 = bitcast %"struct.pov::Object_Struct"* %6 to %"struct.pov::Light_Source_Struct"*, !dbg !1978
  %Children1 = getelementptr inbounds %"struct.pov::Light_Source_Struct", %"struct.pov::Light_Source_Struct"* %7, i32 0, i32 14, !dbg !1978
  %8 = load %"struct.pov::Object_Struct"*, %"struct.pov::Object_Struct"** %Children1, align 8, !dbg !1978
  %tobool2 = icmp ne %"struct.pov::Object_Struct"* %8, null, !dbg !1979
  br i1 %tobool2, label %if.then, label %if.end4, !dbg !1980

if.then:                                          ; preds = %lor.lhs.false, %for.body
  %9 = load double*, double** %IPoint.addr, align 8, !dbg !1981
  %10 = load %"struct.pov::Object_Struct"*, %"struct.pov::Object_Struct"** %Current_Sib, align 8, !dbg !1984
  %call = call zeroext i1 @_ZN3pov13Inside_ObjectEPdPNS_13Object_StructE(double* %9, %"struct.pov::Object_Struct"* %10), !dbg !1985
  br i1 %call, label %if.end, label %if.then3, !dbg !1986

if.then3:                                         ; preds = %if.then
  store i32 0, i32* %retval, align 4, !dbg !1987
  br label %return, !dbg !1987

if.end:                                           ; preds = %if.then
  br label %if.end4, !dbg !1989

if.end4:                                          ; preds = %if.end, %lor.lhs.false
  br label %for.inc, !dbg !1990

for.inc:                                          ; preds = %if.end4
  %11 = load %"struct.pov::Object_Struct"*, %"struct.pov::Object_Struct"** %Current_Sib, align 8, !dbg !1991
  %Sibling = getelementptr inbounds %"struct.pov::Object_Struct", %"struct.pov::Object_Struct"* %11, i32 0, i32 2, !dbg !1992
  %12 = load %"struct.pov::Object_Struct"*, %"struct.pov::Object_Struct"** %Sibling, align 8, !dbg !1992
  store %"struct.pov::Object_Struct"* %12, %"struct.pov::Object_Struct"** %Current_Sib, align 8, !dbg !1993
  br label %for.cond, !dbg !1994, !llvm.loop !1995

for.end:                                          ; preds = %for.cond
  store i32 1, i32* %retval, align 4, !dbg !1997
  br label %return, !dbg !1997

return:                                           ; preds = %for.end, %if.then3
  %13 = load i32, i32* %retval, align 4, !dbg !1998
  ret i32 %13, !dbg !1998
}

; Function Attrs: noinline uwtable
define internal void @_ZN3povL23Invert_CSG_IntersectionEPNS_13Object_StructE(%"struct.pov::Object_Struct"* %Object) #0 !dbg !1999 {
entry:
  %Object.addr = alloca %"struct.pov::Object_Struct"*, align 8
  %Sib = alloca %"struct.pov::Object_Struct"*, align 8
  store %"struct.pov::Object_Struct"* %Object, %"struct.pov::Object_Struct"** %Object.addr, align 8
  call void @llvm.dbg.declare(metadata %"struct.pov::Object_Struct"** %Object.addr, metadata !2000, metadata !DIExpression()), !dbg !2001
  call void @llvm.dbg.declare(metadata %"struct.pov::Object_Struct"** %Sib, metadata !2002, metadata !DIExpression()), !dbg !2003
  %0 = load %"struct.pov::Object_Struct"*, %"struct.pov::Object_Struct"** %Object.addr, align 8, !dbg !2004
  %Methods = getelementptr inbounds %"struct.pov::Object_Struct", %"struct.pov::Object_Struct"* %0, i32 0, i32 0, !dbg !2005
  store %"struct.pov::Method_Struct"* bitcast ({ i32 (%"struct.pov::Object_Struct"*, %"struct.pov::Ray_Struct"*, %"struct.pov::istack_struct"*)*, i32 (double*, %"struct.pov::Object_Struct"*)*, void (double*, %"struct.pov::Object_Struct"*, %"struct.pov::istk_entry"*)*, void (double*, %"struct.pov::Object_Struct"*, %"struct.pov::istk_entry"*)*, i8* (%"struct.pov::Object_Struct"*)*, void (%"struct.pov::Object_Struct"*, double*, %"struct.pov::Transform_Struct"*)*, void (%"struct.pov::Object_Struct"*, double*, %"struct.pov::Transform_Struct"*)*, void (%"struct.pov::Object_Struct"*, double*, %"struct.pov::Transform_Struct"*)*, void (%"struct.pov::Object_Struct"*, %"struct.pov::Transform_Struct"*)*, void (%"struct.pov::Object_Struct"*)*, void (%"struct.pov::Object_Struct"*)* }* @_ZN3pov17CSG_Merge_MethodsE to %"struct.pov::Method_Struct"*), %"struct.pov::Method_Struct"** %Methods, align 8, !dbg !2006
  %1 = load %"struct.pov::Object_Struct"*, %"struct.pov::Object_Struct"** %Object.addr, align 8, !dbg !2007
  %2 = bitcast %"struct.pov::Object_Struct"* %1 to %"struct.pov::CSG_Struct"*, !dbg !2009
  %Children = getelementptr inbounds %"struct.pov::CSG_Struct", %"struct.pov::CSG_Struct"* %2, i32 0, i32 14, !dbg !2009
  %3 = load %"struct.pov::Object_Struct"*, %"struct.pov::Object_Struct"** %Children, align 8, !dbg !2009
  store %"struct.pov::Object_Struct"* %3, %"struct.pov::Object_Struct"** %Sib, align 8, !dbg !2010
  br label %for.cond, !dbg !2011

for.cond:                                         ; preds = %for.inc, %entry
  %4 = load %"struct.pov::Object_Struct"*, %"struct.pov::Object_Struct"** %Sib, align 8, !dbg !2012
  %cmp = icmp ne %"struct.pov::Object_Struct"* %4, null, !dbg !2014
  br i1 %cmp, label %for.body, label %for.end, !dbg !2015

for.body:                                         ; preds = %for.cond
  %5 = load %"struct.pov::Object_Struct"*, %"struct.pov::Object_Struct"** %Sib, align 8, !dbg !2016
  call void @_ZN3pov13Invert_ObjectEPNS_13Object_StructE(%"struct.pov::Object_Struct"* %5), !dbg !2018
  br label %for.inc, !dbg !2019

for.inc:                                          ; preds = %for.body
  %6 = load %"struct.pov::Object_Struct"*, %"struct.pov::Object_Struct"** %Sib, align 8, !dbg !2020
  %Sibling = getelementptr inbounds %"struct.pov::Object_Struct", %"struct.pov::Object_Struct"* %6, i32 0, i32 2, !dbg !2021
  %7 = load %"struct.pov::Object_Struct"*, %"struct.pov::Object_Struct"** %Sibling, align 8, !dbg !2021
  store %"struct.pov::Object_Struct"* %7, %"struct.pov::Object_Struct"** %Sib, align 8, !dbg !2022
  br label %for.cond, !dbg !2023, !llvm.loop !2024

for.end:                                          ; preds = %for.cond
  %8 = load %"struct.pov::Object_Struct"*, %"struct.pov::Object_Struct"** %Object.addr, align 8, !dbg !2026
  %Flags = getelementptr inbounds %"struct.pov::Object_Struct", %"struct.pov::Object_Struct"* %8, i32 0, i32 13, !dbg !2026
  %9 = load i32, i32* %Flags, align 4, !dbg !2026
  %conv = zext i32 %9 to i64, !dbg !2026
  %xor = xor i64 %conv, 4, !dbg !2026
  %conv1 = trunc i64 %xor to i32, !dbg !2026
  store i32 %conv1, i32* %Flags, align 4, !dbg !2026
  ret void, !dbg !2028
}

; Function Attrs: noinline uwtable
define dso_local %"struct.pov::CSG_Struct"* @_ZN3pov16Create_CSG_UnionEv() #0 !dbg !2029 {
entry:
  %New = alloca %"struct.pov::CSG_Struct"*, align 8
  call void @llvm.dbg.declare(metadata %"struct.pov::CSG_Struct"** %New, metadata !2032, metadata !DIExpression()), !dbg !2033
  %call = call i8* @_ZN3pov10pov_mallocEmPKciS1_(i64 136, i8* getelementptr inbounds ([8 x i8], [8 x i8]* @.str, i64 0, i64 0), i32 776, i8* getelementptr inbounds ([6 x i8], [6 x i8]* @.str.1, i64 0, i64 0)), !dbg !2034
  %0 = bitcast i8* %call to %"struct.pov::CSG_Struct"*, !dbg !2035
  store %"struct.pov::CSG_Struct"* %0, %"struct.pov::CSG_Struct"** %New, align 8, !dbg !2036
  %1 = load %"struct.pov::CSG_Struct"*, %"struct.pov::CSG_Struct"** %New, align 8, !dbg !2037
  %Type = getelementptr inbounds %"struct.pov::CSG_Struct", %"struct.pov::CSG_Struct"* %1, i32 0, i32 1, !dbg !2037
  store i32 4, i32* %Type, align 8, !dbg !2037
  %2 = load %"struct.pov::CSG_Struct"*, %"struct.pov::CSG_Struct"** %New, align 8, !dbg !2037
  %Methods = getelementptr inbounds %"struct.pov::CSG_Struct", %"struct.pov::CSG_Struct"* %2, i32 0, i32 0, !dbg !2037
  store %"struct.pov::Method_Struct"* bitcast ({ i32 (%"struct.pov::Object_Struct"*, %"struct.pov::Ray_Struct"*, %"struct.pov::istack_struct"*)*, i32 (double*, %"struct.pov::Object_Struct"*)*, void (double*, %"struct.pov::Object_Struct"*, %"struct.pov::istk_entry"*)*, void (double*, %"struct.pov::Object_Struct"*, %"struct.pov::istk_entry"*)*, i8* (%"struct.pov::Object_Struct"*)*, void (%"struct.pov::Object_Struct"*, double*, %"struct.pov::Transform_Struct"*)*, void (%"struct.pov::Object_Struct"*, double*, %"struct.pov::Transform_Struct"*)*, void (%"struct.pov::Object_Struct"*, double*, %"struct.pov::Transform_Struct"*)*, void (%"struct.pov::Object_Struct"*, %"struct.pov::Transform_Struct"*)*, void (%"struct.pov::Object_Struct"*)*, void (%"struct.pov::Object_Struct"*)* }* @_ZN3pov17CSG_Union_MethodsE to %"struct.pov::Method_Struct"*), %"struct.pov::Method_Struct"** %Methods, align 8, !dbg !2037
  %3 = load %"struct.pov::CSG_Struct"*, %"struct.pov::CSG_Struct"** %New, align 8, !dbg !2037
  %Sibling = getelementptr inbounds %"struct.pov::CSG_Struct", %"struct.pov::CSG_Struct"* %3, i32 0, i32 2, !dbg !2037
  store %"struct.pov::Object_Struct"* null, %"struct.pov::Object_Struct"** %Sibling, align 8, !dbg !2037
  %4 = load %"struct.pov::CSG_Struct"*, %"struct.pov::CSG_Struct"** %New, align 8, !dbg !2037
  %Texture = getelementptr inbounds %"struct.pov::CSG_Struct", %"struct.pov::CSG_Struct"* %4, i32 0, i32 3, !dbg !2037
  store %"struct.pov::Texture_Struct"* null, %"struct.pov::Texture_Struct"** %Texture, align 8, !dbg !2037
  %5 = load %"struct.pov::CSG_Struct"*, %"struct.pov::CSG_Struct"** %New, align 8, !dbg !2037
  %Interior_Texture = getelementptr inbounds %"struct.pov::CSG_Struct", %"struct.pov::CSG_Struct"* %5, i32 0, i32 4, !dbg !2037
  store %"struct.pov::Texture_Struct"* null, %"struct.pov::Texture_Struct"** %Interior_Texture, align 8, !dbg !2037
  %6 = load %"struct.pov::CSG_Struct"*, %"struct.pov::CSG_Struct"** %New, align 8, !dbg !2037
  %Interior = getelementptr inbounds %"struct.pov::CSG_Struct", %"struct.pov::CSG_Struct"* %6, i32 0, i32 5, !dbg !2037
  store %"struct.pov::Interior_Struct"* null, %"struct.pov::Interior_Struct"** %Interior, align 8, !dbg !2037
  %7 = load %"struct.pov::CSG_Struct"*, %"struct.pov::CSG_Struct"** %New, align 8, !dbg !2037
  %Bound = getelementptr inbounds %"struct.pov::CSG_Struct", %"struct.pov::CSG_Struct"* %7, i32 0, i32 6, !dbg !2037
  store %"struct.pov::Object_Struct"* null, %"struct.pov::Object_Struct"** %Bound, align 8, !dbg !2037
  %8 = load %"struct.pov::CSG_Struct"*, %"struct.pov::CSG_Struct"** %New, align 8, !dbg !2037
  %Clip = getelementptr inbounds %"struct.pov::CSG_Struct", %"struct.pov::CSG_Struct"* %8, i32 0, i32 7, !dbg !2037
  store %"struct.pov::Object_Struct"* null, %"struct.pov::Object_Struct"** %Clip, align 8, !dbg !2037
  %9 = load %"struct.pov::CSG_Struct"*, %"struct.pov::CSG_Struct"** %New, align 8, !dbg !2037
  %LLights = getelementptr inbounds %"struct.pov::CSG_Struct", %"struct.pov::CSG_Struct"* %9, i32 0, i32 8, !dbg !2037
  store %"struct.pov::Light_Source_Struct"* null, %"struct.pov::Light_Source_Struct"** %LLights, align 8, !dbg !2037
  %10 = load %"struct.pov::CSG_Struct"*, %"struct.pov::CSG_Struct"** %New, align 8, !dbg !2037
  %Trans = getelementptr inbounds %"struct.pov::CSG_Struct", %"struct.pov::CSG_Struct"* %10, i32 0, i32 10, !dbg !2037
  store %"struct.pov::Transform_Struct"* null, %"struct.pov::Transform_Struct"** %Trans, align 8, !dbg !2037
  %11 = load %"struct.pov::CSG_Struct"*, %"struct.pov::CSG_Struct"** %New, align 8, !dbg !2037
  %UV_Trans = getelementptr inbounds %"struct.pov::CSG_Struct", %"struct.pov::CSG_Struct"* %11, i32 0, i32 11, !dbg !2037
  store %"struct.pov::Transform_Struct"* null, %"struct.pov::Transform_Struct"** %UV_Trans, align 8, !dbg !2037
  %12 = load %"struct.pov::CSG_Struct"*, %"struct.pov::CSG_Struct"** %New, align 8, !dbg !2037
  %Ph_Density = getelementptr inbounds %"struct.pov::CSG_Struct", %"struct.pov::CSG_Struct"* %12, i32 0, i32 12, !dbg !2037
  store float 0.000000e+00, float* %Ph_Density, align 8, !dbg !2037
  %13 = load %"struct.pov::CSG_Struct"*, %"struct.pov::CSG_Struct"** %New, align 8, !dbg !2037
  %Flags = getelementptr inbounds %"struct.pov::CSG_Struct", %"struct.pov::CSG_Struct"* %13, i32 0, i32 13, !dbg !2037
  store i32 0, i32* %Flags, align 4, !dbg !2037
  %14 = load %"struct.pov::CSG_Struct"*, %"struct.pov::CSG_Struct"** %New, align 8, !dbg !2037
  %BBox = getelementptr inbounds %"struct.pov::CSG_Struct", %"struct.pov::CSG_Struct"* %14, i32 0, i32 9, !dbg !2037
  call void @_ZN3pov9Make_BBoxERNS_19Bounding_Box_StructEffffff(%"struct.pov::Bounding_Box_Struct"* dereferenceable(24) %BBox, float -1.000000e+10, float -1.000000e+10, float -1.000000e+10, float 2.000000e+10, float 2.000000e+10, float 2.000000e+10), !dbg !2037
  %15 = load %"struct.pov::CSG_Struct"*, %"struct.pov::CSG_Struct"** %New, align 8, !dbg !2038
  %Children = getelementptr inbounds %"struct.pov::CSG_Struct", %"struct.pov::CSG_Struct"* %15, i32 0, i32 14, !dbg !2039
  store %"struct.pov::Object_Struct"* null, %"struct.pov::Object_Struct"** %Children, align 8, !dbg !2040
  %16 = load %"struct.pov::CSG_Struct"*, %"struct.pov::CSG_Struct"** %New, align 8, !dbg !2041
  %do_split = getelementptr inbounds %"struct.pov::CSG_Struct", %"struct.pov::CSG_Struct"* %16, i32 0, i32 15, !dbg !2042
  store i32 1, i32* %do_split, align 8, !dbg !2043
  %17 = load %"struct.pov::CSG_Struct"*, %"struct.pov::CSG_Struct"** %New, align 8, !dbg !2044
  ret %"struct.pov::CSG_Struct"* %17, !dbg !2045
}

; Function Attrs: nounwind readnone speculatable willreturn
declare void @llvm.dbg.declare(metadata, metadata, metadata) #2

declare dso_local i8* @_ZN3pov10pov_mallocEmPKciS1_(i64, i8*, i32, i8*) #1

; Function Attrs: noinline nounwind uwtable
define linkonce_odr dso_local void @_ZN3pov9Make_BBoxERNS_19Bounding_Box_StructEffffff(%"struct.pov::Bounding_Box_Struct"* dereferenceable(24) %BBox, float %llx, float %lly, float %llz, float %lex, float %ley, float %lez) #3 comdat !dbg !2046 {
entry:
  %BBox.addr = alloca %"struct.pov::Bounding_Box_Struct"*, align 8
  %llx.addr = alloca float, align 4
  %lly.addr = alloca float, align 4
  %llz.addr = alloca float, align 4
  %lex.addr = alloca float, align 4
  %ley.addr = alloca float, align 4
  %lez.addr = alloca float, align 4
  store %"struct.pov::Bounding_Box_Struct"* %BBox, %"struct.pov::Bounding_Box_Struct"** %BBox.addr, align 8
  call void @llvm.dbg.declare(metadata %"struct.pov::Bounding_Box_Struct"** %BBox.addr, metadata !2050, metadata !DIExpression()), !dbg !2051
  store float %llx, float* %llx.addr, align 4
  call void @llvm.dbg.declare(metadata float* %llx.addr, metadata !2052, metadata !DIExpression()), !dbg !2053
  store float %lly, float* %lly.addr, align 4
  call void @llvm.dbg.declare(metadata float* %lly.addr, metadata !2054, metadata !DIExpression()), !dbg !2055
  store float %llz, float* %llz.addr, align 4
  call void @llvm.dbg.declare(metadata float* %llz.addr, metadata !2056, metadata !DIExpression()), !dbg !2057
  store float %lex, float* %lex.addr, align 4
  call void @llvm.dbg.declare(metadata float* %lex.addr, metadata !2058, metadata !DIExpression()), !dbg !2059
  store float %ley, float* %ley.addr, align 4
  call void @llvm.dbg.declare(metadata float* %ley.addr, metadata !2060, metadata !DIExpression()), !dbg !2061
  store float %lez, float* %lez.addr, align 4
  call void @llvm.dbg.declare(metadata float* %lez.addr, metadata !2062, metadata !DIExpression()), !dbg !2063
  %0 = load float, float* %llx.addr, align 4, !dbg !2064
  %1 = load %"struct.pov::Bounding_Box_Struct"*, %"struct.pov::Bounding_Box_Struct"** %BBox.addr, align 8, !dbg !2065
  %Lower_Left = getelementptr inbounds %"struct.pov::Bounding_Box_Struct", %"struct.pov::Bounding_Box_Struct"* %1, i32 0, i32 0, !dbg !2066
  %arrayidx = getelementptr inbounds [3 x float], [3 x float]* %Lower_Left, i64 0, i64 0, !dbg !2065
  store float %0, float* %arrayidx, align 4, !dbg !2067
  %2 = load float, float* %lly.addr, align 4, !dbg !2068
  %3 = load %"struct.pov::Bounding_Box_Struct"*, %"struct.pov::Bounding_Box_Struct"** %BBox.addr, align 8, !dbg !2069
  %Lower_Left1 = getelementptr inbounds %"struct.pov::Bounding_Box_Struct", %"struct.pov::Bounding_Box_Struct"* %3, i32 0, i32 0, !dbg !2070
  %arrayidx2 = getelementptr inbounds [3 x float], [3 x float]* %Lower_Left1, i64 0, i64 1, !dbg !2069
  store float %2, float* %arrayidx2, align 4, !dbg !2071
  %4 = load float, float* %llz.addr, align 4, !dbg !2072
  %5 = load %"struct.pov::Bounding_Box_Struct"*, %"struct.pov::Bounding_Box_Struct"** %BBox.addr, align 8, !dbg !2073
  %Lower_Left3 = getelementptr inbounds %"struct.pov::Bounding_Box_Struct", %"struct.pov::Bounding_Box_Struct"* %5, i32 0, i32 0, !dbg !2074
  %arrayidx4 = getelementptr inbounds [3 x float], [3 x float]* %Lower_Left3, i64 0, i64 2, !dbg !2073
  store float %4, float* %arrayidx4, align 4, !dbg !2075
  %6 = load float, float* %lex.addr, align 4, !dbg !2076
  %7 = load %"struct.pov::Bounding_Box_Struct"*, %"struct.pov::Bounding_Box_Struct"** %BBox.addr, align 8, !dbg !2077
  %Lengths = getelementptr inbounds %"struct.pov::Bounding_Box_Struct", %"struct.pov::Bounding_Box_Struct"* %7, i32 0, i32 1, !dbg !2078
  %arrayidx5 = getelementptr inbounds [3 x float], [3 x float]* %Lengths, i64 0, i64 0, !dbg !2077
  store float %6, float* %arrayidx5, align 4, !dbg !2079
  %8 = load float, float* %ley.addr, align 4, !dbg !2080
  %9 = load %"struct.pov::Bounding_Box_Struct"*, %"struct.pov::Bounding_Box_Struct"** %BBox.addr, align 8, !dbg !2081
  %Lengths6 = getelementptr inbounds %"struct.pov::Bounding_Box_Struct", %"struct.pov::Bounding_Box_Struct"* %9, i32 0, i32 1, !dbg !2082
  %arrayidx7 = getelementptr inbounds [3 x float], [3 x float]* %Lengths6, i64 0, i64 1, !dbg !2081
  store float %8, float* %arrayidx7, align 4, !dbg !2083
  %10 = load float, float* %lez.addr, align 4, !dbg !2084
  %11 = load %"struct.pov::Bounding_Box_Struct"*, %"struct.pov::Bounding_Box_Struct"** %BBox.addr, align 8, !dbg !2085
  %Lengths8 = getelementptr inbounds %"struct.pov::Bounding_Box_Struct", %"struct.pov::Bounding_Box_Struct"* %11, i32 0, i32 1, !dbg !2086
  %arrayidx9 = getelementptr inbounds [3 x float], [3 x float]* %Lengths8, i64 0, i64 2, !dbg !2085
  store float %10, float* %arrayidx9, align 4, !dbg !2087
  ret void, !dbg !2088
}

; Function Attrs: noinline uwtable
define dso_local %"struct.pov::CSG_Struct"* @_ZN3pov16Create_CSG_MergeEv() #0 !dbg !2089 {
entry:
  %New = alloca %"struct.pov::CSG_Struct"*, align 8
  call void @llvm.dbg.declare(metadata %"struct.pov::CSG_Struct"** %New, metadata !2090, metadata !DIExpression()), !dbg !2091
  %call = call i8* @_ZN3pov10pov_mallocEmPKciS1_(i64 136, i8* getelementptr inbounds ([8 x i8], [8 x i8]* @.str, i64 0, i64 0), i32 819, i8* getelementptr inbounds ([6 x i8], [6 x i8]* @.str.2, i64 0, i64 0)), !dbg !2092
  %0 = bitcast i8* %call to %"struct.pov::CSG_Struct"*, !dbg !2093
  store %"struct.pov::CSG_Struct"* %0, %"struct.pov::CSG_Struct"** %New, align 8, !dbg !2094
  %1 = load %"struct.pov::CSG_Struct"*, %"struct.pov::CSG_Struct"** %New, align 8, !dbg !2095
  %Type = getelementptr inbounds %"struct.pov::CSG_Struct", %"struct.pov::CSG_Struct"* %1, i32 0, i32 1, !dbg !2095
  store i32 4, i32* %Type, align 8, !dbg !2095
  %2 = load %"struct.pov::CSG_Struct"*, %"struct.pov::CSG_Struct"** %New, align 8, !dbg !2095
  %Methods = getelementptr inbounds %"struct.pov::CSG_Struct", %"struct.pov::CSG_Struct"* %2, i32 0, i32 0, !dbg !2095
  store %"struct.pov::Method_Struct"* bitcast ({ i32 (%"struct.pov::Object_Struct"*, %"struct.pov::Ray_Struct"*, %"struct.pov::istack_struct"*)*, i32 (double*, %"struct.pov::Object_Struct"*)*, void (double*, %"struct.pov::Object_Struct"*, %"struct.pov::istk_entry"*)*, void (double*, %"struct.pov::Object_Struct"*, %"struct.pov::istk_entry"*)*, i8* (%"struct.pov::Object_Struct"*)*, void (%"struct.pov::Object_Struct"*, double*, %"struct.pov::Transform_Struct"*)*, void (%"struct.pov::Object_Struct"*, double*, %"struct.pov::Transform_Struct"*)*, void (%"struct.pov::Object_Struct"*, double*, %"struct.pov::Transform_Struct"*)*, void (%"struct.pov::Object_Struct"*, %"struct.pov::Transform_Struct"*)*, void (%"struct.pov::Object_Struct"*)*, void (%"struct.pov::Object_Struct"*)* }* @_ZN3pov17CSG_Merge_MethodsE to %"struct.pov::Method_Struct"*), %"struct.pov::Method_Struct"** %Methods, align 8, !dbg !2095
  %3 = load %"struct.pov::CSG_Struct"*, %"struct.pov::CSG_Struct"** %New, align 8, !dbg !2095
  %Sibling = getelementptr inbounds %"struct.pov::CSG_Struct", %"struct.pov::CSG_Struct"* %3, i32 0, i32 2, !dbg !2095
  store %"struct.pov::Object_Struct"* null, %"struct.pov::Object_Struct"** %Sibling, align 8, !dbg !2095
  %4 = load %"struct.pov::CSG_Struct"*, %"struct.pov::CSG_Struct"** %New, align 8, !dbg !2095
  %Texture = getelementptr inbounds %"struct.pov::CSG_Struct", %"struct.pov::CSG_Struct"* %4, i32 0, i32 3, !dbg !2095
  store %"struct.pov::Texture_Struct"* null, %"struct.pov::Texture_Struct"** %Texture, align 8, !dbg !2095
  %5 = load %"struct.pov::CSG_Struct"*, %"struct.pov::CSG_Struct"** %New, align 8, !dbg !2095
  %Interior_Texture = getelementptr inbounds %"struct.pov::CSG_Struct", %"struct.pov::CSG_Struct"* %5, i32 0, i32 4, !dbg !2095
  store %"struct.pov::Texture_Struct"* null, %"struct.pov::Texture_Struct"** %Interior_Texture, align 8, !dbg !2095
  %6 = load %"struct.pov::CSG_Struct"*, %"struct.pov::CSG_Struct"** %New, align 8, !dbg !2095
  %Interior = getelementptr inbounds %"struct.pov::CSG_Struct", %"struct.pov::CSG_Struct"* %6, i32 0, i32 5, !dbg !2095
  store %"struct.pov::Interior_Struct"* null, %"struct.pov::Interior_Struct"** %Interior, align 8, !dbg !2095
  %7 = load %"struct.pov::CSG_Struct"*, %"struct.pov::CSG_Struct"** %New, align 8, !dbg !2095
  %Bound = getelementptr inbounds %"struct.pov::CSG_Struct", %"struct.pov::CSG_Struct"* %7, i32 0, i32 6, !dbg !2095
  store %"struct.pov::Object_Struct"* null, %"struct.pov::Object_Struct"** %Bound, align 8, !dbg !2095
  %8 = load %"struct.pov::CSG_Struct"*, %"struct.pov::CSG_Struct"** %New, align 8, !dbg !2095
  %Clip = getelementptr inbounds %"struct.pov::CSG_Struct", %"struct.pov::CSG_Struct"* %8, i32 0, i32 7, !dbg !2095
  store %"struct.pov::Object_Struct"* null, %"struct.pov::Object_Struct"** %Clip, align 8, !dbg !2095
  %9 = load %"struct.pov::CSG_Struct"*, %"struct.pov::CSG_Struct"** %New, align 8, !dbg !2095
  %LLights = getelementptr inbounds %"struct.pov::CSG_Struct", %"struct.pov::CSG_Struct"* %9, i32 0, i32 8, !dbg !2095
  store %"struct.pov::Light_Source_Struct"* null, %"struct.pov::Light_Source_Struct"** %LLights, align 8, !dbg !2095
  %10 = load %"struct.pov::CSG_Struct"*, %"struct.pov::CSG_Struct"** %New, align 8, !dbg !2095
  %Trans = getelementptr inbounds %"struct.pov::CSG_Struct", %"struct.pov::CSG_Struct"* %10, i32 0, i32 10, !dbg !2095
  store %"struct.pov::Transform_Struct"* null, %"struct.pov::Transform_Struct"** %Trans, align 8, !dbg !2095
  %11 = load %"struct.pov::CSG_Struct"*, %"struct.pov::CSG_Struct"** %New, align 8, !dbg !2095
  %UV_Trans = getelementptr inbounds %"struct.pov::CSG_Struct", %"struct.pov::CSG_Struct"* %11, i32 0, i32 11, !dbg !2095
  store %"struct.pov::Transform_Struct"* null, %"struct.pov::Transform_Struct"** %UV_Trans, align 8, !dbg !2095
  %12 = load %"struct.pov::CSG_Struct"*, %"struct.pov::CSG_Struct"** %New, align 8, !dbg !2095
  %Ph_Density = getelementptr inbounds %"struct.pov::CSG_Struct", %"struct.pov::CSG_Struct"* %12, i32 0, i32 12, !dbg !2095
  store float 0.000000e+00, float* %Ph_Density, align 8, !dbg !2095
  %13 = load %"struct.pov::CSG_Struct"*, %"struct.pov::CSG_Struct"** %New, align 8, !dbg !2095
  %Flags = getelementptr inbounds %"struct.pov::CSG_Struct", %"struct.pov::CSG_Struct"* %13, i32 0, i32 13, !dbg !2095
  store i32 0, i32* %Flags, align 4, !dbg !2095
  %14 = load %"struct.pov::CSG_Struct"*, %"struct.pov::CSG_Struct"** %New, align 8, !dbg !2095
  %BBox = getelementptr inbounds %"struct.pov::CSG_Struct", %"struct.pov::CSG_Struct"* %14, i32 0, i32 9, !dbg !2095
  call void @_ZN3pov9Make_BBoxERNS_19Bounding_Box_StructEffffff(%"struct.pov::Bounding_Box_Struct"* dereferenceable(24) %BBox, float -1.000000e+10, float -1.000000e+10, float -1.000000e+10, float 2.000000e+10, float 2.000000e+10, float 2.000000e+10), !dbg !2095
  %15 = load %"struct.pov::CSG_Struct"*, %"struct.pov::CSG_Struct"** %New, align 8, !dbg !2096
  %Children = getelementptr inbounds %"struct.pov::CSG_Struct", %"struct.pov::CSG_Struct"* %15, i32 0, i32 14, !dbg !2097
  store %"struct.pov::Object_Struct"* null, %"struct.pov::Object_Struct"** %Children, align 8, !dbg !2098
  %16 = load %"struct.pov::CSG_Struct"*, %"struct.pov::CSG_Struct"** %New, align 8, !dbg !2099
  ret %"struct.pov::CSG_Struct"* %16, !dbg !2100
}

; Function Attrs: noinline uwtable
define dso_local %"struct.pov::CSG_Struct"* @_ZN3pov23Create_CSG_IntersectionEv() #0 !dbg !2101 {
entry:
  %New = alloca %"struct.pov::CSG_Struct"*, align 8
  call void @llvm.dbg.declare(metadata %"struct.pov::CSG_Struct"** %New, metadata !2102, metadata !DIExpression()), !dbg !2103
  %call = call i8* @_ZN3pov10pov_mallocEmPKciS1_(i64 136, i8* getelementptr inbounds ([8 x i8], [8 x i8]* @.str, i64 0, i64 0), i32 860, i8* getelementptr inbounds ([13 x i8], [13 x i8]* @.str.3, i64 0, i64 0)), !dbg !2104
  %0 = bitcast i8* %call to %"struct.pov::CSG_Struct"*, !dbg !2105
  store %"struct.pov::CSG_Struct"* %0, %"struct.pov::CSG_Struct"** %New, align 8, !dbg !2106
  %1 = load %"struct.pov::CSG_Struct"*, %"struct.pov::CSG_Struct"** %New, align 8, !dbg !2107
  %Type = getelementptr inbounds %"struct.pov::CSG_Struct", %"struct.pov::CSG_Struct"* %1, i32 0, i32 1, !dbg !2107
  store i32 4, i32* %Type, align 8, !dbg !2107
  %2 = load %"struct.pov::CSG_Struct"*, %"struct.pov::CSG_Struct"** %New, align 8, !dbg !2107
  %Methods = getelementptr inbounds %"struct.pov::CSG_Struct", %"struct.pov::CSG_Struct"* %2, i32 0, i32 0, !dbg !2107
  store %"struct.pov::Method_Struct"* bitcast ({ i32 (%"struct.pov::Object_Struct"*, %"struct.pov::Ray_Struct"*, %"struct.pov::istack_struct"*)*, i32 (double*, %"struct.pov::Object_Struct"*)*, void (double*, %"struct.pov::Object_Struct"*, %"struct.pov::istk_entry"*)*, void (double*, %"struct.pov::Object_Struct"*, %"struct.pov::istk_entry"*)*, i8* (%"struct.pov::Object_Struct"*)*, void (%"struct.pov::Object_Struct"*, double*, %"struct.pov::Transform_Struct"*)*, void (%"struct.pov::Object_Struct"*, double*, %"struct.pov::Transform_Struct"*)*, void (%"struct.pov::Object_Struct"*, double*, %"struct.pov::Transform_Struct"*)*, void (%"struct.pov::Object_Struct"*, %"struct.pov::Transform_Struct"*)*, void (%"struct.pov::Object_Struct"*)*, void (%"struct.pov::Object_Struct"*)* }* @_ZN3pov24CSG_Intersection_MethodsE to %"struct.pov::Method_Struct"*), %"struct.pov::Method_Struct"** %Methods, align 8, !dbg !2107
  %3 = load %"struct.pov::CSG_Struct"*, %"struct.pov::CSG_Struct"** %New, align 8, !dbg !2107
  %Sibling = getelementptr inbounds %"struct.pov::CSG_Struct", %"struct.pov::CSG_Struct"* %3, i32 0, i32 2, !dbg !2107
  store %"struct.pov::Object_Struct"* null, %"struct.pov::Object_Struct"** %Sibling, align 8, !dbg !2107
  %4 = load %"struct.pov::CSG_Struct"*, %"struct.pov::CSG_Struct"** %New, align 8, !dbg !2107
  %Texture = getelementptr inbounds %"struct.pov::CSG_Struct", %"struct.pov::CSG_Struct"* %4, i32 0, i32 3, !dbg !2107
  store %"struct.pov::Texture_Struct"* null, %"struct.pov::Texture_Struct"** %Texture, align 8, !dbg !2107
  %5 = load %"struct.pov::CSG_Struct"*, %"struct.pov::CSG_Struct"** %New, align 8, !dbg !2107
  %Interior_Texture = getelementptr inbounds %"struct.pov::CSG_Struct", %"struct.pov::CSG_Struct"* %5, i32 0, i32 4, !dbg !2107
  store %"struct.pov::Texture_Struct"* null, %"struct.pov::Texture_Struct"** %Interior_Texture, align 8, !dbg !2107
  %6 = load %"struct.pov::CSG_Struct"*, %"struct.pov::CSG_Struct"** %New, align 8, !dbg !2107
  %Interior = getelementptr inbounds %"struct.pov::CSG_Struct", %"struct.pov::CSG_Struct"* %6, i32 0, i32 5, !dbg !2107
  store %"struct.pov::Interior_Struct"* null, %"struct.pov::Interior_Struct"** %Interior, align 8, !dbg !2107
  %7 = load %"struct.pov::CSG_Struct"*, %"struct.pov::CSG_Struct"** %New, align 8, !dbg !2107
  %Bound = getelementptr inbounds %"struct.pov::CSG_Struct", %"struct.pov::CSG_Struct"* %7, i32 0, i32 6, !dbg !2107
  store %"struct.pov::Object_Struct"* null, %"struct.pov::Object_Struct"** %Bound, align 8, !dbg !2107
  %8 = load %"struct.pov::CSG_Struct"*, %"struct.pov::CSG_Struct"** %New, align 8, !dbg !2107
  %Clip = getelementptr inbounds %"struct.pov::CSG_Struct", %"struct.pov::CSG_Struct"* %8, i32 0, i32 7, !dbg !2107
  store %"struct.pov::Object_Struct"* null, %"struct.pov::Object_Struct"** %Clip, align 8, !dbg !2107
  %9 = load %"struct.pov::CSG_Struct"*, %"struct.pov::CSG_Struct"** %New, align 8, !dbg !2107
  %LLights = getelementptr inbounds %"struct.pov::CSG_Struct", %"struct.pov::CSG_Struct"* %9, i32 0, i32 8, !dbg !2107
  store %"struct.pov::Light_Source_Struct"* null, %"struct.pov::Light_Source_Struct"** %LLights, align 8, !dbg !2107
  %10 = load %"struct.pov::CSG_Struct"*, %"struct.pov::CSG_Struct"** %New, align 8, !dbg !2107
  %Trans = getelementptr inbounds %"struct.pov::CSG_Struct", %"struct.pov::CSG_Struct"* %10, i32 0, i32 10, !dbg !2107
  store %"struct.pov::Transform_Struct"* null, %"struct.pov::Transform_Struct"** %Trans, align 8, !dbg !2107
  %11 = load %"struct.pov::CSG_Struct"*, %"struct.pov::CSG_Struct"** %New, align 8, !dbg !2107
  %UV_Trans = getelementptr inbounds %"struct.pov::CSG_Struct", %"struct.pov::CSG_Struct"* %11, i32 0, i32 11, !dbg !2107
  store %"struct.pov::Transform_Struct"* null, %"struct.pov::Transform_Struct"** %UV_Trans, align 8, !dbg !2107
  %12 = load %"struct.pov::CSG_Struct"*, %"struct.pov::CSG_Struct"** %New, align 8, !dbg !2107
  %Ph_Density = getelementptr inbounds %"struct.pov::CSG_Struct", %"struct.pov::CSG_Struct"* %12, i32 0, i32 12, !dbg !2107
  store float 0.000000e+00, float* %Ph_Density, align 8, !dbg !2107
  %13 = load %"struct.pov::CSG_Struct"*, %"struct.pov::CSG_Struct"** %New, align 8, !dbg !2107
  %Flags = getelementptr inbounds %"struct.pov::CSG_Struct", %"struct.pov::CSG_Struct"* %13, i32 0, i32 13, !dbg !2107
  store i32 0, i32* %Flags, align 4, !dbg !2107
  %14 = load %"struct.pov::CSG_Struct"*, %"struct.pov::CSG_Struct"** %New, align 8, !dbg !2107
  %BBox = getelementptr inbounds %"struct.pov::CSG_Struct", %"struct.pov::CSG_Struct"* %14, i32 0, i32 9, !dbg !2107
  call void @_ZN3pov9Make_BBoxERNS_19Bounding_Box_StructEffffff(%"struct.pov::Bounding_Box_Struct"* dereferenceable(24) %BBox, float -1.000000e+10, float -1.000000e+10, float -1.000000e+10, float 2.000000e+10, float 2.000000e+10, float 2.000000e+10), !dbg !2107
  %15 = load %"struct.pov::CSG_Struct"*, %"struct.pov::CSG_Struct"** %New, align 8, !dbg !2108
  %Children = getelementptr inbounds %"struct.pov::CSG_Struct", %"struct.pov::CSG_Struct"* %15, i32 0, i32 14, !dbg !2109
  store %"struct.pov::Object_Struct"* null, %"struct.pov::Object_Struct"** %Children, align 8, !dbg !2110
  %16 = load %"struct.pov::CSG_Struct"*, %"struct.pov::CSG_Struct"** %New, align 8, !dbg !2111
  ret %"struct.pov::CSG_Struct"* %16, !dbg !2112
}

; Function Attrs: noinline uwtable
define dso_local void @_ZN3pov16Compute_CSG_BBoxEPNS_13Object_StructE(%"struct.pov::Object_Struct"* %Object) #0 !dbg !2113 {
entry:
  %Object.addr = alloca %"struct.pov::Object_Struct"*, align 8
  %i = alloca i32, align 4
  %count = alloca i32, align 4
  %Old_Volume = alloca double, align 8
  %New_Volume = alloca double, align 8
  %NewMin = alloca [3 x double], align 16
  %NewMax = alloca [3 x double], align 16
  %TmpMin = alloca [3 x double], align 16
  %TmpMax = alloca [3 x double], align 16
  %Min = alloca [3 x double], align 16
  %Max = alloca [3 x double], align 16
  %Sib = alloca %"struct.pov::Object_Struct"*, align 8
  %Quadrics = alloca %"struct.pov::Quadric_Struct"**, align 8
  %agg.tmp = alloca %"struct.pov::Bounding_Box_Struct", align 8
  %agg.tmp53 = alloca %"struct.pov::Bounding_Box_Struct", align 8
  %agg.tmp94 = alloca %"struct.pov::Bounding_Box_Struct", align 8
  store %"struct.pov::Object_Struct"* %Object, %"struct.pov::Object_Struct"** %Object.addr, align 8
  call void @llvm.dbg.declare(metadata %"struct.pov::Object_Struct"** %Object.addr, metadata !2114, metadata !DIExpression()), !dbg !2115
  call void @llvm.dbg.declare(metadata i32* %i, metadata !2116, metadata !DIExpression()), !dbg !2117
  call void @llvm.dbg.declare(metadata i32* %count, metadata !2118, metadata !DIExpression()), !dbg !2119
  call void @llvm.dbg.declare(metadata double* %Old_Volume, metadata !2120, metadata !DIExpression()), !dbg !2121
  call void @llvm.dbg.declare(metadata double* %New_Volume, metadata !2122, metadata !DIExpression()), !dbg !2123
  call void @llvm.dbg.declare(metadata [3 x double]* %NewMin, metadata !2124, metadata !DIExpression()), !dbg !2125
  call void @llvm.dbg.declare(metadata [3 x double]* %NewMax, metadata !2126, metadata !DIExpression()), !dbg !2127
  call void @llvm.dbg.declare(metadata [3 x double]* %TmpMin, metadata !2128, metadata !DIExpression()), !dbg !2129
  call void @llvm.dbg.declare(metadata [3 x double]* %TmpMax, metadata !2130, metadata !DIExpression()), !dbg !2131
  call void @llvm.dbg.declare(metadata [3 x double]* %Min, metadata !2132, metadata !DIExpression()), !dbg !2133
  call void @llvm.dbg.declare(metadata [3 x double]* %Max, metadata !2134, metadata !DIExpression()), !dbg !2135
  call void @llvm.dbg.declare(metadata %"struct.pov::Object_Struct"** %Sib, metadata !2136, metadata !DIExpression()), !dbg !2137
  call void @llvm.dbg.declare(metadata %"struct.pov::Quadric_Struct"*** %Quadrics, metadata !2138, metadata !DIExpression()), !dbg !2139
  %0 = load %"struct.pov::Object_Struct"*, %"struct.pov::Object_Struct"** %Object.addr, align 8, !dbg !2140
  %Methods = getelementptr inbounds %"struct.pov::Object_Struct", %"struct.pov::Object_Struct"* %0, i32 0, i32 0, !dbg !2142
  %1 = load %"struct.pov::Method_Struct"*, %"struct.pov::Method_Struct"** %Methods, align 8, !dbg !2142
  %cmp = icmp eq %"struct.pov::Method_Struct"* %1, bitcast ({ i32 (%"struct.pov::Object_Struct"*, %"struct.pov::Ray_Struct"*, %"struct.pov::istack_struct"*)*, i32 (double*, %"struct.pov::Object_Struct"*)*, void (double*, %"struct.pov::Object_Struct"*, %"struct.pov::istk_entry"*)*, void (double*, %"struct.pov::Object_Struct"*, %"struct.pov::istk_entry"*)*, i8* (%"struct.pov::Object_Struct"*)*, void (%"struct.pov::Object_Struct"*, double*, %"struct.pov::Transform_Struct"*)*, void (%"struct.pov::Object_Struct"*, double*, %"struct.pov::Transform_Struct"*)*, void (%"struct.pov::Object_Struct"*, double*, %"struct.pov::Transform_Struct"*)*, void (%"struct.pov::Object_Struct"*, %"struct.pov::Transform_Struct"*)*, void (%"struct.pov::Object_Struct"*)*, void (%"struct.pov::Object_Struct"*)* }* @_ZN3pov24CSG_Intersection_MethodsE to %"struct.pov::Method_Struct"*), !dbg !2143
  br i1 %cmp, label %if.then, label %if.else87, !dbg !2144

if.then:                                          ; preds = %entry
  %arraydecay = getelementptr inbounds [3 x double], [3 x double]* %NewMin, i64 0, i64 0, !dbg !2145
  call void @_ZN3pov11Make_VectorEPdddd(double* %arraydecay, double -2.000000e+10, double -2.000000e+10, double -2.000000e+10), !dbg !2147
  %arraydecay1 = getelementptr inbounds [3 x double], [3 x double]* %NewMax, i64 0, i64 0, !dbg !2148
  call void @_ZN3pov11Make_VectorEPdddd(double* %arraydecay1, double 2.000000e+10, double 2.000000e+10, double 2.000000e+10), !dbg !2149
  store i32 0, i32* %count, align 4, !dbg !2150
  store %"struct.pov::Quadric_Struct"** null, %"struct.pov::Quadric_Struct"*** %Quadrics, align 8, !dbg !2151
  %2 = load %"struct.pov::Object_Struct"*, %"struct.pov::Object_Struct"** %Object.addr, align 8, !dbg !2152
  %3 = bitcast %"struct.pov::Object_Struct"* %2 to %"struct.pov::CSG_Struct"*, !dbg !2154
  %Children = getelementptr inbounds %"struct.pov::CSG_Struct", %"struct.pov::CSG_Struct"* %3, i32 0, i32 14, !dbg !2154
  %4 = load %"struct.pov::Object_Struct"*, %"struct.pov::Object_Struct"** %Children, align 8, !dbg !2154
  store %"struct.pov::Object_Struct"* %4, %"struct.pov::Object_Struct"** %Sib, align 8, !dbg !2155
  br label %for.cond, !dbg !2156

for.cond:                                         ; preds = %for.inc, %if.then
  %5 = load %"struct.pov::Object_Struct"*, %"struct.pov::Object_Struct"** %Sib, align 8, !dbg !2157
  %cmp2 = icmp ne %"struct.pov::Object_Struct"* %5, null, !dbg !2159
  br i1 %cmp2, label %for.body, label %for.end, !dbg !2160

for.body:                                         ; preds = %for.cond
  %6 = load %"struct.pov::Object_Struct"*, %"struct.pov::Object_Struct"** %Sib, align 8, !dbg !2161
  %Flags = getelementptr inbounds %"struct.pov::Object_Struct", %"struct.pov::Object_Struct"* %6, i32 0, i32 13, !dbg !2161
  %7 = load i32, i32* %Flags, align 4, !dbg !2161
  %conv = zext i32 %7 to i64, !dbg !2161
  %and = and i64 %conv, 4, !dbg !2161
  %tobool = icmp ne i64 %and, 0, !dbg !2161
  br i1 %tobool, label %if.end41, label %land.lhs.true, !dbg !2164

land.lhs.true:                                    ; preds = %for.body
  %8 = load %"struct.pov::Object_Struct"*, %"struct.pov::Object_Struct"** %Sib, align 8, !dbg !2165
  %Methods3 = getelementptr inbounds %"struct.pov::Object_Struct", %"struct.pov::Object_Struct"* %8, i32 0, i32 0, !dbg !2166
  %9 = load %"struct.pov::Method_Struct"*, %"struct.pov::Method_Struct"** %Methods3, align 8, !dbg !2166
  %cmp4 = icmp ne %"struct.pov::Method_Struct"* %9, @_ZN3pov14HField_MethodsE, !dbg !2167
  br i1 %cmp4, label %if.then5, label %if.end41, !dbg !2168

if.then5:                                         ; preds = %land.lhs.true
  %10 = load %"struct.pov::Object_Struct"*, %"struct.pov::Object_Struct"** %Sib, align 8, !dbg !2169
  %Methods6 = getelementptr inbounds %"struct.pov::Object_Struct", %"struct.pov::Object_Struct"* %10, i32 0, i32 0, !dbg !2172
  %11 = load %"struct.pov::Method_Struct"*, %"struct.pov::Method_Struct"** %Methods6, align 8, !dbg !2172
  %cmp7 = icmp eq %"struct.pov::Method_Struct"* %11, @_ZN3pov15Quadric_MethodsE, !dbg !2173
  br i1 %cmp7, label %if.then8, label %if.else, !dbg !2174

if.then8:                                         ; preds = %if.then5
  %12 = load %"struct.pov::Quadric_Struct"**, %"struct.pov::Quadric_Struct"*** %Quadrics, align 8, !dbg !2175
  %13 = bitcast %"struct.pov::Quadric_Struct"** %12 to i8*, !dbg !2175
  %14 = load i32, i32* %count, align 4, !dbg !2175
  %add = add nsw i32 %14, 1, !dbg !2175
  %conv9 = sext i32 %add to i64, !dbg !2175
  %mul = mul i64 %conv9, 8, !dbg !2175
  %call = call i8* @_ZN3pov11pov_reallocEPvmPKciS2_(i8* %13, i64 %mul, i8* getelementptr inbounds ([8 x i8], [8 x i8]* @.str, i64 0, i64 0), i32 1031, i8* getelementptr inbounds ([23 x i8], [23 x i8]* @.str.4, i64 0, i64 0)), !dbg !2175
  %15 = bitcast i8* %call to %"struct.pov::Quadric_Struct"**, !dbg !2177
  store %"struct.pov::Quadric_Struct"** %15, %"struct.pov::Quadric_Struct"*** %Quadrics, align 8, !dbg !2178
  %16 = load %"struct.pov::Object_Struct"*, %"struct.pov::Object_Struct"** %Sib, align 8, !dbg !2179
  %17 = bitcast %"struct.pov::Object_Struct"* %16 to %"struct.pov::Quadric_Struct"*, !dbg !2180
  %18 = load %"struct.pov::Quadric_Struct"**, %"struct.pov::Quadric_Struct"*** %Quadrics, align 8, !dbg !2181
  %19 = load i32, i32* %count, align 4, !dbg !2182
  %inc = add nsw i32 %19, 1, !dbg !2182
  store i32 %inc, i32* %count, align 4, !dbg !2182
  %idxprom = sext i32 %19 to i64, !dbg !2181
  %arrayidx = getelementptr inbounds %"struct.pov::Quadric_Struct"*, %"struct.pov::Quadric_Struct"** %18, i64 %idxprom, !dbg !2181
  store %"struct.pov::Quadric_Struct"* %17, %"struct.pov::Quadric_Struct"** %arrayidx, align 8, !dbg !2183
  br label %if.end40, !dbg !2184

if.else:                                          ; preds = %if.then5
  %20 = load %"struct.pov::Object_Struct"*, %"struct.pov::Object_Struct"** %Sib, align 8, !dbg !2185
  %Methods10 = getelementptr inbounds %"struct.pov::Object_Struct", %"struct.pov::Object_Struct"* %20, i32 0, i32 0, !dbg !2188
  %21 = load %"struct.pov::Method_Struct"*, %"struct.pov::Method_Struct"** %Methods10, align 8, !dbg !2188
  %cmp11 = icmp eq %"struct.pov::Method_Struct"* %21, @_ZN3pov13Plane_MethodsE, !dbg !2189
  br i1 %cmp11, label %if.then12, label %if.else15, !dbg !2190

if.then12:                                        ; preds = %if.else
  %22 = load %"struct.pov::Object_Struct"*, %"struct.pov::Object_Struct"** %Sib, align 8, !dbg !2191
  %23 = bitcast %"struct.pov::Object_Struct"* %22 to %"struct.pov::Plane_Struct"*, !dbg !2193
  %arraydecay13 = getelementptr inbounds [3 x double], [3 x double]* %TmpMin, i64 0, i64 0, !dbg !2194
  %arraydecay14 = getelementptr inbounds [3 x double], [3 x double]* %TmpMax, i64 0, i64 0, !dbg !2195
  call void @_ZN3pov21Compute_Plane_Min_MaxEPNS_12Plane_StructEPdS2_(%"struct.pov::Plane_Struct"* %23, double* %arraydecay13, double* %arraydecay14), !dbg !2196
  br label %if.end, !dbg !2197

if.else15:                                        ; preds = %if.else
  %24 = load %"struct.pov::Object_Struct"*, %"struct.pov::Object_Struct"** %Sib, align 8, !dbg !2198
  %BBox = getelementptr inbounds %"struct.pov::Object_Struct", %"struct.pov::Object_Struct"* %24, i32 0, i32 9, !dbg !2200
  %25 = bitcast %"struct.pov::Bounding_Box_Struct"* %agg.tmp to i8*, !dbg !2198
  %26 = bitcast %"struct.pov::Bounding_Box_Struct"* %BBox to i8*, !dbg !2198
  call void @llvm.memcpy.p0i8.p0i8.i64(i8* align 4 %25, i8* align 8 %26, i64 24, i1 false), !dbg !2198
  call void @_ZN3pov22Make_min_max_from_BBoxERA3_dS1_NS_19Bounding_Box_StructE([3 x double]* dereferenceable(24) %TmpMin, [3 x double]* dereferenceable(24) %TmpMax, %"struct.pov::Bounding_Box_Struct"* byval(%"struct.pov::Bounding_Box_Struct") align 8 %agg.tmp), !dbg !2201
  br label %if.end

if.end:                                           ; preds = %if.else15, %if.then12
  %arrayidx16 = getelementptr inbounds [3 x double], [3 x double]* %NewMin, i64 0, i64 0, !dbg !2202
  %arrayidx17 = getelementptr inbounds [3 x double], [3 x double]* %TmpMin, i64 0, i64 0, !dbg !2203
  %call18 = call dereferenceable(8) double* @_ZSt3maxIdERKT_S2_S2_(double* dereferenceable(8) %arrayidx16, double* dereferenceable(8) %arrayidx17), !dbg !2204
  %27 = load double, double* %call18, align 8, !dbg !2204
  %arrayidx19 = getelementptr inbounds [3 x double], [3 x double]* %NewMin, i64 0, i64 0, !dbg !2205
  store double %27, double* %arrayidx19, align 16, !dbg !2206
  %arrayidx20 = getelementptr inbounds [3 x double], [3 x double]* %NewMin, i64 0, i64 1, !dbg !2207
  %arrayidx21 = getelementptr inbounds [3 x double], [3 x double]* %TmpMin, i64 0, i64 1, !dbg !2208
  %call22 = call dereferenceable(8) double* @_ZSt3maxIdERKT_S2_S2_(double* dereferenceable(8) %arrayidx20, double* dereferenceable(8) %arrayidx21), !dbg !2209
  %28 = load double, double* %call22, align 8, !dbg !2209
  %arrayidx23 = getelementptr inbounds [3 x double], [3 x double]* %NewMin, i64 0, i64 1, !dbg !2210
  store double %28, double* %arrayidx23, align 8, !dbg !2211
  %arrayidx24 = getelementptr inbounds [3 x double], [3 x double]* %NewMin, i64 0, i64 2, !dbg !2212
  %arrayidx25 = getelementptr inbounds [3 x double], [3 x double]* %TmpMin, i64 0, i64 2, !dbg !2213
  %call26 = call dereferenceable(8) double* @_ZSt3maxIdERKT_S2_S2_(double* dereferenceable(8) %arrayidx24, double* dereferenceable(8) %arrayidx25), !dbg !2214
  %29 = load double, double* %call26, align 8, !dbg !2214
  %arrayidx27 = getelementptr inbounds [3 x double], [3 x double]* %NewMin, i64 0, i64 2, !dbg !2215
  store double %29, double* %arrayidx27, align 16, !dbg !2216
  %arrayidx28 = getelementptr inbounds [3 x double], [3 x double]* %NewMax, i64 0, i64 0, !dbg !2217
  %arrayidx29 = getelementptr inbounds [3 x double], [3 x double]* %TmpMax, i64 0, i64 0, !dbg !2218
  %call30 = call dereferenceable(8) double* @_ZSt3minIdERKT_S2_S2_(double* dereferenceable(8) %arrayidx28, double* dereferenceable(8) %arrayidx29), !dbg !2219
  %30 = load double, double* %call30, align 8, !dbg !2219
  %arrayidx31 = getelementptr inbounds [3 x double], [3 x double]* %NewMax, i64 0, i64 0, !dbg !2220
  store double %30, double* %arrayidx31, align 16, !dbg !2221
  %arrayidx32 = getelementptr inbounds [3 x double], [3 x double]* %NewMax, i64 0, i64 1, !dbg !2222
  %arrayidx33 = getelementptr inbounds [3 x double], [3 x double]* %TmpMax, i64 0, i64 1, !dbg !2223
  %call34 = call dereferenceable(8) double* @_ZSt3minIdERKT_S2_S2_(double* dereferenceable(8) %arrayidx32, double* dereferenceable(8) %arrayidx33), !dbg !2224
  %31 = load double, double* %call34, align 8, !dbg !2224
  %arrayidx35 = getelementptr inbounds [3 x double], [3 x double]* %NewMax, i64 0, i64 1, !dbg !2225
  store double %31, double* %arrayidx35, align 8, !dbg !2226
  %arrayidx36 = getelementptr inbounds [3 x double], [3 x double]* %NewMax, i64 0, i64 2, !dbg !2227
  %arrayidx37 = getelementptr inbounds [3 x double], [3 x double]* %TmpMax, i64 0, i64 2, !dbg !2228
  %call38 = call dereferenceable(8) double* @_ZSt3minIdERKT_S2_S2_(double* dereferenceable(8) %arrayidx36, double* dereferenceable(8) %arrayidx37), !dbg !2229
  %32 = load double, double* %call38, align 8, !dbg !2229
  %arrayidx39 = getelementptr inbounds [3 x double], [3 x double]* %NewMax, i64 0, i64 2, !dbg !2230
  store double %32, double* %arrayidx39, align 16, !dbg !2231
  br label %if.end40

if.end40:                                         ; preds = %if.end, %if.then8
  br label %if.end41, !dbg !2232

if.end41:                                         ; preds = %if.end40, %land.lhs.true, %for.body
  br label %for.inc, !dbg !2233

for.inc:                                          ; preds = %if.end41
  %33 = load %"struct.pov::Object_Struct"*, %"struct.pov::Object_Struct"** %Sib, align 8, !dbg !2234
  %Sibling = getelementptr inbounds %"struct.pov::Object_Struct", %"struct.pov::Object_Struct"* %33, i32 0, i32 2, !dbg !2235
  %34 = load %"struct.pov::Object_Struct"*, %"struct.pov::Object_Struct"** %Sibling, align 8, !dbg !2235
  store %"struct.pov::Object_Struct"* %34, %"struct.pov::Object_Struct"** %Sib, align 8, !dbg !2236
  br label %for.cond, !dbg !2237, !llvm.loop !2238

for.end:                                          ; preds = %for.cond
  store i32 0, i32* %i, align 4, !dbg !2240
  br label %for.cond42, !dbg !2242

for.cond42:                                       ; preds = %for.inc81, %for.end
  %35 = load i32, i32* %i, align 4, !dbg !2243
  %36 = load i32, i32* %count, align 4, !dbg !2245
  %cmp43 = icmp slt i32 %35, %36, !dbg !2246
  br i1 %cmp43, label %for.body44, label %for.end83, !dbg !2247

for.body44:                                       ; preds = %for.cond42
  %arraydecay45 = getelementptr inbounds [3 x double], [3 x double]* %Min, i64 0, i64 0, !dbg !2248
  %arraydecay46 = getelementptr inbounds [3 x double], [3 x double]* %NewMin, i64 0, i64 0, !dbg !2250
  call void @_ZN3pov13Assign_VectorEPdS0_(double* %arraydecay45, double* %arraydecay46), !dbg !2251
  %arraydecay47 = getelementptr inbounds [3 x double], [3 x double]* %Max, i64 0, i64 0, !dbg !2252
  %arraydecay48 = getelementptr inbounds [3 x double], [3 x double]* %NewMax, i64 0, i64 0, !dbg !2253
  call void @_ZN3pov13Assign_VectorEPdS0_(double* %arraydecay47, double* %arraydecay48), !dbg !2254
  %37 = load %"struct.pov::Quadric_Struct"**, %"struct.pov::Quadric_Struct"*** %Quadrics, align 8, !dbg !2255
  %38 = load i32, i32* %i, align 4, !dbg !2256
  %idxprom49 = sext i32 %38 to i64, !dbg !2255
  %arrayidx50 = getelementptr inbounds %"struct.pov::Quadric_Struct"*, %"struct.pov::Quadric_Struct"** %37, i64 %idxprom49, !dbg !2255
  %39 = load %"struct.pov::Quadric_Struct"*, %"struct.pov::Quadric_Struct"** %arrayidx50, align 8, !dbg !2255
  %arraydecay51 = getelementptr inbounds [3 x double], [3 x double]* %Min, i64 0, i64 0, !dbg !2257
  %arraydecay52 = getelementptr inbounds [3 x double], [3 x double]* %Max, i64 0, i64 0, !dbg !2258
  call void @_ZN3pov20Compute_Quadric_BBoxEPNS_14Quadric_StructEPdS2_(%"struct.pov::Quadric_Struct"* %39, double* %arraydecay51, double* %arraydecay52), !dbg !2259
  %40 = load %"struct.pov::Quadric_Struct"**, %"struct.pov::Quadric_Struct"*** %Quadrics, align 8, !dbg !2260
  %41 = load i32, i32* %i, align 4, !dbg !2261
  %idxprom54 = sext i32 %41 to i64, !dbg !2260
  %arrayidx55 = getelementptr inbounds %"struct.pov::Quadric_Struct"*, %"struct.pov::Quadric_Struct"** %40, i64 %idxprom54, !dbg !2260
  %42 = load %"struct.pov::Quadric_Struct"*, %"struct.pov::Quadric_Struct"** %arrayidx55, align 8, !dbg !2260
  %BBox56 = getelementptr inbounds %"struct.pov::Quadric_Struct", %"struct.pov::Quadric_Struct"* %42, i32 0, i32 9, !dbg !2262
  %43 = bitcast %"struct.pov::Bounding_Box_Struct"* %agg.tmp53 to i8*, !dbg !2260
  %44 = bitcast %"struct.pov::Bounding_Box_Struct"* %BBox56 to i8*, !dbg !2260
  call void @llvm.memcpy.p0i8.p0i8.i64(i8* align 4 %43, i8* align 8 %44, i64 24, i1 false), !dbg !2260
  call void @_ZN3pov22Make_min_max_from_BBoxERA3_dS1_NS_19Bounding_Box_StructE([3 x double]* dereferenceable(24) %TmpMin, [3 x double]* dereferenceable(24) %TmpMax, %"struct.pov::Bounding_Box_Struct"* byval(%"struct.pov::Bounding_Box_Struct") align 8 %agg.tmp53), !dbg !2263
  %arrayidx57 = getelementptr inbounds [3 x double], [3 x double]* %NewMin, i64 0, i64 0, !dbg !2264
  %arrayidx58 = getelementptr inbounds [3 x double], [3 x double]* %TmpMin, i64 0, i64 0, !dbg !2265
  %call59 = call dereferenceable(8) double* @_ZSt3maxIdERKT_S2_S2_(double* dereferenceable(8) %arrayidx57, double* dereferenceable(8) %arrayidx58), !dbg !2266
  %45 = load double, double* %call59, align 8, !dbg !2266
  %arrayidx60 = getelementptr inbounds [3 x double], [3 x double]* %NewMin, i64 0, i64 0, !dbg !2267
  store double %45, double* %arrayidx60, align 16, !dbg !2268
  %arrayidx61 = getelementptr inbounds [3 x double], [3 x double]* %NewMin, i64 0, i64 1, !dbg !2269
  %arrayidx62 = getelementptr inbounds [3 x double], [3 x double]* %TmpMin, i64 0, i64 1, !dbg !2270
  %call63 = call dereferenceable(8) double* @_ZSt3maxIdERKT_S2_S2_(double* dereferenceable(8) %arrayidx61, double* dereferenceable(8) %arrayidx62), !dbg !2271
  %46 = load double, double* %call63, align 8, !dbg !2271
  %arrayidx64 = getelementptr inbounds [3 x double], [3 x double]* %NewMin, i64 0, i64 1, !dbg !2272
  store double %46, double* %arrayidx64, align 8, !dbg !2273
  %arrayidx65 = getelementptr inbounds [3 x double], [3 x double]* %NewMin, i64 0, i64 2, !dbg !2274
  %arrayidx66 = getelementptr inbounds [3 x double], [3 x double]* %TmpMin, i64 0, i64 2, !dbg !2275
  %call67 = call dereferenceable(8) double* @_ZSt3maxIdERKT_S2_S2_(double* dereferenceable(8) %arrayidx65, double* dereferenceable(8) %arrayidx66), !dbg !2276
  %47 = load double, double* %call67, align 8, !dbg !2276
  %arrayidx68 = getelementptr inbounds [3 x double], [3 x double]* %NewMin, i64 0, i64 2, !dbg !2277
  store double %47, double* %arrayidx68, align 16, !dbg !2278
  %arrayidx69 = getelementptr inbounds [3 x double], [3 x double]* %NewMax, i64 0, i64 0, !dbg !2279
  %arrayidx70 = getelementptr inbounds [3 x double], [3 x double]* %TmpMax, i64 0, i64 0, !dbg !2280
  %call71 = call dereferenceable(8) double* @_ZSt3minIdERKT_S2_S2_(double* dereferenceable(8) %arrayidx69, double* dereferenceable(8) %arrayidx70), !dbg !2281
  %48 = load double, double* %call71, align 8, !dbg !2281
  %arrayidx72 = getelementptr inbounds [3 x double], [3 x double]* %NewMax, i64 0, i64 0, !dbg !2282
  store double %48, double* %arrayidx72, align 16, !dbg !2283
  %arrayidx73 = getelementptr inbounds [3 x double], [3 x double]* %NewMax, i64 0, i64 1, !dbg !2284
  %arrayidx74 = getelementptr inbounds [3 x double], [3 x double]* %TmpMax, i64 0, i64 1, !dbg !2285
  %call75 = call dereferenceable(8) double* @_ZSt3minIdERKT_S2_S2_(double* dereferenceable(8) %arrayidx73, double* dereferenceable(8) %arrayidx74), !dbg !2286
  %49 = load double, double* %call75, align 8, !dbg !2286
  %arrayidx76 = getelementptr inbounds [3 x double], [3 x double]* %NewMax, i64 0, i64 1, !dbg !2287
  store double %49, double* %arrayidx76, align 8, !dbg !2288
  %arrayidx77 = getelementptr inbounds [3 x double], [3 x double]* %NewMax, i64 0, i64 2, !dbg !2289
  %arrayidx78 = getelementptr inbounds [3 x double], [3 x double]* %TmpMax, i64 0, i64 2, !dbg !2290
  %call79 = call dereferenceable(8) double* @_ZSt3minIdERKT_S2_S2_(double* dereferenceable(8) %arrayidx77, double* dereferenceable(8) %arrayidx78), !dbg !2291
  %50 = load double, double* %call79, align 8, !dbg !2291
  %arrayidx80 = getelementptr inbounds [3 x double], [3 x double]* %NewMax, i64 0, i64 2, !dbg !2292
  store double %50, double* %arrayidx80, align 16, !dbg !2293
  br label %for.inc81, !dbg !2294

for.inc81:                                        ; preds = %for.body44
  %51 = load i32, i32* %i, align 4, !dbg !2295
  %inc82 = add nsw i32 %51, 1, !dbg !2295
  store i32 %inc82, i32* %i, align 4, !dbg !2295
  br label %for.cond42, !dbg !2296, !llvm.loop !2297

for.end83:                                        ; preds = %for.cond42
  %52 = load %"struct.pov::Quadric_Struct"**, %"struct.pov::Quadric_Struct"*** %Quadrics, align 8, !dbg !2299
  %cmp84 = icmp ne %"struct.pov::Quadric_Struct"** %52, null, !dbg !2301
  br i1 %cmp84, label %if.then85, label %if.end86, !dbg !2302

if.then85:                                        ; preds = %for.end83
  %53 = load %"struct.pov::Quadric_Struct"**, %"struct.pov::Quadric_Struct"*** %Quadrics, align 8, !dbg !2303
  %54 = bitcast %"struct.pov::Quadric_Struct"** %53 to i8*, !dbg !2303
  call void @_ZN3pov8pov_freeEPvPKci(i8* %54, i8* getelementptr inbounds ([8 x i8], [8 x i8]* @.str, i64 0, i64 0), i32 1077), !dbg !2303
  store %"struct.pov::Quadric_Struct"** null, %"struct.pov::Quadric_Struct"*** %Quadrics, align 8, !dbg !2303
  br label %if.end86, !dbg !2306

if.end86:                                         ; preds = %if.then85, %for.end83
  br label %if.end123, !dbg !2307

if.else87:                                        ; preds = %entry
  %arraydecay88 = getelementptr inbounds [3 x double], [3 x double]* %NewMin, i64 0, i64 0, !dbg !2308
  call void @_ZN3pov11Make_VectorEPdddd(double* %arraydecay88, double 2.000000e+10, double 2.000000e+10, double 2.000000e+10), !dbg !2310
  %arraydecay89 = getelementptr inbounds [3 x double], [3 x double]* %NewMax, i64 0, i64 0, !dbg !2311
  call void @_ZN3pov11Make_VectorEPdddd(double* %arraydecay89, double -2.000000e+10, double -2.000000e+10, double -2.000000e+10), !dbg !2312
  %55 = load %"struct.pov::Object_Struct"*, %"struct.pov::Object_Struct"** %Object.addr, align 8, !dbg !2313
  %56 = bitcast %"struct.pov::Object_Struct"* %55 to %"struct.pov::CSG_Struct"*, !dbg !2315
  %Children90 = getelementptr inbounds %"struct.pov::CSG_Struct", %"struct.pov::CSG_Struct"* %56, i32 0, i32 14, !dbg !2315
  %57 = load %"struct.pov::Object_Struct"*, %"struct.pov::Object_Struct"** %Children90, align 8, !dbg !2315
  store %"struct.pov::Object_Struct"* %57, %"struct.pov::Object_Struct"** %Sib, align 8, !dbg !2316
  br label %for.cond91, !dbg !2317

for.cond91:                                       ; preds = %for.inc120, %if.else87
  %58 = load %"struct.pov::Object_Struct"*, %"struct.pov::Object_Struct"** %Sib, align 8, !dbg !2318
  %cmp92 = icmp ne %"struct.pov::Object_Struct"* %58, null, !dbg !2320
  br i1 %cmp92, label %for.body93, label %for.end122, !dbg !2321

for.body93:                                       ; preds = %for.cond91
  %59 = load %"struct.pov::Object_Struct"*, %"struct.pov::Object_Struct"** %Sib, align 8, !dbg !2322
  %BBox95 = getelementptr inbounds %"struct.pov::Object_Struct", %"struct.pov::Object_Struct"* %59, i32 0, i32 9, !dbg !2324
  %60 = bitcast %"struct.pov::Bounding_Box_Struct"* %agg.tmp94 to i8*, !dbg !2322
  %61 = bitcast %"struct.pov::Bounding_Box_Struct"* %BBox95 to i8*, !dbg !2322
  call void @llvm.memcpy.p0i8.p0i8.i64(i8* align 4 %60, i8* align 8 %61, i64 24, i1 false), !dbg !2322
  call void @_ZN3pov22Make_min_max_from_BBoxERA3_dS1_NS_19Bounding_Box_StructE([3 x double]* dereferenceable(24) %TmpMin, [3 x double]* dereferenceable(24) %TmpMax, %"struct.pov::Bounding_Box_Struct"* byval(%"struct.pov::Bounding_Box_Struct") align 8 %agg.tmp94), !dbg !2325
  %arrayidx96 = getelementptr inbounds [3 x double], [3 x double]* %NewMin, i64 0, i64 0, !dbg !2326
  %arrayidx97 = getelementptr inbounds [3 x double], [3 x double]* %TmpMin, i64 0, i64 0, !dbg !2327
  %call98 = call dereferenceable(8) double* @_ZSt3minIdERKT_S2_S2_(double* dereferenceable(8) %arrayidx96, double* dereferenceable(8) %arrayidx97), !dbg !2328
  %62 = load double, double* %call98, align 8, !dbg !2328
  %arrayidx99 = getelementptr inbounds [3 x double], [3 x double]* %NewMin, i64 0, i64 0, !dbg !2329
  store double %62, double* %arrayidx99, align 16, !dbg !2330
  %arrayidx100 = getelementptr inbounds [3 x double], [3 x double]* %NewMin, i64 0, i64 1, !dbg !2331
  %arrayidx101 = getelementptr inbounds [3 x double], [3 x double]* %TmpMin, i64 0, i64 1, !dbg !2332
  %call102 = call dereferenceable(8) double* @_ZSt3minIdERKT_S2_S2_(double* dereferenceable(8) %arrayidx100, double* dereferenceable(8) %arrayidx101), !dbg !2333
  %63 = load double, double* %call102, align 8, !dbg !2333
  %arrayidx103 = getelementptr inbounds [3 x double], [3 x double]* %NewMin, i64 0, i64 1, !dbg !2334
  store double %63, double* %arrayidx103, align 8, !dbg !2335
  %arrayidx104 = getelementptr inbounds [3 x double], [3 x double]* %NewMin, i64 0, i64 2, !dbg !2336
  %arrayidx105 = getelementptr inbounds [3 x double], [3 x double]* %TmpMin, i64 0, i64 2, !dbg !2337
  %call106 = call dereferenceable(8) double* @_ZSt3minIdERKT_S2_S2_(double* dereferenceable(8) %arrayidx104, double* dereferenceable(8) %arrayidx105), !dbg !2338
  %64 = load double, double* %call106, align 8, !dbg !2338
  %arrayidx107 = getelementptr inbounds [3 x double], [3 x double]* %NewMin, i64 0, i64 2, !dbg !2339
  store double %64, double* %arrayidx107, align 16, !dbg !2340
  %arrayidx108 = getelementptr inbounds [3 x double], [3 x double]* %NewMax, i64 0, i64 0, !dbg !2341
  %arrayidx109 = getelementptr inbounds [3 x double], [3 x double]* %TmpMax, i64 0, i64 0, !dbg !2342
  %call110 = call dereferenceable(8) double* @_ZSt3maxIdERKT_S2_S2_(double* dereferenceable(8) %arrayidx108, double* dereferenceable(8) %arrayidx109), !dbg !2343
  %65 = load double, double* %call110, align 8, !dbg !2343
  %arrayidx111 = getelementptr inbounds [3 x double], [3 x double]* %NewMax, i64 0, i64 0, !dbg !2344
  store double %65, double* %arrayidx111, align 16, !dbg !2345
  %arrayidx112 = getelementptr inbounds [3 x double], [3 x double]* %NewMax, i64 0, i64 1, !dbg !2346
  %arrayidx113 = getelementptr inbounds [3 x double], [3 x double]* %TmpMax, i64 0, i64 1, !dbg !2347
  %call114 = call dereferenceable(8) double* @_ZSt3maxIdERKT_S2_S2_(double* dereferenceable(8) %arrayidx112, double* dereferenceable(8) %arrayidx113), !dbg !2348
  %66 = load double, double* %call114, align 8, !dbg !2348
  %arrayidx115 = getelementptr inbounds [3 x double], [3 x double]* %NewMax, i64 0, i64 1, !dbg !2349
  store double %66, double* %arrayidx115, align 8, !dbg !2350
  %arrayidx116 = getelementptr inbounds [3 x double], [3 x double]* %NewMax, i64 0, i64 2, !dbg !2351
  %arrayidx117 = getelementptr inbounds [3 x double], [3 x double]* %TmpMax, i64 0, i64 2, !dbg !2352
  %call118 = call dereferenceable(8) double* @_ZSt3maxIdERKT_S2_S2_(double* dereferenceable(8) %arrayidx116, double* dereferenceable(8) %arrayidx117), !dbg !2353
  %67 = load double, double* %call118, align 8, !dbg !2353
  %arrayidx119 = getelementptr inbounds [3 x double], [3 x double]* %NewMax, i64 0, i64 2, !dbg !2354
  store double %67, double* %arrayidx119, align 16, !dbg !2355
  br label %for.inc120, !dbg !2356

for.inc120:                                       ; preds = %for.body93
  %68 = load %"struct.pov::Object_Struct"*, %"struct.pov::Object_Struct"** %Sib, align 8, !dbg !2357
  %Sibling121 = getelementptr inbounds %"struct.pov::Object_Struct", %"struct.pov::Object_Struct"* %68, i32 0, i32 2, !dbg !2358
  %69 = load %"struct.pov::Object_Struct"*, %"struct.pov::Object_Struct"** %Sibling121, align 8, !dbg !2358
  store %"struct.pov::Object_Struct"* %69, %"struct.pov::Object_Struct"** %Sib, align 8, !dbg !2359
  br label %for.cond91, !dbg !2360, !llvm.loop !2361

for.end122:                                       ; preds = %for.cond91
  br label %if.end123

if.end123:                                        ; preds = %for.end122, %if.end86
  %arrayidx124 = getelementptr inbounds [3 x double], [3 x double]* %NewMin, i64 0, i64 0, !dbg !2363
  %70 = load double, double* %arrayidx124, align 16, !dbg !2363
  %arrayidx125 = getelementptr inbounds [3 x double], [3 x double]* %NewMax, i64 0, i64 0, !dbg !2365
  %71 = load double, double* %arrayidx125, align 16, !dbg !2365
  %cmp126 = fcmp ogt double %70, %71, !dbg !2366
  br i1 %cmp126, label %if.then134, label %lor.lhs.false, !dbg !2367

lor.lhs.false:                                    ; preds = %if.end123
  %arrayidx127 = getelementptr inbounds [3 x double], [3 x double]* %NewMin, i64 0, i64 1, !dbg !2368
  %72 = load double, double* %arrayidx127, align 8, !dbg !2368
  %arrayidx128 = getelementptr inbounds [3 x double], [3 x double]* %NewMax, i64 0, i64 1, !dbg !2369
  %73 = load double, double* %arrayidx128, align 8, !dbg !2369
  %cmp129 = fcmp ogt double %72, %73, !dbg !2370
  br i1 %cmp129, label %if.then134, label %lor.lhs.false130, !dbg !2371

lor.lhs.false130:                                 ; preds = %lor.lhs.false
  %arrayidx131 = getelementptr inbounds [3 x double], [3 x double]* %NewMin, i64 0, i64 2, !dbg !2372
  %74 = load double, double* %arrayidx131, align 16, !dbg !2372
  %arrayidx132 = getelementptr inbounds [3 x double], [3 x double]* %NewMax, i64 0, i64 2, !dbg !2373
  %75 = load double, double* %arrayidx132, align 16, !dbg !2373
  %cmp133 = fcmp ogt double %74, %75, !dbg !2374
  br i1 %cmp133, label %if.then134, label %if.else136, !dbg !2375

if.then134:                                       ; preds = %lor.lhs.false130, %lor.lhs.false, %if.end123
  %call135 = call i32 (i32, i8*, ...) @_ZN3pov7WarningEjPKcz(i32 0, i8* getelementptr inbounds ([41 x i8], [41 x i8]* @.str.5, i64 0, i64 0)), !dbg !2376
  br label %if.end173, !dbg !2378

if.else136:                                       ; preds = %lor.lhs.false130
  %arrayidx137 = getelementptr inbounds [3 x double], [3 x double]* %NewMax, i64 0, i64 0, !dbg !2379
  %76 = load double, double* %arrayidx137, align 16, !dbg !2379
  %arrayidx138 = getelementptr inbounds [3 x double], [3 x double]* %NewMin, i64 0, i64 0, !dbg !2381
  %77 = load double, double* %arrayidx138, align 16, !dbg !2381
  %sub = fsub double %76, %77, !dbg !2382
  %arrayidx139 = getelementptr inbounds [3 x double], [3 x double]* %NewMax, i64 0, i64 1, !dbg !2383
  %78 = load double, double* %arrayidx139, align 8, !dbg !2383
  %arrayidx140 = getelementptr inbounds [3 x double], [3 x double]* %NewMin, i64 0, i64 1, !dbg !2384
  %79 = load double, double* %arrayidx140, align 8, !dbg !2384
  %sub141 = fsub double %78, %79, !dbg !2385
  %mul142 = fmul double %sub, %sub141, !dbg !2386
  %arrayidx143 = getelementptr inbounds [3 x double], [3 x double]* %NewMax, i64 0, i64 2, !dbg !2387
  %80 = load double, double* %arrayidx143, align 16, !dbg !2387
  %arrayidx144 = getelementptr inbounds [3 x double], [3 x double]* %NewMin, i64 0, i64 2, !dbg !2388
  %81 = load double, double* %arrayidx144, align 16, !dbg !2388
  %sub145 = fsub double %80, %81, !dbg !2389
  %mul146 = fmul double %mul142, %sub145, !dbg !2390
  store double %mul146, double* %New_Volume, align 8, !dbg !2391
  %82 = load %"struct.pov::Object_Struct"*, %"struct.pov::Object_Struct"** %Object.addr, align 8, !dbg !2392
  %BBox147 = getelementptr inbounds %"struct.pov::Object_Struct", %"struct.pov::Object_Struct"* %82, i32 0, i32 9, !dbg !2393
  call void @_ZN3pov13BOUNDS_VOLUMEERdRKNS_19Bounding_Box_StructE(double* dereferenceable(8) %Old_Volume, %"struct.pov::Bounding_Box_Struct"* dereferenceable(24) %BBox147), !dbg !2394
  %83 = load double, double* %New_Volume, align 8, !dbg !2395
  %84 = load double, double* %Old_Volume, align 8, !dbg !2397
  %cmp148 = fcmp olt double %83, %84, !dbg !2398
  br i1 %cmp148, label %if.then149, label %if.end172, !dbg !2399

if.then149:                                       ; preds = %if.else136
  %85 = load %"struct.pov::Object_Struct"*, %"struct.pov::Object_Struct"** %Object.addr, align 8, !dbg !2400
  %BBox150 = getelementptr inbounds %"struct.pov::Object_Struct", %"struct.pov::Object_Struct"* %85, i32 0, i32 9, !dbg !2402
  %arraydecay151 = getelementptr inbounds [3 x double], [3 x double]* %NewMin, i64 0, i64 0, !dbg !2403
  %arraydecay152 = getelementptr inbounds [3 x double], [3 x double]* %NewMax, i64 0, i64 0, !dbg !2404
  call void @_ZN3pov22Make_BBox_from_min_maxERNS_19Bounding_Box_StructEPdS2_(%"struct.pov::Bounding_Box_Struct"* dereferenceable(24) %BBox150, double* %arraydecay151, double* %arraydecay152), !dbg !2405
  %86 = load %"struct.pov::Object_Struct"*, %"struct.pov::Object_Struct"** %Object.addr, align 8, !dbg !2406
  %BBox153 = getelementptr inbounds %"struct.pov::Object_Struct", %"struct.pov::Object_Struct"* %86, i32 0, i32 9, !dbg !2408
  %Lengths = getelementptr inbounds %"struct.pov::Bounding_Box_Struct", %"struct.pov::Bounding_Box_Struct"* %BBox153, i32 0, i32 1, !dbg !2409
  %arrayidx154 = getelementptr inbounds [3 x float], [3 x float]* %Lengths, i64 0, i64 0, !dbg !2406
  %87 = load float, float* %arrayidx154, align 4, !dbg !2406
  %conv155 = fpext float %87 to double, !dbg !2406
  %cmp156 = fcmp ogt double %conv155, 1.000000e+06, !dbg !2410
  br i1 %cmp156, label %if.then169, label %lor.lhs.false157, !dbg !2411

lor.lhs.false157:                                 ; preds = %if.then149
  %88 = load %"struct.pov::Object_Struct"*, %"struct.pov::Object_Struct"** %Object.addr, align 8, !dbg !2412
  %BBox158 = getelementptr inbounds %"struct.pov::Object_Struct", %"struct.pov::Object_Struct"* %88, i32 0, i32 9, !dbg !2413
  %Lengths159 = getelementptr inbounds %"struct.pov::Bounding_Box_Struct", %"struct.pov::Bounding_Box_Struct"* %BBox158, i32 0, i32 1, !dbg !2414
  %arrayidx160 = getelementptr inbounds [3 x float], [3 x float]* %Lengths159, i64 0, i64 1, !dbg !2412
  %89 = load float, float* %arrayidx160, align 4, !dbg !2412
  %conv161 = fpext float %89 to double, !dbg !2412
  %cmp162 = fcmp ogt double %conv161, 1.000000e+06, !dbg !2415
  br i1 %cmp162, label %if.then169, label %lor.lhs.false163, !dbg !2416

lor.lhs.false163:                                 ; preds = %lor.lhs.false157
  %90 = load %"struct.pov::Object_Struct"*, %"struct.pov::Object_Struct"** %Object.addr, align 8, !dbg !2417
  %BBox164 = getelementptr inbounds %"struct.pov::Object_Struct", %"struct.pov::Object_Struct"* %90, i32 0, i32 9, !dbg !2418
  %Lengths165 = getelementptr inbounds %"struct.pov::Bounding_Box_Struct", %"struct.pov::Bounding_Box_Struct"* %BBox164, i32 0, i32 1, !dbg !2419
  %arrayidx166 = getelementptr inbounds [3 x float], [3 x float]* %Lengths165, i64 0, i64 2, !dbg !2417
  %91 = load float, float* %arrayidx166, align 4, !dbg !2417
  %conv167 = fpext float %91 to double, !dbg !2417
  %cmp168 = fcmp ogt double %conv167, 1.000000e+06, !dbg !2420
  br i1 %cmp168, label %if.then169, label %if.end171, !dbg !2421

if.then169:                                       ; preds = %lor.lhs.false163, %lor.lhs.false157, %if.then149
  %92 = load %"struct.pov::Object_Struct"*, %"struct.pov::Object_Struct"** %Object.addr, align 8, !dbg !2422
  %BBox170 = getelementptr inbounds %"struct.pov::Object_Struct", %"struct.pov::Object_Struct"* %92, i32 0, i32 9, !dbg !2424
  call void @_ZN3pov9Make_BBoxERNS_19Bounding_Box_StructEffffff(%"struct.pov::Bounding_Box_Struct"* dereferenceable(24) %BBox170, float -1.000000e+10, float -1.000000e+10, float -1.000000e+10, float 2.000000e+10, float 2.000000e+10, float 2.000000e+10), !dbg !2425
  br label %if.end171, !dbg !2426

if.end171:                                        ; preds = %if.then169, %lor.lhs.false163
  br label %if.end172, !dbg !2427

if.end172:                                        ; preds = %if.end171, %if.else136
  br label %if.end173

if.end173:                                        ; preds = %if.end172, %if.then134
  ret void, !dbg !2428
}

; Function Attrs: noinline nounwind uwtable
define linkonce_odr dso_local void @_ZN3pov11Make_VectorEPdddd(double* %v, double %a, double %b, double %c) #3 comdat !dbg !2429 {
entry:
  %v.addr = alloca double*, align 8
  %a.addr = alloca double, align 8
  %b.addr = alloca double, align 8
  %c.addr = alloca double, align 8
  store double* %v, double** %v.addr, align 8
  call void @llvm.dbg.declare(metadata double** %v.addr, metadata !2432, metadata !DIExpression()), !dbg !2433
  store double %a, double* %a.addr, align 8
  call void @llvm.dbg.declare(metadata double* %a.addr, metadata !2434, metadata !DIExpression()), !dbg !2435
  store double %b, double* %b.addr, align 8
  call void @llvm.dbg.declare(metadata double* %b.addr, metadata !2436, metadata !DIExpression()), !dbg !2437
  store double %c, double* %c.addr, align 8
  call void @llvm.dbg.declare(metadata double* %c.addr, metadata !2438, metadata !DIExpression()), !dbg !2439
  %0 = load double, double* %a.addr, align 8, !dbg !2440
  %1 = load double*, double** %v.addr, align 8, !dbg !2441
  %arrayidx = getelementptr inbounds double, double* %1, i64 0, !dbg !2441
  store double %0, double* %arrayidx, align 8, !dbg !2442
  %2 = load double, double* %b.addr, align 8, !dbg !2443
  %3 = load double*, double** %v.addr, align 8, !dbg !2444
  %arrayidx1 = getelementptr inbounds double, double* %3, i64 1, !dbg !2444
  store double %2, double* %arrayidx1, align 8, !dbg !2445
  %4 = load double, double* %c.addr, align 8, !dbg !2446
  %5 = load double*, double** %v.addr, align 8, !dbg !2447
  %arrayidx2 = getelementptr inbounds double, double* %5, i64 2, !dbg !2447
  store double %4, double* %arrayidx2, align 8, !dbg !2448
  ret void, !dbg !2449
}

declare dso_local i8* @_ZN3pov11pov_reallocEPvmPKciS2_(i8*, i64, i8*, i32, i8*) #1

declare dso_local void @_ZN3pov21Compute_Plane_Min_MaxEPNS_12Plane_StructEPdS2_(%"struct.pov::Plane_Struct"*, double*, double*) #1

; Function Attrs: noinline nounwind uwtable
define linkonce_odr dso_local void @_ZN3pov22Make_min_max_from_BBoxERA3_dS1_NS_19Bounding_Box_StructE([3 x double]* dereferenceable(24) %mins, [3 x double]* dereferenceable(24) %maxs, %"struct.pov::Bounding_Box_Struct"* byval(%"struct.pov::Bounding_Box_Struct") align 8 %BBox) #3 comdat !dbg !2450 {
entry:
  %mins.addr = alloca [3 x double]*, align 8
  %maxs.addr = alloca [3 x double]*, align 8
  store [3 x double]* %mins, [3 x double]** %mins.addr, align 8
  call void @llvm.dbg.declare(metadata [3 x double]** %mins.addr, metadata !2454, metadata !DIExpression()), !dbg !2455
  store [3 x double]* %maxs, [3 x double]** %maxs.addr, align 8
  call void @llvm.dbg.declare(metadata [3 x double]** %maxs.addr, metadata !2456, metadata !DIExpression()), !dbg !2457
  call void @llvm.dbg.declare(metadata %"struct.pov::Bounding_Box_Struct"* %BBox, metadata !2458, metadata !DIExpression()), !dbg !2459
  %Lower_Left = getelementptr inbounds %"struct.pov::Bounding_Box_Struct", %"struct.pov::Bounding_Box_Struct"* %BBox, i32 0, i32 0, !dbg !2460
  %arrayidx = getelementptr inbounds [3 x float], [3 x float]* %Lower_Left, i64 0, i64 0, !dbg !2461
  %0 = load float, float* %arrayidx, align 8, !dbg !2461
  %conv = fpext float %0 to double, !dbg !2461
  %1 = load [3 x double]*, [3 x double]** %mins.addr, align 8, !dbg !2462
  %arrayidx1 = getelementptr inbounds [3 x double], [3 x double]* %1, i64 0, i64 0, !dbg !2462
  store double %conv, double* %arrayidx1, align 8, !dbg !2463
  %Lower_Left2 = getelementptr inbounds %"struct.pov::Bounding_Box_Struct", %"struct.pov::Bounding_Box_Struct"* %BBox, i32 0, i32 0, !dbg !2464
  %arrayidx3 = getelementptr inbounds [3 x float], [3 x float]* %Lower_Left2, i64 0, i64 1, !dbg !2465
  %2 = load float, float* %arrayidx3, align 4, !dbg !2465
  %conv4 = fpext float %2 to double, !dbg !2465
  %3 = load [3 x double]*, [3 x double]** %mins.addr, align 8, !dbg !2466
  %arrayidx5 = getelementptr inbounds [3 x double], [3 x double]* %3, i64 0, i64 1, !dbg !2466
  store double %conv4, double* %arrayidx5, align 8, !dbg !2467
  %Lower_Left6 = getelementptr inbounds %"struct.pov::Bounding_Box_Struct", %"struct.pov::Bounding_Box_Struct"* %BBox, i32 0, i32 0, !dbg !2468
  %arrayidx7 = getelementptr inbounds [3 x float], [3 x float]* %Lower_Left6, i64 0, i64 2, !dbg !2469
  %4 = load float, float* %arrayidx7, align 8, !dbg !2469
  %conv8 = fpext float %4 to double, !dbg !2469
  %5 = load [3 x double]*, [3 x double]** %mins.addr, align 8, !dbg !2470
  %arrayidx9 = getelementptr inbounds [3 x double], [3 x double]* %5, i64 0, i64 2, !dbg !2470
  store double %conv8, double* %arrayidx9, align 8, !dbg !2471
  %6 = load [3 x double]*, [3 x double]** %mins.addr, align 8, !dbg !2472
  %arrayidx10 = getelementptr inbounds [3 x double], [3 x double]* %6, i64 0, i64 0, !dbg !2472
  %7 = load double, double* %arrayidx10, align 8, !dbg !2472
  %Lengths = getelementptr inbounds %"struct.pov::Bounding_Box_Struct", %"struct.pov::Bounding_Box_Struct"* %BBox, i32 0, i32 1, !dbg !2473
  %arrayidx11 = getelementptr inbounds [3 x float], [3 x float]* %Lengths, i64 0, i64 0, !dbg !2474
  %8 = load float, float* %arrayidx11, align 4, !dbg !2474
  %conv12 = fpext float %8 to double, !dbg !2474
  %add = fadd double %7, %conv12, !dbg !2475
  %9 = load [3 x double]*, [3 x double]** %maxs.addr, align 8, !dbg !2476
  %arrayidx13 = getelementptr inbounds [3 x double], [3 x double]* %9, i64 0, i64 0, !dbg !2476
  store double %add, double* %arrayidx13, align 8, !dbg !2477
  %10 = load [3 x double]*, [3 x double]** %mins.addr, align 8, !dbg !2478
  %arrayidx14 = getelementptr inbounds [3 x double], [3 x double]* %10, i64 0, i64 1, !dbg !2478
  %11 = load double, double* %arrayidx14, align 8, !dbg !2478
  %Lengths15 = getelementptr inbounds %"struct.pov::Bounding_Box_Struct", %"struct.pov::Bounding_Box_Struct"* %BBox, i32 0, i32 1, !dbg !2479
  %arrayidx16 = getelementptr inbounds [3 x float], [3 x float]* %Lengths15, i64 0, i64 1, !dbg !2480
  %12 = load float, float* %arrayidx16, align 4, !dbg !2480
  %conv17 = fpext float %12 to double, !dbg !2480
  %add18 = fadd double %11, %conv17, !dbg !2481
  %13 = load [3 x double]*, [3 x double]** %maxs.addr, align 8, !dbg !2482
  %arrayidx19 = getelementptr inbounds [3 x double], [3 x double]* %13, i64 0, i64 1, !dbg !2482
  store double %add18, double* %arrayidx19, align 8, !dbg !2483
  %14 = load [3 x double]*, [3 x double]** %mins.addr, align 8, !dbg !2484
  %arrayidx20 = getelementptr inbounds [3 x double], [3 x double]* %14, i64 0, i64 2, !dbg !2484
  %15 = load double, double* %arrayidx20, align 8, !dbg !2484
  %Lengths21 = getelementptr inbounds %"struct.pov::Bounding_Box_Struct", %"struct.pov::Bounding_Box_Struct"* %BBox, i32 0, i32 1, !dbg !2485
  %arrayidx22 = getelementptr inbounds [3 x float], [3 x float]* %Lengths21, i64 0, i64 2, !dbg !2486
  %16 = load float, float* %arrayidx22, align 4, !dbg !2486
  %conv23 = fpext float %16 to double, !dbg !2486
  %add24 = fadd double %15, %conv23, !dbg !2487
  %17 = load [3 x double]*, [3 x double]** %maxs.addr, align 8, !dbg !2488
  %arrayidx25 = getelementptr inbounds [3 x double], [3 x double]* %17, i64 0, i64 2, !dbg !2488
  store double %add24, double* %arrayidx25, align 8, !dbg !2489
  ret void, !dbg !2490
}

; Function Attrs: argmemonly nounwind willreturn
declare void @llvm.memcpy.p0i8.p0i8.i64(i8* noalias nocapture writeonly, i8* noalias nocapture readonly, i64, i1 immarg) #4

; Function Attrs: noinline nounwind uwtable
define linkonce_odr dso_local dereferenceable(8) double* @_ZSt3maxIdERKT_S2_S2_(double* dereferenceable(8) %__a, double* dereferenceable(8) %__b) #3 comdat !dbg !2491 {
entry:
  %retval = alloca double*, align 8
  %__a.addr = alloca double*, align 8
  %__b.addr = alloca double*, align 8
  store double* %__a, double** %__a.addr, align 8
  call void @llvm.dbg.declare(metadata double** %__a.addr, metadata !2499, metadata !DIExpression()), !dbg !2501
  store double* %__b, double** %__b.addr, align 8
  call void @llvm.dbg.declare(metadata double** %__b.addr, metadata !2502, metadata !DIExpression()), !dbg !2503
  %0 = load double*, double** %__a.addr, align 8, !dbg !2504
  %1 = load double, double* %0, align 8, !dbg !2504
  %2 = load double*, double** %__b.addr, align 8, !dbg !2506
  %3 = load double, double* %2, align 8, !dbg !2506
  %cmp = fcmp olt double %1, %3, !dbg !2507
  br i1 %cmp, label %if.then, label %if.end, !dbg !2508

if.then:                                          ; preds = %entry
  %4 = load double*, double** %__b.addr, align 8, !dbg !2509
  store double* %4, double** %retval, align 8, !dbg !2510
  br label %return, !dbg !2510

if.end:                                           ; preds = %entry
  %5 = load double*, double** %__a.addr, align 8, !dbg !2511
  store double* %5, double** %retval, align 8, !dbg !2512
  br label %return, !dbg !2512

return:                                           ; preds = %if.end, %if.then
  %6 = load double*, double** %retval, align 8, !dbg !2513
  ret double* %6, !dbg !2513
}

; Function Attrs: noinline nounwind uwtable
define linkonce_odr dso_local dereferenceable(8) double* @_ZSt3minIdERKT_S2_S2_(double* dereferenceable(8) %__a, double* dereferenceable(8) %__b) #3 comdat !dbg !2514 {
entry:
  %retval = alloca double*, align 8
  %__a.addr = alloca double*, align 8
  %__b.addr = alloca double*, align 8
  store double* %__a, double** %__a.addr, align 8
  call void @llvm.dbg.declare(metadata double** %__a.addr, metadata !2515, metadata !DIExpression()), !dbg !2516
  store double* %__b, double** %__b.addr, align 8
  call void @llvm.dbg.declare(metadata double** %__b.addr, metadata !2517, metadata !DIExpression()), !dbg !2518
  %0 = load double*, double** %__b.addr, align 8, !dbg !2519
  %1 = load double, double* %0, align 8, !dbg !2519
  %2 = load double*, double** %__a.addr, align 8, !dbg !2521
  %3 = load double, double* %2, align 8, !dbg !2521
  %cmp = fcmp olt double %1, %3, !dbg !2522
  br i1 %cmp, label %if.then, label %if.end, !dbg !2523

if.then:                                          ; preds = %entry
  %4 = load double*, double** %__b.addr, align 8, !dbg !2524
  store double* %4, double** %retval, align 8, !dbg !2525
  br label %return, !dbg !2525

if.end:                                           ; preds = %entry
  %5 = load double*, double** %__a.addr, align 8, !dbg !2526
  store double* %5, double** %retval, align 8, !dbg !2527
  br label %return, !dbg !2527

return:                                           ; preds = %if.end, %if.then
  %6 = load double*, double** %retval, align 8, !dbg !2528
  ret double* %6, !dbg !2528
}

; Function Attrs: noinline nounwind uwtable
define linkonce_odr dso_local void @_ZN3pov13Assign_VectorEPdS0_(double* %d, double* %s) #3 comdat !dbg !2529 {
entry:
  %d.addr = alloca double*, align 8
  %s.addr = alloca double*, align 8
  store double* %d, double** %d.addr, align 8
  call void @llvm.dbg.declare(metadata double** %d.addr, metadata !2532, metadata !DIExpression()), !dbg !2533
  store double* %s, double** %s.addr, align 8
  call void @llvm.dbg.declare(metadata double** %s.addr, metadata !2534, metadata !DIExpression()), !dbg !2535
  %0 = load double*, double** %s.addr, align 8, !dbg !2536
  %arrayidx = getelementptr inbounds double, double* %0, i64 0, !dbg !2536
  %1 = load double, double* %arrayidx, align 8, !dbg !2536
  %2 = load double*, double** %d.addr, align 8, !dbg !2537
  %arrayidx1 = getelementptr inbounds double, double* %2, i64 0, !dbg !2537
  store double %1, double* %arrayidx1, align 8, !dbg !2538
  %3 = load double*, double** %s.addr, align 8, !dbg !2539
  %arrayidx2 = getelementptr inbounds double, double* %3, i64 1, !dbg !2539
  %4 = load double, double* %arrayidx2, align 8, !dbg !2539
  %5 = load double*, double** %d.addr, align 8, !dbg !2540
  %arrayidx3 = getelementptr inbounds double, double* %5, i64 1, !dbg !2540
  store double %4, double* %arrayidx3, align 8, !dbg !2541
  %6 = load double*, double** %s.addr, align 8, !dbg !2542
  %arrayidx4 = getelementptr inbounds double, double* %6, i64 2, !dbg !2542
  %7 = load double, double* %arrayidx4, align 8, !dbg !2542
  %8 = load double*, double** %d.addr, align 8, !dbg !2543
  %arrayidx5 = getelementptr inbounds double, double* %8, i64 2, !dbg !2543
  store double %7, double* %arrayidx5, align 8, !dbg !2544
  ret void, !dbg !2545
}

declare dso_local void @_ZN3pov20Compute_Quadric_BBoxEPNS_14Quadric_StructEPdS2_(%"struct.pov::Quadric_Struct"*, double*, double*) #1

declare dso_local void @_ZN3pov8pov_freeEPvPKci(i8*, i8*, i32) #1

declare dso_local i32 @_ZN3pov7WarningEjPKcz(i32, i8*, ...) #1

; Function Attrs: noinline nounwind uwtable
define linkonce_odr dso_local void @_ZN3pov13BOUNDS_VOLUMEERdRKNS_19Bounding_Box_StructE(double* dereferenceable(8) %a, %"struct.pov::Bounding_Box_Struct"* dereferenceable(24) %b) #3 comdat !dbg !2546 {
entry:
  %a.addr = alloca double*, align 8
  %b.addr = alloca %"struct.pov::Bounding_Box_Struct"*, align 8
  store double* %a, double** %a.addr, align 8
  call void @llvm.dbg.declare(metadata double** %a.addr, metadata !2552, metadata !DIExpression()), !dbg !2553
  store %"struct.pov::Bounding_Box_Struct"* %b, %"struct.pov::Bounding_Box_Struct"** %b.addr, align 8
  call void @llvm.dbg.declare(metadata %"struct.pov::Bounding_Box_Struct"** %b.addr, metadata !2554, metadata !DIExpression()), !dbg !2555
  %0 = load %"struct.pov::Bounding_Box_Struct"*, %"struct.pov::Bounding_Box_Struct"** %b.addr, align 8, !dbg !2556
  %Lengths = getelementptr inbounds %"struct.pov::Bounding_Box_Struct", %"struct.pov::Bounding_Box_Struct"* %0, i32 0, i32 1, !dbg !2557
  %arrayidx = getelementptr inbounds [3 x float], [3 x float]* %Lengths, i64 0, i64 0, !dbg !2556
  %1 = load float, float* %arrayidx, align 4, !dbg !2556
  %2 = load %"struct.pov::Bounding_Box_Struct"*, %"struct.pov::Bounding_Box_Struct"** %b.addr, align 8, !dbg !2558
  %Lengths1 = getelementptr inbounds %"struct.pov::Bounding_Box_Struct", %"struct.pov::Bounding_Box_Struct"* %2, i32 0, i32 1, !dbg !2559
  %arrayidx2 = getelementptr inbounds [3 x float], [3 x float]* %Lengths1, i64 0, i64 1, !dbg !2558
  %3 = load float, float* %arrayidx2, align 4, !dbg !2558
  %mul = fmul float %1, %3, !dbg !2560
  %4 = load %"struct.pov::Bounding_Box_Struct"*, %"struct.pov::Bounding_Box_Struct"** %b.addr, align 8, !dbg !2561
  %Lengths3 = getelementptr inbounds %"struct.pov::Bounding_Box_Struct", %"struct.pov::Bounding_Box_Struct"* %4, i32 0, i32 1, !dbg !2562
  %arrayidx4 = getelementptr inbounds [3 x float], [3 x float]* %Lengths3, i64 0, i64 2, !dbg !2561
  %5 = load float, float* %arrayidx4, align 4, !dbg !2561
  %mul5 = fmul float %mul, %5, !dbg !2563
  %conv = fpext float %mul5 to double, !dbg !2556
  %6 = load double*, double** %a.addr, align 8, !dbg !2564
  store double %conv, double* %6, align 8, !dbg !2565
  ret void, !dbg !2566
}

; Function Attrs: noinline nounwind uwtable
define linkonce_odr dso_local void @_ZN3pov22Make_BBox_from_min_maxERNS_19Bounding_Box_StructEPdS2_(%"struct.pov::Bounding_Box_Struct"* dereferenceable(24) %BBox, double* %mins, double* %maxs) #3 comdat !dbg !2567 {
entry:
  %BBox.addr = alloca %"struct.pov::Bounding_Box_Struct"*, align 8
  %mins.addr = alloca double*, align 8
  %maxs.addr = alloca double*, align 8
  store %"struct.pov::Bounding_Box_Struct"* %BBox, %"struct.pov::Bounding_Box_Struct"** %BBox.addr, align 8
  call void @llvm.dbg.declare(metadata %"struct.pov::Bounding_Box_Struct"** %BBox.addr, metadata !2570, metadata !DIExpression()), !dbg !2571
  store double* %mins, double** %mins.addr, align 8
  call void @llvm.dbg.declare(metadata double** %mins.addr, metadata !2572, metadata !DIExpression()), !dbg !2573
  store double* %maxs, double** %maxs.addr, align 8
  call void @llvm.dbg.declare(metadata double** %maxs.addr, metadata !2574, metadata !DIExpression()), !dbg !2575
  %0 = load double*, double** %mins.addr, align 8, !dbg !2576
  %arrayidx = getelementptr inbounds double, double* %0, i64 0, !dbg !2576
  %1 = load double, double* %arrayidx, align 8, !dbg !2576
  %conv = fptrunc double %1 to float, !dbg !2577
  %2 = load %"struct.pov::Bounding_Box_Struct"*, %"struct.pov::Bounding_Box_Struct"** %BBox.addr, align 8, !dbg !2578
  %Lower_Left = getelementptr inbounds %"struct.pov::Bounding_Box_Struct", %"struct.pov::Bounding_Box_Struct"* %2, i32 0, i32 0, !dbg !2579
  %arrayidx1 = getelementptr inbounds [3 x float], [3 x float]* %Lower_Left, i64 0, i64 0, !dbg !2578
  store float %conv, float* %arrayidx1, align 4, !dbg !2580
  %3 = load double*, double** %mins.addr, align 8, !dbg !2581
  %arrayidx2 = getelementptr inbounds double, double* %3, i64 1, !dbg !2581
  %4 = load double, double* %arrayidx2, align 8, !dbg !2581
  %conv3 = fptrunc double %4 to float, !dbg !2582
  %5 = load %"struct.pov::Bounding_Box_Struct"*, %"struct.pov::Bounding_Box_Struct"** %BBox.addr, align 8, !dbg !2583
  %Lower_Left4 = getelementptr inbounds %"struct.pov::Bounding_Box_Struct", %"struct.pov::Bounding_Box_Struct"* %5, i32 0, i32 0, !dbg !2584
  %arrayidx5 = getelementptr inbounds [3 x float], [3 x float]* %Lower_Left4, i64 0, i64 1, !dbg !2583
  store float %conv3, float* %arrayidx5, align 4, !dbg !2585
  %6 = load double*, double** %mins.addr, align 8, !dbg !2586
  %arrayidx6 = getelementptr inbounds double, double* %6, i64 2, !dbg !2586
  %7 = load double, double* %arrayidx6, align 8, !dbg !2586
  %conv7 = fptrunc double %7 to float, !dbg !2587
  %8 = load %"struct.pov::Bounding_Box_Struct"*, %"struct.pov::Bounding_Box_Struct"** %BBox.addr, align 8, !dbg !2588
  %Lower_Left8 = getelementptr inbounds %"struct.pov::Bounding_Box_Struct", %"struct.pov::Bounding_Box_Struct"* %8, i32 0, i32 0, !dbg !2589
  %arrayidx9 = getelementptr inbounds [3 x float], [3 x float]* %Lower_Left8, i64 0, i64 2, !dbg !2588
  store float %conv7, float* %arrayidx9, align 4, !dbg !2590
  %9 = load double*, double** %maxs.addr, align 8, !dbg !2591
  %arrayidx10 = getelementptr inbounds double, double* %9, i64 0, !dbg !2591
  %10 = load double, double* %arrayidx10, align 8, !dbg !2591
  %11 = load double*, double** %mins.addr, align 8, !dbg !2592
  %arrayidx11 = getelementptr inbounds double, double* %11, i64 0, !dbg !2592
  %12 = load double, double* %arrayidx11, align 8, !dbg !2592
  %sub = fsub double %10, %12, !dbg !2593
  %conv12 = fptrunc double %sub to float, !dbg !2594
  %13 = load %"struct.pov::Bounding_Box_Struct"*, %"struct.pov::Bounding_Box_Struct"** %BBox.addr, align 8, !dbg !2595
  %Lengths = getelementptr inbounds %"struct.pov::Bounding_Box_Struct", %"struct.pov::Bounding_Box_Struct"* %13, i32 0, i32 1, !dbg !2596
  %arrayidx13 = getelementptr inbounds [3 x float], [3 x float]* %Lengths, i64 0, i64 0, !dbg !2595
  store float %conv12, float* %arrayidx13, align 4, !dbg !2597
  %14 = load double*, double** %maxs.addr, align 8, !dbg !2598
  %arrayidx14 = getelementptr inbounds double, double* %14, i64 1, !dbg !2598
  %15 = load double, double* %arrayidx14, align 8, !dbg !2598
  %16 = load double*, double** %mins.addr, align 8, !dbg !2599
  %arrayidx15 = getelementptr inbounds double, double* %16, i64 1, !dbg !2599
  %17 = load double, double* %arrayidx15, align 8, !dbg !2599
  %sub16 = fsub double %15, %17, !dbg !2600
  %conv17 = fptrunc double %sub16 to float, !dbg !2601
  %18 = load %"struct.pov::Bounding_Box_Struct"*, %"struct.pov::Bounding_Box_Struct"** %BBox.addr, align 8, !dbg !2602
  %Lengths18 = getelementptr inbounds %"struct.pov::Bounding_Box_Struct", %"struct.pov::Bounding_Box_Struct"* %18, i32 0, i32 1, !dbg !2603
  %arrayidx19 = getelementptr inbounds [3 x float], [3 x float]* %Lengths18, i64 0, i64 1, !dbg !2602
  store float %conv17, float* %arrayidx19, align 4, !dbg !2604
  %19 = load double*, double** %maxs.addr, align 8, !dbg !2605
  %arrayidx20 = getelementptr inbounds double, double* %19, i64 2, !dbg !2605
  %20 = load double, double* %arrayidx20, align 8, !dbg !2605
  %21 = load double*, double** %mins.addr, align 8, !dbg !2606
  %arrayidx21 = getelementptr inbounds double, double* %21, i64 2, !dbg !2606
  %22 = load double, double* %arrayidx21, align 8, !dbg !2606
  %sub22 = fsub double %20, %22, !dbg !2607
  %conv23 = fptrunc double %sub22 to float, !dbg !2608
  %23 = load %"struct.pov::Bounding_Box_Struct"*, %"struct.pov::Bounding_Box_Struct"** %BBox.addr, align 8, !dbg !2609
  %Lengths24 = getelementptr inbounds %"struct.pov::Bounding_Box_Struct", %"struct.pov::Bounding_Box_Struct"* %23, i32 0, i32 1, !dbg !2610
  %arrayidx25 = getelementptr inbounds [3 x float], [3 x float]* %Lengths24, i64 0, i64 2, !dbg !2609
  store float %conv23, float* %arrayidx25, align 4, !dbg !2611
  ret void, !dbg !2612
}

; Function Attrs: noinline uwtable
define dso_local void @_ZN3pov22Determine_CSG_TexturesEPNS_10CSG_StructEPdPiPPNS_14Texture_StructES2_(%"struct.pov::CSG_Struct"* %Csg, double* %IPoint, i32* %Count, %"struct.pov::Texture_Struct"** %Textures, double* %Weights) #0 !dbg !2613 {
entry:
  %Csg.addr = alloca %"struct.pov::CSG_Struct"*, align 8
  %IPoint.addr = alloca double*, align 8
  %Count.addr = alloca i32*, align 8
  %Textures.addr = alloca %"struct.pov::Texture_Struct"**, align 8
  %Weights.addr = alloca double*, align 8
  %i = alloca i32, align 4
  %weight = alloca double, align 8
  store %"struct.pov::CSG_Struct"* %Csg, %"struct.pov::CSG_Struct"** %Csg.addr, align 8
  call void @llvm.dbg.declare(metadata %"struct.pov::CSG_Struct"** %Csg.addr, metadata !2617, metadata !DIExpression()), !dbg !2618
  store double* %IPoint, double** %IPoint.addr, align 8
  call void @llvm.dbg.declare(metadata double** %IPoint.addr, metadata !2619, metadata !DIExpression()), !dbg !2620
  store i32* %Count, i32** %Count.addr, align 8
  call void @llvm.dbg.declare(metadata i32** %Count.addr, metadata !2621, metadata !DIExpression()), !dbg !2622
  store %"struct.pov::Texture_Struct"** %Textures, %"struct.pov::Texture_Struct"*** %Textures.addr, align 8
  call void @llvm.dbg.declare(metadata %"struct.pov::Texture_Struct"*** %Textures.addr, metadata !2623, metadata !DIExpression()), !dbg !2624
  store double* %Weights, double** %Weights.addr, align 8
  call void @llvm.dbg.declare(metadata double** %Weights.addr, metadata !2625, metadata !DIExpression()), !dbg !2626
  call void @llvm.dbg.declare(metadata i32* %i, metadata !2627, metadata !DIExpression()), !dbg !2628
  call void @llvm.dbg.declare(metadata double* %weight, metadata !2629, metadata !DIExpression()), !dbg !2630
  %0 = load i32*, i32** %Count.addr, align 8, !dbg !2631
  store i32 0, i32* %0, align 4, !dbg !2632
  %1 = load %"struct.pov::CSG_Struct"*, %"struct.pov::CSG_Struct"** %Csg.addr, align 8, !dbg !2633
  %2 = load double*, double** %IPoint.addr, align 8, !dbg !2634
  %3 = load i32*, i32** %Count.addr, align 8, !dbg !2635
  call void @_ZN3povL17Find_CSG_TexturesEPNS_10CSG_StructEPdPiPPNS_14Texture_StructE(%"struct.pov::CSG_Struct"* %1, double* %2, i32* %3, %"struct.pov::Texture_Struct"** null), !dbg !2636
  %4 = load i32*, i32** %Count.addr, align 8, !dbg !2637
  %5 = load i32, i32* %4, align 4, !dbg !2639
  %cmp = icmp eq i32 %5, 0, !dbg !2640
  br i1 %cmp, label %if.then, label %if.end, !dbg !2641

if.then:                                          ; preds = %entry
  %call = call i32 (i8*, ...) @_ZN3pov5ErrorEPKcz(i8* getelementptr inbounds ([41 x i8], [41 x i8]* @.str.6, i64 0, i64 0)), !dbg !2642
  br label %if.end, !dbg !2644

if.end:                                           ; preds = %if.then, %entry
  %6 = load i32*, i32** %Count.addr, align 8, !dbg !2645
  %7 = load i32, i32* %6, align 4, !dbg !2646
  call void @_ZN3pov26Reinitialize_Lighting_CodeEiPPPNS_14Texture_StructEPPd(i32 %7, %"struct.pov::Texture_Struct"*** %Textures.addr, double** %Weights.addr), !dbg !2647
  %8 = load i32*, i32** %Count.addr, align 8, !dbg !2648
  %9 = load i32, i32* %8, align 4, !dbg !2649
  %conv = sitofp i32 %9 to double, !dbg !2650
  %div = fdiv double 1.000000e+00, %conv, !dbg !2651
  store double %div, double* %weight, align 8, !dbg !2652
  store i32 0, i32* %i, align 4, !dbg !2653
  %10 = load %"struct.pov::CSG_Struct"*, %"struct.pov::CSG_Struct"** %Csg.addr, align 8, !dbg !2654
  %11 = load double*, double** %IPoint.addr, align 8, !dbg !2655
  %12 = load %"struct.pov::Texture_Struct"**, %"struct.pov::Texture_Struct"*** %Textures.addr, align 8, !dbg !2656
  call void @_ZN3povL17Find_CSG_TexturesEPNS_10CSG_StructEPdPiPPNS_14Texture_StructE(%"struct.pov::CSG_Struct"* %10, double* %11, i32* %i, %"struct.pov::Texture_Struct"** %12), !dbg !2657
  store i32 0, i32* %i, align 4, !dbg !2658
  br label %for.cond, !dbg !2660

for.cond:                                         ; preds = %for.inc, %if.end
  %13 = load i32, i32* %i, align 4, !dbg !2661
  %14 = load i32*, i32** %Count.addr, align 8, !dbg !2663
  %15 = load i32, i32* %14, align 4, !dbg !2664
  %cmp1 = icmp slt i32 %13, %15, !dbg !2665
  br i1 %cmp1, label %for.body, label %for.end, !dbg !2666

for.body:                                         ; preds = %for.cond
  %16 = load double, double* %weight, align 8, !dbg !2667
  %17 = load double*, double** %Weights.addr, align 8, !dbg !2669
  %18 = load i32, i32* %i, align 4, !dbg !2670
  %idxprom = sext i32 %18 to i64, !dbg !2669
  %arrayidx = getelementptr inbounds double, double* %17, i64 %idxprom, !dbg !2669
  store double %16, double* %arrayidx, align 8, !dbg !2671
  br label %for.inc, !dbg !2672

for.inc:                                          ; preds = %for.body
  %19 = load i32, i32* %i, align 4, !dbg !2673
  %inc = add nsw i32 %19, 1, !dbg !2673
  store i32 %inc, i32* %i, align 4, !dbg !2673
  br label %for.cond, !dbg !2674, !llvm.loop !2675

for.end:                                          ; preds = %for.cond
  ret void, !dbg !2677
}

; Function Attrs: noinline uwtable
define internal void @_ZN3povL17Find_CSG_TexturesEPNS_10CSG_StructEPdPiPPNS_14Texture_StructE(%"struct.pov::CSG_Struct"* %Csg, double* %IPoint, i32* %Number, %"struct.pov::Texture_Struct"** %Textures) #0 !dbg !2678 {
entry:
  %Csg.addr = alloca %"struct.pov::CSG_Struct"*, align 8
  %IPoint.addr = alloca double*, align 8
  %Number.addr = alloca i32*, align 8
  %Textures.addr = alloca %"struct.pov::Texture_Struct"**, align 8
  %Sib = alloca %"struct.pov::Object_Struct"*, align 8
  store %"struct.pov::CSG_Struct"* %Csg, %"struct.pov::CSG_Struct"** %Csg.addr, align 8
  call void @llvm.dbg.declare(metadata %"struct.pov::CSG_Struct"** %Csg.addr, metadata !2681, metadata !DIExpression()), !dbg !2682
  store double* %IPoint, double** %IPoint.addr, align 8
  call void @llvm.dbg.declare(metadata double** %IPoint.addr, metadata !2683, metadata !DIExpression()), !dbg !2684
  store i32* %Number, i32** %Number.addr, align 8
  call void @llvm.dbg.declare(metadata i32** %Number.addr, metadata !2685, metadata !DIExpression()), !dbg !2686
  store %"struct.pov::Texture_Struct"** %Textures, %"struct.pov::Texture_Struct"*** %Textures.addr, align 8
  call void @llvm.dbg.declare(metadata %"struct.pov::Texture_Struct"*** %Textures.addr, metadata !2687, metadata !DIExpression()), !dbg !2688
  call void @llvm.dbg.declare(metadata %"struct.pov::Object_Struct"** %Sib, metadata !2689, metadata !DIExpression()), !dbg !2690
  %0 = load %"struct.pov::CSG_Struct"*, %"struct.pov::CSG_Struct"** %Csg.addr, align 8, !dbg !2691
  %Children = getelementptr inbounds %"struct.pov::CSG_Struct", %"struct.pov::CSG_Struct"* %0, i32 0, i32 14, !dbg !2693
  %1 = load %"struct.pov::Object_Struct"*, %"struct.pov::Object_Struct"** %Children, align 8, !dbg !2693
  store %"struct.pov::Object_Struct"* %1, %"struct.pov::Object_Struct"** %Sib, align 8, !dbg !2694
  br label %for.cond, !dbg !2695

for.cond:                                         ; preds = %for.inc, %entry
  %2 = load %"struct.pov::Object_Struct"*, %"struct.pov::Object_Struct"** %Sib, align 8, !dbg !2696
  %cmp = icmp ne %"struct.pov::Object_Struct"* %2, null, !dbg !2698
  br i1 %cmp, label %for.body, label %for.end, !dbg !2699

for.body:                                         ; preds = %for.cond
  %3 = load %"struct.pov::CSG_Struct"*, %"struct.pov::CSG_Struct"** %Csg.addr, align 8, !dbg !2700
  %Type = getelementptr inbounds %"struct.pov::CSG_Struct", %"struct.pov::CSG_Struct"* %3, i32 0, i32 1, !dbg !2703
  %4 = load i32, i32* %Type, align 8, !dbg !2703
  %and = and i32 %4, 8192, !dbg !2704
  %tobool = icmp ne i32 %and, 0, !dbg !2705
  br i1 %tobool, label %lor.lhs.false, label %if.then, !dbg !2706

lor.lhs.false:                                    ; preds = %for.body
  %5 = load %"struct.pov::Object_Struct"*, %"struct.pov::Object_Struct"** %Sib, align 8, !dbg !2707
  %Sibling = getelementptr inbounds %"struct.pov::Object_Struct", %"struct.pov::Object_Struct"* %5, i32 0, i32 2, !dbg !2708
  %6 = load %"struct.pov::Object_Struct"*, %"struct.pov::Object_Struct"** %Sibling, align 8, !dbg !2708
  %cmp1 = icmp eq %"struct.pov::Object_Struct"* %6, null, !dbg !2709
  br i1 %cmp1, label %if.then, label %if.end15, !dbg !2710

if.then:                                          ; preds = %lor.lhs.false, %for.body
  %7 = load double*, double** %IPoint.addr, align 8, !dbg !2711
  %8 = load %"struct.pov::Object_Struct"*, %"struct.pov::Object_Struct"** %Sib, align 8, !dbg !2714
  %call = call zeroext i1 @_ZN3pov13Inside_ObjectEPdPNS_13Object_StructE(double* %7, %"struct.pov::Object_Struct"* %8), !dbg !2715
  br i1 %call, label %if.then2, label %if.end14, !dbg !2716

if.then2:                                         ; preds = %if.then
  %9 = load %"struct.pov::Object_Struct"*, %"struct.pov::Object_Struct"** %Sib, align 8, !dbg !2717
  %Type3 = getelementptr inbounds %"struct.pov::Object_Struct", %"struct.pov::Object_Struct"* %9, i32 0, i32 1, !dbg !2720
  %10 = load i32, i32* %Type3, align 8, !dbg !2720
  %and4 = and i32 %10, 4, !dbg !2721
  %tobool5 = icmp ne i32 %and4, 0, !dbg !2717
  br i1 %tobool5, label %if.then6, label %if.else, !dbg !2722

if.then6:                                         ; preds = %if.then2
  %11 = load %"struct.pov::Object_Struct"*, %"struct.pov::Object_Struct"** %Sib, align 8, !dbg !2723
  %12 = bitcast %"struct.pov::Object_Struct"* %11 to %"struct.pov::CSG_Struct"*, !dbg !2725
  %13 = load double*, double** %IPoint.addr, align 8, !dbg !2726
  %14 = load i32*, i32** %Number.addr, align 8, !dbg !2727
  %15 = load %"struct.pov::Texture_Struct"**, %"struct.pov::Texture_Struct"*** %Textures.addr, align 8, !dbg !2728
  call void @_ZN3povL17Find_CSG_TexturesEPNS_10CSG_StructEPdPiPPNS_14Texture_StructE(%"struct.pov::CSG_Struct"* %12, double* %13, i32* %14, %"struct.pov::Texture_Struct"** %15), !dbg !2729
  br label %if.end13, !dbg !2730

if.else:                                          ; preds = %if.then2
  %16 = load %"struct.pov::Object_Struct"*, %"struct.pov::Object_Struct"** %Sib, align 8, !dbg !2731
  %Texture = getelementptr inbounds %"struct.pov::Object_Struct", %"struct.pov::Object_Struct"* %16, i32 0, i32 3, !dbg !2733
  %17 = load %"struct.pov::Texture_Struct"*, %"struct.pov::Texture_Struct"** %Texture, align 8, !dbg !2733
  %tobool7 = icmp ne %"struct.pov::Texture_Struct"* %17, null, !dbg !2731
  br i1 %tobool7, label %if.then8, label %if.end12, !dbg !2734

if.then8:                                         ; preds = %if.else
  %18 = load %"struct.pov::Texture_Struct"**, %"struct.pov::Texture_Struct"*** %Textures.addr, align 8, !dbg !2735
  %tobool9 = icmp ne %"struct.pov::Texture_Struct"** %18, null, !dbg !2735
  br i1 %tobool9, label %if.then10, label %if.end, !dbg !2738

if.then10:                                        ; preds = %if.then8
  %19 = load %"struct.pov::Object_Struct"*, %"struct.pov::Object_Struct"** %Sib, align 8, !dbg !2739
  %Texture11 = getelementptr inbounds %"struct.pov::Object_Struct", %"struct.pov::Object_Struct"* %19, i32 0, i32 3, !dbg !2740
  %20 = load %"struct.pov::Texture_Struct"*, %"struct.pov::Texture_Struct"** %Texture11, align 8, !dbg !2740
  %21 = load %"struct.pov::Texture_Struct"**, %"struct.pov::Texture_Struct"*** %Textures.addr, align 8, !dbg !2741
  %22 = load i32*, i32** %Number.addr, align 8, !dbg !2742
  %23 = load i32, i32* %22, align 4, !dbg !2743
  %idxprom = sext i32 %23 to i64, !dbg !2741
  %arrayidx = getelementptr inbounds %"struct.pov::Texture_Struct"*, %"struct.pov::Texture_Struct"** %21, i64 %idxprom, !dbg !2741
  store %"struct.pov::Texture_Struct"* %20, %"struct.pov::Texture_Struct"** %arrayidx, align 8, !dbg !2744
  br label %if.end, !dbg !2741

if.end:                                           ; preds = %if.then10, %if.then8
  %24 = load i32*, i32** %Number.addr, align 8, !dbg !2745
  %25 = load i32, i32* %24, align 4, !dbg !2746
  %inc = add nsw i32 %25, 1, !dbg !2746
  store i32 %inc, i32* %24, align 4, !dbg !2746
  br label %if.end12, !dbg !2747

if.end12:                                         ; preds = %if.end, %if.else
  br label %if.end13

if.end13:                                         ; preds = %if.end12, %if.then6
  br label %if.end14, !dbg !2748

if.end14:                                         ; preds = %if.end13, %if.then
  br label %if.end15, !dbg !2749

if.end15:                                         ; preds = %if.end14, %lor.lhs.false
  br label %for.inc, !dbg !2750

for.inc:                                          ; preds = %if.end15
  %26 = load %"struct.pov::Object_Struct"*, %"struct.pov::Object_Struct"** %Sib, align 8, !dbg !2751
  %Sibling16 = getelementptr inbounds %"struct.pov::Object_Struct", %"struct.pov::Object_Struct"* %26, i32 0, i32 2, !dbg !2752
  %27 = load %"struct.pov::Object_Struct"*, %"struct.pov::Object_Struct"** %Sibling16, align 8, !dbg !2752
  store %"struct.pov::Object_Struct"* %27, %"struct.pov::Object_Struct"** %Sib, align 8, !dbg !2753
  br label %for.cond, !dbg !2754, !llvm.loop !2755

for.end:                                          ; preds = %for.cond
  ret void, !dbg !2757
}

declare dso_local i32 @_ZN3pov5ErrorEPKcz(i8*, ...) #1

declare dso_local void @_ZN3pov26Reinitialize_Lighting_CodeEiPPPNS_14Texture_StructEPPd(i32, %"struct.pov::Texture_Struct"***, double**) #1

; Function Attrs: noinline nounwind uwtable
define linkonce_odr dso_local void @_ZN3pov16Increase_CounterERx(i64* dereferenceable(8) %x) #3 comdat !dbg !2758 {
entry:
  %x.addr = alloca i64*, align 8
  store i64* %x, i64** %x.addr, align 8
  call void @llvm.dbg.declare(metadata i64** %x.addr, metadata !2763, metadata !DIExpression()), !dbg !2764
  %0 = load i64*, i64** %x.addr, align 8, !dbg !2765
  %1 = load i64, i64* %0, align 8, !dbg !2766
  %inc = add nsw i64 %1, 1, !dbg !2766
  store i64 %inc, i64* %0, align 8, !dbg !2766
  ret void, !dbg !2767
}

declare dso_local zeroext i1 @_ZN3pov12Ray_In_BoundEPNS_10Ray_StructEPNS_13Object_StructE(%"struct.pov::Ray_Struct"*, %"struct.pov::Object_Struct"*) #1

declare dso_local %"struct.pov::istack_struct"* @_ZN3pov11open_istackEv() #1

; Function Attrs: noinline nounwind uwtable
define linkonce_odr dso_local %"struct.pov::istk_entry"* @_ZN3pov9pop_entryEPNS_13istack_structE(%"struct.pov::istack_struct"* %i) #3 comdat !dbg !2768 {
entry:
  %i.addr = alloca %"struct.pov::istack_struct"*, align 8
  store %"struct.pov::istack_struct"* %i, %"struct.pov::istack_struct"** %i.addr, align 8
  call void @llvm.dbg.declare(metadata %"struct.pov::istack_struct"** %i.addr, metadata !2771, metadata !DIExpression()), !dbg !2772
  %0 = load %"struct.pov::istack_struct"*, %"struct.pov::istack_struct"** %i.addr, align 8, !dbg !2773
  %top_entry = getelementptr inbounds %"struct.pov::istack_struct", %"struct.pov::istack_struct"* %0, i32 0, i32 3, !dbg !2774
  %1 = load i32, i32* %top_entry, align 4, !dbg !2774
  %cmp = icmp ugt i32 %1, 0, !dbg !2775
  br i1 %cmp, label %cond.true, label %cond.false, !dbg !2776

cond.true:                                        ; preds = %entry
  %2 = load %"struct.pov::istack_struct"*, %"struct.pov::istack_struct"** %i.addr, align 8, !dbg !2777
  %istack = getelementptr inbounds %"struct.pov::istack_struct", %"struct.pov::istack_struct"* %2, i32 0, i32 1, !dbg !2778
  %3 = load %"struct.pov::istk_entry"*, %"struct.pov::istk_entry"** %istack, align 8, !dbg !2778
  %4 = load %"struct.pov::istack_struct"*, %"struct.pov::istack_struct"** %i.addr, align 8, !dbg !2779
  %top_entry1 = getelementptr inbounds %"struct.pov::istack_struct", %"struct.pov::istack_struct"* %4, i32 0, i32 3, !dbg !2780
  %5 = load i32, i32* %top_entry1, align 4, !dbg !2781
  %dec = add i32 %5, -1, !dbg !2781
  store i32 %dec, i32* %top_entry1, align 4, !dbg !2781
  %idxprom = zext i32 %dec to i64, !dbg !2777
  %arrayidx = getelementptr inbounds %"struct.pov::istk_entry", %"struct.pov::istk_entry"* %3, i64 %idxprom, !dbg !2777
  br label %cond.end, !dbg !2776

cond.false:                                       ; preds = %entry
  br label %cond.end, !dbg !2776

cond.end:                                         ; preds = %cond.false, %cond.true
  %cond = phi %"struct.pov::istk_entry"* [ %arrayidx, %cond.true ], [ null, %cond.false ], !dbg !2776
  ret %"struct.pov::istk_entry"* %cond, !dbg !2782
}

declare dso_local zeroext i1 @_ZN3pov13Point_In_ClipEPdPNS_13Object_StructE(double*, %"struct.pov::Object_Struct"*) #1

; Function Attrs: noinline uwtable
define linkonce_odr dso_local void @_ZN3pov9push_copyEPNS_13istack_structEPNS_10istk_entryE(%"struct.pov::istack_struct"* %i, %"struct.pov::istk_entry"* %e) #0 comdat !dbg !2783 {
entry:
  %i.addr = alloca %"struct.pov::istack_struct"*, align 8
  %e.addr = alloca %"struct.pov::istk_entry"*, align 8
  store %"struct.pov::istack_struct"* %i, %"struct.pov::istack_struct"** %i.addr, align 8
  call void @llvm.dbg.declare(metadata %"struct.pov::istack_struct"** %i.addr, metadata !2786, metadata !DIExpression()), !dbg !2787
  store %"struct.pov::istk_entry"* %e, %"struct.pov::istk_entry"** %e.addr, align 8
  call void @llvm.dbg.declare(metadata %"struct.pov::istk_entry"** %e.addr, metadata !2788, metadata !DIExpression()), !dbg !2789
  %0 = load %"struct.pov::istk_entry"*, %"struct.pov::istk_entry"** %e.addr, align 8, !dbg !2790
  %1 = load %"struct.pov::istack_struct"*, %"struct.pov::istack_struct"** %i.addr, align 8, !dbg !2791
  %call = call dereferenceable(200) %"struct.pov::istk_entry"* @_ZN3pov4itopEPNS_13istack_structE(%"struct.pov::istack_struct"* %1), !dbg !2792
  %2 = bitcast %"struct.pov::istk_entry"* %call to i8*, !dbg !2793
  %3 = bitcast %"struct.pov::istk_entry"* %0 to i8*, !dbg !2793
  call void @llvm.memcpy.p0i8.p0i8.i64(i8* align 8 %2, i8* align 8 %3, i64 200, i1 false), !dbg !2793
  %4 = load %"struct.pov::istack_struct"*, %"struct.pov::istack_struct"** %i.addr, align 8, !dbg !2794
  call void @_ZN3pov8incstackEPNS_13istack_structE(%"struct.pov::istack_struct"* %4), !dbg !2795
  ret void, !dbg !2796
}

declare dso_local void @_ZN3pov12close_istackEPNS_13istack_structE(%"struct.pov::istack_struct"*) #1

; Function Attrs: noinline nounwind uwtable
define linkonce_odr dso_local dereferenceable(200) %"struct.pov::istk_entry"* @_ZN3pov4itopEPNS_13istack_structE(%"struct.pov::istack_struct"* %i) #3 comdat !dbg !2797 {
entry:
  %i.addr = alloca %"struct.pov::istack_struct"*, align 8
  store %"struct.pov::istack_struct"* %i, %"struct.pov::istack_struct"** %i.addr, align 8
  call void @llvm.dbg.declare(metadata %"struct.pov::istack_struct"** %i.addr, metadata !2801, metadata !DIExpression()), !dbg !2802
  %0 = load %"struct.pov::istack_struct"*, %"struct.pov::istack_struct"** %i.addr, align 8, !dbg !2803
  %istack = getelementptr inbounds %"struct.pov::istack_struct", %"struct.pov::istack_struct"* %0, i32 0, i32 1, !dbg !2804
  %1 = load %"struct.pov::istk_entry"*, %"struct.pov::istk_entry"** %istack, align 8, !dbg !2804
  %2 = load %"struct.pov::istack_struct"*, %"struct.pov::istack_struct"** %i.addr, align 8, !dbg !2805
  %top_entry = getelementptr inbounds %"struct.pov::istack_struct", %"struct.pov::istack_struct"* %2, i32 0, i32 3, !dbg !2806
  %3 = load i32, i32* %top_entry, align 4, !dbg !2806
  %idxprom = zext i32 %3 to i64, !dbg !2803
  %arrayidx = getelementptr inbounds %"struct.pov::istk_entry", %"struct.pov::istk_entry"* %1, i64 %idxprom, !dbg !2803
  ret %"struct.pov::istk_entry"* %arrayidx, !dbg !2807
}

declare dso_local void @_ZN3pov8incstackEPNS_13istack_structE(%"struct.pov::istack_struct"*) #1

declare dso_local zeroext i1 @_ZN3pov13Inside_ObjectEPdPNS_13Object_StructE(double*, %"struct.pov::Object_Struct"*) #1

declare dso_local void @_ZN3pov16Translate_ObjectEPNS_13Object_StructEPdPNS_16Transform_StructE(%"struct.pov::Object_Struct"*, double*, %"struct.pov::Transform_Struct"*) #1

declare dso_local void @_ZN3pov14Recompute_BBoxEPNS_19Bounding_Box_StructEPNS_16Transform_StructE(%"struct.pov::Bounding_Box_Struct"*, %"struct.pov::Transform_Struct"*) #1

declare dso_local void @_ZN3pov13Rotate_ObjectEPNS_13Object_StructEPdPNS_16Transform_StructE(%"struct.pov::Object_Struct"*, double*, %"struct.pov::Transform_Struct"*) #1

declare dso_local void @_ZN3pov12Scale_ObjectEPNS_13Object_StructEPdPNS_16Transform_StructE(%"struct.pov::Object_Struct"*, double*, %"struct.pov::Transform_Struct"*) #1

declare dso_local void @_ZN3pov16Transform_ObjectEPNS_13Object_StructEPNS_16Transform_StructE(%"struct.pov::Object_Struct"*, %"struct.pov::Transform_Struct"*) #1

declare dso_local void @_ZN3pov13Invert_ObjectEPNS_13Object_StructE(%"struct.pov::Object_Struct"*) #1

declare dso_local %"struct.pov::Object_Struct"* @_ZN3pov11Copy_ObjectEPNS_13Object_StructE(%"struct.pov::Object_Struct"*) #1

declare dso_local void @_ZN3pov20Promote_Local_LightsEPNS_10CSG_StructE(%"struct.pov::CSG_Struct"*) #1

declare dso_local void @_ZN3pov14Destroy_ObjectEPNS_13Object_StructE(%"struct.pov::Object_Struct"*) #1

attributes #0 = { noinline uwtable "correctly-rounded-divide-sqrt-fp-math"="false" "disable-tail-calls"="false" "frame-pointer"="all" "less-precise-fpmad"="false" "min-legal-vector-width"="0" "no-infs-fp-math"="false" "no-jump-tables"="false" "no-nans-fp-math"="false" "no-signed-zeros-fp-math"="false" "no-trapping-math"="false" "stack-protector-buffer-size"="8" "target-cpu"="x86-64" "target-features"="+cx8,+fxsr,+mmx,+sse,+sse2,+x87" "unsafe-fp-math"="false" "use-soft-float"="false" }
attributes #1 = { "correctly-rounded-divide-sqrt-fp-math"="false" "disable-tail-calls"="false" "frame-pointer"="all" "less-precise-fpmad"="false" "no-infs-fp-math"="false" "no-nans-fp-math"="false" "no-signed-zeros-fp-math"="false" "no-trapping-math"="false" "stack-protector-buffer-size"="8" "target-cpu"="x86-64" "target-features"="+cx8,+fxsr,+mmx,+sse,+sse2,+x87" "unsafe-fp-math"="false" "use-soft-float"="false" }
attributes #2 = { nounwind readnone speculatable willreturn }
attributes #3 = { noinline nounwind uwtable "correctly-rounded-divide-sqrt-fp-math"="false" "disable-tail-calls"="false" "frame-pointer"="all" "less-precise-fpmad"="false" "min-legal-vector-width"="0" "no-infs-fp-math"="false" "no-jump-tables"="false" "no-nans-fp-math"="false" "no-signed-zeros-fp-math"="false" "no-trapping-math"="false" "stack-protector-buffer-size"="8" "target-cpu"="x86-64" "target-features"="+cx8,+fxsr,+mmx,+sse,+sse2,+x87" "unsafe-fp-math"="false" "use-soft-float"="false" }
attributes #4 = { argmemonly nounwind willreturn }

!llvm.dbg.cu = !{!216}
!llvm.module.flags = !{!1197, !1198, !1199}
!llvm.ident = !{!1200}

!0 = !DIGlobalVariableExpression(var: !1, expr: !DIExpression())
!1 = distinct !DIGlobalVariable(name: "CSG_Union_Methods", linkageName: "_ZN3pov17CSG_Union_MethodsE", scope: !2, file: !3, line: 81, type: !4, isLocal: false, isDefinition: true)
!2 = !DINamespace(name: "pov", scope: null)
!3 = !DIFile(filename: "csg.cpp", directory: "/home/venkat/IF-DV/spec_build_release/CPU_2017/benchspec/CPU/511.povray_r/build/build_base_ld-loop-ext-m64.0000")
!4 = !DIDerivedType(tag: DW_TAG_typedef, name: "METHODS", scope: !2, file: !5, line: 1432, baseType: !6)
!5 = !DIFile(filename: "./frame.h", directory: "/home/venkat/IF-DV/spec_build_release/CPU_2017/benchspec/CPU/511.povray_r/build/build_base_ld-loop-ext-m64.0000")
!6 = distinct !DICompositeType(tag: DW_TAG_structure_type, name: "Method_Struct", scope: !2, file: !5, line: 1517, size: 704, flags: DIFlagTypePassByValue, elements: !7, identifier: "_ZTSN3pov13Method_StructE")
!7 = !{!8, !171, !177, !184, !186, !191, !196, !198, !200, !205, !210}
!8 = !DIDerivedType(tag: DW_TAG_member, name: "All_Intersections_Method", scope: !6, file: !5, line: 1519, baseType: !9, size: 64)
!9 = !DIDerivedType(tag: DW_TAG_typedef, name: "ALL_INTERSECTIONS_METHOD", scope: !2, file: !5, line: 1434, baseType: !10)
!10 = !DIDerivedType(tag: DW_TAG_pointer_type, baseType: !11, size: 64)
!11 = !DISubroutineType(types: !12)
!12 = !{!13, !14, !123, !135}
!13 = !DIBasicType(name: "int", size: 32, encoding: DW_ATE_signed)
!14 = !DIDerivedType(tag: DW_TAG_pointer_type, baseType: !15, size: 64)
!15 = !DIDerivedType(tag: DW_TAG_typedef, name: "OBJECT", scope: !2, file: !5, line: 678, baseType: !16)
!16 = distinct !DICompositeType(tag: DW_TAG_structure_type, name: "Object_Struct", scope: !2, file: !5, line: 1535, size: 960, flags: DIFlagTypePassByValue, elements: !17, identifier: "_ZTSN3pov13Object_StructE")
!17 = !{!18, !20, !21, !22, !26, !27, !31, !32, !33, !118, !119, !120, !121, !122}
!18 = !DIDerivedType(tag: DW_TAG_member, name: "Methods", scope: !16, file: !5, line: 1537, baseType: !19, size: 64)
!19 = !DIDerivedType(tag: DW_TAG_pointer_type, baseType: !4, size: 64)
!20 = !DIDerivedType(tag: DW_TAG_member, name: "Type", scope: !16, file: !5, line: 1537, baseType: !13, size: 32, offset: 64)
!21 = !DIDerivedType(tag: DW_TAG_member, name: "Sibling", scope: !16, file: !5, line: 1537, baseType: !14, size: 64, offset: 128)
!22 = !DIDerivedType(tag: DW_TAG_member, name: "Texture", scope: !16, file: !5, line: 1537, baseType: !23, size: 64, offset: 192)
!23 = !DIDerivedType(tag: DW_TAG_pointer_type, baseType: !24, size: 64)
!24 = !DIDerivedType(tag: DW_TAG_typedef, name: "TEXTURE", scope: !2, file: !5, line: 1035, baseType: !25)
!25 = !DICompositeType(tag: DW_TAG_structure_type, name: "Texture_Struct", scope: !2, file: !5, line: 1359, flags: DIFlagFwdDecl, identifier: "_ZTSN3pov14Texture_StructE")
!26 = !DIDerivedType(tag: DW_TAG_member, name: "Interior_Texture", scope: !16, file: !5, line: 1537, baseType: !23, size: 64, offset: 256)
!27 = !DIDerivedType(tag: DW_TAG_member, name: "Interior", scope: !16, file: !5, line: 1537, baseType: !28, size: 64, offset: 320)
!28 = !DIDerivedType(tag: DW_TAG_pointer_type, baseType: !29, size: 64)
!29 = !DIDerivedType(tag: DW_TAG_typedef, name: "INTERIOR", scope: !2, file: !5, line: 1124, baseType: !30)
!30 = !DICompositeType(tag: DW_TAG_structure_type, name: "Interior_Struct", scope: !2, file: !5, line: 1126, flags: DIFlagFwdDecl, identifier: "_ZTSN3pov15Interior_StructE")
!31 = !DIDerivedType(tag: DW_TAG_member, name: "Bound", scope: !16, file: !5, line: 1537, baseType: !14, size: 64, offset: 384)
!32 = !DIDerivedType(tag: DW_TAG_member, name: "Clip", scope: !16, file: !5, line: 1537, baseType: !14, size: 64, offset: 448)
!33 = !DIDerivedType(tag: DW_TAG_member, name: "LLights", scope: !16, file: !5, line: 1537, baseType: !34, size: 64, offset: 512)
!34 = !DIDerivedType(tag: DW_TAG_pointer_type, baseType: !35, size: 64)
!35 = !DIDerivedType(tag: DW_TAG_typedef, name: "LIGHT_SOURCE", scope: !2, file: !5, line: 1041, baseType: !36)
!36 = distinct !DICompositeType(tag: DW_TAG_structure_type, name: "Light_Source_Struct", scope: !2, file: !5, line: 1580, size: 3456, flags: DIFlagTypePassByValue, elements: !37, identifier: "_ZTSN3pov19Light_Source_StructE")
!37 = !{!38, !39, !40, !41, !42, !43, !44, !45, !46, !47, !59, !63, !64, !65, !67, !68, !73, !77, !78, !79, !80, !81, !82, !83, !84, !85, !86, !87, !89, !90, !91, !93, !94, !95, !96, !97, !98, !99, !100, !101, !102, !105, !106, !107, !111}
!38 = !DIDerivedType(tag: DW_TAG_member, name: "Methods", scope: !36, file: !5, line: 1582, baseType: !19, size: 64)
!39 = !DIDerivedType(tag: DW_TAG_member, name: "Type", scope: !36, file: !5, line: 1582, baseType: !13, size: 32, offset: 64)
!40 = !DIDerivedType(tag: DW_TAG_member, name: "Sibling", scope: !36, file: !5, line: 1582, baseType: !14, size: 64, offset: 128)
!41 = !DIDerivedType(tag: DW_TAG_member, name: "Texture", scope: !36, file: !5, line: 1582, baseType: !23, size: 64, offset: 192)
!42 = !DIDerivedType(tag: DW_TAG_member, name: "Interior_Texture", scope: !36, file: !5, line: 1582, baseType: !23, size: 64, offset: 256)
!43 = !DIDerivedType(tag: DW_TAG_member, name: "Interior", scope: !36, file: !5, line: 1582, baseType: !28, size: 64, offset: 320)
!44 = !DIDerivedType(tag: DW_TAG_member, name: "Bound", scope: !36, file: !5, line: 1582, baseType: !14, size: 64, offset: 384)
!45 = !DIDerivedType(tag: DW_TAG_member, name: "Clip", scope: !36, file: !5, line: 1582, baseType: !14, size: 64, offset: 448)
!46 = !DIDerivedType(tag: DW_TAG_member, name: "LLights", scope: !36, file: !5, line: 1582, baseType: !34, size: 64, offset: 512)
!47 = !DIDerivedType(tag: DW_TAG_member, name: "BBox", scope: !36, file: !5, line: 1582, baseType: !48, size: 192, offset: 576)
!48 = !DIDerivedType(tag: DW_TAG_typedef, name: "BBOX", scope: !2, file: !5, line: 888, baseType: !49)
!49 = distinct !DICompositeType(tag: DW_TAG_structure_type, name: "Bounding_Box_Struct", scope: !2, file: !5, line: 890, size: 192, flags: DIFlagTypePassByValue, elements: !50, identifier: "_ZTSN3pov19Bounding_Box_StructE")
!50 = !{!51, !58}
!51 = !DIDerivedType(tag: DW_TAG_member, name: "Lower_Left", scope: !49, file: !5, line: 892, baseType: !52, size: 96)
!52 = !DIDerivedType(tag: DW_TAG_typedef, name: "BBOX_VECT", scope: !2, file: !5, line: 886, baseType: !53)
!53 = !DICompositeType(tag: DW_TAG_array_type, baseType: !54, size: 96, elements: !56)
!54 = !DIDerivedType(tag: DW_TAG_typedef, name: "BBOX_VAL", scope: !2, file: !5, line: 884, baseType: !55)
!55 = !DIBasicType(name: "float", size: 32, encoding: DW_ATE_float)
!56 = !{!57}
!57 = !DISubrange(count: 3)
!58 = !DIDerivedType(tag: DW_TAG_member, name: "Lengths", scope: !49, file: !5, line: 892, baseType: !52, size: 96, offset: 96)
!59 = !DIDerivedType(tag: DW_TAG_member, name: "Trans", scope: !36, file: !5, line: 1582, baseType: !60, size: 64, offset: 768)
!60 = !DIDerivedType(tag: DW_TAG_pointer_type, baseType: !61, size: 64)
!61 = !DIDerivedType(tag: DW_TAG_typedef, name: "TRANSFORM", scope: !2, file: !5, line: 1014, baseType: !62)
!62 = !DICompositeType(tag: DW_TAG_structure_type, name: "Transform_Struct", scope: !2, file: !5, line: 1016, flags: DIFlagFwdDecl, identifier: "_ZTSN3pov16Transform_StructE")
!63 = !DIDerivedType(tag: DW_TAG_member, name: "UV_Trans", scope: !36, file: !5, line: 1582, baseType: !60, size: 64, offset: 832)
!64 = !DIDerivedType(tag: DW_TAG_member, name: "Ph_Density", scope: !36, file: !5, line: 1582, baseType: !55, size: 32, offset: 896)
!65 = !DIDerivedType(tag: DW_TAG_member, name: "Flags", scope: !36, file: !5, line: 1582, baseType: !66, size: 32, offset: 928)
!66 = !DIBasicType(name: "unsigned int", size: 32, encoding: DW_ATE_unsigned)
!67 = !DIDerivedType(tag: DW_TAG_member, name: "Children", scope: !36, file: !5, line: 1582, baseType: !14, size: 64, offset: 960)
!68 = !DIDerivedType(tag: DW_TAG_member, name: "Colour", scope: !36, file: !5, line: 1583, baseType: !69, size: 160, offset: 1024)
!69 = !DIDerivedType(tag: DW_TAG_typedef, name: "COLOUR", scope: !2, file: !5, line: 695, baseType: !70)
!70 = !DICompositeType(tag: DW_TAG_array_type, baseType: !55, size: 160, elements: !71)
!71 = !{!72}
!72 = !DISubrange(count: 5)
!73 = !DIDerivedType(tag: DW_TAG_member, name: "Direction", scope: !36, file: !5, line: 1584, baseType: !74, size: 192, offset: 1216)
!74 = !DIDerivedType(tag: DW_TAG_typedef, name: "VECTOR", scope: !2, file: !5, line: 691, baseType: !75)
!75 = !DICompositeType(tag: DW_TAG_array_type, baseType: !76, size: 192, elements: !56)
!76 = !DIBasicType(name: "double", size: 64, encoding: DW_ATE_float)
!77 = !DIDerivedType(tag: DW_TAG_member, name: "Center", scope: !36, file: !5, line: 1584, baseType: !74, size: 192, offset: 1408)
!78 = !DIDerivedType(tag: DW_TAG_member, name: "Points_At", scope: !36, file: !5, line: 1584, baseType: !74, size: 192, offset: 1600)
!79 = !DIDerivedType(tag: DW_TAG_member, name: "Axis1", scope: !36, file: !5, line: 1584, baseType: !74, size: 192, offset: 1792)
!80 = !DIDerivedType(tag: DW_TAG_member, name: "Axis2", scope: !36, file: !5, line: 1584, baseType: !74, size: 192, offset: 1984)
!81 = !DIDerivedType(tag: DW_TAG_member, name: "Coeff", scope: !36, file: !5, line: 1585, baseType: !76, size: 64, offset: 2176)
!82 = !DIDerivedType(tag: DW_TAG_member, name: "Radius", scope: !36, file: !5, line: 1585, baseType: !76, size: 64, offset: 2240)
!83 = !DIDerivedType(tag: DW_TAG_member, name: "Falloff", scope: !36, file: !5, line: 1585, baseType: !76, size: 64, offset: 2304)
!84 = !DIDerivedType(tag: DW_TAG_member, name: "Fade_Distance", scope: !36, file: !5, line: 1586, baseType: !76, size: 64, offset: 2368)
!85 = !DIDerivedType(tag: DW_TAG_member, name: "Fade_Power", scope: !36, file: !5, line: 1586, baseType: !76, size: 64, offset: 2432)
!86 = !DIDerivedType(tag: DW_TAG_member, name: "Next_Light_Source", scope: !36, file: !5, line: 1587, baseType: !34, size: 64, offset: 2496)
!87 = !DIDerivedType(tag: DW_TAG_member, name: "Light_Type", scope: !36, file: !5, line: 1588, baseType: !88, size: 8, offset: 2560)
!88 = !DIBasicType(name: "unsigned char", size: 8, encoding: DW_ATE_unsigned_char)
!89 = !DIDerivedType(tag: DW_TAG_member, name: "Area_Light", scope: !36, file: !5, line: 1588, baseType: !88, size: 8, offset: 2568)
!90 = !DIDerivedType(tag: DW_TAG_member, name: "Jitter", scope: !36, file: !5, line: 1588, baseType: !88, size: 8, offset: 2576)
!91 = !DIDerivedType(tag: DW_TAG_member, name: "Orient", scope: !36, file: !5, line: 1589, baseType: !92, size: 8, offset: 2584)
!92 = !DIBasicType(name: "bool", size: 8, encoding: DW_ATE_boolean)
!93 = !DIDerivedType(tag: DW_TAG_member, name: "Circular", scope: !36, file: !5, line: 1590, baseType: !92, size: 8, offset: 2592)
!94 = !DIDerivedType(tag: DW_TAG_member, name: "Track", scope: !36, file: !5, line: 1591, baseType: !88, size: 8, offset: 2600)
!95 = !DIDerivedType(tag: DW_TAG_member, name: "Parallel", scope: !36, file: !5, line: 1591, baseType: !88, size: 8, offset: 2608)
!96 = !DIDerivedType(tag: DW_TAG_member, name: "Photon_Area_Light", scope: !36, file: !5, line: 1592, baseType: !88, size: 8, offset: 2616)
!97 = !DIDerivedType(tag: DW_TAG_member, name: "Area_Size1", scope: !36, file: !5, line: 1593, baseType: !13, size: 32, offset: 2624)
!98 = !DIDerivedType(tag: DW_TAG_member, name: "Area_Size2", scope: !36, file: !5, line: 1593, baseType: !13, size: 32, offset: 2656)
!99 = !DIDerivedType(tag: DW_TAG_member, name: "Adaptive_Level", scope: !36, file: !5, line: 1594, baseType: !13, size: 32, offset: 2688)
!100 = !DIDerivedType(tag: DW_TAG_member, name: "Media_Attenuation", scope: !36, file: !5, line: 1595, baseType: !13, size: 32, offset: 2720)
!101 = !DIDerivedType(tag: DW_TAG_member, name: "Media_Interaction", scope: !36, file: !5, line: 1596, baseType: !13, size: 32, offset: 2752)
!102 = !DIDerivedType(tag: DW_TAG_member, name: "Light_Grid", scope: !36, file: !5, line: 1597, baseType: !103, size: 64, offset: 2816)
!103 = !DIDerivedType(tag: DW_TAG_pointer_type, baseType: !104, size: 64)
!104 = !DIDerivedType(tag: DW_TAG_pointer_type, baseType: !69, size: 64)
!105 = !DIDerivedType(tag: DW_TAG_member, name: "Shadow_Cached_Object", scope: !36, file: !5, line: 1598, baseType: !14, size: 64, offset: 2880)
!106 = !DIDerivedType(tag: DW_TAG_member, name: "Projected_Through_Object", scope: !36, file: !5, line: 1598, baseType: !14, size: 64, offset: 2944)
!107 = !DIDerivedType(tag: DW_TAG_member, name: "blend_map", scope: !36, file: !5, line: 1599, baseType: !108, size: 64, offset: 3008)
!108 = !DIDerivedType(tag: DW_TAG_pointer_type, baseType: !109, size: 64)
!109 = !DIDerivedType(tag: DW_TAG_typedef, name: "BLEND_MAP", scope: !2, file: !5, line: 1033, baseType: !110)
!110 = !DICompositeType(tag: DW_TAG_structure_type, name: "Blend_Map_Struct", scope: !2, file: !5, line: 1059, flags: DIFlagFwdDecl, identifier: "_ZTSN3pov16Blend_Map_StructE")
!111 = !DIDerivedType(tag: DW_TAG_member, name: "Light_Buffer", scope: !36, file: !5, line: 1600, baseType: !112, size: 384, offset: 3072)
!112 = !DICompositeType(tag: DW_TAG_array_type, baseType: !113, size: 384, elements: !116)
!113 = !DIDerivedType(tag: DW_TAG_pointer_type, baseType: !114, size: 64)
!114 = !DIDerivedType(tag: DW_TAG_typedef, name: "PROJECT_TREE_NODE", scope: !2, file: !5, line: 1557, baseType: !115)
!115 = !DICompositeType(tag: DW_TAG_structure_type, name: "Project_Tree_Node_Struct", scope: !2, file: !5, line: 1571, flags: DIFlagFwdDecl, identifier: "_ZTSN3pov24Project_Tree_Node_StructE")
!116 = !{!117}
!117 = !DISubrange(count: 6)
!118 = !DIDerivedType(tag: DW_TAG_member, name: "BBox", scope: !16, file: !5, line: 1537, baseType: !48, size: 192, offset: 576)
!119 = !DIDerivedType(tag: DW_TAG_member, name: "Trans", scope: !16, file: !5, line: 1537, baseType: !60, size: 64, offset: 768)
!120 = !DIDerivedType(tag: DW_TAG_member, name: "UV_Trans", scope: !16, file: !5, line: 1537, baseType: !60, size: 64, offset: 832)
!121 = !DIDerivedType(tag: DW_TAG_member, name: "Ph_Density", scope: !16, file: !5, line: 1537, baseType: !55, size: 32, offset: 896)
!122 = !DIDerivedType(tag: DW_TAG_member, name: "Flags", scope: !16, file: !5, line: 1537, baseType: !66, size: 32, offset: 928)
!123 = !DIDerivedType(tag: DW_TAG_pointer_type, baseType: !124, size: 64)
!124 = !DIDerivedType(tag: DW_TAG_typedef, name: "RAY", scope: !2, file: !5, line: 680, baseType: !125)
!125 = distinct !DICompositeType(tag: DW_TAG_structure_type, name: "Ray_Struct", scope: !2, file: !5, line: 1797, size: 6848, flags: DIFlagTypePassByValue, elements: !126, identifier: "_ZTSN3pov10Ray_StructE")
!126 = !{!127, !128, !129, !130, !131}
!127 = !DIDerivedType(tag: DW_TAG_member, name: "Initial", scope: !125, file: !5, line: 1799, baseType: !74, size: 192)
!128 = !DIDerivedType(tag: DW_TAG_member, name: "Direction", scope: !125, file: !5, line: 1800, baseType: !74, size: 192, offset: 192)
!129 = !DIDerivedType(tag: DW_TAG_member, name: "Index", scope: !125, file: !5, line: 1801, baseType: !13, size: 32, offset: 384)
!130 = !DIDerivedType(tag: DW_TAG_member, name: "Optimisiation_Flags", scope: !125, file: !5, line: 1802, baseType: !66, size: 32, offset: 416)
!131 = !DIDerivedType(tag: DW_TAG_member, name: "Interiors", scope: !125, file: !5, line: 1803, baseType: !132, size: 6400, offset: 448)
!132 = !DICompositeType(tag: DW_TAG_array_type, baseType: !28, size: 6400, elements: !133)
!133 = !{!134}
!134 = !DISubrange(count: 100)
!135 = !DIDerivedType(tag: DW_TAG_pointer_type, baseType: !136, size: 64)
!136 = !DIDerivedType(tag: DW_TAG_typedef, name: "ISTACK", scope: !2, file: !5, line: 681, baseType: !137)
!137 = distinct !DICompositeType(tag: DW_TAG_structure_type, name: "istack_struct", scope: !2, file: !5, line: 1635, size: 192, flags: DIFlagTypePassByValue, elements: !138, identifier: "_ZTSN3pov13istack_structE")
!138 = !{!139, !141, !169, !170}
!139 = !DIDerivedType(tag: DW_TAG_member, name: "next", scope: !137, file: !5, line: 1637, baseType: !140, size: 64)
!140 = !DIDerivedType(tag: DW_TAG_pointer_type, baseType: !137, size: 64)
!141 = !DIDerivedType(tag: DW_TAG_member, name: "istack", scope: !137, file: !5, line: 1638, baseType: !142, size: 64, offset: 64)
!142 = !DIDerivedType(tag: DW_TAG_pointer_type, baseType: !143, size: 64)
!143 = distinct !DICompositeType(tag: DW_TAG_structure_type, name: "istk_entry", scope: !2, file: !5, line: 1610, size: 1600, flags: DIFlagTypePassByValue, elements: !144, identifier: "_ZTSN3pov10istk_entryE")
!144 = !{!145, !146, !147, !148, !149, !154, !155, !156, !157, !158, !159, !160, !161, !162, !163, !164, !165, !166, !168}
!145 = !DIDerivedType(tag: DW_TAG_member, name: "Depth", scope: !143, file: !5, line: 1612, baseType: !76, size: 64)
!146 = !DIDerivedType(tag: DW_TAG_member, name: "IPoint", scope: !143, file: !5, line: 1613, baseType: !74, size: 192, offset: 64)
!147 = !DIDerivedType(tag: DW_TAG_member, name: "INormal", scope: !143, file: !5, line: 1614, baseType: !74, size: 192, offset: 256)
!148 = !DIDerivedType(tag: DW_TAG_member, name: "PNormal", scope: !143, file: !5, line: 1615, baseType: !74, size: 192, offset: 448)
!149 = !DIDerivedType(tag: DW_TAG_member, name: "Iuv", scope: !143, file: !5, line: 1616, baseType: !150, size: 128, offset: 640)
!150 = !DIDerivedType(tag: DW_TAG_typedef, name: "UV_VECT", scope: !2, file: !5, line: 690, baseType: !151)
!151 = !DICompositeType(tag: DW_TAG_array_type, baseType: !76, size: 128, elements: !152)
!152 = !{!153}
!153 = !DISubrange(count: 2)
!154 = !DIDerivedType(tag: DW_TAG_member, name: "Object", scope: !143, file: !5, line: 1617, baseType: !14, size: 64, offset: 768)
!155 = !DIDerivedType(tag: DW_TAG_member, name: "i1", scope: !143, file: !5, line: 1624, baseType: !13, size: 32, offset: 832)
!156 = !DIDerivedType(tag: DW_TAG_member, name: "i2", scope: !143, file: !5, line: 1624, baseType: !13, size: 32, offset: 864)
!157 = !DIDerivedType(tag: DW_TAG_member, name: "d1", scope: !143, file: !5, line: 1625, baseType: !76, size: 64, offset: 896)
!158 = !DIDerivedType(tag: DW_TAG_member, name: "d2", scope: !143, file: !5, line: 1625, baseType: !76, size: 64, offset: 960)
!159 = !DIDerivedType(tag: DW_TAG_member, name: "u", scope: !143, file: !5, line: 1626, baseType: !76, size: 64, offset: 1024)
!160 = !DIDerivedType(tag: DW_TAG_member, name: "v", scope: !143, file: !5, line: 1626, baseType: !76, size: 64, offset: 1088)
!161 = !DIDerivedType(tag: DW_TAG_member, name: "d3", scope: !143, file: !5, line: 1627, baseType: !76, size: 64, offset: 1152)
!162 = !DIDerivedType(tag: DW_TAG_member, name: "d4", scope: !143, file: !5, line: 1627, baseType: !76, size: 64, offset: 1216)
!163 = !DIDerivedType(tag: DW_TAG_member, name: "w1", scope: !143, file: !5, line: 1628, baseType: !76, size: 64, offset: 1280)
!164 = !DIDerivedType(tag: DW_TAG_member, name: "w2", scope: !143, file: !5, line: 1628, baseType: !76, size: 64, offset: 1344)
!165 = !DIDerivedType(tag: DW_TAG_member, name: "w3", scope: !143, file: !5, line: 1628, baseType: !76, size: 64, offset: 1408)
!166 = !DIDerivedType(tag: DW_TAG_member, name: "Pointer", scope: !143, file: !5, line: 1630, baseType: !167, size: 64, offset: 1472)
!167 = !DIDerivedType(tag: DW_TAG_pointer_type, baseType: null, size: 64)
!168 = !DIDerivedType(tag: DW_TAG_member, name: "Csg", scope: !143, file: !5, line: 1632, baseType: !167, size: 64, offset: 1536)
!169 = !DIDerivedType(tag: DW_TAG_member, name: "max_entries", scope: !137, file: !5, line: 1639, baseType: !66, size: 32, offset: 128)
!170 = !DIDerivedType(tag: DW_TAG_member, name: "top_entry", scope: !137, file: !5, line: 1640, baseType: !66, size: 32, offset: 160)
!171 = !DIDerivedType(tag: DW_TAG_member, name: "Inside_Method", scope: !6, file: !5, line: 1520, baseType: !172, size: 64, offset: 64)
!172 = !DIDerivedType(tag: DW_TAG_typedef, name: "INSIDE_METHOD", scope: !2, file: !5, line: 1435, baseType: !173)
!173 = !DIDerivedType(tag: DW_TAG_pointer_type, baseType: !174, size: 64)
!174 = !DISubroutineType(types: !175)
!175 = !{!13, !176, !14}
!176 = !DIDerivedType(tag: DW_TAG_pointer_type, baseType: !76, size: 64)
!177 = !DIDerivedType(tag: DW_TAG_member, name: "Normal_Method", scope: !6, file: !5, line: 1521, baseType: !178, size: 64, offset: 128)
!178 = !DIDerivedType(tag: DW_TAG_typedef, name: "NORMAL_METHOD", scope: !2, file: !5, line: 1436, baseType: !179)
!179 = !DIDerivedType(tag: DW_TAG_pointer_type, baseType: !180, size: 64)
!180 = !DISubroutineType(types: !181)
!181 = !{null, !176, !14, !182}
!182 = !DIDerivedType(tag: DW_TAG_pointer_type, baseType: !183, size: 64)
!183 = !DIDerivedType(tag: DW_TAG_typedef, name: "INTERSECTION", scope: !2, file: !5, line: 682, baseType: !143)
!184 = !DIDerivedType(tag: DW_TAG_member, name: "UVCoord_Method", scope: !6, file: !5, line: 1522, baseType: !185, size: 64, offset: 192)
!185 = !DIDerivedType(tag: DW_TAG_typedef, name: "UVCOORD_METHOD", scope: !2, file: !5, line: 1437, baseType: !179)
!186 = !DIDerivedType(tag: DW_TAG_member, name: "Copy_Method", scope: !6, file: !5, line: 1523, baseType: !187, size: 64, offset: 256)
!187 = !DIDerivedType(tag: DW_TAG_typedef, name: "COPY_METHOD", scope: !2, file: !5, line: 1438, baseType: !188)
!188 = !DIDerivedType(tag: DW_TAG_pointer_type, baseType: !189, size: 64)
!189 = !DISubroutineType(types: !190)
!190 = !{!167, !14}
!191 = !DIDerivedType(tag: DW_TAG_member, name: "Translate_Method", scope: !6, file: !5, line: 1524, baseType: !192, size: 64, offset: 320)
!192 = !DIDerivedType(tag: DW_TAG_typedef, name: "TRANSLATE_METHOD", scope: !2, file: !5, line: 1439, baseType: !193)
!193 = !DIDerivedType(tag: DW_TAG_pointer_type, baseType: !194, size: 64)
!194 = !DISubroutineType(types: !195)
!195 = !{null, !14, !176, !60}
!196 = !DIDerivedType(tag: DW_TAG_member, name: "Rotate_Method", scope: !6, file: !5, line: 1525, baseType: !197, size: 64, offset: 384)
!197 = !DIDerivedType(tag: DW_TAG_typedef, name: "ROTATE_METHOD", scope: !2, file: !5, line: 1440, baseType: !193)
!198 = !DIDerivedType(tag: DW_TAG_member, name: "Scale_Method", scope: !6, file: !5, line: 1526, baseType: !199, size: 64, offset: 448)
!199 = !DIDerivedType(tag: DW_TAG_typedef, name: "SCALE_METHOD", scope: !2, file: !5, line: 1441, baseType: !193)
!200 = !DIDerivedType(tag: DW_TAG_member, name: "Transform_Method", scope: !6, file: !5, line: 1527, baseType: !201, size: 64, offset: 512)
!201 = !DIDerivedType(tag: DW_TAG_typedef, name: "TRANSFORM_METHOD", scope: !2, file: !5, line: 1442, baseType: !202)
!202 = !DIDerivedType(tag: DW_TAG_pointer_type, baseType: !203, size: 64)
!203 = !DISubroutineType(types: !204)
!204 = !{null, !14, !60}
!205 = !DIDerivedType(tag: DW_TAG_member, name: "Invert_Method", scope: !6, file: !5, line: 1528, baseType: !206, size: 64, offset: 576)
!206 = !DIDerivedType(tag: DW_TAG_typedef, name: "INVERT_METHOD", scope: !2, file: !5, line: 1443, baseType: !207)
!207 = !DIDerivedType(tag: DW_TAG_pointer_type, baseType: !208, size: 64)
!208 = !DISubroutineType(types: !209)
!209 = !{null, !14}
!210 = !DIDerivedType(tag: DW_TAG_member, name: "Destroy_Method", scope: !6, file: !5, line: 1529, baseType: !211, size: 64, offset: 640)
!211 = !DIDerivedType(tag: DW_TAG_typedef, name: "DESTROY_METHOD", scope: !2, file: !5, line: 1444, baseType: !207)
!212 = !DIGlobalVariableExpression(var: !213, expr: !DIExpression())
!213 = distinct !DIGlobalVariable(name: "CSG_Merge_Methods", linkageName: "_ZN3pov17CSG_Merge_MethodsE", scope: !2, file: !3, line: 90, type: !4, isLocal: false, isDefinition: true)
