; ModuleID = 'atmosph.cpp'
source_filename = "atmosph.cpp"
target datalayout = "e-m:e-p270:32:32-p271:32:32-p272:64:64-i64:64-f80:128-n8:16:32:64-S128"
target triple = "x86_64-unknown-linux-gnu"

%"struct.pov::OPTIONS_STRUCT" = type { i32, i8, i8, i8, i32, i32, [4096 x i8], [4096 x i8], [4096 x i8], [4096 x i8], [4096 x i8], float, float, i32, i32, double, i8, double, i32, [25 x i8*], i32, i32, i32, double, double, i32, i32, double, double, i32, i8, i64, i32, i32, i32, %"struct.pov::FRAMESEQ", double, i64, double, double, double, double, double, i64, i32, i64, i32, i32, i32, i32, i32, i32, double, double, double, i32, i32, i8*, i8*, i32, i8, double, double, i32, i32, i8, i32, i32, [4096 x i8], [6 x %"struct.pov::shelldata"], [4096 x i8], [4096 x i8], i32, i32, i64, i32, i32, i32, %struct.POVMSData }
%"struct.pov::FRAMESEQ" = type { i32, double, i32, i32, double, i32, i32, double, i32, double, i32, double, i8, i8 }
%"struct.pov::shelldata" = type { i32, i32, [250 x i8] }
%struct.POVMSData = type { i32, i32, %union.anon.33 }
%union.anon.33 = type { i8* }
%"struct.pov::Frame_Struct" = type { %"struct.pov::Camera_Struct"*, i32, i32, i32, %"struct.pov::Light_Source_Struct"*, %"struct.pov::Object_Struct"*, double, double, double, [5 x float], [5 x float], [5 x float], %"struct.pov::Media_Struct"*, %"struct.pov::Fog_Struct"*, %"struct.pov::Rainbow_Struct"*, %"struct.pov::Skysphere_Struct"*, %"struct.pov::light_group_light_struct"* }
%"struct.pov::Camera_Struct" = type { [3 x double], [3 x double], [3 x double], [3 x double], [3 x double], [3 x double], [3 x double], double, double, i32, double, double, i32, double, double, double, %"struct.pov::Tnormal_Struct"*, %"struct.pov::Transform_Struct"* }
%"struct.pov::Tnormal_Struct" = type { i16, i16, i16, i32, float, float, float, %"struct.pov::Warps_Struct"*, %"struct.pov::Pattern_Struct"*, %"struct.pov::Blend_Map_Struct"*, %union.anon.0, float, float }
%"struct.pov::Warps_Struct" = type { i16, %"struct.pov::Warps_Struct"*, %"struct.pov::Warps_Struct"* }
%"struct.pov::Pattern_Struct" = type { i16, i16, i16, i32, float, float, float, %"struct.pov::Warps_Struct"*, %"struct.pov::Pattern_Struct"*, %"struct.pov::Blend_Map_Struct"*, %union.anon.17 }
%union.anon.17 = type { %struct.anon.21 }
%struct.anon.21 = type { [3 x double], [3 x double], double, double, i16, [3 x double]*, i32, [3 x double] }
%"struct.pov::Blend_Map_Struct" = type { i32, i16, i8, i8, %"struct.pov::Blend_Map_Entry"* }
%"struct.pov::Blend_Map_Entry" = type { float, i8, %union.anon }
%union.anon = type { [2 x double], [8 x i8] }
%union.anon.0 = type { %struct.anon.5 }
%struct.anon.5 = type { [3 x double], [3 x double], double, double, i16, [3 x double]*, i32, [3 x double] }
%"struct.pov::Transform_Struct" = type { [4 x [4 x double]], [4 x [4 x double]] }
%"struct.pov::Light_Source_Struct" = type { %"struct.pov::Method_Struct"*, i32, %"struct.pov::Object_Struct"*, %"struct.pov::Texture_Struct"*, %"struct.pov::Texture_Struct"*, %"struct.pov::Interior_Struct"*, %"struct.pov::Object_Struct"*, %"struct.pov::Object_Struct"*, %"struct.pov::Light_Source_Struct"*, %"struct.pov::Bounding_Box_Struct", %"struct.pov::Transform_Struct"*, %"struct.pov::Transform_Struct"*, float, i32, %"struct.pov::Object_Struct"*, [5 x float], [3 x double], [3 x double], [3 x double], [3 x double], [3 x double], double, double, double, double, double, %"struct.pov::Light_Source_Struct"*, i8, i8, i8, i8, i8, i8, i8, i8, i32, i32, i32, i32, i32, [5 x float]**, %"struct.pov::Object_Struct"*, %"struct.pov::Object_Struct"*, %"struct.pov::Blend_Map_Struct"*, [6 x %"struct.pov::Project_Tree_Node_Struct"*] }
%"struct.pov::Method_Struct" = type { i32 (%"struct.pov::Object_Struct"*, %"struct.pov::Ray_Struct"*, %"struct.pov::istack_struct"*)*, i32 (double*, %"struct.pov::Object_Struct"*)*, void (double*, %"struct.pov::Object_Struct"*, %"struct.pov::istk_entry"*)*, void (double*, %"struct.pov::Object_Struct"*, %"struct.pov::istk_entry"*)*, i8* (%"struct.pov::Object_Struct"*)*, void (%"struct.pov::Object_Struct"*, double*, %"struct.pov::Transform_Struct"*)*, void (%"struct.pov::Object_Struct"*, double*, %"struct.pov::Transform_Struct"*)*, void (%"struct.pov::Object_Struct"*, double*, %"struct.pov::Transform_Struct"*)*, void (%"struct.pov::Object_Struct"*, %"struct.pov::Transform_Struct"*)*, void (%"struct.pov::Object_Struct"*)*, void (%"struct.pov::Object_Struct"*)* }
%"struct.pov::Ray_Struct" = type { [3 x double], [3 x double], i32, i32, [100 x %"struct.pov::Interior_Struct"*] }
%"struct.pov::istack_struct" = type { %"struct.pov::istack_struct"*, %"struct.pov::istk_entry"*, i32, i32 }
%"struct.pov::istk_entry" = type { double, [3 x double], [3 x double], [3 x double], [2 x double], %"struct.pov::Object_Struct"*, i32, i32, double, double, double, double, double, double, double, double, double, i8*, i8* }
%"struct.pov::Texture_Struct" = type { i16, i16, i16, i32, float, float, float, %"struct.pov::Warps_Struct"*, %"struct.pov::Pattern_Struct"*, %"struct.pov::Blend_Map_Struct"*, %union.anon.9, %"struct.pov::Texture_Struct"*, %"struct.pov::Pigment_Struct"*, %"struct.pov::Tnormal_Struct"*, %"struct.pov::Finish_Struct"*, %"struct.pov::Texture_Struct"*, i32 }
%union.anon.9 = type { %struct.anon.13 }
%struct.anon.13 = type { [3 x double], [3 x double], double, double, i16, [3 x double]*, i32, [3 x double] }
%"struct.pov::Pigment_Struct" = type { i16, i16, i16, i32, float, float, float, %"struct.pov::Warps_Struct"*, %"struct.pov::Pattern_Struct"*, %"struct.pov::Blend_Map_Struct"*, %union.anon.25, [5 x float] }
%union.anon.25 = type { %struct.anon.29 }
%struct.anon.29 = type { [3 x double], [3 x double], double, double, i16, [3 x double]*, i32, [3 x double] }
%"struct.pov::Finish_Struct" = type { float, float, float, float, float, float, float, float, float, float, float, float, float, float, float, float, [3 x float], [3 x float], [3 x float], float, i32, float, i32 }
%"struct.pov::Interior_Struct" = type { i32, i32, i32, float, float, float, float, float, float, [5 x float], %"struct.pov::Media_Struct"* }
%"struct.pov::Bounding_Box_Struct" = type { [3 x float], [3 x float] }
%"struct.pov::Project_Tree_Node_Struct" = type { i16, %"struct.pov::BBox_Tree_Struct"*, %"struct.pov::Project_Struct", i16, %"struct.pov::Project_Tree_Node_Struct"** }
%"struct.pov::BBox_Tree_Struct" = type { i16, i16, %"struct.pov::Bounding_Box_Struct", %"struct.pov::BBox_Tree_Struct"** }
%"struct.pov::Project_Struct" = type { i32, i32, i32, i32 }
%"struct.pov::Object_Struct" = type { %"struct.pov::Method_Struct"*, i32, %"struct.pov::Object_Struct"*, %"struct.pov::Texture_Struct"*, %"struct.pov::Texture_Struct"*, %"struct.pov::Interior_Struct"*, %"struct.pov::Object_Struct"*, %"struct.pov::Object_Struct"*, %"struct.pov::Light_Source_Struct"*, %"struct.pov::Bounding_Box_Struct", %"struct.pov::Transform_Struct"*, %"struct.pov::Transform_Struct"*, float, i32 }
%"struct.pov::Media_Struct" = type { i32, i32, i32, i32, i32, double, i32, double, double, i32, i32, i32, i32, [5 x float], [5 x float], [5 x float], [5 x float], double, double, double, double*, double, i32, i32, %"struct.pov::Pigment_Struct"*, %"struct.pov::Media_Struct"* }
%"struct.pov::Fog_Struct" = type { i32, double, double, double, [5 x float], [3 x double], %"struct.pov::Turb_Struct"*, float, %"struct.pov::Fog_Struct"* }
%"struct.pov::Turb_Struct" = type { i16, %"struct.pov::Warps_Struct"*, %"struct.pov::Warps_Struct"*, [3 x double], i32, float, float }
%"struct.pov::Rainbow_Struct" = type { double, double, double, double, double, double, double, [3 x double], [3 x double], [3 x double], %"struct.pov::Pigment_Struct"*, %"struct.pov::Rainbow_Struct"* }
%"struct.pov::Skysphere_Struct" = type { i32, %"struct.pov::Pigment_Struct"**, %"struct.pov::Transform_Struct"* }
%"struct.pov::light_group_light_struct" = type { %"struct.pov::Light_Source_Struct"*, %"struct.pov::light_group_light_struct"* }

$_ZN3pov13Assign_ColourEPfS0_ = comdat any

$_ZN3pov12Make_ColourAEPffffff = comdat any

$_ZN3pov11Make_VectorEPdddd = comdat any

$_ZN3pov15CRGBAddScaledEqEPffPKf = comdat any

$_ZN3pov12VEvaluateRayEPdPKddS2_ = comdat any

$_ZN3pov9VLinComb2EPddPKddS2_ = comdat any

$_ZN3pov4VDotERdPKdS2_ = comdat any

$_ZN3pov3SqrEd = comdat any

$_ZN3pov5VHalfEPdPKdS2_ = comdat any

$_ZN3pov11VEvaluateEqEPdPKd = comdat any

$_ZSt3minIdERKT_S2_S2_ = comdat any

$_ZSt3maxIdERKT_S2_S2_ = comdat any

$_ZN3pov11Make_ColourEPffff = comdat any

$_ZN3pov13Assign_VectorEPdS0_ = comdat any

$_ZSt4fabsf = comdat any

@_ZN3pov4optsE = external dso_local global %"struct.pov::OPTIONS_STRUCT", align 8
@_ZN3pov17In_Reflection_RayE = external dso_local global i8, align 1
@_ZN3pov21Radiosity_Trace_LevelE = external dso_local global i32, align 4
@_ZN3pov5FrameE = external dso_local global %"struct.pov::Frame_Struct", align 8
@.str = private unnamed_addr constant [12 x i8] c"atmosph.cpp\00", align 1
@.str.1 = private unnamed_addr constant [4 x i8] c"fog\00", align 1
@.str.2 = private unnamed_addr constant [18 x i8] c"skysphere pigment\00", align 1

; Function Attrs: noinline nounwind uwtable
define dso_local void @_ZN3pov26Initialize_Atmosphere_CodeEv() #0 !dbg !908 {
entry:
  ret void, !dbg !910
}

; Function Attrs: noinline nounwind uwtable
define dso_local void @_ZN3pov28Deinitialize_Atmosphere_CodeEv() #0 !dbg !911 {
entry:
  ret void, !dbg !912
}

; Function Attrs: noinline uwtable
define dso_local void @_ZN3pov22Do_Infinite_AtmosphereEPNS_10Ray_StructEPf(%"struct.pov::Ray_Struct"* %Ray, float* %Colour) #1 !dbg !913 {
entry:
  %Ray.addr = alloca %"struct.pov::Ray_Struct"*, align 8
  %Colour.addr = alloca float*, align 8
  store %"struct.pov::Ray_Struct"* %Ray, %"struct.pov::Ray_Struct"** %Ray.addr, align 8
  call void @llvm.dbg.declare(metadata %"struct.pov::Ray_Struct"** %Ray.addr, metadata !932, metadata !DIExpression()), !dbg !933
  store float* %Colour, float** %Colour.addr, align 8
  call void @llvm.dbg.declare(metadata float** %Colour.addr, metadata !934, metadata !DIExpression()), !dbg !935
  %0 = load i32, i32* getelementptr inbounds (%"struct.pov::OPTIONS_STRUCT", %"struct.pov::OPTIONS_STRUCT"* @_ZN3pov4optsE, i32 0, i32 0), align 8, !dbg !936
  %conv = zext i32 %0 to i64, !dbg !938
  %and = and i64 %conv, 65536, !dbg !939
  %tobool = icmp ne i64 %and, 0, !dbg !938
  br i1 %tobool, label %land.lhs.true, label %if.else, !dbg !940

land.lhs.true:                                    ; preds = %entry
  %1 = load i8, i8* @_ZN3pov17In_Reflection_RayE, align 1, !dbg !941
  %tobool1 = trunc i8 %1 to i1, !dbg !941
  br i1 %tobool1, label %if.else, label %lor.lhs.false, !dbg !942

lor.lhs.false:                                    ; preds = %land.lhs.true
  %2 = load i32, i32* @_ZN3pov21Radiosity_Trace_LevelE, align 4, !dbg !943
  %cmp = icmp sgt i32 %2, 1, !dbg !944
  br i1 %cmp, label %if.else, label %if.then, !dbg !945

if.then:                                          ; preds = %lor.lhs.false
  %3 = load float*, float** %Colour.addr, align 8, !dbg !946
  %arrayidx = getelementptr inbounds float, float* %3, i64 3, !dbg !946
  store float 0.000000e+00, float* %arrayidx, align 4, !dbg !948
  %4 = load float*, float** %Colour.addr, align 8, !dbg !949
  %arrayidx2 = getelementptr inbounds float, float* %4, i64 2, !dbg !949
  store float 0.000000e+00, float* %arrayidx2, align 4, !dbg !950
  %5 = load float*, float** %Colour.addr, align 8, !dbg !951
  %arrayidx3 = getelementptr inbounds float, float* %5, i64 1, !dbg !951
  store float 0.000000e+00, float* %arrayidx3, align 4, !dbg !952
  %6 = load float*, float** %Colour.addr, align 8, !dbg !953
  %arrayidx4 = getelementptr inbounds float, float* %6, i64 0, !dbg !953
  store float 0.000000e+00, float* %arrayidx4, align 4, !dbg !954
  %7 = load float*, float** %Colour.addr, align 8, !dbg !955
  %arrayidx5 = getelementptr inbounds float, float* %7, i64 4, !dbg !955
  store float 1.000000e+00, float* %arrayidx5, align 4, !dbg !956
  br label %if.end, !dbg !957

if.else:                                          ; preds = %lor.lhs.false, %land.lhs.true, %entry
  %8 = load float*, float** %Colour.addr, align 8, !dbg !958
  call void @_ZN3pov13Assign_ColourEPfS0_(float* %8, float* getelementptr inbounds (%"struct.pov::Frame_Struct", %"struct.pov::Frame_Struct"* @_ZN3pov5FrameE, i32 0, i32 9, i64 0)), !dbg !960
  %9 = load float*, float** %Colour.addr, align 8, !dbg !961
  %arrayidx6 = getelementptr inbounds float, float* %9, i64 3, !dbg !961
  store float 0.000000e+00, float* %arrayidx6, align 4, !dbg !962
  %10 = load float*, float** %Colour.addr, align 8, !dbg !963
  %arrayidx7 = getelementptr inbounds float, float* %10, i64 4, !dbg !963
  store float 1.000000e+00, float* %arrayidx7, align 4, !dbg !964
  %11 = load %"struct.pov::Ray_Struct"*, %"struct.pov::Ray_Struct"** %Ray.addr, align 8, !dbg !965
  %12 = load float*, float** %Colour.addr, align 8, !dbg !966
  call void @_ZN3povL12do_skysphereEPNS_10Ray_StructEPf(%"struct.pov::Ray_Struct"* %11, float* %12), !dbg !967
  br label %if.end

if.end:                                           ; preds = %if.else, %if.then
  ret void, !dbg !968
}

; Function Attrs: nounwind readnone speculatable willreturn
declare void @llvm.dbg.declare(metadata, metadata, metadata) #2

; Function Attrs: noinline nounwind uwtable
define linkonce_odr dso_local void @_ZN3pov13Assign_ColourEPfS0_(float* %d, float* %s) #0 comdat !dbg !969 {
entry:
  %d.addr = alloca float*, align 8
  %s.addr = alloca float*, align 8
  store float* %d, float** %d.addr, align 8
  call void @llvm.dbg.declare(metadata float** %d.addr, metadata !972, metadata !DIExpression()), !dbg !973
  store float* %s, float** %s.addr, align 8
  call void @llvm.dbg.declare(metadata float** %s.addr, metadata !974, metadata !DIExpression()), !dbg !975
  %0 = load float*, float** %s.addr, align 8, !dbg !976
  %arrayidx = getelementptr inbounds float, float* %0, i64 0, !dbg !976
  %1 = load float, float* %arrayidx, align 4, !dbg !976
  %2 = load float*, float** %d.addr, align 8, !dbg !977
  %arrayidx1 = getelementptr inbounds float, float* %2, i64 0, !dbg !977
  store float %1, float* %arrayidx1, align 4, !dbg !978
  %3 = load float*, float** %s.addr, align 8, !dbg !979
  %arrayidx2 = getelementptr inbounds float, float* %3, i64 1, !dbg !979
  %4 = load float, float* %arrayidx2, align 4, !dbg !979
  %5 = load float*, float** %d.addr, align 8, !dbg !980
  %arrayidx3 = getelementptr inbounds float, float* %5, i64 1, !dbg !980
  store float %4, float* %arrayidx3, align 4, !dbg !981
  %6 = load float*, float** %s.addr, align 8, !dbg !982
  %arrayidx4 = getelementptr inbounds float, float* %6, i64 2, !dbg !982
  %7 = load float, float* %arrayidx4, align 4, !dbg !982
  %8 = load float*, float** %d.addr, align 8, !dbg !983
  %arrayidx5 = getelementptr inbounds float, float* %8, i64 2, !dbg !983
  store float %7, float* %arrayidx5, align 4, !dbg !984
  %9 = load float*, float** %s.addr, align 8, !dbg !985
  %arrayidx6 = getelementptr inbounds float, float* %9, i64 3, !dbg !985
  %10 = load float, float* %arrayidx6, align 4, !dbg !985
  %11 = load float*, float** %d.addr, align 8, !dbg !986
  %arrayidx7 = getelementptr inbounds float, float* %11, i64 3, !dbg !986
  store float %10, float* %arrayidx7, align 4, !dbg !987
  %12 = load float*, float** %s.addr, align 8, !dbg !988
  %arrayidx8 = getelementptr inbounds float, float* %12, i64 4, !dbg !988
  %13 = load float, float* %arrayidx8, align 4, !dbg !988
  %14 = load float*, float** %d.addr, align 8, !dbg !989
  %arrayidx9 = getelementptr inbounds float, float* %14, i64 4, !dbg !989
  store float %13, float* %arrayidx9, align 4, !dbg !990
  ret void, !dbg !991
}

; Function Attrs: noinline uwtable
define internal void @_ZN3povL12do_skysphereEPNS_10Ray_StructEPf(%"struct.pov::Ray_Struct"* %Ray, float* %Colour) #1 !dbg !992 {
entry:
  %Ray.addr = alloca %"struct.pov::Ray_Struct"*, align 8
  %Colour.addr = alloca float*, align 8
  %i = alloca i32, align 4
  %att = alloca double, align 8
  %trans = alloca double, align 8
  %Col = alloca [5 x float], align 16
  %Col_Temp = alloca [5 x float], align 16
  %Filter = alloca [5 x float], align 16
  %P = alloca [3 x double], align 16
  %Skysphere = alloca %"struct.pov::Skysphere_Struct"*, align 8
  store %"struct.pov::Ray_Struct"* %Ray, %"struct.pov::Ray_Struct"** %Ray.addr, align 8
  call void @llvm.dbg.declare(metadata %"struct.pov::Ray_Struct"** %Ray.addr, metadata !993, metadata !DIExpression()), !dbg !994
  store float* %Colour, float** %Colour.addr, align 8
  call void @llvm.dbg.declare(metadata float** %Colour.addr, metadata !995, metadata !DIExpression()), !dbg !996
  call void @llvm.dbg.declare(metadata i32* %i, metadata !997, metadata !DIExpression()), !dbg !998
  call void @llvm.dbg.declare(metadata double* %att, metadata !999, metadata !DIExpression()), !dbg !1000
  call void @llvm.dbg.declare(metadata double* %trans, metadata !1001, metadata !DIExpression()), !dbg !1002
  call void @llvm.dbg.declare(metadata [5 x float]* %Col, metadata !1003, metadata !DIExpression()), !dbg !1004
  call void @llvm.dbg.declare(metadata [5 x float]* %Col_Temp, metadata !1005, metadata !DIExpression()), !dbg !1006
  call void @llvm.dbg.declare(metadata [5 x float]* %Filter, metadata !1007, metadata !DIExpression()), !dbg !1008
  call void @llvm.dbg.declare(metadata [3 x double]* %P, metadata !1009, metadata !DIExpression()), !dbg !1010
  call void @llvm.dbg.declare(metadata %"struct.pov::Skysphere_Struct"** %Skysphere, metadata !1011, metadata !DIExpression()), !dbg !1012
  %0 = load %"struct.pov::Skysphere_Struct"*, %"struct.pov::Skysphere_Struct"** getelementptr inbounds (%"struct.pov::Frame_Struct", %"struct.pov::Frame_Struct"* @_ZN3pov5FrameE, i32 0, i32 15), align 8, !dbg !1013
  %cmp = icmp eq %"struct.pov::Skysphere_Struct"* %0, null, !dbg !1015
  br i1 %cmp, label %if.then, label %if.end, !dbg !1016

if.then:                                          ; preds = %entry
  br label %if.end84, !dbg !1017

if.end:                                           ; preds = %entry
  %arraydecay = getelementptr inbounds [5 x float], [5 x float]* %Col, i64 0, i64 0, !dbg !1019
  call void @_ZN3pov11Make_ColourEPffff(float* %arraydecay, float 0.000000e+00, float 0.000000e+00, float 0.000000e+00), !dbg !1020
  %1 = load %"struct.pov::Skysphere_Struct"*, %"struct.pov::Skysphere_Struct"** getelementptr inbounds (%"struct.pov::Frame_Struct", %"struct.pov::Frame_Struct"* @_ZN3pov5FrameE, i32 0, i32 15), align 8, !dbg !1021
  store %"struct.pov::Skysphere_Struct"* %1, %"struct.pov::Skysphere_Struct"** %Skysphere, align 8, !dbg !1023
  %cmp1 = icmp ne %"struct.pov::Skysphere_Struct"* %1, null, !dbg !1024
  br i1 %cmp1, label %land.lhs.true, label %if.end84, !dbg !1025

land.lhs.true:                                    ; preds = %if.end
  %2 = load %"struct.pov::Skysphere_Struct"*, %"struct.pov::Skysphere_Struct"** %Skysphere, align 8, !dbg !1026
  %Pigments = getelementptr inbounds %"struct.pov::Skysphere_Struct", %"struct.pov::Skysphere_Struct"* %2, i32 0, i32 1, !dbg !1027
  %3 = load %"struct.pov::Pigment_Struct"**, %"struct.pov::Pigment_Struct"*** %Pigments, align 8, !dbg !1027
  %cmp2 = icmp ne %"struct.pov::Pigment_Struct"** %3, null, !dbg !1028
  br i1 %cmp2, label %if.then3, label %if.end84, !dbg !1029

if.then3:                                         ; preds = %land.lhs.true
  %arraydecay4 = getelementptr inbounds [5 x float], [5 x float]* %Filter, i64 0, i64 0, !dbg !1030
  call void @_ZN3pov12Make_ColourAEPffffff(float* %arraydecay4, float 1.000000e+00, float 1.000000e+00, float 1.000000e+00, float 1.000000e+00, float 1.000000e+00), !dbg !1032
  store double 1.000000e+00, double* %trans, align 8, !dbg !1033
  %4 = load %"struct.pov::Skysphere_Struct"*, %"struct.pov::Skysphere_Struct"** %Skysphere, align 8, !dbg !1034
  %Trans = getelementptr inbounds %"struct.pov::Skysphere_Struct", %"struct.pov::Skysphere_Struct"* %4, i32 0, i32 2, !dbg !1036
  %5 = load %"struct.pov::Transform_Struct"*, %"struct.pov::Transform_Struct"** %Trans, align 8, !dbg !1036
  %cmp5 = icmp ne %"struct.pov::Transform_Struct"* %5, null, !dbg !1037
  br i1 %cmp5, label %if.then6, label %if.else, !dbg !1038

if.then6:                                         ; preds = %if.then3
  %arraydecay7 = getelementptr inbounds [3 x double], [3 x double]* %P, i64 0, i64 0, !dbg !1039
  %6 = load %"struct.pov::Ray_Struct"*, %"struct.pov::Ray_Struct"** %Ray.addr, align 8, !dbg !1041
  %Direction = getelementptr inbounds %"struct.pov::Ray_Struct", %"struct.pov::Ray_Struct"* %6, i32 0, i32 1, !dbg !1042
  %arraydecay8 = getelementptr inbounds [3 x double], [3 x double]* %Direction, i64 0, i64 0, !dbg !1041
  %7 = load %"struct.pov::Skysphere_Struct"*, %"struct.pov::Skysphere_Struct"** %Skysphere, align 8, !dbg !1043
  %Trans9 = getelementptr inbounds %"struct.pov::Skysphere_Struct", %"struct.pov::Skysphere_Struct"* %7, i32 0, i32 2, !dbg !1044
  %8 = load %"struct.pov::Transform_Struct"*, %"struct.pov::Transform_Struct"** %Trans9, align 8, !dbg !1044
  call void @_ZN3pov14MInvTransPointEPdS0_PNS_16Transform_StructE(double* %arraydecay7, double* %arraydecay8, %"struct.pov::Transform_Struct"* %8), !dbg !1045
  br label %if.end13, !dbg !1046

if.else:                                          ; preds = %if.then3
  %arraydecay10 = getelementptr inbounds [3 x double], [3 x double]* %P, i64 0, i64 0, !dbg !1047
  %9 = load %"struct.pov::Ray_Struct"*, %"struct.pov::Ray_Struct"** %Ray.addr, align 8, !dbg !1049
  %Direction11 = getelementptr inbounds %"struct.pov::Ray_Struct", %"struct.pov::Ray_Struct"* %9, i32 0, i32 1, !dbg !1050
  %arraydecay12 = getelementptr inbounds [3 x double], [3 x double]* %Direction11, i64 0, i64 0, !dbg !1049
  call void @_ZN3pov13Assign_VectorEPdS0_(double* %arraydecay10, double* %arraydecay12), !dbg !1051
  br label %if.end13

if.end13:                                         ; preds = %if.else, %if.then6
  %10 = load %"struct.pov::Skysphere_Struct"*, %"struct.pov::Skysphere_Struct"** %Skysphere, align 8, !dbg !1052
  %Count = getelementptr inbounds %"struct.pov::Skysphere_Struct", %"struct.pov::Skysphere_Struct"* %10, i32 0, i32 0, !dbg !1054
  %11 = load i32, i32* %Count, align 8, !dbg !1054
  %sub = sub nsw i32 %11, 1, !dbg !1055
  store i32 %sub, i32* %i, align 4, !dbg !1056
  br label %for.cond, !dbg !1057

for.cond:                                         ; preds = %for.inc, %if.end13
  %12 = load i32, i32* %i, align 4, !dbg !1058
  %cmp14 = icmp sge i32 %12, 0, !dbg !1060
  br i1 %cmp14, label %for.body, label %for.end, !dbg !1061

for.body:                                         ; preds = %for.cond
  %arraydecay15 = getelementptr inbounds [5 x float], [5 x float]* %Col_Temp, i64 0, i64 0, !dbg !1062
  %13 = load %"struct.pov::Skysphere_Struct"*, %"struct.pov::Skysphere_Struct"** %Skysphere, align 8, !dbg !1064
  %Pigments16 = getelementptr inbounds %"struct.pov::Skysphere_Struct", %"struct.pov::Skysphere_Struct"* %13, i32 0, i32 1, !dbg !1065
  %14 = load %"struct.pov::Pigment_Struct"**, %"struct.pov::Pigment_Struct"*** %Pigments16, align 8, !dbg !1065
  %15 = load i32, i32* %i, align 4, !dbg !1066
  %idxprom = sext i32 %15 to i64, !dbg !1064
  %arrayidx = getelementptr inbounds %"struct.pov::Pigment_Struct"*, %"struct.pov::Pigment_Struct"** %14, i64 %idxprom, !dbg !1064
  %16 = load %"struct.pov::Pigment_Struct"*, %"struct.pov::Pigment_Struct"** %arrayidx, align 8, !dbg !1064
  %arraydecay17 = getelementptr inbounds [3 x double], [3 x double]* %P, i64 0, i64 0, !dbg !1067
  %call = call i32 @_ZN3pov15Compute_PigmentEPfPNS_14Pigment_StructEPdPNS_10istk_entryE(float* %arraydecay15, %"struct.pov::Pigment_Struct"* %16, double* %arraydecay17, %"struct.pov::istk_entry"* null), !dbg !1068
  %17 = load double, double* %trans, align 8, !dbg !1069
  %arrayidx18 = getelementptr inbounds [5 x float], [5 x float]* %Col_Temp, i64 0, i64 3, !dbg !1070
  %18 = load float, float* %arrayidx18, align 4, !dbg !1070
  %conv = fpext float %18 to double, !dbg !1070
  %sub19 = fsub double 1.000000e+00, %conv, !dbg !1071
  %arrayidx20 = getelementptr inbounds [5 x float], [5 x float]* %Col_Temp, i64 0, i64 4, !dbg !1072
  %19 = load float, float* %arrayidx20, align 16, !dbg !1072
  %conv21 = fpext float %19 to double, !dbg !1072
  %sub22 = fsub double %sub19, %conv21, !dbg !1073
  %mul = fmul double %17, %sub22, !dbg !1074
  store double %mul, double* %att, align 8, !dbg !1075
  %arraydecay23 = getelementptr inbounds [5 x float], [5 x float]* %Col, i64 0, i64 0, !dbg !1076
  %20 = load double, double* %att, align 8, !dbg !1077
  %conv24 = fptrunc double %20 to float, !dbg !1077
  %arraydecay25 = getelementptr inbounds [5 x float], [5 x float]* %Col_Temp, i64 0, i64 0, !dbg !1078
  call void @_ZN3pov15CRGBAddScaledEqEPffPKf(float* %arraydecay23, float %conv24, float* %arraydecay25), !dbg !1079
  %arrayidx26 = getelementptr inbounds [5 x float], [5 x float]* %Col_Temp, i64 0, i64 0, !dbg !1080
  %21 = load float, float* %arrayidx26, align 16, !dbg !1080
  %arrayidx27 = getelementptr inbounds [5 x float], [5 x float]* %Filter, i64 0, i64 0, !dbg !1081
  %22 = load float, float* %arrayidx27, align 16, !dbg !1082
  %mul28 = fmul float %22, %21, !dbg !1082
  store float %mul28, float* %arrayidx27, align 16, !dbg !1082
  %arrayidx29 = getelementptr inbounds [5 x float], [5 x float]* %Col_Temp, i64 0, i64 1, !dbg !1083
  %23 = load float, float* %arrayidx29, align 4, !dbg !1083
  %arrayidx30 = getelementptr inbounds [5 x float], [5 x float]* %Filter, i64 0, i64 1, !dbg !1084
  %24 = load float, float* %arrayidx30, align 4, !dbg !1085
  %mul31 = fmul float %24, %23, !dbg !1085
  store float %mul31, float* %arrayidx30, align 4, !dbg !1085
  %arrayidx32 = getelementptr inbounds [5 x float], [5 x float]* %Col_Temp, i64 0, i64 2, !dbg !1086
  %25 = load float, float* %arrayidx32, align 8, !dbg !1086
  %arrayidx33 = getelementptr inbounds [5 x float], [5 x float]* %Filter, i64 0, i64 2, !dbg !1087
  %26 = load float, float* %arrayidx33, align 8, !dbg !1088
  %mul34 = fmul float %26, %25, !dbg !1088
  store float %mul34, float* %arrayidx33, align 8, !dbg !1088
  %arrayidx35 = getelementptr inbounds [5 x float], [5 x float]* %Col_Temp, i64 0, i64 3, !dbg !1089
  %27 = load float, float* %arrayidx35, align 4, !dbg !1089
  %arrayidx36 = getelementptr inbounds [5 x float], [5 x float]* %Filter, i64 0, i64 3, !dbg !1090
  %28 = load float, float* %arrayidx36, align 4, !dbg !1091
  %mul37 = fmul float %28, %27, !dbg !1091
  store float %mul37, float* %arrayidx36, align 4, !dbg !1091
  %arrayidx38 = getelementptr inbounds [5 x float], [5 x float]* %Col_Temp, i64 0, i64 4, !dbg !1092
  %29 = load float, float* %arrayidx38, align 16, !dbg !1092
  %arrayidx39 = getelementptr inbounds [5 x float], [5 x float]* %Filter, i64 0, i64 4, !dbg !1093
  %30 = load float, float* %arrayidx39, align 16, !dbg !1094
  %mul40 = fmul float %30, %29, !dbg !1094
  store float %mul40, float* %arrayidx39, align 16, !dbg !1094
  %arrayidx41 = getelementptr inbounds [5 x float], [5 x float]* %Filter, i64 0, i64 3, !dbg !1095
  %31 = load float, float* %arrayidx41, align 4, !dbg !1095
  %call42 = call float @_ZSt4fabsf(float %31), !dbg !1096
  %arrayidx43 = getelementptr inbounds [5 x float], [5 x float]* %Filter, i64 0, i64 4, !dbg !1097
  %32 = load float, float* %arrayidx43, align 16, !dbg !1097
  %call44 = call float @_ZSt4fabsf(float %32), !dbg !1098
  %add = fadd float %call42, %call44, !dbg !1099
  %conv45 = fpext float %add to double, !dbg !1096
  store double %conv45, double* %trans, align 8, !dbg !1100
  br label %for.inc, !dbg !1101

for.inc:                                          ; preds = %for.body
  %33 = load i32, i32* %i, align 4, !dbg !1102
  %dec = add nsw i32 %33, -1, !dbg !1102
  store i32 %dec, i32* %i, align 4, !dbg !1102
  br label %for.cond, !dbg !1103, !llvm.loop !1104

for.end:                                          ; preds = %for.cond
  %arrayidx46 = getelementptr inbounds [5 x float], [5 x float]* %Col, i64 0, i64 0, !dbg !1106
  %34 = load float, float* %arrayidx46, align 16, !dbg !1106
  %35 = load float*, float** %Colour.addr, align 8, !dbg !1107
  %arrayidx47 = getelementptr inbounds float, float* %35, i64 0, !dbg !1107
  %36 = load float, float* %arrayidx47, align 4, !dbg !1107
  %arrayidx48 = getelementptr inbounds [5 x float], [5 x float]* %Filter, i64 0, i64 0, !dbg !1108
  %37 = load float, float* %arrayidx48, align 16, !dbg !1108
  %arrayidx49 = getelementptr inbounds [5 x float], [5 x float]* %Filter, i64 0, i64 3, !dbg !1109
  %38 = load float, float* %arrayidx49, align 4, !dbg !1109
  %mul50 = fmul float %37, %38, !dbg !1110
  %arrayidx51 = getelementptr inbounds [5 x float], [5 x float]* %Filter, i64 0, i64 4, !dbg !1111
  %39 = load float, float* %arrayidx51, align 16, !dbg !1111
  %add52 = fadd float %mul50, %39, !dbg !1112
  %mul53 = fmul float %36, %add52, !dbg !1113
  %add54 = fadd float %34, %mul53, !dbg !1114
  %40 = load float*, float** %Colour.addr, align 8, !dbg !1115
  %arrayidx55 = getelementptr inbounds float, float* %40, i64 0, !dbg !1115
  store float %add54, float* %arrayidx55, align 4, !dbg !1116
  %arrayidx56 = getelementptr inbounds [5 x float], [5 x float]* %Col, i64 0, i64 1, !dbg !1117
  %41 = load float, float* %arrayidx56, align 4, !dbg !1117
  %42 = load float*, float** %Colour.addr, align 8, !dbg !1118
  %arrayidx57 = getelementptr inbounds float, float* %42, i64 1, !dbg !1118
  %43 = load float, float* %arrayidx57, align 4, !dbg !1118
  %arrayidx58 = getelementptr inbounds [5 x float], [5 x float]* %Filter, i64 0, i64 1, !dbg !1119
  %44 = load float, float* %arrayidx58, align 4, !dbg !1119
  %arrayidx59 = getelementptr inbounds [5 x float], [5 x float]* %Filter, i64 0, i64 3, !dbg !1120
  %45 = load float, float* %arrayidx59, align 4, !dbg !1120
  %mul60 = fmul float %44, %45, !dbg !1121
  %arrayidx61 = getelementptr inbounds [5 x float], [5 x float]* %Filter, i64 0, i64 4, !dbg !1122
  %46 = load float, float* %arrayidx61, align 16, !dbg !1122
  %add62 = fadd float %mul60, %46, !dbg !1123
  %mul63 = fmul float %43, %add62, !dbg !1124
  %add64 = fadd float %41, %mul63, !dbg !1125
  %47 = load float*, float** %Colour.addr, align 8, !dbg !1126
  %arrayidx65 = getelementptr inbounds float, float* %47, i64 1, !dbg !1126
  store float %add64, float* %arrayidx65, align 4, !dbg !1127
  %arrayidx66 = getelementptr inbounds [5 x float], [5 x float]* %Col, i64 0, i64 2, !dbg !1128
  %48 = load float, float* %arrayidx66, align 8, !dbg !1128
  %49 = load float*, float** %Colour.addr, align 8, !dbg !1129
  %arrayidx67 = getelementptr inbounds float, float* %49, i64 2, !dbg !1129
  %50 = load float, float* %arrayidx67, align 4, !dbg !1129
  %arrayidx68 = getelementptr inbounds [5 x float], [5 x float]* %Filter, i64 0, i64 2, !dbg !1130
  %51 = load float, float* %arrayidx68, align 8, !dbg !1130
  %arrayidx69 = getelementptr inbounds [5 x float], [5 x float]* %Filter, i64 0, i64 3, !dbg !1131
  %52 = load float, float* %arrayidx69, align 4, !dbg !1131
  %mul70 = fmul float %51, %52, !dbg !1132
  %arrayidx71 = getelementptr inbounds [5 x float], [5 x float]* %Filter, i64 0, i64 4, !dbg !1133
  %53 = load float, float* %arrayidx71, align 16, !dbg !1133
  %add72 = fadd float %mul70, %53, !dbg !1134
  %mul73 = fmul float %50, %add72, !dbg !1135
  %add74 = fadd float %48, %mul73, !dbg !1136
  %54 = load float*, float** %Colour.addr, align 8, !dbg !1137
  %arrayidx75 = getelementptr inbounds float, float* %54, i64 2, !dbg !1137
  store float %add74, float* %arrayidx75, align 4, !dbg !1138
  %55 = load float*, float** %Colour.addr, align 8, !dbg !1139
  %arrayidx76 = getelementptr inbounds float, float* %55, i64 3, !dbg !1139
  %56 = load float, float* %arrayidx76, align 4, !dbg !1139
  %arrayidx77 = getelementptr inbounds [5 x float], [5 x float]* %Filter, i64 0, i64 3, !dbg !1140
  %57 = load float, float* %arrayidx77, align 4, !dbg !1140
  %mul78 = fmul float %56, %57, !dbg !1141
  %58 = load float*, float** %Colour.addr, align 8, !dbg !1142
  %arrayidx79 = getelementptr inbounds float, float* %58, i64 3, !dbg !1142
  store float %mul78, float* %arrayidx79, align 4, !dbg !1143
  %59 = load float*, float** %Colour.addr, align 8, !dbg !1144
  %arrayidx80 = getelementptr inbounds float, float* %59, i64 4, !dbg !1144
  %60 = load float, float* %arrayidx80, align 4, !dbg !1144
  %arrayidx81 = getelementptr inbounds [5 x float], [5 x float]* %Filter, i64 0, i64 4, !dbg !1145
  %61 = load float, float* %arrayidx81, align 16, !dbg !1145
  %mul82 = fmul float %60, %61, !dbg !1146
  %62 = load float*, float** %Colour.addr, align 8, !dbg !1147
  %arrayidx83 = getelementptr inbounds float, float* %62, i64 4, !dbg !1147
  store float %mul82, float* %arrayidx83, align 4, !dbg !1148
  br label %if.end84, !dbg !1149

if.end84:                                         ; preds = %if.then, %for.end, %land.lhs.true, %if.end
  ret void, !dbg !1150
}

; Function Attrs: noinline uwtable
define dso_local void @_ZN3pov20Do_Finite_AtmosphereEPNS_10Ray_StructEPNS_10istk_entryEPfi(%"struct.pov::Ray_Struct"* %Ray, %"struct.pov::istk_entry"* %Intersection, float* %Colour, i32 %Light_Ray_Flag) #1 !dbg !1151 {
entry:
  %Ray.addr = alloca %"struct.pov::Ray_Struct"*, align 8
  %Intersection.addr = alloca %"struct.pov::istk_entry"*, align 8
  %Colour.addr = alloca float*, align 8
  %Light_Ray_Flag.addr = alloca i32, align 4
  %Media_List = alloca [2 x %"struct.pov::Media_Struct"*], align 16
  store %"struct.pov::Ray_Struct"* %Ray, %"struct.pov::Ray_Struct"** %Ray.addr, align 8
  call void @llvm.dbg.declare(metadata %"struct.pov::Ray_Struct"** %Ray.addr, metadata !1184, metadata !DIExpression()), !dbg !1185
  store %"struct.pov::istk_entry"* %Intersection, %"struct.pov::istk_entry"** %Intersection.addr, align 8
  call void @llvm.dbg.declare(metadata %"struct.pov::istk_entry"** %Intersection.addr, metadata !1186, metadata !DIExpression()), !dbg !1187
  store float* %Colour, float** %Colour.addr, align 8
  call void @llvm.dbg.declare(metadata float** %Colour.addr, metadata !1188, metadata !DIExpression()), !dbg !1189
  store i32 %Light_Ray_Flag, i32* %Light_Ray_Flag.addr, align 4
  call void @llvm.dbg.declare(metadata i32* %Light_Ray_Flag.addr, metadata !1190, metadata !DIExpression()), !dbg !1191
  call void @llvm.dbg.declare(metadata [2 x %"struct.pov::Media_Struct"*]* %Media_List, metadata !1192, metadata !DIExpression()), !dbg !1197
  %0 = load i32, i32* %Light_Ray_Flag.addr, align 4, !dbg !1198
  %tobool = icmp ne i32 %0, 0, !dbg !1198
  br i1 %tobool, label %if.end, label %if.then, !dbg !1200

if.then:                                          ; preds = %entry
  %1 = load %"struct.pov::Ray_Struct"*, %"struct.pov::Ray_Struct"** %Ray.addr, align 8, !dbg !1201
  %2 = load %"struct.pov::istk_entry"*, %"struct.pov::istk_entry"** %Intersection.addr, align 8, !dbg !1203
  %3 = load float*, float** %Colour.addr, align 8, !dbg !1204
  call void @_ZN3povL10do_rainbowEPNS_10Ray_StructEPNS_10istk_entryEPf(%"struct.pov::Ray_Struct"* %1, %"struct.pov::istk_entry"* %2, float* %3), !dbg !1205
  br label %if.end, !dbg !1206

if.end:                                           ; preds = %if.then, %entry
  %4 = load %"struct.pov::Media_Struct"*, %"struct.pov::Media_Struct"** getelementptr inbounds (%"struct.pov::Frame_Struct", %"struct.pov::Frame_Struct"* @_ZN3pov5FrameE, i32 0, i32 12), align 8, !dbg !1207
  %arrayidx = getelementptr inbounds [2 x %"struct.pov::Media_Struct"*], [2 x %"struct.pov::Media_Struct"*]* %Media_List, i64 0, i64 0, !dbg !1208
  store %"struct.pov::Media_Struct"* %4, %"struct.pov::Media_Struct"** %arrayidx, align 16, !dbg !1209
  %arrayidx1 = getelementptr inbounds [2 x %"struct.pov::Media_Struct"*], [2 x %"struct.pov::Media_Struct"*]* %Media_List, i64 0, i64 1, !dbg !1210
  store %"struct.pov::Media_Struct"* null, %"struct.pov::Media_Struct"** %arrayidx1, align 8, !dbg !1211
  %arraydecay = getelementptr inbounds [2 x %"struct.pov::Media_Struct"*], [2 x %"struct.pov::Media_Struct"*]* %Media_List, i64 0, i64 0, !dbg !1212
  %5 = load %"struct.pov::Ray_Struct"*, %"struct.pov::Ray_Struct"** %Ray.addr, align 8, !dbg !1213
  %6 = load %"struct.pov::istk_entry"*, %"struct.pov::istk_entry"** %Intersection.addr, align 8, !dbg !1214
  %7 = load float*, float** %Colour.addr, align 8, !dbg !1215
  %8 = load i32, i32* %Light_Ray_Flag.addr, align 4, !dbg !1216
  call void @_ZN3pov14Simulate_MediaEPPNS_12Media_StructEPNS_10Ray_StructEPNS_10istk_entryEPfi(%"struct.pov::Media_Struct"** %arraydecay, %"struct.pov::Ray_Struct"* %5, %"struct.pov::istk_entry"* %6, float* %7, i32 %8), !dbg !1217
  %9 = load %"struct.pov::Ray_Struct"*, %"struct.pov::Ray_Struct"** %Ray.addr, align 8, !dbg !1218
  %10 = load %"struct.pov::istk_entry"*, %"struct.pov::istk_entry"** %Intersection.addr, align 8, !dbg !1219
  %11 = load float*, float** %Colour.addr, align 8, !dbg !1220
  %12 = load i32, i32* %Light_Ray_Flag.addr, align 4, !dbg !1221
  call void @_ZN3povL6do_fogEPNS_10Ray_StructEPNS_10istk_entryEPfi(%"struct.pov::Ray_Struct"* %9, %"struct.pov::istk_entry"* %10, float* %11, i32 %12), !dbg !1222
  ret void, !dbg !1223
}

; Function Attrs: noinline uwtable
define internal void @_ZN3povL10do_rainbowEPNS_10Ray_StructEPNS_10istk_entryEPf(%"struct.pov::Ray_Struct"* %Ray, %"struct.pov::istk_entry"* %Intersection, float* %Colour) #1 !dbg !1224 {
entry:
  %Ray.addr = alloca %"struct.pov::Ray_Struct"*, align 8
  %Intersection.addr = alloca %"struct.pov::istk_entry"*, align 8
  %Colour.addr = alloca float*, align 8
  %n = alloca i32, align 4
  %dot = alloca double, align 8
  %k = alloca double, align 8
  %ki = alloca double, align 8
  %index = alloca double, align 8
  %x = alloca double, align 8
  %y = alloca double, align 8
  %l = alloca double, align 8
  %angle = alloca double, align 8
  %fade = alloca double, align 8
  %f = alloca double, align 8
  %Temp = alloca [3 x double], align 16
  %Cr = alloca [5 x float], align 16
  %Ct = alloca [5 x float], align 16
  %Rainbow = alloca %"struct.pov::Rainbow_Struct"*, align 8
  %ref.tmp = alloca double, align 8
  %tmp = alloca float, align 4
  store %"struct.pov::Ray_Struct"* %Ray, %"struct.pov::Ray_Struct"** %Ray.addr, align 8
  call void @llvm.dbg.declare(metadata %"struct.pov::Ray_Struct"** %Ray.addr, metadata !1227, metadata !DIExpression()), !dbg !1228
  store %"struct.pov::istk_entry"* %Intersection, %"struct.pov::istk_entry"** %Intersection.addr, align 8
  call void @llvm.dbg.declare(metadata %"struct.pov::istk_entry"** %Intersection.addr, metadata !1229, metadata !DIExpression()), !dbg !1230
  store float* %Colour, float** %Colour.addr, align 8
  call void @llvm.dbg.declare(metadata float** %Colour.addr, metadata !1231, metadata !DIExpression()), !dbg !1232
  call void @llvm.dbg.declare(metadata i32* %n, metadata !1233, metadata !DIExpression()), !dbg !1234
  call void @llvm.dbg.declare(metadata double* %dot, metadata !1235, metadata !DIExpression()), !dbg !1236
  call void @llvm.dbg.declare(metadata double* %k, metadata !1237, metadata !DIExpression()), !dbg !1238
  call void @llvm.dbg.declare(metadata double* %ki, metadata !1239, metadata !DIExpression()), !dbg !1240
  call void @llvm.dbg.declare(metadata double* %index, metadata !1241, metadata !DIExpression()), !dbg !1242
  call void @llvm.dbg.declare(metadata double* %x, metadata !1243, metadata !DIExpression()), !dbg !1244
  call void @llvm.dbg.declare(metadata double* %y, metadata !1245, metadata !DIExpression()), !dbg !1246
  call void @llvm.dbg.declare(metadata double* %l, metadata !1247, metadata !DIExpression()), !dbg !1248
  call void @llvm.dbg.declare(metadata double* %angle, metadata !1249, metadata !DIExpression()), !dbg !1250
  call void @llvm.dbg.declare(metadata double* %fade, metadata !1251, metadata !DIExpression()), !dbg !1252
  call void @llvm.dbg.declare(metadata double* %f, metadata !1253, metadata !DIExpression()), !dbg !1254
  call void @llvm.dbg.declare(metadata [3 x double]* %Temp, metadata !1255, metadata !DIExpression()), !dbg !1256
  call void @llvm.dbg.declare(metadata [5 x float]* %Cr, metadata !1257, metadata !DIExpression()), !dbg !1258
  call void @llvm.dbg.declare(metadata [5 x float]* %Ct, metadata !1259, metadata !DIExpression()), !dbg !1260
  call void @llvm.dbg.declare(metadata %"struct.pov::Rainbow_Struct"** %Rainbow, metadata !1261, metadata !DIExpression()), !dbg !1262
  %0 = load %"struct.pov::Rainbow_Struct"*, %"struct.pov::Rainbow_Struct"** getelementptr inbounds (%"struct.pov::Frame_Struct", %"struct.pov::Frame_Struct"* @_ZN3pov5FrameE, i32 0, i32 14), align 8, !dbg !1263
  %cmp = icmp eq %"struct.pov::Rainbow_Struct"* %0, null, !dbg !1265
  br i1 %cmp, label %if.then, label %if.end, !dbg !1266

if.then:                                          ; preds = %entry
  br label %if.end162, !dbg !1267

if.end:                                           ; preds = %entry
  %arraydecay = getelementptr inbounds [5 x float], [5 x float]* %Ct, i64 0, i64 0, !dbg !1269
  call void @_ZN3pov12Make_ColourAEPffffff(float* %arraydecay, float 0.000000e+00, float 0.000000e+00, float 0.000000e+00, float 1.000000e+00, float 1.000000e+00), !dbg !1270
  store i32 0, i32* %n, align 4, !dbg !1271
  %1 = load %"struct.pov::Rainbow_Struct"*, %"struct.pov::Rainbow_Struct"** getelementptr inbounds (%"struct.pov::Frame_Struct", %"struct.pov::Frame_Struct"* @_ZN3pov5FrameE, i32 0, i32 14), align 8, !dbg !1272
  store %"struct.pov::Rainbow_Struct"* %1, %"struct.pov::Rainbow_Struct"** %Rainbow, align 8, !dbg !1274
  br label %for.cond, !dbg !1275

for.cond:                                         ; preds = %for.inc, %if.end
  %2 = load %"struct.pov::Rainbow_Struct"*, %"struct.pov::Rainbow_Struct"** %Rainbow, align 8, !dbg !1276
  %cmp1 = icmp ne %"struct.pov::Rainbow_Struct"* %2, null, !dbg !1278
  br i1 %cmp1, label %for.body, label %for.end, !dbg !1279

for.body:                                         ; preds = %for.cond
  %3 = load %"struct.pov::Rainbow_Struct"*, %"struct.pov::Rainbow_Struct"** %Rainbow, align 8, !dbg !1280
  %Pigment = getelementptr inbounds %"struct.pov::Rainbow_Struct", %"struct.pov::Rainbow_Struct"* %3, i32 0, i32 10, !dbg !1283
  %4 = load %"struct.pov::Pigment_Struct"*, %"struct.pov::Pigment_Struct"** %Pigment, align 8, !dbg !1283
  %cmp2 = icmp ne %"struct.pov::Pigment_Struct"* %4, null, !dbg !1284
  br i1 %cmp2, label %land.lhs.true, label %if.end141, !dbg !1285

land.lhs.true:                                    ; preds = %for.body
  %5 = load %"struct.pov::Rainbow_Struct"*, %"struct.pov::Rainbow_Struct"** %Rainbow, align 8, !dbg !1286
  %Distance = getelementptr inbounds %"struct.pov::Rainbow_Struct", %"struct.pov::Rainbow_Struct"* %5, i32 0, i32 0, !dbg !1287
  %6 = load double, double* %Distance, align 8, !dbg !1287
  %cmp3 = fcmp une double %6, 0.000000e+00, !dbg !1288
  br i1 %cmp3, label %land.lhs.true4, label %if.end141, !dbg !1289

land.lhs.true4:                                   ; preds = %land.lhs.true
  %7 = load %"struct.pov::Rainbow_Struct"*, %"struct.pov::Rainbow_Struct"** %Rainbow, align 8, !dbg !1290
  %Width = getelementptr inbounds %"struct.pov::Rainbow_Struct", %"struct.pov::Rainbow_Struct"* %7, i32 0, i32 3, !dbg !1291
  %8 = load double, double* %Width, align 8, !dbg !1291
  %cmp5 = fcmp une double %8, 0.000000e+00, !dbg !1292
  br i1 %cmp5, label %if.then6, label %if.end141, !dbg !1293

if.then6:                                         ; preds = %land.lhs.true4
  %9 = load %"struct.pov::Ray_Struct"*, %"struct.pov::Ray_Struct"** %Ray.addr, align 8, !dbg !1294
  %Direction = getelementptr inbounds %"struct.pov::Ray_Struct", %"struct.pov::Ray_Struct"* %9, i32 0, i32 1, !dbg !1296
  %arraydecay7 = getelementptr inbounds [3 x double], [3 x double]* %Direction, i64 0, i64 0, !dbg !1294
  %10 = load %"struct.pov::Rainbow_Struct"*, %"struct.pov::Rainbow_Struct"** %Rainbow, align 8, !dbg !1297
  %Right_Vector = getelementptr inbounds %"struct.pov::Rainbow_Struct", %"struct.pov::Rainbow_Struct"* %10, i32 0, i32 9, !dbg !1298
  %arraydecay8 = getelementptr inbounds [3 x double], [3 x double]* %Right_Vector, i64 0, i64 0, !dbg !1297
  call void @_ZN3pov4VDotERdPKdS2_(double* dereferenceable(8) %x, double* %arraydecay7, double* %arraydecay8), !dbg !1299
  %11 = load %"struct.pov::Ray_Struct"*, %"struct.pov::Ray_Struct"** %Ray.addr, align 8, !dbg !1300
  %Direction9 = getelementptr inbounds %"struct.pov::Ray_Struct", %"struct.pov::Ray_Struct"* %11, i32 0, i32 1, !dbg !1301
  %arraydecay10 = getelementptr inbounds [3 x double], [3 x double]* %Direction9, i64 0, i64 0, !dbg !1300
  %12 = load %"struct.pov::Rainbow_Struct"*, %"struct.pov::Rainbow_Struct"** %Rainbow, align 8, !dbg !1302
  %Up_Vector = getelementptr inbounds %"struct.pov::Rainbow_Struct", %"struct.pov::Rainbow_Struct"* %12, i32 0, i32 8, !dbg !1303
  %arraydecay11 = getelementptr inbounds [3 x double], [3 x double]* %Up_Vector, i64 0, i64 0, !dbg !1302
  call void @_ZN3pov4VDotERdPKdS2_(double* dereferenceable(8) %y, double* %arraydecay10, double* %arraydecay11), !dbg !1304
  %13 = load double, double* %x, align 8, !dbg !1305
  %call = call double @_ZN3pov3SqrEd(double %13), !dbg !1306
  %14 = load double, double* %y, align 8, !dbg !1307
  %call12 = call double @_ZN3pov3SqrEd(double %14), !dbg !1308
  %add = fadd double %call, %call12, !dbg !1309
  store double %add, double* %l, align 8, !dbg !1310
  %15 = load double, double* %l, align 8, !dbg !1311
  %cmp13 = fcmp ogt double %15, 0.000000e+00, !dbg !1313
  br i1 %cmp13, label %if.then14, label %if.end16, !dbg !1314

if.then14:                                        ; preds = %if.then6
  %16 = load double, double* %l, align 8, !dbg !1315
  %call15 = call double @sqrt(double %16) #6, !dbg !1317
  store double %call15, double* %l, align 8, !dbg !1318
  %17 = load double, double* %l, align 8, !dbg !1319
  %18 = load double, double* %y, align 8, !dbg !1320
  %div = fdiv double %18, %17, !dbg !1320
  store double %div, double* %y, align 8, !dbg !1320
  br label %if.end16, !dbg !1321

if.end16:                                         ; preds = %if.then14, %if.then6
  %19 = load double, double* %y, align 8, !dbg !1322
  %call17 = call double @acos(double %19) #6, !dbg !1323
  %20 = call double @llvm.fabs.f64(double %call17), !dbg !1324
  store double %20, double* %angle, align 8, !dbg !1325
  %21 = load double, double* %angle, align 8, !dbg !1326
  %22 = load %"struct.pov::Rainbow_Struct"*, %"struct.pov::Rainbow_Struct"** %Rainbow, align 8, !dbg !1328
  %Arc_Angle = getelementptr inbounds %"struct.pov::Rainbow_Struct", %"struct.pov::Rainbow_Struct"* %22, i32 0, i32 4, !dbg !1329
  %23 = load double, double* %Arc_Angle, align 8, !dbg !1329
  %cmp18 = fcmp ole double %21, %23, !dbg !1330
  br i1 %cmp18, label %if.then19, label %if.end140, !dbg !1331

if.then19:                                        ; preds = %if.end16
  %24 = load %"struct.pov::Ray_Struct"*, %"struct.pov::Ray_Struct"** %Ray.addr, align 8, !dbg !1332
  %Direction20 = getelementptr inbounds %"struct.pov::Ray_Struct", %"struct.pov::Ray_Struct"* %24, i32 0, i32 1, !dbg !1334
  %arraydecay21 = getelementptr inbounds [3 x double], [3 x double]* %Direction20, i64 0, i64 0, !dbg !1332
  %25 = load %"struct.pov::Rainbow_Struct"*, %"struct.pov::Rainbow_Struct"** %Rainbow, align 8, !dbg !1335
  %Antisolar_Vector = getelementptr inbounds %"struct.pov::Rainbow_Struct", %"struct.pov::Rainbow_Struct"* %25, i32 0, i32 7, !dbg !1336
  %arraydecay22 = getelementptr inbounds [3 x double], [3 x double]* %Antisolar_Vector, i64 0, i64 0, !dbg !1335
  call void @_ZN3pov4VDotERdPKdS2_(double* dereferenceable(8) %dot, double* %arraydecay21, double* %arraydecay22), !dbg !1337
  %26 = load double, double* %dot, align 8, !dbg !1338
  %cmp23 = fcmp oge double %26, 0.000000e+00, !dbg !1340
  br i1 %cmp23, label %if.then24, label %if.end139, !dbg !1341

if.then24:                                        ; preds = %if.then19
  %27 = load double, double* %dot, align 8, !dbg !1342
  %call25 = call double @acos(double %27) #6, !dbg !1344
  %28 = load %"struct.pov::Rainbow_Struct"*, %"struct.pov::Rainbow_Struct"** %Rainbow, align 8, !dbg !1345
  %Angle = getelementptr inbounds %"struct.pov::Rainbow_Struct", %"struct.pov::Rainbow_Struct"* %28, i32 0, i32 2, !dbg !1346
  %29 = load double, double* %Angle, align 8, !dbg !1346
  %sub = fsub double %call25, %29, !dbg !1347
  %30 = load %"struct.pov::Rainbow_Struct"*, %"struct.pov::Rainbow_Struct"** %Rainbow, align 8, !dbg !1348
  %Width26 = getelementptr inbounds %"struct.pov::Rainbow_Struct", %"struct.pov::Rainbow_Struct"* %30, i32 0, i32 3, !dbg !1349
  %31 = load double, double* %Width26, align 8, !dbg !1349
  %div27 = fdiv double %sub, %31, !dbg !1350
  store double %div27, double* %index, align 8, !dbg !1351
  %32 = load %"struct.pov::Rainbow_Struct"*, %"struct.pov::Rainbow_Struct"** %Rainbow, align 8, !dbg !1352
  %Jitter = getelementptr inbounds %"struct.pov::Rainbow_Struct", %"struct.pov::Rainbow_Struct"* %32, i32 0, i32 1, !dbg !1354
  %33 = load double, double* %Jitter, align 8, !dbg !1354
  %cmp28 = fcmp ogt double %33, 0.000000e+00, !dbg !1355
  br i1 %cmp28, label %if.then29, label %if.end36, !dbg !1356

if.then29:                                        ; preds = %if.then24
  %call30 = call i32 @_ZN3pov8POV_RANDEv(), !dbg !1357
  %conv = sitofp i32 %call30 to double, !dbg !1357
  %mul = fmul double %conv, 0x3F0000200040021E, !dbg !1357
  %mul31 = fmul double 2.000000e+00, %mul, !dbg !1359
  %sub32 = fsub double %mul31, 1.000000e+00, !dbg !1360
  %34 = load %"struct.pov::Rainbow_Struct"*, %"struct.pov::Rainbow_Struct"** %Rainbow, align 8, !dbg !1361
  %Jitter33 = getelementptr inbounds %"struct.pov::Rainbow_Struct", %"struct.pov::Rainbow_Struct"* %34, i32 0, i32 1, !dbg !1362
  %35 = load double, double* %Jitter33, align 8, !dbg !1362
  %mul34 = fmul double %sub32, %35, !dbg !1363
  %36 = load double, double* %index, align 8, !dbg !1364
  %add35 = fadd double %36, %mul34, !dbg !1364
  store double %add35, double* %index, align 8, !dbg !1364
  br label %if.end36, !dbg !1365

if.end36:                                         ; preds = %if.then29, %if.then24
  %37 = load double, double* %index, align 8, !dbg !1366
  %cmp37 = fcmp oge double %37, 0.000000e+00, !dbg !1368
  br i1 %cmp37, label %land.lhs.true38, label %if.end138, !dbg !1369

land.lhs.true38:                                  ; preds = %if.end36
  %38 = load double, double* %index, align 8, !dbg !1370
  %cmp39 = fcmp ole double %38, 0x3FEFFFFFCA501ACB, !dbg !1371
  br i1 %cmp39, label %if.then40, label %if.end138, !dbg !1372

if.then40:                                        ; preds = %land.lhs.true38
  %arraydecay41 = getelementptr inbounds [3 x double], [3 x double]* %Temp, i64 0, i64 0, !dbg !1373
  %39 = load double, double* %index, align 8, !dbg !1375
  call void @_ZN3pov11Make_VectorEPdddd(double* %arraydecay41, double %39, double 0.000000e+00, double 0.000000e+00), !dbg !1376
  %arraydecay42 = getelementptr inbounds [5 x float], [5 x float]* %Cr, i64 0, i64 0, !dbg !1377
  %40 = load %"struct.pov::Rainbow_Struct"*, %"struct.pov::Rainbow_Struct"** %Rainbow, align 8, !dbg !1378
  %Pigment43 = getelementptr inbounds %"struct.pov::Rainbow_Struct", %"struct.pov::Rainbow_Struct"* %40, i32 0, i32 10, !dbg !1379
  %41 = load %"struct.pov::Pigment_Struct"*, %"struct.pov::Pigment_Struct"** %Pigment43, align 8, !dbg !1379
  %arraydecay44 = getelementptr inbounds [3 x double], [3 x double]* %Temp, i64 0, i64 0, !dbg !1380
  %42 = load %"struct.pov::istk_entry"*, %"struct.pov::istk_entry"** %Intersection.addr, align 8, !dbg !1381
  %call45 = call i32 @_ZN3pov15Compute_PigmentEPfPNS_14Pigment_StructEPdPNS_10istk_entryE(float* %arraydecay42, %"struct.pov::Pigment_Struct"* %41, double* %arraydecay44, %"struct.pov::istk_entry"* %42), !dbg !1382
  %43 = load %"struct.pov::Rainbow_Struct"*, %"struct.pov::Rainbow_Struct"** %Rainbow, align 8, !dbg !1383
  %Falloff_Width = getelementptr inbounds %"struct.pov::Rainbow_Struct", %"struct.pov::Rainbow_Struct"* %43, i32 0, i32 6, !dbg !1385
  %44 = load double, double* %Falloff_Width, align 8, !dbg !1385
  %cmp46 = fcmp ogt double %44, 0.000000e+00, !dbg !1386
  br i1 %cmp46, label %land.lhs.true47, label %if.else, !dbg !1387

land.lhs.true47:                                  ; preds = %if.then40
  %45 = load double, double* %angle, align 8, !dbg !1388
  %46 = load %"struct.pov::Rainbow_Struct"*, %"struct.pov::Rainbow_Struct"** %Rainbow, align 8, !dbg !1389
  %Falloff_Angle = getelementptr inbounds %"struct.pov::Rainbow_Struct", %"struct.pov::Rainbow_Struct"* %46, i32 0, i32 5, !dbg !1390
  %47 = load double, double* %Falloff_Angle, align 8, !dbg !1390
  %cmp48 = fcmp ogt double %45, %47, !dbg !1391
  br i1 %cmp48, label %if.then49, label %if.else, !dbg !1392

if.then49:                                        ; preds = %land.lhs.true47
  %48 = load double, double* %angle, align 8, !dbg !1393
  %49 = load %"struct.pov::Rainbow_Struct"*, %"struct.pov::Rainbow_Struct"** %Rainbow, align 8, !dbg !1395
  %Falloff_Angle50 = getelementptr inbounds %"struct.pov::Rainbow_Struct", %"struct.pov::Rainbow_Struct"* %49, i32 0, i32 5, !dbg !1396
  %50 = load double, double* %Falloff_Angle50, align 8, !dbg !1396
  %sub51 = fsub double %48, %50, !dbg !1397
  %51 = load %"struct.pov::Rainbow_Struct"*, %"struct.pov::Rainbow_Struct"** %Rainbow, align 8, !dbg !1398
  %Falloff_Width52 = getelementptr inbounds %"struct.pov::Rainbow_Struct", %"struct.pov::Rainbow_Struct"* %51, i32 0, i32 6, !dbg !1399
  %52 = load double, double* %Falloff_Width52, align 8, !dbg !1399
  %div53 = fdiv double %sub51, %52, !dbg !1400
  store double %div53, double* %fade, align 8, !dbg !1401
  %53 = load double, double* %fade, align 8, !dbg !1402
  %mul54 = fmul double 2.000000e+00, %53, !dbg !1403
  %sub55 = fsub double 3.000000e+00, %mul54, !dbg !1404
  %54 = load double, double* %fade, align 8, !dbg !1405
  %mul56 = fmul double %sub55, %54, !dbg !1406
  %55 = load double, double* %fade, align 8, !dbg !1407
  %mul57 = fmul double %mul56, %55, !dbg !1408
  store double %mul57, double* %fade, align 8, !dbg !1409
  br label %if.end58, !dbg !1410

if.else:                                          ; preds = %land.lhs.true47, %if.then40
  store double 0.000000e+00, double* %fade, align 8, !dbg !1411
  br label %if.end58

if.end58:                                         ; preds = %if.else, %if.then49
  %56 = load %"struct.pov::istk_entry"*, %"struct.pov::istk_entry"** %Intersection.addr, align 8, !dbg !1413
  %Depth = getelementptr inbounds %"struct.pov::istk_entry", %"struct.pov::istk_entry"* %56, i32 0, i32 0, !dbg !1414
  %57 = load double, double* %Depth, align 8, !dbg !1414
  %fneg = fneg double %57, !dbg !1415
  %58 = load %"struct.pov::Rainbow_Struct"*, %"struct.pov::Rainbow_Struct"** %Rainbow, align 8, !dbg !1416
  %Distance59 = getelementptr inbounds %"struct.pov::Rainbow_Struct", %"struct.pov::Rainbow_Struct"* %58, i32 0, i32 0, !dbg !1417
  %59 = load double, double* %Distance59, align 8, !dbg !1417
  %div60 = fdiv double %fneg, %59, !dbg !1418
  %call61 = call double @exp(double %div60) #6, !dbg !1419
  store double %call61, double* %k, align 8, !dbg !1420
  %60 = load double, double* %fade, align 8, !dbg !1421
  %arrayidx = getelementptr inbounds [5 x float], [5 x float]* %Cr, i64 0, i64 4, !dbg !1422
  %61 = load float, float* %arrayidx, align 16, !dbg !1422
  %conv62 = fpext float %61 to double, !dbg !1422
  %sub63 = fsub double 1.000000e+00, %conv62, !dbg !1423
  %mul64 = fmul double %60, %sub63, !dbg !1424
  %arrayidx65 = getelementptr inbounds [5 x float], [5 x float]* %Cr, i64 0, i64 4, !dbg !1425
  %62 = load float, float* %arrayidx65, align 16, !dbg !1425
  %conv66 = fpext float %62 to double, !dbg !1425
  %add67 = fadd double %mul64, %conv66, !dbg !1426
  store double %add67, double* %ref.tmp, align 8, !dbg !1421
  %call68 = call dereferenceable(8) double* @_ZSt3maxIdERKT_S2_S2_(double* dereferenceable(8) %k, double* dereferenceable(8) %ref.tmp), !dbg !1427
  %63 = load double, double* %call68, align 8, !dbg !1427
  store double %63, double* %k, align 8, !dbg !1428
  %64 = load double, double* %k, align 8, !dbg !1429
  %sub69 = fsub double 1.000000e+00, %64, !dbg !1430
  store double %sub69, double* %ki, align 8, !dbg !1431
  %arrayidx70 = getelementptr inbounds [5 x float], [5 x float]* %Cr, i64 0, i64 3, !dbg !1432
  %65 = load float, float* %arrayidx70, align 4, !dbg !1432
  %conv71 = fpext float %65 to double, !dbg !1432
  %66 = load double, double* %ki, align 8, !dbg !1433
  %mul72 = fmul double %conv71, %66, !dbg !1434
  store double %mul72, double* %f, align 8, !dbg !1435
  %67 = load double, double* %k, align 8, !dbg !1436
  %68 = load float*, float** %Colour.addr, align 8, !dbg !1437
  %arrayidx73 = getelementptr inbounds float, float* %68, i64 0, !dbg !1437
  %69 = load float, float* %arrayidx73, align 4, !dbg !1437
  %conv74 = fpext float %69 to double, !dbg !1437
  %mul75 = fmul double %67, %conv74, !dbg !1438
  %70 = load double, double* %f, align 8, !dbg !1439
  %sub76 = fsub double 1.000000e+00, %70, !dbg !1440
  %71 = load double, double* %f, align 8, !dbg !1441
  %arrayidx77 = getelementptr inbounds [5 x float], [5 x float]* %Cr, i64 0, i64 0, !dbg !1442
  %72 = load float, float* %arrayidx77, align 16, !dbg !1442
  %conv78 = fpext float %72 to double, !dbg !1442
  %mul79 = fmul double %71, %conv78, !dbg !1443
  %add80 = fadd double %sub76, %mul79, !dbg !1444
  %mul81 = fmul double %mul75, %add80, !dbg !1445
  %73 = load double, double* %ki, align 8, !dbg !1446
  %arrayidx82 = getelementptr inbounds [5 x float], [5 x float]* %Cr, i64 0, i64 0, !dbg !1447
  %74 = load float, float* %arrayidx82, align 16, !dbg !1447
  %conv83 = fpext float %74 to double, !dbg !1447
  %mul84 = fmul double %73, %conv83, !dbg !1448
  %add85 = fadd double %mul81, %mul84, !dbg !1449
  %arrayidx86 = getelementptr inbounds [5 x float], [5 x float]* %Ct, i64 0, i64 0, !dbg !1450
  %75 = load float, float* %arrayidx86, align 16, !dbg !1451
  %conv87 = fpext float %75 to double, !dbg !1451
  %add88 = fadd double %conv87, %add85, !dbg !1451
  %conv89 = fptrunc double %add88 to float, !dbg !1451
  store float %conv89, float* %arrayidx86, align 16, !dbg !1451
  %76 = load double, double* %k, align 8, !dbg !1452
  %77 = load float*, float** %Colour.addr, align 8, !dbg !1453
  %arrayidx90 = getelementptr inbounds float, float* %77, i64 1, !dbg !1453
  %78 = load float, float* %arrayidx90, align 4, !dbg !1453
  %conv91 = fpext float %78 to double, !dbg !1453
  %mul92 = fmul double %76, %conv91, !dbg !1454
  %79 = load double, double* %f, align 8, !dbg !1455
  %sub93 = fsub double 1.000000e+00, %79, !dbg !1456
  %80 = load double, double* %f, align 8, !dbg !1457
  %arrayidx94 = getelementptr inbounds [5 x float], [5 x float]* %Cr, i64 0, i64 1, !dbg !1458
  %81 = load float, float* %arrayidx94, align 4, !dbg !1458
  %conv95 = fpext float %81 to double, !dbg !1458
  %mul96 = fmul double %80, %conv95, !dbg !1459
  %add97 = fadd double %sub93, %mul96, !dbg !1460
  %mul98 = fmul double %mul92, %add97, !dbg !1461
  %82 = load double, double* %ki, align 8, !dbg !1462
  %arrayidx99 = getelementptr inbounds [5 x float], [5 x float]* %Cr, i64 0, i64 1, !dbg !1463
  %83 = load float, float* %arrayidx99, align 4, !dbg !1463
  %conv100 = fpext float %83 to double, !dbg !1463
  %mul101 = fmul double %82, %conv100, !dbg !1464
  %add102 = fadd double %mul98, %mul101, !dbg !1465
  %arrayidx103 = getelementptr inbounds [5 x float], [5 x float]* %Ct, i64 0, i64 1, !dbg !1466
  %84 = load float, float* %arrayidx103, align 4, !dbg !1467
  %conv104 = fpext float %84 to double, !dbg !1467
  %add105 = fadd double %conv104, %add102, !dbg !1467
  %conv106 = fptrunc double %add105 to float, !dbg !1467
  store float %conv106, float* %arrayidx103, align 4, !dbg !1467
  %85 = load double, double* %k, align 8, !dbg !1468
  %86 = load float*, float** %Colour.addr, align 8, !dbg !1469
  %arrayidx107 = getelementptr inbounds float, float* %86, i64 2, !dbg !1469
  %87 = load float, float* %arrayidx107, align 4, !dbg !1469
  %conv108 = fpext float %87 to double, !dbg !1469
  %mul109 = fmul double %85, %conv108, !dbg !1470
  %88 = load double, double* %f, align 8, !dbg !1471
  %sub110 = fsub double 1.000000e+00, %88, !dbg !1472
  %89 = load double, double* %f, align 8, !dbg !1473
  %arrayidx111 = getelementptr inbounds [5 x float], [5 x float]* %Cr, i64 0, i64 2, !dbg !1474
  %90 = load float, float* %arrayidx111, align 8, !dbg !1474
  %conv112 = fpext float %90 to double, !dbg !1474
  %mul113 = fmul double %89, %conv112, !dbg !1475
  %add114 = fadd double %sub110, %mul113, !dbg !1476
  %mul115 = fmul double %mul109, %add114, !dbg !1477
  %91 = load double, double* %ki, align 8, !dbg !1478
  %arrayidx116 = getelementptr inbounds [5 x float], [5 x float]* %Cr, i64 0, i64 2, !dbg !1479
  %92 = load float, float* %arrayidx116, align 8, !dbg !1479
  %conv117 = fpext float %92 to double, !dbg !1479
  %mul118 = fmul double %91, %conv117, !dbg !1480
  %add119 = fadd double %mul115, %mul118, !dbg !1481
  %arrayidx120 = getelementptr inbounds [5 x float], [5 x float]* %Ct, i64 0, i64 2, !dbg !1482
  %93 = load float, float* %arrayidx120, align 8, !dbg !1483
  %conv121 = fpext float %93 to double, !dbg !1483
  %add122 = fadd double %conv121, %add119, !dbg !1483
  %conv123 = fptrunc double %add122 to float, !dbg !1483
  store float %conv123, float* %arrayidx120, align 8, !dbg !1483
  %94 = load double, double* %k, align 8, !dbg !1484
  %arrayidx124 = getelementptr inbounds [5 x float], [5 x float]* %Cr, i64 0, i64 3, !dbg !1485
  %95 = load float, float* %arrayidx124, align 4, !dbg !1485
  %conv125 = fpext float %95 to double, !dbg !1485
  %mul126 = fmul double %94, %conv125, !dbg !1486
  %arrayidx127 = getelementptr inbounds [5 x float], [5 x float]* %Ct, i64 0, i64 3, !dbg !1487
  %96 = load float, float* %arrayidx127, align 4, !dbg !1488
  %conv128 = fpext float %96 to double, !dbg !1488
  %mul129 = fmul double %conv128, %mul126, !dbg !1488
  %conv130 = fptrunc double %mul129 to float, !dbg !1488
  store float %conv130, float* %arrayidx127, align 4, !dbg !1488
  %97 = load double, double* %k, align 8, !dbg !1489
  %arrayidx131 = getelementptr inbounds [5 x float], [5 x float]* %Cr, i64 0, i64 4, !dbg !1490
  %98 = load float, float* %arrayidx131, align 16, !dbg !1490
  %conv132 = fpext float %98 to double, !dbg !1490
  %mul133 = fmul double %97, %conv132, !dbg !1491
  %arrayidx134 = getelementptr inbounds [5 x float], [5 x float]* %Ct, i64 0, i64 4, !dbg !1492
  %99 = load float, float* %arrayidx134, align 16, !dbg !1493
  %conv135 = fpext float %99 to double, !dbg !1493
  %mul136 = fmul double %conv135, %mul133, !dbg !1493
  %conv137 = fptrunc double %mul136 to float, !dbg !1493
  store float %conv137, float* %arrayidx134, align 16, !dbg !1493
  %100 = load i32, i32* %n, align 4, !dbg !1494
  %inc = add nsw i32 %100, 1, !dbg !1494
  store i32 %inc, i32* %n, align 4, !dbg !1494
  br label %if.end138, !dbg !1495

if.end138:                                        ; preds = %if.end58, %land.lhs.true38, %if.end36
  br label %if.end139, !dbg !1496

if.end139:                                        ; preds = %if.end138, %if.then19
  br label %if.end140, !dbg !1497

if.end140:                                        ; preds = %if.end139, %if.end16
  br label %if.end141, !dbg !1498

if.end141:                                        ; preds = %if.end140, %land.lhs.true4, %land.lhs.true, %for.body
  br label %for.inc, !dbg !1499

for.inc:                                          ; preds = %if.end141
  %101 = load %"struct.pov::Rainbow_Struct"*, %"struct.pov::Rainbow_Struct"** %Rainbow, align 8, !dbg !1500
  %Next = getelementptr inbounds %"struct.pov::Rainbow_Struct", %"struct.pov::Rainbow_Struct"* %101, i32 0, i32 11, !dbg !1501
  %102 = load %"struct.pov::Rainbow_Struct"*, %"struct.pov::Rainbow_Struct"** %Next, align 8, !dbg !1501
  store %"struct.pov::Rainbow_Struct"* %102, %"struct.pov::Rainbow_Struct"** %Rainbow, align 8, !dbg !1502
  br label %for.cond, !dbg !1503, !llvm.loop !1504

for.end:                                          ; preds = %for.cond
  %103 = load i32, i32* %n, align 4, !dbg !1506
  %cmp142 = icmp sgt i32 %103, 0, !dbg !1508
  br i1 %cmp142, label %if.then143, label %if.end162, !dbg !1509

if.then143:                                       ; preds = %for.end
  call void @llvm.dbg.declare(metadata float* %tmp, metadata !1510, metadata !DIExpression()), !dbg !1512
  %104 = load i32, i32* %n, align 4, !dbg !1513
  %conv144 = sitofp i32 %104 to double, !dbg !1513
  %div145 = fdiv double 1.000000e+00, %conv144, !dbg !1514
  %conv146 = fptrunc double %div145 to float, !dbg !1515
  store float %conv146, float* %tmp, align 4, !dbg !1512
  %arrayidx147 = getelementptr inbounds [5 x float], [5 x float]* %Ct, i64 0, i64 0, !dbg !1516
  %105 = load float, float* %arrayidx147, align 16, !dbg !1516
  %106 = load float, float* %tmp, align 4, !dbg !1517
  %mul148 = fmul float %105, %106, !dbg !1518
  %107 = load float*, float** %Colour.addr, align 8, !dbg !1519
  %arrayidx149 = getelementptr inbounds float, float* %107, i64 0, !dbg !1519
  store float %mul148, float* %arrayidx149, align 4, !dbg !1520
  %arrayidx150 = getelementptr inbounds [5 x float], [5 x float]* %Ct, i64 0, i64 1, !dbg !1521
  %108 = load float, float* %arrayidx150, align 4, !dbg !1521
  %109 = load float, float* %tmp, align 4, !dbg !1522
  %mul151 = fmul float %108, %109, !dbg !1523
  %110 = load float*, float** %Colour.addr, align 8, !dbg !1524
  %arrayidx152 = getelementptr inbounds float, float* %110, i64 1, !dbg !1524
  store float %mul151, float* %arrayidx152, align 4, !dbg !1525
  %arrayidx153 = getelementptr inbounds [5 x float], [5 x float]* %Ct, i64 0, i64 2, !dbg !1526
  %111 = load float, float* %arrayidx153, align 8, !dbg !1526
  %112 = load float, float* %tmp, align 4, !dbg !1527
  %mul154 = fmul float %111, %112, !dbg !1528
  %113 = load float*, float** %Colour.addr, align 8, !dbg !1529
  %arrayidx155 = getelementptr inbounds float, float* %113, i64 2, !dbg !1529
  store float %mul154, float* %arrayidx155, align 4, !dbg !1530
  %arrayidx156 = getelementptr inbounds [5 x float], [5 x float]* %Ct, i64 0, i64 3, !dbg !1531
  %114 = load float, float* %arrayidx156, align 4, !dbg !1531
  %115 = load float*, float** %Colour.addr, align 8, !dbg !1532
  %arrayidx157 = getelementptr inbounds float, float* %115, i64 3, !dbg !1532
  %116 = load float, float* %arrayidx157, align 4, !dbg !1533
  %mul158 = fmul float %116, %114, !dbg !1533
  store float %mul158, float* %arrayidx157, align 4, !dbg !1533
  %arrayidx159 = getelementptr inbounds [5 x float], [5 x float]* %Ct, i64 0, i64 4, !dbg !1534
  %117 = load float, float* %arrayidx159, align 16, !dbg !1534
  %118 = load float*, float** %Colour.addr, align 8, !dbg !1535
  %arrayidx160 = getelementptr inbounds float, float* %118, i64 4, !dbg !1535
  %119 = load float, float* %arrayidx160, align 4, !dbg !1536
  %mul161 = fmul float %119, %117, !dbg !1536
  store float %mul161, float* %arrayidx160, align 4, !dbg !1536
  br label %if.end162, !dbg !1537

if.end162:                                        ; preds = %if.then, %if.then143, %for.end
  ret void, !dbg !1538
}

declare dso_local void @_ZN3pov14Simulate_MediaEPPNS_12Media_StructEPNS_10Ray_StructEPNS_10istk_entryEPfi(%"struct.pov::Media_Struct"**, %"struct.pov::Ray_Struct"*, %"struct.pov::istk_entry"*, float*, i32) #3

; Function Attrs: noinline uwtable
define internal void @_ZN3povL6do_fogEPNS_10Ray_StructEPNS_10istk_entryEPfi(%"struct.pov::Ray_Struct"* %Ray, %"struct.pov::istk_entry"* %Intersection, float* %Colour, i32 %Light_Ray_Flag) #1 !dbg !1539 {
entry:
  %Ray.addr = alloca %"struct.pov::Ray_Struct"*, align 8
  %Intersection.addr = alloca %"struct.pov::istk_entry"*, align 8
  %Colour.addr = alloca float*, align 8
  %Light_Ray_Flag.addr = alloca i32, align 4
  %att = alloca double, align 8
  %att_inv = alloca double, align 8
  %width = alloca double, align 8
  %Col_Fog = alloca [5 x float], align 16
  %sum_att = alloca [5 x float], align 16
  %sum_col = alloca [5 x float], align 16
  %Fog = alloca %"struct.pov::Fog_Struct"*, align 8
  store %"struct.pov::Ray_Struct"* %Ray, %"struct.pov::Ray_Struct"** %Ray.addr, align 8
  call void @llvm.dbg.declare(metadata %"struct.pov::Ray_Struct"** %Ray.addr, metadata !1540, metadata !DIExpression()), !dbg !1541
  store %"struct.pov::istk_entry"* %Intersection, %"struct.pov::istk_entry"** %Intersection.addr, align 8
  call void @llvm.dbg.declare(metadata %"struct.pov::istk_entry"** %Intersection.addr, metadata !1542, metadata !DIExpression()), !dbg !1543
  store float* %Colour, float** %Colour.addr, align 8
  call void @llvm.dbg.declare(metadata float** %Colour.addr, metadata !1544, metadata !DIExpression()), !dbg !1545
  store i32 %Light_Ray_Flag, i32* %Light_Ray_Flag.addr, align 4
  call void @llvm.dbg.declare(metadata i32* %Light_Ray_Flag.addr, metadata !1546, metadata !DIExpression()), !dbg !1547
  call void @llvm.dbg.declare(metadata double* %att, metadata !1548, metadata !DIExpression()), !dbg !1549
  call void @llvm.dbg.declare(metadata double* %att_inv, metadata !1550, metadata !DIExpression()), !dbg !1551
  call void @llvm.dbg.declare(metadata double* %width, metadata !1552, metadata !DIExpression()), !dbg !1553
  call void @llvm.dbg.declare(metadata [5 x float]* %Col_Fog, metadata !1554, metadata !DIExpression()), !dbg !1555
  call void @llvm.dbg.declare(metadata [5 x float]* %sum_att, metadata !1556, metadata !DIExpression()), !dbg !1557
  call void @llvm.dbg.declare(metadata [5 x float]* %sum_col, metadata !1558, metadata !DIExpression()), !dbg !1559
  call void @llvm.dbg.declare(metadata %"struct.pov::Fog_Struct"** %Fog, metadata !1560, metadata !DIExpression()), !dbg !1561
  %0 = load %"struct.pov::Fog_Struct"*, %"struct.pov::Fog_Struct"** getelementptr inbounds (%"struct.pov::Frame_Struct", %"struct.pov::Frame_Struct"* @_ZN3pov5FrameE, i32 0, i32 13), align 8, !dbg !1562
  %cmp = icmp eq %"struct.pov::Fog_Struct"* %0, null, !dbg !1564
  br i1 %cmp, label %if.then, label %if.end, !dbg !1565

if.then:                                          ; preds = %entry
  br label %return, !dbg !1566

if.end:                                           ; preds = %entry
  %arraydecay = getelementptr inbounds [5 x float], [5 x float]* %sum_att, i64 0, i64 0, !dbg !1568
  call void @_ZN3pov12Make_ColourAEPffffff(float* %arraydecay, float 1.000000e+00, float 1.000000e+00, float 1.000000e+00, float 1.000000e+00, float 1.000000e+00), !dbg !1569
  %arraydecay1 = getelementptr inbounds [5 x float], [5 x float]* %sum_col, i64 0, i64 0, !dbg !1570
  call void @_ZN3pov12Make_ColourAEPffffff(float* %arraydecay1, float 0.000000e+00, float 0.000000e+00, float 0.000000e+00, float 0.000000e+00, float 0.000000e+00), !dbg !1571
  %1 = load %"struct.pov::Fog_Struct"*, %"struct.pov::Fog_Struct"** getelementptr inbounds (%"struct.pov::Frame_Struct", %"struct.pov::Frame_Struct"* @_ZN3pov5FrameE, i32 0, i32 13), align 8, !dbg !1572
  store %"struct.pov::Fog_Struct"* %1, %"struct.pov::Fog_Struct"** %Fog, align 8, !dbg !1574
  br label %for.cond, !dbg !1575

for.cond:                                         ; preds = %for.inc, %if.end
  %2 = load %"struct.pov::Fog_Struct"*, %"struct.pov::Fog_Struct"** %Fog, align 8, !dbg !1576
  %cmp2 = icmp ne %"struct.pov::Fog_Struct"* %2, null, !dbg !1578
  br i1 %cmp2, label %for.body, label %for.end, !dbg !1579

for.body:                                         ; preds = %for.cond
  %3 = load %"struct.pov::Fog_Struct"*, %"struct.pov::Fog_Struct"** %Fog, align 8, !dbg !1580
  %Distance = getelementptr inbounds %"struct.pov::Fog_Struct", %"struct.pov::Fog_Struct"* %3, i32 0, i32 1, !dbg !1583
  %4 = load double, double* %Distance, align 8, !dbg !1583
  %5 = call double @llvm.fabs.f64(double %4), !dbg !1584
  %cmp3 = fcmp ogt double %5, 0x3E7AD7F29ABCAF48, !dbg !1585
  br i1 %cmp3, label %if.then4, label %if.end69, !dbg !1586

if.then4:                                         ; preds = %for.body
  %6 = load %"struct.pov::istk_entry"*, %"struct.pov::istk_entry"** %Intersection.addr, align 8, !dbg !1587
  %Depth = getelementptr inbounds %"struct.pov::istk_entry", %"struct.pov::istk_entry"* %6, i32 0, i32 0, !dbg !1589
  %7 = load double, double* %Depth, align 8, !dbg !1589
  store double %7, double* %width, align 8, !dbg !1590
  %8 = load %"struct.pov::Fog_Struct"*, %"struct.pov::Fog_Struct"** %Fog, align 8, !dbg !1591
  %Type = getelementptr inbounds %"struct.pov::Fog_Struct", %"struct.pov::Fog_Struct"* %8, i32 0, i32 0, !dbg !1592
  %9 = load i32, i32* %Type, align 8, !dbg !1592
  switch i32 %9, label %sw.default [
    i32 2, label %sw.bb
  ], !dbg !1593

sw.bb:                                            ; preds = %if.then4
  %10 = load %"struct.pov::Ray_Struct"*, %"struct.pov::Ray_Struct"** %Ray.addr, align 8, !dbg !1594
  %11 = load double, double* %width, align 8, !dbg !1596
  %12 = load %"struct.pov::Fog_Struct"*, %"struct.pov::Fog_Struct"** %Fog, align 8, !dbg !1597
  %arraydecay5 = getelementptr inbounds [5 x float], [5 x float]* %Col_Fog, i64 0, i64 0, !dbg !1598
  %call = call double @_ZN3povL10ground_fogEPNS_10Ray_StructEddPNS_10Fog_StructEPf(%"struct.pov::Ray_Struct"* %10, double 0.000000e+00, double %11, %"struct.pov::Fog_Struct"* %12, float* %arraydecay5), !dbg !1599
  store double %call, double* %att, align 8, !dbg !1600
  br label %sw.epilog, !dbg !1601

sw.default:                                       ; preds = %if.then4
  %13 = load %"struct.pov::Ray_Struct"*, %"struct.pov::Ray_Struct"** %Ray.addr, align 8, !dbg !1602
  %14 = load double, double* %width, align 8, !dbg !1603
  %15 = load %"struct.pov::Fog_Struct"*, %"struct.pov::Fog_Struct"** %Fog, align 8, !dbg !1604
  %arraydecay6 = getelementptr inbounds [5 x float], [5 x float]* %Col_Fog, i64 0, i64 0, !dbg !1605
  %call7 = call double @_ZN3povL12constant_fogEPNS_10Ray_StructEddPNS_10Fog_StructEPf(%"struct.pov::Ray_Struct"* %13, double 0.000000e+00, double %14, %"struct.pov::Fog_Struct"* %15, float* %arraydecay6), !dbg !1606
  store double %call7, double* %att, align 8, !dbg !1607
  br label %sw.epilog, !dbg !1608

sw.epilog:                                        ; preds = %sw.default, %sw.bb
  %16 = load double, double* %att, align 8, !dbg !1609
  %arrayidx = getelementptr inbounds [5 x float], [5 x float]* %Col_Fog, i64 0, i64 4, !dbg !1611
  %17 = load float, float* %arrayidx, align 16, !dbg !1611
  %conv = fpext float %17 to double, !dbg !1611
  %cmp8 = fcmp olt double %16, %conv, !dbg !1612
  br i1 %cmp8, label %if.then9, label %if.end12, !dbg !1613

if.then9:                                         ; preds = %sw.epilog
  %arrayidx10 = getelementptr inbounds [5 x float], [5 x float]* %Col_Fog, i64 0, i64 4, !dbg !1614
  %18 = load float, float* %arrayidx10, align 16, !dbg !1614
  %conv11 = fpext float %18 to double, !dbg !1614
  store double %conv11, double* %att, align 8, !dbg !1616
  br label %if.end12, !dbg !1617

if.end12:                                         ; preds = %if.then9, %sw.epilog
  %19 = load double, double* %att, align 8, !dbg !1618
  %arrayidx13 = getelementptr inbounds [5 x float], [5 x float]* %Col_Fog, i64 0, i64 3, !dbg !1619
  %20 = load float, float* %arrayidx13, align 4, !dbg !1619
  %conv14 = fpext float %20 to double, !dbg !1619
  %sub = fsub double 1.000000e+00, %conv14, !dbg !1620
  %arrayidx15 = getelementptr inbounds [5 x float], [5 x float]* %Col_Fog, i64 0, i64 3, !dbg !1621
  %21 = load float, float* %arrayidx15, align 4, !dbg !1621
  %arrayidx16 = getelementptr inbounds [5 x float], [5 x float]* %Col_Fog, i64 0, i64 0, !dbg !1622
  %22 = load float, float* %arrayidx16, align 16, !dbg !1622
  %mul = fmul float %21, %22, !dbg !1623
  %conv17 = fpext float %mul to double, !dbg !1621
  %add = fadd double %sub, %conv17, !dbg !1624
  %mul18 = fmul double %19, %add, !dbg !1625
  %arrayidx19 = getelementptr inbounds [5 x float], [5 x float]* %sum_att, i64 0, i64 0, !dbg !1626
  %23 = load float, float* %arrayidx19, align 16, !dbg !1627
  %conv20 = fpext float %23 to double, !dbg !1627
  %mul21 = fmul double %conv20, %mul18, !dbg !1627
  %conv22 = fptrunc double %mul21 to float, !dbg !1627
  store float %conv22, float* %arrayidx19, align 16, !dbg !1627
  %24 = load double, double* %att, align 8, !dbg !1628
  %arrayidx23 = getelementptr inbounds [5 x float], [5 x float]* %Col_Fog, i64 0, i64 3, !dbg !1629
  %25 = load float, float* %arrayidx23, align 4, !dbg !1629
  %conv24 = fpext float %25 to double, !dbg !1629
  %sub25 = fsub double 1.000000e+00, %conv24, !dbg !1630
  %arrayidx26 = getelementptr inbounds [5 x float], [5 x float]* %Col_Fog, i64 0, i64 3, !dbg !1631
  %26 = load float, float* %arrayidx26, align 4, !dbg !1631
  %arrayidx27 = getelementptr inbounds [5 x float], [5 x float]* %Col_Fog, i64 0, i64 1, !dbg !1632
  %27 = load float, float* %arrayidx27, align 4, !dbg !1632
  %mul28 = fmul float %26, %27, !dbg !1633
  %conv29 = fpext float %mul28 to double, !dbg !1631
  %add30 = fadd double %sub25, %conv29, !dbg !1634
  %mul31 = fmul double %24, %add30, !dbg !1635
  %arrayidx32 = getelementptr inbounds [5 x float], [5 x float]* %sum_att, i64 0, i64 1, !dbg !1636
  %28 = load float, float* %arrayidx32, align 4, !dbg !1637
  %conv33 = fpext float %28 to double, !dbg !1637
  %mul34 = fmul double %conv33, %mul31, !dbg !1637
  %conv35 = fptrunc double %mul34 to float, !dbg !1637
  store float %conv35, float* %arrayidx32, align 4, !dbg !1637
  %29 = load double, double* %att, align 8, !dbg !1638
  %arrayidx36 = getelementptr inbounds [5 x float], [5 x float]* %Col_Fog, i64 0, i64 3, !dbg !1639
  %30 = load float, float* %arrayidx36, align 4, !dbg !1639
  %conv37 = fpext float %30 to double, !dbg !1639
  %sub38 = fsub double 1.000000e+00, %conv37, !dbg !1640
  %arrayidx39 = getelementptr inbounds [5 x float], [5 x float]* %Col_Fog, i64 0, i64 3, !dbg !1641
  %31 = load float, float* %arrayidx39, align 4, !dbg !1641
  %arrayidx40 = getelementptr inbounds [5 x float], [5 x float]* %Col_Fog, i64 0, i64 2, !dbg !1642
  %32 = load float, float* %arrayidx40, align 8, !dbg !1642
  %mul41 = fmul float %31, %32, !dbg !1643
  %conv42 = fpext float %mul41 to double, !dbg !1641
  %add43 = fadd double %sub38, %conv42, !dbg !1644
  %mul44 = fmul double %29, %add43, !dbg !1645
  %arrayidx45 = getelementptr inbounds [5 x float], [5 x float]* %sum_att, i64 0, i64 2, !dbg !1646
  %33 = load float, float* %arrayidx45, align 8, !dbg !1647
  %conv46 = fpext float %33 to double, !dbg !1647
  %mul47 = fmul double %conv46, %mul44, !dbg !1647
  %conv48 = fptrunc double %mul47 to float, !dbg !1647
  store float %conv48, float* %arrayidx45, align 8, !dbg !1647
  %34 = load double, double* %att, align 8, !dbg !1648
  %arrayidx49 = getelementptr inbounds [5 x float], [5 x float]* %Col_Fog, i64 0, i64 3, !dbg !1649
  %35 = load float, float* %arrayidx49, align 4, !dbg !1649
  %conv50 = fpext float %35 to double, !dbg !1649
  %mul51 = fmul double %34, %conv50, !dbg !1650
  %arrayidx52 = getelementptr inbounds [5 x float], [5 x float]* %sum_att, i64 0, i64 3, !dbg !1651
  %36 = load float, float* %arrayidx52, align 4, !dbg !1652
  %conv53 = fpext float %36 to double, !dbg !1652
  %mul54 = fmul double %conv53, %mul51, !dbg !1652
  %conv55 = fptrunc double %mul54 to float, !dbg !1652
  store float %conv55, float* %arrayidx52, align 4, !dbg !1652
  %37 = load double, double* %att, align 8, !dbg !1653
  %arrayidx56 = getelementptr inbounds [5 x float], [5 x float]* %Col_Fog, i64 0, i64 4, !dbg !1654
  %38 = load float, float* %arrayidx56, align 16, !dbg !1654
  %conv57 = fpext float %38 to double, !dbg !1654
  %mul58 = fmul double %37, %conv57, !dbg !1655
  %arrayidx59 = getelementptr inbounds [5 x float], [5 x float]* %sum_att, i64 0, i64 4, !dbg !1656
  %39 = load float, float* %arrayidx59, align 16, !dbg !1657
  %conv60 = fpext float %39 to double, !dbg !1657
  %mul61 = fmul double %conv60, %mul58, !dbg !1657
  %conv62 = fptrunc double %mul61 to float, !dbg !1657
  store float %conv62, float* %arrayidx59, align 16, !dbg !1657
  %40 = load i32, i32* %Light_Ray_Flag.addr, align 4, !dbg !1658
  %tobool = icmp ne i32 %40, 0, !dbg !1658
  br i1 %tobool, label %if.end68, label %if.then63, !dbg !1660

if.then63:                                        ; preds = %if.end12
  %41 = load double, double* %att, align 8, !dbg !1661
  %sub64 = fsub double 1.000000e+00, %41, !dbg !1663
  store double %sub64, double* %att_inv, align 8, !dbg !1664
  %arraydecay65 = getelementptr inbounds [5 x float], [5 x float]* %sum_col, i64 0, i64 0, !dbg !1665
  %42 = load double, double* %att_inv, align 8, !dbg !1666
  %conv66 = fptrunc double %42 to float, !dbg !1666
  %arraydecay67 = getelementptr inbounds [5 x float], [5 x float]* %Col_Fog, i64 0, i64 0, !dbg !1667
  call void @_ZN3pov15CRGBAddScaledEqEPffPKf(float* %arraydecay65, float %conv66, float* %arraydecay67), !dbg !1668
  br label %if.end68, !dbg !1669

if.end68:                                         ; preds = %if.then63, %if.end12
  br label %if.end69, !dbg !1670

if.end69:                                         ; preds = %if.end68, %for.body
  br label %for.inc, !dbg !1671

for.inc:                                          ; preds = %if.end69
  %43 = load %"struct.pov::Fog_Struct"*, %"struct.pov::Fog_Struct"** %Fog, align 8, !dbg !1672
  %Next = getelementptr inbounds %"struct.pov::Fog_Struct", %"struct.pov::Fog_Struct"* %43, i32 0, i32 8, !dbg !1673
  %44 = load %"struct.pov::Fog_Struct"*, %"struct.pov::Fog_Struct"** %Next, align 8, !dbg !1673
  store %"struct.pov::Fog_Struct"* %44, %"struct.pov::Fog_Struct"** %Fog, align 8, !dbg !1674
  br label %for.cond, !dbg !1675, !llvm.loop !1676

for.end:                                          ; preds = %for.cond
  %arrayidx70 = getelementptr inbounds [5 x float], [5 x float]* %sum_col, i64 0, i64 0, !dbg !1678
  %45 = load float, float* %arrayidx70, align 16, !dbg !1678
  %arrayidx71 = getelementptr inbounds [5 x float], [5 x float]* %sum_att, i64 0, i64 0, !dbg !1679
  %46 = load float, float* %arrayidx71, align 16, !dbg !1679
  %47 = load float*, float** %Colour.addr, align 8, !dbg !1680
  %arrayidx72 = getelementptr inbounds float, float* %47, i64 0, !dbg !1680
  %48 = load float, float* %arrayidx72, align 4, !dbg !1680
  %mul73 = fmul float %46, %48, !dbg !1681
  %add74 = fadd float %45, %mul73, !dbg !1682
  %49 = load float*, float** %Colour.addr, align 8, !dbg !1683
  %arrayidx75 = getelementptr inbounds float, float* %49, i64 0, !dbg !1683
  store float %add74, float* %arrayidx75, align 4, !dbg !1684
  %arrayidx76 = getelementptr inbounds [5 x float], [5 x float]* %sum_col, i64 0, i64 1, !dbg !1685
  %50 = load float, float* %arrayidx76, align 4, !dbg !1685
  %arrayidx77 = getelementptr inbounds [5 x float], [5 x float]* %sum_att, i64 0, i64 1, !dbg !1686
  %51 = load float, float* %arrayidx77, align 4, !dbg !1686
  %52 = load float*, float** %Colour.addr, align 8, !dbg !1687
  %arrayidx78 = getelementptr inbounds float, float* %52, i64 1, !dbg !1687
  %53 = load float, float* %arrayidx78, align 4, !dbg !1687
  %mul79 = fmul float %51, %53, !dbg !1688
  %add80 = fadd float %50, %mul79, !dbg !1689
  %54 = load float*, float** %Colour.addr, align 8, !dbg !1690
  %arrayidx81 = getelementptr inbounds float, float* %54, i64 1, !dbg !1690
  store float %add80, float* %arrayidx81, align 4, !dbg !1691
  %arrayidx82 = getelementptr inbounds [5 x float], [5 x float]* %sum_col, i64 0, i64 2, !dbg !1692
  %55 = load float, float* %arrayidx82, align 8, !dbg !1692
  %arrayidx83 = getelementptr inbounds [5 x float], [5 x float]* %sum_att, i64 0, i64 2, !dbg !1693
  %56 = load float, float* %arrayidx83, align 8, !dbg !1693
  %57 = load float*, float** %Colour.addr, align 8, !dbg !1694
  %arrayidx84 = getelementptr inbounds float, float* %57, i64 2, !dbg !1694
  %58 = load float, float* %arrayidx84, align 4, !dbg !1694
  %mul85 = fmul float %56, %58, !dbg !1695
  %add86 = fadd float %55, %mul85, !dbg !1696
  %59 = load float*, float** %Colour.addr, align 8, !dbg !1697
  %arrayidx87 = getelementptr inbounds float, float* %59, i64 2, !dbg !1697
  store float %add86, float* %arrayidx87, align 4, !dbg !1698
  %arrayidx88 = getelementptr inbounds [5 x float], [5 x float]* %sum_att, i64 0, i64 0, !dbg !1699
  %60 = load float, float* %arrayidx88, align 16, !dbg !1699
  %conv89 = fpext float %60 to double, !dbg !1699
  %mul90 = fmul double 2.970000e-01, %conv89, !dbg !1699
  %arrayidx91 = getelementptr inbounds [5 x float], [5 x float]* %sum_att, i64 0, i64 1, !dbg !1699
  %61 = load float, float* %arrayidx91, align 4, !dbg !1699
  %conv92 = fpext float %61 to double, !dbg !1699
  %mul93 = fmul double 5.890000e-01, %conv92, !dbg !1699
  %add94 = fadd double %mul90, %mul93, !dbg !1699
  %arrayidx95 = getelementptr inbounds [5 x float], [5 x float]* %sum_att, i64 0, i64 2, !dbg !1699
  %62 = load float, float* %arrayidx95, align 8, !dbg !1699
  %conv96 = fpext float %62 to double, !dbg !1699
  %mul97 = fmul double 1.140000e-01, %conv96, !dbg !1699
  %add98 = fadd double %add94, %mul97, !dbg !1699
  %63 = load float*, float** %Colour.addr, align 8, !dbg !1700
  %arrayidx99 = getelementptr inbounds float, float* %63, i64 4, !dbg !1700
  %64 = load float, float* %arrayidx99, align 4, !dbg !1701
  %conv100 = fpext float %64 to double, !dbg !1701
  %mul101 = fmul double %conv100, %add98, !dbg !1701
  %conv102 = fptrunc double %mul101 to float, !dbg !1701
  store float %conv102, float* %arrayidx99, align 4, !dbg !1701
  br label %return, !dbg !1702

return:                                           ; preds = %for.end, %if.then
  ret void, !dbg !1702
}

; Function Attrs: noinline uwtable
define dso_local %"struct.pov::Fog_Struct"* @_ZN3pov10Create_FogEv() #1 !dbg !1703 {
entry:
  %New = alloca %"struct.pov::Fog_Struct"*, align 8
  call void @llvm.dbg.declare(metadata %"struct.pov::Fog_Struct"** %New, metadata !1706, metadata !DIExpression()), !dbg !1707
  %call = call i8* @_ZN3pov10pov_mallocEmPKciS1_(i64 104, i8* getelementptr inbounds ([12 x i8], [12 x i8]* @.str, i64 0, i64 0), i32 867, i8* getelementptr inbounds ([4 x i8], [4 x i8]* @.str.1, i64 0, i64 0)), !dbg !1708
  %0 = bitcast i8* %call to %"struct.pov::Fog_Struct"*, !dbg !1709
  store %"struct.pov::Fog_Struct"* %0, %"struct.pov::Fog_Struct"** %New, align 8, !dbg !1710
  %1 = load %"struct.pov::Fog_Struct"*, %"struct.pov::Fog_Struct"** %New, align 8, !dbg !1711
  %Type = getelementptr inbounds %"struct.pov::Fog_Struct", %"struct.pov::Fog_Struct"* %1, i32 0, i32 0, !dbg !1712
  store i32 1, i32* %Type, align 8, !dbg !1713
  %2 = load %"struct.pov::Fog_Struct"*, %"struct.pov::Fog_Struct"** %New, align 8, !dbg !1714
  %Distance = getelementptr inbounds %"struct.pov::Fog_Struct", %"struct.pov::Fog_Struct"* %2, i32 0, i32 1, !dbg !1715
  store double 0.000000e+00, double* %Distance, align 8, !dbg !1716
  %3 = load %"struct.pov::Fog_Struct"*, %"struct.pov::Fog_Struct"** %New, align 8, !dbg !1717
  %Alt = getelementptr inbounds %"struct.pov::Fog_Struct", %"struct.pov::Fog_Struct"* %3, i32 0, i32 2, !dbg !1718
  store double 0.000000e+00, double* %Alt, align 8, !dbg !1719
  %4 = load %"struct.pov::Fog_Struct"*, %"struct.pov::Fog_Struct"** %New, align 8, !dbg !1720
  %Offset = getelementptr inbounds %"struct.pov::Fog_Struct", %"struct.pov::Fog_Struct"* %4, i32 0, i32 3, !dbg !1721
  store double 0.000000e+00, double* %Offset, align 8, !dbg !1722
  %5 = load %"struct.pov::Fog_Struct"*, %"struct.pov::Fog_Struct"** %New, align 8, !dbg !1723
  %Colour = getelementptr inbounds %"struct.pov::Fog_Struct", %"struct.pov::Fog_Struct"* %5, i32 0, i32 4, !dbg !1724
  %arraydecay = getelementptr inbounds [5 x float], [5 x float]* %Colour, i64 0, i64 0, !dbg !1723
  call void @_ZN3pov12Make_ColourAEPffffff(float* %arraydecay, float 0.000000e+00, float 0.000000e+00, float 0.000000e+00, float 0.000000e+00, float 0.000000e+00), !dbg !1725
  %6 = load %"struct.pov::Fog_Struct"*, %"struct.pov::Fog_Struct"** %New, align 8, !dbg !1726
  %Up = getelementptr inbounds %"struct.pov::Fog_Struct", %"struct.pov::Fog_Struct"* %6, i32 0, i32 5, !dbg !1727
  %arraydecay1 = getelementptr inbounds [3 x double], [3 x double]* %Up, i64 0, i64 0, !dbg !1726
  call void @_ZN3pov11Make_VectorEPdddd(double* %arraydecay1, double 0.000000e+00, double 1.000000e+00, double 0.000000e+00), !dbg !1728
  %7 = load %"struct.pov::Fog_Struct"*, %"struct.pov::Fog_Struct"** %New, align 8, !dbg !1729
  %Turb = getelementptr inbounds %"struct.pov::Fog_Struct", %"struct.pov::Fog_Struct"* %7, i32 0, i32 6, !dbg !1730
  store %"struct.pov::Turb_Struct"* null, %"struct.pov::Turb_Struct"** %Turb, align 8, !dbg !1731
  %8 = load %"struct.pov::Fog_Struct"*, %"struct.pov::Fog_Struct"** %New, align 8, !dbg !1732
  %Turb_Depth = getelementptr inbounds %"struct.pov::Fog_Struct", %"struct.pov::Fog_Struct"* %8, i32 0, i32 7, !dbg !1733
  store float 5.000000e-01, float* %Turb_Depth, align 8, !dbg !1734
  %9 = load %"struct.pov::Fog_Struct"*, %"struct.pov::Fog_Struct"** %New, align 8, !dbg !1735
  %Next = getelementptr inbounds %"struct.pov::Fog_Struct", %"struct.pov::Fog_Struct"* %9, i32 0, i32 8, !dbg !1736
  store %"struct.pov::Fog_Struct"* null, %"struct.pov::Fog_Struct"** %Next, align 8, !dbg !1737
  %10 = load %"struct.pov::Fog_Struct"*, %"struct.pov::Fog_Struct"** %New, align 8, !dbg !1738
  ret %"struct.pov::Fog_Struct"* %10, !dbg !1739
}

declare dso_local i8* @_ZN3pov10pov_mallocEmPKciS1_(i64, i8*, i32, i8*) #3

; Function Attrs: noinline nounwind uwtable
define linkonce_odr dso_local void @_ZN3pov12Make_ColourAEPffffff(float* %c, float %r, float %g, float %b, float %a, float %t) #0 comdat !dbg !1740 {
entry:
  %c.addr = alloca float*, align 8
  %r.addr = alloca float, align 4
  %g.addr = alloca float, align 4
  %b.addr = alloca float, align 4
  %a.addr = alloca float, align 4
  %t.addr = alloca float, align 4
  store float* %c, float** %c.addr, align 8
  call void @llvm.dbg.declare(metadata float** %c.addr, metadata !1743, metadata !DIExpression()), !dbg !1744
  store float %r, float* %r.addr, align 4
  call void @llvm.dbg.declare(metadata float* %r.addr, metadata !1745, metadata !DIExpression()), !dbg !1746
  store float %g, float* %g.addr, align 4
  call void @llvm.dbg.declare(metadata float* %g.addr, metadata !1747, metadata !DIExpression()), !dbg !1748
  store float %b, float* %b.addr, align 4
  call void @llvm.dbg.declare(metadata float* %b.addr, metadata !1749, metadata !DIExpression()), !dbg !1750
  store float %a, float* %a.addr, align 4
  call void @llvm.dbg.declare(metadata float* %a.addr, metadata !1751, metadata !DIExpression()), !dbg !1752
  store float %t, float* %t.addr, align 4
  call void @llvm.dbg.declare(metadata float* %t.addr, metadata !1753, metadata !DIExpression()), !dbg !1754
  %0 = load float, float* %r.addr, align 4, !dbg !1755
  %1 = load float*, float** %c.addr, align 8, !dbg !1756
  %arrayidx = getelementptr inbounds float, float* %1, i64 0, !dbg !1756
  store float %0, float* %arrayidx, align 4, !dbg !1757
  %2 = load float, float* %g.addr, align 4, !dbg !1758
  %3 = load float*, float** %c.addr, align 8, !dbg !1759
  %arrayidx1 = getelementptr inbounds float, float* %3, i64 1, !dbg !1759
  store float %2, float* %arrayidx1, align 4, !dbg !1760
  %4 = load float, float* %b.addr, align 4, !dbg !1761
  %5 = load float*, float** %c.addr, align 8, !dbg !1762
  %arrayidx2 = getelementptr inbounds float, float* %5, i64 2, !dbg !1762
  store float %4, float* %arrayidx2, align 4, !dbg !1763
  %6 = load float, float* %a.addr, align 4, !dbg !1764
  %7 = load float*, float** %c.addr, align 8, !dbg !1765
  %arrayidx3 = getelementptr inbounds float, float* %7, i64 3, !dbg !1765
  store float %6, float* %arrayidx3, align 4, !dbg !1766
  %8 = load float, float* %t.addr, align 4, !dbg !1767
  %9 = load float*, float** %c.addr, align 8, !dbg !1768
  %arrayidx4 = getelementptr inbounds float, float* %9, i64 4, !dbg !1768
  store float %8, float* %arrayidx4, align 4, !dbg !1769
  ret void, !dbg !1770
}

; Function Attrs: noinline nounwind uwtable
define linkonce_odr dso_local void @_ZN3pov11Make_VectorEPdddd(double* %v, double %a, double %b, double %c) #0 comdat !dbg !1771 {
entry:
  %v.addr = alloca double*, align 8
  %a.addr = alloca double, align 8
  %b.addr = alloca double, align 8
  %c.addr = alloca double, align 8
  store double* %v, double** %v.addr, align 8
  call void @llvm.dbg.declare(metadata double** %v.addr, metadata !1774, metadata !DIExpression()), !dbg !1775
  store double %a, double* %a.addr, align 8
  call void @llvm.dbg.declare(metadata double* %a.addr, metadata !1776, metadata !DIExpression()), !dbg !1777
  store double %b, double* %b.addr, align 8
  call void @llvm.dbg.declare(metadata double* %b.addr, metadata !1778, metadata !DIExpression()), !dbg !1779
  store double %c, double* %c.addr, align 8
  call void @llvm.dbg.declare(metadata double* %c.addr, metadata !1780, metadata !DIExpression()), !dbg !1781
  %0 = load double, double* %a.addr, align 8, !dbg !1782
  %1 = load double*, double** %v.addr, align 8, !dbg !1783
  %arrayidx = getelementptr inbounds double, double* %1, i64 0, !dbg !1783
  store double %0, double* %arrayidx, align 8, !dbg !1784
  %2 = load double, double* %b.addr, align 8, !dbg !1785
  %3 = load double*, double** %v.addr, align 8, !dbg !1786
  %arrayidx1 = getelementptr inbounds double, double* %3, i64 1, !dbg !1786
  store double %2, double* %arrayidx1, align 8, !dbg !1787
  %4 = load double, double* %c.addr, align 8, !dbg !1788
  %5 = load double*, double** %v.addr, align 8, !dbg !1789
  %arrayidx2 = getelementptr inbounds double, double* %5, i64 2, !dbg !1789
  store double %4, double* %arrayidx2, align 8, !dbg !1790
  ret void, !dbg !1791
}

; Function Attrs: noinline uwtable
define dso_local %"struct.pov::Fog_Struct"* @_ZN3pov8Copy_FogEPNS_10Fog_StructE(%"struct.pov::Fog_Struct"* %Old) #1 !dbg !1792 {
entry:
  %Old.addr = alloca %"struct.pov::Fog_Struct"*, align 8
  %New = alloca %"struct.pov::Fog_Struct"*, align 8
  store %"struct.pov::Fog_Struct"* %Old, %"struct.pov::Fog_Struct"** %Old.addr, align 8
  call void @llvm.dbg.declare(metadata %"struct.pov::Fog_Struct"** %Old.addr, metadata !1795, metadata !DIExpression()), !dbg !1796
  call void @llvm.dbg.declare(metadata %"struct.pov::Fog_Struct"** %New, metadata !1797, metadata !DIExpression()), !dbg !1798
  %call = call %"struct.pov::Fog_Struct"* @_ZN3pov10Create_FogEv(), !dbg !1799
  store %"struct.pov::Fog_Struct"* %call, %"struct.pov::Fog_Struct"** %New, align 8, !dbg !1800
  %0 = load %"struct.pov::Fog_Struct"*, %"struct.pov::Fog_Struct"** %Old.addr, align 8, !dbg !1801
  %1 = load %"struct.pov::Fog_Struct"*, %"struct.pov::Fog_Struct"** %New, align 8, !dbg !1802
  %2 = bitcast %"struct.pov::Fog_Struct"* %1 to i8*, !dbg !1803
  %3 = bitcast %"struct.pov::Fog_Struct"* %0 to i8*, !dbg !1803
  call void @llvm.memcpy.p0i8.p0i8.i64(i8* align 8 %2, i8* align 8 %3, i64 104, i1 false), !dbg !1803
  %4 = load %"struct.pov::Fog_Struct"*, %"struct.pov::Fog_Struct"** %Old.addr, align 8, !dbg !1804
  %Turb = getelementptr inbounds %"struct.pov::Fog_Struct", %"struct.pov::Fog_Struct"* %4, i32 0, i32 6, !dbg !1805
  %5 = load %"struct.pov::Turb_Struct"*, %"struct.pov::Turb_Struct"** %Turb, align 8, !dbg !1805
  %6 = bitcast %"struct.pov::Turb_Struct"* %5 to %"struct.pov::Warps_Struct"*, !dbg !1806
  %call1 = call %"struct.pov::Warps_Struct"* @_ZN3pov10Copy_WarpsEPNS_12Warps_StructE(%"struct.pov::Warps_Struct"* %6), !dbg !1807
  %7 = bitcast %"struct.pov::Warps_Struct"* %call1 to %"struct.pov::Turb_Struct"*, !dbg !1808
  %8 = load %"struct.pov::Fog_Struct"*, %"struct.pov::Fog_Struct"** %New, align 8, !dbg !1809
  %Turb2 = getelementptr inbounds %"struct.pov::Fog_Struct", %"struct.pov::Fog_Struct"* %8, i32 0, i32 6, !dbg !1810
  store %"struct.pov::Turb_Struct"* %7, %"struct.pov::Turb_Struct"** %Turb2, align 8, !dbg !1811
  %9 = load %"struct.pov::Fog_Struct"*, %"struct.pov::Fog_Struct"** %New, align 8, !dbg !1812
  ret %"struct.pov::Fog_Struct"* %9, !dbg !1813
}

; Function Attrs: argmemonly nounwind willreturn
declare void @llvm.memcpy.p0i8.p0i8.i64(i8* noalias nocapture writeonly, i8* noalias nocapture readonly, i64, i1 immarg) #4

declare dso_local %"struct.pov::Warps_Struct"* @_ZN3pov10Copy_WarpsEPNS_12Warps_StructE(%"struct.pov::Warps_Struct"*) #3

; Function Attrs: noinline uwtable
define dso_local void @_ZN3pov11Destroy_FogEPNS_10Fog_StructE(%"struct.pov::Fog_Struct"* %Fog) #1 !dbg !1814 {
entry:
  %Fog.addr = alloca %"struct.pov::Fog_Struct"*, align 8
  store %"struct.pov::Fog_Struct"* %Fog, %"struct.pov::Fog_Struct"** %Fog.addr, align 8
  call void @llvm.dbg.declare(metadata %"struct.pov::Fog_Struct"** %Fog.addr, metadata !1817, metadata !DIExpression()), !dbg !1818
  %0 = load %"struct.pov::Fog_Struct"*, %"struct.pov::Fog_Struct"** %Fog.addr, align 8, !dbg !1819
  %cmp = icmp ne %"struct.pov::Fog_Struct"* %0, null, !dbg !1821
  br i1 %cmp, label %if.then, label %if.end5, !dbg !1822

if.then:                                          ; preds = %entry
  %1 = load %"struct.pov::Fog_Struct"*, %"struct.pov::Fog_Struct"** %Fog.addr, align 8, !dbg !1823
  %Turb = getelementptr inbounds %"struct.pov::Fog_Struct", %"struct.pov::Fog_Struct"* %1, i32 0, i32 6, !dbg !1823
  %2 = load %"struct.pov::Turb_Struct"*, %"struct.pov::Turb_Struct"** %Turb, align 8, !dbg !1823
  %cmp1 = icmp ne %"struct.pov::Turb_Struct"* %2, null, !dbg !1823
  br i1 %cmp1, label %if.then2, label %if.end, !dbg !1826

if.then2:                                         ; preds = %if.then
  %3 = load %"struct.pov::Fog_Struct"*, %"struct.pov::Fog_Struct"** %Fog.addr, align 8, !dbg !1827
  %Turb3 = getelementptr inbounds %"struct.pov::Fog_Struct", %"struct.pov::Fog_Struct"* %3, i32 0, i32 6, !dbg !1827
  %4 = load %"struct.pov::Turb_Struct"*, %"struct.pov::Turb_Struct"** %Turb3, align 8, !dbg !1827
  %5 = bitcast %"struct.pov::Turb_Struct"* %4 to i8*, !dbg !1827
  call void @_ZN3pov8pov_freeEPvPKci(i8* %5, i8* getelementptr inbounds ([12 x i8], [12 x i8]* @.str, i64 0, i64 0), i32 966), !dbg !1827
  %6 = load %"struct.pov::Fog_Struct"*, %"struct.pov::Fog_Struct"** %Fog.addr, align 8, !dbg !1827
  %Turb4 = getelementptr inbounds %"struct.pov::Fog_Struct", %"struct.pov::Fog_Struct"* %6, i32 0, i32 6, !dbg !1827
  store %"struct.pov::Turb_Struct"* null, %"struct.pov::Turb_Struct"** %Turb4, align 8, !dbg !1827
  br label %if.end, !dbg !1827

if.end:                                           ; preds = %if.then2, %if.then
  %7 = load %"struct.pov::Fog_Struct"*, %"struct.pov::Fog_Struct"** %Fog.addr, align 8, !dbg !1829
  %8 = bitcast %"struct.pov::Fog_Struct"* %7 to i8*, !dbg !1829
  call void @_ZN3pov8pov_freeEPvPKci(i8* %8, i8* getelementptr inbounds ([12 x i8], [12 x i8]* @.str, i64 0, i64 0), i32 968), !dbg !1829
  store %"struct.pov::Fog_Struct"* null, %"struct.pov::Fog_Struct"** %Fog.addr, align 8, !dbg !1829
  br label %if.end5, !dbg !1831

if.end5:                                          ; preds = %if.end, %entry
  ret void, !dbg !1832
}

declare dso_local void @_ZN3pov8pov_freeEPvPKci(i8*, i8*, i32) #3

; Function Attrs: noinline uwtable
define dso_local %"struct.pov::Rainbow_Struct"* @_ZN3pov14Create_RainbowEv() #1 !dbg !1833 {
entry:
  %New = alloca %"struct.pov::Rainbow_Struct"*, align 8
  call void @llvm.dbg.declare(metadata %"struct.pov::Rainbow_Struct"** %New, metadata !1836, metadata !DIExpression()), !dbg !1837
  %call = call i8* @_ZN3pov10pov_mallocEmPKciS1_(i64 144, i8* getelementptr inbounds ([12 x i8], [12 x i8]* @.str, i64 0, i64 0), i32 1006, i8* getelementptr inbounds ([4 x i8], [4 x i8]* @.str.1, i64 0, i64 0)), !dbg !1838
  %0 = bitcast i8* %call to %"struct.pov::Rainbow_Struct"*, !dbg !1839
  store %"struct.pov::Rainbow_Struct"* %0, %"struct.pov::Rainbow_Struct"** %New, align 8, !dbg !1840
  %1 = load %"struct.pov::Rainbow_Struct"*, %"struct.pov::Rainbow_Struct"** %New, align 8, !dbg !1841
  %Distance = getelementptr inbounds %"struct.pov::Rainbow_Struct", %"struct.pov::Rainbow_Struct"* %1, i32 0, i32 0, !dbg !1842
  store double 1.000000e+07, double* %Distance, align 8, !dbg !1843
  %2 = load %"struct.pov::Rainbow_Struct"*, %"struct.pov::Rainbow_Struct"** %New, align 8, !dbg !1844
  %Jitter = getelementptr inbounds %"struct.pov::Rainbow_Struct", %"struct.pov::Rainbow_Struct"* %2, i32 0, i32 1, !dbg !1845
  store double 0.000000e+00, double* %Jitter, align 8, !dbg !1846
  %3 = load %"struct.pov::Rainbow_Struct"*, %"struct.pov::Rainbow_Struct"** %New, align 8, !dbg !1847
  %Angle = getelementptr inbounds %"struct.pov::Rainbow_Struct", %"struct.pov::Rainbow_Struct"* %3, i32 0, i32 2, !dbg !1848
  store double 0.000000e+00, double* %Angle, align 8, !dbg !1849
  %4 = load %"struct.pov::Rainbow_Struct"*, %"struct.pov::Rainbow_Struct"** %New, align 8, !dbg !1850
  %Width = getelementptr inbounds %"struct.pov::Rainbow_Struct", %"struct.pov::Rainbow_Struct"* %4, i32 0, i32 3, !dbg !1851
  store double 0.000000e+00, double* %Width, align 8, !dbg !1852
  %5 = load %"struct.pov::Rainbow_Struct"*, %"struct.pov::Rainbow_Struct"** %New, align 8, !dbg !1853
  %Falloff_Width = getelementptr inbounds %"struct.pov::Rainbow_Struct", %"struct.pov::Rainbow_Struct"* %5, i32 0, i32 6, !dbg !1854
  store double 0.000000e+00, double* %Falloff_Width, align 8, !dbg !1855
  %6 = load %"struct.pov::Rainbow_Struct"*, %"struct.pov::Rainbow_Struct"** %New, align 8, !dbg !1856
  %Arc_Angle = getelementptr inbounds %"struct.pov::Rainbow_Struct", %"struct.pov::Rainbow_Struct"* %6, i32 0, i32 4, !dbg !1857
  store double 1.800000e+02, double* %Arc_Angle, align 8, !dbg !1858
  %7 = load %"struct.pov::Rainbow_Struct"*, %"struct.pov::Rainbow_Struct"** %New, align 8, !dbg !1859
  %Falloff_Angle = getelementptr inbounds %"struct.pov::Rainbow_Struct", %"struct.pov::Rainbow_Struct"* %7, i32 0, i32 5, !dbg !1860
  store double 1.800000e+02, double* %Falloff_Angle, align 8, !dbg !1861
  %8 = load %"struct.pov::Rainbow_Struct"*, %"struct.pov::Rainbow_Struct"** %New, align 8, !dbg !1862
  %Pigment = getelementptr inbounds %"struct.pov::Rainbow_Struct", %"struct.pov::Rainbow_Struct"* %8, i32 0, i32 10, !dbg !1863
  store %"struct.pov::Pigment_Struct"* null, %"struct.pov::Pigment_Struct"** %Pigment, align 8, !dbg !1864
  %9 = load %"struct.pov::Rainbow_Struct"*, %"struct.pov::Rainbow_Struct"** %New, align 8, !dbg !1865
  %Antisolar_Vector = getelementptr inbounds %"struct.pov::Rainbow_Struct", %"struct.pov::Rainbow_Struct"* %9, i32 0, i32 7, !dbg !1866
  %arraydecay = getelementptr inbounds [3 x double], [3 x double]* %Antisolar_Vector, i64 0, i64 0, !dbg !1865
  call void @_ZN3pov11Make_VectorEPdddd(double* %arraydecay, double 0.000000e+00, double 0.000000e+00, double 0.000000e+00), !dbg !1867
  %10 = load %"struct.pov::Rainbow_Struct"*, %"struct.pov::Rainbow_Struct"** %New, align 8, !dbg !1868
  %Right_Vector = getelementptr inbounds %"struct.pov::Rainbow_Struct", %"struct.pov::Rainbow_Struct"* %10, i32 0, i32 9, !dbg !1869
  %arraydecay1 = getelementptr inbounds [3 x double], [3 x double]* %Right_Vector, i64 0, i64 0, !dbg !1868
  call void @_ZN3pov11Make_VectorEPdddd(double* %arraydecay1, double 1.000000e+00, double 0.000000e+00, double 0.000000e+00), !dbg !1870
  %11 = load %"struct.pov::Rainbow_Struct"*, %"struct.pov::Rainbow_Struct"** %New, align 8, !dbg !1871
  %Up_Vector = getelementptr inbounds %"struct.pov::Rainbow_Struct", %"struct.pov::Rainbow_Struct"* %11, i32 0, i32 8, !dbg !1872
  %arraydecay2 = getelementptr inbounds [3 x double], [3 x double]* %Up_Vector, i64 0, i64 0, !dbg !1871
  call void @_ZN3pov11Make_VectorEPdddd(double* %arraydecay2, double 0.000000e+00, double 1.000000e+00, double 0.000000e+00), !dbg !1873
  %12 = load %"struct.pov::Rainbow_Struct"*, %"struct.pov::Rainbow_Struct"** %New, align 8, !dbg !1874
  %Next = getelementptr inbounds %"struct.pov::Rainbow_Struct", %"struct.pov::Rainbow_Struct"* %12, i32 0, i32 11, !dbg !1875
  store %"struct.pov::Rainbow_Struct"* null, %"struct.pov::Rainbow_Struct"** %Next, align 8, !dbg !1876
  %13 = load %"struct.pov::Rainbow_Struct"*, %"struct.pov::Rainbow_Struct"** %New, align 8, !dbg !1877
  ret %"struct.pov::Rainbow_Struct"* %13, !dbg !1878
}

; Function Attrs: noinline uwtable
define dso_local %"struct.pov::Rainbow_Struct"* @_ZN3pov12Copy_RainbowEPNS_14Rainbow_StructE(%"struct.pov::Rainbow_Struct"* %Old) #1 !dbg !1879 {
entry:
  %Old.addr = alloca %"struct.pov::Rainbow_Struct"*, align 8
  %New = alloca %"struct.pov::Rainbow_Struct"*, align 8
  store %"struct.pov::Rainbow_Struct"* %Old, %"struct.pov::Rainbow_Struct"** %Old.addr, align 8
  call void @llvm.dbg.declare(metadata %"struct.pov::Rainbow_Struct"** %Old.addr, metadata !1882, metadata !DIExpression()), !dbg !1883
  call void @llvm.dbg.declare(metadata %"struct.pov::Rainbow_Struct"** %New, metadata !1884, metadata !DIExpression()), !dbg !1885
  %call = call %"struct.pov::Rainbow_Struct"* @_ZN3pov14Create_RainbowEv(), !dbg !1886
  store %"struct.pov::Rainbow_Struct"* %call, %"struct.pov::Rainbow_Struct"** %New, align 8, !dbg !1887
  %0 = load %"struct.pov::Rainbow_Struct"*, %"struct.pov::Rainbow_Struct"** %Old.addr, align 8, !dbg !1888
  %1 = load %"struct.pov::Rainbow_Struct"*, %"struct.pov::Rainbow_Struct"** %New, align 8, !dbg !1889
  %2 = bitcast %"struct.pov::Rainbow_Struct"* %1 to i8*, !dbg !1890
  %3 = bitcast %"struct.pov::Rainbow_Struct"* %0 to i8*, !dbg !1890
  call void @llvm.memcpy.p0i8.p0i8.i64(i8* align 8 %2, i8* align 8 %3, i64 144, i1 false), !dbg !1890
  %4 = load %"struct.pov::Rainbow_Struct"*, %"struct.pov::Rainbow_Struct"** %New, align 8, !dbg !1891
  ret %"struct.pov::Rainbow_Struct"* %4, !dbg !1892
}

; Function Attrs: noinline uwtable
define dso_local void @_ZN3pov15Destroy_RainbowEPNS_14Rainbow_StructE(%"struct.pov::Rainbow_Struct"* %Rainbow) #1 !dbg !1893 {
entry:
  %Rainbow.addr = alloca %"struct.pov::Rainbow_Struct"*, align 8
  store %"struct.pov::Rainbow_Struct"* %Rainbow, %"struct.pov::Rainbow_Struct"** %Rainbow.addr, align 8
  call void @llvm.dbg.declare(metadata %"struct.pov::Rainbow_Struct"** %Rainbow.addr, metadata !1896, metadata !DIExpression()), !dbg !1897
  %0 = load %"struct.pov::Rainbow_Struct"*, %"struct.pov::Rainbow_Struct"** %Rainbow.addr, align 8, !dbg !1898
  %cmp = icmp ne %"struct.pov::Rainbow_Struct"* %0, null, !dbg !1900
  br i1 %cmp, label %if.then, label %if.end, !dbg !1901

if.then:                                          ; preds = %entry
  %1 = load %"struct.pov::Rainbow_Struct"*, %"struct.pov::Rainbow_Struct"** %Rainbow.addr, align 8, !dbg !1902
  %Pigment = getelementptr inbounds %"struct.pov::Rainbow_Struct", %"struct.pov::Rainbow_Struct"* %1, i32 0, i32 10, !dbg !1904
  %2 = load %"struct.pov::Pigment_Struct"*, %"struct.pov::Pigment_Struct"** %Pigment, align 8, !dbg !1904
  call void @_ZN3pov15Destroy_PigmentEPNS_14Pigment_StructE(%"struct.pov::Pigment_Struct"* %2), !dbg !1905
  %3 = load %"struct.pov::Rainbow_Struct"*, %"struct.pov::Rainbow_Struct"** %Rainbow.addr, align 8, !dbg !1906
  %4 = bitcast %"struct.pov::Rainbow_Struct"* %3 to i8*, !dbg !1906
  call void @_ZN3pov8pov_freeEPvPKci(i8* %4, i8* getelementptr inbounds ([12 x i8], [12 x i8]* @.str, i64 0, i64 0), i32 1108), !dbg !1906
  store %"struct.pov::Rainbow_Struct"* null, %"struct.pov::Rainbow_Struct"** %Rainbow.addr, align 8, !dbg !1906
  br label %if.end, !dbg !1908

if.end:                                           ; preds = %if.then, %entry
  ret void, !dbg !1909
}

declare dso_local void @_ZN3pov15Destroy_PigmentEPNS_14Pigment_StructE(%"struct.pov::Pigment_Struct"*) #3

; Function Attrs: noinline uwtable
define dso_local %"struct.pov::Skysphere_Struct"* @_ZN3pov16Create_SkysphereEv() #1 !dbg !1910 {
entry:
  %New = alloca %"struct.pov::Skysphere_Struct"*, align 8
  call void @llvm.dbg.declare(metadata %"struct.pov::Skysphere_Struct"** %New, metadata !1913, metadata !DIExpression()), !dbg !1914
  %call = call i8* @_ZN3pov10pov_mallocEmPKciS1_(i64 24, i8* getelementptr inbounds ([12 x i8], [12 x i8]* @.str, i64 0, i64 0), i32 1146, i8* getelementptr inbounds ([4 x i8], [4 x i8]* @.str.1, i64 0, i64 0)), !dbg !1915
  %0 = bitcast i8* %call to %"struct.pov::Skysphere_Struct"*, !dbg !1916
  store %"struct.pov::Skysphere_Struct"* %0, %"struct.pov::Skysphere_Struct"** %New, align 8, !dbg !1917
  %1 = load %"struct.pov::Skysphere_Struct"*, %"struct.pov::Skysphere_Struct"** %New, align 8, !dbg !1918
  %Count = getelementptr inbounds %"struct.pov::Skysphere_Struct", %"struct.pov::Skysphere_Struct"* %1, i32 0, i32 0, !dbg !1919
  store i32 0, i32* %Count, align 8, !dbg !1920
  %2 = load %"struct.pov::Skysphere_Struct"*, %"struct.pov::Skysphere_Struct"** %New, align 8, !dbg !1921
  %Pigments = getelementptr inbounds %"struct.pov::Skysphere_Struct", %"struct.pov::Skysphere_Struct"* %2, i32 0, i32 1, !dbg !1922
  store %"struct.pov::Pigment_Struct"** null, %"struct.pov::Pigment_Struct"*** %Pigments, align 8, !dbg !1923
  %call1 = call %"struct.pov::Transform_Struct"* @_ZN3pov16Create_TransformEv(), !dbg !1924
  %3 = load %"struct.pov::Skysphere_Struct"*, %"struct.pov::Skysphere_Struct"** %New, align 8, !dbg !1925
  %Trans = getelementptr inbounds %"struct.pov::Skysphere_Struct", %"struct.pov::Skysphere_Struct"* %3, i32 0, i32 2, !dbg !1926
  store %"struct.pov::Transform_Struct"* %call1, %"struct.pov::Transform_Struct"** %Trans, align 8, !dbg !1927
  %4 = load %"struct.pov::Skysphere_Struct"*, %"struct.pov::Skysphere_Struct"** %New, align 8, !dbg !1928
  ret %"struct.pov::Skysphere_Struct"* %4, !dbg !1929
}

declare dso_local %"struct.pov::Transform_Struct"* @_ZN3pov16Create_TransformEv() #3

; Function Attrs: noinline uwtable
define dso_local %"struct.pov::Skysphere_Struct"* @_ZN3pov14Copy_SkysphereEPNS_16Skysphere_StructE(%"struct.pov::Skysphere_Struct"* %Old) #1 !dbg !1930 {
entry:
  %Old.addr = alloca %"struct.pov::Skysphere_Struct"*, align 8
  %i = alloca i32, align 4
  %New = alloca %"struct.pov::Skysphere_Struct"*, align 8
  store %"struct.pov::Skysphere_Struct"* %Old, %"struct.pov::Skysphere_Struct"** %Old.addr, align 8
  call void @llvm.dbg.declare(metadata %"struct.pov::Skysphere_Struct"** %Old.addr, metadata !1933, metadata !DIExpression()), !dbg !1934
  call void @llvm.dbg.declare(metadata i32* %i, metadata !1935, metadata !DIExpression()), !dbg !1936
  call void @llvm.dbg.declare(metadata %"struct.pov::Skysphere_Struct"** %New, metadata !1937, metadata !DIExpression()), !dbg !1938
  %call = call %"struct.pov::Skysphere_Struct"* @_ZN3pov16Create_SkysphereEv(), !dbg !1939
  store %"struct.pov::Skysphere_Struct"* %call, %"struct.pov::Skysphere_Struct"** %New, align 8, !dbg !1940
  %0 = load %"struct.pov::Skysphere_Struct"*, %"struct.pov::Skysphere_Struct"** %New, align 8, !dbg !1941
  %Trans = getelementptr inbounds %"struct.pov::Skysphere_Struct", %"struct.pov::Skysphere_Struct"* %0, i32 0, i32 2, !dbg !1942
  %1 = load %"struct.pov::Transform_Struct"*, %"struct.pov::Transform_Struct"** %Trans, align 8, !dbg !1942
  call void @_ZN3pov17Destroy_TransformEPNS_16Transform_StructE(%"struct.pov::Transform_Struct"* %1), !dbg !1943
  %2 = load %"struct.pov::Skysphere_Struct"*, %"struct.pov::Skysphere_Struct"** %Old.addr, align 8, !dbg !1944
  %3 = load %"struct.pov::Skysphere_Struct"*, %"struct.pov::Skysphere_Struct"** %New, align 8, !dbg !1945
  %4 = bitcast %"struct.pov::Skysphere_Struct"* %3 to i8*, !dbg !1946
  %5 = bitcast %"struct.pov::Skysphere_Struct"* %2 to i8*, !dbg !1946
  call void @llvm.memcpy.p0i8.p0i8.i64(i8* align 8 %4, i8* align 8 %5, i64 24, i1 false), !dbg !1946
  %6 = load %"struct.pov::Skysphere_Struct"*, %"struct.pov::Skysphere_Struct"** %Old.addr, align 8, !dbg !1947
  %Trans1 = getelementptr inbounds %"struct.pov::Skysphere_Struct", %"struct.pov::Skysphere_Struct"* %6, i32 0, i32 2, !dbg !1948
  %7 = load %"struct.pov::Transform_Struct"*, %"struct.pov::Transform_Struct"** %Trans1, align 8, !dbg !1948
  %call2 = call %"struct.pov::Transform_Struct"* @_ZN3pov14Copy_TransformEPNS_16Transform_StructE(%"struct.pov::Transform_Struct"* %7), !dbg !1949
  %8 = load %"struct.pov::Skysphere_Struct"*, %"struct.pov::Skysphere_Struct"** %New, align 8, !dbg !1950
  %Trans3 = getelementptr inbounds %"struct.pov::Skysphere_Struct", %"struct.pov::Skysphere_Struct"* %8, i32 0, i32 2, !dbg !1951
  store %"struct.pov::Transform_Struct"* %call2, %"struct.pov::Transform_Struct"** %Trans3, align 8, !dbg !1952
  %9 = load %"struct.pov::Skysphere_Struct"*, %"struct.pov::Skysphere_Struct"** %New, align 8, !dbg !1953
  %Count = getelementptr inbounds %"struct.pov::Skysphere_Struct", %"struct.pov::Skysphere_Struct"* %9, i32 0, i32 0, !dbg !1955
  %10 = load i32, i32* %Count, align 8, !dbg !1955
  %cmp = icmp sgt i32 %10, 0, !dbg !1956
  br i1 %cmp, label %if.then, label %if.end, !dbg !1957

if.then:                                          ; preds = %entry
  %11 = load %"struct.pov::Skysphere_Struct"*, %"struct.pov::Skysphere_Struct"** %New, align 8, !dbg !1958
  %Count4 = getelementptr inbounds %"struct.pov::Skysphere_Struct", %"struct.pov::Skysphere_Struct"* %11, i32 0, i32 0, !dbg !1958
  %12 = load i32, i32* %Count4, align 8, !dbg !1958
  %conv = sext i32 %12 to i64, !dbg !1958
  %mul = mul i64 %conv, 8, !dbg !1958
  %call5 = call i8* @_ZN3pov10pov_mallocEmPKciS1_(i64 %mul, i8* getelementptr inbounds ([12 x i8], [12 x i8]* @.str, i64 0, i64 0), i32 1204, i8* getelementptr inbounds ([18 x i8], [18 x i8]* @.str.2, i64 0, i64 0)), !dbg !1958
  %13 = bitcast i8* %call5 to %"struct.pov::Pigment_Struct"**, !dbg !1960
  %14 = load %"struct.pov::Skysphere_Struct"*, %"struct.pov::Skysphere_Struct"** %New, align 8, !dbg !1961
  %Pigments = getelementptr inbounds %"struct.pov::Skysphere_Struct", %"struct.pov::Skysphere_Struct"* %14, i32 0, i32 1, !dbg !1962
  store %"struct.pov::Pigment_Struct"** %13, %"struct.pov::Pigment_Struct"*** %Pigments, align 8, !dbg !1963
  store i32 0, i32* %i, align 4, !dbg !1964
  br label %for.cond, !dbg !1966

for.cond:                                         ; preds = %for.inc, %if.then
  %15 = load i32, i32* %i, align 4, !dbg !1967
  %16 = load %"struct.pov::Skysphere_Struct"*, %"struct.pov::Skysphere_Struct"** %New, align 8, !dbg !1969
  %Count6 = getelementptr inbounds %"struct.pov::Skysphere_Struct", %"struct.pov::Skysphere_Struct"* %16, i32 0, i32 0, !dbg !1970
  %17 = load i32, i32* %Count6, align 8, !dbg !1970
  %cmp7 = icmp slt i32 %15, %17, !dbg !1971
  br i1 %cmp7, label %for.body, label %for.end, !dbg !1972

for.body:                                         ; preds = %for.cond
  %18 = load %"struct.pov::Skysphere_Struct"*, %"struct.pov::Skysphere_Struct"** %Old.addr, align 8, !dbg !1973
  %Pigments8 = getelementptr inbounds %"struct.pov::Skysphere_Struct", %"struct.pov::Skysphere_Struct"* %18, i32 0, i32 1, !dbg !1975
  %19 = load %"struct.pov::Pigment_Struct"**, %"struct.pov::Pigment_Struct"*** %Pigments8, align 8, !dbg !1975
  %20 = load i32, i32* %i, align 4, !dbg !1976
  %idxprom = sext i32 %20 to i64, !dbg !1973
  %arrayidx = getelementptr inbounds %"struct.pov::Pigment_Struct"*, %"struct.pov::Pigment_Struct"** %19, i64 %idxprom, !dbg !1973
  %21 = load %"struct.pov::Pigment_Struct"*, %"struct.pov::Pigment_Struct"** %arrayidx, align 8, !dbg !1973
  %call9 = call %"struct.pov::Pigment_Struct"* @_ZN3pov12Copy_PigmentEPNS_14Pigment_StructE(%"struct.pov::Pigment_Struct"* %21), !dbg !1977
  %22 = load %"struct.pov::Skysphere_Struct"*, %"struct.pov::Skysphere_Struct"** %New, align 8, !dbg !1978
  %Pigments10 = getelementptr inbounds %"struct.pov::Skysphere_Struct", %"struct.pov::Skysphere_Struct"* %22, i32 0, i32 1, !dbg !1979
  %23 = load %"struct.pov::Pigment_Struct"**, %"struct.pov::Pigment_Struct"*** %Pigments10, align 8, !dbg !1979
  %24 = load i32, i32* %i, align 4, !dbg !1980
  %idxprom11 = sext i32 %24 to i64, !dbg !1978
  %arrayidx12 = getelementptr inbounds %"struct.pov::Pigment_Struct"*, %"struct.pov::Pigment_Struct"** %23, i64 %idxprom11, !dbg !1978
  store %"struct.pov::Pigment_Struct"* %call9, %"struct.pov::Pigment_Struct"** %arrayidx12, align 8, !dbg !1981
  br label %for.inc, !dbg !1982

for.inc:                                          ; preds = %for.body
  %25 = load i32, i32* %i, align 4, !dbg !1983
  %inc = add nsw i32 %25, 1, !dbg !1983
  store i32 %inc, i32* %i, align 4, !dbg !1983
  br label %for.cond, !dbg !1984, !llvm.loop !1985

for.end:                                          ; preds = %for.cond
  br label %if.end, !dbg !1987

if.end:                                           ; preds = %for.end, %entry
  %26 = load %"struct.pov::Skysphere_Struct"*, %"struct.pov::Skysphere_Struct"** %New, align 8, !dbg !1988
  ret %"struct.pov::Skysphere_Struct"* %26, !dbg !1989
}

declare dso_local void @_ZN3pov17Destroy_TransformEPNS_16Transform_StructE(%"struct.pov::Transform_Struct"*) #3

declare dso_local %"struct.pov::Transform_Struct"* @_ZN3pov14Copy_TransformEPNS_16Transform_StructE(%"struct.pov::Transform_Struct"*) #3

declare dso_local %"struct.pov::Pigment_Struct"* @_ZN3pov12Copy_PigmentEPNS_14Pigment_StructE(%"struct.pov::Pigment_Struct"*) #3

; Function Attrs: noinline uwtable
define dso_local void @_ZN3pov17Destroy_SkysphereEPNS_16Skysphere_StructE(%"struct.pov::Skysphere_Struct"* %Skysphere) #1 !dbg !1990 {
entry:
  %Skysphere.addr = alloca %"struct.pov::Skysphere_Struct"*, align 8
  %i = alloca i32, align 4
  store %"struct.pov::Skysphere_Struct"* %Skysphere, %"struct.pov::Skysphere_Struct"** %Skysphere.addr, align 8
  call void @llvm.dbg.declare(metadata %"struct.pov::Skysphere_Struct"** %Skysphere.addr, metadata !1993, metadata !DIExpression()), !dbg !1994
  call void @llvm.dbg.declare(metadata i32* %i, metadata !1995, metadata !DIExpression()), !dbg !1996
  %0 = load %"struct.pov::Skysphere_Struct"*, %"struct.pov::Skysphere_Struct"** %Skysphere.addr, align 8, !dbg !1997
  %cmp = icmp ne %"struct.pov::Skysphere_Struct"* %0, null, !dbg !1999
  br i1 %cmp, label %if.then, label %if.end, !dbg !2000

if.then:                                          ; preds = %entry
  store i32 0, i32* %i, align 4, !dbg !2001
  br label %for.cond, !dbg !2004

for.cond:                                         ; preds = %for.inc, %if.then
  %1 = load i32, i32* %i, align 4, !dbg !2005
  %2 = load %"struct.pov::Skysphere_Struct"*, %"struct.pov::Skysphere_Struct"** %Skysphere.addr, align 8, !dbg !2007
  %Count = getelementptr inbounds %"struct.pov::Skysphere_Struct", %"struct.pov::Skysphere_Struct"* %2, i32 0, i32 0, !dbg !2008
  %3 = load i32, i32* %Count, align 8, !dbg !2008
  %cmp1 = icmp slt i32 %1, %3, !dbg !2009
  br i1 %cmp1, label %for.body, label %for.end, !dbg !2010

for.body:                                         ; preds = %for.cond
  %4 = load %"struct.pov::Skysphere_Struct"*, %"struct.pov::Skysphere_Struct"** %Skysphere.addr, align 8, !dbg !2011
  %Pigments = getelementptr inbounds %"struct.pov::Skysphere_Struct", %"struct.pov::Skysphere_Struct"* %4, i32 0, i32 1, !dbg !2013
  %5 = load %"struct.pov::Pigment_Struct"**, %"struct.pov::Pigment_Struct"*** %Pigments, align 8, !dbg !2013
  %6 = load i32, i32* %i, align 4, !dbg !2014
  %idxprom = sext i32 %6 to i64, !dbg !2011
  %arrayidx = getelementptr inbounds %"struct.pov::Pigment_Struct"*, %"struct.pov::Pigment_Struct"** %5, i64 %idxprom, !dbg !2011
  %7 = load %"struct.pov::Pigment_Struct"*, %"struct.pov::Pigment_Struct"** %arrayidx, align 8, !dbg !2011
  call void @_ZN3pov15Destroy_PigmentEPNS_14Pigment_StructE(%"struct.pov::Pigment_Struct"* %7), !dbg !2015
  br label %for.inc, !dbg !2016

for.inc:                                          ; preds = %for.body
  %8 = load i32, i32* %i, align 4, !dbg !2017
  %inc = add nsw i32 %8, 1, !dbg !2017
  store i32 %inc, i32* %i, align 4, !dbg !2017
  br label %for.cond, !dbg !2018, !llvm.loop !2019

for.end:                                          ; preds = %for.cond
  %9 = load %"struct.pov::Skysphere_Struct"*, %"struct.pov::Skysphere_Struct"** %Skysphere.addr, align 8, !dbg !2021
  %Pigments2 = getelementptr inbounds %"struct.pov::Skysphere_Struct", %"struct.pov::Skysphere_Struct"* %9, i32 0, i32 1, !dbg !2021
  %10 = load %"struct.pov::Pigment_Struct"**, %"struct.pov::Pigment_Struct"*** %Pigments2, align 8, !dbg !2021
  %11 = bitcast %"struct.pov::Pigment_Struct"** %10 to i8*, !dbg !2021
  call void @_ZN3pov8pov_freeEPvPKci(i8* %11, i8* getelementptr inbounds ([12 x i8], [12 x i8]* @.str, i64 0, i64 0), i32 1256), !dbg !2021
  %12 = load %"struct.pov::Skysphere_Struct"*, %"struct.pov::Skysphere_Struct"** %Skysphere.addr, align 8, !dbg !2021
  %Pigments3 = getelementptr inbounds %"struct.pov::Skysphere_Struct", %"struct.pov::Skysphere_Struct"* %12, i32 0, i32 1, !dbg !2021
  store %"struct.pov::Pigment_Struct"** null, %"struct.pov::Pigment_Struct"*** %Pigments3, align 8, !dbg !2021
  %13 = load %"struct.pov::Skysphere_Struct"*, %"struct.pov::Skysphere_Struct"** %Skysphere.addr, align 8, !dbg !2023
  %Trans = getelementptr inbounds %"struct.pov::Skysphere_Struct", %"struct.pov::Skysphere_Struct"* %13, i32 0, i32 2, !dbg !2024
  %14 = load %"struct.pov::Transform_Struct"*, %"struct.pov::Transform_Struct"** %Trans, align 8, !dbg !2024
  call void @_ZN3pov17Destroy_TransformEPNS_16Transform_StructE(%"struct.pov::Transform_Struct"* %14), !dbg !2025
  %15 = load %"struct.pov::Skysphere_Struct"*, %"struct.pov::Skysphere_Struct"** %Skysphere.addr, align 8, !dbg !2026
  %16 = bitcast %"struct.pov::Skysphere_Struct"* %15 to i8*, !dbg !2026
  call void @_ZN3pov8pov_freeEPvPKci(i8* %16, i8* getelementptr inbounds ([12 x i8], [12 x i8]* @.str, i64 0, i64 0), i32 1260), !dbg !2026
  store %"struct.pov::Skysphere_Struct"* null, %"struct.pov::Skysphere_Struct"** %Skysphere.addr, align 8, !dbg !2026
  br label %if.end, !dbg !2028

if.end:                                           ; preds = %for.end, %entry
  ret void, !dbg !2029
}

; Function Attrs: noinline uwtable
define dso_local void @_ZN3pov16Rotate_SkysphereEPNS_16Skysphere_StructEPd(%"struct.pov::Skysphere_Struct"* %Skysphere, double* %Vector) #1 !dbg !2030 {
entry:
  %Skysphere.addr = alloca %"struct.pov::Skysphere_Struct"*, align 8
  %Vector.addr = alloca double*, align 8
  %Trans = alloca %"struct.pov::Transform_Struct", align 8
  store %"struct.pov::Skysphere_Struct"* %Skysphere, %"struct.pov::Skysphere_Struct"** %Skysphere.addr, align 8
  call void @llvm.dbg.declare(metadata %"struct.pov::Skysphere_Struct"** %Skysphere.addr, metadata !2033, metadata !DIExpression()), !dbg !2034
  store double* %Vector, double** %Vector.addr, align 8
  call void @llvm.dbg.declare(metadata double** %Vector.addr, metadata !2035, metadata !DIExpression()), !dbg !2036
  call void @llvm.dbg.declare(metadata %"struct.pov::Transform_Struct"* %Trans, metadata !2037, metadata !DIExpression()), !dbg !2038
  %0 = load double*, double** %Vector.addr, align 8, !dbg !2039
  call void @_ZN3pov26Compute_Rotation_TransformEPNS_16Transform_StructEPd(%"struct.pov::Transform_Struct"* %Trans, double* %0), !dbg !2040
  %1 = load %"struct.pov::Skysphere_Struct"*, %"struct.pov::Skysphere_Struct"** %Skysphere.addr, align 8, !dbg !2041
  call void @_ZN3pov19Transform_SkysphereEPNS_16Skysphere_StructEPNS_16Transform_StructE(%"struct.pov::Skysphere_Struct"* %1, %"struct.pov::Transform_Struct"* %Trans), !dbg !2042
  ret void, !dbg !2043
}

declare dso_local void @_ZN3pov26Compute_Rotation_TransformEPNS_16Transform_StructEPd(%"struct.pov::Transform_Struct"*, double*) #3

; Function Attrs: noinline uwtable
define dso_local void @_ZN3pov19Transform_SkysphereEPNS_16Skysphere_StructEPNS_16Transform_StructE(%"struct.pov::Skysphere_Struct"* %Skysphere, %"struct.pov::Transform_Struct"* %Trans) #1 !dbg !2044 {
entry:
  %Skysphere.addr = alloca %"struct.pov::Skysphere_Struct"*, align 8
  %Trans.addr = alloca %"struct.pov::Transform_Struct"*, align 8
  store %"struct.pov::Skysphere_Struct"* %Skysphere, %"struct.pov::Skysphere_Struct"** %Skysphere.addr, align 8
  call void @llvm.dbg.declare(metadata %"struct.pov::Skysphere_Struct"** %Skysphere.addr, metadata !2047, metadata !DIExpression()), !dbg !2048
  store %"struct.pov::Transform_Struct"* %Trans, %"struct.pov::Transform_Struct"** %Trans.addr, align 8
  call void @llvm.dbg.declare(metadata %"struct.pov::Transform_Struct"** %Trans.addr, metadata !2049, metadata !DIExpression()), !dbg !2050
  %0 = load %"struct.pov::Skysphere_Struct"*, %"struct.pov::Skysphere_Struct"** %Skysphere.addr, align 8, !dbg !2051
  %Trans1 = getelementptr inbounds %"struct.pov::Skysphere_Struct", %"struct.pov::Skysphere_Struct"* %0, i32 0, i32 2, !dbg !2053
  %1 = load %"struct.pov::Transform_Struct"*, %"struct.pov::Transform_Struct"** %Trans1, align 8, !dbg !2053
  %cmp = icmp eq %"struct.pov::Transform_Struct"* %1, null, !dbg !2054
  br i1 %cmp, label %if.then, label %if.end, !dbg !2055

if.then:                                          ; preds = %entry
  %call = call %"struct.pov::Transform_Struct"* @_ZN3pov16Create_TransformEv(), !dbg !2056
  %2 = load %"struct.pov::Skysphere_Struct"*, %"struct.pov::Skysphere_Struct"** %Skysphere.addr, align 8, !dbg !2058
  %Trans2 = getelementptr inbounds %"struct.pov::Skysphere_Struct", %"struct.pov::Skysphere_Struct"* %2, i32 0, i32 2, !dbg !2059
  store %"struct.pov::Transform_Struct"* %call, %"struct.pov::Transform_Struct"** %Trans2, align 8, !dbg !2060
  br label %if.end, !dbg !2061

if.end:                                           ; preds = %if.then, %entry
  %3 = load %"struct.pov::Skysphere_Struct"*, %"struct.pov::Skysphere_Struct"** %Skysphere.addr, align 8, !dbg !2062
  %Trans3 = getelementptr inbounds %"struct.pov::Skysphere_Struct", %"struct.pov::Skysphere_Struct"* %3, i32 0, i32 2, !dbg !2063
  %4 = load %"struct.pov::Transform_Struct"*, %"struct.pov::Transform_Struct"** %Trans3, align 8, !dbg !2063
  %5 = load %"struct.pov::Transform_Struct"*, %"struct.pov::Transform_Struct"** %Trans.addr, align 8, !dbg !2064
  call void @_ZN3pov18Compose_TransformsEPNS_16Transform_StructES1_(%"struct.pov::Transform_Struct"* %4, %"struct.pov::Transform_Struct"* %5), !dbg !2065
  ret void, !dbg !2066
}

; Function Attrs: noinline uwtable
define dso_local void @_ZN3pov15Scale_SkysphereEPNS_16Skysphere_StructEPd(%"struct.pov::Skysphere_Struct"* %Skysphere, double* %Vector) #1 !dbg !2067 {
entry:
  %Skysphere.addr = alloca %"struct.pov::Skysphere_Struct"*, align 8
  %Vector.addr = alloca double*, align 8
  %Trans = alloca %"struct.pov::Transform_Struct", align 8
  store %"struct.pov::Skysphere_Struct"* %Skysphere, %"struct.pov::Skysphere_Struct"** %Skysphere.addr, align 8
  call void @llvm.dbg.declare(metadata %"struct.pov::Skysphere_Struct"** %Skysphere.addr, metadata !2068, metadata !DIExpression()), !dbg !2069
  store double* %Vector, double** %Vector.addr, align 8
  call void @llvm.dbg.declare(metadata double** %Vector.addr, metadata !2070, metadata !DIExpression()), !dbg !2071
  call void @llvm.dbg.declare(metadata %"struct.pov::Transform_Struct"* %Trans, metadata !2072, metadata !DIExpression()), !dbg !2073
  %0 = load double*, double** %Vector.addr, align 8, !dbg !2074
  call void @_ZN3pov25Compute_Scaling_TransformEPNS_16Transform_StructEPd(%"struct.pov::Transform_Struct"* %Trans, double* %0), !dbg !2075
  %1 = load %"struct.pov::Skysphere_Struct"*, %"struct.pov::Skysphere_Struct"** %Skysphere.addr, align 8, !dbg !2076
  call void @_ZN3pov19Transform_SkysphereEPNS_16Skysphere_StructEPNS_16Transform_StructE(%"struct.pov::Skysphere_Struct"* %1, %"struct.pov::Transform_Struct"* %Trans), !dbg !2077
  ret void, !dbg !2078
}

declare dso_local void @_ZN3pov25Compute_Scaling_TransformEPNS_16Transform_StructEPd(%"struct.pov::Transform_Struct"*, double*) #3

; Function Attrs: noinline uwtable
define dso_local void @_ZN3pov19Translate_SkysphereEPNS_16Skysphere_StructEPd(%"struct.pov::Skysphere_Struct"* %Skysphere, double* %Vector) #1 !dbg !2079 {
entry:
  %Skysphere.addr = alloca %"struct.pov::Skysphere_Struct"*, align 8
  %Vector.addr = alloca double*, align 8
  %Trans = alloca %"struct.pov::Transform_Struct", align 8
  store %"struct.pov::Skysphere_Struct"* %Skysphere, %"struct.pov::Skysphere_Struct"** %Skysphere.addr, align 8
  call void @llvm.dbg.declare(metadata %"struct.pov::Skysphere_Struct"** %Skysphere.addr, metadata !2080, metadata !DIExpression()), !dbg !2081
  store double* %Vector, double** %Vector.addr, align 8
  call void @llvm.dbg.declare(metadata double** %Vector.addr, metadata !2082, metadata !DIExpression()), !dbg !2083
  call void @llvm.dbg.declare(metadata %"struct.pov::Transform_Struct"* %Trans, metadata !2084, metadata !DIExpression()), !dbg !2085
  %0 = load double*, double** %Vector.addr, align 8, !dbg !2086
  call void @_ZN3pov29Compute_Translation_TransformEPNS_16Transform_StructEPd(%"struct.pov::Transform_Struct"* %Trans, double* %0), !dbg !2087
  %1 = load %"struct.pov::Skysphere_Struct"*, %"struct.pov::Skysphere_Struct"** %Skysphere.addr, align 8, !dbg !2088
  call void @_ZN3pov19Transform_SkysphereEPNS_16Skysphere_StructEPNS_16Transform_StructE(%"struct.pov::Skysphere_Struct"* %1, %"struct.pov::Transform_Struct"* %Trans), !dbg !2089
  ret void, !dbg !2090
}

declare dso_local void @_ZN3pov29Compute_Translation_TransformEPNS_16Transform_StructEPd(%"struct.pov::Transform_Struct"*, double*) #3

declare dso_local void @_ZN3pov18Compose_TransformsEPNS_16Transform_StructES1_(%"struct.pov::Transform_Struct"*, %"struct.pov::Transform_Struct"*) #3

; Function Attrs: nounwind readnone speculatable willreturn
declare double @llvm.fabs.f64(double) #2

; Function Attrs: noinline uwtable
define internal double @_ZN3povL10ground_fogEPNS_10Ray_StructEddPNS_10Fog_StructEPf(%"struct.pov::Ray_Struct"* %Ray, double %Depth, double %Width, %"struct.pov::Fog_Struct"* %Fog, float* %Colour) #1 !dbg !2091 {
entry:
  %Ray.addr = alloca %"struct.pov::Ray_Struct"*, align 8
  %Depth.addr = alloca double, align 8
  %Width.addr = alloca double, align 8
  %Fog.addr = alloca %"struct.pov::Fog_Struct"*, align 8
  %Colour.addr = alloca float*, align 8
  %fog_density = alloca double, align 8
  %delta = alloca double, align 8
  %start = alloca double, align 8
  %end = alloca double, align 8
  %y1 = alloca double, align 8
  %y2 = alloca double, align 8
  %k = alloca double, align 8
  %P = alloca [3 x double], align 16
  %P1 = alloca [3 x double], align 16
  %P2 = alloca [3 x double], align 16
  %ref.tmp = alloca double, align 8
  %ref.tmp52 = alloca double, align 8
  store %"struct.pov::Ray_Struct"* %Ray, %"struct.pov::Ray_Struct"** %Ray.addr, align 8
  call void @llvm.dbg.declare(metadata %"struct.pov::Ray_Struct"** %Ray.addr, metadata !2094, metadata !DIExpression()), !dbg !2095
  store double %Depth, double* %Depth.addr, align 8
  call void @llvm.dbg.declare(metadata double* %Depth.addr, metadata !2096, metadata !DIExpression()), !dbg !2097
  store double %Width, double* %Width.addr, align 8
  call void @llvm.dbg.declare(metadata double* %Width.addr, metadata !2098, metadata !DIExpression()), !dbg !2099
  store %"struct.pov::Fog_Struct"* %Fog, %"struct.pov::Fog_Struct"** %Fog.addr, align 8
  call void @llvm.dbg.declare(metadata %"struct.pov::Fog_Struct"** %Fog.addr, metadata !2100, metadata !DIExpression()), !dbg !2101
  store float* %Colour, float** %Colour.addr, align 8
  call void @llvm.dbg.declare(metadata float** %Colour.addr, metadata !2102, metadata !DIExpression()), !dbg !2103
  call void @llvm.dbg.declare(metadata double* %fog_density, metadata !2104, metadata !DIExpression()), !dbg !2105
  call void @llvm.dbg.declare(metadata double* %delta, metadata !2106, metadata !DIExpression()), !dbg !2107
  call void @llvm.dbg.declare(metadata double* %start, metadata !2108, metadata !DIExpression()), !dbg !2109
  call void @llvm.dbg.declare(metadata double* %end, metadata !2110, metadata !DIExpression()), !dbg !2111
  call void @llvm.dbg.declare(metadata double* %y1, metadata !2112, metadata !DIExpression()), !dbg !2113
  call void @llvm.dbg.declare(metadata double* %y2, metadata !2114, metadata !DIExpression()), !dbg !2115
  call void @llvm.dbg.declare(metadata double* %k, metadata !2116, metadata !DIExpression()), !dbg !2117
  call void @llvm.dbg.declare(metadata [3 x double]* %P, metadata !2118, metadata !DIExpression()), !dbg !2119
  call void @llvm.dbg.declare(metadata [3 x double]* %P1, metadata !2120, metadata !DIExpression()), !dbg !2121
  call void @llvm.dbg.declare(metadata [3 x double]* %P2, metadata !2122, metadata !DIExpression()), !dbg !2123
  %arraydecay = getelementptr inbounds [3 x double], [3 x double]* %P1, i64 0, i64 0, !dbg !2124
  %0 = load %"struct.pov::Ray_Struct"*, %"struct.pov::Ray_Struct"** %Ray.addr, align 8, !dbg !2125
  %Initial = getelementptr inbounds %"struct.pov::Ray_Struct", %"struct.pov::Ray_Struct"* %0, i32 0, i32 0, !dbg !2126
  %arraydecay1 = getelementptr inbounds [3 x double], [3 x double]* %Initial, i64 0, i64 0, !dbg !2125
  %1 = load double, double* %Depth.addr, align 8, !dbg !2127
  %2 = load %"struct.pov::Ray_Struct"*, %"struct.pov::Ray_Struct"** %Ray.addr, align 8, !dbg !2128
  %Direction = getelementptr inbounds %"struct.pov::Ray_Struct", %"struct.pov::Ray_Struct"* %2, i32 0, i32 1, !dbg !2129
  %arraydecay2 = getelementptr inbounds [3 x double], [3 x double]* %Direction, i64 0, i64 0, !dbg !2128
  call void @_ZN3pov12VEvaluateRayEPdPKddS2_(double* %arraydecay, double* %arraydecay1, double %1, double* %arraydecay2), !dbg !2130
  %arraydecay3 = getelementptr inbounds [3 x double], [3 x double]* %P2, i64 0, i64 0, !dbg !2131
  %arraydecay4 = getelementptr inbounds [3 x double], [3 x double]* %P1, i64 0, i64 0, !dbg !2132
  %3 = load double, double* %Width.addr, align 8, !dbg !2133
  %4 = load %"struct.pov::Ray_Struct"*, %"struct.pov::Ray_Struct"** %Ray.addr, align 8, !dbg !2134
  %Direction5 = getelementptr inbounds %"struct.pov::Ray_Struct", %"struct.pov::Ray_Struct"* %4, i32 0, i32 1, !dbg !2135
  %arraydecay6 = getelementptr inbounds [3 x double], [3 x double]* %Direction5, i64 0, i64 0, !dbg !2134
  call void @_ZN3pov9VLinComb2EPddPKddS2_(double* %arraydecay3, double 1.000000e+00, double* %arraydecay4, double %3, double* %arraydecay6), !dbg !2136
  %arraydecay7 = getelementptr inbounds [3 x double], [3 x double]* %P1, i64 0, i64 0, !dbg !2137
  %5 = load %"struct.pov::Fog_Struct"*, %"struct.pov::Fog_Struct"** %Fog.addr, align 8, !dbg !2138
  %Up = getelementptr inbounds %"struct.pov::Fog_Struct", %"struct.pov::Fog_Struct"* %5, i32 0, i32 5, !dbg !2139
  %arraydecay8 = getelementptr inbounds [3 x double], [3 x double]* %Up, i64 0, i64 0, !dbg !2138
  call void @_ZN3pov4VDotERdPKdS2_(double* dereferenceable(8) %y1, double* %arraydecay7, double* %arraydecay8), !dbg !2140
  %arraydecay9 = getelementptr inbounds [3 x double], [3 x double]* %P2, i64 0, i64 0, !dbg !2141
  %6 = load %"struct.pov::Fog_Struct"*, %"struct.pov::Fog_Struct"** %Fog.addr, align 8, !dbg !2142
  %Up10 = getelementptr inbounds %"struct.pov::Fog_Struct", %"struct.pov::Fog_Struct"* %6, i32 0, i32 5, !dbg !2143
  %arraydecay11 = getelementptr inbounds [3 x double], [3 x double]* %Up10, i64 0, i64 0, !dbg !2142
  call void @_ZN3pov4VDotERdPKdS2_(double* dereferenceable(8) %y2, double* %arraydecay9, double* %arraydecay11), !dbg !2144
  %7 = load double, double* %y1, align 8, !dbg !2145
  %8 = load %"struct.pov::Fog_Struct"*, %"struct.pov::Fog_Struct"** %Fog.addr, align 8, !dbg !2146
  %Offset = getelementptr inbounds %"struct.pov::Fog_Struct", %"struct.pov::Fog_Struct"* %8, i32 0, i32 3, !dbg !2147
  %9 = load double, double* %Offset, align 8, !dbg !2147
  %sub = fsub double %7, %9, !dbg !2148
  %10 = load %"struct.pov::Fog_Struct"*, %"struct.pov::Fog_Struct"** %Fog.addr, align 8, !dbg !2149
  %Alt = getelementptr inbounds %"struct.pov::Fog_Struct", %"struct.pov::Fog_Struct"* %10, i32 0, i32 2, !dbg !2150
  %11 = load double, double* %Alt, align 8, !dbg !2150
  %div = fdiv double %sub, %11, !dbg !2151
  store double %div, double* %start, align 8, !dbg !2152
  %12 = load double, double* %y2, align 8, !dbg !2153
  %13 = load %"struct.pov::Fog_Struct"*, %"struct.pov::Fog_Struct"** %Fog.addr, align 8, !dbg !2154
  %Offset12 = getelementptr inbounds %"struct.pov::Fog_Struct", %"struct.pov::Fog_Struct"* %13, i32 0, i32 3, !dbg !2155
  %14 = load double, double* %Offset12, align 8, !dbg !2155
  %sub13 = fsub double %12, %14, !dbg !2156
  %15 = load %"struct.pov::Fog_Struct"*, %"struct.pov::Fog_Struct"** %Fog.addr, align 8, !dbg !2157
  %Alt14 = getelementptr inbounds %"struct.pov::Fog_Struct", %"struct.pov::Fog_Struct"* %15, i32 0, i32 2, !dbg !2158
  %16 = load double, double* %Alt14, align 8, !dbg !2158
  %div15 = fdiv double %sub13, %16, !dbg !2159
  store double %div15, double* %end, align 8, !dbg !2160
  %17 = load double, double* %start, align 8, !dbg !2161
  %cmp = fcmp ole double %17, 0.000000e+00, !dbg !2163
  br i1 %cmp, label %if.then, label %if.else21, !dbg !2164

if.then:                                          ; preds = %entry
  %18 = load double, double* %end, align 8, !dbg !2165
  %cmp16 = fcmp ole double %18, 0.000000e+00, !dbg !2168
  br i1 %cmp16, label %if.then17, label %if.else, !dbg !2169

if.then17:                                        ; preds = %if.then
  store double 1.000000e+00, double* %fog_density, align 8, !dbg !2170
  br label %if.end, !dbg !2172

if.else:                                          ; preds = %if.then
  %19 = load double, double* %end, align 8, !dbg !2173
  %call = call double @atan(double %19) #6, !dbg !2175
  %20 = load double, double* %start, align 8, !dbg !2176
  %sub18 = fsub double %call, %20, !dbg !2177
  %21 = load double, double* %end, align 8, !dbg !2178
  %22 = load double, double* %start, align 8, !dbg !2179
  %sub19 = fsub double %21, %22, !dbg !2180
  %div20 = fdiv double %sub18, %sub19, !dbg !2181
  store double %div20, double* %fog_density, align 8, !dbg !2182
  br label %if.end

if.end:                                           ; preds = %if.else, %if.then17
  br label %if.end41, !dbg !2183

if.else21:                                        ; preds = %entry
  %23 = load double, double* %end, align 8, !dbg !2184
  %cmp22 = fcmp ole double %23, 0.000000e+00, !dbg !2187
  br i1 %cmp22, label %if.then23, label %if.else28, !dbg !2188

if.then23:                                        ; preds = %if.else21
  %24 = load double, double* %start, align 8, !dbg !2189
  %call24 = call double @atan(double %24) #6, !dbg !2191
  %25 = load double, double* %end, align 8, !dbg !2192
  %sub25 = fsub double %call24, %25, !dbg !2193
  %26 = load double, double* %start, align 8, !dbg !2194
  %27 = load double, double* %end, align 8, !dbg !2195
  %sub26 = fsub double %26, %27, !dbg !2196
  %div27 = fdiv double %sub25, %sub26, !dbg !2197
  store double %div27, double* %fog_density, align 8, !dbg !2198
  br label %if.end40, !dbg !2199

if.else28:                                        ; preds = %if.else21
  %28 = load double, double* %start, align 8, !dbg !2200
  %29 = load double, double* %end, align 8, !dbg !2202
  %sub29 = fsub double %28, %29, !dbg !2203
  store double %sub29, double* %delta, align 8, !dbg !2204
  %30 = load double, double* %delta, align 8, !dbg !2205
  %31 = call double @llvm.fabs.f64(double %30), !dbg !2207
  %cmp30 = fcmp ogt double %31, 0x3E7AD7F29ABCAF48, !dbg !2208
  br i1 %cmp30, label %if.then31, label %if.else36, !dbg !2209

if.then31:                                        ; preds = %if.else28
  %32 = load double, double* %start, align 8, !dbg !2210
  %call32 = call double @atan(double %32) #6, !dbg !2212
  %33 = load double, double* %end, align 8, !dbg !2213
  %call33 = call double @atan(double %33) #6, !dbg !2214
  %sub34 = fsub double %call32, %call33, !dbg !2215
  %34 = load double, double* %delta, align 8, !dbg !2216
  %div35 = fdiv double %sub34, %34, !dbg !2217
  store double %div35, double* %fog_density, align 8, !dbg !2218
  br label %if.end39, !dbg !2219

if.else36:                                        ; preds = %if.else28
  %35 = load double, double* %start, align 8, !dbg !2220
  %call37 = call double @_ZN3pov3SqrEd(double %35), !dbg !2222
  %add = fadd double %call37, 1.000000e+00, !dbg !2223
  %div38 = fdiv double 1.000000e+00, %add, !dbg !2224
  store double %div38, double* %fog_density, align 8, !dbg !2225
  br label %if.end39

if.end39:                                         ; preds = %if.else36, %if.then31
  br label %if.end40

if.end40:                                         ; preds = %if.end39, %if.then23
  br label %if.end41

if.end41:                                         ; preds = %if.end40, %if.end
  %36 = load %"struct.pov::Fog_Struct"*, %"struct.pov::Fog_Struct"** %Fog.addr, align 8, !dbg !2226
  %Turb = getelementptr inbounds %"struct.pov::Fog_Struct", %"struct.pov::Fog_Struct"* %36, i32 0, i32 6, !dbg !2228
  %37 = load %"struct.pov::Turb_Struct"*, %"struct.pov::Turb_Struct"** %Turb, align 8, !dbg !2228
  %cmp42 = icmp ne %"struct.pov::Turb_Struct"* %37, null, !dbg !2229
  br i1 %cmp42, label %if.then43, label %if.end60, !dbg !2230

if.then43:                                        ; preds = %if.end41
  %arraydecay44 = getelementptr inbounds [3 x double], [3 x double]* %P, i64 0, i64 0, !dbg !2231
  %arraydecay45 = getelementptr inbounds [3 x double], [3 x double]* %P1, i64 0, i64 0, !dbg !2233
  %arraydecay46 = getelementptr inbounds [3 x double], [3 x double]* %P2, i64 0, i64 0, !dbg !2234
  call void @_ZN3pov5VHalfEPdPKdS2_(double* %arraydecay44, double* %arraydecay45, double* %arraydecay46), !dbg !2235
  %arraydecay47 = getelementptr inbounds [3 x double], [3 x double]* %P, i64 0, i64 0, !dbg !2236
  %38 = load %"struct.pov::Fog_Struct"*, %"struct.pov::Fog_Struct"** %Fog.addr, align 8, !dbg !2237
  %Turb48 = getelementptr inbounds %"struct.pov::Fog_Struct", %"struct.pov::Fog_Struct"* %38, i32 0, i32 6, !dbg !2238
  %39 = load %"struct.pov::Turb_Struct"*, %"struct.pov::Turb_Struct"** %Turb48, align 8, !dbg !2238
  %Turbulence = getelementptr inbounds %"struct.pov::Turb_Struct", %"struct.pov::Turb_Struct"* %39, i32 0, i32 3, !dbg !2239
  %arraydecay49 = getelementptr inbounds [3 x double], [3 x double]* %Turbulence, i64 0, i64 0, !dbg !2237
  call void @_ZN3pov11VEvaluateEqEPdPKd(double* %arraydecay47, double* %arraydecay49), !dbg !2240
  %40 = load double, double* %Width.addr, align 8, !dbg !2241
  %fneg = fneg double %40, !dbg !2242
  %41 = load %"struct.pov::Fog_Struct"*, %"struct.pov::Fog_Struct"** %Fog.addr, align 8, !dbg !2243
  %Distance = getelementptr inbounds %"struct.pov::Fog_Struct", %"struct.pov::Fog_Struct"* %41, i32 0, i32 1, !dbg !2244
  %42 = load double, double* %Distance, align 8, !dbg !2244
  %div50 = fdiv double %fneg, %42, !dbg !2245
  %call51 = call double @exp(double %div50) #6, !dbg !2246
  store double %call51, double* %k, align 8, !dbg !2247
  %43 = load double, double* %k, align 8, !dbg !2248
  store double 1.000000e+00, double* %ref.tmp, align 8, !dbg !2249
  %arraydecay53 = getelementptr inbounds [3 x double], [3 x double]* %P, i64 0, i64 0, !dbg !2250
  %44 = load %"struct.pov::Fog_Struct"*, %"struct.pov::Fog_Struct"** %Fog.addr, align 8, !dbg !2251
  %Turb54 = getelementptr inbounds %"struct.pov::Fog_Struct", %"struct.pov::Fog_Struct"* %44, i32 0, i32 6, !dbg !2252
  %45 = load %"struct.pov::Turb_Struct"*, %"struct.pov::Turb_Struct"** %Turb54, align 8, !dbg !2252
  %call55 = call double @_ZN3pov10TurbulenceEPdPNS_11Turb_StructEPNS_14Pattern_StructE(double* %arraydecay53, %"struct.pov::Turb_Struct"* %45, %"struct.pov::Pattern_Struct"* null), !dbg !2253
  %46 = load %"struct.pov::Fog_Struct"*, %"struct.pov::Fog_Struct"** %Fog.addr, align 8, !dbg !2254
  %Turb_Depth = getelementptr inbounds %"struct.pov::Fog_Struct", %"struct.pov::Fog_Struct"* %46, i32 0, i32 7, !dbg !2255
  %47 = load float, float* %Turb_Depth, align 8, !dbg !2255
  %conv = fpext float %47 to double, !dbg !2254
  %mul = fmul double %call55, %conv, !dbg !2256
  store double %mul, double* %ref.tmp52, align 8, !dbg !2253
  %call56 = call dereferenceable(8) double* @_ZSt3minIdERKT_S2_S2_(double* dereferenceable(8) %ref.tmp, double* dereferenceable(8) %ref.tmp52), !dbg !2257
  %48 = load double, double* %call56, align 8, !dbg !2257
  %mul57 = fmul double %43, %48, !dbg !2258
  %sub58 = fsub double 1.000000e+00, %mul57, !dbg !2259
  %49 = load double, double* %Width.addr, align 8, !dbg !2260
  %mul59 = fmul double %49, %sub58, !dbg !2260
  store double %mul59, double* %Width.addr, align 8, !dbg !2260
  br label %if.end60, !dbg !2261

if.end60:                                         ; preds = %if.then43, %if.end41
  %50 = load float*, float** %Colour.addr, align 8, !dbg !2262
  %51 = load %"struct.pov::Fog_Struct"*, %"struct.pov::Fog_Struct"** %Fog.addr, align 8, !dbg !2263
  %Colour61 = getelementptr inbounds %"struct.pov::Fog_Struct", %"struct.pov::Fog_Struct"* %51, i32 0, i32 4, !dbg !2264
  %arraydecay62 = getelementptr inbounds [5 x float], [5 x float]* %Colour61, i64 0, i64 0, !dbg !2263
  call void @_ZN3pov13Assign_ColourEPfS0_(float* %50, float* %arraydecay62), !dbg !2265
  %52 = load double, double* %Width.addr, align 8, !dbg !2266
  %fneg63 = fneg double %52, !dbg !2267
  %53 = load double, double* %fog_density, align 8, !dbg !2268
  %mul64 = fmul double %fneg63, %53, !dbg !2269
  %54 = load %"struct.pov::Fog_Struct"*, %"struct.pov::Fog_Struct"** %Fog.addr, align 8, !dbg !2270
  %Distance65 = getelementptr inbounds %"struct.pov::Fog_Struct", %"struct.pov::Fog_Struct"* %54, i32 0, i32 1, !dbg !2271
  %55 = load double, double* %Distance65, align 8, !dbg !2271
  %div66 = fdiv double %mul64, %55, !dbg !2272
  %call67 = call double @exp(double %div66) #6, !dbg !2273
  ret double %call67, !dbg !2274
}

; Function Attrs: noinline uwtable
define internal double @_ZN3povL12constant_fogEPNS_10Ray_StructEddPNS_10Fog_StructEPf(%"struct.pov::Ray_Struct"* %Ray, double %Depth, double %Width, %"struct.pov::Fog_Struct"* %Fog, float* %Colour) #1 !dbg !2275 {
entry:
  %Ray.addr = alloca %"struct.pov::Ray_Struct"*, align 8
  %Depth.addr = alloca double, align 8
  %Width.addr = alloca double, align 8
  %Fog.addr = alloca %"struct.pov::Fog_Struct"*, align 8
  %Colour.addr = alloca float*, align 8
  %k = alloca double, align 8
  %P = alloca [3 x double], align 16
  %ref.tmp = alloca double, align 8
  %ref.tmp7 = alloca double, align 8
  store %"struct.pov::Ray_Struct"* %Ray, %"struct.pov::Ray_Struct"** %Ray.addr, align 8
  call void @llvm.dbg.declare(metadata %"struct.pov::Ray_Struct"** %Ray.addr, metadata !2276, metadata !DIExpression()), !dbg !2277
  store double %Depth, double* %Depth.addr, align 8
  call void @llvm.dbg.declare(metadata double* %Depth.addr, metadata !2278, metadata !DIExpression()), !dbg !2279
  store double %Width, double* %Width.addr, align 8
  call void @llvm.dbg.declare(metadata double* %Width.addr, metadata !2280, metadata !DIExpression()), !dbg !2281
  store %"struct.pov::Fog_Struct"* %Fog, %"struct.pov::Fog_Struct"** %Fog.addr, align 8
  call void @llvm.dbg.declare(metadata %"struct.pov::Fog_Struct"** %Fog.addr, metadata !2282, metadata !DIExpression()), !dbg !2283
  store float* %Colour, float** %Colour.addr, align 8
  call void @llvm.dbg.declare(metadata float** %Colour.addr, metadata !2284, metadata !DIExpression()), !dbg !2285
  call void @llvm.dbg.declare(metadata double* %k, metadata !2286, metadata !DIExpression()), !dbg !2287
  call void @llvm.dbg.declare(metadata [3 x double]* %P, metadata !2288, metadata !DIExpression()), !dbg !2289
  %0 = load %"struct.pov::Fog_Struct"*, %"struct.pov::Fog_Struct"** %Fog.addr, align 8, !dbg !2290
  %Turb = getelementptr inbounds %"struct.pov::Fog_Struct", %"struct.pov::Fog_Struct"* %0, i32 0, i32 6, !dbg !2292
  %1 = load %"struct.pov::Turb_Struct"*, %"struct.pov::Turb_Struct"** %Turb, align 8, !dbg !2292
  %cmp = icmp ne %"struct.pov::Turb_Struct"* %1, null, !dbg !2293
  br i1 %cmp, label %if.then, label %if.end, !dbg !2294

if.then:                                          ; preds = %entry
  %2 = load double, double* %Width.addr, align 8, !dbg !2295
  %div = fdiv double %2, 2.000000e+00, !dbg !2297
  %3 = load double, double* %Depth.addr, align 8, !dbg !2298
  %add = fadd double %3, %div, !dbg !2298
  store double %add, double* %Depth.addr, align 8, !dbg !2298
  %arraydecay = getelementptr inbounds [3 x double], [3 x double]* %P, i64 0, i64 0, !dbg !2299
  %4 = load %"struct.pov::Ray_Struct"*, %"struct.pov::Ray_Struct"** %Ray.addr, align 8, !dbg !2300
  %Initial = getelementptr inbounds %"struct.pov::Ray_Struct", %"struct.pov::Ray_Struct"* %4, i32 0, i32 0, !dbg !2301
  %arraydecay1 = getelementptr inbounds [3 x double], [3 x double]* %Initial, i64 0, i64 0, !dbg !2300
  %5 = load double, double* %Depth.addr, align 8, !dbg !2302
  %6 = load %"struct.pov::Ray_Struct"*, %"struct.pov::Ray_Struct"** %Ray.addr, align 8, !dbg !2303
  %Direction = getelementptr inbounds %"struct.pov::Ray_Struct", %"struct.pov::Ray_Struct"* %6, i32 0, i32 1, !dbg !2304
  %arraydecay2 = getelementptr inbounds [3 x double], [3 x double]* %Direction, i64 0, i64 0, !dbg !2303
  call void @_ZN3pov12VEvaluateRayEPdPKddS2_(double* %arraydecay, double* %arraydecay1, double %5, double* %arraydecay2), !dbg !2305
  %arraydecay3 = getelementptr inbounds [3 x double], [3 x double]* %P, i64 0, i64 0, !dbg !2306
  %7 = load %"struct.pov::Fog_Struct"*, %"struct.pov::Fog_Struct"** %Fog.addr, align 8, !dbg !2307
  %Turb4 = getelementptr inbounds %"struct.pov::Fog_Struct", %"struct.pov::Fog_Struct"* %7, i32 0, i32 6, !dbg !2308
  %8 = load %"struct.pov::Turb_Struct"*, %"struct.pov::Turb_Struct"** %Turb4, align 8, !dbg !2308
  %Turbulence = getelementptr inbounds %"struct.pov::Turb_Struct", %"struct.pov::Turb_Struct"* %8, i32 0, i32 3, !dbg !2309
  %arraydecay5 = getelementptr inbounds [3 x double], [3 x double]* %Turbulence, i64 0, i64 0, !dbg !2307
  call void @_ZN3pov11VEvaluateEqEPdPKd(double* %arraydecay3, double* %arraydecay5), !dbg !2310
  %9 = load double, double* %Width.addr, align 8, !dbg !2311
  %fneg = fneg double %9, !dbg !2312
  %10 = load %"struct.pov::Fog_Struct"*, %"struct.pov::Fog_Struct"** %Fog.addr, align 8, !dbg !2313
  %Distance = getelementptr inbounds %"struct.pov::Fog_Struct", %"struct.pov::Fog_Struct"* %10, i32 0, i32 1, !dbg !2314
  %11 = load double, double* %Distance, align 8, !dbg !2314
  %div6 = fdiv double %fneg, %11, !dbg !2315
  %call = call double @exp(double %div6) #6, !dbg !2316
  store double %call, double* %k, align 8, !dbg !2317
  %12 = load double, double* %k, align 8, !dbg !2318
  store double 1.000000e+00, double* %ref.tmp, align 8, !dbg !2319
  %arraydecay8 = getelementptr inbounds [3 x double], [3 x double]* %P, i64 0, i64 0, !dbg !2320
  %13 = load %"struct.pov::Fog_Struct"*, %"struct.pov::Fog_Struct"** %Fog.addr, align 8, !dbg !2321
  %Turb9 = getelementptr inbounds %"struct.pov::Fog_Struct", %"struct.pov::Fog_Struct"* %13, i32 0, i32 6, !dbg !2322
  %14 = load %"struct.pov::Turb_Struct"*, %"struct.pov::Turb_Struct"** %Turb9, align 8, !dbg !2322
  %call10 = call double @_ZN3pov10TurbulenceEPdPNS_11Turb_StructEPNS_14Pattern_StructE(double* %arraydecay8, %"struct.pov::Turb_Struct"* %14, %"struct.pov::Pattern_Struct"* null), !dbg !2323
  %15 = load %"struct.pov::Fog_Struct"*, %"struct.pov::Fog_Struct"** %Fog.addr, align 8, !dbg !2324
  %Turb_Depth = getelementptr inbounds %"struct.pov::Fog_Struct", %"struct.pov::Fog_Struct"* %15, i32 0, i32 7, !dbg !2325
  %16 = load float, float* %Turb_Depth, align 8, !dbg !2325
  %conv = fpext float %16 to double, !dbg !2324
  %mul = fmul double %call10, %conv, !dbg !2326
  store double %mul, double* %ref.tmp7, align 8, !dbg !2323
  %call11 = call dereferenceable(8) double* @_ZSt3minIdERKT_S2_S2_(double* dereferenceable(8) %ref.tmp, double* dereferenceable(8) %ref.tmp7), !dbg !2327
  %17 = load double, double* %call11, align 8, !dbg !2327
  %mul12 = fmul double %12, %17, !dbg !2328
  %sub = fsub double 1.000000e+00, %mul12, !dbg !2329
  %18 = load double, double* %Width.addr, align 8, !dbg !2330
  %mul13 = fmul double %18, %sub, !dbg !2330
  store double %mul13, double* %Width.addr, align 8, !dbg !2330
  br label %if.end, !dbg !2331

if.end:                                           ; preds = %if.then, %entry
  %19 = load float*, float** %Colour.addr, align 8, !dbg !2332
  %20 = load %"struct.pov::Fog_Struct"*, %"struct.pov::Fog_Struct"** %Fog.addr, align 8, !dbg !2333
  %Colour14 = getelementptr inbounds %"struct.pov::Fog_Struct", %"struct.pov::Fog_Struct"* %20, i32 0, i32 4, !dbg !2334
  %arraydecay15 = getelementptr inbounds [5 x float], [5 x float]* %Colour14, i64 0, i64 0, !dbg !2333
  call void @_ZN3pov13Assign_ColourEPfS0_(float* %19, float* %arraydecay15), !dbg !2335
  %21 = load double, double* %Width.addr, align 8, !dbg !2336
  %fneg16 = fneg double %21, !dbg !2337
  %22 = load %"struct.pov::Fog_Struct"*, %"struct.pov::Fog_Struct"** %Fog.addr, align 8, !dbg !2338
  %Distance17 = getelementptr inbounds %"struct.pov::Fog_Struct", %"struct.pov::Fog_Struct"* %22, i32 0, i32 1, !dbg !2339
  %23 = load double, double* %Distance17, align 8, !dbg !2339
  %div18 = fdiv double %fneg16, %23, !dbg !2340
  %call19 = call double @exp(double %div18) #6, !dbg !2341
  ret double %call19, !dbg !2342
}

; Function Attrs: noinline nounwind uwtable
define linkonce_odr dso_local void @_ZN3pov15CRGBAddScaledEqEPffPKf(float* %v, float %k, float* %v2) #0 comdat !dbg !2343 {
entry:
  %v.addr = alloca float*, align 8
  %k.addr = alloca float, align 4
  %v2.addr = alloca float*, align 8
  store float* %v, float** %v.addr, align 8
  call void @llvm.dbg.declare(metadata float** %v.addr, metadata !2348, metadata !DIExpression()), !dbg !2349
  store float %k, float* %k.addr, align 4
  call void @llvm.dbg.declare(metadata float* %k.addr, metadata !2350, metadata !DIExpression()), !dbg !2351
  store float* %v2, float** %v2.addr, align 8
  call void @llvm.dbg.declare(metadata float** %v2.addr, metadata !2352, metadata !DIExpression()), !dbg !2353
  %0 = load float, float* %k.addr, align 4, !dbg !2354
  %1 = load float*, float** %v2.addr, align 8, !dbg !2355
  %arrayidx = getelementptr inbounds float, float* %1, i64 0, !dbg !2355
  %2 = load float, float* %arrayidx, align 4, !dbg !2355
  %mul = fmul float %0, %2, !dbg !2356
  %3 = load float*, float** %v.addr, align 8, !dbg !2357
  %arrayidx1 = getelementptr inbounds float, float* %3, i64 0, !dbg !2357
  %4 = load float, float* %arrayidx1, align 4, !dbg !2358
  %add = fadd float %4, %mul, !dbg !2358
  store float %add, float* %arrayidx1, align 4, !dbg !2358
  %5 = load float, float* %k.addr, align 4, !dbg !2359
  %6 = load float*, float** %v2.addr, align 8, !dbg !2360
  %arrayidx2 = getelementptr inbounds float, float* %6, i64 1, !dbg !2360
  %7 = load float, float* %arrayidx2, align 4, !dbg !2360
  %mul3 = fmul float %5, %7, !dbg !2361
  %8 = load float*, float** %v.addr, align 8, !dbg !2362
  %arrayidx4 = getelementptr inbounds float, float* %8, i64 1, !dbg !2362
  %9 = load float, float* %arrayidx4, align 4, !dbg !2363
  %add5 = fadd float %9, %mul3, !dbg !2363
  store float %add5, float* %arrayidx4, align 4, !dbg !2363
  %10 = load float, float* %k.addr, align 4, !dbg !2364
  %11 = load float*, float** %v2.addr, align 8, !dbg !2365
  %arrayidx6 = getelementptr inbounds float, float* %11, i64 2, !dbg !2365
  %12 = load float, float* %arrayidx6, align 4, !dbg !2365
  %mul7 = fmul float %10, %12, !dbg !2366
  %13 = load float*, float** %v.addr, align 8, !dbg !2367
  %arrayidx8 = getelementptr inbounds float, float* %13, i64 2, !dbg !2367
  %14 = load float, float* %arrayidx8, align 4, !dbg !2368
  %add9 = fadd float %14, %mul7, !dbg !2368
  store float %add9, float* %arrayidx8, align 4, !dbg !2368
  ret void, !dbg !2369
}

; Function Attrs: noinline nounwind uwtable
define linkonce_odr dso_local void @_ZN3pov12VEvaluateRayEPdPKddS2_(double* %IPoint, double* %Initial, double %depth, double* %Direction) #0 comdat !dbg !2370 {
entry:
  %IPoint.addr = alloca double*, align 8
  %Initial.addr = alloca double*, align 8
  %depth.addr = alloca double, align 8
  %Direction.addr = alloca double*, align 8
  store double* %IPoint, double** %IPoint.addr, align 8
  call void @llvm.dbg.declare(metadata double** %IPoint.addr, metadata !2375, metadata !DIExpression()), !dbg !2376
  store double* %Initial, double** %Initial.addr, align 8
  call void @llvm.dbg.declare(metadata double** %Initial.addr, metadata !2377, metadata !DIExpression()), !dbg !2378
  store double %depth, double* %depth.addr, align 8
  call void @llvm.dbg.declare(metadata double* %depth.addr, metadata !2379, metadata !DIExpression()), !dbg !2380
  store double* %Direction, double** %Direction.addr, align 8
  call void @llvm.dbg.declare(metadata double** %Direction.addr, metadata !2381, metadata !DIExpression()), !dbg !2382
  %0 = load double*, double** %Initial.addr, align 8, !dbg !2383
  %arrayidx = getelementptr inbounds double, double* %0, i64 0, !dbg !2383
  %1 = load double, double* %arrayidx, align 8, !dbg !2383
  %2 = load double, double* %depth.addr, align 8, !dbg !2384
  %3 = load double*, double** %Direction.addr, align 8, !dbg !2385
  %arrayidx1 = getelementptr inbounds double, double* %3, i64 0, !dbg !2385
  %4 = load double, double* %arrayidx1, align 8, !dbg !2385
  %mul = fmul double %2, %4, !dbg !2386
  %add = fadd double %1, %mul, !dbg !2387
  %5 = load double*, double** %IPoint.addr, align 8, !dbg !2388
  %arrayidx2 = getelementptr inbounds double, double* %5, i64 0, !dbg !2388
  store double %add, double* %arrayidx2, align 8, !dbg !2389
  %6 = load double*, double** %Initial.addr, align 8, !dbg !2390
  %arrayidx3 = getelementptr inbounds double, double* %6, i64 1, !dbg !2390
  %7 = load double, double* %arrayidx3, align 8, !dbg !2390
  %8 = load double, double* %depth.addr, align 8, !dbg !2391
  %9 = load double*, double** %Direction.addr, align 8, !dbg !2392
  %arrayidx4 = getelementptr inbounds double, double* %9, i64 1, !dbg !2392
  %10 = load double, double* %arrayidx4, align 8, !dbg !2392
  %mul5 = fmul double %8, %10, !dbg !2393
  %add6 = fadd double %7, %mul5, !dbg !2394
  %11 = load double*, double** %IPoint.addr, align 8, !dbg !2395
  %arrayidx7 = getelementptr inbounds double, double* %11, i64 1, !dbg !2395
  store double %add6, double* %arrayidx7, align 8, !dbg !2396
  %12 = load double*, double** %Initial.addr, align 8, !dbg !2397
  %arrayidx8 = getelementptr inbounds double, double* %12, i64 2, !dbg !2397
  %13 = load double, double* %arrayidx8, align 8, !dbg !2397
  %14 = load double, double* %depth.addr, align 8, !dbg !2398
  %15 = load double*, double** %Direction.addr, align 8, !dbg !2399
  %arrayidx9 = getelementptr inbounds double, double* %15, i64 2, !dbg !2399
  %16 = load double, double* %arrayidx9, align 8, !dbg !2399
  %mul10 = fmul double %14, %16, !dbg !2400
  %add11 = fadd double %13, %mul10, !dbg !2401
  %17 = load double*, double** %IPoint.addr, align 8, !dbg !2402
  %arrayidx12 = getelementptr inbounds double, double* %17, i64 2, !dbg !2402
  store double %add11, double* %arrayidx12, align 8, !dbg !2403
  ret void, !dbg !2404
}

; Function Attrs: noinline nounwind uwtable
define linkonce_odr dso_local void @_ZN3pov9VLinComb2EPddPKddS2_(double* %v, double %k1, double* %v1, double %k2, double* %v2) #0 comdat !dbg !2405 {
entry:
  %v.addr = alloca double*, align 8
  %k1.addr = alloca double, align 8
  %v1.addr = alloca double*, align 8
  %k2.addr = alloca double, align 8
  %v2.addr = alloca double*, align 8
  store double* %v, double** %v.addr, align 8
  call void @llvm.dbg.declare(metadata double** %v.addr, metadata !2408, metadata !DIExpression()), !dbg !2409
  store double %k1, double* %k1.addr, align 8
  call void @llvm.dbg.declare(metadata double* %k1.addr, metadata !2410, metadata !DIExpression()), !dbg !2411
  store double* %v1, double** %v1.addr, align 8
  call void @llvm.dbg.declare(metadata double** %v1.addr, metadata !2412, metadata !DIExpression()), !dbg !2413
  store double %k2, double* %k2.addr, align 8
  call void @llvm.dbg.declare(metadata double* %k2.addr, metadata !2414, metadata !DIExpression()), !dbg !2415
  store double* %v2, double** %v2.addr, align 8
  call void @llvm.dbg.declare(metadata double** %v2.addr, metadata !2416, metadata !DIExpression()), !dbg !2417
  %0 = load double, double* %k1.addr, align 8, !dbg !2418
  %1 = load double*, double** %v1.addr, align 8, !dbg !2419
  %arrayidx = getelementptr inbounds double, double* %1, i64 0, !dbg !2419
  %2 = load double, double* %arrayidx, align 8, !dbg !2419
  %mul = fmul double %0, %2, !dbg !2420
  %3 = load double, double* %k2.addr, align 8, !dbg !2421
  %4 = load double*, double** %v2.addr, align 8, !dbg !2422
  %arrayidx1 = getelementptr inbounds double, double* %4, i64 0, !dbg !2422
  %5 = load double, double* %arrayidx1, align 8, !dbg !2422
  %mul2 = fmul double %3, %5, !dbg !2423
  %add = fadd double %mul, %mul2, !dbg !2424
  %6 = load double*, double** %v.addr, align 8, !dbg !2425
  %arrayidx3 = getelementptr inbounds double, double* %6, i64 0, !dbg !2425
  store double %add, double* %arrayidx3, align 8, !dbg !2426
  %7 = load double, double* %k1.addr, align 8, !dbg !2427
  %8 = load double*, double** %v1.addr, align 8, !dbg !2428
  %arrayidx4 = getelementptr inbounds double, double* %8, i64 1, !dbg !2428
  %9 = load double, double* %arrayidx4, align 8, !dbg !2428
  %mul5 = fmul double %7, %9, !dbg !2429
  %10 = load double, double* %k2.addr, align 8, !dbg !2430
  %11 = load double*, double** %v2.addr, align 8, !dbg !2431
  %arrayidx6 = getelementptr inbounds double, double* %11, i64 1, !dbg !2431
  %12 = load double, double* %arrayidx6, align 8, !dbg !2431
  %mul7 = fmul double %10, %12, !dbg !2432
  %add8 = fadd double %mul5, %mul7, !dbg !2433
  %13 = load double*, double** %v.addr, align 8, !dbg !2434
  %arrayidx9 = getelementptr inbounds double, double* %13, i64 1, !dbg !2434
  store double %add8, double* %arrayidx9, align 8, !dbg !2435
  %14 = load double, double* %k1.addr, align 8, !dbg !2436
  %15 = load double*, double** %v1.addr, align 8, !dbg !2437
  %arrayidx10 = getelementptr inbounds double, double* %15, i64 2, !dbg !2437
  %16 = load double, double* %arrayidx10, align 8, !dbg !2437
  %mul11 = fmul double %14, %16, !dbg !2438
  %17 = load double, double* %k2.addr, align 8, !dbg !2439
  %18 = load double*, double** %v2.addr, align 8, !dbg !2440
  %arrayidx12 = getelementptr inbounds double, double* %18, i64 2, !dbg !2440
  %19 = load double, double* %arrayidx12, align 8, !dbg !2440
  %mul13 = fmul double %17, %19, !dbg !2441
  %add14 = fadd double %mul11, %mul13, !dbg !2442
  %20 = load double*, double** %v.addr, align 8, !dbg !2443
  %arrayidx15 = getelementptr inbounds double, double* %20, i64 2, !dbg !2443
  store double %add14, double* %arrayidx15, align 8, !dbg !2444
  ret void, !dbg !2445
}

; Function Attrs: noinline nounwind uwtable
define linkonce_odr dso_local void @_ZN3pov4VDotERdPKdS2_(double* dereferenceable(8) %a, double* %b, double* %c) #0 comdat !dbg !2446 {
entry:
  %a.addr = alloca double*, align 8
  %b.addr = alloca double*, align 8
  %c.addr = alloca double*, align 8
  store double* %a, double** %a.addr, align 8
  call void @llvm.dbg.declare(metadata double** %a.addr, metadata !2450, metadata !DIExpression()), !dbg !2451
  store double* %b, double** %b.addr, align 8
  call void @llvm.dbg.declare(metadata double** %b.addr, metadata !2452, metadata !DIExpression()), !dbg !2453
  store double* %c, double** %c.addr, align 8
  call void @llvm.dbg.declare(metadata double** %c.addr, metadata !2454, metadata !DIExpression()), !dbg !2455
  %0 = load double*, double** %b.addr, align 8, !dbg !2456
  %arrayidx = getelementptr inbounds double, double* %0, i64 0, !dbg !2456
  %1 = load double, double* %arrayidx, align 8, !dbg !2456
  %2 = load double*, double** %c.addr, align 8, !dbg !2457
  %arrayidx1 = getelementptr inbounds double, double* %2, i64 0, !dbg !2457
  %3 = load double, double* %arrayidx1, align 8, !dbg !2457
  %mul = fmul double %1, %3, !dbg !2458
  %4 = load double*, double** %b.addr, align 8, !dbg !2459
  %arrayidx2 = getelementptr inbounds double, double* %4, i64 1, !dbg !2459
  %5 = load double, double* %arrayidx2, align 8, !dbg !2459
  %6 = load double*, double** %c.addr, align 8, !dbg !2460
  %arrayidx3 = getelementptr inbounds double, double* %6, i64 1, !dbg !2460
  %7 = load double, double* %arrayidx3, align 8, !dbg !2460
  %mul4 = fmul double %5, %7, !dbg !2461
  %add = fadd double %mul, %mul4, !dbg !2462
  %8 = load double*, double** %b.addr, align 8, !dbg !2463
  %arrayidx5 = getelementptr inbounds double, double* %8, i64 2, !dbg !2463
  %9 = load double, double* %arrayidx5, align 8, !dbg !2463
  %10 = load double*, double** %c.addr, align 8, !dbg !2464
  %arrayidx6 = getelementptr inbounds double, double* %10, i64 2, !dbg !2464
  %11 = load double, double* %arrayidx6, align 8, !dbg !2464
  %mul7 = fmul double %9, %11, !dbg !2465
  %add8 = fadd double %add, %mul7, !dbg !2466
  %12 = load double*, double** %a.addr, align 8, !dbg !2467
  store double %add8, double* %12, align 8, !dbg !2468
  ret void, !dbg !2469
}

; Function Attrs: nounwind
declare dso_local double @atan(double) #5

; Function Attrs: noinline nounwind uwtable
define linkonce_odr dso_local double @_ZN3pov3SqrEd(double %a) #0 comdat !dbg !2470 {
entry:
  %a.addr = alloca double, align 8
  store double %a, double* %a.addr, align 8
  call void @llvm.dbg.declare(metadata double* %a.addr, metadata !2471, metadata !DIExpression()), !dbg !2472
  %0 = load double, double* %a.addr, align 8, !dbg !2473
  %1 = load double, double* %a.addr, align 8, !dbg !2474
  %mul = fmul double %0, %1, !dbg !2475
  ret double %mul, !dbg !2476
}

; Function Attrs: noinline nounwind uwtable
define linkonce_odr dso_local void @_ZN3pov5VHalfEPdPKdS2_(double* %a, double* %b, double* %c) #0 comdat !dbg !2477 {
entry:
  %a.addr = alloca double*, align 8
  %b.addr = alloca double*, align 8
  %c.addr = alloca double*, align 8
  store double* %a, double** %a.addr, align 8
  call void @llvm.dbg.declare(metadata double** %a.addr, metadata !2480, metadata !DIExpression()), !dbg !2481
  store double* %b, double** %b.addr, align 8
  call void @llvm.dbg.declare(metadata double** %b.addr, metadata !2482, metadata !DIExpression()), !dbg !2483
  store double* %c, double** %c.addr, align 8
  call void @llvm.dbg.declare(metadata double** %c.addr, metadata !2484, metadata !DIExpression()), !dbg !2485
  %0 = load double*, double** %b.addr, align 8, !dbg !2486
  %arrayidx = getelementptr inbounds double, double* %0, i64 0, !dbg !2486
  %1 = load double, double* %arrayidx, align 8, !dbg !2486
  %2 = load double*, double** %c.addr, align 8, !dbg !2487
  %arrayidx1 = getelementptr inbounds double, double* %2, i64 0, !dbg !2487
  %3 = load double, double* %arrayidx1, align 8, !dbg !2487
  %add = fadd double %1, %3, !dbg !2488
  %mul = fmul double 5.000000e-01, %add, !dbg !2489
  %4 = load double*, double** %a.addr, align 8, !dbg !2490
  %arrayidx2 = getelementptr inbounds double, double* %4, i64 0, !dbg !2490
  store double %mul, double* %arrayidx2, align 8, !dbg !2491
  %5 = load double*, double** %b.addr, align 8, !dbg !2492
  %arrayidx3 = getelementptr inbounds double, double* %5, i64 1, !dbg !2492
  %6 = load double, double* %arrayidx3, align 8, !dbg !2492
  %7 = load double*, double** %c.addr, align 8, !dbg !2493
  %arrayidx4 = getelementptr inbounds double, double* %7, i64 1, !dbg !2493
  %8 = load double, double* %arrayidx4, align 8, !dbg !2493
  %add5 = fadd double %6, %8, !dbg !2494
  %mul6 = fmul double 5.000000e-01, %add5, !dbg !2495
  %9 = load double*, double** %a.addr, align 8, !dbg !2496
  %arrayidx7 = getelementptr inbounds double, double* %9, i64 1, !dbg !2496
  store double %mul6, double* %arrayidx7, align 8, !dbg !2497
  %10 = load double*, double** %b.addr, align 8, !dbg !2498
  %arrayidx8 = getelementptr inbounds double, double* %10, i64 2, !dbg !2498
  %11 = load double, double* %arrayidx8, align 8, !dbg !2498
  %12 = load double*, double** %c.addr, align 8, !dbg !2499
  %arrayidx9 = getelementptr inbounds double, double* %12, i64 2, !dbg !2499
  %13 = load double, double* %arrayidx9, align 8, !dbg !2499
  %add10 = fadd double %11, %13, !dbg !2500
  %mul11 = fmul double 5.000000e-01, %add10, !dbg !2501
  %14 = load double*, double** %a.addr, align 8, !dbg !2502
  %arrayidx12 = getelementptr inbounds double, double* %14, i64 2, !dbg !2502
  store double %mul11, double* %arrayidx12, align 8, !dbg !2503
  ret void, !dbg !2504
}

; Function Attrs: noinline nounwind uwtable
define linkonce_odr dso_local void @_ZN3pov11VEvaluateEqEPdPKd(double* %a, double* %b) #0 comdat !dbg !2505 {
entry:
  %a.addr = alloca double*, align 8
  %b.addr = alloca double*, align 8
  store double* %a, double** %a.addr, align 8
  call void @llvm.dbg.declare(metadata double** %a.addr, metadata !2508, metadata !DIExpression()), !dbg !2509
  store double* %b, double** %b.addr, align 8
  call void @llvm.dbg.declare(metadata double** %b.addr, metadata !2510, metadata !DIExpression()), !dbg !2511
  %0 = load double*, double** %b.addr, align 8, !dbg !2512
  %arrayidx = getelementptr inbounds double, double* %0, i64 0, !dbg !2512
  %1 = load double, double* %arrayidx, align 8, !dbg !2512
  %2 = load double*, double** %a.addr, align 8, !dbg !2513
  %arrayidx1 = getelementptr inbounds double, double* %2, i64 0, !dbg !2513
  %3 = load double, double* %arrayidx1, align 8, !dbg !2514
  %mul = fmul double %3, %1, !dbg !2514
  store double %mul, double* %arrayidx1, align 8, !dbg !2514
  %4 = load double*, double** %b.addr, align 8, !dbg !2515
  %arrayidx2 = getelementptr inbounds double, double* %4, i64 1, !dbg !2515
  %5 = load double, double* %arrayidx2, align 8, !dbg !2515
  %6 = load double*, double** %a.addr, align 8, !dbg !2516
  %arrayidx3 = getelementptr inbounds double, double* %6, i64 1, !dbg !2516
  %7 = load double, double* %arrayidx3, align 8, !dbg !2517
  %mul4 = fmul double %7, %5, !dbg !2517
  store double %mul4, double* %arrayidx3, align 8, !dbg !2517
  %8 = load double*, double** %b.addr, align 8, !dbg !2518
  %arrayidx5 = getelementptr inbounds double, double* %8, i64 2, !dbg !2518
  %9 = load double, double* %arrayidx5, align 8, !dbg !2518
  %10 = load double*, double** %a.addr, align 8, !dbg !2519
  %arrayidx6 = getelementptr inbounds double, double* %10, i64 2, !dbg !2519
  %11 = load double, double* %arrayidx6, align 8, !dbg !2520
  %mul7 = fmul double %11, %9, !dbg !2520
  store double %mul7, double* %arrayidx6, align 8, !dbg !2520
  ret void, !dbg !2521
}

; Function Attrs: nounwind
declare dso_local double @exp(double) #5

; Function Attrs: noinline nounwind uwtable
define linkonce_odr dso_local dereferenceable(8) double* @_ZSt3minIdERKT_S2_S2_(double* dereferenceable(8) %__a, double* dereferenceable(8) %__b) #0 comdat !dbg !2522 {
entry:
  %retval = alloca double*, align 8
  %__a.addr = alloca double*, align 8
  %__b.addr = alloca double*, align 8
  store double* %__a, double** %__a.addr, align 8
  call void @llvm.dbg.declare(metadata double** %__a.addr, metadata !2529, metadata !DIExpression()), !dbg !2531
  store double* %__b, double** %__b.addr, align 8
  call void @llvm.dbg.declare(metadata double** %__b.addr, metadata !2532, metadata !DIExpression()), !dbg !2533
  %0 = load double*, double** %__b.addr, align 8, !dbg !2534
  %1 = load double, double* %0, align 8, !dbg !2534
  %2 = load double*, double** %__a.addr, align 8, !dbg !2536
  %3 = load double, double* %2, align 8, !dbg !2536
  %cmp = fcmp olt double %1, %3, !dbg !2537
  br i1 %cmp, label %if.then, label %if.end, !dbg !2538

if.then:                                          ; preds = %entry
  %4 = load double*, double** %__b.addr, align 8, !dbg !2539
  store double* %4, double** %retval, align 8, !dbg !2540
  br label %return, !dbg !2540

if.end:                                           ; preds = %entry
  %5 = load double*, double** %__a.addr, align 8, !dbg !2541
  store double* %5, double** %retval, align 8, !dbg !2542
  br label %return, !dbg !2542

return:                                           ; preds = %if.end, %if.then
  %6 = load double*, double** %retval, align 8, !dbg !2543
  ret double* %6, !dbg !2543
}

declare dso_local double @_ZN3pov10TurbulenceEPdPNS_11Turb_StructEPNS_14Pattern_StructE(double*, %"struct.pov::Turb_Struct"*, %"struct.pov::Pattern_Struct"*) #3

; Function Attrs: nounwind
declare dso_local double @sqrt(double) #5

; Function Attrs: nounwind
declare dso_local double @acos(double) #5

declare dso_local i32 @_ZN3pov8POV_RANDEv() #3

declare dso_local i32 @_ZN3pov15Compute_PigmentEPfPNS_14Pigment_StructEPdPNS_10istk_entryE(float*, %"struct.pov::Pigment_Struct"*, double*, %"struct.pov::istk_entry"*) #3

; Function Attrs: noinline nounwind uwtable
define linkonce_odr dso_local dereferenceable(8) double* @_ZSt3maxIdERKT_S2_S2_(double* dereferenceable(8) %__a, double* dereferenceable(8) %__b) #0 comdat !dbg !2544 {
entry:
  %retval = alloca double*, align 8
  %__a.addr = alloca double*, align 8
  %__b.addr = alloca double*, align 8
  store double* %__a, double** %__a.addr, align 8
  call void @llvm.dbg.declare(metadata double** %__a.addr, metadata !2545, metadata !DIExpression()), !dbg !2546
  store double* %__b, double** %__b.addr, align 8
  call void @llvm.dbg.declare(metadata double** %__b.addr, metadata !2547, metadata !DIExpression()), !dbg !2548
  %0 = load double*, double** %__a.addr, align 8, !dbg !2549
  %1 = load double, double* %0, align 8, !dbg !2549
  %2 = load double*, double** %__b.addr, align 8, !dbg !2551
  %3 = load double, double* %2, align 8, !dbg !2551
  %cmp = fcmp olt double %1, %3, !dbg !2552
  br i1 %cmp, label %if.then, label %if.end, !dbg !2553

if.then:                                          ; preds = %entry
  %4 = load double*, double** %__b.addr, align 8, !dbg !2554
  store double* %4, double** %retval, align 8, !dbg !2555
  br label %return, !dbg !2555

if.end:                                           ; preds = %entry
  %5 = load double*, double** %__a.addr, align 8, !dbg !2556
  store double* %5, double** %retval, align 8, !dbg !2557
  br label %return, !dbg !2557

return:                                           ; preds = %if.end, %if.then
  %6 = load double*, double** %retval, align 8, !dbg !2558
  ret double* %6, !dbg !2558
}

; Function Attrs: noinline nounwind uwtable
define linkonce_odr dso_local void @_ZN3pov11Make_ColourEPffff(float* %c, float %r, float %g, float %b) #0 comdat !dbg !2559 {
entry:
  %c.addr = alloca float*, align 8
  %r.addr = alloca float, align 4
  %g.addr = alloca float, align 4
  %b.addr = alloca float, align 4
  store float* %c, float** %c.addr, align 8
  call void @llvm.dbg.declare(metadata float** %c.addr, metadata !2562, metadata !DIExpression()), !dbg !2563
  store float %r, float* %r.addr, align 4
  call void @llvm.dbg.declare(metadata float* %r.addr, metadata !2564, metadata !DIExpression()), !dbg !2565
  store float %g, float* %g.addr, align 4
  call void @llvm.dbg.declare(metadata float* %g.addr, metadata !2566, metadata !DIExpression()), !dbg !2567
  store float %b, float* %b.addr, align 4
  call void @llvm.dbg.declare(metadata float* %b.addr, metadata !2568, metadata !DIExpression()), !dbg !2569
  %0 = load float, float* %r.addr, align 4, !dbg !2570
  %1 = load float*, float** %c.addr, align 8, !dbg !2571
  %arrayidx = getelementptr inbounds float, float* %1, i64 0, !dbg !2571
  store float %0, float* %arrayidx, align 4, !dbg !2572
  %2 = load float, float* %g.addr, align 4, !dbg !2573
  %3 = load float*, float** %c.addr, align 8, !dbg !2574
  %arrayidx1 = getelementptr inbounds float, float* %3, i64 1, !dbg !2574
  store float %2, float* %arrayidx1, align 4, !dbg !2575
  %4 = load float, float* %b.addr, align 4, !dbg !2576
  %5 = load float*, float** %c.addr, align 8, !dbg !2577
  %arrayidx2 = getelementptr inbounds float, float* %5, i64 2, !dbg !2577
  store float %4, float* %arrayidx2, align 4, !dbg !2578
  %6 = load float*, float** %c.addr, align 8, !dbg !2579
  %arrayidx3 = getelementptr inbounds float, float* %6, i64 3, !dbg !2579
  store float 0.000000e+00, float* %arrayidx3, align 4, !dbg !2580
  %7 = load float*, float** %c.addr, align 8, !dbg !2581
  %arrayidx4 = getelementptr inbounds float, float* %7, i64 4, !dbg !2581
  store float 0.000000e+00, float* %arrayidx4, align 4, !dbg !2582
  ret void, !dbg !2583
}

declare dso_local void @_ZN3pov14MInvTransPointEPdS0_PNS_16Transform_StructE(double*, double*, %"struct.pov::Transform_Struct"*) #3

; Function Attrs: noinline nounwind uwtable
define linkonce_odr dso_local void @_ZN3pov13Assign_VectorEPdS0_(double* %d, double* %s) #0 comdat !dbg !2584 {
entry:
  %d.addr = alloca double*, align 8
  %s.addr = alloca double*, align 8
  store double* %d, double** %d.addr, align 8
  call void @llvm.dbg.declare(metadata double** %d.addr, metadata !2587, metadata !DIExpression()), !dbg !2588
  store double* %s, double** %s.addr, align 8
  call void @llvm.dbg.declare(metadata double** %s.addr, metadata !2589, metadata !DIExpression()), !dbg !2590
  %0 = load double*, double** %s.addr, align 8, !dbg !2591
  %arrayidx = getelementptr inbounds double, double* %0, i64 0, !dbg !2591
  %1 = load double, double* %arrayidx, align 8, !dbg !2591
  %2 = load double*, double** %d.addr, align 8, !dbg !2592
  %arrayidx1 = getelementptr inbounds double, double* %2, i64 0, !dbg !2592
  store double %1, double* %arrayidx1, align 8, !dbg !2593
  %3 = load double*, double** %s.addr, align 8, !dbg !2594
  %arrayidx2 = getelementptr inbounds double, double* %3, i64 1, !dbg !2594
  %4 = load double, double* %arrayidx2, align 8, !dbg !2594
  %5 = load double*, double** %d.addr, align 8, !dbg !2595
  %arrayidx3 = getelementptr inbounds double, double* %5, i64 1, !dbg !2595
  store double %4, double* %arrayidx3, align 8, !dbg !2596
  %6 = load double*, double** %s.addr, align 8, !dbg !2597
  %arrayidx4 = getelementptr inbounds double, double* %6, i64 2, !dbg !2597
  %7 = load double, double* %arrayidx4, align 8, !dbg !2597
  %8 = load double*, double** %d.addr, align 8, !dbg !2598
  %arrayidx5 = getelementptr inbounds double, double* %8, i64 2, !dbg !2598
  store double %7, double* %arrayidx5, align 8, !dbg !2599
  ret void, !dbg !2600
}

; Function Attrs: noinline nounwind uwtable
define linkonce_odr dso_local float @_ZSt4fabsf(float %__x) #0 comdat !dbg !2601 {
entry:
  %__x.addr = alloca float, align 4
  store float %__x, float* %__x.addr, align 4
  call void @llvm.dbg.declare(metadata float* %__x.addr, metadata !2602, metadata !DIExpression()), !dbg !2603
  %0 = load float, float* %__x.addr, align 4, !dbg !2604
  %1 = call float @llvm.fabs.f32(float %0), !dbg !2605
  ret float %1, !dbg !2606
}

; Function Attrs: nounwind readnone speculatable willreturn
declare float @llvm.fabs.f32(float) #2

attributes #0 = { noinline nounwind uwtable "correctly-rounded-divide-sqrt-fp-math"="false" "disable-tail-calls"="false" "frame-pointer"="all" "less-precise-fpmad"="false" "min-legal-vector-width"="0" "no-infs-fp-math"="false" "no-jump-tables"="false" "no-nans-fp-math"="false" "no-signed-zeros-fp-math"="false" "no-trapping-math"="false" "stack-protector-buffer-size"="8" "target-cpu"="x86-64" "target-features"="+cx8,+fxsr,+mmx,+sse,+sse2,+x87" "unsafe-fp-math"="false" "use-soft-float"="false" }
attributes #1 = { noinline uwtable "correctly-rounded-divide-sqrt-fp-math"="false" "disable-tail-calls"="false" "frame-pointer"="all" "less-precise-fpmad"="false" "min-legal-vector-width"="0" "no-infs-fp-math"="false" "no-jump-tables"="false" "no-nans-fp-math"="false" "no-signed-zeros-fp-math"="false" "no-trapping-math"="false" "stack-protector-buffer-size"="8" "target-cpu"="x86-64" "target-features"="+cx8,+fxsr,+mmx,+sse,+sse2,+x87" "unsafe-fp-math"="false" "use-soft-float"="false" }
attributes #2 = { nounwind readnone speculatable willreturn }
attributes #3 = { "correctly-rounded-divide-sqrt-fp-math"="false" "disable-tail-calls"="false" "frame-pointer"="all" "less-precise-fpmad"="false" "no-infs-fp-math"="false" "no-nans-fp-math"="false" "no-signed-zeros-fp-math"="false" "no-trapping-math"="false" "stack-protector-buffer-size"="8" "target-cpu"="x86-64" "target-features"="+cx8,+fxsr,+mmx,+sse,+sse2,+x87" "unsafe-fp-math"="false" "use-soft-float"="false" }
attributes #4 = { argmemonly nounwind willreturn }
attributes #5 = { nounwind "correctly-rounded-divide-sqrt-fp-math"="false" "disable-tail-calls"="false" "frame-pointer"="all" "less-precise-fpmad"="false" "no-infs-fp-math"="false" "no-nans-fp-math"="false" "no-signed-zeros-fp-math"="false" "no-trapping-math"="false" "stack-protector-buffer-size"="8" "target-cpu"="x86-64" "target-features"="+cx8,+fxsr,+mmx,+sse,+sse2,+x87" "unsafe-fp-math"="false" "use-soft-float"="false" }
attributes #6 = { nounwind }

!llvm.dbg.cu = !{!0}
!llvm.module.flags = !{!904, !905, !906}
!llvm.ident = !{!907}

!0 = distinct !DICompileUnit(language: DW_LANG_C_plus_plus_14, file: !1, producer: "clang version 10.0.1 (https://github.com/svkeerthy/IR2Vec-LoopOptimizationFramework.git 561ac470e63b728263a0ac06ef987886ac648486)", isOptimized: false, runtimeVersion: 0, emissionKind: FullDebug, enums: !2, retainedTypes: !19, imports: !98, splitDebugInlining: false, nameTableKind: None)
!1 = !DIFile(filename: "atmosph.cpp", directory: "/home/venkat/IF-DV/spec_build_release/CPU_2017/benchspec/CPU/511.povray_r/build/build_base_ld-loop-ext-m64.0000")
!2 = !{!3, !13}
!3 = !DICompositeType(tag: DW_TAG_enumeration_type, scope: !5, file: !4, line: 715, baseType: !6, size: 32, elements: !7)
!4 = !DIFile(filename: "./frame.h", directory: "/home/venkat/IF-DV/spec_build_release/CPU_2017/benchspec/CPU/511.povray_r/build/build_base_ld-loop-ext-m64.0000")
!5 = !DINamespace(name: "pov", scope: null)
!6 = !DIBasicType(name: "unsigned int", size: 32, encoding: DW_ATE_unsigned)
!7 = !{!8, !9, !10, !11, !12}
!8 = !DIEnumerator(name: "pRED", value: 0, isUnsigned: true)
!9 = !DIEnumerator(name: "pGREEN", value: 1, isUnsigned: true)
!10 = !DIEnumerator(name: "pBLUE", value: 2, isUnsigned: true)
!11 = !DIEnumerator(name: "pFILTER", value: 3, isUnsigned: true)
!12 = !DIEnumerator(name: "pTRANSM", value: 4, isUnsigned: true)
!13 = !DICompositeType(tag: DW_TAG_enumeration_type, scope: !5, file: !4, line: 706, baseType: !6, size: 32, elements: !14)
!14 = !{!15, !16, !17, !18}
!15 = !DIEnumerator(name: "X", value: 0, isUnsigned: true)
!16 = !DIEnumerator(name: "Y", value: 1, isUnsigned: true)
!17 = !DIEnumerator(name: "Z", value: 2, isUnsigned: true)
!18 = !DIEnumerator(name: "T", value: 3, isUnsigned: true)
!19 = !{!20, !43, !50, !60, !61, !80, !86, !28}
!20 = !DIDerivedType(tag: DW_TAG_pointer_type, baseType: !21, size: 64)
!21 = !DIDerivedType(tag: DW_TAG_typedef, name: "FOG", scope: !5, file: !22, line: 52, baseType: !23)
!22 = !DIFile(filename: "./atmosph.h", directory: "/home/venkat/IF-DV/spec_build_release/CPU_2017/benchspec/CPU/511.povray_r/build/build_base_ld-loop-ext-m64.0000")
!23 = distinct !DICompositeType(tag: DW_TAG_structure_type, name: "Fog_Struct", scope: !5, file: !22, line: 56, size: 832, flags: DIFlagTypePassByValue, elements: !24, identifier: "_ZTSN3pov10Fog_StructE")
!24 = !{!25, !27, !29, !30, !31, !37, !42, !58, !59}
!25 = !DIDerivedType(tag: DW_TAG_member, name: "Type", scope: !23, file: !22, line: 58, baseType: !26, size: 32)
!26 = !DIBasicType(name: "int", size: 32, encoding: DW_ATE_signed)
!27 = !DIDerivedType(tag: DW_TAG_member, name: "Distance", scope: !23, file: !22, line: 59, baseType: !28, size: 64, offset: 64)
!28 = !DIBasicType(name: "double", size: 64, encoding: DW_ATE_float)
!29 = !DIDerivedType(tag: DW_TAG_member, name: "Alt", scope: !23, file: !22, line: 60, baseType: !28, size: 64, offset: 128)
!30 = !DIDerivedType(tag: DW_TAG_member, name: "Offset", scope: !23, file: !22, line: 61, baseType: !28, size: 64, offset: 192)
!31 = !DIDerivedType(tag: DW_TAG_member, name: "Colour", scope: !23, file: !22, line: 62, baseType: !32, size: 160, offset: 256)
!32 = !DIDerivedType(tag: DW_TAG_typedef, name: "COLOUR", scope: !5, file: !4, line: 695, baseType: !33)
!33 = !DICompositeType(tag: DW_TAG_array_type, baseType: !34, size: 160, elements: !35)
!34 = !DIBasicType(name: "float", size: 32, encoding: DW_ATE_float)
!35 = !{!36}
!36 = !DISubrange(count: 5)
!37 = !DIDerivedType(tag: DW_TAG_member, name: "Up", scope: !23, file: !22, line: 63, baseType: !38, size: 192, offset: 448)
!38 = !DIDerivedType(tag: DW_TAG_typedef, name: "VECTOR", scope: !5, file: !4, line: 691, baseType: !39)
!39 = !DICompositeType(tag: DW_TAG_array_type, baseType: !28, size: 192, elements: !40)
!40 = !{!41}
!41 = !DISubrange(count: 3)
!42 = !DIDerivedType(tag: DW_TAG_member, name: "Turb", scope: !23, file: !22, line: 64, baseType: !43, size: 64, offset: 640)
!43 = !DIDerivedType(tag: DW_TAG_pointer_type, baseType: !44, size: 64)
!44 = !DIDerivedType(tag: DW_TAG_typedef, name: "TURB", scope: !5, file: !4, line: 1039, baseType: !45)
!45 = distinct !DICompositeType(tag: DW_TAG_structure_type, name: "Turb_Struct", scope: !5, file: !4, line: 1392, size: 512, flags: DIFlagTypePassByValue, elements: !46, identifier: "_ZTSN3pov11Turb_StructE")
!46 = !{!47, !49, !53, !54, !55, !56, !57}
!47 = !DIDerivedType(tag: DW_TAG_member, name: "Warp_Type", scope: !45, file: !4, line: 1394, baseType: !48, size: 16)
!48 = !DIBasicType(name: "unsigned short", size: 16, encoding: DW_ATE_unsigned)
!49 = !DIDerivedType(tag: DW_TAG_member, name: "Prev_Warp", scope: !45, file: !4, line: 1394, baseType: !50, size: 64, offset: 64)
!50 = !DIDerivedType(tag: DW_TAG_pointer_type, baseType: !51, size: 64)
!51 = !DIDerivedType(tag: DW_TAG_typedef, name: "WARP", scope: !5, file: !4, line: 1040, baseType: !52)
!52 = !DICompositeType(tag: DW_TAG_structure_type, name: "Warps_Struct", scope: !5, file: !4, line: 1387, flags: DIFlagFwdDecl, identifier: "_ZTSN3pov12Warps_StructE")
!53 = !DIDerivedType(tag: DW_TAG_member, name: "Next_Warp", scope: !45, file: !4, line: 1394, baseType: !50, size: 64, offset: 128)
!54 = !DIDerivedType(tag: DW_TAG_member, name: "Turbulence", scope: !45, file: !4, line: 1395, baseType: !38, size: 192, offset: 192)
!55 = !DIDerivedType(tag: DW_TAG_member, name: "Octaves", scope: !45, file: !4, line: 1396, baseType: !26, size: 32, offset: 384)
!56 = !DIDerivedType(tag: DW_TAG_member, name: "Lambda", scope: !45, file: !4, line: 1397, baseType: !34, size: 32, offset: 416)
!57 = !DIDerivedType(tag: DW_TAG_member, name: "Omega", scope: !45, file: !4, line: 1397, baseType: !34, size: 32, offset: 448)
!58 = !DIDerivedType(tag: DW_TAG_member, name: "Turb_Depth", scope: !23, file: !22, line: 65, baseType: !34, size: 32, offset: 704)
!59 = !DIDerivedType(tag: DW_TAG_member, name: "Next", scope: !23, file: !22, line: 66, baseType: !20, size: 64, offset: 768)
!60 = !DIDerivedType(tag: DW_TAG_pointer_type, baseType: null, size: 64)
!61 = !DIDerivedType(tag: DW_TAG_pointer_type, baseType: !62, size: 64)
!62 = !DIDerivedType(tag: DW_TAG_typedef, name: "RAINBOW", scope: !5, file: !22, line: 53, baseType: !63)
!63 = distinct !DICompositeType(tag: DW_TAG_structure_type, name: "Rainbow_Struct", scope: !5, file: !22, line: 69, size: 1152, flags: DIFlagTypePassByValue, elements: !64, identifier: "_ZTSN3pov14Rainbow_StructE")
!64 = !{!65, !66, !67, !68, !69, !70, !71, !72, !73, !74, !75, !79}
!65 = !DIDerivedType(tag: DW_TAG_member, name: "Distance", scope: !63, file: !22, line: 71, baseType: !28, size: 64)
!66 = !DIDerivedType(tag: DW_TAG_member, name: "Jitter", scope: !63, file: !22, line: 72, baseType: !28, size: 64, offset: 64)
!67 = !DIDerivedType(tag: DW_TAG_member, name: "Angle", scope: !63, file: !22, line: 73, baseType: !28, size: 64, offset: 128)
!68 = !DIDerivedType(tag: DW_TAG_member, name: "Width", scope: !63, file: !22, line: 73, baseType: !28, size: 64, offset: 192)
!69 = !DIDerivedType(tag: DW_TAG_member, name: "Arc_Angle", scope: !63, file: !22, line: 74, baseType: !28, size: 64, offset: 256)
!70 = !DIDerivedType(tag: DW_TAG_member, name: "Falloff_Angle", scope: !63, file: !22, line: 74, baseType: !28, size: 64, offset: 320)
!71 = !DIDerivedType(tag: DW_TAG_member, name: "Falloff_Width", scope: !63, file: !22, line: 74, baseType: !28, size: 64, offset: 384)
!72 = !DIDerivedType(tag: DW_TAG_member, name: "Antisolar_Vector", scope: !63, file: !22, line: 75, baseType: !38, size: 192, offset: 448)
!73 = !DIDerivedType(tag: DW_TAG_member, name: "Up_Vector", scope: !63, file: !22, line: 76, baseType: !38, size: 192, offset: 640)
!74 = !DIDerivedType(tag: DW_TAG_member, name: "Right_Vector", scope: !63, file: !22, line: 76, baseType: !38, size: 192, offset: 832)
!75 = !DIDerivedType(tag: DW_TAG_member, name: "Pigment", scope: !63, file: !22, line: 77, baseType: !76, size: 64, offset: 1024)
!76 = !DIDerivedType(tag: DW_TAG_pointer_type, baseType: !77, size: 64)
!77 = !DIDerivedType(tag: DW_TAG_typedef, name: "PIGMENT", scope: !5, file: !4, line: 1036, baseType: !78)
!78 = !DICompositeType(tag: DW_TAG_structure_type, name: "Pigment_Struct", scope: !5, file: !4, line: 1342, flags: DIFlagFwdDecl, identifier: "_ZTSN3pov14Pigment_StructE")
!79 = !DIDerivedType(tag: DW_TAG_member, name: "Next", scope: !63, file: !22, line: 78, baseType: !61, size: 64, offset: 1088)
!80 = !DIDerivedType(tag: DW_TAG_pointer_type, baseType: !81, size: 64)
!81 = !DIDerivedType(tag: DW_TAG_typedef, name: "SKYSPHERE", scope: !5, file: !22, line: 54, baseType: !82)
!82 = distinct !DICompositeType(tag: DW_TAG_structure_type, name: "Skysphere_Struct", scope: !5, file: !22, line: 81, size: 192, flags: DIFlagTypePassByValue, elements: !83, identifier: "_ZTSN3pov16Skysphere_StructE")
!83 = !{!84, !85, !87}
!84 = !DIDerivedType(tag: DW_TAG_member, name: "Count", scope: !82, file: !22, line: 83, baseType: !26, size: 32)
!85 = !DIDerivedType(tag: DW_TAG_member, name: "Pigments", scope: !82, file: !22, line: 84, baseType: !86, size: 64, offset: 64)
!86 = !DIDerivedType(tag: DW_TAG_pointer_type, baseType: !76, size: 64)
!87 = !DIDerivedType(tag: DW_TAG_member, name: "Trans", scope: !82, file: !22, line: 85, baseType: !88, size: 64, offset: 128)
!88 = !DIDerivedType(tag: DW_TAG_pointer_type, baseType: !89, size: 64)
!89 = !DIDerivedType(tag: DW_TAG_typedef, name: "TRANSFORM", scope: !5, file: !4, line: 1014, baseType: !90)
!90 = distinct !DICompositeType(tag: DW_TAG_structure_type, name: "Transform_Struct", scope: !5, file: !4, line: 1016, size: 2048, flags: DIFlagTypePassByValue, elements: !91, identifier: "_ZTSN3pov16Transform_StructE")
!91 = !{!92, !97}
!92 = !DIDerivedType(tag: DW_TAG_member, name: "matrix", scope: !90, file: !4, line: 1018, baseType: !93, size: 1024)
!93 = !DIDerivedType(tag: DW_TAG_typedef, name: "MATRIX", scope: !5, file: !4, line: 693, baseType: !94)
!94 = !DICompositeType(tag: DW_TAG_array_type, baseType: !28, size: 1024, elements: !95)
!95 = !{!96, !96}
!96 = !DISubrange(count: 4)
!97 = !DIDerivedType(tag: DW_TAG_member, name: "inverse", scope: !90, file: !4, line: 1019, baseType: !93, size: 1024, offset: 1024)
!98 = !{!99, !106, !112, !114, !116, !120, !122, !124, !126, !128, !130, !132, !134, !139, !143, !145, !147, !152, !154, !156, !158, !160, !162, !164, !167, !169, !171, !175, !180, !182, !184, !186, !188, !190, !192, !194, !196, !198, !200, !204, !208, !210, !212, !214, !216, !218, !220, !222, !224, !226, !228, !230, !232, !234, !236, !238, !242, !246, !250, !252, !254, !256, !258, !260, !262, !264, !266, !268, !272, !276, !280, !282, !284, !286, !291, !295, !299, !301, !303, !305, !307, !309, !311, !313, !315, !317, !319, !321, !323, !328, !332, !336, !338, !340, !342, !349, !353, !357, !359, !361, !363, !365, !367, !369, !373, !377, !379, !381, !383, !385, !389, !393, !397, !399, !401, !403, !405, !407, !409, !413, !417, !421, !423, !427, !431, !433, !435, !437, !439, !441, !443, !449, !454, !458, !464, !468, !473, !475, !477, !481, !485, !498, !502, !506, !510, !514, !519, !523, !527, !531, !535, !543, !547, !551, !553, !557, !561, !565, !571, !575, !579, !581, !589, !593, !600, !602, !606, !610, !614, !618, !623, !627, !631, !632, !633, !634, !636, !637, !638, !639, !640, !641, !642, !644, !645, !646, !647, !648, !649, !650, !651, !652, !653, !654, !655, !656, !657, !658, !659, !660, !661, !662, !663, !664, !665, !666, !667, !668, !669, !670, !671, !672, !673, !674, !675, !679, !681, !683, !685, !687, !689, !691, !693, !695, !697, !699, !701, !703, !705, !711, !715, !721, !725, !729, !733, !737, !739, !741, !745, !749, !753, !757, !761, !763, !765, !767, !771, !775, !779, !781, !783, !786, !788, !789, !791, !792, !794, !796, !798, !800, !802, !804, !806, !808, !810, !812, !814, !816, !817, !818, !820, !822, !824, !826, !828, !830, !832, !834, !836, !837, !839, !843, !899, !903}
!99 = !DIImportedEntity(tag: DW_TAG_imported_declaration, scope: !100, entity: !101, file: !105, line: 52)
!100 = !DINamespace(name: "std", scope: null)
!101 = !DISubprogram(name: "abs", scope: !102, file: !102, line: 840, type: !103, flags: DIFlagPrototyped, spFlags: 0)
!102 = !DIFile(filename: "/usr/include/stdlib.h", directory: "")
!103 = !DISubroutineType(types: !104)
!104 = !{!26, !26}
!105 = !DIFile(filename: "/usr/lib/gcc/x86_64-linux-gnu/10/../../../../include/c++/10/bits/std_abs.h", directory: "")
!106 = !DIImportedEntity(tag: DW_TAG_imported_declaration, scope: !100, entity: !107, file: !111, line: 83)
!107 = !DISubprogram(name: "acos", scope: !108, file: !108, line: 53, type: !109, flags: DIFlagPrototyped, spFlags: 0)
!108 = !DIFile(filename: "/usr/include/x86_64-linux-gnu/bits/mathcalls.h", directory: "")
!109 = !DISubroutineType(types: !110)
!110 = !{!28, !28}
!111 = !DIFile(filename: "/usr/lib/gcc/x86_64-linux-gnu/10/../../../../include/c++/10/cmath", directory: "")
!112 = !DIImportedEntity(tag: DW_TAG_imported_declaration, scope: !100, entity: !113, file: !111, line: 102)
!113 = !DISubprogram(name: "asin", scope: !108, file: !108, line: 55, type: !109, flags: DIFlagPrototyped, spFlags: 0)
!114 = !DIImportedEntity(tag: DW_TAG_imported_declaration, scope: !100, entity: !115, file: !111, line: 121)
!115 = !DISubprogram(name: "atan", scope: !108, file: !108, line: 57, type: !109, flags: DIFlagPrototyped, spFlags: 0)
!116 = !DIImportedEntity(tag: DW_TAG_imported_declaration, scope: !100, entity: !117, file: !111, line: 140)
!117 = !DISubprogram(name: "atan2", scope: !108, file: !108, line: 59, type: !118, flags: DIFlagPrototyped, spFlags: 0)
!118 = !DISubroutineType(types: !119)
!119 = !{!28, !28, !28}
!120 = !DIImportedEntity(tag: DW_TAG_imported_declaration, scope: !100, entity: !121, file: !111, line: 161)
!121 = !DISubprogram(name: "ceil", scope: !108, file: !108, line: 159, type: !109, flags: DIFlagPrototyped, spFlags: 0)
!122 = !DIImportedEntity(tag: DW_TAG_imported_declaration, scope: !100, entity: !123, file: !111, line: 180)
!123 = !DISubprogram(name: "cos", scope: !108, file: !108, line: 62, type: !109, flags: DIFlagPrototyped, spFlags: 0)
!124 = !DIImportedEntity(tag: DW_TAG_imported_declaration, scope: !100, entity: !125, file: !111, line: 199)
!125 = !DISubprogram(name: "cosh", scope: !108, file: !108, line: 71, type: !109, flags: DIFlagPrototyped, spFlags: 0)
!126 = !DIImportedEntity(tag: DW_TAG_imported_declaration, scope: !100, entity: !127, file: !111, line: 218)
!127 = !DISubprogram(name: "exp", scope: !108, file: !108, line: 95, type: !109, flags: DIFlagPrototyped, spFlags: 0)
!128 = !DIImportedEntity(tag: DW_TAG_imported_declaration, scope: !100, entity: !129, file: !111, line: 237)
!129 = !DISubprogram(name: "fabs", scope: !108, file: !108, line: 162, type: !109, flags: DIFlagPrototyped, spFlags: 0)
!130 = !DIImportedEntity(tag: DW_TAG_imported_declaration, scope: !100, entity: !131, file: !111, line: 256)
!131 = !DISubprogram(name: "floor", scope: !108, file: !108, line: 165, type: !109, flags: DIFlagPrototyped, spFlags: 0)
!132 = !DIImportedEntity(tag: DW_TAG_imported_declaration, scope: !100, entity: !133, file: !111, line: 275)
!133 = !DISubprogram(name: "fmod", scope: !108, file: !108, line: 168, type: !118, flags: DIFlagPrototyped, spFlags: 0)
!134 = !DIImportedEntity(tag: DW_TAG_imported_declaration, scope: !100, entity: !135, file: !111, line: 296)
!135 = !DISubprogram(name: "frexp", scope: !108, file: !108, line: 98, type: !136, flags: DIFlagPrototyped, spFlags: 0)
!136 = !DISubroutineType(types: !137)
!137 = !{!28, !28, !138}
!138 = !DIDerivedType(tag: DW_TAG_pointer_type, baseType: !26, size: 64)
!139 = !DIImportedEntity(tag: DW_TAG_imported_declaration, scope: !100, entity: !140, file: !111, line: 315)
!140 = !DISubprogram(name: "ldexp", scope: !108, file: !108, line: 101, type: !141, flags: DIFlagPrototyped, spFlags: 0)
!141 = !DISubroutineType(types: !142)
!142 = !{!28, !28, !26}
!143 = !DIImportedEntity(tag: DW_TAG_imported_declaration, scope: !100, entity: !144, file: !111, line: 334)
!144 = !DISubprogram(name: "log", scope: !108, file: !108, line: 104, type: !109, flags: DIFlagPrototyped, spFlags: 0)
!145 = !DIImportedEntity(tag: DW_TAG_imported_declaration, scope: !100, entity: !146, file: !111, line: 353)
!146 = !DISubprogram(name: "log10", scope: !108, file: !108, line: 107, type: !109, flags: DIFlagPrototyped, spFlags: 0)
!147 = !DIImportedEntity(tag: DW_TAG_imported_declaration, scope: !100, entity: !148, file: !111, line: 372)
!148 = !DISubprogram(name: "modf", scope: !108, file: !108, line: 110, type: !149, flags: DIFlagPrototyped, spFlags: 0)
!149 = !DISubroutineType(types: !150)
!150 = !{!28, !28, !151}
!151 = !DIDerivedType(tag: DW_TAG_pointer_type, baseType: !28, size: 64)
!152 = !DIImportedEntity(tag: DW_TAG_imported_declaration, scope: !100, entity: !153, file: !111, line: 384)
!153 = !DISubprogram(name: "pow", scope: !108, file: !108, line: 140, type: !118, flags: DIFlagPrototyped, spFlags: 0)
!154 = !DIImportedEntity(tag: DW_TAG_imported_declaration, scope: !100, entity: !155, file: !111, line: 421)
!155 = !DISubprogram(name: "sin", scope: !108, file: !108, line: 64, type: !109, flags: DIFlagPrototyped, spFlags: 0)
!156 = !DIImportedEntity(tag: DW_TAG_imported_declaration, scope: !100, entity: !157, file: !111, line: 440)
!157 = !DISubprogram(name: "sinh", scope: !108, file: !108, line: 73, type: !109, flags: DIFlagPrototyped, spFlags: 0)
!158 = !DIImportedEntity(tag: DW_TAG_imported_declaration, scope: !100, entity: !159, file: !111, line: 459)
!159 = !DISubprogram(name: "sqrt", scope: !108, file: !108, line: 143, type: !109, flags: DIFlagPrototyped, spFlags: 0)
!160 = !DIImportedEntity(tag: DW_TAG_imported_declaration, scope: !100, entity: !161, file: !111, line: 478)
!161 = !DISubprogram(name: "tan", scope: !108, file: !108, line: 66, type: !109, flags: DIFlagPrototyped, spFlags: 0)
!162 = !DIImportedEntity(tag: DW_TAG_imported_declaration, scope: !100, entity: !163, file: !111, line: 497)
!163 = !DISubprogram(name: "tanh", scope: !108, file: !108, line: 75, type: !109, flags: DIFlagPrototyped, spFlags: 0)
!164 = !DIImportedEntity(tag: DW_TAG_imported_declaration, scope: !100, entity: !165, file: !111, line: 1065)
!165 = !DIDerivedType(tag: DW_TAG_typedef, name: "double_t", file: !166, line: 150, baseType: !28)
!166 = !DIFile(filename: "/usr/include/math.h", directory: "")
!167 = !DIImportedEntity(tag: DW_TAG_imported_declaration, scope: !100, entity: !168, file: !111, line: 1066)
!168 = !DIDerivedType(tag: DW_TAG_typedef, name: "float_t", file: !166, line: 149, baseType: !34)
!169 = !DIImportedEntity(tag: DW_TAG_imported_declaration, scope: !100, entity: !170, file: !111, line: 1069)
!170 = !DISubprogram(name: "acosh", scope: !108, file: !108, line: 85, type: !109, flags: DIFlagPrototyped, spFlags: 0)
!171 = !DIImportedEntity(tag: DW_TAG_imported_declaration, scope: !100, entity: !172, file: !111, line: 1070)
!172 = !DISubprogram(name: "acoshf", scope: !108, file: !108, line: 85, type: !173, flags: DIFlagPrototyped, spFlags: 0)
!173 = !DISubroutineType(types: !174)
!174 = !{!34, !34}
!175 = !DIImportedEntity(tag: DW_TAG_imported_declaration, scope: !100, entity: !176, file: !111, line: 1071)
!176 = !DISubprogram(name: "acoshl", scope: !108, file: !108, line: 85, type: !177, flags: DIFlagPrototyped, spFlags: 0)
!177 = !DISubroutineType(types: !178)
!178 = !{!179, !179}
!179 = !DIBasicType(name: "long double", size: 128, encoding: DW_ATE_float)
!180 = !DIImportedEntity(tag: DW_TAG_imported_declaration, scope: !100, entity: !181, file: !111, line: 1073)
!181 = !DISubprogram(name: "asinh", scope: !108, file: !108, line: 87, type: !109, flags: DIFlagPrototyped, spFlags: 0)
!182 = !DIImportedEntity(tag: DW_TAG_imported_declaration, scope: !100, entity: !183, file: !111, line: 1074)
!183 = !DISubprogram(name: "asinhf", scope: !108, file: !108, line: 87, type: !173, flags: DIFlagPrototyped, spFlags: 0)
!184 = !DIImportedEntity(tag: DW_TAG_imported_declaration, scope: !100, entity: !185, file: !111, line: 1075)
!185 = !DISubprogram(name: "asinhl", scope: !108, file: !108, line: 87, type: !177, flags: DIFlagPrototyped, spFlags: 0)
!186 = !DIImportedEntity(tag: DW_TAG_imported_declaration, scope: !100, entity: !187, file: !111, line: 1077)
!187 = !DISubprogram(name: "atanh", scope: !108, file: !108, line: 89, type: !109, flags: DIFlagPrototyped, spFlags: 0)
!188 = !DIImportedEntity(tag: DW_TAG_imported_declaration, scope: !100, entity: !189, file: !111, line: 1078)
!189 = !DISubprogram(name: "atanhf", scope: !108, file: !108, line: 89, type: !173, flags: DIFlagPrototyped, spFlags: 0)
!190 = !DIImportedEntity(tag: DW_TAG_imported_declaration, scope: !100, entity: !191, file: !111, line: 1079)
!191 = !DISubprogram(name: "atanhl", scope: !108, file: !108, line: 89, type: !177, flags: DIFlagPrototyped, spFlags: 0)
!192 = !DIImportedEntity(tag: DW_TAG_imported_declaration, scope: !100, entity: !193, file: !111, line: 1081)
!193 = !DISubprogram(name: "cbrt", scope: !108, file: !108, line: 152, type: !109, flags: DIFlagPrototyped, spFlags: 0)
!194 = !DIImportedEntity(tag: DW_TAG_imported_declaration, scope: !100, entity: !195, file: !111, line: 1082)
!195 = !DISubprogram(name: "cbrtf", scope: !108, file: !108, line: 152, type: !173, flags: DIFlagPrototyped, spFlags: 0)
!196 = !DIImportedEntity(tag: DW_TAG_imported_declaration, scope: !100, entity: !197, file: !111, line: 1083)
!197 = !DISubprogram(name: "cbrtl", scope: !108, file: !108, line: 152, type: !177, flags: DIFlagPrototyped, spFlags: 0)
!198 = !DIImportedEntity(tag: DW_TAG_imported_declaration, scope: !100, entity: !199, file: !111, line: 1085)
!199 = !DISubprogram(name: "copysign", scope: !108, file: !108, line: 196, type: !118, flags: DIFlagPrototyped, spFlags: 0)
!200 = !DIImportedEntity(tag: DW_TAG_imported_declaration, scope: !100, entity: !201, file: !111, line: 1086)
!201 = !DISubprogram(name: "copysignf", scope: !108, file: !108, line: 196, type: !202, flags: DIFlagPrototyped, spFlags: 0)
!202 = !DISubroutineType(types: !203)
!203 = !{!34, !34, !34}
!204 = !DIImportedEntity(tag: DW_TAG_imported_declaration, scope: !100, entity: !205, file: !111, line: 1087)
!205 = !DISubprogram(name: "copysignl", scope: !108, file: !108, line: 196, type: !206, flags: DIFlagPrototyped, spFlags: 0)
!206 = !DISubroutineType(types: !207)
!207 = !{!179, !179, !179}
!208 = !DIImportedEntity(tag: DW_TAG_imported_declaration, scope: !100, entity: !209, file: !111, line: 1089)
!209 = !DISubprogram(name: "erf", scope: !108, file: !108, line: 228, type: !109, flags: DIFlagPrototyped, spFlags: 0)
!210 = !DIImportedEntity(tag: DW_TAG_imported_declaration, scope: !100, entity: !211, file: !111, line: 1090)
!211 = !DISubprogram(name: "erff", scope: !108, file: !108, line: 228, type: !173, flags: DIFlagPrototyped, spFlags: 0)
!212 = !DIImportedEntity(tag: DW_TAG_imported_declaration, scope: !100, entity: !213, file: !111, line: 1091)
!213 = !DISubprogram(name: "erfl", scope: !108, file: !108, line: 228, type: !177, flags: DIFlagPrototyped, spFlags: 0)
!214 = !DIImportedEntity(tag: DW_TAG_imported_declaration, scope: !100, entity: !215, file: !111, line: 1093)
!215 = !DISubprogram(name: "erfc", scope: !108, file: !108, line: 229, type: !109, flags: DIFlagPrototyped, spFlags: 0)
!216 = !DIImportedEntity(tag: DW_TAG_imported_declaration, scope: !100, entity: !217, file: !111, line: 1094)
!217 = !DISubprogram(name: "erfcf", scope: !108, file: !108, line: 229, type: !173, flags: DIFlagPrototyped, spFlags: 0)
!218 = !DIImportedEntity(tag: DW_TAG_imported_declaration, scope: !100, entity: !219, file: !111, line: 1095)
!219 = !DISubprogram(name: "erfcl", scope: !108, file: !108, line: 229, type: !177, flags: DIFlagPrototyped, spFlags: 0)
!220 = !DIImportedEntity(tag: DW_TAG_imported_declaration, scope: !100, entity: !221, file: !111, line: 1097)
!221 = !DISubprogram(name: "exp2", scope: !108, file: !108, line: 130, type: !109, flags: DIFlagPrototyped, spFlags: 0)
!222 = !DIImportedEntity(tag: DW_TAG_imported_declaration, scope: !100, entity: !223, file: !111, line: 1098)
!223 = !DISubprogram(name: "exp2f", scope: !108, file: !108, line: 130, type: !173, flags: DIFlagPrototyped, spFlags: 0)
!224 = !DIImportedEntity(tag: DW_TAG_imported_declaration, scope: !100, entity: !225, file: !111, line: 1099)
!225 = !DISubprogram(name: "exp2l", scope: !108, file: !108, line: 130, type: !177, flags: DIFlagPrototyped, spFlags: 0)
!226 = !DIImportedEntity(tag: DW_TAG_imported_declaration, scope: !100, entity: !227, file: !111, line: 1101)
!227 = !DISubprogram(name: "expm1", scope: !108, file: !108, line: 119, type: !109, flags: DIFlagPrototyped, spFlags: 0)
!228 = !DIImportedEntity(tag: DW_TAG_imported_declaration, scope: !100, entity: !229, file: !111, line: 1102)
!229 = !DISubprogram(name: "expm1f", scope: !108, file: !108, line: 119, type: !173, flags: DIFlagPrototyped, spFlags: 0)
!230 = !DIImportedEntity(tag: DW_TAG_imported_declaration, scope: !100, entity: !231, file: !111, line: 1103)
!231 = !DISubprogram(name: "expm1l", scope: !108, file: !108, line: 119, type: !177, flags: DIFlagPrototyped, spFlags: 0)
!232 = !DIImportedEntity(tag: DW_TAG_imported_declaration, scope: !100, entity: !233, file: !111, line: 1105)
!233 = !DISubprogram(name: "fdim", scope: !108, file: !108, line: 326, type: !118, flags: DIFlagPrototyped, spFlags: 0)
!234 = !DIImportedEntity(tag: DW_TAG_imported_declaration, scope: !100, entity: !235, file: !111, line: 1106)
!235 = !DISubprogram(name: "fdimf", scope: !108, file: !108, line: 326, type: !202, flags: DIFlagPrototyped, spFlags: 0)
!236 = !DIImportedEntity(tag: DW_TAG_imported_declaration, scope: !100, entity: !237, file: !111, line: 1107)
!237 = !DISubprogram(name: "fdiml", scope: !108, file: !108, line: 326, type: !206, flags: DIFlagPrototyped, spFlags: 0)
!238 = !DIImportedEntity(tag: DW_TAG_imported_declaration, scope: !100, entity: !239, file: !111, line: 1109)
!239 = !DISubprogram(name: "fma", scope: !108, file: !108, line: 335, type: !240, flags: DIFlagPrototyped, spFlags: 0)
!240 = !DISubroutineType(types: !241)
!241 = !{!28, !28, !28, !28}
!242 = !DIImportedEntity(tag: DW_TAG_imported_declaration, scope: !100, entity: !243, file: !111, line: 1110)
!243 = !DISubprogram(name: "fmaf", scope: !108, file: !108, line: 335, type: !244, flags: DIFlagPrototyped, spFlags: 0)
!244 = !DISubroutineType(types: !245)
!245 = !{!34, !34, !34, !34}
!246 = !DIImportedEntity(tag: DW_TAG_imported_declaration, scope: !100, entity: !247, file: !111, line: 1111)
!247 = !DISubprogram(name: "fmal", scope: !108, file: !108, line: 335, type: !248, flags: DIFlagPrototyped, spFlags: 0)
!248 = !DISubroutineType(types: !249)
!249 = !{!179, !179, !179, !179}
!250 = !DIImportedEntity(tag: DW_TAG_imported_declaration, scope: !100, entity: !251, file: !111, line: 1113)
!251 = !DISubprogram(name: "fmax", scope: !108, file: !108, line: 329, type: !118, flags: DIFlagPrototyped, spFlags: 0)
!252 = !DIImportedEntity(tag: DW_TAG_imported_declaration, scope: !100, entity: !253, file: !111, line: 1114)
!253 = !DISubprogram(name: "fmaxf", scope: !108, file: !108, line: 329, type: !202, flags: DIFlagPrototyped, spFlags: 0)
!254 = !DIImportedEntity(tag: DW_TAG_imported_declaration, scope: !100, entity: !255, file: !111, line: 1115)
!255 = !DISubprogram(name: "fmaxl", scope: !108, file: !108, line: 329, type: !206, flags: DIFlagPrototyped, spFlags: 0)
!256 = !DIImportedEntity(tag: DW_TAG_imported_declaration, scope: !100, entity: !257, file: !111, line: 1117)
!257 = !DISubprogram(name: "fmin", scope: !108, file: !108, line: 332, type: !118, flags: DIFlagPrototyped, spFlags: 0)
!258 = !DIImportedEntity(tag: DW_TAG_imported_declaration, scope: !100, entity: !259, file: !111, line: 1118)
!259 = !DISubprogram(name: "fminf", scope: !108, file: !108, line: 332, type: !202, flags: DIFlagPrototyped, spFlags: 0)
!260 = !DIImportedEntity(tag: DW_TAG_imported_declaration, scope: !100, entity: !261, file: !111, line: 1119)
!261 = !DISubprogram(name: "fminl", scope: !108, file: !108, line: 332, type: !206, flags: DIFlagPrototyped, spFlags: 0)
!262 = !DIImportedEntity(tag: DW_TAG_imported_declaration, scope: !100, entity: !263, file: !111, line: 1121)
!263 = !DISubprogram(name: "hypot", scope: !108, file: !108, line: 147, type: !118, flags: DIFlagPrototyped, spFlags: 0)
!264 = !DIImportedEntity(tag: DW_TAG_imported_declaration, scope: !100, entity: !265, file: !111, line: 1122)
!265 = !DISubprogram(name: "hypotf", scope: !108, file: !108, line: 147, type: !202, flags: DIFlagPrototyped, spFlags: 0)
!266 = !DIImportedEntity(tag: DW_TAG_imported_declaration, scope: !100, entity: !267, file: !111, line: 1123)
!267 = !DISubprogram(name: "hypotl", scope: !108, file: !108, line: 147, type: !206, flags: DIFlagPrototyped, spFlags: 0)
!268 = !DIImportedEntity(tag: DW_TAG_imported_declaration, scope: !100, entity: !269, file: !111, line: 1125)
!269 = !DISubprogram(name: "ilogb", scope: !108, file: !108, line: 280, type: !270, flags: DIFlagPrototyped, spFlags: 0)
!270 = !DISubroutineType(types: !271)
!271 = !{!26, !28}
!272 = !DIImportedEntity(tag: DW_TAG_imported_declaration, scope: !100, entity: !273, file: !111, line: 1126)
!273 = !DISubprogram(name: "ilogbf", scope: !108, file: !108, line: 280, type: !274, flags: DIFlagPrototyped, spFlags: 0)
!274 = !DISubroutineType(types: !275)
!275 = !{!26, !34}
!276 = !DIImportedEntity(tag: DW_TAG_imported_declaration, scope: !100, entity: !277, file: !111, line: 1127)
!277 = !DISubprogram(name: "ilogbl", scope: !108, file: !108, line: 280, type: !278, flags: DIFlagPrototyped, spFlags: 0)
!278 = !DISubroutineType(types: !279)
!279 = !{!26, !179}
!280 = !DIImportedEntity(tag: DW_TAG_imported_declaration, scope: !100, entity: !281, file: !111, line: 1129)
!281 = !DISubprogram(name: "lgamma", scope: !108, file: !108, line: 230, type: !109, flags: DIFlagPrototyped, spFlags: 0)
!282 = !DIImportedEntity(tag: DW_TAG_imported_declaration, scope: !100, entity: !283, file: !111, line: 1130)
!283 = !DISubprogram(name: "lgammaf", scope: !108, file: !108, line: 230, type: !173, flags: DIFlagPrototyped, spFlags: 0)
!284 = !DIImportedEntity(tag: DW_TAG_imported_declaration, scope: !100, entity: !285, file: !111, line: 1131)
!285 = !DISubprogram(name: "lgammal", scope: !108, file: !108, line: 230, type: !177, flags: DIFlagPrototyped, spFlags: 0)
!286 = !DIImportedEntity(tag: DW_TAG_imported_declaration, scope: !100, entity: !287, file: !111, line: 1134)
!287 = !DISubprogram(name: "llrint", scope: !108, file: !108, line: 316, type: !288, flags: DIFlagPrototyped, spFlags: 0)
!288 = !DISubroutineType(types: !289)
!289 = !{!290, !28}
!290 = !DIBasicType(name: "long long int", size: 64, encoding: DW_ATE_signed)
!291 = !DIImportedEntity(tag: DW_TAG_imported_declaration, scope: !100, entity: !292, file: !111, line: 1135)
!292 = !DISubprogram(name: "llrintf", scope: !108, file: !108, line: 316, type: !293, flags: DIFlagPrototyped, spFlags: 0)
!293 = !DISubroutineType(types: !294)
!294 = !{!290, !34}
!295 = !DIImportedEntity(tag: DW_TAG_imported_declaration, scope: !100, entity: !296, file: !111, line: 1136)
!296 = !DISubprogram(name: "llrintl", scope: !108, file: !108, line: 316, type: !297, flags: DIFlagPrototyped, spFlags: 0)
!297 = !DISubroutineType(types: !298)
!298 = !{!290, !179}
!299 = !DIImportedEntity(tag: DW_TAG_imported_declaration, scope: !100, entity: !300, file: !111, line: 1138)
!300 = !DISubprogram(name: "llround", scope: !108, file: !108, line: 322, type: !288, flags: DIFlagPrototyped, spFlags: 0)
!301 = !DIImportedEntity(tag: DW_TAG_imported_declaration, scope: !100, entity: !302, file: !111, line: 1139)
!302 = !DISubprogram(name: "llroundf", scope: !108, file: !108, line: 322, type: !293, flags: DIFlagPrototyped, spFlags: 0)
!303 = !DIImportedEntity(tag: DW_TAG_imported_declaration, scope: !100, entity: !304, file: !111, line: 1140)
!304 = !DISubprogram(name: "llroundl", scope: !108, file: !108, line: 322, type: !297, flags: DIFlagPrototyped, spFlags: 0)
!305 = !DIImportedEntity(tag: DW_TAG_imported_declaration, scope: !100, entity: !306, file: !111, line: 1143)
!306 = !DISubprogram(name: "log1p", scope: !108, file: !108, line: 122, type: !109, flags: DIFlagPrototyped, spFlags: 0)
!307 = !DIImportedEntity(tag: DW_TAG_imported_declaration, scope: !100, entity: !308, file: !111, line: 1144)
!308 = !DISubprogram(name: "log1pf", scope: !108, file: !108, line: 122, type: !173, flags: DIFlagPrototyped, spFlags: 0)
!309 = !DIImportedEntity(tag: DW_TAG_imported_declaration, scope: !100, entity: !310, file: !111, line: 1145)
!310 = !DISubprogram(name: "log1pl", scope: !108, file: !108, line: 122, type: !177, flags: DIFlagPrototyped, spFlags: 0)
!311 = !DIImportedEntity(tag: DW_TAG_imported_declaration, scope: !100, entity: !312, file: !111, line: 1147)
!312 = !DISubprogram(name: "log2", scope: !108, file: !108, line: 133, type: !109, flags: DIFlagPrototyped, spFlags: 0)
!313 = !DIImportedEntity(tag: DW_TAG_imported_declaration, scope: !100, entity: !314, file: !111, line: 1148)
!314 = !DISubprogram(name: "log2f", scope: !108, file: !108, line: 133, type: !173, flags: DIFlagPrototyped, spFlags: 0)
!315 = !DIImportedEntity(tag: DW_TAG_imported_declaration, scope: !100, entity: !316, file: !111, line: 1149)
!316 = !DISubprogram(name: "log2l", scope: !108, file: !108, line: 133, type: !177, flags: DIFlagPrototyped, spFlags: 0)
!317 = !DIImportedEntity(tag: DW_TAG_imported_declaration, scope: !100, entity: !318, file: !111, line: 1151)
!318 = !DISubprogram(name: "logb", scope: !108, file: !108, line: 125, type: !109, flags: DIFlagPrototyped, spFlags: 0)
!319 = !DIImportedEntity(tag: DW_TAG_imported_declaration, scope: !100, entity: !320, file: !111, line: 1152)
!320 = !DISubprogram(name: "logbf", scope: !108, file: !108, line: 125, type: !173, flags: DIFlagPrototyped, spFlags: 0)
!321 = !DIImportedEntity(tag: DW_TAG_imported_declaration, scope: !100, entity: !322, file: !111, line: 1153)
!322 = !DISubprogram(name: "logbl", scope: !108, file: !108, line: 125, type: !177, flags: DIFlagPrototyped, spFlags: 0)
!323 = !DIImportedEntity(tag: DW_TAG_imported_declaration, scope: !100, entity: !324, file: !111, line: 1155)
!324 = !DISubprogram(name: "lrint", scope: !108, file: !108, line: 314, type: !325, flags: DIFlagPrototyped, spFlags: 0)
!325 = !DISubroutineType(types: !326)
!326 = !{!327, !28}
!327 = !DIBasicType(name: "long int", size: 64, encoding: DW_ATE_signed)
!328 = !DIImportedEntity(tag: DW_TAG_imported_declaration, scope: !100, entity: !329, file: !111, line: 1156)
!329 = !DISubprogram(name: "lrintf", scope: !108, file: !108, line: 314, type: !330, flags: DIFlagPrototyped, spFlags: 0)
!330 = !DISubroutineType(types: !331)
!331 = !{!327, !34}
!332 = !DIImportedEntity(tag: DW_TAG_imported_declaration, scope: !100, entity: !333, file: !111, line: 1157)
!333 = !DISubprogram(name: "lrintl", scope: !108, file: !108, line: 314, type: !334, flags: DIFlagPrototyped, spFlags: 0)
!334 = !DISubroutineType(types: !335)
!335 = !{!327, !179}
!336 = !DIImportedEntity(tag: DW_TAG_imported_declaration, scope: !100, entity: !337, file: !111, line: 1159)
!337 = !DISubprogram(name: "lround", scope: !108, file: !108, line: 320, type: !325, flags: DIFlagPrototyped, spFlags: 0)
!338 = !DIImportedEntity(tag: DW_TAG_imported_declaration, scope: !100, entity: !339, file: !111, line: 1160)
!339 = !DISubprogram(name: "lroundf", scope: !108, file: !108, line: 320, type: !330, flags: DIFlagPrototyped, spFlags: 0)
!340 = !DIImportedEntity(tag: DW_TAG_imported_declaration, scope: !100, entity: !341, file: !111, line: 1161)
!341 = !DISubprogram(name: "lroundl", scope: !108, file: !108, line: 320, type: !334, flags: DIFlagPrototyped, spFlags: 0)
!342 = !DIImportedEntity(tag: DW_TAG_imported_declaration, scope: !100, entity: !343, file: !111, line: 1163)
!343 = !DISubprogram(name: "nan", scope: !108, file: !108, line: 201, type: !344, flags: DIFlagPrototyped, spFlags: 0)
!344 = !DISubroutineType(types: !345)
!345 = !{!28, !346}
!346 = !DIDerivedType(tag: DW_TAG_pointer_type, baseType: !347, size: 64)
!347 = !DIDerivedType(tag: DW_TAG_const_type, baseType: !348)
!348 = !DIBasicType(name: "char", size: 8, encoding: DW_ATE_signed_char)
!349 = !DIImportedEntity(tag: DW_TAG_imported_declaration, scope: !100, entity: !350, file: !111, line: 1164)
!350 = !DISubprogram(name: "nanf", scope: !108, file: !108, line: 201, type: !351, flags: DIFlagPrototyped, spFlags: 0)
!351 = !DISubroutineType(types: !352)
!352 = !{!34, !346}
!353 = !DIImportedEntity(tag: DW_TAG_imported_declaration, scope: !100, entity: !354, file: !111, line: 1165)
!354 = !DISubprogram(name: "nanl", scope: !108, file: !108, line: 201, type: !355, flags: DIFlagPrototyped, spFlags: 0)
!355 = !DISubroutineType(types: !356)
!356 = !{!179, !346}
!357 = !DIImportedEntity(tag: DW_TAG_imported_declaration, scope: !100, entity: !358, file: !111, line: 1167)
!358 = !DISubprogram(name: "nearbyint", scope: !108, file: !108, line: 294, type: !109, flags: DIFlagPrototyped, spFlags: 0)
!359 = !DIImportedEntity(tag: DW_TAG_imported_declaration, scope: !100, entity: !360, file: !111, line: 1168)
!360 = !DISubprogram(name: "nearbyintf", scope: !108, file: !108, line: 294, type: !173, flags: DIFlagPrototyped, spFlags: 0)
!361 = !DIImportedEntity(tag: DW_TAG_imported_declaration, scope: !100, entity: !362, file: !111, line: 1169)
!362 = !DISubprogram(name: "nearbyintl", scope: !108, file: !108, line: 294, type: !177, flags: DIFlagPrototyped, spFlags: 0)
!363 = !DIImportedEntity(tag: DW_TAG_imported_declaration, scope: !100, entity: !364, file: !111, line: 1171)
!364 = !DISubprogram(name: "nextafter", scope: !108, file: !108, line: 259, type: !118, flags: DIFlagPrototyped, spFlags: 0)
!365 = !DIImportedEntity(tag: DW_TAG_imported_declaration, scope: !100, entity: !366, file: !111, line: 1172)
!366 = !DISubprogram(name: "nextafterf", scope: !108, file: !108, line: 259, type: !202, flags: DIFlagPrototyped, spFlags: 0)
!367 = !DIImportedEntity(tag: DW_TAG_imported_declaration, scope: !100, entity: !368, file: !111, line: 1173)
!368 = !DISubprogram(name: "nextafterl", scope: !108, file: !108, line: 259, type: !206, flags: DIFlagPrototyped, spFlags: 0)
!369 = !DIImportedEntity(tag: DW_TAG_imported_declaration, scope: !100, entity: !370, file: !111, line: 1175)
!370 = !DISubprogram(name: "nexttoward", scope: !108, file: !108, line: 261, type: !371, flags: DIFlagPrototyped, spFlags: 0)
!371 = !DISubroutineType(types: !372)
!372 = !{!28, !28, !179}
!373 = !DIImportedEntity(tag: DW_TAG_imported_declaration, scope: !100, entity: !374, file: !111, line: 1176)
!374 = !DISubprogram(name: "nexttowardf", scope: !108, file: !108, line: 261, type: !375, flags: DIFlagPrototyped, spFlags: 0)
!375 = !DISubroutineType(types: !376)
!376 = !{!34, !34, !179}
!377 = !DIImportedEntity(tag: DW_TAG_imported_declaration, scope: !100, entity: !378, file: !111, line: 1177)
!378 = !DISubprogram(name: "nexttowardl", scope: !108, file: !108, line: 261, type: !206, flags: DIFlagPrototyped, spFlags: 0)
!379 = !DIImportedEntity(tag: DW_TAG_imported_declaration, scope: !100, entity: !380, file: !111, line: 1179)
!380 = !DISubprogram(name: "remainder", scope: !108, file: !108, line: 272, type: !118, flags: DIFlagPrototyped, spFlags: 0)
!381 = !DIImportedEntity(tag: DW_TAG_imported_declaration, scope: !100, entity: !382, file: !111, line: 1180)
!382 = !DISubprogram(name: "remainderf", scope: !108, file: !108, line: 272, type: !202, flags: DIFlagPrototyped, spFlags: 0)
!383 = !DIImportedEntity(tag: DW_TAG_imported_declaration, scope: !100, entity: !384, file: !111, line: 1181)
!384 = !DISubprogram(name: "remainderl", scope: !108, file: !108, line: 272, type: !206, flags: DIFlagPrototyped, spFlags: 0)
!385 = !DIImportedEntity(tag: DW_TAG_imported_declaration, scope: !100, entity: !386, file: !111, line: 1183)
!386 = !DISubprogram(name: "remquo", scope: !108, file: !108, line: 307, type: !387, flags: DIFlagPrototyped, spFlags: 0)
!387 = !DISubroutineType(types: !388)
!388 = !{!28, !28, !28, !138}
!389 = !DIImportedEntity(tag: DW_TAG_imported_declaration, scope: !100, entity: !390, file: !111, line: 1184)
!390 = !DISubprogram(name: "remquof", scope: !108, file: !108, line: 307, type: !391, flags: DIFlagPrototyped, spFlags: 0)
!391 = !DISubroutineType(types: !392)
!392 = !{!34, !34, !34, !138}
!393 = !DIImportedEntity(tag: DW_TAG_imported_declaration, scope: !100, entity: !394, file: !111, line: 1185)
!394 = !DISubprogram(name: "remquol", scope: !108, file: !108, line: 307, type: !395, flags: DIFlagPrototyped, spFlags: 0)
!395 = !DISubroutineType(types: !396)
!396 = !{!179, !179, !179, !138}
!397 = !DIImportedEntity(tag: DW_TAG_imported_declaration, scope: !100, entity: !398, file: !111, line: 1187)
!398 = !DISubprogram(name: "rint", scope: !108, file: !108, line: 256, type: !109, flags: DIFlagPrototyped, spFlags: 0)
!399 = !DIImportedEntity(tag: DW_TAG_imported_declaration, scope: !100, entity: !400, file: !111, line: 1188)
!400 = !DISubprogram(name: "rintf", scope: !108, file: !108, line: 256, type: !173, flags: DIFlagPrototyped, spFlags: 0)
!401 = !DIImportedEntity(tag: DW_TAG_imported_declaration, scope: !100, entity: !402, file: !111, line: 1189)
!402 = !DISubprogram(name: "rintl", scope: !108, file: !108, line: 256, type: !177, flags: DIFlagPrototyped, spFlags: 0)
!403 = !DIImportedEntity(tag: DW_TAG_imported_declaration, scope: !100, entity: !404, file: !111, line: 1191)
!404 = !DISubprogram(name: "round", scope: !108, file: !108, line: 298, type: !109, flags: DIFlagPrototyped, spFlags: 0)
!405 = !DIImportedEntity(tag: DW_TAG_imported_declaration, scope: !100, entity: !406, file: !111, line: 1192)
!406 = !DISubprogram(name: "roundf", scope: !108, file: !108, line: 298, type: !173, flags: DIFlagPrototyped, spFlags: 0)
!407 = !DIImportedEntity(tag: DW_TAG_imported_declaration, scope: !100, entity: !408, file: !111, line: 1193)
!408 = !DISubprogram(name: "roundl", scope: !108, file: !108, line: 298, type: !177, flags: DIFlagPrototyped, spFlags: 0)
!409 = !DIImportedEntity(tag: DW_TAG_imported_declaration, scope: !100, entity: !410, file: !111, line: 1195)
!410 = !DISubprogram(name: "scalbln", scope: !108, file: !108, line: 290, type: !411, flags: DIFlagPrototyped, spFlags: 0)
!411 = !DISubroutineType(types: !412)
!412 = !{!28, !28, !327}
!413 = !DIImportedEntity(tag: DW_TAG_imported_declaration, scope: !100, entity: !414, file: !111, line: 1196)
!414 = !DISubprogram(name: "scalblnf", scope: !108, file: !108, line: 290, type: !415, flags: DIFlagPrototyped, spFlags: 0)
!415 = !DISubroutineType(types: !416)
!416 = !{!34, !34, !327}
!417 = !DIImportedEntity(tag: DW_TAG_imported_declaration, scope: !100, entity: !418, file: !111, line: 1197)
!418 = !DISubprogram(name: "scalblnl", scope: !108, file: !108, line: 290, type: !419, flags: DIFlagPrototyped, spFlags: 0)
!419 = !DISubroutineType(types: !420)
!420 = !{!179, !179, !327}
!421 = !DIImportedEntity(tag: DW_TAG_imported_declaration, scope: !100, entity: !422, file: !111, line: 1199)
!422 = !DISubprogram(name: "scalbn", scope: !108, file: !108, line: 276, type: !141, flags: DIFlagPrototyped, spFlags: 0)
!423 = !DIImportedEntity(tag: DW_TAG_imported_declaration, scope: !100, entity: !424, file: !111, line: 1200)
!424 = !DISubprogram(name: "scalbnf", scope: !108, file: !108, line: 276, type: !425, flags: DIFlagPrototyped, spFlags: 0)
!425 = !DISubroutineType(types: !426)
!426 = !{!34, !34, !26}
!427 = !DIImportedEntity(tag: DW_TAG_imported_declaration, scope: !100, entity: !428, file: !111, line: 1201)
!428 = !DISubprogram(name: "scalbnl", scope: !108, file: !108, line: 276, type: !429, flags: DIFlagPrototyped, spFlags: 0)
!429 = !DISubroutineType(types: !430)
!430 = !{!179, !179, !26}
!431 = !DIImportedEntity(tag: DW_TAG_imported_declaration, scope: !100, entity: !432, file: !111, line: 1203)
!432 = !DISubprogram(name: "tgamma", scope: !108, file: !108, line: 235, type: !109, flags: DIFlagPrototyped, spFlags: 0)
!433 = !DIImportedEntity(tag: DW_TAG_imported_declaration, scope: !100, entity: !434, file: !111, line: 1204)
!434 = !DISubprogram(name: "tgammaf", scope: !108, file: !108, line: 235, type: !173, flags: DIFlagPrototyped, spFlags: 0)
!435 = !DIImportedEntity(tag: DW_TAG_imported_declaration, scope: !100, entity: !436, file: !111, line: 1205)
!436 = !DISubprogram(name: "tgammal", scope: !108, file: !108, line: 235, type: !177, flags: DIFlagPrototyped, spFlags: 0)
!437 = !DIImportedEntity(tag: DW_TAG_imported_declaration, scope: !100, entity: !438, file: !111, line: 1207)
!438 = !DISubprogram(name: "trunc", scope: !108, file: !108, line: 302, type: !109, flags: DIFlagPrototyped, spFlags: 0)
!439 = !DIImportedEntity(tag: DW_TAG_imported_declaration, scope: !100, entity: !440, file: !111, line: 1208)
!440 = !DISubprogram(name: "truncf", scope: !108, file: !108, line: 302, type: !173, flags: DIFlagPrototyped, spFlags: 0)
!441 = !DIImportedEntity(tag: DW_TAG_imported_declaration, scope: !100, entity: !442, file: !111, line: 1209)
!442 = !DISubprogram(name: "truncl", scope: !108, file: !108, line: 302, type: !177, flags: DIFlagPrototyped, spFlags: 0)
!443 = !DIImportedEntity(tag: DW_TAG_imported_declaration, scope: !0, entity: !444, file: !448, line: 38)
!444 = !DISubprogram(name: "abs", linkageName: "_ZSt3absg", scope: !100, file: !105, line: 103, type: !445, flags: DIFlagPrototyped, spFlags: 0)
!445 = !DISubroutineType(types: !446)
!446 = !{!447, !447}
!447 = !DIBasicType(name: "__float128", size: 128, encoding: DW_ATE_float)
!448 = !DIFile(filename: "/usr/lib/gcc/x86_64-linux-gnu/10/../../../../include/c++/10/math.h", directory: "")
!449 = !DIImportedEntity(tag: DW_TAG_imported_declaration, scope: !0, entity: !450, file: !448, line: 54)
!450 = !DISubprogram(name: "modf", linkageName: "_ZSt4modfePe", scope: !100, file: !111, line: 380, type: !451, flags: DIFlagPrototyped, spFlags: 0)
!451 = !DISubroutineType(types: !452)
!452 = !{!179, !179, !453}
!453 = !DIDerivedType(tag: DW_TAG_pointer_type, baseType: !179, size: 64)
!454 = !DIImportedEntity(tag: DW_TAG_imported_declaration, scope: !100, entity: !455, file: !457, line: 127)
!455 = !DIDerivedType(tag: DW_TAG_typedef, name: "div_t", file: !102, line: 62, baseType: !456)
!456 = !DICompositeType(tag: DW_TAG_structure_type, file: !102, line: 58, flags: DIFlagFwdDecl, identifier: "_ZTS5div_t")
!457 = !DIFile(filename: "/usr/lib/gcc/x86_64-linux-gnu/10/../../../../include/c++/10/cstdlib", directory: "")
!458 = !DIImportedEntity(tag: DW_TAG_imported_declaration, scope: !100, entity: !459, file: !457, line: 128)
!459 = !DIDerivedType(tag: DW_TAG_typedef, name: "ldiv_t", file: !102, line: 70, baseType: !460)
!460 = distinct !DICompositeType(tag: DW_TAG_structure_type, file: !102, line: 66, size: 128, flags: DIFlagTypePassByValue, elements: !461, identifier: "_ZTS6ldiv_t")
!461 = !{!462, !463}
!462 = !DIDerivedType(tag: DW_TAG_member, name: "quot", scope: !460, file: !102, line: 68, baseType: !327, size: 64)
!463 = !DIDerivedType(tag: DW_TAG_member, name: "rem", scope: !460, file: !102, line: 69, baseType: !327, size: 64, offset: 64)
!464 = !DIImportedEntity(tag: DW_TAG_imported_declaration, scope: !100, entity: !465, file: !457, line: 130)
!465 = !DISubprogram(name: "abort", scope: !102, file: !102, line: 591, type: !466, flags: DIFlagPrototyped | DIFlagNoReturn, spFlags: 0)
!466 = !DISubroutineType(types: !467)
!467 = !{null}
!468 = !DIImportedEntity(tag: DW_TAG_imported_declaration, scope: !100, entity: !469, file: !457, line: 134)
!469 = !DISubprogram(name: "atexit", scope: !102, file: !102, line: 595, type: !470, flags: DIFlagPrototyped, spFlags: 0)
!470 = !DISubroutineType(types: !471)
!471 = !{!26, !472}
!472 = !DIDerivedType(tag: DW_TAG_pointer_type, baseType: !466, size: 64)
!473 = !DIImportedEntity(tag: DW_TAG_imported_declaration, scope: !100, entity: !474, file: !457, line: 137)
!474 = !DISubprogram(name: "at_quick_exit", scope: !102, file: !102, line: 600, type: !470, flags: DIFlagPrototyped, spFlags: 0)
!475 = !DIImportedEntity(tag: DW_TAG_imported_declaration, scope: !100, entity: !476, file: !457, line: 140)
!476 = !DISubprogram(name: "atof", scope: !102, file: !102, line: 101, type: !344, flags: DIFlagPrototyped, spFlags: 0)
!477 = !DIImportedEntity(tag: DW_TAG_imported_declaration, scope: !100, entity: !478, file: !457, line: 141)
!478 = !DISubprogram(name: "atoi", scope: !102, file: !102, line: 104, type: !479, flags: DIFlagPrototyped, spFlags: 0)
!479 = !DISubroutineType(types: !480)
!480 = !{!26, !346}
!481 = !DIImportedEntity(tag: DW_TAG_imported_declaration, scope: !100, entity: !482, file: !457, line: 142)
!482 = !DISubprogram(name: "atol", scope: !102, file: !102, line: 107, type: !483, flags: DIFlagPrototyped, spFlags: 0)
!483 = !DISubroutineType(types: !484)
!484 = !{!327, !346}
!485 = !DIImportedEntity(tag: DW_TAG_imported_declaration, scope: !100, entity: !486, file: !457, line: 143)
!486 = !DISubprogram(name: "bsearch", scope: !102, file: !102, line: 820, type: !487, flags: DIFlagPrototyped, spFlags: 0)
!487 = !DISubroutineType(types: !488)
!488 = !{!60, !489, !489, !491, !491, !494}
!489 = !DIDerivedType(tag: DW_TAG_pointer_type, baseType: !490, size: 64)
!490 = !DIDerivedType(tag: DW_TAG_const_type, baseType: null)
!491 = !DIDerivedType(tag: DW_TAG_typedef, name: "size_t", file: !492, line: 46, baseType: !493)
!492 = !DIFile(filename: "Rohit/IR2Vec-LoopOptimizationFramework/build_REL_AsrtON/lib/clang/10.0.1/include/stddef.h", directory: "/home/venkat/IF-DV")
!493 = !DIBasicType(name: "long unsigned int", size: 64, encoding: DW_ATE_unsigned)
!494 = !DIDerivedType(tag: DW_TAG_typedef, name: "__compar_fn_t", file: !102, line: 808, baseType: !495)
!495 = !DIDerivedType(tag: DW_TAG_pointer_type, baseType: !496, size: 64)
!496 = !DISubroutineType(types: !497)
!497 = !{!26, !489, !489}
!498 = !DIImportedEntity(tag: DW_TAG_imported_declaration, scope: !100, entity: !499, file: !457, line: 144)
!499 = !DISubprogram(name: "calloc", scope: !102, file: !102, line: 542, type: !500, flags: DIFlagPrototyped, spFlags: 0)
!500 = !DISubroutineType(types: !501)
!501 = !{!60, !491, !491}
!502 = !DIImportedEntity(tag: DW_TAG_imported_declaration, scope: !100, entity: !503, file: !457, line: 145)
!503 = !DISubprogram(name: "div", scope: !102, file: !102, line: 852, type: !504, flags: DIFlagPrototyped, spFlags: 0)
!504 = !DISubroutineType(types: !505)
!505 = !{!455, !26, !26}
!506 = !DIImportedEntity(tag: DW_TAG_imported_declaration, scope: !100, entity: !507, file: !457, line: 146)
!507 = !DISubprogram(name: "exit", scope: !102, file: !102, line: 617, type: !508, flags: DIFlagPrototyped | DIFlagNoReturn, spFlags: 0)
!508 = !DISubroutineType(types: !509)
!509 = !{null, !26}
!510 = !DIImportedEntity(tag: DW_TAG_imported_declaration, scope: !100, entity: !511, file: !457, line: 147)
!511 = !DISubprogram(name: "free", scope: !102, file: !102, line: 565, type: !512, flags: DIFlagPrototyped, spFlags: 0)
!512 = !DISubroutineType(types: !513)
!513 = !{null, !60}
!514 = !DIImportedEntity(tag: DW_TAG_imported_declaration, scope: !100, entity: !515, file: !457, line: 148)
!515 = !DISubprogram(name: "getenv", scope: !102, file: !102, line: 634, type: !516, flags: DIFlagPrototyped, spFlags: 0)
!516 = !DISubroutineType(types: !517)
!517 = !{!518, !346}
!518 = !DIDerivedType(tag: DW_TAG_pointer_type, baseType: !348, size: 64)
!519 = !DIImportedEntity(tag: DW_TAG_imported_declaration, scope: !100, entity: !520, file: !457, line: 149)
!520 = !DISubprogram(name: "labs", scope: !102, file: !102, line: 841, type: !521, flags: DIFlagPrototyped, spFlags: 0)
!521 = !DISubroutineType(types: !522)
!522 = !{!327, !327}
!523 = !DIImportedEntity(tag: DW_TAG_imported_declaration, scope: !100, entity: !524, file: !457, line: 150)
!524 = !DISubprogram(name: "ldiv", scope: !102, file: !102, line: 854, type: !525, flags: DIFlagPrototyped, spFlags: 0)
!525 = !DISubroutineType(types: !526)
!526 = !{!459, !327, !327}
!527 = !DIImportedEntity(tag: DW_TAG_imported_declaration, scope: !100, entity: !528, file: !457, line: 151)
!528 = !DISubprogram(name: "malloc", scope: !102, file: !102, line: 539, type: !529, flags: DIFlagPrototyped, spFlags: 0)
!529 = !DISubroutineType(types: !530)
!530 = !{!60, !491}
!531 = !DIImportedEntity(tag: DW_TAG_imported_declaration, scope: !100, entity: !532, file: !457, line: 153)
!532 = !DISubprogram(name: "mblen", scope: !102, file: !102, line: 922, type: !533, flags: DIFlagPrototyped, spFlags: 0)
!533 = !DISubroutineType(types: !534)
!534 = !{!26, !346, !491}
!535 = !DIImportedEntity(tag: DW_TAG_imported_declaration, scope: !100, entity: !536, file: !457, line: 154)
!536 = !DISubprogram(name: "mbstowcs", scope: !102, file: !102, line: 933, type: !537, flags: DIFlagPrototyped, spFlags: 0)
!537 = !DISubroutineType(types: !538)
!538 = !{!491, !539, !542, !491}
!539 = !DIDerivedType(tag: DW_TAG_restrict_type, baseType: !540)
!540 = !DIDerivedType(tag: DW_TAG_pointer_type, baseType: !541, size: 64)
!541 = !DIBasicType(name: "wchar_t", size: 32, encoding: DW_ATE_signed)
!542 = !DIDerivedType(tag: DW_TAG_restrict_type, baseType: !346)
!543 = !DIImportedEntity(tag: DW_TAG_imported_declaration, scope: !100, entity: !544, file: !457, line: 155)
!544 = !DISubprogram(name: "mbtowc", scope: !102, file: !102, line: 925, type: !545, flags: DIFlagPrototyped, spFlags: 0)
!545 = !DISubroutineType(types: !546)
!546 = !{!26, !539, !542, !491}
!547 = !DIImportedEntity(tag: DW_TAG_imported_declaration, scope: !100, entity: !548, file: !457, line: 157)
!548 = !DISubprogram(name: "qsort", scope: !102, file: !102, line: 830, type: !549, flags: DIFlagPrototyped, spFlags: 0)
!549 = !DISubroutineType(types: !550)
!550 = !{null, !60, !491, !491, !494}
!551 = !DIImportedEntity(tag: DW_TAG_imported_declaration, scope: !100, entity: !552, file: !457, line: 160)
!552 = !DISubprogram(name: "quick_exit", scope: !102, file: !102, line: 623, type: !508, flags: DIFlagPrototyped | DIFlagNoReturn, spFlags: 0)
!553 = !DIImportedEntity(tag: DW_TAG_imported_declaration, scope: !100, entity: !554, file: !457, line: 163)
!554 = !DISubprogram(name: "rand", scope: !102, file: !102, line: 453, type: !555, flags: DIFlagPrototyped, spFlags: 0)
!555 = !DISubroutineType(types: !556)
!556 = !{!26}
!557 = !DIImportedEntity(tag: DW_TAG_imported_declaration, scope: !100, entity: !558, file: !457, line: 164)
!558 = !DISubprogram(name: "realloc", scope: !102, file: !102, line: 550, type: !559, flags: DIFlagPrototyped, spFlags: 0)
!559 = !DISubroutineType(types: !560)
!560 = !{!60, !60, !491}
!561 = !DIImportedEntity(tag: DW_TAG_imported_declaration, scope: !100, entity: !562, file: !457, line: 165)
!562 = !DISubprogram(name: "srand", scope: !102, file: !102, line: 455, type: !563, flags: DIFlagPrototyped, spFlags: 0)
!563 = !DISubroutineType(types: !564)
!564 = !{null, !6}
!565 = !DIImportedEntity(tag: DW_TAG_imported_declaration, scope: !100, entity: !566, file: !457, line: 166)
!566 = !DISubprogram(name: "strtod", scope: !102, file: !102, line: 117, type: !567, flags: DIFlagPrototyped, spFlags: 0)
!567 = !DISubroutineType(types: !568)
!568 = !{!28, !542, !569}
!569 = !DIDerivedType(tag: DW_TAG_restrict_type, baseType: !570)
!570 = !DIDerivedType(tag: DW_TAG_pointer_type, baseType: !518, size: 64)
!571 = !DIImportedEntity(tag: DW_TAG_imported_declaration, scope: !100, entity: !572, file: !457, line: 167)
!572 = !DISubprogram(name: "strtol", scope: !102, file: !102, line: 176, type: !573, flags: DIFlagPrototyped, spFlags: 0)
!573 = !DISubroutineType(types: !574)
!574 = !{!327, !542, !569, !26}
!575 = !DIImportedEntity(tag: DW_TAG_imported_declaration, scope: !100, entity: !576, file: !457, line: 168)
!576 = !DISubprogram(name: "strtoul", scope: !102, file: !102, line: 180, type: !577, flags: DIFlagPrototyped, spFlags: 0)
!577 = !DISubroutineType(types: !578)
!578 = !{!493, !542, !569, !26}
!579 = !DIImportedEntity(tag: DW_TAG_imported_declaration, scope: !100, entity: !580, file: !457, line: 169)
!580 = !DISubprogram(name: "system", scope: !102, file: !102, line: 784, type: !479, flags: DIFlagPrototyped, spFlags: 0)
!581 = !DIImportedEntity(tag: DW_TAG_imported_declaration, scope: !100, entity: !582, file: !457, line: 171)
!582 = !DISubprogram(name: "wcstombs", scope: !102, file: !102, line: 936, type: !583, flags: DIFlagPrototyped, spFlags: 0)
!583 = !DISubroutineType(types: !584)
!584 = !{!491, !585, !586, !491}
!585 = !DIDerivedType(tag: DW_TAG_restrict_type, baseType: !518)
!586 = !DIDerivedType(tag: DW_TAG_restrict_type, baseType: !587)
!587 = !DIDerivedType(tag: DW_TAG_pointer_type, baseType: !588, size: 64)
!588 = !DIDerivedType(tag: DW_TAG_const_type, baseType: !541)
!589 = !DIImportedEntity(tag: DW_TAG_imported_declaration, scope: !100, entity: !590, file: !457, line: 172)
!590 = !DISubprogram(name: "wctomb", scope: !102, file: !102, line: 929, type: !591, flags: DIFlagPrototyped, spFlags: 0)
!591 = !DISubroutineType(types: !592)
!592 = !{!26, !518, !541}
!593 = !DIImportedEntity(tag: DW_TAG_imported_declaration, scope: !594, entity: !595, file: !457, line: 200)
!594 = !DINamespace(name: "__gnu_cxx", scope: null)
!595 = !DIDerivedType(tag: DW_TAG_typedef, name: "lldiv_t", file: !102, line: 80, baseType: !596)
!596 = distinct !DICompositeType(tag: DW_TAG_structure_type, file: !102, line: 76, size: 128, flags: DIFlagTypePassByValue, elements: !597, identifier: "_ZTS7lldiv_t")
!597 = !{!598, !599}
!598 = !DIDerivedType(tag: DW_TAG_member, name: "quot", scope: !596, file: !102, line: 78, baseType: !290, size: 64)
!599 = !DIDerivedType(tag: DW_TAG_member, name: "rem", scope: !596, file: !102, line: 79, baseType: !290, size: 64, offset: 64)
!600 = !DIImportedEntity(tag: DW_TAG_imported_declaration, scope: !594, entity: !601, file: !457, line: 206)
!601 = !DISubprogram(name: "_Exit", scope: !102, file: !102, line: 629, type: !508, flags: DIFlagPrototyped | DIFlagNoReturn, spFlags: 0)
!602 = !DIImportedEntity(tag: DW_TAG_imported_declaration, scope: !594, entity: !603, file: !457, line: 210)
!603 = !DISubprogram(name: "llabs", scope: !102, file: !102, line: 844, type: !604, flags: DIFlagPrototyped, spFlags: 0)
!604 = !DISubroutineType(types: !605)
!605 = !{!290, !290}
!606 = !DIImportedEntity(tag: DW_TAG_imported_declaration, scope: !594, entity: !607, file: !457, line: 216)
!607 = !DISubprogram(name: "lldiv", scope: !102, file: !102, line: 858, type: !608, flags: DIFlagPrototyped, spFlags: 0)
!608 = !DISubroutineType(types: !609)
!609 = !{!595, !290, !290}
!610 = !DIImportedEntity(tag: DW_TAG_imported_declaration, scope: !594, entity: !611, file: !457, line: 227)
!611 = !DISubprogram(name: "atoll", scope: !102, file: !102, line: 112, type: !612, flags: DIFlagPrototyped, spFlags: 0)
!612 = !DISubroutineType(types: !613)
!613 = !{!290, !346}
!614 = !DIImportedEntity(tag: DW_TAG_imported_declaration, scope: !594, entity: !615, file: !457, line: 228)
!615 = !DISubprogram(name: "strtoll", scope: !102, file: !102, line: 200, type: !616, flags: DIFlagPrototyped, spFlags: 0)
!616 = !DISubroutineType(types: !617)
!617 = !{!290, !542, !569, !26}
!618 = !DIImportedEntity(tag: DW_TAG_imported_declaration, scope: !594, entity: !619, file: !457, line: 229)
!619 = !DISubprogram(name: "strtoull", scope: !102, file: !102, line: 205, type: !620, flags: DIFlagPrototyped, spFlags: 0)
!620 = !DISubroutineType(types: !621)
!621 = !{!622, !542, !569, !26}
!622 = !DIBasicType(name: "long long unsigned int", size: 64, encoding: DW_ATE_unsigned)
!623 = !DIImportedEntity(tag: DW_TAG_imported_declaration, scope: !594, entity: !624, file: !457, line: 231)
!624 = !DISubprogram(name: "strtof", scope: !102, file: !102, line: 123, type: !625, flags: DIFlagPrototyped, spFlags: 0)
!625 = !DISubroutineType(types: !626)
!626 = !{!34, !542, !569}
!627 = !DIImportedEntity(tag: DW_TAG_imported_declaration, scope: !594, entity: !628, file: !457, line: 232)
!628 = !DISubprogram(name: "strtold", scope: !102, file: !102, line: 126, type: !629, flags: DIFlagPrototyped, spFlags: 0)
!629 = !DISubroutineType(types: !630)
!630 = !{!179, !542, !569}
!631 = !DIImportedEntity(tag: DW_TAG_imported_declaration, scope: !100, entity: !595, file: !457, line: 240)
!632 = !DIImportedEntity(tag: DW_TAG_imported_declaration, scope: !100, entity: !601, file: !457, line: 242)
!633 = !DIImportedEntity(tag: DW_TAG_imported_declaration, scope: !100, entity: !603, file: !457, line: 244)
!634 = !DIImportedEntity(tag: DW_TAG_imported_declaration, scope: !100, entity: !635, file: !457, line: 245)
!635 = !DISubprogram(name: "div", linkageName: "_ZN9__gnu_cxx3divExx", scope: !594, file: !457, line: 213, type: !608, flags: DIFlagPrototyped, spFlags: 0)
!636 = !DIImportedEntity(tag: DW_TAG_imported_declaration, scope: !100, entity: !607, file: !457, line: 246)
!637 = !DIImportedEntity(tag: DW_TAG_imported_declaration, scope: !100, entity: !611, file: !457, line: 248)
!638 = !DIImportedEntity(tag: DW_TAG_imported_declaration, scope: !100, entity: !624, file: !457, line: 249)
!639 = !DIImportedEntity(tag: DW_TAG_imported_declaration, scope: !100, entity: !615, file: !457, line: 250)
!640 = !DIImportedEntity(tag: DW_TAG_imported_declaration, scope: !100, entity: !619, file: !457, line: 251)
!641 = !DIImportedEntity(tag: DW_TAG_imported_declaration, scope: !100, entity: !628, file: !457, line: 252)
!642 = !DIImportedEntity(tag: DW_TAG_imported_declaration, scope: !0, entity: !465, file: !643, line: 38)
!643 = !DIFile(filename: "/usr/lib/gcc/x86_64-linux-gnu/10/../../../../include/c++/10/stdlib.h", directory: "")
!644 = !DIImportedEntity(tag: DW_TAG_imported_declaration, scope: !0, entity: !469, file: !643, line: 39)
!645 = !DIImportedEntity(tag: DW_TAG_imported_declaration, scope: !0, entity: !507, file: !643, line: 40)
!646 = !DIImportedEntity(tag: DW_TAG_imported_declaration, scope: !0, entity: !474, file: !643, line: 43)
!647 = !DIImportedEntity(tag: DW_TAG_imported_declaration, scope: !0, entity: !552, file: !643, line: 46)
!648 = !DIImportedEntity(tag: DW_TAG_imported_declaration, scope: !0, entity: !455, file: !643, line: 51)
!649 = !DIImportedEntity(tag: DW_TAG_imported_declaration, scope: !0, entity: !459, file: !643, line: 52)
!650 = !DIImportedEntity(tag: DW_TAG_imported_declaration, scope: !0, entity: !444, file: !643, line: 54)
!651 = !DIImportedEntity(tag: DW_TAG_imported_declaration, scope: !0, entity: !476, file: !643, line: 55)
!652 = !DIImportedEntity(tag: DW_TAG_imported_declaration, scope: !0, entity: !478, file: !643, line: 56)
!653 = !DIImportedEntity(tag: DW_TAG_imported_declaration, scope: !0, entity: !482, file: !643, line: 57)
!654 = !DIImportedEntity(tag: DW_TAG_imported_declaration, scope: !0, entity: !486, file: !643, line: 58)
!655 = !DIImportedEntity(tag: DW_TAG_imported_declaration, scope: !0, entity: !499, file: !643, line: 59)
!656 = !DIImportedEntity(tag: DW_TAG_imported_declaration, scope: !0, entity: !635, file: !643, line: 60)
!657 = !DIImportedEntity(tag: DW_TAG_imported_declaration, scope: !0, entity: !511, file: !643, line: 61)
!658 = !DIImportedEntity(tag: DW_TAG_imported_declaration, scope: !0, entity: !515, file: !643, line: 62)
!659 = !DIImportedEntity(tag: DW_TAG_imported_declaration, scope: !0, entity: !520, file: !643, line: 63)
!660 = !DIImportedEntity(tag: DW_TAG_imported_declaration, scope: !0, entity: !524, file: !643, line: 64)
!661 = !DIImportedEntity(tag: DW_TAG_imported_declaration, scope: !0, entity: !528, file: !643, line: 65)
!662 = !DIImportedEntity(tag: DW_TAG_imported_declaration, scope: !0, entity: !532, file: !643, line: 67)
!663 = !DIImportedEntity(tag: DW_TAG_imported_declaration, scope: !0, entity: !536, file: !643, line: 68)
!664 = !DIImportedEntity(tag: DW_TAG_imported_declaration, scope: !0, entity: !544, file: !643, line: 69)
!665 = !DIImportedEntity(tag: DW_TAG_imported_declaration, scope: !0, entity: !548, file: !643, line: 71)
!666 = !DIImportedEntity(tag: DW_TAG_imported_declaration, scope: !0, entity: !554, file: !643, line: 72)
!667 = !DIImportedEntity(tag: DW_TAG_imported_declaration, scope: !0, entity: !558, file: !643, line: 73)
!668 = !DIImportedEntity(tag: DW_TAG_imported_declaration, scope: !0, entity: !562, file: !643, line: 74)
!669 = !DIImportedEntity(tag: DW_TAG_imported_declaration, scope: !0, entity: !566, file: !643, line: 75)
!670 = !DIImportedEntity(tag: DW_TAG_imported_declaration, scope: !0, entity: !572, file: !643, line: 76)
!671 = !DIImportedEntity(tag: DW_TAG_imported_declaration, scope: !0, entity: !576, file: !643, line: 77)
!672 = !DIImportedEntity(tag: DW_TAG_imported_declaration, scope: !0, entity: !580, file: !643, line: 78)
!673 = !DIImportedEntity(tag: DW_TAG_imported_declaration, scope: !0, entity: !582, file: !643, line: 80)
!674 = !DIImportedEntity(tag: DW_TAG_imported_declaration, scope: !0, entity: !590, file: !643, line: 81)
!675 = !DIImportedEntity(tag: DW_TAG_imported_declaration, scope: !100, entity: !676, file: !678, line: 64)
!676 = !DISubprogram(name: "isalnum", scope: !677, file: !677, line: 108, type: !103, flags: DIFlagPrototyped, spFlags: 0)
!677 = !DIFile(filename: "/usr/include/ctype.h", directory: "")
!678 = !DIFile(filename: "/usr/lib/gcc/x86_64-linux-gnu/10/../../../../include/c++/10/cctype", directory: "")
!679 = !DIImportedEntity(tag: DW_TAG_imported_declaration, scope: !100, entity: !680, file: !678, line: 65)
!680 = !DISubprogram(name: "isalpha", scope: !677, file: !677, line: 109, type: !103, flags: DIFlagPrototyped, spFlags: 0)
!681 = !DIImportedEntity(tag: DW_TAG_imported_declaration, scope: !100, entity: !682, file: !678, line: 66)
!682 = !DISubprogram(name: "iscntrl", scope: !677, file: !677, line: 110, type: !103, flags: DIFlagPrototyped, spFlags: 0)
!683 = !DIImportedEntity(tag: DW_TAG_imported_declaration, scope: !100, entity: !684, file: !678, line: 67)
!684 = !DISubprogram(name: "isdigit", scope: !677, file: !677, line: 111, type: !103, flags: DIFlagPrototyped, spFlags: 0)
!685 = !DIImportedEntity(tag: DW_TAG_imported_declaration, scope: !100, entity: !686, file: !678, line: 68)
!686 = !DISubprogram(name: "isgraph", scope: !677, file: !677, line: 113, type: !103, flags: DIFlagPrototyped, spFlags: 0)
!687 = !DIImportedEntity(tag: DW_TAG_imported_declaration, scope: !100, entity: !688, file: !678, line: 69)
!688 = !DISubprogram(name: "islower", scope: !677, file: !677, line: 112, type: !103, flags: DIFlagPrototyped, spFlags: 0)
!689 = !DIImportedEntity(tag: DW_TAG_imported_declaration, scope: !100, entity: !690, file: !678, line: 70)
!690 = !DISubprogram(name: "isprint", scope: !677, file: !677, line: 114, type: !103, flags: DIFlagPrototyped, spFlags: 0)
!691 = !DIImportedEntity(tag: DW_TAG_imported_declaration, scope: !100, entity: !692, file: !678, line: 71)
!692 = !DISubprogram(name: "ispunct", scope: !677, file: !677, line: 115, type: !103, flags: DIFlagPrototyped, spFlags: 0)
!693 = !DIImportedEntity(tag: DW_TAG_imported_declaration, scope: !100, entity: !694, file: !678, line: 72)
!694 = !DISubprogram(name: "isspace", scope: !677, file: !677, line: 116, type: !103, flags: DIFlagPrototyped, spFlags: 0)
!695 = !DIImportedEntity(tag: DW_TAG_imported_declaration, scope: !100, entity: !696, file: !678, line: 73)
!696 = !DISubprogram(name: "isupper", scope: !677, file: !677, line: 117, type: !103, flags: DIFlagPrototyped, spFlags: 0)
!697 = !DIImportedEntity(tag: DW_TAG_imported_declaration, scope: !100, entity: !698, file: !678, line: 74)
!698 = !DISubprogram(name: "isxdigit", scope: !677, file: !677, line: 118, type: !103, flags: DIFlagPrototyped, spFlags: 0)
!699 = !DIImportedEntity(tag: DW_TAG_imported_declaration, scope: !100, entity: !700, file: !678, line: 75)
!700 = !DISubprogram(name: "tolower", scope: !677, file: !677, line: 122, type: !103, flags: DIFlagPrototyped, spFlags: 0)
!701 = !DIImportedEntity(tag: DW_TAG_imported_declaration, scope: !100, entity: !702, file: !678, line: 76)
!702 = !DISubprogram(name: "toupper", scope: !677, file: !677, line: 125, type: !103, flags: DIFlagPrototyped, spFlags: 0)
!703 = !DIImportedEntity(tag: DW_TAG_imported_declaration, scope: !100, entity: !704, file: !678, line: 87)
!704 = !DISubprogram(name: "isblank", scope: !677, file: !677, line: 130, type: !103, flags: DIFlagPrototyped, spFlags: 0)
!705 = !DIImportedEntity(tag: DW_TAG_imported_declaration, scope: !100, entity: !706, file: !710, line: 77)
!706 = !DISubprogram(name: "memchr", scope: !707, file: !707, line: 73, type: !708, flags: DIFlagPrototyped, spFlags: 0)
!707 = !DIFile(filename: "/usr/include/string.h", directory: "")
!708 = !DISubroutineType(types: !709)
!709 = !{!489, !489, !26, !491}
!710 = !DIFile(filename: "/usr/lib/gcc/x86_64-linux-gnu/10/../../../../include/c++/10/cstring", directory: "")
!711 = !DIImportedEntity(tag: DW_TAG_imported_declaration, scope: !100, entity: !712, file: !710, line: 78)
!712 = !DISubprogram(name: "memcmp", scope: !707, file: !707, line: 64, type: !713, flags: DIFlagPrototyped, spFlags: 0)
!713 = !DISubroutineType(types: !714)
