; ModuleID = 'simulator/runattributes.cc'
source_filename = "simulator/runattributes.cc"
target datalayout = "e-m:e-p270:32:32-p271:32:32-p272:64:64-i64:64-f80:128-n8:16:32:64-S128"
target triple = "x86_64-unknown-linux-gnu"

%"class.std::ios_base::Init" = type { i8 }
%class.cEnvir = type { i32 (...)**, i8, i8, i8, %"class.std::basic_ostream" }
%"class.std::basic_ostream" = type { i32 (...)**, %"class.std::basic_ios" }
%"class.std::basic_ios" = type { %"class.std::ios_base", %"class.std::basic_ostream"*, i8, i8, %"class.std::basic_streambuf"*, %"class.std::ctype"*, %"class.std::num_put"*, %"class.std::num_get"* }
%"class.std::ios_base" = type { i32 (...)**, i64, i64, i32, i32, i32, %"struct.std::ios_base::_Callback_list"*, %"struct.std::ios_base::_Words", [8 x %"struct.std::ios_base::_Words"], i32, %"struct.std::ios_base::_Words"*, %"class.std::locale" }
%"struct.std::ios_base::_Callback_list" = type { %"struct.std::ios_base::_Callback_list"*, void (i32, %"class.std::ios_base"*, i32)*, i32, i32 }
%"struct.std::ios_base::_Words" = type { i8*, i64 }
%"class.std::locale" = type { %"class.std::locale::_Impl"* }
%"class.std::locale::_Impl" = type { i32, %"class.std::locale::facet"**, i64, %"class.std::locale::facet"**, i8** }
%"class.std::locale::facet" = type <{ i32 (...)**, i32, [4 x i8] }>
%"class.std::basic_streambuf" = type { i32 (...)**, i8*, i8*, i8*, i8*, i8*, i8*, %"class.std::locale" }
%"class.std::ctype" = type <{ %"class.std::locale::facet.base", [4 x i8], %struct.__locale_struct*, i8, [7 x i8], i32*, i32*, i16*, i8, [256 x i8], [256 x i8], i8, [6 x i8] }>
%"class.std::locale::facet.base" = type <{ i32 (...)**, i32 }>
%struct.__locale_struct = type { [13 x %struct.__locale_data*], i16*, i32*, i32*, [13 x i8*] }
%struct.__locale_data = type opaque
%"class.std::num_put" = type { %"class.std::locale::facet.base", [4 x i8] }
%"class.std::num_get" = type { %"class.std::locale::facet.base", [4 x i8] }
%"struct.std::piecewise_construct_t" = type { i8 }
%struct.sRunData = type { i8, %class.opp_string, %class.opp_string_map, %class.opp_string_map }
%class.opp_string = type { i8* }
%class.opp_string_map = type { %"class.std::map" }
%"class.std::map" = type { %"class.std::_Rb_tree" }
%"class.std::_Rb_tree" = type { %"struct.std::_Rb_tree<opp_string, std::pair<const opp_string, opp_string>, std::_Select1st<std::pair<const opp_string, opp_string> >, std::less<opp_string>, std::allocator<std::pair<const opp_string, opp_string> > >::_Rb_tree_impl" }
%"struct.std::_Rb_tree<opp_string, std::pair<const opp_string, opp_string>, std::_Select1st<std::pair<const opp_string, opp_string> >, std::less<opp_string>, std::allocator<std::pair<const opp_string, opp_string> > >::_Rb_tree_impl" = type { %"struct.std::_Rb_tree_key_compare", %"struct.std::_Rb_tree_header" }
%"struct.std::_Rb_tree_key_compare" = type { %"struct.std::less" }
%"struct.std::less" = type { i8 }
%"struct.std::_Rb_tree_header" = type { %"struct.std::_Rb_tree_node_base", i64 }
%"struct.std::_Rb_tree_node_base" = type { i32, %"struct.std::_Rb_tree_node_base"*, %"struct.std::_Rb_tree_node_base"*, %"struct.std::_Rb_tree_node_base"* }
%class.cConfigurationEx = type { %class.cConfiguration }
%class.cConfiguration = type { %class.cObject }
%class.cObject = type { i32 (...)** }
%"class.std::vector" = type { %"struct.std::_Vector_base" }
%"struct.std::_Vector_base" = type { %"struct.std::_Vector_base<const char *, std::allocator<const char *> >::_Vector_impl" }
%"struct.std::_Vector_base<const char *, std::allocator<const char *> >::_Vector_impl" = type { %"struct.std::_Vector_base<const char *, std::allocator<const char *> >::_Vector_impl_data" }
%"struct.std::_Vector_base<const char *, std::allocator<const char *> >::_Vector_impl_data" = type { i8**, i8**, i8** }
%"struct.std::_Rb_tree_iterator" = type { %"struct.std::_Rb_tree_node_base"* }
%"struct.std::_Rb_tree_const_iterator" = type { %"struct.std::_Rb_tree_node_base"* }
%"class.std::tuple" = type { %"struct.std::_Tuple_impl" }
%"struct.std::_Tuple_impl" = type { %"struct.std::_Head_base" }
%"struct.std::_Head_base" = type { %class.opp_string* }
%"class.std::tuple.6" = type { i8 }
%"struct.std::pair" = type { %class.opp_string, %class.opp_string }
%"class.std::allocator.0" = type { i8 }
%struct._IO_FILE = type { i32, i8*, i8*, i8*, i8*, i8*, i8*, i8*, i8*, i8*, i8*, i8*, %struct._IO_marker*, %struct._IO_FILE*, i32, i32, i64, i16, i8, [1 x i8], i8*, i64, %struct._IO_codecvt*, %struct._IO_wide_data*, %struct._IO_FILE*, i8*, i64, i32, [20 x i8] }
%struct._IO_marker = type opaque
%struct._IO_codecvt = type opaque
%struct._IO_wide_data = type opaque
%"class.std::__cxx11::basic_string" = type { %"struct.std::__cxx11::basic_string<char, std::char_traits<char>, std::allocator<char> >::_Alloc_hider", i64, %union.anon }
%"struct.std::__cxx11::basic_string<char, std::char_traits<char>, std::allocator<char> >::_Alloc_hider" = type { i8* }
%union.anon = type { i64, [8 x i8] }
%class.cRuntimeError = type { %class.cException.base, [4 x i8] }
%class.cException.base = type <{ %"class.std::exception", i32, [4 x i8], %"class.std::__cxx11::basic_string", i8, [7 x i8], %"class.std::__cxx11::basic_string", %"class.std::__cxx11::basic_string", i32 }>
%"class.std::exception" = type { i32 (...)** }
%class.cException = type <{ %"class.std::exception", i32, [4 x i8], %"class.std::__cxx11::basic_string", i8, [7 x i8], %"class.std::__cxx11::basic_string", %"class.std::__cxx11::basic_string", i32, [4 x i8] }>
%"struct.std::_Rb_tree_node" = type { %"struct.std::_Rb_tree_node_base", %"struct.__gnu_cxx::__aligned_membuf" }
%"struct.__gnu_cxx::__aligned_membuf" = type { [16 x i8] }
%"class.std::allocator.3" = type { i8 }
%"class.__gnu_cxx::new_allocator.1" = type { i8 }
%"struct.std::pair.7" = type { %"struct.std::_Rb_tree_node_base"*, %"struct.std::_Rb_tree_node_base"* }
%"struct.std::_Select1st" = type { i8 }
%"class.std::allocator" = type { i8 }
%"class.__gnu_cxx::new_allocator" = type { i8 }
%"struct.std::_Index_tuple" = type { i8 }
%"struct.std::_Index_tuple.10" = type { i8 }
%"class.std::__pair_base" = type { i8 }
%"class.std::__pair_base.8" = type { i8 }

$_ZN11cSimulation14getActiveEnvirEv = comdat any

$_ZN10opp_stringaSEPKc = comdat any

$_ZNKSt6vectorIPKcSaIS1_EE4sizeEv = comdat any

$_Z10opp_strcmpPKcS0_ = comdat any

$_ZNSt6vectorIPKcSaIS1_EEixEm = comdat any

$_ZNSt3mapI10opp_stringS0_St4lessIS0_ESaISt4pairIKS0_S0_EEEixEOS0_ = comdat any

$_ZN10opp_stringC2EPKc = comdat any

$_ZN10opp_stringD2Ev = comdat any

$_ZNSt6vectorIPKcSaIS1_EED2Ev = comdat any

$_ZNSt3mapI10opp_stringS0_St4lessIS0_ESaISt4pairIKS0_S0_EEE5clearEv = comdat any

$_ZNK10opp_string5c_strEv = comdat any

$_ZN13cRuntimeErrorD2Ev = comdat any

$_ZNSt3mapI10opp_stringS0_St4lessIS0_ESaISt4pairIKS0_S0_EEE5beginEv = comdat any

$_ZNSt23_Rb_tree_const_iteratorISt4pairIK10opp_stringS1_EEC2ERKSt17_Rb_tree_iteratorIS3_E = comdat any

$_ZStneRKSt23_Rb_tree_const_iteratorISt4pairIK10opp_stringS1_EES6_ = comdat any

$_ZNSt3mapI10opp_stringS0_St4lessIS0_ESaISt4pairIKS0_S0_EEE3endEv = comdat any

$_ZNKSt23_Rb_tree_const_iteratorISt4pairIK10opp_stringS1_EEptEv = comdat any

$_ZNSt23_Rb_tree_const_iteratorISt4pairIK10opp_stringS1_EEppEv = comdat any

$_Z10opp_strdupPKc = comdat any

$_ZN10cExceptionD2Ev = comdat any

$_ZN10cExceptionD0Ev = comdat any

$_ZNK10cException4whatEv = comdat any

$_ZNK10cException3dupEv = comdat any

$_ZNK10cException12getErrorCodeEv = comdat any

$_ZN10cException10setMessageEPKc = comdat any

$_ZN10cException14prependMessageEPKc = comdat any

$_ZNK10cException10hasContextEv = comdat any

$_ZNK10cException19getContextClassNameEv = comdat any

$_ZNK10cException18getContextFullPathEv = comdat any

$_ZNK10cException11getModuleIDEv = comdat any

$_ZStplIcSt11char_traitsIcESaIcEENSt7__cxx1112basic_stringIT_T0_T1_EEOS8_RKS8_ = comdat any

$_ZStplIcSt11char_traitsIcESaIcEENSt7__cxx1112basic_stringIT_T0_T1_EEOS8_PKS5_ = comdat any

$_ZSt4moveIRNSt7__cxx1112basic_stringIcSt11char_traitsIcESaIcEEEEONSt16remove_referenceIT_E4typeEOS8_ = comdat any

$_ZSt8_DestroyIPPKcS1_EvT_S3_RSaIT0_E = comdat any

$_ZNSt12_Vector_baseIPKcSaIS1_EE19_M_get_Tp_allocatorEv = comdat any

$_ZNSt12_Vector_baseIPKcSaIS1_EED2Ev = comdat any

$__clang_call_terminate = comdat any

$_ZSt8_DestroyIPPKcEvT_S3_ = comdat any

$_ZNSt12_Destroy_auxILb1EE9__destroyIPPKcEEvT_S5_ = comdat any

$_ZNSt12_Vector_baseIPKcSaIS1_EE13_M_deallocateEPS1_m = comdat any

$_ZNSt12_Vector_baseIPKcSaIS1_EE12_Vector_implD2Ev = comdat any

$_ZNSt16allocator_traitsISaIPKcEE10deallocateERS2_PS1_m = comdat any

$_ZN9__gnu_cxx13new_allocatorIPKcE10deallocateEPS2_m = comdat any

$_ZNSaIPKcED2Ev = comdat any

$_ZN9__gnu_cxx13new_allocatorIPKcED2Ev = comdat any

$_ZNSt3mapI10opp_stringS0_St4lessIS0_ESaISt4pairIKS0_S0_EEE11lower_boundERS4_ = comdat any

$_ZSteqRKSt17_Rb_tree_iteratorISt4pairIK10opp_stringS1_EES6_ = comdat any

$_ZNKSt3mapI10opp_stringS0_St4lessIS0_ESaISt4pairIKS0_S0_EEE8key_compEv = comdat any

$_ZNKSt4lessI10opp_stringEclERKS0_S3_ = comdat any

$_ZNKSt17_Rb_tree_iteratorISt4pairIK10opp_stringS1_EEdeEv = comdat any

$_ZNSt8_Rb_treeI10opp_stringSt4pairIKS0_S0_ESt10_Select1stIS3_ESt4lessIS0_ESaIS3_EE22_M_emplace_hint_uniqueIJRKSt21piecewise_construct_tSt5tupleIJOS0_EESE_IJEEEEESt17_Rb_tree_iteratorIS3_ESt23_Rb_tree_const_iteratorIS3_EDpOT_ = comdat any

$_ZSt16forward_as_tupleIJ10opp_stringEESt5tupleIJDpOT_EES4_ = comdat any

$_ZSt4moveIR10opp_stringEONSt16remove_referenceIT_E4typeEOS3_ = comdat any

$_ZNSt8_Rb_treeI10opp_stringSt4pairIKS0_S0_ESt10_Select1stIS3_ESt4lessIS0_ESaIS3_EE11lower_boundERS2_ = comdat any

$_ZNSt8_Rb_treeI10opp_stringSt4pairIKS0_S0_ESt10_Select1stIS3_ESt4lessIS0_ESaIS3_EE14_M_lower_boundEPSt13_Rb_tree_nodeIS3_EPSt18_Rb_tree_node_baseRS2_ = comdat any

$_ZNSt8_Rb_treeI10opp_stringSt4pairIKS0_S0_ESt10_Select1stIS3_ESt4lessIS0_ESaIS3_EE8_M_beginEv = comdat any

$_ZNSt8_Rb_treeI10opp_stringSt4pairIKS0_S0_ESt10_Select1stIS3_ESt4lessIS0_ESaIS3_EE6_M_endEv = comdat any

$_ZNSt8_Rb_treeI10opp_stringSt4pairIKS0_S0_ESt10_Select1stIS3_ESt4lessIS0_ESaIS3_EE6_S_keyEPKSt13_Rb_tree_nodeIS3_E = comdat any

$_ZNSt8_Rb_treeI10opp_stringSt4pairIKS0_S0_ESt10_Select1stIS3_ESt4lessIS0_ESaIS3_EE7_S_leftEPSt18_Rb_tree_node_base = comdat any

$_ZNSt8_Rb_treeI10opp_stringSt4pairIKS0_S0_ESt10_Select1stIS3_ESt4lessIS0_ESaIS3_EE8_S_rightEPSt18_Rb_tree_node_base = comdat any

$_ZNSt17_Rb_tree_iteratorISt4pairIK10opp_stringS1_EEC2EPSt18_Rb_tree_node_base = comdat any

$_ZNKSt10_Select1stISt4pairIK10opp_stringS1_EEclERKS3_ = comdat any

$_ZNKSt13_Rb_tree_nodeISt4pairIK10opp_stringS1_EE9_M_valptrEv = comdat any

$_ZNK9__gnu_cxx16__aligned_membufISt4pairIK10opp_stringS2_EE6_M_ptrEv = comdat any

$_ZNK9__gnu_cxx16__aligned_membufISt4pairIK10opp_stringS2_EE7_M_addrEv = comdat any

$_ZNKSt8_Rb_treeI10opp_stringSt4pairIKS0_S0_ESt10_Select1stIS3_ESt4lessIS0_ESaIS3_EE8key_compEv = comdat any

$_ZNK10opp_stringltERKS_ = comdat any

$_ZNSt13_Rb_tree_nodeISt4pairIK10opp_stringS1_EE9_M_valptrEv = comdat any

$_ZN9__gnu_cxx16__aligned_membufISt4pairIK10opp_stringS2_EE6_M_ptrEv = comdat any

$_ZN9__gnu_cxx16__aligned_membufISt4pairIK10opp_stringS2_EE7_M_addrEv = comdat any

$_ZNSt8_Rb_treeI10opp_stringSt4pairIKS0_S0_ESt10_Select1stIS3_ESt4lessIS0_ESaIS3_EE14_M_create_nodeIJRKSt21piecewise_construct_tSt5tupleIJOS0_EESE_IJEEEEEPSt13_Rb_tree_nodeIS3_EDpOT_ = comdat any

$_ZSt7forwardIRKSt21piecewise_construct_tEOT_RNSt16remove_referenceIS3_E4typeE = comdat any

$_ZSt7forwardISt5tupleIJO10opp_stringEEEOT_RNSt16remove_referenceIS4_E4typeE = comdat any

$_ZSt7forwardISt5tupleIJEEEOT_RNSt16remove_referenceIS2_E4typeE = comdat any

$_ZNSt8_Rb_treeI10opp_stringSt4pairIKS0_S0_ESt10_Select1stIS3_ESt4lessIS0_ESaIS3_EE29_M_get_insert_hint_unique_posESt23_Rb_tree_const_iteratorIS3_ERS2_ = comdat any

$_ZNSt8_Rb_treeI10opp_stringSt4pairIKS0_S0_ESt10_Select1stIS3_ESt4lessIS0_ESaIS3_EE14_M_insert_nodeEPSt18_Rb_tree_node_baseSB_PSt13_Rb_tree_nodeIS3_E = comdat any

$_ZNSt8_Rb_treeI10opp_stringSt4pairIKS0_S0_ESt10_Select1stIS3_ESt4lessIS0_ESaIS3_EE12_M_drop_nodeEPSt13_Rb_tree_nodeIS3_E = comdat any

$_ZNSt8_Rb_treeI10opp_stringSt4pairIKS0_S0_ESt10_Select1stIS3_ESt4lessIS0_ESaIS3_EE11_M_get_nodeEv = comdat any

$_ZNSt8_Rb_treeI10opp_stringSt4pairIKS0_S0_ESt10_Select1stIS3_ESt4lessIS0_ESaIS3_EE17_M_construct_nodeIJRKSt21piecewise_construct_tSt5tupleIJOS0_EESE_IJEEEEEvPSt13_Rb_tree_nodeIS3_EDpOT_ = comdat any

$_ZNSt16allocator_traitsISaISt13_Rb_tree_nodeISt4pairIK10opp_stringS2_EEEE8allocateERS6_m = comdat any

$_ZNSt8_Rb_treeI10opp_stringSt4pairIKS0_S0_ESt10_Select1stIS3_ESt4lessIS0_ESaIS3_EE21_M_get_Node_allocatorEv = comdat any

$_ZN9__gnu_cxx13new_allocatorISt13_Rb_tree_nodeISt4pairIK10opp_stringS3_EEE8allocateEmPKv = comdat any

$_ZNK9__gnu_cxx13new_allocatorISt13_Rb_tree_nodeISt4pairIK10opp_stringS3_EEE11_M_max_sizeEv = comdat any

$_ZNSt16allocator_traitsISaISt13_Rb_tree_nodeISt4pairIK10opp_stringS2_EEEE9constructIS4_JRKSt21piecewise_construct_tSt5tupleIJOS2_EESC_IJEEEEEvRS6_PT_DpOT0_ = comdat any

$_ZNSt8_Rb_treeI10opp_stringSt4pairIKS0_S0_ESt10_Select1stIS3_ESt4lessIS0_ESaIS3_EE11_M_put_nodeEPSt13_Rb_tree_nodeIS3_E = comdat any

$_ZN9__gnu_cxx13new_allocatorISt13_Rb_tree_nodeISt4pairIK10opp_stringS3_EEE9constructIS5_JRKSt21piecewise_construct_tSt5tupleIJOS3_EESC_IJEEEEEvPT_DpOT0_ = comdat any

$_ZNSt5tupleIJO10opp_stringEEC2EOS2_ = comdat any

$_ZNSt4pairIK10opp_stringS0_EC2IJOS0_EJEEESt21piecewise_construct_tSt5tupleIJDpT_EES6_IJDpT0_EE = comdat any

$_ZNSt11_Tuple_implILm0EJO10opp_stringEEC2EOS2_ = comdat any

$_ZSt7forwardIO10opp_stringEOT_RNSt16remove_referenceIS2_E4typeE = comdat any

$_ZNSt11_Tuple_implILm0EJO10opp_stringEE7_M_headERS2_ = comdat any

$_ZNSt10_Head_baseILm0EO10opp_stringLb0EEC2IS0_EEOT_ = comdat any

$_ZNSt10_Head_baseILm0EO10opp_stringLb0EE7_M_headERS2_ = comdat any

$_ZSt7forwardI10opp_stringEOT_RNSt16remove_referenceIS1_E4typeE = comdat any

$_ZNSt4pairIK10opp_stringS0_EC2IJOS0_EJLm0EEJEJEEERSt5tupleIJDpT_EERS5_IJDpT1_EESt12_Index_tupleIJXspT0_EEESE_IJXspT2_EEE = comdat any

$_ZSt3getILm0EJO10opp_stringEERNSt13tuple_elementIXT_ESt5tupleIJDpT0_EEE4typeERS6_ = comdat any

$_ZN10opp_stringC2ERKS_ = comdat any

$_ZN10opp_stringC2Ev = comdat any

$_ZSt12__get_helperILm0EO10opp_stringJEERT0_RSt11_Tuple_implIXT_EJS2_DpT1_EE = comdat any

$_ZNSt16allocator_traitsISaISt13_Rb_tree_nodeISt4pairIK10opp_stringS2_EEEE10deallocateERS6_PS5_m = comdat any

$_ZN9__gnu_cxx13new_allocatorISt13_Rb_tree_nodeISt4pairIK10opp_stringS3_EEE10deallocateEPS6_m = comdat any

$_ZNKSt23_Rb_tree_const_iteratorISt4pairIK10opp_stringS1_EE13_M_const_castEv = comdat any

$_ZNKSt8_Rb_treeI10opp_stringSt4pairIKS0_S0_ESt10_Select1stIS3_ESt4lessIS0_ESaIS3_EE4sizeEv = comdat any

$_ZNSt8_Rb_treeI10opp_stringSt4pairIKS0_S0_ESt10_Select1stIS3_ESt4lessIS0_ESaIS3_EE6_S_keyEPKSt18_Rb_tree_node_base = comdat any

$_ZNSt8_Rb_treeI10opp_stringSt4pairIKS0_S0_ESt10_Select1stIS3_ESt4lessIS0_ESaIS3_EE12_M_rightmostEv = comdat any

$_ZNSt4pairIPSt18_Rb_tree_node_baseS1_EC2IRS1_Lb1EEERKS1_OT_ = comdat any

$_ZNSt8_Rb_treeI10opp_stringSt4pairIKS0_S0_ESt10_Select1stIS3_ESt4lessIS0_ESaIS3_EE24_M_get_insert_unique_posERS2_ = comdat any

$_ZNSt8_Rb_treeI10opp_stringSt4pairIKS0_S0_ESt10_Select1stIS3_ESt4lessIS0_ESaIS3_EE11_M_leftmostEv = comdat any

$_ZNSt4pairIPSt18_Rb_tree_node_baseS1_EC2IRS1_S4_Lb1EEEOT_OT0_ = comdat any

$_ZNSt17_Rb_tree_iteratorISt4pairIK10opp_stringS1_EEmmEv = comdat any

$_ZNSt17_Rb_tree_iteratorISt4pairIK10opp_stringS1_EEppEv = comdat any

$_ZNSt4pairIPSt18_Rb_tree_node_baseS1_EC2IRS1_Lb1EEEOT_RKS1_ = comdat any

$_ZSt7forwardIRPSt18_Rb_tree_node_baseEOT_RNSt16remove_referenceIS3_E4typeE = comdat any

$_ZNSt8_Rb_treeI10opp_stringSt4pairIKS0_S0_ESt10_Select1stIS3_ESt4lessIS0_ESaIS3_EE5beginEv = comdat any

$_ZNSt4pairIPSt18_Rb_tree_node_baseS1_EC2IRPSt13_Rb_tree_nodeIS_IK10opp_stringS5_EERS1_Lb1EEEOT_OT0_ = comdat any

$_ZSt7forwardIRPSt13_Rb_tree_nodeISt4pairIK10opp_stringS2_EEEOT_RNSt16remove_referenceIS8_E4typeE = comdat any

$_ZNSt8_Rb_treeI10opp_stringSt4pairIKS0_S0_ESt10_Select1stIS3_ESt4lessIS0_ESaIS3_EE15_M_destroy_nodeEPSt13_Rb_tree_nodeIS3_E = comdat any

$_ZNSt16allocator_traitsISaISt13_Rb_tree_nodeISt4pairIK10opp_stringS2_EEEE7destroyIS4_EEvRS6_PT_ = comdat any

$_ZN9__gnu_cxx13new_allocatorISt13_Rb_tree_nodeISt4pairIK10opp_stringS3_EEE7destroyIS5_EEvPT_ = comdat any

$_ZNSt4pairIK10opp_stringS0_ED2Ev = comdat any

$_ZNSt5tupleIJO10opp_stringEEC2IJS0_ELb1ELb1EEEDpOT_ = comdat any

$_ZNSt11_Tuple_implILm0EJO10opp_stringEEC2IS0_EEOT_ = comdat any

$_ZNSt8_Rb_treeI10opp_stringSt4pairIKS0_S0_ESt10_Select1stIS3_ESt4lessIS0_ESaIS3_EE5clearEv = comdat any

$_ZNSt8_Rb_treeI10opp_stringSt4pairIKS0_S0_ESt10_Select1stIS3_ESt4lessIS0_ESaIS3_EE8_M_eraseEPSt13_Rb_tree_nodeIS3_E = comdat any

$_ZNSt15_Rb_tree_header8_M_resetEv = comdat any

$_ZNSt8_Rb_treeI10opp_stringSt4pairIKS0_S0_ESt10_Select1stIS3_ESt4lessIS0_ESaIS3_EE3endEv = comdat any

$_ZTS13cRuntimeError = comdat any

$_ZTS10cException = comdat any

$_ZTI10cException = comdat any

$_ZTI13cRuntimeError = comdat any

$_ZTV10cException = comdat any

@_ZStL8__ioinit = internal global %"class.std::ios_base::Init" zeroinitializer, align 1, !dbg !0
@__dso_handle = external hidden global i8
@.str = private unnamed_addr constant [6 x i8] c"runid\00", align 1
@.str.1 = private unnamed_addr constant [8 x i8] c"run %s\0A\00", align 1
@.str.2 = private unnamed_addr constant [37 x i8] c"Cannot write output vector file `%s'\00", align 1
@_ZTVN10__cxxabiv120__si_class_type_infoE = external dso_local global i8*
@_ZTS13cRuntimeError = linkonce_odr dso_local constant [16 x i8] c"13cRuntimeError\00", comdat, align 1
@_ZTS10cException = linkonce_odr dso_local constant [13 x i8] c"10cException\00", comdat, align 1
@_ZTISt9exception = external dso_local constant i8*
@_ZTI10cException = linkonce_odr dso_local constant { i8*, i8*, i8* } { i8* bitcast (i8** getelementptr inbounds (i8*, i8** @_ZTVN10__cxxabiv120__si_class_type_infoE, i64 2) to i8*), i8* getelementptr inbounds ([13 x i8], [13 x i8]* @_ZTS10cException, i32 0, i32 0), i8* bitcast (i8** @_ZTISt9exception to i8*) }, comdat, align 8
@_ZTI13cRuntimeError = linkonce_odr dso_local constant { i8*, i8*, i8* } { i8* bitcast (i8** getelementptr inbounds (i8*, i8** @_ZTVN10__cxxabiv120__si_class_type_infoE, i64 2) to i8*), i8* getelementptr inbounds ([16 x i8], [16 x i8]* @_ZTS13cRuntimeError, i32 0, i32 0), i8* bitcast ({ i8*, i8*, i8* }* @_ZTI10cException to i8*) }, comdat, align 8
@.str.3 = private unnamed_addr constant [12 x i8] c"attr %s %s\0A\00", align 1
@.str.4 = private unnamed_addr constant [13 x i8] c"param %s %s\0A\00", align 1
@.str.5 = private unnamed_addr constant [2 x i8] c"\0A\00", align 1
@_ZN11cSimulation5evPtrE = external dso_local global %class.cEnvir*, align 8
@.str.6 = private unnamed_addr constant [1 x i8] zeroinitializer, align 1
@_ZTV10cException = linkonce_odr dso_local unnamed_addr constant { [13 x i8*] } { [13 x i8*] [i8* null, i8* bitcast ({ i8*, i8*, i8* }* @_ZTI10cException to i8*), i8* bitcast (void (%class.cException*)* @_ZN10cExceptionD2Ev to i8*), i8* bitcast (void (%class.cException*)* @_ZN10cExceptionD0Ev to i8*), i8* bitcast (i8* (%class.cException*)* @_ZNK10cException4whatEv to i8*), i8* bitcast (%class.cException* (%class.cException*)* @_ZNK10cException3dupEv to i8*), i8* bitcast (i32 (%class.cException*)* @_ZNK10cException12getErrorCodeEv to i8*), i8* bitcast (void (%class.cException*, i8*)* @_ZN10cException10setMessageEPKc to i8*), i8* bitcast (void (%class.cException*, i8*)* @_ZN10cException14prependMessageEPKc to i8*), i8* bitcast (i1 (%class.cException*)* @_ZNK10cException10hasContextEv to i8*), i8* bitcast (i8* (%class.cException*)* @_ZNK10cException19getContextClassNameEv to i8*), i8* bitcast (i8* (%class.cException*)* @_ZNK10cException18getContextFullPathEv to i8*), i8* bitcast (i32 (%class.cException*)* @_ZNK10cException11getModuleIDEv to i8*)] }, comdat, align 8
@.str.7 = private unnamed_addr constant [3 x i8] c": \00", align 1
@_ZStL19piecewise_construct = internal constant %"struct.std::piecewise_construct_t" undef, align 1, !dbg !28
@llvm.global_ctors = appending global [1 x { i32, void ()*, i8* }] [{ i32, void ()*, i8* } { i32 65535, void ()* @_GLOBAL__sub_I_runattributes.cc, i8* null }]

; Function Attrs: noinline uwtable
define internal void @__cxx_global_var_init() #0 section ".text.startup" !dbg !2349 {
entry:
  call void @_ZNSt8ios_base4InitC1Ev(%"class.std::ios_base::Init"* @_ZStL8__ioinit), !dbg !2350
  %0 = call i32 @__cxa_atexit(void (i8*)* bitcast (void (%"class.std::ios_base::Init"*)* @_ZNSt8ios_base4InitD1Ev to void (i8*)*), i8* getelementptr inbounds (%"class.std::ios_base::Init", %"class.std::ios_base::Init"* @_ZStL8__ioinit, i32 0, i32 0), i8* @__dso_handle) #3, !dbg !2350
  ret void, !dbg !2350
}

declare dso_local void @_ZNSt8ios_base4InitC1Ev(%"class.std::ios_base::Init"*) unnamed_addr #1

; Function Attrs: nounwind
declare dso_local void @_ZNSt8ios_base4InitD1Ev(%"class.std::ios_base::Init"*) unnamed_addr #2

; Function Attrs: nounwind
declare dso_local i32 @__cxa_atexit(void (i8*)*, i8*, i8*) #3

; Function Attrs: noinline uwtable
define dso_local void @_ZN8sRunData7initRunEv(%struct.sRunData* %this) #0 align 2 personality i8* bitcast (i32 (...)* @__gxx_personality_v0 to i8*) !dbg !2351 {
entry:
  %this.addr = alloca %struct.sRunData*, align 8
  %cfg = alloca %class.cConfigurationEx*, align 8
  %keys1 = alloca %"class.std::vector", align 8
  %i = alloca i32, align 4
  %exn.slot = alloca i8*
  %ehselector.slot = alloca i32
  %ref.tmp = alloca %class.opp_string, align 8
  %keys2 = alloca %"class.std::vector", align 8
  %i32 = alloca i32, align 4
  %ref.tmp46 = alloca %class.opp_string, align 8
  %params = alloca %"class.std::vector", align 8
  %i61 = alloca i32, align 4
  %ref.tmp69 = alloca %class.opp_string, align 8
  store %struct.sRunData* %this, %struct.sRunData** %this.addr, align 8
  call void @llvm.dbg.declare(metadata %struct.sRunData** %this.addr, metadata !2550, metadata !DIExpression()), !dbg !2552
  %this1 = load %struct.sRunData*, %struct.sRunData** %this.addr, align 8
  %initialized = getelementptr inbounds %struct.sRunData, %struct.sRunData* %this1, i32 0, i32 0, !dbg !2553
  %0 = load i8, i8* %initialized, align 8, !dbg !2553
  %tobool = trunc i8 %0 to i1, !dbg !2553
  br i1 %tobool, label %if.end85, label %if.then, !dbg !2555

if.then:                                          ; preds = %entry
  call void @llvm.dbg.declare(metadata %class.cConfigurationEx** %cfg, metadata !2556, metadata !DIExpression()), !dbg !2561
  %call = call %class.cEnvir* @_ZN11cSimulation14getActiveEnvirEv(), !dbg !2562
  %1 = bitcast %class.cEnvir* %call to %class.cConfigurationEx* (%class.cEnvir*)***, !dbg !2563
  %vtable = load %class.cConfigurationEx* (%class.cEnvir*)**, %class.cConfigurationEx* (%class.cEnvir*)*** %1, align 8, !dbg !2563
  %vfn = getelementptr inbounds %class.cConfigurationEx* (%class.cEnvir*)*, %class.cConfigurationEx* (%class.cEnvir*)** %vtable, i64 32, !dbg !2563
  %2 = load %class.cConfigurationEx* (%class.cEnvir*)*, %class.cConfigurationEx* (%class.cEnvir*)** %vfn, align 8, !dbg !2563
  %call2 = call %class.cConfigurationEx* %2(%class.cEnvir* %call), !dbg !2563
  store %class.cConfigurationEx* %call2, %class.cConfigurationEx** %cfg, align 8, !dbg !2561
  %3 = load %class.cConfigurationEx*, %class.cConfigurationEx** %cfg, align 8, !dbg !2564
  %4 = bitcast %class.cConfigurationEx* %3 to i8* (%class.cConfigurationEx*, i8*)***, !dbg !2565
  %vtable3 = load i8* (%class.cConfigurationEx*, i8*)**, i8* (%class.cConfigurationEx*, i8*)*** %4, align 8, !dbg !2565
  %vfn4 = getelementptr inbounds i8* (%class.cConfigurationEx*, i8*)*, i8* (%class.cConfigurationEx*, i8*)** %vtable3, i64 51, !dbg !2565
  %5 = load i8* (%class.cConfigurationEx*, i8*)*, i8* (%class.cConfigurationEx*, i8*)** %vfn4, align 8, !dbg !2565
  %call5 = call i8* %5(%class.cConfigurationEx* %3, i8* getelementptr inbounds ([6 x i8], [6 x i8]* @.str, i64 0, i64 0)), !dbg !2565
  %runId = getelementptr inbounds %struct.sRunData, %struct.sRunData* %this1, i32 0, i32 1, !dbg !2566
  %call6 = call i8* @_ZN10opp_stringaSEPKc(%class.opp_string* %runId, i8* %call5), !dbg !2567
  call void @llvm.dbg.declare(metadata %"class.std::vector"* %keys1, metadata !2568, metadata !DIExpression()), !dbg !3001
  %6 = load %class.cConfigurationEx*, %class.cConfigurationEx** %cfg, align 8, !dbg !3002
  %7 = bitcast %class.cConfigurationEx* %6 to void (%"class.std::vector"*, %class.cConfigurationEx*)***, !dbg !3003
  %vtable7 = load void (%"class.std::vector"*, %class.cConfigurationEx*)**, void (%"class.std::vector"*, %class.cConfigurationEx*)*** %7, align 8, !dbg !3003
  %vfn8 = getelementptr inbounds void (%"class.std::vector"*, %class.cConfigurationEx*)*, void (%"class.std::vector"*, %class.cConfigurationEx*)** %vtable7, i64 53, !dbg !3003
  %8 = load void (%"class.std::vector"*, %class.cConfigurationEx*)*, void (%"class.std::vector"*, %class.cConfigurationEx*)** %vfn8, align 8, !dbg !3003
  call void %8(%"class.std::vector"* sret %keys1, %class.cConfigurationEx* %6), !dbg !3003
  call void @llvm.dbg.declare(metadata i32* %i, metadata !3004, metadata !DIExpression()), !dbg !3006
  store i32 0, i32* %i, align 4, !dbg !3006
  br label %for.cond, !dbg !3007

for.cond:                                         ; preds = %for.inc, %if.then
  %9 = load i32, i32* %i, align 4, !dbg !3008
  %call9 = call i64 @_ZNKSt6vectorIPKcSaIS1_EE4sizeEv(%"class.std::vector"* %keys1) #3, !dbg !3010
  %conv = trunc i64 %call9 to i32, !dbg !3011
  %cmp = icmp slt i32 %9, %conv, !dbg !3012
  br i1 %cmp, label %for.body, label %for.end, !dbg !3013

for.body:                                         ; preds = %for.cond
  %10 = load i32, i32* %i, align 4, !dbg !3014
  %conv10 = sext i32 %10 to i64, !dbg !3014
  %call11 = call dereferenceable(8) i8** @_ZNSt6vectorIPKcSaIS1_EEixEm(%"class.std::vector"* %keys1, i64 %conv10) #3, !dbg !3016
  %11 = load i8*, i8** %call11, align 8, !dbg !3016
  %call12 = invoke i32 @_Z10opp_strcmpPKcS0_(i8* %11, i8* getelementptr inbounds ([6 x i8], [6 x i8]* @.str, i64 0, i64 0))
          to label %invoke.cont unwind label %lpad, !dbg !3017

invoke.cont:                                      ; preds = %for.body
  %cmp13 = icmp ne i32 %call12, 0, !dbg !3018
  br i1 %cmp13, label %if.then14, label %if.end, !dbg !3019

if.then14:                                        ; preds = %invoke.cont
  %12 = load %class.cConfigurationEx*, %class.cConfigurationEx** %cfg, align 8, !dbg !3020
  %13 = load i32, i32* %i, align 4, !dbg !3021
  %conv15 = sext i32 %13 to i64, !dbg !3021
  %call16 = call dereferenceable(8) i8** @_ZNSt6vectorIPKcSaIS1_EEixEm(%"class.std::vector"* %keys1, i64 %conv15) #3, !dbg !3022
  %14 = load i8*, i8** %call16, align 8, !dbg !3022
  %15 = bitcast %class.cConfigurationEx* %12 to i8* (%class.cConfigurationEx*, i8*)***, !dbg !3023
  %vtable17 = load i8* (%class.cConfigurationEx*, i8*)**, i8* (%class.cConfigurationEx*, i8*)*** %15, align 8, !dbg !3023
  %vfn18 = getelementptr inbounds i8* (%class.cConfigurationEx*, i8*)*, i8* (%class.cConfigurationEx*, i8*)** %vtable17, i64 51, !dbg !3023
  %16 = load i8* (%class.cConfigurationEx*, i8*)*, i8* (%class.cConfigurationEx*, i8*)** %vfn18, align 8, !dbg !3023
  %call20 = invoke i8* %16(%class.cConfigurationEx* %12, i8* %14)
          to label %invoke.cont19 unwind label %lpad, !dbg !3023

invoke.cont19:                                    ; preds = %if.then14
  %attributes = getelementptr inbounds %struct.sRunData, %struct.sRunData* %this1, i32 0, i32 2, !dbg !3024
  %17 = bitcast %class.opp_string_map* %attributes to %"class.std::map"*, !dbg !3024
  %18 = load i32, i32* %i, align 4, !dbg !3025
  %conv21 = sext i32 %18 to i64, !dbg !3025
  %call22 = call dereferenceable(8) i8** @_ZNSt6vectorIPKcSaIS1_EEixEm(%"class.std::vector"* %keys1, i64 %conv21) #3, !dbg !3026
  %19 = load i8*, i8** %call22, align 8, !dbg !3026
  invoke void @_ZN10opp_stringC2EPKc(%class.opp_string* %ref.tmp, i8* %19)
          to label %invoke.cont23 unwind label %lpad, !dbg !3026

invoke.cont23:                                    ; preds = %invoke.cont19
  %call26 = invoke dereferenceable(8) %class.opp_string* @_ZNSt3mapI10opp_stringS0_St4lessIS0_ESaISt4pairIKS0_S0_EEEixEOS0_(%"class.std::map"* %17, %class.opp_string* dereferenceable(8) %ref.tmp)
          to label %invoke.cont25 unwind label %lpad24, !dbg !3024

invoke.cont25:                                    ; preds = %invoke.cont23
  %call28 = invoke i8* @_ZN10opp_stringaSEPKc(%class.opp_string* %call26, i8* %call20)
          to label %invoke.cont27 unwind label %lpad24, !dbg !3027

invoke.cont27:                                    ; preds = %invoke.cont25
  call void @_ZN10opp_stringD2Ev(%class.opp_string* %ref.tmp) #3, !dbg !3024
  br label %if.end, !dbg !3024

lpad:                                             ; preds = %for.end, %invoke.cont19, %if.then14, %for.body
  %20 = landingpad { i8*, i32 }
          cleanup, !dbg !3028
  %21 = extractvalue { i8*, i32 } %20, 0, !dbg !3028
  store i8* %21, i8** %exn.slot, align 8, !dbg !3028
  %22 = extractvalue { i8*, i32 } %20, 1, !dbg !3028
  store i32 %22, i32* %ehselector.slot, align 4, !dbg !3028
  br label %ehcleanup84, !dbg !3028

lpad24:                                           ; preds = %invoke.cont25, %invoke.cont23
  %23 = landingpad { i8*, i32 }
          cleanup, !dbg !3028
  %24 = extractvalue { i8*, i32 } %23, 0, !dbg !3028
  store i8* %24, i8** %exn.slot, align 8, !dbg !3028
  %25 = extractvalue { i8*, i32 } %23, 1, !dbg !3028
  store i32 %25, i32* %ehselector.slot, align 4, !dbg !3028
  call void @_ZN10opp_stringD2Ev(%class.opp_string* %ref.tmp) #3, !dbg !3024
  br label %ehcleanup84, !dbg !3024

if.end:                                           ; preds = %invoke.cont27, %invoke.cont
  br label %for.inc, !dbg !3029

for.inc:                                          ; preds = %if.end
  %26 = load i32, i32* %i, align 4, !dbg !3030
  %inc = add nsw i32 %26, 1, !dbg !3030
  store i32 %inc, i32* %i, align 4, !dbg !3030
  br label %for.cond, !dbg !3031, !llvm.loop !3032

for.end:                                          ; preds = %for.cond
  call void @llvm.dbg.declare(metadata %"class.std::vector"* %keys2, metadata !3034, metadata !DIExpression()), !dbg !3035
  %27 = load %class.cConfigurationEx*, %class.cConfigurationEx** %cfg, align 8, !dbg !3036
  %28 = bitcast %class.cConfigurationEx* %27 to void (%"class.std::vector"*, %class.cConfigurationEx*)***, !dbg !3037
  %vtable29 = load void (%"class.std::vector"*, %class.cConfigurationEx*)**, void (%"class.std::vector"*, %class.cConfigurationEx*)*** %28, align 8, !dbg !3037
  %vfn30 = getelementptr inbounds void (%"class.std::vector"*, %class.cConfigurationEx*)*, void (%"class.std::vector"*, %class.cConfigurationEx*)** %vtable29, i64 52, !dbg !3037
  %29 = load void (%"class.std::vector"*, %class.cConfigurationEx*)*, void (%"class.std::vector"*, %class.cConfigurationEx*)** %vfn30, align 8, !dbg !3037
  invoke void %29(%"class.std::vector"* sret %keys2, %class.cConfigurationEx* %27)
          to label %invoke.cont31 unwind label %lpad, !dbg !3037

invoke.cont31:                                    ; preds = %for.end
  call void @llvm.dbg.declare(metadata i32* %i32, metadata !3038, metadata !DIExpression()), !dbg !3040
  store i32 0, i32* %i32, align 4, !dbg !3040
  br label %for.cond33, !dbg !3041

for.cond33:                                       ; preds = %for.inc55, %invoke.cont31
  %30 = load i32, i32* %i32, align 4, !dbg !3042
  %call34 = call i64 @_ZNKSt6vectorIPKcSaIS1_EE4sizeEv(%"class.std::vector"* %keys2) #3, !dbg !3044
  %conv35 = trunc i64 %call34 to i32, !dbg !3045
  %cmp36 = icmp slt i32 %30, %conv35, !dbg !3046
  br i1 %cmp36, label %for.body37, label %for.end57, !dbg !3047

for.body37:                                       ; preds = %for.cond33
  %31 = load %class.cConfigurationEx*, %class.cConfigurationEx** %cfg, align 8, !dbg !3048
  %32 = load i32, i32* %i32, align 4, !dbg !3049
  %conv38 = sext i32 %32 to i64, !dbg !3049
  %call39 = call dereferenceable(8) i8** @_ZNSt6vectorIPKcSaIS1_EEixEm(%"class.std::vector"* %keys2, i64 %conv38) #3, !dbg !3050
  %33 = load i8*, i8** %call39, align 8, !dbg !3050
  %34 = bitcast %class.cConfigurationEx* %31 to i8* (%class.cConfigurationEx*, i8*)***, !dbg !3051
  %vtable40 = load i8* (%class.cConfigurationEx*, i8*)**, i8* (%class.cConfigurationEx*, i8*)*** %34, align 8, !dbg !3051
  %vfn41 = getelementptr inbounds i8* (%class.cConfigurationEx*, i8*)*, i8* (%class.cConfigurationEx*, i8*)** %vtable40, i64 51, !dbg !3051
  %35 = load i8* (%class.cConfigurationEx*, i8*)*, i8* (%class.cConfigurationEx*, i8*)** %vfn41, align 8, !dbg !3051
  %call44 = invoke i8* %35(%class.cConfigurationEx* %31, i8* %33)
          to label %invoke.cont43 unwind label %lpad42, !dbg !3051

invoke.cont43:                                    ; preds = %for.body37
  %attributes45 = getelementptr inbounds %struct.sRunData, %struct.sRunData* %this1, i32 0, i32 2, !dbg !3052
  %36 = bitcast %class.opp_string_map* %attributes45 to %"class.std::map"*, !dbg !3052
  %37 = load i32, i32* %i32, align 4, !dbg !3053
  %conv47 = sext i32 %37 to i64, !dbg !3053
  %call48 = call dereferenceable(8) i8** @_ZNSt6vectorIPKcSaIS1_EEixEm(%"class.std::vector"* %keys2, i64 %conv47) #3, !dbg !3054
  %38 = load i8*, i8** %call48, align 8, !dbg !3054
  invoke void @_ZN10opp_stringC2EPKc(%class.opp_string* %ref.tmp46, i8* %38)
          to label %invoke.cont49 unwind label %lpad42, !dbg !3054

invoke.cont49:                                    ; preds = %invoke.cont43
  %call52 = invoke dereferenceable(8) %class.opp_string* @_ZNSt3mapI10opp_stringS0_St4lessIS0_ESaISt4pairIKS0_S0_EEEixEOS0_(%"class.std::map"* %36, %class.opp_string* dereferenceable(8) %ref.tmp46)
          to label %invoke.cont51 unwind label %lpad50, !dbg !3052

invoke.cont51:                                    ; preds = %invoke.cont49
  %call54 = invoke i8* @_ZN10opp_stringaSEPKc(%class.opp_string* %call52, i8* %call44)
          to label %invoke.cont53 unwind label %lpad50, !dbg !3055

invoke.cont53:                                    ; preds = %invoke.cont51
  call void @_ZN10opp_stringD2Ev(%class.opp_string* %ref.tmp46) #3, !dbg !3052
  br label %for.inc55, !dbg !3052

for.inc55:                                        ; preds = %invoke.cont53
  %39 = load i32, i32* %i32, align 4, !dbg !3056
  %inc56 = add nsw i32 %39, 1, !dbg !3056
  store i32 %inc56, i32* %i32, align 4, !dbg !3056
  br label %for.cond33, !dbg !3057, !llvm.loop !3058

lpad42:                                           ; preds = %for.end57, %invoke.cont43, %for.body37
  %40 = landingpad { i8*, i32 }
          cleanup, !dbg !3060
  %41 = extractvalue { i8*, i32 } %40, 0, !dbg !3060
  store i8* %41, i8** %exn.slot, align 8, !dbg !3060
  %42 = extractvalue { i8*, i32 } %40, 1, !dbg !3060
  store i32 %42, i32* %ehselector.slot, align 4, !dbg !3060
  br label %ehcleanup83, !dbg !3060

lpad50:                                           ; preds = %invoke.cont51, %invoke.cont49
  %43 = landingpad { i8*, i32 }
          cleanup, !dbg !3060
  %44 = extractvalue { i8*, i32 } %43, 0, !dbg !3060
  store i8* %44, i8** %exn.slot, align 8, !dbg !3060
  %45 = extractvalue { i8*, i32 } %43, 1, !dbg !3060
  store i32 %45, i32* %ehselector.slot, align 4, !dbg !3060
  call void @_ZN10opp_stringD2Ev(%class.opp_string* %ref.tmp46) #3, !dbg !3052
  br label %ehcleanup83, !dbg !3052

for.end57:                                        ; preds = %for.cond33
  call void @llvm.dbg.declare(metadata %"class.std::vector"* %params, metadata !3061, metadata !DIExpression()), !dbg !3062
  %46 = load %class.cConfigurationEx*, %class.cConfigurationEx** %cfg, align 8, !dbg !3063
  %47 = bitcast %class.cConfigurationEx* %46 to void (%"class.std::vector"*, %class.cConfigurationEx*)***, !dbg !3064
  %vtable58 = load void (%"class.std::vector"*, %class.cConfigurationEx*)**, void (%"class.std::vector"*, %class.cConfigurationEx*)*** %47, align 8, !dbg !3064
  %vfn59 = getelementptr inbounds void (%"class.std::vector"*, %class.cConfigurationEx*)*, void (%"class.std::vector"*, %class.cConfigurationEx*)** %vtable58, i64 59, !dbg !3064
  %48 = load void (%"class.std::vector"*, %class.cConfigurationEx*)*, void (%"class.std::vector"*, %class.cConfigurationEx*)** %vfn59, align 8, !dbg !3064
  invoke void %48(%"class.std::vector"* sret %params, %class.cConfigurationEx* %46)
          to label %invoke.cont60 unwind label %lpad42, !dbg !3064

invoke.cont60:                                    ; preds = %for.end57
  call void @llvm.dbg.declare(metadata i32* %i61, metadata !3065, metadata !DIExpression()), !dbg !3067
  store i32 0, i32* %i61, align 4, !dbg !3067
  br label %for.cond62, !dbg !3068

for.cond62:                                       ; preds = %for.inc79, %invoke.cont60
  %49 = load i32, i32* %i61, align 4, !dbg !3069
  %call63 = call i64 @_ZNKSt6vectorIPKcSaIS1_EE4sizeEv(%"class.std::vector"* %params) #3, !dbg !3071
  %conv64 = trunc i64 %call63 to i32, !dbg !3072
  %cmp65 = icmp slt i32 %49, %conv64, !dbg !3073
  br i1 %cmp65, label %for.body66, label %for.end81, !dbg !3074

for.body66:                                       ; preds = %for.cond62
  %50 = load i32, i32* %i61, align 4, !dbg !3075
  %add = add nsw i32 %50, 1, !dbg !3076
  %conv67 = sext i32 %add to i64, !dbg !3075
  %call68 = call dereferenceable(8) i8** @_ZNSt6vectorIPKcSaIS1_EEixEm(%"class.std::vector"* %params, i64 %conv67) #3, !dbg !3077
  %51 = load i8*, i8** %call68, align 8, !dbg !3077
  %moduleParams = getelementptr inbounds %struct.sRunData, %struct.sRunData* %this1, i32 0, i32 3, !dbg !3078
  %52 = bitcast %class.opp_string_map* %moduleParams to %"class.std::map"*, !dbg !3078
  %53 = load i32, i32* %i61, align 4, !dbg !3079
  %conv70 = sext i32 %53 to i64, !dbg !3079
  %call71 = call dereferenceable(8) i8** @_ZNSt6vectorIPKcSaIS1_EEixEm(%"class.std::vector"* %params, i64 %conv70) #3, !dbg !3080
  %54 = load i8*, i8** %call71, align 8, !dbg !3080
  invoke void @_ZN10opp_stringC2EPKc(%class.opp_string* %ref.tmp69, i8* %54)
          to label %invoke.cont73 unwind label %lpad72, !dbg !3080

invoke.cont73:                                    ; preds = %for.body66
  %call76 = invoke dereferenceable(8) %class.opp_string* @_ZNSt3mapI10opp_stringS0_St4lessIS0_ESaISt4pairIKS0_S0_EEEixEOS0_(%"class.std::map"* %52, %class.opp_string* dereferenceable(8) %ref.tmp69)
          to label %invoke.cont75 unwind label %lpad74, !dbg !3078

invoke.cont75:                                    ; preds = %invoke.cont73
  %call78 = invoke i8* @_ZN10opp_stringaSEPKc(%class.opp_string* %call76, i8* %51)
          to label %invoke.cont77 unwind label %lpad74, !dbg !3081

invoke.cont77:                                    ; preds = %invoke.cont75
  call void @_ZN10opp_stringD2Ev(%class.opp_string* %ref.tmp69) #3, !dbg !3078
  br label %for.inc79, !dbg !3078

for.inc79:                                        ; preds = %invoke.cont77
  %55 = load i32, i32* %i61, align 4, !dbg !3082
  %add80 = add nsw i32 %55, 2, !dbg !3082
  store i32 %add80, i32* %i61, align 4, !dbg !3082
  br label %for.cond62, !dbg !3083, !llvm.loop !3084

lpad72:                                           ; preds = %for.body66
  %56 = landingpad { i8*, i32 }
          cleanup, !dbg !3086
  %57 = extractvalue { i8*, i32 } %56, 0, !dbg !3086
  store i8* %57, i8** %exn.slot, align 8, !dbg !3086
  %58 = extractvalue { i8*, i32 } %56, 1, !dbg !3086
  store i32 %58, i32* %ehselector.slot, align 4, !dbg !3086
  br label %ehcleanup, !dbg !3086

lpad74:                                           ; preds = %invoke.cont75, %invoke.cont73
  %59 = landingpad { i8*, i32 }
          cleanup, !dbg !3086
  %60 = extractvalue { i8*, i32 } %59, 0, !dbg !3086
  store i8* %60, i8** %exn.slot, align 8, !dbg !3086
  %61 = extractvalue { i8*, i32 } %59, 1, !dbg !3086
  store i32 %61, i32* %ehselector.slot, align 4, !dbg !3086
  call void @_ZN10opp_stringD2Ev(%class.opp_string* %ref.tmp69) #3, !dbg !3078
  br label %ehcleanup, !dbg !3078

for.end81:                                        ; preds = %for.cond62
  %initialized82 = getelementptr inbounds %struct.sRunData, %struct.sRunData* %this1, i32 0, i32 0, !dbg !3087
  store i8 1, i8* %initialized82, align 8, !dbg !3088
  call void @_ZNSt6vectorIPKcSaIS1_EED2Ev(%"class.std::vector"* %params) #3, !dbg !3089
  call void @_ZNSt6vectorIPKcSaIS1_EED2Ev(%"class.std::vector"* %keys2) #3, !dbg !3089
  call void @_ZNSt6vectorIPKcSaIS1_EED2Ev(%"class.std::vector"* %keys1) #3, !dbg !3089
  br label %if.end85, !dbg !3090

ehcleanup:                                        ; preds = %lpad74, %lpad72
  call void @_ZNSt6vectorIPKcSaIS1_EED2Ev(%"class.std::vector"* %params) #3, !dbg !3089
  br label %ehcleanup83, !dbg !3089

ehcleanup83:                                      ; preds = %ehcleanup, %lpad50, %lpad42
  call void @_ZNSt6vectorIPKcSaIS1_EED2Ev(%"class.std::vector"* %keys2) #3, !dbg !3089
  br label %ehcleanup84, !dbg !3089

ehcleanup84:                                      ; preds = %ehcleanup83, %lpad24, %lpad
  call void @_ZNSt6vectorIPKcSaIS1_EED2Ev(%"class.std::vector"* %keys1) #3, !dbg !3089
  br label %eh.resume, !dbg !3089

if.end85:                                         ; preds = %for.end81, %entry
  ret void, !dbg !3091

eh.resume:                                        ; preds = %ehcleanup84
  %exn = load i8*, i8** %exn.slot, align 8, !dbg !3089
  %sel = load i32, i32* %ehselector.slot, align 4, !dbg !3089
  %lpad.val = insertvalue { i8*, i32 } undef, i8* %exn, 0, !dbg !3089
  %lpad.val86 = insertvalue { i8*, i32 } %lpad.val, i32 %sel, 1, !dbg !3089
  resume { i8*, i32 } %lpad.val86, !dbg !3089
}

; Function Attrs: nounwind readnone speculatable willreturn
declare void @llvm.dbg.declare(metadata, metadata, metadata) #4

; Function Attrs: noinline nounwind uwtable
define linkonce_odr dso_local %class.cEnvir* @_ZN11cSimulation14getActiveEnvirEv() #5 comdat align 2 !dbg !3092 {
entry:
  %0 = load %class.cEnvir*, %class.cEnvir** @_ZN11cSimulation5evPtrE, align 8, !dbg !3101
  ret %class.cEnvir* %0, !dbg !3102
}

; Function Attrs: noinline uwtable
define linkonce_odr dso_local i8* @_ZN10opp_stringaSEPKc(%class.opp_string* %this, i8* %s) #0 comdat align 2 !dbg !3103 {
entry:
  %this.addr = alloca %class.opp_string*, align 8
  %s.addr = alloca i8*, align 8
  store %class.opp_string* %this, %class.opp_string** %this.addr, align 8
  call void @llvm.dbg.declare(metadata %class.opp_string** %this.addr, metadata !3104, metadata !DIExpression()), !dbg !3106
  store i8* %s, i8** %s.addr, align 8
  call void @llvm.dbg.declare(metadata i8** %s.addr, metadata !3107, metadata !DIExpression()), !dbg !3108
  %this1 = load %class.opp_string*, %class.opp_string** %this.addr, align 8
  %str = getelementptr inbounds %class.opp_string, %class.opp_string* %this1, i32 0, i32 0, !dbg !3109
  %0 = load i8*, i8** %str, align 8, !dbg !3109
  %isnull = icmp eq i8* %0, null, !dbg !3110
  br i1 %isnull, label %delete.end, label %delete.notnull, !dbg !3110

delete.notnull:                                   ; preds = %entry
  call void @_ZdaPv(i8* %0) #13, !dbg !3110
  br label %delete.end, !dbg !3110

delete.end:                                       ; preds = %delete.notnull, %entry
  %1 = load i8*, i8** %s.addr, align 8, !dbg !3111
  %call = call i8* @_Z10opp_strdupPKc(i8* %1), !dbg !3112
  %str2 = getelementptr inbounds %class.opp_string, %class.opp_string* %this1, i32 0, i32 0, !dbg !3113
  store i8* %call, i8** %str2, align 8, !dbg !3114
  %str3 = getelementptr inbounds %class.opp_string, %class.opp_string* %this1, i32 0, i32 0, !dbg !3115
  %2 = load i8*, i8** %str3, align 8, !dbg !3115
  ret i8* %2, !dbg !3116
}

; Function Attrs: noinline nounwind uwtable
define linkonce_odr dso_local i64 @_ZNKSt6vectorIPKcSaIS1_EE4sizeEv(%"class.std::vector"* %this) #5 comdat align 2 !dbg !3117 {
entry:
  %this.addr = alloca %"class.std::vector"*, align 8
  store %"class.std::vector"* %this, %"class.std::vector"** %this.addr, align 8
  call void @llvm.dbg.declare(metadata %"class.std::vector"** %this.addr, metadata !3118, metadata !DIExpression()), !dbg !3120
  %this1 = load %"class.std::vector"*, %"class.std::vector"** %this.addr, align 8
  %0 = bitcast %"class.std::vector"* %this1 to %"struct.std::_Vector_base"*, !dbg !3121
  %_M_impl = getelementptr inbounds %"struct.std::_Vector_base", %"struct.std::_Vector_base"* %0, i32 0, i32 0, !dbg !3121
  %1 = bitcast %"struct.std::_Vector_base<const char *, std::allocator<const char *> >::_Vector_impl"* %_M_impl to %"struct.std::_Vector_base<const char *, std::allocator<const char *> >::_Vector_impl_data"*, !dbg !3122
  %_M_finish = getelementptr inbounds %"struct.std::_Vector_base<const char *, std::allocator<const char *> >::_Vector_impl_data", %"struct.std::_Vector_base<const char *, std::allocator<const char *> >::_Vector_impl_data"* %1, i32 0, i32 1, !dbg !3123
  %2 = load i8**, i8*** %_M_finish, align 8, !dbg !3123
  %3 = bitcast %"class.std::vector"* %this1 to %"struct.std::_Vector_base"*, !dbg !3124
  %_M_impl2 = getelementptr inbounds %"struct.std::_Vector_base", %"struct.std::_Vector_base"* %3, i32 0, i32 0, !dbg !3124
  %4 = bitcast %"struct.std::_Vector_base<const char *, std::allocator<const char *> >::_Vector_impl"* %_M_impl2 to %"struct.std::_Vector_base<const char *, std::allocator<const char *> >::_Vector_impl_data"*, !dbg !3125
  %_M_start = getelementptr inbounds %"struct.std::_Vector_base<const char *, std::allocator<const char *> >::_Vector_impl_data", %"struct.std::_Vector_base<const char *, std::allocator<const char *> >::_Vector_impl_data"* %4, i32 0, i32 0, !dbg !3126
  %5 = load i8**, i8*** %_M_start, align 8, !dbg !3126
  %sub.ptr.lhs.cast = ptrtoint i8** %2 to i64, !dbg !3127
  %sub.ptr.rhs.cast = ptrtoint i8** %5 to i64, !dbg !3127
  %sub.ptr.sub = sub i64 %sub.ptr.lhs.cast, %sub.ptr.rhs.cast, !dbg !3127
  %sub.ptr.div = sdiv exact i64 %sub.ptr.sub, 8, !dbg !3127
  ret i64 %sub.ptr.div, !dbg !3128
}

; Function Attrs: noinline nounwind uwtable
define linkonce_odr dso_local i32 @_Z10opp_strcmpPKcS0_(i8* %s1, i8* %s2) #5 comdat !dbg !3129 {
entry:
  %retval = alloca i32, align 4
  %s1.addr = alloca i8*, align 8
  %s2.addr = alloca i8*, align 8
  store i8* %s1, i8** %s1.addr, align 8
  call void @llvm.dbg.declare(metadata i8** %s1.addr, metadata !3131, metadata !DIExpression()), !dbg !3132
  store i8* %s2, i8** %s2.addr, align 8
  call void @llvm.dbg.declare(metadata i8** %s2.addr, metadata !3133, metadata !DIExpression()), !dbg !3134
  %0 = load i8*, i8** %s1.addr, align 8, !dbg !3135
  %tobool = icmp ne i8* %0, null, !dbg !3135
  br i1 %tobool, label %if.then, label %if.else, !dbg !3137

if.then:                                          ; preds = %entry
  %1 = load i8*, i8** %s2.addr, align 8, !dbg !3138
  %tobool1 = icmp ne i8* %1, null, !dbg !3138
  br i1 %tobool1, label %cond.true, label %cond.false, !dbg !3138

cond.true:                                        ; preds = %if.then
  %2 = load i8*, i8** %s1.addr, align 8, !dbg !3139
  %3 = load i8*, i8** %s2.addr, align 8, !dbg !3140
  %call = call i32 @strcmp(i8* %2, i8* %3) #14, !dbg !3141
  br label %cond.end, !dbg !3138

cond.false:                                       ; preds = %if.then
  %4 = load i8*, i8** %s1.addr, align 8, !dbg !3142
  %5 = load i8, i8* %4, align 1, !dbg !3143
  %tobool2 = icmp ne i8 %5, 0, !dbg !3143
  %6 = zext i1 %tobool2 to i64, !dbg !3143
  %cond = select i1 %tobool2, i32 1, i32 0, !dbg !3143
  br label %cond.end, !dbg !3138

cond.end:                                         ; preds = %cond.false, %cond.true
  %cond3 = phi i32 [ %call, %cond.true ], [ %cond, %cond.false ], !dbg !3138
  store i32 %cond3, i32* %retval, align 4, !dbg !3144
  br label %return, !dbg !3144

if.else:                                          ; preds = %entry
  %7 = load i8*, i8** %s2.addr, align 8, !dbg !3145
  %tobool4 = icmp ne i8* %7, null, !dbg !3145
  br i1 %tobool4, label %land.rhs, label %land.end, !dbg !3146

land.rhs:                                         ; preds = %if.else
  %8 = load i8*, i8** %s2.addr, align 8, !dbg !3147
  %9 = load i8, i8* %8, align 1, !dbg !3148
  %tobool5 = icmp ne i8 %9, 0, !dbg !3148
  br label %land.end

land.end:                                         ; preds = %land.rhs, %if.else
  %10 = phi i1 [ false, %if.else ], [ %tobool5, %land.rhs ], !dbg !3149
  %11 = zext i1 %10 to i64, !dbg !3150
  %cond6 = select i1 %10, i32 -1, i32 0, !dbg !3150
  store i32 %cond6, i32* %retval, align 4, !dbg !3151
  br label %return, !dbg !3151

return:                                           ; preds = %land.end, %cond.end
  %12 = load i32, i32* %retval, align 4, !dbg !3152
  ret i32 %12, !dbg !3152
}

; Function Attrs: noinline nounwind uwtable
define linkonce_odr dso_local dereferenceable(8) i8** @_ZNSt6vectorIPKcSaIS1_EEixEm(%"class.std::vector"* %this, i64 %__n) #5 comdat align 2 !dbg !3153 {
entry:
  %this.addr = alloca %"class.std::vector"*, align 8
  %__n.addr = alloca i64, align 8
  store %"class.std::vector"* %this, %"class.std::vector"** %this.addr, align 8
  call void @llvm.dbg.declare(metadata %"class.std::vector"** %this.addr, metadata !3154, metadata !DIExpression()), !dbg !3156
  store i64 %__n, i64* %__n.addr, align 8
  call void @llvm.dbg.declare(metadata i64* %__n.addr, metadata !3157, metadata !DIExpression()), !dbg !3158
  %this1 = load %"class.std::vector"*, %"class.std::vector"** %this.addr, align 8
  %0 = bitcast %"class.std::vector"* %this1 to %"struct.std::_Vector_base"*, !dbg !3159
  %_M_impl = getelementptr inbounds %"struct.std::_Vector_base", %"struct.std::_Vector_base"* %0, i32 0, i32 0, !dbg !3159
  %1 = bitcast %"struct.std::_Vector_base<const char *, std::allocator<const char *> >::_Vector_impl"* %_M_impl to %"struct.std::_Vector_base<const char *, std::allocator<const char *> >::_Vector_impl_data"*, !dbg !3160
  %_M_start = getelementptr inbounds %"struct.std::_Vector_base<const char *, std::allocator<const char *> >::_Vector_impl_data", %"struct.std::_Vector_base<const char *, std::allocator<const char *> >::_Vector_impl_data"* %1, i32 0, i32 0, !dbg !3161
  %2 = load i8**, i8*** %_M_start, align 8, !dbg !3161
  %3 = load i64, i64* %__n.addr, align 8, !dbg !3162
  %add.ptr = getelementptr inbounds i8*, i8** %2, i64 %3, !dbg !3163
  ret i8** %add.ptr, !dbg !3164
}

declare dso_local i32 @__gxx_personality_v0(...)

; Function Attrs: noinline uwtable
define linkonce_odr dso_local dereferenceable(8) %class.opp_string* @_ZNSt3mapI10opp_stringS0_St4lessIS0_ESaISt4pairIKS0_S0_EEEixEOS0_(%"class.std::map"* %this, %class.opp_string* dereferenceable(8) %__k) #0 comdat align 2 !dbg !3165 {
entry:
  %this.addr = alloca %"class.std::map"*, align 8
  %__k.addr = alloca %class.opp_string*, align 8
  %__i = alloca %"struct.std::_Rb_tree_iterator", align 8
  %ref.tmp = alloca %"struct.std::_Rb_tree_iterator", align 8
  %ref.tmp5 = alloca %"struct.std::less", align 1
  %undef.agg.tmp = alloca %"struct.std::less", align 1
  %ref.tmp8 = alloca %"struct.std::_Rb_tree_iterator", align 8
  %agg.tmp = alloca %"struct.std::_Rb_tree_const_iterator", align 8
  %ref.tmp9 = alloca %"class.std::tuple", align 8
  %ref.tmp11 = alloca %"class.std::tuple.6", align 1
  store %"class.std::map"* %this, %"class.std::map"** %this.addr, align 8
  call void @llvm.dbg.declare(metadata %"class.std::map"** %this.addr, metadata !3166, metadata !DIExpression()), !dbg !3168
  store %class.opp_string* %__k, %class.opp_string** %__k.addr, align 8
  call void @llvm.dbg.declare(metadata %class.opp_string** %__k.addr, metadata !3169, metadata !DIExpression()), !dbg !3170
  %this1 = load %"class.std::map"*, %"class.std::map"** %this.addr, align 8
  call void @llvm.dbg.declare(metadata %"struct.std::_Rb_tree_iterator"* %__i, metadata !3171, metadata !DIExpression()), !dbg !3172
  %0 = load %class.opp_string*, %class.opp_string** %__k.addr, align 8, !dbg !3173
  %call = call %"struct.std::_Rb_tree_node_base"* @_ZNSt3mapI10opp_stringS0_St4lessIS0_ESaISt4pairIKS0_S0_EEE11lower_boundERS4_(%"class.std::map"* %this1, %class.opp_string* dereferenceable(8) %0), !dbg !3174
  %coerce.dive = getelementptr inbounds %"struct.std::_Rb_tree_iterator", %"struct.std::_Rb_tree_iterator"* %__i, i32 0, i32 0, !dbg !3174
  store %"struct.std::_Rb_tree_node_base"* %call, %"struct.std::_Rb_tree_node_base"** %coerce.dive, align 8, !dbg !3174
  %call2 = call %"struct.std::_Rb_tree_node_base"* @_ZNSt3mapI10opp_stringS0_St4lessIS0_ESaISt4pairIKS0_S0_EEE3endEv(%"class.std::map"* %this1) #3, !dbg !3175
  %coerce.dive3 = getelementptr inbounds %"struct.std::_Rb_tree_iterator", %"struct.std::_Rb_tree_iterator"* %ref.tmp, i32 0, i32 0, !dbg !3175
  store %"struct.std::_Rb_tree_node_base"* %call2, %"struct.std::_Rb_tree_node_base"** %coerce.dive3, align 8, !dbg !3175
  %call4 = call zeroext i1 @_ZSteqRKSt17_Rb_tree_iteratorISt4pairIK10opp_stringS1_EES6_(%"struct.std::_Rb_tree_iterator"* dereferenceable(8) %__i, %"struct.std::_Rb_tree_iterator"* dereferenceable(8) %ref.tmp) #3, !dbg !3177
  br i1 %call4, label %lor.end, label %lor.rhs, !dbg !3178

lor.rhs:                                          ; preds = %entry
  call void @_ZNKSt3mapI10opp_stringS0_St4lessIS0_ESaISt4pairIKS0_S0_EEE8key_compEv(%"class.std::map"* %this1), !dbg !3179
  %1 = load %class.opp_string*, %class.opp_string** %__k.addr, align 8, !dbg !3180
  %call6 = call dereferenceable(16) %"struct.std::pair"* @_ZNKSt17_Rb_tree_iteratorISt4pairIK10opp_stringS1_EEdeEv(%"struct.std::_Rb_tree_iterator"* %__i) #3, !dbg !3181
  %first = getelementptr inbounds %"struct.std::pair", %"struct.std::pair"* %call6, i32 0, i32 0, !dbg !3182
  %call7 = call zeroext i1 @_ZNKSt4lessI10opp_stringEclERKS0_S3_(%"struct.std::less"* %ref.tmp5, %class.opp_string* dereferenceable(8) %1, %class.opp_string* dereferenceable(8) %first), !dbg !3179
  br label %lor.end, !dbg !3178

lor.end:                                          ; preds = %lor.rhs, %entry
  %2 = phi i1 [ true, %entry ], [ %call7, %lor.rhs ]
  br i1 %2, label %if.then, label %if.end, !dbg !3183

if.then:                                          ; preds = %lor.end
  %_M_t = getelementptr inbounds %"class.std::map", %"class.std::map"* %this1, i32 0, i32 0, !dbg !3184
  call void @_ZNSt23_Rb_tree_const_iteratorISt4pairIK10opp_stringS1_EEC2ERKSt17_Rb_tree_iteratorIS3_E(%"struct.std::_Rb_tree_const_iterator"* %agg.tmp, %"struct.std::_Rb_tree_iterator"* dereferenceable(8) %__i) #3, !dbg !3185
  %3 = load %class.opp_string*, %class.opp_string** %__k.addr, align 8, !dbg !3186
  %call10 = call dereferenceable(8) %class.opp_string* @_ZSt4moveIR10opp_stringEONSt16remove_referenceIT_E4typeEOS3_(%class.opp_string* dereferenceable(8) %3) #3, !dbg !3187
  call void @_ZSt16forward_as_tupleIJ10opp_stringEESt5tupleIJDpOT_EES4_(%"class.std::tuple"* sret %ref.tmp9, %class.opp_string* dereferenceable(8) %call10) #3, !dbg !3188
  %coerce.dive12 = getelementptr inbounds %"struct.std::_Rb_tree_const_iterator", %"struct.std::_Rb_tree_const_iterator"* %agg.tmp, i32 0, i32 0, !dbg !3189
  %4 = load %"struct.std::_Rb_tree_node_base"*, %"struct.std::_Rb_tree_node_base"** %coerce.dive12, align 8, !dbg !3189
  %call13 = call %"struct.std::_Rb_tree_node_base"* @_ZNSt8_Rb_treeI10opp_stringSt4pairIKS0_S0_ESt10_Select1stIS3_ESt4lessIS0_ESaIS3_EE22_M_emplace_hint_uniqueIJRKSt21piecewise_construct_tSt5tupleIJOS0_EESE_IJEEEEESt17_Rb_tree_iteratorIS3_ESt23_Rb_tree_const_iteratorIS3_EDpOT_(%"class.std::_Rb_tree"* %_M_t, %"struct.std::_Rb_tree_node_base"* %4, %"struct.std::piecewise_construct_t"* dereferenceable(1) @_ZStL19piecewise_construct, %"class.std::tuple"* dereferenceable(8) %ref.tmp9, %"class.std::tuple.6"* dereferenceable(1) %ref.tmp11), !dbg !3189
  %coerce.dive14 = getelementptr inbounds %"struct.std::_Rb_tree_iterator", %"struct.std::_Rb_tree_iterator"* %ref.tmp8, i32 0, i32 0, !dbg !3189
  store %"struct.std::_Rb_tree_node_base"* %call13, %"struct.std::_Rb_tree_node_base"** %coerce.dive14, align 8, !dbg !3189
  %5 = bitcast %"struct.std::_Rb_tree_iterator"* %__i to i8*, !dbg !3190
  %6 = bitcast %"struct.std::_Rb_tree_iterator"* %ref.tmp8 to i8*, !dbg !3190
  call void @llvm.memcpy.p0i8.p0i8.i64(i8* align 8 %5, i8* align 8 %6, i64 8, i1 false), !dbg !3190
  br label %if.end, !dbg !3191

if.end:                                           ; preds = %if.then, %lor.end
  %call15 = call dereferenceable(16) %"struct.std::pair"* @_ZNKSt17_Rb_tree_iteratorISt4pairIK10opp_stringS1_EEdeEv(%"struct.std::_Rb_tree_iterator"* %__i) #3, !dbg !3192
  %second = getelementptr inbounds %"struct.std::pair", %"struct.std::pair"* %call15, i32 0, i32 1, !dbg !3193
  ret %class.opp_string* %second, !dbg !3194
}

; Function Attrs: noinline uwtable
define linkonce_odr dso_local void @_ZN10opp_stringC2EPKc(%class.opp_string* %this, i8* %s) unnamed_addr #0 comdat align 2 !dbg !3195 {
entry:
  %this.addr = alloca %class.opp_string*, align 8
  %s.addr = alloca i8*, align 8
  store %class.opp_string* %this, %class.opp_string** %this.addr, align 8
  call void @llvm.dbg.declare(metadata %class.opp_string** %this.addr, metadata !3196, metadata !DIExpression()), !dbg !3197
  store i8* %s, i8** %s.addr, align 8
  call void @llvm.dbg.declare(metadata i8** %s.addr, metadata !3198, metadata !DIExpression()), !dbg !3199
  %this1 = load %class.opp_string*, %class.opp_string** %this.addr, align 8
  %0 = load i8*, i8** %s.addr, align 8, !dbg !3200
  %call = call i8* @_Z10opp_strdupPKc(i8* %0), !dbg !3202
  %str = getelementptr inbounds %class.opp_string, %class.opp_string* %this1, i32 0, i32 0, !dbg !3203
  store i8* %call, i8** %str, align 8, !dbg !3204
  ret void, !dbg !3205
}

; Function Attrs: noinline nounwind uwtable
define linkonce_odr dso_local void @_ZN10opp_stringD2Ev(%class.opp_string* %this) unnamed_addr #5 comdat align 2 !dbg !3206 {
entry:
  %this.addr = alloca %class.opp_string*, align 8
  store %class.opp_string* %this, %class.opp_string** %this.addr, align 8
  call void @llvm.dbg.declare(metadata %class.opp_string** %this.addr, metadata !3207, metadata !DIExpression()), !dbg !3208
  %this1 = load %class.opp_string*, %class.opp_string** %this.addr, align 8
  %str = getelementptr inbounds %class.opp_string, %class.opp_string* %this1, i32 0, i32 0, !dbg !3209
  %0 = load i8*, i8** %str, align 8, !dbg !3209
  %isnull = icmp eq i8* %0, null, !dbg !3211
  br i1 %isnull, label %delete.end, label %delete.notnull, !dbg !3211

delete.notnull:                                   ; preds = %entry
  call void @_ZdaPv(i8* %0) #13, !dbg !3211
  br label %delete.end, !dbg !3211

delete.end:                                       ; preds = %delete.notnull, %entry
  ret void, !dbg !3212
}

; Function Attrs: noinline nounwind uwtable
define linkonce_odr dso_local void @_ZNSt6vectorIPKcSaIS1_EED2Ev(%"class.std::vector"* %this) unnamed_addr #5 comdat align 2 personality i8* bitcast (i32 (...)* @__gxx_personality_v0 to i8*) !dbg !3213 {
entry:
  %this.addr = alloca %"class.std::vector"*, align 8
  %exn.slot = alloca i8*
  %ehselector.slot = alloca i32
  store %"class.std::vector"* %this, %"class.std::vector"** %this.addr, align 8
  call void @llvm.dbg.declare(metadata %"class.std::vector"** %this.addr, metadata !3214, metadata !DIExpression()), !dbg !3215
  %this1 = load %"class.std::vector"*, %"class.std::vector"** %this.addr, align 8
  %0 = bitcast %"class.std::vector"* %this1 to %"struct.std::_Vector_base"*, !dbg !3216
  %_M_impl = getelementptr inbounds %"struct.std::_Vector_base", %"struct.std::_Vector_base"* %0, i32 0, i32 0, !dbg !3216
  %1 = bitcast %"struct.std::_Vector_base<const char *, std::allocator<const char *> >::_Vector_impl"* %_M_impl to %"struct.std::_Vector_base<const char *, std::allocator<const char *> >::_Vector_impl_data"*, !dbg !3218
  %_M_start = getelementptr inbounds %"struct.std::_Vector_base<const char *, std::allocator<const char *> >::_Vector_impl_data", %"struct.std::_Vector_base<const char *, std::allocator<const char *> >::_Vector_impl_data"* %1, i32 0, i32 0, !dbg !3219
  %2 = load i8**, i8*** %_M_start, align 8, !dbg !3219
  %3 = bitcast %"class.std::vector"* %this1 to %"struct.std::_Vector_base"*, !dbg !3220
  %_M_impl2 = getelementptr inbounds %"struct.std::_Vector_base", %"struct.std::_Vector_base"* %3, i32 0, i32 0, !dbg !3220
  %4 = bitcast %"struct.std::_Vector_base<const char *, std::allocator<const char *> >::_Vector_impl"* %_M_impl2 to %"struct.std::_Vector_base<const char *, std::allocator<const char *> >::_Vector_impl_data"*, !dbg !3221
  %_M_finish = getelementptr inbounds %"struct.std::_Vector_base<const char *, std::allocator<const char *> >::_Vector_impl_data", %"struct.std::_Vector_base<const char *, std::allocator<const char *> >::_Vector_impl_data"* %4, i32 0, i32 1, !dbg !3222
  %5 = load i8**, i8*** %_M_finish, align 8, !dbg !3222
  %6 = bitcast %"class.std::vector"* %this1 to %"struct.std::_Vector_base"*, !dbg !3223
  %call = call dereferenceable(1) %"class.std::allocator.0"* @_ZNSt12_Vector_baseIPKcSaIS1_EE19_M_get_Tp_allocatorEv(%"struct.std::_Vector_base"* %6) #3, !dbg !3223
  invoke void @_ZSt8_DestroyIPPKcS1_EvT_S3_RSaIT0_E(i8** %2, i8** %5, %"class.std::allocator.0"* dereferenceable(1) %call)
          to label %invoke.cont unwind label %lpad, !dbg !3224

invoke.cont:                                      ; preds = %entry
  %7 = bitcast %"class.std::vector"* %this1 to %"struct.std::_Vector_base"*, !dbg !3225
  call void @_ZNSt12_Vector_baseIPKcSaIS1_EED2Ev(%"struct.std::_Vector_base"* %7) #3, !dbg !3225
  ret void, !dbg !3226

lpad:                                             ; preds = %entry
  %8 = landingpad { i8*, i32 }
          catch i8* null, !dbg !3225
  %9 = extractvalue { i8*, i32 } %8, 0, !dbg !3225
  store i8* %9, i8** %exn.slot, align 8, !dbg !3225
  %10 = extractvalue { i8*, i32 } %8, 1, !dbg !3225
  store i32 %10, i32* %ehselector.slot, align 4, !dbg !3225
  %11 = bitcast %"class.std::vector"* %this1 to %"struct.std::_Vector_base"*, !dbg !3225
  call void @_ZNSt12_Vector_baseIPKcSaIS1_EED2Ev(%"struct.std::_Vector_base"* %11) #3, !dbg !3225
  br label %terminate.handler, !dbg !3225

terminate.handler:                                ; preds = %lpad
  %exn = load i8*, i8** %exn.slot, align 8, !dbg !3225
  call void @__clang_call_terminate(i8* %exn) #15, !dbg !3225
  unreachable, !dbg !3225
}

; Function Attrs: noinline nounwind uwtable
define dso_local void @_ZN8sRunData5resetEv(%struct.sRunData* %this) #5 align 2 !dbg !3227 {
entry:
  %this.addr = alloca %struct.sRunData*, align 8
  store %struct.sRunData* %this, %struct.sRunData** %this.addr, align 8
  call void @llvm.dbg.declare(metadata %struct.sRunData** %this.addr, metadata !3228, metadata !DIExpression()), !dbg !3229
  %this1 = load %struct.sRunData*, %struct.sRunData** %this.addr, align 8
  %initialized = getelementptr inbounds %struct.sRunData, %struct.sRunData* %this1, i32 0, i32 0, !dbg !3230
  store i8 0, i8* %initialized, align 8, !dbg !3231
  %attributes = getelementptr inbounds %struct.sRunData, %struct.sRunData* %this1, i32 0, i32 2, !dbg !3232
  %0 = bitcast %class.opp_string_map* %attributes to %"class.std::map"*, !dbg !3232
  call void @_ZNSt3mapI10opp_stringS0_St4lessIS0_ESaISt4pairIKS0_S0_EEE5clearEv(%"class.std::map"* %0) #3, !dbg !3233
  %moduleParams = getelementptr inbounds %struct.sRunData, %struct.sRunData* %this1, i32 0, i32 3, !dbg !3234
  %1 = bitcast %class.opp_string_map* %moduleParams to %"class.std::map"*, !dbg !3234
  call void @_ZNSt3mapI10opp_stringS0_St4lessIS0_ESaISt4pairIKS0_S0_EEE5clearEv(%"class.std::map"* %1) #3, !dbg !3235
  ret void, !dbg !3236
}

; Function Attrs: noinline nounwind uwtable
define linkonce_odr dso_local void @_ZNSt3mapI10opp_stringS0_St4lessIS0_ESaISt4pairIKS0_S0_EEE5clearEv(%"class.std::map"* %this) #5 comdat align 2 !dbg !3237 {
entry:
  %this.addr = alloca %"class.std::map"*, align 8
  store %"class.std::map"* %this, %"class.std::map"** %this.addr, align 8
  call void @llvm.dbg.declare(metadata %"class.std::map"** %this.addr, metadata !3238, metadata !DIExpression()), !dbg !3239
  %this1 = load %"class.std::map"*, %"class.std::map"** %this.addr, align 8
  %_M_t = getelementptr inbounds %"class.std::map", %"class.std::map"* %this1, i32 0, i32 0, !dbg !3240
  call void @_ZNSt8_Rb_treeI10opp_stringSt4pairIKS0_S0_ESt10_Select1stIS3_ESt4lessIS0_ESaIS3_EE5clearEv(%"class.std::_Rb_tree"* %_M_t) #3, !dbg !3241
  ret void, !dbg !3242
}

; Function Attrs: noinline uwtable
define dso_local void @_ZN8sRunData12writeRunDataEP8_IO_FILE10opp_string(%struct.sRunData* %this, %struct._IO_FILE* %f, %class.opp_string* %fname) #0 align 2 personality i8* bitcast (i32 (...)* @__gxx_personality_v0 to i8*) !dbg !3243 {
entry:
  %this.addr = alloca %struct.sRunData*, align 8
  %f.addr = alloca %struct._IO_FILE*, align 8
  %ref.tmp = alloca %"class.std::__cxx11::basic_string", align 8
  %cleanup.cond = alloca i1, align 1
  %exn.slot = alloca i8*
  %ehselector.slot = alloca i32
  %it = alloca %"struct.std::_Rb_tree_const_iterator", align 8
  %ref.tmp17 = alloca %"struct.std::_Rb_tree_iterator", align 8
  %ref.tmp19 = alloca %"struct.std::_Rb_tree_const_iterator", align 8
  %ref.tmp20 = alloca %"struct.std::_Rb_tree_iterator", align 8
  %ref.tmp31 = alloca %"class.std::__cxx11::basic_string", align 8
  %cleanup.cond35 = alloca i1, align 1
  %it62 = alloca %"struct.std::_Rb_tree_const_iterator", align 8
  %ref.tmp63 = alloca %"struct.std::_Rb_tree_iterator", align 8
  %ref.tmp67 = alloca %"struct.std::_Rb_tree_const_iterator", align 8
  %ref.tmp68 = alloca %"struct.std::_Rb_tree_iterator", align 8
  %ref.tmp82 = alloca %"class.std::__cxx11::basic_string", align 8
  %cleanup.cond86 = alloca i1, align 1
  store %struct.sRunData* %this, %struct.sRunData** %this.addr, align 8
  call void @llvm.dbg.declare(metadata %struct.sRunData** %this.addr, metadata !3244, metadata !DIExpression()), !dbg !3245
  store %struct._IO_FILE* %f, %struct._IO_FILE** %f.addr, align 8
  call void @llvm.dbg.declare(metadata %struct._IO_FILE** %f.addr, metadata !3246, metadata !DIExpression()), !dbg !3247
  call void @llvm.dbg.declare(metadata %class.opp_string* %fname, metadata !3248, metadata !DIExpression()), !dbg !3249
  %this1 = load %struct.sRunData*, %struct.sRunData** %this.addr, align 8
  %0 = load %struct._IO_FILE*, %struct._IO_FILE** %f.addr, align 8, !dbg !3250
  %runId = getelementptr inbounds %struct.sRunData, %struct.sRunData* %this1, i32 0, i32 1, !dbg !3250
  %call = call i8* @_ZNK10opp_string5c_strEv(%class.opp_string* %runId), !dbg !3250
  %call2 = call zeroext i1 @_Z15opp_needsquotesPKc(i8* %call), !dbg !3250
  store i1 false, i1* %cleanup.cond, align 1
  br i1 %call2, label %cond.true, label %cond.false, !dbg !3250

cond.true:                                        ; preds = %entry
  %runId3 = getelementptr inbounds %struct.sRunData, %struct.sRunData* %this1, i32 0, i32 1, !dbg !3250
  %call4 = call i8* @_ZNK10opp_string5c_strEv(%class.opp_string* %runId3), !dbg !3250
  call void @_Z12opp_quotestrB5cxx11PKc(%"class.std::__cxx11::basic_string"* sret %ref.tmp, i8* %call4), !dbg !3250
  store i1 true, i1* %cleanup.cond, align 1, !dbg !3250
  %call5 = call i8* @_ZNKSt7__cxx1112basic_stringIcSt11char_traitsIcESaIcEE5c_strEv(%"class.std::__cxx11::basic_string"* %ref.tmp) #3, !dbg !3250
  br label %cond.end, !dbg !3250

cond.false:                                       ; preds = %entry
  %runId6 = getelementptr inbounds %struct.sRunData, %struct.sRunData* %this1, i32 0, i32 1, !dbg !3250
  %call7 = invoke i8* @_ZNK10opp_string5c_strEv(%class.opp_string* %runId6)
          to label %invoke.cont unwind label %lpad, !dbg !3250

invoke.cont:                                      ; preds = %cond.false
  br label %cond.end, !dbg !3250

cond.end:                                         ; preds = %invoke.cont, %cond.true
  %cond = phi i8* [ %call5, %cond.true ], [ %call7, %invoke.cont ], !dbg !3250
  %call9 = invoke i32 (%struct._IO_FILE*, i8*, ...) @fprintf(%struct._IO_FILE* %0, i8* getelementptr inbounds ([8 x i8], [8 x i8]* @.str.1, i64 0, i64 0), i8* %cond)
          to label %invoke.cont8 unwind label %lpad, !dbg !3250

invoke.cont8:                                     ; preds = %cond.end
  %cmp = icmp slt i32 %call9, 0, !dbg !3250
  %cleanup.is_active = load i1, i1* %cleanup.cond, align 1, !dbg !3250
  br i1 %cleanup.is_active, label %cleanup.action, label %cleanup.done, !dbg !3250

cleanup.action:                                   ; preds = %invoke.cont8
  call void @_ZNSt7__cxx1112basic_stringIcSt11char_traitsIcESaIcEED1Ev(%"class.std::__cxx11::basic_string"* %ref.tmp) #3, !dbg !3250
  br label %cleanup.done, !dbg !3250

cleanup.done:                                     ; preds = %cleanup.action, %invoke.cont8
  br i1 %cmp, label %if.then, label %if.end, !dbg !3252

if.then:                                          ; preds = %cleanup.done
  %exception = call i8* @__cxa_allocate_exception(i64 128) #3, !dbg !3250
  %1 = bitcast i8* %exception to %class.cRuntimeError*, !dbg !3250
  %call15 = invoke i8* @_ZNK10opp_string5c_strEv(%class.opp_string* %fname)
          to label %invoke.cont14 unwind label %lpad13, !dbg !3250

invoke.cont14:                                    ; preds = %if.then
  invoke void (%class.cRuntimeError*, i8*, ...) @_ZN13cRuntimeErrorC1EPKcz(%class.cRuntimeError* %1, i8* getelementptr inbounds ([37 x i8], [37 x i8]* @.str.2, i64 0, i64 0), i8* %call15)
          to label %invoke.cont16 unwind label %lpad13, !dbg !3250

invoke.cont16:                                    ; preds = %invoke.cont14
  call void @__cxa_throw(i8* %exception, i8* bitcast ({ i8*, i8*, i8* }* @_ZTI13cRuntimeError to i8*), i8* bitcast (void (%class.cRuntimeError*)* @_ZN13cRuntimeErrorD2Ev to i8*)) #16, !dbg !3250
  unreachable, !dbg !3250

lpad:                                             ; preds = %cond.end, %cond.false
  %2 = landingpad { i8*, i32 }
          cleanup, !dbg !3253
  %3 = extractvalue { i8*, i32 } %2, 0, !dbg !3253
  store i8* %3, i8** %exn.slot, align 8, !dbg !3253
  %4 = extractvalue { i8*, i32 } %2, 1, !dbg !3253
  store i32 %4, i32* %ehselector.slot, align 4, !dbg !3253
  %cleanup.is_active10 = load i1, i1* %cleanup.cond, align 1, !dbg !3250
  br i1 %cleanup.is_active10, label %cleanup.action11, label %cleanup.done12, !dbg !3250

cleanup.action11:                                 ; preds = %lpad
  call void @_ZNSt7__cxx1112basic_stringIcSt11char_traitsIcESaIcEED1Ev(%"class.std::__cxx11::basic_string"* %ref.tmp) #3, !dbg !3250
  br label %cleanup.done12, !dbg !3250

cleanup.done12:                                   ; preds = %cleanup.action11, %lpad
  br label %eh.resume, !dbg !3250

lpad13:                                           ; preds = %invoke.cont14, %if.then
  %5 = landingpad { i8*, i32 }
          cleanup, !dbg !3253
  %6 = extractvalue { i8*, i32 } %5, 0, !dbg !3253
  store i8* %6, i8** %exn.slot, align 8, !dbg !3253
  %7 = extractvalue { i8*, i32 } %5, 1, !dbg !3253
  store i32 %7, i32* %ehselector.slot, align 4, !dbg !3253
  call void @__cxa_free_exception(i8* %exception) #3, !dbg !3250
  br label %eh.resume, !dbg !3250

if.end:                                           ; preds = %cleanup.done
  call void @llvm.dbg.declare(metadata %"struct.std::_Rb_tree_const_iterator"* %it, metadata !3254, metadata !DIExpression()), !dbg !3256
  %attributes = getelementptr inbounds %struct.sRunData, %struct.sRunData* %this1, i32 0, i32 2, !dbg !3257
  %8 = bitcast %class.opp_string_map* %attributes to %"class.std::map"*, !dbg !3257
  %call18 = call %"struct.std::_Rb_tree_node_base"* @_ZNSt3mapI10opp_stringS0_St4lessIS0_ESaISt4pairIKS0_S0_EEE5beginEv(%"class.std::map"* %8) #3, !dbg !3258
  %coerce.dive = getelementptr inbounds %"struct.std::_Rb_tree_iterator", %"struct.std::_Rb_tree_iterator"* %ref.tmp17, i32 0, i32 0, !dbg !3258
  store %"struct.std::_Rb_tree_node_base"* %call18, %"struct.std::_Rb_tree_node_base"** %coerce.dive, align 8, !dbg !3258
  call void @_ZNSt23_Rb_tree_const_iteratorISt4pairIK10opp_stringS1_EEC2ERKSt17_Rb_tree_iteratorIS3_E(%"struct.std::_Rb_tree_const_iterator"* %it, %"struct.std::_Rb_tree_iterator"* dereferenceable(8) %ref.tmp17) #3, !dbg !3257
  br label %for.cond, !dbg !3259

for.cond:                                         ; preds = %for.inc, %if.end
  %attributes21 = getelementptr inbounds %struct.sRunData, %struct.sRunData* %this1, i32 0, i32 2, !dbg !3260
  %9 = bitcast %class.opp_string_map* %attributes21 to %"class.std::map"*, !dbg !3260
  %call22 = call %"struct.std::_Rb_tree_node_base"* @_ZNSt3mapI10opp_stringS0_St4lessIS0_ESaISt4pairIKS0_S0_EEE3endEv(%"class.std::map"* %9) #3, !dbg !3262
  %coerce.dive23 = getelementptr inbounds %"struct.std::_Rb_tree_iterator", %"struct.std::_Rb_tree_iterator"* %ref.tmp20, i32 0, i32 0, !dbg !3262
  store %"struct.std::_Rb_tree_node_base"* %call22, %"struct.std::_Rb_tree_node_base"** %coerce.dive23, align 8, !dbg !3262
  call void @_ZNSt23_Rb_tree_const_iteratorISt4pairIK10opp_stringS1_EEC2ERKSt17_Rb_tree_iteratorIS3_E(%"struct.std::_Rb_tree_const_iterator"* %ref.tmp19, %"struct.std::_Rb_tree_iterator"* dereferenceable(8) %ref.tmp20) #3, !dbg !3260
  %call24 = call zeroext i1 @_ZStneRKSt23_Rb_tree_const_iteratorISt4pairIK10opp_stringS1_EES6_(%"struct.std::_Rb_tree_const_iterator"* dereferenceable(8) %it, %"struct.std::_Rb_tree_const_iterator"* dereferenceable(8) %ref.tmp19) #3, !dbg !3263
  br i1 %call24, label %for.body, label %for.end, !dbg !3264

for.body:                                         ; preds = %for.cond
  %10 = load %struct._IO_FILE*, %struct._IO_FILE** %f.addr, align 8, !dbg !3265
  %call25 = call %"struct.std::pair"* @_ZNKSt23_Rb_tree_const_iteratorISt4pairIK10opp_stringS1_EEptEv(%"struct.std::_Rb_tree_const_iterator"* %it) #3, !dbg !3265
  %first = getelementptr inbounds %"struct.std::pair", %"struct.std::pair"* %call25, i32 0, i32 0, !dbg !3265
  %call26 = call i8* @_ZNK10opp_string5c_strEv(%class.opp_string* %first), !dbg !3265
  %call27 = call %"struct.std::pair"* @_ZNKSt23_Rb_tree_const_iteratorISt4pairIK10opp_stringS1_EEptEv(%"struct.std::_Rb_tree_const_iterator"* %it) #3, !dbg !3265
  %second = getelementptr inbounds %"struct.std::pair", %"struct.std::pair"* %call27, i32 0, i32 1, !dbg !3265
  %call28 = call i8* @_ZNK10opp_string5c_strEv(%class.opp_string* %second), !dbg !3265
  %call29 = call zeroext i1 @_Z15opp_needsquotesPKc(i8* %call28), !dbg !3265
  store i1 false, i1* %cleanup.cond35, align 1
  br i1 %call29, label %cond.true30, label %cond.false37, !dbg !3265

cond.true30:                                      ; preds = %for.body
  %call32 = call %"struct.std::pair"* @_ZNKSt23_Rb_tree_const_iteratorISt4pairIK10opp_stringS1_EEptEv(%"struct.std::_Rb_tree_const_iterator"* %it) #3, !dbg !3265
  %second33 = getelementptr inbounds %"struct.std::pair", %"struct.std::pair"* %call32, i32 0, i32 1, !dbg !3265
  %call34 = call i8* @_ZNK10opp_string5c_strEv(%class.opp_string* %second33), !dbg !3265
  call void @_Z12opp_quotestrB5cxx11PKc(%"class.std::__cxx11::basic_string"* sret %ref.tmp31, i8* %call34), !dbg !3265
  store i1 true, i1* %cleanup.cond35, align 1, !dbg !3265
  %call36 = call i8* @_ZNKSt7__cxx1112basic_stringIcSt11char_traitsIcESaIcEE5c_strEv(%"class.std::__cxx11::basic_string"* %ref.tmp31) #3, !dbg !3265
  br label %cond.end43, !dbg !3265

cond.false37:                                     ; preds = %for.body
  %call38 = call %"struct.std::pair"* @_ZNKSt23_Rb_tree_const_iteratorISt4pairIK10opp_stringS1_EEptEv(%"struct.std::_Rb_tree_const_iterator"* %it) #3, !dbg !3265
  %second39 = getelementptr inbounds %"struct.std::pair", %"struct.std::pair"* %call38, i32 0, i32 1, !dbg !3265
  %call42 = invoke i8* @_ZNK10opp_string5c_strEv(%class.opp_string* %second39)
          to label %invoke.cont41 unwind label %lpad40, !dbg !3265

invoke.cont41:                                    ; preds = %cond.false37
  br label %cond.end43, !dbg !3265

cond.end43:                                       ; preds = %invoke.cont41, %cond.true30
  %cond44 = phi i8* [ %call36, %cond.true30 ], [ %call42, %invoke.cont41 ], !dbg !3265
  %call46 = invoke i32 (%struct._IO_FILE*, i8*, ...) @fprintf(%struct._IO_FILE* %10, i8* getelementptr inbounds ([12 x i8], [12 x i8]* @.str.3, i64 0, i64 0), i8* %call26, i8* %cond44)
          to label %invoke.cont45 unwind label %lpad40, !dbg !3265

invoke.cont45:                                    ; preds = %cond.end43
  %cmp47 = icmp slt i32 %call46, 0, !dbg !3265
  %cleanup.is_active48 = load i1, i1* %cleanup.cond35, align 1, !dbg !3265
  br i1 %cleanup.is_active48, label %cleanup.action49, label %cleanup.done50, !dbg !3265

cleanup.action49:                                 ; preds = %invoke.cont45
  call void @_ZNSt7__cxx1112basic_stringIcSt11char_traitsIcESaIcEED1Ev(%"class.std::__cxx11::basic_string"* %ref.tmp31) #3, !dbg !3265
  br label %cleanup.done50, !dbg !3265

cleanup.done50:                                   ; preds = %cleanup.action49, %invoke.cont45
  br i1 %cmp47, label %if.then54, label %if.end60, !dbg !3268

if.then54:                                        ; preds = %cleanup.done50
  %exception55 = call i8* @__cxa_allocate_exception(i64 128) #3, !dbg !3265
  %11 = bitcast i8* %exception55 to %class.cRuntimeError*, !dbg !3265
  %call58 = invoke i8* @_ZNK10opp_string5c_strEv(%class.opp_string* %fname)
          to label %invoke.cont57 unwind label %lpad56, !dbg !3265

invoke.cont57:                                    ; preds = %if.then54
  invoke void (%class.cRuntimeError*, i8*, ...) @_ZN13cRuntimeErrorC1EPKcz(%class.cRuntimeError* %11, i8* getelementptr inbounds ([37 x i8], [37 x i8]* @.str.2, i64 0, i64 0), i8* %call58)
          to label %invoke.cont59 unwind label %lpad56, !dbg !3265

invoke.cont59:                                    ; preds = %invoke.cont57
  call void @__cxa_throw(i8* %exception55, i8* bitcast ({ i8*, i8*, i8* }* @_ZTI13cRuntimeError to i8*), i8* bitcast (void (%class.cRuntimeError*)* @_ZN13cRuntimeErrorD2Ev to i8*)) #16, !dbg !3265
  unreachable, !dbg !3265

lpad40:                                           ; preds = %cond.end43, %cond.false37
  %12 = landingpad { i8*, i32 }
          cleanup, !dbg !3269
  %13 = extractvalue { i8*, i32 } %12, 0, !dbg !3269
  store i8* %13, i8** %exn.slot, align 8, !dbg !3269
  %14 = extractvalue { i8*, i32 } %12, 1, !dbg !3269
  store i32 %14, i32* %ehselector.slot, align 4, !dbg !3269
  %cleanup.is_active51 = load i1, i1* %cleanup.cond35, align 1, !dbg !3265
  br i1 %cleanup.is_active51, label %cleanup.action52, label %cleanup.done53, !dbg !3265

cleanup.action52:                                 ; preds = %lpad40
  call void @_ZNSt7__cxx1112basic_stringIcSt11char_traitsIcESaIcEED1Ev(%"class.std::__cxx11::basic_string"* %ref.tmp31) #3, !dbg !3265
  br label %cleanup.done53, !dbg !3265

cleanup.done53:                                   ; preds = %cleanup.action52, %lpad40
  br label %eh.resume, !dbg !3265

lpad56:                                           ; preds = %invoke.cont57, %if.then54
  %15 = landingpad { i8*, i32 }
          cleanup, !dbg !3269
  %16 = extractvalue { i8*, i32 } %15, 0, !dbg !3269
  store i8* %16, i8** %exn.slot, align 8, !dbg !3269
  %17 = extractvalue { i8*, i32 } %15, 1, !dbg !3269
  store i32 %17, i32* %ehselector.slot, align 4, !dbg !3269
  call void @__cxa_free_exception(i8* %exception55) #3, !dbg !3265
  br label %eh.resume, !dbg !3265

if.end60:                                         ; preds = %cleanup.done50
  br label %for.inc, !dbg !3270

for.inc:                                          ; preds = %if.end60
  %call61 = call dereferenceable(8) %"struct.std::_Rb_tree_const_iterator"* @_ZNSt23_Rb_tree_const_iteratorISt4pairIK10opp_stringS1_EEppEv(%"struct.std::_Rb_tree_const_iterator"* %it) #3, !dbg !3271
  br label %for.cond, !dbg !3272, !llvm.loop !3273

for.end:                                          ; preds = %for.cond
  call void @llvm.dbg.declare(metadata %"struct.std::_Rb_tree_const_iterator"* %it62, metadata !3275, metadata !DIExpression()), !dbg !3277
  %moduleParams = getelementptr inbounds %struct.sRunData, %struct.sRunData* %this1, i32 0, i32 3, !dbg !3278
  %18 = bitcast %class.opp_string_map* %moduleParams to %"class.std::map"*, !dbg !3278
  %call64 = call %"struct.std::_Rb_tree_node_base"* @_ZNSt3mapI10opp_stringS0_St4lessIS0_ESaISt4pairIKS0_S0_EEE5beginEv(%"class.std::map"* %18) #3, !dbg !3279
  %coerce.dive65 = getelementptr inbounds %"struct.std::_Rb_tree_iterator", %"struct.std::_Rb_tree_iterator"* %ref.tmp63, i32 0, i32 0, !dbg !3279
  store %"struct.std::_Rb_tree_node_base"* %call64, %"struct.std::_Rb_tree_node_base"** %coerce.dive65, align 8, !dbg !3279
  call void @_ZNSt23_Rb_tree_const_iteratorISt4pairIK10opp_stringS1_EEC2ERKSt17_Rb_tree_iteratorIS3_E(%"struct.std::_Rb_tree_const_iterator"* %it62, %"struct.std::_Rb_tree_iterator"* dereferenceable(8) %ref.tmp63) #3, !dbg !3278
  br label %for.cond66, !dbg !3280

for.cond66:                                       ; preds = %for.inc112, %for.end
  %moduleParams69 = getelementptr inbounds %struct.sRunData, %struct.sRunData* %this1, i32 0, i32 3, !dbg !3281
  %19 = bitcast %class.opp_string_map* %moduleParams69 to %"class.std::map"*, !dbg !3281
  %call70 = call %"struct.std::_Rb_tree_node_base"* @_ZNSt3mapI10opp_stringS0_St4lessIS0_ESaISt4pairIKS0_S0_EEE3endEv(%"class.std::map"* %19) #3, !dbg !3283
  %coerce.dive71 = getelementptr inbounds %"struct.std::_Rb_tree_iterator", %"struct.std::_Rb_tree_iterator"* %ref.tmp68, i32 0, i32 0, !dbg !3283
  store %"struct.std::_Rb_tree_node_base"* %call70, %"struct.std::_Rb_tree_node_base"** %coerce.dive71, align 8, !dbg !3283
  call void @_ZNSt23_Rb_tree_const_iteratorISt4pairIK10opp_stringS1_EEC2ERKSt17_Rb_tree_iteratorIS3_E(%"struct.std::_Rb_tree_const_iterator"* %ref.tmp67, %"struct.std::_Rb_tree_iterator"* dereferenceable(8) %ref.tmp68) #3, !dbg !3281
  %call72 = call zeroext i1 @_ZStneRKSt23_Rb_tree_const_iteratorISt4pairIK10opp_stringS1_EES6_(%"struct.std::_Rb_tree_const_iterator"* dereferenceable(8) %it62, %"struct.std::_Rb_tree_const_iterator"* dereferenceable(8) %ref.tmp67) #3, !dbg !3284
  br i1 %call72, label %for.body73, label %for.end114, !dbg !3285

for.body73:                                       ; preds = %for.cond66
  %20 = load %struct._IO_FILE*, %struct._IO_FILE** %f.addr, align 8, !dbg !3286
  %call74 = call %"struct.std::pair"* @_ZNKSt23_Rb_tree_const_iteratorISt4pairIK10opp_stringS1_EEptEv(%"struct.std::_Rb_tree_const_iterator"* %it62) #3, !dbg !3286
  %first75 = getelementptr inbounds %"struct.std::pair", %"struct.std::pair"* %call74, i32 0, i32 0, !dbg !3286
  %call76 = call i8* @_ZNK10opp_string5c_strEv(%class.opp_string* %first75), !dbg !3286
  %call77 = call %"struct.std::pair"* @_ZNKSt23_Rb_tree_const_iteratorISt4pairIK10opp_stringS1_EEptEv(%"struct.std::_Rb_tree_const_iterator"* %it62) #3, !dbg !3286
  %second78 = getelementptr inbounds %"struct.std::pair", %"struct.std::pair"* %call77, i32 0, i32 1, !dbg !3286
  %call79 = call i8* @_ZNK10opp_string5c_strEv(%class.opp_string* %second78), !dbg !3286
  %call80 = call zeroext i1 @_Z15opp_needsquotesPKc(i8* %call79), !dbg !3286
  store i1 false, i1* %cleanup.cond86, align 1
  br i1 %call80, label %cond.true81, label %cond.false88, !dbg !3286

cond.true81:                                      ; preds = %for.body73
  %call83 = call %"struct.std::pair"* @_ZNKSt23_Rb_tree_const_iteratorISt4pairIK10opp_stringS1_EEptEv(%"struct.std::_Rb_tree_const_iterator"* %it62) #3, !dbg !3286
  %second84 = getelementptr inbounds %"struct.std::pair", %"struct.std::pair"* %call83, i32 0, i32 1, !dbg !3286
  %call85 = call i8* @_ZNK10opp_string5c_strEv(%class.opp_string* %second84), !dbg !3286
  call void @_Z12opp_quotestrB5cxx11PKc(%"class.std::__cxx11::basic_string"* sret %ref.tmp82, i8* %call85), !dbg !3286
  store i1 true, i1* %cleanup.cond86, align 1, !dbg !3286
  %call87 = call i8* @_ZNKSt7__cxx1112basic_stringIcSt11char_traitsIcESaIcEE5c_strEv(%"class.std::__cxx11::basic_string"* %ref.tmp82) #3, !dbg !3286
  br label %cond.end94, !dbg !3286

cond.false88:                                     ; preds = %for.body73
  %call89 = call %"struct.std::pair"* @_ZNKSt23_Rb_tree_const_iteratorISt4pairIK10opp_stringS1_EEptEv(%"struct.std::_Rb_tree_const_iterator"* %it62) #3, !dbg !3286
  %second90 = getelementptr inbounds %"struct.std::pair", %"struct.std::pair"* %call89, i32 0, i32 1, !dbg !3286
  %call93 = invoke i8* @_ZNK10opp_string5c_strEv(%class.opp_string* %second90)
          to label %invoke.cont92 unwind label %lpad91, !dbg !3286

invoke.cont92:                                    ; preds = %cond.false88
  br label %cond.end94, !dbg !3286

cond.end94:                                       ; preds = %invoke.cont92, %cond.true81
  %cond95 = phi i8* [ %call87, %cond.true81 ], [ %call93, %invoke.cont92 ], !dbg !3286
  %call97 = invoke i32 (%struct._IO_FILE*, i8*, ...) @fprintf(%struct._IO_FILE* %20, i8* getelementptr inbounds ([13 x i8], [13 x i8]* @.str.4, i64 0, i64 0), i8* %call76, i8* %cond95)
          to label %invoke.cont96 unwind label %lpad91, !dbg !3286

invoke.cont96:                                    ; preds = %cond.end94
  %cmp98 = icmp slt i32 %call97, 0, !dbg !3286
  %cleanup.is_active99 = load i1, i1* %cleanup.cond86, align 1, !dbg !3286
  br i1 %cleanup.is_active99, label %cleanup.action100, label %cleanup.done101, !dbg !3286

cleanup.action100:                                ; preds = %invoke.cont96
  call void @_ZNSt7__cxx1112basic_stringIcSt11char_traitsIcESaIcEED1Ev(%"class.std::__cxx11::basic_string"* %ref.tmp82) #3, !dbg !3286
  br label %cleanup.done101, !dbg !3286

cleanup.done101:                                  ; preds = %cleanup.action100, %invoke.cont96
  br i1 %cmp98, label %if.then105, label %if.end111, !dbg !3289

if.then105:                                       ; preds = %cleanup.done101
  %exception106 = call i8* @__cxa_allocate_exception(i64 128) #3, !dbg !3286
  %21 = bitcast i8* %exception106 to %class.cRuntimeError*, !dbg !3286
  %call109 = invoke i8* @_ZNK10opp_string5c_strEv(%class.opp_string* %fname)
          to label %invoke.cont108 unwind label %lpad107, !dbg !3286

invoke.cont108:                                   ; preds = %if.then105
  invoke void (%class.cRuntimeError*, i8*, ...) @_ZN13cRuntimeErrorC1EPKcz(%class.cRuntimeError* %21, i8* getelementptr inbounds ([37 x i8], [37 x i8]* @.str.2, i64 0, i64 0), i8* %call109)
          to label %invoke.cont110 unwind label %lpad107, !dbg !3286

invoke.cont110:                                   ; preds = %invoke.cont108
  call void @__cxa_throw(i8* %exception106, i8* bitcast ({ i8*, i8*, i8* }* @_ZTI13cRuntimeError to i8*), i8* bitcast (void (%class.cRuntimeError*)* @_ZN13cRuntimeErrorD2Ev to i8*)) #16, !dbg !3286
  unreachable, !dbg !3286

lpad91:                                           ; preds = %cond.end94, %cond.false88
  %22 = landingpad { i8*, i32 }
          cleanup, !dbg !3290
  %23 = extractvalue { i8*, i32 } %22, 0, !dbg !3290
  store i8* %23, i8** %exn.slot, align 8, !dbg !3290
  %24 = extractvalue { i8*, i32 } %22, 1, !dbg !3290
  store i32 %24, i32* %ehselector.slot, align 4, !dbg !3290
  %cleanup.is_active102 = load i1, i1* %cleanup.cond86, align 1, !dbg !3286
  br i1 %cleanup.is_active102, label %cleanup.action103, label %cleanup.done104, !dbg !3286

cleanup.action103:                                ; preds = %lpad91
  call void @_ZNSt7__cxx1112basic_stringIcSt11char_traitsIcESaIcEED1Ev(%"class.std::__cxx11::basic_string"* %ref.tmp82) #3, !dbg !3286
  br label %cleanup.done104, !dbg !3286

cleanup.done104:                                  ; preds = %cleanup.action103, %lpad91
  br label %eh.resume, !dbg !3286

lpad107:                                          ; preds = %invoke.cont108, %if.then105
  %25 = landingpad { i8*, i32 }
          cleanup, !dbg !3290
  %26 = extractvalue { i8*, i32 } %25, 0, !dbg !3290
  store i8* %26, i8** %exn.slot, align 8, !dbg !3290
  %27 = extractvalue { i8*, i32 } %25, 1, !dbg !3290
  store i32 %27, i32* %ehselector.slot, align 4, !dbg !3290
  call void @__cxa_free_exception(i8* %exception106) #3, !dbg !3286
  br label %eh.resume, !dbg !3286

if.end111:                                        ; preds = %cleanup.done101
  br label %for.inc112, !dbg !3291

for.inc112:                                       ; preds = %if.end111
  %call113 = call dereferenceable(8) %"struct.std::_Rb_tree_const_iterator"* @_ZNSt23_Rb_tree_const_iteratorISt4pairIK10opp_stringS1_EEppEv(%"struct.std::_Rb_tree_const_iterator"* %it62) #3, !dbg !3292
  br label %for.cond66, !dbg !3293, !llvm.loop !3294

for.end114:                                       ; preds = %for.cond66
  %28 = load %struct._IO_FILE*, %struct._IO_FILE** %f.addr, align 8, !dbg !3296
  %call115 = call i32 (%struct._IO_FILE*, i8*, ...) @fprintf(%struct._IO_FILE* %28, i8* getelementptr inbounds ([2 x i8], [2 x i8]* @.str.5, i64 0, i64 0)), !dbg !3296
  %cmp116 = icmp slt i32 %call115, 0, !dbg !3296
  br i1 %cmp116, label %if.then117, label %if.end123, !dbg !3298

if.then117:                                       ; preds = %for.end114
  %exception118 = call i8* @__cxa_allocate_exception(i64 128) #3, !dbg !3296
  %29 = bitcast i8* %exception118 to %class.cRuntimeError*, !dbg !3296
  %call121 = invoke i8* @_ZNK10opp_string5c_strEv(%class.opp_string* %fname)
          to label %invoke.cont120 unwind label %lpad119, !dbg !3296

invoke.cont120:                                   ; preds = %if.then117
  invoke void (%class.cRuntimeError*, i8*, ...) @_ZN13cRuntimeErrorC1EPKcz(%class.cRuntimeError* %29, i8* getelementptr inbounds ([37 x i8], [37 x i8]* @.str.2, i64 0, i64 0), i8* %call121)
          to label %invoke.cont122 unwind label %lpad119, !dbg !3296

invoke.cont122:                                   ; preds = %invoke.cont120
  call void @__cxa_throw(i8* %exception118, i8* bitcast ({ i8*, i8*, i8* }* @_ZTI13cRuntimeError to i8*), i8* bitcast (void (%class.cRuntimeError*)* @_ZN13cRuntimeErrorD2Ev to i8*)) #16, !dbg !3296
  unreachable, !dbg !3296

lpad119:                                          ; preds = %invoke.cont120, %if.then117
  %30 = landingpad { i8*, i32 }
          cleanup, !dbg !3299
  %31 = extractvalue { i8*, i32 } %30, 0, !dbg !3299
  store i8* %31, i8** %exn.slot, align 8, !dbg !3299
  %32 = extractvalue { i8*, i32 } %30, 1, !dbg !3299
  store i32 %32, i32* %ehselector.slot, align 4, !dbg !3299
  call void @__cxa_free_exception(i8* %exception118) #3, !dbg !3296
  br label %eh.resume, !dbg !3296

if.end123:                                        ; preds = %for.end114
  ret void, !dbg !3300

eh.resume:                                        ; preds = %lpad119, %lpad107, %cleanup.done104, %lpad56, %cleanup.done53, %lpad13, %cleanup.done12
  %exn = load i8*, i8** %exn.slot, align 8, !dbg !3250
  %sel = load i32, i32* %ehselector.slot, align 4, !dbg !3250
  %lpad.val = insertvalue { i8*, i32 } undef, i8* %exn, 0, !dbg !3250
  %lpad.val124 = insertvalue { i8*, i32 } %lpad.val, i32 %sel, 1, !dbg !3250
  resume { i8*, i32 } %lpad.val124, !dbg !3250
}

declare dso_local i32 @fprintf(%struct._IO_FILE*, i8*, ...) #1

declare dso_local zeroext i1 @_Z15opp_needsquotesPKc(i8*) #1

; Function Attrs: noinline nounwind uwtable
define linkonce_odr dso_local i8* @_ZNK10opp_string5c_strEv(%class.opp_string* %this) #5 comdat align 2 !dbg !3301 {
entry:
  %this.addr = alloca %class.opp_string*, align 8
  store %class.opp_string* %this, %class.opp_string** %this.addr, align 8
  call void @llvm.dbg.declare(metadata %class.opp_string** %this.addr, metadata !3302, metadata !DIExpression()), !dbg !3304
  %this1 = load %class.opp_string*, %class.opp_string** %this.addr, align 8
  %str = getelementptr inbounds %class.opp_string, %class.opp_string* %this1, i32 0, i32 0, !dbg !3305
  %0 = load i8*, i8** %str, align 8, !dbg !3305
  %tobool = icmp ne i8* %0, null, !dbg !3305
  br i1 %tobool, label %cond.true, label %cond.false, !dbg !3305

cond.true:                                        ; preds = %entry
  %str2 = getelementptr inbounds %class.opp_string, %class.opp_string* %this1, i32 0, i32 0, !dbg !3306
  %1 = load i8*, i8** %str2, align 8, !dbg !3306
  br label %cond.end, !dbg !3305

cond.false:                                       ; preds = %entry
  br label %cond.end, !dbg !3305

cond.end:                                         ; preds = %cond.false, %cond.true
  %cond = phi i8* [ %1, %cond.true ], [ getelementptr inbounds ([1 x i8], [1 x i8]* @.str.6, i64 0, i64 0), %cond.false ], !dbg !3305
  ret i8* %cond, !dbg !3307
}

declare dso_local void @_Z12opp_quotestrB5cxx11PKc(%"class.std::__cxx11::basic_string"* sret, i8*) #1

; Function Attrs: nounwind
declare dso_local i8* @_ZNKSt7__cxx1112basic_stringIcSt11char_traitsIcESaIcEE5c_strEv(%"class.std::__cxx11::basic_string"*) #2

; Function Attrs: nounwind
declare dso_local void @_ZNSt7__cxx1112basic_stringIcSt11char_traitsIcESaIcEED1Ev(%"class.std::__cxx11::basic_string"*) unnamed_addr #2

declare dso_local i8* @__cxa_allocate_exception(i64)

declare dso_local void @_ZN13cRuntimeErrorC1EPKcz(%class.cRuntimeError*, i8*, ...) unnamed_addr #1

declare dso_local void @__cxa_free_exception(i8*)

; Function Attrs: noinline nounwind uwtable
define linkonce_odr dso_local void @_ZN13cRuntimeErrorD2Ev(%class.cRuntimeError* %this) unnamed_addr #5 comdat align 2 !dbg !3308 {
entry:
  %this.addr = alloca %class.cRuntimeError*, align 8
  store %class.cRuntimeError* %this, %class.cRuntimeError** %this.addr, align 8
  call void @llvm.dbg.declare(metadata %class.cRuntimeError** %this.addr, metadata !3315, metadata !DIExpression()), !dbg !3317
  %this1 = load %class.cRuntimeError*, %class.cRuntimeError** %this.addr, align 8
  %0 = bitcast %class.cRuntimeError* %this1 to %class.cException*, !dbg !3318
  call void @_ZN10cExceptionD2Ev(%class.cException* %0) #3, !dbg !3318
  ret void, !dbg !3320
}

declare dso_local void @__cxa_throw(i8*, i8*, i8*)

; Function Attrs: noinline nounwind uwtable
define linkonce_odr dso_local %"struct.std::_Rb_tree_node_base"* @_ZNSt3mapI10opp_stringS0_St4lessIS0_ESaISt4pairIKS0_S0_EEE5beginEv(%"class.std::map"* %this) #5 comdat align 2 !dbg !3321 {
entry:
  %retval = alloca %"struct.std::_Rb_tree_iterator", align 8
  %this.addr = alloca %"class.std::map"*, align 8
  store %"class.std::map"* %this, %"class.std::map"** %this.addr, align 8
  call void @llvm.dbg.declare(metadata %"class.std::map"** %this.addr, metadata !3322, metadata !DIExpression()), !dbg !3323
  %this1 = load %"class.std::map"*, %"class.std::map"** %this.addr, align 8
  %_M_t = getelementptr inbounds %"class.std::map", %"class.std::map"* %this1, i32 0, i32 0, !dbg !3324
  %call = call %"struct.std::_Rb_tree_node_base"* @_ZNSt8_Rb_treeI10opp_stringSt4pairIKS0_S0_ESt10_Select1stIS3_ESt4lessIS0_ESaIS3_EE5beginEv(%"class.std::_Rb_tree"* %_M_t) #3, !dbg !3325
  %coerce.dive = getelementptr inbounds %"struct.std::_Rb_tree_iterator", %"struct.std::_Rb_tree_iterator"* %retval, i32 0, i32 0, !dbg !3325
  store %"struct.std::_Rb_tree_node_base"* %call, %"struct.std::_Rb_tree_node_base"** %coerce.dive, align 8, !dbg !3325
  %coerce.dive2 = getelementptr inbounds %"struct.std::_Rb_tree_iterator", %"struct.std::_Rb_tree_iterator"* %retval, i32 0, i32 0, !dbg !3326
  %0 = load %"struct.std::_Rb_tree_node_base"*, %"struct.std::_Rb_tree_node_base"** %coerce.dive2, align 8, !dbg !3326
  ret %"struct.std::_Rb_tree_node_base"* %0, !dbg !3326
}

; Function Attrs: noinline nounwind uwtable
define linkonce_odr dso_local void @_ZNSt23_Rb_tree_const_iteratorISt4pairIK10opp_stringS1_EEC2ERKSt17_Rb_tree_iteratorIS3_E(%"struct.std::_Rb_tree_const_iterator"* %this, %"struct.std::_Rb_tree_iterator"* dereferenceable(8) %__it) unnamed_addr #5 comdat align 2 !dbg !3327 {
entry:
  %this.addr = alloca %"struct.std::_Rb_tree_const_iterator"*, align 8
  %__it.addr = alloca %"struct.std::_Rb_tree_iterator"*, align 8
  store %"struct.std::_Rb_tree_const_iterator"* %this, %"struct.std::_Rb_tree_const_iterator"** %this.addr, align 8
  call void @llvm.dbg.declare(metadata %"struct.std::_Rb_tree_const_iterator"** %this.addr, metadata !3328, metadata !DIExpression()), !dbg !3330
  store %"struct.std::_Rb_tree_iterator"* %__it, %"struct.std::_Rb_tree_iterator"** %__it.addr, align 8
  call void @llvm.dbg.declare(metadata %"struct.std::_Rb_tree_iterator"** %__it.addr, metadata !3331, metadata !DIExpression()), !dbg !3332
  %this1 = load %"struct.std::_Rb_tree_const_iterator"*, %"struct.std::_Rb_tree_const_iterator"** %this.addr, align 8
  %_M_node = getelementptr inbounds %"struct.std::_Rb_tree_const_iterator", %"struct.std::_Rb_tree_const_iterator"* %this1, i32 0, i32 0, !dbg !3333
  %0 = load %"struct.std::_Rb_tree_iterator"*, %"struct.std::_Rb_tree_iterator"** %__it.addr, align 8, !dbg !3334
  %_M_node2 = getelementptr inbounds %"struct.std::_Rb_tree_iterator", %"struct.std::_Rb_tree_iterator"* %0, i32 0, i32 0, !dbg !3335
  %1 = load %"struct.std::_Rb_tree_node_base"*, %"struct.std::_Rb_tree_node_base"** %_M_node2, align 8, !dbg !3335
  store %"struct.std::_Rb_tree_node_base"* %1, %"struct.std::_Rb_tree_node_base"** %_M_node, align 8, !dbg !3333
  ret void, !dbg !3336
}

; Function Attrs: noinline nounwind uwtable
define linkonce_odr dso_local zeroext i1 @_ZStneRKSt23_Rb_tree_const_iteratorISt4pairIK10opp_stringS1_EES6_(%"struct.std::_Rb_tree_const_iterator"* dereferenceable(8) %__x, %"struct.std::_Rb_tree_const_iterator"* dereferenceable(8) %__y) #5 comdat !dbg !3337 {
entry:
  %__x.addr = alloca %"struct.std::_Rb_tree_const_iterator"*, align 8
  %__y.addr = alloca %"struct.std::_Rb_tree_const_iterator"*, align 8
  store %"struct.std::_Rb_tree_const_iterator"* %__x, %"struct.std::_Rb_tree_const_iterator"** %__x.addr, align 8
  call void @llvm.dbg.declare(metadata %"struct.std::_Rb_tree_const_iterator"** %__x.addr, metadata !3342, metadata !DIExpression()), !dbg !3343
  store %"struct.std::_Rb_tree_const_iterator"* %__y, %"struct.std::_Rb_tree_const_iterator"** %__y.addr, align 8
  call void @llvm.dbg.declare(metadata %"struct.std::_Rb_tree_const_iterator"** %__y.addr, metadata !3344, metadata !DIExpression()), !dbg !3345
  %0 = load %"struct.std::_Rb_tree_const_iterator"*, %"struct.std::_Rb_tree_const_iterator"** %__x.addr, align 8, !dbg !3346
  %_M_node = getelementptr inbounds %"struct.std::_Rb_tree_const_iterator", %"struct.std::_Rb_tree_const_iterator"* %0, i32 0, i32 0, !dbg !3347
  %1 = load %"struct.std::_Rb_tree_node_base"*, %"struct.std::_Rb_tree_node_base"** %_M_node, align 8, !dbg !3347
  %2 = load %"struct.std::_Rb_tree_const_iterator"*, %"struct.std::_Rb_tree_const_iterator"** %__y.addr, align 8, !dbg !3348
  %_M_node1 = getelementptr inbounds %"struct.std::_Rb_tree_const_iterator", %"struct.std::_Rb_tree_const_iterator"* %2, i32 0, i32 0, !dbg !3349
  %3 = load %"struct.std::_Rb_tree_node_base"*, %"struct.std::_Rb_tree_node_base"** %_M_node1, align 8, !dbg !3349
  %cmp = icmp ne %"struct.std::_Rb_tree_node_base"* %1, %3, !dbg !3350
  ret i1 %cmp, !dbg !3351
}

; Function Attrs: noinline nounwind uwtable
define linkonce_odr dso_local %"struct.std::_Rb_tree_node_base"* @_ZNSt3mapI10opp_stringS0_St4lessIS0_ESaISt4pairIKS0_S0_EEE3endEv(%"class.std::map"* %this) #5 comdat align 2 !dbg !3352 {
entry:
  %retval = alloca %"struct.std::_Rb_tree_iterator", align 8
  %this.addr = alloca %"class.std::map"*, align 8
  store %"class.std::map"* %this, %"class.std::map"** %this.addr, align 8
  call void @llvm.dbg.declare(metadata %"class.std::map"** %this.addr, metadata !3353, metadata !DIExpression()), !dbg !3354
  %this1 = load %"class.std::map"*, %"class.std::map"** %this.addr, align 8
  %_M_t = getelementptr inbounds %"class.std::map", %"class.std::map"* %this1, i32 0, i32 0, !dbg !3355
  %call = call %"struct.std::_Rb_tree_node_base"* @_ZNSt8_Rb_treeI10opp_stringSt4pairIKS0_S0_ESt10_Select1stIS3_ESt4lessIS0_ESaIS3_EE3endEv(%"class.std::_Rb_tree"* %_M_t) #3, !dbg !3356
  %coerce.dive = getelementptr inbounds %"struct.std::_Rb_tree_iterator", %"struct.std::_Rb_tree_iterator"* %retval, i32 0, i32 0, !dbg !3356
  store %"struct.std::_Rb_tree_node_base"* %call, %"struct.std::_Rb_tree_node_base"** %coerce.dive, align 8, !dbg !3356
  %coerce.dive2 = getelementptr inbounds %"struct.std::_Rb_tree_iterator", %"struct.std::_Rb_tree_iterator"* %retval, i32 0, i32 0, !dbg !3357
  %0 = load %"struct.std::_Rb_tree_node_base"*, %"struct.std::_Rb_tree_node_base"** %coerce.dive2, align 8, !dbg !3357
  ret %"struct.std::_Rb_tree_node_base"* %0, !dbg !3357
}

; Function Attrs: noinline nounwind uwtable
define linkonce_odr dso_local %"struct.std::pair"* @_ZNKSt23_Rb_tree_const_iteratorISt4pairIK10opp_stringS1_EEptEv(%"struct.std::_Rb_tree_const_iterator"* %this) #5 comdat align 2 personality i8* bitcast (i32 (...)* @__gxx_personality_v0 to i8*) !dbg !3358 {
entry:
  %this.addr = alloca %"struct.std::_Rb_tree_const_iterator"*, align 8
  store %"struct.std::_Rb_tree_const_iterator"* %this, %"struct.std::_Rb_tree_const_iterator"** %this.addr, align 8
  call void @llvm.dbg.declare(metadata %"struct.std::_Rb_tree_const_iterator"** %this.addr, metadata !3359, metadata !DIExpression()), !dbg !3361
  %this1 = load %"struct.std::_Rb_tree_const_iterator"*, %"struct.std::_Rb_tree_const_iterator"** %this.addr, align 8
  %_M_node = getelementptr inbounds %"struct.std::_Rb_tree_const_iterator", %"struct.std::_Rb_tree_const_iterator"* %this1, i32 0, i32 0, !dbg !3362
  %0 = load %"struct.std::_Rb_tree_node_base"*, %"struct.std::_Rb_tree_node_base"** %_M_node, align 8, !dbg !3362
  %1 = bitcast %"struct.std::_Rb_tree_node_base"* %0 to %"struct.std::_Rb_tree_node"*, !dbg !3363
  %call = invoke %"struct.std::pair"* @_ZNKSt13_Rb_tree_nodeISt4pairIK10opp_stringS1_EE9_M_valptrEv(%"struct.std::_Rb_tree_node"* %1)
          to label %invoke.cont unwind label %terminate.lpad, !dbg !3364

invoke.cont:                                      ; preds = %entry
  ret %"struct.std::pair"* %call, !dbg !3365

terminate.lpad:                                   ; preds = %entry
  %2 = landingpad { i8*, i32 }
          catch i8* null, !dbg !3364
  %3 = extractvalue { i8*, i32 } %2, 0, !dbg !3364
  call void @__clang_call_terminate(i8* %3) #15, !dbg !3364
  unreachable, !dbg !3364
}

; Function Attrs: noinline nounwind uwtable
define linkonce_odr dso_local dereferenceable(8) %"struct.std::_Rb_tree_const_iterator"* @_ZNSt23_Rb_tree_const_iteratorISt4pairIK10opp_stringS1_EEppEv(%"struct.std::_Rb_tree_const_iterator"* %this) #5 comdat align 2 !dbg !3366 {
entry:
  %this.addr = alloca %"struct.std::_Rb_tree_const_iterator"*, align 8
  store %"struct.std::_Rb_tree_const_iterator"* %this, %"struct.std::_Rb_tree_const_iterator"** %this.addr, align 8
  call void @llvm.dbg.declare(metadata %"struct.std::_Rb_tree_const_iterator"** %this.addr, metadata !3367, metadata !DIExpression()), !dbg !3368
  %this1 = load %"struct.std::_Rb_tree_const_iterator"*, %"struct.std::_Rb_tree_const_iterator"** %this.addr, align 8
  %_M_node = getelementptr inbounds %"struct.std::_Rb_tree_const_iterator", %"struct.std::_Rb_tree_const_iterator"* %this1, i32 0, i32 0, !dbg !3369
  %0 = load %"struct.std::_Rb_tree_node_base"*, %"struct.std::_Rb_tree_node_base"** %_M_node, align 8, !dbg !3369
  %call = call %"struct.std::_Rb_tree_node_base"* @_ZSt18_Rb_tree_incrementPKSt18_Rb_tree_node_base(%"struct.std::_Rb_tree_node_base"* %0) #14, !dbg !3370
  %_M_node2 = getelementptr inbounds %"struct.std::_Rb_tree_const_iterator", %"struct.std::_Rb_tree_const_iterator"* %this1, i32 0, i32 0, !dbg !3371
  store %"struct.std::_Rb_tree_node_base"* %call, %"struct.std::_Rb_tree_node_base"** %_M_node2, align 8, !dbg !3372
  ret %"struct.std::_Rb_tree_const_iterator"* %this1, !dbg !3373
}

; Function Attrs: nobuiltin nounwind
declare dso_local void @_ZdaPv(i8*) #6

; Function Attrs: noinline uwtable
define linkonce_odr dso_local i8* @_Z10opp_strdupPKc(i8* %s) #0 comdat !dbg !3374 {
entry:
  %retval = alloca i8*, align 8
  %s.addr = alloca i8*, align 8
  %p = alloca i8*, align 8
  store i8* %s, i8** %s.addr, align 8
  call void @llvm.dbg.declare(metadata i8** %s.addr, metadata !3375, metadata !DIExpression()), !dbg !3376
  %0 = load i8*, i8** %s.addr, align 8, !dbg !3377
  %tobool = icmp ne i8* %0, null, !dbg !3377
  br i1 %tobool, label %lor.lhs.false, label %if.then, !dbg !3379

lor.lhs.false:                                    ; preds = %entry
  %1 = load i8*, i8** %s.addr, align 8, !dbg !3380
  %arrayidx = getelementptr inbounds i8, i8* %1, i64 0, !dbg !3380
  %2 = load i8, i8* %arrayidx, align 1, !dbg !3380
  %tobool1 = icmp ne i8 %2, 0, !dbg !3380
  br i1 %tobool1, label %if.end, label %if.then, !dbg !3381

if.then:                                          ; preds = %lor.lhs.false, %entry
  store i8* null, i8** %retval, align 8, !dbg !3382
  br label %return, !dbg !3382

if.end:                                           ; preds = %lor.lhs.false
  call void @llvm.dbg.declare(metadata i8** %p, metadata !3383, metadata !DIExpression()), !dbg !3384
  %3 = load i8*, i8** %s.addr, align 8, !dbg !3385
  %call = call i64 @strlen(i8* %3) #14, !dbg !3386
  %add = add i64 %call, 1, !dbg !3387
  %call2 = call i8* @_Znam(i64 %add) #17, !dbg !3388
  store i8* %call2, i8** %p, align 8, !dbg !3384
  %4 = load i8*, i8** %p, align 8, !dbg !3389
  %5 = load i8*, i8** %s.addr, align 8, !dbg !3390
  %call3 = call i8* @strcpy(i8* %4, i8* %5) #3, !dbg !3391
  %6 = load i8*, i8** %p, align 8, !dbg !3392
  store i8* %6, i8** %retval, align 8, !dbg !3393
  br label %return, !dbg !3393

return:                                           ; preds = %if.end, %if.then
  %7 = load i8*, i8** %retval, align 8, !dbg !3394
  ret i8* %7, !dbg !3394
}

; Function Attrs: nounwind readonly
declare dso_local i64 @strlen(i8*) #7

; Function Attrs: nobuiltin
declare dso_local noalias i8* @_Znam(i64) #8

; Function Attrs: nounwind
declare dso_local i8* @strcpy(i8*, i8*) #2

; Function Attrs: nounwind readonly
declare dso_local i32 @strcmp(i8*, i8*) #7

; Function Attrs: nounwind
declare dso_local void @_ZNSt9exceptionD2Ev(%"class.std::exception"*) unnamed_addr #2

; Function Attrs: noinline nounwind uwtable
define linkonce_odr dso_local void @_ZN10cExceptionD2Ev(%class.cException* %this) unnamed_addr #5 comdat align 2 !dbg !3395 {
entry:
  %this.addr = alloca %class.cException*, align 8
  store %class.cException* %this, %class.cException** %this.addr, align 8
  call void @llvm.dbg.declare(metadata %class.cException** %this.addr, metadata !3459, metadata !DIExpression()), !dbg !3460
  %this1 = load %class.cException*, %class.cException** %this.addr, align 8
  %0 = bitcast %class.cException* %this1 to i32 (...)***, !dbg !3461
  store i32 (...)** bitcast (i8** getelementptr inbounds ({ [13 x i8*] }, { [13 x i8*] }* @_ZTV10cException, i32 0, inrange i32 0, i32 2) to i32 (...)**), i32 (...)*** %0, align 8, !dbg !3461
  %contextfullpath = getelementptr inbounds %class.cException, %class.cException* %this1, i32 0, i32 7, !dbg !3462
  call void @_ZNSt7__cxx1112basic_stringIcSt11char_traitsIcESaIcEED1Ev(%"class.std::__cxx11::basic_string"* %contextfullpath) #3, !dbg !3462
  %contextclassname = getelementptr inbounds %class.cException, %class.cException* %this1, i32 0, i32 6, !dbg !3462
  call void @_ZNSt7__cxx1112basic_stringIcSt11char_traitsIcESaIcEED1Ev(%"class.std::__cxx11::basic_string"* %contextclassname) #3, !dbg !3462
  %msg = getelementptr inbounds %class.cException, %class.cException* %this1, i32 0, i32 3, !dbg !3462
  call void @_ZNSt7__cxx1112basic_stringIcSt11char_traitsIcESaIcEED1Ev(%"class.std::__cxx11::basic_string"* %msg) #3, !dbg !3462
  %1 = bitcast %class.cException* %this1 to %"class.std::exception"*, !dbg !3462
  call void @_ZNSt9exceptionD2Ev(%"class.std::exception"* %1) #3, !dbg !3462
  ret void, !dbg !3464
}

; Function Attrs: noinline nounwind uwtable
define linkonce_odr dso_local void @_ZN10cExceptionD0Ev(%class.cException* %this) unnamed_addr #5 comdat align 2 !dbg !3465 {
entry:
  %this.addr = alloca %class.cException*, align 8
  store %class.cException* %this, %class.cException** %this.addr, align 8
  call void @llvm.dbg.declare(metadata %class.cException** %this.addr, metadata !3466, metadata !DIExpression()), !dbg !3467
  %this1 = load %class.cException*, %class.cException** %this.addr, align 8
  call void @_ZN10cExceptionD2Ev(%class.cException* %this1) #3, !dbg !3468
  %0 = bitcast %class.cException* %this1 to i8*, !dbg !3468
  call void @_ZdlPv(i8* %0) #13, !dbg !3468
  ret void, !dbg !3469
}

; Function Attrs: noinline nounwind uwtable
define linkonce_odr dso_local i8* @_ZNK10cException4whatEv(%class.cException* %this) unnamed_addr #5 comdat align 2 !dbg !3470 {
entry:
  %this.addr = alloca %class.cException*, align 8
  store %class.cException* %this, %class.cException** %this.addr, align 8
  call void @llvm.dbg.declare(metadata %class.cException** %this.addr, metadata !3471, metadata !DIExpression()), !dbg !3473
  %this1 = load %class.cException*, %class.cException** %this.addr, align 8
  %msg = getelementptr inbounds %class.cException, %class.cException* %this1, i32 0, i32 3, !dbg !3474
  %call = call i8* @_ZNKSt7__cxx1112basic_stringIcSt11char_traitsIcESaIcEE5c_strEv(%"class.std::__cxx11::basic_string"* %msg) #3, !dbg !3475
  ret i8* %call, !dbg !3476
}

; Function Attrs: noinline uwtable
define linkonce_odr dso_local %class.cException* @_ZNK10cException3dupEv(%class.cException* %this) unnamed_addr #0 comdat align 2 personality i8* bitcast (i32 (...)* @__gxx_personality_v0 to i8*) !dbg !3477 {
entry:
  %this.addr = alloca %class.cException*, align 8
  %exn.slot = alloca i8*
  %ehselector.slot = alloca i32
  store %class.cException* %this, %class.cException** %this.addr, align 8
  call void @llvm.dbg.declare(metadata %class.cException** %this.addr, metadata !3478, metadata !DIExpression()), !dbg !3479
  %this1 = load %class.cException*, %class.cException** %this.addr, align 8
  %call = call i8* @_Znwm(i64 128) #17, !dbg !3480
  %0 = bitcast i8* %call to %class.cException*, !dbg !3480
  invoke void @_ZN10cExceptionC1ERKS_(%class.cException* %0, %class.cException* dereferenceable(128) %this1)
          to label %invoke.cont unwind label %lpad, !dbg !3481

invoke.cont:                                      ; preds = %entry
  ret %class.cException* %0, !dbg !3482

lpad:                                             ; preds = %entry
  %1 = landingpad { i8*, i32 }
          cleanup, !dbg !3483
  %2 = extractvalue { i8*, i32 } %1, 0, !dbg !3483
  store i8* %2, i8** %exn.slot, align 8, !dbg !3483
  %3 = extractvalue { i8*, i32 } %1, 1, !dbg !3483
  store i32 %3, i32* %ehselector.slot, align 4, !dbg !3483
  call void @_ZdlPv(i8* %call) #13, !dbg !3480
  br label %eh.resume, !dbg !3480

eh.resume:                                        ; preds = %lpad
  %exn = load i8*, i8** %exn.slot, align 8, !dbg !3480
  %sel = load i32, i32* %ehselector.slot, align 4, !dbg !3480
  %lpad.val = insertvalue { i8*, i32 } undef, i8* %exn, 0, !dbg !3480
  %lpad.val2 = insertvalue { i8*, i32 } %lpad.val, i32 %sel, 1, !dbg !3480
  resume { i8*, i32 } %lpad.val2, !dbg !3480
}

; Function Attrs: noinline nounwind uwtable
define linkonce_odr dso_local i32 @_ZNK10cException12getErrorCodeEv(%class.cException* %this) unnamed_addr #5 comdat align 2 !dbg !3484 {
entry:
  %this.addr = alloca %class.cException*, align 8
  store %class.cException* %this, %class.cException** %this.addr, align 8
  call void @llvm.dbg.declare(metadata %class.cException** %this.addr, metadata !3485, metadata !DIExpression()), !dbg !3486
  %this1 = load %class.cException*, %class.cException** %this.addr, align 8
  %errorcode = getelementptr inbounds %class.cException, %class.cException* %this1, i32 0, i32 1, !dbg !3487
  %0 = load i32, i32* %errorcode, align 8, !dbg !3487
  ret i32 %0, !dbg !3488
}

; Function Attrs: noinline uwtable
define linkonce_odr dso_local void @_ZN10cException10setMessageEPKc(%class.cException* %this, i8* %txt) unnamed_addr #0 comdat align 2 !dbg !3489 {
entry:
  %this.addr = alloca %class.cException*, align 8
  %txt.addr = alloca i8*, align 8
  store %class.cException* %this, %class.cException** %this.addr, align 8
  call void @llvm.dbg.declare(metadata %class.cException** %this.addr, metadata !3490, metadata !DIExpression()), !dbg !3491
  store i8* %txt, i8** %txt.addr, align 8
  call void @llvm.dbg.declare(metadata i8** %txt.addr, metadata !3492, metadata !DIExpression()), !dbg !3493
  %this1 = load %class.cException*, %class.cException** %this.addr, align 8
  %0 = load i8*, i8** %txt.addr, align 8, !dbg !3494
  %msg = getelementptr inbounds %class.cException, %class.cException* %this1, i32 0, i32 3, !dbg !3495
  %call = call dereferenceable(32) %"class.std::__cxx11::basic_string"* @_ZNSt7__cxx1112basic_stringIcSt11char_traitsIcESaIcEEaSEPKc(%"class.std::__cxx11::basic_string"* %msg, i8* %0), !dbg !3496
  ret void, !dbg !3497
}

; Function Attrs: noinline uwtable
define linkonce_odr dso_local void @_ZN10cException14prependMessageEPKc(%class.cException* %this, i8* %txt) unnamed_addr #0 comdat align 2 personality i8* bitcast (i32 (...)* @__gxx_personality_v0 to i8*) !dbg !3498 {
entry:
  %this.addr = alloca %class.cException*, align 8
  %txt.addr = alloca i8*, align 8
  %ref.tmp = alloca %"class.std::__cxx11::basic_string", align 8
  %ref.tmp2 = alloca %"class.std::__cxx11::basic_string", align 8
  %ref.tmp3 = alloca %"class.std::__cxx11::basic_string", align 8
  %ref.tmp4 = alloca %"class.std::allocator.3", align 1
  %exn.slot = alloca i8*
  %ehselector.slot = alloca i32
  store %class.cException* %this, %class.cException** %this.addr, align 8
  call void @llvm.dbg.declare(metadata %class.cException** %this.addr, metadata !3499, metadata !DIExpression()), !dbg !3500
  store i8* %txt, i8** %txt.addr, align 8
  call void @llvm.dbg.declare(metadata i8** %txt.addr, metadata !3501, metadata !DIExpression()), !dbg !3502
  %this1 = load %class.cException*, %class.cException** %this.addr, align 8
  %0 = load i8*, i8** %txt.addr, align 8, !dbg !3503
  call void @_ZNSaIcEC1Ev(%"class.std::allocator.3"* %ref.tmp4) #3, !dbg !3504
  invoke void @_ZNSt7__cxx1112basic_stringIcSt11char_traitsIcESaIcEEC1EPKcRKS3_(%"class.std::__cxx11::basic_string"* %ref.tmp3, i8* %0, %"class.std::allocator.3"* dereferenceable(1) %ref.tmp4)
          to label %invoke.cont unwind label %lpad, !dbg !3504

invoke.cont:                                      ; preds = %entry
  invoke void @_ZStplIcSt11char_traitsIcESaIcEENSt7__cxx1112basic_stringIT_T0_T1_EEOS8_PKS5_(%"class.std::__cxx11::basic_string"* sret %ref.tmp2, %"class.std::__cxx11::basic_string"* dereferenceable(32) %ref.tmp3, i8* getelementptr inbounds ([3 x i8], [3 x i8]* @.str.7, i64 0, i64 0))
          to label %invoke.cont6 unwind label %lpad5, !dbg !3505

invoke.cont6:                                     ; preds = %invoke.cont
  %msg = getelementptr inbounds %class.cException, %class.cException* %this1, i32 0, i32 3, !dbg !3506
  invoke void @_ZStplIcSt11char_traitsIcESaIcEENSt7__cxx1112basic_stringIT_T0_T1_EEOS8_RKS8_(%"class.std::__cxx11::basic_string"* sret %ref.tmp, %"class.std::__cxx11::basic_string"* dereferenceable(32) %ref.tmp2, %"class.std::__cxx11::basic_string"* dereferenceable(32) %msg)
          to label %invoke.cont8 unwind label %lpad7, !dbg !3507

invoke.cont8:                                     ; preds = %invoke.cont6
  %msg9 = getelementptr inbounds %class.cException, %class.cException* %this1, i32 0, i32 3, !dbg !3508
  %call = call dereferenceable(32) %"class.std::__cxx11::basic_string"* @_ZNSt7__cxx1112basic_stringIcSt11char_traitsIcESaIcEEaSEOS4_(%"class.std::__cxx11::basic_string"* %msg9, %"class.std::__cxx11::basic_string"* dereferenceable(32) %ref.tmp) #3, !dbg !3509
  call void @_ZNSt7__cxx1112basic_stringIcSt11char_traitsIcESaIcEED1Ev(%"class.std::__cxx11::basic_string"* %ref.tmp) #3, !dbg !3508
  call void @_ZNSt7__cxx1112basic_stringIcSt11char_traitsIcESaIcEED1Ev(%"class.std::__cxx11::basic_string"* %ref.tmp2) #3, !dbg !3508
  call void @_ZNSt7__cxx1112basic_stringIcSt11char_traitsIcESaIcEED1Ev(%"class.std::__cxx11::basic_string"* %ref.tmp3) #3, !dbg !3508
  call void @_ZNSaIcED1Ev(%"class.std::allocator.3"* %ref.tmp4) #3, !dbg !3508
  ret void, !dbg !3510

lpad:                                             ; preds = %entry
  %1 = landingpad { i8*, i32 }
          cleanup, !dbg !3510
  %2 = extractvalue { i8*, i32 } %1, 0, !dbg !3510
  store i8* %2, i8** %exn.slot, align 8, !dbg !3510
  %3 = extractvalue { i8*, i32 } %1, 1, !dbg !3510
  store i32 %3, i32* %ehselector.slot, align 4, !dbg !3510
  br label %ehcleanup10, !dbg !3510

lpad5:                                            ; preds = %invoke.cont
  %4 = landingpad { i8*, i32 }
          cleanup, !dbg !3510
  %5 = extractvalue { i8*, i32 } %4, 0, !dbg !3510
  store i8* %5, i8** %exn.slot, align 8, !dbg !3510
  %6 = extractvalue { i8*, i32 } %4, 1, !dbg !3510
  store i32 %6, i32* %ehselector.slot, align 4, !dbg !3510
  br label %ehcleanup, !dbg !3510

lpad7:                                            ; preds = %invoke.cont6
  %7 = landingpad { i8*, i32 }
          cleanup, !dbg !3510
  %8 = extractvalue { i8*, i32 } %7, 0, !dbg !3510
  store i8* %8, i8** %exn.slot, align 8, !dbg !3510
  %9 = extractvalue { i8*, i32 } %7, 1, !dbg !3510
  store i32 %9, i32* %ehselector.slot, align 4, !dbg !3510
  call void @_ZNSt7__cxx1112basic_stringIcSt11char_traitsIcESaIcEED1Ev(%"class.std::__cxx11::basic_string"* %ref.tmp2) #3, !dbg !3508
  br label %ehcleanup, !dbg !3508

ehcleanup:                                        ; preds = %lpad7, %lpad5
  call void @_ZNSt7__cxx1112basic_stringIcSt11char_traitsIcESaIcEED1Ev(%"class.std::__cxx11::basic_string"* %ref.tmp3) #3, !dbg !3508
  br label %ehcleanup10, !dbg !3508

ehcleanup10:                                      ; preds = %ehcleanup, %lpad
  call void @_ZNSaIcED1Ev(%"class.std::allocator.3"* %ref.tmp4) #3, !dbg !3508
  br label %eh.resume, !dbg !3508

eh.resume:                                        ; preds = %ehcleanup10
  %exn = load i8*, i8** %exn.slot, align 8, !dbg !3508
  %sel = load i32, i32* %ehselector.slot, align 4, !dbg !3508
  %lpad.val = insertvalue { i8*, i32 } undef, i8* %exn, 0, !dbg !3508
  %lpad.val11 = insertvalue { i8*, i32 } %lpad.val, i32 %sel, 1, !dbg !3508
  resume { i8*, i32 } %lpad.val11, !dbg !3508
}

; Function Attrs: noinline nounwind uwtable
define linkonce_odr dso_local zeroext i1 @_ZNK10cException10hasContextEv(%class.cException* %this) unnamed_addr #5 comdat align 2 !dbg !3511 {
entry:
  %this.addr = alloca %class.cException*, align 8
  store %class.cException* %this, %class.cException** %this.addr, align 8
  call void @llvm.dbg.declare(metadata %class.cException** %this.addr, metadata !3512, metadata !DIExpression()), !dbg !3513
  %this1 = load %class.cException*, %class.cException** %this.addr, align 8
  %hascontext = getelementptr inbounds %class.cException, %class.cException* %this1, i32 0, i32 4, !dbg !3514
  %0 = load i8, i8* %hascontext, align 8, !dbg !3514
  %tobool = trunc i8 %0 to i1, !dbg !3514
  ret i1 %tobool, !dbg !3515
}

; Function Attrs: noinline nounwind uwtable
define linkonce_odr dso_local i8* @_ZNK10cException19getContextClassNameEv(%class.cException* %this) unnamed_addr #5 comdat align 2 !dbg !3516 {
entry:
  %this.addr = alloca %class.cException*, align 8
  store %class.cException* %this, %class.cException** %this.addr, align 8
  call void @llvm.dbg.declare(metadata %class.cException** %this.addr, metadata !3517, metadata !DIExpression()), !dbg !3518
  %this1 = load %class.cException*, %class.cException** %this.addr, align 8
  %contextclassname = getelementptr inbounds %class.cException, %class.cException* %this1, i32 0, i32 6, !dbg !3519
  %call = call i8* @_ZNKSt7__cxx1112basic_stringIcSt11char_traitsIcESaIcEE5c_strEv(%"class.std::__cxx11::basic_string"* %contextclassname) #3, !dbg !3520
  ret i8* %call, !dbg !3521
}

; Function Attrs: noinline nounwind uwtable
define linkonce_odr dso_local i8* @_ZNK10cException18getContextFullPathEv(%class.cException* %this) unnamed_addr #5 comdat align 2 !dbg !3522 {
entry:
  %this.addr = alloca %class.cException*, align 8
  store %class.cException* %this, %class.cException** %this.addr, align 8
  call void @llvm.dbg.declare(metadata %class.cException** %this.addr, metadata !3523, metadata !DIExpression()), !dbg !3524
  %this1 = load %class.cException*, %class.cException** %this.addr, align 8
  %contextfullpath = getelementptr inbounds %class.cException, %class.cException* %this1, i32 0, i32 7, !dbg !3525
  %call = call i8* @_ZNKSt7__cxx1112basic_stringIcSt11char_traitsIcESaIcEE5c_strEv(%"class.std::__cxx11::basic_string"* %contextfullpath) #3, !dbg !3526
  ret i8* %call, !dbg !3527
}

; Function Attrs: noinline nounwind uwtable
define linkonce_odr dso_local i32 @_ZNK10cException11getModuleIDEv(%class.cException* %this) unnamed_addr #5 comdat align 2 !dbg !3528 {
entry:
  %this.addr = alloca %class.cException*, align 8
  store %class.cException* %this, %class.cException** %this.addr, align 8
  call void @llvm.dbg.declare(metadata %class.cException** %this.addr, metadata !3529, metadata !DIExpression()), !dbg !3530
  %this1 = load %class.cException*, %class.cException** %this.addr, align 8
  %moduleid = getelementptr inbounds %class.cException, %class.cException* %this1, i32 0, i32 8, !dbg !3531
  %0 = load i32, i32* %moduleid, align 8, !dbg !3531
  ret i32 %0, !dbg !3532
}

; Function Attrs: nobuiltin nounwind
declare dso_local void @_ZdlPv(i8*) #6

; Function Attrs: nobuiltin
declare dso_local noalias i8* @_Znwm(i64) #8

declare dso_local void @_ZN10cExceptionC1ERKS_(%class.cException*, %class.cException* dereferenceable(128)) unnamed_addr #1

declare dso_local dereferenceable(32) %"class.std::__cxx11::basic_string"* @_ZNSt7__cxx1112basic_stringIcSt11char_traitsIcESaIcEEaSEPKc(%"class.std::__cxx11::basic_string"*, i8*) #1

; Function Attrs: noinline uwtable
define linkonce_odr dso_local void @_ZStplIcSt11char_traitsIcESaIcEENSt7__cxx1112basic_stringIT_T0_T1_EEOS8_RKS8_(%"class.std::__cxx11::basic_string"* noalias sret %agg.result, %"class.std::__cxx11::basic_string"* dereferenceable(32) %__lhs, %"class.std::__cxx11::basic_string"* dereferenceable(32) %__rhs) #0 comdat !dbg !3533 {
entry:
  %result.ptr = alloca i8*, align 8
  %__lhs.addr = alloca %"class.std::__cxx11::basic_string"*, align 8
  %__rhs.addr = alloca %"class.std::__cxx11::basic_string"*, align 8
  %0 = bitcast %"class.std::__cxx11::basic_string"* %agg.result to i8*
  store i8* %0, i8** %result.ptr, align 8
  store %"class.std::__cxx11::basic_string"* %__lhs, %"class.std::__cxx11::basic_string"** %__lhs.addr, align 8
  call void @llvm.dbg.declare(metadata %"class.std::__cxx11::basic_string"** %__lhs.addr, metadata !3596, metadata !DIExpression()), !dbg !3597
  store %"class.std::__cxx11::basic_string"* %__rhs, %"class.std::__cxx11::basic_string"** %__rhs.addr, align 8
  call void @llvm.dbg.declare(metadata %"class.std::__cxx11::basic_string"** %__rhs.addr, metadata !3598, metadata !DIExpression()), !dbg !3599
  %1 = load %"class.std::__cxx11::basic_string"*, %"class.std::__cxx11::basic_string"** %__lhs.addr, align 8, !dbg !3600
  %2 = load %"class.std::__cxx11::basic_string"*, %"class.std::__cxx11::basic_string"** %__rhs.addr, align 8, !dbg !3601
  %call = call dereferenceable(32) %"class.std::__cxx11::basic_string"* @_ZNSt7__cxx1112basic_stringIcSt11char_traitsIcESaIcEE6appendERKS4_(%"class.std::__cxx11::basic_string"* %1, %"class.std::__cxx11::basic_string"* dereferenceable(32) %2), !dbg !3602
  %call1 = call dereferenceable(32) %"class.std::__cxx11::basic_string"* @_ZSt4moveIRNSt7__cxx1112basic_stringIcSt11char_traitsIcESaIcEEEEONSt16remove_referenceIT_E4typeEOS8_(%"class.std::__cxx11::basic_string"* dereferenceable(32) %call) #3, !dbg !3603
  call void @_ZNSt7__cxx1112basic_stringIcSt11char_traitsIcESaIcEEC1EOS4_(%"class.std::__cxx11::basic_string"* %agg.result, %"class.std::__cxx11::basic_string"* dereferenceable(32) %call1) #3, !dbg !3603
  ret void, !dbg !3604
}

; Function Attrs: noinline uwtable
define linkonce_odr dso_local void @_ZStplIcSt11char_traitsIcESaIcEENSt7__cxx1112basic_stringIT_T0_T1_EEOS8_PKS5_(%"class.std::__cxx11::basic_string"* noalias sret %agg.result, %"class.std::__cxx11::basic_string"* dereferenceable(32) %__lhs, i8* %__rhs) #0 comdat !dbg !3605 {
entry:
  %result.ptr = alloca i8*, align 8
  %__lhs.addr = alloca %"class.std::__cxx11::basic_string"*, align 8
  %__rhs.addr = alloca i8*, align 8
  %0 = bitcast %"class.std::__cxx11::basic_string"* %agg.result to i8*
  store i8* %0, i8** %result.ptr, align 8
  store %"class.std::__cxx11::basic_string"* %__lhs, %"class.std::__cxx11::basic_string"** %__lhs.addr, align 8
  call void @llvm.dbg.declare(metadata %"class.std::__cxx11::basic_string"** %__lhs.addr, metadata !3608, metadata !DIExpression()), !dbg !3609
  store i8* %__rhs, i8** %__rhs.addr, align 8
  call void @llvm.dbg.declare(metadata i8** %__rhs.addr, metadata !3610, metadata !DIExpression()), !dbg !3611
  %1 = load %"class.std::__cxx11::basic_string"*, %"class.std::__cxx11::basic_string"** %__lhs.addr, align 8, !dbg !3612
  %2 = load i8*, i8** %__rhs.addr, align 8, !dbg !3613
  %call = call dereferenceable(32) %"class.std::__cxx11::basic_string"* @_ZNSt7__cxx1112basic_stringIcSt11char_traitsIcESaIcEE6appendEPKc(%"class.std::__cxx11::basic_string"* %1, i8* %2), !dbg !3614
  %call1 = call dereferenceable(32) %"class.std::__cxx11::basic_string"* @_ZSt4moveIRNSt7__cxx1112basic_stringIcSt11char_traitsIcESaIcEEEEONSt16remove_referenceIT_E4typeEOS8_(%"class.std::__cxx11::basic_string"* dereferenceable(32) %call) #3, !dbg !3615
  call void @_ZNSt7__cxx1112basic_stringIcSt11char_traitsIcESaIcEEC1EOS4_(%"class.std::__cxx11::basic_string"* %agg.result, %"class.std::__cxx11::basic_string"* dereferenceable(32) %call1) #3, !dbg !3615
  ret void, !dbg !3616
}

; Function Attrs: nounwind
declare dso_local void @_ZNSaIcEC1Ev(%"class.std::allocator.3"*) unnamed_addr #2

declare dso_local void @_ZNSt7__cxx1112basic_stringIcSt11char_traitsIcESaIcEEC1EPKcRKS3_(%"class.std::__cxx11::basic_string"*, i8*, %"class.std::allocator.3"* dereferenceable(1)) unnamed_addr #1

; Function Attrs: nounwind
declare dso_local dereferenceable(32) %"class.std::__cxx11::basic_string"* @_ZNSt7__cxx1112basic_stringIcSt11char_traitsIcESaIcEEaSEOS4_(%"class.std::__cxx11::basic_string"*, %"class.std::__cxx11::basic_string"* dereferenceable(32)) #2

; Function Attrs: nounwind
declare dso_local void @_ZNSaIcED1Ev(%"class.std::allocator.3"*) unnamed_addr #2

; Function Attrs: noinline nounwind uwtable
define linkonce_odr dso_local dereferenceable(32) %"class.std::__cxx11::basic_string"* @_ZSt4moveIRNSt7__cxx1112basic_stringIcSt11char_traitsIcESaIcEEEEONSt16remove_referenceIT_E4typeEOS8_(%"class.std::__cxx11::basic_string"* dereferenceable(32) %__t) #5 comdat !dbg !3617 {
entry:
  %__t.addr = alloca %"class.std::__cxx11::basic_string"*, align 8
  store %"class.std::__cxx11::basic_string"* %__t, %"class.std::__cxx11::basic_string"** %__t.addr, align 8
  call void @llvm.dbg.declare(metadata %"class.std::__cxx11::basic_string"** %__t.addr, metadata !3627, metadata !DIExpression()), !dbg !3628
  %0 = load %"class.std::__cxx11::basic_string"*, %"class.std::__cxx11::basic_string"** %__t.addr, align 8, !dbg !3629
  ret %"class.std::__cxx11::basic_string"* %0, !dbg !3630
}

declare dso_local dereferenceable(32) %"class.std::__cxx11::basic_string"* @_ZNSt7__cxx1112basic_stringIcSt11char_traitsIcESaIcEE6appendERKS4_(%"class.std::__cxx11::basic_string"*, %"class.std::__cxx11::basic_string"* dereferenceable(32)) #1

; Function Attrs: nounwind
declare dso_local void @_ZNSt7__cxx1112basic_stringIcSt11char_traitsIcESaIcEEC1EOS4_(%"class.std::__cxx11::basic_string"*, %"class.std::__cxx11::basic_string"* dereferenceable(32)) unnamed_addr #2

declare dso_local dereferenceable(32) %"class.std::__cxx11::basic_string"* @_ZNSt7__cxx1112basic_stringIcSt11char_traitsIcESaIcEE6appendEPKc(%"class.std::__cxx11::basic_string"*, i8*) #1

; Function Attrs: noinline uwtable
define linkonce_odr dso_local void @_ZSt8_DestroyIPPKcS1_EvT_S3_RSaIT0_E(i8** %__first, i8** %__last, %"class.std::allocator.0"* dereferenceable(1) %0) #0 comdat !dbg !3631 {
entry:
  %__first.addr = alloca i8**, align 8
  %__last.addr = alloca i8**, align 8
  %.addr = alloca %"class.std::allocator.0"*, align 8
  store i8** %__first, i8*** %__first.addr, align 8
  call void @llvm.dbg.declare(metadata i8*** %__first.addr, metadata !3636, metadata !DIExpression()), !dbg !3637
  store i8** %__last, i8*** %__last.addr, align 8
  call void @llvm.dbg.declare(metadata i8*** %__last.addr, metadata !3638, metadata !DIExpression()), !dbg !3639
  store %"class.std::allocator.0"* %0, %"class.std::allocator.0"** %.addr, align 8
  call void @llvm.dbg.declare(metadata %"class.std::allocator.0"** %.addr, metadata !3640, metadata !DIExpression()), !dbg !3641
  %1 = load i8**, i8*** %__first.addr, align 8, !dbg !3642
  %2 = load i8**, i8*** %__last.addr, align 8, !dbg !3643
  call void @_ZSt8_DestroyIPPKcEvT_S3_(i8** %1, i8** %2), !dbg !3644
  ret void, !dbg !3645
}

; Function Attrs: noinline nounwind uwtable
define linkonce_odr dso_local dereferenceable(1) %"class.std::allocator.0"* @_ZNSt12_Vector_baseIPKcSaIS1_EE19_M_get_Tp_allocatorEv(%"struct.std::_Vector_base"* %this) #5 comdat align 2 !dbg !3646 {
entry:
  %this.addr = alloca %"struct.std::_Vector_base"*, align 8
  store %"struct.std::_Vector_base"* %this, %"struct.std::_Vector_base"** %this.addr, align 8
  call void @llvm.dbg.declare(metadata %"struct.std::_Vector_base"** %this.addr, metadata !3647, metadata !DIExpression()), !dbg !3649
  %this1 = load %"struct.std::_Vector_base"*, %"struct.std::_Vector_base"** %this.addr, align 8
  %_M_impl = getelementptr inbounds %"struct.std::_Vector_base", %"struct.std::_Vector_base"* %this1, i32 0, i32 0, !dbg !3650
  %0 = bitcast %"struct.std::_Vector_base<const char *, std::allocator<const char *> >::_Vector_impl"* %_M_impl to %"class.std::allocator.0"*, !dbg !3651
  ret %"class.std::allocator.0"* %0, !dbg !3652
}

; Function Attrs: noinline nounwind uwtable
define linkonce_odr dso_local void @_ZNSt12_Vector_baseIPKcSaIS1_EED2Ev(%"struct.std::_Vector_base"* %this) unnamed_addr #5 comdat align 2 personality i8* bitcast (i32 (...)* @__gxx_personality_v0 to i8*) !dbg !3653 {
entry:
  %this.addr = alloca %"struct.std::_Vector_base"*, align 8
  %exn.slot = alloca i8*
  %ehselector.slot = alloca i32
  store %"struct.std::_Vector_base"* %this, %"struct.std::_Vector_base"** %this.addr, align 8
  call void @llvm.dbg.declare(metadata %"struct.std::_Vector_base"** %this.addr, metadata !3654, metadata !DIExpression()), !dbg !3655
  %this1 = load %"struct.std::_Vector_base"*, %"struct.std::_Vector_base"** %this.addr, align 8
  %_M_impl = getelementptr inbounds %"struct.std::_Vector_base", %"struct.std::_Vector_base"* %this1, i32 0, i32 0, !dbg !3656
  %0 = bitcast %"struct.std::_Vector_base<const char *, std::allocator<const char *> >::_Vector_impl"* %_M_impl to %"struct.std::_Vector_base<const char *, std::allocator<const char *> >::_Vector_impl_data"*, !dbg !3656
  %_M_start = getelementptr inbounds %"struct.std::_Vector_base<const char *, std::allocator<const char *> >::_Vector_impl_data", %"struct.std::_Vector_base<const char *, std::allocator<const char *> >::_Vector_impl_data"* %0, i32 0, i32 0, !dbg !3658
  %1 = load i8**, i8*** %_M_start, align 8, !dbg !3658
  %_M_impl2 = getelementptr inbounds %"struct.std::_Vector_base", %"struct.std::_Vector_base"* %this1, i32 0, i32 0, !dbg !3659
  %2 = bitcast %"struct.std::_Vector_base<const char *, std::allocator<const char *> >::_Vector_impl"* %_M_impl2 to %"struct.std::_Vector_base<const char *, std::allocator<const char *> >::_Vector_impl_data"*, !dbg !3659
  %_M_end_of_storage = getelementptr inbounds %"struct.std::_Vector_base<const char *, std::allocator<const char *> >::_Vector_impl_data", %"struct.std::_Vector_base<const char *, std::allocator<const char *> >::_Vector_impl_data"* %2, i32 0, i32 2, !dbg !3660
  %3 = load i8**, i8*** %_M_end_of_storage, align 8, !dbg !3660
  %_M_impl3 = getelementptr inbounds %"struct.std::_Vector_base", %"struct.std::_Vector_base"* %this1, i32 0, i32 0, !dbg !3661
  %4 = bitcast %"struct.std::_Vector_base<const char *, std::allocator<const char *> >::_Vector_impl"* %_M_impl3 to %"struct.std::_Vector_base<const char *, std::allocator<const char *> >::_Vector_impl_data"*, !dbg !3661
  %_M_start4 = getelementptr inbounds %"struct.std::_Vector_base<const char *, std::allocator<const char *> >::_Vector_impl_data", %"struct.std::_Vector_base<const char *, std::allocator<const char *> >::_Vector_impl_data"* %4, i32 0, i32 0, !dbg !3662
  %5 = load i8**, i8*** %_M_start4, align 8, !dbg !3662
  %sub.ptr.lhs.cast = ptrtoint i8** %3 to i64, !dbg !3663
  %sub.ptr.rhs.cast = ptrtoint i8** %5 to i64, !dbg !3663
  %sub.ptr.sub = sub i64 %sub.ptr.lhs.cast, %sub.ptr.rhs.cast, !dbg !3663
  %sub.ptr.div = sdiv exact i64 %sub.ptr.sub, 8, !dbg !3663
  invoke void @_ZNSt12_Vector_baseIPKcSaIS1_EE13_M_deallocateEPS1_m(%"struct.std::_Vector_base"* %this1, i8** %1, i64 %sub.ptr.div)
          to label %invoke.cont unwind label %lpad, !dbg !3664

invoke.cont:                                      ; preds = %entry
  %_M_impl5 = getelementptr inbounds %"struct.std::_Vector_base", %"struct.std::_Vector_base"* %this1, i32 0, i32 0, !dbg !3665
  call void @_ZNSt12_Vector_baseIPKcSaIS1_EE12_Vector_implD2Ev(%"struct.std::_Vector_base<const char *, std::allocator<const char *> >::_Vector_impl"* %_M_impl5) #3, !dbg !3665
  ret void, !dbg !3666

lpad:                                             ; preds = %entry
  %6 = landingpad { i8*, i32 }
          catch i8* null, !dbg !3665
  %7 = extractvalue { i8*, i32 } %6, 0, !dbg !3665
  store i8* %7, i8** %exn.slot, align 8, !dbg !3665
  %8 = extractvalue { i8*, i32 } %6, 1, !dbg !3665
  store i32 %8, i32* %ehselector.slot, align 4, !dbg !3665
  %_M_impl6 = getelementptr inbounds %"struct.std::_Vector_base", %"struct.std::_Vector_base"* %this1, i32 0, i32 0, !dbg !3665
  call void @_ZNSt12_Vector_baseIPKcSaIS1_EE12_Vector_implD2Ev(%"struct.std::_Vector_base<const char *, std::allocator<const char *> >::_Vector_impl"* %_M_impl6) #3, !dbg !3665
  br label %terminate.handler, !dbg !3665

terminate.handler:                                ; preds = %lpad
  %exn = load i8*, i8** %exn.slot, align 8, !dbg !3665
  call void @__clang_call_terminate(i8* %exn) #15, !dbg !3665
  unreachable, !dbg !3665
}

; Function Attrs: noinline noreturn nounwind
define linkonce_odr hidden void @__clang_call_terminate(i8* %0) #9 comdat {
  %2 = call i8* @__cxa_begin_catch(i8* %0) #3
  call void @_ZSt9terminatev() #15
  unreachable
}

declare dso_local i8* @__cxa_begin_catch(i8*)

declare dso_local void @_ZSt9terminatev()

; Function Attrs: noinline uwtable
define linkonce_odr dso_local void @_ZSt8_DestroyIPPKcEvT_S3_(i8** %__first, i8** %__last) #0 comdat !dbg !3667 {
entry:
  %__first.addr = alloca i8**, align 8
  %__last.addr = alloca i8**, align 8
  store i8** %__first, i8*** %__first.addr, align 8
  call void @llvm.dbg.declare(metadata i8*** %__first.addr, metadata !3672, metadata !DIExpression()), !dbg !3673
  store i8** %__last, i8*** %__last.addr, align 8
  call void @llvm.dbg.declare(metadata i8*** %__last.addr, metadata !3674, metadata !DIExpression()), !dbg !3675
  %0 = load i8**, i8*** %__first.addr, align 8, !dbg !3676
  %1 = load i8**, i8*** %__last.addr, align 8, !dbg !3677
  call void @_ZNSt12_Destroy_auxILb1EE9__destroyIPPKcEEvT_S5_(i8** %0, i8** %1), !dbg !3678
  ret void, !dbg !3679
}

; Function Attrs: noinline nounwind uwtable
define linkonce_odr dso_local void @_ZNSt12_Destroy_auxILb1EE9__destroyIPPKcEEvT_S5_(i8** %0, i8** %1) #5 comdat align 2 !dbg !3680 {
entry:
  %.addr = alloca i8**, align 8
  %.addr1 = alloca i8**, align 8
  store i8** %0, i8*** %.addr, align 8
  call void @llvm.dbg.declare(metadata i8*** %.addr, metadata !3684, metadata !DIExpression()), !dbg !3685
  store i8** %1, i8*** %.addr1, align 8
  call void @llvm.dbg.declare(metadata i8*** %.addr1, metadata !3686, metadata !DIExpression()), !dbg !3687
  ret void, !dbg !3688
}

; Function Attrs: noinline uwtable
define linkonce_odr dso_local void @_ZNSt12_Vector_baseIPKcSaIS1_EE13_M_deallocateEPS1_m(%"struct.std::_Vector_base"* %this, i8** %__p, i64 %__n) #0 comdat align 2 !dbg !3689 {
entry:
  %this.addr = alloca %"struct.std::_Vector_base"*, align 8
  %__p.addr = alloca i8**, align 8
  %__n.addr = alloca i64, align 8
  store %"struct.std::_Vector_base"* %this, %"struct.std::_Vector_base"** %this.addr, align 8
  call void @llvm.dbg.declare(metadata %"struct.std::_Vector_base"** %this.addr, metadata !3690, metadata !DIExpression()), !dbg !3691
  store i8** %__p, i8*** %__p.addr, align 8
  call void @llvm.dbg.declare(metadata i8*** %__p.addr, metadata !3692, metadata !DIExpression()), !dbg !3693
  store i64 %__n, i64* %__n.addr, align 8
  call void @llvm.dbg.declare(metadata i64* %__n.addr, metadata !3694, metadata !DIExpression()), !dbg !3695
  %this1 = load %"struct.std::_Vector_base"*, %"struct.std::_Vector_base"** %this.addr, align 8
  %0 = load i8**, i8*** %__p.addr, align 8, !dbg !3696
  %tobool = icmp ne i8** %0, null, !dbg !3696
  br i1 %tobool, label %if.then, label %if.end, !dbg !3698

if.then:                                          ; preds = %entry
  %_M_impl = getelementptr inbounds %"struct.std::_Vector_base", %"struct.std::_Vector_base"* %this1, i32 0, i32 0, !dbg !3699
  %1 = bitcast %"struct.std::_Vector_base<const char *, std::allocator<const char *> >::_Vector_impl"* %_M_impl to %"class.std::allocator.0"*, !dbg !3699
  %2 = load i8**, i8*** %__p.addr, align 8, !dbg !3700
  %3 = load i64, i64* %__n.addr, align 8, !dbg !3701
  call void @_ZNSt16allocator_traitsISaIPKcEE10deallocateERS2_PS1_m(%"class.std::allocator.0"* dereferenceable(1) %1, i8** %2, i64 %3), !dbg !3702
  br label %if.end, !dbg !3702

if.end:                                           ; preds = %if.then, %entry
  ret void, !dbg !3703
}

; Function Attrs: noinline nounwind uwtable
define linkonce_odr dso_local void @_ZNSt12_Vector_baseIPKcSaIS1_EE12_Vector_implD2Ev(%"struct.std::_Vector_base<const char *, std::allocator<const char *> >::_Vector_impl"* %this) unnamed_addr #5 comdat align 2 !dbg !3704 {
entry:
  %this.addr = alloca %"struct.std::_Vector_base<const char *, std::allocator<const char *> >::_Vector_impl"*, align 8
  store %"struct.std::_Vector_base<const char *, std::allocator<const char *> >::_Vector_impl"* %this, %"struct.std::_Vector_base<const char *, std::allocator<const char *> >::_Vector_impl"** %this.addr, align 8
  call void @llvm.dbg.declare(metadata %"struct.std::_Vector_base<const char *, std::allocator<const char *> >::_Vector_impl"** %this.addr, metadata !3706, metadata !DIExpression()), !dbg !3708
  %this1 = load %"struct.std::_Vector_base<const char *, std::allocator<const char *> >::_Vector_impl"*, %"struct.std::_Vector_base<const char *, std::allocator<const char *> >::_Vector_impl"** %this.addr, align 8
  %0 = bitcast %"struct.std::_Vector_base<const char *, std::allocator<const char *> >::_Vector_impl"* %this1 to %"class.std::allocator.0"*, !dbg !3709
  call void @_ZNSaIPKcED2Ev(%"class.std::allocator.0"* %0) #3, !dbg !3709
  ret void, !dbg !3711
}

; Function Attrs: noinline uwtable
define linkonce_odr dso_local void @_ZNSt16allocator_traitsISaIPKcEE10deallocateERS2_PS1_m(%"class.std::allocator.0"* dereferenceable(1) %__a, i8** %__p, i64 %__n) #0 comdat align 2 !dbg !3712 {
entry:
  %__a.addr = alloca %"class.std::allocator.0"*, align 8
  %__p.addr = alloca i8**, align 8
  %__n.addr = alloca i64, align 8
  store %"class.std::allocator.0"* %__a, %"class.std::allocator.0"** %__a.addr, align 8
  call void @llvm.dbg.declare(metadata %"class.std::allocator.0"** %__a.addr, metadata !3713, metadata !DIExpression()), !dbg !3714
  store i8** %__p, i8*** %__p.addr, align 8
  call void @llvm.dbg.declare(metadata i8*** %__p.addr, metadata !3715, metadata !DIExpression()), !dbg !3716
  store i64 %__n, i64* %__n.addr, align 8
  call void @llvm.dbg.declare(metadata i64* %__n.addr, metadata !3717, metadata !DIExpression()), !dbg !3718
  %0 = load %"class.std::allocator.0"*, %"class.std::allocator.0"** %__a.addr, align 8, !dbg !3719
  %1 = bitcast %"class.std::allocator.0"* %0 to %"class.__gnu_cxx::new_allocator.1"*, !dbg !3719
  %2 = load i8**, i8*** %__p.addr, align 8, !dbg !3720
  %3 = load i64, i64* %__n.addr, align 8, !dbg !3721
  call void @_ZN9__gnu_cxx13new_allocatorIPKcE10deallocateEPS2_m(%"class.__gnu_cxx::new_allocator.1"* %1, i8** %2, i64 %3), !dbg !3722
  ret void, !dbg !3723
}

; Function Attrs: noinline nounwind uwtable
define linkonce_odr dso_local void @_ZN9__gnu_cxx13new_allocatorIPKcE10deallocateEPS2_m(%"class.__gnu_cxx::new_allocator.1"* %this, i8** %__p, i64 %__t) #5 comdat align 2 !dbg !3724 {
entry:
  %this.addr = alloca %"class.__gnu_cxx::new_allocator.1"*, align 8
  %__p.addr = alloca i8**, align 8
  %__t.addr = alloca i64, align 8
  store %"class.__gnu_cxx::new_allocator.1"* %this, %"class.__gnu_cxx::new_allocator.1"** %this.addr, align 8
  call void @llvm.dbg.declare(metadata %"class.__gnu_cxx::new_allocator.1"** %this.addr, metadata !3725, metadata !DIExpression()), !dbg !3727
  store i8** %__p, i8*** %__p.addr, align 8
  call void @llvm.dbg.declare(metadata i8*** %__p.addr, metadata !3728, metadata !DIExpression()), !dbg !3729
  store i64 %__t, i64* %__t.addr, align 8
  call void @llvm.dbg.declare(metadata i64* %__t.addr, metadata !3730, metadata !DIExpression()), !dbg !3731
  %this1 = load %"class.__gnu_cxx::new_allocator.1"*, %"class.__gnu_cxx::new_allocator.1"** %this.addr, align 8
  %0 = load i8**, i8*** %__p.addr, align 8, !dbg !3732
  %1 = bitcast i8** %0 to i8*, !dbg !3732
  call void @_ZdlPv(i8* %1) #3, !dbg !3733
  ret void, !dbg !3734
}

; Function Attrs: noinline nounwind uwtable
define linkonce_odr dso_local void @_ZNSaIPKcED2Ev(%"class.std::allocator.0"* %this) unnamed_addr #5 comdat align 2 !dbg !3735 {
entry:
  %this.addr = alloca %"class.std::allocator.0"*, align 8
  store %"class.std::allocator.0"* %this, %"class.std::allocator.0"** %this.addr, align 8
  call void @llvm.dbg.declare(metadata %"class.std::allocator.0"** %this.addr, metadata !3736, metadata !DIExpression()), !dbg !3738
  %this1 = load %"class.std::allocator.0"*, %"class.std::allocator.0"** %this.addr, align 8
  %0 = bitcast %"class.std::allocator.0"* %this1 to %"class.__gnu_cxx::new_allocator.1"*, !dbg !3739
  call void @_ZN9__gnu_cxx13new_allocatorIPKcED2Ev(%"class.__gnu_cxx::new_allocator.1"* %0) #3, !dbg !3739
  ret void, !dbg !3741
}

; Function Attrs: noinline nounwind uwtable
define linkonce_odr dso_local void @_ZN9__gnu_cxx13new_allocatorIPKcED2Ev(%"class.__gnu_cxx::new_allocator.1"* %this) unnamed_addr #5 comdat align 2 !dbg !3742 {
entry:
  %this.addr = alloca %"class.__gnu_cxx::new_allocator.1"*, align 8
  store %"class.__gnu_cxx::new_allocator.1"* %this, %"class.__gnu_cxx::new_allocator.1"** %this.addr, align 8
  call void @llvm.dbg.declare(metadata %"class.__gnu_cxx::new_allocator.1"** %this.addr, metadata !3743, metadata !DIExpression()), !dbg !3744
  %this1 = load %"class.__gnu_cxx::new_allocator.1"*, %"class.__gnu_cxx::new_allocator.1"** %this.addr, align 8
  ret void, !dbg !3745
}

; Function Attrs: noinline uwtable
define linkonce_odr dso_local %"struct.std::_Rb_tree_node_base"* @_ZNSt3mapI10opp_stringS0_St4lessIS0_ESaISt4pairIKS0_S0_EEE11lower_boundERS4_(%"class.std::map"* %this, %class.opp_string* dereferenceable(8) %__x) #0 comdat align 2 !dbg !3746 {
entry:
  %retval = alloca %"struct.std::_Rb_tree_iterator", align 8
  %this.addr = alloca %"class.std::map"*, align 8
  %__x.addr = alloca %class.opp_string*, align 8
  store %"class.std::map"* %this, %"class.std::map"** %this.addr, align 8
  call void @llvm.dbg.declare(metadata %"class.std::map"** %this.addr, metadata !3747, metadata !DIExpression()), !dbg !3748
  store %class.opp_string* %__x, %class.opp_string** %__x.addr, align 8
  call void @llvm.dbg.declare(metadata %class.opp_string** %__x.addr, metadata !3749, metadata !DIExpression()), !dbg !3750
  %this1 = load %"class.std::map"*, %"class.std::map"** %this.addr, align 8
  %_M_t = getelementptr inbounds %"class.std::map", %"class.std::map"* %this1, i32 0, i32 0, !dbg !3751
  %0 = load %class.opp_string*, %class.opp_string** %__x.addr, align 8, !dbg !3752
  %call = call %"struct.std::_Rb_tree_node_base"* @_ZNSt8_Rb_treeI10opp_stringSt4pairIKS0_S0_ESt10_Select1stIS3_ESt4lessIS0_ESaIS3_EE11lower_boundERS2_(%"class.std::_Rb_tree"* %_M_t, %class.opp_string* dereferenceable(8) %0), !dbg !3753
  %coerce.dive = getelementptr inbounds %"struct.std::_Rb_tree_iterator", %"struct.std::_Rb_tree_iterator"* %retval, i32 0, i32 0, !dbg !3753
  store %"struct.std::_Rb_tree_node_base"* %call, %"struct.std::_Rb_tree_node_base"** %coerce.dive, align 8, !dbg !3753
  %coerce.dive2 = getelementptr inbounds %"struct.std::_Rb_tree_iterator", %"struct.std::_Rb_tree_iterator"* %retval, i32 0, i32 0, !dbg !3754
  %1 = load %"struct.std::_Rb_tree_node_base"*, %"struct.std::_Rb_tree_node_base"** %coerce.dive2, align 8, !dbg !3754
  ret %"struct.std::_Rb_tree_node_base"* %1, !dbg !3754
}

; Function Attrs: noinline nounwind uwtable
define linkonce_odr dso_local zeroext i1 @_ZSteqRKSt17_Rb_tree_iteratorISt4pairIK10opp_stringS1_EES6_(%"struct.std::_Rb_tree_iterator"* dereferenceable(8) %__x, %"struct.std::_Rb_tree_iterator"* dereferenceable(8) %__y) #5 comdat !dbg !3755 {
entry:
  %__x.addr = alloca %"struct.std::_Rb_tree_iterator"*, align 8
  %__y.addr = alloca %"struct.std::_Rb_tree_iterator"*, align 8
  store %"struct.std::_Rb_tree_iterator"* %__x, %"struct.std::_Rb_tree_iterator"** %__x.addr, align 8
  call void @llvm.dbg.declare(metadata %"struct.std::_Rb_tree_iterator"** %__x.addr, metadata !3760, metadata !DIExpression()), !dbg !3761
  store %"struct.std::_Rb_tree_iterator"* %__y, %"struct.std::_Rb_tree_iterator"** %__y.addr, align 8
  call void @llvm.dbg.declare(metadata %"struct.std::_Rb_tree_iterator"** %__y.addr, metadata !3762, metadata !DIExpression()), !dbg !3763
  %0 = load %"struct.std::_Rb_tree_iterator"*, %"struct.std::_Rb_tree_iterator"** %__x.addr, align 8, !dbg !3764
  %_M_node = getelementptr inbounds %"struct.std::_Rb_tree_iterator", %"struct.std::_Rb_tree_iterator"* %0, i32 0, i32 0, !dbg !3765
  %1 = load %"struct.std::_Rb_tree_node_base"*, %"struct.std::_Rb_tree_node_base"** %_M_node, align 8, !dbg !3765
  %2 = load %"struct.std::_Rb_tree_iterator"*, %"struct.std::_Rb_tree_iterator"** %__y.addr, align 8, !dbg !3766
  %_M_node1 = getelementptr inbounds %"struct.std::_Rb_tree_iterator", %"struct.std::_Rb_tree_iterator"* %2, i32 0, i32 0, !dbg !3767
  %3 = load %"struct.std::_Rb_tree_node_base"*, %"struct.std::_Rb_tree_node_base"** %_M_node1, align 8, !dbg !3767
  %cmp = icmp eq %"struct.std::_Rb_tree_node_base"* %1, %3, !dbg !3768
  ret i1 %cmp, !dbg !3769
}

; Function Attrs: noinline uwtable
define linkonce_odr dso_local void @_ZNKSt3mapI10opp_stringS0_St4lessIS0_ESaISt4pairIKS0_S0_EEE8key_compEv(%"class.std::map"* %this) #0 comdat align 2 !dbg !3770 {
entry:
  %this.addr = alloca %"class.std::map"*, align 8
  %undef.agg.tmp = alloca %"struct.std::less", align 1
  store %"class.std::map"* %this, %"class.std::map"** %this.addr, align 8
  call void @llvm.dbg.declare(metadata %"class.std::map"** %this.addr, metadata !3771, metadata !DIExpression()), !dbg !3773
  %this1 = load %"class.std::map"*, %"class.std::map"** %this.addr, align 8
  %_M_t = getelementptr inbounds %"class.std::map", %"class.std::map"* %this1, i32 0, i32 0, !dbg !3774
  call void @_ZNKSt8_Rb_treeI10opp_stringSt4pairIKS0_S0_ESt10_Select1stIS3_ESt4lessIS0_ESaIS3_EE8key_compEv(%"class.std::_Rb_tree"* %_M_t), !dbg !3775
  ret void, !dbg !3776
}

; Function Attrs: noinline uwtable
define linkonce_odr dso_local zeroext i1 @_ZNKSt4lessI10opp_stringEclERKS0_S3_(%"struct.std::less"* %this, %class.opp_string* dereferenceable(8) %__x, %class.opp_string* dereferenceable(8) %__y) #0 comdat align 2 !dbg !3777 {
entry:
  %this.addr = alloca %"struct.std::less"*, align 8
  %__x.addr = alloca %class.opp_string*, align 8
  %__y.addr = alloca %class.opp_string*, align 8
  store %"struct.std::less"* %this, %"struct.std::less"** %this.addr, align 8
  call void @llvm.dbg.declare(metadata %"struct.std::less"** %this.addr, metadata !3778, metadata !DIExpression()), !dbg !3780
  store %class.opp_string* %__x, %class.opp_string** %__x.addr, align 8
  call void @llvm.dbg.declare(metadata %class.opp_string** %__x.addr, metadata !3781, metadata !DIExpression()), !dbg !3782
  store %class.opp_string* %__y, %class.opp_string** %__y.addr, align 8
  call void @llvm.dbg.declare(metadata %class.opp_string** %__y.addr, metadata !3783, metadata !DIExpression()), !dbg !3784
  %this1 = load %"struct.std::less"*, %"struct.std::less"** %this.addr, align 8
  %0 = load %class.opp_string*, %class.opp_string** %__x.addr, align 8, !dbg !3785
  %1 = load %class.opp_string*, %class.opp_string** %__y.addr, align 8, !dbg !3786
  %call = call zeroext i1 @_ZNK10opp_stringltERKS_(%class.opp_string* %0, %class.opp_string* dereferenceable(8) %1), !dbg !3787
  ret i1 %call, !dbg !3788
}

; Function Attrs: noinline nounwind uwtable
define linkonce_odr dso_local dereferenceable(16) %"struct.std::pair"* @_ZNKSt17_Rb_tree_iteratorISt4pairIK10opp_stringS1_EEdeEv(%"struct.std::_Rb_tree_iterator"* %this) #5 comdat align 2 personality i8* bitcast (i32 (...)* @__gxx_personality_v0 to i8*) !dbg !3789 {
entry:
  %this.addr = alloca %"struct.std::_Rb_tree_iterator"*, align 8
  store %"struct.std::_Rb_tree_iterator"* %this, %"struct.std::_Rb_tree_iterator"** %this.addr, align 8
  call void @llvm.dbg.declare(metadata %"struct.std::_Rb_tree_iterator"** %this.addr, metadata !3790, metadata !DIExpression()), !dbg !3792
  %this1 = load %"struct.std::_Rb_tree_iterator"*, %"struct.std::_Rb_tree_iterator"** %this.addr, align 8
  %_M_node = getelementptr inbounds %"struct.std::_Rb_tree_iterator", %"struct.std::_Rb_tree_iterator"* %this1, i32 0, i32 0, !dbg !3793
  %0 = load %"struct.std::_Rb_tree_node_base"*, %"struct.std::_Rb_tree_node_base"** %_M_node, align 8, !dbg !3793
  %1 = bitcast %"struct.std::_Rb_tree_node_base"* %0 to %"struct.std::_Rb_tree_node"*, !dbg !3794
  %call = invoke %"struct.std::pair"* @_ZNSt13_Rb_tree_nodeISt4pairIK10opp_stringS1_EE9_M_valptrEv(%"struct.std::_Rb_tree_node"* %1)
          to label %invoke.cont unwind label %terminate.lpad, !dbg !3795

invoke.cont:                                      ; preds = %entry
  ret %"struct.std::pair"* %call, !dbg !3796

terminate.lpad:                                   ; preds = %entry
  %2 = landingpad { i8*, i32 }
          catch i8* null, !dbg !3795
  %3 = extractvalue { i8*, i32 } %2, 0, !dbg !3795
  call void @__clang_call_terminate(i8* %3) #15, !dbg !3795
  unreachable, !dbg !3795
}

; Function Attrs: noinline uwtable
define linkonce_odr dso_local %"struct.std::_Rb_tree_node_base"* @_ZNSt8_Rb_treeI10opp_stringSt4pairIKS0_S0_ESt10_Select1stIS3_ESt4lessIS0_ESaIS3_EE22_M_emplace_hint_uniqueIJRKSt21piecewise_construct_tSt5tupleIJOS0_EESE_IJEEEEESt17_Rb_tree_iteratorIS3_ESt23_Rb_tree_const_iteratorIS3_EDpOT_(%"class.std::_Rb_tree"* %this, %"struct.std::_Rb_tree_node_base"* %__pos.coerce, %"struct.std::piecewise_construct_t"* dereferenceable(1) %__args, %"class.std::tuple"* dereferenceable(8) %__args1, %"class.std::tuple.6"* dereferenceable(1) %__args3) #0 comdat align 2 personality i8* bitcast (i32 (...)* @__gxx_personality_v0 to i8*) !dbg !3797 {
entry:
  %retval = alloca %"struct.std::_Rb_tree_iterator", align 8
  %__pos = alloca %"struct.std::_Rb_tree_const_iterator", align 8
  %this.addr = alloca %"class.std::_Rb_tree"*, align 8
  %__args.addr = alloca %"struct.std::piecewise_construct_t"*, align 8
  %__args.addr2 = alloca %"class.std::tuple"*, align 8
  %__args.addr4 = alloca %"class.std::tuple.6"*, align 8
  %__z = alloca %"struct.std::_Rb_tree_node"*, align 8
  %__res = alloca %"struct.std::pair.7", align 8
  %agg.tmp = alloca %"struct.std::_Rb_tree_const_iterator", align 8
  %exn.slot = alloca i8*
  %ehselector.slot = alloca i32
  %coerce.dive = getelementptr inbounds %"struct.std::_Rb_tree_const_iterator", %"struct.std::_Rb_tree_const_iterator"* %__pos, i32 0, i32 0
  store %"struct.std::_Rb_tree_node_base"* %__pos.coerce, %"struct.std::_Rb_tree_node_base"** %coerce.dive, align 8
  store %"class.std::_Rb_tree"* %this, %"class.std::_Rb_tree"** %this.addr, align 8
  call void @llvm.dbg.declare(metadata %"class.std::_Rb_tree"** %this.addr, metadata !3821, metadata !DIExpression()), !dbg !3823
  call void @llvm.dbg.declare(metadata %"struct.std::_Rb_tree_const_iterator"* %__pos, metadata !3824, metadata !DIExpression()), !dbg !3825
  store %"struct.std::piecewise_construct_t"* %__args, %"struct.std::piecewise_construct_t"** %__args.addr, align 8
  call void @llvm.dbg.declare(metadata %"struct.std::piecewise_construct_t"** %__args.addr, metadata !3826, metadata !DIExpression()), !dbg !3827
  store %"class.std::tuple"* %__args1, %"class.std::tuple"** %__args.addr2, align 8
  call void @llvm.dbg.declare(metadata %"class.std::tuple"** %__args.addr2, metadata !3828, metadata !DIExpression()), !dbg !3827
  store %"class.std::tuple.6"* %__args3, %"class.std::tuple.6"** %__args.addr4, align 8
  call void @llvm.dbg.declare(metadata %"class.std::tuple.6"** %__args.addr4, metadata !3829, metadata !DIExpression()), !dbg !3827
  %this5 = load %"class.std::_Rb_tree"*, %"class.std::_Rb_tree"** %this.addr, align 8
  call void @llvm.dbg.declare(metadata %"struct.std::_Rb_tree_node"** %__z, metadata !3830, metadata !DIExpression()), !dbg !3831
  %0 = load %"struct.std::piecewise_construct_t"*, %"struct.std::piecewise_construct_t"** %__args.addr, align 8, !dbg !3832
  %call = call dereferenceable(1) %"struct.std::piecewise_construct_t"* @_ZSt7forwardIRKSt21piecewise_construct_tEOT_RNSt16remove_referenceIS3_E4typeE(%"struct.std::piecewise_construct_t"* dereferenceable(1) %0) #3, !dbg !3833
  %1 = load %"class.std::tuple"*, %"class.std::tuple"** %__args.addr2, align 8, !dbg !3832
  %call6 = call dereferenceable(8) %"class.std::tuple"* @_ZSt7forwardISt5tupleIJO10opp_stringEEEOT_RNSt16remove_referenceIS4_E4typeE(%"class.std::tuple"* dereferenceable(8) %1) #3, !dbg !3833
  %2 = load %"class.std::tuple.6"*, %"class.std::tuple.6"** %__args.addr4, align 8, !dbg !3832
  %call7 = call dereferenceable(1) %"class.std::tuple.6"* @_ZSt7forwardISt5tupleIJEEEOT_RNSt16remove_referenceIS2_E4typeE(%"class.std::tuple.6"* dereferenceable(1) %2) #3, !dbg !3833
  %call8 = call %"struct.std::_Rb_tree_node"* @_ZNSt8_Rb_treeI10opp_stringSt4pairIKS0_S0_ESt10_Select1stIS3_ESt4lessIS0_ESaIS3_EE14_M_create_nodeIJRKSt21piecewise_construct_tSt5tupleIJOS0_EESE_IJEEEEEPSt13_Rb_tree_nodeIS3_EDpOT_(%"class.std::_Rb_tree"* %this5, %"struct.std::piecewise_construct_t"* dereferenceable(1) %call, %"class.std::tuple"* dereferenceable(8) %call6, %"class.std::tuple.6"* dereferenceable(1) %call7), !dbg !3834
  store %"struct.std::_Rb_tree_node"* %call8, %"struct.std::_Rb_tree_node"** %__z, align 8, !dbg !3831
  call void @llvm.dbg.declare(metadata %"struct.std::pair.7"* %__res, metadata !3835, metadata !DIExpression()), !dbg !3837
  %3 = bitcast %"struct.std::_Rb_tree_const_iterator"* %agg.tmp to i8*, !dbg !3838
  %4 = bitcast %"struct.std::_Rb_tree_const_iterator"* %__pos to i8*, !dbg !3838
  call void @llvm.memcpy.p0i8.p0i8.i64(i8* align 8 %3, i8* align 8 %4, i64 8, i1 false), !dbg !3838
  %5 = load %"struct.std::_Rb_tree_node"*, %"struct.std::_Rb_tree_node"** %__z, align 8, !dbg !3839
  %call9 = invoke dereferenceable(8) %class.opp_string* @_ZNSt8_Rb_treeI10opp_stringSt4pairIKS0_S0_ESt10_Select1stIS3_ESt4lessIS0_ESaIS3_EE6_S_keyEPKSt13_Rb_tree_nodeIS3_E(%"struct.std::_Rb_tree_node"* %5)
          to label %invoke.cont unwind label %lpad, !dbg !3840

invoke.cont:                                      ; preds = %entry
  %coerce.dive10 = getelementptr inbounds %"struct.std::_Rb_tree_const_iterator", %"struct.std::_Rb_tree_const_iterator"* %agg.tmp, i32 0, i32 0, !dbg !3841
  %6 = load %"struct.std::_Rb_tree_node_base"*, %"struct.std::_Rb_tree_node_base"** %coerce.dive10, align 8, !dbg !3841
  %call12 = invoke { %"struct.std::_Rb_tree_node_base"*, %"struct.std::_Rb_tree_node_base"* } @_ZNSt8_Rb_treeI10opp_stringSt4pairIKS0_S0_ESt10_Select1stIS3_ESt4lessIS0_ESaIS3_EE29_M_get_insert_hint_unique_posESt23_Rb_tree_const_iteratorIS3_ERS2_(%"class.std::_Rb_tree"* %this5, %"struct.std::_Rb_tree_node_base"* %6, %class.opp_string* dereferenceable(8) %call9)
          to label %invoke.cont11 unwind label %lpad, !dbg !3841

invoke.cont11:                                    ; preds = %invoke.cont
  %7 = bitcast %"struct.std::pair.7"* %__res to { %"struct.std::_Rb_tree_node_base"*, %"struct.std::_Rb_tree_node_base"* }*, !dbg !3841
  %8 = getelementptr inbounds { %"struct.std::_Rb_tree_node_base"*, %"struct.std::_Rb_tree_node_base"* }, { %"struct.std::_Rb_tree_node_base"*, %"struct.std::_Rb_tree_node_base"* }* %7, i32 0, i32 0, !dbg !3841
  %9 = extractvalue { %"struct.std::_Rb_tree_node_base"*, %"struct.std::_Rb_tree_node_base"* } %call12, 0, !dbg !3841
  store %"struct.std::_Rb_tree_node_base"* %9, %"struct.std::_Rb_tree_node_base"** %8, align 8, !dbg !3841
  %10 = getelementptr inbounds { %"struct.std::_Rb_tree_node_base"*, %"struct.std::_Rb_tree_node_base"* }, { %"struct.std::_Rb_tree_node_base"*, %"struct.std::_Rb_tree_node_base"* }* %7, i32 0, i32 1, !dbg !3841
  %11 = extractvalue { %"struct.std::_Rb_tree_node_base"*, %"struct.std::_Rb_tree_node_base"* } %call12, 1, !dbg !3841
  store %"struct.std::_Rb_tree_node_base"* %11, %"struct.std::_Rb_tree_node_base"** %10, align 8, !dbg !3841
  %second = getelementptr inbounds %"struct.std::pair.7", %"struct.std::pair.7"* %__res, i32 0, i32 1, !dbg !3842
  %12 = load %"struct.std::_Rb_tree_node_base"*, %"struct.std::_Rb_tree_node_base"** %second, align 8, !dbg !3842
  %tobool = icmp ne %"struct.std::_Rb_tree_node_base"* %12, null, !dbg !3844
  br i1 %tobool, label %if.then, label %if.end, !dbg !3845

if.then:                                          ; preds = %invoke.cont11
  %first = getelementptr inbounds %"struct.std::pair.7", %"struct.std::pair.7"* %__res, i32 0, i32 0, !dbg !3846
  %13 = load %"struct.std::_Rb_tree_node_base"*, %"struct.std::_Rb_tree_node_base"** %first, align 8, !dbg !3846
  %second13 = getelementptr inbounds %"struct.std::pair.7", %"struct.std::pair.7"* %__res, i32 0, i32 1, !dbg !3847
  %14 = load %"struct.std::_Rb_tree_node_base"*, %"struct.std::_Rb_tree_node_base"** %second13, align 8, !dbg !3847
  %15 = load %"struct.std::_Rb_tree_node"*, %"struct.std::_Rb_tree_node"** %__z, align 8, !dbg !3848
  %call15 = invoke %"struct.std::_Rb_tree_node_base"* @_ZNSt8_Rb_treeI10opp_stringSt4pairIKS0_S0_ESt10_Select1stIS3_ESt4lessIS0_ESaIS3_EE14_M_insert_nodeEPSt18_Rb_tree_node_baseSB_PSt13_Rb_tree_nodeIS3_E(%"class.std::_Rb_tree"* %this5, %"struct.std::_Rb_tree_node_base"* %13, %"struct.std::_Rb_tree_node_base"* %14, %"struct.std::_Rb_tree_node"* %15)
          to label %invoke.cont14 unwind label %lpad, !dbg !3849

invoke.cont14:                                    ; preds = %if.then
  %coerce.dive16 = getelementptr inbounds %"struct.std::_Rb_tree_iterator", %"struct.std::_Rb_tree_iterator"* %retval, i32 0, i32 0, !dbg !3849
  store %"struct.std::_Rb_tree_node_base"* %call15, %"struct.std::_Rb_tree_node_base"** %coerce.dive16, align 8, !dbg !3849
  br label %return, !dbg !3850

lpad:                                             ; preds = %if.then, %invoke.cont, %entry
  %16 = landingpad { i8*, i32 }
          catch i8* null, !dbg !3851
  %17 = extractvalue { i8*, i32 } %16, 0, !dbg !3851
  store i8* %17, i8** %exn.slot, align 8, !dbg !3851
  %18 = extractvalue { i8*, i32 } %16, 1, !dbg !3851
  store i32 %18, i32* %ehselector.slot, align 4, !dbg !3851
  br label %catch, !dbg !3851

catch:                                            ; preds = %lpad
  %exn = load i8*, i8** %exn.slot, align 8, !dbg !3852
  %19 = call i8* @__cxa_begin_catch(i8* %exn) #3, !dbg !3852
  %20 = load %"struct.std::_Rb_tree_node"*, %"struct.std::_Rb_tree_node"** %__z, align 8, !dbg !3853
  call void @_ZNSt8_Rb_treeI10opp_stringSt4pairIKS0_S0_ESt10_Select1stIS3_ESt4lessIS0_ESaIS3_EE12_M_drop_nodeEPSt13_Rb_tree_nodeIS3_E(%"class.std::_Rb_tree"* %this5, %"struct.std::_Rb_tree_node"* %20) #3, !dbg !3855
  invoke void @__cxa_rethrow() #16
          to label %unreachable unwind label %lpad18, !dbg !3856

if.end:                                           ; preds = %invoke.cont11
  %21 = load %"struct.std::_Rb_tree_node"*, %"struct.std::_Rb_tree_node"** %__z, align 8, !dbg !3857
  call void @_ZNSt8_Rb_treeI10opp_stringSt4pairIKS0_S0_ESt10_Select1stIS3_ESt4lessIS0_ESaIS3_EE12_M_drop_nodeEPSt13_Rb_tree_nodeIS3_E(%"class.std::_Rb_tree"* %this5, %"struct.std::_Rb_tree_node"* %21) #3, !dbg !3858
  %first17 = getelementptr inbounds %"struct.std::pair.7", %"struct.std::pair.7"* %__res, i32 0, i32 0, !dbg !3859
  %22 = load %"struct.std::_Rb_tree_node_base"*, %"struct.std::_Rb_tree_node_base"** %first17, align 8, !dbg !3859
  call void @_ZNSt17_Rb_tree_iteratorISt4pairIK10opp_stringS1_EEC2EPSt18_Rb_tree_node_base(%"struct.std::_Rb_tree_iterator"* %retval, %"struct.std::_Rb_tree_node_base"* %22) #3, !dbg !3860
  br label %return, !dbg !3861

lpad18:                                           ; preds = %catch
  %23 = landingpad { i8*, i32 }
          cleanup, !dbg !3862
  %24 = extractvalue { i8*, i32 } %23, 0, !dbg !3862
  store i8* %24, i8** %exn.slot, align 8, !dbg !3862
  %25 = extractvalue { i8*, i32 } %23, 1, !dbg !3862
  store i32 %25, i32* %ehselector.slot, align 4, !dbg !3862
  invoke void @__cxa_end_catch()
          to label %invoke.cont19 unwind label %terminate.lpad, !dbg !3863

invoke.cont19:                                    ; preds = %lpad18
  br label %eh.resume, !dbg !3863

try.cont:                                         ; No predecessors!
  call void @llvm.trap(), !dbg !3863
  unreachable, !dbg !3863

return:                                           ; preds = %if.end, %invoke.cont14
  %coerce.dive20 = getelementptr inbounds %"struct.std::_Rb_tree_iterator", %"struct.std::_Rb_tree_iterator"* %retval, i32 0, i32 0, !dbg !3864
  %26 = load %"struct.std::_Rb_tree_node_base"*, %"struct.std::_Rb_tree_node_base"** %coerce.dive20, align 8, !dbg !3864
  ret %"struct.std::_Rb_tree_node_base"* %26, !dbg !3864

eh.resume:                                        ; preds = %invoke.cont19
  %exn21 = load i8*, i8** %exn.slot, align 8, !dbg !3863
  %sel = load i32, i32* %ehselector.slot, align 4, !dbg !3863
  %lpad.val = insertvalue { i8*, i32 } undef, i8* %exn21, 0, !dbg !3863
  %lpad.val22 = insertvalue { i8*, i32 } %lpad.val, i32 %sel, 1, !dbg !3863
  resume { i8*, i32 } %lpad.val22, !dbg !3863

terminate.lpad:                                   ; preds = %lpad18
  %27 = landingpad { i8*, i32 }
          catch i8* null, !dbg !3863
  %28 = extractvalue { i8*, i32 } %27, 0, !dbg !3863
  call void @__clang_call_terminate(i8* %28) #15, !dbg !3863
  unreachable, !dbg !3863

unreachable:                                      ; preds = %catch
  unreachable
}

; Function Attrs: noinline nounwind uwtable
define linkonce_odr dso_local void @_ZSt16forward_as_tupleIJ10opp_stringEESt5tupleIJDpOT_EES4_(%"class.std::tuple"* noalias sret %agg.result, %class.opp_string* dereferenceable(8) %__args) #5 comdat !dbg !3865 {
entry:
  %result.ptr = alloca i8*, align 8
  %__args.addr = alloca %class.opp_string*, align 8
  %0 = bitcast %"class.std::tuple"* %agg.result to i8*
  store i8* %0, i8** %result.ptr, align 8
  store %class.opp_string* %__args, %class.opp_string** %__args.addr, align 8
  call void @llvm.dbg.declare(metadata %class.opp_string** %__args.addr, metadata !3872, metadata !DIExpression()), !dbg !3873
  %1 = load %class.opp_string*, %class.opp_string** %__args.addr, align 8, !dbg !3874
  %call = call dereferenceable(8) %class.opp_string* @_ZSt7forwardI10opp_stringEOT_RNSt16remove_referenceIS1_E4typeE(%class.opp_string* dereferenceable(8) %1) #3, !dbg !3875
  call void @_ZNSt5tupleIJO10opp_stringEEC2IJS0_ELb1ELb1EEEDpOT_(%"class.std::tuple"* %agg.result, %class.opp_string* dereferenceable(8) %call) #3, !dbg !3876
  ret void, !dbg !3877
}

; Function Attrs: noinline nounwind uwtable
define linkonce_odr dso_local dereferenceable(8) %class.opp_string* @_ZSt4moveIR10opp_stringEONSt16remove_referenceIT_E4typeEOS3_(%class.opp_string* dereferenceable(8) %__t) #5 comdat !dbg !3878 {
entry:
  %__t.addr = alloca %class.opp_string*, align 8
  store %class.opp_string* %__t, %class.opp_string** %__t.addr, align 8
  call void @llvm.dbg.declare(metadata %class.opp_string** %__t.addr, metadata !3886, metadata !DIExpression()), !dbg !3887
  %0 = load %class.opp_string*, %class.opp_string** %__t.addr, align 8, !dbg !3888
  ret %class.opp_string* %0, !dbg !3889
}

; Function Attrs: argmemonly nounwind willreturn
declare void @llvm.memcpy.p0i8.p0i8.i64(i8* noalias nocapture writeonly, i8* noalias nocapture readonly, i64, i1 immarg) #10

; Function Attrs: noinline uwtable
define linkonce_odr dso_local %"struct.std::_Rb_tree_node_base"* @_ZNSt8_Rb_treeI10opp_stringSt4pairIKS0_S0_ESt10_Select1stIS3_ESt4lessIS0_ESaIS3_EE11lower_boundERS2_(%"class.std::_Rb_tree"* %this, %class.opp_string* dereferenceable(8) %__k) #0 comdat align 2 !dbg !3890 {
entry:
  %retval = alloca %"struct.std::_Rb_tree_iterator", align 8
  %this.addr = alloca %"class.std::_Rb_tree"*, align 8
  %__k.addr = alloca %class.opp_string*, align 8
  store %"class.std::_Rb_tree"* %this, %"class.std::_Rb_tree"** %this.addr, align 8
  call void @llvm.dbg.declare(metadata %"class.std::_Rb_tree"** %this.addr, metadata !3891, metadata !DIExpression()), !dbg !3892
  store %class.opp_string* %__k, %class.opp_string** %__k.addr, align 8
  call void @llvm.dbg.declare(metadata %class.opp_string** %__k.addr, metadata !3893, metadata !DIExpression()), !dbg !3894
  %this1 = load %"class.std::_Rb_tree"*, %"class.std::_Rb_tree"** %this.addr, align 8
  %call = call %"struct.std::_Rb_tree_node"* @_ZNSt8_Rb_treeI10opp_stringSt4pairIKS0_S0_ESt10_Select1stIS3_ESt4lessIS0_ESaIS3_EE8_M_beginEv(%"class.std::_Rb_tree"* %this1) #3, !dbg !3895
  %call2 = call %"struct.std::_Rb_tree_node_base"* @_ZNSt8_Rb_treeI10opp_stringSt4pairIKS0_S0_ESt10_Select1stIS3_ESt4lessIS0_ESaIS3_EE6_M_endEv(%"class.std::_Rb_tree"* %this1) #3, !dbg !3896
  %0 = load %class.opp_string*, %class.opp_string** %__k.addr, align 8, !dbg !3897
  %call3 = call %"struct.std::_Rb_tree_node_base"* @_ZNSt8_Rb_treeI10opp_stringSt4pairIKS0_S0_ESt10_Select1stIS3_ESt4lessIS0_ESaIS3_EE14_M_lower_boundEPSt13_Rb_tree_nodeIS3_EPSt18_Rb_tree_node_baseRS2_(%"class.std::_Rb_tree"* %this1, %"struct.std::_Rb_tree_node"* %call, %"struct.std::_Rb_tree_node_base"* %call2, %class.opp_string* dereferenceable(8) %0), !dbg !3898
  %coerce.dive = getelementptr inbounds %"struct.std::_Rb_tree_iterator", %"struct.std::_Rb_tree_iterator"* %retval, i32 0, i32 0, !dbg !3898
  store %"struct.std::_Rb_tree_node_base"* %call3, %"struct.std::_Rb_tree_node_base"** %coerce.dive, align 8, !dbg !3898
  %coerce.dive4 = getelementptr inbounds %"struct.std::_Rb_tree_iterator", %"struct.std::_Rb_tree_iterator"* %retval, i32 0, i32 0, !dbg !3899
  %1 = load %"struct.std::_Rb_tree_node_base"*, %"struct.std::_Rb_tree_node_base"** %coerce.dive4, align 8, !dbg !3899
  ret %"struct.std::_Rb_tree_node_base"* %1, !dbg !3899
}

; Function Attrs: noinline uwtable
define linkonce_odr dso_local %"struct.std::_Rb_tree_node_base"* @_ZNSt8_Rb_treeI10opp_stringSt4pairIKS0_S0_ESt10_Select1stIS3_ESt4lessIS0_ESaIS3_EE14_M_lower_boundEPSt13_Rb_tree_nodeIS3_EPSt18_Rb_tree_node_baseRS2_(%"class.std::_Rb_tree"* %this, %"struct.std::_Rb_tree_node"* %__x, %"struct.std::_Rb_tree_node_base"* %__y, %class.opp_string* dereferenceable(8) %__k) #0 comdat align 2 !dbg !3900 {
entry:
  %retval = alloca %"struct.std::_Rb_tree_iterator", align 8
  %this.addr = alloca %"class.std::_Rb_tree"*, align 8
  %__x.addr = alloca %"struct.std::_Rb_tree_node"*, align 8
  %__y.addr = alloca %"struct.std::_Rb_tree_node_base"*, align 8
  %__k.addr = alloca %class.opp_string*, align 8
  store %"class.std::_Rb_tree"* %this, %"class.std::_Rb_tree"** %this.addr, align 8
  call void @llvm.dbg.declare(metadata %"class.std::_Rb_tree"** %this.addr, metadata !3901, metadata !DIExpression()), !dbg !3902
  store %"struct.std::_Rb_tree_node"* %__x, %"struct.std::_Rb_tree_node"** %__x.addr, align 8
  call void @llvm.dbg.declare(metadata %"struct.std::_Rb_tree_node"** %__x.addr, metadata !3903, metadata !DIExpression()), !dbg !3904
  store %"struct.std::_Rb_tree_node_base"* %__y, %"struct.std::_Rb_tree_node_base"** %__y.addr, align 8
  call void @llvm.dbg.declare(metadata %"struct.std::_Rb_tree_node_base"** %__y.addr, metadata !3905, metadata !DIExpression()), !dbg !3906
  store %class.opp_string* %__k, %class.opp_string** %__k.addr, align 8
  call void @llvm.dbg.declare(metadata %class.opp_string** %__k.addr, metadata !3907, metadata !DIExpression()), !dbg !3908
  %this1 = load %"class.std::_Rb_tree"*, %"class.std::_Rb_tree"** %this.addr, align 8
  br label %while.cond, !dbg !3909

while.cond:                                       ; preds = %if.end, %entry
  %0 = load %"struct.std::_Rb_tree_node"*, %"struct.std::_Rb_tree_node"** %__x.addr, align 8, !dbg !3910
  %cmp = icmp ne %"struct.std::_Rb_tree_node"* %0, null, !dbg !3911
  br i1 %cmp, label %while.body, label %while.end, !dbg !3909

while.body:                                       ; preds = %while.cond
  %_M_impl = getelementptr inbounds %"class.std::_Rb_tree", %"class.std::_Rb_tree"* %this1, i32 0, i32 0, !dbg !3912
  %1 = bitcast %"struct.std::_Rb_tree<opp_string, std::pair<const opp_string, opp_string>, std::_Select1st<std::pair<const opp_string, opp_string> >, std::less<opp_string>, std::allocator<std::pair<const opp_string, opp_string> > >::_Rb_tree_impl"* %_M_impl to %"struct.std::_Rb_tree_key_compare"*, !dbg !3912
  %_M_key_compare = getelementptr inbounds %"struct.std::_Rb_tree_key_compare", %"struct.std::_Rb_tree_key_compare"* %1, i32 0, i32 0, !dbg !3914
  %2 = load %"struct.std::_Rb_tree_node"*, %"struct.std::_Rb_tree_node"** %__x.addr, align 8, !dbg !3915
  %call = call dereferenceable(8) %class.opp_string* @_ZNSt8_Rb_treeI10opp_stringSt4pairIKS0_S0_ESt10_Select1stIS3_ESt4lessIS0_ESaIS3_EE6_S_keyEPKSt13_Rb_tree_nodeIS3_E(%"struct.std::_Rb_tree_node"* %2), !dbg !3916
  %3 = load %class.opp_string*, %class.opp_string** %__k.addr, align 8, !dbg !3917
  %call2 = call zeroext i1 @_ZNKSt4lessI10opp_stringEclERKS0_S3_(%"struct.std::less"* %_M_key_compare, %class.opp_string* dereferenceable(8) %call, %class.opp_string* dereferenceable(8) %3), !dbg !3912
  br i1 %call2, label %if.else, label %if.then, !dbg !3918

if.then:                                          ; preds = %while.body
  %4 = load %"struct.std::_Rb_tree_node"*, %"struct.std::_Rb_tree_node"** %__x.addr, align 8, !dbg !3919
  %5 = bitcast %"struct.std::_Rb_tree_node"* %4 to %"struct.std::_Rb_tree_node_base"*, !dbg !3919
  store %"struct.std::_Rb_tree_node_base"* %5, %"struct.std::_Rb_tree_node_base"** %__y.addr, align 8, !dbg !3920
  %6 = load %"struct.std::_Rb_tree_node"*, %"struct.std::_Rb_tree_node"** %__x.addr, align 8, !dbg !3921
  %7 = bitcast %"struct.std::_Rb_tree_node"* %6 to %"struct.std::_Rb_tree_node_base"*, !dbg !3921
  %call3 = call %"struct.std::_Rb_tree_node"* @_ZNSt8_Rb_treeI10opp_stringSt4pairIKS0_S0_ESt10_Select1stIS3_ESt4lessIS0_ESaIS3_EE7_S_leftEPSt18_Rb_tree_node_base(%"struct.std::_Rb_tree_node_base"* %7) #3, !dbg !3922
  store %"struct.std::_Rb_tree_node"* %call3, %"struct.std::_Rb_tree_node"** %__x.addr, align 8, !dbg !3923
  br label %if.end, !dbg !3924

if.else:                                          ; preds = %while.body
  %8 = load %"struct.std::_Rb_tree_node"*, %"struct.std::_Rb_tree_node"** %__x.addr, align 8, !dbg !3925
  %9 = bitcast %"struct.std::_Rb_tree_node"* %8 to %"struct.std::_Rb_tree_node_base"*, !dbg !3925
  %call4 = call %"struct.std::_Rb_tree_node"* @_ZNSt8_Rb_treeI10opp_stringSt4pairIKS0_S0_ESt10_Select1stIS3_ESt4lessIS0_ESaIS3_EE8_S_rightEPSt18_Rb_tree_node_base(%"struct.std::_Rb_tree_node_base"* %9) #3, !dbg !3926
  store %"struct.std::_Rb_tree_node"* %call4, %"struct.std::_Rb_tree_node"** %__x.addr, align 8, !dbg !3927
  br label %if.end

if.end:                                           ; preds = %if.else, %if.then
  br label %while.cond, !dbg !3909, !llvm.loop !3928

while.end:                                        ; preds = %while.cond
  %10 = load %"struct.std::_Rb_tree_node_base"*, %"struct.std::_Rb_tree_node_base"** %__y.addr, align 8, !dbg !3930
  call void @_ZNSt17_Rb_tree_iteratorISt4pairIK10opp_stringS1_EEC2EPSt18_Rb_tree_node_base(%"struct.std::_Rb_tree_iterator"* %retval, %"struct.std::_Rb_tree_node_base"* %10) #3, !dbg !3931
  %coerce.dive = getelementptr inbounds %"struct.std::_Rb_tree_iterator", %"struct.std::_Rb_tree_iterator"* %retval, i32 0, i32 0, !dbg !3932
  %11 = load %"struct.std::_Rb_tree_node_base"*, %"struct.std::_Rb_tree_node_base"** %coerce.dive, align 8, !dbg !3932
  ret %"struct.std::_Rb_tree_node_base"* %11, !dbg !3932
}

; Function Attrs: noinline nounwind uwtable
define linkonce_odr dso_local %"struct.std::_Rb_tree_node"* @_ZNSt8_Rb_treeI10opp_stringSt4pairIKS0_S0_ESt10_Select1stIS3_ESt4lessIS0_ESaIS3_EE8_M_beginEv(%"class.std::_Rb_tree"* %this) #5 comdat align 2 !dbg !3933 {
entry:
  %this.addr = alloca %"class.std::_Rb_tree"*, align 8
  store %"class.std::_Rb_tree"* %this, %"class.std::_Rb_tree"** %this.addr, align 8
  call void @llvm.dbg.declare(metadata %"class.std::_Rb_tree"** %this.addr, metadata !3934, metadata !DIExpression()), !dbg !3935
  %this1 = load %"class.std::_Rb_tree"*, %"class.std::_Rb_tree"** %this.addr, align 8
  %_M_impl = getelementptr inbounds %"class.std::_Rb_tree", %"class.std::_Rb_tree"* %this1, i32 0, i32 0, !dbg !3936
  %0 = bitcast %"struct.std::_Rb_tree<opp_string, std::pair<const opp_string, opp_string>, std::_Select1st<std::pair<const opp_string, opp_string> >, std::less<opp_string>, std::allocator<std::pair<const opp_string, opp_string> > >::_Rb_tree_impl"* %_M_impl to i8*, !dbg !3937
  %add.ptr = getelementptr inbounds i8, i8* %0, i64 8, !dbg !3937
  %1 = bitcast i8* %add.ptr to %"struct.std::_Rb_tree_header"*, !dbg !3937
  %_M_header = getelementptr inbounds %"struct.std::_Rb_tree_header", %"struct.std::_Rb_tree_header"* %1, i32 0, i32 0, !dbg !3938
  %_M_parent = getelementptr inbounds %"struct.std::_Rb_tree_node_base", %"struct.std::_Rb_tree_node_base"* %_M_header, i32 0, i32 1, !dbg !3939
  %2 = load %"struct.std::_Rb_tree_node_base"*, %"struct.std::_Rb_tree_node_base"** %_M_parent, align 8, !dbg !3939
  %3 = bitcast %"struct.std::_Rb_tree_node_base"* %2 to %"struct.std::_Rb_tree_node"*, !dbg !3940
  ret %"struct.std::_Rb_tree_node"* %3, !dbg !3941
}

; Function Attrs: noinline nounwind uwtable
define linkonce_odr dso_local %"struct.std::_Rb_tree_node_base"* @_ZNSt8_Rb_treeI10opp_stringSt4pairIKS0_S0_ESt10_Select1stIS3_ESt4lessIS0_ESaIS3_EE6_M_endEv(%"class.std::_Rb_tree"* %this) #5 comdat align 2 !dbg !3942 {
entry:
  %this.addr = alloca %"class.std::_Rb_tree"*, align 8
  store %"class.std::_Rb_tree"* %this, %"class.std::_Rb_tree"** %this.addr, align 8
  call void @llvm.dbg.declare(metadata %"class.std::_Rb_tree"** %this.addr, metadata !3943, metadata !DIExpression()), !dbg !3944
  %this1 = load %"class.std::_Rb_tree"*, %"class.std::_Rb_tree"** %this.addr, align 8
  %_M_impl = getelementptr inbounds %"class.std::_Rb_tree", %"class.std::_Rb_tree"* %this1, i32 0, i32 0, !dbg !3945
  %0 = bitcast %"struct.std::_Rb_tree<opp_string, std::pair<const opp_string, opp_string>, std::_Select1st<std::pair<const opp_string, opp_string> >, std::less<opp_string>, std::allocator<std::pair<const opp_string, opp_string> > >::_Rb_tree_impl"* %_M_impl to i8*, !dbg !3946
  %add.ptr = getelementptr inbounds i8, i8* %0, i64 8, !dbg !3946
  %1 = bitcast i8* %add.ptr to %"struct.std::_Rb_tree_header"*, !dbg !3946
  %_M_header = getelementptr inbounds %"struct.std::_Rb_tree_header", %"struct.std::_Rb_tree_header"* %1, i32 0, i32 0, !dbg !3947
  ret %"struct.std::_Rb_tree_node_base"* %_M_header, !dbg !3948
}

; Function Attrs: noinline uwtable
define linkonce_odr dso_local dereferenceable(8) %class.opp_string* @_ZNSt8_Rb_treeI10opp_stringSt4pairIKS0_S0_ESt10_Select1stIS3_ESt4lessIS0_ESaIS3_EE6_S_keyEPKSt13_Rb_tree_nodeIS3_E(%"struct.std::_Rb_tree_node"* %__x) #0 comdat align 2 !dbg !3949 {
entry:
  %__x.addr = alloca %"struct.std::_Rb_tree_node"*, align 8
  %ref.tmp = alloca %"struct.std::_Select1st", align 1
  store %"struct.std::_Rb_tree_node"* %__x, %"struct.std::_Rb_tree_node"** %__x.addr, align 8
  call void @llvm.dbg.declare(metadata %"struct.std::_Rb_tree_node"** %__x.addr, metadata !3950, metadata !DIExpression()), !dbg !3951
  %0 = load %"struct.std::_Rb_tree_node"*, %"struct.std::_Rb_tree_node"** %__x.addr, align 8, !dbg !3952
  %call = call %"struct.std::pair"* @_ZNKSt13_Rb_tree_nodeISt4pairIK10opp_stringS1_EE9_M_valptrEv(%"struct.std::_Rb_tree_node"* %0), !dbg !3953
  %call1 = call dereferenceable(8) %class.opp_string* @_ZNKSt10_Select1stISt4pairIK10opp_stringS1_EEclERKS3_(%"struct.std::_Select1st"* %ref.tmp, %"struct.std::pair"* dereferenceable(16) %call), !dbg !3954
  ret %class.opp_string* %call1, !dbg !3955
}

; Function Attrs: noinline nounwind uwtable
define linkonce_odr dso_local %"struct.std::_Rb_tree_node"* @_ZNSt8_Rb_treeI10opp_stringSt4pairIKS0_S0_ESt10_Select1stIS3_ESt4lessIS0_ESaIS3_EE7_S_leftEPSt18_Rb_tree_node_base(%"struct.std::_Rb_tree_node_base"* %__x) #5 comdat align 2 !dbg !3956 {
entry:
  %__x.addr = alloca %"struct.std::_Rb_tree_node_base"*, align 8
  store %"struct.std::_Rb_tree_node_base"* %__x, %"struct.std::_Rb_tree_node_base"** %__x.addr, align 8
  call void @llvm.dbg.declare(metadata %"struct.std::_Rb_tree_node_base"** %__x.addr, metadata !3957, metadata !DIExpression()), !dbg !3958
  %0 = load %"struct.std::_Rb_tree_node_base"*, %"struct.std::_Rb_tree_node_base"** %__x.addr, align 8, !dbg !3959
  %_M_left = getelementptr inbounds %"struct.std::_Rb_tree_node_base", %"struct.std::_Rb_tree_node_base"* %0, i32 0, i32 2, !dbg !3960
  %1 = load %"struct.std::_Rb_tree_node_base"*, %"struct.std::_Rb_tree_node_base"** %_M_left, align 8, !dbg !3960
  %2 = bitcast %"struct.std::_Rb_tree_node_base"* %1 to %"struct.std::_Rb_tree_node"*, !dbg !3961
  ret %"struct.std::_Rb_tree_node"* %2, !dbg !3962
}

; Function Attrs: noinline nounwind uwtable
define linkonce_odr dso_local %"struct.std::_Rb_tree_node"* @_ZNSt8_Rb_treeI10opp_stringSt4pairIKS0_S0_ESt10_Select1stIS3_ESt4lessIS0_ESaIS3_EE8_S_rightEPSt18_Rb_tree_node_base(%"struct.std::_Rb_tree_node_base"* %__x) #5 comdat align 2 !dbg !3963 {
entry:
  %__x.addr = alloca %"struct.std::_Rb_tree_node_base"*, align 8
  store %"struct.std::_Rb_tree_node_base"* %__x, %"struct.std::_Rb_tree_node_base"** %__x.addr, align 8
  call void @llvm.dbg.declare(metadata %"struct.std::_Rb_tree_node_base"** %__x.addr, metadata !3964, metadata !DIExpression()), !dbg !3965
  %0 = load %"struct.std::_Rb_tree_node_base"*, %"struct.std::_Rb_tree_node_base"** %__x.addr, align 8, !dbg !3966
  %_M_right = getelementptr inbounds %"struct.std::_Rb_tree_node_base", %"struct.std::_Rb_tree_node_base"* %0, i32 0, i32 3, !dbg !3967
  %1 = load %"struct.std::_Rb_tree_node_base"*, %"struct.std::_Rb_tree_node_base"** %_M_right, align 8, !dbg !3967
  %2 = bitcast %"struct.std::_Rb_tree_node_base"* %1 to %"struct.std::_Rb_tree_node"*, !dbg !3968
  ret %"struct.std::_Rb_tree_node"* %2, !dbg !3969
}

; Function Attrs: noinline nounwind uwtable
define linkonce_odr dso_local void @_ZNSt17_Rb_tree_iteratorISt4pairIK10opp_stringS1_EEC2EPSt18_Rb_tree_node_base(%"struct.std::_Rb_tree_iterator"* %this, %"struct.std::_Rb_tree_node_base"* %__x) unnamed_addr #5 comdat align 2 !dbg !3970 {
entry:
  %this.addr = alloca %"struct.std::_Rb_tree_iterator"*, align 8
  %__x.addr = alloca %"struct.std::_Rb_tree_node_base"*, align 8
  store %"struct.std::_Rb_tree_iterator"* %this, %"struct.std::_Rb_tree_iterator"** %this.addr, align 8
  call void @llvm.dbg.declare(metadata %"struct.std::_Rb_tree_iterator"** %this.addr, metadata !3971, metadata !DIExpression()), !dbg !3973
  store %"struct.std::_Rb_tree_node_base"* %__x, %"struct.std::_Rb_tree_node_base"** %__x.addr, align 8
  call void @llvm.dbg.declare(metadata %"struct.std::_Rb_tree_node_base"** %__x.addr, metadata !3974, metadata !DIExpression()), !dbg !3975
  %this1 = load %"struct.std::_Rb_tree_iterator"*, %"struct.std::_Rb_tree_iterator"** %this.addr, align 8
  %_M_node = getelementptr inbounds %"struct.std::_Rb_tree_iterator", %"struct.std::_Rb_tree_iterator"* %this1, i32 0, i32 0, !dbg !3976
  %0 = load %"struct.std::_Rb_tree_node_base"*, %"struct.std::_Rb_tree_node_base"** %__x.addr, align 8, !dbg !3977
  store %"struct.std::_Rb_tree_node_base"* %0, %"struct.std::_Rb_tree_node_base"** %_M_node, align 8, !dbg !3976
  ret void, !dbg !3978
}

; Function Attrs: noinline nounwind uwtable
define linkonce_odr dso_local dereferenceable(8) %class.opp_string* @_ZNKSt10_Select1stISt4pairIK10opp_stringS1_EEclERKS3_(%"struct.std::_Select1st"* %this, %"struct.std::pair"* dereferenceable(16) %__x) #5 comdat align 2 !dbg !3979 {
entry:
  %this.addr = alloca %"struct.std::_Select1st"*, align 8
  %__x.addr = alloca %"struct.std::pair"*, align 8
  store %"struct.std::_Select1st"* %this, %"struct.std::_Select1st"** %this.addr, align 8
  call void @llvm.dbg.declare(metadata %"struct.std::_Select1st"** %this.addr, metadata !3980, metadata !DIExpression()), !dbg !3982
  store %"struct.std::pair"* %__x, %"struct.std::pair"** %__x.addr, align 8
  call void @llvm.dbg.declare(metadata %"struct.std::pair"** %__x.addr, metadata !3983, metadata !DIExpression()), !dbg !3984
  %this1 = load %"struct.std::_Select1st"*, %"struct.std::_Select1st"** %this.addr, align 8
  %0 = load %"struct.std::pair"*, %"struct.std::pair"** %__x.addr, align 8, !dbg !3985
  %first = getelementptr inbounds %"struct.std::pair", %"struct.std::pair"* %0, i32 0, i32 0, !dbg !3986
  ret %class.opp_string* %first, !dbg !3987
}

; Function Attrs: noinline nounwind uwtable
define linkonce_odr dso_local %"struct.std::pair"* @_ZNKSt13_Rb_tree_nodeISt4pairIK10opp_stringS1_EE9_M_valptrEv(%"struct.std::_Rb_tree_node"* %this) #5 comdat align 2 !dbg !3988 {
entry:
  %this.addr = alloca %"struct.std::_Rb_tree_node"*, align 8
  store %"struct.std::_Rb_tree_node"* %this, %"struct.std::_Rb_tree_node"** %this.addr, align 8
  call void @llvm.dbg.declare(metadata %"struct.std::_Rb_tree_node"** %this.addr, metadata !3989, metadata !DIExpression()), !dbg !3990
  %this1 = load %"struct.std::_Rb_tree_node"*, %"struct.std::_Rb_tree_node"** %this.addr, align 8
  %_M_storage = getelementptr inbounds %"struct.std::_Rb_tree_node", %"struct.std::_Rb_tree_node"* %this1, i32 0, i32 1, !dbg !3991
  %call = call %"struct.std::pair"* @_ZNK9__gnu_cxx16__aligned_membufISt4pairIK10opp_stringS2_EE6_M_ptrEv(%"struct.__gnu_cxx::__aligned_membuf"* %_M_storage) #3, !dbg !3992
  ret %"struct.std::pair"* %call, !dbg !3993
}

; Function Attrs: noinline nounwind uwtable
define linkonce_odr dso_local %"struct.std::pair"* @_ZNK9__gnu_cxx16__aligned_membufISt4pairIK10opp_stringS2_EE6_M_ptrEv(%"struct.__gnu_cxx::__aligned_membuf"* %this) #5 comdat align 2 !dbg !3994 {
entry:
  %this.addr = alloca %"struct.__gnu_cxx::__aligned_membuf"*, align 8
  store %"struct.__gnu_cxx::__aligned_membuf"* %this, %"struct.__gnu_cxx::__aligned_membuf"** %this.addr, align 8
  call void @llvm.dbg.declare(metadata %"struct.__gnu_cxx::__aligned_membuf"** %this.addr, metadata !3995, metadata !DIExpression()), !dbg !3997
  %this1 = load %"struct.__gnu_cxx::__aligned_membuf"*, %"struct.__gnu_cxx::__aligned_membuf"** %this.addr, align 8
  %call = call i8* @_ZNK9__gnu_cxx16__aligned_membufISt4pairIK10opp_stringS2_EE7_M_addrEv(%"struct.__gnu_cxx::__aligned_membuf"* %this1) #3, !dbg !3998
  %0 = bitcast i8* %call to %"struct.std::pair"*, !dbg !3999
  ret %"struct.std::pair"* %0, !dbg !4000
}

; Function Attrs: noinline nounwind uwtable
define linkonce_odr dso_local i8* @_ZNK9__gnu_cxx16__aligned_membufISt4pairIK10opp_stringS2_EE7_M_addrEv(%"struct.__gnu_cxx::__aligned_membuf"* %this) #5 comdat align 2 !dbg !4001 {
entry:
  %this.addr = alloca %"struct.__gnu_cxx::__aligned_membuf"*, align 8
  store %"struct.__gnu_cxx::__aligned_membuf"* %this, %"struct.__gnu_cxx::__aligned_membuf"** %this.addr, align 8
  call void @llvm.dbg.declare(metadata %"struct.__gnu_cxx::__aligned_membuf"** %this.addr, metadata !4002, metadata !DIExpression()), !dbg !4003
  %this1 = load %"struct.__gnu_cxx::__aligned_membuf"*, %"struct.__gnu_cxx::__aligned_membuf"** %this.addr, align 8
  %_M_storage = getelementptr inbounds %"struct.__gnu_cxx::__aligned_membuf", %"struct.__gnu_cxx::__aligned_membuf"* %this1, i32 0, i32 0, !dbg !4004
  %0 = bitcast [16 x i8]* %_M_storage to i8*, !dbg !4005
  ret i8* %0, !dbg !4006
}

; Function Attrs: noinline nounwind uwtable
define linkonce_odr dso_local void @_ZNKSt8_Rb_treeI10opp_stringSt4pairIKS0_S0_ESt10_Select1stIS3_ESt4lessIS0_ESaIS3_EE8key_compEv(%"class.std::_Rb_tree"* %this) #5 comdat align 2 !dbg !4007 {
entry:
  %this.addr = alloca %"class.std::_Rb_tree"*, align 8
  store %"class.std::_Rb_tree"* %this, %"class.std::_Rb_tree"** %this.addr, align 8
  call void @llvm.dbg.declare(metadata %"class.std::_Rb_tree"** %this.addr, metadata !4008, metadata !DIExpression()), !dbg !4010
  %this1 = load %"class.std::_Rb_tree"*, %"class.std::_Rb_tree"** %this.addr, align 8
  %_M_impl = getelementptr inbounds %"class.std::_Rb_tree", %"class.std::_Rb_tree"* %this1, i32 0, i32 0, !dbg !4011
  %0 = bitcast %"struct.std::_Rb_tree<opp_string, std::pair<const opp_string, opp_string>, std::_Select1st<std::pair<const opp_string, opp_string> >, std::less<opp_string>, std::allocator<std::pair<const opp_string, opp_string> > >::_Rb_tree_impl"* %_M_impl to %"struct.std::_Rb_tree_key_compare"*, !dbg !4011
  %_M_key_compare = getelementptr inbounds %"struct.std::_Rb_tree_key_compare", %"struct.std::_Rb_tree_key_compare"* %0, i32 0, i32 0, !dbg !4012
  ret void, !dbg !4013
}

; Function Attrs: noinline nounwind uwtable
define linkonce_odr dso_local zeroext i1 @_ZNK10opp_stringltERKS_(%class.opp_string* %this, %class.opp_string* dereferenceable(8) %s) #5 comdat align 2 !dbg !4014 {
entry:
  %this.addr = alloca %class.opp_string*, align 8
  %s.addr = alloca %class.opp_string*, align 8
  store %class.opp_string* %this, %class.opp_string** %this.addr, align 8
  call void @llvm.dbg.declare(metadata %class.opp_string** %this.addr, metadata !4015, metadata !DIExpression()), !dbg !4016
  store %class.opp_string* %s, %class.opp_string** %s.addr, align 8
  call void @llvm.dbg.declare(metadata %class.opp_string** %s.addr, metadata !4017, metadata !DIExpression()), !dbg !4018
  %this1 = load %class.opp_string*, %class.opp_string** %this.addr, align 8
  %str = getelementptr inbounds %class.opp_string, %class.opp_string* %this1, i32 0, i32 0, !dbg !4019
  %0 = load i8*, i8** %str, align 8, !dbg !4019
  %1 = load %class.opp_string*, %class.opp_string** %s.addr, align 8, !dbg !4020
  %str2 = getelementptr inbounds %class.opp_string, %class.opp_string* %1, i32 0, i32 0, !dbg !4021
  %2 = load i8*, i8** %str2, align 8, !dbg !4021
  %call = call i32 @_Z10opp_strcmpPKcS0_(i8* %0, i8* %2), !dbg !4022
  %cmp = icmp slt i32 %call, 0, !dbg !4023
  ret i1 %cmp, !dbg !4024
}

; Function Attrs: noinline nounwind uwtable
define linkonce_odr dso_local %"struct.std::pair"* @_ZNSt13_Rb_tree_nodeISt4pairIK10opp_stringS1_EE9_M_valptrEv(%"struct.std::_Rb_tree_node"* %this) #5 comdat align 2 !dbg !4025 {
entry:
  %this.addr = alloca %"struct.std::_Rb_tree_node"*, align 8
  store %"struct.std::_Rb_tree_node"* %this, %"struct.std::_Rb_tree_node"** %this.addr, align 8
  call void @llvm.dbg.declare(metadata %"struct.std::_Rb_tree_node"** %this.addr, metadata !4026, metadata !DIExpression()), !dbg !4027
  %this1 = load %"struct.std::_Rb_tree_node"*, %"struct.std::_Rb_tree_node"** %this.addr, align 8
  %_M_storage = getelementptr inbounds %"struct.std::_Rb_tree_node", %"struct.std::_Rb_tree_node"* %this1, i32 0, i32 1, !dbg !4028
  %call = call %"struct.std::pair"* @_ZN9__gnu_cxx16__aligned_membufISt4pairIK10opp_stringS2_EE6_M_ptrEv(%"struct.__gnu_cxx::__aligned_membuf"* %_M_storage) #3, !dbg !4029
  ret %"struct.std::pair"* %call, !dbg !4030
}

; Function Attrs: noinline nounwind uwtable
define linkonce_odr dso_local %"struct.std::pair"* @_ZN9__gnu_cxx16__aligned_membufISt4pairIK10opp_stringS2_EE6_M_ptrEv(%"struct.__gnu_cxx::__aligned_membuf"* %this) #5 comdat align 2 !dbg !4031 {
entry:
  %this.addr = alloca %"struct.__gnu_cxx::__aligned_membuf"*, align 8
  store %"struct.__gnu_cxx::__aligned_membuf"* %this, %"struct.__gnu_cxx::__aligned_membuf"** %this.addr, align 8
  call void @llvm.dbg.declare(metadata %"struct.__gnu_cxx::__aligned_membuf"** %this.addr, metadata !4032, metadata !DIExpression()), !dbg !4034
  %this1 = load %"struct.__gnu_cxx::__aligned_membuf"*, %"struct.__gnu_cxx::__aligned_membuf"** %this.addr, align 8
  %call = call i8* @_ZN9__gnu_cxx16__aligned_membufISt4pairIK10opp_stringS2_EE7_M_addrEv(%"struct.__gnu_cxx::__aligned_membuf"* %this1) #3, !dbg !4035
  %0 = bitcast i8* %call to %"struct.std::pair"*, !dbg !4036
  ret %"struct.std::pair"* %0, !dbg !4037
}

; Function Attrs: noinline nounwind uwtable
define linkonce_odr dso_local i8* @_ZN9__gnu_cxx16__aligned_membufISt4pairIK10opp_stringS2_EE7_M_addrEv(%"struct.__gnu_cxx::__aligned_membuf"* %this) #5 comdat align 2 !dbg !4038 {
entry:
  %this.addr = alloca %"struct.__gnu_cxx::__aligned_membuf"*, align 8
  store %"struct.__gnu_cxx::__aligned_membuf"* %this, %"struct.__gnu_cxx::__aligned_membuf"** %this.addr, align 8
  call void @llvm.dbg.declare(metadata %"struct.__gnu_cxx::__aligned_membuf"** %this.addr, metadata !4039, metadata !DIExpression()), !dbg !4040
  %this1 = load %"struct.__gnu_cxx::__aligned_membuf"*, %"struct.__gnu_cxx::__aligned_membuf"** %this.addr, align 8
  %_M_storage = getelementptr inbounds %"struct.__gnu_cxx::__aligned_membuf", %"struct.__gnu_cxx::__aligned_membuf"* %this1, i32 0, i32 0, !dbg !4041
  %0 = bitcast [16 x i8]* %_M_storage to i8*, !dbg !4042
  ret i8* %0, !dbg !4043
}

; Function Attrs: noinline uwtable
define linkonce_odr dso_local %"struct.std::_Rb_tree_node"* @_ZNSt8_Rb_treeI10opp_stringSt4pairIKS0_S0_ESt10_Select1stIS3_ESt4lessIS0_ESaIS3_EE14_M_create_nodeIJRKSt21piecewise_construct_tSt5tupleIJOS0_EESE_IJEEEEEPSt13_Rb_tree_nodeIS3_EDpOT_(%"class.std::_Rb_tree"* %this, %"struct.std::piecewise_construct_t"* dereferenceable(1) %__args, %"class.std::tuple"* dereferenceable(8) %__args1, %"class.std::tuple.6"* dereferenceable(1) %__args3) #0 comdat align 2 !dbg !4044 {
entry:
  %this.addr = alloca %"class.std::_Rb_tree"*, align 8
  %__args.addr = alloca %"struct.std::piecewise_construct_t"*, align 8
  %__args.addr2 = alloca %"class.std::tuple"*, align 8
  %__args.addr4 = alloca %"class.std::tuple.6"*, align 8
  %__tmp = alloca %"struct.std::_Rb_tree_node"*, align 8
  store %"class.std::_Rb_tree"* %this, %"class.std::_Rb_tree"** %this.addr, align 8
  call void @llvm.dbg.declare(metadata %"class.std::_Rb_tree"** %this.addr, metadata !4048, metadata !DIExpression()), !dbg !4049
  store %"struct.std::piecewise_construct_t"* %__args, %"struct.std::piecewise_construct_t"** %__args.addr, align 8
  call void @llvm.dbg.declare(metadata %"struct.std::piecewise_construct_t"** %__args.addr, metadata !4050, metadata !DIExpression()), !dbg !4051
  store %"class.std::tuple"* %__args1, %"class.std::tuple"** %__args.addr2, align 8
  call void @llvm.dbg.declare(metadata %"class.std::tuple"** %__args.addr2, metadata !4052, metadata !DIExpression()), !dbg !4051
  store %"class.std::tuple.6"* %__args3, %"class.std::tuple.6"** %__args.addr4, align 8
  call void @llvm.dbg.declare(metadata %"class.std::tuple.6"** %__args.addr4, metadata !4053, metadata !DIExpression()), !dbg !4051
  %this5 = load %"class.std::_Rb_tree"*, %"class.std::_Rb_tree"** %this.addr, align 8
  call void @llvm.dbg.declare(metadata %"struct.std::_Rb_tree_node"** %__tmp, metadata !4054, metadata !DIExpression()), !dbg !4055
  %call = call %"struct.std::_Rb_tree_node"* @_ZNSt8_Rb_treeI10opp_stringSt4pairIKS0_S0_ESt10_Select1stIS3_ESt4lessIS0_ESaIS3_EE11_M_get_nodeEv(%"class.std::_Rb_tree"* %this5), !dbg !4056
  store %"struct.std::_Rb_tree_node"* %call, %"struct.std::_Rb_tree_node"** %__tmp, align 8, !dbg !4055
  %0 = load %"struct.std::_Rb_tree_node"*, %"struct.std::_Rb_tree_node"** %__tmp, align 8, !dbg !4057
  %1 = load %"struct.std::piecewise_construct_t"*, %"struct.std::piecewise_construct_t"** %__args.addr, align 8, !dbg !4058
  %call6 = call dereferenceable(1) %"struct.std::piecewise_construct_t"* @_ZSt7forwardIRKSt21piecewise_construct_tEOT_RNSt16remove_referenceIS3_E4typeE(%"struct.std::piecewise_construct_t"* dereferenceable(1) %1) #3, !dbg !4059
  %2 = load %"class.std::tuple"*, %"class.std::tuple"** %__args.addr2, align 8, !dbg !4058
  %call7 = call dereferenceable(8) %"class.std::tuple"* @_ZSt7forwardISt5tupleIJO10opp_stringEEEOT_RNSt16remove_referenceIS4_E4typeE(%"class.std::tuple"* dereferenceable(8) %2) #3, !dbg !4059
  %3 = load %"class.std::tuple.6"*, %"class.std::tuple.6"** %__args.addr4, align 8, !dbg !4058
  %call8 = call dereferenceable(1) %"class.std::tuple.6"* @_ZSt7forwardISt5tupleIJEEEOT_RNSt16remove_referenceIS2_E4typeE(%"class.std::tuple.6"* dereferenceable(1) %3) #3, !dbg !4059
  call void @_ZNSt8_Rb_treeI10opp_stringSt4pairIKS0_S0_ESt10_Select1stIS3_ESt4lessIS0_ESaIS3_EE17_M_construct_nodeIJRKSt21piecewise_construct_tSt5tupleIJOS0_EESE_IJEEEEEvPSt13_Rb_tree_nodeIS3_EDpOT_(%"class.std::_Rb_tree"* %this5, %"struct.std::_Rb_tree_node"* %0, %"struct.std::piecewise_construct_t"* dereferenceable(1) %call6, %"class.std::tuple"* dereferenceable(8) %call7, %"class.std::tuple.6"* dereferenceable(1) %call8), !dbg !4060
  %4 = load %"struct.std::_Rb_tree_node"*, %"struct.std::_Rb_tree_node"** %__tmp, align 8, !dbg !4061
  ret %"struct.std::_Rb_tree_node"* %4, !dbg !4062
}

; Function Attrs: noinline nounwind uwtable
define linkonce_odr dso_local dereferenceable(1) %"struct.std::piecewise_construct_t"* @_ZSt7forwardIRKSt21piecewise_construct_tEOT_RNSt16remove_referenceIS3_E4typeE(%"struct.std::piecewise_construct_t"* dereferenceable(1) %__t) #5 comdat !dbg !4063 {
entry:
  %__t.addr = alloca %"struct.std::piecewise_construct_t"*, align 8
  store %"struct.std::piecewise_construct_t"* %__t, %"struct.std::piecewise_construct_t"** %__t.addr, align 8
  call void @llvm.dbg.declare(metadata %"struct.std::piecewise_construct_t"** %__t.addr, metadata !4071, metadata !DIExpression()), !dbg !4072
  %0 = load %"struct.std::piecewise_construct_t"*, %"struct.std::piecewise_construct_t"** %__t.addr, align 8, !dbg !4073
  ret %"struct.std::piecewise_construct_t"* %0, !dbg !4074
}

; Function Attrs: noinline nounwind uwtable
define linkonce_odr dso_local dereferenceable(8) %"class.std::tuple"* @_ZSt7forwardISt5tupleIJO10opp_stringEEEOT_RNSt16remove_referenceIS4_E4typeE(%"class.std::tuple"* dereferenceable(8) %__t) #5 comdat !dbg !4075 {
entry:
  %__t.addr = alloca %"class.std::tuple"*, align 8
  store %"class.std::tuple"* %__t, %"class.std::tuple"** %__t.addr, align 8
  call void @llvm.dbg.declare(metadata %"class.std::tuple"** %__t.addr, metadata !4083, metadata !DIExpression()), !dbg !4084
  %0 = load %"class.std::tuple"*, %"class.std::tuple"** %__t.addr, align 8, !dbg !4085
  ret %"class.std::tuple"* %0, !dbg !4086
}

; Function Attrs: noinline nounwind uwtable
define linkonce_odr dso_local dereferenceable(1) %"class.std::tuple.6"* @_ZSt7forwardISt5tupleIJEEEOT_RNSt16remove_referenceIS2_E4typeE(%"class.std::tuple.6"* dereferenceable(1) %__t) #5 comdat !dbg !4087 {
entry:
  %__t.addr = alloca %"class.std::tuple.6"*, align 8
  store %"class.std::tuple.6"* %__t, %"class.std::tuple.6"** %__t.addr, align 8
  call void @llvm.dbg.declare(metadata %"class.std::tuple.6"** %__t.addr, metadata !4095, metadata !DIExpression()), !dbg !4096
  %0 = load %"class.std::tuple.6"*, %"class.std::tuple.6"** %__t.addr, align 8, !dbg !4097
  ret %"class.std::tuple.6"* %0, !dbg !4098
}

; Function Attrs: noinline uwtable
define linkonce_odr dso_local { %"struct.std::_Rb_tree_node_base"*, %"struct.std::_Rb_tree_node_base"* } @_ZNSt8_Rb_treeI10opp_stringSt4pairIKS0_S0_ESt10_Select1stIS3_ESt4lessIS0_ESaIS3_EE29_M_get_insert_hint_unique_posESt23_Rb_tree_const_iteratorIS3_ERS2_(%"class.std::_Rb_tree"* %this, %"struct.std::_Rb_tree_node_base"* %__position.coerce, %class.opp_string* dereferenceable(8) %__k) #0 comdat align 2 !dbg !4099 {
entry:
  %retval = alloca %"struct.std::pair.7", align 8
  %__position = alloca %"struct.std::_Rb_tree_const_iterator", align 8
  %this.addr = alloca %"class.std::_Rb_tree"*, align 8
  %__k.addr = alloca %class.opp_string*, align 8
  %__pos = alloca %"struct.std::_Rb_tree_iterator", align 8
  %ref.tmp = alloca %"struct.std::_Rb_tree_node_base"*, align 8
  %__before = alloca %"struct.std::_Rb_tree_iterator", align 8
  %ref.tmp37 = alloca %"struct.std::_Rb_tree_node_base"*, align 8
  %__after = alloca %"struct.std::_Rb_tree_iterator", align 8
  %ref.tmp55 = alloca %"struct.std::_Rb_tree_node_base"*, align 8
  %ref.tmp69 = alloca %"struct.std::_Rb_tree_node_base"*, align 8
  %ref.tmp78 = alloca %"struct.std::_Rb_tree_node_base"*, align 8
  %coerce.dive = getelementptr inbounds %"struct.std::_Rb_tree_const_iterator", %"struct.std::_Rb_tree_const_iterator"* %__position, i32 0, i32 0
  store %"struct.std::_Rb_tree_node_base"* %__position.coerce, %"struct.std::_Rb_tree_node_base"** %coerce.dive, align 8
  store %"class.std::_Rb_tree"* %this, %"class.std::_Rb_tree"** %this.addr, align 8
  call void @llvm.dbg.declare(metadata %"class.std::_Rb_tree"** %this.addr, metadata !4100, metadata !DIExpression()), !dbg !4101
  call void @llvm.dbg.declare(metadata %"struct.std::_Rb_tree_const_iterator"* %__position, metadata !4102, metadata !DIExpression()), !dbg !4103
  store %class.opp_string* %__k, %class.opp_string** %__k.addr, align 8
  call void @llvm.dbg.declare(metadata %class.opp_string** %__k.addr, metadata !4104, metadata !DIExpression()), !dbg !4105
  %this1 = load %"class.std::_Rb_tree"*, %"class.std::_Rb_tree"** %this.addr, align 8
  call void @llvm.dbg.declare(metadata %"struct.std::_Rb_tree_iterator"* %__pos, metadata !4106, metadata !DIExpression()), !dbg !4107
  %call = call %"struct.std::_Rb_tree_node_base"* @_ZNKSt23_Rb_tree_const_iteratorISt4pairIK10opp_stringS1_EE13_M_const_castEv(%"struct.std::_Rb_tree_const_iterator"* %__position) #3, !dbg !4108
  %coerce.dive2 = getelementptr inbounds %"struct.std::_Rb_tree_iterator", %"struct.std::_Rb_tree_iterator"* %__pos, i32 0, i32 0, !dbg !4108
  store %"struct.std::_Rb_tree_node_base"* %call, %"struct.std::_Rb_tree_node_base"** %coerce.dive2, align 8, !dbg !4108
  %_M_node = getelementptr inbounds %"struct.std::_Rb_tree_iterator", %"struct.std::_Rb_tree_iterator"* %__pos, i32 0, i32 0, !dbg !4109
  %0 = load %"struct.std::_Rb_tree_node_base"*, %"struct.std::_Rb_tree_node_base"** %_M_node, align 8, !dbg !4109
  %call3 = call %"struct.std::_Rb_tree_node_base"* @_ZNSt8_Rb_treeI10opp_stringSt4pairIKS0_S0_ESt10_Select1stIS3_ESt4lessIS0_ESaIS3_EE6_M_endEv(%"class.std::_Rb_tree"* %this1) #3, !dbg !4111
  %cmp = icmp eq %"struct.std::_Rb_tree_node_base"* %0, %call3, !dbg !4112
  br i1 %cmp, label %if.then, label %if.else12, !dbg !4113

if.then:                                          ; preds = %entry
  %call4 = call i64 @_ZNKSt8_Rb_treeI10opp_stringSt4pairIKS0_S0_ESt10_Select1stIS3_ESt4lessIS0_ESaIS3_EE4sizeEv(%"class.std::_Rb_tree"* %this1) #3, !dbg !4114
  %cmp5 = icmp ugt i64 %call4, 0, !dbg !4117
  br i1 %cmp5, label %land.lhs.true, label %if.else, !dbg !4118

land.lhs.true:                                    ; preds = %if.then
  %_M_impl = getelementptr inbounds %"class.std::_Rb_tree", %"class.std::_Rb_tree"* %this1, i32 0, i32 0, !dbg !4119
  %1 = bitcast %"struct.std::_Rb_tree<opp_string, std::pair<const opp_string, opp_string>, std::_Select1st<std::pair<const opp_string, opp_string> >, std::less<opp_string>, std::allocator<std::pair<const opp_string, opp_string> > >::_Rb_tree_impl"* %_M_impl to %"struct.std::_Rb_tree_key_compare"*, !dbg !4119
  %_M_key_compare = getelementptr inbounds %"struct.std::_Rb_tree_key_compare", %"struct.std::_Rb_tree_key_compare"* %1, i32 0, i32 0, !dbg !4120
  %call6 = call dereferenceable(8) %"struct.std::_Rb_tree_node_base"** @_ZNSt8_Rb_treeI10opp_stringSt4pairIKS0_S0_ESt10_Select1stIS3_ESt4lessIS0_ESaIS3_EE12_M_rightmostEv(%"class.std::_Rb_tree"* %this1) #3, !dbg !4121
  %2 = load %"struct.std::_Rb_tree_node_base"*, %"struct.std::_Rb_tree_node_base"** %call6, align 8, !dbg !4121
  %call7 = call dereferenceable(8) %class.opp_string* @_ZNSt8_Rb_treeI10opp_stringSt4pairIKS0_S0_ESt10_Select1stIS3_ESt4lessIS0_ESaIS3_EE6_S_keyEPKSt18_Rb_tree_node_base(%"struct.std::_Rb_tree_node_base"* %2), !dbg !4122
  %3 = load %class.opp_string*, %class.opp_string** %__k.addr, align 8, !dbg !4123
  %call8 = call zeroext i1 @_ZNKSt4lessI10opp_stringEclERKS0_S3_(%"struct.std::less"* %_M_key_compare, %class.opp_string* dereferenceable(8) %call7, %class.opp_string* dereferenceable(8) %3), !dbg !4119
  br i1 %call8, label %if.then9, label %if.else, !dbg !4124

if.then9:                                         ; preds = %land.lhs.true
  store %"struct.std::_Rb_tree_node_base"* null, %"struct.std::_Rb_tree_node_base"** %ref.tmp, align 8, !dbg !4125
  %call10 = call dereferenceable(8) %"struct.std::_Rb_tree_node_base"** @_ZNSt8_Rb_treeI10opp_stringSt4pairIKS0_S0_ESt10_Select1stIS3_ESt4lessIS0_ESaIS3_EE12_M_rightmostEv(%"class.std::_Rb_tree"* %this1) #3, !dbg !4126
  call void @_ZNSt4pairIPSt18_Rb_tree_node_baseS1_EC2IRS1_Lb1EEERKS1_OT_(%"struct.std::pair.7"* %retval, %"struct.std::_Rb_tree_node_base"** dereferenceable(8) %ref.tmp, %"struct.std::_Rb_tree_node_base"** dereferenceable(8) %call10), !dbg !4127
  br label %return, !dbg !4128

if.else:                                          ; preds = %land.lhs.true, %if.then
  %4 = load %class.opp_string*, %class.opp_string** %__k.addr, align 8, !dbg !4129
  %call11 = call { %"struct.std::_Rb_tree_node_base"*, %"struct.std::_Rb_tree_node_base"* } @_ZNSt8_Rb_treeI10opp_stringSt4pairIKS0_S0_ESt10_Select1stIS3_ESt4lessIS0_ESaIS3_EE24_M_get_insert_unique_posERS2_(%"class.std::_Rb_tree"* %this1, %class.opp_string* dereferenceable(8) %4), !dbg !4130
  %5 = bitcast %"struct.std::pair.7"* %retval to { %"struct.std::_Rb_tree_node_base"*, %"struct.std::_Rb_tree_node_base"* }*, !dbg !4130
  %6 = getelementptr inbounds { %"struct.std::_Rb_tree_node_base"*, %"struct.std::_Rb_tree_node_base"* }, { %"struct.std::_Rb_tree_node_base"*, %"struct.std::_Rb_tree_node_base"* }* %5, i32 0, i32 0, !dbg !4130
  %7 = extractvalue { %"struct.std::_Rb_tree_node_base"*, %"struct.std::_Rb_tree_node_base"* } %call11, 0, !dbg !4130
  store %"struct.std::_Rb_tree_node_base"* %7, %"struct.std::_Rb_tree_node_base"** %6, align 8, !dbg !4130
  %8 = getelementptr inbounds { %"struct.std::_Rb_tree_node_base"*, %"struct.std::_Rb_tree_node_base"* }, { %"struct.std::_Rb_tree_node_base"*, %"struct.std::_Rb_tree_node_base"* }* %5, i32 0, i32 1, !dbg !4130
  %9 = extractvalue { %"struct.std::_Rb_tree_node_base"*, %"struct.std::_Rb_tree_node_base"* } %call11, 1, !dbg !4130
  store %"struct.std::_Rb_tree_node_base"* %9, %"struct.std::_Rb_tree_node_base"** %8, align 8, !dbg !4130
  br label %return, !dbg !4131

if.else12:                                        ; preds = %entry
  %_M_impl13 = getelementptr inbounds %"class.std::_Rb_tree", %"class.std::_Rb_tree"* %this1, i32 0, i32 0, !dbg !4132
  %10 = bitcast %"struct.std::_Rb_tree<opp_string, std::pair<const opp_string, opp_string>, std::_Select1st<std::pair<const opp_string, opp_string> >, std::less<opp_string>, std::allocator<std::pair<const opp_string, opp_string> > >::_Rb_tree_impl"* %_M_impl13 to %"struct.std::_Rb_tree_key_compare"*, !dbg !4132
  %_M_key_compare14 = getelementptr inbounds %"struct.std::_Rb_tree_key_compare", %"struct.std::_Rb_tree_key_compare"* %10, i32 0, i32 0, !dbg !4134
  %11 = load %class.opp_string*, %class.opp_string** %__k.addr, align 8, !dbg !4135
  %_M_node15 = getelementptr inbounds %"struct.std::_Rb_tree_iterator", %"struct.std::_Rb_tree_iterator"* %__pos, i32 0, i32 0, !dbg !4136
  %12 = load %"struct.std::_Rb_tree_node_base"*, %"struct.std::_Rb_tree_node_base"** %_M_node15, align 8, !dbg !4136
  %call16 = call dereferenceable(8) %class.opp_string* @_ZNSt8_Rb_treeI10opp_stringSt4pairIKS0_S0_ESt10_Select1stIS3_ESt4lessIS0_ESaIS3_EE6_S_keyEPKSt18_Rb_tree_node_base(%"struct.std::_Rb_tree_node_base"* %12), !dbg !4137
  %call17 = call zeroext i1 @_ZNKSt4lessI10opp_stringEclERKS0_S3_(%"struct.std::less"* %_M_key_compare14, %class.opp_string* dereferenceable(8) %11, %class.opp_string* dereferenceable(8) %call16), !dbg !4132
  br i1 %call17, label %if.then18, label %if.else44, !dbg !4138

if.then18:                                        ; preds = %if.else12
  call void @llvm.dbg.declare(metadata %"struct.std::_Rb_tree_iterator"* %__before, metadata !4139, metadata !DIExpression()), !dbg !4141
  %13 = bitcast %"struct.std::_Rb_tree_iterator"* %__before to i8*, !dbg !4142
  %14 = bitcast %"struct.std::_Rb_tree_iterator"* %__pos to i8*, !dbg !4142
  call void @llvm.memcpy.p0i8.p0i8.i64(i8* align 8 %13, i8* align 8 %14, i64 8, i1 false), !dbg !4142
  %_M_node19 = getelementptr inbounds %"struct.std::_Rb_tree_iterator", %"struct.std::_Rb_tree_iterator"* %__pos, i32 0, i32 0, !dbg !4143
  %15 = load %"struct.std::_Rb_tree_node_base"*, %"struct.std::_Rb_tree_node_base"** %_M_node19, align 8, !dbg !4143
  %call20 = call dereferenceable(8) %"struct.std::_Rb_tree_node_base"** @_ZNSt8_Rb_treeI10opp_stringSt4pairIKS0_S0_ESt10_Select1stIS3_ESt4lessIS0_ESaIS3_EE11_M_leftmostEv(%"class.std::_Rb_tree"* %this1) #3, !dbg !4145
  %16 = load %"struct.std::_Rb_tree_node_base"*, %"struct.std::_Rb_tree_node_base"** %call20, align 8, !dbg !4145
  %cmp21 = icmp eq %"struct.std::_Rb_tree_node_base"* %15, %16, !dbg !4146
  br i1 %cmp21, label %if.then22, label %if.else25, !dbg !4147

if.then22:                                        ; preds = %if.then18
  %call23 = call dereferenceable(8) %"struct.std::_Rb_tree_node_base"** @_ZNSt8_Rb_treeI10opp_stringSt4pairIKS0_S0_ESt10_Select1stIS3_ESt4lessIS0_ESaIS3_EE11_M_leftmostEv(%"class.std::_Rb_tree"* %this1) #3, !dbg !4148
  %call24 = call dereferenceable(8) %"struct.std::_Rb_tree_node_base"** @_ZNSt8_Rb_treeI10opp_stringSt4pairIKS0_S0_ESt10_Select1stIS3_ESt4lessIS0_ESaIS3_EE11_M_leftmostEv(%"class.std::_Rb_tree"* %this1) #3, !dbg !4149
  call void @_ZNSt4pairIPSt18_Rb_tree_node_baseS1_EC2IRS1_S4_Lb1EEEOT_OT0_(%"struct.std::pair.7"* %retval, %"struct.std::_Rb_tree_node_base"** dereferenceable(8) %call23, %"struct.std::_Rb_tree_node_base"** dereferenceable(8) %call24), !dbg !4150
  br label %return, !dbg !4151

if.else25:                                        ; preds = %if.then18
  %_M_impl26 = getelementptr inbounds %"class.std::_Rb_tree", %"class.std::_Rb_tree"* %this1, i32 0, i32 0, !dbg !4152
  %17 = bitcast %"struct.std::_Rb_tree<opp_string, std::pair<const opp_string, opp_string>, std::_Select1st<std::pair<const opp_string, opp_string> >, std::less<opp_string>, std::allocator<std::pair<const opp_string, opp_string> > >::_Rb_tree_impl"* %_M_impl26 to %"struct.std::_Rb_tree_key_compare"*, !dbg !4152
  %_M_key_compare27 = getelementptr inbounds %"struct.std::_Rb_tree_key_compare", %"struct.std::_Rb_tree_key_compare"* %17, i32 0, i32 0, !dbg !4154
  %call28 = call dereferenceable(8) %"struct.std::_Rb_tree_iterator"* @_ZNSt17_Rb_tree_iteratorISt4pairIK10opp_stringS1_EEmmEv(%"struct.std::_Rb_tree_iterator"* %__before) #3, !dbg !4155
  %_M_node29 = getelementptr inbounds %"struct.std::_Rb_tree_iterator", %"struct.std::_Rb_tree_iterator"* %call28, i32 0, i32 0, !dbg !4156
  %18 = load %"struct.std::_Rb_tree_node_base"*, %"struct.std::_Rb_tree_node_base"** %_M_node29, align 8, !dbg !4156
  %call30 = call dereferenceable(8) %class.opp_string* @_ZNSt8_Rb_treeI10opp_stringSt4pairIKS0_S0_ESt10_Select1stIS3_ESt4lessIS0_ESaIS3_EE6_S_keyEPKSt18_Rb_tree_node_base(%"struct.std::_Rb_tree_node_base"* %18), !dbg !4157
  %19 = load %class.opp_string*, %class.opp_string** %__k.addr, align 8, !dbg !4158
  %call31 = call zeroext i1 @_ZNKSt4lessI10opp_stringEclERKS0_S3_(%"struct.std::less"* %_M_key_compare27, %class.opp_string* dereferenceable(8) %call30, %class.opp_string* dereferenceable(8) %19), !dbg !4152
  br i1 %call31, label %if.then32, label %if.else42, !dbg !4159

if.then32:                                        ; preds = %if.else25
  %_M_node33 = getelementptr inbounds %"struct.std::_Rb_tree_iterator", %"struct.std::_Rb_tree_iterator"* %__before, i32 0, i32 0, !dbg !4160
  %20 = load %"struct.std::_Rb_tree_node_base"*, %"struct.std::_Rb_tree_node_base"** %_M_node33, align 8, !dbg !4160
  %call34 = call %"struct.std::_Rb_tree_node"* @_ZNSt8_Rb_treeI10opp_stringSt4pairIKS0_S0_ESt10_Select1stIS3_ESt4lessIS0_ESaIS3_EE8_S_rightEPSt18_Rb_tree_node_base(%"struct.std::_Rb_tree_node_base"* %20) #3, !dbg !4163
  %cmp35 = icmp eq %"struct.std::_Rb_tree_node"* %call34, null, !dbg !4164
  br i1 %cmp35, label %if.then36, label %if.else39, !dbg !4165

if.then36:                                        ; preds = %if.then32
  store %"struct.std::_Rb_tree_node_base"* null, %"struct.std::_Rb_tree_node_base"** %ref.tmp37, align 8, !dbg !4166
  %_M_node38 = getelementptr inbounds %"struct.std::_Rb_tree_iterator", %"struct.std::_Rb_tree_iterator"* %__before, i32 0, i32 0, !dbg !4167
  call void @_ZNSt4pairIPSt18_Rb_tree_node_baseS1_EC2IRS1_Lb1EEERKS1_OT_(%"struct.std::pair.7"* %retval, %"struct.std::_Rb_tree_node_base"** dereferenceable(8) %ref.tmp37, %"struct.std::_Rb_tree_node_base"** dereferenceable(8) %_M_node38), !dbg !4168
  br label %return, !dbg !4169

if.else39:                                        ; preds = %if.then32
  %_M_node40 = getelementptr inbounds %"struct.std::_Rb_tree_iterator", %"struct.std::_Rb_tree_iterator"* %__pos, i32 0, i32 0, !dbg !4170
  %_M_node41 = getelementptr inbounds %"struct.std::_Rb_tree_iterator", %"struct.std::_Rb_tree_iterator"* %__pos, i32 0, i32 0, !dbg !4171
  call void @_ZNSt4pairIPSt18_Rb_tree_node_baseS1_EC2IRS1_S4_Lb1EEEOT_OT0_(%"struct.std::pair.7"* %retval, %"struct.std::_Rb_tree_node_base"** dereferenceable(8) %_M_node40, %"struct.std::_Rb_tree_node_base"** dereferenceable(8) %_M_node41), !dbg !4172
  br label %return, !dbg !4173

if.else42:                                        ; preds = %if.else25
  %21 = load %class.opp_string*, %class.opp_string** %__k.addr, align 8, !dbg !4174
  %call43 = call { %"struct.std::_Rb_tree_node_base"*, %"struct.std::_Rb_tree_node_base"* } @_ZNSt8_Rb_treeI10opp_stringSt4pairIKS0_S0_ESt10_Select1stIS3_ESt4lessIS0_ESaIS3_EE24_M_get_insert_unique_posERS2_(%"class.std::_Rb_tree"* %this1, %class.opp_string* dereferenceable(8) %21), !dbg !4175
  %22 = bitcast %"struct.std::pair.7"* %retval to { %"struct.std::_Rb_tree_node_base"*, %"struct.std::_Rb_tree_node_base"* }*, !dbg !4175
  %23 = getelementptr inbounds { %"struct.std::_Rb_tree_node_base"*, %"struct.std::_Rb_tree_node_base"* }, { %"struct.std::_Rb_tree_node_base"*, %"struct.std::_Rb_tree_node_base"* }* %22, i32 0, i32 0, !dbg !4175
  %24 = extractvalue { %"struct.std::_Rb_tree_node_base"*, %"struct.std::_Rb_tree_node_base"* } %call43, 0, !dbg !4175
  store %"struct.std::_Rb_tree_node_base"* %24, %"struct.std::_Rb_tree_node_base"** %23, align 8, !dbg !4175
  %25 = getelementptr inbounds { %"struct.std::_Rb_tree_node_base"*, %"struct.std::_Rb_tree_node_base"* }, { %"struct.std::_Rb_tree_node_base"*, %"struct.std::_Rb_tree_node_base"* }* %22, i32 0, i32 1, !dbg !4175
  %26 = extractvalue { %"struct.std::_Rb_tree_node_base"*, %"struct.std::_Rb_tree_node_base"* } %call43, 1, !dbg !4175
  store %"struct.std::_Rb_tree_node_base"* %26, %"struct.std::_Rb_tree_node_base"** %25, align 8, !dbg !4175
  br label %return, !dbg !4176

if.else44:                                        ; preds = %if.else12
  %_M_impl45 = getelementptr inbounds %"class.std::_Rb_tree", %"class.std::_Rb_tree"* %this1, i32 0, i32 0, !dbg !4177
  %27 = bitcast %"struct.std::_Rb_tree<opp_string, std::pair<const opp_string, opp_string>, std::_Select1st<std::pair<const opp_string, opp_string> >, std::less<opp_string>, std::allocator<std::pair<const opp_string, opp_string> > >::_Rb_tree_impl"* %_M_impl45 to %"struct.std::_Rb_tree_key_compare"*, !dbg !4177
  %_M_key_compare46 = getelementptr inbounds %"struct.std::_Rb_tree_key_compare", %"struct.std::_Rb_tree_key_compare"* %27, i32 0, i32 0, !dbg !4179
  %_M_node47 = getelementptr inbounds %"struct.std::_Rb_tree_iterator", %"struct.std::_Rb_tree_iterator"* %__pos, i32 0, i32 0, !dbg !4180
  %28 = load %"struct.std::_Rb_tree_node_base"*, %"struct.std::_Rb_tree_node_base"** %_M_node47, align 8, !dbg !4180
  %call48 = call dereferenceable(8) %class.opp_string* @_ZNSt8_Rb_treeI10opp_stringSt4pairIKS0_S0_ESt10_Select1stIS3_ESt4lessIS0_ESaIS3_EE6_S_keyEPKSt18_Rb_tree_node_base(%"struct.std::_Rb_tree_node_base"* %28), !dbg !4181
  %29 = load %class.opp_string*, %class.opp_string** %__k.addr, align 8, !dbg !4182
  %call49 = call zeroext i1 @_ZNKSt4lessI10opp_stringEclERKS0_S3_(%"struct.std::less"* %_M_key_compare46, %class.opp_string* dereferenceable(8) %call48, %class.opp_string* dereferenceable(8) %29), !dbg !4177
  br i1 %call49, label %if.then50, label %if.else76, !dbg !4183

if.then50:                                        ; preds = %if.else44
  call void @llvm.dbg.declare(metadata %"struct.std::_Rb_tree_iterator"* %__after, metadata !4184, metadata !DIExpression()), !dbg !4186
  %30 = bitcast %"struct.std::_Rb_tree_iterator"* %__after to i8*, !dbg !4187
  %31 = bitcast %"struct.std::_Rb_tree_iterator"* %__pos to i8*, !dbg !4187
  call void @llvm.memcpy.p0i8.p0i8.i64(i8* align 8 %30, i8* align 8 %31, i64 8, i1 false), !dbg !4187
  %_M_node51 = getelementptr inbounds %"struct.std::_Rb_tree_iterator", %"struct.std::_Rb_tree_iterator"* %__pos, i32 0, i32 0, !dbg !4188
  %32 = load %"struct.std::_Rb_tree_node_base"*, %"struct.std::_Rb_tree_node_base"** %_M_node51, align 8, !dbg !4188
  %call52 = call dereferenceable(8) %"struct.std::_Rb_tree_node_base"** @_ZNSt8_Rb_treeI10opp_stringSt4pairIKS0_S0_ESt10_Select1stIS3_ESt4lessIS0_ESaIS3_EE12_M_rightmostEv(%"class.std::_Rb_tree"* %this1) #3, !dbg !4190
  %33 = load %"struct.std::_Rb_tree_node_base"*, %"struct.std::_Rb_tree_node_base"** %call52, align 8, !dbg !4190
  %cmp53 = icmp eq %"struct.std::_Rb_tree_node_base"* %32, %33, !dbg !4191
  br i1 %cmp53, label %if.then54, label %if.else57, !dbg !4192

if.then54:                                        ; preds = %if.then50
  store %"struct.std::_Rb_tree_node_base"* null, %"struct.std::_Rb_tree_node_base"** %ref.tmp55, align 8, !dbg !4193
  %call56 = call dereferenceable(8) %"struct.std::_Rb_tree_node_base"** @_ZNSt8_Rb_treeI10opp_stringSt4pairIKS0_S0_ESt10_Select1stIS3_ESt4lessIS0_ESaIS3_EE12_M_rightmostEv(%"class.std::_Rb_tree"* %this1) #3, !dbg !4194
  call void @_ZNSt4pairIPSt18_Rb_tree_node_baseS1_EC2IRS1_Lb1EEERKS1_OT_(%"struct.std::pair.7"* %retval, %"struct.std::_Rb_tree_node_base"** dereferenceable(8) %ref.tmp55, %"struct.std::_Rb_tree_node_base"** dereferenceable(8) %call56), !dbg !4195
  br label %return, !dbg !4196

if.else57:                                        ; preds = %if.then50
  %_M_impl58 = getelementptr inbounds %"class.std::_Rb_tree", %"class.std::_Rb_tree"* %this1, i32 0, i32 0, !dbg !4197
  %34 = bitcast %"struct.std::_Rb_tree<opp_string, std::pair<const opp_string, opp_string>, std::_Select1st<std::pair<const opp_string, opp_string> >, std::less<opp_string>, std::allocator<std::pair<const opp_string, opp_string> > >::_Rb_tree_impl"* %_M_impl58 to %"struct.std::_Rb_tree_key_compare"*, !dbg !4197
  %_M_key_compare59 = getelementptr inbounds %"struct.std::_Rb_tree_key_compare", %"struct.std::_Rb_tree_key_compare"* %34, i32 0, i32 0, !dbg !4199
  %35 = load %class.opp_string*, %class.opp_string** %__k.addr, align 8, !dbg !4200
  %call60 = call dereferenceable(8) %"struct.std::_Rb_tree_iterator"* @_ZNSt17_Rb_tree_iteratorISt4pairIK10opp_stringS1_EEppEv(%"struct.std::_Rb_tree_iterator"* %__after) #3, !dbg !4201
  %_M_node61 = getelementptr inbounds %"struct.std::_Rb_tree_iterator", %"struct.std::_Rb_tree_iterator"* %call60, i32 0, i32 0, !dbg !4202
  %36 = load %"struct.std::_Rb_tree_node_base"*, %"struct.std::_Rb_tree_node_base"** %_M_node61, align 8, !dbg !4202
  %call62 = call dereferenceable(8) %class.opp_string* @_ZNSt8_Rb_treeI10opp_stringSt4pairIKS0_S0_ESt10_Select1stIS3_ESt4lessIS0_ESaIS3_EE6_S_keyEPKSt18_Rb_tree_node_base(%"struct.std::_Rb_tree_node_base"* %36), !dbg !4203
  %call63 = call zeroext i1 @_ZNKSt4lessI10opp_stringEclERKS0_S3_(%"struct.std::less"* %_M_key_compare59, %class.opp_string* dereferenceable(8) %35, %class.opp_string* dereferenceable(8) %call62), !dbg !4197
  br i1 %call63, label %if.then64, label %if.else74, !dbg !4204

if.then64:                                        ; preds = %if.else57
  %_M_node65 = getelementptr inbounds %"struct.std::_Rb_tree_iterator", %"struct.std::_Rb_tree_iterator"* %__pos, i32 0, i32 0, !dbg !4205
  %37 = load %"struct.std::_Rb_tree_node_base"*, %"struct.std::_Rb_tree_node_base"** %_M_node65, align 8, !dbg !4205
  %call66 = call %"struct.std::_Rb_tree_node"* @_ZNSt8_Rb_treeI10opp_stringSt4pairIKS0_S0_ESt10_Select1stIS3_ESt4lessIS0_ESaIS3_EE8_S_rightEPSt18_Rb_tree_node_base(%"struct.std::_Rb_tree_node_base"* %37) #3, !dbg !4208
  %cmp67 = icmp eq %"struct.std::_Rb_tree_node"* %call66, null, !dbg !4209
  br i1 %cmp67, label %if.then68, label %if.else71, !dbg !4210

if.then68:                                        ; preds = %if.then64
  store %"struct.std::_Rb_tree_node_base"* null, %"struct.std::_Rb_tree_node_base"** %ref.tmp69, align 8, !dbg !4211
  %_M_node70 = getelementptr inbounds %"struct.std::_Rb_tree_iterator", %"struct.std::_Rb_tree_iterator"* %__pos, i32 0, i32 0, !dbg !4212
  call void @_ZNSt4pairIPSt18_Rb_tree_node_baseS1_EC2IRS1_Lb1EEERKS1_OT_(%"struct.std::pair.7"* %retval, %"struct.std::_Rb_tree_node_base"** dereferenceable(8) %ref.tmp69, %"struct.std::_Rb_tree_node_base"** dereferenceable(8) %_M_node70), !dbg !4213
  br label %return, !dbg !4214

if.else71:                                        ; preds = %if.then64
  %_M_node72 = getelementptr inbounds %"struct.std::_Rb_tree_iterator", %"struct.std::_Rb_tree_iterator"* %__after, i32 0, i32 0, !dbg !4215
  %_M_node73 = getelementptr inbounds %"struct.std::_Rb_tree_iterator", %"struct.std::_Rb_tree_iterator"* %__after, i32 0, i32 0, !dbg !4216
  call void @_ZNSt4pairIPSt18_Rb_tree_node_baseS1_EC2IRS1_S4_Lb1EEEOT_OT0_(%"struct.std::pair.7"* %retval, %"struct.std::_Rb_tree_node_base"** dereferenceable(8) %_M_node72, %"struct.std::_Rb_tree_node_base"** dereferenceable(8) %_M_node73), !dbg !4217
  br label %return, !dbg !4218

if.else74:                                        ; preds = %if.else57
  %38 = load %class.opp_string*, %class.opp_string** %__k.addr, align 8, !dbg !4219
  %call75 = call { %"struct.std::_Rb_tree_node_base"*, %"struct.std::_Rb_tree_node_base"* } @_ZNSt8_Rb_treeI10opp_stringSt4pairIKS0_S0_ESt10_Select1stIS3_ESt4lessIS0_ESaIS3_EE24_M_get_insert_unique_posERS2_(%"class.std::_Rb_tree"* %this1, %class.opp_string* dereferenceable(8) %38), !dbg !4220
  %39 = bitcast %"struct.std::pair.7"* %retval to { %"struct.std::_Rb_tree_node_base"*, %"struct.std::_Rb_tree_node_base"* }*, !dbg !4220
  %40 = getelementptr inbounds { %"struct.std::_Rb_tree_node_base"*, %"struct.std::_Rb_tree_node_base"* }, { %"struct.std::_Rb_tree_node_base"*, %"struct.std::_Rb_tree_node_base"* }* %39, i32 0, i32 0, !dbg !4220
  %41 = extractvalue { %"struct.std::_Rb_tree_node_base"*, %"struct.std::_Rb_tree_node_base"* } %call75, 0, !dbg !4220
  store %"struct.std::_Rb_tree_node_base"* %41, %"struct.std::_Rb_tree_node_base"** %40, align 8, !dbg !4220
  %42 = getelementptr inbounds { %"struct.std::_Rb_tree_node_base"*, %"struct.std::_Rb_tree_node_base"* }, { %"struct.std::_Rb_tree_node_base"*, %"struct.std::_Rb_tree_node_base"* }* %39, i32 0, i32 1, !dbg !4220
  %43 = extractvalue { %"struct.std::_Rb_tree_node_base"*, %"struct.std::_Rb_tree_node_base"* } %call75, 1, !dbg !4220
  store %"struct.std::_Rb_tree_node_base"* %43, %"struct.std::_Rb_tree_node_base"** %42, align 8, !dbg !4220
  br label %return, !dbg !4221

if.else76:                                        ; preds = %if.else44
  %_M_node77 = getelementptr inbounds %"struct.std::_Rb_tree_iterator", %"struct.std::_Rb_tree_iterator"* %__pos, i32 0, i32 0, !dbg !4222
  store %"struct.std::_Rb_tree_node_base"* null, %"struct.std::_Rb_tree_node_base"** %ref.tmp78, align 8, !dbg !4223
  call void @_ZNSt4pairIPSt18_Rb_tree_node_baseS1_EC2IRS1_Lb1EEEOT_RKS1_(%"struct.std::pair.7"* %retval, %"struct.std::_Rb_tree_node_base"** dereferenceable(8) %_M_node77, %"struct.std::_Rb_tree_node_base"** dereferenceable(8) %ref.tmp78), !dbg !4224
  br label %return, !dbg !4225

return:                                           ; preds = %if.else76, %if.else74, %if.else71, %if.then68, %if.then54, %if.else42, %if.else39, %if.then36, %if.then22, %if.else, %if.then9
  %44 = bitcast %"struct.std::pair.7"* %retval to { %"struct.std::_Rb_tree_node_base"*, %"struct.std::_Rb_tree_node_base"* }*, !dbg !4226
  %45 = load { %"struct.std::_Rb_tree_node_base"*, %"struct.std::_Rb_tree_node_base"* }, { %"struct.std::_Rb_tree_node_base"*, %"struct.std::_Rb_tree_node_base"* }* %44, align 8, !dbg !4226
  ret { %"struct.std::_Rb_tree_node_base"*, %"struct.std::_Rb_tree_node_base"* } %45, !dbg !4226
}

; Function Attrs: noinline uwtable
define linkonce_odr dso_local %"struct.std::_Rb_tree_node_base"* @_ZNSt8_Rb_treeI10opp_stringSt4pairIKS0_S0_ESt10_Select1stIS3_ESt4lessIS0_ESaIS3_EE14_M_insert_nodeEPSt18_Rb_tree_node_baseSB_PSt13_Rb_tree_nodeIS3_E(%"class.std::_Rb_tree"* %this, %"struct.std::_Rb_tree_node_base"* %__x, %"struct.std::_Rb_tree_node_base"* %__p, %"struct.std::_Rb_tree_node"* %__z) #0 comdat align 2 !dbg !4227 {
entry:
  %retval = alloca %"struct.std::_Rb_tree_iterator", align 8
  %this.addr = alloca %"class.std::_Rb_tree"*, align 8
  %__x.addr = alloca %"struct.std::_Rb_tree_node_base"*, align 8
  %__p.addr = alloca %"struct.std::_Rb_tree_node_base"*, align 8
  %__z.addr = alloca %"struct.std::_Rb_tree_node"*, align 8
  %__insert_left = alloca i8, align 1
  store %"class.std::_Rb_tree"* %this, %"class.std::_Rb_tree"** %this.addr, align 8
  call void @llvm.dbg.declare(metadata %"class.std::_Rb_tree"** %this.addr, metadata !4228, metadata !DIExpression()), !dbg !4229
  store %"struct.std::_Rb_tree_node_base"* %__x, %"struct.std::_Rb_tree_node_base"** %__x.addr, align 8
  call void @llvm.dbg.declare(metadata %"struct.std::_Rb_tree_node_base"** %__x.addr, metadata !4230, metadata !DIExpression()), !dbg !4231
  store %"struct.std::_Rb_tree_node_base"* %__p, %"struct.std::_Rb_tree_node_base"** %__p.addr, align 8
  call void @llvm.dbg.declare(metadata %"struct.std::_Rb_tree_node_base"** %__p.addr, metadata !4232, metadata !DIExpression()), !dbg !4233
  store %"struct.std::_Rb_tree_node"* %__z, %"struct.std::_Rb_tree_node"** %__z.addr, align 8
  call void @llvm.dbg.declare(metadata %"struct.std::_Rb_tree_node"** %__z.addr, metadata !4234, metadata !DIExpression()), !dbg !4235
  %this1 = load %"class.std::_Rb_tree"*, %"class.std::_Rb_tree"** %this.addr, align 8
  call void @llvm.dbg.declare(metadata i8* %__insert_left, metadata !4236, metadata !DIExpression()), !dbg !4237
  %0 = load %"struct.std::_Rb_tree_node_base"*, %"struct.std::_Rb_tree_node_base"** %__x.addr, align 8, !dbg !4238
  %cmp = icmp ne %"struct.std::_Rb_tree_node_base"* %0, null, !dbg !4239
  br i1 %cmp, label %lor.end, label %lor.lhs.false, !dbg !4240

lor.lhs.false:                                    ; preds = %entry
  %1 = load %"struct.std::_Rb_tree_node_base"*, %"struct.std::_Rb_tree_node_base"** %__p.addr, align 8, !dbg !4241
  %call = call %"struct.std::_Rb_tree_node_base"* @_ZNSt8_Rb_treeI10opp_stringSt4pairIKS0_S0_ESt10_Select1stIS3_ESt4lessIS0_ESaIS3_EE6_M_endEv(%"class.std::_Rb_tree"* %this1) #3, !dbg !4242
  %cmp2 = icmp eq %"struct.std::_Rb_tree_node_base"* %1, %call, !dbg !4243
  br i1 %cmp2, label %lor.end, label %lor.rhs, !dbg !4244

lor.rhs:                                          ; preds = %lor.lhs.false
  %_M_impl = getelementptr inbounds %"class.std::_Rb_tree", %"class.std::_Rb_tree"* %this1, i32 0, i32 0, !dbg !4245
  %2 = bitcast %"struct.std::_Rb_tree<opp_string, std::pair<const opp_string, opp_string>, std::_Select1st<std::pair<const opp_string, opp_string> >, std::less<opp_string>, std::allocator<std::pair<const opp_string, opp_string> > >::_Rb_tree_impl"* %_M_impl to %"struct.std::_Rb_tree_key_compare"*, !dbg !4245
  %_M_key_compare = getelementptr inbounds %"struct.std::_Rb_tree_key_compare", %"struct.std::_Rb_tree_key_compare"* %2, i32 0, i32 0, !dbg !4246
  %3 = load %"struct.std::_Rb_tree_node"*, %"struct.std::_Rb_tree_node"** %__z.addr, align 8, !dbg !4247
  %call3 = call dereferenceable(8) %class.opp_string* @_ZNSt8_Rb_treeI10opp_stringSt4pairIKS0_S0_ESt10_Select1stIS3_ESt4lessIS0_ESaIS3_EE6_S_keyEPKSt13_Rb_tree_nodeIS3_E(%"struct.std::_Rb_tree_node"* %3), !dbg !4248
  %4 = load %"struct.std::_Rb_tree_node_base"*, %"struct.std::_Rb_tree_node_base"** %__p.addr, align 8, !dbg !4249
  %call4 = call dereferenceable(8) %class.opp_string* @_ZNSt8_Rb_treeI10opp_stringSt4pairIKS0_S0_ESt10_Select1stIS3_ESt4lessIS0_ESaIS3_EE6_S_keyEPKSt18_Rb_tree_node_base(%"struct.std::_Rb_tree_node_base"* %4), !dbg !4250
  %call5 = call zeroext i1 @_ZNKSt4lessI10opp_stringEclERKS0_S3_(%"struct.std::less"* %_M_key_compare, %class.opp_string* dereferenceable(8) %call3, %class.opp_string* dereferenceable(8) %call4), !dbg !4245
  br label %lor.end, !dbg !4244

lor.end:                                          ; preds = %lor.rhs, %lor.lhs.false, %entry
  %5 = phi i1 [ true, %lor.lhs.false ], [ true, %entry ], [ %call5, %lor.rhs ]
  %frombool = zext i1 %5 to i8, !dbg !4237
  store i8 %frombool, i8* %__insert_left, align 1, !dbg !4237
  %6 = load i8, i8* %__insert_left, align 1, !dbg !4251
  %tobool = trunc i8 %6 to i1, !dbg !4251
  %7 = load %"struct.std::_Rb_tree_node"*, %"struct.std::_Rb_tree_node"** %__z.addr, align 8, !dbg !4252
  %8 = bitcast %"struct.std::_Rb_tree_node"* %7 to %"struct.std::_Rb_tree_node_base"*, !dbg !4252
  %9 = load %"struct.std::_Rb_tree_node_base"*, %"struct.std::_Rb_tree_node_base"** %__p.addr, align 8, !dbg !4253
  %_M_impl6 = getelementptr inbounds %"class.std::_Rb_tree", %"class.std::_Rb_tree"* %this1, i32 0, i32 0, !dbg !4254
  %10 = bitcast %"struct.std::_Rb_tree<opp_string, std::pair<const opp_string, opp_string>, std::_Select1st<std::pair<const opp_string, opp_string> >, std::less<opp_string>, std::allocator<std::pair<const opp_string, opp_string> > >::_Rb_tree_impl"* %_M_impl6 to i8*, !dbg !4255
  %add.ptr = getelementptr inbounds i8, i8* %10, i64 8, !dbg !4255
  %11 = bitcast i8* %add.ptr to %"struct.std::_Rb_tree_header"*, !dbg !4255
  %_M_header = getelementptr inbounds %"struct.std::_Rb_tree_header", %"struct.std::_Rb_tree_header"* %11, i32 0, i32 0, !dbg !4256
  call void @_ZSt29_Rb_tree_insert_and_rebalancebPSt18_Rb_tree_node_baseS0_RS_(i1 zeroext %tobool, %"struct.std::_Rb_tree_node_base"* %8, %"struct.std::_Rb_tree_node_base"* %9, %"struct.std::_Rb_tree_node_base"* dereferenceable(32) %_M_header) #3, !dbg !4257
  %_M_impl7 = getelementptr inbounds %"class.std::_Rb_tree", %"class.std::_Rb_tree"* %this1, i32 0, i32 0, !dbg !4258
  %12 = bitcast %"struct.std::_Rb_tree<opp_string, std::pair<const opp_string, opp_string>, std::_Select1st<std::pair<const opp_string, opp_string> >, std::less<opp_string>, std::allocator<std::pair<const opp_string, opp_string> > >::_Rb_tree_impl"* %_M_impl7 to i8*, !dbg !4258
  %add.ptr8 = getelementptr inbounds i8, i8* %12, i64 8, !dbg !4258
  %13 = bitcast i8* %add.ptr8 to %"struct.std::_Rb_tree_header"*, !dbg !4258
  %_M_node_count = getelementptr inbounds %"struct.std::_Rb_tree_header", %"struct.std::_Rb_tree_header"* %13, i32 0, i32 1, !dbg !4259
  %14 = load i64, i64* %_M_node_count, align 8, !dbg !4260
  %inc = add i64 %14, 1, !dbg !4260
  store i64 %inc, i64* %_M_node_count, align 8, !dbg !4260
  %15 = load %"struct.std::_Rb_tree_node"*, %"struct.std::_Rb_tree_node"** %__z.addr, align 8, !dbg !4261
  %16 = bitcast %"struct.std::_Rb_tree_node"* %15 to %"struct.std::_Rb_tree_node_base"*, !dbg !4261
  call void @_ZNSt17_Rb_tree_iteratorISt4pairIK10opp_stringS1_EEC2EPSt18_Rb_tree_node_base(%"struct.std::_Rb_tree_iterator"* %retval, %"struct.std::_Rb_tree_node_base"* %16) #3, !dbg !4262
  %coerce.dive = getelementptr inbounds %"struct.std::_Rb_tree_iterator", %"struct.std::_Rb_tree_iterator"* %retval, i32 0, i32 0, !dbg !4263
  %17 = load %"struct.std::_Rb_tree_node_base"*, %"struct.std::_Rb_tree_node_base"** %coerce.dive, align 8, !dbg !4263
  ret %"struct.std::_Rb_tree_node_base"* %17, !dbg !4263
}

; Function Attrs: noinline nounwind uwtable
define linkonce_odr dso_local void @_ZNSt8_Rb_treeI10opp_stringSt4pairIKS0_S0_ESt10_Select1stIS3_ESt4lessIS0_ESaIS3_EE12_M_drop_nodeEPSt13_Rb_tree_nodeIS3_E(%"class.std::_Rb_tree"* %this, %"struct.std::_Rb_tree_node"* %__p) #5 comdat align 2 !dbg !4264 {
entry:
  %this.addr = alloca %"class.std::_Rb_tree"*, align 8
  %__p.addr = alloca %"struct.std::_Rb_tree_node"*, align 8
  store %"class.std::_Rb_tree"* %this, %"class.std::_Rb_tree"** %this.addr, align 8
  call void @llvm.dbg.declare(metadata %"class.std::_Rb_tree"** %this.addr, metadata !4265, metadata !DIExpression()), !dbg !4266
  store %"struct.std::_Rb_tree_node"* %__p, %"struct.std::_Rb_tree_node"** %__p.addr, align 8
  call void @llvm.dbg.declare(metadata %"struct.std::_Rb_tree_node"** %__p.addr, metadata !4267, metadata !DIExpression()), !dbg !4268
  %this1 = load %"class.std::_Rb_tree"*, %"class.std::_Rb_tree"** %this.addr, align 8
  %0 = load %"struct.std::_Rb_tree_node"*, %"struct.std::_Rb_tree_node"** %__p.addr, align 8, !dbg !4269
  call void @_ZNSt8_Rb_treeI10opp_stringSt4pairIKS0_S0_ESt10_Select1stIS3_ESt4lessIS0_ESaIS3_EE15_M_destroy_nodeEPSt13_Rb_tree_nodeIS3_E(%"class.std::_Rb_tree"* %this1, %"struct.std::_Rb_tree_node"* %0) #3, !dbg !4270
  %1 = load %"struct.std::_Rb_tree_node"*, %"struct.std::_Rb_tree_node"** %__p.addr, align 8, !dbg !4271
  call void @_ZNSt8_Rb_treeI10opp_stringSt4pairIKS0_S0_ESt10_Select1stIS3_ESt4lessIS0_ESaIS3_EE11_M_put_nodeEPSt13_Rb_tree_nodeIS3_E(%"class.std::_Rb_tree"* %this1, %"struct.std::_Rb_tree_node"* %1) #3, !dbg !4272
  ret void, !dbg !4273
}

declare dso_local void @__cxa_rethrow()

declare dso_local void @__cxa_end_catch()

; Function Attrs: cold noreturn nounwind
declare void @llvm.trap() #11

; Function Attrs: noinline uwtable
define linkonce_odr dso_local %"struct.std::_Rb_tree_node"* @_ZNSt8_Rb_treeI10opp_stringSt4pairIKS0_S0_ESt10_Select1stIS3_ESt4lessIS0_ESaIS3_EE11_M_get_nodeEv(%"class.std::_Rb_tree"* %this) #0 comdat align 2 !dbg !4274 {
entry:
  %this.addr = alloca %"class.std::_Rb_tree"*, align 8
  store %"class.std::_Rb_tree"* %this, %"class.std::_Rb_tree"** %this.addr, align 8
  call void @llvm.dbg.declare(metadata %"class.std::_Rb_tree"** %this.addr, metadata !4275, metadata !DIExpression()), !dbg !4276
  %this1 = load %"class.std::_Rb_tree"*, %"class.std::_Rb_tree"** %this.addr, align 8
  %call = call dereferenceable(1) %"class.std::allocator"* @_ZNSt8_Rb_treeI10opp_stringSt4pairIKS0_S0_ESt10_Select1stIS3_ESt4lessIS0_ESaIS3_EE21_M_get_Node_allocatorEv(%"class.std::_Rb_tree"* %this1) #3, !dbg !4277
  %call2 = call %"struct.std::_Rb_tree_node"* @_ZNSt16allocator_traitsISaISt13_Rb_tree_nodeISt4pairIK10opp_stringS2_EEEE8allocateERS6_m(%"class.std::allocator"* dereferenceable(1) %call, i64 1), !dbg !4278
  ret %"struct.std::_Rb_tree_node"* %call2, !dbg !4279
}

; Function Attrs: noinline uwtable
define linkonce_odr dso_local void @_ZNSt8_Rb_treeI10opp_stringSt4pairIKS0_S0_ESt10_Select1stIS3_ESt4lessIS0_ESaIS3_EE17_M_construct_nodeIJRKSt21piecewise_construct_tSt5tupleIJOS0_EESE_IJEEEEEvPSt13_Rb_tree_nodeIS3_EDpOT_(%"class.std::_Rb_tree"* %this, %"struct.std::_Rb_tree_node"* %__node, %"struct.std::piecewise_construct_t"* dereferenceable(1) %__args, %"class.std::tuple"* dereferenceable(8) %__args1, %"class.std::tuple.6"* dereferenceable(1) %__args3) #0 comdat align 2 personality i8* bitcast (i32 (...)* @__gxx_personality_v0 to i8*) !dbg !4280 {
entry:
  %this.addr = alloca %"class.std::_Rb_tree"*, align 8
  %__node.addr = alloca %"struct.std::_Rb_tree_node"*, align 8
  %__args.addr = alloca %"struct.std::piecewise_construct_t"*, align 8
  %__args.addr2 = alloca %"class.std::tuple"*, align 8
  %__args.addr4 = alloca %"class.std::tuple.6"*, align 8
  %exn.slot = alloca i8*
  %ehselector.slot = alloca i32
  store %"class.std::_Rb_tree"* %this, %"class.std::_Rb_tree"** %this.addr, align 8
  call void @llvm.dbg.declare(metadata %"class.std::_Rb_tree"** %this.addr, metadata !4284, metadata !DIExpression()), !dbg !4285
  store %"struct.std::_Rb_tree_node"* %__node, %"struct.std::_Rb_tree_node"** %__node.addr, align 8
  call void @llvm.dbg.declare(metadata %"struct.std::_Rb_tree_node"** %__node.addr, metadata !4286, metadata !DIExpression()), !dbg !4287
  store %"struct.std::piecewise_construct_t"* %__args, %"struct.std::piecewise_construct_t"** %__args.addr, align 8
  call void @llvm.dbg.declare(metadata %"struct.std::piecewise_construct_t"** %__args.addr, metadata !4288, metadata !DIExpression()), !dbg !4289
  store %"class.std::tuple"* %__args1, %"class.std::tuple"** %__args.addr2, align 8
  call void @llvm.dbg.declare(metadata %"class.std::tuple"** %__args.addr2, metadata !4290, metadata !DIExpression()), !dbg !4289
  store %"class.std::tuple.6"* %__args3, %"class.std::tuple.6"** %__args.addr4, align 8
  call void @llvm.dbg.declare(metadata %"class.std::tuple.6"** %__args.addr4, metadata !4291, metadata !DIExpression()), !dbg !4289
  %this5 = load %"class.std::_Rb_tree"*, %"class.std::_Rb_tree"** %this.addr, align 8
  %0 = load %"struct.std::_Rb_tree_node"*, %"struct.std::_Rb_tree_node"** %__node.addr, align 8, !dbg !4292
  %1 = bitcast %"struct.std::_Rb_tree_node"* %0 to i8*, !dbg !4294
  %2 = bitcast i8* %1 to %"struct.std::_Rb_tree_node"*, !dbg !4294
  %call = call dereferenceable(1) %"class.std::allocator"* @_ZNSt8_Rb_treeI10opp_stringSt4pairIKS0_S0_ESt10_Select1stIS3_ESt4lessIS0_ESaIS3_EE21_M_get_Node_allocatorEv(%"class.std::_Rb_tree"* %this5) #3, !dbg !4295
  %3 = load %"struct.std::_Rb_tree_node"*, %"struct.std::_Rb_tree_node"** %__node.addr, align 8, !dbg !4296
  %call6 = invoke %"struct.std::pair"* @_ZNSt13_Rb_tree_nodeISt4pairIK10opp_stringS1_EE9_M_valptrEv(%"struct.std::_Rb_tree_node"* %3)
          to label %invoke.cont unwind label %lpad, !dbg !4297

invoke.cont:                                      ; preds = %entry
  %4 = load %"struct.std::piecewise_construct_t"*, %"struct.std::piecewise_construct_t"** %__args.addr, align 8, !dbg !4298
  %call7 = call dereferenceable(1) %"struct.std::piecewise_construct_t"* @_ZSt7forwardIRKSt21piecewise_construct_tEOT_RNSt16remove_referenceIS3_E4typeE(%"struct.std::piecewise_construct_t"* dereferenceable(1) %4) #3, !dbg !4299
  %5 = load %"class.std::tuple"*, %"class.std::tuple"** %__args.addr2, align 8, !dbg !4298
  %call8 = call dereferenceable(8) %"class.std::tuple"* @_ZSt7forwardISt5tupleIJO10opp_stringEEEOT_RNSt16remove_referenceIS4_E4typeE(%"class.std::tuple"* dereferenceable(8) %5) #3, !dbg !4299
  %6 = load %"class.std::tuple.6"*, %"class.std::tuple.6"** %__args.addr4, align 8, !dbg !4298
  %call9 = call dereferenceable(1) %"class.std::tuple.6"* @_ZSt7forwardISt5tupleIJEEEOT_RNSt16remove_referenceIS2_E4typeE(%"class.std::tuple.6"* dereferenceable(1) %6) #3, !dbg !4299
  invoke void @_ZNSt16allocator_traitsISaISt13_Rb_tree_nodeISt4pairIK10opp_stringS2_EEEE9constructIS4_JRKSt21piecewise_construct_tSt5tupleIJOS2_EESC_IJEEEEEvRS6_PT_DpOT0_(%"class.std::allocator"* dereferenceable(1) %call, %"struct.std::pair"* %call6, %"struct.std::piecewise_construct_t"* dereferenceable(1) %call7, %"class.std::tuple"* dereferenceable(8) %call8, %"class.std::tuple.6"* dereferenceable(1) %call9)
          to label %invoke.cont10 unwind label %lpad, !dbg !4300

invoke.cont10:                                    ; preds = %invoke.cont
  br label %try.cont, !dbg !4301

lpad:                                             ; preds = %invoke.cont, %entry
  %7 = landingpad { i8*, i32 }
          catch i8* null, !dbg !4302
  %8 = extractvalue { i8*, i32 } %7, 0, !dbg !4302
  store i8* %8, i8** %exn.slot, align 8, !dbg !4302
  %9 = extractvalue { i8*, i32 } %7, 1, !dbg !4302
  store i32 %9, i32* %ehselector.slot, align 4, !dbg !4302
  br label %catch, !dbg !4302

catch:                                            ; preds = %lpad
  %exn = load i8*, i8** %exn.slot, align 8, !dbg !4301
  %10 = call i8* @__cxa_begin_catch(i8* %exn) #3, !dbg !4301
  %11 = load %"struct.std::_Rb_tree_node"*, %"struct.std::_Rb_tree_node"** %__node.addr, align 8, !dbg !4303
  %12 = load %"struct.std::_Rb_tree_node"*, %"struct.std::_Rb_tree_node"** %__node.addr, align 8, !dbg !4305
  call void @_ZNSt8_Rb_treeI10opp_stringSt4pairIKS0_S0_ESt10_Select1stIS3_ESt4lessIS0_ESaIS3_EE11_M_put_nodeEPSt13_Rb_tree_nodeIS3_E(%"class.std::_Rb_tree"* %this5, %"struct.std::_Rb_tree_node"* %12) #3, !dbg !4306
  invoke void @__cxa_rethrow() #16
          to label %unreachable unwind label %lpad11, !dbg !4307

lpad11:                                           ; preds = %catch
  %13 = landingpad { i8*, i32 }
          cleanup, !dbg !4308
  %14 = extractvalue { i8*, i32 } %13, 0, !dbg !4308
  store i8* %14, i8** %exn.slot, align 8, !dbg !4308
  %15 = extractvalue { i8*, i32 } %13, 1, !dbg !4308
  store i32 %15, i32* %ehselector.slot, align 4, !dbg !4308
  invoke void @__cxa_end_catch()
          to label %invoke.cont12 unwind label %terminate.lpad, !dbg !4309

invoke.cont12:                                    ; preds = %lpad11
  br label %eh.resume, !dbg !4309

try.cont:                                         ; preds = %invoke.cont10
  ret void, !dbg !4310

eh.resume:                                        ; preds = %invoke.cont12
  %exn13 = load i8*, i8** %exn.slot, align 8, !dbg !4309
  %sel = load i32, i32* %ehselector.slot, align 4, !dbg !4309
  %lpad.val = insertvalue { i8*, i32 } undef, i8* %exn13, 0, !dbg !4309
  %lpad.val14 = insertvalue { i8*, i32 } %lpad.val, i32 %sel, 1, !dbg !4309
  resume { i8*, i32 } %lpad.val14, !dbg !4309

terminate.lpad:                                   ; preds = %lpad11
  %16 = landingpad { i8*, i32 }
          catch i8* null, !dbg !4309
  %17 = extractvalue { i8*, i32 } %16, 0, !dbg !4309
  call void @__clang_call_terminate(i8* %17) #15, !dbg !4309
  unreachable, !dbg !4309

unreachable:                                      ; preds = %catch
  unreachable
}

; Function Attrs: noinline uwtable
define linkonce_odr dso_local %"struct.std::_Rb_tree_node"* @_ZNSt16allocator_traitsISaISt13_Rb_tree_nodeISt4pairIK10opp_stringS2_EEEE8allocateERS6_m(%"class.std::allocator"* dereferenceable(1) %__a, i64 %__n) #0 comdat align 2 !dbg !4311 {
entry:
  %__a.addr = alloca %"class.std::allocator"*, align 8
  %__n.addr = alloca i64, align 8
  store %"class.std::allocator"* %__a, %"class.std::allocator"** %__a.addr, align 8
  call void @llvm.dbg.declare(metadata %"class.std::allocator"** %__a.addr, metadata !4337, metadata !DIExpression()), !dbg !4338
  store i64 %__n, i64* %__n.addr, align 8
  call void @llvm.dbg.declare(metadata i64* %__n.addr, metadata !4339, metadata !DIExpression()), !dbg !4340
  %0 = load %"class.std::allocator"*, %"class.std::allocator"** %__a.addr, align 8, !dbg !4341
  %1 = bitcast %"class.std::allocator"* %0 to %"class.__gnu_cxx::new_allocator"*, !dbg !4341
  %2 = load i64, i64* %__n.addr, align 8, !dbg !4342
  %call = call %"struct.std::_Rb_tree_node"* @_ZN9__gnu_cxx13new_allocatorISt13_Rb_tree_nodeISt4pairIK10opp_stringS3_EEE8allocateEmPKv(%"class.__gnu_cxx::new_allocator"* %1, i64 %2, i8* null), !dbg !4343
  ret %"struct.std::_Rb_tree_node"* %call, !dbg !4344
}

; Function Attrs: noinline nounwind uwtable
define linkonce_odr dso_local dereferenceable(1) %"class.std::allocator"* @_ZNSt8_Rb_treeI10opp_stringSt4pairIKS0_S0_ESt10_Select1stIS3_ESt4lessIS0_ESaIS3_EE21_M_get_Node_allocatorEv(%"class.std::_Rb_tree"* %this) #5 comdat align 2 !dbg !4345 {
entry:
  %this.addr = alloca %"class.std::_Rb_tree"*, align 8
  store %"class.std::_Rb_tree"* %this, %"class.std::_Rb_tree"** %this.addr, align 8
  call void @llvm.dbg.declare(metadata %"class.std::_Rb_tree"** %this.addr, metadata !4346, metadata !DIExpression()), !dbg !4347
  %this1 = load %"class.std::_Rb_tree"*, %"class.std::_Rb_tree"** %this.addr, align 8
  %_M_impl = getelementptr inbounds %"class.std::_Rb_tree", %"class.std::_Rb_tree"* %this1, i32 0, i32 0, !dbg !4348
  %0 = bitcast %"struct.std::_Rb_tree<opp_string, std::pair<const opp_string, opp_string>, std::_Select1st<std::pair<const opp_string, opp_string> >, std::less<opp_string>, std::allocator<std::pair<const opp_string, opp_string> > >::_Rb_tree_impl"* %_M_impl to %"class.std::allocator"*, !dbg !4349
  ret %"class.std::allocator"* %0, !dbg !4350
}

; Function Attrs: noinline uwtable
define linkonce_odr dso_local %"struct.std::_Rb_tree_node"* @_ZN9__gnu_cxx13new_allocatorISt13_Rb_tree_nodeISt4pairIK10opp_stringS3_EEE8allocateEmPKv(%"class.__gnu_cxx::new_allocator"* %this, i64 %__n, i8* %0) #0 comdat align 2 !dbg !4351 {
entry:
  %this.addr = alloca %"class.__gnu_cxx::new_allocator"*, align 8
  %__n.addr = alloca i64, align 8
  %.addr = alloca i8*, align 8
  store %"class.__gnu_cxx::new_allocator"* %this, %"class.__gnu_cxx::new_allocator"** %this.addr, align 8
  call void @llvm.dbg.declare(metadata %"class.__gnu_cxx::new_allocator"** %this.addr, metadata !4352, metadata !DIExpression()), !dbg !4354
  store i64 %__n, i64* %__n.addr, align 8
  call void @llvm.dbg.declare(metadata i64* %__n.addr, metadata !4355, metadata !DIExpression()), !dbg !4356
  store i8* %0, i8** %.addr, align 8
  call void @llvm.dbg.declare(metadata i8** %.addr, metadata !4357, metadata !DIExpression()), !dbg !4358
  %this1 = load %"class.__gnu_cxx::new_allocator"*, %"class.__gnu_cxx::new_allocator"** %this.addr, align 8
  %1 = load i64, i64* %__n.addr, align 8, !dbg !4359
  %call = call i64 @_ZNK9__gnu_cxx13new_allocatorISt13_Rb_tree_nodeISt4pairIK10opp_stringS3_EEE11_M_max_sizeEv(%"class.__gnu_cxx::new_allocator"* %this1) #3, !dbg !4361
  %cmp = icmp ugt i64 %1, %call, !dbg !4362
  br i1 %cmp, label %if.then, label %if.end, !dbg !4363

if.then:                                          ; preds = %entry
  call void @_ZSt17__throw_bad_allocv() #16, !dbg !4364
  unreachable, !dbg !4364

if.end:                                           ; preds = %entry
  %2 = load i64, i64* %__n.addr, align 8, !dbg !4365
  %mul = mul i64 %2, 48, !dbg !4366
  %call2 = call i8* @_Znwm(i64 %mul), !dbg !4367
  %3 = bitcast i8* %call2 to %"struct.std::_Rb_tree_node"*, !dbg !4368
  ret %"struct.std::_Rb_tree_node"* %3, !dbg !4369
}

; Function Attrs: noinline nounwind uwtable
define linkonce_odr dso_local i64 @_ZNK9__gnu_cxx13new_allocatorISt13_Rb_tree_nodeISt4pairIK10opp_stringS3_EEE11_M_max_sizeEv(%"class.__gnu_cxx::new_allocator"* %this) #5 comdat align 2 !dbg !4370 {
entry:
  %this.addr = alloca %"class.__gnu_cxx::new_allocator"*, align 8
  store %"class.__gnu_cxx::new_allocator"* %this, %"class.__gnu_cxx::new_allocator"** %this.addr, align 8
  call void @llvm.dbg.declare(metadata %"class.__gnu_cxx::new_allocator"** %this.addr, metadata !4371, metadata !DIExpression()), !dbg !4373
  %this1 = load %"class.__gnu_cxx::new_allocator"*, %"class.__gnu_cxx::new_allocator"** %this.addr, align 8
  ret i64 192153584101141162, !dbg !4374
}

; Function Attrs: noreturn
declare dso_local void @_ZSt17__throw_bad_allocv() #12

; Function Attrs: noinline uwtable
define linkonce_odr dso_local void @_ZNSt16allocator_traitsISaISt13_Rb_tree_nodeISt4pairIK10opp_stringS2_EEEE9constructIS4_JRKSt21piecewise_construct_tSt5tupleIJOS2_EESC_IJEEEEEvRS6_PT_DpOT0_(%"class.std::allocator"* dereferenceable(1) %__a, %"struct.std::pair"* %__p, %"struct.std::piecewise_construct_t"* dereferenceable(1) %__args, %"class.std::tuple"* dereferenceable(8) %__args1, %"class.std::tuple.6"* dereferenceable(1) %__args3) #0 comdat align 2 !dbg !4375 {
entry:
  %__a.addr = alloca %"class.std::allocator"*, align 8
  %__p.addr = alloca %"struct.std::pair"*, align 8
  %__args.addr = alloca %"struct.std::piecewise_construct_t"*, align 8
  %__args.addr2 = alloca %"class.std::tuple"*, align 8
  %__args.addr4 = alloca %"class.std::tuple.6"*, align 8
  store %"class.std::allocator"* %__a, %"class.std::allocator"** %__a.addr, align 8
  call void @llvm.dbg.declare(metadata %"class.std::allocator"** %__a.addr, metadata !4381, metadata !DIExpression()), !dbg !4382
  store %"struct.std::pair"* %__p, %"struct.std::pair"** %__p.addr, align 8
  call void @llvm.dbg.declare(metadata %"struct.std::pair"** %__p.addr, metadata !4383, metadata !DIExpression()), !dbg !4384
  store %"struct.std::piecewise_construct_t"* %__args, %"struct.std::piecewise_construct_t"** %__args.addr, align 8
  call void @llvm.dbg.declare(metadata %"struct.std::piecewise_construct_t"** %__args.addr, metadata !4385, metadata !DIExpression()), !dbg !4386
  store %"class.std::tuple"* %__args1, %"class.std::tuple"** %__args.addr2, align 8
  call void @llvm.dbg.declare(metadata %"class.std::tuple"** %__args.addr2, metadata !4387, metadata !DIExpression()), !dbg !4386
  store %"class.std::tuple.6"* %__args3, %"class.std::tuple.6"** %__args.addr4, align 8
  call void @llvm.dbg.declare(metadata %"class.std::tuple.6"** %__args.addr4, metadata !4388, metadata !DIExpression()), !dbg !4386
  %0 = load %"class.std::allocator"*, %"class.std::allocator"** %__a.addr, align 8, !dbg !4389
  %1 = bitcast %"class.std::allocator"* %0 to %"class.__gnu_cxx::new_allocator"*, !dbg !4389
  %2 = load %"struct.std::pair"*, %"struct.std::pair"** %__p.addr, align 8, !dbg !4390
  %3 = load %"struct.std::piecewise_construct_t"*, %"struct.std::piecewise_construct_t"** %__args.addr, align 8, !dbg !4391
  %call = call dereferenceable(1) %"struct.std::piecewise_construct_t"* @_ZSt7forwardIRKSt21piecewise_construct_tEOT_RNSt16remove_referenceIS3_E4typeE(%"struct.std::piecewise_construct_t"* dereferenceable(1) %3) #3, !dbg !4392
  %4 = load %"class.std::tuple"*, %"class.std::tuple"** %__args.addr2, align 8, !dbg !4391
  %call5 = call dereferenceable(8) %"class.std::tuple"* @_ZSt7forwardISt5tupleIJO10opp_stringEEEOT_RNSt16remove_referenceIS4_E4typeE(%"class.std::tuple"* dereferenceable(8) %4) #3, !dbg !4392
  %5 = load %"class.std::tuple.6"*, %"class.std::tuple.6"** %__args.addr4, align 8, !dbg !4391
  %call6 = call dereferenceable(1) %"class.std::tuple.6"* @_ZSt7forwardISt5tupleIJEEEOT_RNSt16remove_referenceIS2_E4typeE(%"class.std::tuple.6"* dereferenceable(1) %5) #3, !dbg !4392
  call void @_ZN9__gnu_cxx13new_allocatorISt13_Rb_tree_nodeISt4pairIK10opp_stringS3_EEE9constructIS5_JRKSt21piecewise_construct_tSt5tupleIJOS3_EESC_IJEEEEEvPT_DpOT0_(%"class.__gnu_cxx::new_allocator"* %1, %"struct.std::pair"* %2, %"struct.std::piecewise_construct_t"* dereferenceable(1) %call, %"class.std::tuple"* dereferenceable(8) %call5, %"class.std::tuple.6"* dereferenceable(1) %call6), !dbg !4393
  ret void, !dbg !4394
}

; Function Attrs: noinline nounwind uwtable
define linkonce_odr dso_local void @_ZNSt8_Rb_treeI10opp_stringSt4pairIKS0_S0_ESt10_Select1stIS3_ESt4lessIS0_ESaIS3_EE11_M_put_nodeEPSt13_Rb_tree_nodeIS3_E(%"class.std::_Rb_tree"* %this, %"struct.std::_Rb_tree_node"* %__p) #5 comdat align 2 personality i8* bitcast (i32 (...)* @__gxx_personality_v0 to i8*) !dbg !4395 {
entry:
  %this.addr = alloca %"class.std::_Rb_tree"*, align 8
  %__p.addr = alloca %"struct.std::_Rb_tree_node"*, align 8
  store %"class.std::_Rb_tree"* %this, %"class.std::_Rb_tree"** %this.addr, align 8
  call void @llvm.dbg.declare(metadata %"class.std::_Rb_tree"** %this.addr, metadata !4396, metadata !DIExpression()), !dbg !4397
  store %"struct.std::_Rb_tree_node"* %__p, %"struct.std::_Rb_tree_node"** %__p.addr, align 8
  call void @llvm.dbg.declare(metadata %"struct.std::_Rb_tree_node"** %__p.addr, metadata !4398, metadata !DIExpression()), !dbg !4399
  %this1 = load %"class.std::_Rb_tree"*, %"class.std::_Rb_tree"** %this.addr, align 8
  %call = call dereferenceable(1) %"class.std::allocator"* @_ZNSt8_Rb_treeI10opp_stringSt4pairIKS0_S0_ESt10_Select1stIS3_ESt4lessIS0_ESaIS3_EE21_M_get_Node_allocatorEv(%"class.std::_Rb_tree"* %this1) #3, !dbg !4400
  %0 = load %"struct.std::_Rb_tree_node"*, %"struct.std::_Rb_tree_node"** %__p.addr, align 8, !dbg !4401
  invoke void @_ZNSt16allocator_traitsISaISt13_Rb_tree_nodeISt4pairIK10opp_stringS2_EEEE10deallocateERS6_PS5_m(%"class.std::allocator"* dereferenceable(1) %call, %"struct.std::_Rb_tree_node"* %0, i64 1)
          to label %invoke.cont unwind label %terminate.lpad, !dbg !4402

invoke.cont:                                      ; preds = %entry
  ret void, !dbg !4403

terminate.lpad:                                   ; preds = %entry
  %1 = landingpad { i8*, i32 }
          catch i8* null, !dbg !4402
