; ModuleID = 'simulator/nedfunctions.cc'
source_filename = "simulator/nedfunctions.cc"
target datalayout = "e-m:e-p270:32:32-p271:32:32-p272:64:64-i64:64-f80:128-n8:16:32:64-S128"
target triple = "x86_64-unknown-linux-gnu"

%"class.std::ios_base::Init" = type { i8 }
%class.ExecuteOnStartup = type { void ()*, %class.ExecuteOnStartup* }
%class.CommonStringPool = type { %"class.std::set" }
%"class.std::set" = type { %"class.std::_Rb_tree" }
%"class.std::_Rb_tree" = type { %"struct.std::_Rb_tree<char *, char *, std::_Identity<char *>, CommonStringPool::strless, std::allocator<char *> >::_Rb_tree_impl" }
%"struct.std::_Rb_tree<char *, char *, std::_Identity<char *>, CommonStringPool::strless, std::allocator<char *> >::_Rb_tree_impl" = type { %"struct.std::_Rb_tree_key_compare", %"struct.std::_Rb_tree_header" }
%"struct.std::_Rb_tree_key_compare" = type { %"struct.CommonStringPool::strless" }
%"struct.CommonStringPool::strless" = type { i8 }
%"struct.std::_Rb_tree_header" = type { %"struct.std::_Rb_tree_node_base", i64 }
%"struct.std::_Rb_tree_node_base" = type { i32, %"struct.std::_Rb_tree_node_base"*, %"struct.std::_Rb_tree_node_base"*, %"struct.std::_Rb_tree_node_base"* }
%class.cGlobalRegistrationList = type { %class.cRegistrationList*, i8* }
%class.cRegistrationList = type { %class.cNamedObject.base, %"class.std::vector", %"class.std::map", %"class.std::map" }
%class.cNamedObject.base = type <{ %class.cObject, i8*, i16, i16 }>
%class.cObject = type { i32 (...)** }
%"class.std::vector" = type { %"struct.std::_Vector_base" }
%"struct.std::_Vector_base" = type { %"struct.std::_Vector_base<cOwnedObject *, std::allocator<cOwnedObject *> >::_Vector_impl" }
%"struct.std::_Vector_base<cOwnedObject *, std::allocator<cOwnedObject *> >::_Vector_impl" = type { %"struct.std::_Vector_base<cOwnedObject *, std::allocator<cOwnedObject *> >::_Vector_impl_data" }
%"struct.std::_Vector_base<cOwnedObject *, std::allocator<cOwnedObject *> >::_Vector_impl_data" = type { %class.cOwnedObject**, %class.cOwnedObject**, %class.cOwnedObject** }
%class.cOwnedObject = type <{ %class.cNamedObject.base, [4 x i8], %class.cObject*, i32, [4 x i8] }>
%"class.std::map" = type { %"class.std::_Rb_tree.3" }
%"class.std::_Rb_tree.3" = type { %"struct.std::_Rb_tree<std::__cxx11::basic_string<char>, std::pair<const std::__cxx11::basic_string<char>, cOwnedObject *>, std::_Select1st<std::pair<const std::__cxx11::basic_string<char>, cOwnedObject *> >, std::less<std::__cxx11::basic_string<char> >, std::allocator<std::pair<const std::__cxx11::basic_string<char>, cOwnedObject *> > >::_Rb_tree_impl" }
%"struct.std::_Rb_tree<std::__cxx11::basic_string<char>, std::pair<const std::__cxx11::basic_string<char>, cOwnedObject *>, std::_Select1st<std::pair<const std::__cxx11::basic_string<char>, cOwnedObject *> >, std::less<std::__cxx11::basic_string<char> >, std::allocator<std::pair<const std::__cxx11::basic_string<char>, cOwnedObject *> > >::_Rb_tree_impl" = type { %"struct.std::_Rb_tree_key_compare.7", %"struct.std::_Rb_tree_header" }
%"struct.std::_Rb_tree_key_compare.7" = type { %"struct.std::less" }
%"struct.std::less" = type { i8 }
%class.cSimulation = type { %class.cNoncopyableOwnedObject.base, i32, i32, %class.cModule**, i32, %class.cEnvir*, %class.cModule*, %class.cSimpleModule*, %class.cComponent*, i32, %class.cModuleType*, %class.cScheduler*, %class.SimTime, i64, %class.cMessage*, %class.cException*, %class.cHasher*, %class.cMessageHeap }
%class.cNoncopyableOwnedObject.base = type { %class.cOwnedObject.base }
%class.cOwnedObject.base = type <{ %class.cNamedObject.base, [4 x i8], %class.cObject*, i32 }>
%class.cEnvir = type { i32 (...)**, i8, i8, i8, %"class.std::basic_ostream" }
%"class.std::basic_ostream" = type { i32 (...)**, %"class.std::basic_ios" }
%"class.std::basic_ios" = type { %"class.std::ios_base", %"class.std::basic_ostream"*, i8, i8, %"class.std::basic_streambuf"*, %"class.std::ctype"*, %"class.std::num_put"*, %"class.std::num_get"* }
%"class.std::ios_base" = type { i32 (...)**, i64, i64, i32, i32, i32, %"struct.std::ios_base::_Callback_list"*, %"struct.std::ios_base::_Words", [8 x %"struct.std::ios_base::_Words"], i32, %"struct.std::ios_base::_Words"*, %"class.std::locale" }
%"struct.std::ios_base::_Callback_list" = type { %"struct.std::ios_base::_Callback_list"*, void (i32, %"class.std::ios_base"*, i32)*, i32, i32 }
%"struct.std::ios_base::_Words" = type { i8*, i64 }
%"class.std::locale" = type { %"class.std::locale::_Impl"* }
%"class.std::locale::_Impl" = type { i32, %"class.std::locale::facet"**, i64, %"class.std::locale::facet"**, i8** }
%"class.std::locale::facet" = type <{ i32 (...)**, i32, [4 x i8] }>
%"class.std::basic_streambuf" = type { i32 (...)**, i8*, i8*, i8*, i8*, i8*, i8*, %"class.std::locale" }
%"class.std::ctype" = type <{ %"class.std::locale::facet.base", [4 x i8], %struct.__locale_struct*, i8, [7 x i8], i32*, i32*, i16*, i8, [256 x i8], [256 x i8], i8, [6 x i8] }>
%"class.std::locale::facet.base" = type <{ i32 (...)**, i32 }>
%struct.__locale_struct = type { [13 x %struct.__locale_data*], i16*, i32*, i32*, [13 x i8*] }
%struct.__locale_data = type opaque
%"class.std::num_put" = type { %"class.std::locale::facet.base", [4 x i8] }
%"class.std::num_get" = type { %"class.std::locale::facet.base", [4 x i8] }
%class.cModule = type { %class.cComponent, i8*, i32, %class.cModule*, %class.cModule*, %class.cModule*, %class.cModule*, i32, %"struct.cGate::Desc"*, i32, i32 }
%class.cComponent = type { %class.cDefaultList, %class.cComponentType*, i16, i32*, i16, i16, %class.cPar*, %class.cDisplayString* }
%class.cDefaultList = type { %class.cNoncopyableOwnedObject.base, %class.cOwnedObject**, i32, i32 }
%class.cComponentType = type opaque
%class.cPar = type { %class.cObject, %class.cComponent*, %class.cParImpl* }
%class.cParImpl = type opaque
%class.cDisplayString = type opaque
%"struct.cGate::Desc" = type { %class.cModule*, %"struct.cGate::Name"*, i32, %union.anon.11, %union.anon.12 }
%"struct.cGate::Name" = type <{ %class.opp_string, %class.opp_string, %class.opp_string, i32, [4 x i8] }>
%class.opp_string = type { i8* }
%union.anon.11 = type { %class.cGate* }
%class.cGate = type { %class.cObject, %"struct.cGate::Desc"*, i32, %class.cChannel*, %class.cGate*, %class.cGate* }
%class.cChannel = type opaque
%union.anon.12 = type { %class.cGate* }
%class.cSimpleModule = type opaque
%class.cModuleType = type opaque
%class.cScheduler = type opaque
%class.SimTime = type { i64 }
%class.cMessage = type opaque
%class.cException = type <{ %"class.std::exception", i32, [4 x i8], %"class.std::__cxx11::basic_string", i8, [7 x i8], %"class.std::__cxx11::basic_string", %"class.std::__cxx11::basic_string", i32, [4 x i8] }>
%"class.std::exception" = type { i32 (...)** }
%"class.std::__cxx11::basic_string" = type { %"struct.std::__cxx11::basic_string<char, std::char_traits<char>, std::allocator<char> >::_Alloc_hider", i64, %union.anon }
%"struct.std::__cxx11::basic_string<char, std::char_traits<char>, std::allocator<char> >::_Alloc_hider" = type { i8* }
%union.anon = type { i64, [8 x i8] }
%class.cHasher = type opaque
%class.cMessageHeap = type { %class.cOwnedObject.base, %class.cMessage**, i32, i32, i64 }
%class.cMathFunction = type { %class.cNoncopyableOwnedObject.base, double (...)*, i32, %"class.std::__cxx11::basic_string", %"class.std::__cxx11::basic_string" }
%class.cNEDFunction = type { %class.cNoncopyableOwnedObject.base, %"class.std::__cxx11::basic_string", %"class.std::__cxx11::basic_string", i8, i32, i32, void (%"struct.cDynamicExpression::Value"*, %class.cComponent*, %"struct.cDynamicExpression::Value"*, i32)*, %"class.std::__cxx11::basic_string", %"class.std::__cxx11::basic_string" }
%"struct.cDynamicExpression::Value" = type { i32, i8, double, i8*, %"class.std::__cxx11::basic_string", %class.cXMLElement* }
%class.cXMLElement = type opaque
%class.cRuntimeError = type { %class.cException.base, [4 x i8] }
%class.cException.base = type <{ %"class.std::exception", i32, [4 x i8], %"class.std::__cxx11::basic_string", i8, [7 x i8], %"class.std::__cxx11::basic_string", %"class.std::__cxx11::basic_string", i32 }>
%"class.std::allocator.8" = type { i8 }
%class.cStringTokenizer = type { i8*, i8*, %"class.std::__cxx11::basic_string" }
%class.cRNG = type { %class.cObject, i64 }

$_ZN18cDynamicExpression5ValueC2ERKS0_ = comdat any

$_ZN18cDynamicExpression5ValueC2EPKc = comdat any

$_ZN18cDynamicExpression5ValueaSEPKc = comdat any

$_ZN18cDynamicExpression5ValueC2El = comdat any

$_ZN18cDynamicExpression5ValueaSEl = comdat any

$_ZN18cDynamicExpression5ValueC2Eb = comdat any

$_ZN18cDynamicExpression5ValueaSEb = comdat any

$_ZN13cRuntimeErrorD2Ev = comdat any

$_ZN18cDynamicExpression5ValueC2ERKNSt7__cxx1112basic_stringIcSt11char_traitsIcESaIcEEE = comdat any

$_ZN10cExceptionD2Ev = comdat any

$_ZN10cExceptionD0Ev = comdat any

$_ZNK10cException4whatEv = comdat any

$_ZNK10cException3dupEv = comdat any

$_ZNK10cException12getErrorCodeEv = comdat any

$_ZN10cException10setMessageEPKc = comdat any

$_ZN10cException14prependMessageEPKc = comdat any

$_ZNK10cException10hasContextEv = comdat any

$_ZNK10cException19getContextClassNameEv = comdat any

$_ZNK10cException18getContextFullPathEv = comdat any

$_ZNK10cException11getModuleIDEv = comdat any

$_ZStplIcSt11char_traitsIcESaIcEENSt7__cxx1112basic_stringIT_T0_T1_EEOS8_RKS8_ = comdat any

$_ZStplIcSt11char_traitsIcESaIcEENSt7__cxx1112basic_stringIT_T0_T1_EEOS8_PKS5_ = comdat any

$_ZSt4moveIRNSt7__cxx1112basic_stringIcSt11char_traitsIcESaIcEEEEONSt16remove_referenceIT_E4typeEOS8_ = comdat any

$_ZN18cDynamicExpression5ValueaSERKNSt7__cxx1112basic_stringIcSt11char_traitsIcESaIcEEE = comdat any

$_ZSt3maxIiERKT_S2_S2_ = comdat any

$_Z11opp_toupperh = comdat any

$_Z11opp_tolowerh = comdat any

$_ZN18cDynamicExpression5ValueC2Ed = comdat any

$_ZN18cDynamicExpression5ValueaSEd = comdat any

$_ZNK7cModule8isVectorEv = comdat any

$_ZNK7cModule8getIndexEv = comdat any

$_Z9lognormalddi = comdat any

$_Z9bernoullidi = comdat any

$_Z12genk_dblrandi = comdat any

$_Z18__contextModuleRNGi = comdat any

$_ZN11cSimulation19getActiveSimulationEv = comdat any

$_ZNK10cComponent6getRNGEi = comdat any

$_ZN11cSimulation14getActiveEnvirEv = comdat any

$_ZTS13cRuntimeError = comdat any

$_ZTS10cException = comdat any

$_ZTI10cException = comdat any

$_ZTI13cRuntimeError = comdat any

$_ZTV10cException = comdat any

@_ZStL8__ioinit = internal global %"class.std::ios_base::Init" zeroinitializer, align 1, !dbg !0
@__dso_handle = external hidden global i8
@_ZN12_GLOBAL__N_118__onstartup_obj_51E = internal global %class.ExecuteOnStartup zeroinitializer, align 8, !dbg !28
@_ZN12_GLOBAL__N_118__onstartup_obj_52E = internal global %class.ExecuteOnStartup zeroinitializer, align 8, !dbg !51
@_ZN12_GLOBAL__N_118__onstartup_obj_53E = internal global %class.ExecuteOnStartup zeroinitializer, align 8, !dbg !53
@_ZN12_GLOBAL__N_118__onstartup_obj_54E = internal global %class.ExecuteOnStartup zeroinitializer, align 8, !dbg !55
@_ZN12_GLOBAL__N_118__onstartup_obj_56E = internal global %class.ExecuteOnStartup zeroinitializer, align 8, !dbg !57
@_ZN12_GLOBAL__N_118__onstartup_obj_57E = internal global %class.ExecuteOnStartup zeroinitializer, align 8, !dbg !59
@_ZN12_GLOBAL__N_118__onstartup_obj_58E = internal global %class.ExecuteOnStartup zeroinitializer, align 8, !dbg !61
@_ZN12_GLOBAL__N_118__onstartup_obj_60E = internal global %class.ExecuteOnStartup zeroinitializer, align 8, !dbg !63
@_ZN12_GLOBAL__N_118__onstartup_obj_61E = internal global %class.ExecuteOnStartup zeroinitializer, align 8, !dbg !65
@_ZN12_GLOBAL__N_118__onstartup_obj_63E = internal global %class.ExecuteOnStartup zeroinitializer, align 8, !dbg !67
@_ZN12_GLOBAL__N_118__onstartup_obj_64E = internal global %class.ExecuteOnStartup zeroinitializer, align 8, !dbg !69
@_ZN12_GLOBAL__N_118__onstartup_obj_65E = internal global %class.ExecuteOnStartup zeroinitializer, align 8, !dbg !71
@_ZN12_GLOBAL__N_118__onstartup_obj_67E = internal global %class.ExecuteOnStartup zeroinitializer, align 8, !dbg !73
@_ZN12_GLOBAL__N_118__onstartup_obj_69E = internal global %class.ExecuteOnStartup zeroinitializer, align 8, !dbg !75
@_ZN12_GLOBAL__N_118__onstartup_obj_70E = internal global %class.ExecuteOnStartup zeroinitializer, align 8, !dbg !77
@_ZN12_GLOBAL__N_118__onstartup_obj_80E = internal global %class.ExecuteOnStartup zeroinitializer, align 8, !dbg !79
@_ZN12_GLOBAL__N_118__onstartup_obj_90E = internal global %class.ExecuteOnStartup zeroinitializer, align 8, !dbg !81
@_ZN12_GLOBAL__N_118__onstartup_obj_99E = internal global %class.ExecuteOnStartup zeroinitializer, align 8, !dbg !83
@_ZN12_GLOBAL__N_119__onstartup_obj_108E = internal global %class.ExecuteOnStartup zeroinitializer, align 8, !dbg !85
@_ZL10stringPool = internal global %class.CommonStringPool zeroinitializer, align 8, !dbg !87
@_ZN12_GLOBAL__N_119__onstartup_obj_124E = internal global %class.ExecuteOnStartup zeroinitializer, align 8, !dbg !233
@_ZN12_GLOBAL__N_119__onstartup_obj_133E = internal global %class.ExecuteOnStartup zeroinitializer, align 8, !dbg !235
@_ZN12_GLOBAL__N_119__onstartup_obj_144E = internal global %class.ExecuteOnStartup zeroinitializer, align 8, !dbg !237
@_ZN12_GLOBAL__N_119__onstartup_obj_152E = internal global %class.ExecuteOnStartup zeroinitializer, align 8, !dbg !239
@_ZN12_GLOBAL__N_119__onstartup_obj_165E = internal global %class.ExecuteOnStartup zeroinitializer, align 8, !dbg !241
@_ZN12_GLOBAL__N_119__onstartup_obj_173E = internal global %class.ExecuteOnStartup zeroinitializer, align 8, !dbg !243
@_ZN12_GLOBAL__N_119__onstartup_obj_189E = internal global %class.ExecuteOnStartup zeroinitializer, align 8, !dbg !245
@_ZN12_GLOBAL__N_119__onstartup_obj_198E = internal global %class.ExecuteOnStartup zeroinitializer, align 8, !dbg !247
@_ZN12_GLOBAL__N_119__onstartup_obj_207E = internal global %class.ExecuteOnStartup zeroinitializer, align 8, !dbg !249
@_ZN12_GLOBAL__N_119__onstartup_obj_216E = internal global %class.ExecuteOnStartup zeroinitializer, align 8, !dbg !251
@_ZN12_GLOBAL__N_119__onstartup_obj_225E = internal global %class.ExecuteOnStartup zeroinitializer, align 8, !dbg !253
@_ZN12_GLOBAL__N_119__onstartup_obj_233E = internal global %class.ExecuteOnStartup zeroinitializer, align 8, !dbg !255
@_ZN12_GLOBAL__N_119__onstartup_obj_241E = internal global %class.ExecuteOnStartup zeroinitializer, align 8, !dbg !257
@_ZN12_GLOBAL__N_119__onstartup_obj_253E = internal global %class.ExecuteOnStartup zeroinitializer, align 8, !dbg !259
@_ZN12_GLOBAL__N_119__onstartup_obj_279E = internal global %class.ExecuteOnStartup zeroinitializer, align 8, !dbg !261
@_ZN12_GLOBAL__N_119__onstartup_obj_302E = internal global %class.ExecuteOnStartup zeroinitializer, align 8, !dbg !263
@_ZN12_GLOBAL__N_119__onstartup_obj_310E = internal global %class.ExecuteOnStartup zeroinitializer, align 8, !dbg !265
@_ZN12_GLOBAL__N_119__onstartup_obj_318E = internal global %class.ExecuteOnStartup zeroinitializer, align 8, !dbg !267
@_ZN12_GLOBAL__N_119__onstartup_obj_334E = internal global %class.ExecuteOnStartup zeroinitializer, align 8, !dbg !269
@_ZN12_GLOBAL__N_119__onstartup_obj_346E = internal global %class.ExecuteOnStartup zeroinitializer, align 8, !dbg !271
@_ZN12_GLOBAL__N_119__onstartup_obj_358E = internal global %class.ExecuteOnStartup zeroinitializer, align 8, !dbg !273
@_ZN12_GLOBAL__N_119__onstartup_obj_377E = internal global %class.ExecuteOnStartup zeroinitializer, align 8, !dbg !275
@_ZN12_GLOBAL__N_119__onstartup_obj_396E = internal global %class.ExecuteOnStartup zeroinitializer, align 8, !dbg !277
@_ZN12_GLOBAL__N_119__onstartup_obj_404E = internal global %class.ExecuteOnStartup zeroinitializer, align 8, !dbg !279
@_ZN12_GLOBAL__N_119__onstartup_obj_417E = internal global %class.ExecuteOnStartup zeroinitializer, align 8, !dbg !281
@_ZN12_GLOBAL__N_119__onstartup_obj_425E = internal global %class.ExecuteOnStartup zeroinitializer, align 8, !dbg !283
@_ZN12_GLOBAL__N_119__onstartup_obj_438E = internal global %class.ExecuteOnStartup zeroinitializer, align 8, !dbg !285
@_ZN12_GLOBAL__N_119__onstartup_obj_458E = internal global %class.ExecuteOnStartup zeroinitializer, align 8, !dbg !287
@_ZN12_GLOBAL__N_119__onstartup_obj_475E = internal global %class.ExecuteOnStartup zeroinitializer, align 8, !dbg !289
@_ZN12_GLOBAL__N_119__onstartup_obj_485E = internal global %class.ExecuteOnStartup zeroinitializer, align 8, !dbg !291
@_ZN12_GLOBAL__N_119__onstartup_obj_496E = internal global %class.ExecuteOnStartup zeroinitializer, align 8, !dbg !293
@_ZN12_GLOBAL__N_119__onstartup_obj_507E = internal global %class.ExecuteOnStartup zeroinitializer, align 8, !dbg !295
@_ZN12_GLOBAL__N_119__onstartup_obj_517E = internal global %class.ExecuteOnStartup zeroinitializer, align 8, !dbg !297
@_ZN12_GLOBAL__N_119__onstartup_obj_527E = internal global %class.ExecuteOnStartup zeroinitializer, align 8, !dbg !299
@_ZN12_GLOBAL__N_119__onstartup_obj_540E = internal global %class.ExecuteOnStartup zeroinitializer, align 8, !dbg !301
@_ZN12_GLOBAL__N_119__onstartup_obj_553E = internal global %class.ExecuteOnStartup zeroinitializer, align 8, !dbg !303
@_ZN12_GLOBAL__N_119__onstartup_obj_566E = internal global %class.ExecuteOnStartup zeroinitializer, align 8, !dbg !305
@_ZN12_GLOBAL__N_119__onstartup_obj_577E = internal global %class.ExecuteOnStartup zeroinitializer, align 8, !dbg !307
@_ZN12_GLOBAL__N_119__onstartup_obj_589E = internal global %class.ExecuteOnStartup zeroinitializer, align 8, !dbg !309
@_ZN12_GLOBAL__N_119__onstartup_obj_599E = internal global %class.ExecuteOnStartup zeroinitializer, align 8, !dbg !311
@_ZN12_GLOBAL__N_119__onstartup_obj_610E = internal global %class.ExecuteOnStartup zeroinitializer, align 8, !dbg !313
@_ZN12_GLOBAL__N_119__onstartup_obj_621E = internal global %class.ExecuteOnStartup zeroinitializer, align 8, !dbg !315
@_ZN12_GLOBAL__N_119__onstartup_obj_633E = internal global %class.ExecuteOnStartup zeroinitializer, align 8, !dbg !317
@_ZN12_GLOBAL__N_119__onstartup_obj_643E = internal global %class.ExecuteOnStartup zeroinitializer, align 8, !dbg !319
@_ZN12_GLOBAL__N_119__onstartup_obj_653E = internal global %class.ExecuteOnStartup zeroinitializer, align 8, !dbg !321
@_ZN12_GLOBAL__N_119__onstartup_obj_663E = internal global %class.ExecuteOnStartup zeroinitializer, align 8, !dbg !323
@_ZN12_GLOBAL__N_119__onstartup_obj_673E = internal global %class.ExecuteOnStartup zeroinitializer, align 8, !dbg !325
@_ZN12_GLOBAL__N_119__onstartup_obj_683E = internal global %class.ExecuteOnStartup zeroinitializer, align 8, !dbg !327
@nedFunctions = external dso_local global %class.cGlobalRegistrationList, align 8
@.str = private unnamed_addr constant [5 x i8] c"acos\00", align 1
@.str.69 = private unnamed_addr constant [5 x i8] c"math\00", align 1
@.str.70 = private unnamed_addr constant [65 x i8] c"Trigonometric function; see standard C function of the same name\00", align 1
@.str.71 = private unnamed_addr constant [5 x i8] c"asin\00", align 1
@.str.72 = private unnamed_addr constant [5 x i8] c"atan\00", align 1
@.str.73 = private unnamed_addr constant [6 x i8] c"atan2\00", align 1
@.str.74 = private unnamed_addr constant [4 x i8] c"sin\00", align 1
@.str.75 = private unnamed_addr constant [4 x i8] c"cos\00", align 1
@.str.76 = private unnamed_addr constant [4 x i8] c"tan\00", align 1
@.str.77 = private unnamed_addr constant [5 x i8] c"ceil\00", align 1
@.str.78 = private unnamed_addr constant [54 x i8] c"Rounds down; see standard C function of the same name\00", align 1
@.str.79 = private unnamed_addr constant [6 x i8] c"floor\00", align 1
@.str.80 = private unnamed_addr constant [52 x i8] c"Rounds up; see standard C function of the same name\00", align 1
@.str.81 = private unnamed_addr constant [4 x i8] c"exp\00", align 1
@.str.82 = private unnamed_addr constant [54 x i8] c"Exponential; see standard C function of the same name\00", align 1
@.str.83 = private unnamed_addr constant [4 x i8] c"pow\00", align 1
@.str.84 = private unnamed_addr constant [48 x i8] c"Power; see standard C function of the same name\00", align 1
@.str.85 = private unnamed_addr constant [5 x i8] c"sqrt\00", align 1
@.str.86 = private unnamed_addr constant [54 x i8] c"Square root; see standard C function of the same name\00", align 1
@.str.87 = private unnamed_addr constant [11 x i8] c"SPEC_HYPOT\00", align 1
@.str.88 = private unnamed_addr constant [67 x i8] c"Length of the hypotenuse; see standard C function of the same name\00", align 1
@.str.89 = private unnamed_addr constant [4 x i8] c"log\00", align 1
@.str.90 = private unnamed_addr constant [60 x i8] c"Natural logarithm; see standard C function of the same name\00", align 1
@.str.91 = private unnamed_addr constant [6 x i8] c"log10\00", align 1
@.str.92 = private unnamed_addr constant [60 x i8] c"Base-10 logarithm; see standard C function of the same name\00", align 1
@.str.93 = private unnamed_addr constant [26 x i8] c"quantity fabs(quantity x)\00", align 1
@.str.94 = private unnamed_addr constant [44 x i8] c"Returns the absolute value of the quantity.\00", align 1
@.str.95 = private unnamed_addr constant [38 x i8] c"quantity fmod(quantity x, quantity y)\00", align 1
@.str.96 = private unnamed_addr constant [84 x i8] c"Returns the floating-point remainder of x/y; unit conversion takes place if needed.\00", align 1
@.str.97 = private unnamed_addr constant [37 x i8] c"quantity min(quantity a, quantity b)\00", align 1
@.str.98 = private unnamed_addr constant [86 x i8] c"Returns the smaller one of the two quantities; unit conversion takes place if needed.\00", align 1
@.str.99 = private unnamed_addr constant [37 x i8] c"quantity max(quantity a, quantity b)\00", align 1
@.str.100 = private unnamed_addr constant [86 x i8] c"Returns the greater one of the two quantities; unit conversion takes place if needed.\00", align 1
@.str.101 = private unnamed_addr constant [28 x i8] c"double dropUnit(quantity x)\00", align 1
@.str.102 = private unnamed_addr constant [6 x i8] c"units\00", align 1
@.str.103 = private unnamed_addr constant [49 x i8] c"Removes the unit of measurement from quantity x.\00", align 1
@.str.104 = private unnamed_addr constant [46 x i8] c"quantity replaceUnit(quantity x, string unit)\00", align 1
@.str.105 = private unnamed_addr constant [44 x i8] c"Replaces the unit of x with the given unit.\00", align 1
@.str.106 = private unnamed_addr constant [46 x i8] c"quantity convertUnit(quantity x, string unit)\00", align 1
@.str.107 = private unnamed_addr constant [30 x i8] c"Converts x to the given unit.\00", align 1
@.str.108 = private unnamed_addr constant [26 x i8] c"string unitOf(quantity x)\00", align 1
@.str.109 = private unnamed_addr constant [40 x i8] c"Returns the unit of the given quantity.\00", align 1
@.str.110 = private unnamed_addr constant [1 x i8] zeroinitializer, align 1
@.str.111 = private unnamed_addr constant [22 x i8] c"long length(string s)\00", align 1
@.str.112 = private unnamed_addr constant [8 x i8] c"strings\00", align 1
@.str.113 = private unnamed_addr constant [33 x i8] c"Returns the length of the string\00", align 1
@.str.114 = private unnamed_addr constant [39 x i8] c"bool contains(string s, string substr)\00", align 1
@.str.115 = private unnamed_addr constant [54 x i8] c"Returns true if string s contains substr as substring\00", align 1
@.str.116 = private unnamed_addr constant [48 x i8] c"string substring(string s, long pos, long len?)\00", align 1
@.str.117 = private unnamed_addr constant [116 x i8] c"Return the substring of s starting at the given position, either to the end of the string or maximum len characters\00", align 1
@.str.118 = private unnamed_addr constant [33 x i8] c"substring(): index out of bounds\00", align 1
@_ZTVN10__cxxabiv120__si_class_type_infoE = external dso_local global i8*
@_ZTS13cRuntimeError = linkonce_odr dso_local constant [16 x i8] c"13cRuntimeError\00", comdat, align 1
@_ZTS10cException = linkonce_odr dso_local constant [13 x i8] c"10cException\00", comdat, align 1
@_ZTISt9exception = external dso_local constant i8*
@_ZTI10cException = linkonce_odr dso_local constant { i8*, i8*, i8* } { i8* bitcast (i8** getelementptr inbounds (i8*, i8** @_ZTVN10__cxxabiv120__si_class_type_infoE, i64 2) to i8*), i8* getelementptr inbounds ([13 x i8], [13 x i8]* @_ZTS10cException, i32 0, i32 0), i8* bitcast (i8** @_ZTISt9exception to i8*) }, comdat, align 8
@_ZTI13cRuntimeError = linkonce_odr dso_local constant { i8*, i8*, i8* } { i8* bitcast (i8** getelementptr inbounds (i8*, i8** @_ZTVN10__cxxabiv120__si_class_type_infoE, i64 2) to i8*), i8* getelementptr inbounds ([16 x i8], [16 x i8]* @_ZTS13cRuntimeError, i32 0, i32 0), i8* bitcast ({ i8*, i8*, i8* }* @_ZTI10cException to i8*) }, comdat, align 8
@.str.119 = private unnamed_addr constant [32 x i8] c"substring(): length is negative\00", align 1
@_ZTV10cException = linkonce_odr dso_local unnamed_addr constant { [13 x i8*] } { [13 x i8*] [i8* null, i8* bitcast ({ i8*, i8*, i8* }* @_ZTI10cException to i8*), i8* bitcast (void (%class.cException*)* @_ZN10cExceptionD2Ev to i8*), i8* bitcast (void (%class.cException*)* @_ZN10cExceptionD0Ev to i8*), i8* bitcast (i8* (%class.cException*)* @_ZNK10cException4whatEv to i8*), i8* bitcast (%class.cException* (%class.cException*)* @_ZNK10cException3dupEv to i8*), i8* bitcast (i32 (%class.cException*)* @_ZNK10cException12getErrorCodeEv to i8*), i8* bitcast (void (%class.cException*, i8*)* @_ZN10cException10setMessageEPKc to i8*), i8* bitcast (void (%class.cException*, i8*)* @_ZN10cException14prependMessageEPKc to i8*), i8* bitcast (i1 (%class.cException*)* @_ZNK10cException10hasContextEv to i8*), i8* bitcast (i8* (%class.cException*)* @_ZNK10cException19getContextClassNameEv to i8*), i8* bitcast (i8* (%class.cException*)* @_ZNK10cException18getContextFullPathEv to i8*), i8* bitcast (i32 (%class.cException*)* @_ZNK10cException11getModuleIDEv to i8*)] }, comdat, align 8
@.str.120 = private unnamed_addr constant [3 x i8] c": \00", align 1
@.str.121 = private unnamed_addr constant [48 x i8] c"string substringBefore(string s, string substr)\00", align 1
@.str.122 = private unnamed_addr constant [116 x i8] c"Returns the substring of s before the first occurrence of substr, or the empty string if s does not contain substr.\00", align 1
@.str.123 = private unnamed_addr constant [47 x i8] c"string substringAfter(string s, string substr)\00", align 1
@.str.124 = private unnamed_addr constant [115 x i8] c"Returns the substring of s after the first occurrence of substr, or the empty string if s does not contain substr.\00", align 1
@.str.125 = private unnamed_addr constant [52 x i8] c"string substringBeforeLast(string s, string substr)\00", align 1
@.str.126 = private unnamed_addr constant [115 x i8] c"Returns the substring of s before the last occurrence of substr, or the empty string if s does not contain substr.\00", align 1
@.str.127 = private unnamed_addr constant [51 x i8] c"string substringAfterLast(string s, string substr)\00", align 1
@.str.128 = private unnamed_addr constant [114 x i8] c"Returns the substring of s after the last occurrence of substr, or the empty string if s does not contain substr.\00", align 1
@.str.129 = private unnamed_addr constant [41 x i8] c"bool startsWith(string s, string substr)\00", align 1
@.str.130 = private unnamed_addr constant [52 x i8] c"Returns true if s begins with the substring substr.\00", align 1
@.str.131 = private unnamed_addr constant [39 x i8] c"bool endsWith(string s, string substr)\00", align 1
@.str.132 = private unnamed_addr constant [50 x i8] c"Returns true if s ends with the substring substr.\00", align 1
@.str.133 = private unnamed_addr constant [32 x i8] c"string tail(string s, long len)\00", align 1
@.str.134 = private unnamed_addr constant [89 x i8] c"Returns the last len character of s, or the full s if it is shorter than len characters.\00", align 1
@.str.135 = private unnamed_addr constant [27 x i8] c"tail(): length is negative\00", align 1
@.str.136 = private unnamed_addr constant [69 x i8] c"string replace(string s, string substr, string repl, long startPos?)\00", align 1
@.str.137 = private unnamed_addr constant [127 x i8] c"Replaces all occurrences of substr in s with the string repl. If startPos is given, search begins from position startPos in s.\00", align 1
@.str.138 = private unnamed_addr constant [35 x i8] c"replace(): start index is negative\00", align 1
@.str.139 = private unnamed_addr constant [37 x i8] c"replace(): start index out of bounds\00", align 1
@.str.140 = private unnamed_addr constant [74 x i8] c"string replaceFirst(string s, string substr, string repl, long startPos?)\00", align 1
@.str.141 = private unnamed_addr constant [132 x i8] c"Replaces the first occurrence of substr in s with the string repl. If startPos is given, search begins from position startPos in s.\00", align 1
@.str.142 = private unnamed_addr constant [40 x i8] c"replaceFirst(): start index is negative\00", align 1
@.str.143 = private unnamed_addr constant [42 x i8] c"replaceFirst(): start index out of bounds\00", align 1
@.str.144 = private unnamed_addr constant [22 x i8] c"string trim(string s)\00", align 1
@.str.145 = private unnamed_addr constant [73 x i8] c"Discards whitespace from the start and end of s, and returns the result.\00", align 1
@.str.146 = private unnamed_addr constant [38 x i8] c"long indexOf(string s, string substr)\00", align 1
@.str.147 = private unnamed_addr constant [107 x i8] c"Returns the position of the first occurrence of substring substr in s, or -1 if s does not contain substr.\00", align 1
@.str.148 = private unnamed_addr constant [39 x i8] c"string choose(long index, string list)\00", align 1
@.str.149 = private unnamed_addr constant [135 x i8] c"Interprets list as a space-separated list, and returns the item at the given index. Negative and out-of-bounds indices cause an error.\00", align 1
@.str.150 = private unnamed_addr constant [25 x i8] c"choose(): negative index\00", align 1
@.str.151 = private unnamed_addr constant [34 x i8] c"choose(): index out of bounds: %d\00", align 1
@.str.152 = private unnamed_addr constant [25 x i8] c"string toUpper(string s)\00", align 1
@.str.153 = private unnamed_addr constant [53 x i8] c"Converts s to all uppercase, and returns the result.\00", align 1
@.str.154 = private unnamed_addr constant [25 x i8] c"string toLower(string s)\00", align 1
@.str.155 = private unnamed_addr constant [53 x i8] c"Converts s to all lowercase, and returns the result.\00", align 1
@.str.156 = private unnamed_addr constant [16 x i8] c"long int(any x)\00", align 1
@.str.157 = private unnamed_addr constant [11 x i8] c"conversion\00", align 1
@.str.158 = private unnamed_addr constant [184 x i8] c"Converts x to long, and returns the result. A boolean argument becomes 0 or 1; a double is converted using floor(); a string is interpreted as number; an XML argument causes an error.\00", align 1
@.str.159 = private unnamed_addr constant [33 x i8] c"int(): cannot convert xml to int\00", align 1
@.str.160 = private unnamed_addr constant [31 x i8] c"internal error: bad Value type\00", align 1
@.str.161 = private unnamed_addr constant [21 x i8] c"double double(any x)\00", align 1
@.str.162 = private unnamed_addr constant [149 x i8] c"Converts x to double, and returns the result. A boolean argument becomes 0 or 1; a string is interpreted as number; an XML argument causes an error.\00", align 1
@.str.163 = private unnamed_addr constant [39 x i8] c"double(): cannot convert xml to double\00", align 1
@.str.164 = private unnamed_addr constant [21 x i8] c"string string(any x)\00", align 1
@.str.165 = private unnamed_addr constant [46 x i8] c"Converts x to string, and returns the result.\00", align 1
@.str.166 = private unnamed_addr constant [18 x i8] c"string fullPath()\00", align 1
@.str.167 = private unnamed_addr constant [4 x i8] c"ned\00", align 1
@.str.168 = private unnamed_addr constant [59 x i8] c"Returns the full path of the module or channel in context.\00", align 1
@.str.169 = private unnamed_addr constant [18 x i8] c"string fullName()\00", align 1
@.str.170 = private unnamed_addr constant [59 x i8] c"Returns the full name of the module or channel in context.\00", align 1
@.str.171 = private unnamed_addr constant [19 x i8] c"long parentIndex()\00", align 1
@.str.172 = private unnamed_addr constant [79 x i8] c"Returns the index of the parent module, which has to be part of module vector.\00", align 1
@.str.173 = private unnamed_addr constant [41 x i8] c"parentIndex(): `%s' has no parent module\00", align 1
@.str.174 = private unnamed_addr constant [43 x i8] c"parentIndex(): module `%s' is not a vector\00", align 1
@.str.175 = private unnamed_addr constant [35 x i8] c"long ancestorIndex(long numLevels)\00", align 1
@.str.176 = private unnamed_addr constant [98 x i8] c"Returns the index of the ancestor module numLevels levels above the module or channel in context.\00", align 1
@.str.177 = private unnamed_addr constant [43 x i8] c"ancestorIndex(): negative number of levels\00", align 1
@.str.178 = private unnamed_addr constant [55 x i8] c"ancestorIndex(): numlevels==0 and this is not a module\00", align 1
@_ZTI10cComponent = external dso_local constant i8*
@_ZTI7cModule = external dso_local constant i8*
@.str.179 = private unnamed_addr constant [63 x i8] c"ancestorIndex(): argument is larger than current nesting level\00", align 1
@.str.180 = private unnamed_addr constant [45 x i8] c"ancestorIndex(): module `%s' is not a vector\00", align 1
@.str.181 = private unnamed_addr constant [52 x i8] c"quantity uniform(quantity a, quantity b, long rng?)\00", align 1
@.str.182 = private unnamed_addr constant [18 x i8] c"random/continuous\00", align 1
@.str.183 = private unnamed_addr constant [54 x i8] c"Returns a random number from the Uniform distribution\00", align 1
@.str.184 = private unnamed_addr constant [47 x i8] c"quantity exponential(quantity mean, long rng?)\00", align 1
@.str.185 = private unnamed_addr constant [58 x i8] c"Returns a random number from the Exponential distribution\00", align 1
@.str.186 = private unnamed_addr constant [59 x i8] c"quantity normal(quantity mean, quantity stddev, long rng?)\00", align 1
@.str.187 = private unnamed_addr constant [53 x i8] c"Returns a random number from the Normal distribution\00", align 1
@.str.188 = private unnamed_addr constant [64 x i8] c"quantity truncnormal(quantity mean, quantity stddev, long rng?)\00", align 1
@.str.189 = private unnamed_addr constant [63 x i8] c"Returns a random number from the truncated Normal distribution\00", align 1
@.str.190 = private unnamed_addr constant [58 x i8] c"quantity gamma_d(double alpha, quantity theta, long rng?)\00", align 1
@.str.191 = private unnamed_addr constant [52 x i8] c"Returns a random number from the Gamma distribution\00", align 1
@.str.192 = private unnamed_addr constant [53 x i8] c"double beta(double alpha1, double alpha2, long rng?)\00", align 1
@.str.193 = private unnamed_addr constant [51 x i8] c"Returns a random number from the Beta distribution\00", align 1
@.str.194 = private unnamed_addr constant [52 x i8] c"quantity erlang_k(long k, quantity mean, long rng?)\00", align 1
@.str.195 = private unnamed_addr constant [53 x i8] c"Returns a random number from the Erlang distribution\00", align 1
@.str.196 = private unnamed_addr constant [66 x i8] c"erlang_k(): k parameter (number of phases) must be positive (k=%g\00", align 1
@.str.197 = private unnamed_addr constant [37 x i8] c"double chi_square(long k, long rng?)\00", align 1
@.str.198 = private unnamed_addr constant [57 x i8] c"Returns a random number from the Chi-square distribution\00", align 1
@.str.199 = private unnamed_addr constant [70 x i8] c"chi_square(): k parameter (degrees of freedom) must be positive (k=%g\00", align 1
@.str.200 = private unnamed_addr constant [36 x i8] c"double student_t(long i, long rng?)\00", align 1
@.str.201 = private unnamed_addr constant [56 x i8] c"Returns a random number from the Student-t distribution\00", align 1
@.str.202 = private unnamed_addr constant [69 x i8] c"student_t(): i parameter (degrees of freedom) must be positive (i=%g\00", align 1
@.str.203 = private unnamed_addr constant [51 x i8] c"quantity cauchy(quantity a, quantity b, long rng?)\00", align 1
@.str.204 = private unnamed_addr constant [53 x i8] c"Returns a random number from the Cauchy distribution\00", align 1
@.str.205 = private unnamed_addr constant [63 x i8] c"quantity triang(quantity a, quantity b, quantity c, long rng?)\00", align 1
@.str.206 = private unnamed_addr constant [57 x i8] c"Returns a random number from the Triangular distribution\00", align 1
@.str.207 = private unnamed_addr constant [48 x i8] c"double lognormal(double m, double w, long rng?)\00", align 1
@.str.208 = private unnamed_addr constant [56 x i8] c"Returns a random number from the Lognormal distribution\00", align 1
@.str.209 = private unnamed_addr constant [52 x i8] c"quantity weibull(quantity a, quantity b, long rng?)\00", align 1
@.str.210 = private unnamed_addr constant [54 x i8] c"Returns a random number from the Weibull distribution\00", align 1
@.str.211 = private unnamed_addr constant [69 x i8] c"quantity pareto_shifted(double a, quantity b, quantity c, long rng?)\00", align 1
@.str.212 = private unnamed_addr constant [61 x i8] c"Returns a random number from the Pareto-shifted distribution\00", align 1
@.str.213 = private unnamed_addr constant [43 x i8] c"long intuniform(long a, long b, long rng?)\00", align 1
@.str.214 = private unnamed_addr constant [16 x i8] c"random/discrete\00", align 1
@.str.215 = private unnamed_addr constant [57 x i8] c"Returns a random number from the Intuniform distribution\00", align 1
@.str.216 = private unnamed_addr constant [36 x i8] c"long bernoulli(double p, long rng?)\00", align 1
@.str.217 = private unnamed_addr constant [56 x i8] c"Returns a random number from the Bernoulli distribution\00", align 1
@_ZN11cSimulation6simPtrE = external dso_local global %class.cSimulation*, align 8
@_ZN11cSimulation5evPtrE = external dso_local global %class.cEnvir*, align 8
@.str.218 = private unnamed_addr constant [43 x i8] c"long binomial(long n, double p, long rng?)\00", align 1
@.str.219 = private unnamed_addr constant [55 x i8] c"Returns a random number from the Binomial distribution\00", align 1
@.str.220 = private unnamed_addr constant [36 x i8] c"long geometric(double p, long rng?)\00", align 1
@.str.221 = private unnamed_addr constant [56 x i8] c"Returns a random number from the Geometric distribution\00", align 1
@.str.222 = private unnamed_addr constant [46 x i8] c"long negbinomial(long n, double p, long rng?)\00", align 1
@.str.223 = private unnamed_addr constant [58 x i8] c"Returns a random number from the Negbinomial distribution\00", align 1
@.str.224 = private unnamed_addr constant [39 x i8] c"long poisson(double lambda, long rng?)\00", align 1
@.str.225 = private unnamed_addr constant [54 x i8] c"Returns a random number from the Poisson distribution\00", align 1
@llvm.global_ctors = appending global [1 x { i32, void ()*, i8* }] [{ i32, void ()*, i8* } { i32 65535, void ()* @_GLOBAL__sub_I_nedfunctions.cc, i8* null }]

; Function Attrs: noinline uwtable
define internal void @__cxx_global_var_init() #0 section ".text.startup" !dbg !2383 {
entry:
  call void @_ZNSt8ios_base4InitC1Ev(%"class.std::ios_base::Init"* @_ZStL8__ioinit), !dbg !2384
  %0 = call i32 @__cxa_atexit(void (i8*)* bitcast (void (%"class.std::ios_base::Init"*)* @_ZNSt8ios_base4InitD1Ev to void (i8*)*), i8* getelementptr inbounds (%"class.std::ios_base::Init", %"class.std::ios_base::Init"* @_ZStL8__ioinit, i32 0, i32 0), i8* @__dso_handle) #3, !dbg !2384
  ret void, !dbg !2384
}

declare dso_local void @_ZNSt8ios_base4InitC1Ev(%"class.std::ios_base::Init"*) unnamed_addr #1

; Function Attrs: nounwind
declare dso_local void @_ZNSt8ios_base4InitD1Ev(%"class.std::ios_base::Init"*) unnamed_addr #2

; Function Attrs: nounwind
declare dso_local i32 @__cxa_atexit(void (i8*)*, i8*, i8*) #3

; Function Attrs: noinline nounwind uwtable
define dso_local void @_Z18nedfunctions_dummyv() #4 !dbg !2385 {
entry:
  ret void, !dbg !2386
}

; Function Attrs: noinline uwtable
define internal void @__cxx_global_var_init.1() #0 section ".text.startup" !dbg !2387 {
entry:
  call void @_ZN16ExecuteOnStartupC1EPFvvE(%class.ExecuteOnStartup* @_ZN12_GLOBAL__N_118__onstartup_obj_51E, void ()* @_ZN12_GLOBAL__N_119__onstartup_func_51Ev), !dbg !2388
  %0 = call i32 @__cxa_atexit(void (i8*)* bitcast (void (%class.ExecuteOnStartup*)* @_ZN16ExecuteOnStartupD1Ev to void (i8*)*), i8* bitcast (%class.ExecuteOnStartup* @_ZN12_GLOBAL__N_118__onstartup_obj_51E to i8*), i8* @__dso_handle) #3, !dbg !2388
  ret void, !dbg !2388
}

; Function Attrs: noinline uwtable
define internal void @_ZN12_GLOBAL__N_119__onstartup_func_51Ev() #0 personality i8* bitcast (i32 (...)* @__gxx_personality_v0 to i8*) !dbg !2389 {
entry:
  %exn.slot = alloca i8*
  %ehselector.slot = alloca i32
  %call = call %class.cRegistrationList* @_ZN23cGlobalRegistrationList11getInstanceEv(%class.cGlobalRegistrationList* @nedFunctions), !dbg !2390
  %call1 = call i8* @_Znwm(i64 120) #12, !dbg !2390
  %0 = bitcast i8* %call1 to %class.cMathFunction*, !dbg !2390
  invoke void @_ZN13cMathFunctionC1EPKcPFddEiS1_S1_(%class.cMathFunction* %0, i8* getelementptr inbounds ([5 x i8], [5 x i8]* @.str, i64 0, i64 0), double (double)* @acos, i32 1, i8* getelementptr inbounds ([5 x i8], [5 x i8]* @.str.69, i64 0, i64 0), i8* getelementptr inbounds ([65 x i8], [65 x i8]* @.str.70, i64 0, i64 0))
          to label %invoke.cont unwind label %lpad, !dbg !2390

invoke.cont:                                      ; preds = %entry
  %1 = bitcast %class.cMathFunction* %0 to %class.cOwnedObject*, !dbg !2390
  %2 = bitcast %class.cRegistrationList* %call to void (%class.cRegistrationList*, %class.cOwnedObject*)***, !dbg !2390
  %vtable = load void (%class.cRegistrationList*, %class.cOwnedObject*)**, void (%class.cRegistrationList*, %class.cOwnedObject*)*** %2, align 8, !dbg !2390
  %vfn = getelementptr inbounds void (%class.cRegistrationList*, %class.cOwnedObject*)*, void (%class.cRegistrationList*, %class.cOwnedObject*)** %vtable, i64 22, !dbg !2390
  %3 = load void (%class.cRegistrationList*, %class.cOwnedObject*)*, void (%class.cRegistrationList*, %class.cOwnedObject*)** %vfn, align 8, !dbg !2390
  call void %3(%class.cRegistrationList* %call, %class.cOwnedObject* %1), !dbg !2390
  ret void, !dbg !2390

lpad:                                             ; preds = %entry
  %4 = landingpad { i8*, i32 }
          cleanup, !dbg !2390
  %5 = extractvalue { i8*, i32 } %4, 0, !dbg !2390
  store i8* %5, i8** %exn.slot, align 8, !dbg !2390
  %6 = extractvalue { i8*, i32 } %4, 1, !dbg !2390
  store i32 %6, i32* %ehselector.slot, align 4, !dbg !2390
  call void @_ZdlPv(i8* %call1) #13, !dbg !2390
  br label %eh.resume, !dbg !2390

eh.resume:                                        ; preds = %lpad
  %exn = load i8*, i8** %exn.slot, align 8, !dbg !2390
  %sel = load i32, i32* %ehselector.slot, align 4, !dbg !2390
  %lpad.val = insertvalue { i8*, i32 } undef, i8* %exn, 0, !dbg !2390
  %lpad.val2 = insertvalue { i8*, i32 } %lpad.val, i32 %sel, 1, !dbg !2390
  resume { i8*, i32 } %lpad.val2, !dbg !2390
}

declare dso_local void @_ZN16ExecuteOnStartupC1EPFvvE(%class.ExecuteOnStartup*, void ()*) unnamed_addr #1

; Function Attrs: nounwind
declare dso_local void @_ZN16ExecuteOnStartupD1Ev(%class.ExecuteOnStartup*) unnamed_addr #2

; Function Attrs: noinline uwtable
define internal void @__cxx_global_var_init.2() #0 section ".text.startup" !dbg !2391 {
entry:
  call void @_ZN16ExecuteOnStartupC1EPFvvE(%class.ExecuteOnStartup* @_ZN12_GLOBAL__N_118__onstartup_obj_52E, void ()* @_ZN12_GLOBAL__N_119__onstartup_func_52Ev), !dbg !2392
  %0 = call i32 @__cxa_atexit(void (i8*)* bitcast (void (%class.ExecuteOnStartup*)* @_ZN16ExecuteOnStartupD1Ev to void (i8*)*), i8* bitcast (%class.ExecuteOnStartup* @_ZN12_GLOBAL__N_118__onstartup_obj_52E to i8*), i8* @__dso_handle) #3, !dbg !2392
  ret void, !dbg !2392
}

; Function Attrs: noinline uwtable
define internal void @_ZN12_GLOBAL__N_119__onstartup_func_52Ev() #0 personality i8* bitcast (i32 (...)* @__gxx_personality_v0 to i8*) !dbg !2393 {
entry:
  %exn.slot = alloca i8*
  %ehselector.slot = alloca i32
  %call = call %class.cRegistrationList* @_ZN23cGlobalRegistrationList11getInstanceEv(%class.cGlobalRegistrationList* @nedFunctions), !dbg !2394
  %call1 = call i8* @_Znwm(i64 120) #12, !dbg !2394
  %0 = bitcast i8* %call1 to %class.cMathFunction*, !dbg !2394
  invoke void @_ZN13cMathFunctionC1EPKcPFddEiS1_S1_(%class.cMathFunction* %0, i8* getelementptr inbounds ([5 x i8], [5 x i8]* @.str.71, i64 0, i64 0), double (double)* @asin, i32 1, i8* getelementptr inbounds ([5 x i8], [5 x i8]* @.str.69, i64 0, i64 0), i8* getelementptr inbounds ([65 x i8], [65 x i8]* @.str.70, i64 0, i64 0))
          to label %invoke.cont unwind label %lpad, !dbg !2394

invoke.cont:                                      ; preds = %entry
  %1 = bitcast %class.cMathFunction* %0 to %class.cOwnedObject*, !dbg !2394
  %2 = bitcast %class.cRegistrationList* %call to void (%class.cRegistrationList*, %class.cOwnedObject*)***, !dbg !2394
  %vtable = load void (%class.cRegistrationList*, %class.cOwnedObject*)**, void (%class.cRegistrationList*, %class.cOwnedObject*)*** %2, align 8, !dbg !2394
  %vfn = getelementptr inbounds void (%class.cRegistrationList*, %class.cOwnedObject*)*, void (%class.cRegistrationList*, %class.cOwnedObject*)** %vtable, i64 22, !dbg !2394
  %3 = load void (%class.cRegistrationList*, %class.cOwnedObject*)*, void (%class.cRegistrationList*, %class.cOwnedObject*)** %vfn, align 8, !dbg !2394
  call void %3(%class.cRegistrationList* %call, %class.cOwnedObject* %1), !dbg !2394
  ret void, !dbg !2394

lpad:                                             ; preds = %entry
  %4 = landingpad { i8*, i32 }
          cleanup, !dbg !2394
  %5 = extractvalue { i8*, i32 } %4, 0, !dbg !2394
  store i8* %5, i8** %exn.slot, align 8, !dbg !2394
  %6 = extractvalue { i8*, i32 } %4, 1, !dbg !2394
  store i32 %6, i32* %ehselector.slot, align 4, !dbg !2394
  call void @_ZdlPv(i8* %call1) #13, !dbg !2394
  br label %eh.resume, !dbg !2394

eh.resume:                                        ; preds = %lpad
  %exn = load i8*, i8** %exn.slot, align 8, !dbg !2394
  %sel = load i32, i32* %ehselector.slot, align 4, !dbg !2394
  %lpad.val = insertvalue { i8*, i32 } undef, i8* %exn, 0, !dbg !2394
  %lpad.val2 = insertvalue { i8*, i32 } %lpad.val, i32 %sel, 1, !dbg !2394
  resume { i8*, i32 } %lpad.val2, !dbg !2394
}

; Function Attrs: noinline uwtable
define internal void @__cxx_global_var_init.3() #0 section ".text.startup" !dbg !2395 {
entry:
  call void @_ZN16ExecuteOnStartupC1EPFvvE(%class.ExecuteOnStartup* @_ZN12_GLOBAL__N_118__onstartup_obj_53E, void ()* @_ZN12_GLOBAL__N_119__onstartup_func_53Ev), !dbg !2396
  %0 = call i32 @__cxa_atexit(void (i8*)* bitcast (void (%class.ExecuteOnStartup*)* @_ZN16ExecuteOnStartupD1Ev to void (i8*)*), i8* bitcast (%class.ExecuteOnStartup* @_ZN12_GLOBAL__N_118__onstartup_obj_53E to i8*), i8* @__dso_handle) #3, !dbg !2396
  ret void, !dbg !2396
}

; Function Attrs: noinline uwtable
define internal void @_ZN12_GLOBAL__N_119__onstartup_func_53Ev() #0 personality i8* bitcast (i32 (...)* @__gxx_personality_v0 to i8*) !dbg !2397 {
entry:
  %exn.slot = alloca i8*
  %ehselector.slot = alloca i32
  %call = call %class.cRegistrationList* @_ZN23cGlobalRegistrationList11getInstanceEv(%class.cGlobalRegistrationList* @nedFunctions), !dbg !2398
  %call1 = call i8* @_Znwm(i64 120) #12, !dbg !2398
  %0 = bitcast i8* %call1 to %class.cMathFunction*, !dbg !2398
  invoke void @_ZN13cMathFunctionC1EPKcPFddEiS1_S1_(%class.cMathFunction* %0, i8* getelementptr inbounds ([5 x i8], [5 x i8]* @.str.72, i64 0, i64 0), double (double)* @atan, i32 1, i8* getelementptr inbounds ([5 x i8], [5 x i8]* @.str.69, i64 0, i64 0), i8* getelementptr inbounds ([65 x i8], [65 x i8]* @.str.70, i64 0, i64 0))
          to label %invoke.cont unwind label %lpad, !dbg !2398

invoke.cont:                                      ; preds = %entry
  %1 = bitcast %class.cMathFunction* %0 to %class.cOwnedObject*, !dbg !2398
  %2 = bitcast %class.cRegistrationList* %call to void (%class.cRegistrationList*, %class.cOwnedObject*)***, !dbg !2398
  %vtable = load void (%class.cRegistrationList*, %class.cOwnedObject*)**, void (%class.cRegistrationList*, %class.cOwnedObject*)*** %2, align 8, !dbg !2398
  %vfn = getelementptr inbounds void (%class.cRegistrationList*, %class.cOwnedObject*)*, void (%class.cRegistrationList*, %class.cOwnedObject*)** %vtable, i64 22, !dbg !2398
  %3 = load void (%class.cRegistrationList*, %class.cOwnedObject*)*, void (%class.cRegistrationList*, %class.cOwnedObject*)** %vfn, align 8, !dbg !2398
  call void %3(%class.cRegistrationList* %call, %class.cOwnedObject* %1), !dbg !2398
  ret void, !dbg !2398

lpad:                                             ; preds = %entry
  %4 = landingpad { i8*, i32 }
          cleanup, !dbg !2398
  %5 = extractvalue { i8*, i32 } %4, 0, !dbg !2398
  store i8* %5, i8** %exn.slot, align 8, !dbg !2398
  %6 = extractvalue { i8*, i32 } %4, 1, !dbg !2398
  store i32 %6, i32* %ehselector.slot, align 4, !dbg !2398
  call void @_ZdlPv(i8* %call1) #13, !dbg !2398
  br label %eh.resume, !dbg !2398

eh.resume:                                        ; preds = %lpad
  %exn = load i8*, i8** %exn.slot, align 8, !dbg !2398
  %sel = load i32, i32* %ehselector.slot, align 4, !dbg !2398
  %lpad.val = insertvalue { i8*, i32 } undef, i8* %exn, 0, !dbg !2398
  %lpad.val2 = insertvalue { i8*, i32 } %lpad.val, i32 %sel, 1, !dbg !2398
  resume { i8*, i32 } %lpad.val2, !dbg !2398
}

; Function Attrs: noinline uwtable
define internal void @__cxx_global_var_init.4() #0 section ".text.startup" !dbg !2399 {
entry:
  call void @_ZN16ExecuteOnStartupC1EPFvvE(%class.ExecuteOnStartup* @_ZN12_GLOBAL__N_118__onstartup_obj_54E, void ()* @_ZN12_GLOBAL__N_119__onstartup_func_54Ev), !dbg !2400
  %0 = call i32 @__cxa_atexit(void (i8*)* bitcast (void (%class.ExecuteOnStartup*)* @_ZN16ExecuteOnStartupD1Ev to void (i8*)*), i8* bitcast (%class.ExecuteOnStartup* @_ZN12_GLOBAL__N_118__onstartup_obj_54E to i8*), i8* @__dso_handle) #3, !dbg !2400
  ret void, !dbg !2400
}

; Function Attrs: noinline uwtable
define internal void @_ZN12_GLOBAL__N_119__onstartup_func_54Ev() #0 personality i8* bitcast (i32 (...)* @__gxx_personality_v0 to i8*) !dbg !2401 {
entry:
  %exn.slot = alloca i8*
  %ehselector.slot = alloca i32
  %call = call %class.cRegistrationList* @_ZN23cGlobalRegistrationList11getInstanceEv(%class.cGlobalRegistrationList* @nedFunctions), !dbg !2402
  %call1 = call i8* @_Znwm(i64 120) #12, !dbg !2402
  %0 = bitcast i8* %call1 to %class.cMathFunction*, !dbg !2402
  invoke void @_ZN13cMathFunctionC1EPKcPFdddEiS1_S1_(%class.cMathFunction* %0, i8* getelementptr inbounds ([6 x i8], [6 x i8]* @.str.73, i64 0, i64 0), double (double, double)* @atan2, i32 2, i8* getelementptr inbounds ([5 x i8], [5 x i8]* @.str.69, i64 0, i64 0), i8* getelementptr inbounds ([65 x i8], [65 x i8]* @.str.70, i64 0, i64 0))
          to label %invoke.cont unwind label %lpad, !dbg !2402

invoke.cont:                                      ; preds = %entry
  %1 = bitcast %class.cMathFunction* %0 to %class.cOwnedObject*, !dbg !2402
  %2 = bitcast %class.cRegistrationList* %call to void (%class.cRegistrationList*, %class.cOwnedObject*)***, !dbg !2402
  %vtable = load void (%class.cRegistrationList*, %class.cOwnedObject*)**, void (%class.cRegistrationList*, %class.cOwnedObject*)*** %2, align 8, !dbg !2402
  %vfn = getelementptr inbounds void (%class.cRegistrationList*, %class.cOwnedObject*)*, void (%class.cRegistrationList*, %class.cOwnedObject*)** %vtable, i64 22, !dbg !2402
  %3 = load void (%class.cRegistrationList*, %class.cOwnedObject*)*, void (%class.cRegistrationList*, %class.cOwnedObject*)** %vfn, align 8, !dbg !2402
  call void %3(%class.cRegistrationList* %call, %class.cOwnedObject* %1), !dbg !2402
  ret void, !dbg !2402

lpad:                                             ; preds = %entry
  %4 = landingpad { i8*, i32 }
          cleanup, !dbg !2402
  %5 = extractvalue { i8*, i32 } %4, 0, !dbg !2402
  store i8* %5, i8** %exn.slot, align 8, !dbg !2402
  %6 = extractvalue { i8*, i32 } %4, 1, !dbg !2402
  store i32 %6, i32* %ehselector.slot, align 4, !dbg !2402
  call void @_ZdlPv(i8* %call1) #13, !dbg !2402
  br label %eh.resume, !dbg !2402

eh.resume:                                        ; preds = %lpad
  %exn = load i8*, i8** %exn.slot, align 8, !dbg !2402
  %sel = load i32, i32* %ehselector.slot, align 4, !dbg !2402
  %lpad.val = insertvalue { i8*, i32 } undef, i8* %exn, 0, !dbg !2402
  %lpad.val2 = insertvalue { i8*, i32 } %lpad.val, i32 %sel, 1, !dbg !2402
  resume { i8*, i32 } %lpad.val2, !dbg !2402
}

; Function Attrs: noinline uwtable
define internal void @__cxx_global_var_init.5() #0 section ".text.startup" !dbg !2403 {
entry:
  call void @_ZN16ExecuteOnStartupC1EPFvvE(%class.ExecuteOnStartup* @_ZN12_GLOBAL__N_118__onstartup_obj_56E, void ()* @_ZN12_GLOBAL__N_119__onstartup_func_56Ev), !dbg !2404
  %0 = call i32 @__cxa_atexit(void (i8*)* bitcast (void (%class.ExecuteOnStartup*)* @_ZN16ExecuteOnStartupD1Ev to void (i8*)*), i8* bitcast (%class.ExecuteOnStartup* @_ZN12_GLOBAL__N_118__onstartup_obj_56E to i8*), i8* @__dso_handle) #3, !dbg !2404
  ret void, !dbg !2404
}

; Function Attrs: noinline uwtable
define internal void @_ZN12_GLOBAL__N_119__onstartup_func_56Ev() #0 personality i8* bitcast (i32 (...)* @__gxx_personality_v0 to i8*) !dbg !2405 {
entry:
  %exn.slot = alloca i8*
  %ehselector.slot = alloca i32
  %call = call %class.cRegistrationList* @_ZN23cGlobalRegistrationList11getInstanceEv(%class.cGlobalRegistrationList* @nedFunctions), !dbg !2406
  %call1 = call i8* @_Znwm(i64 120) #12, !dbg !2406
  %0 = bitcast i8* %call1 to %class.cMathFunction*, !dbg !2406
  invoke void @_ZN13cMathFunctionC1EPKcPFddEiS1_S1_(%class.cMathFunction* %0, i8* getelementptr inbounds ([4 x i8], [4 x i8]* @.str.74, i64 0, i64 0), double (double)* @sin, i32 1, i8* getelementptr inbounds ([5 x i8], [5 x i8]* @.str.69, i64 0, i64 0), i8* getelementptr inbounds ([65 x i8], [65 x i8]* @.str.70, i64 0, i64 0))
          to label %invoke.cont unwind label %lpad, !dbg !2406

invoke.cont:                                      ; preds = %entry
  %1 = bitcast %class.cMathFunction* %0 to %class.cOwnedObject*, !dbg !2406
  %2 = bitcast %class.cRegistrationList* %call to void (%class.cRegistrationList*, %class.cOwnedObject*)***, !dbg !2406
  %vtable = load void (%class.cRegistrationList*, %class.cOwnedObject*)**, void (%class.cRegistrationList*, %class.cOwnedObject*)*** %2, align 8, !dbg !2406
  %vfn = getelementptr inbounds void (%class.cRegistrationList*, %class.cOwnedObject*)*, void (%class.cRegistrationList*, %class.cOwnedObject*)** %vtable, i64 22, !dbg !2406
  %3 = load void (%class.cRegistrationList*, %class.cOwnedObject*)*, void (%class.cRegistrationList*, %class.cOwnedObject*)** %vfn, align 8, !dbg !2406
  call void %3(%class.cRegistrationList* %call, %class.cOwnedObject* %1), !dbg !2406
  ret void, !dbg !2406

lpad:                                             ; preds = %entry
  %4 = landingpad { i8*, i32 }
          cleanup, !dbg !2406
  %5 = extractvalue { i8*, i32 } %4, 0, !dbg !2406
  store i8* %5, i8** %exn.slot, align 8, !dbg !2406
  %6 = extractvalue { i8*, i32 } %4, 1, !dbg !2406
  store i32 %6, i32* %ehselector.slot, align 4, !dbg !2406
  call void @_ZdlPv(i8* %call1) #13, !dbg !2406
  br label %eh.resume, !dbg !2406

eh.resume:                                        ; preds = %lpad
  %exn = load i8*, i8** %exn.slot, align 8, !dbg !2406
  %sel = load i32, i32* %ehselector.slot, align 4, !dbg !2406
  %lpad.val = insertvalue { i8*, i32 } undef, i8* %exn, 0, !dbg !2406
  %lpad.val2 = insertvalue { i8*, i32 } %lpad.val, i32 %sel, 1, !dbg !2406
  resume { i8*, i32 } %lpad.val2, !dbg !2406
}

; Function Attrs: noinline uwtable
define internal void @__cxx_global_var_init.6() #0 section ".text.startup" !dbg !2407 {
entry:
  call void @_ZN16ExecuteOnStartupC1EPFvvE(%class.ExecuteOnStartup* @_ZN12_GLOBAL__N_118__onstartup_obj_57E, void ()* @_ZN12_GLOBAL__N_119__onstartup_func_57Ev), !dbg !2408
  %0 = call i32 @__cxa_atexit(void (i8*)* bitcast (void (%class.ExecuteOnStartup*)* @_ZN16ExecuteOnStartupD1Ev to void (i8*)*), i8* bitcast (%class.ExecuteOnStartup* @_ZN12_GLOBAL__N_118__onstartup_obj_57E to i8*), i8* @__dso_handle) #3, !dbg !2408
  ret void, !dbg !2408
}

; Function Attrs: noinline uwtable
define internal void @_ZN12_GLOBAL__N_119__onstartup_func_57Ev() #0 personality i8* bitcast (i32 (...)* @__gxx_personality_v0 to i8*) !dbg !2409 {
entry:
  %exn.slot = alloca i8*
  %ehselector.slot = alloca i32
  %call = call %class.cRegistrationList* @_ZN23cGlobalRegistrationList11getInstanceEv(%class.cGlobalRegistrationList* @nedFunctions), !dbg !2410
  %call1 = call i8* @_Znwm(i64 120) #12, !dbg !2410
  %0 = bitcast i8* %call1 to %class.cMathFunction*, !dbg !2410
  invoke void @_ZN13cMathFunctionC1EPKcPFddEiS1_S1_(%class.cMathFunction* %0, i8* getelementptr inbounds ([4 x i8], [4 x i8]* @.str.75, i64 0, i64 0), double (double)* @cos, i32 1, i8* getelementptr inbounds ([5 x i8], [5 x i8]* @.str.69, i64 0, i64 0), i8* getelementptr inbounds ([65 x i8], [65 x i8]* @.str.70, i64 0, i64 0))
          to label %invoke.cont unwind label %lpad, !dbg !2410

invoke.cont:                                      ; preds = %entry
  %1 = bitcast %class.cMathFunction* %0 to %class.cOwnedObject*, !dbg !2410
  %2 = bitcast %class.cRegistrationList* %call to void (%class.cRegistrationList*, %class.cOwnedObject*)***, !dbg !2410
  %vtable = load void (%class.cRegistrationList*, %class.cOwnedObject*)**, void (%class.cRegistrationList*, %class.cOwnedObject*)*** %2, align 8, !dbg !2410
  %vfn = getelementptr inbounds void (%class.cRegistrationList*, %class.cOwnedObject*)*, void (%class.cRegistrationList*, %class.cOwnedObject*)** %vtable, i64 22, !dbg !2410
  %3 = load void (%class.cRegistrationList*, %class.cOwnedObject*)*, void (%class.cRegistrationList*, %class.cOwnedObject*)** %vfn, align 8, !dbg !2410
  call void %3(%class.cRegistrationList* %call, %class.cOwnedObject* %1), !dbg !2410
  ret void, !dbg !2410

lpad:                                             ; preds = %entry
  %4 = landingpad { i8*, i32 }
          cleanup, !dbg !2410
  %5 = extractvalue { i8*, i32 } %4, 0, !dbg !2410
  store i8* %5, i8** %exn.slot, align 8, !dbg !2410
  %6 = extractvalue { i8*, i32 } %4, 1, !dbg !2410
  store i32 %6, i32* %ehselector.slot, align 4, !dbg !2410
  call void @_ZdlPv(i8* %call1) #13, !dbg !2410
  br label %eh.resume, !dbg !2410

eh.resume:                                        ; preds = %lpad
  %exn = load i8*, i8** %exn.slot, align 8, !dbg !2410
  %sel = load i32, i32* %ehselector.slot, align 4, !dbg !2410
  %lpad.val = insertvalue { i8*, i32 } undef, i8* %exn, 0, !dbg !2410
  %lpad.val2 = insertvalue { i8*, i32 } %lpad.val, i32 %sel, 1, !dbg !2410
  resume { i8*, i32 } %lpad.val2, !dbg !2410
}

; Function Attrs: noinline uwtable
define internal void @__cxx_global_var_init.7() #0 section ".text.startup" !dbg !2411 {
entry:
  call void @_ZN16ExecuteOnStartupC1EPFvvE(%class.ExecuteOnStartup* @_ZN12_GLOBAL__N_118__onstartup_obj_58E, void ()* @_ZN12_GLOBAL__N_119__onstartup_func_58Ev), !dbg !2412
  %0 = call i32 @__cxa_atexit(void (i8*)* bitcast (void (%class.ExecuteOnStartup*)* @_ZN16ExecuteOnStartupD1Ev to void (i8*)*), i8* bitcast (%class.ExecuteOnStartup* @_ZN12_GLOBAL__N_118__onstartup_obj_58E to i8*), i8* @__dso_handle) #3, !dbg !2412
  ret void, !dbg !2412
}

; Function Attrs: noinline uwtable
define internal void @_ZN12_GLOBAL__N_119__onstartup_func_58Ev() #0 personality i8* bitcast (i32 (...)* @__gxx_personality_v0 to i8*) !dbg !2413 {
entry:
  %exn.slot = alloca i8*
  %ehselector.slot = alloca i32
  %call = call %class.cRegistrationList* @_ZN23cGlobalRegistrationList11getInstanceEv(%class.cGlobalRegistrationList* @nedFunctions), !dbg !2414
  %call1 = call i8* @_Znwm(i64 120) #12, !dbg !2414
  %0 = bitcast i8* %call1 to %class.cMathFunction*, !dbg !2414
  invoke void @_ZN13cMathFunctionC1EPKcPFddEiS1_S1_(%class.cMathFunction* %0, i8* getelementptr inbounds ([4 x i8], [4 x i8]* @.str.76, i64 0, i64 0), double (double)* @tan, i32 1, i8* getelementptr inbounds ([5 x i8], [5 x i8]* @.str.69, i64 0, i64 0), i8* getelementptr inbounds ([65 x i8], [65 x i8]* @.str.70, i64 0, i64 0))
          to label %invoke.cont unwind label %lpad, !dbg !2414

invoke.cont:                                      ; preds = %entry
  %1 = bitcast %class.cMathFunction* %0 to %class.cOwnedObject*, !dbg !2414
  %2 = bitcast %class.cRegistrationList* %call to void (%class.cRegistrationList*, %class.cOwnedObject*)***, !dbg !2414
  %vtable = load void (%class.cRegistrationList*, %class.cOwnedObject*)**, void (%class.cRegistrationList*, %class.cOwnedObject*)*** %2, align 8, !dbg !2414
  %vfn = getelementptr inbounds void (%class.cRegistrationList*, %class.cOwnedObject*)*, void (%class.cRegistrationList*, %class.cOwnedObject*)** %vtable, i64 22, !dbg !2414
  %3 = load void (%class.cRegistrationList*, %class.cOwnedObject*)*, void (%class.cRegistrationList*, %class.cOwnedObject*)** %vfn, align 8, !dbg !2414
  call void %3(%class.cRegistrationList* %call, %class.cOwnedObject* %1), !dbg !2414
  ret void, !dbg !2414

lpad:                                             ; preds = %entry
  %4 = landingpad { i8*, i32 }
          cleanup, !dbg !2414
  %5 = extractvalue { i8*, i32 } %4, 0, !dbg !2414
  store i8* %5, i8** %exn.slot, align 8, !dbg !2414
  %6 = extractvalue { i8*, i32 } %4, 1, !dbg !2414
  store i32 %6, i32* %ehselector.slot, align 4, !dbg !2414
  call void @_ZdlPv(i8* %call1) #13, !dbg !2414
  br label %eh.resume, !dbg !2414

eh.resume:                                        ; preds = %lpad
  %exn = load i8*, i8** %exn.slot, align 8, !dbg !2414
  %sel = load i32, i32* %ehselector.slot, align 4, !dbg !2414
  %lpad.val = insertvalue { i8*, i32 } undef, i8* %exn, 0, !dbg !2414
  %lpad.val2 = insertvalue { i8*, i32 } %lpad.val, i32 %sel, 1, !dbg !2414
  resume { i8*, i32 } %lpad.val2, !dbg !2414
}

; Function Attrs: noinline uwtable
define internal void @__cxx_global_var_init.8() #0 section ".text.startup" !dbg !2415 {
entry:
  call void @_ZN16ExecuteOnStartupC1EPFvvE(%class.ExecuteOnStartup* @_ZN12_GLOBAL__N_118__onstartup_obj_60E, void ()* @_ZN12_GLOBAL__N_119__onstartup_func_60Ev), !dbg !2416
  %0 = call i32 @__cxa_atexit(void (i8*)* bitcast (void (%class.ExecuteOnStartup*)* @_ZN16ExecuteOnStartupD1Ev to void (i8*)*), i8* bitcast (%class.ExecuteOnStartup* @_ZN12_GLOBAL__N_118__onstartup_obj_60E to i8*), i8* @__dso_handle) #3, !dbg !2416
  ret void, !dbg !2416
}

; Function Attrs: noinline uwtable
define internal void @_ZN12_GLOBAL__N_119__onstartup_func_60Ev() #0 personality i8* bitcast (i32 (...)* @__gxx_personality_v0 to i8*) !dbg !2417 {
entry:
  %exn.slot = alloca i8*
  %ehselector.slot = alloca i32
  %call = call %class.cRegistrationList* @_ZN23cGlobalRegistrationList11getInstanceEv(%class.cGlobalRegistrationList* @nedFunctions), !dbg !2418
  %call1 = call i8* @_Znwm(i64 120) #12, !dbg !2418
  %0 = bitcast i8* %call1 to %class.cMathFunction*, !dbg !2418
  invoke void @_ZN13cMathFunctionC1EPKcPFddEiS1_S1_(%class.cMathFunction* %0, i8* getelementptr inbounds ([5 x i8], [5 x i8]* @.str.77, i64 0, i64 0), double (double)* @ceil, i32 1, i8* getelementptr inbounds ([5 x i8], [5 x i8]* @.str.69, i64 0, i64 0), i8* getelementptr inbounds ([54 x i8], [54 x i8]* @.str.78, i64 0, i64 0))
          to label %invoke.cont unwind label %lpad, !dbg !2418

invoke.cont:                                      ; preds = %entry
  %1 = bitcast %class.cMathFunction* %0 to %class.cOwnedObject*, !dbg !2418
  %2 = bitcast %class.cRegistrationList* %call to void (%class.cRegistrationList*, %class.cOwnedObject*)***, !dbg !2418
  %vtable = load void (%class.cRegistrationList*, %class.cOwnedObject*)**, void (%class.cRegistrationList*, %class.cOwnedObject*)*** %2, align 8, !dbg !2418
  %vfn = getelementptr inbounds void (%class.cRegistrationList*, %class.cOwnedObject*)*, void (%class.cRegistrationList*, %class.cOwnedObject*)** %vtable, i64 22, !dbg !2418
  %3 = load void (%class.cRegistrationList*, %class.cOwnedObject*)*, void (%class.cRegistrationList*, %class.cOwnedObject*)** %vfn, align 8, !dbg !2418
  call void %3(%class.cRegistrationList* %call, %class.cOwnedObject* %1), !dbg !2418
  ret void, !dbg !2418

lpad:                                             ; preds = %entry
  %4 = landingpad { i8*, i32 }
          cleanup, !dbg !2418
  %5 = extractvalue { i8*, i32 } %4, 0, !dbg !2418
  store i8* %5, i8** %exn.slot, align 8, !dbg !2418
  %6 = extractvalue { i8*, i32 } %4, 1, !dbg !2418
  store i32 %6, i32* %ehselector.slot, align 4, !dbg !2418
  call void @_ZdlPv(i8* %call1) #13, !dbg !2418
  br label %eh.resume, !dbg !2418

eh.resume:                                        ; preds = %lpad
  %exn = load i8*, i8** %exn.slot, align 8, !dbg !2418
  %sel = load i32, i32* %ehselector.slot, align 4, !dbg !2418
  %lpad.val = insertvalue { i8*, i32 } undef, i8* %exn, 0, !dbg !2418
  %lpad.val2 = insertvalue { i8*, i32 } %lpad.val, i32 %sel, 1, !dbg !2418
  resume { i8*, i32 } %lpad.val2, !dbg !2418
}

; Function Attrs: noinline uwtable
define internal void @__cxx_global_var_init.9() #0 section ".text.startup" !dbg !2419 {
entry:
  call void @_ZN16ExecuteOnStartupC1EPFvvE(%class.ExecuteOnStartup* @_ZN12_GLOBAL__N_118__onstartup_obj_61E, void ()* @_ZN12_GLOBAL__N_119__onstartup_func_61Ev), !dbg !2420
  %0 = call i32 @__cxa_atexit(void (i8*)* bitcast (void (%class.ExecuteOnStartup*)* @_ZN16ExecuteOnStartupD1Ev to void (i8*)*), i8* bitcast (%class.ExecuteOnStartup* @_ZN12_GLOBAL__N_118__onstartup_obj_61E to i8*), i8* @__dso_handle) #3, !dbg !2420
  ret void, !dbg !2420
}

; Function Attrs: noinline uwtable
define internal void @_ZN12_GLOBAL__N_119__onstartup_func_61Ev() #0 personality i8* bitcast (i32 (...)* @__gxx_personality_v0 to i8*) !dbg !2421 {
entry:
  %exn.slot = alloca i8*
  %ehselector.slot = alloca i32
  %call = call %class.cRegistrationList* @_ZN23cGlobalRegistrationList11getInstanceEv(%class.cGlobalRegistrationList* @nedFunctions), !dbg !2422
  %call1 = call i8* @_Znwm(i64 120) #12, !dbg !2422
  %0 = bitcast i8* %call1 to %class.cMathFunction*, !dbg !2422
  invoke void @_ZN13cMathFunctionC1EPKcPFddEiS1_S1_(%class.cMathFunction* %0, i8* getelementptr inbounds ([6 x i8], [6 x i8]* @.str.79, i64 0, i64 0), double (double)* @floor, i32 1, i8* getelementptr inbounds ([5 x i8], [5 x i8]* @.str.69, i64 0, i64 0), i8* getelementptr inbounds ([52 x i8], [52 x i8]* @.str.80, i64 0, i64 0))
          to label %invoke.cont unwind label %lpad, !dbg !2422

invoke.cont:                                      ; preds = %entry
  %1 = bitcast %class.cMathFunction* %0 to %class.cOwnedObject*, !dbg !2422
  %2 = bitcast %class.cRegistrationList* %call to void (%class.cRegistrationList*, %class.cOwnedObject*)***, !dbg !2422
  %vtable = load void (%class.cRegistrationList*, %class.cOwnedObject*)**, void (%class.cRegistrationList*, %class.cOwnedObject*)*** %2, align 8, !dbg !2422
  %vfn = getelementptr inbounds void (%class.cRegistrationList*, %class.cOwnedObject*)*, void (%class.cRegistrationList*, %class.cOwnedObject*)** %vtable, i64 22, !dbg !2422
  %3 = load void (%class.cRegistrationList*, %class.cOwnedObject*)*, void (%class.cRegistrationList*, %class.cOwnedObject*)** %vfn, align 8, !dbg !2422
  call void %3(%class.cRegistrationList* %call, %class.cOwnedObject* %1), !dbg !2422
  ret void, !dbg !2422

lpad:                                             ; preds = %entry
  %4 = landingpad { i8*, i32 }
          cleanup, !dbg !2422
  %5 = extractvalue { i8*, i32 } %4, 0, !dbg !2422
  store i8* %5, i8** %exn.slot, align 8, !dbg !2422
  %6 = extractvalue { i8*, i32 } %4, 1, !dbg !2422
  store i32 %6, i32* %ehselector.slot, align 4, !dbg !2422
  call void @_ZdlPv(i8* %call1) #13, !dbg !2422
  br label %eh.resume, !dbg !2422

eh.resume:                                        ; preds = %lpad
  %exn = load i8*, i8** %exn.slot, align 8, !dbg !2422
  %sel = load i32, i32* %ehselector.slot, align 4, !dbg !2422
  %lpad.val = insertvalue { i8*, i32 } undef, i8* %exn, 0, !dbg !2422
  %lpad.val2 = insertvalue { i8*, i32 } %lpad.val, i32 %sel, 1, !dbg !2422
  resume { i8*, i32 } %lpad.val2, !dbg !2422
}

; Function Attrs: noinline uwtable
define internal void @__cxx_global_var_init.10() #0 section ".text.startup" !dbg !2423 {
entry:
  call void @_ZN16ExecuteOnStartupC1EPFvvE(%class.ExecuteOnStartup* @_ZN12_GLOBAL__N_118__onstartup_obj_63E, void ()* @_ZN12_GLOBAL__N_119__onstartup_func_63Ev), !dbg !2424
  %0 = call i32 @__cxa_atexit(void (i8*)* bitcast (void (%class.ExecuteOnStartup*)* @_ZN16ExecuteOnStartupD1Ev to void (i8*)*), i8* bitcast (%class.ExecuteOnStartup* @_ZN12_GLOBAL__N_118__onstartup_obj_63E to i8*), i8* @__dso_handle) #3, !dbg !2424
  ret void, !dbg !2424
}

; Function Attrs: noinline uwtable
define internal void @_ZN12_GLOBAL__N_119__onstartup_func_63Ev() #0 personality i8* bitcast (i32 (...)* @__gxx_personality_v0 to i8*) !dbg !2425 {
entry:
  %exn.slot = alloca i8*
  %ehselector.slot = alloca i32
  %call = call %class.cRegistrationList* @_ZN23cGlobalRegistrationList11getInstanceEv(%class.cGlobalRegistrationList* @nedFunctions), !dbg !2426
  %call1 = call i8* @_Znwm(i64 120) #12, !dbg !2426
  %0 = bitcast i8* %call1 to %class.cMathFunction*, !dbg !2426
  invoke void @_ZN13cMathFunctionC1EPKcPFddEiS1_S1_(%class.cMathFunction* %0, i8* getelementptr inbounds ([4 x i8], [4 x i8]* @.str.81, i64 0, i64 0), double (double)* @exp, i32 1, i8* getelementptr inbounds ([5 x i8], [5 x i8]* @.str.69, i64 0, i64 0), i8* getelementptr inbounds ([54 x i8], [54 x i8]* @.str.82, i64 0, i64 0))
          to label %invoke.cont unwind label %lpad, !dbg !2426

invoke.cont:                                      ; preds = %entry
  %1 = bitcast %class.cMathFunction* %0 to %class.cOwnedObject*, !dbg !2426
  %2 = bitcast %class.cRegistrationList* %call to void (%class.cRegistrationList*, %class.cOwnedObject*)***, !dbg !2426
  %vtable = load void (%class.cRegistrationList*, %class.cOwnedObject*)**, void (%class.cRegistrationList*, %class.cOwnedObject*)*** %2, align 8, !dbg !2426
  %vfn = getelementptr inbounds void (%class.cRegistrationList*, %class.cOwnedObject*)*, void (%class.cRegistrationList*, %class.cOwnedObject*)** %vtable, i64 22, !dbg !2426
  %3 = load void (%class.cRegistrationList*, %class.cOwnedObject*)*, void (%class.cRegistrationList*, %class.cOwnedObject*)** %vfn, align 8, !dbg !2426
  call void %3(%class.cRegistrationList* %call, %class.cOwnedObject* %1), !dbg !2426
  ret void, !dbg !2426

lpad:                                             ; preds = %entry
  %4 = landingpad { i8*, i32 }
          cleanup, !dbg !2426
  %5 = extractvalue { i8*, i32 } %4, 0, !dbg !2426
  store i8* %5, i8** %exn.slot, align 8, !dbg !2426
  %6 = extractvalue { i8*, i32 } %4, 1, !dbg !2426
  store i32 %6, i32* %ehselector.slot, align 4, !dbg !2426
  call void @_ZdlPv(i8* %call1) #13, !dbg !2426
  br label %eh.resume, !dbg !2426

eh.resume:                                        ; preds = %lpad
  %exn = load i8*, i8** %exn.slot, align 8, !dbg !2426
  %sel = load i32, i32* %ehselector.slot, align 4, !dbg !2426
  %lpad.val = insertvalue { i8*, i32 } undef, i8* %exn, 0, !dbg !2426
  %lpad.val2 = insertvalue { i8*, i32 } %lpad.val, i32 %sel, 1, !dbg !2426
  resume { i8*, i32 } %lpad.val2, !dbg !2426
}

; Function Attrs: noinline uwtable
define internal void @__cxx_global_var_init.11() #0 section ".text.startup" !dbg !2427 {
entry:
  call void @_ZN16ExecuteOnStartupC1EPFvvE(%class.ExecuteOnStartup* @_ZN12_GLOBAL__N_118__onstartup_obj_64E, void ()* @_ZN12_GLOBAL__N_119__onstartup_func_64Ev), !dbg !2428
  %0 = call i32 @__cxa_atexit(void (i8*)* bitcast (void (%class.ExecuteOnStartup*)* @_ZN16ExecuteOnStartupD1Ev to void (i8*)*), i8* bitcast (%class.ExecuteOnStartup* @_ZN12_GLOBAL__N_118__onstartup_obj_64E to i8*), i8* @__dso_handle) #3, !dbg !2428
  ret void, !dbg !2428
}

; Function Attrs: noinline uwtable
define internal void @_ZN12_GLOBAL__N_119__onstartup_func_64Ev() #0 personality i8* bitcast (i32 (...)* @__gxx_personality_v0 to i8*) !dbg !2429 {
entry:
  %exn.slot = alloca i8*
  %ehselector.slot = alloca i32
  %call = call %class.cRegistrationList* @_ZN23cGlobalRegistrationList11getInstanceEv(%class.cGlobalRegistrationList* @nedFunctions), !dbg !2430
  %call1 = call i8* @_Znwm(i64 120) #12, !dbg !2430
  %0 = bitcast i8* %call1 to %class.cMathFunction*, !dbg !2430
  invoke void @_ZN13cMathFunctionC1EPKcPFdddEiS1_S1_(%class.cMathFunction* %0, i8* getelementptr inbounds ([4 x i8], [4 x i8]* @.str.83, i64 0, i64 0), double (double, double)* @pow, i32 2, i8* getelementptr inbounds ([5 x i8], [5 x i8]* @.str.69, i64 0, i64 0), i8* getelementptr inbounds ([48 x i8], [48 x i8]* @.str.84, i64 0, i64 0))
          to label %invoke.cont unwind label %lpad, !dbg !2430

invoke.cont:                                      ; preds = %entry
  %1 = bitcast %class.cMathFunction* %0 to %class.cOwnedObject*, !dbg !2430
  %2 = bitcast %class.cRegistrationList* %call to void (%class.cRegistrationList*, %class.cOwnedObject*)***, !dbg !2430
  %vtable = load void (%class.cRegistrationList*, %class.cOwnedObject*)**, void (%class.cRegistrationList*, %class.cOwnedObject*)*** %2, align 8, !dbg !2430
  %vfn = getelementptr inbounds void (%class.cRegistrationList*, %class.cOwnedObject*)*, void (%class.cRegistrationList*, %class.cOwnedObject*)** %vtable, i64 22, !dbg !2430
  %3 = load void (%class.cRegistrationList*, %class.cOwnedObject*)*, void (%class.cRegistrationList*, %class.cOwnedObject*)** %vfn, align 8, !dbg !2430
  call void %3(%class.cRegistrationList* %call, %class.cOwnedObject* %1), !dbg !2430
  ret void, !dbg !2430

lpad:                                             ; preds = %entry
  %4 = landingpad { i8*, i32 }
          cleanup, !dbg !2430
  %5 = extractvalue { i8*, i32 } %4, 0, !dbg !2430
  store i8* %5, i8** %exn.slot, align 8, !dbg !2430
  %6 = extractvalue { i8*, i32 } %4, 1, !dbg !2430
  store i32 %6, i32* %ehselector.slot, align 4, !dbg !2430
  call void @_ZdlPv(i8* %call1) #13, !dbg !2430
  br label %eh.resume, !dbg !2430

eh.resume:                                        ; preds = %lpad
  %exn = load i8*, i8** %exn.slot, align 8, !dbg !2430
  %sel = load i32, i32* %ehselector.slot, align 4, !dbg !2430
  %lpad.val = insertvalue { i8*, i32 } undef, i8* %exn, 0, !dbg !2430
  %lpad.val2 = insertvalue { i8*, i32 } %lpad.val, i32 %sel, 1, !dbg !2430
  resume { i8*, i32 } %lpad.val2, !dbg !2430
}

; Function Attrs: noinline uwtable
define internal void @__cxx_global_var_init.12() #0 section ".text.startup" !dbg !2431 {
entry:
  call void @_ZN16ExecuteOnStartupC1EPFvvE(%class.ExecuteOnStartup* @_ZN12_GLOBAL__N_118__onstartup_obj_65E, void ()* @_ZN12_GLOBAL__N_119__onstartup_func_65Ev), !dbg !2432
  %0 = call i32 @__cxa_atexit(void (i8*)* bitcast (void (%class.ExecuteOnStartup*)* @_ZN16ExecuteOnStartupD1Ev to void (i8*)*), i8* bitcast (%class.ExecuteOnStartup* @_ZN12_GLOBAL__N_118__onstartup_obj_65E to i8*), i8* @__dso_handle) #3, !dbg !2432
  ret void, !dbg !2432
}

; Function Attrs: noinline uwtable
define internal void @_ZN12_GLOBAL__N_119__onstartup_func_65Ev() #0 personality i8* bitcast (i32 (...)* @__gxx_personality_v0 to i8*) !dbg !2433 {
entry:
  %exn.slot = alloca i8*
  %ehselector.slot = alloca i32
  %call = call %class.cRegistrationList* @_ZN23cGlobalRegistrationList11getInstanceEv(%class.cGlobalRegistrationList* @nedFunctions), !dbg !2434
  %call1 = call i8* @_Znwm(i64 120) #12, !dbg !2434
  %0 = bitcast i8* %call1 to %class.cMathFunction*, !dbg !2434
  invoke void @_ZN13cMathFunctionC1EPKcPFddEiS1_S1_(%class.cMathFunction* %0, i8* getelementptr inbounds ([5 x i8], [5 x i8]* @.str.85, i64 0, i64 0), double (double)* @sqrt, i32 1, i8* getelementptr inbounds ([5 x i8], [5 x i8]* @.str.69, i64 0, i64 0), i8* getelementptr inbounds ([54 x i8], [54 x i8]* @.str.86, i64 0, i64 0))
          to label %invoke.cont unwind label %lpad, !dbg !2434

invoke.cont:                                      ; preds = %entry
  %1 = bitcast %class.cMathFunction* %0 to %class.cOwnedObject*, !dbg !2434
  %2 = bitcast %class.cRegistrationList* %call to void (%class.cRegistrationList*, %class.cOwnedObject*)***, !dbg !2434
  %vtable = load void (%class.cRegistrationList*, %class.cOwnedObject*)**, void (%class.cRegistrationList*, %class.cOwnedObject*)*** %2, align 8, !dbg !2434
  %vfn = getelementptr inbounds void (%class.cRegistrationList*, %class.cOwnedObject*)*, void (%class.cRegistrationList*, %class.cOwnedObject*)** %vtable, i64 22, !dbg !2434
  %3 = load void (%class.cRegistrationList*, %class.cOwnedObject*)*, void (%class.cRegistrationList*, %class.cOwnedObject*)** %vfn, align 8, !dbg !2434
  call void %3(%class.cRegistrationList* %call, %class.cOwnedObject* %1), !dbg !2434
  ret void, !dbg !2434

lpad:                                             ; preds = %entry
  %4 = landingpad { i8*, i32 }
          cleanup, !dbg !2434
  %5 = extractvalue { i8*, i32 } %4, 0, !dbg !2434
  store i8* %5, i8** %exn.slot, align 8, !dbg !2434
  %6 = extractvalue { i8*, i32 } %4, 1, !dbg !2434
  store i32 %6, i32* %ehselector.slot, align 4, !dbg !2434
  call void @_ZdlPv(i8* %call1) #13, !dbg !2434
  br label %eh.resume, !dbg !2434

eh.resume:                                        ; preds = %lpad
  %exn = load i8*, i8** %exn.slot, align 8, !dbg !2434
  %sel = load i32, i32* %ehselector.slot, align 4, !dbg !2434
  %lpad.val = insertvalue { i8*, i32 } undef, i8* %exn, 0, !dbg !2434
  %lpad.val2 = insertvalue { i8*, i32 } %lpad.val, i32 %sel, 1, !dbg !2434
  resume { i8*, i32 } %lpad.val2, !dbg !2434
}

; Function Attrs: noinline uwtable
define internal void @__cxx_global_var_init.13() #0 section ".text.startup" !dbg !2435 {
entry:
  call void @_ZN16ExecuteOnStartupC1EPFvvE(%class.ExecuteOnStartup* @_ZN12_GLOBAL__N_118__onstartup_obj_67E, void ()* @_ZN12_GLOBAL__N_119__onstartup_func_67Ev), !dbg !2436
  %0 = call i32 @__cxa_atexit(void (i8*)* bitcast (void (%class.ExecuteOnStartup*)* @_ZN16ExecuteOnStartupD1Ev to void (i8*)*), i8* bitcast (%class.ExecuteOnStartup* @_ZN12_GLOBAL__N_118__onstartup_obj_67E to i8*), i8* @__dso_handle) #3, !dbg !2436
  ret void, !dbg !2436
}

; Function Attrs: noinline uwtable
define internal void @_ZN12_GLOBAL__N_119__onstartup_func_67Ev() #0 personality i8* bitcast (i32 (...)* @__gxx_personality_v0 to i8*) !dbg !2437 {
entry:
  %exn.slot = alloca i8*
  %ehselector.slot = alloca i32
  %call = call %class.cRegistrationList* @_ZN23cGlobalRegistrationList11getInstanceEv(%class.cGlobalRegistrationList* @nedFunctions), !dbg !2438
  %call1 = call i8* @_Znwm(i64 120) #12, !dbg !2438
  %0 = bitcast i8* %call1 to %class.cMathFunction*, !dbg !2438
  invoke void @_ZN13cMathFunctionC1EPKcPFdddEiS1_S1_(%class.cMathFunction* %0, i8* getelementptr inbounds ([11 x i8], [11 x i8]* @.str.87, i64 0, i64 0), double (double, double)* @hypot, i32 2, i8* getelementptr inbounds ([5 x i8], [5 x i8]* @.str.69, i64 0, i64 0), i8* getelementptr inbounds ([67 x i8], [67 x i8]* @.str.88, i64 0, i64 0))
          to label %invoke.cont unwind label %lpad, !dbg !2438

invoke.cont:                                      ; preds = %entry
  %1 = bitcast %class.cMathFunction* %0 to %class.cOwnedObject*, !dbg !2438
  %2 = bitcast %class.cRegistrationList* %call to void (%class.cRegistrationList*, %class.cOwnedObject*)***, !dbg !2438
  %vtable = load void (%class.cRegistrationList*, %class.cOwnedObject*)**, void (%class.cRegistrationList*, %class.cOwnedObject*)*** %2, align 8, !dbg !2438
  %vfn = getelementptr inbounds void (%class.cRegistrationList*, %class.cOwnedObject*)*, void (%class.cRegistrationList*, %class.cOwnedObject*)** %vtable, i64 22, !dbg !2438
  %3 = load void (%class.cRegistrationList*, %class.cOwnedObject*)*, void (%class.cRegistrationList*, %class.cOwnedObject*)** %vfn, align 8, !dbg !2438
  call void %3(%class.cRegistrationList* %call, %class.cOwnedObject* %1), !dbg !2438
  ret void, !dbg !2438

lpad:                                             ; preds = %entry
  %4 = landingpad { i8*, i32 }
          cleanup, !dbg !2438
  %5 = extractvalue { i8*, i32 } %4, 0, !dbg !2438
  store i8* %5, i8** %exn.slot, align 8, !dbg !2438
  %6 = extractvalue { i8*, i32 } %4, 1, !dbg !2438
  store i32 %6, i32* %ehselector.slot, align 4, !dbg !2438
  call void @_ZdlPv(i8* %call1) #13, !dbg !2438
  br label %eh.resume, !dbg !2438

eh.resume:                                        ; preds = %lpad
  %exn = load i8*, i8** %exn.slot, align 8, !dbg !2438
  %sel = load i32, i32* %ehselector.slot, align 4, !dbg !2438
  %lpad.val = insertvalue { i8*, i32 } undef, i8* %exn, 0, !dbg !2438
  %lpad.val2 = insertvalue { i8*, i32 } %lpad.val, i32 %sel, 1, !dbg !2438
  resume { i8*, i32 } %lpad.val2, !dbg !2438
}

; Function Attrs: noinline uwtable
define internal void @__cxx_global_var_init.14() #0 section ".text.startup" !dbg !2439 {
entry:
  call void @_ZN16ExecuteOnStartupC1EPFvvE(%class.ExecuteOnStartup* @_ZN12_GLOBAL__N_118__onstartup_obj_69E, void ()* @_ZN12_GLOBAL__N_119__onstartup_func_69Ev), !dbg !2440
  %0 = call i32 @__cxa_atexit(void (i8*)* bitcast (void (%class.ExecuteOnStartup*)* @_ZN16ExecuteOnStartupD1Ev to void (i8*)*), i8* bitcast (%class.ExecuteOnStartup* @_ZN12_GLOBAL__N_118__onstartup_obj_69E to i8*), i8* @__dso_handle) #3, !dbg !2440
  ret void, !dbg !2440
}

; Function Attrs: noinline uwtable
define internal void @_ZN12_GLOBAL__N_119__onstartup_func_69Ev() #0 personality i8* bitcast (i32 (...)* @__gxx_personality_v0 to i8*) !dbg !2441 {
entry:
  %exn.slot = alloca i8*
  %ehselector.slot = alloca i32
  %call = call %class.cRegistrationList* @_ZN23cGlobalRegistrationList11getInstanceEv(%class.cGlobalRegistrationList* @nedFunctions), !dbg !2442
  %call1 = call i8* @_Znwm(i64 120) #12, !dbg !2442
  %0 = bitcast i8* %call1 to %class.cMathFunction*, !dbg !2442
  invoke void @_ZN13cMathFunctionC1EPKcPFddEiS1_S1_(%class.cMathFunction* %0, i8* getelementptr inbounds ([4 x i8], [4 x i8]* @.str.89, i64 0, i64 0), double (double)* @log, i32 1, i8* getelementptr inbounds ([5 x i8], [5 x i8]* @.str.69, i64 0, i64 0), i8* getelementptr inbounds ([60 x i8], [60 x i8]* @.str.90, i64 0, i64 0))
          to label %invoke.cont unwind label %lpad, !dbg !2442

invoke.cont:                                      ; preds = %entry
  %1 = bitcast %class.cMathFunction* %0 to %class.cOwnedObject*, !dbg !2442
  %2 = bitcast %class.cRegistrationList* %call to void (%class.cRegistrationList*, %class.cOwnedObject*)***, !dbg !2442
  %vtable = load void (%class.cRegistrationList*, %class.cOwnedObject*)**, void (%class.cRegistrationList*, %class.cOwnedObject*)*** %2, align 8, !dbg !2442
  %vfn = getelementptr inbounds void (%class.cRegistrationList*, %class.cOwnedObject*)*, void (%class.cRegistrationList*, %class.cOwnedObject*)** %vtable, i64 22, !dbg !2442
  %3 = load void (%class.cRegistrationList*, %class.cOwnedObject*)*, void (%class.cRegistrationList*, %class.cOwnedObject*)** %vfn, align 8, !dbg !2442
  call void %3(%class.cRegistrationList* %call, %class.cOwnedObject* %1), !dbg !2442
  ret void, !dbg !2442

lpad:                                             ; preds = %entry
  %4 = landingpad { i8*, i32 }
          cleanup, !dbg !2442
  %5 = extractvalue { i8*, i32 } %4, 0, !dbg !2442
  store i8* %5, i8** %exn.slot, align 8, !dbg !2442
  %6 = extractvalue { i8*, i32 } %4, 1, !dbg !2442
  store i32 %6, i32* %ehselector.slot, align 4, !dbg !2442
  call void @_ZdlPv(i8* %call1) #13, !dbg !2442
  br label %eh.resume, !dbg !2442

eh.resume:                                        ; preds = %lpad
  %exn = load i8*, i8** %exn.slot, align 8, !dbg !2442
  %sel = load i32, i32* %ehselector.slot, align 4, !dbg !2442
  %lpad.val = insertvalue { i8*, i32 } undef, i8* %exn, 0, !dbg !2442
  %lpad.val2 = insertvalue { i8*, i32 } %lpad.val, i32 %sel, 1, !dbg !2442
  resume { i8*, i32 } %lpad.val2, !dbg !2442
}

; Function Attrs: noinline uwtable
define internal void @__cxx_global_var_init.15() #0 section ".text.startup" !dbg !2443 {
entry:
  call void @_ZN16ExecuteOnStartupC1EPFvvE(%class.ExecuteOnStartup* @_ZN12_GLOBAL__N_118__onstartup_obj_70E, void ()* @_ZN12_GLOBAL__N_119__onstartup_func_70Ev), !dbg !2444
  %0 = call i32 @__cxa_atexit(void (i8*)* bitcast (void (%class.ExecuteOnStartup*)* @_ZN16ExecuteOnStartupD1Ev to void (i8*)*), i8* bitcast (%class.ExecuteOnStartup* @_ZN12_GLOBAL__N_118__onstartup_obj_70E to i8*), i8* @__dso_handle) #3, !dbg !2444
  ret void, !dbg !2444
}

; Function Attrs: noinline uwtable
define internal void @_ZN12_GLOBAL__N_119__onstartup_func_70Ev() #0 personality i8* bitcast (i32 (...)* @__gxx_personality_v0 to i8*) !dbg !2445 {
entry:
  %exn.slot = alloca i8*
  %ehselector.slot = alloca i32
  %call = call %class.cRegistrationList* @_ZN23cGlobalRegistrationList11getInstanceEv(%class.cGlobalRegistrationList* @nedFunctions), !dbg !2446
  %call1 = call i8* @_Znwm(i64 120) #12, !dbg !2446
  %0 = bitcast i8* %call1 to %class.cMathFunction*, !dbg !2446
  invoke void @_ZN13cMathFunctionC1EPKcPFddEiS1_S1_(%class.cMathFunction* %0, i8* getelementptr inbounds ([6 x i8], [6 x i8]* @.str.91, i64 0, i64 0), double (double)* @log10, i32 1, i8* getelementptr inbounds ([5 x i8], [5 x i8]* @.str.69, i64 0, i64 0), i8* getelementptr inbounds ([60 x i8], [60 x i8]* @.str.92, i64 0, i64 0))
          to label %invoke.cont unwind label %lpad, !dbg !2446

invoke.cont:                                      ; preds = %entry
  %1 = bitcast %class.cMathFunction* %0 to %class.cOwnedObject*, !dbg !2446
  %2 = bitcast %class.cRegistrationList* %call to void (%class.cRegistrationList*, %class.cOwnedObject*)***, !dbg !2446
  %vtable = load void (%class.cRegistrationList*, %class.cOwnedObject*)**, void (%class.cRegistrationList*, %class.cOwnedObject*)*** %2, align 8, !dbg !2446
  %vfn = getelementptr inbounds void (%class.cRegistrationList*, %class.cOwnedObject*)*, void (%class.cRegistrationList*, %class.cOwnedObject*)** %vtable, i64 22, !dbg !2446
  %3 = load void (%class.cRegistrationList*, %class.cOwnedObject*)*, void (%class.cRegistrationList*, %class.cOwnedObject*)** %vfn, align 8, !dbg !2446
  call void %3(%class.cRegistrationList* %call, %class.cOwnedObject* %1), !dbg !2446
  ret void, !dbg !2446

lpad:                                             ; preds = %entry
  %4 = landingpad { i8*, i32 }
          cleanup, !dbg !2446
  %5 = extractvalue { i8*, i32 } %4, 0, !dbg !2446
  store i8* %5, i8** %exn.slot, align 8, !dbg !2446
  %6 = extractvalue { i8*, i32 } %4, 1, !dbg !2446
  store i32 %6, i32* %ehselector.slot, align 4, !dbg !2446
  call void @_ZdlPv(i8* %call1) #13, !dbg !2446
  br label %eh.resume, !dbg !2446

eh.resume:                                        ; preds = %lpad
  %exn = load i8*, i8** %exn.slot, align 8, !dbg !2446
  %sel = load i32, i32* %ehselector.slot, align 4, !dbg !2446
  %lpad.val = insertvalue { i8*, i32 } undef, i8* %exn, 0, !dbg !2446
  %lpad.val2 = insertvalue { i8*, i32 } %lpad.val, i32 %sel, 1, !dbg !2446
  resume { i8*, i32 } %lpad.val2, !dbg !2446
}

; Function Attrs: noinline uwtable
define internal void @__cxx_global_var_init.16() #0 section ".text.startup" !dbg !2447 {
entry:
  call void @_ZN16ExecuteOnStartupC1EPFvvE(%class.ExecuteOnStartup* @_ZN12_GLOBAL__N_118__onstartup_obj_80E, void ()* @_ZN12_GLOBAL__N_119__onstartup_func_80Ev), !dbg !2448
  %0 = call i32 @__cxa_atexit(void (i8*)* bitcast (void (%class.ExecuteOnStartup*)* @_ZN16ExecuteOnStartupD1Ev to void (i8*)*), i8* bitcast (%class.ExecuteOnStartup* @_ZN12_GLOBAL__N_118__onstartup_obj_80E to i8*), i8* @__dso_handle) #3, !dbg !2448
  ret void, !dbg !2448
}

; Function Attrs: noinline uwtable
define internal void @_ZN12_GLOBAL__N_119__onstartup_func_80Ev() #0 personality i8* bitcast (i32 (...)* @__gxx_personality_v0 to i8*) !dbg !2449 {
entry:
  %exn.slot = alloca i8*
  %ehselector.slot = alloca i32
  %call = call %class.cRegistrationList* @_ZN23cGlobalRegistrationList11getInstanceEv(%class.cGlobalRegistrationList* @nedFunctions), !dbg !2450
  %call1 = call i8* @_Znwm(i64 192) #12, !dbg !2450
  %0 = bitcast i8* %call1 to %class.cNEDFunction*, !dbg !2450
  invoke void @_ZN12cNEDFunctionC1EPFN18cDynamicExpression5ValueEP10cComponentPS1_iEPKcS8_S8_(%class.cNEDFunction* %0, void (%"struct.cDynamicExpression::Value"*, %class.cComponent*, %"struct.cDynamicExpression::Value"*, i32)* @_ZL9nedf_fabsP10cComponentPN18cDynamicExpression5ValueEi, i8* getelementptr inbounds ([26 x i8], [26 x i8]* @.str.93, i64 0, i64 0), i8* getelementptr inbounds ([5 x i8], [5 x i8]* @.str.69, i64 0, i64 0), i8* getelementptr inbounds ([44 x i8], [44 x i8]* @.str.94, i64 0, i64 0))
          to label %invoke.cont unwind label %lpad, !dbg !2450

invoke.cont:                                      ; preds = %entry
  %1 = bitcast %class.cNEDFunction* %0 to %class.cOwnedObject*, !dbg !2450
  %2 = bitcast %class.cRegistrationList* %call to void (%class.cRegistrationList*, %class.cOwnedObject*)***, !dbg !2450
  %vtable = load void (%class.cRegistrationList*, %class.cOwnedObject*)**, void (%class.cRegistrationList*, %class.cOwnedObject*)*** %2, align 8, !dbg !2450
  %vfn = getelementptr inbounds void (%class.cRegistrationList*, %class.cOwnedObject*)*, void (%class.cRegistrationList*, %class.cOwnedObject*)** %vtable, i64 22, !dbg !2450
  %3 = load void (%class.cRegistrationList*, %class.cOwnedObject*)*, void (%class.cRegistrationList*, %class.cOwnedObject*)** %vfn, align 8, !dbg !2450
  call void %3(%class.cRegistrationList* %call, %class.cOwnedObject* %1), !dbg !2450
  ret void, !dbg !2450

lpad:                                             ; preds = %entry
  %4 = landingpad { i8*, i32 }
          cleanup, !dbg !2450
  %5 = extractvalue { i8*, i32 } %4, 0, !dbg !2450
  store i8* %5, i8** %exn.slot, align 8, !dbg !2450
  %6 = extractvalue { i8*, i32 } %4, 1, !dbg !2450
  store i32 %6, i32* %ehselector.slot, align 4, !dbg !2450
  call void @_ZdlPv(i8* %call1) #13, !dbg !2450
  br label %eh.resume, !dbg !2450

eh.resume:                                        ; preds = %lpad
  %exn = load i8*, i8** %exn.slot, align 8, !dbg !2450
  %sel = load i32, i32* %ehselector.slot, align 4, !dbg !2450
  %lpad.val = insertvalue { i8*, i32 } undef, i8* %exn, 0, !dbg !2450
  %lpad.val2 = insertvalue { i8*, i32 } %lpad.val, i32 %sel, 1, !dbg !2450
  resume { i8*, i32 } %lpad.val2, !dbg !2450
}

; Function Attrs: noinline uwtable
define internal void @__cxx_global_var_init.17() #0 section ".text.startup" !dbg !2451 {
entry:
  call void @_ZN16ExecuteOnStartupC1EPFvvE(%class.ExecuteOnStartup* @_ZN12_GLOBAL__N_118__onstartup_obj_90E, void ()* @_ZN12_GLOBAL__N_119__onstartup_func_90Ev), !dbg !2452
  %0 = call i32 @__cxa_atexit(void (i8*)* bitcast (void (%class.ExecuteOnStartup*)* @_ZN16ExecuteOnStartupD1Ev to void (i8*)*), i8* bitcast (%class.ExecuteOnStartup* @_ZN12_GLOBAL__N_118__onstartup_obj_90E to i8*), i8* @__dso_handle) #3, !dbg !2452
  ret void, !dbg !2452
}

; Function Attrs: noinline uwtable
define internal void @_ZN12_GLOBAL__N_119__onstartup_func_90Ev() #0 personality i8* bitcast (i32 (...)* @__gxx_personality_v0 to i8*) !dbg !2453 {
entry:
  %exn.slot = alloca i8*
  %ehselector.slot = alloca i32
  %call = call %class.cRegistrationList* @_ZN23cGlobalRegistrationList11getInstanceEv(%class.cGlobalRegistrationList* @nedFunctions), !dbg !2454
  %call1 = call i8* @_Znwm(i64 192) #12, !dbg !2454
  %0 = bitcast i8* %call1 to %class.cNEDFunction*, !dbg !2454
  invoke void @_ZN12cNEDFunctionC1EPFN18cDynamicExpression5ValueEP10cComponentPS1_iEPKcS8_S8_(%class.cNEDFunction* %0, void (%"struct.cDynamicExpression::Value"*, %class.cComponent*, %"struct.cDynamicExpression::Value"*, i32)* @_ZL9nedf_fmodP10cComponentPN18cDynamicExpression5ValueEi, i8* getelementptr inbounds ([38 x i8], [38 x i8]* @.str.95, i64 0, i64 0), i8* getelementptr inbounds ([5 x i8], [5 x i8]* @.str.69, i64 0, i64 0), i8* getelementptr inbounds ([84 x i8], [84 x i8]* @.str.96, i64 0, i64 0))
          to label %invoke.cont unwind label %lpad, !dbg !2454

invoke.cont:                                      ; preds = %entry
  %1 = bitcast %class.cNEDFunction* %0 to %class.cOwnedObject*, !dbg !2454
  %2 = bitcast %class.cRegistrationList* %call to void (%class.cRegistrationList*, %class.cOwnedObject*)***, !dbg !2454
  %vtable = load void (%class.cRegistrationList*, %class.cOwnedObject*)**, void (%class.cRegistrationList*, %class.cOwnedObject*)*** %2, align 8, !dbg !2454
  %vfn = getelementptr inbounds void (%class.cRegistrationList*, %class.cOwnedObject*)*, void (%class.cRegistrationList*, %class.cOwnedObject*)** %vtable, i64 22, !dbg !2454
  %3 = load void (%class.cRegistrationList*, %class.cOwnedObject*)*, void (%class.cRegistrationList*, %class.cOwnedObject*)** %vfn, align 8, !dbg !2454
  call void %3(%class.cRegistrationList* %call, %class.cOwnedObject* %1), !dbg !2454
  ret void, !dbg !2454

lpad:                                             ; preds = %entry
  %4 = landingpad { i8*, i32 }
          cleanup, !dbg !2454
  %5 = extractvalue { i8*, i32 } %4, 0, !dbg !2454
  store i8* %5, i8** %exn.slot, align 8, !dbg !2454
  %6 = extractvalue { i8*, i32 } %4, 1, !dbg !2454
  store i32 %6, i32* %ehselector.slot, align 4, !dbg !2454
  call void @_ZdlPv(i8* %call1) #13, !dbg !2454
  br label %eh.resume, !dbg !2454

eh.resume:                                        ; preds = %lpad
  %exn = load i8*, i8** %exn.slot, align 8, !dbg !2454
  %sel = load i32, i32* %ehselector.slot, align 4, !dbg !2454
  %lpad.val = insertvalue { i8*, i32 } undef, i8* %exn, 0, !dbg !2454
  %lpad.val2 = insertvalue { i8*, i32 } %lpad.val, i32 %sel, 1, !dbg !2454
  resume { i8*, i32 } %lpad.val2, !dbg !2454
}

; Function Attrs: noinline uwtable
define internal void @__cxx_global_var_init.18() #0 section ".text.startup" !dbg !2455 {
entry:
  call void @_ZN16ExecuteOnStartupC1EPFvvE(%class.ExecuteOnStartup* @_ZN12_GLOBAL__N_118__onstartup_obj_99E, void ()* @_ZN12_GLOBAL__N_119__onstartup_func_99Ev), !dbg !2456
  %0 = call i32 @__cxa_atexit(void (i8*)* bitcast (void (%class.ExecuteOnStartup*)* @_ZN16ExecuteOnStartupD1Ev to void (i8*)*), i8* bitcast (%class.ExecuteOnStartup* @_ZN12_GLOBAL__N_118__onstartup_obj_99E to i8*), i8* @__dso_handle) #3, !dbg !2456
  ret void, !dbg !2456
}

; Function Attrs: noinline uwtable
define internal void @_ZN12_GLOBAL__N_119__onstartup_func_99Ev() #0 personality i8* bitcast (i32 (...)* @__gxx_personality_v0 to i8*) !dbg !2457 {
entry:
  %exn.slot = alloca i8*
  %ehselector.slot = alloca i32
  %call = call %class.cRegistrationList* @_ZN23cGlobalRegistrationList11getInstanceEv(%class.cGlobalRegistrationList* @nedFunctions), !dbg !2458
  %call1 = call i8* @_Znwm(i64 192) #12, !dbg !2458
  %0 = bitcast i8* %call1 to %class.cNEDFunction*, !dbg !2458
  invoke void @_ZN12cNEDFunctionC1EPFN18cDynamicExpression5ValueEP10cComponentPS1_iEPKcS8_S8_(%class.cNEDFunction* %0, void (%"struct.cDynamicExpression::Value"*, %class.cComponent*, %"struct.cDynamicExpression::Value"*, i32)* @_ZL8nedf_minP10cComponentPN18cDynamicExpression5ValueEi, i8* getelementptr inbounds ([37 x i8], [37 x i8]* @.str.97, i64 0, i64 0), i8* getelementptr inbounds ([5 x i8], [5 x i8]* @.str.69, i64 0, i64 0), i8* getelementptr inbounds ([86 x i8], [86 x i8]* @.str.98, i64 0, i64 0))
          to label %invoke.cont unwind label %lpad, !dbg !2458

invoke.cont:                                      ; preds = %entry
  %1 = bitcast %class.cNEDFunction* %0 to %class.cOwnedObject*, !dbg !2458
  %2 = bitcast %class.cRegistrationList* %call to void (%class.cRegistrationList*, %class.cOwnedObject*)***, !dbg !2458
  %vtable = load void (%class.cRegistrationList*, %class.cOwnedObject*)**, void (%class.cRegistrationList*, %class.cOwnedObject*)*** %2, align 8, !dbg !2458
  %vfn = getelementptr inbounds void (%class.cRegistrationList*, %class.cOwnedObject*)*, void (%class.cRegistrationList*, %class.cOwnedObject*)** %vtable, i64 22, !dbg !2458
  %3 = load void (%class.cRegistrationList*, %class.cOwnedObject*)*, void (%class.cRegistrationList*, %class.cOwnedObject*)** %vfn, align 8, !dbg !2458
  call void %3(%class.cRegistrationList* %call, %class.cOwnedObject* %1), !dbg !2458
  ret void, !dbg !2458

lpad:                                             ; preds = %entry
  %4 = landingpad { i8*, i32 }
          cleanup, !dbg !2458
  %5 = extractvalue { i8*, i32 } %4, 0, !dbg !2458
  store i8* %5, i8** %exn.slot, align 8, !dbg !2458
  %6 = extractvalue { i8*, i32 } %4, 1, !dbg !2458
  store i32 %6, i32* %ehselector.slot, align 4, !dbg !2458
  call void @_ZdlPv(i8* %call1) #13, !dbg !2458
  br label %eh.resume, !dbg !2458

eh.resume:                                        ; preds = %lpad
  %exn = load i8*, i8** %exn.slot, align 8, !dbg !2458
  %sel = load i32, i32* %ehselector.slot, align 4, !dbg !2458
  %lpad.val = insertvalue { i8*, i32 } undef, i8* %exn, 0, !dbg !2458
  %lpad.val2 = insertvalue { i8*, i32 } %lpad.val, i32 %sel, 1, !dbg !2458
  resume { i8*, i32 } %lpad.val2, !dbg !2458
}

; Function Attrs: noinline uwtable
define internal void @__cxx_global_var_init.19() #0 section ".text.startup" !dbg !2459 {
entry:
  call void @_ZN16ExecuteOnStartupC1EPFvvE(%class.ExecuteOnStartup* @_ZN12_GLOBAL__N_119__onstartup_obj_108E, void ()* @_ZN12_GLOBAL__N_120__onstartup_func_108Ev), !dbg !2460
  %0 = call i32 @__cxa_atexit(void (i8*)* bitcast (void (%class.ExecuteOnStartup*)* @_ZN16ExecuteOnStartupD1Ev to void (i8*)*), i8* bitcast (%class.ExecuteOnStartup* @_ZN12_GLOBAL__N_119__onstartup_obj_108E to i8*), i8* @__dso_handle) #3, !dbg !2460
  ret void, !dbg !2460
}

; Function Attrs: noinline uwtable
define internal void @_ZN12_GLOBAL__N_120__onstartup_func_108Ev() #0 personality i8* bitcast (i32 (...)* @__gxx_personality_v0 to i8*) !dbg !2461 {
entry:
  %exn.slot = alloca i8*
  %ehselector.slot = alloca i32
  %call = call %class.cRegistrationList* @_ZN23cGlobalRegistrationList11getInstanceEv(%class.cGlobalRegistrationList* @nedFunctions), !dbg !2462
  %call1 = call i8* @_Znwm(i64 192) #12, !dbg !2462
  %0 = bitcast i8* %call1 to %class.cNEDFunction*, !dbg !2462
  invoke void @_ZN12cNEDFunctionC1EPFN18cDynamicExpression5ValueEP10cComponentPS1_iEPKcS8_S8_(%class.cNEDFunction* %0, void (%"struct.cDynamicExpression::Value"*, %class.cComponent*, %"struct.cDynamicExpression::Value"*, i32)* @_ZL8nedf_maxP10cComponentPN18cDynamicExpression5ValueEi, i8* getelementptr inbounds ([37 x i8], [37 x i8]* @.str.99, i64 0, i64 0), i8* getelementptr inbounds ([5 x i8], [5 x i8]* @.str.69, i64 0, i64 0), i8* getelementptr inbounds ([86 x i8], [86 x i8]* @.str.100, i64 0, i64 0))
          to label %invoke.cont unwind label %lpad, !dbg !2462

invoke.cont:                                      ; preds = %entry
  %1 = bitcast %class.cNEDFunction* %0 to %class.cOwnedObject*, !dbg !2462
  %2 = bitcast %class.cRegistrationList* %call to void (%class.cRegistrationList*, %class.cOwnedObject*)***, !dbg !2462
  %vtable = load void (%class.cRegistrationList*, %class.cOwnedObject*)**, void (%class.cRegistrationList*, %class.cOwnedObject*)*** %2, align 8, !dbg !2462
  %vfn = getelementptr inbounds void (%class.cRegistrationList*, %class.cOwnedObject*)*, void (%class.cRegistrationList*, %class.cOwnedObject*)** %vtable, i64 22, !dbg !2462
  %3 = load void (%class.cRegistrationList*, %class.cOwnedObject*)*, void (%class.cRegistrationList*, %class.cOwnedObject*)** %vfn, align 8, !dbg !2462
  call void %3(%class.cRegistrationList* %call, %class.cOwnedObject* %1), !dbg !2462
  ret void, !dbg !2462

lpad:                                             ; preds = %entry
  %4 = landingpad { i8*, i32 }
          cleanup, !dbg !2462
  %5 = extractvalue { i8*, i32 } %4, 0, !dbg !2462
  store i8* %5, i8** %exn.slot, align 8, !dbg !2462
  %6 = extractvalue { i8*, i32 } %4, 1, !dbg !2462
  store i32 %6, i32* %ehselector.slot, align 4, !dbg !2462
  call void @_ZdlPv(i8* %call1) #13, !dbg !2462
  br label %eh.resume, !dbg !2462

eh.resume:                                        ; preds = %lpad
  %exn = load i8*, i8** %exn.slot, align 8, !dbg !2462
  %sel = load i32, i32* %ehselector.slot, align 4, !dbg !2462
  %lpad.val = insertvalue { i8*, i32 } undef, i8* %exn, 0, !dbg !2462
  %lpad.val2 = insertvalue { i8*, i32 } %lpad.val, i32 %sel, 1, !dbg !2462
  resume { i8*, i32 } %lpad.val2, !dbg !2462
}

; Function Attrs: noinline uwtable
define internal void @__cxx_global_var_init.20() #0 section ".text.startup" !dbg !2463 {
entry:
  call void @_ZN16CommonStringPoolC1Ev(%class.CommonStringPool* @_ZL10stringPool), !dbg !2464
  %0 = call i32 @__cxa_atexit(void (i8*)* bitcast (void (%class.CommonStringPool*)* @_ZN16CommonStringPoolD1Ev to void (i8*)*), i8* getelementptr inbounds (%class.CommonStringPool, %class.CommonStringPool* @_ZL10stringPool, i32 0, i32 0, i32 0, i32 0, i32 0, i32 0, i32 0), i8* @__dso_handle) #3, !dbg !2464
  ret void, !dbg !2464
}

declare dso_local void @_ZN16CommonStringPoolC1Ev(%class.CommonStringPool*) unnamed_addr #1

; Function Attrs: nounwind
declare dso_local void @_ZN16CommonStringPoolD1Ev(%class.CommonStringPool*) unnamed_addr #2

; Function Attrs: noinline uwtable
define internal void @__cxx_global_var_init.21() #0 section ".text.startup" !dbg !2465 {
entry:
  call void @_ZN16ExecuteOnStartupC1EPFvvE(%class.ExecuteOnStartup* @_ZN12_GLOBAL__N_119__onstartup_obj_124E, void ()* @_ZN12_GLOBAL__N_120__onstartup_func_124Ev), !dbg !2466
  %0 = call i32 @__cxa_atexit(void (i8*)* bitcast (void (%class.ExecuteOnStartup*)* @_ZN16ExecuteOnStartupD1Ev to void (i8*)*), i8* bitcast (%class.ExecuteOnStartup* @_ZN12_GLOBAL__N_119__onstartup_obj_124E to i8*), i8* @__dso_handle) #3, !dbg !2466
  ret void, !dbg !2466
}

; Function Attrs: noinline uwtable
define internal void @_ZN12_GLOBAL__N_120__onstartup_func_124Ev() #0 personality i8* bitcast (i32 (...)* @__gxx_personality_v0 to i8*) !dbg !2467 {
entry:
  %exn.slot = alloca i8*
  %ehselector.slot = alloca i32
  %call = call %class.cRegistrationList* @_ZN23cGlobalRegistrationList11getInstanceEv(%class.cGlobalRegistrationList* @nedFunctions), !dbg !2468
  %call1 = call i8* @_Znwm(i64 192) #12, !dbg !2468
  %0 = bitcast i8* %call1 to %class.cNEDFunction*, !dbg !2468
  invoke void @_ZN12cNEDFunctionC1EPFN18cDynamicExpression5ValueEP10cComponentPS1_iEPKcS8_S8_(%class.cNEDFunction* %0, void (%"struct.cDynamicExpression::Value"*, %class.cComponent*, %"struct.cDynamicExpression::Value"*, i32)* @_ZL13nedf_dropUnitP10cComponentPN18cDynamicExpression5ValueEi, i8* getelementptr inbounds ([28 x i8], [28 x i8]* @.str.101, i64 0, i64 0), i8* getelementptr inbounds ([6 x i8], [6 x i8]* @.str.102, i64 0, i64 0), i8* getelementptr inbounds ([49 x i8], [49 x i8]* @.str.103, i64 0, i64 0))
          to label %invoke.cont unwind label %lpad, !dbg !2468

invoke.cont:                                      ; preds = %entry
  %1 = bitcast %class.cNEDFunction* %0 to %class.cOwnedObject*, !dbg !2468
  %2 = bitcast %class.cRegistrationList* %call to void (%class.cRegistrationList*, %class.cOwnedObject*)***, !dbg !2468
  %vtable = load void (%class.cRegistrationList*, %class.cOwnedObject*)**, void (%class.cRegistrationList*, %class.cOwnedObject*)*** %2, align 8, !dbg !2468
  %vfn = getelementptr inbounds void (%class.cRegistrationList*, %class.cOwnedObject*)*, void (%class.cRegistrationList*, %class.cOwnedObject*)** %vtable, i64 22, !dbg !2468
  %3 = load void (%class.cRegistrationList*, %class.cOwnedObject*)*, void (%class.cRegistrationList*, %class.cOwnedObject*)** %vfn, align 8, !dbg !2468
  call void %3(%class.cRegistrationList* %call, %class.cOwnedObject* %1), !dbg !2468
  ret void, !dbg !2468

lpad:                                             ; preds = %entry
  %4 = landingpad { i8*, i32 }
          cleanup, !dbg !2468
  %5 = extractvalue { i8*, i32 } %4, 0, !dbg !2468
  store i8* %5, i8** %exn.slot, align 8, !dbg !2468
  %6 = extractvalue { i8*, i32 } %4, 1, !dbg !2468
  store i32 %6, i32* %ehselector.slot, align 4, !dbg !2468
  call void @_ZdlPv(i8* %call1) #13, !dbg !2468
  br label %eh.resume, !dbg !2468

eh.resume:                                        ; preds = %lpad
  %exn = load i8*, i8** %exn.slot, align 8, !dbg !2468
  %sel = load i32, i32* %ehselector.slot, align 4, !dbg !2468
  %lpad.val = insertvalue { i8*, i32 } undef, i8* %exn, 0, !dbg !2468
  %lpad.val2 = insertvalue { i8*, i32 } %lpad.val, i32 %sel, 1, !dbg !2468
  resume { i8*, i32 } %lpad.val2, !dbg !2468
}

; Function Attrs: noinline uwtable
define internal void @__cxx_global_var_init.22() #0 section ".text.startup" !dbg !2469 {
entry:
  call void @_ZN16ExecuteOnStartupC1EPFvvE(%class.ExecuteOnStartup* @_ZN12_GLOBAL__N_119__onstartup_obj_133E, void ()* @_ZN12_GLOBAL__N_120__onstartup_func_133Ev), !dbg !2470
  %0 = call i32 @__cxa_atexit(void (i8*)* bitcast (void (%class.ExecuteOnStartup*)* @_ZN16ExecuteOnStartupD1Ev to void (i8*)*), i8* bitcast (%class.ExecuteOnStartup* @_ZN12_GLOBAL__N_119__onstartup_obj_133E to i8*), i8* @__dso_handle) #3, !dbg !2470
  ret void, !dbg !2470
}

; Function Attrs: noinline uwtable
define internal void @_ZN12_GLOBAL__N_120__onstartup_func_133Ev() #0 personality i8* bitcast (i32 (...)* @__gxx_personality_v0 to i8*) !dbg !2471 {
entry:
  %exn.slot = alloca i8*
  %ehselector.slot = alloca i32
  %call = call %class.cRegistrationList* @_ZN23cGlobalRegistrationList11getInstanceEv(%class.cGlobalRegistrationList* @nedFunctions), !dbg !2472
  %call1 = call i8* @_Znwm(i64 192) #12, !dbg !2472
  %0 = bitcast i8* %call1 to %class.cNEDFunction*, !dbg !2472
  invoke void @_ZN12cNEDFunctionC1EPFN18cDynamicExpression5ValueEP10cComponentPS1_iEPKcS8_S8_(%class.cNEDFunction* %0, void (%"struct.cDynamicExpression::Value"*, %class.cComponent*, %"struct.cDynamicExpression::Value"*, i32)* @_ZL16nedf_replaceUnitP10cComponentPN18cDynamicExpression5ValueEi, i8* getelementptr inbounds ([46 x i8], [46 x i8]* @.str.104, i64 0, i64 0), i8* getelementptr inbounds ([6 x i8], [6 x i8]* @.str.102, i64 0, i64 0), i8* getelementptr inbounds ([44 x i8], [44 x i8]* @.str.105, i64 0, i64 0))
          to label %invoke.cont unwind label %lpad, !dbg !2472

invoke.cont:                                      ; preds = %entry
  %1 = bitcast %class.cNEDFunction* %0 to %class.cOwnedObject*, !dbg !2472
  %2 = bitcast %class.cRegistrationList* %call to void (%class.cRegistrationList*, %class.cOwnedObject*)***, !dbg !2472
  %vtable = load void (%class.cRegistrationList*, %class.cOwnedObject*)**, void (%class.cRegistrationList*, %class.cOwnedObject*)*** %2, align 8, !dbg !2472
  %vfn = getelementptr inbounds void (%class.cRegistrationList*, %class.cOwnedObject*)*, void (%class.cRegistrationList*, %class.cOwnedObject*)** %vtable, i64 22, !dbg !2472
  %3 = load void (%class.cRegistrationList*, %class.cOwnedObject*)*, void (%class.cRegistrationList*, %class.cOwnedObject*)** %vfn, align 8, !dbg !2472
  call void %3(%class.cRegistrationList* %call, %class.cOwnedObject* %1), !dbg !2472
  ret void, !dbg !2472

lpad:                                             ; preds = %entry
  %4 = landingpad { i8*, i32 }
          cleanup, !dbg !2472
  %5 = extractvalue { i8*, i32 } %4, 0, !dbg !2472
  store i8* %5, i8** %exn.slot, align 8, !dbg !2472
  %6 = extractvalue { i8*, i32 } %4, 1, !dbg !2472
  store i32 %6, i32* %ehselector.slot, align 4, !dbg !2472
  call void @_ZdlPv(i8* %call1) #13, !dbg !2472
  br label %eh.resume, !dbg !2472

eh.resume:                                        ; preds = %lpad
  %exn = load i8*, i8** %exn.slot, align 8, !dbg !2472
  %sel = load i32, i32* %ehselector.slot, align 4, !dbg !2472
  %lpad.val = insertvalue { i8*, i32 } undef, i8* %exn, 0, !dbg !2472
  %lpad.val2 = insertvalue { i8*, i32 } %lpad.val, i32 %sel, 1, !dbg !2472
  resume { i8*, i32 } %lpad.val2, !dbg !2472
}

; Function Attrs: noinline uwtable
define internal void @__cxx_global_var_init.23() #0 section ".text.startup" !dbg !2473 {
entry:
  call void @_ZN16ExecuteOnStartupC1EPFvvE(%class.ExecuteOnStartup* @_ZN12_GLOBAL__N_119__onstartup_obj_144E, void ()* @_ZN12_GLOBAL__N_120__onstartup_func_144Ev), !dbg !2474
  %0 = call i32 @__cxa_atexit(void (i8*)* bitcast (void (%class.ExecuteOnStartup*)* @_ZN16ExecuteOnStartupD1Ev to void (i8*)*), i8* bitcast (%class.ExecuteOnStartup* @_ZN12_GLOBAL__N_119__onstartup_obj_144E to i8*), i8* @__dso_handle) #3, !dbg !2474
  ret void, !dbg !2474
}

; Function Attrs: noinline uwtable
define internal void @_ZN12_GLOBAL__N_120__onstartup_func_144Ev() #0 personality i8* bitcast (i32 (...)* @__gxx_personality_v0 to i8*) !dbg !2475 {
entry:
  %exn.slot = alloca i8*
  %ehselector.slot = alloca i32
  %call = call %class.cRegistrationList* @_ZN23cGlobalRegistrationList11getInstanceEv(%class.cGlobalRegistrationList* @nedFunctions), !dbg !2476
  %call1 = call i8* @_Znwm(i64 192) #12, !dbg !2476
  %0 = bitcast i8* %call1 to %class.cNEDFunction*, !dbg !2476
  invoke void @_ZN12cNEDFunctionC1EPFN18cDynamicExpression5ValueEP10cComponentPS1_iEPKcS8_S8_(%class.cNEDFunction* %0, void (%"struct.cDynamicExpression::Value"*, %class.cComponent*, %"struct.cDynamicExpression::Value"*, i32)* @_ZL16nedf_convertUnitP10cComponentPN18cDynamicExpression5ValueEi, i8* getelementptr inbounds ([46 x i8], [46 x i8]* @.str.106, i64 0, i64 0), i8* getelementptr inbounds ([6 x i8], [6 x i8]* @.str.102, i64 0, i64 0), i8* getelementptr inbounds ([30 x i8], [30 x i8]* @.str.107, i64 0, i64 0))
          to label %invoke.cont unwind label %lpad, !dbg !2476

invoke.cont:                                      ; preds = %entry
  %1 = bitcast %class.cNEDFunction* %0 to %class.cOwnedObject*, !dbg !2476
  %2 = bitcast %class.cRegistrationList* %call to void (%class.cRegistrationList*, %class.cOwnedObject*)***, !dbg !2476
  %vtable = load void (%class.cRegistrationList*, %class.cOwnedObject*)**, void (%class.cRegistrationList*, %class.cOwnedObject*)*** %2, align 8, !dbg !2476
  %vfn = getelementptr inbounds void (%class.cRegistrationList*, %class.cOwnedObject*)*, void (%class.cRegistrationList*, %class.cOwnedObject*)** %vtable, i64 22, !dbg !2476
  %3 = load void (%class.cRegistrationList*, %class.cOwnedObject*)*, void (%class.cRegistrationList*, %class.cOwnedObject*)** %vfn, align 8, !dbg !2476
  call void %3(%class.cRegistrationList* %call, %class.cOwnedObject* %1), !dbg !2476
  ret void, !dbg !2476

lpad:                                             ; preds = %entry
  %4 = landingpad { i8*, i32 }
          cleanup, !dbg !2476
  %5 = extractvalue { i8*, i32 } %4, 0, !dbg !2476
  store i8* %5, i8** %exn.slot, align 8, !dbg !2476
  %6 = extractvalue { i8*, i32 } %4, 1, !dbg !2476
  store i32 %6, i32* %ehselector.slot, align 4, !dbg !2476
  call void @_ZdlPv(i8* %call1) #13, !dbg !2476
  br label %eh.resume, !dbg !2476

eh.resume:                                        ; preds = %lpad
  %exn = load i8*, i8** %exn.slot, align 8, !dbg !2476
  %sel = load i32, i32* %ehselector.slot, align 4, !dbg !2476
  %lpad.val = insertvalue { i8*, i32 } undef, i8* %exn, 0, !dbg !2476
  %lpad.val2 = insertvalue { i8*, i32 } %lpad.val, i32 %sel, 1, !dbg !2476
  resume { i8*, i32 } %lpad.val2, !dbg !2476
}

; Function Attrs: noinline uwtable
define internal void @__cxx_global_var_init.24() #0 section ".text.startup" !dbg !2477 {
entry:
  call void @_ZN16ExecuteOnStartupC1EPFvvE(%class.ExecuteOnStartup* @_ZN12_GLOBAL__N_119__onstartup_obj_152E, void ()* @_ZN12_GLOBAL__N_120__onstartup_func_152Ev), !dbg !2478
  %0 = call i32 @__cxa_atexit(void (i8*)* bitcast (void (%class.ExecuteOnStartup*)* @_ZN16ExecuteOnStartupD1Ev to void (i8*)*), i8* bitcast (%class.ExecuteOnStartup* @_ZN12_GLOBAL__N_119__onstartup_obj_152E to i8*), i8* @__dso_handle) #3, !dbg !2478
  ret void, !dbg !2478
}

; Function Attrs: noinline uwtable
define internal void @_ZN12_GLOBAL__N_120__onstartup_func_152Ev() #0 personality i8* bitcast (i32 (...)* @__gxx_personality_v0 to i8*) !dbg !2479 {
entry:
  %exn.slot = alloca i8*
  %ehselector.slot = alloca i32
  %call = call %class.cRegistrationList* @_ZN23cGlobalRegistrationList11getInstanceEv(%class.cGlobalRegistrationList* @nedFunctions), !dbg !2480
  %call1 = call i8* @_Znwm(i64 192) #12, !dbg !2480
  %0 = bitcast i8* %call1 to %class.cNEDFunction*, !dbg !2480
  invoke void @_ZN12cNEDFunctionC1EPFN18cDynamicExpression5ValueEP10cComponentPS1_iEPKcS8_S8_(%class.cNEDFunction* %0, void (%"struct.cDynamicExpression::Value"*, %class.cComponent*, %"struct.cDynamicExpression::Value"*, i32)* @_ZL11nedf_unitOfP10cComponentPN18cDynamicExpression5ValueEi, i8* getelementptr inbounds ([26 x i8], [26 x i8]* @.str.108, i64 0, i64 0), i8* getelementptr inbounds ([6 x i8], [6 x i8]* @.str.102, i64 0, i64 0), i8* getelementptr inbounds ([40 x i8], [40 x i8]* @.str.109, i64 0, i64 0))
          to label %invoke.cont unwind label %lpad, !dbg !2480

invoke.cont:                                      ; preds = %entry
  %1 = bitcast %class.cNEDFunction* %0 to %class.cOwnedObject*, !dbg !2480
  %2 = bitcast %class.cRegistrationList* %call to void (%class.cRegistrationList*, %class.cOwnedObject*)***, !dbg !2480
  %vtable = load void (%class.cRegistrationList*, %class.cOwnedObject*)**, void (%class.cRegistrationList*, %class.cOwnedObject*)*** %2, align 8, !dbg !2480
  %vfn = getelementptr inbounds void (%class.cRegistrationList*, %class.cOwnedObject*)*, void (%class.cRegistrationList*, %class.cOwnedObject*)** %vtable, i64 22, !dbg !2480
  %3 = load void (%class.cRegistrationList*, %class.cOwnedObject*)*, void (%class.cRegistrationList*, %class.cOwnedObject*)** %vfn, align 8, !dbg !2480
  call void %3(%class.cRegistrationList* %call, %class.cOwnedObject* %1), !dbg !2480
  ret void, !dbg !2480

lpad:                                             ; preds = %entry
  %4 = landingpad { i8*, i32 }
          cleanup, !dbg !2480
  %5 = extractvalue { i8*, i32 } %4, 0, !dbg !2480
  store i8* %5, i8** %exn.slot, align 8, !dbg !2480
  %6 = extractvalue { i8*, i32 } %4, 1, !dbg !2480
  store i32 %6, i32* %ehselector.slot, align 4, !dbg !2480
  call void @_ZdlPv(i8* %call1) #13, !dbg !2480
  br label %eh.resume, !dbg !2480

eh.resume:                                        ; preds = %lpad
  %exn = load i8*, i8** %exn.slot, align 8, !dbg !2480
  %sel = load i32, i32* %ehselector.slot, align 4, !dbg !2480
  %lpad.val = insertvalue { i8*, i32 } undef, i8* %exn, 0, !dbg !2480
  %lpad.val2 = insertvalue { i8*, i32 } %lpad.val, i32 %sel, 1, !dbg !2480
  resume { i8*, i32 } %lpad.val2, !dbg !2480
}

; Function Attrs: noinline uwtable
define internal void @__cxx_global_var_init.25() #0 section ".text.startup" !dbg !2481 {
entry:
  call void @_ZN16ExecuteOnStartupC1EPFvvE(%class.ExecuteOnStartup* @_ZN12_GLOBAL__N_119__onstartup_obj_165E, void ()* @_ZN12_GLOBAL__N_120__onstartup_func_165Ev), !dbg !2482
  %0 = call i32 @__cxa_atexit(void (i8*)* bitcast (void (%class.ExecuteOnStartup*)* @_ZN16ExecuteOnStartupD1Ev to void (i8*)*), i8* bitcast (%class.ExecuteOnStartup* @_ZN12_GLOBAL__N_119__onstartup_obj_165E to i8*), i8* @__dso_handle) #3, !dbg !2482
  ret void, !dbg !2482
}

; Function Attrs: noinline uwtable
define internal void @_ZN12_GLOBAL__N_120__onstartup_func_165Ev() #0 personality i8* bitcast (i32 (...)* @__gxx_personality_v0 to i8*) !dbg !2483 {
entry:
  %exn.slot = alloca i8*
  %ehselector.slot = alloca i32
  %call = call %class.cRegistrationList* @_ZN23cGlobalRegistrationList11getInstanceEv(%class.cGlobalRegistrationList* @nedFunctions), !dbg !2484
  %call1 = call i8* @_Znwm(i64 192) #12, !dbg !2484
  %0 = bitcast i8* %call1 to %class.cNEDFunction*, !dbg !2484
  invoke void @_ZN12cNEDFunctionC1EPFN18cDynamicExpression5ValueEP10cComponentPS1_iEPKcS8_S8_(%class.cNEDFunction* %0, void (%"struct.cDynamicExpression::Value"*, %class.cComponent*, %"struct.cDynamicExpression::Value"*, i32)* @_ZL11nedf_lengthP10cComponentPN18cDynamicExpression5ValueEi, i8* getelementptr inbounds ([22 x i8], [22 x i8]* @.str.111, i64 0, i64 0), i8* getelementptr inbounds ([8 x i8], [8 x i8]* @.str.112, i64 0, i64 0), i8* getelementptr inbounds ([33 x i8], [33 x i8]* @.str.113, i64 0, i64 0))
          to label %invoke.cont unwind label %lpad, !dbg !2484

invoke.cont:                                      ; preds = %entry
  %1 = bitcast %class.cNEDFunction* %0 to %class.cOwnedObject*, !dbg !2484
  %2 = bitcast %class.cRegistrationList* %call to void (%class.cRegistrationList*, %class.cOwnedObject*)***, !dbg !2484
  %vtable = load void (%class.cRegistrationList*, %class.cOwnedObject*)**, void (%class.cRegistrationList*, %class.cOwnedObject*)*** %2, align 8, !dbg !2484
  %vfn = getelementptr inbounds void (%class.cRegistrationList*, %class.cOwnedObject*)*, void (%class.cRegistrationList*, %class.cOwnedObject*)** %vtable, i64 22, !dbg !2484
  %3 = load void (%class.cRegistrationList*, %class.cOwnedObject*)*, void (%class.cRegistrationList*, %class.cOwnedObject*)** %vfn, align 8, !dbg !2484
  call void %3(%class.cRegistrationList* %call, %class.cOwnedObject* %1), !dbg !2484
  ret void, !dbg !2484

lpad:                                             ; preds = %entry
  %4 = landingpad { i8*, i32 }
          cleanup, !dbg !2484
  %5 = extractvalue { i8*, i32 } %4, 0, !dbg !2484
  store i8* %5, i8** %exn.slot, align 8, !dbg !2484
  %6 = extractvalue { i8*, i32 } %4, 1, !dbg !2484
  store i32 %6, i32* %ehselector.slot, align 4, !dbg !2484
  call void @_ZdlPv(i8* %call1) #13, !dbg !2484
  br label %eh.resume, !dbg !2484

eh.resume:                                        ; preds = %lpad
  %exn = load i8*, i8** %exn.slot, align 8, !dbg !2484
  %sel = load i32, i32* %ehselector.slot, align 4, !dbg !2484
  %lpad.val = insertvalue { i8*, i32 } undef, i8* %exn, 0, !dbg !2484
  %lpad.val2 = insertvalue { i8*, i32 } %lpad.val, i32 %sel, 1, !dbg !2484
  resume { i8*, i32 } %lpad.val2, !dbg !2484
}

; Function Attrs: noinline uwtable
define internal void @__cxx_global_var_init.26() #0 section ".text.startup" !dbg !2485 {
entry:
  call void @_ZN16ExecuteOnStartupC1EPFvvE(%class.ExecuteOnStartup* @_ZN12_GLOBAL__N_119__onstartup_obj_173E, void ()* @_ZN12_GLOBAL__N_120__onstartup_func_173Ev), !dbg !2486
  %0 = call i32 @__cxa_atexit(void (i8*)* bitcast (void (%class.ExecuteOnStartup*)* @_ZN16ExecuteOnStartupD1Ev to void (i8*)*), i8* bitcast (%class.ExecuteOnStartup* @_ZN12_GLOBAL__N_119__onstartup_obj_173E to i8*), i8* @__dso_handle) #3, !dbg !2486
  ret void, !dbg !2486
}

; Function Attrs: noinline uwtable
define internal void @_ZN12_GLOBAL__N_120__onstartup_func_173Ev() #0 personality i8* bitcast (i32 (...)* @__gxx_personality_v0 to i8*) !dbg !2487 {
entry:
  %exn.slot = alloca i8*
  %ehselector.slot = alloca i32
  %call = call %class.cRegistrationList* @_ZN23cGlobalRegistrationList11getInstanceEv(%class.cGlobalRegistrationList* @nedFunctions), !dbg !2488
  %call1 = call i8* @_Znwm(i64 192) #12, !dbg !2488
  %0 = bitcast i8* %call1 to %class.cNEDFunction*, !dbg !2488
  invoke void @_ZN12cNEDFunctionC1EPFN18cDynamicExpression5ValueEP10cComponentPS1_iEPKcS8_S8_(%class.cNEDFunction* %0, void (%"struct.cDynamicExpression::Value"*, %class.cComponent*, %"struct.cDynamicExpression::Value"*, i32)* @_ZL13nedf_containsP10cComponentPN18cDynamicExpression5ValueEi, i8* getelementptr inbounds ([39 x i8], [39 x i8]* @.str.114, i64 0, i64 0), i8* getelementptr inbounds ([8 x i8], [8 x i8]* @.str.112, i64 0, i64 0), i8* getelementptr inbounds ([54 x i8], [54 x i8]* @.str.115, i64 0, i64 0))
          to label %invoke.cont unwind label %lpad, !dbg !2488

invoke.cont:                                      ; preds = %entry
  %1 = bitcast %class.cNEDFunction* %0 to %class.cOwnedObject*, !dbg !2488
  %2 = bitcast %class.cRegistrationList* %call to void (%class.cRegistrationList*, %class.cOwnedObject*)***, !dbg !2488
  %vtable = load void (%class.cRegistrationList*, %class.cOwnedObject*)**, void (%class.cRegistrationList*, %class.cOwnedObject*)*** %2, align 8, !dbg !2488
  %vfn = getelementptr inbounds void (%class.cRegistrationList*, %class.cOwnedObject*)*, void (%class.cRegistrationList*, %class.cOwnedObject*)** %vtable, i64 22, !dbg !2488
  %3 = load void (%class.cRegistrationList*, %class.cOwnedObject*)*, void (%class.cRegistrationList*, %class.cOwnedObject*)** %vfn, align 8, !dbg !2488
  call void %3(%class.cRegistrationList* %call, %class.cOwnedObject* %1), !dbg !2488
  ret void, !dbg !2488

lpad:                                             ; preds = %entry
  %4 = landingpad { i8*, i32 }
          cleanup, !dbg !2488
  %5 = extractvalue { i8*, i32 } %4, 0, !dbg !2488
  store i8* %5, i8** %exn.slot, align 8, !dbg !2488
  %6 = extractvalue { i8*, i32 } %4, 1, !dbg !2488
  store i32 %6, i32* %ehselector.slot, align 4, !dbg !2488
  call void @_ZdlPv(i8* %call1) #13, !dbg !2488
  br label %eh.resume, !dbg !2488

eh.resume:                                        ; preds = %lpad
  %exn = load i8*, i8** %exn.slot, align 8, !dbg !2488
  %sel = load i32, i32* %ehselector.slot, align 4, !dbg !2488
  %lpad.val = insertvalue { i8*, i32 } undef, i8* %exn, 0, !dbg !2488
  %lpad.val2 = insertvalue { i8*, i32 } %lpad.val, i32 %sel, 1, !dbg !2488
  resume { i8*, i32 } %lpad.val2, !dbg !2488
}

; Function Attrs: noinline uwtable
define internal void @__cxx_global_var_init.27() #0 section ".text.startup" !dbg !2489 {
entry:
  call void @_ZN16ExecuteOnStartupC1EPFvvE(%class.ExecuteOnStartup* @_ZN12_GLOBAL__N_119__onstartup_obj_189E, void ()* @_ZN12_GLOBAL__N_120__onstartup_func_189Ev), !dbg !2490
  %0 = call i32 @__cxa_atexit(void (i8*)* bitcast (void (%class.ExecuteOnStartup*)* @_ZN16ExecuteOnStartupD1Ev to void (i8*)*), i8* bitcast (%class.ExecuteOnStartup* @_ZN12_GLOBAL__N_119__onstartup_obj_189E to i8*), i8* @__dso_handle) #3, !dbg !2490
  ret void, !dbg !2490
}

; Function Attrs: noinline uwtable
define internal void @_ZN12_GLOBAL__N_120__onstartup_func_189Ev() #0 personality i8* bitcast (i32 (...)* @__gxx_personality_v0 to i8*) !dbg !2491 {
entry:
  %exn.slot = alloca i8*
  %ehselector.slot = alloca i32
  %call = call %class.cRegistrationList* @_ZN23cGlobalRegistrationList11getInstanceEv(%class.cGlobalRegistrationList* @nedFunctions), !dbg !2492
  %call1 = call i8* @_Znwm(i64 192) #12, !dbg !2492
  %0 = bitcast i8* %call1 to %class.cNEDFunction*, !dbg !2492
  invoke void @_ZN12cNEDFunctionC1EPFN18cDynamicExpression5ValueEP10cComponentPS1_iEPKcS8_S8_(%class.cNEDFunction* %0, void (%"struct.cDynamicExpression::Value"*, %class.cComponent*, %"struct.cDynamicExpression::Value"*, i32)* @_ZL14nedf_substringP10cComponentPN18cDynamicExpression5ValueEi, i8* getelementptr inbounds ([48 x i8], [48 x i8]* @.str.116, i64 0, i64 0), i8* getelementptr inbounds ([8 x i8], [8 x i8]* @.str.112, i64 0, i64 0), i8* getelementptr inbounds ([116 x i8], [116 x i8]* @.str.117, i64 0, i64 0))
          to label %invoke.cont unwind label %lpad, !dbg !2492

invoke.cont:                                      ; preds = %entry
  %1 = bitcast %class.cNEDFunction* %0 to %class.cOwnedObject*, !dbg !2492
  %2 = bitcast %class.cRegistrationList* %call to void (%class.cRegistrationList*, %class.cOwnedObject*)***, !dbg !2492
  %vtable = load void (%class.cRegistrationList*, %class.cOwnedObject*)**, void (%class.cRegistrationList*, %class.cOwnedObject*)*** %2, align 8, !dbg !2492
  %vfn = getelementptr inbounds void (%class.cRegistrationList*, %class.cOwnedObject*)*, void (%class.cRegistrationList*, %class.cOwnedObject*)** %vtable, i64 22, !dbg !2492
  %3 = load void (%class.cRegistrationList*, %class.cOwnedObject*)*, void (%class.cRegistrationList*, %class.cOwnedObject*)** %vfn, align 8, !dbg !2492
  call void %3(%class.cRegistrationList* %call, %class.cOwnedObject* %1), !dbg !2492
  ret void, !dbg !2492

lpad:                                             ; preds = %entry
  %4 = landingpad { i8*, i32 }
          cleanup, !dbg !2492
  %5 = extractvalue { i8*, i32 } %4, 0, !dbg !2492
  store i8* %5, i8** %exn.slot, align 8, !dbg !2492
  %6 = extractvalue { i8*, i32 } %4, 1, !dbg !2492
  store i32 %6, i32* %ehselector.slot, align 4, !dbg !2492
  call void @_ZdlPv(i8* %call1) #13, !dbg !2492
  br label %eh.resume, !dbg !2492

eh.resume:                                        ; preds = %lpad
  %exn = load i8*, i8** %exn.slot, align 8, !dbg !2492
  %sel = load i32, i32* %ehselector.slot, align 4, !dbg !2492
  %lpad.val = insertvalue { i8*, i32 } undef, i8* %exn, 0, !dbg !2492
  %lpad.val2 = insertvalue { i8*, i32 } %lpad.val, i32 %sel, 1, !dbg !2492
  resume { i8*, i32 } %lpad.val2, !dbg !2492
}

; Function Attrs: noinline uwtable
define internal void @__cxx_global_var_init.28() #0 section ".text.startup" !dbg !2493 {
entry:
  call void @_ZN16ExecuteOnStartupC1EPFvvE(%class.ExecuteOnStartup* @_ZN12_GLOBAL__N_119__onstartup_obj_198E, void ()* @_ZN12_GLOBAL__N_120__onstartup_func_198Ev), !dbg !2494
  %0 = call i32 @__cxa_atexit(void (i8*)* bitcast (void (%class.ExecuteOnStartup*)* @_ZN16ExecuteOnStartupD1Ev to void (i8*)*), i8* bitcast (%class.ExecuteOnStartup* @_ZN12_GLOBAL__N_119__onstartup_obj_198E to i8*), i8* @__dso_handle) #3, !dbg !2494
  ret void, !dbg !2494
}

; Function Attrs: noinline uwtable
define internal void @_ZN12_GLOBAL__N_120__onstartup_func_198Ev() #0 personality i8* bitcast (i32 (...)* @__gxx_personality_v0 to i8*) !dbg !2495 {
entry:
  %exn.slot = alloca i8*
  %ehselector.slot = alloca i32
  %call = call %class.cRegistrationList* @_ZN23cGlobalRegistrationList11getInstanceEv(%class.cGlobalRegistrationList* @nedFunctions), !dbg !2496
  %call1 = call i8* @_Znwm(i64 192) #12, !dbg !2496
  %0 = bitcast i8* %call1 to %class.cNEDFunction*, !dbg !2496
  invoke void @_ZN12cNEDFunctionC1EPFN18cDynamicExpression5ValueEP10cComponentPS1_iEPKcS8_S8_(%class.cNEDFunction* %0, void (%"struct.cDynamicExpression::Value"*, %class.cComponent*, %"struct.cDynamicExpression::Value"*, i32)* @_ZL20nedf_substringBeforeP10cComponentPN18cDynamicExpression5ValueEi, i8* getelementptr inbounds ([48 x i8], [48 x i8]* @.str.121, i64 0, i64 0), i8* getelementptr inbounds ([8 x i8], [8 x i8]* @.str.112, i64 0, i64 0), i8* getelementptr inbounds ([116 x i8], [116 x i8]* @.str.122, i64 0, i64 0))
          to label %invoke.cont unwind label %lpad, !dbg !2496

invoke.cont:                                      ; preds = %entry
  %1 = bitcast %class.cNEDFunction* %0 to %class.cOwnedObject*, !dbg !2496
  %2 = bitcast %class.cRegistrationList* %call to void (%class.cRegistrationList*, %class.cOwnedObject*)***, !dbg !2496
  %vtable = load void (%class.cRegistrationList*, %class.cOwnedObject*)**, void (%class.cRegistrationList*, %class.cOwnedObject*)*** %2, align 8, !dbg !2496
  %vfn = getelementptr inbounds void (%class.cRegistrationList*, %class.cOwnedObject*)*, void (%class.cRegistrationList*, %class.cOwnedObject*)** %vtable, i64 22, !dbg !2496
  %3 = load void (%class.cRegistrationList*, %class.cOwnedObject*)*, void (%class.cRegistrationList*, %class.cOwnedObject*)** %vfn, align 8, !dbg !2496
  call void %3(%class.cRegistrationList* %call, %class.cOwnedObject* %1), !dbg !2496
  ret void, !dbg !2496

lpad:                                             ; preds = %entry
  %4 = landingpad { i8*, i32 }
          cleanup, !dbg !2496
  %5 = extractvalue { i8*, i32 } %4, 0, !dbg !2496
  store i8* %5, i8** %exn.slot, align 8, !dbg !2496
  %6 = extractvalue { i8*, i32 } %4, 1, !dbg !2496
  store i32 %6, i32* %ehselector.slot, align 4, !dbg !2496
  call void @_ZdlPv(i8* %call1) #13, !dbg !2496
  br label %eh.resume, !dbg !2496

eh.resume:                                        ; preds = %lpad
  %exn = load i8*, i8** %exn.slot, align 8, !dbg !2496
  %sel = load i32, i32* %ehselector.slot, align 4, !dbg !2496
  %lpad.val = insertvalue { i8*, i32 } undef, i8* %exn, 0, !dbg !2496
  %lpad.val2 = insertvalue { i8*, i32 } %lpad.val, i32 %sel, 1, !dbg !2496
  resume { i8*, i32 } %lpad.val2, !dbg !2496
}

; Function Attrs: noinline uwtable
define internal void @__cxx_global_var_init.29() #0 section ".text.startup" !dbg !2497 {
entry:
  call void @_ZN16ExecuteOnStartupC1EPFvvE(%class.ExecuteOnStartup* @_ZN12_GLOBAL__N_119__onstartup_obj_207E, void ()* @_ZN12_GLOBAL__N_120__onstartup_func_207Ev), !dbg !2498
  %0 = call i32 @__cxa_atexit(void (i8*)* bitcast (void (%class.ExecuteOnStartup*)* @_ZN16ExecuteOnStartupD1Ev to void (i8*)*), i8* bitcast (%class.ExecuteOnStartup* @_ZN12_GLOBAL__N_119__onstartup_obj_207E to i8*), i8* @__dso_handle) #3, !dbg !2498
  ret void, !dbg !2498
}

; Function Attrs: noinline uwtable
define internal void @_ZN12_GLOBAL__N_120__onstartup_func_207Ev() #0 personality i8* bitcast (i32 (...)* @__gxx_personality_v0 to i8*) !dbg !2499 {
entry:
  %exn.slot = alloca i8*
  %ehselector.slot = alloca i32
  %call = call %class.cRegistrationList* @_ZN23cGlobalRegistrationList11getInstanceEv(%class.cGlobalRegistrationList* @nedFunctions), !dbg !2500
  %call1 = call i8* @_Znwm(i64 192) #12, !dbg !2500
  %0 = bitcast i8* %call1 to %class.cNEDFunction*, !dbg !2500
  invoke void @_ZN12cNEDFunctionC1EPFN18cDynamicExpression5ValueEP10cComponentPS1_iEPKcS8_S8_(%class.cNEDFunction* %0, void (%"struct.cDynamicExpression::Value"*, %class.cComponent*, %"struct.cDynamicExpression::Value"*, i32)* @_ZL19nedf_substringAfterP10cComponentPN18cDynamicExpression5ValueEi, i8* getelementptr inbounds ([47 x i8], [47 x i8]* @.str.123, i64 0, i64 0), i8* getelementptr inbounds ([8 x i8], [8 x i8]* @.str.112, i64 0, i64 0), i8* getelementptr inbounds ([115 x i8], [115 x i8]* @.str.124, i64 0, i64 0))
          to label %invoke.cont unwind label %lpad, !dbg !2500

invoke.cont:                                      ; preds = %entry
  %1 = bitcast %class.cNEDFunction* %0 to %class.cOwnedObject*, !dbg !2500
  %2 = bitcast %class.cRegistrationList* %call to void (%class.cRegistrationList*, %class.cOwnedObject*)***, !dbg !2500
  %vtable = load void (%class.cRegistrationList*, %class.cOwnedObject*)**, void (%class.cRegistrationList*, %class.cOwnedObject*)*** %2, align 8, !dbg !2500
  %vfn = getelementptr inbounds void (%class.cRegistrationList*, %class.cOwnedObject*)*, void (%class.cRegistrationList*, %class.cOwnedObject*)** %vtable, i64 22, !dbg !2500
  %3 = load void (%class.cRegistrationList*, %class.cOwnedObject*)*, void (%class.cRegistrationList*, %class.cOwnedObject*)** %vfn, align 8, !dbg !2500
  call void %3(%class.cRegistrationList* %call, %class.cOwnedObject* %1), !dbg !2500
  ret void, !dbg !2500

lpad:                                             ; preds = %entry
  %4 = landingpad { i8*, i32 }
          cleanup, !dbg !2500
  %5 = extractvalue { i8*, i32 } %4, 0, !dbg !2500
  store i8* %5, i8** %exn.slot, align 8, !dbg !2500
  %6 = extractvalue { i8*, i32 } %4, 1, !dbg !2500
  store i32 %6, i32* %ehselector.slot, align 4, !dbg !2500
  call void @_ZdlPv(i8* %call1) #13, !dbg !2500
  br label %eh.resume, !dbg !2500

eh.resume:                                        ; preds = %lpad
  %exn = load i8*, i8** %exn.slot, align 8, !dbg !2500
  %sel = load i32, i32* %ehselector.slot, align 4, !dbg !2500
  %lpad.val = insertvalue { i8*, i32 } undef, i8* %exn, 0, !dbg !2500
  %lpad.val2 = insertvalue { i8*, i32 } %lpad.val, i32 %sel, 1, !dbg !2500
  resume { i8*, i32 } %lpad.val2, !dbg !2500
}

; Function Attrs: noinline uwtable
define internal void @__cxx_global_var_init.30() #0 section ".text.startup" !dbg !2501 {
entry:
  call void @_ZN16ExecuteOnStartupC1EPFvvE(%class.ExecuteOnStartup* @_ZN12_GLOBAL__N_119__onstartup_obj_216E, void ()* @_ZN12_GLOBAL__N_120__onstartup_func_216Ev), !dbg !2502
  %0 = call i32 @__cxa_atexit(void (i8*)* bitcast (void (%class.ExecuteOnStartup*)* @_ZN16ExecuteOnStartupD1Ev to void (i8*)*), i8* bitcast (%class.ExecuteOnStartup* @_ZN12_GLOBAL__N_119__onstartup_obj_216E to i8*), i8* @__dso_handle) #3, !dbg !2502
  ret void, !dbg !2502
}

; Function Attrs: noinline uwtable
define internal void @_ZN12_GLOBAL__N_120__onstartup_func_216Ev() #0 personality i8* bitcast (i32 (...)* @__gxx_personality_v0 to i8*) !dbg !2503 {
entry:
  %exn.slot = alloca i8*
  %ehselector.slot = alloca i32
  %call = call %class.cRegistrationList* @_ZN23cGlobalRegistrationList11getInstanceEv(%class.cGlobalRegistrationList* @nedFunctions), !dbg !2504
  %call1 = call i8* @_Znwm(i64 192) #12, !dbg !2504
  %0 = bitcast i8* %call1 to %class.cNEDFunction*, !dbg !2504
  invoke void @_ZN12cNEDFunctionC1EPFN18cDynamicExpression5ValueEP10cComponentPS1_iEPKcS8_S8_(%class.cNEDFunction* %0, void (%"struct.cDynamicExpression::Value"*, %class.cComponent*, %"struct.cDynamicExpression::Value"*, i32)* @_ZL24nedf_substringBeforeLastP10cComponentPN18cDynamicExpression5ValueEi, i8* getelementptr inbounds ([52 x i8], [52 x i8]* @.str.125, i64 0, i64 0), i8* getelementptr inbounds ([8 x i8], [8 x i8]* @.str.112, i64 0, i64 0), i8* getelementptr inbounds ([115 x i8], [115 x i8]* @.str.126, i64 0, i64 0))
          to label %invoke.cont unwind label %lpad, !dbg !2504

invoke.cont:                                      ; preds = %entry
  %1 = bitcast %class.cNEDFunction* %0 to %class.cOwnedObject*, !dbg !2504
  %2 = bitcast %class.cRegistrationList* %call to void (%class.cRegistrationList*, %class.cOwnedObject*)***, !dbg !2504
  %vtable = load void (%class.cRegistrationList*, %class.cOwnedObject*)**, void (%class.cRegistrationList*, %class.cOwnedObject*)*** %2, align 8, !dbg !2504
  %vfn = getelementptr inbounds void (%class.cRegistrationList*, %class.cOwnedObject*)*, void (%class.cRegistrationList*, %class.cOwnedObject*)** %vtable, i64 22, !dbg !2504
  %3 = load void (%class.cRegistrationList*, %class.cOwnedObject*)*, void (%class.cRegistrationList*, %class.cOwnedObject*)** %vfn, align 8, !dbg !2504
  call void %3(%class.cRegistrationList* %call, %class.cOwnedObject* %1), !dbg !2504
  ret void, !dbg !2504

lpad:                                             ; preds = %entry
  %4 = landingpad { i8*, i32 }
          cleanup, !dbg !2504
  %5 = extractvalue { i8*, i32 } %4, 0, !dbg !2504
  store i8* %5, i8** %exn.slot, align 8, !dbg !2504
  %6 = extractvalue { i8*, i32 } %4, 1, !dbg !2504
  store i32 %6, i32* %ehselector.slot, align 4, !dbg !2504
  call void @_ZdlPv(i8* %call1) #13, !dbg !2504
  br label %eh.resume, !dbg !2504

eh.resume:                                        ; preds = %lpad
  %exn = load i8*, i8** %exn.slot, align 8, !dbg !2504
  %sel = load i32, i32* %ehselector.slot, align 4, !dbg !2504
  %lpad.val = insertvalue { i8*, i32 } undef, i8* %exn, 0, !dbg !2504
  %lpad.val2 = insertvalue { i8*, i32 } %lpad.val, i32 %sel, 1, !dbg !2504
  resume { i8*, i32 } %lpad.val2, !dbg !2504
}

; Function Attrs: noinline uwtable
define internal void @__cxx_global_var_init.31() #0 section ".text.startup" !dbg !2505 {
entry:
  call void @_ZN16ExecuteOnStartupC1EPFvvE(%class.ExecuteOnStartup* @_ZN12_GLOBAL__N_119__onstartup_obj_225E, void ()* @_ZN12_GLOBAL__N_120__onstartup_func_225Ev), !dbg !2506
  %0 = call i32 @__cxa_atexit(void (i8*)* bitcast (void (%class.ExecuteOnStartup*)* @_ZN16ExecuteOnStartupD1Ev to void (i8*)*), i8* bitcast (%class.ExecuteOnStartup* @_ZN12_GLOBAL__N_119__onstartup_obj_225E to i8*), i8* @__dso_handle) #3, !dbg !2506
  ret void, !dbg !2506
}

; Function Attrs: noinline uwtable
define internal void @_ZN12_GLOBAL__N_120__onstartup_func_225Ev() #0 personality i8* bitcast (i32 (...)* @__gxx_personality_v0 to i8*) !dbg !2507 {
entry:
  %exn.slot = alloca i8*
  %ehselector.slot = alloca i32
  %call = call %class.cRegistrationList* @_ZN23cGlobalRegistrationList11getInstanceEv(%class.cGlobalRegistrationList* @nedFunctions), !dbg !2508
  %call1 = call i8* @_Znwm(i64 192) #12, !dbg !2508
  %0 = bitcast i8* %call1 to %class.cNEDFunction*, !dbg !2508
  invoke void @_ZN12cNEDFunctionC1EPFN18cDynamicExpression5ValueEP10cComponentPS1_iEPKcS8_S8_(%class.cNEDFunction* %0, void (%"struct.cDynamicExpression::Value"*, %class.cComponent*, %"struct.cDynamicExpression::Value"*, i32)* @_ZL23nedf_substringAfterLastP10cComponentPN18cDynamicExpression5ValueEi, i8* getelementptr inbounds ([51 x i8], [51 x i8]* @.str.127, i64 0, i64 0), i8* getelementptr inbounds ([8 x i8], [8 x i8]* @.str.112, i64 0, i64 0), i8* getelementptr inbounds ([114 x i8], [114 x i8]* @.str.128, i64 0, i64 0))
          to label %invoke.cont unwind label %lpad, !dbg !2508

invoke.cont:                                      ; preds = %entry
  %1 = bitcast %class.cNEDFunction* %0 to %class.cOwnedObject*, !dbg !2508
  %2 = bitcast %class.cRegistrationList* %call to void (%class.cRegistrationList*, %class.cOwnedObject*)***, !dbg !2508
  %vtable = load void (%class.cRegistrationList*, %class.cOwnedObject*)**, void (%class.cRegistrationList*, %class.cOwnedObject*)*** %2, align 8, !dbg !2508
  %vfn = getelementptr inbounds void (%class.cRegistrationList*, %class.cOwnedObject*)*, void (%class.cRegistrationList*, %class.cOwnedObject*)** %vtable, i64 22, !dbg !2508
  %3 = load void (%class.cRegistrationList*, %class.cOwnedObject*)*, void (%class.cRegistrationList*, %class.cOwnedObject*)** %vfn, align 8, !dbg !2508
  call void %3(%class.cRegistrationList* %call, %class.cOwnedObject* %1), !dbg !2508
  ret void, !dbg !2508

lpad:                                             ; preds = %entry
  %4 = landingpad { i8*, i32 }
          cleanup, !dbg !2508
  %5 = extractvalue { i8*, i32 } %4, 0, !dbg !2508
  store i8* %5, i8** %exn.slot, align 8, !dbg !2508
  %6 = extractvalue { i8*, i32 } %4, 1, !dbg !2508
  store i32 %6, i32* %ehselector.slot, align 4, !dbg !2508
  call void @_ZdlPv(i8* %call1) #13, !dbg !2508
  br label %eh.resume, !dbg !2508

eh.resume:                                        ; preds = %lpad
  %exn = load i8*, i8** %exn.slot, align 8, !dbg !2508
  %sel = load i32, i32* %ehselector.slot, align 4, !dbg !2508
  %lpad.val = insertvalue { i8*, i32 } undef, i8* %exn, 0, !dbg !2508
  %lpad.val2 = insertvalue { i8*, i32 } %lpad.val, i32 %sel, 1, !dbg !2508
  resume { i8*, i32 } %lpad.val2, !dbg !2508
}

; Function Attrs: noinline uwtable
define internal void @__cxx_global_var_init.32() #0 section ".text.startup" !dbg !2509 {
entry:
  call void @_ZN16ExecuteOnStartupC1EPFvvE(%class.ExecuteOnStartup* @_ZN12_GLOBAL__N_119__onstartup_obj_233E, void ()* @_ZN12_GLOBAL__N_120__onstartup_func_233Ev), !dbg !2510
  %0 = call i32 @__cxa_atexit(void (i8*)* bitcast (void (%class.ExecuteOnStartup*)* @_ZN16ExecuteOnStartupD1Ev to void (i8*)*), i8* bitcast (%class.ExecuteOnStartup* @_ZN12_GLOBAL__N_119__onstartup_obj_233E to i8*), i8* @__dso_handle) #3, !dbg !2510
  ret void, !dbg !2510
}

; Function Attrs: noinline uwtable
define internal void @_ZN12_GLOBAL__N_120__onstartup_func_233Ev() #0 personality i8* bitcast (i32 (...)* @__gxx_personality_v0 to i8*) !dbg !2511 {
entry:
  %exn.slot = alloca i8*
  %ehselector.slot = alloca i32
  %call = call %class.cRegistrationList* @_ZN23cGlobalRegistrationList11getInstanceEv(%class.cGlobalRegistrationList* @nedFunctions), !dbg !2512
  %call1 = call i8* @_Znwm(i64 192) #12, !dbg !2512
  %0 = bitcast i8* %call1 to %class.cNEDFunction*, !dbg !2512
  invoke void @_ZN12cNEDFunctionC1EPFN18cDynamicExpression5ValueEP10cComponentPS1_iEPKcS8_S8_(%class.cNEDFunction* %0, void (%"struct.cDynamicExpression::Value"*, %class.cComponent*, %"struct.cDynamicExpression::Value"*, i32)* @_ZL15nedf_startsWithP10cComponentPN18cDynamicExpression5ValueEi, i8* getelementptr inbounds ([41 x i8], [41 x i8]* @.str.129, i64 0, i64 0), i8* getelementptr inbounds ([8 x i8], [8 x i8]* @.str.112, i64 0, i64 0), i8* getelementptr inbounds ([52 x i8], [52 x i8]* @.str.130, i64 0, i64 0))
          to label %invoke.cont unwind label %lpad, !dbg !2512

invoke.cont:                                      ; preds = %entry
  %1 = bitcast %class.cNEDFunction* %0 to %class.cOwnedObject*, !dbg !2512
  %2 = bitcast %class.cRegistrationList* %call to void (%class.cRegistrationList*, %class.cOwnedObject*)***, !dbg !2512
  %vtable = load void (%class.cRegistrationList*, %class.cOwnedObject*)**, void (%class.cRegistrationList*, %class.cOwnedObject*)*** %2, align 8, !dbg !2512
  %vfn = getelementptr inbounds void (%class.cRegistrationList*, %class.cOwnedObject*)*, void (%class.cRegistrationList*, %class.cOwnedObject*)** %vtable, i64 22, !dbg !2512
  %3 = load void (%class.cRegistrationList*, %class.cOwnedObject*)*, void (%class.cRegistrationList*, %class.cOwnedObject*)** %vfn, align 8, !dbg !2512
  call void %3(%class.cRegistrationList* %call, %class.cOwnedObject* %1), !dbg !2512
  ret void, !dbg !2512

lpad:                                             ; preds = %entry
  %4 = landingpad { i8*, i32 }
          cleanup, !dbg !2512
  %5 = extractvalue { i8*, i32 } %4, 0, !dbg !2512
  store i8* %5, i8** %exn.slot, align 8, !dbg !2512
  %6 = extractvalue { i8*, i32 } %4, 1, !dbg !2512
  store i32 %6, i32* %ehselector.slot, align 4, !dbg !2512
  call void @_ZdlPv(i8* %call1) #13, !dbg !2512
  br label %eh.resume, !dbg !2512

eh.resume:                                        ; preds = %lpad
  %exn = load i8*, i8** %exn.slot, align 8, !dbg !2512
  %sel = load i32, i32* %ehselector.slot, align 4, !dbg !2512
  %lpad.val = insertvalue { i8*, i32 } undef, i8* %exn, 0, !dbg !2512
  %lpad.val2 = insertvalue { i8*, i32 } %lpad.val, i32 %sel, 1, !dbg !2512
  resume { i8*, i32 } %lpad.val2, !dbg !2512
}

; Function Attrs: noinline uwtable
define internal void @__cxx_global_var_init.33() #0 section ".text.startup" !dbg !2513 {
entry:
  call void @_ZN16ExecuteOnStartupC1EPFvvE(%class.ExecuteOnStartup* @_ZN12_GLOBAL__N_119__onstartup_obj_241E, void ()* @_ZN12_GLOBAL__N_120__onstartup_func_241Ev), !dbg !2514
  %0 = call i32 @__cxa_atexit(void (i8*)* bitcast (void (%class.ExecuteOnStartup*)* @_ZN16ExecuteOnStartupD1Ev to void (i8*)*), i8* bitcast (%class.ExecuteOnStartup* @_ZN12_GLOBAL__N_119__onstartup_obj_241E to i8*), i8* @__dso_handle) #3, !dbg !2514
  ret void, !dbg !2514
}

; Function Attrs: noinline uwtable
define internal void @_ZN12_GLOBAL__N_120__onstartup_func_241Ev() #0 personality i8* bitcast (i32 (...)* @__gxx_personality_v0 to i8*) !dbg !2515 {
entry:
  %exn.slot = alloca i8*
  %ehselector.slot = alloca i32
  %call = call %class.cRegistrationList* @_ZN23cGlobalRegistrationList11getInstanceEv(%class.cGlobalRegistrationList* @nedFunctions), !dbg !2516
  %call1 = call i8* @_Znwm(i64 192) #12, !dbg !2516
  %0 = bitcast i8* %call1 to %class.cNEDFunction*, !dbg !2516
  invoke void @_ZN12cNEDFunctionC1EPFN18cDynamicExpression5ValueEP10cComponentPS1_iEPKcS8_S8_(%class.cNEDFunction* %0, void (%"struct.cDynamicExpression::Value"*, %class.cComponent*, %"struct.cDynamicExpression::Value"*, i32)* @_ZL13nedf_endsWithP10cComponentPN18cDynamicExpression5ValueEi, i8* getelementptr inbounds ([39 x i8], [39 x i8]* @.str.131, i64 0, i64 0), i8* getelementptr inbounds ([8 x i8], [8 x i8]* @.str.112, i64 0, i64 0), i8* getelementptr inbounds ([50 x i8], [50 x i8]* @.str.132, i64 0, i64 0))
          to label %invoke.cont unwind label %lpad, !dbg !2516

invoke.cont:                                      ; preds = %entry
  %1 = bitcast %class.cNEDFunction* %0 to %class.cOwnedObject*, !dbg !2516
  %2 = bitcast %class.cRegistrationList* %call to void (%class.cRegistrationList*, %class.cOwnedObject*)***, !dbg !2516
  %vtable = load void (%class.cRegistrationList*, %class.cOwnedObject*)**, void (%class.cRegistrationList*, %class.cOwnedObject*)*** %2, align 8, !dbg !2516
  %vfn = getelementptr inbounds void (%class.cRegistrationList*, %class.cOwnedObject*)*, void (%class.cRegistrationList*, %class.cOwnedObject*)** %vtable, i64 22, !dbg !2516
  %3 = load void (%class.cRegistrationList*, %class.cOwnedObject*)*, void (%class.cRegistrationList*, %class.cOwnedObject*)** %vfn, align 8, !dbg !2516
  call void %3(%class.cRegistrationList* %call, %class.cOwnedObject* %1), !dbg !2516
  ret void, !dbg !2516

lpad:                                             ; preds = %entry
  %4 = landingpad { i8*, i32 }
          cleanup, !dbg !2516
  %5 = extractvalue { i8*, i32 } %4, 0, !dbg !2516
  store i8* %5, i8** %exn.slot, align 8, !dbg !2516
  %6 = extractvalue { i8*, i32 } %4, 1, !dbg !2516
  store i32 %6, i32* %ehselector.slot, align 4, !dbg !2516
  call void @_ZdlPv(i8* %call1) #13, !dbg !2516
  br label %eh.resume, !dbg !2516

eh.resume:                                        ; preds = %lpad
  %exn = load i8*, i8** %exn.slot, align 8, !dbg !2516
  %sel = load i32, i32* %ehselector.slot, align 4, !dbg !2516
  %lpad.val = insertvalue { i8*, i32 } undef, i8* %exn, 0, !dbg !2516
  %lpad.val2 = insertvalue { i8*, i32 } %lpad.val, i32 %sel, 1, !dbg !2516
  resume { i8*, i32 } %lpad.val2, !dbg !2516
}

; Function Attrs: noinline uwtable
define internal void @__cxx_global_var_init.34() #0 section ".text.startup" !dbg !2517 {
entry:
  call void @_ZN16ExecuteOnStartupC1EPFvvE(%class.ExecuteOnStartup* @_ZN12_GLOBAL__N_119__onstartup_obj_253E, void ()* @_ZN12_GLOBAL__N_120__onstartup_func_253Ev), !dbg !2518
  %0 = call i32 @__cxa_atexit(void (i8*)* bitcast (void (%class.ExecuteOnStartup*)* @_ZN16ExecuteOnStartupD1Ev to void (i8*)*), i8* bitcast (%class.ExecuteOnStartup* @_ZN12_GLOBAL__N_119__onstartup_obj_253E to i8*), i8* @__dso_handle) #3, !dbg !2518
  ret void, !dbg !2518
}

; Function Attrs: noinline uwtable
define internal void @_ZN12_GLOBAL__N_120__onstartup_func_253Ev() #0 personality i8* bitcast (i32 (...)* @__gxx_personality_v0 to i8*) !dbg !2519 {
entry:
  %exn.slot = alloca i8*
  %ehselector.slot = alloca i32
  %call = call %class.cRegistrationList* @_ZN23cGlobalRegistrationList11getInstanceEv(%class.cGlobalRegistrationList* @nedFunctions), !dbg !2520
  %call1 = call i8* @_Znwm(i64 192) #12, !dbg !2520
  %0 = bitcast i8* %call1 to %class.cNEDFunction*, !dbg !2520
  invoke void @_ZN12cNEDFunctionC1EPFN18cDynamicExpression5ValueEP10cComponentPS1_iEPKcS8_S8_(%class.cNEDFunction* %0, void (%"struct.cDynamicExpression::Value"*, %class.cComponent*, %"struct.cDynamicExpression::Value"*, i32)* @_ZL9nedf_tailP10cComponentPN18cDynamicExpression5ValueEi, i8* getelementptr inbounds ([32 x i8], [32 x i8]* @.str.133, i64 0, i64 0), i8* getelementptr inbounds ([8 x i8], [8 x i8]* @.str.112, i64 0, i64 0), i8* getelementptr inbounds ([89 x i8], [89 x i8]* @.str.134, i64 0, i64 0))
          to label %invoke.cont unwind label %lpad, !dbg !2520

invoke.cont:                                      ; preds = %entry
  %1 = bitcast %class.cNEDFunction* %0 to %class.cOwnedObject*, !dbg !2520
  %2 = bitcast %class.cRegistrationList* %call to void (%class.cRegistrationList*, %class.cOwnedObject*)***, !dbg !2520
  %vtable = load void (%class.cRegistrationList*, %class.cOwnedObject*)**, void (%class.cRegistrationList*, %class.cOwnedObject*)*** %2, align 8, !dbg !2520
  %vfn = getelementptr inbounds void (%class.cRegistrationList*, %class.cOwnedObject*)*, void (%class.cRegistrationList*, %class.cOwnedObject*)** %vtable, i64 22, !dbg !2520
  %3 = load void (%class.cRegistrationList*, %class.cOwnedObject*)*, void (%class.cRegistrationList*, %class.cOwnedObject*)** %vfn, align 8, !dbg !2520
  call void %3(%class.cRegistrationList* %call, %class.cOwnedObject* %1), !dbg !2520
  ret void, !dbg !2520

lpad:                                             ; preds = %entry
  %4 = landingpad { i8*, i32 }
          cleanup, !dbg !2520
  %5 = extractvalue { i8*, i32 } %4, 0, !dbg !2520
  store i8* %5, i8** %exn.slot, align 8, !dbg !2520
  %6 = extractvalue { i8*, i32 } %4, 1, !dbg !2520
  store i32 %6, i32* %ehselector.slot, align 4, !dbg !2520
  call void @_ZdlPv(i8* %call1) #13, !dbg !2520
  br label %eh.resume, !dbg !2520

eh.resume:                                        ; preds = %lpad
  %exn = load i8*, i8** %exn.slot, align 8, !dbg !2520
  %sel = load i32, i32* %ehselector.slot, align 4, !dbg !2520
  %lpad.val = insertvalue { i8*, i32 } undef, i8* %exn, 0, !dbg !2520
  %lpad.val2 = insertvalue { i8*, i32 } %lpad.val, i32 %sel, 1, !dbg !2520
  resume { i8*, i32 } %lpad.val2, !dbg !2520
}

; Function Attrs: noinline uwtable
define internal void @__cxx_global_var_init.35() #0 section ".text.startup" !dbg !2521 {
entry:
  call void @_ZN16ExecuteOnStartupC1EPFvvE(%class.ExecuteOnStartup* @_ZN12_GLOBAL__N_119__onstartup_obj_279E, void ()* @_ZN12_GLOBAL__N_120__onstartup_func_279Ev), !dbg !2522
  %0 = call i32 @__cxa_atexit(void (i8*)* bitcast (void (%class.ExecuteOnStartup*)* @_ZN16ExecuteOnStartupD1Ev to void (i8*)*), i8* bitcast (%class.ExecuteOnStartup* @_ZN12_GLOBAL__N_119__onstartup_obj_279E to i8*), i8* @__dso_handle) #3, !dbg !2522
  ret void, !dbg !2522
}

; Function Attrs: noinline uwtable
define internal void @_ZN12_GLOBAL__N_120__onstartup_func_279Ev() #0 personality i8* bitcast (i32 (...)* @__gxx_personality_v0 to i8*) !dbg !2523 {
entry:
  %exn.slot = alloca i8*
  %ehselector.slot = alloca i32
  %call = call %class.cRegistrationList* @_ZN23cGlobalRegistrationList11getInstanceEv(%class.cGlobalRegistrationList* @nedFunctions), !dbg !2524
  %call1 = call i8* @_Znwm(i64 192) #12, !dbg !2524
  %0 = bitcast i8* %call1 to %class.cNEDFunction*, !dbg !2524
  invoke void @_ZN12cNEDFunctionC1EPFN18cDynamicExpression5ValueEP10cComponentPS1_iEPKcS8_S8_(%class.cNEDFunction* %0, void (%"struct.cDynamicExpression::Value"*, %class.cComponent*, %"struct.cDynamicExpression::Value"*, i32)* @_ZL12nedf_replaceP10cComponentPN18cDynamicExpression5ValueEi, i8* getelementptr inbounds ([69 x i8], [69 x i8]* @.str.136, i64 0, i64 0), i8* getelementptr inbounds ([8 x i8], [8 x i8]* @.str.112, i64 0, i64 0), i8* getelementptr inbounds ([127 x i8], [127 x i8]* @.str.137, i64 0, i64 0))
          to label %invoke.cont unwind label %lpad, !dbg !2524

invoke.cont:                                      ; preds = %entry
  %1 = bitcast %class.cNEDFunction* %0 to %class.cOwnedObject*, !dbg !2524
  %2 = bitcast %class.cRegistrationList* %call to void (%class.cRegistrationList*, %class.cOwnedObject*)***, !dbg !2524
  %vtable = load void (%class.cRegistrationList*, %class.cOwnedObject*)**, void (%class.cRegistrationList*, %class.cOwnedObject*)*** %2, align 8, !dbg !2524
  %vfn = getelementptr inbounds void (%class.cRegistrationList*, %class.cOwnedObject*)*, void (%class.cRegistrationList*, %class.cOwnedObject*)** %vtable, i64 22, !dbg !2524
  %3 = load void (%class.cRegistrationList*, %class.cOwnedObject*)*, void (%class.cRegistrationList*, %class.cOwnedObject*)** %vfn, align 8, !dbg !2524
  call void %3(%class.cRegistrationList* %call, %class.cOwnedObject* %1), !dbg !2524
  ret void, !dbg !2524

lpad:                                             ; preds = %entry
  %4 = landingpad { i8*, i32 }
          cleanup, !dbg !2524
  %5 = extractvalue { i8*, i32 } %4, 0, !dbg !2524
  store i8* %5, i8** %exn.slot, align 8, !dbg !2524
  %6 = extractvalue { i8*, i32 } %4, 1, !dbg !2524
  store i32 %6, i32* %ehselector.slot, align 4, !dbg !2524
  call void @_ZdlPv(i8* %call1) #13, !dbg !2524
  br label %eh.resume, !dbg !2524

eh.resume:                                        ; preds = %lpad
  %exn = load i8*, i8** %exn.slot, align 8, !dbg !2524
  %sel = load i32, i32* %ehselector.slot, align 4, !dbg !2524
  %lpad.val = insertvalue { i8*, i32 } undef, i8* %exn, 0, !dbg !2524
  %lpad.val2 = insertvalue { i8*, i32 } %lpad.val, i32 %sel, 1, !dbg !2524
  resume { i8*, i32 } %lpad.val2, !dbg !2524
}

; Function Attrs: noinline uwtable
define internal void @__cxx_global_var_init.36() #0 section ".text.startup" !dbg !2525 {
entry:
  call void @_ZN16ExecuteOnStartupC1EPFvvE(%class.ExecuteOnStartup* @_ZN12_GLOBAL__N_119__onstartup_obj_302E, void ()* @_ZN12_GLOBAL__N_120__onstartup_func_302Ev), !dbg !2526
  %0 = call i32 @__cxa_atexit(void (i8*)* bitcast (void (%class.ExecuteOnStartup*)* @_ZN16ExecuteOnStartupD1Ev to void (i8*)*), i8* bitcast (%class.ExecuteOnStartup* @_ZN12_GLOBAL__N_119__onstartup_obj_302E to i8*), i8* @__dso_handle) #3, !dbg !2526
  ret void, !dbg !2526
}

; Function Attrs: noinline uwtable
define internal void @_ZN12_GLOBAL__N_120__onstartup_func_302Ev() #0 personality i8* bitcast (i32 (...)* @__gxx_personality_v0 to i8*) !dbg !2527 {
entry:
  %exn.slot = alloca i8*
  %ehselector.slot = alloca i32
  %call = call %class.cRegistrationList* @_ZN23cGlobalRegistrationList11getInstanceEv(%class.cGlobalRegistrationList* @nedFunctions), !dbg !2528
  %call1 = call i8* @_Znwm(i64 192) #12, !dbg !2528
  %0 = bitcast i8* %call1 to %class.cNEDFunction*, !dbg !2528
  invoke void @_ZN12cNEDFunctionC1EPFN18cDynamicExpression5ValueEP10cComponentPS1_iEPKcS8_S8_(%class.cNEDFunction* %0, void (%"struct.cDynamicExpression::Value"*, %class.cComponent*, %"struct.cDynamicExpression::Value"*, i32)* @_ZL17nedf_replaceFirstP10cComponentPN18cDynamicExpression5ValueEi, i8* getelementptr inbounds ([74 x i8], [74 x i8]* @.str.140, i64 0, i64 0), i8* getelementptr inbounds ([8 x i8], [8 x i8]* @.str.112, i64 0, i64 0), i8* getelementptr inbounds ([132 x i8], [132 x i8]* @.str.141, i64 0, i64 0))
          to label %invoke.cont unwind label %lpad, !dbg !2528

invoke.cont:                                      ; preds = %entry
  %1 = bitcast %class.cNEDFunction* %0 to %class.cOwnedObject*, !dbg !2528
  %2 = bitcast %class.cRegistrationList* %call to void (%class.cRegistrationList*, %class.cOwnedObject*)***, !dbg !2528
  %vtable = load void (%class.cRegistrationList*, %class.cOwnedObject*)**, void (%class.cRegistrationList*, %class.cOwnedObject*)*** %2, align 8, !dbg !2528
  %vfn = getelementptr inbounds void (%class.cRegistrationList*, %class.cOwnedObject*)*, void (%class.cRegistrationList*, %class.cOwnedObject*)** %vtable, i64 22, !dbg !2528
  %3 = load void (%class.cRegistrationList*, %class.cOwnedObject*)*, void (%class.cRegistrationList*, %class.cOwnedObject*)** %vfn, align 8, !dbg !2528
  call void %3(%class.cRegistrationList* %call, %class.cOwnedObject* %1), !dbg !2528
  ret void, !dbg !2528

lpad:                                             ; preds = %entry
  %4 = landingpad { i8*, i32 }
          cleanup, !dbg !2528
  %5 = extractvalue { i8*, i32 } %4, 0, !dbg !2528
  store i8* %5, i8** %exn.slot, align 8, !dbg !2528
  %6 = extractvalue { i8*, i32 } %4, 1, !dbg !2528
  store i32 %6, i32* %ehselector.slot, align 4, !dbg !2528
  call void @_ZdlPv(i8* %call1) #13, !dbg !2528
  br label %eh.resume, !dbg !2528

eh.resume:                                        ; preds = %lpad
  %exn = load i8*, i8** %exn.slot, align 8, !dbg !2528
  %sel = load i32, i32* %ehselector.slot, align 4, !dbg !2528
  %lpad.val = insertvalue { i8*, i32 } undef, i8* %exn, 0, !dbg !2528
  %lpad.val2 = insertvalue { i8*, i32 } %lpad.val, i32 %sel, 1, !dbg !2528
  resume { i8*, i32 } %lpad.val2, !dbg !2528
}

; Function Attrs: noinline uwtable
define internal void @__cxx_global_var_init.37() #0 section ".text.startup" !dbg !2529 {
entry:
  call void @_ZN16ExecuteOnStartupC1EPFvvE(%class.ExecuteOnStartup* @_ZN12_GLOBAL__N_119__onstartup_obj_310E, void ()* @_ZN12_GLOBAL__N_120__onstartup_func_310Ev), !dbg !2530
  %0 = call i32 @__cxa_atexit(void (i8*)* bitcast (void (%class.ExecuteOnStartup*)* @_ZN16ExecuteOnStartupD1Ev to void (i8*)*), i8* bitcast (%class.ExecuteOnStartup* @_ZN12_GLOBAL__N_119__onstartup_obj_310E to i8*), i8* @__dso_handle) #3, !dbg !2530
  ret void, !dbg !2530
}

; Function Attrs: noinline uwtable
define internal void @_ZN12_GLOBAL__N_120__onstartup_func_310Ev() #0 personality i8* bitcast (i32 (...)* @__gxx_personality_v0 to i8*) !dbg !2531 {
entry:
  %exn.slot = alloca i8*
  %ehselector.slot = alloca i32
  %call = call %class.cRegistrationList* @_ZN23cGlobalRegistrationList11getInstanceEv(%class.cGlobalRegistrationList* @nedFunctions), !dbg !2532
  %call1 = call i8* @_Znwm(i64 192) #12, !dbg !2532
  %0 = bitcast i8* %call1 to %class.cNEDFunction*, !dbg !2532
  invoke void @_ZN12cNEDFunctionC1EPFN18cDynamicExpression5ValueEP10cComponentPS1_iEPKcS8_S8_(%class.cNEDFunction* %0, void (%"struct.cDynamicExpression::Value"*, %class.cComponent*, %"struct.cDynamicExpression::Value"*, i32)* @_ZL9nedf_trimP10cComponentPN18cDynamicExpression5ValueEi, i8* getelementptr inbounds ([22 x i8], [22 x i8]* @.str.144, i64 0, i64 0), i8* getelementptr inbounds ([8 x i8], [8 x i8]* @.str.112, i64 0, i64 0), i8* getelementptr inbounds ([73 x i8], [73 x i8]* @.str.145, i64 0, i64 0))
          to label %invoke.cont unwind label %lpad, !dbg !2532

invoke.cont:                                      ; preds = %entry
  %1 = bitcast %class.cNEDFunction* %0 to %class.cOwnedObject*, !dbg !2532
  %2 = bitcast %class.cRegistrationList* %call to void (%class.cRegistrationList*, %class.cOwnedObject*)***, !dbg !2532
  %vtable = load void (%class.cRegistrationList*, %class.cOwnedObject*)**, void (%class.cRegistrationList*, %class.cOwnedObject*)*** %2, align 8, !dbg !2532
  %vfn = getelementptr inbounds void (%class.cRegistrationList*, %class.cOwnedObject*)*, void (%class.cRegistrationList*, %class.cOwnedObject*)** %vtable, i64 22, !dbg !2532
  %3 = load void (%class.cRegistrationList*, %class.cOwnedObject*)*, void (%class.cRegistrationList*, %class.cOwnedObject*)** %vfn, align 8, !dbg !2532
  call void %3(%class.cRegistrationList* %call, %class.cOwnedObject* %1), !dbg !2532
  ret void, !dbg !2532

lpad:                                             ; preds = %entry
  %4 = landingpad { i8*, i32 }
          cleanup, !dbg !2532
  %5 = extractvalue { i8*, i32 } %4, 0, !dbg !2532
  store i8* %5, i8** %exn.slot, align 8, !dbg !2532
  %6 = extractvalue { i8*, i32 } %4, 1, !dbg !2532
  store i32 %6, i32* %ehselector.slot, align 4, !dbg !2532
  call void @_ZdlPv(i8* %call1) #13, !dbg !2532
  br label %eh.resume, !dbg !2532

eh.resume:                                        ; preds = %lpad
  %exn = load i8*, i8** %exn.slot, align 8, !dbg !2532
  %sel = load i32, i32* %ehselector.slot, align 4, !dbg !2532
  %lpad.val = insertvalue { i8*, i32 } undef, i8* %exn, 0, !dbg !2532
  %lpad.val2 = insertvalue { i8*, i32 } %lpad.val, i32 %sel, 1, !dbg !2532
  resume { i8*, i32 } %lpad.val2, !dbg !2532
}

; Function Attrs: noinline uwtable
define internal void @__cxx_global_var_init.38() #0 section ".text.startup" !dbg !2533 {
entry:
  call void @_ZN16ExecuteOnStartupC1EPFvvE(%class.ExecuteOnStartup* @_ZN12_GLOBAL__N_119__onstartup_obj_318E, void ()* @_ZN12_GLOBAL__N_120__onstartup_func_318Ev), !dbg !2534
  %0 = call i32 @__cxa_atexit(void (i8*)* bitcast (void (%class.ExecuteOnStartup*)* @_ZN16ExecuteOnStartupD1Ev to void (i8*)*), i8* bitcast (%class.ExecuteOnStartup* @_ZN12_GLOBAL__N_119__onstartup_obj_318E to i8*), i8* @__dso_handle) #3, !dbg !2534
  ret void, !dbg !2534
}

; Function Attrs: noinline uwtable
define internal void @_ZN12_GLOBAL__N_120__onstartup_func_318Ev() #0 personality i8* bitcast (i32 (...)* @__gxx_personality_v0 to i8*) !dbg !2535 {
entry:
  %exn.slot = alloca i8*
  %ehselector.slot = alloca i32
  %call = call %class.cRegistrationList* @_ZN23cGlobalRegistrationList11getInstanceEv(%class.cGlobalRegistrationList* @nedFunctions), !dbg !2536
  %call1 = call i8* @_Znwm(i64 192) #12, !dbg !2536
  %0 = bitcast i8* %call1 to %class.cNEDFunction*, !dbg !2536
  invoke void @_ZN12cNEDFunctionC1EPFN18cDynamicExpression5ValueEP10cComponentPS1_iEPKcS8_S8_(%class.cNEDFunction* %0, void (%"struct.cDynamicExpression::Value"*, %class.cComponent*, %"struct.cDynamicExpression::Value"*, i32)* @_ZL12nedf_indexOfP10cComponentPN18cDynamicExpression5ValueEi, i8* getelementptr inbounds ([38 x i8], [38 x i8]* @.str.146, i64 0, i64 0), i8* getelementptr inbounds ([8 x i8], [8 x i8]* @.str.112, i64 0, i64 0), i8* getelementptr inbounds ([107 x i8], [107 x i8]* @.str.147, i64 0, i64 0))
          to label %invoke.cont unwind label %lpad, !dbg !2536

invoke.cont:                                      ; preds = %entry
  %1 = bitcast %class.cNEDFunction* %0 to %class.cOwnedObject*, !dbg !2536
  %2 = bitcast %class.cRegistrationList* %call to void (%class.cRegistrationList*, %class.cOwnedObject*)***, !dbg !2536
  %vtable = load void (%class.cRegistrationList*, %class.cOwnedObject*)**, void (%class.cRegistrationList*, %class.cOwnedObject*)*** %2, align 8, !dbg !2536
  %vfn = getelementptr inbounds void (%class.cRegistrationList*, %class.cOwnedObject*)*, void (%class.cRegistrationList*, %class.cOwnedObject*)** %vtable, i64 22, !dbg !2536
  %3 = load void (%class.cRegistrationList*, %class.cOwnedObject*)*, void (%class.cRegistrationList*, %class.cOwnedObject*)** %vfn, align 8, !dbg !2536
  call void %3(%class.cRegistrationList* %call, %class.cOwnedObject* %1), !dbg !2536
  ret void, !dbg !2536

lpad:                                             ; preds = %entry
  %4 = landingpad { i8*, i32 }
          cleanup, !dbg !2536
  %5 = extractvalue { i8*, i32 } %4, 0, !dbg !2536
  store i8* %5, i8** %exn.slot, align 8, !dbg !2536
  %6 = extractvalue { i8*, i32 } %4, 1, !dbg !2536
  store i32 %6, i32* %ehselector.slot, align 4, !dbg !2536
  call void @_ZdlPv(i8* %call1) #13, !dbg !2536
  br label %eh.resume, !dbg !2536

eh.resume:                                        ; preds = %lpad
  %exn = load i8*, i8** %exn.slot, align 8, !dbg !2536
  %sel = load i32, i32* %ehselector.slot, align 4, !dbg !2536
  %lpad.val = insertvalue { i8*, i32 } undef, i8* %exn, 0, !dbg !2536
  %lpad.val2 = insertvalue { i8*, i32 } %lpad.val, i32 %sel, 1, !dbg !2536
  resume { i8*, i32 } %lpad.val2, !dbg !2536
}

; Function Attrs: noinline uwtable
define internal void @__cxx_global_var_init.39() #0 section ".text.startup" !dbg !2537 {
entry:
  call void @_ZN16ExecuteOnStartupC1EPFvvE(%class.ExecuteOnStartup* @_ZN12_GLOBAL__N_119__onstartup_obj_334E, void ()* @_ZN12_GLOBAL__N_120__onstartup_func_334Ev), !dbg !2538
  %0 = call i32 @__cxa_atexit(void (i8*)* bitcast (void (%class.ExecuteOnStartup*)* @_ZN16ExecuteOnStartupD1Ev to void (i8*)*), i8* bitcast (%class.ExecuteOnStartup* @_ZN12_GLOBAL__N_119__onstartup_obj_334E to i8*), i8* @__dso_handle) #3, !dbg !2538
  ret void, !dbg !2538
}

; Function Attrs: noinline uwtable
define internal void @_ZN12_GLOBAL__N_120__onstartup_func_334Ev() #0 personality i8* bitcast (i32 (...)* @__gxx_personality_v0 to i8*) !dbg !2539 {
entry:
  %exn.slot = alloca i8*
  %ehselector.slot = alloca i32
  %call = call %class.cRegistrationList* @_ZN23cGlobalRegistrationList11getInstanceEv(%class.cGlobalRegistrationList* @nedFunctions), !dbg !2540
  %call1 = call i8* @_Znwm(i64 192) #12, !dbg !2540
  %0 = bitcast i8* %call1 to %class.cNEDFunction*, !dbg !2540
  invoke void @_ZN12cNEDFunctionC1EPFN18cDynamicExpression5ValueEP10cComponentPS1_iEPKcS8_S8_(%class.cNEDFunction* %0, void (%"struct.cDynamicExpression::Value"*, %class.cComponent*, %"struct.cDynamicExpression::Value"*, i32)* @_ZL11nedf_chooseP10cComponentPN18cDynamicExpression5ValueEi, i8* getelementptr inbounds ([39 x i8], [39 x i8]* @.str.148, i64 0, i64 0), i8* getelementptr inbounds ([8 x i8], [8 x i8]* @.str.112, i64 0, i64 0), i8* getelementptr inbounds ([135 x i8], [135 x i8]* @.str.149, i64 0, i64 0))
          to label %invoke.cont unwind label %lpad, !dbg !2540

invoke.cont:                                      ; preds = %entry
  %1 = bitcast %class.cNEDFunction* %0 to %class.cOwnedObject*, !dbg !2540
  %2 = bitcast %class.cRegistrationList* %call to void (%class.cRegistrationList*, %class.cOwnedObject*)***, !dbg !2540
  %vtable = load void (%class.cRegistrationList*, %class.cOwnedObject*)**, void (%class.cRegistrationList*, %class.cOwnedObject*)*** %2, align 8, !dbg !2540
  %vfn = getelementptr inbounds void (%class.cRegistrationList*, %class.cOwnedObject*)*, void (%class.cRegistrationList*, %class.cOwnedObject*)** %vtable, i64 22, !dbg !2540
  %3 = load void (%class.cRegistrationList*, %class.cOwnedObject*)*, void (%class.cRegistrationList*, %class.cOwnedObject*)** %vfn, align 8, !dbg !2540
  call void %3(%class.cRegistrationList* %call, %class.cOwnedObject* %1), !dbg !2540
  ret void, !dbg !2540

lpad:                                             ; preds = %entry
  %4 = landingpad { i8*, i32 }
          cleanup, !dbg !2540
  %5 = extractvalue { i8*, i32 } %4, 0, !dbg !2540
  store i8* %5, i8** %exn.slot, align 8, !dbg !2540
  %6 = extractvalue { i8*, i32 } %4, 1, !dbg !2540
  store i32 %6, i32* %ehselector.slot, align 4, !dbg !2540
  call void @_ZdlPv(i8* %call1) #13, !dbg !2540
  br label %eh.resume, !dbg !2540

eh.resume:                                        ; preds = %lpad
  %exn = load i8*, i8** %exn.slot, align 8, !dbg !2540
  %sel = load i32, i32* %ehselector.slot, align 4, !dbg !2540
  %lpad.val = insertvalue { i8*, i32 } undef, i8* %exn, 0, !dbg !2540
  %lpad.val2 = insertvalue { i8*, i32 } %lpad.val, i32 %sel, 1, !dbg !2540
  resume { i8*, i32 } %lpad.val2, !dbg !2540
}

; Function Attrs: noinline uwtable
define internal void @__cxx_global_var_init.40() #0 section ".text.startup" !dbg !2541 {
entry:
  call void @_ZN16ExecuteOnStartupC1EPFvvE(%class.ExecuteOnStartup* @_ZN12_GLOBAL__N_119__onstartup_obj_346E, void ()* @_ZN12_GLOBAL__N_120__onstartup_func_346Ev), !dbg !2542
  %0 = call i32 @__cxa_atexit(void (i8*)* bitcast (void (%class.ExecuteOnStartup*)* @_ZN16ExecuteOnStartupD1Ev to void (i8*)*), i8* bitcast (%class.ExecuteOnStartup* @_ZN12_GLOBAL__N_119__onstartup_obj_346E to i8*), i8* @__dso_handle) #3, !dbg !2542
  ret void, !dbg !2542
}

; Function Attrs: noinline uwtable
define internal void @_ZN12_GLOBAL__N_120__onstartup_func_346Ev() #0 personality i8* bitcast (i32 (...)* @__gxx_personality_v0 to i8*) !dbg !2543 {
entry:
  %exn.slot = alloca i8*
  %ehselector.slot = alloca i32
  %call = call %class.cRegistrationList* @_ZN23cGlobalRegistrationList11getInstanceEv(%class.cGlobalRegistrationList* @nedFunctions), !dbg !2544
  %call1 = call i8* @_Znwm(i64 192) #12, !dbg !2544
  %0 = bitcast i8* %call1 to %class.cNEDFunction*, !dbg !2544
  invoke void @_ZN12cNEDFunctionC1EPFN18cDynamicExpression5ValueEP10cComponentPS1_iEPKcS8_S8_(%class.cNEDFunction* %0, void (%"struct.cDynamicExpression::Value"*, %class.cComponent*, %"struct.cDynamicExpression::Value"*, i32)* @_ZL12nedf_toUpperP10cComponentPN18cDynamicExpression5ValueEi, i8* getelementptr inbounds ([25 x i8], [25 x i8]* @.str.152, i64 0, i64 0), i8* getelementptr inbounds ([8 x i8], [8 x i8]* @.str.112, i64 0, i64 0), i8* getelementptr inbounds ([53 x i8], [53 x i8]* @.str.153, i64 0, i64 0))
          to label %invoke.cont unwind label %lpad, !dbg !2544

invoke.cont:                                      ; preds = %entry
  %1 = bitcast %class.cNEDFunction* %0 to %class.cOwnedObject*, !dbg !2544
  %2 = bitcast %class.cRegistrationList* %call to void (%class.cRegistrationList*, %class.cOwnedObject*)***, !dbg !2544
  %vtable = load void (%class.cRegistrationList*, %class.cOwnedObject*)**, void (%class.cRegistrationList*, %class.cOwnedObject*)*** %2, align 8, !dbg !2544
  %vfn = getelementptr inbounds void (%class.cRegistrationList*, %class.cOwnedObject*)*, void (%class.cRegistrationList*, %class.cOwnedObject*)** %vtable, i64 22, !dbg !2544
  %3 = load void (%class.cRegistrationList*, %class.cOwnedObject*)*, void (%class.cRegistrationList*, %class.cOwnedObject*)** %vfn, align 8, !dbg !2544
  call void %3(%class.cRegistrationList* %call, %class.cOwnedObject* %1), !dbg !2544
  ret void, !dbg !2544

lpad:                                             ; preds = %entry
  %4 = landingpad { i8*, i32 }
          cleanup, !dbg !2544
  %5 = extractvalue { i8*, i32 } %4, 0, !dbg !2544
  store i8* %5, i8** %exn.slot, align 8, !dbg !2544
  %6 = extractvalue { i8*, i32 } %4, 1, !dbg !2544
  store i32 %6, i32* %ehselector.slot, align 4, !dbg !2544
  call void @_ZdlPv(i8* %call1) #13, !dbg !2544
  br label %eh.resume, !dbg !2544

eh.resume:                                        ; preds = %lpad
  %exn = load i8*, i8** %exn.slot, align 8, !dbg !2544
  %sel = load i32, i32* %ehselector.slot, align 4, !dbg !2544
  %lpad.val = insertvalue { i8*, i32 } undef, i8* %exn, 0, !dbg !2544
  %lpad.val2 = insertvalue { i8*, i32 } %lpad.val, i32 %sel, 1, !dbg !2544
  resume { i8*, i32 } %lpad.val2, !dbg !2544
}

; Function Attrs: noinline uwtable
define internal void @__cxx_global_var_init.41() #0 section ".text.startup" !dbg !2545 {
entry:
  call void @_ZN16ExecuteOnStartupC1EPFvvE(%class.ExecuteOnStartup* @_ZN12_GLOBAL__N_119__onstartup_obj_358E, void ()* @_ZN12_GLOBAL__N_120__onstartup_func_358Ev), !dbg !2546
  %0 = call i32 @__cxa_atexit(void (i8*)* bitcast (void (%class.ExecuteOnStartup*)* @_ZN16ExecuteOnStartupD1Ev to void (i8*)*), i8* bitcast (%class.ExecuteOnStartup* @_ZN12_GLOBAL__N_119__onstartup_obj_358E to i8*), i8* @__dso_handle) #3, !dbg !2546
  ret void, !dbg !2546
}

; Function Attrs: noinline uwtable
define internal void @_ZN12_GLOBAL__N_120__onstartup_func_358Ev() #0 personality i8* bitcast (i32 (...)* @__gxx_personality_v0 to i8*) !dbg !2547 {
entry:
  %exn.slot = alloca i8*
  %ehselector.slot = alloca i32
  %call = call %class.cRegistrationList* @_ZN23cGlobalRegistrationList11getInstanceEv(%class.cGlobalRegistrationList* @nedFunctions), !dbg !2548
  %call1 = call i8* @_Znwm(i64 192) #12, !dbg !2548
  %0 = bitcast i8* %call1 to %class.cNEDFunction*, !dbg !2548
  invoke void @_ZN12cNEDFunctionC1EPFN18cDynamicExpression5ValueEP10cComponentPS1_iEPKcS8_S8_(%class.cNEDFunction* %0, void (%"struct.cDynamicExpression::Value"*, %class.cComponent*, %"struct.cDynamicExpression::Value"*, i32)* @_ZL12nedf_toLowerP10cComponentPN18cDynamicExpression5ValueEi, i8* getelementptr inbounds ([25 x i8], [25 x i8]* @.str.154, i64 0, i64 0), i8* getelementptr inbounds ([8 x i8], [8 x i8]* @.str.112, i64 0, i64 0), i8* getelementptr inbounds ([53 x i8], [53 x i8]* @.str.155, i64 0, i64 0))
          to label %invoke.cont unwind label %lpad, !dbg !2548

invoke.cont:                                      ; preds = %entry
  %1 = bitcast %class.cNEDFunction* %0 to %class.cOwnedObject*, !dbg !2548
  %2 = bitcast %class.cRegistrationList* %call to void (%class.cRegistrationList*, %class.cOwnedObject*)***, !dbg !2548
  %vtable = load void (%class.cRegistrationList*, %class.cOwnedObject*)**, void (%class.cRegistrationList*, %class.cOwnedObject*)*** %2, align 8, !dbg !2548
  %vfn = getelementptr inbounds void (%class.cRegistrationList*, %class.cOwnedObject*)*, void (%class.cRegistrationList*, %class.cOwnedObject*)** %vtable, i64 22, !dbg !2548
  %3 = load void (%class.cRegistrationList*, %class.cOwnedObject*)*, void (%class.cRegistrationList*, %class.cOwnedObject*)** %vfn, align 8, !dbg !2548
  call void %3(%class.cRegistrationList* %call, %class.cOwnedObject* %1), !dbg !2548
  ret void, !dbg !2548

lpad:                                             ; preds = %entry
  %4 = landingpad { i8*, i32 }
          cleanup, !dbg !2548
  %5 = extractvalue { i8*, i32 } %4, 0, !dbg !2548
  store i8* %5, i8** %exn.slot, align 8, !dbg !2548
  %6 = extractvalue { i8*, i32 } %4, 1, !dbg !2548
  store i32 %6, i32* %ehselector.slot, align 4, !dbg !2548
  call void @_ZdlPv(i8* %call1) #13, !dbg !2548
  br label %eh.resume, !dbg !2548

eh.resume:                                        ; preds = %lpad
  %exn = load i8*, i8** %exn.slot, align 8, !dbg !2548
  %sel = load i32, i32* %ehselector.slot, align 4, !dbg !2548
  %lpad.val = insertvalue { i8*, i32 } undef, i8* %exn, 0, !dbg !2548
  %lpad.val2 = insertvalue { i8*, i32 } %lpad.val, i32 %sel, 1, !dbg !2548
  resume { i8*, i32 } %lpad.val2, !dbg !2548
}

; Function Attrs: noinline uwtable
define internal void @__cxx_global_var_init.42() #0 section ".text.startup" !dbg !2549 {
entry:
  call void @_ZN16ExecuteOnStartupC1EPFvvE(%class.ExecuteOnStartup* @_ZN12_GLOBAL__N_119__onstartup_obj_377E, void ()* @_ZN12_GLOBAL__N_120__onstartup_func_377Ev), !dbg !2550
  %0 = call i32 @__cxa_atexit(void (i8*)* bitcast (void (%class.ExecuteOnStartup*)* @_ZN16ExecuteOnStartupD1Ev to void (i8*)*), i8* bitcast (%class.ExecuteOnStartup* @_ZN12_GLOBAL__N_119__onstartup_obj_377E to i8*), i8* @__dso_handle) #3, !dbg !2550
  ret void, !dbg !2550
}

; Function Attrs: noinline uwtable
define internal void @_ZN12_GLOBAL__N_120__onstartup_func_377Ev() #0 personality i8* bitcast (i32 (...)* @__gxx_personality_v0 to i8*) !dbg !2551 {
entry:
  %exn.slot = alloca i8*
  %ehselector.slot = alloca i32
  %call = call %class.cRegistrationList* @_ZN23cGlobalRegistrationList11getInstanceEv(%class.cGlobalRegistrationList* @nedFunctions), !dbg !2552
  %call1 = call i8* @_Znwm(i64 192) #12, !dbg !2552
  %0 = bitcast i8* %call1 to %class.cNEDFunction*, !dbg !2552
  invoke void @_ZN12cNEDFunctionC1EPFN18cDynamicExpression5ValueEP10cComponentPS1_iEPKcS8_S8_(%class.cNEDFunction* %0, void (%"struct.cDynamicExpression::Value"*, %class.cComponent*, %"struct.cDynamicExpression::Value"*, i32)* @_ZL8nedf_intP10cComponentPN18cDynamicExpression5ValueEi, i8* getelementptr inbounds ([16 x i8], [16 x i8]* @.str.156, i64 0, i64 0), i8* getelementptr inbounds ([11 x i8], [11 x i8]* @.str.157, i64 0, i64 0), i8* getelementptr inbounds ([184 x i8], [184 x i8]* @.str.158, i64 0, i64 0))
          to label %invoke.cont unwind label %lpad, !dbg !2552

invoke.cont:                                      ; preds = %entry
  %1 = bitcast %class.cNEDFunction* %0 to %class.cOwnedObject*, !dbg !2552
  %2 = bitcast %class.cRegistrationList* %call to void (%class.cRegistrationList*, %class.cOwnedObject*)***, !dbg !2552
  %vtable = load void (%class.cRegistrationList*, %class.cOwnedObject*)**, void (%class.cRegistrationList*, %class.cOwnedObject*)*** %2, align 8, !dbg !2552
  %vfn = getelementptr inbounds void (%class.cRegistrationList*, %class.cOwnedObject*)*, void (%class.cRegistrationList*, %class.cOwnedObject*)** %vtable, i64 22, !dbg !2552
  %3 = load void (%class.cRegistrationList*, %class.cOwnedObject*)*, void (%class.cRegistrationList*, %class.cOwnedObject*)** %vfn, align 8, !dbg !2552
  call void %3(%class.cRegistrationList* %call, %class.cOwnedObject* %1), !dbg !2552
  ret void, !dbg !2552

lpad:                                             ; preds = %entry
  %4 = landingpad { i8*, i32 }
          cleanup, !dbg !2552
  %5 = extractvalue { i8*, i32 } %4, 0, !dbg !2552
  store i8* %5, i8** %exn.slot, align 8, !dbg !2552
  %6 = extractvalue { i8*, i32 } %4, 1, !dbg !2552
  store i32 %6, i32* %ehselector.slot, align 4, !dbg !2552
  call void @_ZdlPv(i8* %call1) #13, !dbg !2552
  br label %eh.resume, !dbg !2552

eh.resume:                                        ; preds = %lpad
  %exn = load i8*, i8** %exn.slot, align 8, !dbg !2552
  %sel = load i32, i32* %ehselector.slot, align 4, !dbg !2552
  %lpad.val = insertvalue { i8*, i32 } undef, i8* %exn, 0, !dbg !2552
  %lpad.val2 = insertvalue { i8*, i32 } %lpad.val, i32 %sel, 1, !dbg !2552
  resume { i8*, i32 } %lpad.val2, !dbg !2552
}

; Function Attrs: noinline uwtable
define internal void @__cxx_global_var_init.43() #0 section ".text.startup" !dbg !2553 {
entry:
  call void @_ZN16ExecuteOnStartupC1EPFvvE(%class.ExecuteOnStartup* @_ZN12_GLOBAL__N_119__onstartup_obj_396E, void ()* @_ZN12_GLOBAL__N_120__onstartup_func_396Ev), !dbg !2554
  %0 = call i32 @__cxa_atexit(void (i8*)* bitcast (void (%class.ExecuteOnStartup*)* @_ZN16ExecuteOnStartupD1Ev to void (i8*)*), i8* bitcast (%class.ExecuteOnStartup* @_ZN12_GLOBAL__N_119__onstartup_obj_396E to i8*), i8* @__dso_handle) #3, !dbg !2554
  ret void, !dbg !2554
}

; Function Attrs: noinline uwtable
define internal void @_ZN12_GLOBAL__N_120__onstartup_func_396Ev() #0 personality i8* bitcast (i32 (...)* @__gxx_personality_v0 to i8*) !dbg !2555 {
entry:
  %exn.slot = alloca i8*
  %ehselector.slot = alloca i32
  %call = call %class.cRegistrationList* @_ZN23cGlobalRegistrationList11getInstanceEv(%class.cGlobalRegistrationList* @nedFunctions), !dbg !2556
  %call1 = call i8* @_Znwm(i64 192) #12, !dbg !2556
  %0 = bitcast i8* %call1 to %class.cNEDFunction*, !dbg !2556
  invoke void @_ZN12cNEDFunctionC1EPFN18cDynamicExpression5ValueEP10cComponentPS1_iEPKcS8_S8_(%class.cNEDFunction* %0, void (%"struct.cDynamicExpression::Value"*, %class.cComponent*, %"struct.cDynamicExpression::Value"*, i32)* @_ZL11nedf_doubleP10cComponentPN18cDynamicExpression5ValueEi, i8* getelementptr inbounds ([21 x i8], [21 x i8]* @.str.161, i64 0, i64 0), i8* getelementptr inbounds ([11 x i8], [11 x i8]* @.str.157, i64 0, i64 0), i8* getelementptr inbounds ([149 x i8], [149 x i8]* @.str.162, i64 0, i64 0))
          to label %invoke.cont unwind label %lpad, !dbg !2556

invoke.cont:                                      ; preds = %entry
  %1 = bitcast %class.cNEDFunction* %0 to %class.cOwnedObject*, !dbg !2556
  %2 = bitcast %class.cRegistrationList* %call to void (%class.cRegistrationList*, %class.cOwnedObject*)***, !dbg !2556
  %vtable = load void (%class.cRegistrationList*, %class.cOwnedObject*)**, void (%class.cRegistrationList*, %class.cOwnedObject*)*** %2, align 8, !dbg !2556
  %vfn = getelementptr inbounds void (%class.cRegistrationList*, %class.cOwnedObject*)*, void (%class.cRegistrationList*, %class.cOwnedObject*)** %vtable, i64 22, !dbg !2556
  %3 = load void (%class.cRegistrationList*, %class.cOwnedObject*)*, void (%class.cRegistrationList*, %class.cOwnedObject*)** %vfn, align 8, !dbg !2556
  call void %3(%class.cRegistrationList* %call, %class.cOwnedObject* %1), !dbg !2556
  ret void, !dbg !2556

lpad:                                             ; preds = %entry
  %4 = landingpad { i8*, i32 }
          cleanup, !dbg !2556
  %5 = extractvalue { i8*, i32 } %4, 0, !dbg !2556
  store i8* %5, i8** %exn.slot, align 8, !dbg !2556
  %6 = extractvalue { i8*, i32 } %4, 1, !dbg !2556
  store i32 %6, i32* %ehselector.slot, align 4, !dbg !2556
  call void @_ZdlPv(i8* %call1) #13, !dbg !2556
  br label %eh.resume, !dbg !2556

eh.resume:                                        ; preds = %lpad
  %exn = load i8*, i8** %exn.slot, align 8, !dbg !2556
  %sel = load i32, i32* %ehselector.slot, align 4, !dbg !2556
  %lpad.val = insertvalue { i8*, i32 } undef, i8* %exn, 0, !dbg !2556
  %lpad.val2 = insertvalue { i8*, i32 } %lpad.val, i32 %sel, 1, !dbg !2556
  resume { i8*, i32 } %lpad.val2, !dbg !2556
}

; Function Attrs: noinline uwtable
define internal void @__cxx_global_var_init.44() #0 section ".text.startup" !dbg !2557 {
entry:
  call void @_ZN16ExecuteOnStartupC1EPFvvE(%class.ExecuteOnStartup* @_ZN12_GLOBAL__N_119__onstartup_obj_404E, void ()* @_ZN12_GLOBAL__N_120__onstartup_func_404Ev), !dbg !2558
  %0 = call i32 @__cxa_atexit(void (i8*)* bitcast (void (%class.ExecuteOnStartup*)* @_ZN16ExecuteOnStartupD1Ev to void (i8*)*), i8* bitcast (%class.ExecuteOnStartup* @_ZN12_GLOBAL__N_119__onstartup_obj_404E to i8*), i8* @__dso_handle) #3, !dbg !2558
  ret void, !dbg !2558
}

; Function Attrs: noinline uwtable
define internal void @_ZN12_GLOBAL__N_120__onstartup_func_404Ev() #0 personality i8* bitcast (i32 (...)* @__gxx_personality_v0 to i8*) !dbg !2559 {
entry:
  %exn.slot = alloca i8*
  %ehselector.slot = alloca i32
  %call = call %class.cRegistrationList* @_ZN23cGlobalRegistrationList11getInstanceEv(%class.cGlobalRegistrationList* @nedFunctions), !dbg !2560
  %call1 = call i8* @_Znwm(i64 192) #12, !dbg !2560
  %0 = bitcast i8* %call1 to %class.cNEDFunction*, !dbg !2560
  invoke void @_ZN12cNEDFunctionC1EPFN18cDynamicExpression5ValueEP10cComponentPS1_iEPKcS8_S8_(%class.cNEDFunction* %0, void (%"struct.cDynamicExpression::Value"*, %class.cComponent*, %"struct.cDynamicExpression::Value"*, i32)* @_ZL11nedf_stringP10cComponentPN18cDynamicExpression5ValueEi, i8* getelementptr inbounds ([21 x i8], [21 x i8]* @.str.164, i64 0, i64 0), i8* getelementptr inbounds ([11 x i8], [11 x i8]* @.str.157, i64 0, i64 0), i8* getelementptr inbounds ([46 x i8], [46 x i8]* @.str.165, i64 0, i64 0))
          to label %invoke.cont unwind label %lpad, !dbg !2560

invoke.cont:                                      ; preds = %entry
  %1 = bitcast %class.cNEDFunction* %0 to %class.cOwnedObject*, !dbg !2560
  %2 = bitcast %class.cRegistrationList* %call to void (%class.cRegistrationList*, %class.cOwnedObject*)***, !dbg !2560
  %vtable = load void (%class.cRegistrationList*, %class.cOwnedObject*)**, void (%class.cRegistrationList*, %class.cOwnedObject*)*** %2, align 8, !dbg !2560
  %vfn = getelementptr inbounds void (%class.cRegistrationList*, %class.cOwnedObject*)*, void (%class.cRegistrationList*, %class.cOwnedObject*)** %vtable, i64 22, !dbg !2560
  %3 = load void (%class.cRegistrationList*, %class.cOwnedObject*)*, void (%class.cRegistrationList*, %class.cOwnedObject*)** %vfn, align 8, !dbg !2560
  call void %3(%class.cRegistrationList* %call, %class.cOwnedObject* %1), !dbg !2560
  ret void, !dbg !2560

lpad:                                             ; preds = %entry
  %4 = landingpad { i8*, i32 }
          cleanup, !dbg !2560
  %5 = extractvalue { i8*, i32 } %4, 0, !dbg !2560
  store i8* %5, i8** %exn.slot, align 8, !dbg !2560
  %6 = extractvalue { i8*, i32 } %4, 1, !dbg !2560
  store i32 %6, i32* %ehselector.slot, align 4, !dbg !2560
  call void @_ZdlPv(i8* %call1) #13, !dbg !2560
  br label %eh.resume, !dbg !2560

eh.resume:                                        ; preds = %lpad
  %exn = load i8*, i8** %exn.slot, align 8, !dbg !2560
  %sel = load i32, i32* %ehselector.slot, align 4, !dbg !2560
  %lpad.val = insertvalue { i8*, i32 } undef, i8* %exn, 0, !dbg !2560
  %lpad.val2 = insertvalue { i8*, i32 } %lpad.val, i32 %sel, 1, !dbg !2560
  resume { i8*, i32 } %lpad.val2, !dbg !2560
}

; Function Attrs: noinline uwtable
define internal void @__cxx_global_var_init.45() #0 section ".text.startup" !dbg !2561 {
entry:
  call void @_ZN16ExecuteOnStartupC1EPFvvE(%class.ExecuteOnStartup* @_ZN12_GLOBAL__N_119__onstartup_obj_417E, void ()* @_ZN12_GLOBAL__N_120__onstartup_func_417Ev), !dbg !2562
  %0 = call i32 @__cxa_atexit(void (i8*)* bitcast (void (%class.ExecuteOnStartup*)* @_ZN16ExecuteOnStartupD1Ev to void (i8*)*), i8* bitcast (%class.ExecuteOnStartup* @_ZN12_GLOBAL__N_119__onstartup_obj_417E to i8*), i8* @__dso_handle) #3, !dbg !2562
  ret void, !dbg !2562
}

; Function Attrs: noinline uwtable
define internal void @_ZN12_GLOBAL__N_120__onstartup_func_417Ev() #0 personality i8* bitcast (i32 (...)* @__gxx_personality_v0 to i8*) !dbg !2563 {
entry:
  %exn.slot = alloca i8*
  %ehselector.slot = alloca i32
  %call = call %class.cRegistrationList* @_ZN23cGlobalRegistrationList11getInstanceEv(%class.cGlobalRegistrationList* @nedFunctions), !dbg !2564
  %call1 = call i8* @_Znwm(i64 192) #12, !dbg !2564
  %0 = bitcast i8* %call1 to %class.cNEDFunction*, !dbg !2564
  invoke void @_ZN12cNEDFunctionC1EPFN18cDynamicExpression5ValueEP10cComponentPS1_iEPKcS8_S8_(%class.cNEDFunction* %0, void (%"struct.cDynamicExpression::Value"*, %class.cComponent*, %"struct.cDynamicExpression::Value"*, i32)* @_ZL13nedf_fullPathP10cComponentPN18cDynamicExpression5ValueEi, i8* getelementptr inbounds ([18 x i8], [18 x i8]* @.str.166, i64 0, i64 0), i8* getelementptr inbounds ([4 x i8], [4 x i8]* @.str.167, i64 0, i64 0), i8* getelementptr inbounds ([59 x i8], [59 x i8]* @.str.168, i64 0, i64 0))
          to label %invoke.cont unwind label %lpad, !dbg !2564

invoke.cont:                                      ; preds = %entry
  %1 = bitcast %class.cNEDFunction* %0 to %class.cOwnedObject*, !dbg !2564
  %2 = bitcast %class.cRegistrationList* %call to void (%class.cRegistrationList*, %class.cOwnedObject*)***, !dbg !2564
  %vtable = load void (%class.cRegistrationList*, %class.cOwnedObject*)**, void (%class.cRegistrationList*, %class.cOwnedObject*)*** %2, align 8, !dbg !2564
  %vfn = getelementptr inbounds void (%class.cRegistrationList*, %class.cOwnedObject*)*, void (%class.cRegistrationList*, %class.cOwnedObject*)** %vtable, i64 22, !dbg !2564
  %3 = load void (%class.cRegistrationList*, %class.cOwnedObject*)*, void (%class.cRegistrationList*, %class.cOwnedObject*)** %vfn, align 8, !dbg !2564
  call void %3(%class.cRegistrationList* %call, %class.cOwnedObject* %1), !dbg !2564
  ret void, !dbg !2564

lpad:                                             ; preds = %entry
  %4 = landingpad { i8*, i32 }
          cleanup, !dbg !2564
  %5 = extractvalue { i8*, i32 } %4, 0, !dbg !2564
  store i8* %5, i8** %exn.slot, align 8, !dbg !2564
  %6 = extractvalue { i8*, i32 } %4, 1, !dbg !2564
  store i32 %6, i32* %ehselector.slot, align 4, !dbg !2564
  call void @_ZdlPv(i8* %call1) #13, !dbg !2564
  br label %eh.resume, !dbg !2564

eh.resume:                                        ; preds = %lpad
  %exn = load i8*, i8** %exn.slot, align 8, !dbg !2564
  %sel = load i32, i32* %ehselector.slot, align 4, !dbg !2564
  %lpad.val = insertvalue { i8*, i32 } undef, i8* %exn, 0, !dbg !2564
  %lpad.val2 = insertvalue { i8*, i32 } %lpad.val, i32 %sel, 1, !dbg !2564
  resume { i8*, i32 } %lpad.val2, !dbg !2564
}

; Function Attrs: noinline uwtable
define internal void @__cxx_global_var_init.46() #0 section ".text.startup" !dbg !2565 {
entry:
  call void @_ZN16ExecuteOnStartupC1EPFvvE(%class.ExecuteOnStartup* @_ZN12_GLOBAL__N_119__onstartup_obj_425E, void ()* @_ZN12_GLOBAL__N_120__onstartup_func_425Ev), !dbg !2566
  %0 = call i32 @__cxa_atexit(void (i8*)* bitcast (void (%class.ExecuteOnStartup*)* @_ZN16ExecuteOnStartupD1Ev to void (i8*)*), i8* bitcast (%class.ExecuteOnStartup* @_ZN12_GLOBAL__N_119__onstartup_obj_425E to i8*), i8* @__dso_handle) #3, !dbg !2566
  ret void, !dbg !2566
}

; Function Attrs: noinline uwtable
define internal void @_ZN12_GLOBAL__N_120__onstartup_func_425Ev() #0 personality i8* bitcast (i32 (...)* @__gxx_personality_v0 to i8*) !dbg !2567 {
entry:
  %exn.slot = alloca i8*
  %ehselector.slot = alloca i32
  %call = call %class.cRegistrationList* @_ZN23cGlobalRegistrationList11getInstanceEv(%class.cGlobalRegistrationList* @nedFunctions), !dbg !2568
  %call1 = call i8* @_Znwm(i64 192) #12, !dbg !2568
  %0 = bitcast i8* %call1 to %class.cNEDFunction*, !dbg !2568
  invoke void @_ZN12cNEDFunctionC1EPFN18cDynamicExpression5ValueEP10cComponentPS1_iEPKcS8_S8_(%class.cNEDFunction* %0, void (%"struct.cDynamicExpression::Value"*, %class.cComponent*, %"struct.cDynamicExpression::Value"*, i32)* @_ZL13nedf_fullNameP10cComponentPN18cDynamicExpression5ValueEi, i8* getelementptr inbounds ([18 x i8], [18 x i8]* @.str.169, i64 0, i64 0), i8* getelementptr inbounds ([4 x i8], [4 x i8]* @.str.167, i64 0, i64 0), i8* getelementptr inbounds ([59 x i8], [59 x i8]* @.str.170, i64 0, i64 0))
          to label %invoke.cont unwind label %lpad, !dbg !2568

invoke.cont:                                      ; preds = %entry
  %1 = bitcast %class.cNEDFunction* %0 to %class.cOwnedObject*, !dbg !2568
  %2 = bitcast %class.cRegistrationList* %call to void (%class.cRegistrationList*, %class.cOwnedObject*)***, !dbg !2568
  %vtable = load void (%class.cRegistrationList*, %class.cOwnedObject*)**, void (%class.cRegistrationList*, %class.cOwnedObject*)*** %2, align 8, !dbg !2568
  %vfn = getelementptr inbounds void (%class.cRegistrationList*, %class.cOwnedObject*)*, void (%class.cRegistrationList*, %class.cOwnedObject*)** %vtable, i64 22, !dbg !2568
  %3 = load void (%class.cRegistrationList*, %class.cOwnedObject*)*, void (%class.cRegistrationList*, %class.cOwnedObject*)** %vfn, align 8, !dbg !2568
  call void %3(%class.cRegistrationList* %call, %class.cOwnedObject* %1), !dbg !2568
  ret void, !dbg !2568

lpad:                                             ; preds = %entry
  %4 = landingpad { i8*, i32 }
          cleanup, !dbg !2568
  %5 = extractvalue { i8*, i32 } %4, 0, !dbg !2568
  store i8* %5, i8** %exn.slot, align 8, !dbg !2568
  %6 = extractvalue { i8*, i32 } %4, 1, !dbg !2568
  store i32 %6, i32* %ehselector.slot, align 4, !dbg !2568
  call void @_ZdlPv(i8* %call1) #13, !dbg !2568
  br label %eh.resume, !dbg !2568

eh.resume:                                        ; preds = %lpad
  %exn = load i8*, i8** %exn.slot, align 8, !dbg !2568
  %sel = load i32, i32* %ehselector.slot, align 4, !dbg !2568
  %lpad.val = insertvalue { i8*, i32 } undef, i8* %exn, 0, !dbg !2568
  %lpad.val2 = insertvalue { i8*, i32 } %lpad.val, i32 %sel, 1, !dbg !2568
  resume { i8*, i32 } %lpad.val2, !dbg !2568
}

; Function Attrs: noinline uwtable
define internal void @__cxx_global_var_init.47() #0 section ".text.startup" !dbg !2569 {
entry:
  call void @_ZN16ExecuteOnStartupC1EPFvvE(%class.ExecuteOnStartup* @_ZN12_GLOBAL__N_119__onstartup_obj_438E, void ()* @_ZN12_GLOBAL__N_120__onstartup_func_438Ev), !dbg !2570
  %0 = call i32 @__cxa_atexit(void (i8*)* bitcast (void (%class.ExecuteOnStartup*)* @_ZN16ExecuteOnStartupD1Ev to void (i8*)*), i8* bitcast (%class.ExecuteOnStartup* @_ZN12_GLOBAL__N_119__onstartup_obj_438E to i8*), i8* @__dso_handle) #3, !dbg !2570
  ret void, !dbg !2570
}

; Function Attrs: noinline uwtable
define internal void @_ZN12_GLOBAL__N_120__onstartup_func_438Ev() #0 personality i8* bitcast (i32 (...)* @__gxx_personality_v0 to i8*) !dbg !2571 {
entry:
  %exn.slot = alloca i8*
  %ehselector.slot = alloca i32
  %call = call %class.cRegistrationList* @_ZN23cGlobalRegistrationList11getInstanceEv(%class.cGlobalRegistrationList* @nedFunctions), !dbg !2572
  %call1 = call i8* @_Znwm(i64 192) #12, !dbg !2572
  %0 = bitcast i8* %call1 to %class.cNEDFunction*, !dbg !2572
  invoke void @_ZN12cNEDFunctionC1EPFN18cDynamicExpression5ValueEP10cComponentPS1_iEPKcS8_S8_(%class.cNEDFunction* %0, void (%"struct.cDynamicExpression::Value"*, %class.cComponent*, %"struct.cDynamicExpression::Value"*, i32)* @_ZL16nedf_parentIndexP10cComponentPN18cDynamicExpression5ValueEi, i8* getelementptr inbounds ([19 x i8], [19 x i8]* @.str.171, i64 0, i64 0), i8* getelementptr inbounds ([4 x i8], [4 x i8]* @.str.167, i64 0, i64 0), i8* getelementptr inbounds ([79 x i8], [79 x i8]* @.str.172, i64 0, i64 0))
          to label %invoke.cont unwind label %lpad, !dbg !2572

invoke.cont:                                      ; preds = %entry
  %1 = bitcast %class.cNEDFunction* %0 to %class.cOwnedObject*, !dbg !2572
  %2 = bitcast %class.cRegistrationList* %call to void (%class.cRegistrationList*, %class.cOwnedObject*)***, !dbg !2572
  %vtable = load void (%class.cRegistrationList*, %class.cOwnedObject*)**, void (%class.cRegistrationList*, %class.cOwnedObject*)*** %2, align 8, !dbg !2572
  %vfn = getelementptr inbounds void (%class.cRegistrationList*, %class.cOwnedObject*)*, void (%class.cRegistrationList*, %class.cOwnedObject*)** %vtable, i64 22, !dbg !2572
  %3 = load void (%class.cRegistrationList*, %class.cOwnedObject*)*, void (%class.cRegistrationList*, %class.cOwnedObject*)** %vfn, align 8, !dbg !2572
  call void %3(%class.cRegistrationList* %call, %class.cOwnedObject* %1), !dbg !2572
  ret void, !dbg !2572

lpad:                                             ; preds = %entry
  %4 = landingpad { i8*, i32 }
          cleanup, !dbg !2572
  %5 = extractvalue { i8*, i32 } %4, 0, !dbg !2572
  store i8* %5, i8** %exn.slot, align 8, !dbg !2572
  %6 = extractvalue { i8*, i32 } %4, 1, !dbg !2572
  store i32 %6, i32* %ehselector.slot, align 4, !dbg !2572
  call void @_ZdlPv(i8* %call1) #13, !dbg !2572
  br label %eh.resume, !dbg !2572

eh.resume:                                        ; preds = %lpad
  %exn = load i8*, i8** %exn.slot, align 8, !dbg !2572
  %sel = load i32, i32* %ehselector.slot, align 4, !dbg !2572
  %lpad.val = insertvalue { i8*, i32 } undef, i8* %exn, 0, !dbg !2572
  %lpad.val2 = insertvalue { i8*, i32 } %lpad.val, i32 %sel, 1, !dbg !2572
  resume { i8*, i32 } %lpad.val2, !dbg !2572
}

; Function Attrs: noinline uwtable
define internal void @__cxx_global_var_init.48() #0 section ".text.startup" !dbg !2573 {
entry:
  call void @_ZN16ExecuteOnStartupC1EPFvvE(%class.ExecuteOnStartup* @_ZN12_GLOBAL__N_119__onstartup_obj_458E, void ()* @_ZN12_GLOBAL__N_120__onstartup_func_458Ev), !dbg !2574
  %0 = call i32 @__cxa_atexit(void (i8*)* bitcast (void (%class.ExecuteOnStartup*)* @_ZN16ExecuteOnStartupD1Ev to void (i8*)*), i8* bitcast (%class.ExecuteOnStartup* @_ZN12_GLOBAL__N_119__onstartup_obj_458E to i8*), i8* @__dso_handle) #3, !dbg !2574
  ret void, !dbg !2574
}

; Function Attrs: noinline uwtable
define internal void @_ZN12_GLOBAL__N_120__onstartup_func_458Ev() #0 personality i8* bitcast (i32 (...)* @__gxx_personality_v0 to i8*) !dbg !2575 {
entry:
  %exn.slot = alloca i8*
  %ehselector.slot = alloca i32
  %call = call %class.cRegistrationList* @_ZN23cGlobalRegistrationList11getInstanceEv(%class.cGlobalRegistrationList* @nedFunctions), !dbg !2576
  %call1 = call i8* @_Znwm(i64 192) #12, !dbg !2576
  %0 = bitcast i8* %call1 to %class.cNEDFunction*, !dbg !2576
  invoke void @_ZN12cNEDFunctionC1EPFN18cDynamicExpression5ValueEP10cComponentPS1_iEPKcS8_S8_(%class.cNEDFunction* %0, void (%"struct.cDynamicExpression::Value"*, %class.cComponent*, %"struct.cDynamicExpression::Value"*, i32)* @_ZL18nedf_ancestorIndexP10cComponentPN18cDynamicExpression5ValueEi, i8* getelementptr inbounds ([35 x i8], [35 x i8]* @.str.175, i64 0, i64 0), i8* getelementptr inbounds ([4 x i8], [4 x i8]* @.str.167, i64 0, i64 0), i8* getelementptr inbounds ([98 x i8], [98 x i8]* @.str.176, i64 0, i64 0))
          to label %invoke.cont unwind label %lpad, !dbg !2576

invoke.cont:                                      ; preds = %entry
  %1 = bitcast %class.cNEDFunction* %0 to %class.cOwnedObject*, !dbg !2576
  %2 = bitcast %class.cRegistrationList* %call to void (%class.cRegistrationList*, %class.cOwnedObject*)***, !dbg !2576
  %vtable = load void (%class.cRegistrationList*, %class.cOwnedObject*)**, void (%class.cRegistrationList*, %class.cOwnedObject*)*** %2, align 8, !dbg !2576
  %vfn = getelementptr inbounds void (%class.cRegistrationList*, %class.cOwnedObject*)*, void (%class.cRegistrationList*, %class.cOwnedObject*)** %vtable, i64 22, !dbg !2576
  %3 = load void (%class.cRegistrationList*, %class.cOwnedObject*)*, void (%class.cRegistrationList*, %class.cOwnedObject*)** %vfn, align 8, !dbg !2576
  call void %3(%class.cRegistrationList* %call, %class.cOwnedObject* %1), !dbg !2576
  ret void, !dbg !2576

lpad:                                             ; preds = %entry
  %4 = landingpad { i8*, i32 }
          cleanup, !dbg !2576
  %5 = extractvalue { i8*, i32 } %4, 0, !dbg !2576
  store i8* %5, i8** %exn.slot, align 8, !dbg !2576
  %6 = extractvalue { i8*, i32 } %4, 1, !dbg !2576
  store i32 %6, i32* %ehselector.slot, align 4, !dbg !2576
  call void @_ZdlPv(i8* %call1) #13, !dbg !2576
  br label %eh.resume, !dbg !2576

eh.resume:                                        ; preds = %lpad
  %exn = load i8*, i8** %exn.slot, align 8, !dbg !2576
  %sel = load i32, i32* %ehselector.slot, align 4, !dbg !2576
  %lpad.val = insertvalue { i8*, i32 } undef, i8* %exn, 0, !dbg !2576
  %lpad.val2 = insertvalue { i8*, i32 } %lpad.val, i32 %sel, 1, !dbg !2576
  resume { i8*, i32 } %lpad.val2, !dbg !2576
}

; Function Attrs: noinline uwtable
define internal void @__cxx_global_var_init.49() #0 section ".text.startup" !dbg !2577 {
entry:
  call void @_ZN16ExecuteOnStartupC1EPFvvE(%class.ExecuteOnStartup* @_ZN12_GLOBAL__N_119__onstartup_obj_475E, void ()* @_ZN12_GLOBAL__N_120__onstartup_func_475Ev), !dbg !2578
  %0 = call i32 @__cxa_atexit(void (i8*)* bitcast (void (%class.ExecuteOnStartup*)* @_ZN16ExecuteOnStartupD1Ev to void (i8*)*), i8* bitcast (%class.ExecuteOnStartup* @_ZN12_GLOBAL__N_119__onstartup_obj_475E to i8*), i8* @__dso_handle) #3, !dbg !2578
  ret void, !dbg !2578
}

; Function Attrs: noinline uwtable
define internal void @_ZN12_GLOBAL__N_120__onstartup_func_475Ev() #0 personality i8* bitcast (i32 (...)* @__gxx_personality_v0 to i8*) !dbg !2579 {
entry:
  %exn.slot = alloca i8*
  %ehselector.slot = alloca i32
  %call = call %class.cRegistrationList* @_ZN23cGlobalRegistrationList11getInstanceEv(%class.cGlobalRegistrationList* @nedFunctions), !dbg !2580
  %call1 = call i8* @_Znwm(i64 192) #12, !dbg !2580
  %0 = bitcast i8* %call1 to %class.cNEDFunction*, !dbg !2580
  invoke void @_ZN12cNEDFunctionC1EPFN18cDynamicExpression5ValueEP10cComponentPS1_iEPKcS8_S8_(%class.cNEDFunction* %0, void (%"struct.cDynamicExpression::Value"*, %class.cComponent*, %"struct.cDynamicExpression::Value"*, i32)* @_ZL12nedf_uniformP10cComponentPN18cDynamicExpression5ValueEi, i8* getelementptr inbounds ([52 x i8], [52 x i8]* @.str.181, i64 0, i64 0), i8* getelementptr inbounds ([18 x i8], [18 x i8]* @.str.182, i64 0, i64 0), i8* getelementptr inbounds ([54 x i8], [54 x i8]* @.str.183, i64 0, i64 0))
          to label %invoke.cont unwind label %lpad, !dbg !2580

invoke.cont:                                      ; preds = %entry
  %1 = bitcast %class.cNEDFunction* %0 to %class.cOwnedObject*, !dbg !2580
  %2 = bitcast %class.cRegistrationList* %call to void (%class.cRegistrationList*, %class.cOwnedObject*)***, !dbg !2580
  %vtable = load void (%class.cRegistrationList*, %class.cOwnedObject*)**, void (%class.cRegistrationList*, %class.cOwnedObject*)*** %2, align 8, !dbg !2580
  %vfn = getelementptr inbounds void (%class.cRegistrationList*, %class.cOwnedObject*)*, void (%class.cRegistrationList*, %class.cOwnedObject*)** %vtable, i64 22, !dbg !2580
  %3 = load void (%class.cRegistrationList*, %class.cOwnedObject*)*, void (%class.cRegistrationList*, %class.cOwnedObject*)** %vfn, align 8, !dbg !2580
  call void %3(%class.cRegistrationList* %call, %class.cOwnedObject* %1), !dbg !2580
  ret void, !dbg !2580

lpad:                                             ; preds = %entry
  %4 = landingpad { i8*, i32 }
          cleanup, !dbg !2580
  %5 = extractvalue { i8*, i32 } %4, 0, !dbg !2580
  store i8* %5, i8** %exn.slot, align 8, !dbg !2580
  %6 = extractvalue { i8*, i32 } %4, 1, !dbg !2580
  store i32 %6, i32* %ehselector.slot, align 4, !dbg !2580
  call void @_ZdlPv(i8* %call1) #13, !dbg !2580
  br label %eh.resume, !dbg !2580

eh.resume:                                        ; preds = %lpad
  %exn = load i8*, i8** %exn.slot, align 8, !dbg !2580
  %sel = load i32, i32* %ehselector.slot, align 4, !dbg !2580
  %lpad.val = insertvalue { i8*, i32 } undef, i8* %exn, 0, !dbg !2580
  %lpad.val2 = insertvalue { i8*, i32 } %lpad.val, i32 %sel, 1, !dbg !2580
  resume { i8*, i32 } %lpad.val2, !dbg !2580
}

; Function Attrs: noinline uwtable
define internal void @__cxx_global_var_init.50() #0 section ".text.startup" !dbg !2581 {
entry:
  call void @_ZN16ExecuteOnStartupC1EPFvvE(%class.ExecuteOnStartup* @_ZN12_GLOBAL__N_119__onstartup_obj_485E, void ()* @_ZN12_GLOBAL__N_120__onstartup_func_485Ev), !dbg !2582
  %0 = call i32 @__cxa_atexit(void (i8*)* bitcast (void (%class.ExecuteOnStartup*)* @_ZN16ExecuteOnStartupD1Ev to void (i8*)*), i8* bitcast (%class.ExecuteOnStartup* @_ZN12_GLOBAL__N_119__onstartup_obj_485E to i8*), i8* @__dso_handle) #3, !dbg !2582
  ret void, !dbg !2582
}

; Function Attrs: noinline uwtable
define internal void @_ZN12_GLOBAL__N_120__onstartup_func_485Ev() #0 personality i8* bitcast (i32 (...)* @__gxx_personality_v0 to i8*) !dbg !2583 {
entry:
  %exn.slot = alloca i8*
  %ehselector.slot = alloca i32
  %call = call %class.cRegistrationList* @_ZN23cGlobalRegistrationList11getInstanceEv(%class.cGlobalRegistrationList* @nedFunctions), !dbg !2584
  %call1 = call i8* @_Znwm(i64 192) #12, !dbg !2584
  %0 = bitcast i8* %call1 to %class.cNEDFunction*, !dbg !2584
  invoke void @_ZN12cNEDFunctionC1EPFN18cDynamicExpression5ValueEP10cComponentPS1_iEPKcS8_S8_(%class.cNEDFunction* %0, void (%"struct.cDynamicExpression::Value"*, %class.cComponent*, %"struct.cDynamicExpression::Value"*, i32)* @_ZL16nedf_exponentialP10cComponentPN18cDynamicExpression5ValueEi, i8* getelementptr inbounds ([47 x i8], [47 x i8]* @.str.184, i64 0, i64 0), i8* getelementptr inbounds ([18 x i8], [18 x i8]* @.str.182, i64 0, i64 0), i8* getelementptr inbounds ([58 x i8], [58 x i8]* @.str.185, i64 0, i64 0))
          to label %invoke.cont unwind label %lpad, !dbg !2584

invoke.cont:                                      ; preds = %entry
  %1 = bitcast %class.cNEDFunction* %0 to %class.cOwnedObject*, !dbg !2584
  %2 = bitcast %class.cRegistrationList* %call to void (%class.cRegistrationList*, %class.cOwnedObject*)***, !dbg !2584
  %vtable = load void (%class.cRegistrationList*, %class.cOwnedObject*)**, void (%class.cRegistrationList*, %class.cOwnedObject*)*** %2, align 8, !dbg !2584
  %vfn = getelementptr inbounds void (%class.cRegistrationList*, %class.cOwnedObject*)*, void (%class.cRegistrationList*, %class.cOwnedObject*)** %vtable, i64 22, !dbg !2584
  %3 = load void (%class.cRegistrationList*, %class.cOwnedObject*)*, void (%class.cRegistrationList*, %class.cOwnedObject*)** %vfn, align 8, !dbg !2584
  call void %3(%class.cRegistrationList* %call, %class.cOwnedObject* %1), !dbg !2584
  ret void, !dbg !2584

lpad:                                             ; preds = %entry
  %4 = landingpad { i8*, i32 }
          cleanup, !dbg !2584
  %5 = extractvalue { i8*, i32 } %4, 0, !dbg !2584
  store i8* %5, i8** %exn.slot, align 8, !dbg !2584
  %6 = extractvalue { i8*, i32 } %4, 1, !dbg !2584
  store i32 %6, i32* %ehselector.slot, align 4, !dbg !2584
  call void @_ZdlPv(i8* %call1) #13, !dbg !2584
  br label %eh.resume, !dbg !2584

eh.resume:                                        ; preds = %lpad
  %exn = load i8*, i8** %exn.slot, align 8, !dbg !2584
  %sel = load i32, i32* %ehselector.slot, align 4, !dbg !2584
  %lpad.val = insertvalue { i8*, i32 } undef, i8* %exn, 0, !dbg !2584
  %lpad.val2 = insertvalue { i8*, i32 } %lpad.val, i32 %sel, 1, !dbg !2584
  resume { i8*, i32 } %lpad.val2, !dbg !2584
}

; Function Attrs: noinline uwtable
define internal void @__cxx_global_var_init.51() #0 section ".text.startup" !dbg !2585 {
entry:
  call void @_ZN16ExecuteOnStartupC1EPFvvE(%class.ExecuteOnStartup* @_ZN12_GLOBAL__N_119__onstartup_obj_496E, void ()* @_ZN12_GLOBAL__N_120__onstartup_func_496Ev), !dbg !2586
  %0 = call i32 @__cxa_atexit(void (i8*)* bitcast (void (%class.ExecuteOnStartup*)* @_ZN16ExecuteOnStartupD1Ev to void (i8*)*), i8* bitcast (%class.ExecuteOnStartup* @_ZN12_GLOBAL__N_119__onstartup_obj_496E to i8*), i8* @__dso_handle) #3, !dbg !2586
  ret void, !dbg !2586
}

; Function Attrs: noinline uwtable
define internal void @_ZN12_GLOBAL__N_120__onstartup_func_496Ev() #0 personality i8* bitcast (i32 (...)* @__gxx_personality_v0 to i8*) !dbg !2587 {
entry:
  %exn.slot = alloca i8*
  %ehselector.slot = alloca i32
  %call = call %class.cRegistrationList* @_ZN23cGlobalRegistrationList11getInstanceEv(%class.cGlobalRegistrationList* @nedFunctions), !dbg !2588
  %call1 = call i8* @_Znwm(i64 192) #12, !dbg !2588
  %0 = bitcast i8* %call1 to %class.cNEDFunction*, !dbg !2588
  invoke void @_ZN12cNEDFunctionC1EPFN18cDynamicExpression5ValueEP10cComponentPS1_iEPKcS8_S8_(%class.cNEDFunction* %0, void (%"struct.cDynamicExpression::Value"*, %class.cComponent*, %"struct.cDynamicExpression::Value"*, i32)* @_ZL11nedf_normalP10cComponentPN18cDynamicExpression5ValueEi, i8* getelementptr inbounds ([59 x i8], [59 x i8]* @.str.186, i64 0, i64 0), i8* getelementptr inbounds ([18 x i8], [18 x i8]* @.str.182, i64 0, i64 0), i8* getelementptr inbounds ([53 x i8], [53 x i8]* @.str.187, i64 0, i64 0))
          to label %invoke.cont unwind label %lpad, !dbg !2588

invoke.cont:                                      ; preds = %entry
  %1 = bitcast %class.cNEDFunction* %0 to %class.cOwnedObject*, !dbg !2588
  %2 = bitcast %class.cRegistrationList* %call to void (%class.cRegistrationList*, %class.cOwnedObject*)***, !dbg !2588
  %vtable = load void (%class.cRegistrationList*, %class.cOwnedObject*)**, void (%class.cRegistrationList*, %class.cOwnedObject*)*** %2, align 8, !dbg !2588
  %vfn = getelementptr inbounds void (%class.cRegistrationList*, %class.cOwnedObject*)*, void (%class.cRegistrationList*, %class.cOwnedObject*)** %vtable, i64 22, !dbg !2588
  %3 = load void (%class.cRegistrationList*, %class.cOwnedObject*)*, void (%class.cRegistrationList*, %class.cOwnedObject*)** %vfn, align 8, !dbg !2588
  call void %3(%class.cRegistrationList* %call, %class.cOwnedObject* %1), !dbg !2588
  ret void, !dbg !2588

lpad:                                             ; preds = %entry
  %4 = landingpad { i8*, i32 }
          cleanup, !dbg !2588
  %5 = extractvalue { i8*, i32 } %4, 0, !dbg !2588
  store i8* %5, i8** %exn.slot, align 8, !dbg !2588
  %6 = extractvalue { i8*, i32 } %4, 1, !dbg !2588
  store i32 %6, i32* %ehselector.slot, align 4, !dbg !2588
  call void @_ZdlPv(i8* %call1) #13, !dbg !2588
  br label %eh.resume, !dbg !2588

eh.resume:                                        ; preds = %lpad
  %exn = load i8*, i8** %exn.slot, align 8, !dbg !2588
  %sel = load i32, i32* %ehselector.slot, align 4, !dbg !2588
  %lpad.val = insertvalue { i8*, i32 } undef, i8* %exn, 0, !dbg !2588
  %lpad.val2 = insertvalue { i8*, i32 } %lpad.val, i32 %sel, 1, !dbg !2588
  resume { i8*, i32 } %lpad.val2, !dbg !2588
}

; Function Attrs: noinline uwtable
define internal void @__cxx_global_var_init.52() #0 section ".text.startup" !dbg !2589 {
entry:
  call void @_ZN16ExecuteOnStartupC1EPFvvE(%class.ExecuteOnStartup* @_ZN12_GLOBAL__N_119__onstartup_obj_507E, void ()* @_ZN12_GLOBAL__N_120__onstartup_func_507Ev), !dbg !2590
  %0 = call i32 @__cxa_atexit(void (i8*)* bitcast (void (%class.ExecuteOnStartup*)* @_ZN16ExecuteOnStartupD1Ev to void (i8*)*), i8* bitcast (%class.ExecuteOnStartup* @_ZN12_GLOBAL__N_119__onstartup_obj_507E to i8*), i8* @__dso_handle) #3, !dbg !2590
  ret void, !dbg !2590
}

; Function Attrs: noinline uwtable
define internal void @_ZN12_GLOBAL__N_120__onstartup_func_507Ev() #0 personality i8* bitcast (i32 (...)* @__gxx_personality_v0 to i8*) !dbg !2591 {
entry:
  %exn.slot = alloca i8*
  %ehselector.slot = alloca i32
  %call = call %class.cRegistrationList* @_ZN23cGlobalRegistrationList11getInstanceEv(%class.cGlobalRegistrationList* @nedFunctions), !dbg !2592
  %call1 = call i8* @_Znwm(i64 192) #12, !dbg !2592
  %0 = bitcast i8* %call1 to %class.cNEDFunction*, !dbg !2592
  invoke void @_ZN12cNEDFunctionC1EPFN18cDynamicExpression5ValueEP10cComponentPS1_iEPKcS8_S8_(%class.cNEDFunction* %0, void (%"struct.cDynamicExpression::Value"*, %class.cComponent*, %"struct.cDynamicExpression::Value"*, i32)* @_ZL16nedf_truncnormalP10cComponentPN18cDynamicExpression5ValueEi, i8* getelementptr inbounds ([64 x i8], [64 x i8]* @.str.188, i64 0, i64 0), i8* getelementptr inbounds ([18 x i8], [18 x i8]* @.str.182, i64 0, i64 0), i8* getelementptr inbounds ([63 x i8], [63 x i8]* @.str.189, i64 0, i64 0))
          to label %invoke.cont unwind label %lpad, !dbg !2592

invoke.cont:                                      ; preds = %entry
  %1 = bitcast %class.cNEDFunction* %0 to %class.cOwnedObject*, !dbg !2592
  %2 = bitcast %class.cRegistrationList* %call to void (%class.cRegistrationList*, %class.cOwnedObject*)***, !dbg !2592
  %vtable = load void (%class.cRegistrationList*, %class.cOwnedObject*)**, void (%class.cRegistrationList*, %class.cOwnedObject*)*** %2, align 8, !dbg !2592
  %vfn = getelementptr inbounds void (%class.cRegistrationList*, %class.cOwnedObject*)*, void (%class.cRegistrationList*, %class.cOwnedObject*)** %vtable, i64 22, !dbg !2592
  %3 = load void (%class.cRegistrationList*, %class.cOwnedObject*)*, void (%class.cRegistrationList*, %class.cOwnedObject*)** %vfn, align 8, !dbg !2592
  call void %3(%class.cRegistrationList* %call, %class.cOwnedObject* %1), !dbg !2592
  ret void, !dbg !2592

lpad:                                             ; preds = %entry
  %4 = landingpad { i8*, i32 }
          cleanup, !dbg !2592
  %5 = extractvalue { i8*, i32 } %4, 0, !dbg !2592
  store i8* %5, i8** %exn.slot, align 8, !dbg !2592
  %6 = extractvalue { i8*, i32 } %4, 1, !dbg !2592
  store i32 %6, i32* %ehselector.slot, align 4, !dbg !2592
  call void @_ZdlPv(i8* %call1) #13, !dbg !2592
  br label %eh.resume, !dbg !2592

eh.resume:                                        ; preds = %lpad
  %exn = load i8*, i8** %exn.slot, align 8, !dbg !2592
  %sel = load i32, i32* %ehselector.slot, align 4, !dbg !2592
  %lpad.val = insertvalue { i8*, i32 } undef, i8* %exn, 0, !dbg !2592
  %lpad.val2 = insertvalue { i8*, i32 } %lpad.val, i32 %sel, 1, !dbg !2592
  resume { i8*, i32 } %lpad.val2, !dbg !2592
}

; Function Attrs: noinline uwtable
define internal void @__cxx_global_var_init.53() #0 section ".text.startup" !dbg !2593 {
entry:
  call void @_ZN16ExecuteOnStartupC1EPFvvE(%class.ExecuteOnStartup* @_ZN12_GLOBAL__N_119__onstartup_obj_517E, void ()* @_ZN12_GLOBAL__N_120__onstartup_func_517Ev), !dbg !2594
  %0 = call i32 @__cxa_atexit(void (i8*)* bitcast (void (%class.ExecuteOnStartup*)* @_ZN16ExecuteOnStartupD1Ev to void (i8*)*), i8* bitcast (%class.ExecuteOnStartup* @_ZN12_GLOBAL__N_119__onstartup_obj_517E to i8*), i8* @__dso_handle) #3, !dbg !2594
  ret void, !dbg !2594
}

; Function Attrs: noinline uwtable
define internal void @_ZN12_GLOBAL__N_120__onstartup_func_517Ev() #0 personality i8* bitcast (i32 (...)* @__gxx_personality_v0 to i8*) !dbg !2595 {
entry:
  %exn.slot = alloca i8*
  %ehselector.slot = alloca i32
  %call = call %class.cRegistrationList* @_ZN23cGlobalRegistrationList11getInstanceEv(%class.cGlobalRegistrationList* @nedFunctions), !dbg !2596
  %call1 = call i8* @_Znwm(i64 192) #12, !dbg !2596
  %0 = bitcast i8* %call1 to %class.cNEDFunction*, !dbg !2596
  invoke void @_ZN12cNEDFunctionC1EPFN18cDynamicExpression5ValueEP10cComponentPS1_iEPKcS8_S8_(%class.cNEDFunction* %0, void (%"struct.cDynamicExpression::Value"*, %class.cComponent*, %"struct.cDynamicExpression::Value"*, i32)* @_ZL12nedf_gamma_dP10cComponentPN18cDynamicExpression5ValueEi, i8* getelementptr inbounds ([58 x i8], [58 x i8]* @.str.190, i64 0, i64 0), i8* getelementptr inbounds ([18 x i8], [18 x i8]* @.str.182, i64 0, i64 0), i8* getelementptr inbounds ([52 x i8], [52 x i8]* @.str.191, i64 0, i64 0))
          to label %invoke.cont unwind label %lpad, !dbg !2596

invoke.cont:                                      ; preds = %entry
  %1 = bitcast %class.cNEDFunction* %0 to %class.cOwnedObject*, !dbg !2596
  %2 = bitcast %class.cRegistrationList* %call to void (%class.cRegistrationList*, %class.cOwnedObject*)***, !dbg !2596
  %vtable = load void (%class.cRegistrationList*, %class.cOwnedObject*)**, void (%class.cRegistrationList*, %class.cOwnedObject*)*** %2, align 8, !dbg !2596
  %vfn = getelementptr inbounds void (%class.cRegistrationList*, %class.cOwnedObject*)*, void (%class.cRegistrationList*, %class.cOwnedObject*)** %vtable, i64 22, !dbg !2596
  %3 = load void (%class.cRegistrationList*, %class.cOwnedObject*)*, void (%class.cRegistrationList*, %class.cOwnedObject*)** %vfn, align 8, !dbg !2596
  call void %3(%class.cRegistrationList* %call, %class.cOwnedObject* %1), !dbg !2596
  ret void, !dbg !2596

lpad:                                             ; preds = %entry
  %4 = landingpad { i8*, i32 }
          cleanup, !dbg !2596
  %5 = extractvalue { i8*, i32 } %4, 0, !dbg !2596
  store i8* %5, i8** %exn.slot, align 8, !dbg !2596
  %6 = extractvalue { i8*, i32 } %4, 1, !dbg !2596
  store i32 %6, i32* %ehselector.slot, align 4, !dbg !2596
  call void @_ZdlPv(i8* %call1) #13, !dbg !2596
  br label %eh.resume, !dbg !2596

eh.resume:                                        ; preds = %lpad
  %exn = load i8*, i8** %exn.slot, align 8, !dbg !2596
  %sel = load i32, i32* %ehselector.slot, align 4, !dbg !2596
  %lpad.val = insertvalue { i8*, i32 } undef, i8* %exn, 0, !dbg !2596
  %lpad.val2 = insertvalue { i8*, i32 } %lpad.val, i32 %sel, 1, !dbg !2596
  resume { i8*, i32 } %lpad.val2, !dbg !2596
}

; Function Attrs: noinline uwtable
define internal void @__cxx_global_var_init.54() #0 section ".text.startup" !dbg !2597 {
entry:
  call void @_ZN16ExecuteOnStartupC1EPFvvE(%class.ExecuteOnStartup* @_ZN12_GLOBAL__N_119__onstartup_obj_527E, void ()* @_ZN12_GLOBAL__N_120__onstartup_func_527Ev), !dbg !2598
  %0 = call i32 @__cxa_atexit(void (i8*)* bitcast (void (%class.ExecuteOnStartup*)* @_ZN16ExecuteOnStartupD1Ev to void (i8*)*), i8* bitcast (%class.ExecuteOnStartup* @_ZN12_GLOBAL__N_119__onstartup_obj_527E to i8*), i8* @__dso_handle) #3, !dbg !2598
  ret void, !dbg !2598
}

; Function Attrs: noinline uwtable
define internal void @_ZN12_GLOBAL__N_120__onstartup_func_527Ev() #0 personality i8* bitcast (i32 (...)* @__gxx_personality_v0 to i8*) !dbg !2599 {
entry:
  %exn.slot = alloca i8*
  %ehselector.slot = alloca i32
  %call = call %class.cRegistrationList* @_ZN23cGlobalRegistrationList11getInstanceEv(%class.cGlobalRegistrationList* @nedFunctions), !dbg !2600
  %call1 = call i8* @_Znwm(i64 192) #12, !dbg !2600
  %0 = bitcast i8* %call1 to %class.cNEDFunction*, !dbg !2600
  invoke void @_ZN12cNEDFunctionC1EPFN18cDynamicExpression5ValueEP10cComponentPS1_iEPKcS8_S8_(%class.cNEDFunction* %0, void (%"struct.cDynamicExpression::Value"*, %class.cComponent*, %"struct.cDynamicExpression::Value"*, i32)* @_ZL9nedf_betaP10cComponentPN18cDynamicExpression5ValueEi, i8* getelementptr inbounds ([53 x i8], [53 x i8]* @.str.192, i64 0, i64 0), i8* getelementptr inbounds ([18 x i8], [18 x i8]* @.str.182, i64 0, i64 0), i8* getelementptr inbounds ([51 x i8], [51 x i8]* @.str.193, i64 0, i64 0))
          to label %invoke.cont unwind label %lpad, !dbg !2600

invoke.cont:                                      ; preds = %entry
  %1 = bitcast %class.cNEDFunction* %0 to %class.cOwnedObject*, !dbg !2600
  %2 = bitcast %class.cRegistrationList* %call to void (%class.cRegistrationList*, %class.cOwnedObject*)***, !dbg !2600
  %vtable = load void (%class.cRegistrationList*, %class.cOwnedObject*)**, void (%class.cRegistrationList*, %class.cOwnedObject*)*** %2, align 8, !dbg !2600
  %vfn = getelementptr inbounds void (%class.cRegistrationList*, %class.cOwnedObject*)*, void (%class.cRegistrationList*, %class.cOwnedObject*)** %vtable, i64 22, !dbg !2600
  %3 = load void (%class.cRegistrationList*, %class.cOwnedObject*)*, void (%class.cRegistrationList*, %class.cOwnedObject*)** %vfn, align 8, !dbg !2600
  call void %3(%class.cRegistrationList* %call, %class.cOwnedObject* %1), !dbg !2600
  ret void, !dbg !2600

lpad:                                             ; preds = %entry
  %4 = landingpad { i8*, i32 }
          cleanup, !dbg !2600
  %5 = extractvalue { i8*, i32 } %4, 0, !dbg !2600
  store i8* %5, i8** %exn.slot, align 8, !dbg !2600
  %6 = extractvalue { i8*, i32 } %4, 1, !dbg !2600
  store i32 %6, i32* %ehselector.slot, align 4, !dbg !2600
  call void @_ZdlPv(i8* %call1) #13, !dbg !2600
  br label %eh.resume, !dbg !2600

eh.resume:                                        ; preds = %lpad
  %exn = load i8*, i8** %exn.slot, align 8, !dbg !2600
  %sel = load i32, i32* %ehselector.slot, align 4, !dbg !2600
  %lpad.val = insertvalue { i8*, i32 } undef, i8* %exn, 0, !dbg !2600
  %lpad.val2 = insertvalue { i8*, i32 } %lpad.val, i32 %sel, 1, !dbg !2600
  resume { i8*, i32 } %lpad.val2, !dbg !2600
}

; Function Attrs: noinline uwtable
define internal void @__cxx_global_var_init.55() #0 section ".text.startup" !dbg !2601 {
entry:
  call void @_ZN16ExecuteOnStartupC1EPFvvE(%class.ExecuteOnStartup* @_ZN12_GLOBAL__N_119__onstartup_obj_540E, void ()* @_ZN12_GLOBAL__N_120__onstartup_func_540Ev), !dbg !2602
  %0 = call i32 @__cxa_atexit(void (i8*)* bitcast (void (%class.ExecuteOnStartup*)* @_ZN16ExecuteOnStartupD1Ev to void (i8*)*), i8* bitcast (%class.ExecuteOnStartup* @_ZN12_GLOBAL__N_119__onstartup_obj_540E to i8*), i8* @__dso_handle) #3, !dbg !2602
  ret void, !dbg !2602
}

; Function Attrs: noinline uwtable
define internal void @_ZN12_GLOBAL__N_120__onstartup_func_540Ev() #0 personality i8* bitcast (i32 (...)* @__gxx_personality_v0 to i8*) !dbg !2603 {
entry:
  %exn.slot = alloca i8*
  %ehselector.slot = alloca i32
  %call = call %class.cRegistrationList* @_ZN23cGlobalRegistrationList11getInstanceEv(%class.cGlobalRegistrationList* @nedFunctions), !dbg !2604
  %call1 = call i8* @_Znwm(i64 192) #12, !dbg !2604
  %0 = bitcast i8* %call1 to %class.cNEDFunction*, !dbg !2604
  invoke void @_ZN12cNEDFunctionC1EPFN18cDynamicExpression5ValueEP10cComponentPS1_iEPKcS8_S8_(%class.cNEDFunction* %0, void (%"struct.cDynamicExpression::Value"*, %class.cComponent*, %"struct.cDynamicExpression::Value"*, i32)* @_ZL13nedf_erlang_kP10cComponentPN18cDynamicExpression5ValueEi, i8* getelementptr inbounds ([52 x i8], [52 x i8]* @.str.194, i64 0, i64 0), i8* getelementptr inbounds ([18 x i8], [18 x i8]* @.str.182, i64 0, i64 0), i8* getelementptr inbounds ([53 x i8], [53 x i8]* @.str.195, i64 0, i64 0))
          to label %invoke.cont unwind label %lpad, !dbg !2604

invoke.cont:                                      ; preds = %entry
  %1 = bitcast %class.cNEDFunction* %0 to %class.cOwnedObject*, !dbg !2604
  %2 = bitcast %class.cRegistrationList* %call to void (%class.cRegistrationList*, %class.cOwnedObject*)***, !dbg !2604
  %vtable = load void (%class.cRegistrationList*, %class.cOwnedObject*)**, void (%class.cRegistrationList*, %class.cOwnedObject*)*** %2, align 8, !dbg !2604
  %vfn = getelementptr inbounds void (%class.cRegistrationList*, %class.cOwnedObject*)*, void (%class.cRegistrationList*, %class.cOwnedObject*)** %vtable, i64 22, !dbg !2604
  %3 = load void (%class.cRegistrationList*, %class.cOwnedObject*)*, void (%class.cRegistrationList*, %class.cOwnedObject*)** %vfn, align 8, !dbg !2604
  call void %3(%class.cRegistrationList* %call, %class.cOwnedObject* %1), !dbg !2604
  ret void, !dbg !2604

lpad:                                             ; preds = %entry
  %4 = landingpad { i8*, i32 }
          cleanup, !dbg !2604
  %5 = extractvalue { i8*, i32 } %4, 0, !dbg !2604
  store i8* %5, i8** %exn.slot, align 8, !dbg !2604
  %6 = extractvalue { i8*, i32 } %4, 1, !dbg !2604
  store i32 %6, i32* %ehselector.slot, align 4, !dbg !2604
  call void @_ZdlPv(i8* %call1) #13, !dbg !2604
  br label %eh.resume, !dbg !2604

eh.resume:                                        ; preds = %lpad
  %exn = load i8*, i8** %exn.slot, align 8, !dbg !2604
  %sel = load i32, i32* %ehselector.slot, align 4, !dbg !2604
  %lpad.val = insertvalue { i8*, i32 } undef, i8* %exn, 0, !dbg !2604
  %lpad.val2 = insertvalue { i8*, i32 } %lpad.val, i32 %sel, 1, !dbg !2604
  resume { i8*, i32 } %lpad.val2, !dbg !2604
}

; Function Attrs: noinline uwtable
define internal void @__cxx_global_var_init.56() #0 section ".text.startup" !dbg !2605 {
entry:
  call void @_ZN16ExecuteOnStartupC1EPFvvE(%class.ExecuteOnStartup* @_ZN12_GLOBAL__N_119__onstartup_obj_553E, void ()* @_ZN12_GLOBAL__N_120__onstartup_func_553Ev), !dbg !2606
  %0 = call i32 @__cxa_atexit(void (i8*)* bitcast (void (%class.ExecuteOnStartup*)* @_ZN16ExecuteOnStartupD1Ev to void (i8*)*), i8* bitcast (%class.ExecuteOnStartup* @_ZN12_GLOBAL__N_119__onstartup_obj_553E to i8*), i8* @__dso_handle) #3, !dbg !2606
  ret void, !dbg !2606
}

; Function Attrs: noinline uwtable
define internal void @_ZN12_GLOBAL__N_120__onstartup_func_553Ev() #0 personality i8* bitcast (i32 (...)* @__gxx_personality_v0 to i8*) !dbg !2607 {
entry:
  %exn.slot = alloca i8*
  %ehselector.slot = alloca i32
  %call = call %class.cRegistrationList* @_ZN23cGlobalRegistrationList11getInstanceEv(%class.cGlobalRegistrationList* @nedFunctions), !dbg !2608
  %call1 = call i8* @_Znwm(i64 192) #12, !dbg !2608
  %0 = bitcast i8* %call1 to %class.cNEDFunction*, !dbg !2608
  invoke void @_ZN12cNEDFunctionC1EPFN18cDynamicExpression5ValueEP10cComponentPS1_iEPKcS8_S8_(%class.cNEDFunction* %0, void (%"struct.cDynamicExpression::Value"*, %class.cComponent*, %"struct.cDynamicExpression::Value"*, i32)* @_ZL15nedf_chi_squareP10cComponentPN18cDynamicExpression5ValueEi, i8* getelementptr inbounds ([37 x i8], [37 x i8]* @.str.197, i64 0, i64 0), i8* getelementptr inbounds ([18 x i8], [18 x i8]* @.str.182, i64 0, i64 0), i8* getelementptr inbounds ([57 x i8], [57 x i8]* @.str.198, i64 0, i64 0))
          to label %invoke.cont unwind label %lpad, !dbg !2608

invoke.cont:                                      ; preds = %entry
  %1 = bitcast %class.cNEDFunction* %0 to %class.cOwnedObject*, !dbg !2608
  %2 = bitcast %class.cRegistrationList* %call to void (%class.cRegistrationList*, %class.cOwnedObject*)***, !dbg !2608
  %vtable = load void (%class.cRegistrationList*, %class.cOwnedObject*)**, void (%class.cRegistrationList*, %class.cOwnedObject*)*** %2, align 8, !dbg !2608
  %vfn = getelementptr inbounds void (%class.cRegistrationList*, %class.cOwnedObject*)*, void (%class.cRegistrationList*, %class.cOwnedObject*)** %vtable, i64 22, !dbg !2608
  %3 = load void (%class.cRegistrationList*, %class.cOwnedObject*)*, void (%class.cRegistrationList*, %class.cOwnedObject*)** %vfn, align 8, !dbg !2608
  call void %3(%class.cRegistrationList* %call, %class.cOwnedObject* %1), !dbg !2608
  ret void, !dbg !2608

lpad:                                             ; preds = %entry
  %4 = landingpad { i8*, i32 }
          cleanup, !dbg !2608
  %5 = extractvalue { i8*, i32 } %4, 0, !dbg !2608
  store i8* %5, i8** %exn.slot, align 8, !dbg !2608
  %6 = extractvalue { i8*, i32 } %4, 1, !dbg !2608
  store i32 %6, i32* %ehselector.slot, align 4, !dbg !2608
  call void @_ZdlPv(i8* %call1) #13, !dbg !2608
  br label %eh.resume, !dbg !2608

eh.resume:                                        ; preds = %lpad
  %exn = load i8*, i8** %exn.slot, align 8, !dbg !2608
  %sel = load i32, i32* %ehselector.slot, align 4, !dbg !2608
  %lpad.val = insertvalue { i8*, i32 } undef, i8* %exn, 0, !dbg !2608
  %lpad.val2 = insertvalue { i8*, i32 } %lpad.val, i32 %sel, 1, !dbg !2608
  resume { i8*, i32 } %lpad.val2, !dbg !2608
}

; Function Attrs: noinline uwtable
define internal void @__cxx_global_var_init.57() #0 section ".text.startup" !dbg !2609 {
entry:
  call void @_ZN16ExecuteOnStartupC1EPFvvE(%class.ExecuteOnStartup* @_ZN12_GLOBAL__N_119__onstartup_obj_566E, void ()* @_ZN12_GLOBAL__N_120__onstartup_func_566Ev), !dbg !2610
  %0 = call i32 @__cxa_atexit(void (i8*)* bitcast (void (%class.ExecuteOnStartup*)* @_ZN16ExecuteOnStartupD1Ev to void (i8*)*), i8* bitcast (%class.ExecuteOnStartup* @_ZN12_GLOBAL__N_119__onstartup_obj_566E to i8*), i8* @__dso_handle) #3, !dbg !2610
  ret void, !dbg !2610
}

; Function Attrs: noinline uwtable
define internal void @_ZN12_GLOBAL__N_120__onstartup_func_566Ev() #0 personality i8* bitcast (i32 (...)* @__gxx_personality_v0 to i8*) !dbg !2611 {
entry:
  %exn.slot = alloca i8*
  %ehselector.slot = alloca i32
  %call = call %class.cRegistrationList* @_ZN23cGlobalRegistrationList11getInstanceEv(%class.cGlobalRegistrationList* @nedFunctions), !dbg !2612
  %call1 = call i8* @_Znwm(i64 192) #12, !dbg !2612
  %0 = bitcast i8* %call1 to %class.cNEDFunction*, !dbg !2612
  invoke void @_ZN12cNEDFunctionC1EPFN18cDynamicExpression5ValueEP10cComponentPS1_iEPKcS8_S8_(%class.cNEDFunction* %0, void (%"struct.cDynamicExpression::Value"*, %class.cComponent*, %"struct.cDynamicExpression::Value"*, i32)* @_ZL14nedf_student_tP10cComponentPN18cDynamicExpression5ValueEi, i8* getelementptr inbounds ([36 x i8], [36 x i8]* @.str.200, i64 0, i64 0), i8* getelementptr inbounds ([18 x i8], [18 x i8]* @.str.182, i64 0, i64 0), i8* getelementptr inbounds ([56 x i8], [56 x i8]* @.str.201, i64 0, i64 0))
          to label %invoke.cont unwind label %lpad, !dbg !2612

invoke.cont:                                      ; preds = %entry
  %1 = bitcast %class.cNEDFunction* %0 to %class.cOwnedObject*, !dbg !2612
  %2 = bitcast %class.cRegistrationList* %call to void (%class.cRegistrationList*, %class.cOwnedObject*)***, !dbg !2612
  %vtable = load void (%class.cRegistrationList*, %class.cOwnedObject*)**, void (%class.cRegistrationList*, %class.cOwnedObject*)*** %2, align 8, !dbg !2612
  %vfn = getelementptr inbounds void (%class.cRegistrationList*, %class.cOwnedObject*)*, void (%class.cRegistrationList*, %class.cOwnedObject*)** %vtable, i64 22, !dbg !2612
  %3 = load void (%class.cRegistrationList*, %class.cOwnedObject*)*, void (%class.cRegistrationList*, %class.cOwnedObject*)** %vfn, align 8, !dbg !2612
  call void %3(%class.cRegistrationList* %call, %class.cOwnedObject* %1), !dbg !2612
  ret void, !dbg !2612

lpad:                                             ; preds = %entry
  %4 = landingpad { i8*, i32 }
          cleanup, !dbg !2612
  %5 = extractvalue { i8*, i32 } %4, 0, !dbg !2612
  store i8* %5, i8** %exn.slot, align 8, !dbg !2612
  %6 = extractvalue { i8*, i32 } %4, 1, !dbg !2612
  store i32 %6, i32* %ehselector.slot, align 4, !dbg !2612
  call void @_ZdlPv(i8* %call1) #13, !dbg !2612
  br label %eh.resume, !dbg !2612

eh.resume:                                        ; preds = %lpad
  %exn = load i8*, i8** %exn.slot, align 8, !dbg !2612
  %sel = load i32, i32* %ehselector.slot, align 4, !dbg !2612
  %lpad.val = insertvalue { i8*, i32 } undef, i8* %exn, 0, !dbg !2612
  %lpad.val2 = insertvalue { i8*, i32 } %lpad.val, i32 %sel, 1, !dbg !2612
  resume { i8*, i32 } %lpad.val2, !dbg !2612
}

; Function Attrs: noinline uwtable
define internal void @__cxx_global_var_init.58() #0 section ".text.startup" !dbg !2613 {
entry:
  call void @_ZN16ExecuteOnStartupC1EPFvvE(%class.ExecuteOnStartup* @_ZN12_GLOBAL__N_119__onstartup_obj_577E, void ()* @_ZN12_GLOBAL__N_120__onstartup_func_577Ev), !dbg !2614
  %0 = call i32 @__cxa_atexit(void (i8*)* bitcast (void (%class.ExecuteOnStartup*)* @_ZN16ExecuteOnStartupD1Ev to void (i8*)*), i8* bitcast (%class.ExecuteOnStartup* @_ZN12_GLOBAL__N_119__onstartup_obj_577E to i8*), i8* @__dso_handle) #3, !dbg !2614
  ret void, !dbg !2614
}

; Function Attrs: noinline uwtable
define internal void @_ZN12_GLOBAL__N_120__onstartup_func_577Ev() #0 personality i8* bitcast (i32 (...)* @__gxx_personality_v0 to i8*) !dbg !2615 {
entry:
  %exn.slot = alloca i8*
  %ehselector.slot = alloca i32
  %call = call %class.cRegistrationList* @_ZN23cGlobalRegistrationList11getInstanceEv(%class.cGlobalRegistrationList* @nedFunctions), !dbg !2616
  %call1 = call i8* @_Znwm(i64 192) #12, !dbg !2616
  %0 = bitcast i8* %call1 to %class.cNEDFunction*, !dbg !2616
  invoke void @_ZN12cNEDFunctionC1EPFN18cDynamicExpression5ValueEP10cComponentPS1_iEPKcS8_S8_(%class.cNEDFunction* %0, void (%"struct.cDynamicExpression::Value"*, %class.cComponent*, %"struct.cDynamicExpression::Value"*, i32)* @_ZL11nedf_cauchyP10cComponentPN18cDynamicExpression5ValueEi, i8* getelementptr inbounds ([51 x i8], [51 x i8]* @.str.203, i64 0, i64 0), i8* getelementptr inbounds ([18 x i8], [18 x i8]* @.str.182, i64 0, i64 0), i8* getelementptr inbounds ([53 x i8], [53 x i8]* @.str.204, i64 0, i64 0))
          to label %invoke.cont unwind label %lpad, !dbg !2616

invoke.cont:                                      ; preds = %entry
  %1 = bitcast %class.cNEDFunction* %0 to %class.cOwnedObject*, !dbg !2616
  %2 = bitcast %class.cRegistrationList* %call to void (%class.cRegistrationList*, %class.cOwnedObject*)***, !dbg !2616
  %vtable = load void (%class.cRegistrationList*, %class.cOwnedObject*)**, void (%class.cRegistrationList*, %class.cOwnedObject*)*** %2, align 8, !dbg !2616
  %vfn = getelementptr inbounds void (%class.cRegistrationList*, %class.cOwnedObject*)*, void (%class.cRegistrationList*, %class.cOwnedObject*)** %vtable, i64 22, !dbg !2616
  %3 = load void (%class.cRegistrationList*, %class.cOwnedObject*)*, void (%class.cRegistrationList*, %class.cOwnedObject*)** %vfn, align 8, !dbg !2616
  call void %3(%class.cRegistrationList* %call, %class.cOwnedObject* %1), !dbg !2616
  ret void, !dbg !2616

lpad:                                             ; preds = %entry
  %4 = landingpad { i8*, i32 }
          cleanup, !dbg !2616
  %5 = extractvalue { i8*, i32 } %4, 0, !dbg !2616
  store i8* %5, i8** %exn.slot, align 8, !dbg !2616
  %6 = extractvalue { i8*, i32 } %4, 1, !dbg !2616
  store i32 %6, i32* %ehselector.slot, align 4, !dbg !2616
  call void @_ZdlPv(i8* %call1) #13, !dbg !2616
  br label %eh.resume, !dbg !2616

eh.resume:                                        ; preds = %lpad
  %exn = load i8*, i8** %exn.slot, align 8, !dbg !2616
  %sel = load i32, i32* %ehselector.slot, align 4, !dbg !2616
  %lpad.val = insertvalue { i8*, i32 } undef, i8* %exn, 0, !dbg !2616
  %lpad.val2 = insertvalue { i8*, i32 } %lpad.val, i32 %sel, 1, !dbg !2616
  resume { i8*, i32 } %lpad.val2, !dbg !2616
}

; Function Attrs: noinline uwtable
define internal void @__cxx_global_var_init.59() #0 section ".text.startup" !dbg !2617 {
entry:
  call void @_ZN16ExecuteOnStartupC1EPFvvE(%class.ExecuteOnStartup* @_ZN12_GLOBAL__N_119__onstartup_obj_589E, void ()* @_ZN12_GLOBAL__N_120__onstartup_func_589Ev), !dbg !2618
  %0 = call i32 @__cxa_atexit(void (i8*)* bitcast (void (%class.ExecuteOnStartup*)* @_ZN16ExecuteOnStartupD1Ev to void (i8*)*), i8* bitcast (%class.ExecuteOnStartup* @_ZN12_GLOBAL__N_119__onstartup_obj_589E to i8*), i8* @__dso_handle) #3, !dbg !2618
  ret void, !dbg !2618
}

; Function Attrs: noinline uwtable
define internal void @_ZN12_GLOBAL__N_120__onstartup_func_589Ev() #0 personality i8* bitcast (i32 (...)* @__gxx_personality_v0 to i8*) !dbg !2619 {
entry:
  %exn.slot = alloca i8*
  %ehselector.slot = alloca i32
  %call = call %class.cRegistrationList* @_ZN23cGlobalRegistrationList11getInstanceEv(%class.cGlobalRegistrationList* @nedFunctions), !dbg !2620
  %call1 = call i8* @_Znwm(i64 192) #12, !dbg !2620
  %0 = bitcast i8* %call1 to %class.cNEDFunction*, !dbg !2620
  invoke void @_ZN12cNEDFunctionC1EPFN18cDynamicExpression5ValueEP10cComponentPS1_iEPKcS8_S8_(%class.cNEDFunction* %0, void (%"struct.cDynamicExpression::Value"*, %class.cComponent*, %"struct.cDynamicExpression::Value"*, i32)* @_ZL11nedf_triangP10cComponentPN18cDynamicExpression5ValueEi, i8* getelementptr inbounds ([63 x i8], [63 x i8]* @.str.205, i64 0, i64 0), i8* getelementptr inbounds ([18 x i8], [18 x i8]* @.str.182, i64 0, i64 0), i8* getelementptr inbounds ([57 x i8], [57 x i8]* @.str.206, i64 0, i64 0))
          to label %invoke.cont unwind label %lpad, !dbg !2620

invoke.cont:                                      ; preds = %entry
  %1 = bitcast %class.cNEDFunction* %0 to %class.cOwnedObject*, !dbg !2620
  %2 = bitcast %class.cRegistrationList* %call to void (%class.cRegistrationList*, %class.cOwnedObject*)***, !dbg !2620
  %vtable = load void (%class.cRegistrationList*, %class.cOwnedObject*)**, void (%class.cRegistrationList*, %class.cOwnedObject*)*** %2, align 8, !dbg !2620
  %vfn = getelementptr inbounds void (%class.cRegistrationList*, %class.cOwnedObject*)*, void (%class.cRegistrationList*, %class.cOwnedObject*)** %vtable, i64 22, !dbg !2620
  %3 = load void (%class.cRegistrationList*, %class.cOwnedObject*)*, void (%class.cRegistrationList*, %class.cOwnedObject*)** %vfn, align 8, !dbg !2620
  call void %3(%class.cRegistrationList* %call, %class.cOwnedObject* %1), !dbg !2620
  ret void, !dbg !2620

lpad:                                             ; preds = %entry
  %4 = landingpad { i8*, i32 }
          cleanup, !dbg !2620
  %5 = extractvalue { i8*, i32 } %4, 0, !dbg !2620
  store i8* %5, i8** %exn.slot, align 8, !dbg !2620
  %6 = extractvalue { i8*, i32 } %4, 1, !dbg !2620
  store i32 %6, i32* %ehselector.slot, align 4, !dbg !2620
  call void @_ZdlPv(i8* %call1) #13, !dbg !2620
  br label %eh.resume, !dbg !2620

eh.resume:                                        ; preds = %lpad
  %exn = load i8*, i8** %exn.slot, align 8, !dbg !2620
  %sel = load i32, i32* %ehselector.slot, align 4, !dbg !2620
  %lpad.val = insertvalue { i8*, i32 } undef, i8* %exn, 0, !dbg !2620
  %lpad.val2 = insertvalue { i8*, i32 } %lpad.val, i32 %sel, 1, !dbg !2620
  resume { i8*, i32 } %lpad.val2, !dbg !2620
}

; Function Attrs: noinline uwtable
define internal void @__cxx_global_var_init.60() #0 section ".text.startup" !dbg !2621 {
entry:
  call void @_ZN16ExecuteOnStartupC1EPFvvE(%class.ExecuteOnStartup* @_ZN12_GLOBAL__N_119__onstartup_obj_599E, void ()* @_ZN12_GLOBAL__N_120__onstartup_func_599Ev), !dbg !2622
  %0 = call i32 @__cxa_atexit(void (i8*)* bitcast (void (%class.ExecuteOnStartup*)* @_ZN16ExecuteOnStartupD1Ev to void (i8*)*), i8* bitcast (%class.ExecuteOnStartup* @_ZN12_GLOBAL__N_119__onstartup_obj_599E to i8*), i8* @__dso_handle) #3, !dbg !2622
  ret void, !dbg !2622
}

; Function Attrs: noinline uwtable
define internal void @_ZN12_GLOBAL__N_120__onstartup_func_599Ev() #0 personality i8* bitcast (i32 (...)* @__gxx_personality_v0 to i8*) !dbg !2623 {
entry:
  %exn.slot = alloca i8*
  %ehselector.slot = alloca i32
  %call = call %class.cRegistrationList* @_ZN23cGlobalRegistrationList11getInstanceEv(%class.cGlobalRegistrationList* @nedFunctions), !dbg !2624
  %call1 = call i8* @_Znwm(i64 192) #12, !dbg !2624
  %0 = bitcast i8* %call1 to %class.cNEDFunction*, !dbg !2624
  invoke void @_ZN12cNEDFunctionC1EPFN18cDynamicExpression5ValueEP10cComponentPS1_iEPKcS8_S8_(%class.cNEDFunction* %0, void (%"struct.cDynamicExpression::Value"*, %class.cComponent*, %"struct.cDynamicExpression::Value"*, i32)* @_ZL14nedf_lognormalP10cComponentPN18cDynamicExpression5ValueEi, i8* getelementptr inbounds ([48 x i8], [48 x i8]* @.str.207, i64 0, i64 0), i8* getelementptr inbounds ([18 x i8], [18 x i8]* @.str.182, i64 0, i64 0), i8* getelementptr inbounds ([56 x i8], [56 x i8]* @.str.208, i64 0, i64 0))
          to label %invoke.cont unwind label %lpad, !dbg !2624

invoke.cont:                                      ; preds = %entry
  %1 = bitcast %class.cNEDFunction* %0 to %class.cOwnedObject*, !dbg !2624
  %2 = bitcast %class.cRegistrationList* %call to void (%class.cRegistrationList*, %class.cOwnedObject*)***, !dbg !2624
  %vtable = load void (%class.cRegistrationList*, %class.cOwnedObject*)**, void (%class.cRegistrationList*, %class.cOwnedObject*)*** %2, align 8, !dbg !2624
  %vfn = getelementptr inbounds void (%class.cRegistrationList*, %class.cOwnedObject*)*, void (%class.cRegistrationList*, %class.cOwnedObject*)** %vtable, i64 22, !dbg !2624
  %3 = load void (%class.cRegistrationList*, %class.cOwnedObject*)*, void (%class.cRegistrationList*, %class.cOwnedObject*)** %vfn, align 8, !dbg !2624
  call void %3(%class.cRegistrationList* %call, %class.cOwnedObject* %1), !dbg !2624
  ret void, !dbg !2624

lpad:                                             ; preds = %entry
  %4 = landingpad { i8*, i32 }
          cleanup, !dbg !2624
  %5 = extractvalue { i8*, i32 } %4, 0, !dbg !2624
  store i8* %5, i8** %exn.slot, align 8, !dbg !2624
  %6 = extractvalue { i8*, i32 } %4, 1, !dbg !2624
  store i32 %6, i32* %ehselector.slot, align 4, !dbg !2624
  call void @_ZdlPv(i8* %call1) #13, !dbg !2624
  br label %eh.resume, !dbg !2624

eh.resume:                                        ; preds = %lpad
  %exn = load i8*, i8** %exn.slot, align 8, !dbg !2624
  %sel = load i32, i32* %ehselector.slot, align 4, !dbg !2624
  %lpad.val = insertvalue { i8*, i32 } undef, i8* %exn, 0, !dbg !2624
  %lpad.val2 = insertvalue { i8*, i32 } %lpad.val, i32 %sel, 1, !dbg !2624
  resume { i8*, i32 } %lpad.val2, !dbg !2624
}

; Function Attrs: noinline uwtable
define internal void @__cxx_global_var_init.61() #0 section ".text.startup" !dbg !2625 {
entry:
  call void @_ZN16ExecuteOnStartupC1EPFvvE(%class.ExecuteOnStartup* @_ZN12_GLOBAL__N_119__onstartup_obj_610E, void ()* @_ZN12_GLOBAL__N_120__onstartup_func_610Ev), !dbg !2626
  %0 = call i32 @__cxa_atexit(void (i8*)* bitcast (void (%class.ExecuteOnStartup*)* @_ZN16ExecuteOnStartupD1Ev to void (i8*)*), i8* bitcast (%class.ExecuteOnStartup* @_ZN12_GLOBAL__N_119__onstartup_obj_610E to i8*), i8* @__dso_handle) #3, !dbg !2626
  ret void, !dbg !2626
}

; Function Attrs: noinline uwtable
define internal void @_ZN12_GLOBAL__N_120__onstartup_func_610Ev() #0 personality i8* bitcast (i32 (...)* @__gxx_personality_v0 to i8*) !dbg !2627 {
entry:
  %exn.slot = alloca i8*
  %ehselector.slot = alloca i32
  %call = call %class.cRegistrationList* @_ZN23cGlobalRegistrationList11getInstanceEv(%class.cGlobalRegistrationList* @nedFunctions), !dbg !2628
  %call1 = call i8* @_Znwm(i64 192) #12, !dbg !2628
  %0 = bitcast i8* %call1 to %class.cNEDFunction*, !dbg !2628
  invoke void @_ZN12cNEDFunctionC1EPFN18cDynamicExpression5ValueEP10cComponentPS1_iEPKcS8_S8_(%class.cNEDFunction* %0, void (%"struct.cDynamicExpression::Value"*, %class.cComponent*, %"struct.cDynamicExpression::Value"*, i32)* @_ZL12nedf_weibullP10cComponentPN18cDynamicExpression5ValueEi, i8* getelementptr inbounds ([52 x i8], [52 x i8]* @.str.209, i64 0, i64 0), i8* getelementptr inbounds ([18 x i8], [18 x i8]* @.str.182, i64 0, i64 0), i8* getelementptr inbounds ([54 x i8], [54 x i8]* @.str.210, i64 0, i64 0))
          to label %invoke.cont unwind label %lpad, !dbg !2628

invoke.cont:                                      ; preds = %entry
  %1 = bitcast %class.cNEDFunction* %0 to %class.cOwnedObject*, !dbg !2628
  %2 = bitcast %class.cRegistrationList* %call to void (%class.cRegistrationList*, %class.cOwnedObject*)***, !dbg !2628
  %vtable = load void (%class.cRegistrationList*, %class.cOwnedObject*)**, void (%class.cRegistrationList*, %class.cOwnedObject*)*** %2, align 8, !dbg !2628
  %vfn = getelementptr inbounds void (%class.cRegistrationList*, %class.cOwnedObject*)*, void (%class.cRegistrationList*, %class.cOwnedObject*)** %vtable, i64 22, !dbg !2628
  %3 = load void (%class.cRegistrationList*, %class.cOwnedObject*)*, void (%class.cRegistrationList*, %class.cOwnedObject*)** %vfn, align 8, !dbg !2628
  call void %3(%class.cRegistrationList* %call, %class.cOwnedObject* %1), !dbg !2628
  ret void, !dbg !2628

lpad:                                             ; preds = %entry
  %4 = landingpad { i8*, i32 }
          cleanup, !dbg !2628
  %5 = extractvalue { i8*, i32 } %4, 0, !dbg !2628
  store i8* %5, i8** %exn.slot, align 8, !dbg !2628
  %6 = extractvalue { i8*, i32 } %4, 1, !dbg !2628
  store i32 %6, i32* %ehselector.slot, align 4, !dbg !2628
  call void @_ZdlPv(i8* %call1) #13, !dbg !2628
  br label %eh.resume, !dbg !2628

eh.resume:                                        ; preds = %lpad
  %exn = load i8*, i8** %exn.slot, align 8, !dbg !2628
  %sel = load i32, i32* %ehselector.slot, align 4, !dbg !2628
  %lpad.val = insertvalue { i8*, i32 } undef, i8* %exn, 0, !dbg !2628
  %lpad.val2 = insertvalue { i8*, i32 } %lpad.val, i32 %sel, 1, !dbg !2628
  resume { i8*, i32 } %lpad.val2, !dbg !2628
}

; Function Attrs: noinline uwtable
define internal void @__cxx_global_var_init.62() #0 section ".text.startup" !dbg !2629 {
entry:
  call void @_ZN16ExecuteOnStartupC1EPFvvE(%class.ExecuteOnStartup* @_ZN12_GLOBAL__N_119__onstartup_obj_621E, void ()* @_ZN12_GLOBAL__N_120__onstartup_func_621Ev), !dbg !2630
  %0 = call i32 @__cxa_atexit(void (i8*)* bitcast (void (%class.ExecuteOnStartup*)* @_ZN16ExecuteOnStartupD1Ev to void (i8*)*), i8* bitcast (%class.ExecuteOnStartup* @_ZN12_GLOBAL__N_119__onstartup_obj_621E to i8*), i8* @__dso_handle) #3, !dbg !2630
  ret void, !dbg !2630
}

; Function Attrs: noinline uwtable
define internal void @_ZN12_GLOBAL__N_120__onstartup_func_621Ev() #0 personality i8* bitcast (i32 (...)* @__gxx_personality_v0 to i8*) !dbg !2631 {
entry:
  %exn.slot = alloca i8*
  %ehselector.slot = alloca i32
  %call = call %class.cRegistrationList* @_ZN23cGlobalRegistrationList11getInstanceEv(%class.cGlobalRegistrationList* @nedFunctions), !dbg !2632
  %call1 = call i8* @_Znwm(i64 192) #12, !dbg !2632
  %0 = bitcast i8* %call1 to %class.cNEDFunction*, !dbg !2632
  invoke void @_ZN12cNEDFunctionC1EPFN18cDynamicExpression5ValueEP10cComponentPS1_iEPKcS8_S8_(%class.cNEDFunction* %0, void (%"struct.cDynamicExpression::Value"*, %class.cComponent*, %"struct.cDynamicExpression::Value"*, i32)* @_ZL19nedf_pareto_shiftedP10cComponentPN18cDynamicExpression5ValueEi, i8* getelementptr inbounds ([69 x i8], [69 x i8]* @.str.211, i64 0, i64 0), i8* getelementptr inbounds ([18 x i8], [18 x i8]* @.str.182, i64 0, i64 0), i8* getelementptr inbounds ([61 x i8], [61 x i8]* @.str.212, i64 0, i64 0))
          to label %invoke.cont unwind label %lpad, !dbg !2632

invoke.cont:                                      ; preds = %entry
  %1 = bitcast %class.cNEDFunction* %0 to %class.cOwnedObject*, !dbg !2632
  %2 = bitcast %class.cRegistrationList* %call to void (%class.cRegistrationList*, %class.cOwnedObject*)***, !dbg !2632
  %vtable = load void (%class.cRegistrationList*, %class.cOwnedObject*)**, void (%class.cRegistrationList*, %class.cOwnedObject*)*** %2, align 8, !dbg !2632
  %vfn = getelementptr inbounds void (%class.cRegistrationList*, %class.cOwnedObject*)*, void (%class.cRegistrationList*, %class.cOwnedObject*)** %vtable, i64 22, !dbg !2632
  %3 = load void (%class.cRegistrationList*, %class.cOwnedObject*)*, void (%class.cRegistrationList*, %class.cOwnedObject*)** %vfn, align 8, !dbg !2632
  call void %3(%class.cRegistrationList* %call, %class.cOwnedObject* %1), !dbg !2632
  ret void, !dbg !2632

lpad:                                             ; preds = %entry
  %4 = landingpad { i8*, i32 }
          cleanup, !dbg !2632
  %5 = extractvalue { i8*, i32 } %4, 0, !dbg !2632
  store i8* %5, i8** %exn.slot, align 8, !dbg !2632
  %6 = extractvalue { i8*, i32 } %4, 1, !dbg !2632
  store i32 %6, i32* %ehselector.slot, align 4, !dbg !2632
  call void @_ZdlPv(i8* %call1) #13, !dbg !2632
  br label %eh.resume, !dbg !2632

eh.resume:                                        ; preds = %lpad
  %exn = load i8*, i8** %exn.slot, align 8, !dbg !2632
  %sel = load i32, i32* %ehselector.slot, align 4, !dbg !2632
  %lpad.val = insertvalue { i8*, i32 } undef, i8* %exn, 0, !dbg !2632
  %lpad.val2 = insertvalue { i8*, i32 } %lpad.val, i32 %sel, 1, !dbg !2632
  resume { i8*, i32 } %lpad.val2, !dbg !2632
}

; Function Attrs: noinline uwtable
define internal void @__cxx_global_var_init.63() #0 section ".text.startup" !dbg !2633 {
entry:
  call void @_ZN16ExecuteOnStartupC1EPFvvE(%class.ExecuteOnStartup* @_ZN12_GLOBAL__N_119__onstartup_obj_633E, void ()* @_ZN12_GLOBAL__N_120__onstartup_func_633Ev), !dbg !2634
  %0 = call i32 @__cxa_atexit(void (i8*)* bitcast (void (%class.ExecuteOnStartup*)* @_ZN16ExecuteOnStartupD1Ev to void (i8*)*), i8* bitcast (%class.ExecuteOnStartup* @_ZN12_GLOBAL__N_119__onstartup_obj_633E to i8*), i8* @__dso_handle) #3, !dbg !2634
  ret void, !dbg !2634
}

; Function Attrs: noinline uwtable
define internal void @_ZN12_GLOBAL__N_120__onstartup_func_633Ev() #0 personality i8* bitcast (i32 (...)* @__gxx_personality_v0 to i8*) !dbg !2635 {
entry:
  %exn.slot = alloca i8*
  %ehselector.slot = alloca i32
  %call = call %class.cRegistrationList* @_ZN23cGlobalRegistrationList11getInstanceEv(%class.cGlobalRegistrationList* @nedFunctions), !dbg !2636
  %call1 = call i8* @_Znwm(i64 192) #12, !dbg !2636
  %0 = bitcast i8* %call1 to %class.cNEDFunction*, !dbg !2636
  invoke void @_ZN12cNEDFunctionC1EPFN18cDynamicExpression5ValueEP10cComponentPS1_iEPKcS8_S8_(%class.cNEDFunction* %0, void (%"struct.cDynamicExpression::Value"*, %class.cComponent*, %"struct.cDynamicExpression::Value"*, i32)* @_ZL15nedf_intuniformP10cComponentPN18cDynamicExpression5ValueEi, i8* getelementptr inbounds ([43 x i8], [43 x i8]* @.str.213, i64 0, i64 0), i8* getelementptr inbounds ([16 x i8], [16 x i8]* @.str.214, i64 0, i64 0), i8* getelementptr inbounds ([57 x i8], [57 x i8]* @.str.215, i64 0, i64 0))
          to label %invoke.cont unwind label %lpad, !dbg !2636

invoke.cont:                                      ; preds = %entry
  %1 = bitcast %class.cNEDFunction* %0 to %class.cOwnedObject*, !dbg !2636
  %2 = bitcast %class.cRegistrationList* %call to void (%class.cRegistrationList*, %class.cOwnedObject*)***, !dbg !2636
  %vtable = load void (%class.cRegistrationList*, %class.cOwnedObject*)**, void (%class.cRegistrationList*, %class.cOwnedObject*)*** %2, align 8, !dbg !2636
  %vfn = getelementptr inbounds void (%class.cRegistrationList*, %class.cOwnedObject*)*, void (%class.cRegistrationList*, %class.cOwnedObject*)** %vtable, i64 22, !dbg !2636
  %3 = load void (%class.cRegistrationList*, %class.cOwnedObject*)*, void (%class.cRegistrationList*, %class.cOwnedObject*)** %vfn, align 8, !dbg !2636
  call void %3(%class.cRegistrationList* %call, %class.cOwnedObject* %1), !dbg !2636
  ret void, !dbg !2636

lpad:                                             ; preds = %entry
  %4 = landingpad { i8*, i32 }
          cleanup, !dbg !2636
  %5 = extractvalue { i8*, i32 } %4, 0, !dbg !2636
  store i8* %5, i8** %exn.slot, align 8, !dbg !2636
  %6 = extractvalue { i8*, i32 } %4, 1, !dbg !2636
  store i32 %6, i32* %ehselector.slot, align 4, !dbg !2636
  call void @_ZdlPv(i8* %call1) #13, !dbg !2636
  br label %eh.resume, !dbg !2636

eh.resume:                                        ; preds = %lpad
  %exn = load i8*, i8** %exn.slot, align 8, !dbg !2636
  %sel = load i32, i32* %ehselector.slot, align 4, !dbg !2636
  %lpad.val = insertvalue { i8*, i32 } undef, i8* %exn, 0, !dbg !2636
  %lpad.val2 = insertvalue { i8*, i32 } %lpad.val, i32 %sel, 1, !dbg !2636
  resume { i8*, i32 } %lpad.val2, !dbg !2636
}

; Function Attrs: noinline uwtable
define internal void @__cxx_global_var_init.64() #0 section ".text.startup" !dbg !2637 {
entry:
  call void @_ZN16ExecuteOnStartupC1EPFvvE(%class.ExecuteOnStartup* @_ZN12_GLOBAL__N_119__onstartup_obj_643E, void ()* @_ZN12_GLOBAL__N_120__onstartup_func_643Ev), !dbg !2638
  %0 = call i32 @__cxa_atexit(void (i8*)* bitcast (void (%class.ExecuteOnStartup*)* @_ZN16ExecuteOnStartupD1Ev to void (i8*)*), i8* bitcast (%class.ExecuteOnStartup* @_ZN12_GLOBAL__N_119__onstartup_obj_643E to i8*), i8* @__dso_handle) #3, !dbg !2638
  ret void, !dbg !2638
}

; Function Attrs: noinline uwtable
define internal void @_ZN12_GLOBAL__N_120__onstartup_func_643Ev() #0 personality i8* bitcast (i32 (...)* @__gxx_personality_v0 to i8*) !dbg !2639 {
entry:
  %exn.slot = alloca i8*
  %ehselector.slot = alloca i32
  %call = call %class.cRegistrationList* @_ZN23cGlobalRegistrationList11getInstanceEv(%class.cGlobalRegistrationList* @nedFunctions), !dbg !2640
  %call1 = call i8* @_Znwm(i64 192) #12, !dbg !2640
  %0 = bitcast i8* %call1 to %class.cNEDFunction*, !dbg !2640
  invoke void @_ZN12cNEDFunctionC1EPFN18cDynamicExpression5ValueEP10cComponentPS1_iEPKcS8_S8_(%class.cNEDFunction* %0, void (%"struct.cDynamicExpression::Value"*, %class.cComponent*, %"struct.cDynamicExpression::Value"*, i32)* @_ZL14nedf_bernoulliP10cComponentPN18cDynamicExpression5ValueEi, i8* getelementptr inbounds ([36 x i8], [36 x i8]* @.str.216, i64 0, i64 0), i8* getelementptr inbounds ([16 x i8], [16 x i8]* @.str.214, i64 0, i64 0), i8* getelementptr inbounds ([56 x i8], [56 x i8]* @.str.217, i64 0, i64 0))
          to label %invoke.cont unwind label %lpad, !dbg !2640

invoke.cont:                                      ; preds = %entry
  %1 = bitcast %class.cNEDFunction* %0 to %class.cOwnedObject*, !dbg !2640
  %2 = bitcast %class.cRegistrationList* %call to void (%class.cRegistrationList*, %class.cOwnedObject*)***, !dbg !2640
  %vtable = load void (%class.cRegistrationList*, %class.cOwnedObject*)**, void (%class.cRegistrationList*, %class.cOwnedObject*)*** %2, align 8, !dbg !2640
  %vfn = getelementptr inbounds void (%class.cRegistrationList*, %class.cOwnedObject*)*, void (%class.cRegistrationList*, %class.cOwnedObject*)** %vtable, i64 22, !dbg !2640
  %3 = load void (%class.cRegistrationList*, %class.cOwnedObject*)*, void (%class.cRegistrationList*, %class.cOwnedObject*)** %vfn, align 8, !dbg !2640
  call void %3(%class.cRegistrationList* %call, %class.cOwnedObject* %1), !dbg !2640
  ret void, !dbg !2640

lpad:                                             ; preds = %entry
  %4 = landingpad { i8*, i32 }
          cleanup, !dbg !2640
  %5 = extractvalue { i8*, i32 } %4, 0, !dbg !2640
  store i8* %5, i8** %exn.slot, align 8, !dbg !2640
  %6 = extractvalue { i8*, i32 } %4, 1, !dbg !2640
  store i32 %6, i32* %ehselector.slot, align 4, !dbg !2640
  call void @_ZdlPv(i8* %call1) #13, !dbg !2640
  br label %eh.resume, !dbg !2640

eh.resume:                                        ; preds = %lpad
  %exn = load i8*, i8** %exn.slot, align 8, !dbg !2640
  %sel = load i32, i32* %ehselector.slot, align 4, !dbg !2640
  %lpad.val = insertvalue { i8*, i32 } undef, i8* %exn, 0, !dbg !2640
  %lpad.val2 = insertvalue { i8*, i32 } %lpad.val, i32 %sel, 1, !dbg !2640
  resume { i8*, i32 } %lpad.val2, !dbg !2640
}

; Function Attrs: noinline uwtable
define internal void @__cxx_global_var_init.65() #0 section ".text.startup" !dbg !2641 {
entry:
  call void @_ZN16ExecuteOnStartupC1EPFvvE(%class.ExecuteOnStartup* @_ZN12_GLOBAL__N_119__onstartup_obj_653E, void ()* @_ZN12_GLOBAL__N_120__onstartup_func_653Ev), !dbg !2642
  %0 = call i32 @__cxa_atexit(void (i8*)* bitcast (void (%class.ExecuteOnStartup*)* @_ZN16ExecuteOnStartupD1Ev to void (i8*)*), i8* bitcast (%class.ExecuteOnStartup* @_ZN12_GLOBAL__N_119__onstartup_obj_653E to i8*), i8* @__dso_handle) #3, !dbg !2642
  ret void, !dbg !2642
}

; Function Attrs: noinline uwtable
define internal void @_ZN12_GLOBAL__N_120__onstartup_func_653Ev() #0 personality i8* bitcast (i32 (...)* @__gxx_personality_v0 to i8*) !dbg !2643 {
entry:
  %exn.slot = alloca i8*
  %ehselector.slot = alloca i32
  %call = call %class.cRegistrationList* @_ZN23cGlobalRegistrationList11getInstanceEv(%class.cGlobalRegistrationList* @nedFunctions), !dbg !2644
  %call1 = call i8* @_Znwm(i64 192) #12, !dbg !2644
  %0 = bitcast i8* %call1 to %class.cNEDFunction*, !dbg !2644
  invoke void @_ZN12cNEDFunctionC1EPFN18cDynamicExpression5ValueEP10cComponentPS1_iEPKcS8_S8_(%class.cNEDFunction* %0, void (%"struct.cDynamicExpression::Value"*, %class.cComponent*, %"struct.cDynamicExpression::Value"*, i32)* @_ZL13nedf_binomialP10cComponentPN18cDynamicExpression5ValueEi, i8* getelementptr inbounds ([43 x i8], [43 x i8]* @.str.218, i64 0, i64 0), i8* getelementptr inbounds ([16 x i8], [16 x i8]* @.str.214, i64 0, i64 0), i8* getelementptr inbounds ([55 x i8], [55 x i8]* @.str.219, i64 0, i64 0))
          to label %invoke.cont unwind label %lpad, !dbg !2644

invoke.cont:                                      ; preds = %entry
  %1 = bitcast %class.cNEDFunction* %0 to %class.cOwnedObject*, !dbg !2644
  %2 = bitcast %class.cRegistrationList* %call to void (%class.cRegistrationList*, %class.cOwnedObject*)***, !dbg !2644
  %vtable = load void (%class.cRegistrationList*, %class.cOwnedObject*)**, void (%class.cRegistrationList*, %class.cOwnedObject*)*** %2, align 8, !dbg !2644
