; ModuleID = 'simulator/cdynamicexpression.cc'
source_filename = "simulator/cdynamicexpression.cc"
target datalayout = "e-m:e-p270:32:32-p271:32:32-p272:64:64-i64:64-f80:128-n8:16:32:64-S128"
target triple = "x86_64-unknown-linux-gnu"

%"class.std::ios_base::Init" = type { i8 }
%class.cStringPool = type <{ %"class.std::__cxx11::basic_string", %"class.std::map", i8, [7 x i8] }>
%"class.std::__cxx11::basic_string" = type { %"struct.std::__cxx11::basic_string<char, std::char_traits<char>, std::allocator<char> >::_Alloc_hider", i64, %union.anon }
%"struct.std::__cxx11::basic_string<char, std::char_traits<char>, std::allocator<char> >::_Alloc_hider" = type { i8* }
%union.anon = type { i64, [8 x i8] }
%"class.std::map" = type { %"class.std::_Rb_tree" }
%"class.std::_Rb_tree" = type { %"struct.std::_Rb_tree<char *, std::pair<char *const, int>, std::_Select1st<std::pair<char *const, int> >, cStringPool::strless, std::allocator<std::pair<char *const, int> > >::_Rb_tree_impl" }
%"struct.std::_Rb_tree<char *, std::pair<char *const, int>, std::_Select1st<std::pair<char *const, int> >, cStringPool::strless, std::allocator<std::pair<char *const, int> > >::_Rb_tree_impl" = type { %"struct.std::_Rb_tree_key_compare", %"struct.std::_Rb_tree_header" }
%"struct.std::_Rb_tree_key_compare" = type { %"struct.cStringPool::strless" }
%"struct.cStringPool::strless" = type { i8 }
%"struct.std::_Rb_tree_header" = type { %"struct.std::_Rb_tree_node_base", i64 }
%"struct.std::_Rb_tree_node_base" = type { i32, %"struct.std::_Rb_tree_node_base"*, %"struct.std::_Rb_tree_node_base"*, %"struct.std::_Rb_tree_node_base"* }
%"struct.cDynamicExpression::Value" = type { i32, i8, double, i8*, %"class.std::__cxx11::basic_string", %class.cXMLElement* }
%class.cXMLElement = type { i32 (...)**, %"class.std::__cxx11::basic_string", %"class.std::__cxx11::basic_string", %"class.std::__cxx11::basic_string", %"class.std::map.4", %class.cXMLElement*, %class.cXMLElement*, %class.cXMLElement*, %class.cXMLElement*, %class.cXMLElement* }
%"class.std::map.4" = type { %"class.std::_Rb_tree.5" }
%"class.std::_Rb_tree.5" = type { %"struct.std::_Rb_tree<std::__cxx11::basic_string<char>, std::pair<const std::__cxx11::basic_string<char>, std::__cxx11::basic_string<char> >, std::_Select1st<std::pair<const std::__cxx11::basic_string<char>, std::__cxx11::basic_string<char> > >, std::less<std::__cxx11::basic_string<char> >, std::allocator<std::pair<const std::__cxx11::basic_string<char>, std::__cxx11::basic_string<char> > > >::_Rb_tree_impl" }
%"struct.std::_Rb_tree<std::__cxx11::basic_string<char>, std::pair<const std::__cxx11::basic_string<char>, std::__cxx11::basic_string<char> >, std::_Select1st<std::pair<const std::__cxx11::basic_string<char>, std::__cxx11::basic_string<char> > >, std::less<std::__cxx11::basic_string<char> >, std::allocator<std::pair<const std::__cxx11::basic_string<char>, std::__cxx11::basic_string<char> > > >::_Rb_tree_impl" = type { %"struct.std::_Rb_tree_key_compare.9", %"struct.std::_Rb_tree_header" }
%"struct.std::_Rb_tree_key_compare.9" = type { %"struct.std::less" }
%"struct.std::less" = type { i8 }
%"class.cDynamicExpression::Elem" = type { i32, %union.anon.3 }
%union.anon.3 = type { %struct.anon }
%struct.anon = type { double, i8* }
%class.cDynamicExpression = type <{ %class.cExpression, %"class.cDynamicExpression::Elem"*, i32, [4 x i8] }>
%class.cExpression = type { %class.cObject }
%class.cObject = type { i32 (...)** }
%"class.cDynamicExpression::Functor" = type { %class.cObject }
%class.cMathFunction = type { %class.cNoncopyableOwnedObject.base, double (...)*, i32, %"class.std::__cxx11::basic_string", %"class.std::__cxx11::basic_string" }
%class.cNoncopyableOwnedObject.base = type { %class.cOwnedObject.base }
%class.cOwnedObject.base = type <{ %class.cNamedObject.base, [4 x i8], %class.cObject*, i32 }>
%class.cNamedObject.base = type <{ %class.cObject, i8*, i16, i16 }>
%struct.anon.10 = type { %class.cNEDFunction*, i32 }
%class.cNEDFunction = type { %class.cNoncopyableOwnedObject.base, %"class.std::__cxx11::basic_string", %"class.std::__cxx11::basic_string", i8, i32, i32, void (%"struct.cDynamicExpression::Value"*, %class.cComponent*, %"struct.cDynamicExpression::Value"*, i32)*, %"class.std::__cxx11::basic_string", %"class.std::__cxx11::basic_string" }
%class.cComponent = type { %class.cDefaultList, %class.cComponentType*, i16, i32*, i16, i16, %class.cPar*, %class.cDisplayString* }
%class.cDefaultList = type { %class.cNoncopyableOwnedObject.base, %class.cOwnedObject**, i32, i32 }
%class.cOwnedObject = type <{ %class.cNamedObject.base, [4 x i8], %class.cObject*, i32, [4 x i8] }>
%class.cComponentType = type opaque
%class.cPar = type { %class.cObject, %class.cComponent*, %class.cParImpl* }
%class.cParImpl = type opaque
%class.cDisplayString = type opaque
%class.cRuntimeError = type { %class.cException.base, [4 x i8] }
%class.cException.base = type <{ %"class.std::exception", i32, [4 x i8], %"class.std::__cxx11::basic_string", i8, [7 x i8], %"class.std::__cxx11::basic_string", %"class.std::__cxx11::basic_string", i32 }>
%"class.std::exception" = type { i32 (...)** }
%class.cException = type <{ %"class.std::exception", i32, [4 x i8], %"class.std::__cxx11::basic_string", i8, [7 x i8], %"class.std::__cxx11::basic_string", %"class.std::__cxx11::basic_string", i32, [4 x i8] }>
%"class.std::allocator" = type { i8 }
%struct.Finally = type { %"struct.cDynamicExpression::Value"* }
%class.cNamedObject = type <{ %class.cObject, i8*, i16, i16, [4 x i8] }>
%class.cClassDescriptor = type opaque
%class.cCommBuffer = type opaque
%class.cVisitor = type { i32 (...)** }

$__clang_call_terminate = comdat any

$_Z10opp_strcmpPKcS0_ = comdat any

$_ZN13cRuntimeErrorD2Ev = comdat any

$_ZN18cDynamicExpression5ValueaSEb = comdat any

$_ZN18cDynamicExpression5ValueaSEd = comdat any

$_ZN18cDynamicExpression5ValueaSERKNSt7__cxx1112basic_stringIcSt11char_traitsIcESaIcEEE = comdat any

$_ZN18cDynamicExpression5ValueaSEP11cXMLElement = comdat any

$_Z15opp_nulltoemptyPKc = comdat any

$_ZN11cExpressionC2Ev = comdat any

$_ZN18cDynamicExpression4ElemC2Ev = comdat any

$_ZN18cDynamicExpression5ValueD2Ev = comdat any

$_Z14double_to_longd = comdat any

$_ZN18cDynamicExpression5ValueC2Ev = comdat any

$_ZN18cDynamicExpression5Value3setEdPKc = comdat any

$_ZN18cDynamicExpression5ValueaSEPKc = comdat any

$_ZNK13cMathFunction10getNumArgsEv = comdat any

$_Z11opp_isemptyPKc = comdat any

$_ZN18cDynamicExpression5ValueaSEOS0_ = comdat any

$_ZN18cDynamicExpression5ValueaSERKS0_ = comdat any

$_ZStplIcSt11char_traitsIcESaIcEENSt7__cxx1112basic_stringIT_T0_T1_EERKS8_SA_ = comdat any

$_ZSteqIcEN9__gnu_cxx11__enable_ifIXsr9__is_charIT_EE7__valueEbE6__typeERKNSt7__cxx1112basic_stringIS2_St11char_traitsIS2_ESaIS2_EEESC_ = comdat any

$_ZStneIcSt11char_traitsIcESaIcEEbRKNSt7__cxx1112basic_stringIT_T0_T1_EESA_ = comdat any

$_ZStltIcSt11char_traitsIcESaIcEEbRKNSt7__cxx1112basic_stringIT_T0_T1_EESA_ = comdat any

$_ZStleIcSt11char_traitsIcESaIcEEbRKNSt7__cxx1112basic_stringIT_T0_T1_EESA_ = comdat any

$_ZStgtIcSt11char_traitsIcESaIcEEbRKNSt7__cxx1112basic_stringIT_T0_T1_EESA_ = comdat any

$_ZStgeIcSt11char_traitsIcESaIcEEbRKNSt7__cxx1112basic_stringIT_T0_T1_EESA_ = comdat any

$_ZN18cDynamicExpression5ValueC2ERKS0_ = comdat any

$_ZStplIcSt11char_traitsIcESaIcEENSt7__cxx1112basic_stringIT_T0_T1_EEOS8_PKS5_ = comdat any

$_ZStplIcSt11char_traitsIcESaIcEENSt7__cxx1112basic_stringIT_T0_T1_EERKS8_PKS5_ = comdat any

$_ZStplIcSt11char_traitsIcESaIcEENSt7__cxx1112basic_stringIT_T0_T1_EEPKS5_RKS8_ = comdat any

$_ZStplIcSt11char_traitsIcESaIcEENSt7__cxx1112basic_stringIT_T0_T1_EEOS8_S9_ = comdat any

$_ZStplIcSt11char_traitsIcESaIcEENSt7__cxx1112basic_stringIT_T0_T1_EEOS8_RKS8_ = comdat any

$_ZNK7cObject7getNameEv = comdat any

$_ZNK7cObject11getFullNameEv = comdat any

$_ZNK18cDynamicExpression3dupEv = comdat any

$_ZN11cExpression10parsimPackEP11cCommBuffer = comdat any

$_ZN11cExpression12parsimUnpackEP11cCommBuffer = comdat any

$_ZNK7cObject8getOwnerEv = comdat any

$_ZNK7cObject13isOwnedObjectEv = comdat any

$_ZN10cExceptionD2Ev = comdat any

$_ZN10cExceptionD0Ev = comdat any

$_ZNK10cException4whatEv = comdat any

$_ZNK10cException3dupEv = comdat any

$_ZNK10cException12getErrorCodeEv = comdat any

$_ZN10cException10setMessageEPKc = comdat any

$_ZN10cException14prependMessageEPKc = comdat any

$_ZNK10cException10hasContextEv = comdat any

$_ZNK10cException19getContextClassNameEv = comdat any

$_ZNK10cException18getContextFullPathEv = comdat any

$_ZNK10cException11getModuleIDEv = comdat any

$_ZN7cObjectC2Ev = comdat any

$_ZN11cExpressionD2Ev = comdat any

$_ZN11cExpressionD0Ev = comdat any

$_ZNK11cExpression4infoB5cxx11Ev = comdat any

$_ZNK11cExpression3dupEv = comdat any

$_ZN18cDynamicExpressionC2ERKS_ = comdat any

$_ZSt4moveIRNSt7__cxx1112basic_stringIcSt11char_traitsIcESaIcEEEEONSt16remove_referenceIT_E4typeEOS8_ = comdat any

$_ZNSt11char_traitsIcE7compareEPKcS2_m = comdat any

$_ZNSt11char_traitsIcE6lengthEPKc = comdat any

$_ZN9__gnu_cxx14__alloc_traitsISaIcEcE17_S_select_on_copyERKS1_ = comdat any

$_ZNSt16allocator_traitsISaIcEE37select_on_container_copy_constructionERKS0_ = comdat any

$_ZTS13cRuntimeError = comdat any

$_ZTS10cException = comdat any

$_ZTI10cException = comdat any

$_ZTI13cRuntimeError = comdat any

$_ZTS11cExpression = comdat any

$_ZTI11cExpression = comdat any

$_ZTV10cException = comdat any

$_ZTV11cExpression = comdat any

@_ZStL8__ioinit = internal global %"class.std::ios_base::Init" zeroinitializer, align 1, !dbg !0
@__dso_handle = external hidden global i8
@_ZN18cDynamicExpression4Elem10stringPoolE = dso_local global %class.cStringPool zeroinitializer, align 8, !dbg !28
@.str = private unnamed_addr constant [37 x i8] c"cDynamicExpression::Elem::stringPool\00", align 1
@.str.2 = private unnamed_addr constant [30 x i8] c"internal error: bad Elem type\00", align 1
@_ZTVN10__cxxabiv120__si_class_type_infoE = external dso_local global i8*
@_ZTS13cRuntimeError = linkonce_odr dso_local constant [16 x i8] c"13cRuntimeError\00", comdat, align 1
@_ZTS10cException = linkonce_odr dso_local constant [13 x i8] c"10cException\00", comdat, align 1
@_ZTISt9exception = external dso_local constant i8*
@_ZTI10cException = linkonce_odr dso_local constant { i8*, i8*, i8* } { i8* bitcast (i8** getelementptr inbounds (i8*, i8** @_ZTVN10__cxxabiv120__si_class_type_infoE, i64 2) to i8*), i8* getelementptr inbounds ([13 x i8], [13 x i8]* @_ZTS10cException, i32 0, i32 0), i8* bitcast (i8** @_ZTISt9exception to i8*) }, comdat, align 8
@_ZTI13cRuntimeError = linkonce_odr dso_local constant { i8*, i8*, i8* } { i8* bitcast (i8** getelementptr inbounds (i8*, i8** @_ZTVN10__cxxabiv120__si_class_type_infoE, i64 2) to i8*), i8* getelementptr inbounds ([16 x i8], [16 x i8]* @_ZTS13cRuntimeError, i32 0, i32 0), i8* bitcast ({ i8*, i8*, i8* }* @_ZTI10cException to i8*) }, comdat, align 8
@.str.3 = private unnamed_addr constant [34 x i8] c"internal error: bad cPar type: %s\00", align 1
@.str.4 = private unnamed_addr constant [5 x i8] c"true\00", align 1
@.str.5 = private unnamed_addr constant [6 x i8] c"false\00", align 1
@.str.6 = private unnamed_addr constant [5 x i8] c"%g%s\00", align 1
@.str.7 = private unnamed_addr constant [31 x i8] c"internal error: bad Value type\00", align 1
@_ZTV18cDynamicExpression = dso_local unnamed_addr constant { [34 x i8*] } { [34 x i8*] [i8* null, i8* bitcast ({ i8*, i8*, i8* }* @_ZTI18cDynamicExpression to i8*), i8* bitcast (%class.cClassDescriptor* (%class.cObject*)* @_ZN7cObject13getDescriptorEv to i8*), i8* bitcast (void (%class.cObject*, %class.cOwnedObject*)* @_ZN7cObject18ownedObjectDeletedEP12cOwnedObject to i8*), i8* bitcast (void (%class.cObject*, %class.cOwnedObject*, %class.cObject*)* @_ZN7cObject14yieldOwnershipEP12cOwnedObjectPS_ to i8*), i8* bitcast (void (%class.cDynamicExpression*)* @_ZN18cDynamicExpressionD1Ev to i8*), i8* bitcast (void (%class.cDynamicExpression*)* @_ZN18cDynamicExpressionD0Ev to i8*), i8* bitcast (i8* (%class.cObject*)* @_ZNK7cObject12getClassNameEv to i8*), i8* bitcast (i8* (%class.cObject*)* @_ZNK7cObject7getNameEv to i8*), i8* bitcast (i8* (%class.cObject*)* @_ZNK7cObject11getFullNameEv to i8*), i8* bitcast (void (%"class.std::__cxx11::basic_string"*, %class.cObject*)* @_ZNK7cObject11getFullPathB5cxx11Ev to i8*), i8* bitcast (void (%"class.std::__cxx11::basic_string"*, %class.cDynamicExpression*)* @_ZNK18cDynamicExpression4infoB5cxx11Ev to i8*), i8* bitcast (void (%"class.std::__cxx11::basic_string"*, %class.cObject*)* @_ZNK7cObject12detailedInfoB5cxx11Ev to i8*), i8* bitcast (%class.cDynamicExpression* (%class.cDynamicExpression*)* @_ZNK18cDynamicExpression3dupEv to i8*), i8* bitcast (void (%class.cObject*, %class.cOwnedObject*)* @_ZN7cObject4takeEP12cOwnedObject to i8*), i8* bitcast (void (%class.cObject*, %class.cOwnedObject*)* @_ZN7cObject4dropEP12cOwnedObject to i8*), i8* bitcast (void (%class.cExpression*, %class.cCommBuffer*)* @_ZN11cExpression10parsimPackEP11cCommBuffer to i8*), i8* bitcast (void (%class.cExpression*, %class.cCommBuffer*)* @_ZN11cExpression12parsimUnpackEP11cCommBuffer to i8*), i8* bitcast (%class.cObject* (%class.cObject*)* @_ZNK7cObject8getOwnerEv to i8*), i8* bitcast (i1 (%class.cObject*)* @_ZNK7cObject13isOwnedObjectEv to i8*), i8* bitcast (void (%class.cObject*, %class.cVisitor*)* @_ZN7cObject12forEachChildEP8cVisitor to i8*), i8* bitcast (i1 (%class.cDynamicExpression*, %class.cComponent*)* @_ZN18cDynamicExpression9boolValueEP10cComponent to i8*), i8* bitcast (i64 (%class.cDynamicExpression*, %class.cComponent*, i8*)* @_ZN18cDynamicExpression9longValueEP10cComponentPKc to i8*), i8* bitcast (double (%class.cDynamicExpression*, %class.cComponent*, i8*)* @_ZN18cDynamicExpression11doubleValueEP10cComponentPKc to i8*), i8* bitcast (void (%"class.std::__cxx11::basic_string"*, %class.cDynamicExpression*, %class.cComponent*)* @_ZN18cDynamicExpression11stringValueB5cxx11EP10cComponent to i8*), i8* bitcast (%class.cXMLElement* (%class.cDynamicExpression*, %class.cComponent*)* @_ZN18cDynamicExpression8xmlValueEP10cComponent to i8*), i8* bitcast (void (%"class.std::__cxx11::basic_string"*, %class.cDynamicExpression*)* @_ZNK18cDynamicExpression3strB5cxx11Ev to i8*), i8* bitcast (void (%class.cDynamicExpression*, i8*)* @_ZN18cDynamicExpression5parseEPKc to i8*), i8* bitcast (i32 (%class.cDynamicExpression*, %class.cExpression*)* @_ZNK18cDynamicExpression7compareEPK11cExpression to i8*), i8* bitcast (i1 (%class.cDynamicExpression*)* @_ZNK18cDynamicExpression27containsConstSubexpressionsEv to i8*), i8* bitcast (void (%class.cDynamicExpression*, %class.cComponent*)* @_ZN18cDynamicExpression27evaluateConstSubexpressionsEP10cComponent to i8*), i8* bitcast (void (%class.cDynamicExpression*, %"class.cDynamicExpression::Elem"*, i32)* @_ZN18cDynamicExpression13setExpressionEPNS_4ElemEi to i8*), i8* bitcast (void (%"struct.cDynamicExpression::Value"*, %class.cDynamicExpression*, %class.cComponent*)* @_ZNK18cDynamicExpression8evaluateEP10cComponent to i8*), i8* bitcast (i1 (%class.cDynamicExpression*)* @_ZNK18cDynamicExpression11isAConstantEv to i8*)] }, align 8
@_ZTS11cExpression = linkonce_odr dso_local constant [14 x i8] c"11cExpression\00", comdat, align 1
@_ZTI7cObject = external dso_local constant i8*
@_ZTI11cExpression = linkonce_odr dso_local constant { i8*, i8*, i8* } { i8* bitcast (i8** getelementptr inbounds (i8*, i8** @_ZTVN10__cxxabiv120__si_class_type_infoE, i64 2) to i8*), i8* getelementptr inbounds ([14 x i8], [14 x i8]* @_ZTS11cExpression, i32 0, i32 0), i8* bitcast (i8** @_ZTI7cObject to i8*) }, comdat, align 8
@_ZTS18cDynamicExpression = dso_local constant [21 x i8] c"18cDynamicExpression\00", align 1
@_ZTI18cDynamicExpression = dso_local constant { i8*, i8*, i8* } { i8* bitcast (i8** getelementptr inbounds (i8*, i8** @_ZTVN10__cxxabiv120__si_class_type_infoE, i64 2) to i8*), i8* getelementptr inbounds ([21 x i8], [21 x i8]* @_ZTS18cDynamicExpression, i32 0, i32 0), i8* bitcast ({ i8*, i8*, i8* }* @_ZTI11cExpression to i8*) }, align 8
@.str.8 = private unnamed_addr constant [41 x i8] c"const subexpressions not yet implemented\00", align 1
@.str.9 = private unnamed_addr constant [5 x i8] c"bool\00", align 1
@.str.10 = private unnamed_addr constant [5 x i8] c"long\00", align 1
@.str.11 = private unnamed_addr constant [7 x i8] c"double\00", align 1
@.str.12 = private unnamed_addr constant [7 x i8] c"string\00", align 1
@.str.13 = private unnamed_addr constant [12 x i8] c"XML element\00", align 1
@_ZL4_stk = internal global [20 x %"struct.cDynamicExpression::Value"] zeroinitializer, align 16, !dbg !1235
@_ZL9_stkinuse = internal global i8 0, align 1, !dbg !1243
@.str.15 = private unnamed_addr constant [67 x i8] c"evaluate: constant subexpressions must have already been evaluated\00", align 1
@.str.16 = private unnamed_addr constant [2 x i8] c"-\00", align 1
@.str.17 = private unnamed_addr constant [2 x i8] c"!\00", align 1
@.str.18 = private unnamed_addr constant [2 x i8] c"~\00", align 1
@.str.19 = private unnamed_addr constant [3 x i8] c"?:\00", align 1
@.str.20 = private unnamed_addr constant [2 x i8] c"+\00", align 1
@.str.21 = private unnamed_addr constant [2 x i8] c"*\00", align 1
@.str.22 = private unnamed_addr constant [55 x i8] c"Multiplying two quantities with units is not supported\00", align 1
@.str.23 = private unnamed_addr constant [2 x i8] c"/\00", align 1
@.str.24 = private unnamed_addr constant [2 x i8] c"%\00", align 1
@.str.25 = private unnamed_addr constant [2 x i8] c"^\00", align 1
@.str.26 = private unnamed_addr constant [3 x i8] c"&&\00", align 1
@.str.27 = private unnamed_addr constant [3 x i8] c"||\00", align 1
@.str.28 = private unnamed_addr constant [3 x i8] c"##\00", align 1
@.str.29 = private unnamed_addr constant [2 x i8] c"&\00", align 1
@.str.30 = private unnamed_addr constant [2 x i8] c"|\00", align 1
@.str.31 = private unnamed_addr constant [2 x i8] c"#\00", align 1
@.str.32 = private unnamed_addr constant [3 x i8] c"<<\00", align 1
@.str.33 = private unnamed_addr constant [3 x i8] c">>\00", align 1
@.str.34 = private unnamed_addr constant [3 x i8] c"==\00", align 1
@.str.35 = private unnamed_addr constant [3 x i8] c"!=\00", align 1
@.str.36 = private unnamed_addr constant [2 x i8] c"<\00", align 1
@.str.37 = private unnamed_addr constant [3 x i8] c"<=\00", align 1
@.str.38 = private unnamed_addr constant [2 x i8] c">\00", align 1
@.str.39 = private unnamed_addr constant [3 x i8] c">=\00", align 1
@.str.40 = private unnamed_addr constant [1 x i8] zeroinitializer, align 1
@.str.41 = private unnamed_addr constant [5 x i8] c"null\00", align 1
@.str.42 = private unnamed_addr constant [2 x i8] c"(\00", align 1
@.str.43 = private unnamed_addr constant [3 x i8] c", \00", align 1
@.str.44 = private unnamed_addr constant [2 x i8] c")\00", align 1
@.str.45 = private unnamed_addr constant [7 x i8] c"const(\00", align 1
@.str.46 = private unnamed_addr constant [3 x i8] c" -\00", align 1
@.str.47 = private unnamed_addr constant [3 x i8] c" !\00", align 1
@.str.48 = private unnamed_addr constant [3 x i8] c" ~\00", align 1
@.str.49 = private unnamed_addr constant [5 x i8] c" ???\00", align 1
@.str.50 = private unnamed_addr constant [4 x i8] c" ? \00", align 1
@.str.51 = private unnamed_addr constant [4 x i8] c" : \00", align 1
@.str.52 = private unnamed_addr constant [4 x i8] c" + \00", align 1
@.str.53 = private unnamed_addr constant [4 x i8] c" - \00", align 1
@.str.54 = private unnamed_addr constant [4 x i8] c" * \00", align 1
@.str.55 = private unnamed_addr constant [4 x i8] c" / \00", align 1
@.str.56 = private unnamed_addr constant [4 x i8] c" % \00", align 1
@.str.57 = private unnamed_addr constant [4 x i8] c" ^ \00", align 1
@.str.58 = private unnamed_addr constant [5 x i8] c" == \00", align 1
@.str.59 = private unnamed_addr constant [5 x i8] c" != \00", align 1
@.str.60 = private unnamed_addr constant [4 x i8] c" < \00", align 1
@.str.61 = private unnamed_addr constant [4 x i8] c" > \00", align 1
@.str.62 = private unnamed_addr constant [5 x i8] c" <= \00", align 1
@.str.63 = private unnamed_addr constant [5 x i8] c" >= \00", align 1
@.str.64 = private unnamed_addr constant [5 x i8] c" && \00", align 1
@.str.65 = private unnamed_addr constant [5 x i8] c" || \00", align 1
@.str.66 = private unnamed_addr constant [5 x i8] c" ## \00", align 1
@.str.67 = private unnamed_addr constant [4 x i8] c" & \00", align 1
@.str.68 = private unnamed_addr constant [4 x i8] c" | \00", align 1
@.str.69 = private unnamed_addr constant [4 x i8] c" # \00", align 1
@.str.70 = private unnamed_addr constant [5 x i8] c" << \00", align 1
@.str.71 = private unnamed_addr constant [5 x i8] c" >> \00", align 1
@.str.72 = private unnamed_addr constant [6 x i8] c" ??? \00", align 1
@.str.73 = private unnamed_addr constant [4 x i8] c"[[ \00", align 1
@.str.74 = private unnamed_addr constant [4 x i8] c" ]]\00", align 1
@_ZTV10cException = linkonce_odr dso_local unnamed_addr constant { [13 x i8*] } { [13 x i8*] [i8* null, i8* bitcast ({ i8*, i8*, i8* }* @_ZTI10cException to i8*), i8* bitcast (void (%class.cException*)* @_ZN10cExceptionD2Ev to i8*), i8* bitcast (void (%class.cException*)* @_ZN10cExceptionD0Ev to i8*), i8* bitcast (i8* (%class.cException*)* @_ZNK10cException4whatEv to i8*), i8* bitcast (%class.cException* (%class.cException*)* @_ZNK10cException3dupEv to i8*), i8* bitcast (i32 (%class.cException*)* @_ZNK10cException12getErrorCodeEv to i8*), i8* bitcast (void (%class.cException*, i8*)* @_ZN10cException10setMessageEPKc to i8*), i8* bitcast (void (%class.cException*, i8*)* @_ZN10cException14prependMessageEPKc to i8*), i8* bitcast (i1 (%class.cException*)* @_ZNK10cException10hasContextEv to i8*), i8* bitcast (i8* (%class.cException*)* @_ZNK10cException19getContextClassNameEv to i8*), i8* bitcast (i8* (%class.cException*)* @_ZNK10cException18getContextFullPathEv to i8*), i8* bitcast (i32 (%class.cException*)* @_ZNK10cException11getModuleIDEv to i8*)] }, comdat, align 8
@.str.75 = private unnamed_addr constant [3 x i8] c": \00", align 1
@_ZTV11cExpression = linkonce_odr dso_local unnamed_addr constant { [31 x i8*] } { [31 x i8*] [i8* null, i8* bitcast ({ i8*, i8*, i8* }* @_ZTI11cExpression to i8*), i8* bitcast (%class.cClassDescriptor* (%class.cObject*)* @_ZN7cObject13getDescriptorEv to i8*), i8* bitcast (void (%class.cObject*, %class.cOwnedObject*)* @_ZN7cObject18ownedObjectDeletedEP12cOwnedObject to i8*), i8* bitcast (void (%class.cObject*, %class.cOwnedObject*, %class.cObject*)* @_ZN7cObject14yieldOwnershipEP12cOwnedObjectPS_ to i8*), i8* bitcast (void (%class.cExpression*)* @_ZN11cExpressionD2Ev to i8*), i8* bitcast (void (%class.cExpression*)* @_ZN11cExpressionD0Ev to i8*), i8* bitcast (i8* (%class.cObject*)* @_ZNK7cObject12getClassNameEv to i8*), i8* bitcast (i8* (%class.cObject*)* @_ZNK7cObject7getNameEv to i8*), i8* bitcast (i8* (%class.cObject*)* @_ZNK7cObject11getFullNameEv to i8*), i8* bitcast (void (%"class.std::__cxx11::basic_string"*, %class.cObject*)* @_ZNK7cObject11getFullPathB5cxx11Ev to i8*), i8* bitcast (void (%"class.std::__cxx11::basic_string"*, %class.cExpression*)* @_ZNK11cExpression4infoB5cxx11Ev to i8*), i8* bitcast (void (%"class.std::__cxx11::basic_string"*, %class.cObject*)* @_ZNK7cObject12detailedInfoB5cxx11Ev to i8*), i8* bitcast (%class.cExpression* (%class.cExpression*)* @_ZNK11cExpression3dupEv to i8*), i8* bitcast (void (%class.cObject*, %class.cOwnedObject*)* @_ZN7cObject4takeEP12cOwnedObject to i8*), i8* bitcast (void (%class.cObject*, %class.cOwnedObject*)* @_ZN7cObject4dropEP12cOwnedObject to i8*), i8* bitcast (void (%class.cExpression*, %class.cCommBuffer*)* @_ZN11cExpression10parsimPackEP11cCommBuffer to i8*), i8* bitcast (void (%class.cExpression*, %class.cCommBuffer*)* @_ZN11cExpression12parsimUnpackEP11cCommBuffer to i8*), i8* bitcast (%class.cObject* (%class.cObject*)* @_ZNK7cObject8getOwnerEv to i8*), i8* bitcast (i1 (%class.cObject*)* @_ZNK7cObject13isOwnedObjectEv to i8*), i8* bitcast (void (%class.cObject*, %class.cVisitor*)* @_ZN7cObject12forEachChildEP8cVisitor to i8*), i8* bitcast (void ()* @__cxa_pure_virtual to i8*), i8* bitcast (void ()* @__cxa_pure_virtual to i8*), i8* bitcast (void ()* @__cxa_pure_virtual to i8*), i8* bitcast (void ()* @__cxa_pure_virtual to i8*), i8* bitcast (void ()* @__cxa_pure_virtual to i8*), i8* bitcast (void ()* @__cxa_pure_virtual to i8*), i8* bitcast (void ()* @__cxa_pure_virtual to i8*), i8* bitcast (void ()* @__cxa_pure_virtual to i8*), i8* bitcast (void ()* @__cxa_pure_virtual to i8*), i8* bitcast (void ()* @__cxa_pure_virtual to i8*)] }, comdat, align 8
@_ZTV7cObject = external dso_local unnamed_addr constant { [21 x i8*] }, align 8
@llvm.global_ctors = appending global [1 x { i32, void ()*, i8* }] [{ i32, void ()*, i8* } { i32 65535, void ()* @_GLOBAL__sub_I_cdynamicexpression.cc, i8* null }]

@_ZN18cDynamicExpression4ElemD1Ev = dso_local unnamed_addr alias void (%"class.cDynamicExpression::Elem"*), void (%"class.cDynamicExpression::Elem"*)* @_ZN18cDynamicExpression4ElemD2Ev
@_ZN18cDynamicExpressionC1Ev = dso_local unnamed_addr alias void (%class.cDynamicExpression*), void (%class.cDynamicExpression*)* @_ZN18cDynamicExpressionC2Ev
@_ZN18cDynamicExpressionD1Ev = dso_local unnamed_addr alias void (%class.cDynamicExpression*), void (%class.cDynamicExpression*)* @_ZN18cDynamicExpressionD2Ev

; Function Attrs: noinline uwtable
define internal void @__cxx_global_var_init() #0 section ".text.startup" !dbg !2497 {
entry:
  call void @_ZNSt8ios_base4InitC1Ev(%"class.std::ios_base::Init"* @_ZStL8__ioinit), !dbg !2498
  %0 = call i32 @__cxa_atexit(void (i8*)* bitcast (void (%"class.std::ios_base::Init"*)* @_ZNSt8ios_base4InitD1Ev to void (i8*)*), i8* getelementptr inbounds (%"class.std::ios_base::Init", %"class.std::ios_base::Init"* @_ZStL8__ioinit, i32 0, i32 0), i8* @__dso_handle) #3, !dbg !2498
  ret void, !dbg !2498
}

declare dso_local void @_ZNSt8ios_base4InitC1Ev(%"class.std::ios_base::Init"*) unnamed_addr #1

; Function Attrs: nounwind
declare dso_local void @_ZNSt8ios_base4InitD1Ev(%"class.std::ios_base::Init"*) unnamed_addr #2

; Function Attrs: nounwind
declare dso_local i32 @__cxa_atexit(void (i8*)*, i8*, i8*) #3

; Function Attrs: noinline uwtable
define internal void @__cxx_global_var_init.1() #0 section ".text.startup" !dbg !2499 {
entry:
  call void @_ZN11cStringPoolC1EPKc(%class.cStringPool* @_ZN18cDynamicExpression4Elem10stringPoolE, i8* getelementptr inbounds ([37 x i8], [37 x i8]* @.str, i64 0, i64 0)), !dbg !2500
  %0 = call i32 @__cxa_atexit(void (i8*)* bitcast (void (%class.cStringPool*)* @_ZN11cStringPoolD1Ev to void (i8*)*), i8* bitcast (%class.cStringPool* @_ZN18cDynamicExpression4Elem10stringPoolE to i8*), i8* @__dso_handle) #3, !dbg !2500
  ret void, !dbg !2501
}

declare dso_local void @_ZN11cStringPoolC1EPKc(%class.cStringPool*, i8*) unnamed_addr #1

; Function Attrs: nounwind
declare dso_local void @_ZN11cStringPoolD1Ev(%class.cStringPool*) unnamed_addr #2

; Function Attrs: noinline uwtable
define dso_local void @_ZN18cDynamicExpression4ElemaSERKS0_(%"class.cDynamicExpression::Elem"* %this, %"class.cDynamicExpression::Elem"* dereferenceable(24) %other) #0 align 2 !dbg !2502 {
entry:
  %this.addr = alloca %"class.cDynamicExpression::Elem"*, align 8
  %other.addr = alloca %"class.cDynamicExpression::Elem"*, align 8
  store %"class.cDynamicExpression::Elem"* %this, %"class.cDynamicExpression::Elem"** %this.addr, align 8
  call void @llvm.dbg.declare(metadata %"class.cDynamicExpression::Elem"** %this.addr, metadata !2503, metadata !DIExpression()), !dbg !2504
  store %"class.cDynamicExpression::Elem"* %other, %"class.cDynamicExpression::Elem"** %other.addr, align 8
  call void @llvm.dbg.declare(metadata %"class.cDynamicExpression::Elem"** %other.addr, metadata !2505, metadata !DIExpression()), !dbg !2506
  %this1 = load %"class.cDynamicExpression::Elem"*, %"class.cDynamicExpression::Elem"** %this.addr, align 8
  call void @_ZN18cDynamicExpression4Elem9deleteOldEv(%"class.cDynamicExpression::Elem"* %this1), !dbg !2507
  %0 = bitcast %"class.cDynamicExpression::Elem"* %this1 to i8*, !dbg !2508
  %1 = load %"class.cDynamicExpression::Elem"*, %"class.cDynamicExpression::Elem"** %other.addr, align 8, !dbg !2509
  %2 = bitcast %"class.cDynamicExpression::Elem"* %1 to i8*, !dbg !2508
  call void @llvm.memcpy.p0i8.p0i8.i64(i8* align 8 %0, i8* align 8 %2, i64 24, i1 false), !dbg !2508
  %type = getelementptr inbounds %"class.cDynamicExpression::Elem", %"class.cDynamicExpression::Elem"* %this1, i32 0, i32 0, !dbg !2510
  %3 = load i32, i32* %type, align 8, !dbg !2510
  %cmp = icmp eq i32 %3, 3, !dbg !2512
  br i1 %cmp, label %if.then, label %if.else, !dbg !2513

if.then:                                          ; preds = %entry
  %4 = getelementptr inbounds %"class.cDynamicExpression::Elem", %"class.cDynamicExpression::Elem"* %this1, i32 0, i32 1, !dbg !2514
  %s = bitcast %union.anon.3* %4 to i8**, !dbg !2514
  %5 = load i8*, i8** %s, align 8, !dbg !2514
  %call = call i8* @_ZN11cStringPool3getEPKc(%class.cStringPool* @_ZN18cDynamicExpression4Elem10stringPoolE, i8* %5), !dbg !2515
  %6 = getelementptr inbounds %"class.cDynamicExpression::Elem", %"class.cDynamicExpression::Elem"* %this1, i32 0, i32 1, !dbg !2516
  %s2 = bitcast %union.anon.3* %6 to i8**, !dbg !2516
  store i8* %call, i8** %s2, align 8, !dbg !2517
  br label %if.end25, !dbg !2516

if.else:                                          ; preds = %entry
  %type3 = getelementptr inbounds %"class.cDynamicExpression::Elem", %"class.cDynamicExpression::Elem"* %this1, i32 0, i32 0, !dbg !2518
  %7 = load i32, i32* %type3, align 8, !dbg !2518
  %cmp4 = icmp eq i32 %7, 2, !dbg !2520
  br i1 %cmp4, label %if.then5, label %if.else9, !dbg !2521

if.then5:                                         ; preds = %if.else
  %8 = getelementptr inbounds %"class.cDynamicExpression::Elem", %"class.cDynamicExpression::Elem"* %this1, i32 0, i32 1, !dbg !2522
  %d = bitcast %union.anon.3* %8 to %struct.anon*, !dbg !2522
  %unit = getelementptr inbounds %struct.anon, %struct.anon* %d, i32 0, i32 1, !dbg !2523
  %9 = load i8*, i8** %unit, align 8, !dbg !2523
  %call6 = call i8* @_ZN11cStringPool3getEPKc(%class.cStringPool* @_ZN18cDynamicExpression4Elem10stringPoolE, i8* %9), !dbg !2524
  %10 = getelementptr inbounds %"class.cDynamicExpression::Elem", %"class.cDynamicExpression::Elem"* %this1, i32 0, i32 1, !dbg !2525
  %d7 = bitcast %union.anon.3* %10 to %struct.anon*, !dbg !2525
  %unit8 = getelementptr inbounds %struct.anon, %struct.anon* %d7, i32 0, i32 1, !dbg !2526
  store i8* %call6, i8** %unit8, align 8, !dbg !2527
  br label %if.end24, !dbg !2525

if.else9:                                         ; preds = %if.else
  %type10 = getelementptr inbounds %"class.cDynamicExpression::Elem", %"class.cDynamicExpression::Elem"* %this1, i32 0, i32 0, !dbg !2528
  %11 = load i32, i32* %type10, align 8, !dbg !2528
  %cmp11 = icmp eq i32 %11, 7, !dbg !2530
  br i1 %cmp11, label %if.then12, label %if.else15, !dbg !2531

if.then12:                                        ; preds = %if.else9
  %12 = getelementptr inbounds %"class.cDynamicExpression::Elem", %"class.cDynamicExpression::Elem"* %this1, i32 0, i32 1, !dbg !2532
  %fu = bitcast %union.anon.3* %12 to %"class.cDynamicExpression::Functor"**, !dbg !2532
  %13 = load %"class.cDynamicExpression::Functor"*, %"class.cDynamicExpression::Functor"** %fu, align 8, !dbg !2532
  %14 = bitcast %"class.cDynamicExpression::Functor"* %13 to %class.cObject*, !dbg !2533
  %15 = bitcast %class.cObject* %14 to %class.cObject* (%class.cObject*)***, !dbg !2533
  %vtable = load %class.cObject* (%class.cObject*)**, %class.cObject* (%class.cObject*)*** %15, align 8, !dbg !2533
  %vfn = getelementptr inbounds %class.cObject* (%class.cObject*)*, %class.cObject* (%class.cObject*)** %vtable, i64 11, !dbg !2533
  %16 = load %class.cObject* (%class.cObject*)*, %class.cObject* (%class.cObject*)** %vfn, align 8, !dbg !2533
  %call13 = call %class.cObject* %16(%class.cObject* %14), !dbg !2533
  %17 = bitcast %class.cObject* %call13 to %"class.cDynamicExpression::Functor"*, !dbg !2534
  %18 = getelementptr inbounds %"class.cDynamicExpression::Elem", %"class.cDynamicExpression::Elem"* %this1, i32 0, i32 1, !dbg !2535
  %fu14 = bitcast %union.anon.3* %18 to %"class.cDynamicExpression::Functor"**, !dbg !2535
  store %"class.cDynamicExpression::Functor"* %17, %"class.cDynamicExpression::Functor"** %fu14, align 8, !dbg !2536
  br label %if.end23, !dbg !2535

if.else15:                                        ; preds = %if.else9
  %type16 = getelementptr inbounds %"class.cDynamicExpression::Elem", %"class.cDynamicExpression::Elem"* %this1, i32 0, i32 0, !dbg !2537
  %19 = load i32, i32* %type16, align 8, !dbg !2537
  %cmp17 = icmp eq i32 %19, 9, !dbg !2539
  br i1 %cmp17, label %if.then18, label %if.end, !dbg !2540

if.then18:                                        ; preds = %if.else15
  %20 = getelementptr inbounds %"class.cDynamicExpression::Elem", %"class.cDynamicExpression::Elem"* %this1, i32 0, i32 1, !dbg !2541
  %constant_subexpression = bitcast %union.anon.3* %20 to %class.cExpression**, !dbg !2541
  %21 = load %class.cExpression*, %class.cExpression** %constant_subexpression, align 8, !dbg !2541
  %22 = bitcast %class.cExpression* %21 to %class.cExpression* (%class.cExpression*)***, !dbg !2542
  %vtable19 = load %class.cExpression* (%class.cExpression*)**, %class.cExpression* (%class.cExpression*)*** %22, align 8, !dbg !2542
  %vfn20 = getelementptr inbounds %class.cExpression* (%class.cExpression*)*, %class.cExpression* (%class.cExpression*)** %vtable19, i64 11, !dbg !2542
  %23 = load %class.cExpression* (%class.cExpression*)*, %class.cExpression* (%class.cExpression*)** %vfn20, align 8, !dbg !2542
  %call21 = call %class.cExpression* %23(%class.cExpression* %21), !dbg !2542
  %24 = getelementptr inbounds %"class.cDynamicExpression::Elem", %"class.cDynamicExpression::Elem"* %this1, i32 0, i32 1, !dbg !2543
  %constant_subexpression22 = bitcast %union.anon.3* %24 to %class.cExpression**, !dbg !2543
  store %class.cExpression* %call21, %class.cExpression** %constant_subexpression22, align 8, !dbg !2544
  br label %if.end, !dbg !2543

if.end:                                           ; preds = %if.then18, %if.else15
  br label %if.end23

if.end23:                                         ; preds = %if.end, %if.then12
  br label %if.end24

if.end24:                                         ; preds = %if.end23, %if.then5
  br label %if.end25

if.end25:                                         ; preds = %if.end24, %if.then
  ret void, !dbg !2545
}

; Function Attrs: nounwind readnone speculatable willreturn
declare void @llvm.dbg.declare(metadata, metadata, metadata) #4

; Function Attrs: noinline uwtable
define dso_local void @_ZN18cDynamicExpression4Elem9deleteOldEv(%"class.cDynamicExpression::Elem"* %this) #0 align 2 !dbg !2546 {
entry:
  %this.addr = alloca %"class.cDynamicExpression::Elem"*, align 8
  store %"class.cDynamicExpression::Elem"* %this, %"class.cDynamicExpression::Elem"** %this.addr, align 8
  call void @llvm.dbg.declare(metadata %"class.cDynamicExpression::Elem"** %this.addr, metadata !2547, metadata !DIExpression()), !dbg !2548
  %this1 = load %"class.cDynamicExpression::Elem"*, %"class.cDynamicExpression::Elem"** %this.addr, align 8
  %type = getelementptr inbounds %"class.cDynamicExpression::Elem", %"class.cDynamicExpression::Elem"* %this1, i32 0, i32 0, !dbg !2549
  %0 = load i32, i32* %type, align 8, !dbg !2549
  %cmp = icmp eq i32 %0, 3, !dbg !2551
  br i1 %cmp, label %if.then, label %if.else, !dbg !2552

if.then:                                          ; preds = %entry
  %1 = getelementptr inbounds %"class.cDynamicExpression::Elem", %"class.cDynamicExpression::Elem"* %this1, i32 0, i32 1, !dbg !2553
  %s = bitcast %union.anon.3* %1 to i8**, !dbg !2553
  %2 = load i8*, i8** %s, align 8, !dbg !2553
  call void @_ZN11cStringPool7releaseEPKc(%class.cStringPool* @_ZN18cDynamicExpression4Elem10stringPoolE, i8* %2), !dbg !2554
  br label %if.end20, !dbg !2555

if.else:                                          ; preds = %entry
  %type2 = getelementptr inbounds %"class.cDynamicExpression::Elem", %"class.cDynamicExpression::Elem"* %this1, i32 0, i32 0, !dbg !2556
  %3 = load i32, i32* %type2, align 8, !dbg !2556
  %cmp3 = icmp eq i32 %3, 2, !dbg !2558
  br i1 %cmp3, label %if.then4, label %if.else5, !dbg !2559

if.then4:                                         ; preds = %if.else
  %4 = getelementptr inbounds %"class.cDynamicExpression::Elem", %"class.cDynamicExpression::Elem"* %this1, i32 0, i32 1, !dbg !2560
  %d = bitcast %union.anon.3* %4 to %struct.anon*, !dbg !2560
  %unit = getelementptr inbounds %struct.anon, %struct.anon* %d, i32 0, i32 1, !dbg !2561
  %5 = load i8*, i8** %unit, align 8, !dbg !2561
  call void @_ZN11cStringPool7releaseEPKc(%class.cStringPool* @_ZN18cDynamicExpression4Elem10stringPoolE, i8* %5), !dbg !2562
  br label %if.end19, !dbg !2563

if.else5:                                         ; preds = %if.else
  %type6 = getelementptr inbounds %"class.cDynamicExpression::Elem", %"class.cDynamicExpression::Elem"* %this1, i32 0, i32 0, !dbg !2564
  %6 = load i32, i32* %type6, align 8, !dbg !2564
  %cmp7 = icmp eq i32 %6, 7, !dbg !2566
  br i1 %cmp7, label %if.then8, label %if.else9, !dbg !2567

if.then8:                                         ; preds = %if.else5
  %7 = getelementptr inbounds %"class.cDynamicExpression::Elem", %"class.cDynamicExpression::Elem"* %this1, i32 0, i32 1, !dbg !2568
  %fu = bitcast %union.anon.3* %7 to %"class.cDynamicExpression::Functor"**, !dbg !2568
  %8 = load %"class.cDynamicExpression::Functor"*, %"class.cDynamicExpression::Functor"** %fu, align 8, !dbg !2568
  %isnull = icmp eq %"class.cDynamicExpression::Functor"* %8, null, !dbg !2569
  br i1 %isnull, label %delete.end, label %delete.notnull, !dbg !2569

delete.notnull:                                   ; preds = %if.then8
  %9 = bitcast %"class.cDynamicExpression::Functor"* %8 to void (%"class.cDynamicExpression::Functor"*)***, !dbg !2569
  %vtable = load void (%"class.cDynamicExpression::Functor"*)**, void (%"class.cDynamicExpression::Functor"*)*** %9, align 8, !dbg !2569
  %vfn = getelementptr inbounds void (%"class.cDynamicExpression::Functor"*)*, void (%"class.cDynamicExpression::Functor"*)** %vtable, i64 4, !dbg !2569
  %10 = load void (%"class.cDynamicExpression::Functor"*)*, void (%"class.cDynamicExpression::Functor"*)** %vfn, align 8, !dbg !2569
  call void %10(%"class.cDynamicExpression::Functor"* %8) #3, !dbg !2569
  br label %delete.end, !dbg !2569

delete.end:                                       ; preds = %delete.notnull, %if.then8
  br label %if.end18, !dbg !2569

if.else9:                                         ; preds = %if.else5
  %type10 = getelementptr inbounds %"class.cDynamicExpression::Elem", %"class.cDynamicExpression::Elem"* %this1, i32 0, i32 0, !dbg !2570
  %11 = load i32, i32* %type10, align 8, !dbg !2570
  %cmp11 = icmp eq i32 %11, 9, !dbg !2572
  br i1 %cmp11, label %if.then12, label %if.end, !dbg !2573

if.then12:                                        ; preds = %if.else9
  %12 = getelementptr inbounds %"class.cDynamicExpression::Elem", %"class.cDynamicExpression::Elem"* %this1, i32 0, i32 1, !dbg !2574
  %constant_subexpression = bitcast %union.anon.3* %12 to %class.cExpression**, !dbg !2574
  %13 = load %class.cExpression*, %class.cExpression** %constant_subexpression, align 8, !dbg !2574
  %isnull13 = icmp eq %class.cExpression* %13, null, !dbg !2575
  br i1 %isnull13, label %delete.end17, label %delete.notnull14, !dbg !2575

delete.notnull14:                                 ; preds = %if.then12
  %14 = bitcast %class.cExpression* %13 to void (%class.cExpression*)***, !dbg !2575
  %vtable15 = load void (%class.cExpression*)**, void (%class.cExpression*)*** %14, align 8, !dbg !2575
  %vfn16 = getelementptr inbounds void (%class.cExpression*)*, void (%class.cExpression*)** %vtable15, i64 4, !dbg !2575
  %15 = load void (%class.cExpression*)*, void (%class.cExpression*)** %vfn16, align 8, !dbg !2575
  call void %15(%class.cExpression* %13) #3, !dbg !2575
  br label %delete.end17, !dbg !2575

delete.end17:                                     ; preds = %delete.notnull14, %if.then12
  br label %if.end, !dbg !2575

if.end:                                           ; preds = %delete.end17, %if.else9
  br label %if.end18

if.end18:                                         ; preds = %if.end, %delete.end
  br label %if.end19

if.end19:                                         ; preds = %if.end18, %if.then4
  br label %if.end20

if.end20:                                         ; preds = %if.end19, %if.then
  ret void, !dbg !2576
}

; Function Attrs: argmemonly nounwind willreturn
declare void @llvm.memcpy.p0i8.p0i8.i64(i8* noalias nocapture writeonly, i8* noalias nocapture readonly, i64, i1 immarg) #5

declare dso_local i8* @_ZN11cStringPool3getEPKc(%class.cStringPool*, i8*) #1

; Function Attrs: noinline nounwind uwtable
define dso_local void @_ZN18cDynamicExpression4ElemD2Ev(%"class.cDynamicExpression::Elem"* %this) unnamed_addr #6 align 2 personality i8* bitcast (i32 (...)* @__gxx_personality_v0 to i8*) !dbg !2577 {
entry:
  %this.addr = alloca %"class.cDynamicExpression::Elem"*, align 8
  store %"class.cDynamicExpression::Elem"* %this, %"class.cDynamicExpression::Elem"** %this.addr, align 8
  call void @llvm.dbg.declare(metadata %"class.cDynamicExpression::Elem"** %this.addr, metadata !2578, metadata !DIExpression()), !dbg !2579
  %this1 = load %"class.cDynamicExpression::Elem"*, %"class.cDynamicExpression::Elem"** %this.addr, align 8
  invoke void @_ZN18cDynamicExpression4Elem9deleteOldEv(%"class.cDynamicExpression::Elem"* %this1)
          to label %invoke.cont unwind label %terminate.lpad, !dbg !2580

invoke.cont:                                      ; preds = %entry
  ret void, !dbg !2582

terminate.lpad:                                   ; preds = %entry
  %0 = landingpad { i8*, i32 }
          catch i8* null, !dbg !2580
  %1 = extractvalue { i8*, i32 } %0, 0, !dbg !2580
  call void @__clang_call_terminate(i8* %1) #14, !dbg !2580
  unreachable, !dbg !2580
}

declare dso_local i32 @__gxx_personality_v0(...)

; Function Attrs: noinline noreturn nounwind
define linkonce_odr hidden void @__clang_call_terminate(i8* %0) #7 comdat {
  %2 = call i8* @__cxa_begin_catch(i8* %0) #3
  call void @_ZSt9terminatev() #14
  unreachable
}

declare dso_local i8* @__cxa_begin_catch(i8*)

declare dso_local void @_ZSt9terminatev()

declare dso_local void @_ZN11cStringPool7releaseEPKc(%class.cStringPool*, i8*) #1

; Function Attrs: noinline uwtable
define dso_local i32 @_ZNK18cDynamicExpression4Elem7compareERKS0_(%"class.cDynamicExpression::Elem"* %this, %"class.cDynamicExpression::Elem"* dereferenceable(24) %other) #0 align 2 personality i8* bitcast (i32 (...)* @__gxx_personality_v0 to i8*) !dbg !2583 {
entry:
  %retval = alloca i32, align 4
  %this.addr = alloca %"class.cDynamicExpression::Elem"*, align 8
  %other.addr = alloca %"class.cDynamicExpression::Elem"*, align 8
  %exn.slot = alloca i8*
  %ehselector.slot = alloca i32
  store %"class.cDynamicExpression::Elem"* %this, %"class.cDynamicExpression::Elem"** %this.addr, align 8
  call void @llvm.dbg.declare(metadata %"class.cDynamicExpression::Elem"** %this.addr, metadata !2584, metadata !DIExpression()), !dbg !2586
  store %"class.cDynamicExpression::Elem"* %other, %"class.cDynamicExpression::Elem"** %other.addr, align 8
  call void @llvm.dbg.declare(metadata %"class.cDynamicExpression::Elem"** %other.addr, metadata !2587, metadata !DIExpression()), !dbg !2588
  %this1 = load %"class.cDynamicExpression::Elem"*, %"class.cDynamicExpression::Elem"** %this.addr, align 8
  %type = getelementptr inbounds %"class.cDynamicExpression::Elem", %"class.cDynamicExpression::Elem"* %this1, i32 0, i32 0, !dbg !2589
  %0 = load i32, i32* %type, align 8, !dbg !2589
  %1 = load %"class.cDynamicExpression::Elem"*, %"class.cDynamicExpression::Elem"** %other.addr, align 8, !dbg !2591
  %type2 = getelementptr inbounds %"class.cDynamicExpression::Elem", %"class.cDynamicExpression::Elem"* %1, i32 0, i32 0, !dbg !2592
  %2 = load i32, i32* %type2, align 8, !dbg !2592
  %cmp = icmp ne i32 %0, %2, !dbg !2593
  br i1 %cmp, label %if.then, label %if.end, !dbg !2594

if.then:                                          ; preds = %entry
  %type3 = getelementptr inbounds %"class.cDynamicExpression::Elem", %"class.cDynamicExpression::Elem"* %this1, i32 0, i32 0, !dbg !2595
  %3 = load i32, i32* %type3, align 8, !dbg !2595
  %4 = load %"class.cDynamicExpression::Elem"*, %"class.cDynamicExpression::Elem"** %other.addr, align 8, !dbg !2596
  %type4 = getelementptr inbounds %"class.cDynamicExpression::Elem", %"class.cDynamicExpression::Elem"* %4, i32 0, i32 0, !dbg !2597
  %5 = load i32, i32* %type4, align 8, !dbg !2597
  %sub = sub nsw i32 %3, %5, !dbg !2598
  store i32 %sub, i32* %retval, align 4, !dbg !2599
  br label %return, !dbg !2599

if.end:                                           ; preds = %entry
  %type5 = getelementptr inbounds %"class.cDynamicExpression::Elem", %"class.cDynamicExpression::Elem"* %this1, i32 0, i32 0, !dbg !2600
  %6 = load i32, i32* %type5, align 8, !dbg !2600
  switch i32 %6, label %sw.default [
    i32 1, label %sw.bb
    i32 2, label %sw.bb10
    i32 3, label %sw.bb24
    i32 4, label %sw.bb35
    i32 5, label %sw.bb46
    i32 6, label %sw.bb57
    i32 7, label %sw.bb85
    i32 8, label %sw.bb96
    i32 9, label %sw.bb99
  ], !dbg !2601

sw.bb:                                            ; preds = %if.end
  %7 = load %"class.cDynamicExpression::Elem"*, %"class.cDynamicExpression::Elem"** %other.addr, align 8, !dbg !2602
  %8 = getelementptr inbounds %"class.cDynamicExpression::Elem", %"class.cDynamicExpression::Elem"* %7, i32 0, i32 1, !dbg !2604
  %b = bitcast %union.anon.3* %8 to i8*, !dbg !2604
  %9 = load i8, i8* %b, align 8, !dbg !2604
  %tobool = trunc i8 %9 to i1, !dbg !2604
  %conv = zext i1 %tobool to i32, !dbg !2602
  %10 = getelementptr inbounds %"class.cDynamicExpression::Elem", %"class.cDynamicExpression::Elem"* %this1, i32 0, i32 1, !dbg !2605
  %b6 = bitcast %union.anon.3* %10 to i8*, !dbg !2605
  %11 = load i8, i8* %b6, align 8, !dbg !2605
  %tobool7 = trunc i8 %11 to i1, !dbg !2605
  %conv8 = zext i1 %tobool7 to i32, !dbg !2605
  %sub9 = sub nsw i32 %conv, %conv8, !dbg !2606
  store i32 %sub9, i32* %retval, align 4, !dbg !2607
  br label %return, !dbg !2607

sw.bb10:                                          ; preds = %if.end
  %12 = getelementptr inbounds %"class.cDynamicExpression::Elem", %"class.cDynamicExpression::Elem"* %this1, i32 0, i32 1, !dbg !2608
  %d = bitcast %union.anon.3* %12 to %struct.anon*, !dbg !2608
  %d11 = getelementptr inbounds %struct.anon, %struct.anon* %d, i32 0, i32 0, !dbg !2609
  %13 = load double, double* %d11, align 8, !dbg !2609
  %14 = load %"class.cDynamicExpression::Elem"*, %"class.cDynamicExpression::Elem"** %other.addr, align 8, !dbg !2610
  %15 = getelementptr inbounds %"class.cDynamicExpression::Elem", %"class.cDynamicExpression::Elem"* %14, i32 0, i32 1, !dbg !2611
  %d12 = bitcast %union.anon.3* %15 to %struct.anon*, !dbg !2611
  %d13 = getelementptr inbounds %struct.anon, %struct.anon* %d12, i32 0, i32 0, !dbg !2612
  %16 = load double, double* %d13, align 8, !dbg !2612
  %cmp14 = fcmp oeq double %13, %16, !dbg !2613
  br i1 %cmp14, label %cond.true, label %cond.false, !dbg !2608

cond.true:                                        ; preds = %sw.bb10
  %17 = getelementptr inbounds %"class.cDynamicExpression::Elem", %"class.cDynamicExpression::Elem"* %this1, i32 0, i32 1, !dbg !2614
  %d15 = bitcast %union.anon.3* %17 to %struct.anon*, !dbg !2614
  %unit = getelementptr inbounds %struct.anon, %struct.anon* %d15, i32 0, i32 1, !dbg !2615
  %18 = load i8*, i8** %unit, align 8, !dbg !2615
  %19 = load %"class.cDynamicExpression::Elem"*, %"class.cDynamicExpression::Elem"** %other.addr, align 8, !dbg !2616
  %20 = getelementptr inbounds %"class.cDynamicExpression::Elem", %"class.cDynamicExpression::Elem"* %19, i32 0, i32 1, !dbg !2617
  %d16 = bitcast %union.anon.3* %20 to %struct.anon*, !dbg !2617
  %unit17 = getelementptr inbounds %struct.anon, %struct.anon* %d16, i32 0, i32 1, !dbg !2618
  %21 = load i8*, i8** %unit17, align 8, !dbg !2618
  %call = call i32 @_Z10opp_strcmpPKcS0_(i8* %18, i8* %21), !dbg !2619
  br label %cond.end, !dbg !2608

cond.false:                                       ; preds = %sw.bb10
  %22 = getelementptr inbounds %"class.cDynamicExpression::Elem", %"class.cDynamicExpression::Elem"* %this1, i32 0, i32 1, !dbg !2620
  %d18 = bitcast %union.anon.3* %22 to %struct.anon*, !dbg !2620
  %d19 = getelementptr inbounds %struct.anon, %struct.anon* %d18, i32 0, i32 0, !dbg !2621
  %23 = load double, double* %d19, align 8, !dbg !2621
  %24 = load %"class.cDynamicExpression::Elem"*, %"class.cDynamicExpression::Elem"** %other.addr, align 8, !dbg !2622
  %25 = getelementptr inbounds %"class.cDynamicExpression::Elem", %"class.cDynamicExpression::Elem"* %24, i32 0, i32 1, !dbg !2623
  %d20 = bitcast %union.anon.3* %25 to %struct.anon*, !dbg !2623
  %d21 = getelementptr inbounds %struct.anon, %struct.anon* %d20, i32 0, i32 0, !dbg !2624
  %26 = load double, double* %d21, align 8, !dbg !2624
  %cmp22 = fcmp olt double %23, %26, !dbg !2625
  %27 = zext i1 %cmp22 to i64, !dbg !2620
  %cond = select i1 %cmp22, i32 -1, i32 1, !dbg !2620
  br label %cond.end, !dbg !2608

cond.end:                                         ; preds = %cond.false, %cond.true
  %cond23 = phi i32 [ %call, %cond.true ], [ %cond, %cond.false ], !dbg !2608
  store i32 %cond23, i32* %retval, align 4, !dbg !2626
  br label %return, !dbg !2626

sw.bb24:                                          ; preds = %if.end
  %28 = getelementptr inbounds %"class.cDynamicExpression::Elem", %"class.cDynamicExpression::Elem"* %this1, i32 0, i32 1, !dbg !2627
  %s = bitcast %union.anon.3* %28 to i8**, !dbg !2627
  %29 = load i8*, i8** %s, align 8, !dbg !2627
  %30 = load %"class.cDynamicExpression::Elem"*, %"class.cDynamicExpression::Elem"** %other.addr, align 8, !dbg !2627
  %31 = getelementptr inbounds %"class.cDynamicExpression::Elem", %"class.cDynamicExpression::Elem"* %30, i32 0, i32 1, !dbg !2627
  %s25 = bitcast %union.anon.3* %31 to i8**, !dbg !2627
  %32 = load i8*, i8** %s25, align 8, !dbg !2627
  %cmp26 = icmp eq i8* %29, %32, !dbg !2627
  br i1 %cmp26, label %cond.true27, label %cond.false28, !dbg !2627

cond.true27:                                      ; preds = %sw.bb24
  br label %cond.end33, !dbg !2627

cond.false28:                                     ; preds = %sw.bb24
  %33 = getelementptr inbounds %"class.cDynamicExpression::Elem", %"class.cDynamicExpression::Elem"* %this1, i32 0, i32 1, !dbg !2627
  %s29 = bitcast %union.anon.3* %33 to i8**, !dbg !2627
  %34 = load i8*, i8** %s29, align 8, !dbg !2627
  %35 = load %"class.cDynamicExpression::Elem"*, %"class.cDynamicExpression::Elem"** %other.addr, align 8, !dbg !2627
  %36 = getelementptr inbounds %"class.cDynamicExpression::Elem", %"class.cDynamicExpression::Elem"* %35, i32 0, i32 1, !dbg !2627
  %s30 = bitcast %union.anon.3* %36 to i8**, !dbg !2627
  %37 = load i8*, i8** %s30, align 8, !dbg !2627
  %cmp31 = icmp ult i8* %34, %37, !dbg !2627
  %38 = zext i1 %cmp31 to i64, !dbg !2627
  %cond32 = select i1 %cmp31, i32 -1, i32 1, !dbg !2627
  br label %cond.end33, !dbg !2627

cond.end33:                                       ; preds = %cond.false28, %cond.true27
  %cond34 = phi i32 [ 0, %cond.true27 ], [ %cond32, %cond.false28 ], !dbg !2627
  store i32 %cond34, i32* %retval, align 4, !dbg !2628
  br label %return, !dbg !2628

sw.bb35:                                          ; preds = %if.end
  %39 = getelementptr inbounds %"class.cDynamicExpression::Elem", %"class.cDynamicExpression::Elem"* %this1, i32 0, i32 1, !dbg !2629
  %x = bitcast %union.anon.3* %39 to %class.cXMLElement**, !dbg !2629
  %40 = load %class.cXMLElement*, %class.cXMLElement** %x, align 8, !dbg !2629
  %41 = load %"class.cDynamicExpression::Elem"*, %"class.cDynamicExpression::Elem"** %other.addr, align 8, !dbg !2629
  %42 = getelementptr inbounds %"class.cDynamicExpression::Elem", %"class.cDynamicExpression::Elem"* %41, i32 0, i32 1, !dbg !2629
  %x36 = bitcast %union.anon.3* %42 to %class.cXMLElement**, !dbg !2629
  %43 = load %class.cXMLElement*, %class.cXMLElement** %x36, align 8, !dbg !2629
  %cmp37 = icmp eq %class.cXMLElement* %40, %43, !dbg !2629
  br i1 %cmp37, label %cond.true38, label %cond.false39, !dbg !2629

cond.true38:                                      ; preds = %sw.bb35
  br label %cond.end44, !dbg !2629

cond.false39:                                     ; preds = %sw.bb35
  %44 = getelementptr inbounds %"class.cDynamicExpression::Elem", %"class.cDynamicExpression::Elem"* %this1, i32 0, i32 1, !dbg !2629
  %x40 = bitcast %union.anon.3* %44 to %class.cXMLElement**, !dbg !2629
  %45 = load %class.cXMLElement*, %class.cXMLElement** %x40, align 8, !dbg !2629
  %46 = load %"class.cDynamicExpression::Elem"*, %"class.cDynamicExpression::Elem"** %other.addr, align 8, !dbg !2629
  %47 = getelementptr inbounds %"class.cDynamicExpression::Elem", %"class.cDynamicExpression::Elem"* %46, i32 0, i32 1, !dbg !2629
  %x41 = bitcast %union.anon.3* %47 to %class.cXMLElement**, !dbg !2629
  %48 = load %class.cXMLElement*, %class.cXMLElement** %x41, align 8, !dbg !2629
  %cmp42 = icmp ult %class.cXMLElement* %45, %48, !dbg !2629
  %49 = zext i1 %cmp42 to i64, !dbg !2629
  %cond43 = select i1 %cmp42, i32 -1, i32 1, !dbg !2629
  br label %cond.end44, !dbg !2629

cond.end44:                                       ; preds = %cond.false39, %cond.true38
  %cond45 = phi i32 [ 0, %cond.true38 ], [ %cond43, %cond.false39 ], !dbg !2629
  store i32 %cond45, i32* %retval, align 4, !dbg !2630
  br label %return, !dbg !2630

sw.bb46:                                          ; preds = %if.end
  %50 = getelementptr inbounds %"class.cDynamicExpression::Elem", %"class.cDynamicExpression::Elem"* %this1, i32 0, i32 1, !dbg !2631
  %f = bitcast %union.anon.3* %50 to %class.cMathFunction**, !dbg !2631
  %51 = load %class.cMathFunction*, %class.cMathFunction** %f, align 8, !dbg !2631
  %52 = load %"class.cDynamicExpression::Elem"*, %"class.cDynamicExpression::Elem"** %other.addr, align 8, !dbg !2631
  %53 = getelementptr inbounds %"class.cDynamicExpression::Elem", %"class.cDynamicExpression::Elem"* %52, i32 0, i32 1, !dbg !2631
  %f47 = bitcast %union.anon.3* %53 to %class.cMathFunction**, !dbg !2631
  %54 = load %class.cMathFunction*, %class.cMathFunction** %f47, align 8, !dbg !2631
  %cmp48 = icmp eq %class.cMathFunction* %51, %54, !dbg !2631
  br i1 %cmp48, label %cond.true49, label %cond.false50, !dbg !2631

cond.true49:                                      ; preds = %sw.bb46
  br label %cond.end55, !dbg !2631

cond.false50:                                     ; preds = %sw.bb46
  %55 = getelementptr inbounds %"class.cDynamicExpression::Elem", %"class.cDynamicExpression::Elem"* %this1, i32 0, i32 1, !dbg !2631
  %f51 = bitcast %union.anon.3* %55 to %class.cMathFunction**, !dbg !2631
  %56 = load %class.cMathFunction*, %class.cMathFunction** %f51, align 8, !dbg !2631
  %57 = load %"class.cDynamicExpression::Elem"*, %"class.cDynamicExpression::Elem"** %other.addr, align 8, !dbg !2631
  %58 = getelementptr inbounds %"class.cDynamicExpression::Elem", %"class.cDynamicExpression::Elem"* %57, i32 0, i32 1, !dbg !2631
  %f52 = bitcast %union.anon.3* %58 to %class.cMathFunction**, !dbg !2631
  %59 = load %class.cMathFunction*, %class.cMathFunction** %f52, align 8, !dbg !2631
  %cmp53 = icmp ult %class.cMathFunction* %56, %59, !dbg !2631
  %60 = zext i1 %cmp53 to i64, !dbg !2631
  %cond54 = select i1 %cmp53, i32 -1, i32 1, !dbg !2631
  br label %cond.end55, !dbg !2631

cond.end55:                                       ; preds = %cond.false50, %cond.true49
  %cond56 = phi i32 [ 0, %cond.true49 ], [ %cond54, %cond.false50 ], !dbg !2631
  store i32 %cond56, i32* %retval, align 4, !dbg !2632
  br label %return, !dbg !2632

sw.bb57:                                          ; preds = %if.end
  %61 = getelementptr inbounds %"class.cDynamicExpression::Elem", %"class.cDynamicExpression::Elem"* %this1, i32 0, i32 1, !dbg !2633
  %nf = bitcast %union.anon.3* %61 to %struct.anon.10*, !dbg !2633
  %argc = getelementptr inbounds %struct.anon.10, %struct.anon.10* %nf, i32 0, i32 1, !dbg !2634
  %62 = load i32, i32* %argc, align 8, !dbg !2634
  %63 = load %"class.cDynamicExpression::Elem"*, %"class.cDynamicExpression::Elem"** %other.addr, align 8, !dbg !2635
  %64 = getelementptr inbounds %"class.cDynamicExpression::Elem", %"class.cDynamicExpression::Elem"* %63, i32 0, i32 1, !dbg !2636
  %nf58 = bitcast %union.anon.3* %64 to %struct.anon.10*, !dbg !2636
  %argc59 = getelementptr inbounds %struct.anon.10, %struct.anon.10* %nf58, i32 0, i32 1, !dbg !2637
  %65 = load i32, i32* %argc59, align 8, !dbg !2637
  %cmp60 = icmp eq i32 %62, %65, !dbg !2638
  br i1 %cmp60, label %cond.true61, label %cond.false77, !dbg !2633

cond.true61:                                      ; preds = %sw.bb57
  %66 = getelementptr inbounds %"class.cDynamicExpression::Elem", %"class.cDynamicExpression::Elem"* %this1, i32 0, i32 1, !dbg !2639
  %nf62 = bitcast %union.anon.3* %66 to %struct.anon.10*, !dbg !2639
  %f63 = getelementptr inbounds %struct.anon.10, %struct.anon.10* %nf62, i32 0, i32 0, !dbg !2639
  %67 = load %class.cNEDFunction*, %class.cNEDFunction** %f63, align 8, !dbg !2639
  %68 = load %"class.cDynamicExpression::Elem"*, %"class.cDynamicExpression::Elem"** %other.addr, align 8, !dbg !2639
  %69 = getelementptr inbounds %"class.cDynamicExpression::Elem", %"class.cDynamicExpression::Elem"* %68, i32 0, i32 1, !dbg !2639
  %nf64 = bitcast %union.anon.3* %69 to %struct.anon.10*, !dbg !2639
  %f65 = getelementptr inbounds %struct.anon.10, %struct.anon.10* %nf64, i32 0, i32 0, !dbg !2639
  %70 = load %class.cNEDFunction*, %class.cNEDFunction** %f65, align 8, !dbg !2639
  %cmp66 = icmp eq %class.cNEDFunction* %67, %70, !dbg !2639
  br i1 %cmp66, label %cond.true67, label %cond.false68, !dbg !2639

cond.true67:                                      ; preds = %cond.true61
  br label %cond.end75, !dbg !2639

cond.false68:                                     ; preds = %cond.true61
  %71 = getelementptr inbounds %"class.cDynamicExpression::Elem", %"class.cDynamicExpression::Elem"* %this1, i32 0, i32 1, !dbg !2639
  %nf69 = bitcast %union.anon.3* %71 to %struct.anon.10*, !dbg !2639
  %f70 = getelementptr inbounds %struct.anon.10, %struct.anon.10* %nf69, i32 0, i32 0, !dbg !2639
  %72 = load %class.cNEDFunction*, %class.cNEDFunction** %f70, align 8, !dbg !2639
  %73 = load %"class.cDynamicExpression::Elem"*, %"class.cDynamicExpression::Elem"** %other.addr, align 8, !dbg !2639
  %74 = getelementptr inbounds %"class.cDynamicExpression::Elem", %"class.cDynamicExpression::Elem"* %73, i32 0, i32 1, !dbg !2639
  %nf71 = bitcast %union.anon.3* %74 to %struct.anon.10*, !dbg !2639
  %f72 = getelementptr inbounds %struct.anon.10, %struct.anon.10* %nf71, i32 0, i32 0, !dbg !2639
  %75 = load %class.cNEDFunction*, %class.cNEDFunction** %f72, align 8, !dbg !2639
  %cmp73 = icmp ult %class.cNEDFunction* %72, %75, !dbg !2639
  %76 = zext i1 %cmp73 to i64, !dbg !2639
  %cond74 = select i1 %cmp73, i32 -1, i32 1, !dbg !2639
  br label %cond.end75, !dbg !2639

cond.end75:                                       ; preds = %cond.false68, %cond.true67
  %cond76 = phi i32 [ 0, %cond.true67 ], [ %cond74, %cond.false68 ], !dbg !2639
  br label %cond.end83, !dbg !2633

cond.false77:                                     ; preds = %sw.bb57
  %77 = load %"class.cDynamicExpression::Elem"*, %"class.cDynamicExpression::Elem"** %other.addr, align 8, !dbg !2640
  %78 = getelementptr inbounds %"class.cDynamicExpression::Elem", %"class.cDynamicExpression::Elem"* %77, i32 0, i32 1, !dbg !2641
  %nf78 = bitcast %union.anon.3* %78 to %struct.anon.10*, !dbg !2641
  %argc79 = getelementptr inbounds %struct.anon.10, %struct.anon.10* %nf78, i32 0, i32 1, !dbg !2642
  %79 = load i32, i32* %argc79, align 8, !dbg !2642
  %80 = getelementptr inbounds %"class.cDynamicExpression::Elem", %"class.cDynamicExpression::Elem"* %this1, i32 0, i32 1, !dbg !2643
  %nf80 = bitcast %union.anon.3* %80 to %struct.anon.10*, !dbg !2643
  %argc81 = getelementptr inbounds %struct.anon.10, %struct.anon.10* %nf80, i32 0, i32 1, !dbg !2644
  %81 = load i32, i32* %argc81, align 8, !dbg !2644
  %sub82 = sub nsw i32 %79, %81, !dbg !2645
  br label %cond.end83, !dbg !2633

cond.end83:                                       ; preds = %cond.false77, %cond.end75
  %cond84 = phi i32 [ %cond76, %cond.end75 ], [ %sub82, %cond.false77 ], !dbg !2633
  store i32 %cond84, i32* %retval, align 4, !dbg !2646
  br label %return, !dbg !2646

sw.bb85:                                          ; preds = %if.end
  %82 = getelementptr inbounds %"class.cDynamicExpression::Elem", %"class.cDynamicExpression::Elem"* %this1, i32 0, i32 1, !dbg !2647
  %fu = bitcast %union.anon.3* %82 to %"class.cDynamicExpression::Functor"**, !dbg !2647
  %83 = load %"class.cDynamicExpression::Functor"*, %"class.cDynamicExpression::Functor"** %fu, align 8, !dbg !2647
  %84 = load %"class.cDynamicExpression::Elem"*, %"class.cDynamicExpression::Elem"** %other.addr, align 8, !dbg !2647
  %85 = getelementptr inbounds %"class.cDynamicExpression::Elem", %"class.cDynamicExpression::Elem"* %84, i32 0, i32 1, !dbg !2647
  %fu86 = bitcast %union.anon.3* %85 to %"class.cDynamicExpression::Functor"**, !dbg !2647
  %86 = load %"class.cDynamicExpression::Functor"*, %"class.cDynamicExpression::Functor"** %fu86, align 8, !dbg !2647
  %cmp87 = icmp eq %"class.cDynamicExpression::Functor"* %83, %86, !dbg !2647
  br i1 %cmp87, label %cond.true88, label %cond.false89, !dbg !2647

cond.true88:                                      ; preds = %sw.bb85
  br label %cond.end94, !dbg !2647

cond.false89:                                     ; preds = %sw.bb85
  %87 = getelementptr inbounds %"class.cDynamicExpression::Elem", %"class.cDynamicExpression::Elem"* %this1, i32 0, i32 1, !dbg !2647
  %fu90 = bitcast %union.anon.3* %87 to %"class.cDynamicExpression::Functor"**, !dbg !2647
  %88 = load %"class.cDynamicExpression::Functor"*, %"class.cDynamicExpression::Functor"** %fu90, align 8, !dbg !2647
  %89 = load %"class.cDynamicExpression::Elem"*, %"class.cDynamicExpression::Elem"** %other.addr, align 8, !dbg !2647
  %90 = getelementptr inbounds %"class.cDynamicExpression::Elem", %"class.cDynamicExpression::Elem"* %89, i32 0, i32 1, !dbg !2647
  %fu91 = bitcast %union.anon.3* %90 to %"class.cDynamicExpression::Functor"**, !dbg !2647
  %91 = load %"class.cDynamicExpression::Functor"*, %"class.cDynamicExpression::Functor"** %fu91, align 8, !dbg !2647
  %cmp92 = icmp ult %"class.cDynamicExpression::Functor"* %88, %91, !dbg !2647
  %92 = zext i1 %cmp92 to i64, !dbg !2647
  %cond93 = select i1 %cmp92, i32 -1, i32 1, !dbg !2647
  br label %cond.end94, !dbg !2647

cond.end94:                                       ; preds = %cond.false89, %cond.true88
  %cond95 = phi i32 [ 0, %cond.true88 ], [ %cond93, %cond.false89 ], !dbg !2647
  store i32 %cond95, i32* %retval, align 4, !dbg !2648
  br label %return, !dbg !2648

sw.bb96:                                          ; preds = %if.end
  %93 = load %"class.cDynamicExpression::Elem"*, %"class.cDynamicExpression::Elem"** %other.addr, align 8, !dbg !2649
  %94 = getelementptr inbounds %"class.cDynamicExpression::Elem", %"class.cDynamicExpression::Elem"* %93, i32 0, i32 1, !dbg !2650
  %op = bitcast %union.anon.3* %94 to i32*, !dbg !2650
  %95 = load i32, i32* %op, align 8, !dbg !2650
  %96 = getelementptr inbounds %"class.cDynamicExpression::Elem", %"class.cDynamicExpression::Elem"* %this1, i32 0, i32 1, !dbg !2651
  %op97 = bitcast %union.anon.3* %96 to i32*, !dbg !2651
  %97 = load i32, i32* %op97, align 8, !dbg !2651
  %sub98 = sub nsw i32 %95, %97, !dbg !2652
  store i32 %sub98, i32* %retval, align 4, !dbg !2653
  br label %return, !dbg !2653

sw.bb99:                                          ; preds = %if.end
  %98 = getelementptr inbounds %"class.cDynamicExpression::Elem", %"class.cDynamicExpression::Elem"* %this1, i32 0, i32 1, !dbg !2654
  %constant_subexpression = bitcast %union.anon.3* %98 to %class.cExpression**, !dbg !2654
  %99 = load %class.cExpression*, %class.cExpression** %constant_subexpression, align 8, !dbg !2654
  %100 = load %"class.cDynamicExpression::Elem"*, %"class.cDynamicExpression::Elem"** %other.addr, align 8, !dbg !2655
  %101 = getelementptr inbounds %"class.cDynamicExpression::Elem", %"class.cDynamicExpression::Elem"* %100, i32 0, i32 1, !dbg !2656
  %constant_subexpression100 = bitcast %union.anon.3* %101 to %class.cExpression**, !dbg !2656
  %102 = load %class.cExpression*, %class.cExpression** %constant_subexpression100, align 8, !dbg !2656
  %103 = bitcast %class.cExpression* %99 to i32 (%class.cExpression*, %class.cExpression*)***, !dbg !2657
  %vtable = load i32 (%class.cExpression*, %class.cExpression*)**, i32 (%class.cExpression*, %class.cExpression*)*** %103, align 8, !dbg !2657
  %vfn = getelementptr inbounds i32 (%class.cExpression*, %class.cExpression*)*, i32 (%class.cExpression*, %class.cExpression*)** %vtable, i64 26, !dbg !2657
  %104 = load i32 (%class.cExpression*, %class.cExpression*)*, i32 (%class.cExpression*, %class.cExpression*)** %vfn, align 8, !dbg !2657
  %call101 = call i32 %104(%class.cExpression* %99, %class.cExpression* %102), !dbg !2657
  store i32 %call101, i32* %retval, align 4, !dbg !2658
  br label %return, !dbg !2658

sw.default:                                       ; preds = %if.end
  %exception = call i8* @__cxa_allocate_exception(i64 128) #3, !dbg !2659
  %105 = bitcast i8* %exception to %class.cRuntimeError*, !dbg !2659
  invoke void (%class.cRuntimeError*, i8*, ...) @_ZN13cRuntimeErrorC1EPKcz(%class.cRuntimeError* %105, i8* getelementptr inbounds ([30 x i8], [30 x i8]* @.str.2, i64 0, i64 0))
          to label %invoke.cont unwind label %lpad, !dbg !2660

invoke.cont:                                      ; preds = %sw.default
  call void @__cxa_throw(i8* %exception, i8* bitcast ({ i8*, i8*, i8* }* @_ZTI13cRuntimeError to i8*), i8* bitcast (void (%class.cRuntimeError*)* @_ZN13cRuntimeErrorD2Ev to i8*)) #15, !dbg !2659
  unreachable, !dbg !2659

lpad:                                             ; preds = %sw.default
  %106 = landingpad { i8*, i32 }
          cleanup, !dbg !2661
  %107 = extractvalue { i8*, i32 } %106, 0, !dbg !2661
  store i8* %107, i8** %exn.slot, align 8, !dbg !2661
  %108 = extractvalue { i8*, i32 } %106, 1, !dbg !2661
  store i32 %108, i32* %ehselector.slot, align 4, !dbg !2661
  call void @__cxa_free_exception(i8* %exception) #3, !dbg !2659
  br label %eh.resume, !dbg !2659

return:                                           ; preds = %sw.bb99, %sw.bb96, %cond.end94, %cond.end83, %cond.end55, %cond.end44, %cond.end33, %cond.end, %sw.bb, %if.then
  %109 = load i32, i32* %retval, align 4, !dbg !2662
  ret i32 %109, !dbg !2662

eh.resume:                                        ; preds = %lpad
  %exn = load i8*, i8** %exn.slot, align 8, !dbg !2659
  %sel = load i32, i32* %ehselector.slot, align 4, !dbg !2659
  %lpad.val = insertvalue { i8*, i32 } undef, i8* %exn, 0, !dbg !2659
  %lpad.val102 = insertvalue { i8*, i32 } %lpad.val, i32 %sel, 1, !dbg !2659
  resume { i8*, i32 } %lpad.val102, !dbg !2659
}

; Function Attrs: noinline nounwind uwtable
define linkonce_odr dso_local i32 @_Z10opp_strcmpPKcS0_(i8* %s1, i8* %s2) #6 comdat !dbg !2663 {
entry:
  %retval = alloca i32, align 4
  %s1.addr = alloca i8*, align 8
  %s2.addr = alloca i8*, align 8
  store i8* %s1, i8** %s1.addr, align 8
  call void @llvm.dbg.declare(metadata i8** %s1.addr, metadata !2665, metadata !DIExpression()), !dbg !2666
  store i8* %s2, i8** %s2.addr, align 8
  call void @llvm.dbg.declare(metadata i8** %s2.addr, metadata !2667, metadata !DIExpression()), !dbg !2668
  %0 = load i8*, i8** %s1.addr, align 8, !dbg !2669
  %tobool = icmp ne i8* %0, null, !dbg !2669
  br i1 %tobool, label %if.then, label %if.else, !dbg !2671

if.then:                                          ; preds = %entry
  %1 = load i8*, i8** %s2.addr, align 8, !dbg !2672
  %tobool1 = icmp ne i8* %1, null, !dbg !2672
  br i1 %tobool1, label %cond.true, label %cond.false, !dbg !2672

cond.true:                                        ; preds = %if.then
  %2 = load i8*, i8** %s1.addr, align 8, !dbg !2673
  %3 = load i8*, i8** %s2.addr, align 8, !dbg !2674
  %call = call i32 @strcmp(i8* %2, i8* %3) #10, !dbg !2675
  br label %cond.end, !dbg !2672

cond.false:                                       ; preds = %if.then
  %4 = load i8*, i8** %s1.addr, align 8, !dbg !2676
  %5 = load i8, i8* %4, align 1, !dbg !2677
  %tobool2 = icmp ne i8 %5, 0, !dbg !2677
  %6 = zext i1 %tobool2 to i64, !dbg !2677
  %cond = select i1 %tobool2, i32 1, i32 0, !dbg !2677
  br label %cond.end, !dbg !2672

cond.end:                                         ; preds = %cond.false, %cond.true
  %cond3 = phi i32 [ %call, %cond.true ], [ %cond, %cond.false ], !dbg !2672
  store i32 %cond3, i32* %retval, align 4, !dbg !2678
  br label %return, !dbg !2678

if.else:                                          ; preds = %entry
  %7 = load i8*, i8** %s2.addr, align 8, !dbg !2679
  %tobool4 = icmp ne i8* %7, null, !dbg !2679
  br i1 %tobool4, label %land.rhs, label %land.end, !dbg !2680

land.rhs:                                         ; preds = %if.else
  %8 = load i8*, i8** %s2.addr, align 8, !dbg !2681
  %9 = load i8, i8* %8, align 1, !dbg !2682
  %tobool5 = icmp ne i8 %9, 0, !dbg !2682
  br label %land.end

land.end:                                         ; preds = %land.rhs, %if.else
  %10 = phi i1 [ false, %if.else ], [ %tobool5, %land.rhs ], !dbg !2683
  %11 = zext i1 %10 to i64, !dbg !2684
  %cond6 = select i1 %10, i32 -1, i32 0, !dbg !2684
  store i32 %cond6, i32* %retval, align 4, !dbg !2685
  br label %return, !dbg !2685

return:                                           ; preds = %land.end, %cond.end
  %12 = load i32, i32* %retval, align 4, !dbg !2686
  ret i32 %12, !dbg !2686
}

declare dso_local i8* @__cxa_allocate_exception(i64)

declare dso_local void @_ZN13cRuntimeErrorC1EPKcz(%class.cRuntimeError*, i8*, ...) unnamed_addr #1

declare dso_local void @__cxa_free_exception(i8*)

; Function Attrs: noinline nounwind uwtable
define linkonce_odr dso_local void @_ZN13cRuntimeErrorD2Ev(%class.cRuntimeError* %this) unnamed_addr #6 comdat align 2 !dbg !2687 {
entry:
  %this.addr = alloca %class.cRuntimeError*, align 8
  store %class.cRuntimeError* %this, %class.cRuntimeError** %this.addr, align 8
  call void @llvm.dbg.declare(metadata %class.cRuntimeError** %this.addr, metadata !2692, metadata !DIExpression()), !dbg !2694
  %this1 = load %class.cRuntimeError*, %class.cRuntimeError** %this.addr, align 8
  %0 = bitcast %class.cRuntimeError* %this1 to %class.cException*, !dbg !2695
  call void @_ZN10cExceptionD2Ev(%class.cException* %0) #3, !dbg !2695
  ret void, !dbg !2697
}

declare dso_local void @__cxa_throw(i8*, i8*, i8*)

; Function Attrs: noinline uwtable
define dso_local void @_ZN18cDynamicExpression5ValueaSERK4cPar(%"struct.cDynamicExpression::Value"* %this, %class.cPar* dereferenceable(24) %par) #0 align 2 personality i8* bitcast (i32 (...)* @__gxx_personality_v0 to i8*) !dbg !2698 {
entry:
  %this.addr = alloca %"struct.cDynamicExpression::Value"*, align 8
  %par.addr = alloca %class.cPar*, align 8
  %ref.tmp = alloca %"class.std::__cxx11::basic_string", align 8
  %exn.slot = alloca i8*
  %ehselector.slot = alloca i32
  %ref.tmp11 = alloca %"class.std::__cxx11::basic_string", align 8
  %cleanup.isactive = alloca i1, align 1
  store %"struct.cDynamicExpression::Value"* %this, %"struct.cDynamicExpression::Value"** %this.addr, align 8
  call void @llvm.dbg.declare(metadata %"struct.cDynamicExpression::Value"** %this.addr, metadata !2699, metadata !DIExpression()), !dbg !2701
  store %class.cPar* %par, %class.cPar** %par.addr, align 8
  call void @llvm.dbg.declare(metadata %class.cPar** %par.addr, metadata !2702, metadata !DIExpression()), !dbg !2703
  %this1 = load %"struct.cDynamicExpression::Value"*, %"struct.cDynamicExpression::Value"** %this.addr, align 8
  %0 = load %class.cPar*, %class.cPar** %par.addr, align 8, !dbg !2704
  %call = call i32 @_ZNK4cPar7getTypeEv(%class.cPar* %0), !dbg !2705
  switch i32 %call, label %sw.default [
    i32 66, label %sw.bb
    i32 68, label %sw.bb3
    i32 76, label %sw.bb6
    i32 83, label %sw.bb8
    i32 88, label %sw.bb9
  ], !dbg !2706

sw.bb:                                            ; preds = %entry
  %1 = load %class.cPar*, %class.cPar** %par.addr, align 8, !dbg !2707
  %call2 = call zeroext i1 @_ZNK4cPar9boolValueEv(%class.cPar* %1), !dbg !2709
  call void @_ZN18cDynamicExpression5ValueaSEb(%"struct.cDynamicExpression::Value"* %this1, i1 zeroext %call2), !dbg !2710
  br label %sw.epilog, !dbg !2711

sw.bb3:                                           ; preds = %entry
  %2 = load %class.cPar*, %class.cPar** %par.addr, align 8, !dbg !2712
  %call4 = call double @_ZNK4cPar11doubleValueEv(%class.cPar* %2), !dbg !2713
  call void @_ZN18cDynamicExpression5ValueaSEd(%"struct.cDynamicExpression::Value"* %this1, double %call4), !dbg !2714
  %3 = load %class.cPar*, %class.cPar** %par.addr, align 8, !dbg !2715
  %call5 = call i8* @_ZNK4cPar7getUnitEv(%class.cPar* %3), !dbg !2716
  %dblunit = getelementptr inbounds %"struct.cDynamicExpression::Value", %"struct.cDynamicExpression::Value"* %this1, i32 0, i32 3, !dbg !2717
  store i8* %call5, i8** %dblunit, align 8, !dbg !2718
  br label %sw.epilog, !dbg !2719

sw.bb6:                                           ; preds = %entry
  %4 = load %class.cPar*, %class.cPar** %par.addr, align 8, !dbg !2720
  %call7 = call double @_ZNK4cPar11doubleValueEv(%class.cPar* %4), !dbg !2721
  call void @_ZN18cDynamicExpression5ValueaSEd(%"struct.cDynamicExpression::Value"* %this1, double %call7), !dbg !2722
  br label %sw.epilog, !dbg !2723

sw.bb8:                                           ; preds = %entry
  %5 = load %class.cPar*, %class.cPar** %par.addr, align 8, !dbg !2724
  call void @_ZNK4cPar14stdstringValueB5cxx11Ev(%"class.std::__cxx11::basic_string"* sret %ref.tmp, %class.cPar* %5), !dbg !2725
  invoke void @_ZN18cDynamicExpression5ValueaSERKNSt7__cxx1112basic_stringIcSt11char_traitsIcESaIcEEE(%"struct.cDynamicExpression::Value"* %this1, %"class.std::__cxx11::basic_string"* dereferenceable(32) %ref.tmp)
          to label %invoke.cont unwind label %lpad, !dbg !2726

invoke.cont:                                      ; preds = %sw.bb8
  call void @_ZNSt7__cxx1112basic_stringIcSt11char_traitsIcESaIcEED1Ev(%"class.std::__cxx11::basic_string"* %ref.tmp) #3, !dbg !2727
  br label %sw.epilog, !dbg !2728

lpad:                                             ; preds = %sw.bb8
  %6 = landingpad { i8*, i32 }
          cleanup, !dbg !2729
  %7 = extractvalue { i8*, i32 } %6, 0, !dbg !2729
  store i8* %7, i8** %exn.slot, align 8, !dbg !2729
  %8 = extractvalue { i8*, i32 } %6, 1, !dbg !2729
  store i32 %8, i32* %ehselector.slot, align 4, !dbg !2729
  call void @_ZNSt7__cxx1112basic_stringIcSt11char_traitsIcESaIcEED1Ev(%"class.std::__cxx11::basic_string"* %ref.tmp) #3, !dbg !2727
  br label %eh.resume, !dbg !2727

sw.bb9:                                           ; preds = %entry
  %9 = load %class.cPar*, %class.cPar** %par.addr, align 8, !dbg !2730
  %call10 = call %class.cXMLElement* @_ZNK4cPar8xmlValueEv(%class.cPar* %9), !dbg !2731
  call void @_ZN18cDynamicExpression5ValueaSEP11cXMLElement(%"struct.cDynamicExpression::Value"* %this1, %class.cXMLElement* %call10), !dbg !2732
  br label %sw.epilog, !dbg !2733

sw.default:                                       ; preds = %entry
  %exception = call i8* @__cxa_allocate_exception(i64 128) #3, !dbg !2734
  store i1 true, i1* %cleanup.isactive, align 1
  %10 = bitcast i8* %exception to %class.cRuntimeError*, !dbg !2734
  %11 = load %class.cPar*, %class.cPar** %par.addr, align 8, !dbg !2735
  %12 = bitcast %class.cPar* %11 to %class.cObject*, !dbg !2735
  %13 = bitcast %class.cObject* %12 to void (%"class.std::__cxx11::basic_string"*, %class.cObject*)***, !dbg !2736
  %vtable = load void (%"class.std::__cxx11::basic_string"*, %class.cObject*)**, void (%"class.std::__cxx11::basic_string"*, %class.cObject*)*** %13, align 8, !dbg !2736
  %vfn = getelementptr inbounds void (%"class.std::__cxx11::basic_string"*, %class.cObject*)*, void (%"class.std::__cxx11::basic_string"*, %class.cObject*)** %vtable, i64 8, !dbg !2736
  %14 = load void (%"class.std::__cxx11::basic_string"*, %class.cObject*)*, void (%"class.std::__cxx11::basic_string"*, %class.cObject*)** %vfn, align 8, !dbg !2736
  invoke void %14(%"class.std::__cxx11::basic_string"* sret %ref.tmp11, %class.cObject* %12)
          to label %invoke.cont13 unwind label %lpad12, !dbg !2736

invoke.cont13:                                    ; preds = %sw.default
  %call14 = call i8* @_ZNKSt7__cxx1112basic_stringIcSt11char_traitsIcESaIcEE5c_strEv(%"class.std::__cxx11::basic_string"* %ref.tmp11) #3, !dbg !2737
  invoke void (%class.cRuntimeError*, i8*, ...) @_ZN13cRuntimeErrorC1EPKcz(%class.cRuntimeError* %10, i8* getelementptr inbounds ([34 x i8], [34 x i8]* @.str.3, i64 0, i64 0), i8* %call14)
          to label %invoke.cont16 unwind label %lpad15, !dbg !2738

invoke.cont16:                                    ; preds = %invoke.cont13
  store i1 false, i1* %cleanup.isactive, align 1, !dbg !2734
  invoke void @__cxa_throw(i8* %exception, i8* bitcast ({ i8*, i8*, i8* }* @_ZTI13cRuntimeError to i8*), i8* bitcast (void (%class.cRuntimeError*)* @_ZN13cRuntimeErrorD2Ev to i8*)) #15
          to label %unreachable unwind label %lpad15, !dbg !2734

lpad12:                                           ; preds = %sw.default
  %15 = landingpad { i8*, i32 }
          cleanup, !dbg !2729
  %16 = extractvalue { i8*, i32 } %15, 0, !dbg !2729
  store i8* %16, i8** %exn.slot, align 8, !dbg !2729
  %17 = extractvalue { i8*, i32 } %15, 1, !dbg !2729
  store i32 %17, i32* %ehselector.slot, align 4, !dbg !2729
  br label %ehcleanup, !dbg !2729

lpad15:                                           ; preds = %invoke.cont16, %invoke.cont13
  %18 = landingpad { i8*, i32 }
          cleanup, !dbg !2729
  %19 = extractvalue { i8*, i32 } %18, 0, !dbg !2729
  store i8* %19, i8** %exn.slot, align 8, !dbg !2729
  %20 = extractvalue { i8*, i32 } %18, 1, !dbg !2729
  store i32 %20, i32* %ehselector.slot, align 4, !dbg !2729
  call void @_ZNSt7__cxx1112basic_stringIcSt11char_traitsIcESaIcEED1Ev(%"class.std::__cxx11::basic_string"* %ref.tmp11) #3, !dbg !2734
  br label %ehcleanup, !dbg !2734

ehcleanup:                                        ; preds = %lpad15, %lpad12
  %cleanup.is_active = load i1, i1* %cleanup.isactive, align 1, !dbg !2734
  br i1 %cleanup.is_active, label %cleanup.action, label %cleanup.done, !dbg !2734

cleanup.action:                                   ; preds = %ehcleanup
  call void @__cxa_free_exception(i8* %exception) #3, !dbg !2734
  br label %cleanup.done, !dbg !2734

cleanup.done:                                     ; preds = %cleanup.action, %ehcleanup
  br label %eh.resume, !dbg !2734

sw.epilog:                                        ; preds = %sw.bb9, %invoke.cont, %sw.bb6, %sw.bb3, %sw.bb
  ret void, !dbg !2739

eh.resume:                                        ; preds = %cleanup.done, %lpad
  %exn = load i8*, i8** %exn.slot, align 8, !dbg !2727
  %sel = load i32, i32* %ehselector.slot, align 4, !dbg !2727
  %lpad.val = insertvalue { i8*, i32 } undef, i8* %exn, 0, !dbg !2727
  %lpad.val17 = insertvalue { i8*, i32 } %lpad.val, i32 %sel, 1, !dbg !2727
  resume { i8*, i32 } %lpad.val17, !dbg !2727

unreachable:                                      ; preds = %invoke.cont16
  unreachable
}

declare dso_local i32 @_ZNK4cPar7getTypeEv(%class.cPar*) #1

declare dso_local zeroext i1 @_ZNK4cPar9boolValueEv(%class.cPar*) #1

; Function Attrs: noinline nounwind uwtable
define linkonce_odr dso_local void @_ZN18cDynamicExpression5ValueaSEb(%"struct.cDynamicExpression::Value"* %this, i1 zeroext %b) #6 comdat align 2 !dbg !2740 {
entry:
  %this.addr = alloca %"struct.cDynamicExpression::Value"*, align 8
  %b.addr = alloca i8, align 1
  store %"struct.cDynamicExpression::Value"* %this, %"struct.cDynamicExpression::Value"** %this.addr, align 8
  call void @llvm.dbg.declare(metadata %"struct.cDynamicExpression::Value"** %this.addr, metadata !2741, metadata !DIExpression()), !dbg !2742
  %frombool = zext i1 %b to i8
  store i8 %frombool, i8* %b.addr, align 1
  call void @llvm.dbg.declare(metadata i8* %b.addr, metadata !2743, metadata !DIExpression()), !dbg !2744
  %this1 = load %"struct.cDynamicExpression::Value"*, %"struct.cDynamicExpression::Value"** %this.addr, align 8
  %type = getelementptr inbounds %"struct.cDynamicExpression::Value", %"struct.cDynamicExpression::Value"* %this1, i32 0, i32 0, !dbg !2745
  store i32 66, i32* %type, align 8, !dbg !2746
  %0 = load i8, i8* %b.addr, align 1, !dbg !2747
  %tobool = trunc i8 %0 to i1, !dbg !2747
  %bl = getelementptr inbounds %"struct.cDynamicExpression::Value", %"struct.cDynamicExpression::Value"* %this1, i32 0, i32 1, !dbg !2748
  %frombool2 = zext i1 %tobool to i8, !dbg !2749
  store i8 %frombool2, i8* %bl, align 4, !dbg !2749
  ret void, !dbg !2750
}

declare dso_local double @_ZNK4cPar11doubleValueEv(%class.cPar*) #1

; Function Attrs: noinline nounwind uwtable
define linkonce_odr dso_local void @_ZN18cDynamicExpression5ValueaSEd(%"struct.cDynamicExpression::Value"* %this, double %d) #6 comdat align 2 !dbg !2751 {
entry:
  %this.addr = alloca %"struct.cDynamicExpression::Value"*, align 8
  %d.addr = alloca double, align 8
  store %"struct.cDynamicExpression::Value"* %this, %"struct.cDynamicExpression::Value"** %this.addr, align 8
  call void @llvm.dbg.declare(metadata %"struct.cDynamicExpression::Value"** %this.addr, metadata !2752, metadata !DIExpression()), !dbg !2753
  store double %d, double* %d.addr, align 8
  call void @llvm.dbg.declare(metadata double* %d.addr, metadata !2754, metadata !DIExpression()), !dbg !2755
  %this1 = load %"struct.cDynamicExpression::Value"*, %"struct.cDynamicExpression::Value"** %this.addr, align 8
  %type = getelementptr inbounds %"struct.cDynamicExpression::Value", %"struct.cDynamicExpression::Value"* %this1, i32 0, i32 0, !dbg !2756
  store i32 68, i32* %type, align 8, !dbg !2757
  %0 = load double, double* %d.addr, align 8, !dbg !2758
  %dbl = getelementptr inbounds %"struct.cDynamicExpression::Value", %"struct.cDynamicExpression::Value"* %this1, i32 0, i32 2, !dbg !2759
  store double %0, double* %dbl, align 8, !dbg !2760
  %dblunit = getelementptr inbounds %"struct.cDynamicExpression::Value", %"struct.cDynamicExpression::Value"* %this1, i32 0, i32 3, !dbg !2761
  store i8* null, i8** %dblunit, align 8, !dbg !2762
  ret void, !dbg !2763
}

declare dso_local i8* @_ZNK4cPar7getUnitEv(%class.cPar*) #1

declare dso_local void @_ZNK4cPar14stdstringValueB5cxx11Ev(%"class.std::__cxx11::basic_string"* sret, %class.cPar*) #1

; Function Attrs: noinline uwtable
define linkonce_odr dso_local void @_ZN18cDynamicExpression5ValueaSERKNSt7__cxx1112basic_stringIcSt11char_traitsIcESaIcEEE(%"struct.cDynamicExpression::Value"* %this, %"class.std::__cxx11::basic_string"* dereferenceable(32) %s) #0 comdat align 2 !dbg !2764 {
entry:
  %this.addr = alloca %"struct.cDynamicExpression::Value"*, align 8
  %s.addr = alloca %"class.std::__cxx11::basic_string"*, align 8
  store %"struct.cDynamicExpression::Value"* %this, %"struct.cDynamicExpression::Value"** %this.addr, align 8
  call void @llvm.dbg.declare(metadata %"struct.cDynamicExpression::Value"** %this.addr, metadata !2765, metadata !DIExpression()), !dbg !2766
  store %"class.std::__cxx11::basic_string"* %s, %"class.std::__cxx11::basic_string"** %s.addr, align 8
  call void @llvm.dbg.declare(metadata %"class.std::__cxx11::basic_string"** %s.addr, metadata !2767, metadata !DIExpression()), !dbg !2768
  %this1 = load %"struct.cDynamicExpression::Value"*, %"struct.cDynamicExpression::Value"** %this.addr, align 8
  %type = getelementptr inbounds %"struct.cDynamicExpression::Value", %"struct.cDynamicExpression::Value"* %this1, i32 0, i32 0, !dbg !2769
  store i32 83, i32* %type, align 8, !dbg !2770
  %0 = load %"class.std::__cxx11::basic_string"*, %"class.std::__cxx11::basic_string"** %s.addr, align 8, !dbg !2771
  %s2 = getelementptr inbounds %"struct.cDynamicExpression::Value", %"struct.cDynamicExpression::Value"* %this1, i32 0, i32 4, !dbg !2772
  %call = call dereferenceable(32) %"class.std::__cxx11::basic_string"* @_ZNSt7__cxx1112basic_stringIcSt11char_traitsIcESaIcEEaSERKS4_(%"class.std::__cxx11::basic_string"* %s2, %"class.std::__cxx11::basic_string"* dereferenceable(32) %0), !dbg !2773
  ret void, !dbg !2774
}

; Function Attrs: nounwind
declare dso_local void @_ZNSt7__cxx1112basic_stringIcSt11char_traitsIcESaIcEED1Ev(%"class.std::__cxx11::basic_string"*) unnamed_addr #2

declare dso_local %class.cXMLElement* @_ZNK4cPar8xmlValueEv(%class.cPar*) #1

; Function Attrs: noinline nounwind uwtable
define linkonce_odr dso_local void @_ZN18cDynamicExpression5ValueaSEP11cXMLElement(%"struct.cDynamicExpression::Value"* %this, %class.cXMLElement* %x) #6 comdat align 2 !dbg !2775 {
entry:
  %this.addr = alloca %"struct.cDynamicExpression::Value"*, align 8
  %x.addr = alloca %class.cXMLElement*, align 8
  store %"struct.cDynamicExpression::Value"* %this, %"struct.cDynamicExpression::Value"** %this.addr, align 8
  call void @llvm.dbg.declare(metadata %"struct.cDynamicExpression::Value"** %this.addr, metadata !2776, metadata !DIExpression()), !dbg !2777
  store %class.cXMLElement* %x, %class.cXMLElement** %x.addr, align 8
  call void @llvm.dbg.declare(metadata %class.cXMLElement** %x.addr, metadata !2778, metadata !DIExpression()), !dbg !2779
  %this1 = load %"struct.cDynamicExpression::Value"*, %"struct.cDynamicExpression::Value"** %this.addr, align 8
  %type = getelementptr inbounds %"struct.cDynamicExpression::Value", %"struct.cDynamicExpression::Value"* %this1, i32 0, i32 0, !dbg !2780
  store i32 88, i32* %type, align 8, !dbg !2781
  %0 = load %class.cXMLElement*, %class.cXMLElement** %x.addr, align 8, !dbg !2782
  %xml = getelementptr inbounds %"struct.cDynamicExpression::Value", %"struct.cDynamicExpression::Value"* %this1, i32 0, i32 5, !dbg !2783
  store %class.cXMLElement* %0, %class.cXMLElement** %xml, align 8, !dbg !2784
  ret void, !dbg !2785
}

; Function Attrs: nounwind
declare dso_local i8* @_ZNKSt7__cxx1112basic_stringIcSt11char_traitsIcESaIcEE5c_strEv(%"class.std::__cxx11::basic_string"*) #2

; Function Attrs: noinline uwtable
define dso_local void @_ZNK18cDynamicExpression5Value3strB5cxx11Ev(%"class.std::__cxx11::basic_string"* noalias sret %agg.result, %"struct.cDynamicExpression::Value"* %this) #0 align 2 personality i8* bitcast (i32 (...)* @__gxx_personality_v0 to i8*) !dbg !2786 {
entry:
  %result.ptr = alloca i8*, align 8
  %this.addr = alloca %"struct.cDynamicExpression::Value"*, align 8
  %buf = alloca [32 x i8], align 16
  %ref.tmp = alloca %"class.std::allocator", align 1
  %exn.slot = alloca i8*
  %ehselector.slot = alloca i32
  %ref.tmp5 = alloca %"class.std::allocator", align 1
  %0 = bitcast %"class.std::__cxx11::basic_string"* %agg.result to i8*
  store i8* %0, i8** %result.ptr, align 8
  store %"struct.cDynamicExpression::Value"* %this, %"struct.cDynamicExpression::Value"** %this.addr, align 8
  call void @llvm.dbg.declare(metadata %"struct.cDynamicExpression::Value"** %this.addr, metadata !2787, metadata !DIExpression()), !dbg !2789
  %this1 = load %"struct.cDynamicExpression::Value"*, %"struct.cDynamicExpression::Value"** %this.addr, align 8
  call void @llvm.dbg.declare(metadata [32 x i8]* %buf, metadata !2790, metadata !DIExpression()), !dbg !2794
  %type = getelementptr inbounds %"struct.cDynamicExpression::Value", %"struct.cDynamicExpression::Value"* %this1, i32 0, i32 0, !dbg !2795
  %1 = load i32, i32* %type, align 8, !dbg !2795
  switch i32 %1, label %sw.default [
    i32 66, label %sw.bb
    i32 68, label %sw.bb2
    i32 83, label %sw.bb8
    i32 88, label %sw.bb10
  ], !dbg !2796

sw.bb:                                            ; preds = %entry
  %bl = getelementptr inbounds %"struct.cDynamicExpression::Value", %"struct.cDynamicExpression::Value"* %this1, i32 0, i32 1, !dbg !2797
  %2 = load i8, i8* %bl, align 4, !dbg !2797
  %tobool = trunc i8 %2 to i1, !dbg !2797
  %3 = zext i1 %tobool to i64, !dbg !2797
  %cond = select i1 %tobool, i8* getelementptr inbounds ([5 x i8], [5 x i8]* @.str.4, i64 0, i64 0), i8* getelementptr inbounds ([6 x i8], [6 x i8]* @.str.5, i64 0, i64 0), !dbg !2797
  call void @_ZNSaIcEC1Ev(%"class.std::allocator"* %ref.tmp) #3, !dbg !2797
  invoke void @_ZNSt7__cxx1112basic_stringIcSt11char_traitsIcESaIcEEC1EPKcRKS3_(%"class.std::__cxx11::basic_string"* %agg.result, i8* %cond, %"class.std::allocator"* dereferenceable(1) %ref.tmp)
          to label %invoke.cont unwind label %lpad, !dbg !2797

invoke.cont:                                      ; preds = %sw.bb
  call void @_ZNSaIcED1Ev(%"class.std::allocator"* %ref.tmp) #3, !dbg !2799
  br label %return, !dbg !2799

lpad:                                             ; preds = %sw.bb
  %4 = landingpad { i8*, i32 }
          cleanup, !dbg !2800
  %5 = extractvalue { i8*, i32 } %4, 0, !dbg !2800
  store i8* %5, i8** %exn.slot, align 8, !dbg !2800
  %6 = extractvalue { i8*, i32 } %4, 1, !dbg !2800
  store i32 %6, i32* %ehselector.slot, align 4, !dbg !2800
  call void @_ZNSaIcED1Ev(%"class.std::allocator"* %ref.tmp) #3, !dbg !2799
  br label %eh.resume, !dbg !2799

sw.bb2:                                           ; preds = %entry
  %arraydecay = getelementptr inbounds [32 x i8], [32 x i8]* %buf, i64 0, i64 0, !dbg !2801
  %dbl = getelementptr inbounds %"struct.cDynamicExpression::Value", %"struct.cDynamicExpression::Value"* %this1, i32 0, i32 2, !dbg !2802
  %7 = load double, double* %dbl, align 8, !dbg !2802
  %dblunit = getelementptr inbounds %"struct.cDynamicExpression::Value", %"struct.cDynamicExpression::Value"* %this1, i32 0, i32 3, !dbg !2803
  %8 = load i8*, i8** %dblunit, align 8, !dbg !2803
  %call = call i8* @_Z15opp_nulltoemptyPKc(i8* %8), !dbg !2804
  %call3 = call i32 (i8*, i8*, ...) @sprintf(i8* %arraydecay, i8* getelementptr inbounds ([5 x i8], [5 x i8]* @.str.6, i64 0, i64 0), double %7, i8* %call) #3, !dbg !2805
  %arraydecay4 = getelementptr inbounds [32 x i8], [32 x i8]* %buf, i64 0, i64 0, !dbg !2806
  call void @_ZNSaIcEC1Ev(%"class.std::allocator"* %ref.tmp5) #3, !dbg !2806
  invoke void @_ZNSt7__cxx1112basic_stringIcSt11char_traitsIcESaIcEEC1EPKcRKS3_(%"class.std::__cxx11::basic_string"* %agg.result, i8* %arraydecay4, %"class.std::allocator"* dereferenceable(1) %ref.tmp5)
          to label %invoke.cont7 unwind label %lpad6, !dbg !2806

invoke.cont7:                                     ; preds = %sw.bb2
  call void @_ZNSaIcED1Ev(%"class.std::allocator"* %ref.tmp5) #3, !dbg !2807
  br label %return, !dbg !2807

lpad6:                                            ; preds = %sw.bb2
  %9 = landingpad { i8*, i32 }
          cleanup, !dbg !2800
  %10 = extractvalue { i8*, i32 } %9, 0, !dbg !2800
  store i8* %10, i8** %exn.slot, align 8, !dbg !2800
  %11 = extractvalue { i8*, i32 } %9, 1, !dbg !2800
  store i32 %11, i32* %ehselector.slot, align 4, !dbg !2800
  call void @_ZNSaIcED1Ev(%"class.std::allocator"* %ref.tmp5) #3, !dbg !2807
  br label %eh.resume, !dbg !2807

sw.bb8:                                           ; preds = %entry
  %s = getelementptr inbounds %"struct.cDynamicExpression::Value", %"struct.cDynamicExpression::Value"* %this1, i32 0, i32 4, !dbg !2808
  %call9 = call i8* @_ZNKSt7__cxx1112basic_stringIcSt11char_traitsIcESaIcEE5c_strEv(%"class.std::__cxx11::basic_string"* %s) #3, !dbg !2809
  call void @_Z12opp_quotestrB5cxx11PKc(%"class.std::__cxx11::basic_string"* sret %agg.result, i8* %call9), !dbg !2810
  br label %return, !dbg !2811

sw.bb10:                                          ; preds = %entry
  %xml = getelementptr inbounds %"struct.cDynamicExpression::Value", %"struct.cDynamicExpression::Value"* %this1, i32 0, i32 5, !dbg !2812
  %12 = load %class.cXMLElement*, %class.cXMLElement** %xml, align 8, !dbg !2812
  %13 = bitcast %class.cXMLElement* %12 to void (%"class.std::__cxx11::basic_string"*, %class.cXMLElement*)***, !dbg !2813
  %vtable = load void (%"class.std::__cxx11::basic_string"*, %class.cXMLElement*)**, void (%"class.std::__cxx11::basic_string"*, %class.cXMLElement*)*** %13, align 8, !dbg !2813
  %vfn = getelementptr inbounds void (%"class.std::__cxx11::basic_string"*, %class.cXMLElement*)*, void (%"class.std::__cxx11::basic_string"*, %class.cXMLElement*)** %vtable, i64 25, !dbg !2813
  %14 = load void (%"class.std::__cxx11::basic_string"*, %class.cXMLElement*)*, void (%"class.std::__cxx11::basic_string"*, %class.cXMLElement*)** %vfn, align 8, !dbg !2813
  call void %14(%"class.std::__cxx11::basic_string"* sret %agg.result, %class.cXMLElement* %12), !dbg !2813
  br label %return, !dbg !2814

sw.default:                                       ; preds = %entry
  %exception = call i8* @__cxa_allocate_exception(i64 128) #3, !dbg !2815
  %15 = bitcast i8* %exception to %class.cRuntimeError*, !dbg !2815
  invoke void (%class.cRuntimeError*, i8*, ...) @_ZN13cRuntimeErrorC1EPKcz(%class.cRuntimeError* %15, i8* getelementptr inbounds ([31 x i8], [31 x i8]* @.str.7, i64 0, i64 0))
          to label %invoke.cont12 unwind label %lpad11, !dbg !2816

invoke.cont12:                                    ; preds = %sw.default
  call void @__cxa_throw(i8* %exception, i8* bitcast ({ i8*, i8*, i8* }* @_ZTI13cRuntimeError to i8*), i8* bitcast (void (%class.cRuntimeError*)* @_ZN13cRuntimeErrorD2Ev to i8*)) #15, !dbg !2815
  unreachable, !dbg !2815

lpad11:                                           ; preds = %sw.default
  %16 = landingpad { i8*, i32 }
          cleanup, !dbg !2800
  %17 = extractvalue { i8*, i32 } %16, 0, !dbg !2800
  store i8* %17, i8** %exn.slot, align 8, !dbg !2800
  %18 = extractvalue { i8*, i32 } %16, 1, !dbg !2800
  store i32 %18, i32* %ehselector.slot, align 4, !dbg !2800
  call void @__cxa_free_exception(i8* %exception) #3, !dbg !2815
  br label %eh.resume, !dbg !2815

return:                                           ; preds = %sw.bb10, %sw.bb8, %invoke.cont7, %invoke.cont
  ret void, !dbg !2817

eh.resume:                                        ; preds = %lpad11, %lpad6, %lpad
  %exn = load i8*, i8** %exn.slot, align 8, !dbg !2799
  %sel = load i32, i32* %ehselector.slot, align 4, !dbg !2799
  %lpad.val = insertvalue { i8*, i32 } undef, i8* %exn, 0, !dbg !2799
  %lpad.val13 = insertvalue { i8*, i32 } %lpad.val, i32 %sel, 1, !dbg !2799
  resume { i8*, i32 } %lpad.val13, !dbg !2799
}

; Function Attrs: nounwind
declare dso_local void @_ZNSaIcEC1Ev(%"class.std::allocator"*) unnamed_addr #2

declare dso_local void @_ZNSt7__cxx1112basic_stringIcSt11char_traitsIcESaIcEEC1EPKcRKS3_(%"class.std::__cxx11::basic_string"*, i8*, %"class.std::allocator"* dereferenceable(1)) unnamed_addr #1

; Function Attrs: nounwind
declare dso_local void @_ZNSaIcED1Ev(%"class.std::allocator"*) unnamed_addr #2

; Function Attrs: nounwind
declare dso_local i32 @sprintf(i8*, i8*, ...) #2

; Function Attrs: noinline nounwind uwtable
define linkonce_odr dso_local i8* @_Z15opp_nulltoemptyPKc(i8* %s) #6 comdat !dbg !2818 {
entry:
  %s.addr = alloca i8*, align 8
  store i8* %s, i8** %s.addr, align 8
  call void @llvm.dbg.declare(metadata i8** %s.addr, metadata !2822, metadata !DIExpression()), !dbg !2823
  %0 = load i8*, i8** %s.addr, align 8, !dbg !2824
  %tobool = icmp ne i8* %0, null, !dbg !2824
  br i1 %tobool, label %cond.true, label %cond.false, !dbg !2824

cond.true:                                        ; preds = %entry
  %1 = load i8*, i8** %s.addr, align 8, !dbg !2825
  br label %cond.end, !dbg !2824

cond.false:                                       ; preds = %entry
  br label %cond.end, !dbg !2824

cond.end:                                         ; preds = %cond.false, %cond.true
  %cond = phi i8* [ %1, %cond.true ], [ getelementptr inbounds ([1 x i8], [1 x i8]* @.str.40, i64 0, i64 0), %cond.false ], !dbg !2824
  ret i8* %cond, !dbg !2826
}

declare dso_local void @_Z12opp_quotestrB5cxx11PKc(%"class.std::__cxx11::basic_string"* sret, i8*) #1

; Function Attrs: noinline uwtable
define dso_local void @_ZN18cDynamicExpressionC2Ev(%class.cDynamicExpression* %this) unnamed_addr #0 align 2 !dbg !2827 {
entry:
  %this.addr = alloca %class.cDynamicExpression*, align 8
  store %class.cDynamicExpression* %this, %class.cDynamicExpression** %this.addr, align 8
  call void @llvm.dbg.declare(metadata %class.cDynamicExpression** %this.addr, metadata !2828, metadata !DIExpression()), !dbg !2829
  %this1 = load %class.cDynamicExpression*, %class.cDynamicExpression** %this.addr, align 8
  %0 = bitcast %class.cDynamicExpression* %this1 to %class.cExpression*, !dbg !2830
  call void @_ZN11cExpressionC2Ev(%class.cExpression* %0), !dbg !2831
  %1 = bitcast %class.cDynamicExpression* %this1 to i32 (...)***, !dbg !2830
  store i32 (...)** bitcast (i8** getelementptr inbounds ({ [34 x i8*] }, { [34 x i8*] }* @_ZTV18cDynamicExpression, i32 0, inrange i32 0, i32 2) to i32 (...)**), i32 (...)*** %1, align 8, !dbg !2830
  %elems = getelementptr inbounds %class.cDynamicExpression, %class.cDynamicExpression* %this1, i32 0, i32 1, !dbg !2832
  store %"class.cDynamicExpression::Elem"* null, %"class.cDynamicExpression::Elem"** %elems, align 8, !dbg !2834
  %size = getelementptr inbounds %class.cDynamicExpression, %class.cDynamicExpression* %this1, i32 0, i32 2, !dbg !2835
  store i32 0, i32* %size, align 8, !dbg !2836
  ret void, !dbg !2837
}

; Function Attrs: noinline uwtable
define linkonce_odr dso_local void @_ZN11cExpressionC2Ev(%class.cExpression* %this) unnamed_addr #0 comdat align 2 !dbg !2838 {
entry:
  %this.addr = alloca %class.cExpression*, align 8
  store %class.cExpression* %this, %class.cExpression** %this.addr, align 8
  call void @llvm.dbg.declare(metadata %class.cExpression** %this.addr, metadata !2839, metadata !DIExpression()), !dbg !2840
  %this1 = load %class.cExpression*, %class.cExpression** %this.addr, align 8
  %0 = bitcast %class.cExpression* %this1 to %class.cObject*, !dbg !2841
  call void @_ZN7cObjectC2Ev(%class.cObject* %0), !dbg !2842
  %1 = bitcast %class.cExpression* %this1 to i32 (...)***, !dbg !2841
  store i32 (...)** bitcast (i8** getelementptr inbounds ({ [31 x i8*] }, { [31 x i8*] }* @_ZTV11cExpression, i32 0, inrange i32 0, i32 2) to i32 (...)**), i32 (...)*** %1, align 8, !dbg !2841
  ret void, !dbg !2843
}

; Function Attrs: noinline nounwind uwtable
define dso_local void @_ZN18cDynamicExpressionD2Ev(%class.cDynamicExpression* %this) unnamed_addr #6 align 2 !dbg !2844 {
entry:
  %this.addr = alloca %class.cDynamicExpression*, align 8
  store %class.cDynamicExpression* %this, %class.cDynamicExpression** %this.addr, align 8
  call void @llvm.dbg.declare(metadata %class.cDynamicExpression** %this.addr, metadata !2845, metadata !DIExpression()), !dbg !2846
  %this1 = load %class.cDynamicExpression*, %class.cDynamicExpression** %this.addr, align 8
  %0 = bitcast %class.cDynamicExpression* %this1 to i32 (...)***, !dbg !2847
  store i32 (...)** bitcast (i8** getelementptr inbounds ({ [34 x i8*] }, { [34 x i8*] }* @_ZTV18cDynamicExpression, i32 0, inrange i32 0, i32 2) to i32 (...)**), i32 (...)*** %0, align 8, !dbg !2847
  %elems = getelementptr inbounds %class.cDynamicExpression, %class.cDynamicExpression* %this1, i32 0, i32 1, !dbg !2848
  %1 = load %"class.cDynamicExpression::Elem"*, %"class.cDynamicExpression::Elem"** %elems, align 8, !dbg !2848
  %isnull = icmp eq %"class.cDynamicExpression::Elem"* %1, null, !dbg !2850
  br i1 %isnull, label %delete.end3, label %delete.notnull, !dbg !2850

delete.notnull:                                   ; preds = %entry
  %2 = bitcast %"class.cDynamicExpression::Elem"* %1 to i8*, !dbg !2850
  %3 = getelementptr inbounds i8, i8* %2, i64 -8, !dbg !2850
  %4 = bitcast i8* %3 to i64*, !dbg !2850
  %5 = load i64, i64* %4, align 8, !dbg !2850
  %delete.end = getelementptr inbounds %"class.cDynamicExpression::Elem", %"class.cDynamicExpression::Elem"* %1, i64 %5, !dbg !2850
  %arraydestroy.isempty = icmp eq %"class.cDynamicExpression::Elem"* %1, %delete.end, !dbg !2850
  br i1 %arraydestroy.isempty, label %arraydestroy.done2, label %arraydestroy.body, !dbg !2850

arraydestroy.body:                                ; preds = %arraydestroy.body, %delete.notnull
  %arraydestroy.elementPast = phi %"class.cDynamicExpression::Elem"* [ %delete.end, %delete.notnull ], [ %arraydestroy.element, %arraydestroy.body ], !dbg !2850
  %arraydestroy.element = getelementptr inbounds %"class.cDynamicExpression::Elem", %"class.cDynamicExpression::Elem"* %arraydestroy.elementPast, i64 -1, !dbg !2850
  call void @_ZN18cDynamicExpression4ElemD1Ev(%"class.cDynamicExpression::Elem"* %arraydestroy.element) #3, !dbg !2850
  %arraydestroy.done = icmp eq %"class.cDynamicExpression::Elem"* %arraydestroy.element, %1, !dbg !2850
  br i1 %arraydestroy.done, label %arraydestroy.done2, label %arraydestroy.body, !dbg !2850

arraydestroy.done2:                               ; preds = %arraydestroy.body, %delete.notnull
  call void @_ZdaPv(i8* %3) #16, !dbg !2850
  br label %delete.end3, !dbg !2850

delete.end3:                                      ; preds = %arraydestroy.done2, %entry
  %6 = bitcast %class.cDynamicExpression* %this1 to %class.cExpression*, !dbg !2851
  call void @_ZN11cExpressionD2Ev(%class.cExpression* %6) #3, !dbg !2851
  ret void, !dbg !2852
}

; Function Attrs: nobuiltin nounwind
declare dso_local void @_ZdaPv(i8*) #8

; Function Attrs: noinline nounwind uwtable
define dso_local void @_ZN18cDynamicExpressionD0Ev(%class.cDynamicExpression* %this) unnamed_addr #6 align 2 !dbg !2853 {
entry:
  %this.addr = alloca %class.cDynamicExpression*, align 8
  store %class.cDynamicExpression* %this, %class.cDynamicExpression** %this.addr, align 8
  call void @llvm.dbg.declare(metadata %class.cDynamicExpression** %this.addr, metadata !2854, metadata !DIExpression()), !dbg !2855
  %this1 = load %class.cDynamicExpression*, %class.cDynamicExpression** %this.addr, align 8
  call void @_ZN18cDynamicExpressionD1Ev(%class.cDynamicExpression* %this1) #3, !dbg !2856
  %0 = bitcast %class.cDynamicExpression* %this1 to i8*, !dbg !2856
  call void @_ZdlPv(i8* %0) #16, !dbg !2856
  ret void, !dbg !2857
}

; Function Attrs: nobuiltin nounwind
declare dso_local void @_ZdlPv(i8*) #8

; Function Attrs: noinline uwtable
define dso_local dereferenceable(24) %class.cDynamicExpression* @_ZN18cDynamicExpressionaSERKS_(%class.cDynamicExpression* %this, %class.cDynamicExpression* dereferenceable(24) %other) #0 align 2 personality i8* bitcast (i32 (...)* @__gxx_personality_v0 to i8*) !dbg !2858 {
entry:
  %retval = alloca %class.cDynamicExpression*, align 8
  %this.addr = alloca %class.cDynamicExpression*, align 8
  %other.addr = alloca %class.cDynamicExpression*, align 8
  %exn.slot = alloca i8*
  %ehselector.slot = alloca i32
  %i = alloca i32, align 4
  store %class.cDynamicExpression* %this, %class.cDynamicExpression** %this.addr, align 8
  call void @llvm.dbg.declare(metadata %class.cDynamicExpression** %this.addr, metadata !2859, metadata !DIExpression()), !dbg !2860
  store %class.cDynamicExpression* %other, %class.cDynamicExpression** %other.addr, align 8
  call void @llvm.dbg.declare(metadata %class.cDynamicExpression** %other.addr, metadata !2861, metadata !DIExpression()), !dbg !2862
  %this1 = load %class.cDynamicExpression*, %class.cDynamicExpression** %this.addr, align 8
  %0 = load %class.cDynamicExpression*, %class.cDynamicExpression** %other.addr, align 8, !dbg !2863
  %cmp = icmp eq %class.cDynamicExpression* %this1, %0, !dbg !2865
  br i1 %cmp, label %if.then, label %if.end, !dbg !2866

if.then:                                          ; preds = %entry
  store %class.cDynamicExpression* %this1, %class.cDynamicExpression** %retval, align 8, !dbg !2867
  br label %return, !dbg !2867

if.end:                                           ; preds = %entry
  %elems = getelementptr inbounds %class.cDynamicExpression, %class.cDynamicExpression* %this1, i32 0, i32 1, !dbg !2868
  %1 = load %"class.cDynamicExpression::Elem"*, %"class.cDynamicExpression::Elem"** %elems, align 8, !dbg !2868
  %isnull = icmp eq %"class.cDynamicExpression::Elem"* %1, null, !dbg !2869
  br i1 %isnull, label %delete.end3, label %delete.notnull, !dbg !2869

delete.notnull:                                   ; preds = %if.end
  %2 = bitcast %"class.cDynamicExpression::Elem"* %1 to i8*, !dbg !2869
  %3 = getelementptr inbounds i8, i8* %2, i64 -8, !dbg !2869
  %4 = bitcast i8* %3 to i64*, !dbg !2869
  %5 = load i64, i64* %4, align 8, !dbg !2869
  %delete.end = getelementptr inbounds %"class.cDynamicExpression::Elem", %"class.cDynamicExpression::Elem"* %1, i64 %5, !dbg !2869
  %arraydestroy.isempty = icmp eq %"class.cDynamicExpression::Elem"* %1, %delete.end, !dbg !2869
  br i1 %arraydestroy.isempty, label %arraydestroy.done2, label %arraydestroy.body, !dbg !2869

arraydestroy.body:                                ; preds = %arraydestroy.body, %delete.notnull
  %arraydestroy.elementPast = phi %"class.cDynamicExpression::Elem"* [ %delete.end, %delete.notnull ], [ %arraydestroy.element, %arraydestroy.body ], !dbg !2869
  %arraydestroy.element = getelementptr inbounds %"class.cDynamicExpression::Elem", %"class.cDynamicExpression::Elem"* %arraydestroy.elementPast, i64 -1, !dbg !2869
  call void @_ZN18cDynamicExpression4ElemD1Ev(%"class.cDynamicExpression::Elem"* %arraydestroy.element) #3, !dbg !2869
  %arraydestroy.done = icmp eq %"class.cDynamicExpression::Elem"* %arraydestroy.element, %1, !dbg !2869
  br i1 %arraydestroy.done, label %arraydestroy.done2, label %arraydestroy.body, !dbg !2869

arraydestroy.done2:                               ; preds = %arraydestroy.body, %delete.notnull
  call void @_ZdaPv(i8* %3) #16, !dbg !2869
  br label %delete.end3, !dbg !2869

delete.end3:                                      ; preds = %arraydestroy.done2, %if.end
  %6 = load %class.cDynamicExpression*, %class.cDynamicExpression** %other.addr, align 8, !dbg !2870
  %size = getelementptr inbounds %class.cDynamicExpression, %class.cDynamicExpression* %6, i32 0, i32 2, !dbg !2871
  %7 = load i32, i32* %size, align 8, !dbg !2871
  %size4 = getelementptr inbounds %class.cDynamicExpression, %class.cDynamicExpression* %this1, i32 0, i32 2, !dbg !2872
  store i32 %7, i32* %size4, align 8, !dbg !2873
  %size5 = getelementptr inbounds %class.cDynamicExpression, %class.cDynamicExpression* %this1, i32 0, i32 2, !dbg !2874
  %8 = load i32, i32* %size5, align 8, !dbg !2874
  %conv = sext i32 %8 to i64, !dbg !2874
  %9 = call { i64, i1 } @llvm.umul.with.overflow.i64(i64 %conv, i64 24), !dbg !2875
  %10 = extractvalue { i64, i1 } %9, 1, !dbg !2875
  %11 = extractvalue { i64, i1 } %9, 0, !dbg !2875
  %12 = call { i64, i1 } @llvm.uadd.with.overflow.i64(i64 %11, i64 8), !dbg !2875
  %13 = extractvalue { i64, i1 } %12, 1, !dbg !2875
  %14 = or i1 %10, %13, !dbg !2875
  %15 = extractvalue { i64, i1 } %12, 0, !dbg !2875
  %16 = select i1 %14, i64 -1, i64 %15, !dbg !2875
  %call = call i8* @_Znam(i64 %16) #17, !dbg !2875
  %17 = bitcast i8* %call to i64*, !dbg !2875
  store i64 %conv, i64* %17, align 16, !dbg !2875
  %18 = getelementptr inbounds i8, i8* %call, i64 8, !dbg !2875
  %19 = bitcast i8* %18 to %"class.cDynamicExpression::Elem"*, !dbg !2875
  %isempty = icmp eq i64 %conv, 0, !dbg !2875
  br i1 %isempty, label %arrayctor.cont, label %new.ctorloop, !dbg !2875

new.ctorloop:                                     ; preds = %delete.end3
  %arrayctor.end = getelementptr inbounds %"class.cDynamicExpression::Elem", %"class.cDynamicExpression::Elem"* %19, i64 %conv, !dbg !2875
  br label %arrayctor.loop, !dbg !2875

arrayctor.loop:                                   ; preds = %invoke.cont, %new.ctorloop
  %arrayctor.cur = phi %"class.cDynamicExpression::Elem"* [ %19, %new.ctorloop ], [ %arrayctor.next, %invoke.cont ], !dbg !2875
  invoke void @_ZN18cDynamicExpression4ElemC2Ev(%"class.cDynamicExpression::Elem"* %arrayctor.cur)
          to label %invoke.cont unwind label %lpad, !dbg !2875

invoke.cont:                                      ; preds = %arrayctor.loop
  %arrayctor.next = getelementptr inbounds %"class.cDynamicExpression::Elem", %"class.cDynamicExpression::Elem"* %arrayctor.cur, i64 1, !dbg !2875
  %arrayctor.done = icmp eq %"class.cDynamicExpression::Elem"* %arrayctor.next, %arrayctor.end, !dbg !2875
  br i1 %arrayctor.done, label %arrayctor.cont, label %arrayctor.loop, !dbg !2875

arrayctor.cont:                                   ; preds = %delete.end3, %invoke.cont
  %elems12 = getelementptr inbounds %class.cDynamicExpression, %class.cDynamicExpression* %this1, i32 0, i32 1, !dbg !2876
  store %"class.cDynamicExpression::Elem"* %19, %"class.cDynamicExpression::Elem"** %elems12, align 8, !dbg !2877
  call void @llvm.dbg.declare(metadata i32* %i, metadata !2878, metadata !DIExpression()), !dbg !2880
  store i32 0, i32* %i, align 4, !dbg !2880
  br label %for.cond, !dbg !2881

for.cond:                                         ; preds = %for.inc, %arrayctor.cont
  %20 = load i32, i32* %i, align 4, !dbg !2882
  %size13 = getelementptr inbounds %class.cDynamicExpression, %class.cDynamicExpression* %this1, i32 0, i32 2, !dbg !2884
  %21 = load i32, i32* %size13, align 8, !dbg !2884
  %cmp14 = icmp slt i32 %20, %21, !dbg !2885
  br i1 %cmp14, label %for.body, label %for.end, !dbg !2886

for.body:                                         ; preds = %for.cond
  %22 = load %class.cDynamicExpression*, %class.cDynamicExpression** %other.addr, align 8, !dbg !2887
  %elems15 = getelementptr inbounds %class.cDynamicExpression, %class.cDynamicExpression* %22, i32 0, i32 1, !dbg !2888
  %23 = load %"class.cDynamicExpression::Elem"*, %"class.cDynamicExpression::Elem"** %elems15, align 8, !dbg !2888
  %24 = load i32, i32* %i, align 4, !dbg !2889
  %idxprom = sext i32 %24 to i64, !dbg !2887
  %arrayidx = getelementptr inbounds %"class.cDynamicExpression::Elem", %"class.cDynamicExpression::Elem"* %23, i64 %idxprom, !dbg !2887
  %elems16 = getelementptr inbounds %class.cDynamicExpression, %class.cDynamicExpression* %this1, i32 0, i32 1, !dbg !2890
  %25 = load %"class.cDynamicExpression::Elem"*, %"class.cDynamicExpression::Elem"** %elems16, align 8, !dbg !2890
  %26 = load i32, i32* %i, align 4, !dbg !2891
  %idxprom17 = sext i32 %26 to i64, !dbg !2890
  %arrayidx18 = getelementptr inbounds %"class.cDynamicExpression::Elem", %"class.cDynamicExpression::Elem"* %25, i64 %idxprom17, !dbg !2890
  call void @_ZN18cDynamicExpression4ElemaSERKS0_(%"class.cDynamicExpression::Elem"* %arrayidx18, %"class.cDynamicExpression::Elem"* dereferenceable(24) %arrayidx), !dbg !2892
  br label %for.inc, !dbg !2890

for.inc:                                          ; preds = %for.body
  %27 = load i32, i32* %i, align 4, !dbg !2893
  %inc = add nsw i32 %27, 1, !dbg !2893
  store i32 %inc, i32* %i, align 4, !dbg !2893
  br label %for.cond, !dbg !2894, !llvm.loop !2895

lpad:                                             ; preds = %arrayctor.loop
  %28 = landingpad { i8*, i32 }
          cleanup, !dbg !2897
  %29 = extractvalue { i8*, i32 } %28, 0, !dbg !2897
  store i8* %29, i8** %exn.slot, align 8, !dbg !2897
  %30 = extractvalue { i8*, i32 } %28, 1, !dbg !2897
  store i32 %30, i32* %ehselector.slot, align 4, !dbg !2897
  %arraydestroy.isempty6 = icmp eq %"class.cDynamicExpression::Elem"* %19, %arrayctor.cur, !dbg !2875
  br i1 %arraydestroy.isempty6, label %arraydestroy.done11, label %arraydestroy.body7, !dbg !2875

arraydestroy.body7:                               ; preds = %arraydestroy.body7, %lpad
  %arraydestroy.elementPast8 = phi %"class.cDynamicExpression::Elem"* [ %arrayctor.cur, %lpad ], [ %arraydestroy.element9, %arraydestroy.body7 ], !dbg !2875
  %arraydestroy.element9 = getelementptr inbounds %"class.cDynamicExpression::Elem", %"class.cDynamicExpression::Elem"* %arraydestroy.elementPast8, i64 -1, !dbg !2875
  call void @_ZN18cDynamicExpression4ElemD1Ev(%"class.cDynamicExpression::Elem"* %arraydestroy.element9) #3, !dbg !2875
  %arraydestroy.done10 = icmp eq %"class.cDynamicExpression::Elem"* %arraydestroy.element9, %19, !dbg !2875
  br i1 %arraydestroy.done10, label %arraydestroy.done11, label %arraydestroy.body7, !dbg !2875

arraydestroy.done11:                              ; preds = %arraydestroy.body7, %lpad
  call void @_ZdaPv(i8* %call) #16, !dbg !2875
  br label %eh.resume, !dbg !2875

for.end:                                          ; preds = %for.cond
  store %class.cDynamicExpression* %this1, %class.cDynamicExpression** %retval, align 8, !dbg !2898
  br label %return, !dbg !2898

return:                                           ; preds = %for.end, %if.then
  %31 = load %class.cDynamicExpression*, %class.cDynamicExpression** %retval, align 8, !dbg !2897
  ret %class.cDynamicExpression* %31, !dbg !2897

eh.resume:                                        ; preds = %arraydestroy.done11
  %exn = load i8*, i8** %exn.slot, align 8, !dbg !2875
  %sel = load i32, i32* %ehselector.slot, align 4, !dbg !2875
  %lpad.val = insertvalue { i8*, i32 } undef, i8* %exn, 0, !dbg !2875
  %lpad.val19 = insertvalue { i8*, i32 } %lpad.val, i32 %sel, 1, !dbg !2875
  resume { i8*, i32 } %lpad.val19, !dbg !2875
}

; Function Attrs: nounwind readnone speculatable willreturn
declare { i64, i1 } @llvm.umul.with.overflow.i64(i64, i64) #4

; Function Attrs: nounwind readnone speculatable willreturn
declare { i64, i1 } @llvm.uadd.with.overflow.i64(i64, i64) #4

; Function Attrs: nobuiltin
declare dso_local noalias i8* @_Znam(i64) #9

; Function Attrs: noinline nounwind uwtable
define linkonce_odr dso_local void @_ZN18cDynamicExpression4ElemC2Ev(%"class.cDynamicExpression::Elem"* %this) unnamed_addr #6 comdat align 2 !dbg !2899 {
entry:
  %this.addr = alloca %"class.cDynamicExpression::Elem"*, align 8
  store %"class.cDynamicExpression::Elem"* %this, %"class.cDynamicExpression::Elem"** %this.addr, align 8
  call void @llvm.dbg.declare(metadata %"class.cDynamicExpression::Elem"** %this.addr, metadata !2900, metadata !DIExpression()), !dbg !2901
  %this1 = load %"class.cDynamicExpression::Elem"*, %"class.cDynamicExpression::Elem"** %this.addr, align 8
  %type = getelementptr inbounds %"class.cDynamicExpression::Elem", %"class.cDynamicExpression::Elem"* %this1, i32 0, i32 0, !dbg !2902
  store i32 0, i32* %type, align 8, !dbg !2904
  ret void, !dbg !2905
}

; Function Attrs: noinline uwtable
define dso_local void @_ZNK18cDynamicExpression4infoB5cxx11Ev(%"class.std::__cxx11::basic_string"* noalias sret %agg.result, %class.cDynamicExpression* %this) unnamed_addr #0 align 2 !dbg !2906 {
entry:
  %result.ptr = alloca i8*, align 8
  %this.addr = alloca %class.cDynamicExpression*, align 8
  %0 = bitcast %"class.std::__cxx11::basic_string"* %agg.result to i8*
  store i8* %0, i8** %result.ptr, align 8
  store %class.cDynamicExpression* %this, %class.cDynamicExpression** %this.addr, align 8
  call void @llvm.dbg.declare(metadata %class.cDynamicExpression** %this.addr, metadata !2907, metadata !DIExpression()), !dbg !2908
  %this1 = load %class.cDynamicExpression*, %class.cDynamicExpression** %this.addr, align 8
  %1 = bitcast %class.cDynamicExpression* %this1 to void (%"class.std::__cxx11::basic_string"*, %class.cDynamicExpression*)***, !dbg !2909
  %vtable = load void (%"class.std::__cxx11::basic_string"*, %class.cDynamicExpression*)**, void (%"class.std::__cxx11::basic_string"*, %class.cDynamicExpression*)*** %1, align 8, !dbg !2909
  %vfn = getelementptr inbounds void (%"class.std::__cxx11::basic_string"*, %class.cDynamicExpression*)*, void (%"class.std::__cxx11::basic_string"*, %class.cDynamicExpression*)** %vtable, i64 24, !dbg !2909
  %2 = load void (%"class.std::__cxx11::basic_string"*, %class.cDynamicExpression*)*, void (%"class.std::__cxx11::basic_string"*, %class.cDynamicExpression*)** %vfn, align 8, !dbg !2909
  call void %2(%"class.std::__cxx11::basic_string"* sret %agg.result, %class.cDynamicExpression* %this1), !dbg !2909
  ret void, !dbg !2910
}

; Function Attrs: noinline nounwind uwtable
define dso_local void @_ZN18cDynamicExpression13setExpressionEPNS_4ElemEi(%class.cDynamicExpression* %this, %"class.cDynamicExpression::Elem"* %e, i32 %n) unnamed_addr #6 align 2 !dbg !2911 {
entry:
  %this.addr = alloca %class.cDynamicExpression*, align 8
  %e.addr = alloca %"class.cDynamicExpression::Elem"*, align 8
  %n.addr = alloca i32, align 4
  store %class.cDynamicExpression* %this, %class.cDynamicExpression** %this.addr, align 8
  call void @llvm.dbg.declare(metadata %class.cDynamicExpression** %this.addr, metadata !2912, metadata !DIExpression()), !dbg !2913
  store %"class.cDynamicExpression::Elem"* %e, %"class.cDynamicExpression::Elem"** %e.addr, align 8
  call void @llvm.dbg.declare(metadata %"class.cDynamicExpression::Elem"** %e.addr, metadata !2914, metadata !DIExpression()), !dbg !2915
  store i32 %n, i32* %n.addr, align 4
  call void @llvm.dbg.declare(metadata i32* %n.addr, metadata !2916, metadata !DIExpression()), !dbg !2917
  %this1 = load %class.cDynamicExpression*, %class.cDynamicExpression** %this.addr, align 8
  %elems = getelementptr inbounds %class.cDynamicExpression, %class.cDynamicExpression* %this1, i32 0, i32 1, !dbg !2918
  %0 = load %"class.cDynamicExpression::Elem"*, %"class.cDynamicExpression::Elem"** %elems, align 8, !dbg !2918
  %isnull = icmp eq %"class.cDynamicExpression::Elem"* %0, null, !dbg !2919
  br i1 %isnull, label %delete.end3, label %delete.notnull, !dbg !2919

delete.notnull:                                   ; preds = %entry
  %1 = bitcast %"class.cDynamicExpression::Elem"* %0 to i8*, !dbg !2919
  %2 = getelementptr inbounds i8, i8* %1, i64 -8, !dbg !2919
  %3 = bitcast i8* %2 to i64*, !dbg !2919
  %4 = load i64, i64* %3, align 8, !dbg !2919
  %delete.end = getelementptr inbounds %"class.cDynamicExpression::Elem", %"class.cDynamicExpression::Elem"* %0, i64 %4, !dbg !2919
  %arraydestroy.isempty = icmp eq %"class.cDynamicExpression::Elem"* %0, %delete.end, !dbg !2919
  br i1 %arraydestroy.isempty, label %arraydestroy.done2, label %arraydestroy.body, !dbg !2919

arraydestroy.body:                                ; preds = %arraydestroy.body, %delete.notnull
  %arraydestroy.elementPast = phi %"class.cDynamicExpression::Elem"* [ %delete.end, %delete.notnull ], [ %arraydestroy.element, %arraydestroy.body ], !dbg !2919
  %arraydestroy.element = getelementptr inbounds %"class.cDynamicExpression::Elem", %"class.cDynamicExpression::Elem"* %arraydestroy.elementPast, i64 -1, !dbg !2919
  call void @_ZN18cDynamicExpression4ElemD1Ev(%"class.cDynamicExpression::Elem"* %arraydestroy.element) #3, !dbg !2919
  %arraydestroy.done = icmp eq %"class.cDynamicExpression::Elem"* %arraydestroy.element, %0, !dbg !2919
  br i1 %arraydestroy.done, label %arraydestroy.done2, label %arraydestroy.body, !dbg !2919

arraydestroy.done2:                               ; preds = %arraydestroy.body, %delete.notnull
  call void @_ZdaPv(i8* %2) #16, !dbg !2919
  br label %delete.end3, !dbg !2919

delete.end3:                                      ; preds = %arraydestroy.done2, %entry
  %5 = load %"class.cDynamicExpression::Elem"*, %"class.cDynamicExpression::Elem"** %e.addr, align 8, !dbg !2920
  %elems4 = getelementptr inbounds %class.cDynamicExpression, %class.cDynamicExpression* %this1, i32 0, i32 1, !dbg !2921
  store %"class.cDynamicExpression::Elem"* %5, %"class.cDynamicExpression::Elem"** %elems4, align 8, !dbg !2922
  %6 = load i32, i32* %n.addr, align 4, !dbg !2923
  %size = getelementptr inbounds %class.cDynamicExpression, %class.cDynamicExpression* %this1, i32 0, i32 2, !dbg !2924
  store i32 %6, i32* %size, align 8, !dbg !2925
  ret void, !dbg !2926
}

; Function Attrs: noinline uwtable
define dso_local void @_ZN18cDynamicExpression5parseEPKc(%class.cDynamicExpression* %this, i8* %text) unnamed_addr #0 align 2 !dbg !2927 {
entry:
  %this.addr = alloca %class.cDynamicExpression*, align 8
  %text.addr = alloca i8*, align 8
  store %class.cDynamicExpression* %this, %class.cDynamicExpression** %this.addr, align 8
  call void @llvm.dbg.declare(metadata %class.cDynamicExpression** %this.addr, metadata !2928, metadata !DIExpression()), !dbg !2929
  store i8* %text, i8** %text.addr, align 8
  call void @llvm.dbg.declare(metadata i8** %text.addr, metadata !2930, metadata !DIExpression()), !dbg !2931
  %this1 = load %class.cDynamicExpression*, %class.cDynamicExpression** %this.addr, align 8
  %0 = load i8*, i8** %text.addr, align 8, !dbg !2932
  %elems = getelementptr inbounds %class.cDynamicExpression, %class.cDynamicExpression* %this1, i32 0, i32 1, !dbg !2933
  %size = getelementptr inbounds %class.cDynamicExpression, %class.cDynamicExpression* %this1, i32 0, i32 2, !dbg !2934
  call void @_Z17doParseExpressionPKcRPN18cDynamicExpression4ElemERi(i8* %0, %"class.cDynamicExpression::Elem"** dereferenceable(8) %elems, i32* dereferenceable(4) %size), !dbg !2935
  ret void, !dbg !2936
}

declare dso_local void @_Z17doParseExpressionPKcRPN18cDynamicExpression4ElemERi(i8*, %"class.cDynamicExpression::Elem"** dereferenceable(8), i32* dereferenceable(4)) #1

; Function Attrs: noinline uwtable
define dso_local i32 @_ZNK18cDynamicExpression7compareEPK11cExpression(%class.cDynamicExpression* %this, %class.cExpression* %other) unnamed_addr #0 align 2 !dbg !2937 {
entry:
  %retval = alloca i32, align 4
  %this.addr = alloca %class.cDynamicExpression*, align 8
  %other.addr = alloca %class.cExpression*, align 8
  %o = alloca %class.cDynamicExpression*, align 8
  %i = alloca i32, align 4
  %c = alloca i32, align 4
  store %class.cDynamicExpression* %this, %class.cDynamicExpression** %this.addr, align 8
  call void @llvm.dbg.declare(metadata %class.cDynamicExpression** %this.addr, metadata !2938, metadata !DIExpression()), !dbg !2939
  store %class.cExpression* %other, %class.cExpression** %other.addr, align 8
  call void @llvm.dbg.declare(metadata %class.cExpression** %other.addr, metadata !2940, metadata !DIExpression()), !dbg !2941
  %this1 = load %class.cDynamicExpression*, %class.cDynamicExpression** %this.addr, align 8
  call void @llvm.dbg.declare(metadata %class.cDynamicExpression** %o, metadata !2942, metadata !DIExpression()), !dbg !2943
  %0 = load %class.cExpression*, %class.cExpression** %other.addr, align 8, !dbg !2944
  %1 = icmp eq %class.cExpression* %0, null, !dbg !2945
  br i1 %1, label %dynamic_cast.null, label %dynamic_cast.notnull, !dbg !2945

dynamic_cast.notnull:                             ; preds = %entry
  %2 = bitcast %class.cExpression* %0 to i8*, !dbg !2945
  %3 = call i8* @__dynamic_cast(i8* %2, i8* bitcast ({ i8*, i8*, i8* }* @_ZTI11cExpression to i8*), i8* bitcast ({ i8*, i8*, i8* }* @_ZTI18cDynamicExpression to i8*), i64 0) #3, !dbg !2945
  %4 = bitcast i8* %3 to %class.cDynamicExpression*, !dbg !2945
  br label %dynamic_cast.end, !dbg !2945

dynamic_cast.null:                                ; preds = %entry
  br label %dynamic_cast.end, !dbg !2945

dynamic_cast.end:                                 ; preds = %dynamic_cast.null, %dynamic_cast.notnull
  %5 = phi %class.cDynamicExpression* [ %4, %dynamic_cast.notnull ], [ null, %dynamic_cast.null ], !dbg !2945
  store %class.cDynamicExpression* %5, %class.cDynamicExpression** %o, align 8, !dbg !2943
  %6 = load %class.cDynamicExpression*, %class.cDynamicExpression** %o, align 8, !dbg !2946
  %tobool = icmp ne %class.cDynamicExpression* %6, null, !dbg !2946
  br i1 %tobool, label %if.end, label %if.then, !dbg !2948

if.then:                                          ; preds = %dynamic_cast.end
  store i32 1, i32* %retval, align 4, !dbg !2949
  br label %return, !dbg !2949

if.end:                                           ; preds = %dynamic_cast.end
  %size = getelementptr inbounds %class.cDynamicExpression, %class.cDynamicExpression* %this1, i32 0, i32 2, !dbg !2950
  %7 = load i32, i32* %size, align 8, !dbg !2950
  %8 = load %class.cDynamicExpression*, %class.cDynamicExpression** %o, align 8, !dbg !2952
  %size2 = getelementptr inbounds %class.cDynamicExpression, %class.cDynamicExpression* %8, i32 0, i32 2, !dbg !2953
  %9 = load i32, i32* %size2, align 8, !dbg !2953
  %cmp = icmp ne i32 %7, %9, !dbg !2954
  br i1 %cmp, label %if.then3, label %if.end6, !dbg !2955

if.then3:                                         ; preds = %if.end
  %10 = load %class.cDynamicExpression*, %class.cDynamicExpression** %o, align 8, !dbg !2956
  %size4 = getelementptr inbounds %class.cDynamicExpression, %class.cDynamicExpression* %10, i32 0, i32 2, !dbg !2957
  %11 = load i32, i32* %size4, align 8, !dbg !2957
  %size5 = getelementptr inbounds %class.cDynamicExpression, %class.cDynamicExpression* %this1, i32 0, i32 2, !dbg !2958
  %12 = load i32, i32* %size5, align 8, !dbg !2958
  %sub = sub nsw i32 %11, %12, !dbg !2959
  store i32 %sub, i32* %retval, align 4, !dbg !2960
  br label %return, !dbg !2960

if.end6:                                          ; preds = %if.end
  call void @llvm.dbg.declare(metadata i32* %i, metadata !2961, metadata !DIExpression()), !dbg !2963
  store i32 0, i32* %i, align 4, !dbg !2963
  br label %for.cond, !dbg !2964

for.cond:                                         ; preds = %for.inc, %if.end6
  %13 = load i32, i32* %i, align 4, !dbg !2965
  %size7 = getelementptr inbounds %class.cDynamicExpression, %class.cDynamicExpression* %this1, i32 0, i32 2, !dbg !2967
  %14 = load i32, i32* %size7, align 8, !dbg !2967
  %cmp8 = icmp slt i32 %13, %14, !dbg !2968
  br i1 %cmp8, label %for.body, label %for.end, !dbg !2969

for.body:                                         ; preds = %for.cond
  call void @llvm.dbg.declare(metadata i32* %c, metadata !2970, metadata !DIExpression()), !dbg !2972
  %elems = getelementptr inbounds %class.cDynamicExpression, %class.cDynamicExpression* %this1, i32 0, i32 1, !dbg !2973
  %15 = load %"class.cDynamicExpression::Elem"*, %"class.cDynamicExpression::Elem"** %elems, align 8, !dbg !2973
  %16 = load i32, i32* %i, align 4, !dbg !2974
  %idxprom = sext i32 %16 to i64, !dbg !2973
  %arrayidx = getelementptr inbounds %"class.cDynamicExpression::Elem", %"class.cDynamicExpression::Elem"* %15, i64 %idxprom, !dbg !2973
  %17 = load %class.cDynamicExpression*, %class.cDynamicExpression** %o, align 8, !dbg !2975
  %elems9 = getelementptr inbounds %class.cDynamicExpression, %class.cDynamicExpression* %17, i32 0, i32 1, !dbg !2976
  %18 = load %"class.cDynamicExpression::Elem"*, %"class.cDynamicExpression::Elem"** %elems9, align 8, !dbg !2976
  %19 = load i32, i32* %i, align 4, !dbg !2977
  %idxprom10 = sext i32 %19 to i64, !dbg !2975
  %arrayidx11 = getelementptr inbounds %"class.cDynamicExpression::Elem", %"class.cDynamicExpression::Elem"* %18, i64 %idxprom10, !dbg !2975
  %call = call i32 @_ZNK18cDynamicExpression4Elem7compareERKS0_(%"class.cDynamicExpression::Elem"* %arrayidx, %"class.cDynamicExpression::Elem"* dereferenceable(24) %arrayidx11), !dbg !2978
  store i32 %call, i32* %c, align 4, !dbg !2972
  %20 = load i32, i32* %c, align 4, !dbg !2979
  %cmp12 = icmp ne i32 %20, 0, !dbg !2981
  br i1 %cmp12, label %if.then13, label %if.end14, !dbg !2982

if.then13:                                        ; preds = %for.body
  %21 = load i32, i32* %c, align 4, !dbg !2983
  store i32 %21, i32* %retval, align 4, !dbg !2984
  br label %return, !dbg !2984

if.end14:                                         ; preds = %for.body
  br label %for.inc, !dbg !2985

for.inc:                                          ; preds = %if.end14
  %22 = load i32, i32* %i, align 4, !dbg !2986
  %inc = add nsw i32 %22, 1, !dbg !2986
  store i32 %inc, i32* %i, align 4, !dbg !2986
  br label %for.cond, !dbg !2987, !llvm.loop !2988

for.end:                                          ; preds = %for.cond
  store i32 0, i32* %retval, align 4, !dbg !2990
  br label %return, !dbg !2990

return:                                           ; preds = %for.end, %if.then13, %if.then3, %if.then
  %23 = load i32, i32* %retval, align 4, !dbg !2991
  ret i32 %23, !dbg !2991
}

; Function Attrs: nounwind readonly
declare dso_local i8* @__dynamic_cast(i8*, i8*, i8*, i64) #10

; Function Attrs: noinline uwtable
define dso_local double @_ZN18cDynamicExpression11convertUnitEdPKcS1_(double %d, i8* %unit, i8* %targetUnit) #0 align 2 !dbg !2992 {
entry:
  %d.addr = alloca double, align 8
  %unit.addr = alloca i8*, align 8
  %targetUnit.addr = alloca i8*, align 8
  store double %d, double* %d.addr, align 8
  call void @llvm.dbg.declare(metadata double* %d.addr, metadata !2993, metadata !DIExpression()), !dbg !2994
  store i8* %unit, i8** %unit.addr, align 8
  call void @llvm.dbg.declare(metadata i8** %unit.addr, metadata !2995, metadata !DIExpression()), !dbg !2996
  store i8* %targetUnit, i8** %targetUnit.addr, align 8
  call void @llvm.dbg.declare(metadata i8** %targetUnit.addr, metadata !2997, metadata !DIExpression()), !dbg !2998
  %0 = load double, double* %d.addr, align 8, !dbg !2999
  %1 = load i8*, i8** %unit.addr, align 8, !dbg !3000
  %2 = load i8*, i8** %targetUnit.addr, align 8, !dbg !3001
  %call = call double @_ZN14UnitConversion11convertUnitEdPKcS1_(double %0, i8* %1, i8* %2), !dbg !3002
  ret double %call, !dbg !3003
}

declare dso_local double @_ZN14UnitConversion11convertUnitEdPKcS1_(double, i8*, i8*) #1

; Function Attrs: noinline nounwind uwtable
define dso_local zeroext i1 @_ZNK18cDynamicExpression11isAConstantEv(%class.cDynamicExpression* %this) unnamed_addr #6 align 2 !dbg !3004 {
entry:
  %retval = alloca i1, align 1
  %this.addr = alloca %class.cDynamicExpression*, align 8
  %i = alloca i32, align 4
  store %class.cDynamicExpression* %this, %class.cDynamicExpression** %this.addr, align 8
  call void @llvm.dbg.declare(metadata %class.cDynamicExpression** %this.addr, metadata !3005, metadata !DIExpression()), !dbg !3006
  %this1 = load %class.cDynamicExpression*, %class.cDynamicExpression** %this.addr, align 8
  call void @llvm.dbg.declare(metadata i32* %i, metadata !3007, metadata !DIExpression()), !dbg !3009
  store i32 0, i32* %i, align 4, !dbg !3009
  br label %for.cond, !dbg !3010

for.cond:                                         ; preds = %for.inc, %entry
  %0 = load i32, i32* %i, align 4, !dbg !3011
  %size = getelementptr inbounds %class.cDynamicExpression, %class.cDynamicExpression* %this1, i32 0, i32 2, !dbg !3013
  %1 = load i32, i32* %size, align 8, !dbg !3013
  %cmp = icmp slt i32 %0, %1, !dbg !3014
  br i1 %cmp, label %for.body, label %for.end, !dbg !3015

for.body:                                         ; preds = %for.cond
  %elems = getelementptr inbounds %class.cDynamicExpression, %class.cDynamicExpression* %this1, i32 0, i32 1, !dbg !3016
  %2 = load %"class.cDynamicExpression::Elem"*, %"class.cDynamicExpression::Elem"** %elems, align 8, !dbg !3016
  %3 = load i32, i32* %i, align 4, !dbg !3018
  %idxprom = sext i32 %3 to i64, !dbg !3016
  %arrayidx = getelementptr inbounds %"class.cDynamicExpression::Elem", %"class.cDynamicExpression::Elem"* %2, i64 %idxprom, !dbg !3016
  %type = getelementptr inbounds %"class.cDynamicExpression::Elem", %"class.cDynamicExpression::Elem"* %arrayidx, i32 0, i32 0, !dbg !3019
  %4 = load i32, i32* %type, align 8, !dbg !3019
  switch i32 %4, label %sw.default [
    i32 1, label %sw.bb
    i32 2, label %sw.bb
    i32 3, label %sw.bb
    i32 4, label %sw.bb
    i32 8, label %sw.bb
  ], !dbg !3020

sw.bb:                                            ; preds = %for.body, %for.body, %for.body, %for.body, %for.body
  br label %for.inc, !dbg !3021

sw.default:                                       ; preds = %for.body
  store i1 false, i1* %retval, align 1, !dbg !3023
  br label %return, !dbg !3023

for.inc:                                          ; preds = %sw.bb
  %5 = load i32, i32* %i, align 4, !dbg !3024
  %inc = add nsw i32 %5, 1, !dbg !3024
  store i32 %inc, i32* %i, align 4, !dbg !3024
  br label %for.cond, !dbg !3025, !llvm.loop !3026

for.end:                                          ; preds = %for.cond
  store i1 true, i1* %retval, align 1, !dbg !3028
  br label %return, !dbg !3028

return:                                           ; preds = %for.end, %sw.default
  %6 = load i1, i1* %retval, align 1, !dbg !3029
  ret i1 %6, !dbg !3029
}

; Function Attrs: noinline nounwind uwtable
define dso_local zeroext i1 @_ZNK18cDynamicExpression27containsConstSubexpressionsEv(%class.cDynamicExpression* %this) unnamed_addr #6 align 2 !dbg !3030 {
entry:
  %retval = alloca i1, align 1
  %this.addr = alloca %class.cDynamicExpression*, align 8
  %i = alloca i32, align 4
  store %class.cDynamicExpression* %this, %class.cDynamicExpression** %this.addr, align 8
  call void @llvm.dbg.declare(metadata %class.cDynamicExpression** %this.addr, metadata !3031, metadata !DIExpression()), !dbg !3032
  %this1 = load %class.cDynamicExpression*, %class.cDynamicExpression** %this.addr, align 8
  call void @llvm.dbg.declare(metadata i32* %i, metadata !3033, metadata !DIExpression()), !dbg !3035
  store i32 0, i32* %i, align 4, !dbg !3035
  br label %for.cond, !dbg !3036

for.cond:                                         ; preds = %for.inc, %entry
  %0 = load i32, i32* %i, align 4, !dbg !3037
  %size = getelementptr inbounds %class.cDynamicExpression, %class.cDynamicExpression* %this1, i32 0, i32 2, !dbg !3039
  %1 = load i32, i32* %size, align 8, !dbg !3039
  %cmp = icmp slt i32 %0, %1, !dbg !3040
  br i1 %cmp, label %for.body, label %for.end, !dbg !3041

for.body:                                         ; preds = %for.cond
  %elems = getelementptr inbounds %class.cDynamicExpression, %class.cDynamicExpression* %this1, i32 0, i32 1, !dbg !3042
  %2 = load %"class.cDynamicExpression::Elem"*, %"class.cDynamicExpression::Elem"** %elems, align 8, !dbg !3042
  %3 = load i32, i32* %i, align 4, !dbg !3044
  %idxprom = sext i32 %3 to i64, !dbg !3042
  %arrayidx = getelementptr inbounds %"class.cDynamicExpression::Elem", %"class.cDynamicExpression::Elem"* %2, i64 %idxprom, !dbg !3042
  %type = getelementptr inbounds %"class.cDynamicExpression::Elem", %"class.cDynamicExpression::Elem"* %arrayidx, i32 0, i32 0, !dbg !3045
  %4 = load i32, i32* %type, align 8, !dbg !3045
  %cmp2 = icmp eq i32 %4, 9, !dbg !3046
  br i1 %cmp2, label %if.then, label %if.end, !dbg !3047

if.then:                                          ; preds = %for.body
  store i1 true, i1* %retval, align 1, !dbg !3048
  br label %return, !dbg !3048

if.end:                                           ; preds = %for.body
  br label %for.inc, !dbg !3049

for.inc:                                          ; preds = %if.end
  %5 = load i32, i32* %i, align 4, !dbg !3050
  %inc = add nsw i32 %5, 1, !dbg !3050
  store i32 %inc, i32* %i, align 4, !dbg !3050
  br label %for.cond, !dbg !3051, !llvm.loop !3052

for.end:                                          ; preds = %for.cond
  store i1 false, i1* %retval, align 1, !dbg !3054
  br label %return, !dbg !3054

return:                                           ; preds = %for.end, %if.then
  %6 = load i1, i1* %retval, align 1, !dbg !3055
  ret i1 %6, !dbg !3055
}

; Function Attrs: noinline uwtable
define dso_local void @_ZN18cDynamicExpression27evaluateConstSubexpressionsEP10cComponent(%class.cDynamicExpression* %this, %class.cComponent* %context) unnamed_addr #0 align 2 personality i8* bitcast (i32 (...)* @__gxx_personality_v0 to i8*) !dbg !3056 {
entry:
  %this.addr = alloca %class.cDynamicExpression*, align 8
  %context.addr = alloca %class.cComponent*, align 8
  %exn.slot = alloca i8*
  %ehselector.slot = alloca i32
  store %class.cDynamicExpression* %this, %class.cDynamicExpression** %this.addr, align 8
  call void @llvm.dbg.declare(metadata %class.cDynamicExpression** %this.addr, metadata !3057, metadata !DIExpression()), !dbg !3058
  store %class.cComponent* %context, %class.cComponent** %context.addr, align 8
  call void @llvm.dbg.declare(metadata %class.cComponent** %context.addr, metadata !3059, metadata !DIExpression()), !dbg !3060
  %this1 = load %class.cDynamicExpression*, %class.cDynamicExpression** %this.addr, align 8
  %exception = call i8* @__cxa_allocate_exception(i64 128) #3, !dbg !3061
  %0 = bitcast i8* %exception to %class.cRuntimeError*, !dbg !3061
  %1 = bitcast %class.cDynamicExpression* %this1 to %class.cObject*, !dbg !3062
  invoke void (%class.cRuntimeError*, %class.cObject*, i8*, ...) @_ZN13cRuntimeErrorC1EPK7cObjectPKcz(%class.cRuntimeError* %0, %class.cObject* %1, i8* getelementptr inbounds ([41 x i8], [41 x i8]* @.str.8, i64 0, i64 0))
          to label %invoke.cont unwind label %lpad, !dbg !3063

invoke.cont:                                      ; preds = %entry
  call void @__cxa_throw(i8* %exception, i8* bitcast ({ i8*, i8*, i8* }* @_ZTI13cRuntimeError to i8*), i8* bitcast (void (%class.cRuntimeError*)* @_ZN13cRuntimeErrorD2Ev to i8*)) #15, !dbg !3061
  unreachable, !dbg !3061

lpad:                                             ; preds = %entry
  %2 = landingpad { i8*, i32 }
          cleanup, !dbg !3064
  %3 = extractvalue { i8*, i32 } %2, 0, !dbg !3064
  store i8* %3, i8** %exn.slot, align 8, !dbg !3064
  %4 = extractvalue { i8*, i32 } %2, 1, !dbg !3064
  store i32 %4, i32* %ehselector.slot, align 4, !dbg !3064
  call void @__cxa_free_exception(i8* %exception) #3, !dbg !3061
  br label %eh.resume, !dbg !3061

eh.resume:                                        ; preds = %lpad
  %exn = load i8*, i8** %exn.slot, align 8, !dbg !3061
  %sel = load i32, i32* %ehselector.slot, align 4, !dbg !3061
  %lpad.val = insertvalue { i8*, i32 } undef, i8* %exn, 0, !dbg !3061
  %lpad.val2 = insertvalue { i8*, i32 } %lpad.val, i32 %sel, 1, !dbg !3061
  resume { i8*, i32 } %lpad.val2, !dbg !3061
}

declare dso_local void @_ZN13cRuntimeErrorC1EPK7cObjectPKcz(%class.cRuntimeError*, %class.cObject*, i8*, ...) unnamed_addr #1

; Function Attrs: noinline uwtable
define dso_local zeroext i1 @_ZN18cDynamicExpression9boolValueEP10cComponent(%class.cDynamicExpression* %this, %class.cComponent* %context) unnamed_addr #0 align 2 personality i8* bitcast (i32 (...)* @__gxx_personality_v0 to i8*) !dbg !3065 {
entry:
  %this.addr = alloca %class.cDynamicExpression*, align 8
  %context.addr = alloca %class.cComponent*, align 8
  %v = alloca %"struct.cDynamicExpression::Value", align 8
  %exn.slot = alloca i8*
  %ehselector.slot = alloca i32
  store %class.cDynamicExpression* %this, %class.cDynamicExpression** %this.addr, align 8
  call void @llvm.dbg.declare(metadata %class.cDynamicExpression** %this.addr, metadata !3066, metadata !DIExpression()), !dbg !3067
  store %class.cComponent* %context, %class.cComponent** %context.addr, align 8
  call void @llvm.dbg.declare(metadata %class.cComponent** %context.addr, metadata !3068, metadata !DIExpression()), !dbg !3069
  %this1 = load %class.cDynamicExpression*, %class.cDynamicExpression** %this.addr, align 8
  call void @llvm.dbg.declare(metadata %"struct.cDynamicExpression::Value"* %v, metadata !3070, metadata !DIExpression()), !dbg !3071
  %0 = load %class.cComponent*, %class.cComponent** %context.addr, align 8, !dbg !3072
  %1 = bitcast %class.cDynamicExpression* %this1 to void (%"struct.cDynamicExpression::Value"*, %class.cDynamicExpression*, %class.cComponent*)***, !dbg !3073
  %vtable = load void (%"struct.cDynamicExpression::Value"*, %class.cDynamicExpression*, %class.cComponent*)**, void (%"struct.cDynamicExpression::Value"*, %class.cDynamicExpression*, %class.cComponent*)*** %1, align 8, !dbg !3073
  %vfn = getelementptr inbounds void (%"struct.cDynamicExpression::Value"*, %class.cDynamicExpression*, %class.cComponent*)*, void (%"struct.cDynamicExpression::Value"*, %class.cDynamicExpression*, %class.cComponent*)** %vtable, i64 30, !dbg !3073
  %2 = load void (%"struct.cDynamicExpression::Value"*, %class.cDynamicExpression*, %class.cComponent*)*, void (%"struct.cDynamicExpression::Value"*, %class.cDynamicExpression*, %class.cComponent*)** %vfn, align 8, !dbg !3073
  call void %2(%"struct.cDynamicExpression::Value"* sret %v, %class.cDynamicExpression* %this1, %class.cComponent* %0), !dbg !3073
  %type = getelementptr inbounds %"struct.cDynamicExpression::Value", %"struct.cDynamicExpression::Value"* %v, i32 0, i32 0, !dbg !3074
  %3 = load i32, i32* %type, align 8, !dbg !3074
  %cmp = icmp ne i32 %3, 66, !dbg !3076
  br i1 %cmp, label %if.then, label %if.end, !dbg !3077

if.then:                                          ; preds = %entry
  %exception = call i8* @__cxa_allocate_exception(i64 128) #3, !dbg !3078
  %4 = bitcast i8* %exception to %class.cRuntimeError*, !dbg !3078
  invoke void (%class.cRuntimeError*, i32, ...) @_ZN13cRuntimeErrorC1E12OppErrorCodez(%class.cRuntimeError* %4, i32 12, i8* getelementptr inbounds ([5 x i8], [5 x i8]* @.str.9, i64 0, i64 0))
          to label %invoke.cont unwind label %lpad, !dbg !3079

invoke.cont:                                      ; preds = %if.then
  invoke void @__cxa_throw(i8* %exception, i8* bitcast ({ i8*, i8*, i8* }* @_ZTI13cRuntimeError to i8*), i8* bitcast (void (%class.cRuntimeError*)* @_ZN13cRuntimeErrorD2Ev to i8*)) #15
          to label %unreachable unwind label %lpad2, !dbg !3078

lpad:                                             ; preds = %if.then
  %5 = landingpad { i8*, i32 }
          cleanup, !dbg !3080
  %6 = extractvalue { i8*, i32 } %5, 0, !dbg !3080
  store i8* %6, i8** %exn.slot, align 8, !dbg !3080
  %7 = extractvalue { i8*, i32 } %5, 1, !dbg !3080
  store i32 %7, i32* %ehselector.slot, align 4, !dbg !3080
  call void @__cxa_free_exception(i8* %exception) #3, !dbg !3078
  br label %ehcleanup, !dbg !3078

lpad2:                                            ; preds = %invoke.cont
  %8 = landingpad { i8*, i32 }
          cleanup, !dbg !3080
  %9 = extractvalue { i8*, i32 } %8, 0, !dbg !3080
  store i8* %9, i8** %exn.slot, align 8, !dbg !3080
  %10 = extractvalue { i8*, i32 } %8, 1, !dbg !3080
  store i32 %10, i32* %ehselector.slot, align 4, !dbg !3080
  br label %ehcleanup, !dbg !3080

if.end:                                           ; preds = %entry
  %bl = getelementptr inbounds %"struct.cDynamicExpression::Value", %"struct.cDynamicExpression::Value"* %v, i32 0, i32 1, !dbg !3081
  %11 = load i8, i8* %bl, align 4, !dbg !3081
  %tobool = trunc i8 %11 to i1, !dbg !3081
  call void @_ZN18cDynamicExpression5ValueD2Ev(%"struct.cDynamicExpression::Value"* %v) #3, !dbg !3082
  ret i1 %tobool, !dbg !3082

ehcleanup:                                        ; preds = %lpad2, %lpad
  call void @_ZN18cDynamicExpression5ValueD2Ev(%"struct.cDynamicExpression::Value"* %v) #3, !dbg !3082
  br label %eh.resume, !dbg !3082

eh.resume:                                        ; preds = %ehcleanup
  %exn = load i8*, i8** %exn.slot, align 8, !dbg !3082
  %sel = load i32, i32* %ehselector.slot, align 4, !dbg !3082
  %lpad.val = insertvalue { i8*, i32 } undef, i8* %exn, 0, !dbg !3082
  %lpad.val3 = insertvalue { i8*, i32 } %lpad.val, i32 %sel, 1, !dbg !3082
  resume { i8*, i32 } %lpad.val3, !dbg !3082

unreachable:                                      ; preds = %invoke.cont
  unreachable
}

declare dso_local void @_ZN13cRuntimeErrorC1E12OppErrorCodez(%class.cRuntimeError*, i32, ...) unnamed_addr #1

; Function Attrs: noinline nounwind uwtable
define linkonce_odr dso_local void @_ZN18cDynamicExpression5ValueD2Ev(%"struct.cDynamicExpression::Value"* %this) unnamed_addr #6 comdat align 2 !dbg !3083 {
entry:
  %this.addr = alloca %"struct.cDynamicExpression::Value"*, align 8
  store %"struct.cDynamicExpression::Value"* %this, %"struct.cDynamicExpression::Value"** %this.addr, align 8
  call void @llvm.dbg.declare(metadata %"struct.cDynamicExpression::Value"** %this.addr, metadata !3085, metadata !DIExpression()), !dbg !3086
  %this1 = load %"struct.cDynamicExpression::Value"*, %"struct.cDynamicExpression::Value"** %this.addr, align 8
  %s = getelementptr inbounds %"struct.cDynamicExpression::Value", %"struct.cDynamicExpression::Value"* %this1, i32 0, i32 4, !dbg !3087
  call void @_ZNSt7__cxx1112basic_stringIcSt11char_traitsIcESaIcEED1Ev(%"class.std::__cxx11::basic_string"* %s) #3, !dbg !3087
  ret void, !dbg !3089
}

; Function Attrs: noinline uwtable
define dso_local i64 @_ZN18cDynamicExpression9longValueEP10cComponentPKc(%class.cDynamicExpression* %this, %class.cComponent* %context, i8* %expectedUnit) unnamed_addr #0 align 2 personality i8* bitcast (i32 (...)* @__gxx_personality_v0 to i8*) !dbg !3090 {
entry:
  %this.addr = alloca %class.cDynamicExpression*, align 8
  %context.addr = alloca %class.cComponent*, align 8
  %expectedUnit.addr = alloca i8*, align 8
  %v = alloca %"struct.cDynamicExpression::Value", align 8
  %exn.slot = alloca i8*
  %ehselector.slot = alloca i32
  store %class.cDynamicExpression* %this, %class.cDynamicExpression** %this.addr, align 8
  call void @llvm.dbg.declare(metadata %class.cDynamicExpression** %this.addr, metadata !3091, metadata !DIExpression()), !dbg !3092
  store %class.cComponent* %context, %class.cComponent** %context.addr, align 8
  call void @llvm.dbg.declare(metadata %class.cComponent** %context.addr, metadata !3093, metadata !DIExpression()), !dbg !3094
  store i8* %expectedUnit, i8** %expectedUnit.addr, align 8
  call void @llvm.dbg.declare(metadata i8** %expectedUnit.addr, metadata !3095, metadata !DIExpression()), !dbg !3096
  %this1 = load %class.cDynamicExpression*, %class.cDynamicExpression** %this.addr, align 8
  call void @llvm.dbg.declare(metadata %"struct.cDynamicExpression::Value"* %v, metadata !3097, metadata !DIExpression()), !dbg !3098
  %0 = load %class.cComponent*, %class.cComponent** %context.addr, align 8, !dbg !3099
  %1 = bitcast %class.cDynamicExpression* %this1 to void (%"struct.cDynamicExpression::Value"*, %class.cDynamicExpression*, %class.cComponent*)***, !dbg !3100
  %vtable = load void (%"struct.cDynamicExpression::Value"*, %class.cDynamicExpression*, %class.cComponent*)**, void (%"struct.cDynamicExpression::Value"*, %class.cDynamicExpression*, %class.cComponent*)*** %1, align 8, !dbg !3100
  %vfn = getelementptr inbounds void (%"struct.cDynamicExpression::Value"*, %class.cDynamicExpression*, %class.cComponent*)*, void (%"struct.cDynamicExpression::Value"*, %class.cDynamicExpression*, %class.cComponent*)** %vtable, i64 30, !dbg !3100
  %2 = load void (%"struct.cDynamicExpression::Value"*, %class.cDynamicExpression*, %class.cComponent*)*, void (%"struct.cDynamicExpression::Value"*, %class.cDynamicExpression*, %class.cComponent*)** %vfn, align 8, !dbg !3100
  call void %2(%"struct.cDynamicExpression::Value"* sret %v, %class.cDynamicExpression* %this1, %class.cComponent* %0), !dbg !3100
  %type = getelementptr inbounds %"struct.cDynamicExpression::Value", %"struct.cDynamicExpression::Value"* %v, i32 0, i32 0, !dbg !3101
  %3 = load i32, i32* %type, align 8, !dbg !3101
  %cmp = icmp ne i32 %3, 68, !dbg !3103
  br i1 %cmp, label %if.then, label %if.end, !dbg !3104

if.then:                                          ; preds = %entry
  %exception = call i8* @__cxa_allocate_exception(i64 128) #3, !dbg !3105
  %4 = bitcast i8* %exception to %class.cRuntimeError*, !dbg !3105
  invoke void (%class.cRuntimeError*, i32, ...) @_ZN13cRuntimeErrorC1E12OppErrorCodez(%class.cRuntimeError* %4, i32 12, i8* getelementptr inbounds ([5 x i8], [5 x i8]* @.str.10, i64 0, i64 0))
          to label %invoke.cont unwind label %lpad, !dbg !3106

invoke.cont:                                      ; preds = %if.then
  invoke void @__cxa_throw(i8* %exception, i8* bitcast ({ i8*, i8*, i8* }* @_ZTI13cRuntimeError to i8*), i8* bitcast (void (%class.cRuntimeError*)* @_ZN13cRuntimeErrorD2Ev to i8*)) #15
          to label %unreachable unwind label %lpad2, !dbg !3105

lpad:                                             ; preds = %if.then
  %5 = landingpad { i8*, i32 }
          cleanup, !dbg !3107
  %6 = extractvalue { i8*, i32 } %5, 0, !dbg !3107
  store i8* %6, i8** %exn.slot, align 8, !dbg !3107
  %7 = extractvalue { i8*, i32 } %5, 1, !dbg !3107
  store i32 %7, i32* %ehselector.slot, align 4, !dbg !3107
  call void @__cxa_free_exception(i8* %exception) #3, !dbg !3105
  br label %ehcleanup, !dbg !3105

lpad2:                                            ; preds = %invoke.cont3, %if.end, %invoke.cont
  %8 = landingpad { i8*, i32 }
          cleanup, !dbg !3107
  %9 = extractvalue { i8*, i32 } %8, 0, !dbg !3107
  store i8* %9, i8** %exn.slot, align 8, !dbg !3107
  %10 = extractvalue { i8*, i32 } %8, 1, !dbg !3107
  store i32 %10, i32* %ehselector.slot, align 4, !dbg !3107
  br label %ehcleanup, !dbg !3107

if.end:                                           ; preds = %entry
  %dbl = getelementptr inbounds %"struct.cDynamicExpression::Value", %"struct.cDynamicExpression::Value"* %v, i32 0, i32 2, !dbg !3108
  %11 = load double, double* %dbl, align 8, !dbg !3108
  %dblunit = getelementptr inbounds %"struct.cDynamicExpression::Value", %"struct.cDynamicExpression::Value"* %v, i32 0, i32 3, !dbg !3109
  %12 = load i8*, i8** %dblunit, align 8, !dbg !3109
  %13 = load i8*, i8** %expectedUnit.addr, align 8, !dbg !3110
  %call = invoke double @_ZN14UnitConversion11convertUnitEdPKcS1_(double %11, i8* %12, i8* %13)
          to label %invoke.cont3 unwind label %lpad2, !dbg !3111

invoke.cont3:                                     ; preds = %if.end
  %call5 = invoke i64 @_Z14double_to_longd(double %call)
          to label %invoke.cont4 unwind label %lpad2, !dbg !3112

invoke.cont4:                                     ; preds = %invoke.cont3
  call void @_ZN18cDynamicExpression5ValueD2Ev(%"struct.cDynamicExpression::Value"* %v) #3, !dbg !3113
  ret i64 %call5, !dbg !3113

ehcleanup:                                        ; preds = %lpad2, %lpad
  call void @_ZN18cDynamicExpression5ValueD2Ev(%"struct.cDynamicExpression::Value"* %v) #3, !dbg !3113
  br label %eh.resume, !dbg !3113

eh.resume:                                        ; preds = %ehcleanup
  %exn = load i8*, i8** %exn.slot, align 8, !dbg !3113
  %sel = load i32, i32* %ehselector.slot, align 4, !dbg !3113
  %lpad.val = insertvalue { i8*, i32 } undef, i8* %exn, 0, !dbg !3113
  %lpad.val6 = insertvalue { i8*, i32 } %lpad.val, i32 %sel, 1, !dbg !3113
  resume { i8*, i32 } %lpad.val6, !dbg !3113

unreachable:                                      ; preds = %invoke.cont
  unreachable
}

; Function Attrs: noinline nounwind uwtable
define linkonce_odr dso_local i64 @_Z14double_to_longd(double %d) #6 comdat !dbg !3114 {
entry:
  %d.addr = alloca double, align 8
  %l = alloca i64, align 8
  %ul = alloca i64, align 8
  store double %d, double* %d.addr, align 8
  call void @llvm.dbg.declare(metadata double* %d.addr, metadata !3115, metadata !DIExpression()), !dbg !3116
  call void @llvm.dbg.declare(metadata i64* %l, metadata !3117, metadata !DIExpression()), !dbg !3118
  %0 = load double, double* %d.addr, align 8, !dbg !3119
  %conv = fptosi double %0 to i64, !dbg !3119
  store i64 %conv, i64* %l, align 8, !dbg !3118
  call void @llvm.dbg.declare(metadata i64* %ul, metadata !3120, metadata !DIExpression()), !dbg !3121
  %1 = load double, double* %d.addr, align 8, !dbg !3122
  %conv1 = fptoui double %1 to i64, !dbg !3122
  store i64 %conv1, i64* %ul, align 8, !dbg !3121
  %2 = load double, double* %d.addr, align 8, !dbg !3123
  %cmp = fcmp olt double %2, 0.000000e+00, !dbg !3124
  br i1 %cmp, label %cond.true, label %cond.false, !dbg !3123

cond.true:                                        ; preds = %entry
  %3 = load i64, i64* %l, align 8, !dbg !3125
  br label %cond.end, !dbg !3123

cond.false:                                       ; preds = %entry
  %4 = load i64, i64* %ul, align 8, !dbg !3126
  br label %cond.end, !dbg !3123

cond.end:                                         ; preds = %cond.false, %cond.true
  %cond = phi i64 [ %3, %cond.true ], [ %4, %cond.false ], !dbg !3123
  ret i64 %cond, !dbg !3127
}

; Function Attrs: noinline uwtable
define dso_local double @_ZN18cDynamicExpression11doubleValueEP10cComponentPKc(%class.cDynamicExpression* %this, %class.cComponent* %context, i8* %expectedUnit) unnamed_addr #0 align 2 personality i8* bitcast (i32 (...)* @__gxx_personality_v0 to i8*) !dbg !3128 {
entry:
  %this.addr = alloca %class.cDynamicExpression*, align 8
  %context.addr = alloca %class.cComponent*, align 8
  %expectedUnit.addr = alloca i8*, align 8
  %v = alloca %"struct.cDynamicExpression::Value", align 8
  %exn.slot = alloca i8*
  %ehselector.slot = alloca i32
  store %class.cDynamicExpression* %this, %class.cDynamicExpression** %this.addr, align 8
  call void @llvm.dbg.declare(metadata %class.cDynamicExpression** %this.addr, metadata !3129, metadata !DIExpression()), !dbg !3130
  store %class.cComponent* %context, %class.cComponent** %context.addr, align 8
  call void @llvm.dbg.declare(metadata %class.cComponent** %context.addr, metadata !3131, metadata !DIExpression()), !dbg !3132
  store i8* %expectedUnit, i8** %expectedUnit.addr, align 8
  call void @llvm.dbg.declare(metadata i8** %expectedUnit.addr, metadata !3133, metadata !DIExpression()), !dbg !3134
  %this1 = load %class.cDynamicExpression*, %class.cDynamicExpression** %this.addr, align 8
  call void @llvm.dbg.declare(metadata %"struct.cDynamicExpression::Value"* %v, metadata !3135, metadata !DIExpression()), !dbg !3136
  %0 = load %class.cComponent*, %class.cComponent** %context.addr, align 8, !dbg !3137
  %1 = bitcast %class.cDynamicExpression* %this1 to void (%"struct.cDynamicExpression::Value"*, %class.cDynamicExpression*, %class.cComponent*)***, !dbg !3138
  %vtable = load void (%"struct.cDynamicExpression::Value"*, %class.cDynamicExpression*, %class.cComponent*)**, void (%"struct.cDynamicExpression::Value"*, %class.cDynamicExpression*, %class.cComponent*)*** %1, align 8, !dbg !3138
  %vfn = getelementptr inbounds void (%"struct.cDynamicExpression::Value"*, %class.cDynamicExpression*, %class.cComponent*)*, void (%"struct.cDynamicExpression::Value"*, %class.cDynamicExpression*, %class.cComponent*)** %vtable, i64 30, !dbg !3138
  %2 = load void (%"struct.cDynamicExpression::Value"*, %class.cDynamicExpression*, %class.cComponent*)*, void (%"struct.cDynamicExpression::Value"*, %class.cDynamicExpression*, %class.cComponent*)** %vfn, align 8, !dbg !3138
  call void %2(%"struct.cDynamicExpression::Value"* sret %v, %class.cDynamicExpression* %this1, %class.cComponent* %0), !dbg !3138
  %type = getelementptr inbounds %"struct.cDynamicExpression::Value", %"struct.cDynamicExpression::Value"* %v, i32 0, i32 0, !dbg !3139
  %3 = load i32, i32* %type, align 8, !dbg !3139
  %cmp = icmp ne i32 %3, 68, !dbg !3141
  br i1 %cmp, label %if.then, label %if.end, !dbg !3142

if.then:                                          ; preds = %entry
  %exception = call i8* @__cxa_allocate_exception(i64 128) #3, !dbg !3143
  %4 = bitcast i8* %exception to %class.cRuntimeError*, !dbg !3143
  invoke void (%class.cRuntimeError*, i32, ...) @_ZN13cRuntimeErrorC1E12OppErrorCodez(%class.cRuntimeError* %4, i32 12, i8* getelementptr inbounds ([7 x i8], [7 x i8]* @.str.11, i64 0, i64 0))
          to label %invoke.cont unwind label %lpad, !dbg !3144

invoke.cont:                                      ; preds = %if.then
  invoke void @__cxa_throw(i8* %exception, i8* bitcast ({ i8*, i8*, i8* }* @_ZTI13cRuntimeError to i8*), i8* bitcast (void (%class.cRuntimeError*)* @_ZN13cRuntimeErrorD2Ev to i8*)) #15
          to label %unreachable unwind label %lpad2, !dbg !3143

lpad:                                             ; preds = %if.then
  %5 = landingpad { i8*, i32 }
          cleanup, !dbg !3145
  %6 = extractvalue { i8*, i32 } %5, 0, !dbg !3145
  store i8* %6, i8** %exn.slot, align 8, !dbg !3145
  %7 = extractvalue { i8*, i32 } %5, 1, !dbg !3145
  store i32 %7, i32* %ehselector.slot, align 4, !dbg !3145
  call void @__cxa_free_exception(i8* %exception) #3, !dbg !3143
  br label %ehcleanup, !dbg !3143

lpad2:                                            ; preds = %if.end, %invoke.cont
  %8 = landingpad { i8*, i32 }
          cleanup, !dbg !3145
  %9 = extractvalue { i8*, i32 } %8, 0, !dbg !3145
  store i8* %9, i8** %exn.slot, align 8, !dbg !3145
  %10 = extractvalue { i8*, i32 } %8, 1, !dbg !3145
  store i32 %10, i32* %ehselector.slot, align 4, !dbg !3145
  br label %ehcleanup, !dbg !3145

if.end:                                           ; preds = %entry
  %dbl = getelementptr inbounds %"struct.cDynamicExpression::Value", %"struct.cDynamicExpression::Value"* %v, i32 0, i32 2, !dbg !3146
  %11 = load double, double* %dbl, align 8, !dbg !3146
  %dblunit = getelementptr inbounds %"struct.cDynamicExpression::Value", %"struct.cDynamicExpression::Value"* %v, i32 0, i32 3, !dbg !3147
  %12 = load i8*, i8** %dblunit, align 8, !dbg !3147
  %13 = load i8*, i8** %expectedUnit.addr, align 8, !dbg !3148
  %call = invoke double @_ZN14UnitConversion11convertUnitEdPKcS1_(double %11, i8* %12, i8* %13)
          to label %invoke.cont3 unwind label %lpad2, !dbg !3149

invoke.cont3:                                     ; preds = %if.end
  call void @_ZN18cDynamicExpression5ValueD2Ev(%"struct.cDynamicExpression::Value"* %v) #3, !dbg !3150
  ret double %call, !dbg !3150

ehcleanup:                                        ; preds = %lpad2, %lpad
  call void @_ZN18cDynamicExpression5ValueD2Ev(%"struct.cDynamicExpression::Value"* %v) #3, !dbg !3150
  br label %eh.resume, !dbg !3150

eh.resume:                                        ; preds = %ehcleanup
  %exn = load i8*, i8** %exn.slot, align 8, !dbg !3150
  %sel = load i32, i32* %ehselector.slot, align 4, !dbg !3150
  %lpad.val = insertvalue { i8*, i32 } undef, i8* %exn, 0, !dbg !3150
  %lpad.val4 = insertvalue { i8*, i32 } %lpad.val, i32 %sel, 1, !dbg !3150
  resume { i8*, i32 } %lpad.val4, !dbg !3150

unreachable:                                      ; preds = %invoke.cont
  unreachable
}

; Function Attrs: noinline uwtable
define dso_local void @_ZN18cDynamicExpression11stringValueB5cxx11EP10cComponent(%"class.std::__cxx11::basic_string"* noalias sret %agg.result, %class.cDynamicExpression* %this, %class.cComponent* %context) unnamed_addr #0 align 2 personality i8* bitcast (i32 (...)* @__gxx_personality_v0 to i8*) !dbg !3151 {
entry:
  %result.ptr = alloca i8*, align 8
  %this.addr = alloca %class.cDynamicExpression*, align 8
  %context.addr = alloca %class.cComponent*, align 8
  %v = alloca %"struct.cDynamicExpression::Value", align 8
  %exn.slot = alloca i8*
  %ehselector.slot = alloca i32
  %0 = bitcast %"class.std::__cxx11::basic_string"* %agg.result to i8*
  store i8* %0, i8** %result.ptr, align 8
  store %class.cDynamicExpression* %this, %class.cDynamicExpression** %this.addr, align 8
  call void @llvm.dbg.declare(metadata %class.cDynamicExpression** %this.addr, metadata !3152, metadata !DIExpression()), !dbg !3153
  store %class.cComponent* %context, %class.cComponent** %context.addr, align 8
  call void @llvm.dbg.declare(metadata %class.cComponent** %context.addr, metadata !3154, metadata !DIExpression()), !dbg !3155
  %this1 = load %class.cDynamicExpression*, %class.cDynamicExpression** %this.addr, align 8
  call void @llvm.dbg.declare(metadata %"struct.cDynamicExpression::Value"* %v, metadata !3156, metadata !DIExpression()), !dbg !3157
  %1 = load %class.cComponent*, %class.cComponent** %context.addr, align 8, !dbg !3158
  %2 = bitcast %class.cDynamicExpression* %this1 to void (%"struct.cDynamicExpression::Value"*, %class.cDynamicExpression*, %class.cComponent*)***, !dbg !3159
  %vtable = load void (%"struct.cDynamicExpression::Value"*, %class.cDynamicExpression*, %class.cComponent*)**, void (%"struct.cDynamicExpression::Value"*, %class.cDynamicExpression*, %class.cComponent*)*** %2, align 8, !dbg !3159
  %vfn = getelementptr inbounds void (%"struct.cDynamicExpression::Value"*, %class.cDynamicExpression*, %class.cComponent*)*, void (%"struct.cDynamicExpression::Value"*, %class.cDynamicExpression*, %class.cComponent*)** %vtable, i64 30, !dbg !3159
  %3 = load void (%"struct.cDynamicExpression::Value"*, %class.cDynamicExpression*, %class.cComponent*)*, void (%"struct.cDynamicExpression::Value"*, %class.cDynamicExpression*, %class.cComponent*)** %vfn, align 8, !dbg !3159
  call void %3(%"struct.cDynamicExpression::Value"* sret %v, %class.cDynamicExpression* %this1, %class.cComponent* %1), !dbg !3159
  %type = getelementptr inbounds %"struct.cDynamicExpression::Value", %"struct.cDynamicExpression::Value"* %v, i32 0, i32 0, !dbg !3160
  %4 = load i32, i32* %type, align 8, !dbg !3160
  %cmp = icmp ne i32 %4, 83, !dbg !3162
  br i1 %cmp, label %if.then, label %if.end, !dbg !3163

if.then:                                          ; preds = %entry
  %exception = call i8* @__cxa_allocate_exception(i64 128) #3, !dbg !3164
  %5 = bitcast i8* %exception to %class.cRuntimeError*, !dbg !3164
  invoke void (%class.cRuntimeError*, i32, ...) @_ZN13cRuntimeErrorC1E12OppErrorCodez(%class.cRuntimeError* %5, i32 12, i8* getelementptr inbounds ([7 x i8], [7 x i8]* @.str.12, i64 0, i64 0))
          to label %invoke.cont unwind label %lpad, !dbg !3165

invoke.cont:                                      ; preds = %if.then
  invoke void @__cxa_throw(i8* %exception, i8* bitcast ({ i8*, i8*, i8* }* @_ZTI13cRuntimeError to i8*), i8* bitcast (void (%class.cRuntimeError*)* @_ZN13cRuntimeErrorD2Ev to i8*)) #15
          to label %unreachable unwind label %lpad2, !dbg !3164

lpad:                                             ; preds = %if.then
  %6 = landingpad { i8*, i32 }
          cleanup, !dbg !3166
  %7 = extractvalue { i8*, i32 } %6, 0, !dbg !3166
  store i8* %7, i8** %exn.slot, align 8, !dbg !3166
  %8 = extractvalue { i8*, i32 } %6, 1, !dbg !3166
  store i32 %8, i32* %ehselector.slot, align 4, !dbg !3166
  call void @__cxa_free_exception(i8* %exception) #3, !dbg !3164
  br label %ehcleanup, !dbg !3164

lpad2:                                            ; preds = %if.end, %invoke.cont
  %9 = landingpad { i8*, i32 }
          cleanup, !dbg !3166
  %10 = extractvalue { i8*, i32 } %9, 0, !dbg !3166
  store i8* %10, i8** %exn.slot, align 8, !dbg !3166
  %11 = extractvalue { i8*, i32 } %9, 1, !dbg !3166
  store i32 %11, i32* %ehselector.slot, align 4, !dbg !3166
  br label %ehcleanup, !dbg !3166

if.end:                                           ; preds = %entry
  %s = getelementptr inbounds %"struct.cDynamicExpression::Value", %"struct.cDynamicExpression::Value"* %v, i32 0, i32 4, !dbg !3167
  invoke void @_ZNSt7__cxx1112basic_stringIcSt11char_traitsIcESaIcEEC1ERKS4_(%"class.std::__cxx11::basic_string"* %agg.result, %"class.std::__cxx11::basic_string"* dereferenceable(32) %s)
          to label %invoke.cont3 unwind label %lpad2, !dbg !3168

invoke.cont3:                                     ; preds = %if.end
  call void @_ZN18cDynamicExpression5ValueD2Ev(%"struct.cDynamicExpression::Value"* %v) #3, !dbg !3169
  ret void, !dbg !3169

ehcleanup:                                        ; preds = %lpad2, %lpad
  call void @_ZN18cDynamicExpression5ValueD2Ev(%"struct.cDynamicExpression::Value"* %v) #3, !dbg !3169
  br label %eh.resume, !dbg !3169

eh.resume:                                        ; preds = %ehcleanup
  %exn = load i8*, i8** %exn.slot, align 8, !dbg !3169
  %sel = load i32, i32* %ehselector.slot, align 4, !dbg !3169
  %lpad.val = insertvalue { i8*, i32 } undef, i8* %exn, 0, !dbg !3169
  %lpad.val4 = insertvalue { i8*, i32 } %lpad.val, i32 %sel, 1, !dbg !3169
  resume { i8*, i32 } %lpad.val4, !dbg !3169

unreachable:                                      ; preds = %invoke.cont
  unreachable
}

declare dso_local void @_ZNSt7__cxx1112basic_stringIcSt11char_traitsIcESaIcEEC1ERKS4_(%"class.std::__cxx11::basic_string"*, %"class.std::__cxx11::basic_string"* dereferenceable(32)) unnamed_addr #1

; Function Attrs: noinline uwtable
define dso_local %class.cXMLElement* @_ZN18cDynamicExpression8xmlValueEP10cComponent(%class.cDynamicExpression* %this, %class.cComponent* %context) unnamed_addr #0 align 2 personality i8* bitcast (i32 (...)* @__gxx_personality_v0 to i8*) !dbg !3170 {
entry:
  %this.addr = alloca %class.cDynamicExpression*, align 8
  %context.addr = alloca %class.cComponent*, align 8
  %v = alloca %"struct.cDynamicExpression::Value", align 8
  %exn.slot = alloca i8*
  %ehselector.slot = alloca i32
  store %class.cDynamicExpression* %this, %class.cDynamicExpression** %this.addr, align 8
  call void @llvm.dbg.declare(metadata %class.cDynamicExpression** %this.addr, metadata !3171, metadata !DIExpression()), !dbg !3172
  store %class.cComponent* %context, %class.cComponent** %context.addr, align 8
  call void @llvm.dbg.declare(metadata %class.cComponent** %context.addr, metadata !3173, metadata !DIExpression()), !dbg !3174
  %this1 = load %class.cDynamicExpression*, %class.cDynamicExpression** %this.addr, align 8
  call void @llvm.dbg.declare(metadata %"struct.cDynamicExpression::Value"* %v, metadata !3175, metadata !DIExpression()), !dbg !3176
  %0 = load %class.cComponent*, %class.cComponent** %context.addr, align 8, !dbg !3177
  %1 = bitcast %class.cDynamicExpression* %this1 to void (%"struct.cDynamicExpression::Value"*, %class.cDynamicExpression*, %class.cComponent*)***, !dbg !3178
  %vtable = load void (%"struct.cDynamicExpression::Value"*, %class.cDynamicExpression*, %class.cComponent*)**, void (%"struct.cDynamicExpression::Value"*, %class.cDynamicExpression*, %class.cComponent*)*** %1, align 8, !dbg !3178
  %vfn = getelementptr inbounds void (%"struct.cDynamicExpression::Value"*, %class.cDynamicExpression*, %class.cComponent*)*, void (%"struct.cDynamicExpression::Value"*, %class.cDynamicExpression*, %class.cComponent*)** %vtable, i64 30, !dbg !3178
  %2 = load void (%"struct.cDynamicExpression::Value"*, %class.cDynamicExpression*, %class.cComponent*)*, void (%"struct.cDynamicExpression::Value"*, %class.cDynamicExpression*, %class.cComponent*)** %vfn, align 8, !dbg !3178
  call void %2(%"struct.cDynamicExpression::Value"* sret %v, %class.cDynamicExpression* %this1, %class.cComponent* %0), !dbg !3178
  %type = getelementptr inbounds %"struct.cDynamicExpression::Value", %"struct.cDynamicExpression::Value"* %v, i32 0, i32 0, !dbg !3179
  %3 = load i32, i32* %type, align 8, !dbg !3179
  %cmp = icmp ne i32 %3, 88, !dbg !3181
  br i1 %cmp, label %if.then, label %if.end, !dbg !3182

if.then:                                          ; preds = %entry
  %exception = call i8* @__cxa_allocate_exception(i64 128) #3, !dbg !3183
  %4 = bitcast i8* %exception to %class.cRuntimeError*, !dbg !3183
  invoke void (%class.cRuntimeError*, i32, ...) @_ZN13cRuntimeErrorC1E12OppErrorCodez(%class.cRuntimeError* %4, i32 12, i8* getelementptr inbounds ([12 x i8], [12 x i8]* @.str.13, i64 0, i64 0))
          to label %invoke.cont unwind label %lpad, !dbg !3184

invoke.cont:                                      ; preds = %if.then
  invoke void @__cxa_throw(i8* %exception, i8* bitcast ({ i8*, i8*, i8* }* @_ZTI13cRuntimeError to i8*), i8* bitcast (void (%class.cRuntimeError*)* @_ZN13cRuntimeErrorD2Ev to i8*)) #15
          to label %unreachable unwind label %lpad2, !dbg !3183

lpad:                                             ; preds = %if.then
  %5 = landingpad { i8*, i32 }
          cleanup, !dbg !3185
  %6 = extractvalue { i8*, i32 } %5, 0, !dbg !3185
  store i8* %6, i8** %exn.slot, align 8, !dbg !3185
  %7 = extractvalue { i8*, i32 } %5, 1, !dbg !3185
  store i32 %7, i32* %ehselector.slot, align 4, !dbg !3185
  call void @__cxa_free_exception(i8* %exception) #3, !dbg !3183
  br label %ehcleanup, !dbg !3183

lpad2:                                            ; preds = %invoke.cont
  %8 = landingpad { i8*, i32 }
          cleanup, !dbg !3185
  %9 = extractvalue { i8*, i32 } %8, 0, !dbg !3185
  store i8* %9, i8** %exn.slot, align 8, !dbg !3185
  %10 = extractvalue { i8*, i32 } %8, 1, !dbg !3185
  store i32 %10, i32* %ehselector.slot, align 4, !dbg !3185
  br label %ehcleanup, !dbg !3185

if.end:                                           ; preds = %entry
  %xml = getelementptr inbounds %"struct.cDynamicExpression::Value", %"struct.cDynamicExpression::Value"* %v, i32 0, i32 5, !dbg !3186
  %11 = load %class.cXMLElement*, %class.cXMLElement** %xml, align 8, !dbg !3186
  call void @_ZN18cDynamicExpression5ValueD2Ev(%"struct.cDynamicExpression::Value"* %v) #3, !dbg !3187
  ret %class.cXMLElement* %11, !dbg !3187

ehcleanup:                                        ; preds = %lpad2, %lpad
  call void @_ZN18cDynamicExpression5ValueD2Ev(%"struct.cDynamicExpression::Value"* %v) #3, !dbg !3187
  br label %eh.resume, !dbg !3187

eh.resume:                                        ; preds = %ehcleanup
  %exn = load i8*, i8** %exn.slot, align 8, !dbg !3187
  %sel = load i32, i32* %ehselector.slot, align 4, !dbg !3187
  %lpad.val = insertvalue { i8*, i32 } undef, i8* %exn, 0, !dbg !3187
  %lpad.val3 = insertvalue { i8*, i32 } %lpad.val, i32 %sel, 1, !dbg !3187
  resume { i8*, i32 } %lpad.val3, !dbg !3187

unreachable:                                      ; preds = %invoke.cont
  unreachable
}

; Function Attrs: noinline uwtable
define internal void @__cxx_global_var_init.14() #0 section ".text.startup" personality i8* bitcast (i32 (...)* @__gxx_personality_v0 to i8*) !dbg !3188 {
entry:
  %exn.slot = alloca i8*
  %ehselector.slot = alloca i32
  br label %arrayctor.loop, !dbg !3189

arrayctor.loop:                                   ; preds = %invoke.cont, %entry
  %arrayctor.cur = phi %"struct.cDynamicExpression::Value"* [ getelementptr inbounds ([20 x %"struct.cDynamicExpression::Value"], [20 x %"struct.cDynamicExpression::Value"]* @_ZL4_stk, i32 0, i32 0), %entry ], [ %arrayctor.next, %invoke.cont ], !dbg !3189
  invoke void @_ZN18cDynamicExpression5ValueC2Ev(%"struct.cDynamicExpression::Value"* %arrayctor.cur)
          to label %invoke.cont unwind label %lpad, !dbg !3189

invoke.cont:                                      ; preds = %arrayctor.loop
  %arrayctor.next = getelementptr inbounds %"struct.cDynamicExpression::Value", %"struct.cDynamicExpression::Value"* %arrayctor.cur, i64 1, !dbg !3189
  %arrayctor.done = icmp eq %"struct.cDynamicExpression::Value"* %arrayctor.next, getelementptr inbounds (%"struct.cDynamicExpression::Value", %"struct.cDynamicExpression::Value"* getelementptr inbounds ([20 x %"struct.cDynamicExpression::Value"], [20 x %"struct.cDynamicExpression::Value"]* @_ZL4_stk, i32 0, i32 0), i64 20), !dbg !3189
  br i1 %arrayctor.done, label %arrayctor.cont, label %arrayctor.loop, !dbg !3189

arrayctor.cont:                                   ; preds = %invoke.cont
  %0 = call i32 @__cxa_atexit(void (i8*)* @__cxx_global_array_dtor, i8* null, i8* @__dso_handle) #3, !dbg !3189
  ret void, !dbg !3190

lpad:                                             ; preds = %arrayctor.loop
  %1 = landingpad { i8*, i32 }
          cleanup, !dbg !3190
  %2 = extractvalue { i8*, i32 } %1, 0, !dbg !3190
  store i8* %2, i8** %exn.slot, align 8, !dbg !3190
  %3 = extractvalue { i8*, i32 } %1, 1, !dbg !3190
  store i32 %3, i32* %ehselector.slot, align 4, !dbg !3190
  %arraydestroy.isempty = icmp eq %"struct.cDynamicExpression::Value"* getelementptr inbounds ([20 x %"struct.cDynamicExpression::Value"], [20 x %"struct.cDynamicExpression::Value"]* @_ZL4_stk, i32 0, i32 0), %arrayctor.cur, !dbg !3189
  br i1 %arraydestroy.isempty, label %arraydestroy.done1, label %arraydestroy.body, !dbg !3189

arraydestroy.body:                                ; preds = %arraydestroy.body, %lpad
  %arraydestroy.elementPast = phi %"struct.cDynamicExpression::Value"* [ %arrayctor.cur, %lpad ], [ %arraydestroy.element, %arraydestroy.body ], !dbg !3189
  %arraydestroy.element = getelementptr inbounds %"struct.cDynamicExpression::Value", %"struct.cDynamicExpression::Value"* %arraydestroy.elementPast, i64 -1, !dbg !3189
  call void @_ZN18cDynamicExpression5ValueD2Ev(%"struct.cDynamicExpression::Value"* %arraydestroy.element) #3, !dbg !3189
  %arraydestroy.done = icmp eq %"struct.cDynamicExpression::Value"* %arraydestroy.element, getelementptr inbounds ([20 x %"struct.cDynamicExpression::Value"], [20 x %"struct.cDynamicExpression::Value"]* @_ZL4_stk, i32 0, i32 0), !dbg !3189
  br i1 %arraydestroy.done, label %arraydestroy.done1, label %arraydestroy.body, !dbg !3189

arraydestroy.done1:                               ; preds = %arraydestroy.body, %lpad
  br label %eh.resume, !dbg !3189

eh.resume:                                        ; preds = %arraydestroy.done1
  %exn = load i8*, i8** %exn.slot, align 8, !dbg !3189
  %sel = load i32, i32* %ehselector.slot, align 4, !dbg !3189
  %lpad.val = insertvalue { i8*, i32 } undef, i8* %exn, 0, !dbg !3189
  %lpad.val2 = insertvalue { i8*, i32 } %lpad.val, i32 %sel, 1, !dbg !3189
  resume { i8*, i32 } %lpad.val2, !dbg !3189
}

; Function Attrs: noinline nounwind uwtable
define linkonce_odr dso_local void @_ZN18cDynamicExpression5ValueC2Ev(%"struct.cDynamicExpression::Value"* %this) unnamed_addr #6 comdat align 2 !dbg !3191 {
entry:
  %this.addr = alloca %"struct.cDynamicExpression::Value"*, align 8
  store %"struct.cDynamicExpression::Value"* %this, %"struct.cDynamicExpression::Value"** %this.addr, align 8
  call void @llvm.dbg.declare(metadata %"struct.cDynamicExpression::Value"** %this.addr, metadata !3192, metadata !DIExpression()), !dbg !3193
  %this1 = load %"struct.cDynamicExpression::Value"*, %"struct.cDynamicExpression::Value"** %this.addr, align 8
  %s = getelementptr inbounds %"struct.cDynamicExpression::Value", %"struct.cDynamicExpression::Value"* %this1, i32 0, i32 4, !dbg !3194
  call void @_ZNSt7__cxx1112basic_stringIcSt11char_traitsIcESaIcEEC1Ev(%"class.std::__cxx11::basic_string"* %s) #3, !dbg !3194
  %type = getelementptr inbounds %"struct.cDynamicExpression::Value", %"struct.cDynamicExpression::Value"* %this1, i32 0, i32 0, !dbg !3195
  store i32 0, i32* %type, align 8, !dbg !3197
  ret void, !dbg !3198
}

; Function Attrs: noinline uwtable
define internal void @__cxx_global_array_dtor(i8* %0) #0 section ".text.startup" !dbg !3199 {
entry:
  %.addr = alloca i8*, align 8
  store i8* %0, i8** %.addr, align 8
  call void @llvm.dbg.declare(metadata i8** %.addr, metadata !3200, metadata !DIExpression()), !dbg !3201
  br label %arraydestroy.body, !dbg !3202

arraydestroy.body:                                ; preds = %arraydestroy.body, %entry
  %arraydestroy.elementPast = phi %"struct.cDynamicExpression::Value"* [ getelementptr inbounds (%"struct.cDynamicExpression::Value", %"struct.cDynamicExpression::Value"* getelementptr inbounds ([20 x %"struct.cDynamicExpression::Value"], [20 x %"struct.cDynamicExpression::Value"]* @_ZL4_stk, i32 0, i32 0), i64 20), %entry ], [ %arraydestroy.element, %arraydestroy.body ], !dbg !3202
  %arraydestroy.element = getelementptr inbounds %"struct.cDynamicExpression::Value", %"struct.cDynamicExpression::Value"* %arraydestroy.elementPast, i64 -1, !dbg !3202
  call void @_ZN18cDynamicExpression5ValueD2Ev(%"struct.cDynamicExpression::Value"* %arraydestroy.element) #3, !dbg !3202
  %arraydestroy.done = icmp eq %"struct.cDynamicExpression::Value"* %arraydestroy.element, getelementptr inbounds ([20 x %"struct.cDynamicExpression::Value"], [20 x %"struct.cDynamicExpression::Value"]* @_ZL4_stk, i32 0, i32 0), !dbg !3202
  br i1 %arraydestroy.done, label %arraydestroy.done1, label %arraydestroy.body, !dbg !3202

arraydestroy.done1:                               ; preds = %arraydestroy.body
  ret void, !dbg !3202
}

; Function Attrs: noinline uwtable
define dso_local void @_ZNK18cDynamicExpression8evaluateEP10cComponent(%"struct.cDynamicExpression::Value"* noalias sret %agg.result, %class.cDynamicExpression* %this, %class.cComponent* %context) unnamed_addr #0 align 2 personality i8* bitcast (i32 (...)* @__gxx_personality_v0 to i8*) !dbg !3203 {
entry:
  %result.ptr = alloca i8*, align 8
  %this.addr = alloca %class.cDynamicExpression*, align 8
  %context.addr = alloca %class.cComponent*, align 8
  %stk = alloca %"struct.cDynamicExpression::Value"*, align 8
  %exn.slot = alloca i8*
  %ehselector.slot = alloca i32
  %f = alloca %struct.Finally, align 8
  %tos = alloca i32, align 4
  %i = alloca i32, align 4
  %e = alloca %"class.cDynamicExpression::Elem"*, align 8
  %numargs = alloca i32, align 4
  %argpos = alloca i32, align 4
  %ref.tmp = alloca %"struct.cDynamicExpression::Value", align 8
  %numargs369 = alloca i32, align 4
  %argpos374 = alloca i32, align 4
  %argtypes = alloca i8*, align 8
  %i388 = alloca i32, align 4
  %ref.tmp418 = alloca %"struct.cDynamicExpression::Value", align 8
  %ref.tmp608 = alloca %"class.std::__cxx11::basic_string", align 8
  %0 = bitcast %"struct.cDynamicExpression::Value"* %agg.result to i8*
  store i8* %0, i8** %result.ptr, align 8
  store %class.cDynamicExpression* %this, %class.cDynamicExpression** %this.addr, align 8
  call void @llvm.dbg.declare(metadata %class.cDynamicExpression** %this.addr, metadata !3204, metadata !DIExpression()), !dbg !3205
  store %class.cComponent* %context, %class.cComponent** %context.addr, align 8
  call void @llvm.dbg.declare(metadata %class.cComponent** %context.addr, metadata !3206, metadata !DIExpression()), !dbg !3207
  %this1 = load %class.cDynamicExpression*, %class.cDynamicExpression** %this.addr, align 8
  call void @llvm.dbg.declare(metadata %"struct.cDynamicExpression::Value"** %stk, metadata !3208, metadata !DIExpression()), !dbg !3209
  %1 = load i8, i8* @_ZL9_stkinuse, align 1, !dbg !3210
  %tobool = trunc i8 %1 to i1, !dbg !3210
  br i1 %tobool, label %if.then, label %if.else, !dbg !3212

if.then:                                          ; preds = %entry
  %call = call i8* @_Znam(i64 1288) #17, !dbg !3213
  %2 = bitcast i8* %call to i64*, !dbg !3213
  store i64 20, i64* %2, align 16, !dbg !3213
  %3 = getelementptr inbounds i8, i8* %call, i64 8, !dbg !3213
  %4 = bitcast i8* %3 to %"struct.cDynamicExpression::Value"*, !dbg !3213
  %arrayctor.end = getelementptr inbounds %"struct.cDynamicExpression::Value", %"struct.cDynamicExpression::Value"* %4, i64 20, !dbg !3213
  br label %arrayctor.loop, !dbg !3213

arrayctor.loop:                                   ; preds = %invoke.cont, %if.then
  %arrayctor.cur = phi %"struct.cDynamicExpression::Value"* [ %4, %if.then ], [ %arrayctor.next, %invoke.cont ], !dbg !3213
  invoke void @_ZN18cDynamicExpression5ValueC2Ev(%"struct.cDynamicExpression::Value"* %arrayctor.cur)
          to label %invoke.cont unwind label %lpad, !dbg !3213

invoke.cont:                                      ; preds = %arrayctor.loop
  %arrayctor.next = getelementptr inbounds %"struct.cDynamicExpression::Value", %"struct.cDynamicExpression::Value"* %arrayctor.cur, i64 1, !dbg !3213
  %arrayctor.done = icmp eq %"struct.cDynamicExpression::Value"* %arrayctor.next, %arrayctor.end, !dbg !3213
  br i1 %arrayctor.done, label %arrayctor.cont, label %arrayctor.loop, !dbg !3213

arrayctor.cont:                                   ; preds = %invoke.cont
  store %"struct.cDynamicExpression::Value"* %4, %"struct.cDynamicExpression::Value"** %stk, align 8, !dbg !3214
  br label %if.end, !dbg !3215

lpad:                                             ; preds = %arrayctor.loop
  %5 = landingpad { i8*, i32 }
          cleanup, !dbg !3216
  %6 = extractvalue { i8*, i32 } %5, 0, !dbg !3216
  store i8* %6, i8** %exn.slot, align 8, !dbg !3216
  %7 = extractvalue { i8*, i32 } %5, 1, !dbg !3216
  store i32 %7, i32* %ehselector.slot, align 4, !dbg !3216
  %arraydestroy.isempty = icmp eq %"struct.cDynamicExpression::Value"* %4, %arrayctor.cur, !dbg !3213
  br i1 %arraydestroy.isempty, label %arraydestroy.done2, label %arraydestroy.body, !dbg !3213

arraydestroy.body:                                ; preds = %arraydestroy.body, %lpad
  %arraydestroy.elementPast = phi %"struct.cDynamicExpression::Value"* [ %arrayctor.cur, %lpad ], [ %arraydestroy.element, %arraydestroy.body ], !dbg !3213
  %arraydestroy.element = getelementptr inbounds %"struct.cDynamicExpression::Value", %"struct.cDynamicExpression::Value"* %arraydestroy.elementPast, i64 -1, !dbg !3213
  call void @_ZN18cDynamicExpression5ValueD2Ev(%"struct.cDynamicExpression::Value"* %arraydestroy.element) #3, !dbg !3213
  %arraydestroy.done = icmp eq %"struct.cDynamicExpression::Value"* %arraydestroy.element, %4, !dbg !3213
  br i1 %arraydestroy.done, label %arraydestroy.done2, label %arraydestroy.body, !dbg !3213

arraydestroy.done2:                               ; preds = %arraydestroy.body, %lpad
  call void @_ZdaPv(i8* %call) #16, !dbg !3213
  br label %eh.resume, !dbg !3213

if.else:                                          ; preds = %entry
  store i8 1, i8* @_ZL9_stkinuse, align 1, !dbg !3217
  store %"struct.cDynamicExpression::Value"* getelementptr inbounds ([20 x %"struct.cDynamicExpression::Value"], [20 x %"struct.cDynamicExpression::Value"]* @_ZL4_stk, i64 0, i64 0), %"struct.cDynamicExpression::Value"** %stk, align 8, !dbg !3219
  br label %if.end

if.end:                                           ; preds = %if.else, %arrayctor.cont
  call void @llvm.dbg.declare(metadata %struct.Finally* %f, metadata !3220, metadata !DIExpression()), !dbg !3231
  %8 = load %"struct.cDynamicExpression::Value"*, %"struct.cDynamicExpression::Value"** %stk, align 8, !dbg !3232
  call void @_ZZNK18cDynamicExpression8evaluateEP10cComponentEN7FinallyC2EPNS_5ValueE(%struct.Finally* %f, %"struct.cDynamicExpression::Value"* %8), !dbg !3231
  call void @llvm.dbg.declare(metadata i32* %tos, metadata !3233, metadata !DIExpression()), !dbg !3234
  store i32 -1, i32* %tos, align 4, !dbg !3234
  call void @llvm.dbg.declare(metadata i32* %i, metadata !3235, metadata !DIExpression()), !dbg !3237
  store i32 0, i32* %i, align 4, !dbg !3237
  br label %for.cond, !dbg !3238

for.cond:                                         ; preds = %for.inc1826, %if.end
  %9 = load i32, i32* %i, align 4, !dbg !3239
  %size = getelementptr inbounds %class.cDynamicExpression, %class.cDynamicExpression* %this1, i32 0, i32 2, !dbg !3241
  %10 = load i32, i32* %size, align 8, !dbg !3241
  %cmp = icmp slt i32 %9, %10, !dbg !3242
  br i1 %cmp, label %for.body, label %for.end1828, !dbg !3243

for.body:                                         ; preds = %for.cond
  call void @llvm.dbg.declare(metadata %"class.cDynamicExpression::Elem"** %e, metadata !3244, metadata !DIExpression()), !dbg !3247
  %elems = getelementptr inbounds %class.cDynamicExpression, %class.cDynamicExpression* %this1, i32 0, i32 1, !dbg !3248
  %11 = load %"class.cDynamicExpression::Elem"*, %"class.cDynamicExpression::Elem"** %elems, align 8, !dbg !3248
  %12 = load i32, i32* %i, align 4, !dbg !3249
  %idxprom = sext i32 %12 to i64, !dbg !3248
  %arrayidx = getelementptr inbounds %"class.cDynamicExpression::Elem", %"class.cDynamicExpression::Elem"* %11, i64 %idxprom, !dbg !3248
  store %"class.cDynamicExpression::Elem"* %arrayidx, %"class.cDynamicExpression::Elem"** %e, align 8, !dbg !3247
  %13 = load %"class.cDynamicExpression::Elem"*, %"class.cDynamicExpression::Elem"** %e, align 8, !dbg !3250
  %type = getelementptr inbounds %"class.cDynamicExpression::Elem", %"class.cDynamicExpression::Elem"* %13, i32 0, i32 0, !dbg !3251
  %14 = load i32, i32* %type, align 8, !dbg !3251
  switch i32 %14, label %sw.default1821 [
    i32 1, label %sw.bb
    i32 2, label %sw.bb13
    i32 3, label %sw.bb26
    i32 4, label %sw.bb37
    i32 5, label %sw.bb48
    i32 6, label %sw.bb354
    i32 7, label %sw.bb368
    i32 9, label %sw.bb428
    i32 8, label %sw.bb432
  ], !dbg !3252

sw.bb:                                            ; preds = %for.body
  %15 = load i32, i32* %tos, align 4, !dbg !3253
  %cmp3 = icmp sge i32 %15, 19, !dbg !3256
  br i1 %cmp3, label %if.then4, label %if.end8, !dbg !3257

if.then4:                                         ; preds = %sw.bb
  %exception = call i8* @__cxa_allocate_exception(i64 128) #3, !dbg !3258
  %16 = bitcast i8* %exception to %class.cRuntimeError*, !dbg !3258
  invoke void (%class.cRuntimeError*, i32, ...) @_ZN13cRuntimeErrorC1E12OppErrorCodez(%class.cRuntimeError* %16, i32 16)
          to label %invoke.cont6 unwind label %lpad5, !dbg !3259

invoke.cont6:                                     ; preds = %if.then4
  invoke void @__cxa_throw(i8* %exception, i8* bitcast ({ i8*, i8*, i8* }* @_ZTI13cRuntimeError to i8*), i8* bitcast (void (%class.cRuntimeError*)* @_ZN13cRuntimeErrorD2Ev to i8*)) #15
          to label %unreachable unwind label %lpad7, !dbg !3258

lpad5:                                            ; preds = %if.then4
  %17 = landingpad { i8*, i32 }
          cleanup, !dbg !3260
  %18 = extractvalue { i8*, i32 } %17, 0, !dbg !3260
  store i8* %18, i8** %exn.slot, align 8, !dbg !3260
  %19 = extractvalue { i8*, i32 } %17, 1, !dbg !3260
  store i32 %19, i32* %ehselector.slot, align 4, !dbg !3260
  call void @__cxa_free_exception(i8* %exception) #3, !dbg !3258
  br label %ehcleanup, !dbg !3258

lpad7:                                            ; preds = %if.end1834, %invoke.cont1833, %invoke.cont1824, %invoke.cont1817, %invoke.cont1809, %if.then1789, %if.then1765, %invoke.cont1737, %if.then1726, %invoke.cont1710, %if.then1690, %if.then1666, %invoke.cont1638, %if.then1627, %invoke.cont1611, %if.then1591, %if.then1567, %invoke.cont1539, %if.then1528, %invoke.cont1512, %if.then1492, %if.then1468, %invoke.cont1440, %if.then1429, %invoke.cont1413, %if.then1393, %if.then1369, %invoke.cont1341, %if.then1330, %invoke.cont1314, %if.then1294, %if.then1270, %invoke.cont1242, %if.then1231, %invoke.cont1203, %lor.lhs.false1193, %if.end1187, %invoke.cont1186, %invoke.cont1155, %lor.lhs.false1145, %if.end1139, %invoke.cont1138, %invoke.cont1107, %lor.lhs.false1097, %if.end1091, %invoke.cont1090, %invoke.cont1059, %lor.lhs.false1049, %if.end1043, %invoke.cont1042, %invoke.cont1011, %lor.lhs.false1001, %if.end995, %invoke.cont994, %invoke.cont960, %invoke.cont929, %invoke.cont898, %invoke.cont869, %lor.lhs.false859, %if.end853, %invoke.cont852, %if.end809, %invoke.cont808, %if.end770, %if.then754, %if.end748, %invoke.cont747, %if.end705, %invoke.cont704, %land.lhs.true694, %if.end688, %invoke.cont687, %if.end644, %invoke.cont643, %invoke.cont625, %if.then607, %if.then568, %invoke.cont554, %cond.end542, %invoke.cont528, %invoke.cont518, %invoke.cont498, %if.end489, %invoke.cont488, %invoke.cont472, %invoke.cont456, %invoke.cont445, %invoke.cont431, %for.end, %invoke.cont415, %if.end382, %invoke.cont381, %sw.bb368, %if.end361, %invoke.cont360, %invoke.cont353, %invoke.cont344, %invoke.cont327, %if.end325, %invoke.cont324, %lor.lhs.false309, %lor.lhs.false302, %lor.lhs.false295, %if.end289, %invoke.cont288, %invoke.cont256, %invoke.cont244, %invoke.cont231, %if.end229, %invoke.cont228, %lor.lhs.false213, %lor.lhs.false206, %if.end200, %invoke.cont199, %invoke.cont173, %invoke.cont162, %invoke.cont153, %if.end151, %invoke.cont150, %lor.lhs.false135, %if.end129, %invoke.cont128, %invoke.cont110, %invoke.cont100, %invoke.cont96, %if.end94, %invoke.cont93, %if.end80, %invoke.cont79, %invoke.cont67, %invoke.cont56, %invoke.cont54, %sw.bb52, %sw.bb48, %if.end43, %invoke.cont42, %if.end32, %invoke.cont31, %if.end19, %invoke.cont18, %if.end8, %invoke.cont6
  %20 = landingpad { i8*, i32 }
          cleanup, !dbg !3260
  %21 = extractvalue { i8*, i32 } %20, 0, !dbg !3260
  store i8* %21, i8** %exn.slot, align 8, !dbg !3260
  %22 = extractvalue { i8*, i32 } %20, 1, !dbg !3260
  store i32 %22, i32* %ehselector.slot, align 4, !dbg !3260
  br label %ehcleanup, !dbg !3260

if.end8:                                          ; preds = %sw.bb
  %23 = load %"class.cDynamicExpression::Elem"*, %"class.cDynamicExpression::Elem"** %e, align 8, !dbg !3261
  %24 = getelementptr inbounds %"class.cDynamicExpression::Elem", %"class.cDynamicExpression::Elem"* %23, i32 0, i32 1, !dbg !3262
  %b = bitcast %union.anon.3* %24 to i8*, !dbg !3262
  %25 = load i8, i8* %b, align 8, !dbg !3262
  %tobool9 = trunc i8 %25 to i1, !dbg !3262
  %26 = load %"struct.cDynamicExpression::Value"*, %"struct.cDynamicExpression::Value"** %stk, align 8, !dbg !3263
  %27 = load i32, i32* %tos, align 4, !dbg !3264
  %inc = add nsw i32 %27, 1, !dbg !3264
  store i32 %inc, i32* %tos, align 4, !dbg !3264
  %idxprom10 = sext i32 %inc to i64, !dbg !3263
  %arrayidx11 = getelementptr inbounds %"struct.cDynamicExpression::Value", %"struct.cDynamicExpression::Value"* %26, i64 %idxprom10, !dbg !3263
  invoke void @_ZN18cDynamicExpression5ValueaSEb(%"struct.cDynamicExpression::Value"* %arrayidx11, i1 zeroext %tobool9)
          to label %invoke.cont12 unwind label %lpad7, !dbg !3265

invoke.cont12:                                    ; preds = %if.end8
  br label %sw.epilog1825, !dbg !3266

sw.bb13:                                          ; preds = %for.body
  %28 = load i32, i32* %tos, align 4, !dbg !3267
  %cmp14 = icmp sge i32 %28, 19, !dbg !3269
  br i1 %cmp14, label %if.then15, label %if.end19, !dbg !3270

if.then15:                                        ; preds = %sw.bb13
  %exception16 = call i8* @__cxa_allocate_exception(i64 128) #3, !dbg !3271
  %29 = bitcast i8* %exception16 to %class.cRuntimeError*, !dbg !3271
  invoke void (%class.cRuntimeError*, i32, ...) @_ZN13cRuntimeErrorC1E12OppErrorCodez(%class.cRuntimeError* %29, i32 16)
          to label %invoke.cont18 unwind label %lpad17, !dbg !3272

invoke.cont18:                                    ; preds = %if.then15
  invoke void @__cxa_throw(i8* %exception16, i8* bitcast ({ i8*, i8*, i8* }* @_ZTI13cRuntimeError to i8*), i8* bitcast (void (%class.cRuntimeError*)* @_ZN13cRuntimeErrorD2Ev to i8*)) #15
          to label %unreachable unwind label %lpad7, !dbg !3271

lpad17:                                           ; preds = %if.then15
  %30 = landingpad { i8*, i32 }
          cleanup, !dbg !3273
  %31 = extractvalue { i8*, i32 } %30, 0, !dbg !3273
  store i8* %31, i8** %exn.slot, align 8, !dbg !3273
  %32 = extractvalue { i8*, i32 } %30, 1, !dbg !3273
  store i32 %32, i32* %ehselector.slot, align 4, !dbg !3273
  call void @__cxa_free_exception(i8* %exception16) #3, !dbg !3271
  br label %ehcleanup, !dbg !3271

if.end19:                                         ; preds = %sw.bb13
  %33 = load %"struct.cDynamicExpression::Value"*, %"struct.cDynamicExpression::Value"** %stk, align 8, !dbg !3274
  %34 = load i32, i32* %tos, align 4, !dbg !3275
  %inc20 = add nsw i32 %34, 1, !dbg !3275
  store i32 %inc20, i32* %tos, align 4, !dbg !3275
  %idxprom21 = sext i32 %inc20 to i64, !dbg !3274
  %arrayidx22 = getelementptr inbounds %"struct.cDynamicExpression::Value", %"struct.cDynamicExpression::Value"* %33, i64 %idxprom21, !dbg !3274
  %35 = load %"class.cDynamicExpression::Elem"*, %"class.cDynamicExpression::Elem"** %e, align 8, !dbg !3276
  %36 = getelementptr inbounds %"class.cDynamicExpression::Elem", %"class.cDynamicExpression::Elem"* %35, i32 0, i32 1, !dbg !3277
  %d = bitcast %union.anon.3* %36 to %struct.anon*, !dbg !3277
  %d23 = getelementptr inbounds %struct.anon, %struct.anon* %d, i32 0, i32 0, !dbg !3278
  %37 = load double, double* %d23, align 8, !dbg !3278
  %38 = load %"class.cDynamicExpression::Elem"*, %"class.cDynamicExpression::Elem"** %e, align 8, !dbg !3279
  %39 = getelementptr inbounds %"class.cDynamicExpression::Elem", %"class.cDynamicExpression::Elem"* %38, i32 0, i32 1, !dbg !3280
  %d24 = bitcast %union.anon.3* %39 to %struct.anon*, !dbg !3280
  %unit = getelementptr inbounds %struct.anon, %struct.anon* %d24, i32 0, i32 1, !dbg !3281
  %40 = load i8*, i8** %unit, align 8, !dbg !3281
  invoke void @_ZN18cDynamicExpression5Value3setEdPKc(%"struct.cDynamicExpression::Value"* %arrayidx22, double %37, i8* %40)
          to label %invoke.cont25 unwind label %lpad7, !dbg !3282

invoke.cont25:                                    ; preds = %if.end19
  br label %sw.epilog1825, !dbg !3283

sw.bb26:                                          ; preds = %for.body
  %41 = load i32, i32* %tos, align 4, !dbg !3284
  %cmp27 = icmp sge i32 %41, 19, !dbg !3286
  br i1 %cmp27, label %if.then28, label %if.end32, !dbg !3287

if.then28:                                        ; preds = %sw.bb26
  %exception29 = call i8* @__cxa_allocate_exception(i64 128) #3, !dbg !3288
  %42 = bitcast i8* %exception29 to %class.cRuntimeError*, !dbg !3288
  invoke void (%class.cRuntimeError*, i32, ...) @_ZN13cRuntimeErrorC1E12OppErrorCodez(%class.cRuntimeError* %42, i32 16)
          to label %invoke.cont31 unwind label %lpad30, !dbg !3289

invoke.cont31:                                    ; preds = %if.then28
  invoke void @__cxa_throw(i8* %exception29, i8* bitcast ({ i8*, i8*, i8* }* @_ZTI13cRuntimeError to i8*), i8* bitcast (void (%class.cRuntimeError*)* @_ZN13cRuntimeErrorD2Ev to i8*)) #15
          to label %unreachable unwind label %lpad7, !dbg !3288

lpad30:                                           ; preds = %if.then28
  %43 = landingpad { i8*, i32 }
          cleanup, !dbg !3290
  %44 = extractvalue { i8*, i32 } %43, 0, !dbg !3290
  store i8* %44, i8** %exn.slot, align 8, !dbg !3290
  %45 = extractvalue { i8*, i32 } %43, 1, !dbg !3290
  store i32 %45, i32* %ehselector.slot, align 4, !dbg !3290
  call void @__cxa_free_exception(i8* %exception29) #3, !dbg !3288
  br label %ehcleanup, !dbg !3288

if.end32:                                         ; preds = %sw.bb26
  %46 = load %"class.cDynamicExpression::Elem"*, %"class.cDynamicExpression::Elem"** %e, align 8, !dbg !3291
  %47 = getelementptr inbounds %"class.cDynamicExpression::Elem", %"class.cDynamicExpression::Elem"* %46, i32 0, i32 1, !dbg !3292
  %s = bitcast %union.anon.3* %47 to i8**, !dbg !3292
  %48 = load i8*, i8** %s, align 8, !dbg !3292
  %49 = load %"struct.cDynamicExpression::Value"*, %"struct.cDynamicExpression::Value"** %stk, align 8, !dbg !3293
  %50 = load i32, i32* %tos, align 4, !dbg !3294
  %inc33 = add nsw i32 %50, 1, !dbg !3294
  store i32 %inc33, i32* %tos, align 4, !dbg !3294
  %idxprom34 = sext i32 %inc33 to i64, !dbg !3293
  %arrayidx35 = getelementptr inbounds %"struct.cDynamicExpression::Value", %"struct.cDynamicExpression::Value"* %49, i64 %idxprom34, !dbg !3293
  invoke void @_ZN18cDynamicExpression5ValueaSEPKc(%"struct.cDynamicExpression::Value"* %arrayidx35, i8* %48)
          to label %invoke.cont36 unwind label %lpad7, !dbg !3295

invoke.cont36:                                    ; preds = %if.end32
  br label %sw.epilog1825, !dbg !3296

sw.bb37:                                          ; preds = %for.body
  %51 = load i32, i32* %tos, align 4, !dbg !3297
  %cmp38 = icmp sge i32 %51, 19, !dbg !3299
  br i1 %cmp38, label %if.then39, label %if.end43, !dbg !3300

if.then39:                                        ; preds = %sw.bb37
  %exception40 = call i8* @__cxa_allocate_exception(i64 128) #3, !dbg !3301
  %52 = bitcast i8* %exception40 to %class.cRuntimeError*, !dbg !3301
  invoke void (%class.cRuntimeError*, i32, ...) @_ZN13cRuntimeErrorC1E12OppErrorCodez(%class.cRuntimeError* %52, i32 16)
          to label %invoke.cont42 unwind label %lpad41, !dbg !3302

invoke.cont42:                                    ; preds = %if.then39
  invoke void @__cxa_throw(i8* %exception40, i8* bitcast ({ i8*, i8*, i8* }* @_ZTI13cRuntimeError to i8*), i8* bitcast (void (%class.cRuntimeError*)* @_ZN13cRuntimeErrorD2Ev to i8*)) #15
          to label %unreachable unwind label %lpad7, !dbg !3301

lpad41:                                           ; preds = %if.then39
  %53 = landingpad { i8*, i32 }
          cleanup, !dbg !3303
  %54 = extractvalue { i8*, i32 } %53, 0, !dbg !3303
  store i8* %54, i8** %exn.slot, align 8, !dbg !3303
  %55 = extractvalue { i8*, i32 } %53, 1, !dbg !3303
  store i32 %55, i32* %ehselector.slot, align 4, !dbg !3303
  call void @__cxa_free_exception(i8* %exception40) #3, !dbg !3301
  br label %ehcleanup, !dbg !3301

if.end43:                                         ; preds = %sw.bb37
  %56 = load %"class.cDynamicExpression::Elem"*, %"class.cDynamicExpression::Elem"** %e, align 8, !dbg !3304
  %57 = getelementptr inbounds %"class.cDynamicExpression::Elem", %"class.cDynamicExpression::Elem"* %56, i32 0, i32 1, !dbg !3305
  %x = bitcast %union.anon.3* %57 to %class.cXMLElement**, !dbg !3305
  %58 = load %class.cXMLElement*, %class.cXMLElement** %x, align 8, !dbg !3305
  %59 = load %"struct.cDynamicExpression::Value"*, %"struct.cDynamicExpression::Value"** %stk, align 8, !dbg !3306
  %60 = load i32, i32* %tos, align 4, !dbg !3307
  %inc44 = add nsw i32 %60, 1, !dbg !3307
  store i32 %inc44, i32* %tos, align 4, !dbg !3307
  %idxprom45 = sext i32 %inc44 to i64, !dbg !3306
  %arrayidx46 = getelementptr inbounds %"struct.cDynamicExpression::Value", %"struct.cDynamicExpression::Value"* %59, i64 %idxprom45, !dbg !3306
  invoke void @_ZN18cDynamicExpression5ValueaSEP11cXMLElement(%"struct.cDynamicExpression::Value"* %arrayidx46, %class.cXMLElement* %58)
          to label %invoke.cont47 unwind label %lpad7, !dbg !3308

invoke.cont47:                                    ; preds = %if.end43
  br label %sw.epilog1825, !dbg !3309

sw.bb48:                                          ; preds = %for.body
  %61 = load %"class.cDynamicExpression::Elem"*, %"class.cDynamicExpression::Elem"** %e, align 8, !dbg !3310
  %62 = getelementptr inbounds %"class.cDynamicExpression::Elem", %"class.cDynamicExpression::Elem"* %61, i32 0, i32 1, !dbg !3311
  %f49 = bitcast %union.anon.3* %62 to %class.cMathFunction**, !dbg !3311
  %63 = load %class.cMathFunction*, %class.cMathFunction** %f49, align 8, !dbg !3311
  %call51 = invoke i32 @_ZNK13cMathFunction10getNumArgsEv(%class.cMathFunction* %63)
          to label %invoke.cont50 unwind label %lpad7, !dbg !3312

invoke.cont50:                                    ; preds = %sw.bb48
  switch i32 %call51, label %sw.default [
    i32 0, label %sw.bb52
    i32 1, label %sw.bb62
    i32 2, label %sw.bb105
    i32 3, label %sw.bb168
    i32 4, label %sw.bb251
  ], !dbg !3313

sw.bb52:                                          ; preds = %invoke.cont50
  %64 = load %"class.cDynamicExpression::Elem"*, %"class.cDynamicExpression::Elem"** %e, align 8, !dbg !3314
  %65 = getelementptr inbounds %"class.cDynamicExpression::Elem", %"class.cDynamicExpression::Elem"* %64, i32 0, i32 1, !dbg !3316
  %f53 = bitcast %union.anon.3* %65 to %class.cMathFunction**, !dbg !3316
  %66 = load %class.cMathFunction*, %class.cMathFunction** %f53, align 8, !dbg !3316
  %call55 = invoke double ()* @_ZNK13cMathFunction16getMathFuncNoArgEv(%class.cMathFunction* %66)
          to label %invoke.cont54 unwind label %lpad7, !dbg !3317

invoke.cont54:                                    ; preds = %sw.bb52
  %call57 = invoke double %call55()
          to label %invoke.cont56 unwind label %lpad7, !dbg !3314

invoke.cont56:                                    ; preds = %invoke.cont54
  %67 = load %"struct.cDynamicExpression::Value"*, %"struct.cDynamicExpression::Value"** %stk, align 8, !dbg !3318
  %68 = load i32, i32* %tos, align 4, !dbg !3319
  %inc58 = add nsw i32 %68, 1, !dbg !3319
  store i32 %inc58, i32* %tos, align 4, !dbg !3319
  %idxprom59 = sext i32 %inc58 to i64, !dbg !3318
  %arrayidx60 = getelementptr inbounds %"struct.cDynamicExpression::Value", %"struct.cDynamicExpression::Value"* %67, i64 %idxprom59, !dbg !3318
  invoke void @_ZN18cDynamicExpression5ValueaSEd(%"struct.cDynamicExpression::Value"* %arrayidx60, double %call57)
          to label %invoke.cont61 unwind label %lpad7, !dbg !3320

invoke.cont61:                                    ; preds = %invoke.cont56
  br label %sw.epilog, !dbg !3321

sw.bb62:                                          ; preds = %invoke.cont50
  %69 = load i32, i32* %tos, align 4, !dbg !3322
  %cmp63 = icmp slt i32 %69, 0, !dbg !3324
  br i1 %cmp63, label %if.then64, label %if.end68, !dbg !3325

if.then64:                                        ; preds = %sw.bb62
  %exception65 = call i8* @__cxa_allocate_exception(i64 128) #3, !dbg !3326
  %70 = bitcast i8* %exception65 to %class.cRuntimeError*, !dbg !3326
  invoke void (%class.cRuntimeError*, i32, ...) @_ZN13cRuntimeErrorC1E12OppErrorCodez(%class.cRuntimeError* %70, i32 17)
          to label %invoke.cont67 unwind label %lpad66, !dbg !3327

invoke.cont67:                                    ; preds = %if.then64
  invoke void @__cxa_throw(i8* %exception65, i8* bitcast ({ i8*, i8*, i8* }* @_ZTI13cRuntimeError to i8*), i8* bitcast (void (%class.cRuntimeError*)* @_ZN13cRuntimeErrorD2Ev to i8*)) #15
          to label %unreachable unwind label %lpad7, !dbg !3326

lpad66:                                           ; preds = %if.then64
  %71 = landingpad { i8*, i32 }
          cleanup, !dbg !3328
  %72 = extractvalue { i8*, i32 } %71, 0, !dbg !3328
  store i8* %72, i8** %exn.slot, align 8, !dbg !3328
  %73 = extractvalue { i8*, i32 } %71, 1, !dbg !3328
  store i32 %73, i32* %ehselector.slot, align 4, !dbg !3328
  call void @__cxa_free_exception(i8* %exception65) #3, !dbg !3326
  br label %ehcleanup, !dbg !3326

if.end68:                                         ; preds = %sw.bb62
  %74 = load %"struct.cDynamicExpression::Value"*, %"struct.cDynamicExpression::Value"** %stk, align 8, !dbg !3329
  %75 = load i32, i32* %tos, align 4, !dbg !3331
  %idxprom69 = sext i32 %75 to i64, !dbg !3329
  %arrayidx70 = getelementptr inbounds %"struct.cDynamicExpression::Value", %"struct.cDynamicExpression::Value"* %74, i64 %idxprom69, !dbg !3329
  %type71 = getelementptr inbounds %"struct.cDynamicExpression::Value", %"struct.cDynamicExpression::Value"* %arrayidx70, i32 0, i32 0, !dbg !3332
  %76 = load i32, i32* %type71, align 8, !dbg !3332
  %cmp72 = icmp ne i32 %76, 68, !dbg !3333
  br i1 %cmp72, label %if.then73, label %if.end80, !dbg !3334

if.then73:                                        ; preds = %if.end68
  %exception74 = call i8* @__cxa_allocate_exception(i64 128) #3, !dbg !3335
  %77 = bitcast i8* %exception74 to %class.cRuntimeError*, !dbg !3335
  %78 = load %"class.cDynamicExpression::Elem"*, %"class.cDynamicExpression::Elem"** %e, align 8, !dbg !3336
  %79 = getelementptr inbounds %"class.cDynamicExpression::Elem", %"class.cDynamicExpression::Elem"* %78, i32 0, i32 1, !dbg !3337
  %f75 = bitcast %union.anon.3* %79 to %class.cMathFunction**, !dbg !3337
  %80 = load %class.cMathFunction*, %class.cMathFunction** %f75, align 8, !dbg !3337
  %81 = bitcast %class.cMathFunction* %80 to %class.cNamedObject*, !dbg !3338
  %82 = bitcast %class.cNamedObject* %81 to i8* (%class.cNamedObject*)***, !dbg !3338
  %vtable = load i8* (%class.cNamedObject*)**, i8* (%class.cNamedObject*)*** %82, align 8, !dbg !3338
  %vfn = getelementptr inbounds i8* (%class.cNamedObject*)*, i8* (%class.cNamedObject*)** %vtable, i64 6, !dbg !3338
  %83 = load i8* (%class.cNamedObject*)*, i8* (%class.cNamedObject*)** %vfn, align 8, !dbg !3338
  %call78 = invoke i8* %83(%class.cNamedObject* %81)
          to label %invoke.cont77 unwind label %lpad76, !dbg !3338

invoke.cont77:                                    ; preds = %if.then73
  invoke void (%class.cRuntimeError*, i32, ...) @_ZN13cRuntimeErrorC1E12OppErrorCodez(%class.cRuntimeError* %77, i32 11, i8* %call78)
          to label %invoke.cont79 unwind label %lpad76, !dbg !3339

invoke.cont79:                                    ; preds = %invoke.cont77
  invoke void @__cxa_throw(i8* %exception74, i8* bitcast ({ i8*, i8*, i8* }* @_ZTI13cRuntimeError to i8*), i8* bitcast (void (%class.cRuntimeError*)* @_ZN13cRuntimeErrorD2Ev to i8*)) #15
          to label %unreachable unwind label %lpad7, !dbg !3335

lpad76:                                           ; preds = %invoke.cont77, %if.then73
  %84 = landingpad { i8*, i32 }
          cleanup, !dbg !3340
  %85 = extractvalue { i8*, i32 } %84, 0, !dbg !3340
  store i8* %85, i8** %exn.slot, align 8, !dbg !3340
  %86 = extractvalue { i8*, i32 } %84, 1, !dbg !3340
  store i32 %86, i32* %ehselector.slot, align 4, !dbg !3340
  call void @__cxa_free_exception(i8* %exception74) #3, !dbg !3335
  br label %ehcleanup, !dbg !3335

if.end80:                                         ; preds = %if.end68
  %87 = load %"struct.cDynamicExpression::Value"*, %"struct.cDynamicExpression::Value"** %stk, align 8, !dbg !3341
  %88 = load i32, i32* %tos, align 4, !dbg !3343
  %idxprom81 = sext i32 %88 to i64, !dbg !3341
  %arrayidx82 = getelementptr inbounds %"struct.cDynamicExpression::Value", %"struct.cDynamicExpression::Value"* %87, i64 %idxprom81, !dbg !3341
  %dblunit = getelementptr inbounds %"struct.cDynamicExpression::Value", %"struct.cDynamicExpression::Value"* %arrayidx82, i32 0, i32 3, !dbg !3344
  %89 = load i8*, i8** %dblunit, align 8, !dbg !3344
  %call84 = invoke zeroext i1 @_Z11opp_isemptyPKc(i8* %89)
          to label %invoke.cont83 unwind label %lpad7, !dbg !3345

invoke.cont83:                                    ; preds = %if.end80
  br i1 %call84, label %if.end94, label %if.then85, !dbg !3346

if.then85:                                        ; preds = %invoke.cont83
  %exception86 = call i8* @__cxa_allocate_exception(i64 128) #3, !dbg !3347
  %90 = bitcast i8* %exception86 to %class.cRuntimeError*, !dbg !3347
  %91 = load %"class.cDynamicExpression::Elem"*, %"class.cDynamicExpression::Elem"** %e, align 8, !dbg !3348
  %92 = getelementptr inbounds %"class.cDynamicExpression::Elem", %"class.cDynamicExpression::Elem"* %91, i32 0, i32 1, !dbg !3349
  %f87 = bitcast %union.anon.3* %92 to %class.cMathFunction**, !dbg !3349
  %93 = load %class.cMathFunction*, %class.cMathFunction** %f87, align 8, !dbg !3349
  %94 = bitcast %class.cMathFunction* %93 to %class.cNamedObject*, !dbg !3350
  %95 = bitcast %class.cNamedObject* %94 to i8* (%class.cNamedObject*)***, !dbg !3350
  %vtable88 = load i8* (%class.cNamedObject*)**, i8* (%class.cNamedObject*)*** %95, align 8, !dbg !3350
  %vfn89 = getelementptr inbounds i8* (%class.cNamedObject*)*, i8* (%class.cNamedObject*)** %vtable88, i64 6, !dbg !3350
  %96 = load i8* (%class.cNamedObject*)*, i8* (%class.cNamedObject*)** %vfn89, align 8, !dbg !3350
  %call92 = invoke i8* %96(%class.cNamedObject* %94)
          to label %invoke.cont91 unwind label %lpad90, !dbg !3350

invoke.cont91:                                    ; preds = %if.then85
  invoke void (%class.cRuntimeError*, i32, ...) @_ZN13cRuntimeErrorC1E12OppErrorCodez(%class.cRuntimeError* %90, i32 10, i8* %call92)
          to label %invoke.cont93 unwind label %lpad90, !dbg !3351

invoke.cont93:                                    ; preds = %invoke.cont91
  invoke void @__cxa_throw(i8* %exception86, i8* bitcast ({ i8*, i8*, i8* }* @_ZTI13cRuntimeError to i8*), i8* bitcast (void (%class.cRuntimeError*)* @_ZN13cRuntimeErrorD2Ev to i8*)) #15
          to label %unreachable unwind label %lpad7, !dbg !3347

lpad90:                                           ; preds = %invoke.cont91, %if.then85
  %97 = landingpad { i8*, i32 }
          cleanup, !dbg !3352
  %98 = extractvalue { i8*, i32 } %97, 0, !dbg !3352
  store i8* %98, i8** %exn.slot, align 8, !dbg !3352
  %99 = extractvalue { i8*, i32 } %97, 1, !dbg !3352
  store i32 %99, i32* %ehselector.slot, align 4, !dbg !3352
  call void @__cxa_free_exception(i8* %exception86) #3, !dbg !3347
  br label %ehcleanup, !dbg !3347

if.end94:                                         ; preds = %invoke.cont83
  %100 = load %"class.cDynamicExpression::Elem"*, %"class.cDynamicExpression::Elem"** %e, align 8, !dbg !3353
  %101 = getelementptr inbounds %"class.cDynamicExpression::Elem", %"class.cDynamicExpression::Elem"* %100, i32 0, i32 1, !dbg !3354
  %f95 = bitcast %union.anon.3* %101 to %class.cMathFunction**, !dbg !3354
  %102 = load %class.cMathFunction*, %class.cMathFunction** %f95, align 8, !dbg !3354
  %call97 = invoke double (double)* @_ZNK13cMathFunction15getMathFunc1ArgEv(%class.cMathFunction* %102)
          to label %invoke.cont96 unwind label %lpad7, !dbg !3355

invoke.cont96:                                    ; preds = %if.end94
  %103 = load %"struct.cDynamicExpression::Value"*, %"struct.cDynamicExpression::Value"** %stk, align 8, !dbg !3356
  %104 = load i32, i32* %tos, align 4, !dbg !3357
  %idxprom98 = sext i32 %104 to i64, !dbg !3356
  %arrayidx99 = getelementptr inbounds %"struct.cDynamicExpression::Value", %"struct.cDynamicExpression::Value"* %103, i64 %idxprom98, !dbg !3356
  %dbl = getelementptr inbounds %"struct.cDynamicExpression::Value", %"struct.cDynamicExpression::Value"* %arrayidx99, i32 0, i32 2, !dbg !3358
  %105 = load double, double* %dbl, align 8, !dbg !3358
  %call101 = invoke double %call97(double %105)
          to label %invoke.cont100 unwind label %lpad7, !dbg !3353

invoke.cont100:                                   ; preds = %invoke.cont96
  %106 = load %"struct.cDynamicExpression::Value"*, %"struct.cDynamicExpression::Value"** %stk, align 8, !dbg !3359
  %107 = load i32, i32* %tos, align 4, !dbg !3360
  %idxprom102 = sext i32 %107 to i64, !dbg !3359
  %arrayidx103 = getelementptr inbounds %"struct.cDynamicExpression::Value", %"struct.cDynamicExpression::Value"* %106, i64 %idxprom102, !dbg !3359
  invoke void @_ZN18cDynamicExpression5ValueaSEd(%"struct.cDynamicExpression::Value"* %arrayidx103, double %call101)
          to label %invoke.cont104 unwind label %lpad7, !dbg !3361

invoke.cont104:                                   ; preds = %invoke.cont100
  br label %sw.epilog, !dbg !3362

sw.bb105:                                         ; preds = %invoke.cont50
  %108 = load i32, i32* %tos, align 4, !dbg !3363
  %cmp106 = icmp slt i32 %108, 1, !dbg !3365
  br i1 %cmp106, label %if.then107, label %if.end111, !dbg !3366

if.then107:                                       ; preds = %sw.bb105
  %exception108 = call i8* @__cxa_allocate_exception(i64 128) #3, !dbg !3367
  %109 = bitcast i8* %exception108 to %class.cRuntimeError*, !dbg !3367
  invoke void (%class.cRuntimeError*, i32, ...) @_ZN13cRuntimeErrorC1E12OppErrorCodez(%class.cRuntimeError* %109, i32 17)
          to label %invoke.cont110 unwind label %lpad109, !dbg !3368

invoke.cont110:                                   ; preds = %if.then107
  invoke void @__cxa_throw(i8* %exception108, i8* bitcast ({ i8*, i8*, i8* }* @_ZTI13cRuntimeError to i8*), i8* bitcast (void (%class.cRuntimeError*)* @_ZN13cRuntimeErrorD2Ev to i8*)) #15
          to label %unreachable unwind label %lpad7, !dbg !3367

lpad109:                                          ; preds = %if.then107
  %110 = landingpad { i8*, i32 }
          cleanup, !dbg !3369
  %111 = extractvalue { i8*, i32 } %110, 0, !dbg !3369
  store i8* %111, i8** %exn.slot, align 8, !dbg !3369
  %112 = extractvalue { i8*, i32 } %110, 1, !dbg !3369
  store i32 %112, i32* %ehselector.slot, align 4, !dbg !3369
  call void @__cxa_free_exception(i8* %exception108) #3, !dbg !3367
  br label %ehcleanup, !dbg !3367

if.end111:                                        ; preds = %sw.bb105
  %113 = load %"struct.cDynamicExpression::Value"*, %"struct.cDynamicExpression::Value"** %stk, align 8, !dbg !3370
  %114 = load i32, i32* %tos, align 4, !dbg !3372
  %idxprom112 = sext i32 %114 to i64, !dbg !3370
  %arrayidx113 = getelementptr inbounds %"struct.cDynamicExpression::Value", %"struct.cDynamicExpression::Value"* %113, i64 %idxprom112, !dbg !3370
  %type114 = getelementptr inbounds %"struct.cDynamicExpression::Value", %"struct.cDynamicExpression::Value"* %arrayidx113, i32 0, i32 0, !dbg !3373
  %115 = load i32, i32* %type114, align 8, !dbg !3373
  %cmp115 = icmp ne i32 %115, 68, !dbg !3374
  br i1 %cmp115, label %if.then120, label %lor.lhs.false, !dbg !3375

lor.lhs.false:                                    ; preds = %if.end111
  %116 = load %"struct.cDynamicExpression::Value"*, %"struct.cDynamicExpression::Value"** %stk, align 8, !dbg !3376
  %117 = load i32, i32* %tos, align 4, !dbg !3377
  %sub = sub nsw i32 %117, 1, !dbg !3378
  %idxprom116 = sext i32 %sub to i64, !dbg !3376
  %arrayidx117 = getelementptr inbounds %"struct.cDynamicExpression::Value", %"struct.cDynamicExpression::Value"* %116, i64 %idxprom116, !dbg !3376
  %type118 = getelementptr inbounds %"struct.cDynamicExpression::Value", %"struct.cDynamicExpression::Value"* %arrayidx117, i32 0, i32 0, !dbg !3379
  %118 = load i32, i32* %type118, align 8, !dbg !3379
  %cmp119 = icmp ne i32 %118, 68, !dbg !3380
  br i1 %cmp119, label %if.then120, label %if.end129, !dbg !3381

if.then120:                                       ; preds = %lor.lhs.false, %if.end111
  %exception121 = call i8* @__cxa_allocate_exception(i64 128) #3, !dbg !3382
  %119 = bitcast i8* %exception121 to %class.cRuntimeError*, !dbg !3382
  %120 = load %"class.cDynamicExpression::Elem"*, %"class.cDynamicExpression::Elem"** %e, align 8, !dbg !3383
  %121 = getelementptr inbounds %"class.cDynamicExpression::Elem", %"class.cDynamicExpression::Elem"* %120, i32 0, i32 1, !dbg !3384
  %f122 = bitcast %union.anon.3* %121 to %class.cMathFunction**, !dbg !3384
  %122 = load %class.cMathFunction*, %class.cMathFunction** %f122, align 8, !dbg !3384
  %123 = bitcast %class.cMathFunction* %122 to %class.cNamedObject*, !dbg !3385
  %124 = bitcast %class.cNamedObject* %123 to i8* (%class.cNamedObject*)***, !dbg !3385
  %vtable123 = load i8* (%class.cNamedObject*)**, i8* (%class.cNamedObject*)*** %124, align 8, !dbg !3385
  %vfn124 = getelementptr inbounds i8* (%class.cNamedObject*)*, i8* (%class.cNamedObject*)** %vtable123, i64 6, !dbg !3385
  %125 = load i8* (%class.cNamedObject*)*, i8* (%class.cNamedObject*)** %vfn124, align 8, !dbg !3385
  %call127 = invoke i8* %125(%class.cNamedObject* %123)
          to label %invoke.cont126 unwind label %lpad125, !dbg !3385

invoke.cont126:                                   ; preds = %if.then120
  invoke void (%class.cRuntimeError*, i32, ...) @_ZN13cRuntimeErrorC1E12OppErrorCodez(%class.cRuntimeError* %119, i32 11, i8* %call127)
          to label %invoke.cont128 unwind label %lpad125, !dbg !3386

invoke.cont128:                                   ; preds = %invoke.cont126
  invoke void @__cxa_throw(i8* %exception121, i8* bitcast ({ i8*, i8*, i8* }* @_ZTI13cRuntimeError to i8*), i8* bitcast (void (%class.cRuntimeError*)* @_ZN13cRuntimeErrorD2Ev to i8*)) #15
          to label %unreachable unwind label %lpad7, !dbg !3382

lpad125:                                          ; preds = %invoke.cont126, %if.then120
  %126 = landingpad { i8*, i32 }
          cleanup, !dbg !3387
  %127 = extractvalue { i8*, i32 } %126, 0, !dbg !3387
  store i8* %127, i8** %exn.slot, align 8, !dbg !3387
  %128 = extractvalue { i8*, i32 } %126, 1, !dbg !3387
  store i32 %128, i32* %ehselector.slot, align 4, !dbg !3387
  call void @__cxa_free_exception(i8* %exception121) #3, !dbg !3382
  br label %ehcleanup, !dbg !3382

if.end129:                                        ; preds = %lor.lhs.false
  %129 = load %"struct.cDynamicExpression::Value"*, %"struct.cDynamicExpression::Value"** %stk, align 8, !dbg !3388
  %130 = load i32, i32* %tos, align 4, !dbg !3390
  %idxprom130 = sext i32 %130 to i64, !dbg !3388
  %arrayidx131 = getelementptr inbounds %"struct.cDynamicExpression::Value", %"struct.cDynamicExpression::Value"* %129, i64 %idxprom130, !dbg !3388
  %dblunit132 = getelementptr inbounds %"struct.cDynamicExpression::Value", %"struct.cDynamicExpression::Value"* %arrayidx131, i32 0, i32 3, !dbg !3391
  %131 = load i8*, i8** %dblunit132, align 8, !dbg !3391
  %call134 = invoke zeroext i1 @_Z11opp_isemptyPKc(i8* %131)
          to label %invoke.cont133 unwind label %lpad7, !dbg !3392

invoke.cont133:                                   ; preds = %if.end129
  br i1 %call134, label %lor.lhs.false135, label %if.then142, !dbg !3393

lor.lhs.false135:                                 ; preds = %invoke.cont133
  %132 = load %"struct.cDynamicExpression::Value"*, %"struct.cDynamicExpression::Value"** %stk, align 8, !dbg !3394
  %133 = load i32, i32* %tos, align 4, !dbg !3395
  %sub136 = sub nsw i32 %133, 1, !dbg !3396
  %idxprom137 = sext i32 %sub136 to i64, !dbg !3394
  %arrayidx138 = getelementptr inbounds %"struct.cDynamicExpression::Value", %"struct.cDynamicExpression::Value"* %132, i64 %idxprom137, !dbg !3394
  %dblunit139 = getelementptr inbounds %"struct.cDynamicExpression::Value", %"struct.cDynamicExpression::Value"* %arrayidx138, i32 0, i32 3, !dbg !3397
  %134 = load i8*, i8** %dblunit139, align 8, !dbg !3397
  %call141 = invoke zeroext i1 @_Z11opp_isemptyPKc(i8* %134)
          to label %invoke.cont140 unwind label %lpad7, !dbg !3398

invoke.cont140:                                   ; preds = %lor.lhs.false135
  br i1 %call141, label %if.end151, label %if.then142, !dbg !3399

if.then142:                                       ; preds = %invoke.cont140, %invoke.cont133
  %exception143 = call i8* @__cxa_allocate_exception(i64 128) #3, !dbg !3400
  %135 = bitcast i8* %exception143 to %class.cRuntimeError*, !dbg !3400
  %136 = load %"class.cDynamicExpression::Elem"*, %"class.cDynamicExpression::Elem"** %e, align 8, !dbg !3401
  %137 = getelementptr inbounds %"class.cDynamicExpression::Elem", %"class.cDynamicExpression::Elem"* %136, i32 0, i32 1, !dbg !3402
  %f144 = bitcast %union.anon.3* %137 to %class.cMathFunction**, !dbg !3402
  %138 = load %class.cMathFunction*, %class.cMathFunction** %f144, align 8, !dbg !3402
  %139 = bitcast %class.cMathFunction* %138 to %class.cNamedObject*, !dbg !3403
  %140 = bitcast %class.cNamedObject* %139 to i8* (%class.cNamedObject*)***, !dbg !3403
  %vtable145 = load i8* (%class.cNamedObject*)**, i8* (%class.cNamedObject*)*** %140, align 8, !dbg !3403
  %vfn146 = getelementptr inbounds i8* (%class.cNamedObject*)*, i8* (%class.cNamedObject*)** %vtable145, i64 6, !dbg !3403
  %141 = load i8* (%class.cNamedObject*)*, i8* (%class.cNamedObject*)** %vfn146, align 8, !dbg !3403
  %call149 = invoke i8* %141(%class.cNamedObject* %139)
          to label %invoke.cont148 unwind label %lpad147, !dbg !3403

invoke.cont148:                                   ; preds = %if.then142
  invoke void (%class.cRuntimeError*, i32, ...) @_ZN13cRuntimeErrorC1E12OppErrorCodez(%class.cRuntimeError* %135, i32 10, i8* %call149)
          to label %invoke.cont150 unwind label %lpad147, !dbg !3404

invoke.cont150:                                   ; preds = %invoke.cont148
  invoke void @__cxa_throw(i8* %exception143, i8* bitcast ({ i8*, i8*, i8* }* @_ZTI13cRuntimeError to i8*), i8* bitcast (void (%class.cRuntimeError*)* @_ZN13cRuntimeErrorD2Ev to i8*)) #15
          to label %unreachable unwind label %lpad7, !dbg !3400

lpad147:                                          ; preds = %invoke.cont148, %if.then142
  %142 = landingpad { i8*, i32 }
          cleanup, !dbg !3405
  %143 = extractvalue { i8*, i32 } %142, 0, !dbg !3405
  store i8* %143, i8** %exn.slot, align 8, !dbg !3405
  %144 = extractvalue { i8*, i32 } %142, 1, !dbg !3405
  store i32 %144, i32* %ehselector.slot, align 4, !dbg !3405
  call void @__cxa_free_exception(i8* %exception143) #3, !dbg !3400
  br label %ehcleanup, !dbg !3400

if.end151:                                        ; preds = %invoke.cont140
  %145 = load %"class.cDynamicExpression::Elem"*, %"class.cDynamicExpression::Elem"** %e, align 8, !dbg !3406
  %146 = getelementptr inbounds %"class.cDynamicExpression::Elem", %"class.cDynamicExpression::Elem"* %145, i32 0, i32 1, !dbg !3407
  %f152 = bitcast %union.anon.3* %146 to %class.cMathFunction**, !dbg !3407
  %147 = load %class.cMathFunction*, %class.cMathFunction** %f152, align 8, !dbg !3407
  %call154 = invoke double (double, double)* @_ZNK13cMathFunction16getMathFunc2ArgsEv(%class.cMathFunction* %147)
          to label %invoke.cont153 unwind label %lpad7, !dbg !3408

invoke.cont153:                                   ; preds = %if.end151
  %148 = load %"struct.cDynamicExpression::Value"*, %"struct.cDynamicExpression::Value"** %stk, align 8, !dbg !3409
  %149 = load i32, i32* %tos, align 4, !dbg !3410
  %sub155 = sub nsw i32 %149, 1, !dbg !3411
  %idxprom156 = sext i32 %sub155 to i64, !dbg !3409
  %arrayidx157 = getelementptr inbounds %"struct.cDynamicExpression::Value", %"struct.cDynamicExpression::Value"* %148, i64 %idxprom156, !dbg !3409
  %dbl158 = getelementptr inbounds %"struct.cDynamicExpression::Value", %"struct.cDynamicExpression::Value"* %arrayidx157, i32 0, i32 2, !dbg !3412
  %150 = load double, double* %dbl158, align 8, !dbg !3412
  %151 = load %"struct.cDynamicExpression::Value"*, %"struct.cDynamicExpression::Value"** %stk, align 8, !dbg !3413
  %152 = load i32, i32* %tos, align 4, !dbg !3414
  %idxprom159 = sext i32 %152 to i64, !dbg !3413
  %arrayidx160 = getelementptr inbounds %"struct.cDynamicExpression::Value", %"struct.cDynamicExpression::Value"* %151, i64 %idxprom159, !dbg !3413
  %dbl161 = getelementptr inbounds %"struct.cDynamicExpression::Value", %"struct.cDynamicExpression::Value"* %arrayidx160, i32 0, i32 2, !dbg !3415
  %153 = load double, double* %dbl161, align 8, !dbg !3415
  %call163 = invoke double %call154(double %150, double %153)
          to label %invoke.cont162 unwind label %lpad7, !dbg !3406

invoke.cont162:                                   ; preds = %invoke.cont153
  %154 = load %"struct.cDynamicExpression::Value"*, %"struct.cDynamicExpression::Value"** %stk, align 8, !dbg !3416
  %155 = load i32, i32* %tos, align 4, !dbg !3417
  %sub164 = sub nsw i32 %155, 1, !dbg !3418
  %idxprom165 = sext i32 %sub164 to i64, !dbg !3416
  %arrayidx166 = getelementptr inbounds %"struct.cDynamicExpression::Value", %"struct.cDynamicExpression::Value"* %154, i64 %idxprom165, !dbg !3416
  invoke void @_ZN18cDynamicExpression5ValueaSEd(%"struct.cDynamicExpression::Value"* %arrayidx166, double %call163)
          to label %invoke.cont167 unwind label %lpad7, !dbg !3419

invoke.cont167:                                   ; preds = %invoke.cont162
  %156 = load i32, i32* %tos, align 4, !dbg !3420
  %dec = add nsw i32 %156, -1, !dbg !3420
  store i32 %dec, i32* %tos, align 4, !dbg !3420
  br label %sw.epilog, !dbg !3421

sw.bb168:                                         ; preds = %invoke.cont50
  %157 = load i32, i32* %tos, align 4, !dbg !3422
  %cmp169 = icmp slt i32 %157, 2, !dbg !3424
  br i1 %cmp169, label %if.then170, label %if.end174, !dbg !3425

if.then170:                                       ; preds = %sw.bb168
  %exception171 = call i8* @__cxa_allocate_exception(i64 128) #3, !dbg !3426
  %158 = bitcast i8* %exception171 to %class.cRuntimeError*, !dbg !3426
  invoke void (%class.cRuntimeError*, i32, ...) @_ZN13cRuntimeErrorC1E12OppErrorCodez(%class.cRuntimeError* %158, i32 17)
          to label %invoke.cont173 unwind label %lpad172, !dbg !3427

invoke.cont173:                                   ; preds = %if.then170
  invoke void @__cxa_throw(i8* %exception171, i8* bitcast ({ i8*, i8*, i8* }* @_ZTI13cRuntimeError to i8*), i8* bitcast (void (%class.cRuntimeError*)* @_ZN13cRuntimeErrorD2Ev to i8*)) #15
          to label %unreachable unwind label %lpad7, !dbg !3426

lpad172:                                          ; preds = %if.then170
  %159 = landingpad { i8*, i32 }
          cleanup, !dbg !3428
  %160 = extractvalue { i8*, i32 } %159, 0, !dbg !3428
  store i8* %160, i8** %exn.slot, align 8, !dbg !3428
  %161 = extractvalue { i8*, i32 } %159, 1, !dbg !3428
  store i32 %161, i32* %ehselector.slot, align 4, !dbg !3428
  call void @__cxa_free_exception(i8* %exception171) #3, !dbg !3426
  br label %ehcleanup, !dbg !3426

if.end174:                                        ; preds = %sw.bb168
  %162 = load %"struct.cDynamicExpression::Value"*, %"struct.cDynamicExpression::Value"** %stk, align 8, !dbg !3429
  %163 = load i32, i32* %tos, align 4, !dbg !3431
  %idxprom175 = sext i32 %163 to i64, !dbg !3429
  %arrayidx176 = getelementptr inbounds %"struct.cDynamicExpression::Value", %"struct.cDynamicExpression::Value"* %162, i64 %idxprom175, !dbg !3429
  %type177 = getelementptr inbounds %"struct.cDynamicExpression::Value", %"struct.cDynamicExpression::Value"* %arrayidx176, i32 0, i32 0, !dbg !3432
  %164 = load i32, i32* %type177, align 8, !dbg !3432
  %cmp178 = icmp ne i32 %164, 68, !dbg !3433
  br i1 %cmp178, label %if.then191, label %lor.lhs.false179, !dbg !3434

lor.lhs.false179:                                 ; preds = %if.end174
  %165 = load %"struct.cDynamicExpression::Value"*, %"struct.cDynamicExpression::Value"** %stk, align 8, !dbg !3435
  %166 = load i32, i32* %tos, align 4, !dbg !3436
  %sub180 = sub nsw i32 %166, 1, !dbg !3437
  %idxprom181 = sext i32 %sub180 to i64, !dbg !3435
  %arrayidx182 = getelementptr inbounds %"struct.cDynamicExpression::Value", %"struct.cDynamicExpression::Value"* %165, i64 %idxprom181, !dbg !3435
  %type183 = getelementptr inbounds %"struct.cDynamicExpression::Value", %"struct.cDynamicExpression::Value"* %arrayidx182, i32 0, i32 0, !dbg !3438
  %167 = load i32, i32* %type183, align 8, !dbg !3438
  %cmp184 = icmp ne i32 %167, 68, !dbg !3439
  br i1 %cmp184, label %if.then191, label %lor.lhs.false185, !dbg !3440

lor.lhs.false185:                                 ; preds = %lor.lhs.false179
  %168 = load %"struct.cDynamicExpression::Value"*, %"struct.cDynamicExpression::Value"** %stk, align 8, !dbg !3441
  %169 = load i32, i32* %tos, align 4, !dbg !3442
  %sub186 = sub nsw i32 %169, 2, !dbg !3443
  %idxprom187 = sext i32 %sub186 to i64, !dbg !3441
  %arrayidx188 = getelementptr inbounds %"struct.cDynamicExpression::Value", %"struct.cDynamicExpression::Value"* %168, i64 %idxprom187, !dbg !3441
  %type189 = getelementptr inbounds %"struct.cDynamicExpression::Value", %"struct.cDynamicExpression::Value"* %arrayidx188, i32 0, i32 0, !dbg !3444
  %170 = load i32, i32* %type189, align 8, !dbg !3444
  %cmp190 = icmp ne i32 %170, 68, !dbg !3445
  br i1 %cmp190, label %if.then191, label %if.end200, !dbg !3446

if.then191:                                       ; preds = %lor.lhs.false185, %lor.lhs.false179, %if.end174
  %exception192 = call i8* @__cxa_allocate_exception(i64 128) #3, !dbg !3447
  %171 = bitcast i8* %exception192 to %class.cRuntimeError*, !dbg !3447
  %172 = load %"class.cDynamicExpression::Elem"*, %"class.cDynamicExpression::Elem"** %e, align 8, !dbg !3448
  %173 = getelementptr inbounds %"class.cDynamicExpression::Elem", %"class.cDynamicExpression::Elem"* %172, i32 0, i32 1, !dbg !3449
  %f193 = bitcast %union.anon.3* %173 to %class.cMathFunction**, !dbg !3449
  %174 = load %class.cMathFunction*, %class.cMathFunction** %f193, align 8, !dbg !3449
  %175 = bitcast %class.cMathFunction* %174 to %class.cNamedObject*, !dbg !3450
  %176 = bitcast %class.cNamedObject* %175 to i8* (%class.cNamedObject*)***, !dbg !3450
  %vtable194 = load i8* (%class.cNamedObject*)**, i8* (%class.cNamedObject*)*** %176, align 8, !dbg !3450
  %vfn195 = getelementptr inbounds i8* (%class.cNamedObject*)*, i8* (%class.cNamedObject*)** %vtable194, i64 6, !dbg !3450
  %177 = load i8* (%class.cNamedObject*)*, i8* (%class.cNamedObject*)** %vfn195, align 8, !dbg !3450
  %call198 = invoke i8* %177(%class.cNamedObject* %175)
          to label %invoke.cont197 unwind label %lpad196, !dbg !3450

invoke.cont197:                                   ; preds = %if.then191
  invoke void (%class.cRuntimeError*, i32, ...) @_ZN13cRuntimeErrorC1E12OppErrorCodez(%class.cRuntimeError* %171, i32 11, i8* %call198)
          to label %invoke.cont199 unwind label %lpad196, !dbg !3451

invoke.cont199:                                   ; preds = %invoke.cont197
  invoke void @__cxa_throw(i8* %exception192, i8* bitcast ({ i8*, i8*, i8* }* @_ZTI13cRuntimeError to i8*), i8* bitcast (void (%class.cRuntimeError*)* @_ZN13cRuntimeErrorD2Ev to i8*)) #15
          to label %unreachable unwind label %lpad7, !dbg !3447

lpad196:                                          ; preds = %invoke.cont197, %if.then191
  %178 = landingpad { i8*, i32 }
          cleanup, !dbg !3452
  %179 = extractvalue { i8*, i32 } %178, 0, !dbg !3452
  store i8* %179, i8** %exn.slot, align 8, !dbg !3452
  %180 = extractvalue { i8*, i32 } %178, 1, !dbg !3452
  store i32 %180, i32* %ehselector.slot, align 4, !dbg !3452
  call void @__cxa_free_exception(i8* %exception192) #3, !dbg !3447
  br label %ehcleanup, !dbg !3447

if.end200:                                        ; preds = %lor.lhs.false185
  %181 = load %"struct.cDynamicExpression::Value"*, %"struct.cDynamicExpression::Value"** %stk, align 8, !dbg !3453
  %182 = load i32, i32* %tos, align 4, !dbg !3455
  %idxprom201 = sext i32 %182 to i64, !dbg !3453
  %arrayidx202 = getelementptr inbounds %"struct.cDynamicExpression::Value", %"struct.cDynamicExpression::Value"* %181, i64 %idxprom201, !dbg !3453
  %dblunit203 = getelementptr inbounds %"struct.cDynamicExpression::Value", %"struct.cDynamicExpression::Value"* %arrayidx202, i32 0, i32 3, !dbg !3456
  %183 = load i8*, i8** %dblunit203, align 8, !dbg !3456
  %call205 = invoke zeroext i1 @_Z11opp_isemptyPKc(i8* %183)
          to label %invoke.cont204 unwind label %lpad7, !dbg !3457

invoke.cont204:                                   ; preds = %if.end200
  br i1 %call205, label %lor.lhs.false206, label %if.then220, !dbg !3458

lor.lhs.false206:                                 ; preds = %invoke.cont204
  %184 = load %"struct.cDynamicExpression::Value"*, %"struct.cDynamicExpression::Value"** %stk, align 8, !dbg !3459
  %185 = load i32, i32* %tos, align 4, !dbg !3460
  %sub207 = sub nsw i32 %185, 1, !dbg !3461
  %idxprom208 = sext i32 %sub207 to i64, !dbg !3459
  %arrayidx209 = getelementptr inbounds %"struct.cDynamicExpression::Value", %"struct.cDynamicExpression::Value"* %184, i64 %idxprom208, !dbg !3459
  %dblunit210 = getelementptr inbounds %"struct.cDynamicExpression::Value", %"struct.cDynamicExpression::Value"* %arrayidx209, i32 0, i32 3, !dbg !3462
  %186 = load i8*, i8** %dblunit210, align 8, !dbg !3462
  %call212 = invoke zeroext i1 @_Z11opp_isemptyPKc(i8* %186)
          to label %invoke.cont211 unwind label %lpad7, !dbg !3463

invoke.cont211:                                   ; preds = %lor.lhs.false206
  br i1 %call212, label %lor.lhs.false213, label %if.then220, !dbg !3464

lor.lhs.false213:                                 ; preds = %invoke.cont211
  %187 = load %"struct.cDynamicExpression::Value"*, %"struct.cDynamicExpression::Value"** %stk, align 8, !dbg !3465
  %188 = load i32, i32* %tos, align 4, !dbg !3466
  %sub214 = sub nsw i32 %188, 2, !dbg !3467
  %idxprom215 = sext i32 %sub214 to i64, !dbg !3465
  %arrayidx216 = getelementptr inbounds %"struct.cDynamicExpression::Value", %"struct.cDynamicExpression::Value"* %187, i64 %idxprom215, !dbg !3465
  %dblunit217 = getelementptr inbounds %"struct.cDynamicExpression::Value", %"struct.cDynamicExpression::Value"* %arrayidx216, i32 0, i32 3, !dbg !3468
  %189 = load i8*, i8** %dblunit217, align 8, !dbg !3468
  %call219 = invoke zeroext i1 @_Z11opp_isemptyPKc(i8* %189)
          to label %invoke.cont218 unwind label %lpad7, !dbg !3469

invoke.cont218:                                   ; preds = %lor.lhs.false213
  br i1 %call219, label %if.end229, label %if.then220, !dbg !3470

if.then220:                                       ; preds = %invoke.cont218, %invoke.cont211, %invoke.cont204
  %exception221 = call i8* @__cxa_allocate_exception(i64 128) #3, !dbg !3471
  %190 = bitcast i8* %exception221 to %class.cRuntimeError*, !dbg !3471
  %191 = load %"class.cDynamicExpression::Elem"*, %"class.cDynamicExpression::Elem"** %e, align 8, !dbg !3472
  %192 = getelementptr inbounds %"class.cDynamicExpression::Elem", %"class.cDynamicExpression::Elem"* %191, i32 0, i32 1, !dbg !3473
  %f222 = bitcast %union.anon.3* %192 to %class.cMathFunction**, !dbg !3473
  %193 = load %class.cMathFunction*, %class.cMathFunction** %f222, align 8, !dbg !3473
  %194 = bitcast %class.cMathFunction* %193 to %class.cNamedObject*, !dbg !3474
  %195 = bitcast %class.cNamedObject* %194 to i8* (%class.cNamedObject*)***, !dbg !3474
  %vtable223 = load i8* (%class.cNamedObject*)**, i8* (%class.cNamedObject*)*** %195, align 8, !dbg !3474
  %vfn224 = getelementptr inbounds i8* (%class.cNamedObject*)*, i8* (%class.cNamedObject*)** %vtable223, i64 6, !dbg !3474
  %196 = load i8* (%class.cNamedObject*)*, i8* (%class.cNamedObject*)** %vfn224, align 8, !dbg !3474
  %call227 = invoke i8* %196(%class.cNamedObject* %194)
          to label %invoke.cont226 unwind label %lpad225, !dbg !3474

invoke.cont226:                                   ; preds = %if.then220
  invoke void (%class.cRuntimeError*, i32, ...) @_ZN13cRuntimeErrorC1E12OppErrorCodez(%class.cRuntimeError* %190, i32 10, i8* %call227)
          to label %invoke.cont228 unwind label %lpad225, !dbg !3475

invoke.cont228:                                   ; preds = %invoke.cont226
  invoke void @__cxa_throw(i8* %exception221, i8* bitcast ({ i8*, i8*, i8* }* @_ZTI13cRuntimeError to i8*), i8* bitcast (void (%class.cRuntimeError*)* @_ZN13cRuntimeErrorD2Ev to i8*)) #15
          to label %unreachable unwind label %lpad7, !dbg !3471

lpad225:                                          ; preds = %invoke.cont226, %if.then220
  %197 = landingpad { i8*, i32 }
          cleanup, !dbg !3476
  %198 = extractvalue { i8*, i32 } %197, 0, !dbg !3476
  store i8* %198, i8** %exn.slot, align 8, !dbg !3476
  %199 = extractvalue { i8*, i32 } %197, 1, !dbg !3476
  store i32 %199, i32* %ehselector.slot, align 4, !dbg !3476
  call void @__cxa_free_exception(i8* %exception221) #3, !dbg !3471
  br label %ehcleanup, !dbg !3471

if.end229:                                        ; preds = %invoke.cont218
  %200 = load %"class.cDynamicExpression::Elem"*, %"class.cDynamicExpression::Elem"** %e, align 8, !dbg !3477
  %201 = getelementptr inbounds %"class.cDynamicExpression::Elem", %"class.cDynamicExpression::Elem"* %200, i32 0, i32 1, !dbg !3478
  %f230 = bitcast %union.anon.3* %201 to %class.cMathFunction**, !dbg !3478
  %202 = load %class.cMathFunction*, %class.cMathFunction** %f230, align 8, !dbg !3478
  %call232 = invoke double (double, double, double)* @_ZNK13cMathFunction16getMathFunc3ArgsEv(%class.cMathFunction* %202)
          to label %invoke.cont231 unwind label %lpad7, !dbg !3479

invoke.cont231:                                   ; preds = %if.end229
  %203 = load %"struct.cDynamicExpression::Value"*, %"struct.cDynamicExpression::Value"** %stk, align 8, !dbg !3480
  %204 = load i32, i32* %tos, align 4, !dbg !3481
  %sub233 = sub nsw i32 %204, 2, !dbg !3482
  %idxprom234 = sext i32 %sub233 to i64, !dbg !3480
  %arrayidx235 = getelementptr inbounds %"struct.cDynamicExpression::Value", %"struct.cDynamicExpression::Value"* %203, i64 %idxprom234, !dbg !3480
  %dbl236 = getelementptr inbounds %"struct.cDynamicExpression::Value", %"struct.cDynamicExpression::Value"* %arrayidx235, i32 0, i32 2, !dbg !3483
  %205 = load double, double* %dbl236, align 8, !dbg !3483
  %206 = load %"struct.cDynamicExpression::Value"*, %"struct.cDynamicExpression::Value"** %stk, align 8, !dbg !3484
  %207 = load i32, i32* %tos, align 4, !dbg !3485
  %sub237 = sub nsw i32 %207, 1, !dbg !3486
  %idxprom238 = sext i32 %sub237 to i64, !dbg !3484
  %arrayidx239 = getelementptr inbounds %"struct.cDynamicExpression::Value", %"struct.cDynamicExpression::Value"* %206, i64 %idxprom238, !dbg !3484
  %dbl240 = getelementptr inbounds %"struct.cDynamicExpression::Value", %"struct.cDynamicExpression::Value"* %arrayidx239, i32 0, i32 2, !dbg !3487
  %208 = load double, double* %dbl240, align 8, !dbg !3487
  %209 = load %"struct.cDynamicExpression::Value"*, %"struct.cDynamicExpression::Value"** %stk, align 8, !dbg !3488
  %210 = load i32, i32* %tos, align 4, !dbg !3489
  %idxprom241 = sext i32 %210 to i64, !dbg !3488
  %arrayidx242 = getelementptr inbounds %"struct.cDynamicExpression::Value", %"struct.cDynamicExpression::Value"* %209, i64 %idxprom241, !dbg !3488
  %dbl243 = getelementptr inbounds %"struct.cDynamicExpression::Value", %"struct.cDynamicExpression::Value"* %arrayidx242, i32 0, i32 2, !dbg !3490
  %211 = load double, double* %dbl243, align 8, !dbg !3490
  %call245 = invoke double %call232(double %205, double %208, double %211)
          to label %invoke.cont244 unwind label %lpad7, !dbg !3477

invoke.cont244:                                   ; preds = %invoke.cont231
  %212 = load %"struct.cDynamicExpression::Value"*, %"struct.cDynamicExpression::Value"** %stk, align 8, !dbg !3491
  %213 = load i32, i32* %tos, align 4, !dbg !3492
  %sub246 = sub nsw i32 %213, 2, !dbg !3493
  %idxprom247 = sext i32 %sub246 to i64, !dbg !3491
  %arrayidx248 = getelementptr inbounds %"struct.cDynamicExpression::Value", %"struct.cDynamicExpression::Value"* %212, i64 %idxprom247, !dbg !3491
  invoke void @_ZN18cDynamicExpression5ValueaSEd(%"struct.cDynamicExpression::Value"* %arrayidx248, double %call245)
          to label %invoke.cont249 unwind label %lpad7, !dbg !3494

invoke.cont249:                                   ; preds = %invoke.cont244
  %214 = load i32, i32* %tos, align 4, !dbg !3495
  %sub250 = sub nsw i32 %214, 2, !dbg !3495
  store i32 %sub250, i32* %tos, align 4, !dbg !3495
  br label %sw.epilog, !dbg !3496

sw.bb251:                                         ; preds = %invoke.cont50
  %215 = load i32, i32* %tos, align 4, !dbg !3497
  %cmp252 = icmp slt i32 %215, 3, !dbg !3499
  br i1 %cmp252, label %if.then253, label %if.end257, !dbg !3500

if.then253:                                       ; preds = %sw.bb251
  %exception254 = call i8* @__cxa_allocate_exception(i64 128) #3, !dbg !3501
  %216 = bitcast i8* %exception254 to %class.cRuntimeError*, !dbg !3501
  invoke void (%class.cRuntimeError*, i32, ...) @_ZN13cRuntimeErrorC1E12OppErrorCodez(%class.cRuntimeError* %216, i32 17)
          to label %invoke.cont256 unwind label %lpad255, !dbg !3502

invoke.cont256:                                   ; preds = %if.then253
  invoke void @__cxa_throw(i8* %exception254, i8* bitcast ({ i8*, i8*, i8* }* @_ZTI13cRuntimeError to i8*), i8* bitcast (void (%class.cRuntimeError*)* @_ZN13cRuntimeErrorD2Ev to i8*)) #15
          to label %unreachable unwind label %lpad7, !dbg !3501

lpad255:                                          ; preds = %if.then253
  %217 = landingpad { i8*, i32 }
          cleanup, !dbg !3503
  %218 = extractvalue { i8*, i32 } %217, 0, !dbg !3503
  store i8* %218, i8** %exn.slot, align 8, !dbg !3503
  %219 = extractvalue { i8*, i32 } %217, 1, !dbg !3503
  store i32 %219, i32* %ehselector.slot, align 4, !dbg !3503
  call void @__cxa_free_exception(i8* %exception254) #3, !dbg !3501
  br label %ehcleanup, !dbg !3501

if.end257:                                        ; preds = %sw.bb251
  %220 = load %"struct.cDynamicExpression::Value"*, %"struct.cDynamicExpression::Value"** %stk, align 8, !dbg !3504
  %221 = load i32, i32* %tos, align 4, !dbg !3506
  %idxprom258 = sext i32 %221 to i64, !dbg !3504
  %arrayidx259 = getelementptr inbounds %"struct.cDynamicExpression::Value", %"struct.cDynamicExpression::Value"* %220, i64 %idxprom258, !dbg !3504
  %type260 = getelementptr inbounds %"struct.cDynamicExpression::Value", %"struct.cDynamicExpression::Value"* %arrayidx259, i32 0, i32 0, !dbg !3507
  %222 = load i32, i32* %type260, align 8, !dbg !3507
  %cmp261 = icmp ne i32 %222, 68, !dbg !3508
  br i1 %cmp261, label %if.then280, label %lor.lhs.false262, !dbg !3509

lor.lhs.false262:                                 ; preds = %if.end257
  %223 = load %"struct.cDynamicExpression::Value"*, %"struct.cDynamicExpression::Value"** %stk, align 8, !dbg !3510
  %224 = load i32, i32* %tos, align 4, !dbg !3511
  %sub263 = sub nsw i32 %224, 1, !dbg !3512
  %idxprom264 = sext i32 %sub263 to i64, !dbg !3510
  %arrayidx265 = getelementptr inbounds %"struct.cDynamicExpression::Value", %"struct.cDynamicExpression::Value"* %223, i64 %idxprom264, !dbg !3510
  %type266 = getelementptr inbounds %"struct.cDynamicExpression::Value", %"struct.cDynamicExpression::Value"* %arrayidx265, i32 0, i32 0, !dbg !3513
  %225 = load i32, i32* %type266, align 8, !dbg !3513
  %cmp267 = icmp ne i32 %225, 68, !dbg !3514
  br i1 %cmp267, label %if.then280, label %lor.lhs.false268, !dbg !3515

lor.lhs.false268:                                 ; preds = %lor.lhs.false262
  %226 = load %"struct.cDynamicExpression::Value"*, %"struct.cDynamicExpression::Value"** %stk, align 8, !dbg !3516
  %227 = load i32, i32* %tos, align 4, !dbg !3517
  %sub269 = sub nsw i32 %227, 2, !dbg !3518
  %idxprom270 = sext i32 %sub269 to i64, !dbg !3516
  %arrayidx271 = getelementptr inbounds %"struct.cDynamicExpression::Value", %"struct.cDynamicExpression::Value"* %226, i64 %idxprom270, !dbg !3516
  %type272 = getelementptr inbounds %"struct.cDynamicExpression::Value", %"struct.cDynamicExpression::Value"* %arrayidx271, i32 0, i32 0, !dbg !3519
  %228 = load i32, i32* %type272, align 8, !dbg !3519
  %cmp273 = icmp ne i32 %228, 68, !dbg !3520
  br i1 %cmp273, label %if.then280, label %lor.lhs.false274, !dbg !3521

lor.lhs.false274:                                 ; preds = %lor.lhs.false268
  %229 = load %"struct.cDynamicExpression::Value"*, %"struct.cDynamicExpression::Value"** %stk, align 8, !dbg !3522
  %230 = load i32, i32* %tos, align 4, !dbg !3523
  %sub275 = sub nsw i32 %230, 3, !dbg !3524
  %idxprom276 = sext i32 %sub275 to i64, !dbg !3522
  %arrayidx277 = getelementptr inbounds %"struct.cDynamicExpression::Value", %"struct.cDynamicExpression::Value"* %229, i64 %idxprom276, !dbg !3522
  %type278 = getelementptr inbounds %"struct.cDynamicExpression::Value", %"struct.cDynamicExpression::Value"* %arrayidx277, i32 0, i32 0, !dbg !3525
  %231 = load i32, i32* %type278, align 8, !dbg !3525
  %cmp279 = icmp ne i32 %231, 68, !dbg !3526
  br i1 %cmp279, label %if.then280, label %if.end289, !dbg !3527

if.then280:                                       ; preds = %lor.lhs.false274, %lor.lhs.false268, %lor.lhs.false262, %if.end257
  %exception281 = call i8* @__cxa_allocate_exception(i64 128) #3, !dbg !3528
  %232 = bitcast i8* %exception281 to %class.cRuntimeError*, !dbg !3528
  %233 = load %"class.cDynamicExpression::Elem"*, %"class.cDynamicExpression::Elem"** %e, align 8, !dbg !3529
  %234 = getelementptr inbounds %"class.cDynamicExpression::Elem", %"class.cDynamicExpression::Elem"* %233, i32 0, i32 1, !dbg !3530
  %f282 = bitcast %union.anon.3* %234 to %class.cMathFunction**, !dbg !3530
  %235 = load %class.cMathFunction*, %class.cMathFunction** %f282, align 8, !dbg !3530
  %236 = bitcast %class.cMathFunction* %235 to %class.cNamedObject*, !dbg !3531
  %237 = bitcast %class.cNamedObject* %236 to i8* (%class.cNamedObject*)***, !dbg !3531
  %vtable283 = load i8* (%class.cNamedObject*)**, i8* (%class.cNamedObject*)*** %237, align 8, !dbg !3531
  %vfn284 = getelementptr inbounds i8* (%class.cNamedObject*)*, i8* (%class.cNamedObject*)** %vtable283, i64 6, !dbg !3531
  %238 = load i8* (%class.cNamedObject*)*, i8* (%class.cNamedObject*)** %vfn284, align 8, !dbg !3531
  %call287 = invoke i8* %238(%class.cNamedObject* %236)
          to label %invoke.cont286 unwind label %lpad285, !dbg !3531

invoke.cont286:                                   ; preds = %if.then280
  invoke void (%class.cRuntimeError*, i32, ...) @_ZN13cRuntimeErrorC1E12OppErrorCodez(%class.cRuntimeError* %232, i32 11, i8* %call287)
          to label %invoke.cont288 unwind label %lpad285, !dbg !3532

invoke.cont288:                                   ; preds = %invoke.cont286
  invoke void @__cxa_throw(i8* %exception281, i8* bitcast ({ i8*, i8*, i8* }* @_ZTI13cRuntimeError to i8*), i8* bitcast (void (%class.cRuntimeError*)* @_ZN13cRuntimeErrorD2Ev to i8*)) #15
          to label %unreachable unwind label %lpad7, !dbg !3528

lpad285:                                          ; preds = %invoke.cont286, %if.then280
  %239 = landingpad { i8*, i32 }
          cleanup, !dbg !3533
  %240 = extractvalue { i8*, i32 } %239, 0, !dbg !3533
  store i8* %240, i8** %exn.slot, align 8, !dbg !3533
  %241 = extractvalue { i8*, i32 } %239, 1, !dbg !3533
  store i32 %241, i32* %ehselector.slot, align 4, !dbg !3533
  call void @__cxa_free_exception(i8* %exception281) #3, !dbg !3528
  br label %ehcleanup, !dbg !3528

if.end289:                                        ; preds = %lor.lhs.false274
  %242 = load %"struct.cDynamicExpression::Value"*, %"struct.cDynamicExpression::Value"** %stk, align 8, !dbg !3534
  %243 = load i32, i32* %tos, align 4, !dbg !3536
  %idxprom290 = sext i32 %243 to i64, !dbg !3534
  %arrayidx291 = getelementptr inbounds %"struct.cDynamicExpression::Value", %"struct.cDynamicExpression::Value"* %242, i64 %idxprom290, !dbg !3534
  %dblunit292 = getelementptr inbounds %"struct.cDynamicExpression::Value", %"struct.cDynamicExpression::Value"* %arrayidx291, i32 0, i32 3, !dbg !3537
  %244 = load i8*, i8** %dblunit292, align 8, !dbg !3537
  %call294 = invoke zeroext i1 @_Z11opp_isemptyPKc(i8* %244)
          to label %invoke.cont293 unwind label %lpad7, !dbg !3538

invoke.cont293:                                   ; preds = %if.end289
  br i1 %call294, label %lor.lhs.false295, label %if.then316, !dbg !3539

lor.lhs.false295:                                 ; preds = %invoke.cont293
  %245 = load %"struct.cDynamicExpression::Value"*, %"struct.cDynamicExpression::Value"** %stk, align 8, !dbg !3540
  %246 = load i32, i32* %tos, align 4, !dbg !3541
  %sub296 = sub nsw i32 %246, 1, !dbg !3542
  %idxprom297 = sext i32 %sub296 to i64, !dbg !3540
  %arrayidx298 = getelementptr inbounds %"struct.cDynamicExpression::Value", %"struct.cDynamicExpression::Value"* %245, i64 %idxprom297, !dbg !3540
  %dblunit299 = getelementptr inbounds %"struct.cDynamicExpression::Value", %"struct.cDynamicExpression::Value"* %arrayidx298, i32 0, i32 3, !dbg !3543
  %247 = load i8*, i8** %dblunit299, align 8, !dbg !3543
  %call301 = invoke zeroext i1 @_Z11opp_isemptyPKc(i8* %247)
          to label %invoke.cont300 unwind label %lpad7, !dbg !3544

invoke.cont300:                                   ; preds = %lor.lhs.false295
  br i1 %call301, label %lor.lhs.false302, label %if.then316, !dbg !3545

lor.lhs.false302:                                 ; preds = %invoke.cont300
  %248 = load %"struct.cDynamicExpression::Value"*, %"struct.cDynamicExpression::Value"** %stk, align 8, !dbg !3546
  %249 = load i32, i32* %tos, align 4, !dbg !3547
  %sub303 = sub nsw i32 %249, 2, !dbg !3548
  %idxprom304 = sext i32 %sub303 to i64, !dbg !3546
  %arrayidx305 = getelementptr inbounds %"struct.cDynamicExpression::Value", %"struct.cDynamicExpression::Value"* %248, i64 %idxprom304, !dbg !3546
  %dblunit306 = getelementptr inbounds %"struct.cDynamicExpression::Value", %"struct.cDynamicExpression::Value"* %arrayidx305, i32 0, i32 3, !dbg !3549
  %250 = load i8*, i8** %dblunit306, align 8, !dbg !3549
  %call308 = invoke zeroext i1 @_Z11opp_isemptyPKc(i8* %250)
          to label %invoke.cont307 unwind label %lpad7, !dbg !3550

invoke.cont307:                                   ; preds = %lor.lhs.false302
  br i1 %call308, label %lor.lhs.false309, label %if.then316, !dbg !3551

lor.lhs.false309:                                 ; preds = %invoke.cont307
  %251 = load %"struct.cDynamicExpression::Value"*, %"struct.cDynamicExpression::Value"** %stk, align 8, !dbg !3552
  %252 = load i32, i32* %tos, align 4, !dbg !3553
  %sub310 = sub nsw i32 %252, 3, !dbg !3554
  %idxprom311 = sext i32 %sub310 to i64, !dbg !3552
  %arrayidx312 = getelementptr inbounds %"struct.cDynamicExpression::Value", %"struct.cDynamicExpression::Value"* %251, i64 %idxprom311, !dbg !3552
  %dblunit313 = getelementptr inbounds %"struct.cDynamicExpression::Value", %"struct.cDynamicExpression::Value"* %arrayidx312, i32 0, i32 3, !dbg !3555
  %253 = load i8*, i8** %dblunit313, align 8, !dbg !3555
  %call315 = invoke zeroext i1 @_Z11opp_isemptyPKc(i8* %253)
          to label %invoke.cont314 unwind label %lpad7, !dbg !3556

invoke.cont314:                                   ; preds = %lor.lhs.false309
  br i1 %call315, label %if.end325, label %if.then316, !dbg !3557

if.then316:                                       ; preds = %invoke.cont314, %invoke.cont307, %invoke.cont300, %invoke.cont293
  %exception317 = call i8* @__cxa_allocate_exception(i64 128) #3, !dbg !3558
  %254 = bitcast i8* %exception317 to %class.cRuntimeError*, !dbg !3558
  %255 = load %"class.cDynamicExpression::Elem"*, %"class.cDynamicExpression::Elem"** %e, align 8, !dbg !3559
  %256 = getelementptr inbounds %"class.cDynamicExpression::Elem", %"class.cDynamicExpression::Elem"* %255, i32 0, i32 1, !dbg !3560
  %f318 = bitcast %union.anon.3* %256 to %class.cMathFunction**, !dbg !3560
  %257 = load %class.cMathFunction*, %class.cMathFunction** %f318, align 8, !dbg !3560
  %258 = bitcast %class.cMathFunction* %257 to %class.cNamedObject*, !dbg !3561
  %259 = bitcast %class.cNamedObject* %258 to i8* (%class.cNamedObject*)***, !dbg !3561
  %vtable319 = load i8* (%class.cNamedObject*)**, i8* (%class.cNamedObject*)*** %259, align 8, !dbg !3561
  %vfn320 = getelementptr inbounds i8* (%class.cNamedObject*)*, i8* (%class.cNamedObject*)** %vtable319, i64 6, !dbg !3561
  %260 = load i8* (%class.cNamedObject*)*, i8* (%class.cNamedObject*)** %vfn320, align 8, !dbg !3561
  %call323 = invoke i8* %260(%class.cNamedObject* %258)
          to label %invoke.cont322 unwind label %lpad321, !dbg !3561

invoke.cont322:                                   ; preds = %if.then316
  invoke void (%class.cRuntimeError*, i32, ...) @_ZN13cRuntimeErrorC1E12OppErrorCodez(%class.cRuntimeError* %254, i32 10, i8* %call323)
          to label %invoke.cont324 unwind label %lpad321, !dbg !3562

invoke.cont324:                                   ; preds = %invoke.cont322
