; ModuleID = 'simulator/cscheduler.cc'
source_filename = "simulator/cscheduler.cc"
target datalayout = "e-m:e-p270:32:32-p271:32:32-p272:64:64-i64:64-f80:128-n8:16:32:64-S128"
target triple = "x86_64-unknown-linux-gnu"

%"class.std::ios_base::Init" = type { i8 }
%class.cConfigOption = type { %class.cNoncopyableOwnedObject.base, i8, i8, i32, %"class.std::__cxx11::basic_string", %"class.std::__cxx11::basic_string", %"class.std::__cxx11::basic_string" }
%class.cNoncopyableOwnedObject.base = type { %class.cOwnedObject.base }
%class.cOwnedObject.base = type <{ %class.cNamedObject.base, [4 x i8], %class.cObject*, i32 }>
%class.cNamedObject.base = type <{ %class.cObject, i8*, i16, i16 }>
%class.cObject = type { i32 (...)** }
%"class.std::__cxx11::basic_string" = type { %"struct.std::__cxx11::basic_string<char, std::char_traits<char>, std::allocator<char> >::_Alloc_hider", i64, %union.anon }
%"struct.std::__cxx11::basic_string<char, std::char_traits<char>, std::allocator<char> >::_Alloc_hider" = type { i8* }
%union.anon = type { i64, [8 x i8] }
%class.ExecuteOnStartup = type { void ()*, %class.ExecuteOnStartup* }
%class.cGlobalRegistrationList = type { %class.cRegistrationList*, i8* }
%class.cRegistrationList = type { %class.cNamedObject.base, %"class.std::vector", %"class.std::map", %"class.std::map" }
%"class.std::vector" = type { %"struct.std::_Vector_base" }
%"struct.std::_Vector_base" = type { %"struct.std::_Vector_base<cOwnedObject *, std::allocator<cOwnedObject *> >::_Vector_impl" }
%"struct.std::_Vector_base<cOwnedObject *, std::allocator<cOwnedObject *> >::_Vector_impl" = type { %"struct.std::_Vector_base<cOwnedObject *, std::allocator<cOwnedObject *> >::_Vector_impl_data" }
%"struct.std::_Vector_base<cOwnedObject *, std::allocator<cOwnedObject *> >::_Vector_impl_data" = type { %class.cOwnedObject**, %class.cOwnedObject**, %class.cOwnedObject** }
%class.cOwnedObject = type <{ %class.cNamedObject.base, [4 x i8], %class.cObject*, i32, [4 x i8] }>
%"class.std::map" = type { %"class.std::_Rb_tree" }
%"class.std::_Rb_tree" = type { %"struct.std::_Rb_tree<std::__cxx11::basic_string<char>, std::pair<const std::__cxx11::basic_string<char>, cOwnedObject *>, std::_Select1st<std::pair<const std::__cxx11::basic_string<char>, cOwnedObject *> >, std::less<std::__cxx11::basic_string<char> >, std::allocator<std::pair<const std::__cxx11::basic_string<char>, cOwnedObject *> > >::_Rb_tree_impl" }
%"struct.std::_Rb_tree<std::__cxx11::basic_string<char>, std::pair<const std::__cxx11::basic_string<char>, cOwnedObject *>, std::_Select1st<std::pair<const std::__cxx11::basic_string<char>, cOwnedObject *> >, std::less<std::__cxx11::basic_string<char> >, std::allocator<std::pair<const std::__cxx11::basic_string<char>, cOwnedObject *> > >::_Rb_tree_impl" = type { %"struct.std::_Rb_tree_key_compare", %"struct.std::_Rb_tree_header" }
%"struct.std::_Rb_tree_key_compare" = type { %"struct.std::less" }
%"struct.std::less" = type { i8 }
%"struct.std::_Rb_tree_header" = type { %"struct.std::_Rb_tree_node_base", i64 }
%"struct.std::_Rb_tree_node_base" = type { i32, %"struct.std::_Rb_tree_node_base"*, %"struct.std::_Rb_tree_node_base"*, %"struct.std::_Rb_tree_node_base"* }
%class.cEnvir = type { i32 (...)**, i8, i8, i8, %"class.std::basic_ostream" }
%"class.std::basic_ostream" = type { i32 (...)**, %"class.std::basic_ios" }
%"class.std::basic_ios" = type { %"class.std::ios_base", %"class.std::basic_ostream"*, i8, i8, %"class.std::basic_streambuf"*, %"class.std::ctype"*, %"class.std::num_put"*, %"class.std::num_get"* }
%"class.std::ios_base" = type { i32 (...)**, i64, i64, i32, i32, i32, %"struct.std::ios_base::_Callback_list"*, %"struct.std::ios_base::_Words", [8 x %"struct.std::ios_base::_Words"], i32, %"struct.std::ios_base::_Words"*, %"class.std::locale" }
%"struct.std::ios_base::_Callback_list" = type { %"struct.std::ios_base::_Callback_list"*, void (i32, %"class.std::ios_base"*, i32)*, i32, i32 }
%"struct.std::ios_base::_Words" = type { i8*, i64 }
%"class.std::locale" = type { %"class.std::locale::_Impl"* }
%"class.std::locale::_Impl" = type { i32, %"class.std::locale::facet"**, i64, %"class.std::locale::facet"**, i8** }
%"class.std::locale::facet" = type <{ i32 (...)**, i32, [4 x i8] }>
%"class.std::basic_streambuf" = type { i32 (...)**, i8*, i8*, i8*, i8*, i8*, i8*, %"class.std::locale" }
%"class.std::ctype" = type <{ %"class.std::locale::facet.base", [4 x i8], %struct.__locale_struct*, i8, [7 x i8], i32*, i32*, i16*, i8, [256 x i8], [256 x i8], i8, [6 x i8] }>
%"class.std::locale::facet.base" = type <{ i32 (...)**, i32 }>
%struct.__locale_struct = type { [13 x %struct.__locale_data*], i16*, i32*, i32*, [13 x i8*] }
%struct.__locale_data = type opaque
%"class.std::num_put" = type { %"class.std::locale::facet.base", [4 x i8] }
%"class.std::num_get" = type { %"class.std::locale::facet.base", [4 x i8] }
%class.cScheduler = type { %class.cObject, %class.cSimulation* }
%class.cSimulation = type { %class.cNoncopyableOwnedObject.base, i32, i32, %class.cModule**, i32, %class.cEnvir*, %class.cModule*, %class.cSimpleModule*, %class.cComponent*, i32, %class.cModuleType*, %class.cScheduler*, %class.SimTime, i64, %class.cMessage*, %class.cException*, %class.cHasher*, %class.cMessageHeap }
%class.cModule = type opaque
%class.cSimpleModule = type opaque
%class.cComponent = type opaque
%class.cModuleType = type opaque
%class.SimTime = type { i64 }
%class.cMessage = type { %class.cOwnedObject.base, i16, i16, i16, %class.cArray*, %class.cObject*, i8*, i32, i32, i32, i32, %class.SimTime, %class.SimTime, %class.SimTime, %class.SimTime, i32, i64, i64, i64, i64 }
%class.cArray = type { %class.cOwnedObject.base, %class.cObject**, i32, i32, i32, i32 }
%class.cException = type <{ %"class.std::exception", i32, [4 x i8], %"class.std::__cxx11::basic_string", i8, [7 x i8], %"class.std::__cxx11::basic_string", %"class.std::__cxx11::basic_string", i32, [4 x i8] }>
%"class.std::exception" = type { i32 (...)** }
%class.cHasher = type opaque
%class.cMessageHeap = type { %class.cOwnedObject.base, %class.cMessage**, i32, i32, i64 }
%class.cClassFactory = type { %class.cNoncopyableOwnedObject.base, %class.cObject* ()*, %"class.std::__cxx11::basic_string" }
%"class.std::type_info" = type { i32 (...)**, i8* }
%class.cSequentialScheduler = type { %class.cScheduler }
%class.cTerminationException = type { %class.cException.base, [4 x i8] }
%class.cException.base = type <{ %"class.std::exception", i32, [4 x i8], %"class.std::__cxx11::basic_string", i8, [7 x i8], %"class.std::__cxx11::basic_string", %"class.std::__cxx11::basic_string", i32 }>
%class.cRealTimeScheduler = type { %class.cScheduler, i8, double, %struct.timeval }
%struct.timeval = type { i64, i64 }
%class.cConfiguration = type { %class.cObject }
%class.cClassDescriptor = type opaque
%class.cCommBuffer = type opaque
%class.cVisitor = type { i32 (...)** }
%"class.std::allocator" = type { i8 }

$_ZN7cObjectC2Ev = comdat any

$_ZN21cTerminationExceptionD2Ev = comdat any

$_ZN11cSimulation14getActiveEnvirEv = comdat any

$_Z17timeval_substractRK7timevald = comdat any

$_ZmldRK7SimTime = comdat any

$_ZNK11cSimulation10getSimTimeEv = comdat any

$_ZNK7SimTime3dblEv = comdat any

$_Z17timeval_diff_usecRK7timevalS1_ = comdat any

$_ZNK8cMessage14getArrivalTimeEv = comdat any

$_Z11timeval_addRK7timevald = comdat any

$_ZN7SimTimeC2ERKS_ = comdat any

$_Z15timeval_greaterRK7timevalS1_ = comdat any

$_ZN20cSequentialSchedulerD2Ev = comdat any

$_ZN20cSequentialSchedulerD0Ev = comdat any

$_ZNK7cObject7getNameEv = comdat any

$_ZNK7cObject11getFullNameEv = comdat any

$_ZNK7cObject8getOwnerEv = comdat any

$_ZNK7cObject13isOwnedObjectEv = comdat any

$_ZN20cSequentialScheduler8startRunEv = comdat any

$_ZN20cSequentialScheduler6endRunEv = comdat any

$_ZN10cScheduler16executionResumedEv = comdat any

$_ZN18cRealTimeSchedulerD2Ev = comdat any

$_ZN18cRealTimeSchedulerD0Ev = comdat any

$_ZN20cSequentialSchedulerC2Ev = comdat any

$_ZN10cExceptionD2Ev = comdat any

$_ZN10cExceptionD0Ev = comdat any

$_ZNK10cException4whatEv = comdat any

$_ZNK10cException3dupEv = comdat any

$_ZNK10cException12getErrorCodeEv = comdat any

$_ZN10cException10setMessageEPKc = comdat any

$_ZN10cException14prependMessageEPKc = comdat any

$_ZNK10cException10hasContextEv = comdat any

$_ZNK10cException19getContextClassNameEv = comdat any

$_ZNK10cException18getContextFullPathEv = comdat any

$_ZNK10cException11getModuleIDEv = comdat any

$_ZStplIcSt11char_traitsIcESaIcEENSt7__cxx1112basic_stringIT_T0_T1_EEOS8_RKS8_ = comdat any

$_ZStplIcSt11char_traitsIcESaIcEENSt7__cxx1112basic_stringIT_T0_T1_EEOS8_PKS5_ = comdat any

$_ZSt4moveIRNSt7__cxx1112basic_stringIcSt11char_traitsIcESaIcEEEEONSt16remove_referenceIT_E4typeEOS8_ = comdat any

$_ZN18cRealTimeSchedulerC2Ev = comdat any

$_ZN7SimTimemLEd = comdat any

$_ZN7SimTime7toInt64Ed = comdat any

$_ZN7SimTimeaSERKS_ = comdat any

$_ZTS21cTerminationException = comdat any

$_ZTS10cException = comdat any

$_ZTI10cException = comdat any

$_ZTI21cTerminationException = comdat any

$_ZTV10cException = comdat any

@_ZStL8__ioinit = internal global %"class.std::ios_base::Init" zeroinitializer, align 1, !dbg !0
@__dso_handle = external hidden global i8
@CFGID_REALTIMESCHEDULER_SCALING = dso_local global %class.cConfigOption* null, align 8, !dbg !28
@_ZN12_GLOBAL__N_118__onstartup_obj_33E = internal global %class.ExecuteOnStartup zeroinitializer, align 8, !dbg !241
@_ZTV10cScheduler = dso_local unnamed_addr constant { [26 x i8*] } { [26 x i8*] [i8* null, i8* bitcast ({ i8*, i8*, i8* }* @_ZTI10cScheduler to i8*), i8* bitcast (%class.cClassDescriptor* (%class.cObject*)* @_ZN7cObject13getDescriptorEv to i8*), i8* bitcast (void (%class.cObject*, %class.cOwnedObject*)* @_ZN7cObject18ownedObjectDeletedEP12cOwnedObject to i8*), i8* bitcast (void (%class.cObject*, %class.cOwnedObject*, %class.cObject*)* @_ZN7cObject14yieldOwnershipEP12cOwnedObjectPS_ to i8*), i8* bitcast (void (%class.cScheduler*)* @_ZN10cSchedulerD1Ev to i8*), i8* bitcast (void (%class.cScheduler*)* @_ZN10cSchedulerD0Ev to i8*), i8* bitcast (i8* (%class.cObject*)* @_ZNK7cObject12getClassNameEv to i8*), i8* bitcast (i8* (%class.cObject*)* @_ZNK7cObject7getNameEv to i8*), i8* bitcast (i8* (%class.cObject*)* @_ZNK7cObject11getFullNameEv to i8*), i8* bitcast (void (%"class.std::__cxx11::basic_string"*, %class.cObject*)* @_ZNK7cObject11getFullPathB5cxx11Ev to i8*), i8* bitcast (void (%"class.std::__cxx11::basic_string"*, %class.cObject*)* @_ZNK7cObject4infoB5cxx11Ev to i8*), i8* bitcast (void (%"class.std::__cxx11::basic_string"*, %class.cObject*)* @_ZNK7cObject12detailedInfoB5cxx11Ev to i8*), i8* bitcast (%class.cObject* (%class.cObject*)* @_ZNK7cObject3dupEv to i8*), i8* bitcast (void (%class.cObject*, %class.cOwnedObject*)* @_ZN7cObject4takeEP12cOwnedObject to i8*), i8* bitcast (void (%class.cObject*, %class.cOwnedObject*)* @_ZN7cObject4dropEP12cOwnedObject to i8*), i8* bitcast (void (%class.cObject*, %class.cCommBuffer*)* @_ZN7cObject10parsimPackEP11cCommBuffer to i8*), i8* bitcast (void (%class.cObject*, %class.cCommBuffer*)* @_ZN7cObject12parsimUnpackEP11cCommBuffer to i8*), i8* bitcast (%class.cObject* (%class.cObject*)* @_ZNK7cObject8getOwnerEv to i8*), i8* bitcast (i1 (%class.cObject*)* @_ZNK7cObject13isOwnedObjectEv to i8*), i8* bitcast (void (%class.cObject*, %class.cVisitor*)* @_ZN7cObject12forEachChildEP8cVisitor to i8*), i8* bitcast (void (%class.cScheduler*, %class.cSimulation*)* @_ZN10cScheduler13setSimulationEP11cSimulation to i8*), i8* bitcast (void ()* @__cxa_pure_virtual to i8*), i8* bitcast (void ()* @__cxa_pure_virtual to i8*), i8* bitcast (void (%class.cScheduler*)* @_ZN10cScheduler16executionResumedEv to i8*), i8* bitcast (void ()* @__cxa_pure_virtual to i8*)] }, align 8
@_ZN12_GLOBAL__N_118__onstartup_obj_51E = internal global %class.ExecuteOnStartup zeroinitializer, align 8, !dbg !261
@_ZTVN10__cxxabiv120__si_class_type_infoE = external dso_local global i8*
@_ZTS21cTerminationException = linkonce_odr dso_local constant [24 x i8] c"21cTerminationException\00", comdat, align 1
@_ZTS10cException = linkonce_odr dso_local constant [13 x i8] c"10cException\00", comdat, align 1
@_ZTISt9exception = external dso_local constant i8*
@_ZTI10cException = linkonce_odr dso_local constant { i8*, i8*, i8* } { i8* bitcast (i8** getelementptr inbounds (i8*, i8** @_ZTVN10__cxxabiv120__si_class_type_infoE, i64 2) to i8*), i8* getelementptr inbounds ([13 x i8], [13 x i8]* @_ZTS10cException, i32 0, i32 0), i8* bitcast (i8** @_ZTISt9exception to i8*) }, comdat, align 8
@_ZTI21cTerminationException = linkonce_odr dso_local constant { i8*, i8*, i8* } { i8* bitcast (i8** getelementptr inbounds (i8*, i8** @_ZTVN10__cxxabiv120__si_class_type_infoE, i64 2) to i8*), i8* getelementptr inbounds ([24 x i8], [24 x i8]* @_ZTS21cTerminationException, i32 0, i32 0), i8* bitcast ({ i8*, i8*, i8* }* @_ZTI10cException to i8*) }, comdat, align 8
@_ZN12_GLOBAL__N_118__onstartup_obj_63E = internal global %class.ExecuteOnStartup zeroinitializer, align 8, !dbg !263
@_ZTV20cSequentialScheduler = dso_local unnamed_addr constant { [26 x i8*] } { [26 x i8*] [i8* null, i8* bitcast ({ i8*, i8*, i8* }* @_ZTI20cSequentialScheduler to i8*), i8* bitcast (%class.cClassDescriptor* (%class.cObject*)* @_ZN7cObject13getDescriptorEv to i8*), i8* bitcast (void (%class.cObject*, %class.cOwnedObject*)* @_ZN7cObject18ownedObjectDeletedEP12cOwnedObject to i8*), i8* bitcast (void (%class.cObject*, %class.cOwnedObject*, %class.cObject*)* @_ZN7cObject14yieldOwnershipEP12cOwnedObjectPS_ to i8*), i8* bitcast (void (%class.cSequentialScheduler*)* @_ZN20cSequentialSchedulerD2Ev to i8*), i8* bitcast (void (%class.cSequentialScheduler*)* @_ZN20cSequentialSchedulerD0Ev to i8*), i8* bitcast (i8* (%class.cObject*)* @_ZNK7cObject12getClassNameEv to i8*), i8* bitcast (i8* (%class.cObject*)* @_ZNK7cObject7getNameEv to i8*), i8* bitcast (i8* (%class.cObject*)* @_ZNK7cObject11getFullNameEv to i8*), i8* bitcast (void (%"class.std::__cxx11::basic_string"*, %class.cObject*)* @_ZNK7cObject11getFullPathB5cxx11Ev to i8*), i8* bitcast (void (%"class.std::__cxx11::basic_string"*, %class.cObject*)* @_ZNK7cObject4infoB5cxx11Ev to i8*), i8* bitcast (void (%"class.std::__cxx11::basic_string"*, %class.cObject*)* @_ZNK7cObject12detailedInfoB5cxx11Ev to i8*), i8* bitcast (%class.cObject* (%class.cObject*)* @_ZNK7cObject3dupEv to i8*), i8* bitcast (void (%class.cObject*, %class.cOwnedObject*)* @_ZN7cObject4takeEP12cOwnedObject to i8*), i8* bitcast (void (%class.cObject*, %class.cOwnedObject*)* @_ZN7cObject4dropEP12cOwnedObject to i8*), i8* bitcast (void (%class.cObject*, %class.cCommBuffer*)* @_ZN7cObject10parsimPackEP11cCommBuffer to i8*), i8* bitcast (void (%class.cObject*, %class.cCommBuffer*)* @_ZN7cObject12parsimUnpackEP11cCommBuffer to i8*), i8* bitcast (%class.cObject* (%class.cObject*)* @_ZNK7cObject8getOwnerEv to i8*), i8* bitcast (i1 (%class.cObject*)* @_ZNK7cObject13isOwnedObjectEv to i8*), i8* bitcast (void (%class.cObject*, %class.cVisitor*)* @_ZN7cObject12forEachChildEP8cVisitor to i8*), i8* bitcast (void (%class.cScheduler*, %class.cSimulation*)* @_ZN10cScheduler13setSimulationEP11cSimulation to i8*), i8* bitcast (void (%class.cSequentialScheduler*)* @_ZN20cSequentialScheduler8startRunEv to i8*), i8* bitcast (void (%class.cSequentialScheduler*)* @_ZN20cSequentialScheduler6endRunEv to i8*), i8* bitcast (void (%class.cScheduler*)* @_ZN10cScheduler16executionResumedEv to i8*), i8* bitcast (%class.cMessage* (%class.cSequentialScheduler*)* @_ZN20cSequentialScheduler12getNextEventEv to i8*)] }, align 8
@_ZTS20cSequentialScheduler = dso_local constant [23 x i8] c"20cSequentialScheduler\00", align 1
@_ZTS10cScheduler = dso_local constant [13 x i8] c"10cScheduler\00", align 1
@_ZTI7cObject = external dso_local constant i8*
@_ZTI10cScheduler = dso_local constant { i8*, i8*, i8* } { i8* bitcast (i8** getelementptr inbounds (i8*, i8** @_ZTVN10__cxxabiv120__si_class_type_infoE, i64 2) to i8*), i8* getelementptr inbounds ([13 x i8], [13 x i8]* @_ZTS10cScheduler, i32 0, i32 0), i8* bitcast (i8** @_ZTI7cObject to i8*) }, align 8
@_ZTI20cSequentialScheduler = dso_local constant { i8*, i8*, i8* } { i8* bitcast (i8** getelementptr inbounds (i8*, i8** @_ZTVN10__cxxabiv120__si_class_type_infoE, i64 2) to i8*), i8* getelementptr inbounds ([23 x i8], [23 x i8]* @_ZTS20cSequentialScheduler, i32 0, i32 0), i8* bitcast ({ i8*, i8*, i8* }* @_ZTI10cScheduler to i8*) }, align 8
@_ZTV18cRealTimeScheduler = dso_local unnamed_addr constant { [26 x i8*] } { [26 x i8*] [i8* null, i8* bitcast ({ i8*, i8*, i8* }* @_ZTI18cRealTimeScheduler to i8*), i8* bitcast (%class.cClassDescriptor* (%class.cObject*)* @_ZN7cObject13getDescriptorEv to i8*), i8* bitcast (void (%class.cObject*, %class.cOwnedObject*)* @_ZN7cObject18ownedObjectDeletedEP12cOwnedObject to i8*), i8* bitcast (void (%class.cObject*, %class.cOwnedObject*, %class.cObject*)* @_ZN7cObject14yieldOwnershipEP12cOwnedObjectPS_ to i8*), i8* bitcast (void (%class.cRealTimeScheduler*)* @_ZN18cRealTimeSchedulerD2Ev to i8*), i8* bitcast (void (%class.cRealTimeScheduler*)* @_ZN18cRealTimeSchedulerD0Ev to i8*), i8* bitcast (i8* (%class.cObject*)* @_ZNK7cObject12getClassNameEv to i8*), i8* bitcast (i8* (%class.cObject*)* @_ZNK7cObject7getNameEv to i8*), i8* bitcast (i8* (%class.cObject*)* @_ZNK7cObject11getFullNameEv to i8*), i8* bitcast (void (%"class.std::__cxx11::basic_string"*, %class.cObject*)* @_ZNK7cObject11getFullPathB5cxx11Ev to i8*), i8* bitcast (void (%"class.std::__cxx11::basic_string"*, %class.cObject*)* @_ZNK7cObject4infoB5cxx11Ev to i8*), i8* bitcast (void (%"class.std::__cxx11::basic_string"*, %class.cObject*)* @_ZNK7cObject12detailedInfoB5cxx11Ev to i8*), i8* bitcast (%class.cObject* (%class.cObject*)* @_ZNK7cObject3dupEv to i8*), i8* bitcast (void (%class.cObject*, %class.cOwnedObject*)* @_ZN7cObject4takeEP12cOwnedObject to i8*), i8* bitcast (void (%class.cObject*, %class.cOwnedObject*)* @_ZN7cObject4dropEP12cOwnedObject to i8*), i8* bitcast (void (%class.cObject*, %class.cCommBuffer*)* @_ZN7cObject10parsimPackEP11cCommBuffer to i8*), i8* bitcast (void (%class.cObject*, %class.cCommBuffer*)* @_ZN7cObject12parsimUnpackEP11cCommBuffer to i8*), i8* bitcast (%class.cObject* (%class.cObject*)* @_ZNK7cObject8getOwnerEv to i8*), i8* bitcast (i1 (%class.cObject*)* @_ZNK7cObject13isOwnedObjectEv to i8*), i8* bitcast (void (%class.cObject*, %class.cVisitor*)* @_ZN7cObject12forEachChildEP8cVisitor to i8*), i8* bitcast (void (%class.cScheduler*, %class.cSimulation*)* @_ZN10cScheduler13setSimulationEP11cSimulation to i8*), i8* bitcast (void (%class.cRealTimeScheduler*)* @_ZN18cRealTimeScheduler8startRunEv to i8*), i8* bitcast (void (%class.cRealTimeScheduler*)* @_ZN18cRealTimeScheduler6endRunEv to i8*), i8* bitcast (void (%class.cRealTimeScheduler*)* @_ZN18cRealTimeScheduler16executionResumedEv to i8*), i8* bitcast (%class.cMessage* (%class.cRealTimeScheduler*)* @_ZN18cRealTimeScheduler12getNextEventEv to i8*)] }, align 8
@_ZTS18cRealTimeScheduler = dso_local constant [21 x i8] c"18cRealTimeScheduler\00", align 1
@_ZTI18cRealTimeScheduler = dso_local constant { i8*, i8*, i8* } { i8* bitcast (i8** getelementptr inbounds (i8*, i8** @_ZTVN10__cxxabiv120__si_class_type_infoE, i64 2) to i8*), i8* getelementptr inbounds ([21 x i8], [21 x i8]* @_ZTS18cRealTimeScheduler, i32 0, i32 0), i8* bitcast ({ i8*, i8*, i8* }* @_ZTI10cScheduler to i8*) }, align 8
@configOptions = external dso_local global %class.cGlobalRegistrationList, align 8
@.str = private unnamed_addr constant [26 x i8] c"realtimescheduler-scaling\00", align 1
@.str.4 = private unnamed_addr constant [183 x i8] c"When cRealTimeScheduler is selected as scheduler class: ratio of simulation time to real time. For example, scaling=2 will cause simulation time to progress twice as fast as runtime.\00", align 1
@_ZTV7cObject = external dso_local unnamed_addr constant { [21 x i8*] }, align 8
@classes = external dso_local global %class.cGlobalRegistrationList, align 8
@_ZTV10cException = linkonce_odr dso_local unnamed_addr constant { [13 x i8*] } { [13 x i8*] [i8* null, i8* bitcast ({ i8*, i8*, i8* }* @_ZTI10cException to i8*), i8* bitcast (void (%class.cException*)* @_ZN10cExceptionD2Ev to i8*), i8* bitcast (void (%class.cException*)* @_ZN10cExceptionD0Ev to i8*), i8* bitcast (i8* (%class.cException*)* @_ZNK10cException4whatEv to i8*), i8* bitcast (%class.cException* (%class.cException*)* @_ZNK10cException3dupEv to i8*), i8* bitcast (i32 (%class.cException*)* @_ZNK10cException12getErrorCodeEv to i8*), i8* bitcast (void (%class.cException*, i8*)* @_ZN10cException10setMessageEPKc to i8*), i8* bitcast (void (%class.cException*, i8*)* @_ZN10cException14prependMessageEPKc to i8*), i8* bitcast (i1 (%class.cException*)* @_ZNK10cException10hasContextEv to i8*), i8* bitcast (i8* (%class.cException*)* @_ZNK10cException19getContextClassNameEv to i8*), i8* bitcast (i8* (%class.cException*)* @_ZNK10cException18getContextFullPathEv to i8*), i8* bitcast (i32 (%class.cException*)* @_ZNK10cException11getModuleIDEv to i8*)] }, comdat, align 8
@.str.5 = private unnamed_addr constant [3 x i8] c": \00", align 1
@_ZN11cSimulation5evPtrE = external dso_local global %class.cEnvir*, align 8
@_ZN7SimTime9invfscaleE = external dso_local global double, align 8
@.str.6 = private unnamed_addr constant [1 x i8] zeroinitializer, align 1
@llvm.global_ctors = appending global [1 x { i32, void ()*, i8* }] [{ i32, void ()*, i8* } { i32 65535, void ()* @_GLOBAL__sub_I_cscheduler.cc, i8* null }]

@_ZN10cSchedulerD1Ev = dso_local unnamed_addr alias void (%class.cScheduler*), void (%class.cScheduler*)* @_ZN10cSchedulerD2Ev

; Function Attrs: noinline uwtable
define internal void @__cxx_global_var_init() #0 section ".text.startup" !dbg !1525 {
entry:
  call void @_ZNSt8ios_base4InitC1Ev(%"class.std::ios_base::Init"* @_ZStL8__ioinit), !dbg !1527
  %0 = call i32 @__cxa_atexit(void (i8*)* bitcast (void (%"class.std::ios_base::Init"*)* @_ZNSt8ios_base4InitD1Ev to void (i8*)*), i8* getelementptr inbounds (%"class.std::ios_base::Init", %"class.std::ios_base::Init"* @_ZStL8__ioinit, i32 0, i32 0), i8* @__dso_handle) #3, !dbg !1527
  ret void, !dbg !1527
}

declare dso_local void @_ZNSt8ios_base4InitC1Ev(%"class.std::ios_base::Init"*) unnamed_addr #1

; Function Attrs: nounwind
declare dso_local void @_ZNSt8ios_base4InitD1Ev(%"class.std::ios_base::Init"*) unnamed_addr #2

; Function Attrs: nounwind
declare dso_local i32 @__cxa_atexit(void (i8*)*, i8*, i8*) #3

; Function Attrs: noinline uwtable
define internal void @__cxx_global_var_init.1() #0 section ".text.startup" !dbg !1528 {
entry:
  call void @_ZN16ExecuteOnStartupC1EPFvvE(%class.ExecuteOnStartup* @_ZN12_GLOBAL__N_118__onstartup_obj_33E, void ()* @_ZN12_GLOBAL__N_119__onstartup_func_33Ev), !dbg !1529
  %0 = call i32 @__cxa_atexit(void (i8*)* bitcast (void (%class.ExecuteOnStartup*)* @_ZN16ExecuteOnStartupD1Ev to void (i8*)*), i8* bitcast (%class.ExecuteOnStartup* @_ZN12_GLOBAL__N_118__onstartup_obj_33E to i8*), i8* @__dso_handle) #3, !dbg !1529
  ret void, !dbg !1529
}

; Function Attrs: noinline uwtable
define internal void @_ZN12_GLOBAL__N_119__onstartup_func_33Ev() #0 personality i8* bitcast (i32 (...)* @__gxx_personality_v0 to i8*) !dbg !1530 {
entry:
  %exn.slot = alloca i8*
  %ehselector.slot = alloca i32
  %call = call %class.cRegistrationList* @_ZN23cGlobalRegistrationList11getInstanceEv(%class.cGlobalRegistrationList* @configOptions), !dbg !1531
  %call1 = call i8* @_Znwm(i64 144) #10, !dbg !1531
  %0 = bitcast i8* %call1 to %class.cConfigOption*, !dbg !1531
  invoke void @_ZN13cConfigOptionC1EPKcbbNS_4TypeES1_S1_S1_(%class.cConfigOption* %0, i8* getelementptr inbounds ([26 x i8], [26 x i8]* @.str, i64 0, i64 0), i1 zeroext false, i1 zeroext true, i32 2, i8* null, i8* null, i8* getelementptr inbounds ([183 x i8], [183 x i8]* @.str.4, i64 0, i64 0))
          to label %invoke.cont unwind label %lpad, !dbg !1531

invoke.cont:                                      ; preds = %entry
  store %class.cConfigOption* %0, %class.cConfigOption** @CFGID_REALTIMESCHEDULER_SCALING, align 8, !dbg !1531
  %1 = bitcast %class.cConfigOption* %0 to %class.cOwnedObject*, !dbg !1531
  %2 = bitcast %class.cRegistrationList* %call to void (%class.cRegistrationList*, %class.cOwnedObject*)***, !dbg !1531
  %vtable = load void (%class.cRegistrationList*, %class.cOwnedObject*)**, void (%class.cRegistrationList*, %class.cOwnedObject*)*** %2, align 8, !dbg !1531
  %vfn = getelementptr inbounds void (%class.cRegistrationList*, %class.cOwnedObject*)*, void (%class.cRegistrationList*, %class.cOwnedObject*)** %vtable, i64 22, !dbg !1531
  %3 = load void (%class.cRegistrationList*, %class.cOwnedObject*)*, void (%class.cRegistrationList*, %class.cOwnedObject*)** %vfn, align 8, !dbg !1531
  call void %3(%class.cRegistrationList* %call, %class.cOwnedObject* %1), !dbg !1531
  ret void, !dbg !1531

lpad:                                             ; preds = %entry
  %4 = landingpad { i8*, i32 }
          cleanup, !dbg !1531
  %5 = extractvalue { i8*, i32 } %4, 0, !dbg !1531
  store i8* %5, i8** %exn.slot, align 8, !dbg !1531
  %6 = extractvalue { i8*, i32 } %4, 1, !dbg !1531
  store i32 %6, i32* %ehselector.slot, align 4, !dbg !1531
  call void @_ZdlPv(i8* %call1) #11, !dbg !1531
  br label %eh.resume, !dbg !1531

eh.resume:                                        ; preds = %lpad
  %exn = load i8*, i8** %exn.slot, align 8, !dbg !1531
  %sel = load i32, i32* %ehselector.slot, align 4, !dbg !1531
  %lpad.val = insertvalue { i8*, i32 } undef, i8* %exn, 0, !dbg !1531
  %lpad.val2 = insertvalue { i8*, i32 } %lpad.val, i32 %sel, 1, !dbg !1531
  resume { i8*, i32 } %lpad.val2, !dbg !1531
}

declare dso_local void @_ZN16ExecuteOnStartupC1EPFvvE(%class.ExecuteOnStartup*, void ()*) unnamed_addr #1

; Function Attrs: nounwind
declare dso_local void @_ZN16ExecuteOnStartupD1Ev(%class.ExecuteOnStartup*) unnamed_addr #2

; Function Attrs: noinline uwtable
define dso_local void @_ZN10cSchedulerC2Ev(%class.cScheduler* %this) unnamed_addr #0 align 2 !dbg !1532 {
entry:
  %this.addr = alloca %class.cScheduler*, align 8
  store %class.cScheduler* %this, %class.cScheduler** %this.addr, align 8
  call void @llvm.dbg.declare(metadata %class.cScheduler** %this.addr, metadata !1560, metadata !DIExpression()), !dbg !1562
  %this1 = load %class.cScheduler*, %class.cScheduler** %this.addr, align 8
  %0 = bitcast %class.cScheduler* %this1 to %class.cObject*, !dbg !1563
  call void @_ZN7cObjectC2Ev(%class.cObject* %0), !dbg !1564
  %1 = bitcast %class.cScheduler* %this1 to i32 (...)***, !dbg !1563
  store i32 (...)** bitcast (i8** getelementptr inbounds ({ [26 x i8*] }, { [26 x i8*] }* @_ZTV10cScheduler, i32 0, inrange i32 0, i32 2) to i32 (...)**), i32 (...)*** %1, align 8, !dbg !1563
  %sim = getelementptr inbounds %class.cScheduler, %class.cScheduler* %this1, i32 0, i32 1, !dbg !1565
  store %class.cSimulation* null, %class.cSimulation** %sim, align 8, !dbg !1567
  ret void, !dbg !1568
}

; Function Attrs: nounwind readnone speculatable willreturn
declare void @llvm.dbg.declare(metadata, metadata, metadata) #4

; Function Attrs: noinline nounwind uwtable
define linkonce_odr dso_local void @_ZN7cObjectC2Ev(%class.cObject* %this) unnamed_addr #5 comdat align 2 !dbg !1569 {
entry:
  %this.addr = alloca %class.cObject*, align 8
  store %class.cObject* %this, %class.cObject** %this.addr, align 8
  call void @llvm.dbg.declare(metadata %class.cObject** %this.addr, metadata !1574, metadata !DIExpression()), !dbg !1576
  %this1 = load %class.cObject*, %class.cObject** %this.addr, align 8
  %0 = bitcast %class.cObject* %this1 to i32 (...)***, !dbg !1577
  store i32 (...)** bitcast (i8** getelementptr inbounds ({ [21 x i8*] }, { [21 x i8*] }* @_ZTV7cObject, i32 0, inrange i32 0, i32 2) to i32 (...)**), i32 (...)*** %0, align 8, !dbg !1577
  ret void, !dbg !1578
}

; Function Attrs: noinline nounwind uwtable
define dso_local void @_ZN10cSchedulerD2Ev(%class.cScheduler* %this) unnamed_addr #5 align 2 !dbg !1579 {
entry:
  %this.addr = alloca %class.cScheduler*, align 8
  store %class.cScheduler* %this, %class.cScheduler** %this.addr, align 8
  call void @llvm.dbg.declare(metadata %class.cScheduler** %this.addr, metadata !1580, metadata !DIExpression()), !dbg !1581
  %this1 = load %class.cScheduler*, %class.cScheduler** %this.addr, align 8
  %0 = bitcast %class.cScheduler* %this1 to %class.cObject*, !dbg !1582
  call void @_ZN7cObjectD2Ev(%class.cObject* %0) #3, !dbg !1582
  ret void, !dbg !1584
}

; Function Attrs: nounwind
declare dso_local void @_ZN7cObjectD2Ev(%class.cObject*) unnamed_addr #2

; Function Attrs: noinline nounwind uwtable
define dso_local void @_ZN10cSchedulerD0Ev(%class.cScheduler* %this) unnamed_addr #5 align 2 !dbg !1585 {
entry:
  %this.addr = alloca %class.cScheduler*, align 8
  store %class.cScheduler* %this, %class.cScheduler** %this.addr, align 8
  call void @llvm.dbg.declare(metadata %class.cScheduler** %this.addr, metadata !1586, metadata !DIExpression()), !dbg !1587
  %this1 = load %class.cScheduler*, %class.cScheduler** %this.addr, align 8
  call void @llvm.trap() #12, !dbg !1588
  unreachable, !dbg !1588
}

; Function Attrs: cold noreturn nounwind
declare void @llvm.trap() #6

; Function Attrs: noinline nounwind uwtable
define dso_local void @_ZN10cScheduler13setSimulationEP11cSimulation(%class.cScheduler* %this, %class.cSimulation* %_sim) unnamed_addr #5 align 2 !dbg !1589 {
entry:
  %this.addr = alloca %class.cScheduler*, align 8
  %_sim.addr = alloca %class.cSimulation*, align 8
  store %class.cScheduler* %this, %class.cScheduler** %this.addr, align 8
  call void @llvm.dbg.declare(metadata %class.cScheduler** %this.addr, metadata !1590, metadata !DIExpression()), !dbg !1591
  store %class.cSimulation* %_sim, %class.cSimulation** %_sim.addr, align 8
  call void @llvm.dbg.declare(metadata %class.cSimulation** %_sim.addr, metadata !1592, metadata !DIExpression()), !dbg !1593
  %this1 = load %class.cScheduler*, %class.cScheduler** %this.addr, align 8
  %0 = load %class.cSimulation*, %class.cSimulation** %_sim.addr, align 8, !dbg !1594
  %sim = getelementptr inbounds %class.cScheduler, %class.cScheduler* %this1, i32 0, i32 1, !dbg !1595
  store %class.cSimulation* %0, %class.cSimulation** %sim, align 8, !dbg !1596
  ret void, !dbg !1597
}

; Function Attrs: noinline uwtable
define internal void @__cxx_global_var_init.2() #0 section ".text.startup" !dbg !1598 {
entry:
  call void @_ZN16ExecuteOnStartupC1EPFvvE(%class.ExecuteOnStartup* @_ZN12_GLOBAL__N_118__onstartup_obj_51E, void ()* @_ZN12_GLOBAL__N_119__onstartup_func_51Ev), !dbg !1599
  %0 = call i32 @__cxa_atexit(void (i8*)* bitcast (void (%class.ExecuteOnStartup*)* @_ZN16ExecuteOnStartupD1Ev to void (i8*)*), i8* bitcast (%class.ExecuteOnStartup* @_ZN12_GLOBAL__N_118__onstartup_obj_51E to i8*), i8* @__dso_handle) #3, !dbg !1599
  ret void, !dbg !1599
}

; Function Attrs: noinline uwtable
define internal void @_ZN12_GLOBAL__N_119__onstartup_func_51Ev() #0 personality i8* bitcast (i32 (...)* @__gxx_personality_v0 to i8*) !dbg !1600 {
entry:
  %exn.slot = alloca i8*
  %ehselector.slot = alloca i32
  %call = call %class.cRegistrationList* @_ZN23cGlobalRegistrationList11getInstanceEv(%class.cGlobalRegistrationList* @classes), !dbg !1601
  %call1 = call i8* @_Znwm(i64 80) #10, !dbg !1601
  %0 = bitcast i8* %call1 to %class.cClassFactory*, !dbg !1601
  %call2 = invoke i8* @_Z12opp_typenameRKSt9type_info(%"class.std::type_info"* dereferenceable(16) bitcast ({ i8*, i8*, i8* }* @_ZTI20cSequentialScheduler to %"class.std::type_info"*))
          to label %invoke.cont unwind label %lpad, !dbg !1601

invoke.cont:                                      ; preds = %entry
  invoke void @_ZN13cClassFactoryC1EPKcPFP7cObjectvES1_(%class.cClassFactory* %0, i8* %call2, %class.cObject* ()* @_ZL15__uniquename_51v, i8* null)
          to label %invoke.cont3 unwind label %lpad, !dbg !1601

invoke.cont3:                                     ; preds = %invoke.cont
  %1 = bitcast %class.cClassFactory* %0 to %class.cOwnedObject*, !dbg !1601
  %2 = bitcast %class.cRegistrationList* %call to void (%class.cRegistrationList*, %class.cOwnedObject*)***, !dbg !1601
  %vtable = load void (%class.cRegistrationList*, %class.cOwnedObject*)**, void (%class.cRegistrationList*, %class.cOwnedObject*)*** %2, align 8, !dbg !1601
  %vfn = getelementptr inbounds void (%class.cRegistrationList*, %class.cOwnedObject*)*, void (%class.cRegistrationList*, %class.cOwnedObject*)** %vtable, i64 22, !dbg !1601
  %3 = load void (%class.cRegistrationList*, %class.cOwnedObject*)*, void (%class.cRegistrationList*, %class.cOwnedObject*)** %vfn, align 8, !dbg !1601
  call void %3(%class.cRegistrationList* %call, %class.cOwnedObject* %1), !dbg !1601
  ret void, !dbg !1601

lpad:                                             ; preds = %invoke.cont, %entry
  %4 = landingpad { i8*, i32 }
          cleanup, !dbg !1601
  %5 = extractvalue { i8*, i32 } %4, 0, !dbg !1601
  store i8* %5, i8** %exn.slot, align 8, !dbg !1601
  %6 = extractvalue { i8*, i32 } %4, 1, !dbg !1601
  store i32 %6, i32* %ehselector.slot, align 4, !dbg !1601
  call void @_ZdlPv(i8* %call1) #11, !dbg !1601
  br label %eh.resume, !dbg !1601

eh.resume:                                        ; preds = %lpad
  %exn = load i8*, i8** %exn.slot, align 8, !dbg !1601
  %sel = load i32, i32* %ehselector.slot, align 4, !dbg !1601
  %lpad.val = insertvalue { i8*, i32 } undef, i8* %exn, 0, !dbg !1601
  %lpad.val4 = insertvalue { i8*, i32 } %lpad.val, i32 %sel, 1, !dbg !1601
  resume { i8*, i32 } %lpad.val4, !dbg !1601
}

; Function Attrs: noinline uwtable
define dso_local %class.cMessage* @_ZN20cSequentialScheduler12getNextEventEv(%class.cSequentialScheduler* %this) unnamed_addr #0 align 2 personality i8* bitcast (i32 (...)* @__gxx_personality_v0 to i8*) !dbg !1602 {
entry:
  %this.addr = alloca %class.cSequentialScheduler*, align 8
  %msg = alloca %class.cMessage*, align 8
  %exn.slot = alloca i8*
  %ehselector.slot = alloca i32
  store %class.cSequentialScheduler* %this, %class.cSequentialScheduler** %this.addr, align 8
  call void @llvm.dbg.declare(metadata %class.cSequentialScheduler** %this.addr, metadata !1615, metadata !DIExpression()), !dbg !1617
  %this1 = load %class.cSequentialScheduler*, %class.cSequentialScheduler** %this.addr, align 8
  call void @llvm.dbg.declare(metadata %class.cMessage** %msg, metadata !1618, metadata !DIExpression()), !dbg !1619
  %0 = bitcast %class.cSequentialScheduler* %this1 to %class.cScheduler*, !dbg !1620
  %sim = getelementptr inbounds %class.cScheduler, %class.cScheduler* %0, i32 0, i32 1, !dbg !1620
  %1 = load %class.cSimulation*, %class.cSimulation** %sim, align 8, !dbg !1620
  %msgQueue = getelementptr inbounds %class.cSimulation, %class.cSimulation* %1, i32 0, i32 17, !dbg !1621
  %call = call %class.cMessage* @_ZNK12cMessageHeap9peekFirstEv(%class.cMessageHeap* %msgQueue), !dbg !1622
  store %class.cMessage* %call, %class.cMessage** %msg, align 8, !dbg !1619
  %2 = load %class.cMessage*, %class.cMessage** %msg, align 8, !dbg !1623
  %tobool = icmp ne %class.cMessage* %2, null, !dbg !1623
  br i1 %tobool, label %if.end, label %if.then, !dbg !1625

if.then:                                          ; preds = %entry
  %exception = call i8* @__cxa_allocate_exception(i64 128) #3, !dbg !1626
  %3 = bitcast i8* %exception to %class.cTerminationException*, !dbg !1626
  invoke void (%class.cTerminationException*, i32, ...) @_ZN21cTerminationExceptionC1E12OppErrorCodez(%class.cTerminationException* %3, i32 13)
          to label %invoke.cont unwind label %lpad, !dbg !1627

invoke.cont:                                      ; preds = %if.then
  call void @__cxa_throw(i8* %exception, i8* bitcast ({ i8*, i8*, i8* }* @_ZTI21cTerminationException to i8*), i8* bitcast (void (%class.cTerminationException*)* @_ZN21cTerminationExceptionD2Ev to i8*)) #13, !dbg !1626
  unreachable, !dbg !1626

lpad:                                             ; preds = %if.then
  %4 = landingpad { i8*, i32 }
          cleanup, !dbg !1628
  %5 = extractvalue { i8*, i32 } %4, 0, !dbg !1628
  store i8* %5, i8** %exn.slot, align 8, !dbg !1628
  %6 = extractvalue { i8*, i32 } %4, 1, !dbg !1628
  store i32 %6, i32* %ehselector.slot, align 4, !dbg !1628
  call void @__cxa_free_exception(i8* %exception) #3, !dbg !1626
  br label %eh.resume, !dbg !1626

if.end:                                           ; preds = %entry
  %7 = load %class.cMessage*, %class.cMessage** %msg, align 8, !dbg !1629
  ret %class.cMessage* %7, !dbg !1630

eh.resume:                                        ; preds = %lpad
  %exn = load i8*, i8** %exn.slot, align 8, !dbg !1626
  %sel = load i32, i32* %ehselector.slot, align 4, !dbg !1626
  %lpad.val = insertvalue { i8*, i32 } undef, i8* %exn, 0, !dbg !1626
  %lpad.val2 = insertvalue { i8*, i32 } %lpad.val, i32 %sel, 1, !dbg !1626
  resume { i8*, i32 } %lpad.val2, !dbg !1626
}

declare dso_local %class.cMessage* @_ZNK12cMessageHeap9peekFirstEv(%class.cMessageHeap*) #1

declare dso_local i8* @__cxa_allocate_exception(i64)

declare dso_local void @_ZN21cTerminationExceptionC1E12OppErrorCodez(%class.cTerminationException*, i32, ...) unnamed_addr #1

declare dso_local i32 @__gxx_personality_v0(...)

declare dso_local void @__cxa_free_exception(i8*)

; Function Attrs: noinline nounwind uwtable
define linkonce_odr dso_local void @_ZN21cTerminationExceptionD2Ev(%class.cTerminationException* %this) unnamed_addr #5 comdat align 2 !dbg !1631 {
entry:
  %this.addr = alloca %class.cTerminationException*, align 8
  store %class.cTerminationException* %this, %class.cTerminationException** %this.addr, align 8
  call void @llvm.dbg.declare(metadata %class.cTerminationException** %this.addr, metadata !1636, metadata !DIExpression()), !dbg !1638
  %this1 = load %class.cTerminationException*, %class.cTerminationException** %this.addr, align 8
  %0 = bitcast %class.cTerminationException* %this1 to %class.cException*, !dbg !1639
  call void @_ZN10cExceptionD2Ev(%class.cException* %0) #3, !dbg !1639
  ret void, !dbg !1641
}

declare dso_local void @__cxa_throw(i8*, i8*, i8*)

; Function Attrs: noinline uwtable
define internal void @__cxx_global_var_init.3() #0 section ".text.startup" !dbg !1642 {
entry:
  call void @_ZN16ExecuteOnStartupC1EPFvvE(%class.ExecuteOnStartup* @_ZN12_GLOBAL__N_118__onstartup_obj_63E, void ()* @_ZN12_GLOBAL__N_119__onstartup_func_63Ev), !dbg !1643
  %0 = call i32 @__cxa_atexit(void (i8*)* bitcast (void (%class.ExecuteOnStartup*)* @_ZN16ExecuteOnStartupD1Ev to void (i8*)*), i8* bitcast (%class.ExecuteOnStartup* @_ZN12_GLOBAL__N_118__onstartup_obj_63E to i8*), i8* @__dso_handle) #3, !dbg !1643
  ret void, !dbg !1643
}

; Function Attrs: noinline uwtable
define internal void @_ZN12_GLOBAL__N_119__onstartup_func_63Ev() #0 personality i8* bitcast (i32 (...)* @__gxx_personality_v0 to i8*) !dbg !1644 {
entry:
  %exn.slot = alloca i8*
  %ehselector.slot = alloca i32
  %call = call %class.cRegistrationList* @_ZN23cGlobalRegistrationList11getInstanceEv(%class.cGlobalRegistrationList* @classes), !dbg !1645
  %call1 = call i8* @_Znwm(i64 80) #10, !dbg !1645
  %0 = bitcast i8* %call1 to %class.cClassFactory*, !dbg !1645
  %call2 = invoke i8* @_Z12opp_typenameRKSt9type_info(%"class.std::type_info"* dereferenceable(16) bitcast ({ i8*, i8*, i8* }* @_ZTI18cRealTimeScheduler to %"class.std::type_info"*))
          to label %invoke.cont unwind label %lpad, !dbg !1645

invoke.cont:                                      ; preds = %entry
  invoke void @_ZN13cClassFactoryC1EPKcPFP7cObjectvES1_(%class.cClassFactory* %0, i8* %call2, %class.cObject* ()* @_ZL15__uniquename_63v, i8* null)
          to label %invoke.cont3 unwind label %lpad, !dbg !1645

invoke.cont3:                                     ; preds = %invoke.cont
  %1 = bitcast %class.cClassFactory* %0 to %class.cOwnedObject*, !dbg !1645
  %2 = bitcast %class.cRegistrationList* %call to void (%class.cRegistrationList*, %class.cOwnedObject*)***, !dbg !1645
  %vtable = load void (%class.cRegistrationList*, %class.cOwnedObject*)**, void (%class.cRegistrationList*, %class.cOwnedObject*)*** %2, align 8, !dbg !1645
  %vfn = getelementptr inbounds void (%class.cRegistrationList*, %class.cOwnedObject*)*, void (%class.cRegistrationList*, %class.cOwnedObject*)** %vtable, i64 22, !dbg !1645
  %3 = load void (%class.cRegistrationList*, %class.cOwnedObject*)*, void (%class.cRegistrationList*, %class.cOwnedObject*)** %vfn, align 8, !dbg !1645
  call void %3(%class.cRegistrationList* %call, %class.cOwnedObject* %1), !dbg !1645
  ret void, !dbg !1645

lpad:                                             ; preds = %invoke.cont, %entry
  %4 = landingpad { i8*, i32 }
          cleanup, !dbg !1645
  %5 = extractvalue { i8*, i32 } %4, 0, !dbg !1645
  store i8* %5, i8** %exn.slot, align 8, !dbg !1645
  %6 = extractvalue { i8*, i32 } %4, 1, !dbg !1645
  store i32 %6, i32* %ehselector.slot, align 4, !dbg !1645
  call void @_ZdlPv(i8* %call1) #11, !dbg !1645
  br label %eh.resume, !dbg !1645

eh.resume:                                        ; preds = %lpad
  %exn = load i8*, i8** %exn.slot, align 8, !dbg !1645
  %sel = load i32, i32* %ehselector.slot, align 4, !dbg !1645
  %lpad.val = insertvalue { i8*, i32 } undef, i8* %exn, 0, !dbg !1645
  %lpad.val4 = insertvalue { i8*, i32 } %lpad.val, i32 %sel, 1, !dbg !1645
  resume { i8*, i32 } %lpad.val4, !dbg !1645
}

; Function Attrs: noinline uwtable
define dso_local void @_ZN18cRealTimeScheduler8startRunEv(%class.cRealTimeScheduler* %this) unnamed_addr #0 align 2 !dbg !1646 {
entry:
  %this.addr = alloca %class.cRealTimeScheduler*, align 8
  store %class.cRealTimeScheduler* %this, %class.cRealTimeScheduler** %this.addr, align 8
  call void @llvm.dbg.declare(metadata %class.cRealTimeScheduler** %this.addr, metadata !1676, metadata !DIExpression()), !dbg !1678
  %this1 = load %class.cRealTimeScheduler*, %class.cRealTimeScheduler** %this.addr, align 8
  %call = call %class.cEnvir* @_ZN11cSimulation14getActiveEnvirEv(), !dbg !1679
  %0 = bitcast %class.cEnvir* %call to %class.cConfiguration* (%class.cEnvir*)***, !dbg !1680
  %vtable = load %class.cConfiguration* (%class.cEnvir*)**, %class.cConfiguration* (%class.cEnvir*)*** %0, align 8, !dbg !1680
  %vfn = getelementptr inbounds %class.cConfiguration* (%class.cEnvir*)*, %class.cConfiguration* (%class.cEnvir*)** %vtable, i64 31, !dbg !1680
  %1 = load %class.cConfiguration* (%class.cEnvir*)*, %class.cConfiguration* (%class.cEnvir*)** %vfn, align 8, !dbg !1680
  %call2 = call %class.cConfiguration* %1(%class.cEnvir* %call), !dbg !1680
  %2 = load %class.cConfigOption*, %class.cConfigOption** @CFGID_REALTIMESCHEDULER_SCALING, align 8, !dbg !1681
  %3 = bitcast %class.cConfiguration* %call2 to double (%class.cConfiguration*, %class.cConfigOption*, double)***, !dbg !1682
  %vtable3 = load double (%class.cConfiguration*, %class.cConfigOption*, double)**, double (%class.cConfiguration*, %class.cConfigOption*, double)*** %3, align 8, !dbg !1682
  %vfn4 = getelementptr inbounds double (%class.cConfiguration*, %class.cConfigOption*, double)*, double (%class.cConfiguration*, %class.cConfigOption*, double)** %vtable3, i64 27, !dbg !1682
  %4 = load double (%class.cConfiguration*, %class.cConfigOption*, double)*, double (%class.cConfiguration*, %class.cConfigOption*, double)** %vfn4, align 8, !dbg !1682
  %call5 = call double %4(%class.cConfiguration* %call2, %class.cConfigOption* %2, double 0.000000e+00), !dbg !1682
  %factor = getelementptr inbounds %class.cRealTimeScheduler, %class.cRealTimeScheduler* %this1, i32 0, i32 2, !dbg !1683
  store double %call5, double* %factor, align 8, !dbg !1684
  %factor6 = getelementptr inbounds %class.cRealTimeScheduler, %class.cRealTimeScheduler* %this1, i32 0, i32 2, !dbg !1685
  %5 = load double, double* %factor6, align 8, !dbg !1685
  %cmp = fcmp une double %5, 0.000000e+00, !dbg !1687
  br i1 %cmp, label %if.then, label %if.end, !dbg !1688

if.then:                                          ; preds = %entry
  %factor7 = getelementptr inbounds %class.cRealTimeScheduler, %class.cRealTimeScheduler* %this1, i32 0, i32 2, !dbg !1689
  %6 = load double, double* %factor7, align 8, !dbg !1689
  %div = fdiv double 1.000000e+00, %6, !dbg !1690
  %factor8 = getelementptr inbounds %class.cRealTimeScheduler, %class.cRealTimeScheduler* %this1, i32 0, i32 2, !dbg !1691
  store double %div, double* %factor8, align 8, !dbg !1692
  br label %if.end, !dbg !1691

if.end:                                           ; preds = %if.then, %entry
  %factor9 = getelementptr inbounds %class.cRealTimeScheduler, %class.cRealTimeScheduler* %this1, i32 0, i32 2, !dbg !1693
  %7 = load double, double* %factor9, align 8, !dbg !1693
  %cmp10 = fcmp une double %7, 0.000000e+00, !dbg !1694
  %doScaling = getelementptr inbounds %class.cRealTimeScheduler, %class.cRealTimeScheduler* %this1, i32 0, i32 1, !dbg !1695
  %frombool = zext i1 %cmp10 to i8, !dbg !1696
  store i8 %frombool, i8* %doScaling, align 8, !dbg !1696
  %baseTime = getelementptr inbounds %class.cRealTimeScheduler, %class.cRealTimeScheduler* %this1, i32 0, i32 3, !dbg !1697
  %call11 = call i32 @gettimeofday(%struct.timeval* %baseTime, i8* null) #3, !dbg !1698
  ret void, !dbg !1699
}

; Function Attrs: noinline nounwind uwtable
define linkonce_odr dso_local %class.cEnvir* @_ZN11cSimulation14getActiveEnvirEv() #5 comdat align 2 !dbg !1700 {
entry:
  %0 = load %class.cEnvir*, %class.cEnvir** @_ZN11cSimulation5evPtrE, align 8, !dbg !1707
  ret %class.cEnvir* %0, !dbg !1708
}

; Function Attrs: nounwind
declare dso_local i32 @gettimeofday(%struct.timeval*, i8*) #2

; Function Attrs: noinline nounwind uwtable
define dso_local void @_ZN18cRealTimeScheduler6endRunEv(%class.cRealTimeScheduler* %this) unnamed_addr #5 align 2 !dbg !1709 {
entry:
  %this.addr = alloca %class.cRealTimeScheduler*, align 8
  store %class.cRealTimeScheduler* %this, %class.cRealTimeScheduler** %this.addr, align 8
  call void @llvm.dbg.declare(metadata %class.cRealTimeScheduler** %this.addr, metadata !1710, metadata !DIExpression()), !dbg !1711
  %this1 = load %class.cRealTimeScheduler*, %class.cRealTimeScheduler** %this.addr, align 8
  ret void, !dbg !1712
}

; Function Attrs: noinline uwtable
define dso_local void @_ZN18cRealTimeScheduler16executionResumedEv(%class.cRealTimeScheduler* %this) unnamed_addr #0 align 2 !dbg !1713 {
entry:
  %this.addr = alloca %class.cRealTimeScheduler*, align 8
  %ref.tmp = alloca %struct.timeval, align 8
  %ref.tmp3 = alloca %class.SimTime, align 8
  %ref.tmp4 = alloca %class.SimTime, align 8
  store %class.cRealTimeScheduler* %this, %class.cRealTimeScheduler** %this.addr, align 8
  call void @llvm.dbg.declare(metadata %class.cRealTimeScheduler** %this.addr, metadata !1714, metadata !DIExpression()), !dbg !1715
  %this1 = load %class.cRealTimeScheduler*, %class.cRealTimeScheduler** %this.addr, align 8
  %baseTime = getelementptr inbounds %class.cRealTimeScheduler, %class.cRealTimeScheduler* %this1, i32 0, i32 3, !dbg !1716
  %call = call i32 @gettimeofday(%struct.timeval* %baseTime, i8* null) #3, !dbg !1717
  %baseTime2 = getelementptr inbounds %class.cRealTimeScheduler, %class.cRealTimeScheduler* %this1, i32 0, i32 3, !dbg !1718
  %doScaling = getelementptr inbounds %class.cRealTimeScheduler, %class.cRealTimeScheduler* %this1, i32 0, i32 1, !dbg !1719
  %0 = load i8, i8* %doScaling, align 8, !dbg !1719
  %tobool = trunc i8 %0 to i1, !dbg !1719
  br i1 %tobool, label %cond.true, label %cond.false, !dbg !1719

cond.true:                                        ; preds = %entry
  %factor = getelementptr inbounds %class.cRealTimeScheduler, %class.cRealTimeScheduler* %this1, i32 0, i32 2, !dbg !1719
  %1 = load double, double* %factor, align 8, !dbg !1719
  %2 = bitcast %class.cRealTimeScheduler* %this1 to %class.cScheduler*, !dbg !1719
  %sim = getelementptr inbounds %class.cScheduler, %class.cScheduler* %2, i32 0, i32 1, !dbg !1719
  %3 = load %class.cSimulation*, %class.cSimulation** %sim, align 8, !dbg !1719
  call void @_ZNK11cSimulation10getSimTimeEv(%class.SimTime* sret %ref.tmp4, %class.cSimulation* %3), !dbg !1719
  call void @_ZmldRK7SimTime(%class.SimTime* sret %ref.tmp3, double %1, %class.SimTime* dereferenceable(8) %ref.tmp4), !dbg !1719
  br label %cond.end, !dbg !1719

cond.false:                                       ; preds = %entry
  %4 = bitcast %class.cRealTimeScheduler* %this1 to %class.cScheduler*, !dbg !1719
  %sim5 = getelementptr inbounds %class.cScheduler, %class.cScheduler* %4, i32 0, i32 1, !dbg !1719
  %5 = load %class.cSimulation*, %class.cSimulation** %sim5, align 8, !dbg !1719
  call void @_ZNK11cSimulation10getSimTimeEv(%class.SimTime* sret %ref.tmp3, %class.cSimulation* %5), !dbg !1719
  br label %cond.end, !dbg !1719

cond.end:                                         ; preds = %cond.false, %cond.true
  %call6 = call double @_ZNK7SimTime3dblEv(%class.SimTime* %ref.tmp3), !dbg !1719
  %call7 = call { i64, i64 } @_Z17timeval_substractRK7timevald(%struct.timeval* dereferenceable(16) %baseTime2, double %call6), !dbg !1720
  %6 = bitcast %struct.timeval* %ref.tmp to { i64, i64 }*, !dbg !1720
  %7 = getelementptr inbounds { i64, i64 }, { i64, i64 }* %6, i32 0, i32 0, !dbg !1720
  %8 = extractvalue { i64, i64 } %call7, 0, !dbg !1720
  store i64 %8, i64* %7, align 8, !dbg !1720
  %9 = getelementptr inbounds { i64, i64 }, { i64, i64 }* %6, i32 0, i32 1, !dbg !1720
  %10 = extractvalue { i64, i64 } %call7, 1, !dbg !1720
  store i64 %10, i64* %9, align 8, !dbg !1720
  %baseTime8 = getelementptr inbounds %class.cRealTimeScheduler, %class.cRealTimeScheduler* %this1, i32 0, i32 3, !dbg !1721
  %11 = bitcast %struct.timeval* %baseTime8 to i8*, !dbg !1722
  %12 = bitcast %struct.timeval* %ref.tmp to i8*, !dbg !1722
  call void @llvm.memcpy.p0i8.p0i8.i64(i8* align 8 %11, i8* align 8 %12, i64 16, i1 false), !dbg !1722
  ret void, !dbg !1723
}

; Function Attrs: noinline nounwind uwtable
define linkonce_odr dso_local { i64, i64 } @_Z17timeval_substractRK7timevald(%struct.timeval* dereferenceable(16) %a, double %b) #5 comdat !dbg !1724 {
entry:
  %retval = alloca %struct.timeval, align 8
  %a.addr = alloca %struct.timeval*, align 8
  %b.addr = alloca double, align 8
  %bInt = alloca double, align 8
  %bFrac = alloca double, align 8
  store %struct.timeval* %a, %struct.timeval** %a.addr, align 8
  call void @llvm.dbg.declare(metadata %struct.timeval** %a.addr, metadata !1728, metadata !DIExpression()), !dbg !1729
  store double %b, double* %b.addr, align 8
  call void @llvm.dbg.declare(metadata double* %b.addr, metadata !1730, metadata !DIExpression()), !dbg !1731
  call void @llvm.dbg.declare(metadata double* %bInt, metadata !1732, metadata !DIExpression()), !dbg !1733
  call void @llvm.dbg.declare(metadata double* %bFrac, metadata !1734, metadata !DIExpression()), !dbg !1735
  %0 = load double, double* %b.addr, align 8, !dbg !1736
  %call = call double @modf(double %0, double* %bInt) #3, !dbg !1737
  store double %call, double* %bFrac, align 8, !dbg !1735
  call void @llvm.dbg.declare(metadata %struct.timeval* %retval, metadata !1738, metadata !DIExpression()), !dbg !1739
  %1 = load %struct.timeval*, %struct.timeval** %a.addr, align 8, !dbg !1740
  %tv_sec = getelementptr inbounds %struct.timeval, %struct.timeval* %1, i32 0, i32 0, !dbg !1741
  %2 = load i64, i64* %tv_sec, align 8, !dbg !1741
  %3 = load double, double* %bInt, align 8, !dbg !1742
  %conv = fptosi double %3 to i64, !dbg !1742
  %sub = sub nsw i64 %2, %conv, !dbg !1743
  %tv_sec1 = getelementptr inbounds %struct.timeval, %struct.timeval* %retval, i32 0, i32 0, !dbg !1744
  store i64 %sub, i64* %tv_sec1, align 8, !dbg !1745
  %4 = load %struct.timeval*, %struct.timeval** %a.addr, align 8, !dbg !1746
  %tv_usec = getelementptr inbounds %struct.timeval, %struct.timeval* %4, i32 0, i32 1, !dbg !1747
  %5 = load i64, i64* %tv_usec, align 8, !dbg !1747
  %6 = load double, double* %bFrac, align 8, !dbg !1748
  %mul = fmul double 1.000000e+06, %6, !dbg !1749
  %7 = call double @llvm.floor.f64(double %mul), !dbg !1750
  %conv2 = fptosi double %7 to i64, !dbg !1750
  %sub3 = sub nsw i64 %5, %conv2, !dbg !1751
  %tv_usec4 = getelementptr inbounds %struct.timeval, %struct.timeval* %retval, i32 0, i32 1, !dbg !1752
  store i64 %sub3, i64* %tv_usec4, align 8, !dbg !1753
  %tv_usec5 = getelementptr inbounds %struct.timeval, %struct.timeval* %retval, i32 0, i32 1, !dbg !1754
  %8 = load i64, i64* %tv_usec5, align 8, !dbg !1754
  %cmp = icmp slt i64 %8, 0, !dbg !1756
  br i1 %cmp, label %if.then, label %if.end, !dbg !1757

if.then:                                          ; preds = %entry
  %tv_sec6 = getelementptr inbounds %struct.timeval, %struct.timeval* %retval, i32 0, i32 0, !dbg !1758
  %9 = load i64, i64* %tv_sec6, align 8, !dbg !1760
  %dec = add nsw i64 %9, -1, !dbg !1760
  store i64 %dec, i64* %tv_sec6, align 8, !dbg !1760
  %tv_usec7 = getelementptr inbounds %struct.timeval, %struct.timeval* %retval, i32 0, i32 1, !dbg !1761
  %10 = load i64, i64* %tv_usec7, align 8, !dbg !1762
  %add = add nsw i64 %10, 1000000, !dbg !1762
  store i64 %add, i64* %tv_usec7, align 8, !dbg !1762
  br label %if.end, !dbg !1763

if.end:                                           ; preds = %if.then, %entry
  %11 = bitcast %struct.timeval* %retval to { i64, i64 }*, !dbg !1764
  %12 = load { i64, i64 }, { i64, i64 }* %11, align 8, !dbg !1764
  ret { i64, i64 } %12, !dbg !1764
}

; Function Attrs: noinline uwtable
define linkonce_odr dso_local void @_ZmldRK7SimTime(%class.SimTime* noalias sret %agg.result, double %d, %class.SimTime* dereferenceable(8) %x) #0 comdat !dbg !1765 {
entry:
  %result.ptr = alloca i8*, align 8
  %d.addr = alloca double, align 8
  %x.addr = alloca %class.SimTime*, align 8
  %ref.tmp = alloca %class.SimTime, align 8
  %0 = bitcast %class.SimTime* %agg.result to i8*
  store i8* %0, i8** %result.ptr, align 8
  store double %d, double* %d.addr, align 8
  call void @llvm.dbg.declare(metadata double* %d.addr, metadata !1768, metadata !DIExpression()), !dbg !1769
  store %class.SimTime* %x, %class.SimTime** %x.addr, align 8
  call void @llvm.dbg.declare(metadata %class.SimTime** %x.addr, metadata !1770, metadata !DIExpression()), !dbg !1771
  %1 = load double, double* %d.addr, align 8, !dbg !1772
  %2 = load %class.SimTime*, %class.SimTime** %x.addr, align 8, !dbg !1773
  call void @_ZN7SimTimeC2ERKS_(%class.SimTime* %ref.tmp, %class.SimTime* dereferenceable(8) %2), !dbg !1774
  %call = call dereferenceable(8) %class.SimTime* @_ZN7SimTimemLEd(%class.SimTime* %ref.tmp, double %1), !dbg !1775
  call void @_ZN7SimTimeC2ERKS_(%class.SimTime* %agg.result, %class.SimTime* dereferenceable(8) %call), !dbg !1774
  ret void, !dbg !1776
}

; Function Attrs: noinline uwtable
define linkonce_odr dso_local void @_ZNK11cSimulation10getSimTimeEv(%class.SimTime* noalias sret %agg.result, %class.cSimulation* %this) #0 comdat align 2 !dbg !1777 {
entry:
  %result.ptr = alloca i8*, align 8
  %this.addr = alloca %class.cSimulation*, align 8
  %0 = bitcast %class.SimTime* %agg.result to i8*
  store i8* %0, i8** %result.ptr, align 8
  store %class.cSimulation* %this, %class.cSimulation** %this.addr, align 8
  call void @llvm.dbg.declare(metadata %class.cSimulation** %this.addr, metadata !1785, metadata !DIExpression()), !dbg !1787
  %this1 = load %class.cSimulation*, %class.cSimulation** %this.addr, align 8
  %sim_time = getelementptr inbounds %class.cSimulation, %class.cSimulation* %this1, i32 0, i32 12, !dbg !1788
  call void @_ZN7SimTimeC2ERKS_(%class.SimTime* %agg.result, %class.SimTime* dereferenceable(8) %sim_time), !dbg !1788
  ret void, !dbg !1789
}

; Function Attrs: noinline nounwind uwtable
define linkonce_odr dso_local double @_ZNK7SimTime3dblEv(%class.SimTime* %this) #5 comdat align 2 !dbg !1790 {
entry:
  %this.addr = alloca %class.SimTime*, align 8
  store %class.SimTime* %this, %class.SimTime** %this.addr, align 8
  call void @llvm.dbg.declare(metadata %class.SimTime** %this.addr, metadata !1791, metadata !DIExpression()), !dbg !1793
  %this1 = load %class.SimTime*, %class.SimTime** %this.addr, align 8
  %t = getelementptr inbounds %class.SimTime, %class.SimTime* %this1, i32 0, i32 0, !dbg !1794
  %0 = load i64, i64* %t, align 8, !dbg !1794
  %conv = sitofp i64 %0 to double, !dbg !1794
  %1 = load double, double* @_ZN7SimTime9invfscaleE, align 8, !dbg !1795
  %mul = fmul double %conv, %1, !dbg !1796
  ret double %mul, !dbg !1797
}

; Function Attrs: argmemonly nounwind willreturn
declare void @llvm.memcpy.p0i8.p0i8.i64(i8* noalias nocapture writeonly, i8* noalias nocapture readonly, i64, i1 immarg) #7

; Function Attrs: noinline uwtable
define dso_local zeroext i1 @_ZN18cRealTimeScheduler9waitUntilERK7timeval(%class.cRealTimeScheduler* %this, %struct.timeval* dereferenceable(16) %targetTime) #0 align 2 !dbg !1798 {
entry:
  %retval = alloca i1, align 1
  %this.addr = alloca %class.cRealTimeScheduler*, align 8
  %targetTime.addr = alloca %struct.timeval*, align 8
  %curTime = alloca %struct.timeval, align 8
  %usec = alloca i64, align 8
  store %class.cRealTimeScheduler* %this, %class.cRealTimeScheduler** %this.addr, align 8
  call void @llvm.dbg.declare(metadata %class.cRealTimeScheduler** %this.addr, metadata !1799, metadata !DIExpression()), !dbg !1800
  store %struct.timeval* %targetTime, %struct.timeval** %targetTime.addr, align 8
  call void @llvm.dbg.declare(metadata %struct.timeval** %targetTime.addr, metadata !1801, metadata !DIExpression()), !dbg !1802
  %this1 = load %class.cRealTimeScheduler*, %class.cRealTimeScheduler** %this.addr, align 8
  call void @llvm.dbg.declare(metadata %struct.timeval* %curTime, metadata !1803, metadata !DIExpression()), !dbg !1804
  %call = call i32 @gettimeofday(%struct.timeval* %curTime, i8* null) #3, !dbg !1805
  br label %while.cond, !dbg !1806

while.cond:                                       ; preds = %if.end, %entry
  %0 = load %struct.timeval*, %struct.timeval** %targetTime.addr, align 8, !dbg !1807
  %tv_sec = getelementptr inbounds %struct.timeval, %struct.timeval* %0, i32 0, i32 0, !dbg !1808
  %1 = load i64, i64* %tv_sec, align 8, !dbg !1808
  %tv_sec2 = getelementptr inbounds %struct.timeval, %struct.timeval* %curTime, i32 0, i32 0, !dbg !1809
  %2 = load i64, i64* %tv_sec2, align 8, !dbg !1809
  %sub = sub nsw i64 %1, %2, !dbg !1810
  %cmp = icmp sge i64 %sub, 2, !dbg !1811
  br i1 %cmp, label %lor.end, label %lor.rhs, !dbg !1812

lor.rhs:                                          ; preds = %while.cond
  %3 = load %struct.timeval*, %struct.timeval** %targetTime.addr, align 8, !dbg !1813
  %call3 = call i64 @_Z17timeval_diff_usecRK7timevalS1_(%struct.timeval* dereferenceable(16) %3, %struct.timeval* dereferenceable(16) %curTime), !dbg !1814
  %cmp4 = icmp sge i64 %call3, 200000, !dbg !1815
  br label %lor.end, !dbg !1812

lor.end:                                          ; preds = %lor.rhs, %while.cond
  %4 = phi i1 [ true, %while.cond ], [ %cmp4, %lor.rhs ]
  br i1 %4, label %while.body, label %while.end, !dbg !1806

while.body:                                       ; preds = %lor.end
  %call5 = call i32 @usleep(i32 100000), !dbg !1816
  %call6 = call %class.cEnvir* @_ZN11cSimulation14getActiveEnvirEv(), !dbg !1818
  %5 = bitcast %class.cEnvir* %call6 to i1 (%class.cEnvir*)***, !dbg !1820
  %vtable = load i1 (%class.cEnvir*)**, i1 (%class.cEnvir*)*** %5, align 8, !dbg !1820
  %vfn = getelementptr inbounds i1 (%class.cEnvir*)*, i1 (%class.cEnvir*)** %vtable, i64 56, !dbg !1820
  %6 = load i1 (%class.cEnvir*)*, i1 (%class.cEnvir*)** %vfn, align 8, !dbg !1820
  %call7 = call zeroext i1 %6(%class.cEnvir* %call6), !dbg !1820
  br i1 %call7, label %if.then, label %if.end, !dbg !1821

if.then:                                          ; preds = %while.body
  store i1 false, i1* %retval, align 1, !dbg !1822
  br label %return, !dbg !1822

if.end:                                           ; preds = %while.body
  %call8 = call i32 @gettimeofday(%struct.timeval* %curTime, i8* null) #3, !dbg !1823
  br label %while.cond, !dbg !1806, !llvm.loop !1824

while.end:                                        ; preds = %lor.end
  call void @llvm.dbg.declare(metadata i64* %usec, metadata !1826, metadata !DIExpression()), !dbg !1827
  %7 = load %struct.timeval*, %struct.timeval** %targetTime.addr, align 8, !dbg !1828
  %call9 = call i64 @_Z17timeval_diff_usecRK7timevalS1_(%struct.timeval* dereferenceable(16) %7, %struct.timeval* dereferenceable(16) %curTime), !dbg !1829
  store i64 %call9, i64* %usec, align 8, !dbg !1827
  %8 = load i64, i64* %usec, align 8, !dbg !1830
  %cmp10 = icmp sgt i64 %8, 0, !dbg !1832
  br i1 %cmp10, label %if.then11, label %if.end13, !dbg !1833

if.then11:                                        ; preds = %while.end
  %9 = load i64, i64* %usec, align 8, !dbg !1834
  %conv = trunc i64 %9 to i32, !dbg !1834
  %call12 = call i32 @usleep(i32 %conv), !dbg !1835
  br label %if.end13, !dbg !1835

if.end13:                                         ; preds = %if.then11, %while.end
  store i1 true, i1* %retval, align 1, !dbg !1836
  br label %return, !dbg !1836

return:                                           ; preds = %if.end13, %if.then
  %10 = load i1, i1* %retval, align 1, !dbg !1837
  ret i1 %10, !dbg !1837
}

; Function Attrs: noinline nounwind uwtable
define linkonce_odr dso_local i64 @_Z17timeval_diff_usecRK7timevalS1_(%struct.timeval* dereferenceable(16) %t2, %struct.timeval* dereferenceable(16) %t1) #5 comdat !dbg !1838 {
entry:
  %t2.addr = alloca %struct.timeval*, align 8
  %t1.addr = alloca %struct.timeval*, align 8
  %sec = alloca i64, align 8
  %usec = alloca i64, align 8
  store %struct.timeval* %t2, %struct.timeval** %t2.addr, align 8
  call void @llvm.dbg.declare(metadata %struct.timeval** %t2.addr, metadata !1841, metadata !DIExpression()), !dbg !1842
  store %struct.timeval* %t1, %struct.timeval** %t1.addr, align 8
  call void @llvm.dbg.declare(metadata %struct.timeval** %t1.addr, metadata !1843, metadata !DIExpression()), !dbg !1844
  call void @llvm.dbg.declare(metadata i64* %sec, metadata !1845, metadata !DIExpression()), !dbg !1846
  %0 = load %struct.timeval*, %struct.timeval** %t2.addr, align 8, !dbg !1847
  %tv_sec = getelementptr inbounds %struct.timeval, %struct.timeval* %0, i32 0, i32 0, !dbg !1848
  %1 = load i64, i64* %tv_sec, align 8, !dbg !1848
  %2 = load %struct.timeval*, %struct.timeval** %t1.addr, align 8, !dbg !1849
  %tv_sec1 = getelementptr inbounds %struct.timeval, %struct.timeval* %2, i32 0, i32 0, !dbg !1850
  %3 = load i64, i64* %tv_sec1, align 8, !dbg !1850
  %sub = sub nsw i64 %1, %3, !dbg !1851
  store i64 %sub, i64* %sec, align 8, !dbg !1846
  call void @llvm.dbg.declare(metadata i64* %usec, metadata !1852, metadata !DIExpression()), !dbg !1853
  %4 = load %struct.timeval*, %struct.timeval** %t2.addr, align 8, !dbg !1854
  %tv_usec = getelementptr inbounds %struct.timeval, %struct.timeval* %4, i32 0, i32 1, !dbg !1855
  %5 = load i64, i64* %tv_usec, align 8, !dbg !1855
  %6 = load %struct.timeval*, %struct.timeval** %t1.addr, align 8, !dbg !1856
  %tv_usec2 = getelementptr inbounds %struct.timeval, %struct.timeval* %6, i32 0, i32 1, !dbg !1857
  %7 = load i64, i64* %tv_usec2, align 8, !dbg !1857
  %sub3 = sub nsw i64 %5, %7, !dbg !1858
  store i64 %sub3, i64* %usec, align 8, !dbg !1853
  %8 = load i64, i64* %sec, align 8, !dbg !1859
  %mul = mul nsw i64 %8, 1000000, !dbg !1860
  %9 = load i64, i64* %usec, align 8, !dbg !1861
  %add = add nsw i64 %mul, %9, !dbg !1862
  ret i64 %add, !dbg !1863
}

declare dso_local i32 @usleep(i32) #1

; Function Attrs: noinline uwtable
define dso_local %class.cMessage* @_ZN18cRealTimeScheduler12getNextEventEv(%class.cRealTimeScheduler* %this) unnamed_addr #0 align 2 personality i8* bitcast (i32 (...)* @__gxx_personality_v0 to i8*) !dbg !1864 {
entry:
  %retval = alloca %class.cMessage*, align 8
  %this.addr = alloca %class.cRealTimeScheduler*, align 8
  %msg = alloca %class.cMessage*, align 8
  %exn.slot = alloca i8*
  %ehselector.slot = alloca i32
  %eventSimtime = alloca %class.SimTime, align 8
  %targetTime = alloca %struct.timeval, align 8
  %ref.tmp = alloca %class.SimTime, align 8
  %curTime = alloca %struct.timeval, align 8
  store %class.cRealTimeScheduler* %this, %class.cRealTimeScheduler** %this.addr, align 8
  call void @llvm.dbg.declare(metadata %class.cRealTimeScheduler** %this.addr, metadata !1865, metadata !DIExpression()), !dbg !1866
  %this1 = load %class.cRealTimeScheduler*, %class.cRealTimeScheduler** %this.addr, align 8
  call void @llvm.dbg.declare(metadata %class.cMessage** %msg, metadata !1867, metadata !DIExpression()), !dbg !1868
  %0 = bitcast %class.cRealTimeScheduler* %this1 to %class.cScheduler*, !dbg !1869
  %sim = getelementptr inbounds %class.cScheduler, %class.cScheduler* %0, i32 0, i32 1, !dbg !1869
  %1 = load %class.cSimulation*, %class.cSimulation** %sim, align 8, !dbg !1869
  %msgQueue = getelementptr inbounds %class.cSimulation, %class.cSimulation* %1, i32 0, i32 17, !dbg !1870
  %call = call %class.cMessage* @_ZNK12cMessageHeap9peekFirstEv(%class.cMessageHeap* %msgQueue), !dbg !1871
  store %class.cMessage* %call, %class.cMessage** %msg, align 8, !dbg !1868
  %2 = load %class.cMessage*, %class.cMessage** %msg, align 8, !dbg !1872
  %tobool = icmp ne %class.cMessage* %2, null, !dbg !1872
  br i1 %tobool, label %if.end, label %if.then, !dbg !1874

if.then:                                          ; preds = %entry
  %exception = call i8* @__cxa_allocate_exception(i64 128) #3, !dbg !1875
  %3 = bitcast i8* %exception to %class.cTerminationException*, !dbg !1875
  invoke void (%class.cTerminationException*, i32, ...) @_ZN21cTerminationExceptionC1E12OppErrorCodez(%class.cTerminationException* %3, i32 13)
          to label %invoke.cont unwind label %lpad, !dbg !1876

invoke.cont:                                      ; preds = %if.then
  call void @__cxa_throw(i8* %exception, i8* bitcast ({ i8*, i8*, i8* }* @_ZTI21cTerminationException to i8*), i8* bitcast (void (%class.cTerminationException*)* @_ZN21cTerminationExceptionD2Ev to i8*)) #13, !dbg !1875
  unreachable, !dbg !1875

lpad:                                             ; preds = %if.then
  %4 = landingpad { i8*, i32 }
          cleanup, !dbg !1877
  %5 = extractvalue { i8*, i32 } %4, 0, !dbg !1877
  store i8* %5, i8** %exn.slot, align 8, !dbg !1877
  %6 = extractvalue { i8*, i32 } %4, 1, !dbg !1877
  store i32 %6, i32* %ehselector.slot, align 4, !dbg !1877
  call void @__cxa_free_exception(i8* %exception) #3, !dbg !1875
  br label %eh.resume, !dbg !1875

if.end:                                           ; preds = %entry
  call void @llvm.dbg.declare(metadata %class.SimTime* %eventSimtime, metadata !1878, metadata !DIExpression()), !dbg !1879
  %7 = load %class.cMessage*, %class.cMessage** %msg, align 8, !dbg !1880
  call void @_ZNK8cMessage14getArrivalTimeEv(%class.SimTime* sret %eventSimtime, %class.cMessage* %7), !dbg !1881
  call void @llvm.dbg.declare(metadata %struct.timeval* %targetTime, metadata !1882, metadata !DIExpression()), !dbg !1883
  %baseTime = getelementptr inbounds %class.cRealTimeScheduler, %class.cRealTimeScheduler* %this1, i32 0, i32 3, !dbg !1884
  %doScaling = getelementptr inbounds %class.cRealTimeScheduler, %class.cRealTimeScheduler* %this1, i32 0, i32 1, !dbg !1885
  %8 = load i8, i8* %doScaling, align 8, !dbg !1885
  %tobool2 = trunc i8 %8 to i1, !dbg !1885
  br i1 %tobool2, label %cond.true, label %cond.false, !dbg !1885

cond.true:                                        ; preds = %if.end
  %factor = getelementptr inbounds %class.cRealTimeScheduler, %class.cRealTimeScheduler* %this1, i32 0, i32 2, !dbg !1885
  %9 = load double, double* %factor, align 8, !dbg !1885
  call void @_ZmldRK7SimTime(%class.SimTime* sret %ref.tmp, double %9, %class.SimTime* dereferenceable(8) %eventSimtime), !dbg !1885
  br label %cond.end, !dbg !1885

cond.false:                                       ; preds = %if.end
  call void @_ZN7SimTimeC2ERKS_(%class.SimTime* %ref.tmp, %class.SimTime* dereferenceable(8) %eventSimtime), !dbg !1885
  br label %cond.end, !dbg !1885

cond.end:                                         ; preds = %cond.false, %cond.true
  %call3 = call double @_ZNK7SimTime3dblEv(%class.SimTime* %ref.tmp), !dbg !1885
  %call4 = call { i64, i64 } @_Z11timeval_addRK7timevald(%struct.timeval* dereferenceable(16) %baseTime, double %call3), !dbg !1886
  %10 = bitcast %struct.timeval* %targetTime to { i64, i64 }*, !dbg !1886
  %11 = getelementptr inbounds { i64, i64 }, { i64, i64 }* %10, i32 0, i32 0, !dbg !1886
  %12 = extractvalue { i64, i64 } %call4, 0, !dbg !1886
  store i64 %12, i64* %11, align 8, !dbg !1886
  %13 = getelementptr inbounds { i64, i64 }, { i64, i64 }* %10, i32 0, i32 1, !dbg !1886
  %14 = extractvalue { i64, i64 } %call4, 1, !dbg !1886
  store i64 %14, i64* %13, align 8, !dbg !1886
  call void @llvm.dbg.declare(metadata %struct.timeval* %curTime, metadata !1887, metadata !DIExpression()), !dbg !1888
  %call5 = call i32 @gettimeofday(%struct.timeval* %curTime, i8* null) #3, !dbg !1889
  %call6 = call zeroext i1 @_Z15timeval_greaterRK7timevalS1_(%struct.timeval* dereferenceable(16) %targetTime, %struct.timeval* dereferenceable(16) %curTime), !dbg !1890
  br i1 %call6, label %if.then7, label %if.else, !dbg !1892

if.then7:                                         ; preds = %cond.end
  %call8 = call zeroext i1 @_ZN18cRealTimeScheduler9waitUntilERK7timeval(%class.cRealTimeScheduler* %this1, %struct.timeval* dereferenceable(16) %targetTime), !dbg !1893
  br i1 %call8, label %if.end10, label %if.then9, !dbg !1896

if.then9:                                         ; preds = %if.then7
  store %class.cMessage* null, %class.cMessage** %retval, align 8, !dbg !1897
  br label %return, !dbg !1897

if.end10:                                         ; preds = %if.then7
  br label %if.end11, !dbg !1898

if.else:                                          ; preds = %cond.end
  br label %if.end11

if.end11:                                         ; preds = %if.else, %if.end10
  %15 = load %class.cMessage*, %class.cMessage** %msg, align 8, !dbg !1899
  store %class.cMessage* %15, %class.cMessage** %retval, align 8, !dbg !1900
  br label %return, !dbg !1900

return:                                           ; preds = %if.end11, %if.then9
  %16 = load %class.cMessage*, %class.cMessage** %retval, align 8, !dbg !1901
  ret %class.cMessage* %16, !dbg !1901

eh.resume:                                        ; preds = %lpad
  %exn = load i8*, i8** %exn.slot, align 8, !dbg !1875
  %sel = load i32, i32* %ehselector.slot, align 4, !dbg !1875
  %lpad.val = insertvalue { i8*, i32 } undef, i8* %exn, 0, !dbg !1875
  %lpad.val12 = insertvalue { i8*, i32 } %lpad.val, i32 %sel, 1, !dbg !1875
  resume { i8*, i32 } %lpad.val12, !dbg !1875
}

; Function Attrs: noinline uwtable
define linkonce_odr dso_local void @_ZNK8cMessage14getArrivalTimeEv(%class.SimTime* noalias sret %agg.result, %class.cMessage* %this) #0 comdat align 2 !dbg !1902 {
entry:
  %result.ptr = alloca i8*, align 8
  %this.addr = alloca %class.cMessage*, align 8
  %0 = bitcast %class.SimTime* %agg.result to i8*
  store i8* %0, i8** %result.ptr, align 8
  store %class.cMessage* %this, %class.cMessage** %this.addr, align 8
  call void @llvm.dbg.declare(metadata %class.cMessage** %this.addr, metadata !1908, metadata !DIExpression()), !dbg !1910
  %this1 = load %class.cMessage*, %class.cMessage** %this.addr, align 8
  %delivd = getelementptr inbounds %class.cMessage, %class.cMessage* %this1, i32 0, i32 13, !dbg !1911
  call void @_ZN7SimTimeC2ERKS_(%class.SimTime* %agg.result, %class.SimTime* dereferenceable(8) %delivd), !dbg !1911
  ret void, !dbg !1912
}

; Function Attrs: noinline nounwind uwtable
define linkonce_odr dso_local { i64, i64 } @_Z11timeval_addRK7timevald(%struct.timeval* dereferenceable(16) %a, double %b) #5 comdat !dbg !1913 {
entry:
  %retval = alloca %struct.timeval, align 8
  %a.addr = alloca %struct.timeval*, align 8
  %b.addr = alloca double, align 8
  %bInt = alloca double, align 8
  %bFrac = alloca double, align 8
  store %struct.timeval* %a, %struct.timeval** %a.addr, align 8
  call void @llvm.dbg.declare(metadata %struct.timeval** %a.addr, metadata !1914, metadata !DIExpression()), !dbg !1915
  store double %b, double* %b.addr, align 8
  call void @llvm.dbg.declare(metadata double* %b.addr, metadata !1916, metadata !DIExpression()), !dbg !1917
  call void @llvm.dbg.declare(metadata double* %bInt, metadata !1918, metadata !DIExpression()), !dbg !1919
  call void @llvm.dbg.declare(metadata double* %bFrac, metadata !1920, metadata !DIExpression()), !dbg !1921
  %0 = load double, double* %b.addr, align 8, !dbg !1922
  %call = call double @modf(double %0, double* %bInt) #3, !dbg !1923
  store double %call, double* %bFrac, align 8, !dbg !1921
  call void @llvm.dbg.declare(metadata %struct.timeval* %retval, metadata !1924, metadata !DIExpression()), !dbg !1925
  %1 = load %struct.timeval*, %struct.timeval** %a.addr, align 8, !dbg !1926
  %tv_sec = getelementptr inbounds %struct.timeval, %struct.timeval* %1, i32 0, i32 0, !dbg !1927
  %2 = load i64, i64* %tv_sec, align 8, !dbg !1927
  %3 = load double, double* %bInt, align 8, !dbg !1928
  %conv = fptosi double %3 to i64, !dbg !1928
  %add = add nsw i64 %2, %conv, !dbg !1929
  %tv_sec1 = getelementptr inbounds %struct.timeval, %struct.timeval* %retval, i32 0, i32 0, !dbg !1930
  store i64 %add, i64* %tv_sec1, align 8, !dbg !1931
  %4 = load %struct.timeval*, %struct.timeval** %a.addr, align 8, !dbg !1932
  %tv_usec = getelementptr inbounds %struct.timeval, %struct.timeval* %4, i32 0, i32 1, !dbg !1933
  %5 = load i64, i64* %tv_usec, align 8, !dbg !1933
  %6 = load double, double* %bFrac, align 8, !dbg !1934
  %mul = fmul double 1.000000e+06, %6, !dbg !1935
  %7 = call double @llvm.floor.f64(double %mul), !dbg !1936
  %conv2 = fptosi double %7 to i64, !dbg !1936
  %add3 = add nsw i64 %5, %conv2, !dbg !1937
  %tv_usec4 = getelementptr inbounds %struct.timeval, %struct.timeval* %retval, i32 0, i32 1, !dbg !1938
  store i64 %add3, i64* %tv_usec4, align 8, !dbg !1939
  %tv_usec5 = getelementptr inbounds %struct.timeval, %struct.timeval* %retval, i32 0, i32 1, !dbg !1940
  %8 = load i64, i64* %tv_usec5, align 8, !dbg !1940
  %cmp = icmp sgt i64 %8, 1000000, !dbg !1942
  br i1 %cmp, label %if.then, label %if.end, !dbg !1943

if.then:                                          ; preds = %entry
  %tv_sec6 = getelementptr inbounds %struct.timeval, %struct.timeval* %retval, i32 0, i32 0, !dbg !1944
  %9 = load i64, i64* %tv_sec6, align 8, !dbg !1946
  %inc = add nsw i64 %9, 1, !dbg !1946
  store i64 %inc, i64* %tv_sec6, align 8, !dbg !1946
  %tv_usec7 = getelementptr inbounds %struct.timeval, %struct.timeval* %retval, i32 0, i32 1, !dbg !1947
  %10 = load i64, i64* %tv_usec7, align 8, !dbg !1948
  %sub = sub nsw i64 %10, 1000000, !dbg !1948
  store i64 %sub, i64* %tv_usec7, align 8, !dbg !1948
  br label %if.end, !dbg !1949

if.end:                                           ; preds = %if.then, %entry
  %11 = bitcast %struct.timeval* %retval to { i64, i64 }*, !dbg !1950
  %12 = load { i64, i64 }, { i64, i64 }* %11, align 8, !dbg !1950
  ret { i64, i64 } %12, !dbg !1950
}

; Function Attrs: noinline uwtable
define linkonce_odr dso_local void @_ZN7SimTimeC2ERKS_(%class.SimTime* %this, %class.SimTime* dereferenceable(8) %x) unnamed_addr #0 comdat align 2 !dbg !1951 {
entry:
  %this.addr = alloca %class.SimTime*, align 8
  %x.addr = alloca %class.SimTime*, align 8
  store %class.SimTime* %this, %class.SimTime** %this.addr, align 8
  call void @llvm.dbg.declare(metadata %class.SimTime** %this.addr, metadata !1952, metadata !DIExpression()), !dbg !1954
  store %class.SimTime* %x, %class.SimTime** %x.addr, align 8
  call void @llvm.dbg.declare(metadata %class.SimTime** %x.addr, metadata !1955, metadata !DIExpression()), !dbg !1956
  %this1 = load %class.SimTime*, %class.SimTime** %this.addr, align 8
  %0 = load %class.SimTime*, %class.SimTime** %x.addr, align 8, !dbg !1957
  %call = call dereferenceable(8) %class.SimTime* @_ZN7SimTimeaSERKS_(%class.SimTime* %this1, %class.SimTime* dereferenceable(8) %0), !dbg !1959
  ret void, !dbg !1960
}

; Function Attrs: noinline nounwind uwtable
define linkonce_odr dso_local zeroext i1 @_Z15timeval_greaterRK7timevalS1_(%struct.timeval* dereferenceable(16) %a, %struct.timeval* dereferenceable(16) %b) #5 comdat !dbg !1961 {
entry:
  %retval = alloca i1, align 1
  %a.addr = alloca %struct.timeval*, align 8
  %b.addr = alloca %struct.timeval*, align 8
  store %struct.timeval* %a, %struct.timeval** %a.addr, align 8
  call void @llvm.dbg.declare(metadata %struct.timeval** %a.addr, metadata !1964, metadata !DIExpression()), !dbg !1965
  store %struct.timeval* %b, %struct.timeval** %b.addr, align 8
  call void @llvm.dbg.declare(metadata %struct.timeval** %b.addr, metadata !1966, metadata !DIExpression()), !dbg !1967
  %0 = load %struct.timeval*, %struct.timeval** %a.addr, align 8, !dbg !1968
  %tv_sec = getelementptr inbounds %struct.timeval, %struct.timeval* %0, i32 0, i32 0, !dbg !1970
  %1 = load i64, i64* %tv_sec, align 8, !dbg !1970
  %2 = load %struct.timeval*, %struct.timeval** %b.addr, align 8, !dbg !1971
  %tv_sec1 = getelementptr inbounds %struct.timeval, %struct.timeval* %2, i32 0, i32 0, !dbg !1972
  %3 = load i64, i64* %tv_sec1, align 8, !dbg !1972
  %cmp = icmp eq i64 %1, %3, !dbg !1973
  br i1 %cmp, label %if.then, label %if.else, !dbg !1974

if.then:                                          ; preds = %entry
  %4 = load %struct.timeval*, %struct.timeval** %a.addr, align 8, !dbg !1975
  %tv_usec = getelementptr inbounds %struct.timeval, %struct.timeval* %4, i32 0, i32 1, !dbg !1976
  %5 = load i64, i64* %tv_usec, align 8, !dbg !1976
  %6 = load %struct.timeval*, %struct.timeval** %b.addr, align 8, !dbg !1977
  %tv_usec2 = getelementptr inbounds %struct.timeval, %struct.timeval* %6, i32 0, i32 1, !dbg !1978
  %7 = load i64, i64* %tv_usec2, align 8, !dbg !1978
  %cmp3 = icmp sgt i64 %5, %7, !dbg !1979
  store i1 %cmp3, i1* %retval, align 1, !dbg !1980
  br label %return, !dbg !1980

if.else:                                          ; preds = %entry
  %8 = load %struct.timeval*, %struct.timeval** %a.addr, align 8, !dbg !1981
  %tv_sec4 = getelementptr inbounds %struct.timeval, %struct.timeval* %8, i32 0, i32 0, !dbg !1982
  %9 = load i64, i64* %tv_sec4, align 8, !dbg !1982
  %10 = load %struct.timeval*, %struct.timeval** %b.addr, align 8, !dbg !1983
  %tv_sec5 = getelementptr inbounds %struct.timeval, %struct.timeval* %10, i32 0, i32 0, !dbg !1984
  %11 = load i64, i64* %tv_sec5, align 8, !dbg !1984
  %cmp6 = icmp ugt i64 %9, %11, !dbg !1985
  store i1 %cmp6, i1* %retval, align 1, !dbg !1986
  br label %return, !dbg !1986

return:                                           ; preds = %if.else, %if.then
  %12 = load i1, i1* %retval, align 1, !dbg !1987
  ret i1 %12, !dbg !1987
}

declare dso_local %class.cClassDescriptor* @_ZN7cObject13getDescriptorEv(%class.cObject*) unnamed_addr #1

declare dso_local void @_ZN7cObject18ownedObjectDeletedEP12cOwnedObject(%class.cObject*, %class.cOwnedObject*) unnamed_addr #1

declare dso_local void @_ZN7cObject14yieldOwnershipEP12cOwnedObjectPS_(%class.cObject*, %class.cOwnedObject*, %class.cObject*) unnamed_addr #1

; Function Attrs: noinline nounwind uwtable
define linkonce_odr dso_local void @_ZN20cSequentialSchedulerD2Ev(%class.cSequentialScheduler* %this) unnamed_addr #5 comdat align 2 !dbg !1988 {
entry:
  %this.addr = alloca %class.cSequentialScheduler*, align 8
  store %class.cSequentialScheduler* %this, %class.cSequentialScheduler** %this.addr, align 8
  call void @llvm.dbg.declare(metadata %class.cSequentialScheduler** %this.addr, metadata !1990, metadata !DIExpression()), !dbg !1991
  %this1 = load %class.cSequentialScheduler*, %class.cSequentialScheduler** %this.addr, align 8
  %0 = bitcast %class.cSequentialScheduler* %this1 to %class.cScheduler*, !dbg !1992
  call void @_ZN10cSchedulerD2Ev(%class.cScheduler* %0) #3, !dbg !1992
  ret void, !dbg !1994
}

; Function Attrs: noinline nounwind uwtable
define linkonce_odr dso_local void @_ZN20cSequentialSchedulerD0Ev(%class.cSequentialScheduler* %this) unnamed_addr #5 comdat align 2 !dbg !1995 {
entry:
  %this.addr = alloca %class.cSequentialScheduler*, align 8
  store %class.cSequentialScheduler* %this, %class.cSequentialScheduler** %this.addr, align 8
  call void @llvm.dbg.declare(metadata %class.cSequentialScheduler** %this.addr, metadata !1996, metadata !DIExpression()), !dbg !1997
  %this1 = load %class.cSequentialScheduler*, %class.cSequentialScheduler** %this.addr, align 8
  call void @_ZN20cSequentialSchedulerD2Ev(%class.cSequentialScheduler* %this1) #3, !dbg !1998
  %0 = bitcast %class.cSequentialScheduler* %this1 to i8*, !dbg !1998
  call void @_ZdlPv(i8* %0) #11, !dbg !1998
  ret void, !dbg !1998
}

declare dso_local i8* @_ZNK7cObject12getClassNameEv(%class.cObject*) unnamed_addr #1

; Function Attrs: noinline nounwind uwtable
define linkonce_odr dso_local i8* @_ZNK7cObject7getNameEv(%class.cObject* %this) unnamed_addr #5 comdat align 2 !dbg !1999 {
entry:
  %this.addr = alloca %class.cObject*, align 8
  store %class.cObject* %this, %class.cObject** %this.addr, align 8
  call void @llvm.dbg.declare(metadata %class.cObject** %this.addr, metadata !2005, metadata !DIExpression()), !dbg !2007
  %this1 = load %class.cObject*, %class.cObject** %this.addr, align 8
  ret i8* getelementptr inbounds ([1 x i8], [1 x i8]* @.str.6, i64 0, i64 0), !dbg !2008
}

; Function Attrs: noinline uwtable
define linkonce_odr dso_local i8* @_ZNK7cObject11getFullNameEv(%class.cObject* %this) unnamed_addr #0 comdat align 2 !dbg !2009 {
entry:
  %this.addr = alloca %class.cObject*, align 8
  store %class.cObject* %this, %class.cObject** %this.addr, align 8
  call void @llvm.dbg.declare(metadata %class.cObject** %this.addr, metadata !2011, metadata !DIExpression()), !dbg !2012
  %this1 = load %class.cObject*, %class.cObject** %this.addr, align 8
  %0 = bitcast %class.cObject* %this1 to i8* (%class.cObject*)***, !dbg !2013
  %vtable = load i8* (%class.cObject*)**, i8* (%class.cObject*)*** %0, align 8, !dbg !2013
  %vfn = getelementptr inbounds i8* (%class.cObject*)*, i8* (%class.cObject*)** %vtable, i64 6, !dbg !2013
  %1 = load i8* (%class.cObject*)*, i8* (%class.cObject*)** %vfn, align 8, !dbg !2013
  %call = call i8* %1(%class.cObject* %this1), !dbg !2013
  ret i8* %call, !dbg !2014
}

declare dso_local void @_ZNK7cObject11getFullPathB5cxx11Ev(%"class.std::__cxx11::basic_string"* sret, %class.cObject*) unnamed_addr #1

declare dso_local void @_ZNK7cObject4infoB5cxx11Ev(%"class.std::__cxx11::basic_string"* sret, %class.cObject*) unnamed_addr #1

declare dso_local void @_ZNK7cObject12detailedInfoB5cxx11Ev(%"class.std::__cxx11::basic_string"* sret, %class.cObject*) unnamed_addr #1

declare dso_local %class.cObject* @_ZNK7cObject3dupEv(%class.cObject*) unnamed_addr #1

declare dso_local void @_ZN7cObject4takeEP12cOwnedObject(%class.cObject*, %class.cOwnedObject*) unnamed_addr #1

declare dso_local void @_ZN7cObject4dropEP12cOwnedObject(%class.cObject*, %class.cOwnedObject*) unnamed_addr #1

declare dso_local void @_ZN7cObject10parsimPackEP11cCommBuffer(%class.cObject*, %class.cCommBuffer*) unnamed_addr #1

declare dso_local void @_ZN7cObject12parsimUnpackEP11cCommBuffer(%class.cObject*, %class.cCommBuffer*) unnamed_addr #1

; Function Attrs: noinline nounwind uwtable
define linkonce_odr dso_local %class.cObject* @_ZNK7cObject8getOwnerEv(%class.cObject* %this) unnamed_addr #5 comdat align 2 !dbg !2015 {
entry:
  %this.addr = alloca %class.cObject*, align 8
  store %class.cObject* %this, %class.cObject** %this.addr, align 8
  call void @llvm.dbg.declare(metadata %class.cObject** %this.addr, metadata !2019, metadata !DIExpression()), !dbg !2020
  %this1 = load %class.cObject*, %class.cObject** %this.addr, align 8
  ret %class.cObject* null, !dbg !2021
}

; Function Attrs: noinline nounwind uwtable
define linkonce_odr dso_local zeroext i1 @_ZNK7cObject13isOwnedObjectEv(%class.cObject* %this) unnamed_addr #5 comdat align 2 !dbg !2022 {
entry:
  %this.addr = alloca %class.cObject*, align 8
  store %class.cObject* %this, %class.cObject** %this.addr, align 8
  call void @llvm.dbg.declare(metadata %class.cObject** %this.addr, metadata !2026, metadata !DIExpression()), !dbg !2027
  %this1 = load %class.cObject*, %class.cObject** %this.addr, align 8
  ret i1 false, !dbg !2028
}

declare dso_local void @_ZN7cObject12forEachChildEP8cVisitor(%class.cObject*, %class.cVisitor*) unnamed_addr #1

; Function Attrs: noinline nounwind uwtable
define linkonce_odr dso_local void @_ZN20cSequentialScheduler8startRunEv(%class.cSequentialScheduler* %this) unnamed_addr #5 comdat align 2 !dbg !2029 {
entry:
  %this.addr = alloca %class.cSequentialScheduler*, align 8
  store %class.cSequentialScheduler* %this, %class.cSequentialScheduler** %this.addr, align 8
  call void @llvm.dbg.declare(metadata %class.cSequentialScheduler** %this.addr, metadata !2030, metadata !DIExpression()), !dbg !2031
  %this1 = load %class.cSequentialScheduler*, %class.cSequentialScheduler** %this.addr, align 8
  ret void, !dbg !2032
}

; Function Attrs: noinline nounwind uwtable
define linkonce_odr dso_local void @_ZN20cSequentialScheduler6endRunEv(%class.cSequentialScheduler* %this) unnamed_addr #5 comdat align 2 !dbg !2033 {
entry:
  %this.addr = alloca %class.cSequentialScheduler*, align 8
  store %class.cSequentialScheduler* %this, %class.cSequentialScheduler** %this.addr, align 8
  call void @llvm.dbg.declare(metadata %class.cSequentialScheduler** %this.addr, metadata !2034, metadata !DIExpression()), !dbg !2035
  %this1 = load %class.cSequentialScheduler*, %class.cSequentialScheduler** %this.addr, align 8
  ret void, !dbg !2036
}

; Function Attrs: noinline nounwind uwtable
define linkonce_odr dso_local void @_ZN10cScheduler16executionResumedEv(%class.cScheduler* %this) unnamed_addr #5 comdat align 2 !dbg !2037 {
entry:
  %this.addr = alloca %class.cScheduler*, align 8
  store %class.cScheduler* %this, %class.cScheduler** %this.addr, align 8
  call void @llvm.dbg.declare(metadata %class.cScheduler** %this.addr, metadata !2038, metadata !DIExpression()), !dbg !2039
  %this1 = load %class.cScheduler*, %class.cScheduler** %this.addr, align 8
  ret void, !dbg !2040
}

; Function Attrs: noinline nounwind uwtable
define linkonce_odr dso_local void @_ZN18cRealTimeSchedulerD2Ev(%class.cRealTimeScheduler* %this) unnamed_addr #5 comdat align 2 !dbg !2041 {
entry:
  %this.addr = alloca %class.cRealTimeScheduler*, align 8
  store %class.cRealTimeScheduler* %this, %class.cRealTimeScheduler** %this.addr, align 8
  call void @llvm.dbg.declare(metadata %class.cRealTimeScheduler** %this.addr, metadata !2042, metadata !DIExpression()), !dbg !2043
  %this1 = load %class.cRealTimeScheduler*, %class.cRealTimeScheduler** %this.addr, align 8
  %0 = bitcast %class.cRealTimeScheduler* %this1 to %class.cScheduler*, !dbg !2044
  call void @_ZN10cSchedulerD2Ev(%class.cScheduler* %0) #3, !dbg !2044
  ret void, !dbg !2046
}

; Function Attrs: noinline nounwind uwtable
define linkonce_odr dso_local void @_ZN18cRealTimeSchedulerD0Ev(%class.cRealTimeScheduler* %this) unnamed_addr #5 comdat align 2 !dbg !2047 {
entry:
  %this.addr = alloca %class.cRealTimeScheduler*, align 8
  store %class.cRealTimeScheduler* %this, %class.cRealTimeScheduler** %this.addr, align 8
  call void @llvm.dbg.declare(metadata %class.cRealTimeScheduler** %this.addr, metadata !2048, metadata !DIExpression()), !dbg !2049
  %this1 = load %class.cRealTimeScheduler*, %class.cRealTimeScheduler** %this.addr, align 8
  call void @_ZN18cRealTimeSchedulerD2Ev(%class.cRealTimeScheduler* %this1) #3, !dbg !2050
  %0 = bitcast %class.cRealTimeScheduler* %this1 to i8*, !dbg !2050
  call void @_ZdlPv(i8* %0) #11, !dbg !2050
  ret void, !dbg !2051
}

declare dso_local void @__cxa_pure_virtual() unnamed_addr

declare dso_local %class.cRegistrationList* @_ZN23cGlobalRegistrationList11getInstanceEv(%class.cGlobalRegistrationList*) #1

; Function Attrs: nobuiltin
declare dso_local noalias i8* @_Znwm(i64) #8

declare dso_local void @_ZN13cConfigOptionC1EPKcbbNS_4TypeES1_S1_S1_(%class.cConfigOption*, i8*, i1 zeroext, i1 zeroext, i32, i8*, i8*, i8*) unnamed_addr #1

; Function Attrs: nobuiltin nounwind
declare dso_local void @_ZdlPv(i8*) #9

declare dso_local i8* @_Z12opp_typenameRKSt9type_info(%"class.std::type_info"* dereferenceable(16)) #1

; Function Attrs: noinline uwtable
define internal %class.cObject* @_ZL15__uniquename_51v() #0 personality i8* bitcast (i32 (...)* @__gxx_personality_v0 to i8*) !dbg !2052 {
entry:
  %exn.slot = alloca i8*
  %ehselector.slot = alloca i32
  %call = call i8* @_Znwm(i64 16) #10, !dbg !2055
  %0 = bitcast i8* %call to %class.cSequentialScheduler*, !dbg !2055
  invoke void @_ZN20cSequentialSchedulerC2Ev(%class.cSequentialScheduler* %0)
          to label %invoke.cont unwind label %lpad, !dbg !2055

invoke.cont:                                      ; preds = %entry
  %1 = bitcast %class.cSequentialScheduler* %0 to %class.cObject*, !dbg !2055
  ret %class.cObject* %1, !dbg !2055

lpad:                                             ; preds = %entry
  %2 = landingpad { i8*, i32 }
          cleanup, !dbg !2055
  %3 = extractvalue { i8*, i32 } %2, 0, !dbg !2055
  store i8* %3, i8** %exn.slot, align 8, !dbg !2055
  %4 = extractvalue { i8*, i32 } %2, 1, !dbg !2055
  store i32 %4, i32* %ehselector.slot, align 4, !dbg !2055
  call void @_ZdlPv(i8* %call) #11, !dbg !2055
  br label %eh.resume, !dbg !2055

eh.resume:                                        ; preds = %lpad
  %exn = load i8*, i8** %exn.slot, align 8, !dbg !2055
  %sel = load i32, i32* %ehselector.slot, align 4, !dbg !2055
  %lpad.val = insertvalue { i8*, i32 } undef, i8* %exn, 0, !dbg !2055
  %lpad.val1 = insertvalue { i8*, i32 } %lpad.val, i32 %sel, 1, !dbg !2055
  resume { i8*, i32 } %lpad.val1, !dbg !2055
}

declare dso_local void @_ZN13cClassFactoryC1EPKcPFP7cObjectvES1_(%class.cClassFactory*, i8*, %class.cObject* ()*, i8*) unnamed_addr #1

; Function Attrs: noinline uwtable
define linkonce_odr dso_local void @_ZN20cSequentialSchedulerC2Ev(%class.cSequentialScheduler* %this) unnamed_addr #0 comdat align 2 !dbg !2056 {
entry:
  %this.addr = alloca %class.cSequentialScheduler*, align 8
  store %class.cSequentialScheduler* %this, %class.cSequentialScheduler** %this.addr, align 8
  call void @llvm.dbg.declare(metadata %class.cSequentialScheduler** %this.addr, metadata !2057, metadata !DIExpression()), !dbg !2058
  %this1 = load %class.cSequentialScheduler*, %class.cSequentialScheduler** %this.addr, align 8
  %0 = bitcast %class.cSequentialScheduler* %this1 to %class.cScheduler*, !dbg !2059
  call void @_ZN10cSchedulerC2Ev(%class.cScheduler* %0), !dbg !2060
  %1 = bitcast %class.cSequentialScheduler* %this1 to i32 (...)***, !dbg !2059
  store i32 (...)** bitcast (i8** getelementptr inbounds ({ [26 x i8*] }, { [26 x i8*] }* @_ZTV20cSequentialScheduler, i32 0, inrange i32 0, i32 2) to i32 (...)**), i32 (...)*** %1, align 8, !dbg !2059
  ret void, !dbg !2061
}

; Function Attrs: nounwind
declare dso_local void @_ZNSt7__cxx1112basic_stringIcSt11char_traitsIcESaIcEED1Ev(%"class.std::__cxx11::basic_string"*) unnamed_addr #2

; Function Attrs: nounwind
declare dso_local void @_ZNSt9exceptionD2Ev(%"class.std::exception"*) unnamed_addr #2

; Function Attrs: noinline nounwind uwtable
define linkonce_odr dso_local void @_ZN10cExceptionD2Ev(%class.cException* %this) unnamed_addr #5 comdat align 2 !dbg !2062 {
entry:
  %this.addr = alloca %class.cException*, align 8
  store %class.cException* %this, %class.cException** %this.addr, align 8
  call void @llvm.dbg.declare(metadata %class.cException** %this.addr, metadata !2122, metadata !DIExpression()), !dbg !2123
  %this1 = load %class.cException*, %class.cException** %this.addr, align 8
  %0 = bitcast %class.cException* %this1 to i32 (...)***, !dbg !2124
  store i32 (...)** bitcast (i8** getelementptr inbounds ({ [13 x i8*] }, { [13 x i8*] }* @_ZTV10cException, i32 0, inrange i32 0, i32 2) to i32 (...)**), i32 (...)*** %0, align 8, !dbg !2124
  %contextfullpath = getelementptr inbounds %class.cException, %class.cException* %this1, i32 0, i32 7, !dbg !2125
  call void @_ZNSt7__cxx1112basic_stringIcSt11char_traitsIcESaIcEED1Ev(%"class.std::__cxx11::basic_string"* %contextfullpath) #3, !dbg !2125
  %contextclassname = getelementptr inbounds %class.cException, %class.cException* %this1, i32 0, i32 6, !dbg !2125
  call void @_ZNSt7__cxx1112basic_stringIcSt11char_traitsIcESaIcEED1Ev(%"class.std::__cxx11::basic_string"* %contextclassname) #3, !dbg !2125
  %msg = getelementptr inbounds %class.cException, %class.cException* %this1, i32 0, i32 3, !dbg !2125
  call void @_ZNSt7__cxx1112basic_stringIcSt11char_traitsIcESaIcEED1Ev(%"class.std::__cxx11::basic_string"* %msg) #3, !dbg !2125
  %1 = bitcast %class.cException* %this1 to %"class.std::exception"*, !dbg !2125
  call void @_ZNSt9exceptionD2Ev(%"class.std::exception"* %1) #3, !dbg !2125
  ret void, !dbg !2127
}

; Function Attrs: noinline nounwind uwtable
define linkonce_odr dso_local void @_ZN10cExceptionD0Ev(%class.cException* %this) unnamed_addr #5 comdat align 2 !dbg !2128 {
entry:
  %this.addr = alloca %class.cException*, align 8
  store %class.cException* %this, %class.cException** %this.addr, align 8
  call void @llvm.dbg.declare(metadata %class.cException** %this.addr, metadata !2129, metadata !DIExpression()), !dbg !2130
  %this1 = load %class.cException*, %class.cException** %this.addr, align 8
  call void @_ZN10cExceptionD2Ev(%class.cException* %this1) #3, !dbg !2131
  %0 = bitcast %class.cException* %this1 to i8*, !dbg !2131
  call void @_ZdlPv(i8* %0) #11, !dbg !2131
  ret void, !dbg !2132
}

; Function Attrs: noinline nounwind uwtable
define linkonce_odr dso_local i8* @_ZNK10cException4whatEv(%class.cException* %this) unnamed_addr #5 comdat align 2 !dbg !2133 {
entry:
  %this.addr = alloca %class.cException*, align 8
  store %class.cException* %this, %class.cException** %this.addr, align 8
  call void @llvm.dbg.declare(metadata %class.cException** %this.addr, metadata !2134, metadata !DIExpression()), !dbg !2136
  %this1 = load %class.cException*, %class.cException** %this.addr, align 8
  %msg = getelementptr inbounds %class.cException, %class.cException* %this1, i32 0, i32 3, !dbg !2137
  %call = call i8* @_ZNKSt7__cxx1112basic_stringIcSt11char_traitsIcESaIcEE5c_strEv(%"class.std::__cxx11::basic_string"* %msg) #3, !dbg !2138
  ret i8* %call, !dbg !2139
}

; Function Attrs: noinline uwtable
define linkonce_odr dso_local %class.cException* @_ZNK10cException3dupEv(%class.cException* %this) unnamed_addr #0 comdat align 2 personality i8* bitcast (i32 (...)* @__gxx_personality_v0 to i8*) !dbg !2140 {
entry:
  %this.addr = alloca %class.cException*, align 8
  %exn.slot = alloca i8*
  %ehselector.slot = alloca i32
  store %class.cException* %this, %class.cException** %this.addr, align 8
  call void @llvm.dbg.declare(metadata %class.cException** %this.addr, metadata !2141, metadata !DIExpression()), !dbg !2142
  %this1 = load %class.cException*, %class.cException** %this.addr, align 8
  %call = call i8* @_Znwm(i64 128) #10, !dbg !2143
  %0 = bitcast i8* %call to %class.cException*, !dbg !2143
  invoke void @_ZN10cExceptionC1ERKS_(%class.cException* %0, %class.cException* dereferenceable(128) %this1)
          to label %invoke.cont unwind label %lpad, !dbg !2144

invoke.cont:                                      ; preds = %entry
  ret %class.cException* %0, !dbg !2145

lpad:                                             ; preds = %entry
  %1 = landingpad { i8*, i32 }
          cleanup, !dbg !2146
  %2 = extractvalue { i8*, i32 } %1, 0, !dbg !2146
  store i8* %2, i8** %exn.slot, align 8, !dbg !2146
  %3 = extractvalue { i8*, i32 } %1, 1, !dbg !2146
  store i32 %3, i32* %ehselector.slot, align 4, !dbg !2146
  call void @_ZdlPv(i8* %call) #11, !dbg !2143
  br label %eh.resume, !dbg !2143

eh.resume:                                        ; preds = %lpad
  %exn = load i8*, i8** %exn.slot, align 8, !dbg !2143
  %sel = load i32, i32* %ehselector.slot, align 4, !dbg !2143
  %lpad.val = insertvalue { i8*, i32 } undef, i8* %exn, 0, !dbg !2143
  %lpad.val2 = insertvalue { i8*, i32 } %lpad.val, i32 %sel, 1, !dbg !2143
  resume { i8*, i32 } %lpad.val2, !dbg !2143
}

; Function Attrs: noinline nounwind uwtable
define linkonce_odr dso_local i32 @_ZNK10cException12getErrorCodeEv(%class.cException* %this) unnamed_addr #5 comdat align 2 !dbg !2147 {
entry:
  %this.addr = alloca %class.cException*, align 8
  store %class.cException* %this, %class.cException** %this.addr, align 8
  call void @llvm.dbg.declare(metadata %class.cException** %this.addr, metadata !2148, metadata !DIExpression()), !dbg !2149
  %this1 = load %class.cException*, %class.cException** %this.addr, align 8
  %errorcode = getelementptr inbounds %class.cException, %class.cException* %this1, i32 0, i32 1, !dbg !2150
  %0 = load i32, i32* %errorcode, align 8, !dbg !2150
  ret i32 %0, !dbg !2151
}

; Function Attrs: noinline uwtable
define linkonce_odr dso_local void @_ZN10cException10setMessageEPKc(%class.cException* %this, i8* %txt) unnamed_addr #0 comdat align 2 !dbg !2152 {
entry:
  %this.addr = alloca %class.cException*, align 8
  %txt.addr = alloca i8*, align 8
  store %class.cException* %this, %class.cException** %this.addr, align 8
  call void @llvm.dbg.declare(metadata %class.cException** %this.addr, metadata !2153, metadata !DIExpression()), !dbg !2154
  store i8* %txt, i8** %txt.addr, align 8
  call void @llvm.dbg.declare(metadata i8** %txt.addr, metadata !2155, metadata !DIExpression()), !dbg !2156
  %this1 = load %class.cException*, %class.cException** %this.addr, align 8
  %0 = load i8*, i8** %txt.addr, align 8, !dbg !2157
  %msg = getelementptr inbounds %class.cException, %class.cException* %this1, i32 0, i32 3, !dbg !2158
  %call = call dereferenceable(32) %"class.std::__cxx11::basic_string"* @_ZNSt7__cxx1112basic_stringIcSt11char_traitsIcESaIcEEaSEPKc(%"class.std::__cxx11::basic_string"* %msg, i8* %0), !dbg !2159
  ret void, !dbg !2160
}

; Function Attrs: noinline uwtable
define linkonce_odr dso_local void @_ZN10cException14prependMessageEPKc(%class.cException* %this, i8* %txt) unnamed_addr #0 comdat align 2 personality i8* bitcast (i32 (...)* @__gxx_personality_v0 to i8*) !dbg !2161 {
entry:
  %this.addr = alloca %class.cException*, align 8
  %txt.addr = alloca i8*, align 8
  %ref.tmp = alloca %"class.std::__cxx11::basic_string", align 8
  %ref.tmp2 = alloca %"class.std::__cxx11::basic_string", align 8
  %ref.tmp3 = alloca %"class.std::__cxx11::basic_string", align 8
  %ref.tmp4 = alloca %"class.std::allocator", align 1
  %exn.slot = alloca i8*
  %ehselector.slot = alloca i32
  store %class.cException* %this, %class.cException** %this.addr, align 8
  call void @llvm.dbg.declare(metadata %class.cException** %this.addr, metadata !2162, metadata !DIExpression()), !dbg !2163
  store i8* %txt, i8** %txt.addr, align 8
  call void @llvm.dbg.declare(metadata i8** %txt.addr, metadata !2164, metadata !DIExpression()), !dbg !2165
  %this1 = load %class.cException*, %class.cException** %this.addr, align 8
  %0 = load i8*, i8** %txt.addr, align 8, !dbg !2166
  call void @_ZNSaIcEC1Ev(%"class.std::allocator"* %ref.tmp4) #3, !dbg !2167
  invoke void @_ZNSt7__cxx1112basic_stringIcSt11char_traitsIcESaIcEEC1EPKcRKS3_(%"class.std::__cxx11::basic_string"* %ref.tmp3, i8* %0, %"class.std::allocator"* dereferenceable(1) %ref.tmp4)
          to label %invoke.cont unwind label %lpad, !dbg !2167

invoke.cont:                                      ; preds = %entry
  invoke void @_ZStplIcSt11char_traitsIcESaIcEENSt7__cxx1112basic_stringIT_T0_T1_EEOS8_PKS5_(%"class.std::__cxx11::basic_string"* sret %ref.tmp2, %"class.std::__cxx11::basic_string"* dereferenceable(32) %ref.tmp3, i8* getelementptr inbounds ([3 x i8], [3 x i8]* @.str.5, i64 0, i64 0))
          to label %invoke.cont6 unwind label %lpad5, !dbg !2168

invoke.cont6:                                     ; preds = %invoke.cont
  %msg = getelementptr inbounds %class.cException, %class.cException* %this1, i32 0, i32 3, !dbg !2169
  invoke void @_ZStplIcSt11char_traitsIcESaIcEENSt7__cxx1112basic_stringIT_T0_T1_EEOS8_RKS8_(%"class.std::__cxx11::basic_string"* sret %ref.tmp, %"class.std::__cxx11::basic_string"* dereferenceable(32) %ref.tmp2, %"class.std::__cxx11::basic_string"* dereferenceable(32) %msg)
          to label %invoke.cont8 unwind label %lpad7, !dbg !2170

invoke.cont8:                                     ; preds = %invoke.cont6
  %msg9 = getelementptr inbounds %class.cException, %class.cException* %this1, i32 0, i32 3, !dbg !2171
  %call = call dereferenceable(32) %"class.std::__cxx11::basic_string"* @_ZNSt7__cxx1112basic_stringIcSt11char_traitsIcESaIcEEaSEOS4_(%"class.std::__cxx11::basic_string"* %msg9, %"class.std::__cxx11::basic_string"* dereferenceable(32) %ref.tmp) #3, !dbg !2172
  call void @_ZNSt7__cxx1112basic_stringIcSt11char_traitsIcESaIcEED1Ev(%"class.std::__cxx11::basic_string"* %ref.tmp) #3, !dbg !2171
  call void @_ZNSt7__cxx1112basic_stringIcSt11char_traitsIcESaIcEED1Ev(%"class.std::__cxx11::basic_string"* %ref.tmp2) #3, !dbg !2171
  call void @_ZNSt7__cxx1112basic_stringIcSt11char_traitsIcESaIcEED1Ev(%"class.std::__cxx11::basic_string"* %ref.tmp3) #3, !dbg !2171
  call void @_ZNSaIcED1Ev(%"class.std::allocator"* %ref.tmp4) #3, !dbg !2171
  ret void, !dbg !2173

lpad:                                             ; preds = %entry
  %1 = landingpad { i8*, i32 }
          cleanup, !dbg !2173
  %2 = extractvalue { i8*, i32 } %1, 0, !dbg !2173
  store i8* %2, i8** %exn.slot, align 8, !dbg !2173
  %3 = extractvalue { i8*, i32 } %1, 1, !dbg !2173
  store i32 %3, i32* %ehselector.slot, align 4, !dbg !2173
  br label %ehcleanup10, !dbg !2173

lpad5:                                            ; preds = %invoke.cont
  %4 = landingpad { i8*, i32 }
          cleanup, !dbg !2173
  %5 = extractvalue { i8*, i32 } %4, 0, !dbg !2173
  store i8* %5, i8** %exn.slot, align 8, !dbg !2173
  %6 = extractvalue { i8*, i32 } %4, 1, !dbg !2173
  store i32 %6, i32* %ehselector.slot, align 4, !dbg !2173
  br label %ehcleanup, !dbg !2173

lpad7:                                            ; preds = %invoke.cont6
  %7 = landingpad { i8*, i32 }
          cleanup, !dbg !2173
  %8 = extractvalue { i8*, i32 } %7, 0, !dbg !2173
  store i8* %8, i8** %exn.slot, align 8, !dbg !2173
  %9 = extractvalue { i8*, i32 } %7, 1, !dbg !2173
  store i32 %9, i32* %ehselector.slot, align 4, !dbg !2173
  call void @_ZNSt7__cxx1112basic_stringIcSt11char_traitsIcESaIcEED1Ev(%"class.std::__cxx11::basic_string"* %ref.tmp2) #3, !dbg !2171
  br label %ehcleanup, !dbg !2171

ehcleanup:                                        ; preds = %lpad7, %lpad5
  call void @_ZNSt7__cxx1112basic_stringIcSt11char_traitsIcESaIcEED1Ev(%"class.std::__cxx11::basic_string"* %ref.tmp3) #3, !dbg !2171
  br label %ehcleanup10, !dbg !2171

ehcleanup10:                                      ; preds = %ehcleanup, %lpad
  call void @_ZNSaIcED1Ev(%"class.std::allocator"* %ref.tmp4) #3, !dbg !2171
  br label %eh.resume, !dbg !2171

eh.resume:                                        ; preds = %ehcleanup10
  %exn = load i8*, i8** %exn.slot, align 8, !dbg !2171
  %sel = load i32, i32* %ehselector.slot, align 4, !dbg !2171
  %lpad.val = insertvalue { i8*, i32 } undef, i8* %exn, 0, !dbg !2171
  %lpad.val11 = insertvalue { i8*, i32 } %lpad.val, i32 %sel, 1, !dbg !2171
  resume { i8*, i32 } %lpad.val11, !dbg !2171
}

; Function Attrs: noinline nounwind uwtable
define linkonce_odr dso_local zeroext i1 @_ZNK10cException10hasContextEv(%class.cException* %this) unnamed_addr #5 comdat align 2 !dbg !2174 {
entry:
  %this.addr = alloca %class.cException*, align 8
  store %class.cException* %this, %class.cException** %this.addr, align 8
  call void @llvm.dbg.declare(metadata %class.cException** %this.addr, metadata !2175, metadata !DIExpression()), !dbg !2176
  %this1 = load %class.cException*, %class.cException** %this.addr, align 8
  %hascontext = getelementptr inbounds %class.cException, %class.cException* %this1, i32 0, i32 4, !dbg !2177
  %0 = load i8, i8* %hascontext, align 8, !dbg !2177
  %tobool = trunc i8 %0 to i1, !dbg !2177
  ret i1 %tobool, !dbg !2178
}

; Function Attrs: noinline nounwind uwtable
define linkonce_odr dso_local i8* @_ZNK10cException19getContextClassNameEv(%class.cException* %this) unnamed_addr #5 comdat align 2 !dbg !2179 {
entry:
  %this.addr = alloca %class.cException*, align 8
  store %class.cException* %this, %class.cException** %this.addr, align 8
  call void @llvm.dbg.declare(metadata %class.cException** %this.addr, metadata !2180, metadata !DIExpression()), !dbg !2181
  %this1 = load %class.cException*, %class.cException** %this.addr, align 8
  %contextclassname = getelementptr inbounds %class.cException, %class.cException* %this1, i32 0, i32 6, !dbg !2182
  %call = call i8* @_ZNKSt7__cxx1112basic_stringIcSt11char_traitsIcESaIcEE5c_strEv(%"class.std::__cxx11::basic_string"* %contextclassname) #3, !dbg !2183
  ret i8* %call, !dbg !2184
}

; Function Attrs: noinline nounwind uwtable
define linkonce_odr dso_local i8* @_ZNK10cException18getContextFullPathEv(%class.cException* %this) unnamed_addr #5 comdat align 2 !dbg !2185 {
entry:
  %this.addr = alloca %class.cException*, align 8
  store %class.cException* %this, %class.cException** %this.addr, align 8
  call void @llvm.dbg.declare(metadata %class.cException** %this.addr, metadata !2186, metadata !DIExpression()), !dbg !2187
  %this1 = load %class.cException*, %class.cException** %this.addr, align 8
  %contextfullpath = getelementptr inbounds %class.cException, %class.cException* %this1, i32 0, i32 7, !dbg !2188
  %call = call i8* @_ZNKSt7__cxx1112basic_stringIcSt11char_traitsIcESaIcEE5c_strEv(%"class.std::__cxx11::basic_string"* %contextfullpath) #3, !dbg !2189
  ret i8* %call, !dbg !2190
}

; Function Attrs: noinline nounwind uwtable
define linkonce_odr dso_local i32 @_ZNK10cException11getModuleIDEv(%class.cException* %this) unnamed_addr #5 comdat align 2 !dbg !2191 {
entry:
  %this.addr = alloca %class.cException*, align 8
  store %class.cException* %this, %class.cException** %this.addr, align 8
  call void @llvm.dbg.declare(metadata %class.cException** %this.addr, metadata !2192, metadata !DIExpression()), !dbg !2193
  %this1 = load %class.cException*, %class.cException** %this.addr, align 8
  %moduleid = getelementptr inbounds %class.cException, %class.cException* %this1, i32 0, i32 8, !dbg !2194
  %0 = load i32, i32* %moduleid, align 8, !dbg !2194
  ret i32 %0, !dbg !2195
}

; Function Attrs: nounwind
declare dso_local i8* @_ZNKSt7__cxx1112basic_stringIcSt11char_traitsIcESaIcEE5c_strEv(%"class.std::__cxx11::basic_string"*) #2

declare dso_local void @_ZN10cExceptionC1ERKS_(%class.cException*, %class.cException* dereferenceable(128)) unnamed_addr #1

declare dso_local dereferenceable(32) %"class.std::__cxx11::basic_string"* @_ZNSt7__cxx1112basic_stringIcSt11char_traitsIcESaIcEEaSEPKc(%"class.std::__cxx11::basic_string"*, i8*) #1

; Function Attrs: noinline uwtable
define linkonce_odr dso_local void @_ZStplIcSt11char_traitsIcESaIcEENSt7__cxx1112basic_stringIT_T0_T1_EEOS8_RKS8_(%"class.std::__cxx11::basic_string"* noalias sret %agg.result, %"class.std::__cxx11::basic_string"* dereferenceable(32) %__lhs, %"class.std::__cxx11::basic_string"* dereferenceable(32) %__rhs) #0 comdat !dbg !2196 {
entry:
  %result.ptr = alloca i8*, align 8
  %__lhs.addr = alloca %"class.std::__cxx11::basic_string"*, align 8
  %__rhs.addr = alloca %"class.std::__cxx11::basic_string"*, align 8
  %0 = bitcast %"class.std::__cxx11::basic_string"* %agg.result to i8*
  store i8* %0, i8** %result.ptr, align 8
  store %"class.std::__cxx11::basic_string"* %__lhs, %"class.std::__cxx11::basic_string"** %__lhs.addr, align 8
  call void @llvm.dbg.declare(metadata %"class.std::__cxx11::basic_string"** %__lhs.addr, metadata !2261, metadata !DIExpression()), !dbg !2262
  store %"class.std::__cxx11::basic_string"* %__rhs, %"class.std::__cxx11::basic_string"** %__rhs.addr, align 8
  call void @llvm.dbg.declare(metadata %"class.std::__cxx11::basic_string"** %__rhs.addr, metadata !2263, metadata !DIExpression()), !dbg !2264
  %1 = load %"class.std::__cxx11::basic_string"*, %"class.std::__cxx11::basic_string"** %__lhs.addr, align 8, !dbg !2265
  %2 = load %"class.std::__cxx11::basic_string"*, %"class.std::__cxx11::basic_string"** %__rhs.addr, align 8, !dbg !2266
  %call = call dereferenceable(32) %"class.std::__cxx11::basic_string"* @_ZNSt7__cxx1112basic_stringIcSt11char_traitsIcESaIcEE6appendERKS4_(%"class.std::__cxx11::basic_string"* %1, %"class.std::__cxx11::basic_string"* dereferenceable(32) %2), !dbg !2267
  %call1 = call dereferenceable(32) %"class.std::__cxx11::basic_string"* @_ZSt4moveIRNSt7__cxx1112basic_stringIcSt11char_traitsIcESaIcEEEEONSt16remove_referenceIT_E4typeEOS8_(%"class.std::__cxx11::basic_string"* dereferenceable(32) %call) #3, !dbg !2268
  call void @_ZNSt7__cxx1112basic_stringIcSt11char_traitsIcESaIcEEC1EOS4_(%"class.std::__cxx11::basic_string"* %agg.result, %"class.std::__cxx11::basic_string"* dereferenceable(32) %call1) #3, !dbg !2268
  ret void, !dbg !2269
}

; Function Attrs: noinline uwtable
define linkonce_odr dso_local void @_ZStplIcSt11char_traitsIcESaIcEENSt7__cxx1112basic_stringIT_T0_T1_EEOS8_PKS5_(%"class.std::__cxx11::basic_string"* noalias sret %agg.result, %"class.std::__cxx11::basic_string"* dereferenceable(32) %__lhs, i8* %__rhs) #0 comdat !dbg !2270 {
entry:
  %result.ptr = alloca i8*, align 8
  %__lhs.addr = alloca %"class.std::__cxx11::basic_string"*, align 8
  %__rhs.addr = alloca i8*, align 8
  %0 = bitcast %"class.std::__cxx11::basic_string"* %agg.result to i8*
  store i8* %0, i8** %result.ptr, align 8
  store %"class.std::__cxx11::basic_string"* %__lhs, %"class.std::__cxx11::basic_string"** %__lhs.addr, align 8
  call void @llvm.dbg.declare(metadata %"class.std::__cxx11::basic_string"** %__lhs.addr, metadata !2273, metadata !DIExpression()), !dbg !2274
  store i8* %__rhs, i8** %__rhs.addr, align 8
  call void @llvm.dbg.declare(metadata i8** %__rhs.addr, metadata !2275, metadata !DIExpression()), !dbg !2276
  %1 = load %"class.std::__cxx11::basic_string"*, %"class.std::__cxx11::basic_string"** %__lhs.addr, align 8, !dbg !2277
  %2 = load i8*, i8** %__rhs.addr, align 8, !dbg !2278
  %call = call dereferenceable(32) %"class.std::__cxx11::basic_string"* @_ZNSt7__cxx1112basic_stringIcSt11char_traitsIcESaIcEE6appendEPKc(%"class.std::__cxx11::basic_string"* %1, i8* %2), !dbg !2279
  %call1 = call dereferenceable(32) %"class.std::__cxx11::basic_string"* @_ZSt4moveIRNSt7__cxx1112basic_stringIcSt11char_traitsIcESaIcEEEEONSt16remove_referenceIT_E4typeEOS8_(%"class.std::__cxx11::basic_string"* dereferenceable(32) %call) #3, !dbg !2280
  call void @_ZNSt7__cxx1112basic_stringIcSt11char_traitsIcESaIcEEC1EOS4_(%"class.std::__cxx11::basic_string"* %agg.result, %"class.std::__cxx11::basic_string"* dereferenceable(32) %call1) #3, !dbg !2280
  ret void, !dbg !2281
}

; Function Attrs: nounwind
declare dso_local void @_ZNSaIcEC1Ev(%"class.std::allocator"*) unnamed_addr #2

declare dso_local void @_ZNSt7__cxx1112basic_stringIcSt11char_traitsIcESaIcEEC1EPKcRKS3_(%"class.std::__cxx11::basic_string"*, i8*, %"class.std::allocator"* dereferenceable(1)) unnamed_addr #1

; Function Attrs: nounwind
declare dso_local dereferenceable(32) %"class.std::__cxx11::basic_string"* @_ZNSt7__cxx1112basic_stringIcSt11char_traitsIcESaIcEEaSEOS4_(%"class.std::__cxx11::basic_string"*, %"class.std::__cxx11::basic_string"* dereferenceable(32)) #2

; Function Attrs: nounwind
declare dso_local void @_ZNSaIcED1Ev(%"class.std::allocator"*) unnamed_addr #2

; Function Attrs: noinline nounwind uwtable
define linkonce_odr dso_local dereferenceable(32) %"class.std::__cxx11::basic_string"* @_ZSt4moveIRNSt7__cxx1112basic_stringIcSt11char_traitsIcESaIcEEEEONSt16remove_referenceIT_E4typeEOS8_(%"class.std::__cxx11::basic_string"* dereferenceable(32) %__t) #5 comdat !dbg !2282 {
entry:
  %__t.addr = alloca %"class.std::__cxx11::basic_string"*, align 8
  store %"class.std::__cxx11::basic_string"* %__t, %"class.std::__cxx11::basic_string"** %__t.addr, align 8
  call void @llvm.dbg.declare(metadata %"class.std::__cxx11::basic_string"** %__t.addr, metadata !2293, metadata !DIExpression()), !dbg !2294
  %0 = load %"class.std::__cxx11::basic_string"*, %"class.std::__cxx11::basic_string"** %__t.addr, align 8, !dbg !2295
  ret %"class.std::__cxx11::basic_string"* %0, !dbg !2296
}

declare dso_local dereferenceable(32) %"class.std::__cxx11::basic_string"* @_ZNSt7__cxx1112basic_stringIcSt11char_traitsIcESaIcEE6appendERKS4_(%"class.std::__cxx11::basic_string"*, %"class.std::__cxx11::basic_string"* dereferenceable(32)) #1

; Function Attrs: nounwind
declare dso_local void @_ZNSt7__cxx1112basic_stringIcSt11char_traitsIcESaIcEEC1EOS4_(%"class.std::__cxx11::basic_string"*, %"class.std::__cxx11::basic_string"* dereferenceable(32)) unnamed_addr #2

declare dso_local dereferenceable(32) %"class.std::__cxx11::basic_string"* @_ZNSt7__cxx1112basic_stringIcSt11char_traitsIcESaIcEE6appendEPKc(%"class.std::__cxx11::basic_string"*, i8*) #1

; Function Attrs: noinline uwtable
define internal %class.cObject* @_ZL15__uniquename_63v() #0 personality i8* bitcast (i32 (...)* @__gxx_personality_v0 to i8*) !dbg !2297 {
entry:
  %exn.slot = alloca i8*
  %ehselector.slot = alloca i32
  %call = call i8* @_Znwm(i64 48) #10, !dbg !2298
  %0 = bitcast i8* %call to %class.cRealTimeScheduler*, !dbg !2298
  invoke void @_ZN18cRealTimeSchedulerC2Ev(%class.cRealTimeScheduler* %0)
          to label %invoke.cont unwind label %lpad, !dbg !2298

invoke.cont:                                      ; preds = %entry
  %1 = bitcast %class.cRealTimeScheduler* %0 to %class.cObject*, !dbg !2298
  ret %class.cObject* %1, !dbg !2298

lpad:                                             ; preds = %entry
  %2 = landingpad { i8*, i32 }
          cleanup, !dbg !2298
  %3 = extractvalue { i8*, i32 } %2, 0, !dbg !2298
  store i8* %3, i8** %exn.slot, align 8, !dbg !2298
  %4 = extractvalue { i8*, i32 } %2, 1, !dbg !2298
  store i32 %4, i32* %ehselector.slot, align 4, !dbg !2298
  call void @_ZdlPv(i8* %call) #11, !dbg !2298
  br label %eh.resume, !dbg !2298

eh.resume:                                        ; preds = %lpad
  %exn = load i8*, i8** %exn.slot, align 8, !dbg !2298
  %sel = load i32, i32* %ehselector.slot, align 4, !dbg !2298
  %lpad.val = insertvalue { i8*, i32 } undef, i8* %exn, 0, !dbg !2298
  %lpad.val1 = insertvalue { i8*, i32 } %lpad.val, i32 %sel, 1, !dbg !2298
  resume { i8*, i32 } %lpad.val1, !dbg !2298
}

; Function Attrs: noinline uwtable
define linkonce_odr dso_local void @_ZN18cRealTimeSchedulerC2Ev(%class.cRealTimeScheduler* %this) unnamed_addr #0 comdat align 2 !dbg !2299 {
entry:
  %this.addr = alloca %class.cRealTimeScheduler*, align 8
  store %class.cRealTimeScheduler* %this, %class.cRealTimeScheduler** %this.addr, align 8
  call void @llvm.dbg.declare(metadata %class.cRealTimeScheduler** %this.addr, metadata !2300, metadata !DIExpression()), !dbg !2301
  %this1 = load %class.cRealTimeScheduler*, %class.cRealTimeScheduler** %this.addr, align 8
  %0 = bitcast %class.cRealTimeScheduler* %this1 to %class.cScheduler*, !dbg !2302
  call void @_ZN10cSchedulerC2Ev(%class.cScheduler* %0), !dbg !2303
  %1 = bitcast %class.cRealTimeScheduler* %this1 to i32 (...)***, !dbg !2302
  store i32 (...)** bitcast (i8** getelementptr inbounds ({ [26 x i8*] }, { [26 x i8*] }* @_ZTV18cRealTimeScheduler, i32 0, inrange i32 0, i32 2) to i32 (...)**), i32 (...)*** %1, align 8, !dbg !2302
  %baseTime = getelementptr inbounds %class.cRealTimeScheduler, %class.cRealTimeScheduler* %this1, i32 0, i32 3, !dbg !2304
  ret void, !dbg !2305
}

; Function Attrs: nounwind
declare dso_local double @modf(double, double*) #2

; Function Attrs: nounwind readnone speculatable willreturn
declare double @llvm.floor.f64(double) #4

; Function Attrs: noinline uwtable
define linkonce_odr dso_local dereferenceable(8) %class.SimTime* @_ZN7SimTimemLEd(%class.SimTime* %this, double %d) #0 comdat align 2 !dbg !2306 {
entry:
  %this.addr = alloca %class.SimTime*, align 8
  %d.addr = alloca double, align 8
  store %class.SimTime* %this, %class.SimTime** %this.addr, align 8
  call void @llvm.dbg.declare(metadata %class.SimTime** %this.addr, metadata !2307, metadata !DIExpression()), !dbg !2308
  store double %d, double* %d.addr, align 8
  call void @llvm.dbg.declare(metadata double* %d.addr, metadata !2309, metadata !DIExpression()), !dbg !2310
  %this1 = load %class.SimTime*, %class.SimTime** %this.addr, align 8
  %t = getelementptr inbounds %class.SimTime, %class.SimTime* %this1, i32 0, i32 0, !dbg !2311
  %0 = load i64, i64* %t, align 8, !dbg !2311
  %conv = sitofp i64 %0 to double, !dbg !2311
  %1 = load double, double* %d.addr, align 8, !dbg !2312
  %mul = fmul double %conv, %1, !dbg !2313
  %call = call i64 @_ZN7SimTime7toInt64Ed(%class.SimTime* %this1, double %mul), !dbg !2314
  %t2 = getelementptr inbounds %class.SimTime, %class.SimTime* %this1, i32 0, i32 0, !dbg !2315
  store i64 %call, i64* %t2, align 8, !dbg !2316
  ret %class.SimTime* %this1, !dbg !2317
}

; Function Attrs: noinline uwtable
define linkonce_odr dso_local i64 @_ZN7SimTime7toInt64Ed(%class.SimTime* %this, double %i64) #0 comdat align 2 !dbg !2318 {
entry:
  %this.addr = alloca %class.SimTime*, align 8
  %i64.addr = alloca double, align 8
  store %class.SimTime* %this, %class.SimTime** %this.addr, align 8
  call void @llvm.dbg.declare(metadata %class.SimTime** %this.addr, metadata !2319, metadata !DIExpression()), !dbg !2320
  store double %i64, double* %i64.addr, align 8
  call void @llvm.dbg.declare(metadata double* %i64.addr, metadata !2321, metadata !DIExpression()), !dbg !2322
  %this1 = load %class.SimTime*, %class.SimTime** %this.addr, align 8
  %0 = load double, double* %i64.addr, align 8, !dbg !2323
  %1 = call double @llvm.fabs.f64(double %0), !dbg !2325
  %cmp = fcmp ogt double %1, 0x43DFFFFFFFFFEDC8, !dbg !2326
  br i1 %cmp, label %if.then, label %if.end, !dbg !2327

if.then:                                          ; preds = %entry
  %2 = load double, double* %i64.addr, align 8, !dbg !2328
  call void @_ZN7SimTime10rangeErrorEd(%class.SimTime* %this1, double %2), !dbg !2329
  br label %if.end, !dbg !2329

if.end:                                           ; preds = %if.then, %entry
  %3 = load double, double* %i64.addr, align 8, !dbg !2330
  %conv = fptosi double %3 to i64, !dbg !2330
  ret i64 %conv, !dbg !2331
}

; Function Attrs: nounwind readnone speculatable willreturn
declare double @llvm.fabs.f64(double) #4

declare dso_local void @_ZN7SimTime10rangeErrorEd(%class.SimTime*, double) #1

; Function Attrs: noinline nounwind uwtable
define linkonce_odr dso_local dereferenceable(8) %class.SimTime* @_ZN7SimTimeaSERKS_(%class.SimTime* %this, %class.SimTime* dereferenceable(8) %x) #5 comdat align 2 !dbg !2332 {
entry:
  %this.addr = alloca %class.SimTime*, align 8
  %x.addr = alloca %class.SimTime*, align 8
  store %class.SimTime* %this, %class.SimTime** %this.addr, align 8
  call void @llvm.dbg.declare(metadata %class.SimTime** %this.addr, metadata !2333, metadata !DIExpression()), !dbg !2334
  store %class.SimTime* %x, %class.SimTime** %x.addr, align 8
  call void @llvm.dbg.declare(metadata %class.SimTime** %x.addr, metadata !2335, metadata !DIExpression()), !dbg !2336
  %this1 = load %class.SimTime*, %class.SimTime** %this.addr, align 8
  %0 = load %class.SimTime*, %class.SimTime** %x.addr, align 8, !dbg !2337
  %t = getelementptr inbounds %class.SimTime, %class.SimTime* %0, i32 0, i32 0, !dbg !2338
  %1 = load i64, i64* %t, align 8, !dbg !2338
  %t2 = getelementptr inbounds %class.SimTime, %class.SimTime* %this1, i32 0, i32 0, !dbg !2339
  store i64 %1, i64* %t2, align 8, !dbg !2340
  ret %class.SimTime* %this1, !dbg !2341
}

; Function Attrs: noinline uwtable
define internal void @_GLOBAL__sub_I_cscheduler.cc() #0 section ".text.startup" !dbg !2342 {
entry:
  call void @__cxx_global_var_init(), !dbg !2344
  call void @__cxx_global_var_init.1(), !dbg !2344
  call void @__cxx_global_var_init.2(), !dbg !2344
  call void @__cxx_global_var_init.3(), !dbg !2344
  ret void
}

attributes #0 = { noinline uwtable "correctly-rounded-divide-sqrt-fp-math"="false" "disable-tail-calls"="false" "frame-pointer"="all" "less-precise-fpmad"="false" "min-legal-vector-width"="0" "no-infs-fp-math"="false" "no-jump-tables"="false" "no-nans-fp-math"="false" "no-signed-zeros-fp-math"="false" "no-trapping-math"="false" "stack-protector-buffer-size"="8" "target-cpu"="x86-64" "target-features"="+cx8,+fxsr,+mmx,+sse,+sse2,+x87" "unsafe-fp-math"="false" "use-soft-float"="false" }
attributes #1 = { "correctly-rounded-divide-sqrt-fp-math"="false" "disable-tail-calls"="false" "frame-pointer"="all" "less-precise-fpmad"="false" "no-infs-fp-math"="false" "no-nans-fp-math"="false" "no-signed-zeros-fp-math"="false" "no-trapping-math"="false" "stack-protector-buffer-size"="8" "target-cpu"="x86-64" "target-features"="+cx8,+fxsr,+mmx,+sse,+sse2,+x87" "unsafe-fp-math"="false" "use-soft-float"="false" }
attributes #2 = { nounwind "correctly-rounded-divide-sqrt-fp-math"="false" "disable-tail-calls"="false" "frame-pointer"="all" "less-precise-fpmad"="false" "no-infs-fp-math"="false" "no-nans-fp-math"="false" "no-signed-zeros-fp-math"="false" "no-trapping-math"="false" "stack-protector-buffer-size"="8" "target-cpu"="x86-64" "target-features"="+cx8,+fxsr,+mmx,+sse,+sse2,+x87" "unsafe-fp-math"="false" "use-soft-float"="false" }
attributes #3 = { nounwind }
attributes #4 = { nounwind readnone speculatable willreturn }
attributes #5 = { noinline nounwind uwtable "correctly-rounded-divide-sqrt-fp-math"="false" "disable-tail-calls"="false" "frame-pointer"="all" "less-precise-fpmad"="false" "min-legal-vector-width"="0" "no-infs-fp-math"="false" "no-jump-tables"="false" "no-nans-fp-math"="false" "no-signed-zeros-fp-math"="false" "no-trapping-math"="false" "stack-protector-buffer-size"="8" "target-cpu"="x86-64" "target-features"="+cx8,+fxsr,+mmx,+sse,+sse2,+x87" "unsafe-fp-math"="false" "use-soft-float"="false" }
attributes #6 = { cold noreturn nounwind }
attributes #7 = { argmemonly nounwind willreturn }
attributes #8 = { nobuiltin "correctly-rounded-divide-sqrt-fp-math"="false" "disable-tail-calls"="false" "frame-pointer"="all" "less-precise-fpmad"="false" "no-infs-fp-math"="false" "no-nans-fp-math"="false" "no-signed-zeros-fp-math"="false" "no-trapping-math"="false" "stack-protector-buffer-size"="8" "target-cpu"="x86-64" "target-features"="+cx8,+fxsr,+mmx,+sse,+sse2,+x87" "unsafe-fp-math"="false" "use-soft-float"="false" }
attributes #9 = { nobuiltin nounwind "correctly-rounded-divide-sqrt-fp-math"="false" "disable-tail-calls"="false" "frame-pointer"="all" "less-precise-fpmad"="false" "no-infs-fp-math"="false" "no-nans-fp-math"="false" "no-signed-zeros-fp-math"="false" "no-trapping-math"="false" "stack-protector-buffer-size"="8" "target-cpu"="x86-64" "target-features"="+cx8,+fxsr,+mmx,+sse,+sse2,+x87" "unsafe-fp-math"="false" "use-soft-float"="false" }
attributes #10 = { builtin }
attributes #11 = { builtin nounwind }
attributes #12 = { noreturn nounwind }
attributes #13 = { noreturn }

!llvm.dbg.cu = !{!30}
!llvm.module.flags = !{!1521, !1522, !1523}
!llvm.ident = !{!1524}

!0 = !DIGlobalVariableExpression(var: !1, expr: !DIExpression())
!1 = distinct !DIGlobalVariable(name: "__ioinit", linkageName: "_ZStL8__ioinit", scope: !2, file: !3, line: 74, type: !4, isLocal: true, isDefinition: true)
!2 = !DINamespace(name: "std", scope: null)
!3 = !DIFile(filename: "/usr/lib/gcc/x86_64-linux-gnu/10/../../../../include/c++/10/iostream", directory: "")
!4 = distinct !DICompositeType(tag: DW_TAG_class_type, name: "Init", scope: !6, file: !5, line: 603, size: 8, flags: DIFlagTypePassByReference | DIFlagNonTrivial, elements: !7, identifier: "_ZTSNSt8ios_base4InitE")
!5 = !DIFile(filename: "/usr/lib/gcc/x86_64-linux-gnu/10/../../../../include/c++/10/bits/ios_base.h", directory: "")
!6 = !DICompositeType(tag: DW_TAG_class_type, name: "ios_base", scope: !2, file: !5, line: 228, flags: DIFlagFwdDecl)
!7 = !{!8, !12, !14, !18, !19, !24}
!8 = !DIDerivedType(tag: DW_TAG_member, name: "_S_refcount", scope: !4, file: !5, line: 616, baseType: !9, flags: DIFlagStaticMember)
!9 = !DIDerivedType(tag: DW_TAG_typedef, name: "_Atomic_word", file: !10, line: 32, baseType: !11)
!10 = !DIFile(filename: "/usr/lib/gcc/x86_64-linux-gnu/10/../../../../include/x86_64-linux-gnu/c++/10/bits/atomic_word.h", directory: "")
!11 = !DIBasicType(name: "int", size: 32, encoding: DW_ATE_signed)
!12 = !DIDerivedType(tag: DW_TAG_member, name: "_S_synced_with_stdio", scope: !4, file: !5, line: 617, baseType: !13, flags: DIFlagStaticMember)
!13 = !DIBasicType(name: "bool", size: 8, encoding: DW_ATE_boolean)
!14 = !DISubprogram(name: "Init", scope: !4, file: !5, line: 607, type: !15, scopeLine: 607, flags: DIFlagPublic | DIFlagPrototyped, spFlags: 0)
!15 = !DISubroutineType(types: !16)
!16 = !{null, !17}
!17 = !DIDerivedType(tag: DW_TAG_pointer_type, baseType: !4, size: 64, flags: DIFlagArtificial | DIFlagObjectPointer)
!18 = !DISubprogram(name: "~Init", scope: !4, file: !5, line: 608, type: !15, scopeLine: 608, flags: DIFlagPublic | DIFlagPrototyped, spFlags: 0)
!19 = !DISubprogram(name: "Init", scope: !4, file: !5, line: 611, type: !20, scopeLine: 611, flags: DIFlagPublic | DIFlagPrototyped, spFlags: 0)
!20 = !DISubroutineType(types: !21)
!21 = !{null, !17, !22}
!22 = !DIDerivedType(tag: DW_TAG_reference_type, baseType: !23, size: 64)
!23 = !DIDerivedType(tag: DW_TAG_const_type, baseType: !4)
!24 = !DISubprogram(name: "operator=", linkageName: "_ZNSt8ios_base4InitaSERKS0_", scope: !4, file: !5, line: 612, type: !25, scopeLine: 612, flags: DIFlagPublic | DIFlagPrototyped, spFlags: 0)
!25 = !DISubroutineType(types: !26)
!26 = !{!27, !17, !22}
!27 = !DIDerivedType(tag: DW_TAG_reference_type, baseType: !4, size: 64)
!28 = !DIGlobalVariableExpression(var: !29, expr: !DIExpression())
!29 = distinct !DIGlobalVariable(name: "CFGID_REALTIMESCHEDULER_SCALING", scope: !30, file: !31, line: 33, type: !1520, isLocal: false, isDefinition: true)
!30 = distinct !DICompileUnit(language: DW_LANG_C_plus_plus_14, file: !31, producer: "clang version 10.0.1 (https://github.com/svkeerthy/IR2Vec-LoopOptimizationFramework.git 561ac470e63b728263a0ac06ef987886ac648486)", isOptimized: false, runtimeVersion: 0, emissionKind: FullDebug, enums: !32, retainedTypes: !91, globals: !240, imports: !265, splitDebugInlining: false, nameTableKind: None)
!31 = !DIFile(filename: "simulator/cscheduler.cc", directory: "/home/venkat/IF-DV/spec_build_release/CPU_2017/benchspec/CPU/520.omnetpp_r/build/build_base_ld-loop-ext-m64.0000")
!32 = !{!33, !79}
!33 = !DICompositeType(tag: DW_TAG_enumeration_type, name: "OppErrorCode", file: !34, line: 28, baseType: !35, size: 32, elements: !36, identifier: "_ZTS12OppErrorCode")
!34 = !DIFile(filename: "simulator/errmsg.h", directory: "/home/venkat/IF-DV/spec_build_release/CPU_2017/benchspec/CPU/520.omnetpp_r/build/build_base_ld-loop-ext-m64.0000")
!35 = !DIBasicType(name: "unsigned int", size: 32, encoding: DW_ATE_unsigned)
!36 = !{!37, !38, !39, !40, !41, !42, !43, !44, !45, !46, !47, !48, !49, !50, !51, !52, !53, !54, !55, !56, !57, !58, !59, !60, !61, !62, !63, !64, !65, !66, !67, !68, !69, !70, !71, !72, !73, !74, !75, !76, !77, !78}
!37 = !DIEnumerator(name: "eOK", value: 0, isUnsigned: true)
!38 = !DIEnumerator(name: "eBACKSCHED", value: 1, isUnsigned: true)
!39 = !DIEnumerator(name: "eBADCAST", value: 2, isUnsigned: true)
!40 = !DIEnumerator(name: "eBADEXP", value: 3, isUnsigned: true)
!41 = !DIEnumerator(name: "eBADINIT", value: 4, isUnsigned: true)
!42 = !DIEnumerator(name: "eCANCEL", value: 5, isUnsigned: true)
!43 = !DIEnumerator(name: "eCANTCOPY", value: 6, isUnsigned: true)
!44 = !DIEnumerator(name: "eCANTDUP", value: 7, isUnsigned: true)
!45 = !DIEnumerator(name: "eCANTPACK", value: 8, isUnsigned: true)
!46 = !DIEnumerator(name: "eCUSTOM", value: 9, isUnsigned: true)
!47 = !DIEnumerator(name: "eDIMLESS", value: 10, isUnsigned: true)
!48 = !DIEnumerator(name: "eEBADARGS", value: 11, isUnsigned: true)
!49 = !DIEnumerator(name: "eECANTCAST", value: 12, isUnsigned: true)
!50 = !DIEnumerator(name: "eENDEDOK", value: 13, isUnsigned: true)
!51 = !DIEnumerator(name: "eENDSIM", value: 14, isUnsigned: true)
!52 = !DIEnumerator(name: "eENOPARENT", value: 15, isUnsigned: true)
!53 = !DIEnumerator(name: "eESTKOFLOW", value: 16, isUnsigned: true)
!54 = !DIEnumerator(name: "eESTKUFLOW", value: 17, isUnsigned: true)
!55 = !DIEnumerator(name: "eFINISH", value: 18, isUnsigned: true)
!56 = !DIEnumerator(name: "eGATEID", value: 19, isUnsigned: true)
!57 = !DIEnumerator(name: "eINFLOOP", value: 20, isUnsigned: true)
!58 = !DIEnumerator(name: "eLOCKED", value: 21, isUnsigned: true)
!59 = !DIEnumerator(name: "eMODFIN", value: 22, isUnsigned: true)
!60 = !DIEnumerator(name: "eMODINI", value: 23, isUnsigned: true)
!61 = !DIEnumerator(name: "eNEGTIME", value: 24, isUnsigned: true)
!62 = !DIEnumerator(name: "eNEGTOUT", value: 25, isUnsigned: true)
!63 = !DIEnumerator(name: "eNOCHANDEF", value: 26, isUnsigned: true)
!64 = !DIEnumerator(name: "eNONET", value: 27, isUnsigned: true)
!65 = !DIEnumerator(name: "eNOPARENTMOD", value: 28, isUnsigned: true)
!66 = !DIEnumerator(name: "eNOPARSIM", value: 29, isUnsigned: true)
!67 = !DIEnumerator(name: "eNORECV", value: 30, isUnsigned: true)
!68 = !DIEnumerator(name: "eNOSUCHNET", value: 31, isUnsigned: true)
!69 = !DIEnumerator(name: "eNUMARGS", value: 32, isUnsigned: true)
!70 = !DIEnumerator(name: "ePARAM", value: 33, isUnsigned: true)
!71 = !DIEnumerator(name: "ePARAMSNOTREADY", value: 34, isUnsigned: true)
!72 = !DIEnumerator(name: "eREALTIME", value: 35, isUnsigned: true)
!73 = !DIEnumerator(name: "eSIMTIME", value: 36, isUnsigned: true)
!74 = !DIEnumerator(name: "eSTATECHG", value: 37, isUnsigned: true)
!75 = !DIEnumerator(name: "eSTKLOW", value: 38, isUnsigned: true)
!76 = !DIEnumerator(name: "eSTOPSIMRCVD", value: 39, isUnsigned: true)
!77 = !DIEnumerator(name: "eUSER", value: 40, isUnsigned: true)
!78 = !DIEnumerator(name: "eWRONGSIM", value: 41, isUnsigned: true)
!79 = !DICompositeType(tag: DW_TAG_enumeration_type, name: "Type", scope: !81, file: !80, line: 34, baseType: !35, size: 32, elements: !82, identifier: "_ZTSN13cConfigOption4TypeE")
!80 = !DIFile(filename: "simulator/cconfigoption.h", directory: "/home/venkat/IF-DV/spec_build_release/CPU_2017/benchspec/CPU/520.omnetpp_r/build/build_base_ld-loop-ext-m64.0000")
!81 = !DICompositeType(tag: DW_TAG_class_type, name: "cConfigOption", file: !80, line: 30, flags: DIFlagFwdDecl)
!82 = !{!83, !84, !85, !86, !87, !88, !89, !90}
!83 = !DIEnumerator(name: "CFG_BOOL", value: 0, isUnsigned: true)
!84 = !DIEnumerator(name: "CFG_INT", value: 1, isUnsigned: true)
!85 = !DIEnumerator(name: "CFG_DOUBLE", value: 2, isUnsigned: true)
!86 = !DIEnumerator(name: "CFG_STRING", value: 3, isUnsigned: true)
!87 = !DIEnumerator(name: "CFG_FILENAME", value: 4, isUnsigned: true)
!88 = !DIEnumerator(name: "CFG_FILENAMES", value: 5, isUnsigned: true)
!89 = !DIEnumerator(name: "CFG_PATH", value: 6, isUnsigned: true)
!90 = !DIEnumerator(name: "CFG_CUSTOM", value: 7, isUnsigned: true)
!91 = !{!92, !94, !99, !100, !104, !239}
!92 = !DICompositeType(tag: DW_TAG_class_type, name: "cTerminationException", file: !93, line: 185, flags: DIFlagFwdDecl, identifier: "_ZTS21cTerminationException")
!93 = !DIFile(filename: "simulator/cexception.h", directory: "/home/venkat/IF-DV/spec_build_release/CPU_2017/benchspec/CPU/520.omnetpp_r/build/build_base_ld-loop-ext-m64.0000")
!94 = !DIDerivedType(tag: DW_TAG_typedef, name: "string", scope: !2, file: !95, line: 79, baseType: !96)
!95 = !DIFile(filename: "/usr/lib/gcc/x86_64-linux-gnu/10/../../../../include/c++/10/bits/stringfwd.h", directory: "")
!96 = !DICompositeType(tag: DW_TAG_class_type, name: "basic_string<char, std::char_traits<char>, std::allocator<char> >", scope: !98, file: !97, line: 1618, flags: DIFlagFwdDecl, identifier: "_ZTSNSt7__cxx1112basic_stringIcSt11char_traitsIcESaIcEEE")
!97 = !DIFile(filename: "/usr/lib/gcc/x86_64-linux-gnu/10/../../../../include/c++/10/bits/basic_string.tcc", directory: "")
!98 = !DINamespace(name: "__cxx11", scope: !2, exportSymbols: true)
!99 = !DIBasicType(name: "long int", size: 64, encoding: DW_ATE_signed)
!100 = distinct !DICompositeType(tag: DW_TAG_class_type, name: "SimTime", file: !101, line: 60, size: 64, flags: DIFlagTypePassByReference | DIFlagNonTrivial, elements: !102, identifier: "_ZTS7SimTime")
!101 = !DIFile(filename: "simulator/simtime.h", directory: "/home/venkat/IF-DV/spec_build_release/CPU_2017/benchspec/CPU/520.omnetpp_r/build/build_base_ld-loop-ext-m64.0000")
!102 = !{!103, !108, !109, !110, !112, !113, !115, !116, !117, !118, !119, !120, !121, !124, !128, !131, !134, !139, !140, !141, !142, !143, !146, !147, !152, !155, !156, !159, !164, !167, !168, !169, !170, !171, !172, !173, !177, !178, !179, !180, !181, !182, !185, !188, !191, !194, !195, !200, !203, !208, !211, !214, !217, !220, !223, !226, !231, !235}
!103 = !DIDerivedType(tag: DW_TAG_member, name: "t", scope: !100, file: !101, line: 63, baseType: !104, size: 64)
!104 = !DIDerivedType(tag: DW_TAG_typedef, name: "int64_t", file: !105, line: 27, baseType: !106)
!105 = !DIFile(filename: "/usr/include/x86_64-linux-gnu/bits/stdint-intn.h", directory: "")
!106 = !DIDerivedType(tag: DW_TAG_typedef, name: "__int64_t", file: !107, line: 44, baseType: !99)
!107 = !DIFile(filename: "/usr/include/x86_64-linux-gnu/bits/types.h", directory: "")
!108 = !DIDerivedType(tag: DW_TAG_member, name: "scaleexp", scope: !100, file: !101, line: 65, baseType: !11, flags: DIFlagStaticMember)
!109 = !DIDerivedType(tag: DW_TAG_member, name: "dscale", scope: !100, file: !101, line: 66, baseType: !104, flags: DIFlagStaticMember)
!110 = !DIDerivedType(tag: DW_TAG_member, name: "fscale", scope: !100, file: !101, line: 67, baseType: !111, flags: DIFlagStaticMember)
!111 = !DIBasicType(name: "double", size: 64, encoding: DW_ATE_float)
!112 = !DIDerivedType(tag: DW_TAG_member, name: "invfscale", scope: !100, file: !101, line: 68, baseType: !111, flags: DIFlagStaticMember)
!113 = !DIDerivedType(tag: DW_TAG_member, name: "SCALEEXP_S", scope: !100, file: !101, line: 107, baseType: !114, flags: DIFlagPublic | DIFlagStaticMember)
!114 = !DIDerivedType(tag: DW_TAG_const_type, baseType: !11)
!115 = !DIDerivedType(tag: DW_TAG_member, name: "SCALEEXP_MS", scope: !100, file: !101, line: 108, baseType: !114, flags: DIFlagPublic | DIFlagStaticMember)
!116 = !DIDerivedType(tag: DW_TAG_member, name: "SCALEEXP_US", scope: !100, file: !101, line: 109, baseType: !114, flags: DIFlagPublic | DIFlagStaticMember)
!117 = !DIDerivedType(tag: DW_TAG_member, name: "SCALEEXP_NS", scope: !100, file: !101, line: 110, baseType: !114, flags: DIFlagPublic | DIFlagStaticMember)
!118 = !DIDerivedType(tag: DW_TAG_member, name: "SCALEEXP_PS", scope: !100, file: !101, line: 111, baseType: !114, flags: DIFlagPublic | DIFlagStaticMember)
!119 = !DIDerivedType(tag: DW_TAG_member, name: "SCALEEXP_FS", scope: !100, file: !101, line: 112, baseType: !114, flags: DIFlagPublic | DIFlagStaticMember)
!120 = !DIDerivedType(tag: DW_TAG_member, name: "SCALEEXP_UNINITIALIZED", scope: !100, file: !101, line: 114, baseType: !114, flags: DIFlagPublic | DIFlagStaticMember, extraData: i32 65535)
!121 = !DISubprogram(name: "resetScale", linkageName: "_ZN7SimTime10resetScaleEv", scope: !100, file: !101, line: 71, type: !122, scopeLine: 71, flags: DIFlagProtected | DIFlagPrototyped | DIFlagStaticMember, spFlags: 0)
!122 = !DISubroutineType(types: !123)
!123 = !{null}
!124 = !DISubprogram(name: "initError", linkageName: "_ZN7SimTime9initErrorEd", scope: !100, file: !101, line: 75, type: !125, scopeLine: 75, flags: DIFlagPrototyped, spFlags: 0)
!125 = !DISubroutineType(types: !126)
!126 = !{null, !127, !111}
!127 = !DIDerivedType(tag: DW_TAG_pointer_type, baseType: !100, size: 64, flags: DIFlagArtificial | DIFlagObjectPointer)
!128 = !DISubprogram(name: "haveSameSign", linkageName: "_ZN7SimTime12haveSameSignEll", scope: !100, file: !101, line: 77, type: !129, scopeLine: 77, flags: DIFlagPrototyped, spFlags: 0)
!129 = !DISubroutineType(types: !130)
!130 = !{!13, !127, !104, !104}
!131 = !DISubprogram(name: "toInt64", linkageName: "_ZN7SimTime7toInt64Ed", scope: !100, file: !101, line: 79, type: !132, scopeLine: 79, flags: DIFlagPrototyped, spFlags: 0)
!132 = !DISubroutineType(types: !133)
!133 = !{!104, !127, !111}
!134 = !DISubprogram(name: "checkedAdd", linkageName: "_ZN7SimTime10checkedAddERKS_", scope: !100, file: !101, line: 85, type: !135, scopeLine: 85, flags: DIFlagPrototyped, spFlags: 0)
!135 = !DISubroutineType(types: !136)
!136 = !{null, !127, !137}
!137 = !DIDerivedType(tag: DW_TAG_reference_type, baseType: !138, size: 64)
!138 = !DIDerivedType(tag: DW_TAG_const_type, baseType: !100)
!139 = !DISubprogram(name: "checkedSub", linkageName: "_ZN7SimTime10checkedSubERKS_", scope: !100, file: !101, line: 93, type: !135, scopeLine: 93, flags: DIFlagPrototyped, spFlags: 0)
!140 = !DISubprogram(name: "rangeError", linkageName: "_ZN7SimTime10rangeErrorEd", scope: !100, file: !101, line: 101, type: !125, scopeLine: 101, flags: DIFlagPrototyped, spFlags: 0)
!141 = !DISubprogram(name: "overflowAdding", linkageName: "_ZN7SimTime14overflowAddingERKS_", scope: !100, file: !101, line: 102, type: !135, scopeLine: 102, flags: DIFlagPrototyped, spFlags: 0)
!142 = !DISubprogram(name: "overflowSubtracting", linkageName: "_ZN7SimTime19overflowSubtractingERKS_", scope: !100, file: !101, line: 103, type: !135, scopeLine: 103, flags: DIFlagPrototyped, spFlags: 0)
!143 = !DISubprogram(name: "SimTime", scope: !100, file: !101, line: 121, type: !144, scopeLine: 121, flags: DIFlagPublic | DIFlagPrototyped, spFlags: 0)
!144 = !DISubroutineType(types: !145)
!145 = !{null, !127}
!146 = !DISubprogram(name: "SimTime", scope: !100, file: !101, line: 131, type: !125, scopeLine: 131, flags: DIFlagPublic | DIFlagPrototyped, spFlags: 0)
!147 = !DISubprogram(name: "SimTime", scope: !100, file: !101, line: 139, type: !148, scopeLine: 139, flags: DIFlagPublic | DIFlagPrototyped, spFlags: 0)
!148 = !DISubroutineType(types: !149)
!149 = !{null, !127, !150}
!150 = !DIDerivedType(tag: DW_TAG_reference_type, baseType: !151, size: 64)
!151 = !DICompositeType(tag: DW_TAG_class_type, name: "cPar", file: !101, line: 26, flags: DIFlagFwdDecl, identifier: "_ZTS4cPar")
!152 = !DISubprogram(name: "SimTime", scope: !100, file: !101, line: 159, type: !153, scopeLine: 159, flags: DIFlagPublic | DIFlagPrototyped, spFlags: 0)
!153 = !DISubroutineType(types: !154)
!154 = !{null, !127, !104, !11}
!155 = !DISubprogram(name: "SimTime", scope: !100, file: !101, line: 164, type: !135, scopeLine: 164, flags: DIFlagPublic | DIFlagPrototyped, spFlags: 0)
!156 = !DISubprogram(name: "operator=", linkageName: "_ZN7SimTimeaSEd", scope: !100, file: !101, line: 169, type: !157, scopeLine: 169, flags: DIFlagPublic | DIFlagPrototyped, spFlags: 0)
!157 = !DISubroutineType(types: !158)
!158 = !{!137, !127, !111}
!159 = !DISubprogram(name: "operator=", linkageName: "_ZN7SimTimeaSERK4cPar", scope: !100, file: !101, line: 170, type: !160, scopeLine: 170, flags: DIFlagPublic | DIFlagPrototyped, spFlags: 0)
!160 = !DISubroutineType(types: !161)
!161 = !{!137, !127, !162}
!162 = !DIDerivedType(tag: DW_TAG_reference_type, baseType: !163, size: 64)
!163 = !DIDerivedType(tag: DW_TAG_const_type, baseType: !151)
!164 = !DISubprogram(name: "operator=", linkageName: "_ZN7SimTimeaSERKS_", scope: !100, file: !101, line: 171, type: !165, scopeLine: 171, flags: DIFlagPublic | DIFlagPrototyped, spFlags: 0)
!165 = !DISubroutineType(types: !166)
!166 = !{!137, !127, !137}
!167 = !DISubprogram(name: "operator+=", linkageName: "_ZN7SimTimepLERKS_", scope: !100, file: !101, line: 174, type: !165, scopeLine: 174, flags: DIFlagPublic | DIFlagPrototyped, spFlags: 0)
!168 = !DISubprogram(name: "operator-=", linkageName: "_ZN7SimTimemIERKS_", scope: !100, file: !101, line: 175, type: !165, scopeLine: 175, flags: DIFlagPublic | DIFlagPrototyped, spFlags: 0)
!169 = !DISubprogram(name: "operator*=", linkageName: "_ZN7SimTimemLEd", scope: !100, file: !101, line: 177, type: !157, scopeLine: 177, flags: DIFlagPublic | DIFlagPrototyped, spFlags: 0)
!170 = !DISubprogram(name: "operator/=", linkageName: "_ZN7SimTimedVEd", scope: !100, file: !101, line: 178, type: !157, scopeLine: 178, flags: DIFlagPublic | DIFlagPrototyped, spFlags: 0)
!171 = !DISubprogram(name: "operator*=", linkageName: "_ZN7SimTimemLERK4cPar", scope: !100, file: !101, line: 179, type: !160, scopeLine: 179, flags: DIFlagPublic | DIFlagPrototyped, spFlags: 0)
!172 = !DISubprogram(name: "operator/=", linkageName: "_ZN7SimTimedVERK4cPar", scope: !100, file: !101, line: 180, type: !160, scopeLine: 180, flags: DIFlagPublic | DIFlagPrototyped, spFlags: 0)
!173 = !DISubprogram(name: "operator==", linkageName: "_ZNK7SimTimeeqERKS_", scope: !100, file: !101, line: 184, type: !174, scopeLine: 184, flags: DIFlagPublic | DIFlagPrototyped, spFlags: 0)
!174 = !DISubroutineType(types: !175)
!175 = !{!13, !176, !137}
!176 = !DIDerivedType(tag: DW_TAG_pointer_type, baseType: !138, size: 64, flags: DIFlagArtificial | DIFlagObjectPointer)
!177 = !DISubprogram(name: "operator!=", linkageName: "_ZNK7SimTimeneERKS_", scope: !100, file: !101, line: 185, type: !174, scopeLine: 185, flags: DIFlagPublic | DIFlagPrototyped, spFlags: 0)
!178 = !DISubprogram(name: "operator<", linkageName: "_ZNK7SimTimeltERKS_", scope: !100, file: !101, line: 186, type: !174, scopeLine: 186, flags: DIFlagPublic | DIFlagPrototyped, spFlags: 0)
!179 = !DISubprogram(name: "operator>", linkageName: "_ZNK7SimTimegtERKS_", scope: !100, file: !101, line: 187, type: !174, scopeLine: 187, flags: DIFlagPublic | DIFlagPrototyped, spFlags: 0)
!180 = !DISubprogram(name: "operator<=", linkageName: "_ZNK7SimTimeleERKS_", scope: !100, file: !101, line: 188, type: !174, scopeLine: 188, flags: DIFlagPublic | DIFlagPrototyped, spFlags: 0)
!181 = !DISubprogram(name: "operator>=", linkageName: "_ZNK7SimTimegeERKS_", scope: !100, file: !101, line: 189, type: !174, scopeLine: 189, flags: DIFlagPublic | DIFlagPrototyped, spFlags: 0)
!182 = !DISubprogram(name: "operator-", linkageName: "_ZNK7SimTimengEv", scope: !100, file: !101, line: 191, type: !183, scopeLine: 191, flags: DIFlagPublic | DIFlagPrototyped, spFlags: 0)
!183 = !DISubroutineType(types: !184)
!184 = !{!100, !176}
!185 = !DISubprogram(name: "dbl", linkageName: "_ZNK7SimTime3dblEv", scope: !100, file: !101, line: 213, type: !186, scopeLine: 213, flags: DIFlagPublic | DIFlagPrototyped, spFlags: 0)
!186 = !DISubroutineType(types: !187)
!187 = !{!111, !176}
!188 = !DISubprogram(name: "inUnit", linkageName: "_ZNK7SimTime6inUnitEi", scope: !100, file: !101, line: 230, type: !189, scopeLine: 230, flags: DIFlagPublic | DIFlagPrototyped, spFlags: 0)
!189 = !DISubroutineType(types: !190)
!190 = !{!104, !176, !11}
!191 = !DISubprogram(name: "trunc", linkageName: "_ZNK7SimTime5truncEi", scope: !100, file: !101, line: 242, type: !192, scopeLine: 242, flags: DIFlagPublic | DIFlagPrototyped, spFlags: 0)
!192 = !DISubroutineType(types: !193)
!193 = !{!100, !176, !11}
!194 = !DISubprogram(name: "remainderForUnit", linkageName: "_ZNK7SimTime16remainderForUnitEi", scope: !100, file: !101, line: 250, type: !192, scopeLine: 250, flags: DIFlagPublic | DIFlagPrototyped, spFlags: 0)
!195 = !DISubprogram(name: "split", linkageName: "_ZNK7SimTime5splitEiRlRS_", scope: !100, file: !101, line: 263, type: !196, scopeLine: 263, flags: DIFlagPublic | DIFlagPrototyped, spFlags: 0)
!196 = !DISubroutineType(types: !197)
!197 = !{null, !176, !11, !198, !199}
!198 = !DIDerivedType(tag: DW_TAG_reference_type, baseType: !104, size: 64)
!199 = !DIDerivedType(tag: DW_TAG_reference_type, baseType: !100, size: 64)
!200 = !DISubprogram(name: "str", linkageName: "_ZNK7SimTime3strB5cxx11Ev", scope: !100, file: !101, line: 268, type: !201, scopeLine: 268, flags: DIFlagPublic | DIFlagPrototyped, spFlags: 0)
!201 = !DISubroutineType(types: !202)
!202 = !{!94, !176}
!203 = !DISubprogram(name: "str", linkageName: "_ZNK7SimTime3strEPc", scope: !100, file: !101, line: 277, type: !204, scopeLine: 277, flags: DIFlagPublic | DIFlagPrototyped, spFlags: 0)
!204 = !DISubroutineType(types: !205)
!205 = !{!206, !176, !206}
!206 = !DIDerivedType(tag: DW_TAG_pointer_type, baseType: !207, size: 64)
!207 = !DIBasicType(name: "char", size: 8, encoding: DW_ATE_signed_char)
!208 = !DISubprogram(name: "raw", linkageName: "_ZNK7SimTime3rawEv", scope: !100, file: !101, line: 282, type: !209, scopeLine: 282, flags: DIFlagPublic | DIFlagPrototyped, spFlags: 0)
!209 = !DISubroutineType(types: !210)
!210 = !{!104, !176}
!211 = !DISubprogram(name: "setRaw", linkageName: "_ZN7SimTime6setRawEl", scope: !100, file: !101, line: 287, type: !212, scopeLine: 287, flags: DIFlagPublic | DIFlagPrototyped, spFlags: 0)
!212 = !DISubroutineType(types: !213)
!213 = !{!137, !127, !104}
!214 = !DISubprogram(name: "getMaxTime", linkageName: "_ZN7SimTime10getMaxTimeEv", scope: !100, file: !101, line: 293, type: !215, scopeLine: 293, flags: DIFlagPublic | DIFlagPrototyped | DIFlagStaticMember, spFlags: 0)
!215 = !DISubroutineType(types: !216)
!216 = !{!138}
!217 = !DISubprogram(name: "getScale", linkageName: "_ZN7SimTime8getScaleEv", scope: !100, file: !101, line: 299, type: !218, scopeLine: 299, flags: DIFlagPublic | DIFlagPrototyped | DIFlagStaticMember, spFlags: 0)
!218 = !DISubroutineType(types: !219)
!219 = !{!104}
!220 = !DISubprogram(name: "getScaleExp", linkageName: "_ZN7SimTime11getScaleExpEv", scope: !100, file: !101, line: 305, type: !221, scopeLine: 305, flags: DIFlagPublic | DIFlagPrototyped | DIFlagStaticMember, spFlags: 0)
!221 = !DISubroutineType(types: !222)
!222 = !{!11}
!223 = !DISubprogram(name: "setScaleExp", linkageName: "_ZN7SimTime11setScaleExpEi", scope: !100, file: !101, line: 319, type: !224, scopeLine: 319, flags: DIFlagPublic | DIFlagPrototyped | DIFlagStaticMember, spFlags: 0)
!224 = !DISubroutineType(types: !225)
!225 = !{null, !11}
!226 = !DISubprogram(name: "parse", linkageName: "_ZN7SimTime5parseEPKc", scope: !100, file: !101, line: 326, type: !227, scopeLine: 326, flags: DIFlagPublic | DIFlagPrototyped | DIFlagStaticMember, spFlags: 0)
!227 = !DISubroutineType(types: !228)
!228 = !{!138, !229}
!229 = !DIDerivedType(tag: DW_TAG_pointer_type, baseType: !230, size: 64)
!230 = !DIDerivedType(tag: DW_TAG_const_type, baseType: !207)
!231 = !DISubprogram(name: "parse", linkageName: "_ZN7SimTime5parseEPKcRS1_", scope: !100, file: !101, line: 337, type: !232, scopeLine: 337, flags: DIFlagPublic | DIFlagPrototyped | DIFlagStaticMember, spFlags: 0)
!232 = !DISubroutineType(types: !233)
!233 = !{!138, !229, !234}
!234 = !DIDerivedType(tag: DW_TAG_reference_type, baseType: !229, size: 64)
!235 = !DISubprogram(name: "ttoa", linkageName: "_ZN7SimTime4ttoaEPcliRS0_", scope: !100, file: !101, line: 348, type: !236, scopeLine: 348, flags: DIFlagPublic | DIFlagPrototyped | DIFlagStaticMember, spFlags: 0)
!236 = !DISubroutineType(types: !237)
!237 = !{!206, !206, !104, !11, !238}
!238 = !DIDerivedType(tag: DW_TAG_reference_type, baseType: !206, size: 64)
!239 = !DIBasicType(name: "long unsigned int", size: 64, encoding: DW_ATE_unsigned)
!240 = !{!0, !28, !241, !261, !263}
!241 = !DIGlobalVariableExpression(var: !242, expr: !DIExpression())
!242 = distinct !DIGlobalVariable(name: "__onstartup_obj_33", linkageName: "_ZN12_GLOBAL__N_118__onstartup_obj_33E", scope: !243, file: !31, line: 33, type: !244, isLocal: true, isDefinition: true)
!243 = !DINamespace(scope: null)
!244 = distinct !DICompositeType(tag: DW_TAG_class_type, name: "ExecuteOnStartup", file: !245, line: 65, size: 128, flags: DIFlagTypePassByReference | DIFlagNonTrivial, elements: !246, identifier: "_ZTS16ExecuteOnStartup")
!245 = !DIFile(filename: "simulator/onstartup.h", directory: "/home/venkat/IF-DV/spec_build_release/CPU_2017/benchspec/CPU/520.omnetpp_r/build/build_base_ld-loop-ext-m64.0000")
!246 = !{!247, !249, !251, !252, !256, !259, !260}
!247 = !DIDerivedType(tag: DW_TAG_member, name: "code_to_exec", scope: !244, file: !245, line: 68, baseType: !248, size: 64)
!248 = !DIDerivedType(tag: DW_TAG_pointer_type, baseType: !122, size: 64)
!249 = !DIDerivedType(tag: DW_TAG_member, name: "next", scope: !244, file: !245, line: 69, baseType: !250, size: 64, offset: 64)
!250 = !DIDerivedType(tag: DW_TAG_pointer_type, baseType: !244, size: 64)
!251 = !DIDerivedType(tag: DW_TAG_member, name: "head", scope: !244, file: !245, line: 70, baseType: !250, flags: DIFlagStaticMember)
!252 = !DISubprogram(name: "ExecuteOnStartup", scope: !244, file: !245, line: 72, type: !253, scopeLine: 72, flags: DIFlagPublic | DIFlagPrototyped, spFlags: 0)
!253 = !DISubroutineType(types: !254)
!254 = !{null, !255, !248}
!255 = !DIDerivedType(tag: DW_TAG_pointer_type, baseType: !244, size: 64, flags: DIFlagArtificial | DIFlagObjectPointer)
!256 = !DISubprogram(name: "~ExecuteOnStartup", scope: !244, file: !245, line: 73, type: !257, scopeLine: 73, flags: DIFlagPublic | DIFlagPrototyped, spFlags: 0)
!257 = !DISubroutineType(types: !258)
!258 = !{null, !255}
!259 = !DISubprogram(name: "execute", linkageName: "_ZN16ExecuteOnStartup7executeEv", scope: !244, file: !245, line: 74, type: !257, scopeLine: 74, flags: DIFlagPublic | DIFlagPrototyped, spFlags: 0)
!260 = !DISubprogram(name: "executeAll", linkageName: "_ZN16ExecuteOnStartup10executeAllEv", scope: !244, file: !245, line: 75, type: !122, scopeLine: 75, flags: DIFlagPublic | DIFlagPrototyped | DIFlagStaticMember, spFlags: 0)
!261 = !DIGlobalVariableExpression(var: !262, expr: !DIExpression())
!262 = distinct !DIGlobalVariable(name: "__onstartup_obj_51", linkageName: "_ZN12_GLOBAL__N_118__onstartup_obj_51E", scope: !243, file: !31, line: 51, type: !244, isLocal: true, isDefinition: true)
!263 = !DIGlobalVariableExpression(var: !264, expr: !DIExpression())
!264 = distinct !DIGlobalVariable(name: "__onstartup_obj_63", linkageName: "_ZN12_GLOBAL__N_118__onstartup_obj_63E", scope: !243, file: !31, line: 63, type: !244, isLocal: true, isDefinition: true)
!265 = !{!266, !270, !287, !290, !295, !303, !311, !315, !322, !326, !330, !332, !334, !338, !347, !351, !357, !363, !365, !369, !373, !377, !381, !393, !395, !399, !403, !407, !409, !414, !418, !422, !424, !426, !430, !451, !455, !459, !463, !465, !471, !473, !479, !484, !488, !492, !496, !500, !504, !506, !508, !512, !516, !520, !522, !526, !530, !532, !534, !538, !544, !549, !554, !555, !556, !557, !558, !559, !560, !561, !562, !563, !564, !569, !573, !576, !577, !580, !582, !584, !586, !589, !592, !595, !598, !601, !603, !608, !612, !615, !618, !620, !622, !624, !626, !629, !632, !635, !638, !641, !643, !698, !702, !706, !710, !715, !721, !723, !725, !727, !729, !731, !733, !735, !737, !739, !741, !743, !745, !747, !751, !755, !761, !763, !767, !769, !773, !777, !781, !791, !795, !799, !801, !805, !809, !813, !817, !821, !825, !829, !833, !837, !839, !841, !845, !849, !855, !859, !863, !865, !869, !873, !879, !881, !885, !889, !893, !897, !901, !905, !909, !910, !911, !912, !914, !915, !916, !917, !918, !919, !920, !924, !930, !935, !939, !941, !943, !945, !947, !954, !958, !962, !966, !970, !974, !979, !983, !985, !989, !995, !999, !1004, !1006, !1008, !1012, !1016, !1018, !1020, !1022, !1024, !1028, !1030, !1032, !1036, !1040, !1044, !1048, !1052, !1056, !1058, !1062, !1066, !1070, !1074, !1076, !1078, !1082, !1086, !1087, !1088, !1089, !1090, !1091, !1097, !1099, !1101, !1105, !1107, !1109, !1111, !1113, !1115, !1117, !1119, !1124, !1128, !1130, !1132, !1137, !1139, !1141, !1143, !1145, !1147, !1149, !1152, !1154, !1156, !1160, !1164, !1166, !1168, !1170, !1172, !1174, !1176, !1178, !1180, !1182, !1184, !1188, !1192, !1194, !1196, !1198, !1200, !1202, !1204, !1206, !1208, !1210, !1212, !1214, !1216, !1218, !1220, !1222, !1226, !1230, !1234, !1236, !1238, !1240, !1242, !1244, !1246, !1248, !1250, !1252, !1256, !1260, !1264, !1266, !1268, !1270, !1274, !1278, !1282, !1284, !1286, !1288, !1290, !1292, !1294, !1296, !1298, !1300, !1302, !1304, !1306, !1310, !1314, !1318, !1320, !1322, !1324, !1326, !1330, !1334, !1336, !1338, !1340, !1342, !1344, !1346, !1350, !1354, !1356, !1358, !1360, !1362, !1366, !1370, !1374, !1376, !1378, !1380, !1382, !1384, !1386, !1390, !1394, !1398, !1400, !1404, !1408, !1410, !1412, !1414, !1416, !1418, !1420, !1426, !1431, !1433, !1434, !1435, !1436, !1437, !1438, !1439, !1440, !1441, !1442, !1443, !1444, !1445, !1446, !1447, !1448, !1449, !1450, !1451, !1452, !1453, !1454, !1455, !1456, !1457, !1458, !1459, !1460, !1461, !1462, !1463, !1464, !1470, !1473, !1474, !1476, !1478, !1480, !1482, !1486, !1488, !1490, !1492, !1494, !1496, !1498, !1500, !1502, !1506, !1510, !1512, !1516}
!266 = !DIImportedEntity(tag: DW_TAG_imported_module, scope: !267, entity: !268, file: !269, line: 58)
!267 = !DINamespace(name: "__gnu_debug", scope: null)
!268 = !DINamespace(name: "__debug", scope: !2)
!269 = !DIFile(filename: "/usr/lib/gcc/x86_64-linux-gnu/10/../../../../include/c++/10/debug/debug.h", directory: "")
!270 = !DIImportedEntity(tag: DW_TAG_imported_declaration, scope: !2, entity: !271, file: !286, line: 64)
!271 = !DIDerivedType(tag: DW_TAG_typedef, name: "mbstate_t", file: !272, line: 6, baseType: !273)
!272 = !DIFile(filename: "/usr/include/x86_64-linux-gnu/bits/types/mbstate_t.h", directory: "")
!273 = !DIDerivedType(tag: DW_TAG_typedef, name: "__mbstate_t", file: !274, line: 21, baseType: !275)
!274 = !DIFile(filename: "/usr/include/x86_64-linux-gnu/bits/types/__mbstate_t.h", directory: "")
!275 = distinct !DICompositeType(tag: DW_TAG_structure_type, file: !274, line: 13, size: 64, flags: DIFlagTypePassByValue, elements: !276, identifier: "_ZTS11__mbstate_t")
!276 = !{!277, !278}
!277 = !DIDerivedType(tag: DW_TAG_member, name: "__count", scope: !275, file: !274, line: 15, baseType: !11, size: 32)
!278 = !DIDerivedType(tag: DW_TAG_member, name: "__value", scope: !275, file: !274, line: 20, baseType: !279, size: 32, offset: 32)
!279 = distinct !DICompositeType(tag: DW_TAG_union_type, scope: !275, file: !274, line: 16, size: 32, flags: DIFlagTypePassByValue, elements: !280, identifier: "_ZTSN11__mbstate_tUt_E")
!280 = !{!281, !282}
!281 = !DIDerivedType(tag: DW_TAG_member, name: "__wch", scope: !279, file: !274, line: 18, baseType: !35, size: 32)
!282 = !DIDerivedType(tag: DW_TAG_member, name: "__wchb", scope: !279, file: !274, line: 19, baseType: !283, size: 32)
!283 = !DICompositeType(tag: DW_TAG_array_type, baseType: !207, size: 32, elements: !284)
!284 = !{!285}
!285 = !DISubrange(count: 4)
!286 = !DIFile(filename: "/usr/lib/gcc/x86_64-linux-gnu/10/../../../../include/c++/10/cwchar", directory: "")
!287 = !DIImportedEntity(tag: DW_TAG_imported_declaration, scope: !2, entity: !288, file: !286, line: 141)
!288 = !DIDerivedType(tag: DW_TAG_typedef, name: "wint_t", file: !289, line: 20, baseType: !35)
!289 = !DIFile(filename: "/usr/include/x86_64-linux-gnu/bits/types/wint_t.h", directory: "")
!290 = !DIImportedEntity(tag: DW_TAG_imported_declaration, scope: !2, entity: !291, file: !286, line: 143)
!291 = !DISubprogram(name: "btowc", scope: !292, file: !292, line: 284, type: !293, flags: DIFlagPrototyped, spFlags: 0)
!292 = !DIFile(filename: "/usr/include/wchar.h", directory: "")
!293 = !DISubroutineType(types: !294)
!294 = !{!288, !11}
!295 = !DIImportedEntity(tag: DW_TAG_imported_declaration, scope: !2, entity: !296, file: !286, line: 144)
!296 = !DISubprogram(name: "fgetwc", scope: !292, file: !292, line: 726, type: !297, flags: DIFlagPrototyped, spFlags: 0)
!297 = !DISubroutineType(types: !298)
!298 = !{!288, !299}
!299 = !DIDerivedType(tag: DW_TAG_pointer_type, baseType: !300, size: 64)
!300 = !DIDerivedType(tag: DW_TAG_typedef, name: "__FILE", file: !301, line: 5, baseType: !302)
!301 = !DIFile(filename: "/usr/include/x86_64-linux-gnu/bits/types/__FILE.h", directory: "")
!302 = !DICompositeType(tag: DW_TAG_structure_type, name: "_IO_FILE", file: !301, line: 4, flags: DIFlagFwdDecl, identifier: "_ZTS8_IO_FILE")
!303 = !DIImportedEntity(tag: DW_TAG_imported_declaration, scope: !2, entity: !304, file: !286, line: 145)
!304 = !DISubprogram(name: "fgetws", scope: !292, file: !292, line: 755, type: !305, flags: DIFlagPrototyped, spFlags: 0)
!305 = !DISubroutineType(types: !306)
!306 = !{!307, !309, !11, !310}
!307 = !DIDerivedType(tag: DW_TAG_pointer_type, baseType: !308, size: 64)
!308 = !DIBasicType(name: "wchar_t", size: 32, encoding: DW_ATE_signed)
!309 = !DIDerivedType(tag: DW_TAG_restrict_type, baseType: !307)
!310 = !DIDerivedType(tag: DW_TAG_restrict_type, baseType: !299)
!311 = !DIImportedEntity(tag: DW_TAG_imported_declaration, scope: !2, entity: !312, file: !286, line: 146)
!312 = !DISubprogram(name: "fputwc", scope: !292, file: !292, line: 740, type: !313, flags: DIFlagPrototyped, spFlags: 0)
!313 = !DISubroutineType(types: !314)
!314 = !{!288, !308, !299}
!315 = !DIImportedEntity(tag: DW_TAG_imported_declaration, scope: !2, entity: !316, file: !286, line: 147)
!316 = !DISubprogram(name: "fputws", scope: !292, file: !292, line: 762, type: !317, flags: DIFlagPrototyped, spFlags: 0)
!317 = !DISubroutineType(types: !318)
!318 = !{!11, !319, !310}
!319 = !DIDerivedType(tag: DW_TAG_restrict_type, baseType: !320)
!320 = !DIDerivedType(tag: DW_TAG_pointer_type, baseType: !321, size: 64)
!321 = !DIDerivedType(tag: DW_TAG_const_type, baseType: !308)
!322 = !DIImportedEntity(tag: DW_TAG_imported_declaration, scope: !2, entity: !323, file: !286, line: 148)
!323 = !DISubprogram(name: "fwide", scope: !292, file: !292, line: 573, type: !324, flags: DIFlagPrototyped, spFlags: 0)
!324 = !DISubroutineType(types: !325)
!325 = !{!11, !299, !11}
!326 = !DIImportedEntity(tag: DW_TAG_imported_declaration, scope: !2, entity: !327, file: !286, line: 149)
!327 = !DISubprogram(name: "fwprintf", scope: !292, file: !292, line: 580, type: !328, flags: DIFlagPrototyped, spFlags: 0)
!328 = !DISubroutineType(types: !329)
!329 = !{!11, !310, !319, null}
!330 = !DIImportedEntity(tag: DW_TAG_imported_declaration, scope: !2, entity: !331, file: !286, line: 150)
!331 = !DISubprogram(name: "fwscanf", linkageName: "__isoc99_fwscanf", scope: !292, file: !292, line: 640, type: !328, flags: DIFlagPrototyped, spFlags: 0)
!332 = !DIImportedEntity(tag: DW_TAG_imported_declaration, scope: !2, entity: !333, file: !286, line: 151)
!333 = !DISubprogram(name: "getwc", scope: !292, file: !292, line: 727, type: !297, flags: DIFlagPrototyped, spFlags: 0)
!334 = !DIImportedEntity(tag: DW_TAG_imported_declaration, scope: !2, entity: !335, file: !286, line: 152)
!335 = !DISubprogram(name: "getwchar", scope: !292, file: !292, line: 733, type: !336, flags: DIFlagPrototyped, spFlags: 0)
!336 = !DISubroutineType(types: !337)
!337 = !{!288}
!338 = !DIImportedEntity(tag: DW_TAG_imported_declaration, scope: !2, entity: !339, file: !286, line: 153)
!339 = !DISubprogram(name: "mbrlen", scope: !292, file: !292, line: 307, type: !340, flags: DIFlagPrototyped, spFlags: 0)
!340 = !DISubroutineType(types: !341)
!341 = !{!342, !344, !342, !345}
!342 = !DIDerivedType(tag: DW_TAG_typedef, name: "size_t", file: !343, line: 46, baseType: !239)
!343 = !DIFile(filename: "Rohit/IR2Vec-LoopOptimizationFramework/build_REL_AsrtON/lib/clang/10.0.1/include/stddef.h", directory: "/home/venkat/IF-DV")
!344 = !DIDerivedType(tag: DW_TAG_restrict_type, baseType: !229)
!345 = !DIDerivedType(tag: DW_TAG_restrict_type, baseType: !346)
!346 = !DIDerivedType(tag: DW_TAG_pointer_type, baseType: !271, size: 64)
!347 = !DIImportedEntity(tag: DW_TAG_imported_declaration, scope: !2, entity: !348, file: !286, line: 154)
!348 = !DISubprogram(name: "mbrtowc", scope: !292, file: !292, line: 296, type: !349, flags: DIFlagPrototyped, spFlags: 0)
!349 = !DISubroutineType(types: !350)
!350 = !{!342, !309, !344, !342, !345}
!351 = !DIImportedEntity(tag: DW_TAG_imported_declaration, scope: !2, entity: !352, file: !286, line: 155)
!352 = !DISubprogram(name: "mbsinit", scope: !292, file: !292, line: 292, type: !353, flags: DIFlagPrototyped, spFlags: 0)
!353 = !DISubroutineType(types: !354)
!354 = !{!11, !355}
!355 = !DIDerivedType(tag: DW_TAG_pointer_type, baseType: !356, size: 64)
!356 = !DIDerivedType(tag: DW_TAG_const_type, baseType: !271)
!357 = !DIImportedEntity(tag: DW_TAG_imported_declaration, scope: !2, entity: !358, file: !286, line: 156)
!358 = !DISubprogram(name: "mbsrtowcs", scope: !292, file: !292, line: 337, type: !359, flags: DIFlagPrototyped, spFlags: 0)
!359 = !DISubroutineType(types: !360)
!360 = !{!342, !309, !361, !342, !345}
!361 = !DIDerivedType(tag: DW_TAG_restrict_type, baseType: !362)
!362 = !DIDerivedType(tag: DW_TAG_pointer_type, baseType: !229, size: 64)
!363 = !DIImportedEntity(tag: DW_TAG_imported_declaration, scope: !2, entity: !364, file: !286, line: 157)
!364 = !DISubprogram(name: "putwc", scope: !292, file: !292, line: 741, type: !313, flags: DIFlagPrototyped, spFlags: 0)
!365 = !DIImportedEntity(tag: DW_TAG_imported_declaration, scope: !2, entity: !366, file: !286, line: 158)
!366 = !DISubprogram(name: "putwchar", scope: !292, file: !292, line: 747, type: !367, flags: DIFlagPrototyped, spFlags: 0)
!367 = !DISubroutineType(types: !368)
!368 = !{!288, !308}
!369 = !DIImportedEntity(tag: DW_TAG_imported_declaration, scope: !2, entity: !370, file: !286, line: 160)
!370 = !DISubprogram(name: "swprintf", scope: !292, file: !292, line: 590, type: !371, flags: DIFlagPrototyped, spFlags: 0)
!371 = !DISubroutineType(types: !372)
!372 = !{!11, !309, !342, !319, null}
!373 = !DIImportedEntity(tag: DW_TAG_imported_declaration, scope: !2, entity: !374, file: !286, line: 162)
!374 = !DISubprogram(name: "swscanf", linkageName: "__isoc99_swscanf", scope: !292, file: !292, line: 647, type: !375, flags: DIFlagPrototyped, spFlags: 0)
!375 = !DISubroutineType(types: !376)
!376 = !{!11, !319, !319, null}
!377 = !DIImportedEntity(tag: DW_TAG_imported_declaration, scope: !2, entity: !378, file: !286, line: 163)
!378 = !DISubprogram(name: "ungetwc", scope: !292, file: !292, line: 770, type: !379, flags: DIFlagPrototyped, spFlags: 0)
!379 = !DISubroutineType(types: !380)
!380 = !{!288, !288, !299}
!381 = !DIImportedEntity(tag: DW_TAG_imported_declaration, scope: !2, entity: !382, file: !286, line: 164)
!382 = !DISubprogram(name: "vfwprintf", scope: !292, file: !292, line: 598, type: !383, flags: DIFlagPrototyped, spFlags: 0)
!383 = !DISubroutineType(types: !384)
!384 = !{!11, !310, !319, !385}
!385 = !DIDerivedType(tag: DW_TAG_pointer_type, baseType: !386, size: 64)
!386 = distinct !DICompositeType(tag: DW_TAG_structure_type, name: "__va_list_tag", file: !31, size: 192, flags: DIFlagTypePassByValue, elements: !387, identifier: "_ZTS13__va_list_tag")
!387 = !{!388, !389, !390, !392}
!388 = !DIDerivedType(tag: DW_TAG_member, name: "gp_offset", scope: !386, file: !31, baseType: !35, size: 32)
!389 = !DIDerivedType(tag: DW_TAG_member, name: "fp_offset", scope: !386, file: !31, baseType: !35, size: 32, offset: 32)
!390 = !DIDerivedType(tag: DW_TAG_member, name: "overflow_arg_area", scope: !386, file: !31, baseType: !391, size: 64, offset: 64)
!391 = !DIDerivedType(tag: DW_TAG_pointer_type, baseType: null, size: 64)
!392 = !DIDerivedType(tag: DW_TAG_member, name: "reg_save_area", scope: !386, file: !31, baseType: !391, size: 64, offset: 128)
!393 = !DIImportedEntity(tag: DW_TAG_imported_declaration, scope: !2, entity: !394, file: !286, line: 166)
!394 = !DISubprogram(name: "vfwscanf", linkageName: "__isoc99_vfwscanf", scope: !292, file: !292, line: 693, type: !383, flags: DIFlagPrototyped, spFlags: 0)
!395 = !DIImportedEntity(tag: DW_TAG_imported_declaration, scope: !2, entity: !396, file: !286, line: 169)
!396 = !DISubprogram(name: "vswprintf", scope: !292, file: !292, line: 611, type: !397, flags: DIFlagPrototyped, spFlags: 0)
!397 = !DISubroutineType(types: !398)
!398 = !{!11, !309, !342, !319, !385}
!399 = !DIImportedEntity(tag: DW_TAG_imported_declaration, scope: !2, entity: !400, file: !286, line: 172)
!400 = !DISubprogram(name: "vswscanf", linkageName: "__isoc99_vswscanf", scope: !292, file: !292, line: 700, type: !401, flags: DIFlagPrototyped, spFlags: 0)
!401 = !DISubroutineType(types: !402)
!402 = !{!11, !319, !319, !385}
!403 = !DIImportedEntity(tag: DW_TAG_imported_declaration, scope: !2, entity: !404, file: !286, line: 174)
!404 = !DISubprogram(name: "vwprintf", scope: !292, file: !292, line: 606, type: !405, flags: DIFlagPrototyped, spFlags: 0)
!405 = !DISubroutineType(types: !406)
!406 = !{!11, !319, !385}
!407 = !DIImportedEntity(tag: DW_TAG_imported_declaration, scope: !2, entity: !408, file: !286, line: 176)
!408 = !DISubprogram(name: "vwscanf", linkageName: "__isoc99_vwscanf", scope: !292, file: !292, line: 697, type: !405, flags: DIFlagPrototyped, spFlags: 0)
!409 = !DIImportedEntity(tag: DW_TAG_imported_declaration, scope: !2, entity: !410, file: !286, line: 178)
!410 = !DISubprogram(name: "wcrtomb", scope: !292, file: !292, line: 301, type: !411, flags: DIFlagPrototyped, spFlags: 0)
!411 = !DISubroutineType(types: !412)
!412 = !{!342, !413, !308, !345}
!413 = !DIDerivedType(tag: DW_TAG_restrict_type, baseType: !206)
!414 = !DIImportedEntity(tag: DW_TAG_imported_declaration, scope: !2, entity: !415, file: !286, line: 179)
!415 = !DISubprogram(name: "wcscat", scope: !292, file: !292, line: 97, type: !416, flags: DIFlagPrototyped, spFlags: 0)
!416 = !DISubroutineType(types: !417)
!417 = !{!307, !309, !319}
!418 = !DIImportedEntity(tag: DW_TAG_imported_declaration, scope: !2, entity: !419, file: !286, line: 180)
!419 = !DISubprogram(name: "wcscmp", scope: !292, file: !292, line: 106, type: !420, flags: DIFlagPrototyped, spFlags: 0)
!420 = !DISubroutineType(types: !421)
!421 = !{!11, !320, !320}
!422 = !DIImportedEntity(tag: DW_TAG_imported_declaration, scope: !2, entity: !423, file: !286, line: 181)
!423 = !DISubprogram(name: "wcscoll", scope: !292, file: !292, line: 131, type: !420, flags: DIFlagPrototyped, spFlags: 0)
!424 = !DIImportedEntity(tag: DW_TAG_imported_declaration, scope: !2, entity: !425, file: !286, line: 182)
!425 = !DISubprogram(name: "wcscpy", scope: !292, file: !292, line: 87, type: !416, flags: DIFlagPrototyped, spFlags: 0)
!426 = !DIImportedEntity(tag: DW_TAG_imported_declaration, scope: !2, entity: !427, file: !286, line: 183)
!427 = !DISubprogram(name: "wcscspn", scope: !292, file: !292, line: 187, type: !428, flags: DIFlagPrototyped, spFlags: 0)
!428 = !DISubroutineType(types: !429)
!429 = !{!342, !320, !320}
!430 = !DIImportedEntity(tag: DW_TAG_imported_declaration, scope: !2, entity: !431, file: !286, line: 184)
!431 = !DISubprogram(name: "wcsftime", scope: !292, file: !292, line: 834, type: !432, flags: DIFlagPrototyped, spFlags: 0)
!432 = !DISubroutineType(types: !433)
!433 = !{!342, !309, !342, !319, !434}
!434 = !DIDerivedType(tag: DW_TAG_restrict_type, baseType: !435)
!435 = !DIDerivedType(tag: DW_TAG_pointer_type, baseType: !436, size: 64)
!436 = !DIDerivedType(tag: DW_TAG_const_type, baseType: !437)
!437 = distinct !DICompositeType(tag: DW_TAG_structure_type, name: "tm", file: !438, line: 7, size: 448, flags: DIFlagTypePassByValue, elements: !439, identifier: "_ZTS2tm")
!438 = !DIFile(filename: "/usr/include/x86_64-linux-gnu/bits/types/struct_tm.h", directory: "")
!439 = !{!440, !441, !442, !443, !444, !445, !446, !447, !448, !449, !450}
!440 = !DIDerivedType(tag: DW_TAG_member, name: "tm_sec", scope: !437, file: !438, line: 9, baseType: !11, size: 32)
!441 = !DIDerivedType(tag: DW_TAG_member, name: "tm_min", scope: !437, file: !438, line: 10, baseType: !11, size: 32, offset: 32)
!442 = !DIDerivedType(tag: DW_TAG_member, name: "tm_hour", scope: !437, file: !438, line: 11, baseType: !11, size: 32, offset: 64)
!443 = !DIDerivedType(tag: DW_TAG_member, name: "tm_mday", scope: !437, file: !438, line: 12, baseType: !11, size: 32, offset: 96)
!444 = !DIDerivedType(tag: DW_TAG_member, name: "tm_mon", scope: !437, file: !438, line: 13, baseType: !11, size: 32, offset: 128)
!445 = !DIDerivedType(tag: DW_TAG_member, name: "tm_year", scope: !437, file: !438, line: 14, baseType: !11, size: 32, offset: 160)
!446 = !DIDerivedType(tag: DW_TAG_member, name: "tm_wday", scope: !437, file: !438, line: 15, baseType: !11, size: 32, offset: 192)
!447 = !DIDerivedType(tag: DW_TAG_member, name: "tm_yday", scope: !437, file: !438, line: 16, baseType: !11, size: 32, offset: 224)
!448 = !DIDerivedType(tag: DW_TAG_member, name: "tm_isdst", scope: !437, file: !438, line: 17, baseType: !11, size: 32, offset: 256)
!449 = !DIDerivedType(tag: DW_TAG_member, name: "tm_gmtoff", scope: !437, file: !438, line: 20, baseType: !99, size: 64, offset: 320)
!450 = !DIDerivedType(tag: DW_TAG_member, name: "tm_zone", scope: !437, file: !438, line: 21, baseType: !229, size: 64, offset: 384)
!451 = !DIImportedEntity(tag: DW_TAG_imported_declaration, scope: !2, entity: !452, file: !286, line: 185)
!452 = !DISubprogram(name: "wcslen", scope: !292, file: !292, line: 222, type: !453, flags: DIFlagPrototyped, spFlags: 0)
!453 = !DISubroutineType(types: !454)
!454 = !{!342, !320}
!455 = !DIImportedEntity(tag: DW_TAG_imported_declaration, scope: !2, entity: !456, file: !286, line: 186)
!456 = !DISubprogram(name: "wcsncat", scope: !292, file: !292, line: 101, type: !457, flags: DIFlagPrototyped, spFlags: 0)
!457 = !DISubroutineType(types: !458)
!458 = !{!307, !309, !319, !342}
!459 = !DIImportedEntity(tag: DW_TAG_imported_declaration, scope: !2, entity: !460, file: !286, line: 187)
!460 = !DISubprogram(name: "wcsncmp", scope: !292, file: !292, line: 109, type: !461, flags: DIFlagPrototyped, spFlags: 0)
!461 = !DISubroutineType(types: !462)
!462 = !{!11, !320, !320, !342}
!463 = !DIImportedEntity(tag: DW_TAG_imported_declaration, scope: !2, entity: !464, file: !286, line: 188)
!464 = !DISubprogram(name: "wcsncpy", scope: !292, file: !292, line: 92, type: !457, flags: DIFlagPrototyped, spFlags: 0)
!465 = !DIImportedEntity(tag: DW_TAG_imported_declaration, scope: !2, entity: !466, file: !286, line: 189)
!466 = !DISubprogram(name: "wcsrtombs", scope: !292, file: !292, line: 343, type: !467, flags: DIFlagPrototyped, spFlags: 0)
!467 = !DISubroutineType(types: !468)
!468 = !{!342, !413, !469, !342, !345}
!469 = !DIDerivedType(tag: DW_TAG_restrict_type, baseType: !470)
!470 = !DIDerivedType(tag: DW_TAG_pointer_type, baseType: !320, size: 64)
!471 = !DIImportedEntity(tag: DW_TAG_imported_declaration, scope: !2, entity: !472, file: !286, line: 190)
!472 = !DISubprogram(name: "wcsspn", scope: !292, file: !292, line: 191, type: !428, flags: DIFlagPrototyped, spFlags: 0)
!473 = !DIImportedEntity(tag: DW_TAG_imported_declaration, scope: !2, entity: !474, file: !286, line: 191)
!474 = !DISubprogram(name: "wcstod", scope: !292, file: !292, line: 377, type: !475, flags: DIFlagPrototyped, spFlags: 0)
!475 = !DISubroutineType(types: !476)
!476 = !{!111, !319, !477}
!477 = !DIDerivedType(tag: DW_TAG_restrict_type, baseType: !478)
!478 = !DIDerivedType(tag: DW_TAG_pointer_type, baseType: !307, size: 64)
!479 = !DIImportedEntity(tag: DW_TAG_imported_declaration, scope: !2, entity: !480, file: !286, line: 193)
!480 = !DISubprogram(name: "wcstof", scope: !292, file: !292, line: 382, type: !481, flags: DIFlagPrototyped, spFlags: 0)
!481 = !DISubroutineType(types: !482)
!482 = !{!483, !319, !477}
!483 = !DIBasicType(name: "float", size: 32, encoding: DW_ATE_float)
!484 = !DIImportedEntity(tag: DW_TAG_imported_declaration, scope: !2, entity: !485, file: !286, line: 195)
!485 = !DISubprogram(name: "wcstok", scope: !292, file: !292, line: 217, type: !486, flags: DIFlagPrototyped, spFlags: 0)
!486 = !DISubroutineType(types: !487)
!487 = !{!307, !309, !319, !477}
!488 = !DIImportedEntity(tag: DW_TAG_imported_declaration, scope: !2, entity: !489, file: !286, line: 196)
!489 = !DISubprogram(name: "wcstol", scope: !292, file: !292, line: 428, type: !490, flags: DIFlagPrototyped, spFlags: 0)
!490 = !DISubroutineType(types: !491)
!491 = !{!99, !319, !477, !11}
!492 = !DIImportedEntity(tag: DW_TAG_imported_declaration, scope: !2, entity: !493, file: !286, line: 197)
!493 = !DISubprogram(name: "wcstoul", scope: !292, file: !292, line: 433, type: !494, flags: DIFlagPrototyped, spFlags: 0)
!494 = !DISubroutineType(types: !495)
!495 = !{!239, !319, !477, !11}
!496 = !DIImportedEntity(tag: DW_TAG_imported_declaration, scope: !2, entity: !497, file: !286, line: 198)
!497 = !DISubprogram(name: "wcsxfrm", scope: !292, file: !292, line: 135, type: !498, flags: DIFlagPrototyped, spFlags: 0)
!498 = !DISubroutineType(types: !499)
!499 = !{!342, !309, !319, !342}
!500 = !DIImportedEntity(tag: DW_TAG_imported_declaration, scope: !2, entity: !501, file: !286, line: 199)
!501 = !DISubprogram(name: "wctob", scope: !292, file: !292, line: 288, type: !502, flags: DIFlagPrototyped, spFlags: 0)
!502 = !DISubroutineType(types: !503)
!503 = !{!11, !288}
!504 = !DIImportedEntity(tag: DW_TAG_imported_declaration, scope: !2, entity: !505, file: !286, line: 200)
!505 = !DISubprogram(name: "wmemcmp", scope: !292, file: !292, line: 258, type: !461, flags: DIFlagPrototyped, spFlags: 0)
!506 = !DIImportedEntity(tag: DW_TAG_imported_declaration, scope: !2, entity: !507, file: !286, line: 201)
!507 = !DISubprogram(name: "wmemcpy", scope: !292, file: !292, line: 262, type: !457, flags: DIFlagPrototyped, spFlags: 0)
!508 = !DIImportedEntity(tag: DW_TAG_imported_declaration, scope: !2, entity: !509, file: !286, line: 202)
!509 = !DISubprogram(name: "wmemmove", scope: !292, file: !292, line: 267, type: !510, flags: DIFlagPrototyped, spFlags: 0)
!510 = !DISubroutineType(types: !511)
!511 = !{!307, !307, !320, !342}
!512 = !DIImportedEntity(tag: DW_TAG_imported_declaration, scope: !2, entity: !513, file: !286, line: 203)
!513 = !DISubprogram(name: "wmemset", scope: !292, file: !292, line: 271, type: !514, flags: DIFlagPrototyped, spFlags: 0)
!514 = !DISubroutineType(types: !515)
!515 = !{!307, !307, !308, !342}
!516 = !DIImportedEntity(tag: DW_TAG_imported_declaration, scope: !2, entity: !517, file: !286, line: 204)
!517 = !DISubprogram(name: "wprintf", scope: !292, file: !292, line: 587, type: !518, flags: DIFlagPrototyped, spFlags: 0)
!518 = !DISubroutineType(types: !519)
!519 = !{!11, !319, null}
!520 = !DIImportedEntity(tag: DW_TAG_imported_declaration, scope: !2, entity: !521, file: !286, line: 205)
!521 = !DISubprogram(name: "wscanf", linkageName: "__isoc99_wscanf", scope: !292, file: !292, line: 644, type: !518, flags: DIFlagPrototyped, spFlags: 0)
!522 = !DIImportedEntity(tag: DW_TAG_imported_declaration, scope: !2, entity: !523, file: !286, line: 206)
!523 = !DISubprogram(name: "wcschr", scope: !292, file: !292, line: 164, type: !524, flags: DIFlagPrototyped, spFlags: 0)
!524 = !DISubroutineType(types: !525)
!525 = !{!307, !320, !308}
!526 = !DIImportedEntity(tag: DW_TAG_imported_declaration, scope: !2, entity: !527, file: !286, line: 207)
!527 = !DISubprogram(name: "wcspbrk", scope: !292, file: !292, line: 201, type: !528, flags: DIFlagPrototyped, spFlags: 0)
!528 = !DISubroutineType(types: !529)
!529 = !{!307, !320, !320}
!530 = !DIImportedEntity(tag: DW_TAG_imported_declaration, scope: !2, entity: !531, file: !286, line: 208)
!531 = !DISubprogram(name: "wcsrchr", scope: !292, file: !292, line: 174, type: !524, flags: DIFlagPrototyped, spFlags: 0)
!532 = !DIImportedEntity(tag: DW_TAG_imported_declaration, scope: !2, entity: !533, file: !286, line: 209)
!533 = !DISubprogram(name: "wcsstr", scope: !292, file: !292, line: 212, type: !528, flags: DIFlagPrototyped, spFlags: 0)
!534 = !DIImportedEntity(tag: DW_TAG_imported_declaration, scope: !2, entity: !535, file: !286, line: 210)
!535 = !DISubprogram(name: "wmemchr", scope: !292, file: !292, line: 253, type: !536, flags: DIFlagPrototyped, spFlags: 0)
!536 = !DISubroutineType(types: !537)
!537 = !{!307, !320, !308, !342}
!538 = !DIImportedEntity(tag: DW_TAG_imported_declaration, scope: !539, entity: !540, file: !286, line: 251)
!539 = !DINamespace(name: "__gnu_cxx", scope: null)
!540 = !DISubprogram(name: "wcstold", scope: !292, file: !292, line: 384, type: !541, flags: DIFlagPrototyped, spFlags: 0)
!541 = !DISubroutineType(types: !542)
!542 = !{!543, !319, !477}
!543 = !DIBasicType(name: "long double", size: 128, encoding: DW_ATE_float)
!544 = !DIImportedEntity(tag: DW_TAG_imported_declaration, scope: !539, entity: !545, file: !286, line: 260)
!545 = !DISubprogram(name: "wcstoll", scope: !292, file: !292, line: 441, type: !546, flags: DIFlagPrototyped, spFlags: 0)
!546 = !DISubroutineType(types: !547)
!547 = !{!548, !319, !477, !11}
!548 = !DIBasicType(name: "long long int", size: 64, encoding: DW_ATE_signed)
!549 = !DIImportedEntity(tag: DW_TAG_imported_declaration, scope: !539, entity: !550, file: !286, line: 261)
!550 = !DISubprogram(name: "wcstoull", scope: !292, file: !292, line: 448, type: !551, flags: DIFlagPrototyped, spFlags: 0)
!551 = !DISubroutineType(types: !552)
!552 = !{!553, !319, !477, !11}
!553 = !DIBasicType(name: "long long unsigned int", size: 64, encoding: DW_ATE_unsigned)
!554 = !DIImportedEntity(tag: DW_TAG_imported_declaration, scope: !2, entity: !540, file: !286, line: 267)
!555 = !DIImportedEntity(tag: DW_TAG_imported_declaration, scope: !2, entity: !545, file: !286, line: 268)
!556 = !DIImportedEntity(tag: DW_TAG_imported_declaration, scope: !2, entity: !550, file: !286, line: 269)
!557 = !DIImportedEntity(tag: DW_TAG_imported_declaration, scope: !2, entity: !480, file: !286, line: 283)
!558 = !DIImportedEntity(tag: DW_TAG_imported_declaration, scope: !2, entity: !394, file: !286, line: 286)
!559 = !DIImportedEntity(tag: DW_TAG_imported_declaration, scope: !2, entity: !400, file: !286, line: 289)
!560 = !DIImportedEntity(tag: DW_TAG_imported_declaration, scope: !2, entity: !408, file: !286, line: 292)
!561 = !DIImportedEntity(tag: DW_TAG_imported_declaration, scope: !2, entity: !540, file: !286, line: 296)
!562 = !DIImportedEntity(tag: DW_TAG_imported_declaration, scope: !2, entity: !545, file: !286, line: 297)
!563 = !DIImportedEntity(tag: DW_TAG_imported_declaration, scope: !2, entity: !550, file: !286, line: 298)
!564 = !DIImportedEntity(tag: DW_TAG_imported_declaration, scope: !2, entity: !565, file: !568, line: 47)
!565 = !DIDerivedType(tag: DW_TAG_typedef, name: "int8_t", file: !105, line: 24, baseType: !566)
!566 = !DIDerivedType(tag: DW_TAG_typedef, name: "__int8_t", file: !107, line: 37, baseType: !567)
!567 = !DIBasicType(name: "signed char", size: 8, encoding: DW_ATE_signed_char)
!568 = !DIFile(filename: "/usr/lib/gcc/x86_64-linux-gnu/10/../../../../include/c++/10/cstdint", directory: "")
!569 = !DIImportedEntity(tag: DW_TAG_imported_declaration, scope: !2, entity: !570, file: !568, line: 48)
!570 = !DIDerivedType(tag: DW_TAG_typedef, name: "int16_t", file: !105, line: 25, baseType: !571)
!571 = !DIDerivedType(tag: DW_TAG_typedef, name: "__int16_t", file: !107, line: 39, baseType: !572)
!572 = !DIBasicType(name: "short", size: 16, encoding: DW_ATE_signed)
!573 = !DIImportedEntity(tag: DW_TAG_imported_declaration, scope: !2, entity: !574, file: !568, line: 49)
!574 = !DIDerivedType(tag: DW_TAG_typedef, name: "int32_t", file: !105, line: 26, baseType: !575)
!575 = !DIDerivedType(tag: DW_TAG_typedef, name: "__int32_t", file: !107, line: 41, baseType: !11)
!576 = !DIImportedEntity(tag: DW_TAG_imported_declaration, scope: !2, entity: !104, file: !568, line: 50)
!577 = !DIImportedEntity(tag: DW_TAG_imported_declaration, scope: !2, entity: !578, file: !568, line: 52)
!578 = !DIDerivedType(tag: DW_TAG_typedef, name: "int_fast8_t", file: !579, line: 58, baseType: !567)
!579 = !DIFile(filename: "/usr/include/stdint.h", directory: "")
!580 = !DIImportedEntity(tag: DW_TAG_imported_declaration, scope: !2, entity: !581, file: !568, line: 53)
!581 = !DIDerivedType(tag: DW_TAG_typedef, name: "int_fast16_t", file: !579, line: 60, baseType: !99)
!582 = !DIImportedEntity(tag: DW_TAG_imported_declaration, scope: !2, entity: !583, file: !568, line: 54)
!583 = !DIDerivedType(tag: DW_TAG_typedef, name: "int_fast32_t", file: !579, line: 61, baseType: !99)
!584 = !DIImportedEntity(tag: DW_TAG_imported_declaration, scope: !2, entity: !585, file: !568, line: 55)
!585 = !DIDerivedType(tag: DW_TAG_typedef, name: "int_fast64_t", file: !579, line: 62, baseType: !99)
!586 = !DIImportedEntity(tag: DW_TAG_imported_declaration, scope: !2, entity: !587, file: !568, line: 57)
!587 = !DIDerivedType(tag: DW_TAG_typedef, name: "int_least8_t", file: !579, line: 43, baseType: !588)
!588 = !DIDerivedType(tag: DW_TAG_typedef, name: "__int_least8_t", file: !107, line: 52, baseType: !566)
!589 = !DIImportedEntity(tag: DW_TAG_imported_declaration, scope: !2, entity: !590, file: !568, line: 58)
!590 = !DIDerivedType(tag: DW_TAG_typedef, name: "int_least16_t", file: !579, line: 44, baseType: !591)
!591 = !DIDerivedType(tag: DW_TAG_typedef, name: "__int_least16_t", file: !107, line: 54, baseType: !571)
!592 = !DIImportedEntity(tag: DW_TAG_imported_declaration, scope: !2, entity: !593, file: !568, line: 59)
!593 = !DIDerivedType(tag: DW_TAG_typedef, name: "int_least32_t", file: !579, line: 45, baseType: !594)
!594 = !DIDerivedType(tag: DW_TAG_typedef, name: "__int_least32_t", file: !107, line: 56, baseType: !575)
!595 = !DIImportedEntity(tag: DW_TAG_imported_declaration, scope: !2, entity: !596, file: !568, line: 60)
!596 = !DIDerivedType(tag: DW_TAG_typedef, name: "int_least64_t", file: !579, line: 46, baseType: !597)
!597 = !DIDerivedType(tag: DW_TAG_typedef, name: "__int_least64_t", file: !107, line: 58, baseType: !106)
!598 = !DIImportedEntity(tag: DW_TAG_imported_declaration, scope: !2, entity: !599, file: !568, line: 62)
!599 = !DIDerivedType(tag: DW_TAG_typedef, name: "intmax_t", file: !579, line: 101, baseType: !600)
!600 = !DIDerivedType(tag: DW_TAG_typedef, name: "__intmax_t", file: !107, line: 72, baseType: !99)
!601 = !DIImportedEntity(tag: DW_TAG_imported_declaration, scope: !2, entity: !602, file: !568, line: 63)
!602 = !DIDerivedType(tag: DW_TAG_typedef, name: "intptr_t", file: !579, line: 87, baseType: !99)
!603 = !DIImportedEntity(tag: DW_TAG_imported_declaration, scope: !2, entity: !604, file: !568, line: 65)
!604 = !DIDerivedType(tag: DW_TAG_typedef, name: "uint8_t", file: !605, line: 24, baseType: !606)
!605 = !DIFile(filename: "/usr/include/x86_64-linux-gnu/bits/stdint-uintn.h", directory: "")
!606 = !DIDerivedType(tag: DW_TAG_typedef, name: "__uint8_t", file: !107, line: 38, baseType: !607)
!607 = !DIBasicType(name: "unsigned char", size: 8, encoding: DW_ATE_unsigned_char)
!608 = !DIImportedEntity(tag: DW_TAG_imported_declaration, scope: !2, entity: !609, file: !568, line: 66)
!609 = !DIDerivedType(tag: DW_TAG_typedef, name: "uint16_t", file: !605, line: 25, baseType: !610)
!610 = !DIDerivedType(tag: DW_TAG_typedef, name: "__uint16_t", file: !107, line: 40, baseType: !611)
!611 = !DIBasicType(name: "unsigned short", size: 16, encoding: DW_ATE_unsigned)
!612 = !DIImportedEntity(tag: DW_TAG_imported_declaration, scope: !2, entity: !613, file: !568, line: 67)
!613 = !DIDerivedType(tag: DW_TAG_typedef, name: "uint32_t", file: !605, line: 26, baseType: !614)
!614 = !DIDerivedType(tag: DW_TAG_typedef, name: "__uint32_t", file: !107, line: 42, baseType: !35)
!615 = !DIImportedEntity(tag: DW_TAG_imported_declaration, scope: !2, entity: !616, file: !568, line: 68)
!616 = !DIDerivedType(tag: DW_TAG_typedef, name: "uint64_t", file: !605, line: 27, baseType: !617)
!617 = !DIDerivedType(tag: DW_TAG_typedef, name: "__uint64_t", file: !107, line: 45, baseType: !239)
!618 = !DIImportedEntity(tag: DW_TAG_imported_declaration, scope: !2, entity: !619, file: !568, line: 70)
!619 = !DIDerivedType(tag: DW_TAG_typedef, name: "uint_fast8_t", file: !579, line: 71, baseType: !607)
!620 = !DIImportedEntity(tag: DW_TAG_imported_declaration, scope: !2, entity: !621, file: !568, line: 71)
!621 = !DIDerivedType(tag: DW_TAG_typedef, name: "uint_fast16_t", file: !579, line: 73, baseType: !239)
!622 = !DIImportedEntity(tag: DW_TAG_imported_declaration, scope: !2, entity: !623, file: !568, line: 72)
!623 = !DIDerivedType(tag: DW_TAG_typedef, name: "uint_fast32_t", file: !579, line: 74, baseType: !239)
!624 = !DIImportedEntity(tag: DW_TAG_imported_declaration, scope: !2, entity: !625, file: !568, line: 73)
!625 = !DIDerivedType(tag: DW_TAG_typedef, name: "uint_fast64_t", file: !579, line: 75, baseType: !239)
!626 = !DIImportedEntity(tag: DW_TAG_imported_declaration, scope: !2, entity: !627, file: !568, line: 75)
!627 = !DIDerivedType(tag: DW_TAG_typedef, name: "uint_least8_t", file: !579, line: 49, baseType: !628)
!628 = !DIDerivedType(tag: DW_TAG_typedef, name: "__uint_least8_t", file: !107, line: 53, baseType: !606)
!629 = !DIImportedEntity(tag: DW_TAG_imported_declaration, scope: !2, entity: !630, file: !568, line: 76)
!630 = !DIDerivedType(tag: DW_TAG_typedef, name: "uint_least16_t", file: !579, line: 50, baseType: !631)
!631 = !DIDerivedType(tag: DW_TAG_typedef, name: "__uint_least16_t", file: !107, line: 55, baseType: !610)
!632 = !DIImportedEntity(tag: DW_TAG_imported_declaration, scope: !2, entity: !633, file: !568, line: 77)
!633 = !DIDerivedType(tag: DW_TAG_typedef, name: "uint_least32_t", file: !579, line: 51, baseType: !634)
!634 = !DIDerivedType(tag: DW_TAG_typedef, name: "__uint_least32_t", file: !107, line: 57, baseType: !614)
!635 = !DIImportedEntity(tag: DW_TAG_imported_declaration, scope: !2, entity: !636, file: !568, line: 78)
!636 = !DIDerivedType(tag: DW_TAG_typedef, name: "uint_least64_t", file: !579, line: 52, baseType: !637)
!637 = !DIDerivedType(tag: DW_TAG_typedef, name: "__uint_least64_t", file: !107, line: 59, baseType: !617)
!638 = !DIImportedEntity(tag: DW_TAG_imported_declaration, scope: !2, entity: !639, file: !568, line: 80)
!639 = !DIDerivedType(tag: DW_TAG_typedef, name: "uintmax_t", file: !579, line: 102, baseType: !640)
!640 = !DIDerivedType(tag: DW_TAG_typedef, name: "__uintmax_t", file: !107, line: 73, baseType: !239)
!641 = !DIImportedEntity(tag: DW_TAG_imported_declaration, scope: !2, entity: !642, file: !568, line: 81)
!642 = !DIDerivedType(tag: DW_TAG_typedef, name: "uintptr_t", file: !579, line: 90, baseType: !239)
!643 = !DIImportedEntity(tag: DW_TAG_imported_declaration, scope: !2, entity: !644, file: !645, line: 58)
!644 = distinct !DICompositeType(tag: DW_TAG_class_type, name: "exception_ptr", scope: !646, file: !645, line: 80, size: 64, flags: DIFlagTypePassByReference | DIFlagNonTrivial, elements: !647, identifier: "_ZTSNSt15__exception_ptr13exception_ptrE")
!645 = !DIFile(filename: "/usr/lib/gcc/x86_64-linux-gnu/10/../../../../include/c++/10/bits/exception_ptr.h", directory: "")
!646 = !DINamespace(name: "__exception_ptr", scope: !2)
!647 = !{!648, !649, !653, !656, !657, !662, !663, !667, !673, !677, !681, !684, !685, !688, !691}
!648 = !DIDerivedType(tag: DW_TAG_member, name: "_M_exception_object", scope: !644, file: !645, line: 82, baseType: !391, size: 64)
!649 = !DISubprogram(name: "exception_ptr", scope: !644, file: !645, line: 84, type: !650, scopeLine: 84, flags: DIFlagExplicit | DIFlagPrototyped, spFlags: 0)
!650 = !DISubroutineType(types: !651)
!651 = !{null, !652, !391}
!652 = !DIDerivedType(tag: DW_TAG_pointer_type, baseType: !644, size: 64, flags: DIFlagArtificial | DIFlagObjectPointer)
!653 = !DISubprogram(name: "_M_addref", linkageName: "_ZNSt15__exception_ptr13exception_ptr9_M_addrefEv", scope: !644, file: !645, line: 86, type: !654, scopeLine: 86, flags: DIFlagPrototyped, spFlags: 0)
!654 = !DISubroutineType(types: !655)
!655 = !{null, !652}
!656 = !DISubprogram(name: "_M_release", linkageName: "_ZNSt15__exception_ptr13exception_ptr10_M_releaseEv", scope: !644, file: !645, line: 87, type: !654, scopeLine: 87, flags: DIFlagPrototyped, spFlags: 0)
!657 = !DISubprogram(name: "_M_get", linkageName: "_ZNKSt15__exception_ptr13exception_ptr6_M_getEv", scope: !644, file: !645, line: 89, type: !658, scopeLine: 89, flags: DIFlagPrototyped, spFlags: 0)
!658 = !DISubroutineType(types: !659)
!659 = !{!391, !660}
!660 = !DIDerivedType(tag: DW_TAG_pointer_type, baseType: !661, size: 64, flags: DIFlagArtificial | DIFlagObjectPointer)
!661 = !DIDerivedType(tag: DW_TAG_const_type, baseType: !644)
!662 = !DISubprogram(name: "exception_ptr", scope: !644, file: !645, line: 97, type: !654, scopeLine: 97, flags: DIFlagPublic | DIFlagPrototyped, spFlags: 0)
!663 = !DISubprogram(name: "exception_ptr", scope: !644, file: !645, line: 99, type: !664, scopeLine: 99, flags: DIFlagPublic | DIFlagPrototyped, spFlags: 0)
!664 = !DISubroutineType(types: !665)
!665 = !{null, !652, !666}
!666 = !DIDerivedType(tag: DW_TAG_reference_type, baseType: !661, size: 64)
!667 = !DISubprogram(name: "exception_ptr", scope: !644, file: !645, line: 102, type: !668, scopeLine: 102, flags: DIFlagPublic | DIFlagPrototyped, spFlags: 0)
!668 = !DISubroutineType(types: !669)
!669 = !{null, !652, !670}
!670 = !DIDerivedType(tag: DW_TAG_typedef, name: "nullptr_t", scope: !2, file: !671, line: 264, baseType: !672)
!671 = !DIFile(filename: "/usr/lib/gcc/x86_64-linux-gnu/10/../../../../include/x86_64-linux-gnu/c++/10/bits/c++config.h", directory: "")
!672 = !DIBasicType(tag: DW_TAG_unspecified_type, name: "decltype(nullptr)")
!673 = !DISubprogram(name: "exception_ptr", scope: !644, file: !645, line: 106, type: !674, scopeLine: 106, flags: DIFlagPublic | DIFlagPrototyped, spFlags: 0)
!674 = !DISubroutineType(types: !675)
!675 = !{null, !652, !676}
!676 = !DIDerivedType(tag: DW_TAG_rvalue_reference_type, baseType: !644, size: 64)
!677 = !DISubprogram(name: "operator=", linkageName: "_ZNSt15__exception_ptr13exception_ptraSERKS0_", scope: !644, file: !645, line: 119, type: !678, scopeLine: 119, flags: DIFlagPublic | DIFlagPrototyped, spFlags: 0)
!678 = !DISubroutineType(types: !679)
!679 = !{!680, !652, !666}
!680 = !DIDerivedType(tag: DW_TAG_reference_type, baseType: !644, size: 64)
!681 = !DISubprogram(name: "operator=", linkageName: "_ZNSt15__exception_ptr13exception_ptraSEOS0_", scope: !644, file: !645, line: 123, type: !682, scopeLine: 123, flags: DIFlagPublic | DIFlagPrototyped, spFlags: 0)
!682 = !DISubroutineType(types: !683)
!683 = !{!680, !652, !676}
!684 = !DISubprogram(name: "~exception_ptr", scope: !644, file: !645, line: 130, type: !654, scopeLine: 130, flags: DIFlagPublic | DIFlagPrototyped, spFlags: 0)
!685 = !DISubprogram(name: "swap", linkageName: "_ZNSt15__exception_ptr13exception_ptr4swapERS0_", scope: !644, file: !645, line: 133, type: !686, scopeLine: 133, flags: DIFlagPublic | DIFlagPrototyped, spFlags: 0)
!686 = !DISubroutineType(types: !687)
!687 = !{null, !652, !680}
!688 = !DISubprogram(name: "operator bool", linkageName: "_ZNKSt15__exception_ptr13exception_ptrcvbEv", scope: !644, file: !645, line: 145, type: !689, scopeLine: 145, flags: DIFlagPublic | DIFlagExplicit | DIFlagPrototyped, spFlags: 0)
!689 = !DISubroutineType(types: !690)
!690 = !{!13, !660}
!691 = !DISubprogram(name: "__cxa_exception_type", linkageName: "_ZNKSt15__exception_ptr13exception_ptr20__cxa_exception_typeEv", scope: !644, file: !645, line: 154, type: !692, scopeLine: 154, flags: DIFlagPublic | DIFlagPrototyped, spFlags: 0)
!692 = !DISubroutineType(types: !693)
!693 = !{!694, !660}
!694 = !DIDerivedType(tag: DW_TAG_pointer_type, baseType: !695, size: 64)
!695 = !DIDerivedType(tag: DW_TAG_const_type, baseType: !696)
!696 = !DICompositeType(tag: DW_TAG_class_type, name: "type_info", scope: !2, file: !697, line: 88, flags: DIFlagFwdDecl)
!697 = !DIFile(filename: "/usr/lib/gcc/x86_64-linux-gnu/10/../../../../include/c++/10/typeinfo", directory: "")
!698 = !DIImportedEntity(tag: DW_TAG_imported_declaration, scope: !646, entity: !699, file: !645, line: 74)
!699 = !DISubprogram(name: "rethrow_exception", linkageName: "_ZSt17rethrow_exceptionNSt15__exception_ptr13exception_ptrE", scope: !2, file: !645, line: 70, type: !700, flags: DIFlagPrototyped | DIFlagNoReturn, spFlags: 0)
!700 = !DISubroutineType(types: !701)
!701 = !{null, !644}
!702 = !DIImportedEntity(tag: DW_TAG_imported_declaration, scope: !2, entity: !703, file: !705, line: 53)
!703 = !DICompositeType(tag: DW_TAG_structure_type, name: "lconv", file: !704, line: 51, flags: DIFlagFwdDecl, identifier: "_ZTS5lconv")
!704 = !DIFile(filename: "/usr/include/locale.h", directory: "")
!705 = !DIFile(filename: "/usr/lib/gcc/x86_64-linux-gnu/10/../../../../include/c++/10/clocale", directory: "")
!706 = !DIImportedEntity(tag: DW_TAG_imported_declaration, scope: !2, entity: !707, file: !705, line: 54)
!707 = !DISubprogram(name: "setlocale", scope: !704, file: !704, line: 122, type: !708, flags: DIFlagPrototyped, spFlags: 0)
!708 = !DISubroutineType(types: !709)
!709 = !{!206, !11, !229}
!710 = !DIImportedEntity(tag: DW_TAG_imported_declaration, scope: !2, entity: !711, file: !705, line: 55)
!711 = !DISubprogram(name: "localeconv", scope: !704, file: !704, line: 125, type: !712, flags: DIFlagPrototyped, spFlags: 0)
!712 = !DISubroutineType(types: !713)
!713 = !{!714}
!714 = !DIDerivedType(tag: DW_TAG_pointer_type, baseType: !703, size: 64)
!715 = !DIImportedEntity(tag: DW_TAG_imported_declaration, scope: !2, entity: !716, file: !720, line: 64)
!716 = !DISubprogram(name: "isalnum", scope: !717, file: !717, line: 108, type: !718, flags: DIFlagPrototyped, spFlags: 0)
!717 = !DIFile(filename: "/usr/include/ctype.h", directory: "")
!718 = !DISubroutineType(types: !719)
!719 = !{!11, !11}
!720 = !DIFile(filename: "/usr/lib/gcc/x86_64-linux-gnu/10/../../../../include/c++/10/cctype", directory: "")
!721 = !DIImportedEntity(tag: DW_TAG_imported_declaration, scope: !2, entity: !722, file: !720, line: 65)
!722 = !DISubprogram(name: "isalpha", scope: !717, file: !717, line: 109, type: !718, flags: DIFlagPrototyped, spFlags: 0)
!723 = !DIImportedEntity(tag: DW_TAG_imported_declaration, scope: !2, entity: !724, file: !720, line: 66)
!724 = !DISubprogram(name: "iscntrl", scope: !717, file: !717, line: 110, type: !718, flags: DIFlagPrototyped, spFlags: 0)
!725 = !DIImportedEntity(tag: DW_TAG_imported_declaration, scope: !2, entity: !726, file: !720, line: 67)
!726 = !DISubprogram(name: "isdigit", scope: !717, file: !717, line: 111, type: !718, flags: DIFlagPrototyped, spFlags: 0)
!727 = !DIImportedEntity(tag: DW_TAG_imported_declaration, scope: !2, entity: !728, file: !720, line: 68)
!728 = !DISubprogram(name: "isgraph", scope: !717, file: !717, line: 113, type: !718, flags: DIFlagPrototyped, spFlags: 0)
!729 = !DIImportedEntity(tag: DW_TAG_imported_declaration, scope: !2, entity: !730, file: !720, line: 69)
!730 = !DISubprogram(name: "islower", scope: !717, file: !717, line: 112, type: !718, flags: DIFlagPrototyped, spFlags: 0)
!731 = !DIImportedEntity(tag: DW_TAG_imported_declaration, scope: !2, entity: !732, file: !720, line: 70)
!732 = !DISubprogram(name: "isprint", scope: !717, file: !717, line: 114, type: !718, flags: DIFlagPrototyped, spFlags: 0)
!733 = !DIImportedEntity(tag: DW_TAG_imported_declaration, scope: !2, entity: !734, file: !720, line: 71)
!734 = !DISubprogram(name: "ispunct", scope: !717, file: !717, line: 115, type: !718, flags: DIFlagPrototyped, spFlags: 0)
!735 = !DIImportedEntity(tag: DW_TAG_imported_declaration, scope: !2, entity: !736, file: !720, line: 72)
!736 = !DISubprogram(name: "isspace", scope: !717, file: !717, line: 116, type: !718, flags: DIFlagPrototyped, spFlags: 0)
!737 = !DIImportedEntity(tag: DW_TAG_imported_declaration, scope: !2, entity: !738, file: !720, line: 73)
!738 = !DISubprogram(name: "isupper", scope: !717, file: !717, line: 117, type: !718, flags: DIFlagPrototyped, spFlags: 0)
!739 = !DIImportedEntity(tag: DW_TAG_imported_declaration, scope: !2, entity: !740, file: !720, line: 74)
!740 = !DISubprogram(name: "isxdigit", scope: !717, file: !717, line: 118, type: !718, flags: DIFlagPrototyped, spFlags: 0)
!741 = !DIImportedEntity(tag: DW_TAG_imported_declaration, scope: !2, entity: !742, file: !720, line: 75)
!742 = !DISubprogram(name: "tolower", scope: !717, file: !717, line: 122, type: !718, flags: DIFlagPrototyped, spFlags: 0)
!743 = !DIImportedEntity(tag: DW_TAG_imported_declaration, scope: !2, entity: !744, file: !720, line: 76)
!744 = !DISubprogram(name: "toupper", scope: !717, file: !717, line: 125, type: !718, flags: DIFlagPrototyped, spFlags: 0)
!745 = !DIImportedEntity(tag: DW_TAG_imported_declaration, scope: !2, entity: !746, file: !720, line: 87)
!746 = !DISubprogram(name: "isblank", scope: !717, file: !717, line: 130, type: !718, flags: DIFlagPrototyped, spFlags: 0)
!747 = !DIImportedEntity(tag: DW_TAG_imported_declaration, scope: !2, entity: !748, file: !750, line: 52)
!748 = !DISubprogram(name: "abs", scope: !749, file: !749, line: 840, type: !718, flags: DIFlagPrototyped, spFlags: 0)
!749 = !DIFile(filename: "/usr/include/stdlib.h", directory: "")
!750 = !DIFile(filename: "/usr/lib/gcc/x86_64-linux-gnu/10/../../../../include/c++/10/bits/std_abs.h", directory: "")
!751 = !DIImportedEntity(tag: DW_TAG_imported_declaration, scope: !2, entity: !752, file: !754, line: 127)
!752 = !DIDerivedType(tag: DW_TAG_typedef, name: "div_t", file: !749, line: 62, baseType: !753)
!753 = !DICompositeType(tag: DW_TAG_structure_type, file: !749, line: 58, flags: DIFlagFwdDecl, identifier: "_ZTS5div_t")
!754 = !DIFile(filename: "/usr/lib/gcc/x86_64-linux-gnu/10/../../../../include/c++/10/cstdlib", directory: "")
!755 = !DIImportedEntity(tag: DW_TAG_imported_declaration, scope: !2, entity: !756, file: !754, line: 128)
!756 = !DIDerivedType(tag: DW_TAG_typedef, name: "ldiv_t", file: !749, line: 70, baseType: !757)
!757 = distinct !DICompositeType(tag: DW_TAG_structure_type, file: !749, line: 66, size: 128, flags: DIFlagTypePassByValue, elements: !758, identifier: "_ZTS6ldiv_t")
!758 = !{!759, !760}
!759 = !DIDerivedType(tag: DW_TAG_member, name: "quot", scope: !757, file: !749, line: 68, baseType: !99, size: 64)
!760 = !DIDerivedType(tag: DW_TAG_member, name: "rem", scope: !757, file: !749, line: 69, baseType: !99, size: 64, offset: 64)
!761 = !DIImportedEntity(tag: DW_TAG_imported_declaration, scope: !2, entity: !762, file: !754, line: 130)
!762 = !DISubprogram(name: "abort", scope: !749, file: !749, line: 591, type: !122, flags: DIFlagPrototyped | DIFlagNoReturn, spFlags: 0)
!763 = !DIImportedEntity(tag: DW_TAG_imported_declaration, scope: !2, entity: !764, file: !754, line: 134)
!764 = !DISubprogram(name: "atexit", scope: !749, file: !749, line: 595, type: !765, flags: DIFlagPrototyped, spFlags: 0)
!765 = !DISubroutineType(types: !766)
!766 = !{!11, !248}
!767 = !DIImportedEntity(tag: DW_TAG_imported_declaration, scope: !2, entity: !768, file: !754, line: 137)
!768 = !DISubprogram(name: "at_quick_exit", scope: !749, file: !749, line: 600, type: !765, flags: DIFlagPrototyped, spFlags: 0)
!769 = !DIImportedEntity(tag: DW_TAG_imported_declaration, scope: !2, entity: !770, file: !754, line: 140)
!770 = !DISubprogram(name: "atof", scope: !749, file: !749, line: 101, type: !771, flags: DIFlagPrototyped, spFlags: 0)
!771 = !DISubroutineType(types: !772)
!772 = !{!111, !229}
!773 = !DIImportedEntity(tag: DW_TAG_imported_declaration, scope: !2, entity: !774, file: !754, line: 141)
!774 = !DISubprogram(name: "atoi", scope: !749, file: !749, line: 104, type: !775, flags: DIFlagPrototyped, spFlags: 0)
!775 = !DISubroutineType(types: !776)
!776 = !{!11, !229}
!777 = !DIImportedEntity(tag: DW_TAG_imported_declaration, scope: !2, entity: !778, file: !754, line: 142)
!778 = !DISubprogram(name: "atol", scope: !749, file: !749, line: 107, type: !779, flags: DIFlagPrototyped, spFlags: 0)
!779 = !DISubroutineType(types: !780)
!780 = !{!99, !229}
!781 = !DIImportedEntity(tag: DW_TAG_imported_declaration, scope: !2, entity: !782, file: !754, line: 143)
!782 = !DISubprogram(name: "bsearch", scope: !749, file: !749, line: 820, type: !783, flags: DIFlagPrototyped, spFlags: 0)
!783 = !DISubroutineType(types: !784)
!784 = !{!391, !785, !785, !342, !342, !787}
!785 = !DIDerivedType(tag: DW_TAG_pointer_type, baseType: !786, size: 64)
!786 = !DIDerivedType(tag: DW_TAG_const_type, baseType: null)
!787 = !DIDerivedType(tag: DW_TAG_typedef, name: "__compar_fn_t", file: !749, line: 808, baseType: !788)
!788 = !DIDerivedType(tag: DW_TAG_pointer_type, baseType: !789, size: 64)
!789 = !DISubroutineType(types: !790)
!790 = !{!11, !785, !785}
!791 = !DIImportedEntity(tag: DW_TAG_imported_declaration, scope: !2, entity: !792, file: !754, line: 144)
!792 = !DISubprogram(name: "calloc", scope: !749, file: !749, line: 542, type: !793, flags: DIFlagPrototyped, spFlags: 0)
!793 = !DISubroutineType(types: !794)
!794 = !{!391, !342, !342}
!795 = !DIImportedEntity(tag: DW_TAG_imported_declaration, scope: !2, entity: !796, file: !754, line: 145)
!796 = !DISubprogram(name: "div", scope: !749, file: !749, line: 852, type: !797, flags: DIFlagPrototyped, spFlags: 0)
!797 = !DISubroutineType(types: !798)
!798 = !{!752, !11, !11}
!799 = !DIImportedEntity(tag: DW_TAG_imported_declaration, scope: !2, entity: !800, file: !754, line: 146)
!800 = !DISubprogram(name: "exit", scope: !749, file: !749, line: 617, type: !224, flags: DIFlagPrototyped | DIFlagNoReturn, spFlags: 0)
!801 = !DIImportedEntity(tag: DW_TAG_imported_declaration, scope: !2, entity: !802, file: !754, line: 147)
!802 = !DISubprogram(name: "free", scope: !749, file: !749, line: 565, type: !803, flags: DIFlagPrototyped, spFlags: 0)
!803 = !DISubroutineType(types: !804)
!804 = !{null, !391}
!805 = !DIImportedEntity(tag: DW_TAG_imported_declaration, scope: !2, entity: !806, file: !754, line: 148)
!806 = !DISubprogram(name: "getenv", scope: !749, file: !749, line: 634, type: !807, flags: DIFlagPrototyped, spFlags: 0)
!807 = !DISubroutineType(types: !808)
!808 = !{!206, !229}
!809 = !DIImportedEntity(tag: DW_TAG_imported_declaration, scope: !2, entity: !810, file: !754, line: 149)
!810 = !DISubprogram(name: "labs", scope: !749, file: !749, line: 841, type: !811, flags: DIFlagPrototyped, spFlags: 0)
!811 = !DISubroutineType(types: !812)
!812 = !{!99, !99}
!813 = !DIImportedEntity(tag: DW_TAG_imported_declaration, scope: !2, entity: !814, file: !754, line: 150)
!814 = !DISubprogram(name: "ldiv", scope: !749, file: !749, line: 854, type: !815, flags: DIFlagPrototyped, spFlags: 0)
!815 = !DISubroutineType(types: !816)
!816 = !{!756, !99, !99}
!817 = !DIImportedEntity(tag: DW_TAG_imported_declaration, scope: !2, entity: !818, file: !754, line: 151)
!818 = !DISubprogram(name: "malloc", scope: !749, file: !749, line: 539, type: !819, flags: DIFlagPrototyped, spFlags: 0)
!819 = !DISubroutineType(types: !820)
!820 = !{!391, !342}
!821 = !DIImportedEntity(tag: DW_TAG_imported_declaration, scope: !2, entity: !822, file: !754, line: 153)
!822 = !DISubprogram(name: "mblen", scope: !749, file: !749, line: 922, type: !823, flags: DIFlagPrototyped, spFlags: 0)
!823 = !DISubroutineType(types: !824)
!824 = !{!11, !229, !342}
!825 = !DIImportedEntity(tag: DW_TAG_imported_declaration, scope: !2, entity: !826, file: !754, line: 154)
!826 = !DISubprogram(name: "mbstowcs", scope: !749, file: !749, line: 933, type: !827, flags: DIFlagPrototyped, spFlags: 0)
!827 = !DISubroutineType(types: !828)
!828 = !{!342, !309, !344, !342}
!829 = !DIImportedEntity(tag: DW_TAG_imported_declaration, scope: !2, entity: !830, file: !754, line: 155)
!830 = !DISubprogram(name: "mbtowc", scope: !749, file: !749, line: 925, type: !831, flags: DIFlagPrototyped, spFlags: 0)
!831 = !DISubroutineType(types: !832)
!832 = !{!11, !309, !344, !342}
!833 = !DIImportedEntity(tag: DW_TAG_imported_declaration, scope: !2, entity: !834, file: !754, line: 157)
!834 = !DISubprogram(name: "qsort", scope: !749, file: !749, line: 830, type: !835, flags: DIFlagPrototyped, spFlags: 0)
!835 = !DISubroutineType(types: !836)
!836 = !{null, !391, !342, !342, !787}
!837 = !DIImportedEntity(tag: DW_TAG_imported_declaration, scope: !2, entity: !838, file: !754, line: 160)
!838 = !DISubprogram(name: "quick_exit", scope: !749, file: !749, line: 623, type: !224, flags: DIFlagPrototyped | DIFlagNoReturn, spFlags: 0)
!839 = !DIImportedEntity(tag: DW_TAG_imported_declaration, scope: !2, entity: !840, file: !754, line: 163)
!840 = !DISubprogram(name: "rand", scope: !749, file: !749, line: 453, type: !221, flags: DIFlagPrototyped, spFlags: 0)
!841 = !DIImportedEntity(tag: DW_TAG_imported_declaration, scope: !2, entity: !842, file: !754, line: 164)
!842 = !DISubprogram(name: "realloc", scope: !749, file: !749, line: 550, type: !843, flags: DIFlagPrototyped, spFlags: 0)
!843 = !DISubroutineType(types: !844)
!844 = !{!391, !391, !342}
!845 = !DIImportedEntity(tag: DW_TAG_imported_declaration, scope: !2, entity: !846, file: !754, line: 165)
!846 = !DISubprogram(name: "srand", scope: !749, file: !749, line: 455, type: !847, flags: DIFlagPrototyped, spFlags: 0)
!847 = !DISubroutineType(types: !848)
!848 = !{null, !35}
!849 = !DIImportedEntity(tag: DW_TAG_imported_declaration, scope: !2, entity: !850, file: !754, line: 166)
!850 = !DISubprogram(name: "strtod", scope: !749, file: !749, line: 117, type: !851, flags: DIFlagPrototyped, spFlags: 0)
!851 = !DISubroutineType(types: !852)
!852 = !{!111, !344, !853}
!853 = !DIDerivedType(tag: DW_TAG_restrict_type, baseType: !854)
!854 = !DIDerivedType(tag: DW_TAG_pointer_type, baseType: !206, size: 64)
!855 = !DIImportedEntity(tag: DW_TAG_imported_declaration, scope: !2, entity: !856, file: !754, line: 167)
!856 = !DISubprogram(name: "strtol", scope: !749, file: !749, line: 176, type: !857, flags: DIFlagPrototyped, spFlags: 0)
!857 = !DISubroutineType(types: !858)
!858 = !{!99, !344, !853, !11}
!859 = !DIImportedEntity(tag: DW_TAG_imported_declaration, scope: !2, entity: !860, file: !754, line: 168)
!860 = !DISubprogram(name: "strtoul", scope: !749, file: !749, line: 180, type: !861, flags: DIFlagPrototyped, spFlags: 0)
!861 = !DISubroutineType(types: !862)
!862 = !{!239, !344, !853, !11}
!863 = !DIImportedEntity(tag: DW_TAG_imported_declaration, scope: !2, entity: !864, file: !754, line: 169)
!864 = !DISubprogram(name: "system", scope: !749, file: !749, line: 784, type: !775, flags: DIFlagPrototyped, spFlags: 0)
!865 = !DIImportedEntity(tag: DW_TAG_imported_declaration, scope: !2, entity: !866, file: !754, line: 171)
!866 = !DISubprogram(name: "wcstombs", scope: !749, file: !749, line: 936, type: !867, flags: DIFlagPrototyped, spFlags: 0)
!867 = !DISubroutineType(types: !868)
!868 = !{!342, !413, !319, !342}
!869 = !DIImportedEntity(tag: DW_TAG_imported_declaration, scope: !2, entity: !870, file: !754, line: 172)
!870 = !DISubprogram(name: "wctomb", scope: !749, file: !749, line: 929, type: !871, flags: DIFlagPrototyped, spFlags: 0)
!871 = !DISubroutineType(types: !872)
!872 = !{!11, !206, !308}
!873 = !DIImportedEntity(tag: DW_TAG_imported_declaration, scope: !539, entity: !874, file: !754, line: 200)
!874 = !DIDerivedType(tag: DW_TAG_typedef, name: "lldiv_t", file: !749, line: 80, baseType: !875)
!875 = distinct !DICompositeType(tag: DW_TAG_structure_type, file: !749, line: 76, size: 128, flags: DIFlagTypePassByValue, elements: !876, identifier: "_ZTS7lldiv_t")
!876 = !{!877, !878}
!877 = !DIDerivedType(tag: DW_TAG_member, name: "quot", scope: !875, file: !749, line: 78, baseType: !548, size: 64)
!878 = !DIDerivedType(tag: DW_TAG_member, name: "rem", scope: !875, file: !749, line: 79, baseType: !548, size: 64, offset: 64)
!879 = !DIImportedEntity(tag: DW_TAG_imported_declaration, scope: !539, entity: !880, file: !754, line: 206)
!880 = !DISubprogram(name: "_Exit", scope: !749, file: !749, line: 629, type: !224, flags: DIFlagPrototyped | DIFlagNoReturn, spFlags: 0)
!881 = !DIImportedEntity(tag: DW_TAG_imported_declaration, scope: !539, entity: !882, file: !754, line: 210)
!882 = !DISubprogram(name: "llabs", scope: !749, file: !749, line: 844, type: !883, flags: DIFlagPrototyped, spFlags: 0)
!883 = !DISubroutineType(types: !884)
!884 = !{!548, !548}
!885 = !DIImportedEntity(tag: DW_TAG_imported_declaration, scope: !539, entity: !886, file: !754, line: 216)
!886 = !DISubprogram(name: "lldiv", scope: !749, file: !749, line: 858, type: !887, flags: DIFlagPrototyped, spFlags: 0)
!887 = !DISubroutineType(types: !888)
!888 = !{!874, !548, !548}
!889 = !DIImportedEntity(tag: DW_TAG_imported_declaration, scope: !539, entity: !890, file: !754, line: 227)
!890 = !DISubprogram(name: "atoll", scope: !749, file: !749, line: 112, type: !891, flags: DIFlagPrototyped, spFlags: 0)
!891 = !DISubroutineType(types: !892)
!892 = !{!548, !229}
!893 = !DIImportedEntity(tag: DW_TAG_imported_declaration, scope: !539, entity: !894, file: !754, line: 228)
!894 = !DISubprogram(name: "strtoll", scope: !749, file: !749, line: 200, type: !895, flags: DIFlagPrototyped, spFlags: 0)
!895 = !DISubroutineType(types: !896)
!896 = !{!548, !344, !853, !11}
!897 = !DIImportedEntity(tag: DW_TAG_imported_declaration, scope: !539, entity: !898, file: !754, line: 229)
!898 = !DISubprogram(name: "strtoull", scope: !749, file: !749, line: 205, type: !899, flags: DIFlagPrototyped, spFlags: 0)
!899 = !DISubroutineType(types: !900)
!900 = !{!553, !344, !853, !11}
!901 = !DIImportedEntity(tag: DW_TAG_imported_declaration, scope: !539, entity: !902, file: !754, line: 231)
!902 = !DISubprogram(name: "strtof", scope: !749, file: !749, line: 123, type: !903, flags: DIFlagPrototyped, spFlags: 0)
!903 = !DISubroutineType(types: !904)
!904 = !{!483, !344, !853}
!905 = !DIImportedEntity(tag: DW_TAG_imported_declaration, scope: !539, entity: !906, file: !754, line: 232)
!906 = !DISubprogram(name: "strtold", scope: !749, file: !749, line: 126, type: !907, flags: DIFlagPrototyped, spFlags: 0)
!907 = !DISubroutineType(types: !908)
!908 = !{!543, !344, !853}
!909 = !DIImportedEntity(tag: DW_TAG_imported_declaration, scope: !2, entity: !874, file: !754, line: 240)
!910 = !DIImportedEntity(tag: DW_TAG_imported_declaration, scope: !2, entity: !880, file: !754, line: 242)
!911 = !DIImportedEntity(tag: DW_TAG_imported_declaration, scope: !2, entity: !882, file: !754, line: 244)
!912 = !DIImportedEntity(tag: DW_TAG_imported_declaration, scope: !2, entity: !913, file: !754, line: 245)
!913 = !DISubprogram(name: "div", linkageName: "_ZN9__gnu_cxx3divExx", scope: !539, file: !754, line: 213, type: !887, flags: DIFlagPrototyped, spFlags: 0)
!914 = !DIImportedEntity(tag: DW_TAG_imported_declaration, scope: !2, entity: !886, file: !754, line: 246)
!915 = !DIImportedEntity(tag: DW_TAG_imported_declaration, scope: !2, entity: !890, file: !754, line: 248)
!916 = !DIImportedEntity(tag: DW_TAG_imported_declaration, scope: !2, entity: !902, file: !754, line: 249)
!917 = !DIImportedEntity(tag: DW_TAG_imported_declaration, scope: !2, entity: !894, file: !754, line: 250)
!918 = !DIImportedEntity(tag: DW_TAG_imported_declaration, scope: !2, entity: !898, file: !754, line: 251)
!919 = !DIImportedEntity(tag: DW_TAG_imported_declaration, scope: !2, entity: !906, file: !754, line: 252)
!920 = !DIImportedEntity(tag: DW_TAG_imported_declaration, scope: !2, entity: !921, file: !923, line: 98)
!921 = !DIDerivedType(tag: DW_TAG_typedef, name: "FILE", file: !922, line: 7, baseType: !302)
!922 = !DIFile(filename: "/usr/include/x86_64-linux-gnu/bits/types/FILE.h", directory: "")
!923 = !DIFile(filename: "/usr/lib/gcc/x86_64-linux-gnu/10/../../../../include/c++/10/cstdio", directory: "")
!924 = !DIImportedEntity(tag: DW_TAG_imported_declaration, scope: !2, entity: !925, file: !923, line: 99)
!925 = !DIDerivedType(tag: DW_TAG_typedef, name: "fpos_t", file: !926, line: 84, baseType: !927)
!926 = !DIFile(filename: "/usr/include/stdio.h", directory: "")
!927 = !DIDerivedType(tag: DW_TAG_typedef, name: "__fpos_t", file: !928, line: 14, baseType: !929)
!928 = !DIFile(filename: "/usr/include/x86_64-linux-gnu/bits/types/__fpos_t.h", directory: "")
!929 = !DICompositeType(tag: DW_TAG_structure_type, name: "_G_fpos_t", file: !928, line: 10, flags: DIFlagFwdDecl, identifier: "_ZTS9_G_fpos_t")
!930 = !DIImportedEntity(tag: DW_TAG_imported_declaration, scope: !2, entity: !931, file: !923, line: 101)
!931 = !DISubprogram(name: "clearerr", scope: !926, file: !926, line: 757, type: !932, flags: DIFlagPrototyped, spFlags: 0)
!932 = !DISubroutineType(types: !933)
!933 = !{null, !934}
!934 = !DIDerivedType(tag: DW_TAG_pointer_type, baseType: !921, size: 64)
!935 = !DIImportedEntity(tag: DW_TAG_imported_declaration, scope: !2, entity: !936, file: !923, line: 102)
!936 = !DISubprogram(name: "fclose", scope: !926, file: !926, line: 213, type: !937, flags: DIFlagPrototyped, spFlags: 0)
!937 = !DISubroutineType(types: !938)
!938 = !{!11, !934}
!939 = !DIImportedEntity(tag: DW_TAG_imported_declaration, scope: !2, entity: !940, file: !923, line: 103)
!940 = !DISubprogram(name: "feof", scope: !926, file: !926, line: 759, type: !937, flags: DIFlagPrototyped, spFlags: 0)
!941 = !DIImportedEntity(tag: DW_TAG_imported_declaration, scope: !2, entity: !942, file: !923, line: 104)
!942 = !DISubprogram(name: "ferror", scope: !926, file: !926, line: 761, type: !937, flags: DIFlagPrototyped, spFlags: 0)
!943 = !DIImportedEntity(tag: DW_TAG_imported_declaration, scope: !2, entity: !944, file: !923, line: 105)
!944 = !DISubprogram(name: "fflush", scope: !926, file: !926, line: 218, type: !937, flags: DIFlagPrototyped, spFlags: 0)
!945 = !DIImportedEntity(tag: DW_TAG_imported_declaration, scope: !2, entity: !946, file: !923, line: 106)
!946 = !DISubprogram(name: "fgetc", scope: !926, file: !926, line: 485, type: !937, flags: DIFlagPrototyped, spFlags: 0)
!947 = !DIImportedEntity(tag: DW_TAG_imported_declaration, scope: !2, entity: !948, file: !923, line: 107)
!948 = !DISubprogram(name: "fgetpos", scope: !926, file: !926, line: 731, type: !949, flags: DIFlagPrototyped, spFlags: 0)
!949 = !DISubroutineType(types: !950)
!950 = !{!11, !951, !952}
!951 = !DIDerivedType(tag: DW_TAG_restrict_type, baseType: !934)
!952 = !DIDerivedType(tag: DW_TAG_restrict_type, baseType: !953)
!953 = !DIDerivedType(tag: DW_TAG_pointer_type, baseType: !925, size: 64)
!954 = !DIImportedEntity(tag: DW_TAG_imported_declaration, scope: !2, entity: !955, file: !923, line: 108)
!955 = !DISubprogram(name: "fgets", scope: !926, file: !926, line: 564, type: !956, flags: DIFlagPrototyped, spFlags: 0)
!956 = !DISubroutineType(types: !957)
!957 = !{!206, !413, !11, !951}
!958 = !DIImportedEntity(tag: DW_TAG_imported_declaration, scope: !2, entity: !959, file: !923, line: 109)
!959 = !DISubprogram(name: "fopen", scope: !926, file: !926, line: 246, type: !960, flags: DIFlagPrototyped, spFlags: 0)
!960 = !DISubroutineType(types: !961)
!961 = !{!934, !344, !344}
!962 = !DIImportedEntity(tag: DW_TAG_imported_declaration, scope: !2, entity: !963, file: !923, line: 110)
!963 = !DISubprogram(name: "fprintf", scope: !926, file: !926, line: 326, type: !964, flags: DIFlagPrototyped, spFlags: 0)
!964 = !DISubroutineType(types: !965)
!965 = !{!11, !951, !344, null}
!966 = !DIImportedEntity(tag: DW_TAG_imported_declaration, scope: !2, entity: !967, file: !923, line: 111)
!967 = !DISubprogram(name: "fputc", scope: !926, file: !926, line: 521, type: !968, flags: DIFlagPrototyped, spFlags: 0)
!968 = !DISubroutineType(types: !969)
!969 = !{!11, !11, !934}
!970 = !DIImportedEntity(tag: DW_TAG_imported_declaration, scope: !2, entity: !971, file: !923, line: 112)
!971 = !DISubprogram(name: "fputs", scope: !926, file: !926, line: 626, type: !972, flags: DIFlagPrototyped, spFlags: 0)
!972 = !DISubroutineType(types: !973)
!973 = !{!11, !344, !951}
!974 = !DIImportedEntity(tag: DW_TAG_imported_declaration, scope: !2, entity: !975, file: !923, line: 113)
!975 = !DISubprogram(name: "fread", scope: !926, file: !926, line: 646, type: !976, flags: DIFlagPrototyped, spFlags: 0)
!976 = !DISubroutineType(types: !977)
!977 = !{!342, !978, !342, !342, !951}
!978 = !DIDerivedType(tag: DW_TAG_restrict_type, baseType: !391)
!979 = !DIImportedEntity(tag: DW_TAG_imported_declaration, scope: !2, entity: !980, file: !923, line: 114)
!980 = !DISubprogram(name: "freopen", scope: !926, file: !926, line: 252, type: !981, flags: DIFlagPrototyped, spFlags: 0)
!981 = !DISubroutineType(types: !982)
!982 = !{!934, !344, !344, !951}
!983 = !DIImportedEntity(tag: DW_TAG_imported_declaration, scope: !2, entity: !984, file: !923, line: 115)
!984 = !DISubprogram(name: "fscanf", linkageName: "__isoc99_fscanf", scope: !926, file: !926, line: 407, type: !964, flags: DIFlagPrototyped, spFlags: 0)
!985 = !DIImportedEntity(tag: DW_TAG_imported_declaration, scope: !2, entity: !986, file: !923, line: 116)
!986 = !DISubprogram(name: "fseek", scope: !926, file: !926, line: 684, type: !987, flags: DIFlagPrototyped, spFlags: 0)
!987 = !DISubroutineType(types: !988)
!988 = !{!11, !934, !99, !11}
!989 = !DIImportedEntity(tag: DW_TAG_imported_declaration, scope: !2, entity: !990, file: !923, line: 117)
!990 = !DISubprogram(name: "fsetpos", scope: !926, file: !926, line: 736, type: !991, flags: DIFlagPrototyped, spFlags: 0)
!991 = !DISubroutineType(types: !992)
!992 = !{!11, !934, !993}
!993 = !DIDerivedType(tag: DW_TAG_pointer_type, baseType: !994, size: 64)
!994 = !DIDerivedType(tag: DW_TAG_const_type, baseType: !925)
!995 = !DIImportedEntity(tag: DW_TAG_imported_declaration, scope: !2, entity: !996, file: !923, line: 118)
!996 = !DISubprogram(name: "ftell", scope: !926, file: !926, line: 689, type: !997, flags: DIFlagPrototyped, spFlags: 0)
!997 = !DISubroutineType(types: !998)
!998 = !{!99, !934}
!999 = !DIImportedEntity(tag: DW_TAG_imported_declaration, scope: !2, entity: !1000, file: !923, line: 119)
!1000 = !DISubprogram(name: "fwrite", scope: !926, file: !926, line: 652, type: !1001, flags: DIFlagPrototyped, spFlags: 0)
!1001 = !DISubroutineType(types: !1002)
!1002 = !{!342, !1003, !342, !342, !951}
!1003 = !DIDerivedType(tag: DW_TAG_restrict_type, baseType: !785)
!1004 = !DIImportedEntity(tag: DW_TAG_imported_declaration, scope: !2, entity: !1005, file: !923, line: 120)
!1005 = !DISubprogram(name: "getc", scope: !926, file: !926, line: 486, type: !937, flags: DIFlagPrototyped, spFlags: 0)
!1006 = !DIImportedEntity(tag: DW_TAG_imported_declaration, scope: !2, entity: !1007, file: !923, line: 121)
!1007 = !DISubprogram(name: "getchar", scope: !926, file: !926, line: 492, type: !221, flags: DIFlagPrototyped, spFlags: 0)
!1008 = !DIImportedEntity(tag: DW_TAG_imported_declaration, scope: !2, entity: !1009, file: !923, line: 126)
!1009 = !DISubprogram(name: "perror", scope: !926, file: !926, line: 775, type: !1010, flags: DIFlagPrototyped, spFlags: 0)
!1010 = !DISubroutineType(types: !1011)
!1011 = !{null, !229}
!1012 = !DIImportedEntity(tag: DW_TAG_imported_declaration, scope: !2, entity: !1013, file: !923, line: 127)
!1013 = !DISubprogram(name: "printf", scope: !926, file: !926, line: 332, type: !1014, flags: DIFlagPrototyped, spFlags: 0)
!1014 = !DISubroutineType(types: !1015)
!1015 = !{!11, !344, null}
!1016 = !DIImportedEntity(tag: DW_TAG_imported_declaration, scope: !2, entity: !1017, file: !923, line: 128)
!1017 = !DISubprogram(name: "putc", scope: !926, file: !926, line: 522, type: !968, flags: DIFlagPrototyped, spFlags: 0)
!1018 = !DIImportedEntity(tag: DW_TAG_imported_declaration, scope: !2, entity: !1019, file: !923, line: 129)
!1019 = !DISubprogram(name: "putchar", scope: !926, file: !926, line: 528, type: !718, flags: DIFlagPrototyped, spFlags: 0)
!1020 = !DIImportedEntity(tag: DW_TAG_imported_declaration, scope: !2, entity: !1021, file: !923, line: 130)
!1021 = !DISubprogram(name: "puts", scope: !926, file: !926, line: 632, type: !775, flags: DIFlagPrototyped, spFlags: 0)
!1022 = !DIImportedEntity(tag: DW_TAG_imported_declaration, scope: !2, entity: !1023, file: !923, line: 131)
!1023 = !DISubprogram(name: "remove", scope: !926, file: !926, line: 146, type: !775, flags: DIFlagPrototyped, spFlags: 0)
!1024 = !DIImportedEntity(tag: DW_TAG_imported_declaration, scope: !2, entity: !1025, file: !923, line: 132)
!1025 = !DISubprogram(name: "rename", scope: !926, file: !926, line: 148, type: !1026, flags: DIFlagPrototyped, spFlags: 0)
!1026 = !DISubroutineType(types: !1027)
!1027 = !{!11, !229, !229}
!1028 = !DIImportedEntity(tag: DW_TAG_imported_declaration, scope: !2, entity: !1029, file: !923, line: 133)
!1029 = !DISubprogram(name: "rewind", scope: !926, file: !926, line: 694, type: !932, flags: DIFlagPrototyped, spFlags: 0)
!1030 = !DIImportedEntity(tag: DW_TAG_imported_declaration, scope: !2, entity: !1031, file: !923, line: 134)
!1031 = !DISubprogram(name: "scanf", linkageName: "__isoc99_scanf", scope: !926, file: !926, line: 410, type: !1014, flags: DIFlagPrototyped, spFlags: 0)
!1032 = !DIImportedEntity(tag: DW_TAG_imported_declaration, scope: !2, entity: !1033, file: !923, line: 135)
!1033 = !DISubprogram(name: "setbuf", scope: !926, file: !926, line: 304, type: !1034, flags: DIFlagPrototyped, spFlags: 0)
!1034 = !DISubroutineType(types: !1035)
!1035 = !{null, !951, !413}
!1036 = !DIImportedEntity(tag: DW_TAG_imported_declaration, scope: !2, entity: !1037, file: !923, line: 136)
!1037 = !DISubprogram(name: "setvbuf", scope: !926, file: !926, line: 308, type: !1038, flags: DIFlagPrototyped, spFlags: 0)
!1038 = !DISubroutineType(types: !1039)
!1039 = !{!11, !951, !413, !11, !342}
!1040 = !DIImportedEntity(tag: DW_TAG_imported_declaration, scope: !2, entity: !1041, file: !923, line: 137)
!1041 = !DISubprogram(name: "sprintf", scope: !926, file: !926, line: 334, type: !1042, flags: DIFlagPrototyped, spFlags: 0)
!1042 = !DISubroutineType(types: !1043)
!1043 = !{!11, !413, !344, null}
!1044 = !DIImportedEntity(tag: DW_TAG_imported_declaration, scope: !2, entity: !1045, file: !923, line: 138)
!1045 = !DISubprogram(name: "sscanf", linkageName: "__isoc99_sscanf", scope: !926, file: !926, line: 412, type: !1046, flags: DIFlagPrototyped, spFlags: 0)
!1046 = !DISubroutineType(types: !1047)
!1047 = !{!11, !344, !344, null}
!1048 = !DIImportedEntity(tag: DW_TAG_imported_declaration, scope: !2, entity: !1049, file: !923, line: 139)
!1049 = !DISubprogram(name: "tmpfile", scope: !926, file: !926, line: 173, type: !1050, flags: DIFlagPrototyped, spFlags: 0)
!1050 = !DISubroutineType(types: !1051)
!1051 = !{!934}
!1052 = !DIImportedEntity(tag: DW_TAG_imported_declaration, scope: !2, entity: !1053, file: !923, line: 141)
!1053 = !DISubprogram(name: "tmpnam", scope: !926, file: !926, line: 187, type: !1054, flags: DIFlagPrototyped, spFlags: 0)
!1054 = !DISubroutineType(types: !1055)
!1055 = !{!206, !206}
!1056 = !DIImportedEntity(tag: DW_TAG_imported_declaration, scope: !2, entity: !1057, file: !923, line: 143)
!1057 = !DISubprogram(name: "ungetc", scope: !926, file: !926, line: 639, type: !968, flags: DIFlagPrototyped, spFlags: 0)
!1058 = !DIImportedEntity(tag: DW_TAG_imported_declaration, scope: !2, entity: !1059, file: !923, line: 144)
!1059 = !DISubprogram(name: "vfprintf", scope: !926, file: !926, line: 341, type: !1060, flags: DIFlagPrototyped, spFlags: 0)
!1060 = !DISubroutineType(types: !1061)
!1061 = !{!11, !951, !344, !385}
!1062 = !DIImportedEntity(tag: DW_TAG_imported_declaration, scope: !2, entity: !1063, file: !923, line: 145)
!1063 = !DISubprogram(name: "vprintf", scope: !926, file: !926, line: 347, type: !1064, flags: DIFlagPrototyped, spFlags: 0)
!1064 = !DISubroutineType(types: !1065)
!1065 = !{!11, !344, !385}
!1066 = !DIImportedEntity(tag: DW_TAG_imported_declaration, scope: !2, entity: !1067, file: !923, line: 146)
!1067 = !DISubprogram(name: "vsprintf", scope: !926, file: !926, line: 349, type: !1068, flags: DIFlagPrototyped, spFlags: 0)
!1068 = !DISubroutineType(types: !1069)
!1069 = !{!11, !413, !344, !385}
!1070 = !DIImportedEntity(tag: DW_TAG_imported_declaration, scope: !539, entity: !1071, file: !923, line: 175)
!1071 = !DISubprogram(name: "snprintf", scope: !926, file: !926, line: 354, type: !1072, flags: DIFlagPrototyped, spFlags: 0)
!1072 = !DISubroutineType(types: !1073)
!1073 = !{!11, !413, !342, !344, null}
!1074 = !DIImportedEntity(tag: DW_TAG_imported_declaration, scope: !539, entity: !1075, file: !923, line: 176)
!1075 = !DISubprogram(name: "vfscanf", linkageName: "__isoc99_vfscanf", scope: !926, file: !926, line: 451, type: !1060, flags: DIFlagPrototyped, spFlags: 0)
!1076 = !DIImportedEntity(tag: DW_TAG_imported_declaration, scope: !539, entity: !1077, file: !923, line: 177)
!1077 = !DISubprogram(name: "vscanf", linkageName: "__isoc99_vscanf", scope: !926, file: !926, line: 456, type: !1064, flags: DIFlagPrototyped, spFlags: 0)
!1078 = !DIImportedEntity(tag: DW_TAG_imported_declaration, scope: !539, entity: !1079, file: !923, line: 178)
!1079 = !DISubprogram(name: "vsnprintf", scope: !926, file: !926, line: 358, type: !1080, flags: DIFlagPrototyped, spFlags: 0)
!1080 = !DISubroutineType(types: !1081)
!1081 = !{!11, !413, !342, !344, !385}
!1082 = !DIImportedEntity(tag: DW_TAG_imported_declaration, scope: !539, entity: !1083, file: !923, line: 179)
!1083 = !DISubprogram(name: "vsscanf", linkageName: "__isoc99_vsscanf", scope: !926, file: !926, line: 459, type: !1084, flags: DIFlagPrototyped, spFlags: 0)
!1084 = !DISubroutineType(types: !1085)
!1085 = !{!11, !344, !344, !385}
!1086 = !DIImportedEntity(tag: DW_TAG_imported_declaration, scope: !2, entity: !1071, file: !923, line: 185)
!1087 = !DIImportedEntity(tag: DW_TAG_imported_declaration, scope: !2, entity: !1075, file: !923, line: 186)
!1088 = !DIImportedEntity(tag: DW_TAG_imported_declaration, scope: !2, entity: !1077, file: !923, line: 187)
!1089 = !DIImportedEntity(tag: DW_TAG_imported_declaration, scope: !2, entity: !1079, file: !923, line: 188)
!1090 = !DIImportedEntity(tag: DW_TAG_imported_declaration, scope: !2, entity: !1083, file: !923, line: 189)
!1091 = !DIImportedEntity(tag: DW_TAG_imported_declaration, scope: !2, entity: !1092, file: !1096, line: 83)
!1092 = !DISubprogram(name: "acos", scope: !1093, file: !1093, line: 53, type: !1094, flags: DIFlagPrototyped, spFlags: 0)
!1093 = !DIFile(filename: "/usr/include/x86_64-linux-gnu/bits/mathcalls.h", directory: "")
!1094 = !DISubroutineType(types: !1095)
!1095 = !{!111, !111}
!1096 = !DIFile(filename: "/usr/lib/gcc/x86_64-linux-gnu/10/../../../../include/c++/10/cmath", directory: "")
!1097 = !DIImportedEntity(tag: DW_TAG_imported_declaration, scope: !2, entity: !1098, file: !1096, line: 102)
!1098 = !DISubprogram(name: "asin", scope: !1093, file: !1093, line: 55, type: !1094, flags: DIFlagPrototyped, spFlags: 0)
!1099 = !DIImportedEntity(tag: DW_TAG_imported_declaration, scope: !2, entity: !1100, file: !1096, line: 121)
!1100 = !DISubprogram(name: "atan", scope: !1093, file: !1093, line: 57, type: !1094, flags: DIFlagPrototyped, spFlags: 0)
!1101 = !DIImportedEntity(tag: DW_TAG_imported_declaration, scope: !2, entity: !1102, file: !1096, line: 140)
!1102 = !DISubprogram(name: "atan2", scope: !1093, file: !1093, line: 59, type: !1103, flags: DIFlagPrototyped, spFlags: 0)
!1103 = !DISubroutineType(types: !1104)
!1104 = !{!111, !111, !111}
!1105 = !DIImportedEntity(tag: DW_TAG_imported_declaration, scope: !2, entity: !1106, file: !1096, line: 161)
!1106 = !DISubprogram(name: "ceil", scope: !1093, file: !1093, line: 159, type: !1094, flags: DIFlagPrototyped, spFlags: 0)
!1107 = !DIImportedEntity(tag: DW_TAG_imported_declaration, scope: !2, entity: !1108, file: !1096, line: 180)
!1108 = !DISubprogram(name: "cos", scope: !1093, file: !1093, line: 62, type: !1094, flags: DIFlagPrototyped, spFlags: 0)
!1109 = !DIImportedEntity(tag: DW_TAG_imported_declaration, scope: !2, entity: !1110, file: !1096, line: 199)
!1110 = !DISubprogram(name: "cosh", scope: !1093, file: !1093, line: 71, type: !1094, flags: DIFlagPrototyped, spFlags: 0)
!1111 = !DIImportedEntity(tag: DW_TAG_imported_declaration, scope: !2, entity: !1112, file: !1096, line: 218)
!1112 = !DISubprogram(name: "exp", scope: !1093, file: !1093, line: 95, type: !1094, flags: DIFlagPrototyped, spFlags: 0)
!1113 = !DIImportedEntity(tag: DW_TAG_imported_declaration, scope: !2, entity: !1114, file: !1096, line: 237)
!1114 = !DISubprogram(name: "fabs", scope: !1093, file: !1093, line: 162, type: !1094, flags: DIFlagPrototyped, spFlags: 0)
!1115 = !DIImportedEntity(tag: DW_TAG_imported_declaration, scope: !2, entity: !1116, file: !1096, line: 256)
!1116 = !DISubprogram(name: "floor", scope: !1093, file: !1093, line: 165, type: !1094, flags: DIFlagPrototyped, spFlags: 0)
!1117 = !DIImportedEntity(tag: DW_TAG_imported_declaration, scope: !2, entity: !1118, file: !1096, line: 275)
!1118 = !DISubprogram(name: "fmod", scope: !1093, file: !1093, line: 168, type: !1103, flags: DIFlagPrototyped, spFlags: 0)
!1119 = !DIImportedEntity(tag: DW_TAG_imported_declaration, scope: !2, entity: !1120, file: !1096, line: 296)
!1120 = !DISubprogram(name: "frexp", scope: !1093, file: !1093, line: 98, type: !1121, flags: DIFlagPrototyped, spFlags: 0)
!1121 = !DISubroutineType(types: !1122)
!1122 = !{!111, !111, !1123}
!1123 = !DIDerivedType(tag: DW_TAG_pointer_type, baseType: !11, size: 64)
!1124 = !DIImportedEntity(tag: DW_TAG_imported_declaration, scope: !2, entity: !1125, file: !1096, line: 315)
!1125 = !DISubprogram(name: "ldexp", scope: !1093, file: !1093, line: 101, type: !1126, flags: DIFlagPrototyped, spFlags: 0)
!1126 = !DISubroutineType(types: !1127)
!1127 = !{!111, !111, !11}
!1128 = !DIImportedEntity(tag: DW_TAG_imported_declaration, scope: !2, entity: !1129, file: !1096, line: 334)
!1129 = !DISubprogram(name: "log", scope: !1093, file: !1093, line: 104, type: !1094, flags: DIFlagPrototyped, spFlags: 0)
!1130 = !DIImportedEntity(tag: DW_TAG_imported_declaration, scope: !2, entity: !1131, file: !1096, line: 353)
!1131 = !DISubprogram(name: "log10", scope: !1093, file: !1093, line: 107, type: !1094, flags: DIFlagPrototyped, spFlags: 0)
!1132 = !DIImportedEntity(tag: DW_TAG_imported_declaration, scope: !2, entity: !1133, file: !1096, line: 372)
!1133 = !DISubprogram(name: "modf", scope: !1093, file: !1093, line: 110, type: !1134, flags: DIFlagPrototyped, spFlags: 0)
!1134 = !DISubroutineType(types: !1135)
!1135 = !{!111, !111, !1136}
!1136 = !DIDerivedType(tag: DW_TAG_pointer_type, baseType: !111, size: 64)
!1137 = !DIImportedEntity(tag: DW_TAG_imported_declaration, scope: !2, entity: !1138, file: !1096, line: 384)
!1138 = !DISubprogram(name: "pow", scope: !1093, file: !1093, line: 140, type: !1103, flags: DIFlagPrototyped, spFlags: 0)
!1139 = !DIImportedEntity(tag: DW_TAG_imported_declaration, scope: !2, entity: !1140, file: !1096, line: 421)
!1140 = !DISubprogram(name: "sin", scope: !1093, file: !1093, line: 64, type: !1094, flags: DIFlagPrototyped, spFlags: 0)
!1141 = !DIImportedEntity(tag: DW_TAG_imported_declaration, scope: !2, entity: !1142, file: !1096, line: 440)
!1142 = !DISubprogram(name: "sinh", scope: !1093, file: !1093, line: 73, type: !1094, flags: DIFlagPrototyped, spFlags: 0)
!1143 = !DIImportedEntity(tag: DW_TAG_imported_declaration, scope: !2, entity: !1144, file: !1096, line: 459)
!1144 = !DISubprogram(name: "sqrt", scope: !1093, file: !1093, line: 143, type: !1094, flags: DIFlagPrototyped, spFlags: 0)
!1145 = !DIImportedEntity(tag: DW_TAG_imported_declaration, scope: !2, entity: !1146, file: !1096, line: 478)
!1146 = !DISubprogram(name: "tan", scope: !1093, file: !1093, line: 66, type: !1094, flags: DIFlagPrototyped, spFlags: 0)
!1147 = !DIImportedEntity(tag: DW_TAG_imported_declaration, scope: !2, entity: !1148, file: !1096, line: 497)
!1148 = !DISubprogram(name: "tanh", scope: !1093, file: !1093, line: 75, type: !1094, flags: DIFlagPrototyped, spFlags: 0)
!1149 = !DIImportedEntity(tag: DW_TAG_imported_declaration, scope: !2, entity: !1150, file: !1096, line: 1065)
!1150 = !DIDerivedType(tag: DW_TAG_typedef, name: "double_t", file: !1151, line: 150, baseType: !111)
!1151 = !DIFile(filename: "/usr/include/math.h", directory: "")
!1152 = !DIImportedEntity(tag: DW_TAG_imported_declaration, scope: !2, entity: !1153, file: !1096, line: 1066)
!1153 = !DIDerivedType(tag: DW_TAG_typedef, name: "float_t", file: !1151, line: 149, baseType: !483)
!1154 = !DIImportedEntity(tag: DW_TAG_imported_declaration, scope: !2, entity: !1155, file: !1096, line: 1069)
!1155 = !DISubprogram(name: "acosh", scope: !1093, file: !1093, line: 85, type: !1094, flags: DIFlagPrototyped, spFlags: 0)
!1156 = !DIImportedEntity(tag: DW_TAG_imported_declaration, scope: !2, entity: !1157, file: !1096, line: 1070)
!1157 = !DISubprogram(name: "acoshf", scope: !1093, file: !1093, line: 85, type: !1158, flags: DIFlagPrototyped, spFlags: 0)
!1158 = !DISubroutineType(types: !1159)
!1159 = !{!483, !483}
!1160 = !DIImportedEntity(tag: DW_TAG_imported_declaration, scope: !2, entity: !1161, file: !1096, line: 1071)
!1161 = !DISubprogram(name: "acoshl", scope: !1093, file: !1093, line: 85, type: !1162, flags: DIFlagPrototyped, spFlags: 0)
!1162 = !DISubroutineType(types: !1163)
!1163 = !{!543, !543}
!1164 = !DIImportedEntity(tag: DW_TAG_imported_declaration, scope: !2, entity: !1165, file: !1096, line: 1073)
!1165 = !DISubprogram(name: "asinh", scope: !1093, file: !1093, line: 87, type: !1094, flags: DIFlagPrototyped, spFlags: 0)
!1166 = !DIImportedEntity(tag: DW_TAG_imported_declaration, scope: !2, entity: !1167, file: !1096, line: 1074)
!1167 = !DISubprogram(name: "asinhf", scope: !1093, file: !1093, line: 87, type: !1158, flags: DIFlagPrototyped, spFlags: 0)
!1168 = !DIImportedEntity(tag: DW_TAG_imported_declaration, scope: !2, entity: !1169, file: !1096, line: 1075)
!1169 = !DISubprogram(name: "asinhl", scope: !1093, file: !1093, line: 87, type: !1162, flags: DIFlagPrototyped, spFlags: 0)
!1170 = !DIImportedEntity(tag: DW_TAG_imported_declaration, scope: !2, entity: !1171, file: !1096, line: 1077)
!1171 = !DISubprogram(name: "atanh", scope: !1093, file: !1093, line: 89, type: !1094, flags: DIFlagPrototyped, spFlags: 0)
!1172 = !DIImportedEntity(tag: DW_TAG_imported_declaration, scope: !2, entity: !1173, file: !1096, line: 1078)
!1173 = !DISubprogram(name: "atanhf", scope: !1093, file: !1093, line: 89, type: !1158, flags: DIFlagPrototyped, spFlags: 0)
!1174 = !DIImportedEntity(tag: DW_TAG_imported_declaration, scope: !2, entity: !1175, file: !1096, line: 1079)
!1175 = !DISubprogram(name: "atanhl", scope: !1093, file: !1093, line: 89, type: !1162, flags: DIFlagPrototyped, spFlags: 0)
!1176 = !DIImportedEntity(tag: DW_TAG_imported_declaration, scope: !2, entity: !1177, file: !1096, line: 1081)
!1177 = !DISubprogram(name: "cbrt", scope: !1093, file: !1093, line: 152, type: !1094, flags: DIFlagPrototyped, spFlags: 0)
!1178 = !DIImportedEntity(tag: DW_TAG_imported_declaration, scope: !2, entity: !1179, file: !1096, line: 1082)
!1179 = !DISubprogram(name: "cbrtf", scope: !1093, file: !1093, line: 152, type: !1158, flags: DIFlagPrototyped, spFlags: 0)
!1180 = !DIImportedEntity(tag: DW_TAG_imported_declaration, scope: !2, entity: !1181, file: !1096, line: 1083)
!1181 = !DISubprogram(name: "cbrtl", scope: !1093, file: !1093, line: 152, type: !1162, flags: DIFlagPrototyped, spFlags: 0)
!1182 = !DIImportedEntity(tag: DW_TAG_imported_declaration, scope: !2, entity: !1183, file: !1096, line: 1085)
!1183 = !DISubprogram(name: "copysign", scope: !1093, file: !1093, line: 196, type: !1103, flags: DIFlagPrototyped, spFlags: 0)
!1184 = !DIImportedEntity(tag: DW_TAG_imported_declaration, scope: !2, entity: !1185, file: !1096, line: 1086)
!1185 = !DISubprogram(name: "copysignf", scope: !1093, file: !1093, line: 196, type: !1186, flags: DIFlagPrototyped, spFlags: 0)
!1186 = !DISubroutineType(types: !1187)
!1187 = !{!483, !483, !483}
!1188 = !DIImportedEntity(tag: DW_TAG_imported_declaration, scope: !2, entity: !1189, file: !1096, line: 1087)
!1189 = !DISubprogram(name: "copysignl", scope: !1093, file: !1093, line: 196, type: !1190, flags: DIFlagPrototyped, spFlags: 0)
!1190 = !DISubroutineType(types: !1191)
!1191 = !{!543, !543, !543}
!1192 = !DIImportedEntity(tag: DW_TAG_imported_declaration, scope: !2, entity: !1193, file: !1096, line: 1089)
!1193 = !DISubprogram(name: "erf", scope: !1093, file: !1093, line: 228, type: !1094, flags: DIFlagPrototyped, spFlags: 0)
!1194 = !DIImportedEntity(tag: DW_TAG_imported_declaration, scope: !2, entity: !1195, file: !1096, line: 1090)
!1195 = !DISubprogram(name: "erff", scope: !1093, file: !1093, line: 228, type: !1158, flags: DIFlagPrototyped, spFlags: 0)
!1196 = !DIImportedEntity(tag: DW_TAG_imported_declaration, scope: !2, entity: !1197, file: !1096, line: 1091)
!1197 = !DISubprogram(name: "erfl", scope: !1093, file: !1093, line: 228, type: !1162, flags: DIFlagPrototyped, spFlags: 0)
!1198 = !DIImportedEntity(tag: DW_TAG_imported_declaration, scope: !2, entity: !1199, file: !1096, line: 1093)
!1199 = !DISubprogram(name: "erfc", scope: !1093, file: !1093, line: 229, type: !1094, flags: DIFlagPrototyped, spFlags: 0)
!1200 = !DIImportedEntity(tag: DW_TAG_imported_declaration, scope: !2, entity: !1201, file: !1096, line: 1094)
!1201 = !DISubprogram(name: "erfcf", scope: !1093, file: !1093, line: 229, type: !1158, flags: DIFlagPrototyped, spFlags: 0)
!1202 = !DIImportedEntity(tag: DW_TAG_imported_declaration, scope: !2, entity: !1203, file: !1096, line: 1095)
!1203 = !DISubprogram(name: "erfcl", scope: !1093, file: !1093, line: 229, type: !1162, flags: DIFlagPrototyped, spFlags: 0)
!1204 = !DIImportedEntity(tag: DW_TAG_imported_declaration, scope: !2, entity: !1205, file: !1096, line: 1097)
!1205 = !DISubprogram(name: "exp2", scope: !1093, file: !1093, line: 130, type: !1094, flags: DIFlagPrototyped, spFlags: 0)
!1206 = !DIImportedEntity(tag: DW_TAG_imported_declaration, scope: !2, entity: !1207, file: !1096, line: 1098)
!1207 = !DISubprogram(name: "exp2f", scope: !1093, file: !1093, line: 130, type: !1158, flags: DIFlagPrototyped, spFlags: 0)
!1208 = !DIImportedEntity(tag: DW_TAG_imported_declaration, scope: !2, entity: !1209, file: !1096, line: 1099)
!1209 = !DISubprogram(name: "exp2l", scope: !1093, file: !1093, line: 130, type: !1162, flags: DIFlagPrototyped, spFlags: 0)
!1210 = !DIImportedEntity(tag: DW_TAG_imported_declaration, scope: !2, entity: !1211, file: !1096, line: 1101)
!1211 = !DISubprogram(name: "expm1", scope: !1093, file: !1093, line: 119, type: !1094, flags: DIFlagPrototyped, spFlags: 0)
!1212 = !DIImportedEntity(tag: DW_TAG_imported_declaration, scope: !2, entity: !1213, file: !1096, line: 1102)
!1213 = !DISubprogram(name: "expm1f", scope: !1093, file: !1093, line: 119, type: !1158, flags: DIFlagPrototyped, spFlags: 0)
!1214 = !DIImportedEntity(tag: DW_TAG_imported_declaration, scope: !2, entity: !1215, file: !1096, line: 1103)
!1215 = !DISubprogram(name: "expm1l", scope: !1093, file: !1093, line: 119, type: !1162, flags: DIFlagPrototyped, spFlags: 0)
!1216 = !DIImportedEntity(tag: DW_TAG_imported_declaration, scope: !2, entity: !1217, file: !1096, line: 1105)
!1217 = !DISubprogram(name: "fdim", scope: !1093, file: !1093, line: 326, type: !1103, flags: DIFlagPrototyped, spFlags: 0)
!1218 = !DIImportedEntity(tag: DW_TAG_imported_declaration, scope: !2, entity: !1219, file: !1096, line: 1106)
!1219 = !DISubprogram(name: "fdimf", scope: !1093, file: !1093, line: 326, type: !1186, flags: DIFlagPrototyped, spFlags: 0)
!1220 = !DIImportedEntity(tag: DW_TAG_imported_declaration, scope: !2, entity: !1221, file: !1096, line: 1107)
!1221 = !DISubprogram(name: "fdiml", scope: !1093, file: !1093, line: 326, type: !1190, flags: DIFlagPrototyped, spFlags: 0)
!1222 = !DIImportedEntity(tag: DW_TAG_imported_declaration, scope: !2, entity: !1223, file: !1096, line: 1109)
!1223 = !DISubprogram(name: "fma", scope: !1093, file: !1093, line: 335, type: !1224, flags: DIFlagPrototyped, spFlags: 0)
!1224 = !DISubroutineType(types: !1225)
!1225 = !{!111, !111, !111, !111}
!1226 = !DIImportedEntity(tag: DW_TAG_imported_declaration, scope: !2, entity: !1227, file: !1096, line: 1110)
!1227 = !DISubprogram(name: "fmaf", scope: !1093, file: !1093, line: 335, type: !1228, flags: DIFlagPrototyped, spFlags: 0)
!1228 = !DISubroutineType(types: !1229)
!1229 = !{!483, !483, !483, !483}
!1230 = !DIImportedEntity(tag: DW_TAG_imported_declaration, scope: !2, entity: !1231, file: !1096, line: 1111)
!1231 = !DISubprogram(name: "fmal", scope: !1093, file: !1093, line: 335, type: !1232, flags: DIFlagPrototyped, spFlags: 0)
!1232 = !DISubroutineType(types: !1233)
!1233 = !{!543, !543, !543, !543}
!1234 = !DIImportedEntity(tag: DW_TAG_imported_declaration, scope: !2, entity: !1235, file: !1096, line: 1113)
!1235 = !DISubprogram(name: "fmax", scope: !1093, file: !1093, line: 329, type: !1103, flags: DIFlagPrototyped, spFlags: 0)
!1236 = !DIImportedEntity(tag: DW_TAG_imported_declaration, scope: !2, entity: !1237, file: !1096, line: 1114)
!1237 = !DISubprogram(name: "fmaxf", scope: !1093, file: !1093, line: 329, type: !1186, flags: DIFlagPrototyped, spFlags: 0)
!1238 = !DIImportedEntity(tag: DW_TAG_imported_declaration, scope: !2, entity: !1239, file: !1096, line: 1115)
!1239 = !DISubprogram(name: "fmaxl", scope: !1093, file: !1093, line: 329, type: !1190, flags: DIFlagPrototyped, spFlags: 0)
!1240 = !DIImportedEntity(tag: DW_TAG_imported_declaration, scope: !2, entity: !1241, file: !1096, line: 1117)
!1241 = !DISubprogram(name: "fmin", scope: !1093, file: !1093, line: 332, type: !1103, flags: DIFlagPrototyped, spFlags: 0)
!1242 = !DIImportedEntity(tag: DW_TAG_imported_declaration, scope: !2, entity: !1243, file: !1096, line: 1118)
!1243 = !DISubprogram(name: "fminf", scope: !1093, file: !1093, line: 332, type: !1186, flags: DIFlagPrototyped, spFlags: 0)
!1244 = !DIImportedEntity(tag: DW_TAG_imported_declaration, scope: !2, entity: !1245, file: !1096, line: 1119)
!1245 = !DISubprogram(name: "fminl", scope: !1093, file: !1093, line: 332, type: !1190, flags: DIFlagPrototyped, spFlags: 0)
!1246 = !DIImportedEntity(tag: DW_TAG_imported_declaration, scope: !2, entity: !1247, file: !1096, line: 1121)
!1247 = !DISubprogram(name: "hypot", scope: !1093, file: !1093, line: 147, type: !1103, flags: DIFlagPrototyped, spFlags: 0)
!1248 = !DIImportedEntity(tag: DW_TAG_imported_declaration, scope: !2, entity: !1249, file: !1096, line: 1122)
!1249 = !DISubprogram(name: "hypotf", scope: !1093, file: !1093, line: 147, type: !1186, flags: DIFlagPrototyped, spFlags: 0)
!1250 = !DIImportedEntity(tag: DW_TAG_imported_declaration, scope: !2, entity: !1251, file: !1096, line: 1123)
!1251 = !DISubprogram(name: "hypotl", scope: !1093, file: !1093, line: 147, type: !1190, flags: DIFlagPrototyped, spFlags: 0)
!1252 = !DIImportedEntity(tag: DW_TAG_imported_declaration, scope: !2, entity: !1253, file: !1096, line: 1125)
!1253 = !DISubprogram(name: "ilogb", scope: !1093, file: !1093, line: 280, type: !1254, flags: DIFlagPrototyped, spFlags: 0)
!1254 = !DISubroutineType(types: !1255)
!1255 = !{!11, !111}
!1256 = !DIImportedEntity(tag: DW_TAG_imported_declaration, scope: !2, entity: !1257, file: !1096, line: 1126)
!1257 = !DISubprogram(name: "ilogbf", scope: !1093, file: !1093, line: 280, type: !1258, flags: DIFlagPrototyped, spFlags: 0)
!1258 = !DISubroutineType(types: !1259)
!1259 = !{!11, !483}
!1260 = !DIImportedEntity(tag: DW_TAG_imported_declaration, scope: !2, entity: !1261, file: !1096, line: 1127)
!1261 = !DISubprogram(name: "ilogbl", scope: !1093, file: !1093, line: 280, type: !1262, flags: DIFlagPrototyped, spFlags: 0)
!1262 = !DISubroutineType(types: !1263)
!1263 = !{!11, !543}
!1264 = !DIImportedEntity(tag: DW_TAG_imported_declaration, scope: !2, entity: !1265, file: !1096, line: 1129)
!1265 = !DISubprogram(name: "lgamma", scope: !1093, file: !1093, line: 230, type: !1094, flags: DIFlagPrototyped, spFlags: 0)
!1266 = !DIImportedEntity(tag: DW_TAG_imported_declaration, scope: !2, entity: !1267, file: !1096, line: 1130)
!1267 = !DISubprogram(name: "lgammaf", scope: !1093, file: !1093, line: 230, type: !1158, flags: DIFlagPrototyped, spFlags: 0)
!1268 = !DIImportedEntity(tag: DW_TAG_imported_declaration, scope: !2, entity: !1269, file: !1096, line: 1131)
!1269 = !DISubprogram(name: "lgammal", scope: !1093, file: !1093, line: 230, type: !1162, flags: DIFlagPrototyped, spFlags: 0)
!1270 = !DIImportedEntity(tag: DW_TAG_imported_declaration, scope: !2, entity: !1271, file: !1096, line: 1134)
!1271 = !DISubprogram(name: "llrint", scope: !1093, file: !1093, line: 316, type: !1272, flags: DIFlagPrototyped, spFlags: 0)
!1272 = !DISubroutineType(types: !1273)
!1273 = !{!548, !111}
!1274 = !DIImportedEntity(tag: DW_TAG_imported_declaration, scope: !2, entity: !1275, file: !1096, line: 1135)
!1275 = !DISubprogram(name: "llrintf", scope: !1093, file: !1093, line: 316, type: !1276, flags: DIFlagPrototyped, spFlags: 0)
!1276 = !DISubroutineType(types: !1277)
!1277 = !{!548, !483}
!1278 = !DIImportedEntity(tag: DW_TAG_imported_declaration, scope: !2, entity: !1279, file: !1096, line: 1136)
!1279 = !DISubprogram(name: "llrintl", scope: !1093, file: !1093, line: 316, type: !1280, flags: DIFlagPrototyped, spFlags: 0)
!1280 = !DISubroutineType(types: !1281)
!1281 = !{!548, !543}
!1282 = !DIImportedEntity(tag: DW_TAG_imported_declaration, scope: !2, entity: !1283, file: !1096, line: 1138)
!1283 = !DISubprogram(name: "llround", scope: !1093, file: !1093, line: 322, type: !1272, flags: DIFlagPrototyped, spFlags: 0)
!1284 = !DIImportedEntity(tag: DW_TAG_imported_declaration, scope: !2, entity: !1285, file: !1096, line: 1139)
!1285 = !DISubprogram(name: "llroundf", scope: !1093, file: !1093, line: 322, type: !1276, flags: DIFlagPrototyped, spFlags: 0)
!1286 = !DIImportedEntity(tag: DW_TAG_imported_declaration, scope: !2, entity: !1287, file: !1096, line: 1140)
!1287 = !DISubprogram(name: "llroundl", scope: !1093, file: !1093, line: 322, type: !1280, flags: DIFlagPrototyped, spFlags: 0)
!1288 = !DIImportedEntity(tag: DW_TAG_imported_declaration, scope: !2, entity: !1289, file: !1096, line: 1143)
!1289 = !DISubprogram(name: "log1p", scope: !1093, file: !1093, line: 122, type: !1094, flags: DIFlagPrototyped, spFlags: 0)
!1290 = !DIImportedEntity(tag: DW_TAG_imported_declaration, scope: !2, entity: !1291, file: !1096, line: 1144)
!1291 = !DISubprogram(name: "log1pf", scope: !1093, file: !1093, line: 122, type: !1158, flags: DIFlagPrototyped, spFlags: 0)
!1292 = !DIImportedEntity(tag: DW_TAG_imported_declaration, scope: !2, entity: !1293, file: !1096, line: 1145)
!1293 = !DISubprogram(name: "log1pl", scope: !1093, file: !1093, line: 122, type: !1162, flags: DIFlagPrototyped, spFlags: 0)
!1294 = !DIImportedEntity(tag: DW_TAG_imported_declaration, scope: !2, entity: !1295, file: !1096, line: 1147)
!1295 = !DISubprogram(name: "log2", scope: !1093, file: !1093, line: 133, type: !1094, flags: DIFlagPrototyped, spFlags: 0)
!1296 = !DIImportedEntity(tag: DW_TAG_imported_declaration, scope: !2, entity: !1297, file: !1096, line: 1148)
!1297 = !DISubprogram(name: "log2f", scope: !1093, file: !1093, line: 133, type: !1158, flags: DIFlagPrototyped, spFlags: 0)
!1298 = !DIImportedEntity(tag: DW_TAG_imported_declaration, scope: !2, entity: !1299, file: !1096, line: 1149)
!1299 = !DISubprogram(name: "log2l", scope: !1093, file: !1093, line: 133, type: !1162, flags: DIFlagPrototyped, spFlags: 0)
!1300 = !DIImportedEntity(tag: DW_TAG_imported_declaration, scope: !2, entity: !1301, file: !1096, line: 1151)
!1301 = !DISubprogram(name: "logb", scope: !1093, file: !1093, line: 125, type: !1094, flags: DIFlagPrototyped, spFlags: 0)
!1302 = !DIImportedEntity(tag: DW_TAG_imported_declaration, scope: !2, entity: !1303, file: !1096, line: 1152)
!1303 = !DISubprogram(name: "logbf", scope: !1093, file: !1093, line: 125, type: !1158, flags: DIFlagPrototyped, spFlags: 0)
!1304 = !DIImportedEntity(tag: DW_TAG_imported_declaration, scope: !2, entity: !1305, file: !1096, line: 1153)
!1305 = !DISubprogram(name: "logbl", scope: !1093, file: !1093, line: 125, type: !1162, flags: DIFlagPrototyped, spFlags: 0)
!1306 = !DIImportedEntity(tag: DW_TAG_imported_declaration, scope: !2, entity: !1307, file: !1096, line: 1155)
!1307 = !DISubprogram(name: "lrint", scope: !1093, file: !1093, line: 314, type: !1308, flags: DIFlagPrototyped, spFlags: 0)
!1308 = !DISubroutineType(types: !1309)
!1309 = !{!99, !111}
!1310 = !DIImportedEntity(tag: DW_TAG_imported_declaration, scope: !2, entity: !1311, file: !1096, line: 1156)
!1311 = !DISubprogram(name: "lrintf", scope: !1093, file: !1093, line: 314, type: !1312, flags: DIFlagPrototyped, spFlags: 0)
!1312 = !DISubroutineType(types: !1313)
!1313 = !{!99, !483}
!1314 = !DIImportedEntity(tag: DW_TAG_imported_declaration, scope: !2, entity: !1315, file: !1096, line: 1157)
!1315 = !DISubprogram(name: "lrintl", scope: !1093, file: !1093, line: 314, type: !1316, flags: DIFlagPrototyped, spFlags: 0)
!1316 = !DISubroutineType(types: !1317)
!1317 = !{!99, !543}
!1318 = !DIImportedEntity(tag: DW_TAG_imported_declaration, scope: !2, entity: !1319, file: !1096, line: 1159)
!1319 = !DISubprogram(name: "lround", scope: !1093, file: !1093, line: 320, type: !1308, flags: DIFlagPrototyped, spFlags: 0)
!1320 = !DIImportedEntity(tag: DW_TAG_imported_declaration, scope: !2, entity: !1321, file: !1096, line: 1160)
!1321 = !DISubprogram(name: "lroundf", scope: !1093, file: !1093, line: 320, type: !1312, flags: DIFlagPrototyped, spFlags: 0)
!1322 = !DIImportedEntity(tag: DW_TAG_imported_declaration, scope: !2, entity: !1323, file: !1096, line: 1161)
!1323 = !DISubprogram(name: "lroundl", scope: !1093, file: !1093, line: 320, type: !1316, flags: DIFlagPrototyped, spFlags: 0)
!1324 = !DIImportedEntity(tag: DW_TAG_imported_declaration, scope: !2, entity: !1325, file: !1096, line: 1163)
!1325 = !DISubprogram(name: "nan", scope: !1093, file: !1093, line: 201, type: !771, flags: DIFlagPrototyped, spFlags: 0)
