; ModuleID = 'simulator/cmodule.cc'
source_filename = "simulator/cmodule.cc"
target datalayout = "e-m:e-p270:32:32-p271:32:32-p272:64:64-i64:64-f80:128-n8:16:32:64-S128"
target triple = "x86_64-unknown-linux-gnu"

%"class.std::ios_base::Init" = type { i8 }
%"class.std::__cxx11::basic_string" = type { %"struct.std::__cxx11::basic_string<char, std::char_traits<char>, std::allocator<char> >::_Alloc_hider", i64, %union.anon }
%"struct.std::__cxx11::basic_string<char, std::char_traits<char>, std::allocator<char> >::_Alloc_hider" = type { i8* }
%union.anon = type { i64, [8 x i8] }
%class.cModule = type { %class.cComponent, i8*, i32, %class.cModule*, %class.cModule*, %class.cModule*, %class.cModule*, i32, %"struct.cGate::Desc"*, i32, i32 }
%class.cComponent = type { %class.cDefaultList, %class.cComponentType*, i16, i32*, i16, i16, %class.cPar*, %class.cDisplayString* }
%class.cDefaultList = type { %class.cNoncopyableOwnedObject.base, %class.cOwnedObject**, i32, i32 }
%class.cNoncopyableOwnedObject.base = type { %class.cOwnedObject.base }
%class.cOwnedObject.base = type <{ %class.cNamedObject.base, [4 x i8], %class.cObject*, i32 }>
%class.cNamedObject.base = type <{ %class.cObject, i8*, i16, i16 }>
%class.cObject = type { i32 (...)** }
%class.cOwnedObject = type <{ %class.cNamedObject.base, [4 x i8], %class.cObject*, i32, [4 x i8] }>
%class.cComponentType = type { %class.cNoncopyableOwnedObject.base, %"class.std::__cxx11::basic_string", %"class.std::map", %"class.std::set" }
%"class.std::map" = type { %"class.std::_Rb_tree" }
%"class.std::_Rb_tree" = type { %"struct.std::_Rb_tree<std::__cxx11::basic_string<char>, std::pair<const std::__cxx11::basic_string<char>, cParImpl *>, std::_Select1st<std::pair<const std::__cxx11::basic_string<char>, cParImpl *> >, std::less<std::__cxx11::basic_string<char> >, std::allocator<std::pair<const std::__cxx11::basic_string<char>, cParImpl *> > >::_Rb_tree_impl" }
%"struct.std::_Rb_tree<std::__cxx11::basic_string<char>, std::pair<const std::__cxx11::basic_string<char>, cParImpl *>, std::_Select1st<std::pair<const std::__cxx11::basic_string<char>, cParImpl *> >, std::less<std::__cxx11::basic_string<char> >, std::allocator<std::pair<const std::__cxx11::basic_string<char>, cParImpl *> > >::_Rb_tree_impl" = type { %"struct.std::_Rb_tree_key_compare", %"struct.std::_Rb_tree_header" }
%"struct.std::_Rb_tree_key_compare" = type { %"struct.std::less" }
%"struct.std::less" = type { i8 }
%"struct.std::_Rb_tree_header" = type { %"struct.std::_Rb_tree_node_base", i64 }
%"struct.std::_Rb_tree_node_base" = type { i32, %"struct.std::_Rb_tree_node_base"*, %"struct.std::_Rb_tree_node_base"*, %"struct.std::_Rb_tree_node_base"* }
%"class.std::set" = type { %"class.std::_Rb_tree.3" }
%"class.std::_Rb_tree.3" = type { %"struct.std::_Rb_tree<cParImpl *, cParImpl *, std::_Identity<cParImpl *>, cComponentType::Less, std::allocator<cParImpl *> >::_Rb_tree_impl" }
%"struct.std::_Rb_tree<cParImpl *, cParImpl *, std::_Identity<cParImpl *>, cComponentType::Less, std::allocator<cParImpl *> >::_Rb_tree_impl" = type { %"struct.std::_Rb_tree_key_compare.7", %"struct.std::_Rb_tree_header" }
%"struct.std::_Rb_tree_key_compare.7" = type { %"struct.cComponentType::Less" }
%"struct.cComponentType::Less" = type { i8 }
%class.cPar = type { %class.cObject, %class.cComponent*, %class.cParImpl* }
%class.cParImpl = type opaque
%class.cDisplayString = type opaque
%"struct.cGate::Desc" = type { %class.cModule*, %"struct.cGate::Name"*, i32, %union.anon.8, %union.anon.9 }
%"struct.cGate::Name" = type <{ %class.opp_string, %class.opp_string, %class.opp_string, i32, [4 x i8] }>
%class.opp_string = type { i8* }
%union.anon.8 = type { %class.cGate* }
%class.cGate = type { %class.cObject, %"struct.cGate::Desc"*, i32, %class.cChannel*, %class.cGate*, %class.cGate* }
%class.cChannel = type <{ %class.cComponent, %class.cGate*, i32, [4 x i8] }>
%union.anon.9 = type { %class.cGate* }
%"class.std::set.23" = type { %"class.std::_Rb_tree.24" }
%"class.std::_Rb_tree.24" = type { %"struct.std::_Rb_tree<cGate::Name, cGate::Name, std::_Identity<cGate::Name>, std::less<cGate::Name>, std::allocator<cGate::Name> >::_Rb_tree_impl" }
%"struct.std::_Rb_tree<cGate::Name, cGate::Name, std::_Identity<cGate::Name>, std::less<cGate::Name>, std::allocator<cGate::Name> >::_Rb_tree_impl" = type { %"struct.std::_Rb_tree_key_compare.28", %"struct.std::_Rb_tree_header" }
%"struct.std::_Rb_tree_key_compare.28" = type { %"struct.std::less.29" }
%"struct.std::less.29" = type { i8 }
%class.cEnvir = type { i32 (...)**, i8, i8, i8, %"class.std::basic_ostream" }
%"class.std::basic_ostream" = type { i32 (...)**, %"class.std::basic_ios" }
%"class.std::basic_ios" = type { %"class.std::ios_base", %"class.std::basic_ostream"*, i8, i8, %"class.std::basic_streambuf"*, %"class.std::ctype"*, %"class.std::num_put"*, %"class.std::num_get"* }
%"class.std::ios_base" = type { i32 (...)**, i64, i64, i32, i32, i32, %"struct.std::ios_base::_Callback_list"*, %"struct.std::ios_base::_Words", [8 x %"struct.std::ios_base::_Words"], i32, %"struct.std::ios_base::_Words"*, %"class.std::locale" }
%"struct.std::ios_base::_Callback_list" = type { %"struct.std::ios_base::_Callback_list"*, void (i32, %"class.std::ios_base"*, i32)*, i32, i32 }
%"struct.std::ios_base::_Words" = type { i8*, i64 }
%"class.std::locale" = type { %"class.std::locale::_Impl"* }
%"class.std::locale::_Impl" = type { i32, %"class.std::locale::facet"**, i64, %"class.std::locale::facet"**, i8** }
%"class.std::locale::facet" = type <{ i32 (...)**, i32, [4 x i8] }>
%"class.std::basic_streambuf" = type { i32 (...)**, i8*, i8*, i8*, i8*, i8*, i8*, %"class.std::locale" }
%"class.std::ctype" = type <{ %"class.std::locale::facet.base", [4 x i8], %struct.__locale_struct*, i8, [7 x i8], i32*, i32*, i16*, i8, [256 x i8], [256 x i8], i8, [6 x i8] }>
%"class.std::locale::facet.base" = type <{ i32 (...)**, i32 }>
%struct.__locale_struct = type { [13 x %struct.__locale_data*], i16*, i32*, i32*, [13 x i8*] }
%struct.__locale_data = type opaque
%"class.std::num_put" = type { %"class.std::locale::facet.base", [4 x i8] }
%"class.std::num_get" = type { %"class.std::locale::facet.base", [4 x i8] }
%class.cSimulation = type { %class.cNoncopyableOwnedObject.base, i32, i32, %class.cModule**, i32, %class.cEnvir*, %class.cModule*, %class.cSimpleModule*, %class.cComponent*, i32, %class.cModuleType*, %class.cScheduler*, %class.SimTime, i64, %class.cMessage*, %class.cException*, %class.cHasher*, %class.cMessageHeap }
%class.cSimpleModule = type { %class.cModule, %class.cMessage*, %class.cCoroutine* }
%class.cCoroutine = type opaque
%class.cModuleType = type { %class.cComponentType }
%class.cScheduler = type opaque
%class.SimTime = type { i64 }
%class.cMessage = type { %class.cOwnedObject.base, i16, i16, i16, %class.cArray*, %class.cObject*, i8*, i32, i32, i32, i32, %class.SimTime, %class.SimTime, %class.SimTime, %class.SimTime, i32, i64, i64, i64, i64 }
%class.cArray = type { %class.cOwnedObject.base, %class.cObject**, i32, i32, i32, i32 }
%class.cException = type <{ %"class.std::exception", i32, [4 x i8], %"class.std::__cxx11::basic_string", i8, [7 x i8], %"class.std::__cxx11::basic_string", %"class.std::__cxx11::basic_string", i32, [4 x i8] }>
%"class.std::exception" = type { i32 (...)** }
%class.cHasher = type opaque
%class.cMessageHeap = type { %class.cOwnedObject.base, %class.cMessage**, i32, i32, i64 }
%"class.cModule::SubmoduleIterator" = type { %class.cModule* }
%"class.cModule::GateIterator" = type <{ %class.cModule*, i32, i8, [3 x i8], i32, [4 x i8] }>
%class.cRuntimeError = type { %class.cException.base, [4 x i8] }
%class.cException.base = type <{ %"class.std::exception", i32, [4 x i8], %"class.std::__cxx11::basic_string", i8, [7 x i8], %"class.std::__cxx11::basic_string", %"class.std::__cxx11::basic_string", i32 }>
%class.cVisitor = type { i32 (...)** }
%class.cNamedObject = type <{ %class.cObject, i8*, i16, i16, [4 x i8] }>
%class.cProperties = type { %class.cObject, i8, i32, %"class.std::vector" }
%"class.std::vector" = type { %"struct.std::_Vector_base" }
%"struct.std::_Vector_base" = type { %"struct.std::_Vector_base<cProperty *, std::allocator<cProperty *> >::_Vector_impl" }
%"struct.std::_Vector_base<cProperty *, std::allocator<cProperty *> >::_Vector_impl" = type { %"struct.std::_Vector_base<cProperty *, std::allocator<cProperty *> >::_Vector_impl_data" }
%"struct.std::_Vector_base<cProperty *, std::allocator<cProperty *> >::_Vector_impl_data" = type { %class.cProperty**, %class.cProperty**, %class.cProperty** }
%class.cProperty = type { %class.cNamedObject.base, %class.cProperties*, i8*, i8*, %"class.std::vector.13", %"class.std::vector.18" }
%"class.std::vector.13" = type { %"struct.std::_Vector_base.14" }
%"struct.std::_Vector_base.14" = type { %"struct.std::_Vector_base<const char *, std::allocator<const char *> >::_Vector_impl" }
%"struct.std::_Vector_base<const char *, std::allocator<const char *> >::_Vector_impl" = type { %"struct.std::_Vector_base<const char *, std::allocator<const char *> >::_Vector_impl_data" }
%"struct.std::_Vector_base<const char *, std::allocator<const char *> >::_Vector_impl_data" = type { i8**, i8**, i8** }
%"class.std::vector.18" = type { %"struct.std::_Vector_base.19" }
%"struct.std::_Vector_base.19" = type { %"struct.std::_Vector_base<std::vector<const char *, std::allocator<const char *> >, std::allocator<std::vector<const char *, std::allocator<const char *> > > >::_Vector_impl" }
%"struct.std::_Vector_base<std::vector<const char *, std::allocator<const char *> >, std::allocator<std::vector<const char *, std::allocator<const char *> > > >::_Vector_impl" = type { %"struct.std::_Vector_base<std::vector<const char *, std::allocator<const char *> >, std::allocator<std::vector<const char *, std::allocator<const char *> > > >::_Vector_impl_data" }
%"struct.std::_Vector_base<std::vector<const char *, std::allocator<const char *> >, std::allocator<std::vector<const char *, std::allocator<const char *> > > >::_Vector_impl_data" = type { %"class.std::vector.13"*, %"class.std::vector.13"*, %"class.std::vector.13"* }
%"struct.std::_Rb_tree_const_iterator" = type { %"struct.std::_Rb_tree_node_base"* }
%"struct.std::pair" = type <{ %"struct.std::_Rb_tree_const_iterator", i8, [7 x i8] }>
%"struct.std::_Rb_tree_iterator" = type { %"struct.std::_Rb_tree_node_base"* }
%"struct.std::pair.36" = type <{ %"struct.std::_Rb_tree_iterator", i8, [7 x i8] }>
%"struct.std::_Rb_tree_node" = type { %"struct.std::_Rb_tree_node_base", %"struct.__gnu_cxx::__aligned_membuf" }
%"struct.__gnu_cxx::__aligned_membuf" = type { [32 x i8] }
%"class.std::allocator.15" = type { i8 }
%struct.less_gateConnectedInside = type { i8 }
%struct.less_gateConnectedOutside = type { i8 }
%"struct.__gnu_cxx::__ops::_Iter_comp_val" = type { %struct.less_gateConnectedInside }
%"struct.__gnu_cxx::__ops::_Iter_comp_val.43" = type { %struct.less_gateConnectedOutside }
%struct.less_gatePairConnectedInside = type { %class.cGate** }
%struct.less_gatePairConnectedOutside = type { %class.cGate** }
%"struct.__gnu_cxx::__ops::_Iter_comp_val.44" = type { %struct.less_gatePairConnectedInside }
%"struct.__gnu_cxx::__ops::_Iter_comp_val.45" = type { %struct.less_gatePairConnectedOutside }
%class.cContextSwitcher = type { %class.cComponent* }
%class.cContextTypeSwitcher = type { i32 }
%"class.cModule::ChannelIterator" = type <{ %"class.std::vector.31", i32, [4 x i8] }>
%"class.std::vector.31" = type { %"struct.std::_Vector_base.32" }
%"struct.std::_Vector_base.32" = type { %"struct.std::_Vector_base<cChannel *, std::allocator<cChannel *> >::_Vector_impl" }
%"struct.std::_Vector_base<cChannel *, std::allocator<cChannel *> >::_Vector_impl" = type { %"struct.std::_Vector_base<cChannel *, std::allocator<cChannel *> >::_Vector_impl_data" }
%"struct.std::_Vector_base<cChannel *, std::allocator<cChannel *> >::_Vector_impl_data" = type { %class.cChannel**, %class.cChannel**, %class.cChannel** }
%class.cMethodCallContextSwitcher = type { %class.cContextSwitcher }
%"class.std::type_info" = type { i32 (...)**, i8* }
%class.cClassDescriptor = type opaque
%class.cNoncopyableOwnedObject = type { %class.cOwnedObject.base, [4 x i8] }
%class.cCommBuffer = type opaque
%"class.std::allocator" = type { i8 }
%"class.std::allocator.25" = type { i8 }
%"class.__gnu_cxx::new_allocator.26" = type { i8 }
%"class.__gnu_cxx::new_allocator.16" = type { i8 }
%"class.std::allocator.33" = type { i8 }
%"class.__gnu_cxx::new_allocator.34" = type { i8 }
%"struct.std::_Identity" = type { i8 }
%"struct.std::pair.40" = type { %"struct.std::_Rb_tree_node_base"*, %"struct.std::_Rb_tree_node_base"* }
%"struct.std::_Rb_tree<cGate::Name, cGate::Name, std::_Identity<cGate::Name>, std::less<cGate::Name>, std::allocator<cGate::Name> >::_Alloc_node" = type { %"class.std::_Rb_tree.24"* }
%"class.std::__pair_base" = type { i8 }
%"class.std::__pair_base.37" = type { i8 }
%"class.std::__pair_base.41" = type { i8 }
%"class.__gnu_cxx::__normal_iterator" = type { i8** }
%"struct.std::integral_constant" = type { i8 }
%"struct.std::random_access_iterator_tag" = type { i8 }
%"class.__gnu_cxx::__normal_iterator.46" = type { %class.cChannel** }

$_ZN11cSimulation14getActiveEnvirEv = comdat any

$_ZN7cModule17SubmoduleIteratorC2EPKS_ = comdat any

$_ZNK7cModule17SubmoduleIterator3endEv = comdat any

$_ZNK7cModule17SubmoduleIteratorclEv = comdat any

$_ZN11cSimulation19getActiveSimulationEv = comdat any

$_ZNK11cSimulation17getActivityModuleEv = comdat any

$_ZN13cRuntimeErrorD2Ev = comdat any

$_ZN7cModule17SubmoduleIteratorppEi = comdat any

$_ZN7cModule12GateIteratorC2EPKS_ = comdat any

$_ZNK7cModule12GateIteratorclEv = comdat any

$_ZNK5cGate11getNextGateEv = comdat any

$_ZNK5cGate15getPreviousGateEv = comdat any

$__clang_call_terminate = comdat any

$_ZNK7cModule8isVectorEv = comdat any

$_Z10opp_strlenPKc = comdat any

$_Z15opp_appendindexPcj = comdat any

$_ZNK7cModule8getIndexEv = comdat any

$_ZStplIcSt11char_traitsIcESaIcEENSt7__cxx1112basic_stringIT_T0_T1_EEOS8_PKS5_ = comdat any

$_ZNSt3setIN5cGate4NameESt4lessIS1_ESaIS1_EEC2Ev = comdat any

$_ZNSt3setIN5cGate4NameESt4lessIS1_ESaIS1_EED2Ev = comdat any

$_ZNK5cGate4Desc8isVectorEv = comdat any

$_ZNK5cGate4Desc8gateSizeEv = comdat any

$_ZNSt3setIN5cGate4NameESt4lessIS1_ESaIS1_EE5clearEv = comdat any

$_ZN5cGate4DescC2Ev = comdat any

$_ZNSt3setIN5cGate4NameESt4lessIS1_ESaIS1_EE4findERKS1_ = comdat any

$_ZSteqRKSt23_Rb_tree_const_iteratorIN5cGate4NameEES4_ = comdat any

$_ZNKSt3setIN5cGate4NameESt4lessIS1_ESaIS1_EE3endEv = comdat any

$_ZNSt3setIN5cGate4NameESt4lessIS1_ESaIS1_EE6insertERKS1_ = comdat any

$_ZNKSt23_Rb_tree_const_iteratorIN5cGate4NameEEdeEv = comdat any

$_ZN5cGate4NameD2Ev = comdat any

$_ZNK10opp_string5c_strEv = comdat any

$_ZNK5cGate4Desc7getTypeEv = comdat any

$_ZNK5cGate4Desc7nameForENS_4TypeE = comdat any

$_ZN5cGate4Desc12setInputGateEPS_ = comdat any

$_ZN5cGate4Desc13setOutputGateEPS_ = comdat any

$_ZN5cGate4Desc11capacityForEi = comdat any

$_ZN5cGate4Desc12setInputGateEPS_i = comdat any

$_ZN5cGate4Desc13setOutputGateEPS_i = comdat any

$_ZNSt6vectorIPKcSaIS1_EEC2Ev = comdat any

$_ZNSt6vectorIPKcSaIS1_EE9push_backEOS1_ = comdat any

$_ZNSt6vectorIPKcSaIS1_EED2Ev = comdat any

$_ZSt11lower_boundIPP5cGateS1_24less_gateConnectedInsideET_S4_S4_RKT0_T1_ = comdat any

$_ZSt11lower_boundIPP5cGateS1_25less_gateConnectedOutsideET_S4_S4_RKT0_T1_ = comdat any

$_ZSt11lower_boundIPP5cGateS1_28less_gatePairConnectedInsideET_S4_S4_RKT0_T1_ = comdat any

$_ZN28less_gatePairConnectedInsideC2EPP5cGate = comdat any

$_ZSt11lower_boundIPP5cGateS1_29less_gatePairConnectedOutsideET_S4_S4_RKT0_T1_ = comdat any

$_ZN29less_gatePairConnectedOutsideC2EPP5cGate = comdat any

$_ZNK5cGate8getIndexEv = comdat any

$_ZNK5cGate4sizeEv = comdat any

$_ZNK7cObject6isNameEPKc = comdat any

$_ZNK7cModule5getIdEv = comdat any

$_ZN10opp_stringC2EPKc = comdat any

$_ZN10opp_string6bufferEv = comdat any

$_ZN10opp_stringD2Ev = comdat any

$_ZNK7cModule13getModuleTypeEv = comdat any

$_ZNK7cModule17buildInsideCalledEv = comdat any

$_ZNK10cComponent19parametersFinalizedEv = comdat any

$_ZN12cNamedObject7setFlagEib = comdat any

$_ZNK11cSimulation14getContextTypeEv = comdat any

$_ZN7cModule15ChannelIteratorC2EPKS_ = comdat any

$_ZNK7cModule15ChannelIterator3endEv = comdat any

$_ZN7cModule15ChannelIteratorclEv = comdat any

$_ZN7cModule15ChannelIteratorppEi = comdat any

$_ZN7cModule15ChannelIteratorD2Ev = comdat any

$_ZNK10cComponent11initializedEv = comdat any

$_ZNSt6vectorIP8cChannelSaIS1_EE5clearEv = comdat any

$_ZNK5cGate10getChannelEv = comdat any

$_ZNK5cGate7getTypeEv = comdat any

$_ZNSt6vectorIP8cChannelSaIS1_EE9push_backEOS1_ = comdat any

$_ZNK12cNamedObject7getNameEv = comdat any

$_ZNK12cOwnedObject8getOwnerEv = comdat any

$_ZNK12cOwnedObject13isOwnedObjectEv = comdat any

$_ZN12cNamedObject14getNamePoolingEv = comdat any

$_ZNK12cDefaultList11isSoftOwnerEv = comdat any

$_ZN12cDefaultList17setPerformFinalGCEb = comdat any

$_ZN10cComponent10initializeEi = comdat any

$_ZNK10cComponent13numInitStagesEv = comdat any

$_ZNK7cModule8isModuleEv = comdat any

$_ZNK10cComponent12getNumParamsEv = comdat any

$_ZN7cModule13doBuildInsideEv = comdat any

$_ZNK7cModule13isPlaceholderEv = comdat any

$_ZN7cModule17SubmoduleIterator4initEPKS_ = comdat any

$_ZN10cExceptionD2Ev = comdat any

$_ZN10cExceptionD0Ev = comdat any

$_ZNK10cException4whatEv = comdat any

$_ZNK10cException3dupEv = comdat any

$_ZNK10cException12getErrorCodeEv = comdat any

$_ZN10cException10setMessageEPKc = comdat any

$_ZN10cException14prependMessageEPKc = comdat any

$_ZNK10cException10hasContextEv = comdat any

$_ZNK10cException19getContextClassNameEv = comdat any

$_ZNK10cException18getContextFullPathEv = comdat any

$_ZNK10cException11getModuleIDEv = comdat any

$_ZStplIcSt11char_traitsIcESaIcEENSt7__cxx1112basic_stringIT_T0_T1_EEOS8_RKS8_ = comdat any

$_ZSt4moveIRNSt7__cxx1112basic_stringIcSt11char_traitsIcESaIcEEEEONSt16remove_referenceIT_E4typeEOS8_ = comdat any

$_ZNSt8_Rb_treeIN5cGate4NameES1_St9_IdentityIS1_ESt4lessIS1_ESaIS1_EEC2Ev = comdat any

$_ZNSt8_Rb_treeIN5cGate4NameES1_St9_IdentityIS1_ESt4lessIS1_ESaIS1_EE13_Rb_tree_implIS5_Lb1EEC2Ev = comdat any

$_ZNSaISt13_Rb_tree_nodeIN5cGate4NameEEEC2Ev = comdat any

$_ZNSt20_Rb_tree_key_compareISt4lessIN5cGate4NameEEEC2Ev = comdat any

$_ZNSt15_Rb_tree_headerC2Ev = comdat any

$_ZN9__gnu_cxx13new_allocatorISt13_Rb_tree_nodeIN5cGate4NameEEEC2Ev = comdat any

$_ZNSt15_Rb_tree_header8_M_resetEv = comdat any

$_ZNSt8_Rb_treeIN5cGate4NameES1_St9_IdentityIS1_ESt4lessIS1_ESaIS1_EED2Ev = comdat any

$_ZNSt8_Rb_treeIN5cGate4NameES1_St9_IdentityIS1_ESt4lessIS1_ESaIS1_EE8_M_eraseEPSt13_Rb_tree_nodeIS1_E = comdat any

$_ZNSt8_Rb_treeIN5cGate4NameES1_St9_IdentityIS1_ESt4lessIS1_ESaIS1_EE8_M_beginEv = comdat any

$_ZNSt8_Rb_treeIN5cGate4NameES1_St9_IdentityIS1_ESt4lessIS1_ESaIS1_EE13_Rb_tree_implIS5_Lb1EED2Ev = comdat any

$_ZNSt8_Rb_treeIN5cGate4NameES1_St9_IdentityIS1_ESt4lessIS1_ESaIS1_EE8_S_rightEPSt18_Rb_tree_node_base = comdat any

$_ZNSt8_Rb_treeIN5cGate4NameES1_St9_IdentityIS1_ESt4lessIS1_ESaIS1_EE7_S_leftEPSt18_Rb_tree_node_base = comdat any

$_ZNSt8_Rb_treeIN5cGate4NameES1_St9_IdentityIS1_ESt4lessIS1_ESaIS1_EE12_M_drop_nodeEPSt13_Rb_tree_nodeIS1_E = comdat any

$_ZNSt8_Rb_treeIN5cGate4NameES1_St9_IdentityIS1_ESt4lessIS1_ESaIS1_EE15_M_destroy_nodeEPSt13_Rb_tree_nodeIS1_E = comdat any

$_ZNSt8_Rb_treeIN5cGate4NameES1_St9_IdentityIS1_ESt4lessIS1_ESaIS1_EE11_M_put_nodeEPSt13_Rb_tree_nodeIS1_E = comdat any

$_ZNSt16allocator_traitsISaISt13_Rb_tree_nodeIN5cGate4NameEEEE7destroyIS2_EEvRS4_PT_ = comdat any

$_ZNSt8_Rb_treeIN5cGate4NameES1_St9_IdentityIS1_ESt4lessIS1_ESaIS1_EE21_M_get_Node_allocatorEv = comdat any

$_ZNSt13_Rb_tree_nodeIN5cGate4NameEE9_M_valptrEv = comdat any

$_ZN9__gnu_cxx13new_allocatorISt13_Rb_tree_nodeIN5cGate4NameEEE7destroyIS3_EEvPT_ = comdat any

$_ZN9__gnu_cxx16__aligned_membufIN5cGate4NameEE6_M_ptrEv = comdat any

$_ZN9__gnu_cxx16__aligned_membufIN5cGate4NameEE7_M_addrEv = comdat any

$_ZNSt16allocator_traitsISaISt13_Rb_tree_nodeIN5cGate4NameEEEE10deallocateERS4_PS3_m = comdat any

$_ZN9__gnu_cxx13new_allocatorISt13_Rb_tree_nodeIN5cGate4NameEEE10deallocateEPS4_m = comdat any

$_ZNSaISt13_Rb_tree_nodeIN5cGate4NameEEED2Ev = comdat any

$_ZN9__gnu_cxx13new_allocatorISt13_Rb_tree_nodeIN5cGate4NameEEED2Ev = comdat any

$_ZNSt12_Vector_baseIPKcSaIS1_EEC2Ev = comdat any

$_ZNSt12_Vector_baseIPKcSaIS1_EE12_Vector_implC2Ev = comdat any

$_ZNSaIPKcEC2Ev = comdat any

$_ZNSt12_Vector_baseIPKcSaIS1_EE17_Vector_impl_dataC2Ev = comdat any

$_ZN9__gnu_cxx13new_allocatorIPKcEC2Ev = comdat any

$_ZNK5cGate4Desc7indexOfEPKS_ = comdat any

$_ZNK5cGate13getVectorSizeEv = comdat any

$_Z10opp_strcmpPKcS0_ = comdat any

$_Z10opp_strdupPKc = comdat any

$_ZNSt6vectorIP8cChannelSaIS1_EEC2Ev = comdat any

$_ZNSt6vectorIP8cChannelSaIS1_EED2Ev = comdat any

$_ZNSt12_Vector_baseIP8cChannelSaIS1_EEC2Ev = comdat any

$_ZNSt12_Vector_baseIP8cChannelSaIS1_EE12_Vector_implC2Ev = comdat any

$_ZNSaIP8cChannelEC2Ev = comdat any

$_ZNSt12_Vector_baseIP8cChannelSaIS1_EE17_Vector_impl_dataC2Ev = comdat any

$_ZN9__gnu_cxx13new_allocatorIP8cChannelEC2Ev = comdat any

$_ZSt8_DestroyIPP8cChannelS1_EvT_S3_RSaIT0_E = comdat any

$_ZNSt12_Vector_baseIP8cChannelSaIS1_EE19_M_get_Tp_allocatorEv = comdat any

$_ZNSt12_Vector_baseIP8cChannelSaIS1_EED2Ev = comdat any

$_ZSt8_DestroyIPP8cChannelEvT_S3_ = comdat any

$_ZNSt12_Destroy_auxILb1EE9__destroyIPP8cChannelEEvT_S5_ = comdat any

$_ZNSt12_Vector_baseIP8cChannelSaIS1_EE13_M_deallocateEPS1_m = comdat any

$_ZNSt12_Vector_baseIP8cChannelSaIS1_EE12_Vector_implD2Ev = comdat any

$_ZNSt16allocator_traitsISaIP8cChannelEE10deallocateERS2_PS1_m = comdat any

$_ZN9__gnu_cxx13new_allocatorIP8cChannelE10deallocateEPS2_m = comdat any

$_ZNSaIP8cChannelED2Ev = comdat any

$_ZN9__gnu_cxx13new_allocatorIP8cChannelED2Ev = comdat any

$_ZNKSt6vectorIP8cChannelSaIS1_EE4sizeEv = comdat any

$_ZNSt6vectorIP8cChannelSaIS1_EEixEm = comdat any

$_ZNK5cGate4Desc9getTypeOfEPKS_ = comdat any

$_ZSt8_DestroyIPPKcS1_EvT_S3_RSaIT0_E = comdat any

$_ZNSt12_Vector_baseIPKcSaIS1_EE19_M_get_Tp_allocatorEv = comdat any

$_ZNSt12_Vector_baseIPKcSaIS1_EED2Ev = comdat any

$_ZSt8_DestroyIPPKcEvT_S3_ = comdat any

$_ZNSt12_Destroy_auxILb1EE9__destroyIPPKcEEvT_S5_ = comdat any

$_ZNSt12_Vector_baseIPKcSaIS1_EE13_M_deallocateEPS1_m = comdat any

$_ZNSt12_Vector_baseIPKcSaIS1_EE12_Vector_implD2Ev = comdat any

$_ZNSt16allocator_traitsISaIPKcEE10deallocateERS2_PS1_m = comdat any

$_ZN9__gnu_cxx13new_allocatorIPKcE10deallocateEPS2_m = comdat any

$_ZNSaIPKcED2Ev = comdat any

$_ZN9__gnu_cxx13new_allocatorIPKcED2Ev = comdat any

$_ZNSt8_Rb_treeIN5cGate4NameES1_St9_IdentityIS1_ESt4lessIS1_ESaIS1_EE5clearEv = comdat any

$_ZNSt8_Rb_treeIN5cGate4NameES1_St9_IdentityIS1_ESt4lessIS1_ESaIS1_EE4findERKS1_ = comdat any

$_ZNSt23_Rb_tree_const_iteratorIN5cGate4NameEEC2ERKSt17_Rb_tree_iteratorIS1_E = comdat any

$_ZNSt8_Rb_treeIN5cGate4NameES1_St9_IdentityIS1_ESt4lessIS1_ESaIS1_EE14_M_lower_boundEPSt13_Rb_tree_nodeIS1_EPSt18_Rb_tree_node_baseRKS1_ = comdat any

$_ZNSt8_Rb_treeIN5cGate4NameES1_St9_IdentityIS1_ESt4lessIS1_ESaIS1_EE6_M_endEv = comdat any

$_ZSteqRKSt17_Rb_tree_iteratorIN5cGate4NameEES4_ = comdat any

$_ZNSt8_Rb_treeIN5cGate4NameES1_St9_IdentityIS1_ESt4lessIS1_ESaIS1_EE3endEv = comdat any

$_ZNKSt4lessIN5cGate4NameEEclERKS1_S4_ = comdat any

$_ZNSt8_Rb_treeIN5cGate4NameES1_St9_IdentityIS1_ESt4lessIS1_ESaIS1_EE6_S_keyEPKSt18_Rb_tree_node_base = comdat any

$_ZNSt8_Rb_treeIN5cGate4NameES1_St9_IdentityIS1_ESt4lessIS1_ESaIS1_EE6_S_keyEPKSt13_Rb_tree_nodeIS1_E = comdat any

$_ZNSt17_Rb_tree_iteratorIN5cGate4NameEEC2EPSt18_Rb_tree_node_base = comdat any

$_ZNKSt9_IdentityIN5cGate4NameEEclERKS1_ = comdat any

$_ZNKSt13_Rb_tree_nodeIN5cGate4NameEE9_M_valptrEv = comdat any

$_ZNK9__gnu_cxx16__aligned_membufIN5cGate4NameEE6_M_ptrEv = comdat any

$_ZNK9__gnu_cxx16__aligned_membufIN5cGate4NameEE7_M_addrEv = comdat any

$_ZNKSt8_Rb_treeIN5cGate4NameES1_St9_IdentityIS1_ESt4lessIS1_ESaIS1_EE3endEv = comdat any

$_ZNSt23_Rb_tree_const_iteratorIN5cGate4NameEEC2EPKSt18_Rb_tree_node_base = comdat any

$_ZNSt8_Rb_treeIN5cGate4NameES1_St9_IdentityIS1_ESt4lessIS1_ESaIS1_EE16_M_insert_uniqueIRKS1_EESt4pairISt17_Rb_tree_iteratorIS1_EbEOT_ = comdat any

$_ZNSt4pairISt23_Rb_tree_const_iteratorIN5cGate4NameEEbEC2IRSt17_Rb_tree_iteratorIS2_ERbLb1EEEOT_OT0_ = comdat any

$_ZNSt8_Rb_treeIN5cGate4NameES1_St9_IdentityIS1_ESt4lessIS1_ESaIS1_EE24_M_get_insert_unique_posERKS1_ = comdat any

$_ZNSt8_Rb_treeIN5cGate4NameES1_St9_IdentityIS1_ESt4lessIS1_ESaIS1_EE11_Alloc_nodeC2ERS7_ = comdat any

$_ZNSt8_Rb_treeIN5cGate4NameES1_St9_IdentityIS1_ESt4lessIS1_ESaIS1_EE10_M_insert_IRKS1_NS7_11_Alloc_nodeEEESt17_Rb_tree_iteratorIS1_EPSt18_Rb_tree_node_baseSF_OT_RT0_ = comdat any

$_ZSt7forwardIRKN5cGate4NameEEOT_RNSt16remove_referenceIS4_E4typeE = comdat any

$_ZNSt4pairISt17_Rb_tree_iteratorIN5cGate4NameEEbEC2IS3_bLb1EEEOT_OT0_ = comdat any

$_ZNSt8_Rb_treeIN5cGate4NameES1_St9_IdentityIS1_ESt4lessIS1_ESaIS1_EE5beginEv = comdat any

$_ZNSt4pairIPSt18_Rb_tree_node_baseS1_EC2IRPSt13_Rb_tree_nodeIN5cGate4NameEERS1_Lb1EEEOT_OT0_ = comdat any

$_ZNSt17_Rb_tree_iteratorIN5cGate4NameEEmmEv = comdat any

$_ZNSt4pairIPSt18_Rb_tree_node_baseS1_EC2IRS1_Lb1EEEOT_RKS1_ = comdat any

$_ZSt7forwardIRPSt13_Rb_tree_nodeIN5cGate4NameEEEOT_RNSt16remove_referenceIS6_E4typeE = comdat any

$_ZSt7forwardIRPSt18_Rb_tree_node_baseEOT_RNSt16remove_referenceIS3_E4typeE = comdat any

$_ZNKSt8_Rb_treeIN5cGate4NameES1_St9_IdentityIS1_ESt4lessIS1_ESaIS1_EE11_Alloc_nodeclIRKS1_EEPSt13_Rb_tree_nodeIS1_EOT_ = comdat any

$_ZNSt8_Rb_treeIN5cGate4NameES1_St9_IdentityIS1_ESt4lessIS1_ESaIS1_EE14_M_create_nodeIJRKS1_EEEPSt13_Rb_tree_nodeIS1_EDpOT_ = comdat any

$_ZNSt8_Rb_treeIN5cGate4NameES1_St9_IdentityIS1_ESt4lessIS1_ESaIS1_EE11_M_get_nodeEv = comdat any

$_ZNSt8_Rb_treeIN5cGate4NameES1_St9_IdentityIS1_ESt4lessIS1_ESaIS1_EE17_M_construct_nodeIJRKS1_EEEvPSt13_Rb_tree_nodeIS1_EDpOT_ = comdat any

$_ZNSt16allocator_traitsISaISt13_Rb_tree_nodeIN5cGate4NameEEEE8allocateERS4_m = comdat any

$_ZN9__gnu_cxx13new_allocatorISt13_Rb_tree_nodeIN5cGate4NameEEE8allocateEmPKv = comdat any

$_ZNK9__gnu_cxx13new_allocatorISt13_Rb_tree_nodeIN5cGate4NameEEE11_M_max_sizeEv = comdat any

$_ZNSt16allocator_traitsISaISt13_Rb_tree_nodeIN5cGate4NameEEEE9constructIS2_JRKS2_EEEvRS4_PT_DpOT0_ = comdat any

$_ZN9__gnu_cxx13new_allocatorISt13_Rb_tree_nodeIN5cGate4NameEEE9constructIS3_JRKS3_EEEvPT_DpOT0_ = comdat any

$_ZN5cGate4NameC2ERKS0_ = comdat any

$_ZN10opp_stringC2ERKS_ = comdat any

$_ZSt7forwardISt17_Rb_tree_iteratorIN5cGate4NameEEEOT_RNSt16remove_referenceIS4_E4typeE = comdat any

$_ZSt7forwardIbEOT_RNSt16remove_referenceIS0_E4typeE = comdat any

$_ZSt7forwardIRSt17_Rb_tree_iteratorIN5cGate4NameEEEOT_RNSt16remove_referenceIS5_E4typeE = comdat any

$_ZSt7forwardIRbEOT_RNSt16remove_referenceIS1_E4typeE = comdat any

$_ZNSt6vectorIPKcSaIS1_EE12emplace_backIJS1_EEEvDpOT_ = comdat any

$_ZSt4moveIRPKcEONSt16remove_referenceIT_E4typeEOS4_ = comdat any

$_ZNSt16allocator_traitsISaIPKcEE9constructIS1_JS1_EEEvRS2_PT_DpOT0_ = comdat any

$_ZSt7forwardIPKcEOT_RNSt16remove_referenceIS2_E4typeE = comdat any

$_ZNSt6vectorIPKcSaIS1_EE17_M_realloc_insertIJS1_EEEvN9__gnu_cxx17__normal_iteratorIPS1_S3_EEDpOT_ = comdat any

$_ZNSt6vectorIPKcSaIS1_EE3endEv = comdat any

$_ZN9__gnu_cxx13new_allocatorIPKcE9constructIS2_JS2_EEEvPT_DpOT0_ = comdat any

$_ZNKSt6vectorIPKcSaIS1_EE12_M_check_lenEmS1_ = comdat any

$_ZN9__gnu_cxxmiIPPKcSt6vectorIS2_SaIS2_EEEENS_17__normal_iteratorIT_T0_E15difference_typeERKSA_SD_ = comdat any

$_ZNSt6vectorIPKcSaIS1_EE5beginEv = comdat any

$_ZNSt12_Vector_baseIPKcSaIS1_EE11_M_allocateEm = comdat any

$_ZNSt6vectorIPKcSaIS1_EE11_S_relocateEPS1_S4_S4_RS2_ = comdat any

$_ZNK9__gnu_cxx17__normal_iteratorIPPKcSt6vectorIS2_SaIS2_EEE4baseEv = comdat any

$_ZNKSt6vectorIPKcSaIS1_EE8max_sizeEv = comdat any

$_ZNKSt6vectorIPKcSaIS1_EE4sizeEv = comdat any

$_ZSt3maxImERKT_S2_S2_ = comdat any

$_ZNSt6vectorIPKcSaIS1_EE11_S_max_sizeERKS2_ = comdat any

$_ZNKSt12_Vector_baseIPKcSaIS1_EE19_M_get_Tp_allocatorEv = comdat any

$_ZNSt16allocator_traitsISaIPKcEE8max_sizeERKS2_ = comdat any

$_ZSt3minImERKT_S2_S2_ = comdat any

$_ZNK9__gnu_cxx13new_allocatorIPKcE8max_sizeEv = comdat any

$_ZNK9__gnu_cxx13new_allocatorIPKcE11_M_max_sizeEv = comdat any

$_ZN9__gnu_cxx17__normal_iteratorIPPKcSt6vectorIS2_SaIS2_EEEC2ERKS3_ = comdat any

$_ZNSt16allocator_traitsISaIPKcEE8allocateERS2_m = comdat any

$_ZN9__gnu_cxx13new_allocatorIPKcE8allocateEmPKv = comdat any

$_ZNSt6vectorIPKcSaIS1_EE14_S_do_relocateEPS1_S4_S4_RS2_St17integral_constantIbLb1EE = comdat any

$_ZSt12__relocate_aIPPKcS2_SaIS1_EET0_T_S5_S4_RT1_ = comdat any

$_ZSt14__relocate_a_1IPKcS1_ENSt9enable_ifIXsr3std24__is_bitwise_relocatableIT_EE5valueEPS3_E4typeES4_S4_S4_RSaIT0_E = comdat any

$_ZSt12__niter_baseIPPKcET_S3_ = comdat any

$_ZSt13__lower_boundIPP5cGateS1_N9__gnu_cxx5__ops14_Iter_comp_valI24less_gateConnectedInsideEEET_S8_S8_RKT0_T1_ = comdat any

$_ZN9__gnu_cxx5__ops15__iter_comp_valI24less_gateConnectedInsideEENS0_14_Iter_comp_valIT_EES4_ = comdat any

$_ZSt8distanceIPP5cGateENSt15iterator_traitsIT_E15difference_typeES4_S4_ = comdat any

$_ZSt7advanceIPP5cGatelEvRT_T0_ = comdat any

$_ZN9__gnu_cxx5__ops14_Iter_comp_valI24less_gateConnectedInsideEclIPP5cGateKS6_EEbT_RT0_ = comdat any

$_ZSt10__distanceIPP5cGateENSt15iterator_traitsIT_E15difference_typeES4_S4_St26random_access_iterator_tag = comdat any

$_ZSt19__iterator_categoryIPP5cGateENSt15iterator_traitsIT_E17iterator_categoryERKS4_ = comdat any

$_ZSt9__advanceIPP5cGatelEvRT_T0_St26random_access_iterator_tag = comdat any

$_ZN24less_gateConnectedInsideclEP5cGateS1_ = comdat any

$_ZSt4moveIR24less_gateConnectedInsideEONSt16remove_referenceIT_E4typeEOS3_ = comdat any

$_ZN9__gnu_cxx5__ops14_Iter_comp_valI24less_gateConnectedInsideEC2ES2_ = comdat any

$_ZSt13__lower_boundIPP5cGateS1_N9__gnu_cxx5__ops14_Iter_comp_valI25less_gateConnectedOutsideEEET_S8_S8_RKT0_T1_ = comdat any

$_ZN9__gnu_cxx5__ops15__iter_comp_valI25less_gateConnectedOutsideEENS0_14_Iter_comp_valIT_EES4_ = comdat any

$_ZN9__gnu_cxx5__ops14_Iter_comp_valI25less_gateConnectedOutsideEclIPP5cGateKS6_EEbT_RT0_ = comdat any

$_ZN25less_gateConnectedOutsideclEP5cGateS1_ = comdat any

$_ZSt4moveIR25less_gateConnectedOutsideEONSt16remove_referenceIT_E4typeEOS3_ = comdat any

$_ZN9__gnu_cxx5__ops14_Iter_comp_valI25less_gateConnectedOutsideEC2ES2_ = comdat any

$_ZSt13__lower_boundIPP5cGateS1_N9__gnu_cxx5__ops14_Iter_comp_valI28less_gatePairConnectedInsideEEET_S8_S8_RKT0_T1_ = comdat any

$_ZN9__gnu_cxx5__ops15__iter_comp_valI28less_gatePairConnectedInsideEENS0_14_Iter_comp_valIT_EES4_ = comdat any

$_ZN9__gnu_cxx5__ops14_Iter_comp_valI28less_gatePairConnectedInsideEclIPP5cGateKS6_EEbT_RT0_ = comdat any

$_ZN28less_gatePairConnectedInsideclEP5cGateS1_ = comdat any

$_ZSt4moveIR28less_gatePairConnectedInsideEONSt16remove_referenceIT_E4typeEOS3_ = comdat any

$_ZN9__gnu_cxx5__ops14_Iter_comp_valI28less_gatePairConnectedInsideEC2ES2_ = comdat any

$_ZSt13__lower_boundIPP5cGateS1_N9__gnu_cxx5__ops14_Iter_comp_valI29less_gatePairConnectedOutsideEEET_S8_S8_RKT0_T1_ = comdat any

$_ZN9__gnu_cxx5__ops15__iter_comp_valI29less_gatePairConnectedOutsideEENS0_14_Iter_comp_valIT_EES4_ = comdat any

$_ZN9__gnu_cxx5__ops14_Iter_comp_valI29less_gatePairConnectedOutsideEclIPP5cGateKS6_EEbT_RT0_ = comdat any

$_ZN29less_gatePairConnectedOutsideclEP5cGateS1_ = comdat any

$_ZSt4moveIR29less_gatePairConnectedOutsideEONSt16remove_referenceIT_E4typeEOS3_ = comdat any

$_ZN9__gnu_cxx5__ops14_Iter_comp_valI29less_gatePairConnectedOutsideEC2ES2_ = comdat any

$_ZNSt6vectorIP8cChannelSaIS1_EE15_M_erase_at_endEPS1_ = comdat any

$_ZNSt6vectorIP8cChannelSaIS1_EE12emplace_backIJS1_EEEvDpOT_ = comdat any

$_ZSt4moveIRP8cChannelEONSt16remove_referenceIT_E4typeEOS4_ = comdat any

$_ZNSt16allocator_traitsISaIP8cChannelEE9constructIS1_JS1_EEEvRS2_PT_DpOT0_ = comdat any

$_ZSt7forwardIP8cChannelEOT_RNSt16remove_referenceIS2_E4typeE = comdat any

$_ZNSt6vectorIP8cChannelSaIS1_EE17_M_realloc_insertIJS1_EEEvN9__gnu_cxx17__normal_iteratorIPS1_S3_EEDpOT_ = comdat any

$_ZNSt6vectorIP8cChannelSaIS1_EE3endEv = comdat any

$_ZN9__gnu_cxx13new_allocatorIP8cChannelE9constructIS2_JS2_EEEvPT_DpOT0_ = comdat any

$_ZNKSt6vectorIP8cChannelSaIS1_EE12_M_check_lenEmPKc = comdat any

$_ZN9__gnu_cxxmiIPP8cChannelSt6vectorIS2_SaIS2_EEEENS_17__normal_iteratorIT_T0_E15difference_typeERKSA_SD_ = comdat any

$_ZNSt6vectorIP8cChannelSaIS1_EE5beginEv = comdat any

$_ZNSt12_Vector_baseIP8cChannelSaIS1_EE11_M_allocateEm = comdat any

$_ZNSt6vectorIP8cChannelSaIS1_EE11_S_relocateEPS1_S4_S4_RS2_ = comdat any

$_ZNK9__gnu_cxx17__normal_iteratorIPP8cChannelSt6vectorIS2_SaIS2_EEE4baseEv = comdat any

$_ZNKSt6vectorIP8cChannelSaIS1_EE8max_sizeEv = comdat any

$_ZNSt6vectorIP8cChannelSaIS1_EE11_S_max_sizeERKS2_ = comdat any

$_ZNKSt12_Vector_baseIP8cChannelSaIS1_EE19_M_get_Tp_allocatorEv = comdat any

$_ZNSt16allocator_traitsISaIP8cChannelEE8max_sizeERKS2_ = comdat any

$_ZNK9__gnu_cxx13new_allocatorIP8cChannelE8max_sizeEv = comdat any

$_ZNK9__gnu_cxx13new_allocatorIP8cChannelE11_M_max_sizeEv = comdat any

$_ZN9__gnu_cxx17__normal_iteratorIPP8cChannelSt6vectorIS2_SaIS2_EEEC2ERKS3_ = comdat any

$_ZNSt16allocator_traitsISaIP8cChannelEE8allocateERS2_m = comdat any

$_ZN9__gnu_cxx13new_allocatorIP8cChannelE8allocateEmPKv = comdat any

$_ZNSt6vectorIP8cChannelSaIS1_EE14_S_do_relocateEPS1_S4_S4_RS2_St17integral_constantIbLb1EE = comdat any

$_ZSt12__relocate_aIPP8cChannelS2_SaIS1_EET0_T_S5_S4_RT1_ = comdat any

$_ZSt14__relocate_a_1IP8cChannelS1_ENSt9enable_ifIXsr3std24__is_bitwise_relocatableIT_EE5valueEPS3_E4typeES4_S4_S4_RSaIT0_E = comdat any

$_ZSt12__niter_baseIPP8cChannelET_S3_ = comdat any

$_ZTS13cRuntimeError = comdat any

$_ZTS10cException = comdat any

$_ZTI10cException = comdat any

$_ZTI13cRuntimeError = comdat any

$_ZTV10cException = comdat any

@_ZStL8__ioinit = internal global %"class.std::ios_base::Init" zeroinitializer, align 1, !dbg !0
@__dso_handle = external hidden global i8
@_ZN7cModule18lastmodulefullpathB5cxx11E = dso_local global %"class.std::__cxx11::basic_string" zeroinitializer, align 8, !dbg !28
@_ZN7cModule21lastmodulefullpathmodE = dso_local global %class.cModule* null, align 8, !dbg !2638
@_ZTV7cModule = dso_local unnamed_addr constant { [75 x i8*] } { [75 x i8*] [i8* null, i8* bitcast ({ i8*, i8*, i8* }* @_ZTI7cModule to i8*), i8* bitcast (%class.cClassDescriptor* (%class.cObject*)* @_ZN7cObject13getDescriptorEv to i8*), i8* bitcast (void (%class.cDefaultList*, %class.cOwnedObject*)* @_ZN12cDefaultList18ownedObjectDeletedEP12cOwnedObject to i8*), i8* bitcast (void (%class.cDefaultList*, %class.cOwnedObject*, %class.cObject*)* @_ZN12cDefaultList14yieldOwnershipEP12cOwnedObjectP7cObject to i8*), i8* bitcast (void (%class.cModule*)* @_ZN7cModuleD1Ev to i8*), i8* bitcast (void (%class.cModule*)* @_ZN7cModuleD0Ev to i8*), i8* bitcast (i8* (%class.cObject*)* @_ZNK7cObject12getClassNameEv to i8*), i8* bitcast (i8* (%class.cNamedObject*)* @_ZNK12cNamedObject7getNameEv to i8*), i8* bitcast (i8* (%class.cModule*)* @_ZNK7cModule11getFullNameEv to i8*), i8* bitcast (void (%"class.std::__cxx11::basic_string"*, %class.cModule*)* @_ZNK7cModule11getFullPathB5cxx11Ev to i8*), i8* bitcast (void (%"class.std::__cxx11::basic_string"*, %class.cDefaultList*)* @_ZNK12cDefaultList4infoB5cxx11Ev to i8*), i8* bitcast (void (%"class.std::__cxx11::basic_string"*, %class.cObject*)* @_ZNK7cObject12detailedInfoB5cxx11Ev to i8*), i8* bitcast (%class.cNoncopyableOwnedObject* (%class.cNoncopyableOwnedObject*)* @_ZNK23cNoncopyableOwnedObject3dupEv to i8*), i8* bitcast (void (%class.cDefaultList*, %class.cOwnedObject*)* @_ZN12cDefaultList4takeEP12cOwnedObject to i8*), i8* bitcast (void (%class.cDefaultList*, %class.cOwnedObject*)* @_ZN12cDefaultList4dropEP12cOwnedObject to i8*), i8* bitcast (void (%class.cDefaultList*, %class.cCommBuffer*)* @_ZN12cDefaultList10parsimPackEP11cCommBuffer to i8*), i8* bitcast (void (%class.cDefaultList*, %class.cCommBuffer*)* @_ZN12cDefaultList12parsimUnpackEP11cCommBuffer to i8*), i8* bitcast (%class.cObject* (%class.cOwnedObject*)* @_ZNK12cOwnedObject8getOwnerEv to i8*), i8* bitcast (i1 (%class.cOwnedObject*)* @_ZNK12cOwnedObject13isOwnedObjectEv to i8*), i8* bitcast (void (%class.cModule*, %class.cVisitor*)* @_ZN7cModule12forEachChildEP8cVisitor to i8*), i8* bitcast (void (%class.cModule*, i8*)* @_ZN7cModule7setNameEPKc to i8*), i8* bitcast (void (%class.cNamedObject*, i1)* @_ZN12cNamedObject14setNamePoolingEb to i8*), i8* bitcast (i1 (%class.cNamedObject*)* @_ZN12cNamedObject14getNamePoolingEv to i8*), i8* bitcast (void (%class.cOwnedObject*)* @_ZN12cOwnedObject23removeFromOwnershipTreeEv to i8*), i8* bitcast (i1 (%class.cDefaultList*)* @_ZNK12cDefaultList11isSoftOwnerEv to i8*), i8* bitcast (void (%class.cDefaultList*, i1)* @_ZN12cDefaultList17setPerformFinalGCEb to i8*), i8* bitcast (void (%class.cComponent*, %class.cComponentType*)* @_ZN10cComponent16setComponentTypeEP14cComponentType to i8*), i8* bitcast (void (%class.cComponent*, %class.cParImpl*)* @_ZN10cComponent6addParEP8cParImpl to i8*), i8* bitcast (void (%class.cComponent*)* @_ZN10cComponent25recordParametersAsScalarsEv to i8*), i8* bitcast (void (%class.cComponent*, i32)* @_ZN10cComponent10initializeEi to i8*), i8* bitcast (i32 (%class.cComponent*)* @_ZNK10cComponent13numInitStagesEv to i8*), i8* bitcast (void (%class.cComponent*)* @_ZN10cComponent10initializeEv to i8*), i8* bitcast (void (%class.cComponent*)* @_ZN10cComponent6finishEv to i8*), i8* bitcast (void (%class.cComponent*, i8*)* @_ZN10cComponent21handleParameterChangeEPKc to i8*), i8* bitcast (void (%class.cModule*)* @_ZN7cModule18finalizeParametersEv to i8*), i8* bitcast (%class.cProperties* (%class.cModule*)* @_ZNK7cModule13getPropertiesEv to i8*), i8* bitcast (i8* (%class.cComponent*)* @_ZNK10cComponent14getNedTypeNameEv to i8*), i8* bitcast (i1 (%class.cModule*)* @_ZNK7cModule8isModuleEv to i8*), i8* bitcast (%class.cModule* (%class.cModule*)* @_ZNK7cModule15getParentModuleEv to i8*), i8* bitcast (void (%class.cModule*)* @_ZN7cModule14callInitializeEv to i8*), i8* bitcast (i1 (%class.cModule*, i32)* @_ZN7cModule14callInitializeEi to i8*), i8* bitcast (void (%class.cModule*)* @_ZN7cModule10callFinishEv to i8*), i8* bitcast (i32 (%class.cComponent*)* @_ZNK10cComponent12getNumParamsEv to i8*), i8* bitcast (%class.cPar* (%class.cComponent*, i32)* @_ZN10cComponent3parEi to i8*), i8* bitcast (%class.cPar* (%class.cComponent*, i8*)* @_ZN10cComponent3parEPKc to i8*), i8* bitcast (i32 (%class.cComponent*, i8*)* @_ZNK10cComponent7findParEPKc to i8*), i8* bitcast (i1 (%class.cModule*, i32)* @_ZN7cModule17initializeModulesEi to i8*), i8* bitcast (i1 (%class.cModule*, i32)* @_ZN7cModule18initializeChannelsEi to i8*), i8* bitcast (void ()* @__cxa_pure_virtual to i8*), i8* bitcast (void (%class.cModule*, i32)* @_ZN7cModule5setIdEi to i8*), i8* bitcast (void (%class.cModule*, i32, i32)* @_ZN7cModule8setIndexEii to i8*), i8* bitcast (%class.cGate* (%class.cModule*, i32)* @_ZN7cModule16createGateObjectEN5cGate4TypeE to i8*), i8* bitcast (void (%class.cModule*)* @_ZN7cModule13doBuildInsideEv to i8*), i8* bitcast (void (%class.cModule*, i8*, i32, i1)* @_ZN7cModule7addGateEPKcN5cGate4TypeEb to i8*), i8* bitcast (void (%class.cModule*, i8*, i32)* @_ZN7cModule11setGateSizeEPKci to i8*), i8* bitcast (%class.cGate* (%class.cModule*, i8*, i8, i1, i1)* @_ZN7cModule31getOrCreateFirstUnconnectedGateEPKccbb to i8*), i8* bitcast (void (%class.cModule*, i8*, i1, i1, %class.cGate**, %class.cGate**)* @_ZN7cModule35getOrCreateFirstUnconnectedGatePairEPKcbbRP5cGateS4_ to i8*), i8* bitcast (i32 (%class.cModule*)* @_ZN7cModule11buildInsideEv to i8*), i8* bitcast (i1 (%class.cModule*)* @_ZNK7cModule8isSimpleEv to i8*), i8* bitcast (i1 (%class.cModule*)* @_ZNK7cModule13isPlaceholderEv to i8*), i8* bitcast (%class.cGate* (%class.cModule*, i8*, i32)* @_ZN7cModule4gateEPKci to i8*), i8* bitcast (%class.cGate* (%class.cModule*, i8*, i32, i32)* @_ZN7cModule8gateHalfEPKcN5cGate4TypeEi to i8*), i8* bitcast (i1 (%class.cModule*, i8*, i32)* @_ZNK7cModule7hasGateEPKci to i8*), i8* bitcast (i32 (%class.cModule*, i8*, i32)* @_ZNK7cModule8findGateEPKci to i8*), i8* bitcast (%class.cGate* (%class.cModule*, i32)* @_ZN7cModule4gateEi to i8*), i8* bitcast (void (%class.cModule*, i8*)* @_ZN7cModule10deleteGateEPKc to i8*), i8* bitcast (void (%"class.std::vector.13"*, %class.cModule*)* @_ZNK7cModule12getGateNamesEv to i8*), i8* bitcast (i32 (%class.cModule*, i8*)* @_ZNK7cModule8gateTypeEPKc to i8*), i8* bitcast (i1 (%class.cModule*, i8*)* @_ZNK7cModule12isGateVectorEPKc to i8*), i8* bitcast (i32 (%class.cModule*, i8*)* @_ZNK7cModule8gateSizeEPKc to i8*), i8* bitcast (i32 (%class.cModule*, i8*)* @_ZNK7cModule10gateBaseIdEPKc to i8*), i8* bitcast (void ()* @__cxa_pure_virtual to i8*), i8* bitcast (void (%class.cModule*)* @_ZN7cModule12deleteModuleEv to i8*), i8* bitcast (void (%class.cModule*, %class.cModule*)* @_ZN7cModule14changeParentToEPS_ to i8*)] }, align 8
@.str = private unnamed_addr constant [60 x i8] c"Cannot delete a compound module from one of its submodules!\00", align 1
@_ZTVN10__cxxabiv120__si_class_type_infoE = external dso_local global i8*
@_ZTS13cRuntimeError = linkonce_odr dso_local constant [16 x i8] c"13cRuntimeError\00", comdat, align 1
@_ZTS10cException = linkonce_odr dso_local constant [13 x i8] c"10cException\00", comdat, align 1
@_ZTISt9exception = external dso_local constant i8*
@_ZTI10cException = linkonce_odr dso_local constant { i8*, i8*, i8* } { i8* bitcast (i8** getelementptr inbounds (i8*, i8** @_ZTVN10__cxxabiv120__si_class_type_infoE, i64 2) to i8*), i8* getelementptr inbounds ([13 x i8], [13 x i8]* @_ZTS10cException, i32 0, i32 0), i8* bitcast (i8** @_ZTISt9exception to i8*) }, comdat, align 8
@_ZTI13cRuntimeError = linkonce_odr dso_local constant { i8*, i8*, i8* } { i8* bitcast (i8** getelementptr inbounds (i8*, i8** @_ZTVN10__cxxabiv120__si_class_type_infoE, i64 2) to i8*), i8* getelementptr inbounds ([16 x i8], [16 x i8]* @_ZTS13cRuntimeError, i32 0, i32 0), i8* bitcast ({ i8*, i8*, i8* }* @_ZTI10cException to i8*) }, comdat, align 8
@_ZTI7cObject = external dso_local constant i8*
@.str.2 = private unnamed_addr constant [2 x i8] c".\00", align 1
@_ZTI13cSimpleModule = external dso_local constant i8*
@_ZN7cModule8namePoolE = dso_local global %"class.std::set.23" zeroinitializer, align 8, !dbg !2640
@.str.4 = private unnamed_addr constant [47 x i8] c"Cannot delete gate `%s', it is still connected\00", align 1
@.str.5 = private unnamed_addr constant [60 x i8] c"cannot add gate `%s[]': too many vector gates (limit is %d)\00", align 1
@.str.6 = private unnamed_addr constant [58 x i8] c"cannot add gate `%s': too many scalar gates (limit is %d)\00", align 1
@.str.7 = private unnamed_addr constant [34 x i8] c"no such gate or gate vector: `%s'\00", align 1
@.str.8 = private unnamed_addr constant [98 x i8] c"Invalid gate Id %d: size of `%s[]' is only %d, so index %d (deduced from the Id) is out of bounds\00", align 1
@.str.9 = private unnamed_addr constant [37 x i8] c"addGate(): Gate `%s' already present\00", align 1
@.str.10 = private unnamed_addr constant [66 x i8] c"addGate(): Wrong gate name `%s', must be without `$i'/`$o' suffix\00", align 1
@.str.11 = private unnamed_addr constant [23 x i8] c"no `%s' or `%s[]' gate\00", align 1
@.str.12 = private unnamed_addr constant [72 x i8] c"setGateSize(): wrong gate name `%s', suffix `$i'/`$o' not accepted here\00", align 1
@.str.13 = private unnamed_addr constant [46 x i8] c"setGateSize(): gate `%s' is not a vector gate\00", align 1
@.str.14 = private unnamed_addr constant [65 x i8] c"setGateSize(): negative vector size (%d) requested for gate %s[]\00", align 1
@.str.15 = private unnamed_addr constant [69 x i8] c"setGateSize(): vector size for gate %s[] too large (%d), limit is %d\00", align 1
@.str.16 = private unnamed_addr constant [82 x i8] c"setGateSize(): Cannot shrink gate vector %s[] to size %d, gate %s still connected\00", align 1
@.str.17 = private unnamed_addr constant [48 x i8] c"gateBaseId(): no such gate or gate vector: `%s'\00", align 1
@.str.18 = private unnamed_addr constant [72 x i8] c"gateBaseId(): inout gate `%s' cannot be referenced without $i/$o suffix\00", align 1
@.str.19 = private unnamed_addr constant [58 x i8] c"Inout gate `%s' cannot be referenced without $i/$o suffix\00", align 1
@.str.20 = private unnamed_addr constant [39 x i8] c"Scalar gate `%s' referenced with index\00", align 1
@.str.21 = private unnamed_addr constant [35 x i8] c"%s when accessing vector gate `%s'\00", align 1
@.str.22 = private unnamed_addr constant [24 x i8] c"No gate index specified\00", align 1
@.str.23 = private unnamed_addr constant [30 x i8] c"Negative gate index specified\00", align 1
@.str.24 = private unnamed_addr constant [74 x i8] c"Gate index %d out of range when accessing vector gate `%s[]' with size %d\00", align 1
@.str.25 = private unnamed_addr constant [46 x i8] c"Cannot delete one half of an inout gate: `%s'\00", align 1
@.str.26 = private unnamed_addr constant [66 x i8] c"getOrCreateFirstUnconnectedGate(): gate `%s' is not a vector gate\00", align 1
@.str.27 = private unnamed_addr constant [67 x i8] c"getOrCreateFirstUnconnectedGate(): gate `%s' AND suffix `%c' given\00", align 1
@.str.28 = private unnamed_addr constant [70 x i8] c"getOrCreateFirstUnconnectedGate(): inout gate specified but no suffix\00", align 1
@.str.29 = private unnamed_addr constant [63 x i8] c"getOrCreateFirstUnconnectedGate(): wrong gate name suffix `%c'\00", align 1
@.str.30 = private unnamed_addr constant [70 x i8] c"getOrCreateFirstUnconnectedGatePair(): gate `%s' is not a vector gate\00", align 1
@.str.31 = private unnamed_addr constant [85 x i8] c"getOrCreateFirstUnconnectedGatePair(): inout gate expected, without `$i'/`$o' suffix\00", align 1
@.str.32 = private unnamed_addr constant [93 x i8] c"Gate `%s' is not connected to a submodule (or internally to another gate of the same module)\00", align 1
@.str.33 = private unnamed_addr constant [6 x i8] c"loose\00", align 1
@.str.34 = private unnamed_addr constant [9 x i8] c"directIn\00", align 1
@.str.35 = private unnamed_addr constant [55 x i8] c"Gate `%s' is not connected to sibling or parent module\00", align 1
@.str.36 = private unnamed_addr constant [53 x i8] c"getModuleByRelativePath(): syntax error in path `%s'\00", align 1
@.str.37 = private unnamed_addr constant [38 x i8] c"has no ancestor parameter called `%s'\00", align 1
@.str.38 = private unnamed_addr constant [45 x i8] c"buildInside() already called for this module\00", align 1
@.str.39 = private unnamed_addr constant [90 x i8] c"it is not supported to delete module which contains the currently executing simple module\00", align 1
@.str.40 = private unnamed_addr constant [35 x i8] c"changeParentTo(): got NULL pointer\00", align 1
@.str.41 = private unnamed_addr constant [82 x i8] c"changeParentTo(): gates of the module must not be connected (%s is connected now)\00", align 1
@.str.42 = private unnamed_addr constant [69 x i8] c"changeParentTo(): cannot move module under one of its own submodules\00", align 1
@.str.43 = private unnamed_addr constant [79 x i8] c"internal function initializeChannels() may only be called via callInitialize()\00", align 1
@.str.44 = private unnamed_addr constant [78 x i8] c"internal function initializeModules() may only be called via callInitialize()\00", align 1
@.str.45 = private unnamed_addr constant [44 x i8] c"initialize() already called for this module\00", align 1
@.str.46 = private unnamed_addr constant [11 x i8] c"initialize\00", align 1
@.str.47 = private unnamed_addr constant [27 x i8] c"%s during initialize(): %s\00", align 1
@.str.48 = private unnamed_addr constant [23 x i8] c"%s during finish(): %s\00", align 1
@_ZTS7cModule = dso_local constant [9 x i8] c"7cModule\00", align 1
@_ZTI10cComponent = external dso_local constant i8*
@_ZTI7cModule = dso_local constant { i8*, i8*, i8* } { i8* bitcast (i8** getelementptr inbounds (i8*, i8** @_ZTVN10__cxxabiv120__si_class_type_infoE, i64 2) to i8*), i8* getelementptr inbounds ([9 x i8], [9 x i8]* @_ZTS7cModule, i32 0, i32 0), i8* bitcast (i8** @_ZTI10cComponent to i8*) }, align 8
@_ZN11cSimulation5evPtrE = external dso_local global %class.cEnvir*, align 8
@_ZN11cSimulation6simPtrE = external dso_local global %class.cSimulation*, align 8
@_ZTV10cException = linkonce_odr dso_local unnamed_addr constant { [13 x i8*] } { [13 x i8*] [i8* null, i8* bitcast ({ i8*, i8*, i8* }* @_ZTI10cException to i8*), i8* bitcast (void (%class.cException*)* @_ZN10cExceptionD2Ev to i8*), i8* bitcast (void (%class.cException*)* @_ZN10cExceptionD0Ev to i8*), i8* bitcast (i8* (%class.cException*)* @_ZNK10cException4whatEv to i8*), i8* bitcast (%class.cException* (%class.cException*)* @_ZNK10cException3dupEv to i8*), i8* bitcast (i32 (%class.cException*)* @_ZNK10cException12getErrorCodeEv to i8*), i8* bitcast (void (%class.cException*, i8*)* @_ZN10cException10setMessageEPKc to i8*), i8* bitcast (void (%class.cException*, i8*)* @_ZN10cException14prependMessageEPKc to i8*), i8* bitcast (i1 (%class.cException*)* @_ZNK10cException10hasContextEv to i8*), i8* bitcast (i8* (%class.cException*)* @_ZNK10cException19getContextClassNameEv to i8*), i8* bitcast (i8* (%class.cException*)* @_ZNK10cException18getContextFullPathEv to i8*), i8* bitcast (i32 (%class.cException*)* @_ZNK10cException11getModuleIDEv to i8*)] }, comdat, align 8
@.str.50 = private unnamed_addr constant [3 x i8] c": \00", align 1
@.str.51 = private unnamed_addr constant [4 x i8] c"%d]\00", align 1
@.str.52 = private unnamed_addr constant [1 x i8] zeroinitializer, align 1
@.str.53 = private unnamed_addr constant [26 x i8] c"vector::_M_realloc_insert\00", align 1
@llvm.global_ctors = appending global [1 x { i32, void ()*, i8* }] [{ i32, void ()*, i8* } { i32 65535, void ()* @_GLOBAL__sub_I_cmodule.cc, i8* null }]

@_ZN7cModuleD1Ev = dso_local unnamed_addr alias void (%class.cModule*), void (%class.cModule*)* @_ZN7cModuleD2Ev

; Function Attrs: noinline uwtable
define internal void @__cxx_global_var_init() #0 section ".text.startup" !dbg !3879 {
entry:
  call void @_ZNSt8ios_base4InitC1Ev(%"class.std::ios_base::Init"* @_ZStL8__ioinit), !dbg !3880
  %0 = call i32 @__cxa_atexit(void (i8*)* bitcast (void (%"class.std::ios_base::Init"*)* @_ZNSt8ios_base4InitD1Ev to void (i8*)*), i8* getelementptr inbounds (%"class.std::ios_base::Init", %"class.std::ios_base::Init"* @_ZStL8__ioinit, i32 0, i32 0), i8* @__dso_handle) #3, !dbg !3880
  ret void, !dbg !3880
}

declare dso_local void @_ZNSt8ios_base4InitC1Ev(%"class.std::ios_base::Init"*) unnamed_addr #1

; Function Attrs: nounwind
declare dso_local void @_ZNSt8ios_base4InitD1Ev(%"class.std::ios_base::Init"*) unnamed_addr #2

; Function Attrs: nounwind
declare dso_local i32 @__cxa_atexit(void (i8*)*, i8*, i8*) #3

; Function Attrs: noinline uwtable
define internal void @__cxx_global_var_init.1() #0 section ".text.startup" !dbg !3881 {
entry:
  call void @_ZNSt7__cxx1112basic_stringIcSt11char_traitsIcESaIcEEC1Ev(%"class.std::__cxx11::basic_string"* @_ZN7cModule18lastmodulefullpathB5cxx11E) #3, !dbg !3882
  %0 = call i32 @__cxa_atexit(void (i8*)* bitcast (void (%"class.std::__cxx11::basic_string"*)* @_ZNSt7__cxx1112basic_stringIcSt11char_traitsIcESaIcEED1Ev to void (i8*)*), i8* bitcast (%"class.std::__cxx11::basic_string"* @_ZN7cModule18lastmodulefullpathB5cxx11E to i8*), i8* @__dso_handle) #3, !dbg !3882
  ret void, !dbg !3882
}

; Function Attrs: nounwind
declare dso_local void @_ZNSt7__cxx1112basic_stringIcSt11char_traitsIcESaIcEEC1Ev(%"class.std::__cxx11::basic_string"*) unnamed_addr #2

; Function Attrs: nounwind
declare dso_local void @_ZNSt7__cxx1112basic_stringIcSt11char_traitsIcESaIcEED1Ev(%"class.std::__cxx11::basic_string"*) unnamed_addr #2

; Function Attrs: noinline uwtable
define dso_local void @_ZN7cModuleC2Ev(%class.cModule* %this) unnamed_addr #0 align 2 !dbg !3883 {
entry:
  %this.addr = alloca %class.cModule*, align 8
  store %class.cModule* %this, %class.cModule** %this.addr, align 8
  call void @llvm.dbg.declare(metadata %class.cModule** %this.addr, metadata !3884, metadata !DIExpression()), !dbg !3885
  %this1 = load %class.cModule*, %class.cModule** %this.addr, align 8
  %0 = bitcast %class.cModule* %this1 to %class.cComponent*, !dbg !3886
  call void @_ZN10cComponentC2EPKc(%class.cComponent* %0, i8* null), !dbg !3887
  %1 = bitcast %class.cModule* %this1 to i32 (...)***, !dbg !3886
  store i32 (...)** bitcast (i8** getelementptr inbounds ({ [75 x i8*] }, { [75 x i8*] }* @_ZTV7cModule, i32 0, inrange i32 0, i32 2) to i32 (...)**), i32 (...)*** %1, align 8, !dbg !3886
  %mod_id = getelementptr inbounds %class.cModule, %class.cModule* %this1, i32 0, i32 2, !dbg !3888
  store i32 -1, i32* %mod_id, align 8, !dbg !3890
  %idx = getelementptr inbounds %class.cModule, %class.cModule* %this1, i32 0, i32 9, !dbg !3891
  store i32 0, i32* %idx, align 8, !dbg !3892
  %vectsize = getelementptr inbounds %class.cModule, %class.cModule* %this1, i32 0, i32 10, !dbg !3893
  store i32 -1, i32* %vectsize, align 4, !dbg !3894
  %fullname = getelementptr inbounds %class.cModule, %class.cModule* %this1, i32 0, i32 1, !dbg !3895
  store i8* null, i8** %fullname, align 8, !dbg !3896
  %lastsubmodp = getelementptr inbounds %class.cModule, %class.cModule* %this1, i32 0, i32 6, !dbg !3897
  store %class.cModule* null, %class.cModule** %lastsubmodp, align 8, !dbg !3898
  %firstsubmodp = getelementptr inbounds %class.cModule, %class.cModule* %this1, i32 0, i32 5, !dbg !3899
  store %class.cModule* null, %class.cModule** %firstsubmodp, align 8, !dbg !3900
  %nextp = getelementptr inbounds %class.cModule, %class.cModule* %this1, i32 0, i32 4, !dbg !3901
  store %class.cModule* null, %class.cModule** %nextp, align 8, !dbg !3902
  %prevp = getelementptr inbounds %class.cModule, %class.cModule* %this1, i32 0, i32 3, !dbg !3903
  store %class.cModule* null, %class.cModule** %prevp, align 8, !dbg !3904
  %descvSize = getelementptr inbounds %class.cModule, %class.cModule* %this1, i32 0, i32 7, !dbg !3905
  store i32 0, i32* %descvSize, align 8, !dbg !3906
  %descv = getelementptr inbounds %class.cModule, %class.cModule* %this1, i32 0, i32 8, !dbg !3907
  store %"struct.cGate::Desc"* null, %"struct.cGate::Desc"** %descv, align 8, !dbg !3908
  ret void, !dbg !3909
}

; Function Attrs: nounwind readnone speculatable willreturn
declare void @llvm.dbg.declare(metadata, metadata, metadata) #4

declare dso_local void @_ZN10cComponentC2EPKc(%class.cComponent*, i8*) unnamed_addr #1

; Function Attrs: noinline nounwind uwtable
define dso_local void @_ZN7cModuleD2Ev(%class.cModule* %this) unnamed_addr #5 align 2 personality i8* bitcast (i32 (...)* @__gxx_personality_v0 to i8*) !dbg !3910 {
entry:
  %this.addr = alloca %class.cModule*, align 8
  %exn.slot = alloca i8*
  %ehselector.slot = alloca i32
  %submod = alloca %"class.cModule::SubmoduleIterator", align 8
  %mod = alloca %class.cModule*, align 8
  %i = alloca %"class.cModule::GateIterator", align 8
  %gate = alloca %class.cGate*, align 8
  store %class.cModule* %this, %class.cModule** %this.addr, align 8
  call void @llvm.dbg.declare(metadata %class.cModule** %this.addr, metadata !3911, metadata !DIExpression()), !dbg !3912
  %this1 = load %class.cModule*, %class.cModule** %this.addr, align 8
  %0 = bitcast %class.cModule* %this1 to i32 (...)***, !dbg !3913
  store i32 (...)** bitcast (i8** getelementptr inbounds ({ [75 x i8*] }, { [75 x i8*] }* @_ZTV7cModule, i32 0, inrange i32 0, i32 2) to i32 (...)**), i32 (...)*** %0, align 8, !dbg !3913
  %call = invoke %class.cEnvir* @_ZN11cSimulation14getActiveEnvirEv()
          to label %invoke.cont unwind label %lpad, !dbg !3914

invoke.cont:                                      ; preds = %entry
  %suppress_notifications = getelementptr inbounds %class.cEnvir, %class.cEnvir* %call, i32 0, i32 2, !dbg !3914
  %1 = load i8, i8* %suppress_notifications, align 1, !dbg !3914
  %tobool = trunc i8 %1 to i1, !dbg !3914
  br i1 %tobool, label %cond.true, label %cond.false, !dbg !3914

cond.true:                                        ; preds = %invoke.cont
  br label %cond.end, !dbg !3914

cond.false:                                       ; preds = %invoke.cont
  %call3 = invoke %class.cEnvir* @_ZN11cSimulation14getActiveEnvirEv()
          to label %invoke.cont2 unwind label %lpad, !dbg !3914

invoke.cont2:                                     ; preds = %cond.false
  %2 = bitcast %class.cEnvir* %call3 to void (%class.cEnvir*, %class.cModule*)***, !dbg !3916
  %vtable = load void (%class.cEnvir*, %class.cModule*)**, void (%class.cEnvir*, %class.cModule*)*** %2, align 8, !dbg !3916
  %vfn = getelementptr inbounds void (%class.cEnvir*, %class.cModule*)*, void (%class.cEnvir*, %class.cModule*)** %vtable, i64 20, !dbg !3916
  %3 = load void (%class.cEnvir*, %class.cModule*)*, void (%class.cEnvir*, %class.cModule*)** %vfn, align 8, !dbg !3916
  invoke void %3(%class.cEnvir* %call3, %class.cModule* %this1)
          to label %invoke.cont4 unwind label %lpad, !dbg !3916

invoke.cont4:                                     ; preds = %invoke.cont2
  br label %cond.end, !dbg !3914

cond.end:                                         ; preds = %invoke.cont4, %cond.true
  call void @llvm.dbg.declare(metadata %"class.cModule::SubmoduleIterator"* %submod, metadata !3917, metadata !DIExpression()), !dbg !3938
  invoke void @_ZN7cModule17SubmoduleIteratorC2EPKS_(%"class.cModule::SubmoduleIterator"* %submod, %class.cModule* %this1)
          to label %invoke.cont5 unwind label %lpad, !dbg !3938

invoke.cont5:                                     ; preds = %cond.end
  br label %for.cond, !dbg !3939

for.cond:                                         ; preds = %delete.end, %invoke.cont5
  %call7 = invoke zeroext i1 @_ZNK7cModule17SubmoduleIterator3endEv(%"class.cModule::SubmoduleIterator"* %submod)
          to label %invoke.cont6 unwind label %lpad, !dbg !3940

invoke.cont6:                                     ; preds = %for.cond
  %lnot = xor i1 %call7, true, !dbg !3942
  br i1 %lnot, label %for.body, label %for.end, !dbg !3943

for.body:                                         ; preds = %invoke.cont6
  %call9 = invoke %class.cModule* @_ZNK7cModule17SubmoduleIteratorclEv(%"class.cModule::SubmoduleIterator"* %submod)
          to label %invoke.cont8 unwind label %lpad, !dbg !3944

invoke.cont8:                                     ; preds = %for.body
  %call11 = invoke %class.cSimulation* @_ZN11cSimulation19getActiveSimulationEv()
          to label %invoke.cont10 unwind label %lpad, !dbg !3947

invoke.cont10:                                    ; preds = %invoke.cont8
  %call13 = invoke %class.cSimpleModule* @_ZNK11cSimulation17getActivityModuleEv(%class.cSimulation* %call11)
          to label %invoke.cont12 unwind label %lpad, !dbg !3948

invoke.cont12:                                    ; preds = %invoke.cont10
  %4 = bitcast %class.cSimpleModule* %call13 to %class.cModule*, !dbg !3947
  %cmp = icmp eq %class.cModule* %call9, %4, !dbg !3949
  br i1 %cmp, label %if.then, label %if.end, !dbg !3950

if.then:                                          ; preds = %invoke.cont12
  %exception = call i8* @__cxa_allocate_exception(i64 128) #3, !dbg !3951
  %5 = bitcast i8* %exception to %class.cRuntimeError*, !dbg !3951
  invoke void (%class.cRuntimeError*, i8*, ...) @_ZN13cRuntimeErrorC1EPKcz(%class.cRuntimeError* %5, i8* getelementptr inbounds ([60 x i8], [60 x i8]* @.str, i64 0, i64 0))
          to label %invoke.cont15 unwind label %lpad14, !dbg !3953

invoke.cont15:                                    ; preds = %if.then
  invoke void @__cxa_throw(i8* %exception, i8* bitcast ({ i8*, i8*, i8* }* @_ZTI13cRuntimeError to i8*), i8* bitcast (void (%class.cRuntimeError*)* @_ZN13cRuntimeErrorD2Ev to i8*)) #16
          to label %unreachable unwind label %lpad, !dbg !3951

lpad:                                             ; preds = %invoke.cont71, %if.then68, %if.end62, %invoke.cont59, %if.then58, %for.end55, %for.inc, %invoke.cont49, %if.then48, %invoke.cont43, %land.lhs.true42, %if.end38, %if.then36, %invoke.cont31, %land.lhs.true, %invoke.cont26, %for.body25, %for.cond21, %for.end, %if.end, %invoke.cont15, %invoke.cont10, %invoke.cont8, %for.body, %for.cond, %cond.end, %invoke.cont2, %cond.false, %entry
  %6 = landingpad { i8*, i32 }
          catch i8* null, !dbg !3954
  %7 = extractvalue { i8*, i32 } %6, 0, !dbg !3954
  store i8* %7, i8** %exn.slot, align 8, !dbg !3954
  %8 = extractvalue { i8*, i32 } %6, 1, !dbg !3954
  store i32 %8, i32* %ehselector.slot, align 4, !dbg !3954
  br label %ehcleanup, !dbg !3954

lpad14:                                           ; preds = %if.then
  %9 = landingpad { i8*, i32 }
          catch i8* null, !dbg !3955
  %10 = extractvalue { i8*, i32 } %9, 0, !dbg !3955
  store i8* %10, i8** %exn.slot, align 8, !dbg !3955
  %11 = extractvalue { i8*, i32 } %9, 1, !dbg !3955
  store i32 %11, i32* %ehselector.slot, align 4, !dbg !3955
  call void @__cxa_free_exception(i8* %exception) #3, !dbg !3951
  br label %ehcleanup, !dbg !3951

if.end:                                           ; preds = %invoke.cont12
  call void @llvm.dbg.declare(metadata %class.cModule** %mod, metadata !3956, metadata !DIExpression()), !dbg !3957
  %call17 = invoke %class.cModule* @_ZN7cModule17SubmoduleIteratorppEi(%"class.cModule::SubmoduleIterator"* %submod, i32 0)
          to label %invoke.cont16 unwind label %lpad, !dbg !3958

invoke.cont16:                                    ; preds = %if.end
  store %class.cModule* %call17, %class.cModule** %mod, align 8, !dbg !3957
  %12 = load %class.cModule*, %class.cModule** %mod, align 8, !dbg !3959
  %isnull = icmp eq %class.cModule* %12, null, !dbg !3960
  br i1 %isnull, label %delete.end, label %delete.notnull, !dbg !3960

delete.notnull:                                   ; preds = %invoke.cont16
  %13 = bitcast %class.cModule* %12 to void (%class.cModule*)***, !dbg !3960
  %vtable18 = load void (%class.cModule*)**, void (%class.cModule*)*** %13, align 8, !dbg !3960
  %vfn19 = getelementptr inbounds void (%class.cModule*)*, void (%class.cModule*)** %vtable18, i64 4, !dbg !3960
  %14 = load void (%class.cModule*)*, void (%class.cModule*)** %vfn19, align 8, !dbg !3960
  call void %14(%class.cModule* %12) #3, !dbg !3960
  br label %delete.end, !dbg !3960

delete.end:                                       ; preds = %delete.notnull, %invoke.cont16
  br label %for.cond, !dbg !3961, !llvm.loop !3962

for.end:                                          ; preds = %invoke.cont6
  call void @llvm.dbg.declare(metadata %"class.cModule::GateIterator"* %i, metadata !3964, metadata !DIExpression()), !dbg !3993
  invoke void @_ZN7cModule12GateIteratorC2EPKS_(%"class.cModule::GateIterator"* %i, %class.cModule* %this1)
          to label %invoke.cont20 unwind label %lpad, !dbg !3993

invoke.cont20:                                    ; preds = %for.end
  br label %for.cond21, !dbg !3994

for.cond21:                                       ; preds = %invoke.cont53, %invoke.cont20
  %call23 = invoke zeroext i1 @_ZNK7cModule12GateIterator3endEv(%"class.cModule::GateIterator"* %i)
          to label %invoke.cont22 unwind label %lpad, !dbg !3995

invoke.cont22:                                    ; preds = %for.cond21
  %lnot24 = xor i1 %call23, true, !dbg !3997
  br i1 %lnot24, label %for.body25, label %for.end55, !dbg !3998

for.body25:                                       ; preds = %invoke.cont22
  call void @llvm.dbg.declare(metadata %class.cGate** %gate, metadata !3999, metadata !DIExpression()), !dbg !4001
  %call27 = invoke %class.cGate* @_ZNK7cModule12GateIteratorclEv(%"class.cModule::GateIterator"* %i)
          to label %invoke.cont26 unwind label %lpad, !dbg !4002

invoke.cont26:                                    ; preds = %for.body25
  store %class.cGate* %call27, %class.cGate** %gate, align 8, !dbg !4001
  %15 = load %class.cGate*, %class.cGate** %gate, align 8, !dbg !4003
  %call29 = invoke %class.cGate* @_ZNK5cGate11getNextGateEv(%class.cGate* %15)
          to label %invoke.cont28 unwind label %lpad, !dbg !4005

invoke.cont28:                                    ; preds = %invoke.cont26
  %tobool30 = icmp ne %class.cGate* %call29, null, !dbg !4003
  br i1 %tobool30, label %land.lhs.true, label %if.end38, !dbg !4006

land.lhs.true:                                    ; preds = %invoke.cont28
  %16 = load %class.cGate*, %class.cGate** %gate, align 8, !dbg !4007
  %call32 = invoke %class.cGate* @_ZNK5cGate11getNextGateEv(%class.cGate* %16)
          to label %invoke.cont31 unwind label %lpad, !dbg !4008

invoke.cont31:                                    ; preds = %land.lhs.true
  %call34 = invoke %class.cGate* @_ZNK5cGate15getPreviousGateEv(%class.cGate* %call32)
          to label %invoke.cont33 unwind label %lpad, !dbg !4009

invoke.cont33:                                    ; preds = %invoke.cont31
  %17 = load %class.cGate*, %class.cGate** %gate, align 8, !dbg !4010
  %cmp35 = icmp eq %class.cGate* %call34, %17, !dbg !4011
  br i1 %cmp35, label %if.then36, label %if.end38, !dbg !4012

if.then36:                                        ; preds = %invoke.cont33
  %18 = load %class.cGate*, %class.cGate** %gate, align 8, !dbg !4013
  invoke void @_ZN5cGate10disconnectEv(%class.cGate* %18)
          to label %invoke.cont37 unwind label %lpad, !dbg !4014

invoke.cont37:                                    ; preds = %if.then36
  br label %if.end38, !dbg !4013

if.end38:                                         ; preds = %invoke.cont37, %invoke.cont33, %invoke.cont28
  %19 = load %class.cGate*, %class.cGate** %gate, align 8, !dbg !4015
  %call40 = invoke %class.cGate* @_ZNK5cGate15getPreviousGateEv(%class.cGate* %19)
          to label %invoke.cont39 unwind label %lpad, !dbg !4017

invoke.cont39:                                    ; preds = %if.end38
  %tobool41 = icmp ne %class.cGate* %call40, null, !dbg !4015
  br i1 %tobool41, label %land.lhs.true42, label %if.end52, !dbg !4018

land.lhs.true42:                                  ; preds = %invoke.cont39
  %20 = load %class.cGate*, %class.cGate** %gate, align 8, !dbg !4019
  %call44 = invoke %class.cGate* @_ZNK5cGate15getPreviousGateEv(%class.cGate* %20)
          to label %invoke.cont43 unwind label %lpad, !dbg !4020

invoke.cont43:                                    ; preds = %land.lhs.true42
  %call46 = invoke %class.cGate* @_ZNK5cGate11getNextGateEv(%class.cGate* %call44)
          to label %invoke.cont45 unwind label %lpad, !dbg !4021

invoke.cont45:                                    ; preds = %invoke.cont43
  %21 = load %class.cGate*, %class.cGate** %gate, align 8, !dbg !4022
  %cmp47 = icmp eq %class.cGate* %call46, %21, !dbg !4023
  br i1 %cmp47, label %if.then48, label %if.end52, !dbg !4024

if.then48:                                        ; preds = %invoke.cont45
  %22 = load %class.cGate*, %class.cGate** %gate, align 8, !dbg !4025
  %call50 = invoke %class.cGate* @_ZNK5cGate15getPreviousGateEv(%class.cGate* %22)
          to label %invoke.cont49 unwind label %lpad, !dbg !4026

invoke.cont49:                                    ; preds = %if.then48
  invoke void @_ZN5cGate10disconnectEv(%class.cGate* %call50)
          to label %invoke.cont51 unwind label %lpad, !dbg !4027

invoke.cont51:                                    ; preds = %invoke.cont49
  br label %if.end52, !dbg !4025

if.end52:                                         ; preds = %invoke.cont51, %invoke.cont45, %invoke.cont39
  br label %for.inc, !dbg !4028

for.inc:                                          ; preds = %if.end52
  %call54 = invoke %class.cGate* @_ZN7cModule12GateIteratorppEi(%"class.cModule::GateIterator"* %i, i32 0)
          to label %invoke.cont53 unwind label %lpad, !dbg !4029

invoke.cont53:                                    ; preds = %for.inc
  br label %for.cond21, !dbg !4030, !llvm.loop !4031

for.end55:                                        ; preds = %invoke.cont22
  invoke void @_ZN7cModule10clearGatesEv(%class.cModule* %this1)
          to label %invoke.cont56 unwind label %lpad, !dbg !4033

invoke.cont56:                                    ; preds = %for.end55
  %mod_id = getelementptr inbounds %class.cModule, %class.cModule* %this1, i32 0, i32 2, !dbg !4034
  %23 = load i32, i32* %mod_id, align 8, !dbg !4034
  %cmp57 = icmp ne i32 %23, -1, !dbg !4036
  br i1 %cmp57, label %if.then58, label %if.end62, !dbg !4037

if.then58:                                        ; preds = %invoke.cont56
  %call60 = invoke %class.cSimulation* @_ZN11cSimulation19getActiveSimulationEv()
          to label %invoke.cont59 unwind label %lpad, !dbg !4038

invoke.cont59:                                    ; preds = %if.then58
  invoke void @_ZN11cSimulation16deregisterModuleEP7cModule(%class.cSimulation* %call60, %class.cModule* %this1)
          to label %invoke.cont61 unwind label %lpad, !dbg !4039

invoke.cont61:                                    ; preds = %invoke.cont59
  br label %if.end62, !dbg !4038

if.end62:                                         ; preds = %invoke.cont61, %invoke.cont56
  %24 = bitcast %class.cModule* %this1 to %class.cModule* (%class.cModule*)***, !dbg !4040
  %vtable63 = load %class.cModule* (%class.cModule*)**, %class.cModule* (%class.cModule*)*** %24, align 8, !dbg !4040
  %vfn64 = getelementptr inbounds %class.cModule* (%class.cModule*)*, %class.cModule* (%class.cModule*)** %vtable63, i64 37, !dbg !4040
  %25 = load %class.cModule* (%class.cModule*)*, %class.cModule* (%class.cModule*)** %vfn64, align 8, !dbg !4040
  %call66 = invoke %class.cModule* %25(%class.cModule* %this1)
          to label %invoke.cont65 unwind label %lpad, !dbg !4040

invoke.cont65:                                    ; preds = %if.end62
  %tobool67 = icmp ne %class.cModule* %call66, null, !dbg !4040
  br i1 %tobool67, label %if.then68, label %if.end74, !dbg !4042

if.then68:                                        ; preds = %invoke.cont65
  %26 = bitcast %class.cModule* %this1 to %class.cModule* (%class.cModule*)***, !dbg !4043
  %vtable69 = load %class.cModule* (%class.cModule*)**, %class.cModule* (%class.cModule*)*** %26, align 8, !dbg !4043
  %vfn70 = getelementptr inbounds %class.cModule* (%class.cModule*)*, %class.cModule* (%class.cModule*)** %vtable69, i64 37, !dbg !4043
  %27 = load %class.cModule* (%class.cModule*)*, %class.cModule* (%class.cModule*)** %vfn70, align 8, !dbg !4043
  %call72 = invoke %class.cModule* %27(%class.cModule* %this1)
          to label %invoke.cont71 unwind label %lpad, !dbg !4043

invoke.cont71:                                    ; preds = %if.then68
  invoke void @_ZN7cModule15removeSubmoduleEPS_(%class.cModule* %call72, %class.cModule* %this1)
          to label %invoke.cont73 unwind label %lpad, !dbg !4044

invoke.cont73:                                    ; preds = %invoke.cont71
  br label %if.end74, !dbg !4043

if.end74:                                         ; preds = %invoke.cont73, %invoke.cont65
  %fullname = getelementptr inbounds %class.cModule, %class.cModule* %this1, i32 0, i32 1, !dbg !4045
  %28 = load i8*, i8** %fullname, align 8, !dbg !4045
  %isnull75 = icmp eq i8* %28, null, !dbg !4046
  br i1 %isnull75, label %delete.end77, label %delete.notnull76, !dbg !4046

delete.notnull76:                                 ; preds = %if.end74
  call void @_ZdaPv(i8* %28) #17, !dbg !4046
  br label %delete.end77, !dbg !4046

delete.end77:                                     ; preds = %delete.notnull76, %if.end74
  %29 = bitcast %class.cModule* %this1 to %class.cComponent*, !dbg !3954
  call void @_ZN10cComponentD2Ev(%class.cComponent* %29) #3, !dbg !3954
  ret void, !dbg !4047

ehcleanup:                                        ; preds = %lpad14, %lpad
  %30 = bitcast %class.cModule* %this1 to %class.cComponent*, !dbg !3954
  call void @_ZN10cComponentD2Ev(%class.cComponent* %30) #3, !dbg !3954
  br label %terminate.handler, !dbg !3954

terminate.handler:                                ; preds = %ehcleanup
  %exn = load i8*, i8** %exn.slot, align 8, !dbg !3954
  call void @__clang_call_terminate(i8* %exn) #18, !dbg !3954
  unreachable, !dbg !3954

unreachable:                                      ; preds = %invoke.cont15
  unreachable
}

; Function Attrs: noinline nounwind uwtable
define linkonce_odr dso_local %class.cEnvir* @_ZN11cSimulation14getActiveEnvirEv() #5 comdat align 2 !dbg !4048 {
entry:
  %0 = load %class.cEnvir*, %class.cEnvir** @_ZN11cSimulation5evPtrE, align 8, !dbg !4057
  ret %class.cEnvir* %0, !dbg !4058
}

declare dso_local i32 @__gxx_personality_v0(...)

; Function Attrs: noinline uwtable
define linkonce_odr dso_local void @_ZN7cModule17SubmoduleIteratorC2EPKS_(%"class.cModule::SubmoduleIterator"* %this, %class.cModule* %m) unnamed_addr #0 comdat align 2 !dbg !4059 {
entry:
  %this.addr = alloca %"class.cModule::SubmoduleIterator"*, align 8
  %m.addr = alloca %class.cModule*, align 8
  store %"class.cModule::SubmoduleIterator"* %this, %"class.cModule::SubmoduleIterator"** %this.addr, align 8
  call void @llvm.dbg.declare(metadata %"class.cModule::SubmoduleIterator"** %this.addr, metadata !4060, metadata !DIExpression()), !dbg !4062
  store %class.cModule* %m, %class.cModule** %m.addr, align 8
  call void @llvm.dbg.declare(metadata %class.cModule** %m.addr, metadata !4063, metadata !DIExpression()), !dbg !4064
  %this1 = load %"class.cModule::SubmoduleIterator"*, %"class.cModule::SubmoduleIterator"** %this.addr, align 8
  %0 = load %class.cModule*, %class.cModule** %m.addr, align 8, !dbg !4065
  call void @_ZN7cModule17SubmoduleIterator4initEPKS_(%"class.cModule::SubmoduleIterator"* %this1, %class.cModule* %0), !dbg !4067
  ret void, !dbg !4068
}

; Function Attrs: noinline nounwind uwtable
define linkonce_odr dso_local zeroext i1 @_ZNK7cModule17SubmoduleIterator3endEv(%"class.cModule::SubmoduleIterator"* %this) #5 comdat align 2 !dbg !4069 {
entry:
  %this.addr = alloca %"class.cModule::SubmoduleIterator"*, align 8
  store %"class.cModule::SubmoduleIterator"* %this, %"class.cModule::SubmoduleIterator"** %this.addr, align 8
  call void @llvm.dbg.declare(metadata %"class.cModule::SubmoduleIterator"** %this.addr, metadata !4070, metadata !DIExpression()), !dbg !4072
  %this1 = load %"class.cModule::SubmoduleIterator"*, %"class.cModule::SubmoduleIterator"** %this.addr, align 8
  %p = getelementptr inbounds %"class.cModule::SubmoduleIterator", %"class.cModule::SubmoduleIterator"* %this1, i32 0, i32 0, !dbg !4073
  %0 = load %class.cModule*, %class.cModule** %p, align 8, !dbg !4073
  %cmp = icmp eq %class.cModule* %0, null, !dbg !4074
  ret i1 %cmp, !dbg !4075
}

; Function Attrs: noinline nounwind uwtable
define linkonce_odr dso_local %class.cModule* @_ZNK7cModule17SubmoduleIteratorclEv(%"class.cModule::SubmoduleIterator"* %this) #5 comdat align 2 !dbg !4076 {
entry:
  %this.addr = alloca %"class.cModule::SubmoduleIterator"*, align 8
  store %"class.cModule::SubmoduleIterator"* %this, %"class.cModule::SubmoduleIterator"** %this.addr, align 8
  call void @llvm.dbg.declare(metadata %"class.cModule::SubmoduleIterator"** %this.addr, metadata !4077, metadata !DIExpression()), !dbg !4078
  %this1 = load %"class.cModule::SubmoduleIterator"*, %"class.cModule::SubmoduleIterator"** %this.addr, align 8
  %p = getelementptr inbounds %"class.cModule::SubmoduleIterator", %"class.cModule::SubmoduleIterator"* %this1, i32 0, i32 0, !dbg !4079
  %0 = load %class.cModule*, %class.cModule** %p, align 8, !dbg !4079
  ret %class.cModule* %0, !dbg !4080
}

; Function Attrs: noinline nounwind uwtable
define linkonce_odr dso_local %class.cSimulation* @_ZN11cSimulation19getActiveSimulationEv() #5 comdat align 2 !dbg !4081 {
entry:
  %0 = load %class.cSimulation*, %class.cSimulation** @_ZN11cSimulation6simPtrE, align 8, !dbg !4086
  ret %class.cSimulation* %0, !dbg !4087
}

; Function Attrs: noinline nounwind uwtable
define linkonce_odr dso_local %class.cSimpleModule* @_ZNK11cSimulation17getActivityModuleEv(%class.cSimulation* %this) #5 comdat align 2 !dbg !4088 {
entry:
  %this.addr = alloca %class.cSimulation*, align 8
  store %class.cSimulation* %this, %class.cSimulation** %this.addr, align 8
  call void @llvm.dbg.declare(metadata %class.cSimulation** %this.addr, metadata !4095, metadata !DIExpression()), !dbg !4097
  %this1 = load %class.cSimulation*, %class.cSimulation** %this.addr, align 8
  %activitymodp = getelementptr inbounds %class.cSimulation, %class.cSimulation* %this1, i32 0, i32 7, !dbg !4098
  %0 = load %class.cSimpleModule*, %class.cSimpleModule** %activitymodp, align 8, !dbg !4098
  ret %class.cSimpleModule* %0, !dbg !4099
}

declare dso_local i8* @__cxa_allocate_exception(i64)

declare dso_local void @_ZN13cRuntimeErrorC1EPKcz(%class.cRuntimeError*, i8*, ...) unnamed_addr #1

declare dso_local void @__cxa_free_exception(i8*)

; Function Attrs: noinline nounwind uwtable
define linkonce_odr dso_local void @_ZN13cRuntimeErrorD2Ev(%class.cRuntimeError* %this) unnamed_addr #5 comdat align 2 !dbg !4100 {
entry:
  %this.addr = alloca %class.cRuntimeError*, align 8
  store %class.cRuntimeError* %this, %class.cRuntimeError** %this.addr, align 8
  call void @llvm.dbg.declare(metadata %class.cRuntimeError** %this.addr, metadata !4105, metadata !DIExpression()), !dbg !4107
  %this1 = load %class.cRuntimeError*, %class.cRuntimeError** %this.addr, align 8
  %0 = bitcast %class.cRuntimeError* %this1 to %class.cException*, !dbg !4108
  call void @_ZN10cExceptionD2Ev(%class.cException* %0) #3, !dbg !4108
  ret void, !dbg !4110
}

declare dso_local void @__cxa_throw(i8*, i8*, i8*)

; Function Attrs: noinline nounwind uwtable
define linkonce_odr dso_local %class.cModule* @_ZN7cModule17SubmoduleIteratorppEi(%"class.cModule::SubmoduleIterator"* %this, i32 %0) #5 comdat align 2 !dbg !4111 {
entry:
  %retval = alloca %class.cModule*, align 8
  %this.addr = alloca %"class.cModule::SubmoduleIterator"*, align 8
  %.addr = alloca i32, align 4
  %t = alloca %class.cModule*, align 8
  store %"class.cModule::SubmoduleIterator"* %this, %"class.cModule::SubmoduleIterator"** %this.addr, align 8
  call void @llvm.dbg.declare(metadata %"class.cModule::SubmoduleIterator"** %this.addr, metadata !4112, metadata !DIExpression()), !dbg !4113
  store i32 %0, i32* %.addr, align 4
  call void @llvm.dbg.declare(metadata i32* %.addr, metadata !4114, metadata !DIExpression()), !dbg !4115
  %this1 = load %"class.cModule::SubmoduleIterator"*, %"class.cModule::SubmoduleIterator"** %this.addr, align 8
  %p = getelementptr inbounds %"class.cModule::SubmoduleIterator", %"class.cModule::SubmoduleIterator"* %this1, i32 0, i32 0, !dbg !4116
  %1 = load %class.cModule*, %class.cModule** %p, align 8, !dbg !4116
  %tobool = icmp ne %class.cModule* %1, null, !dbg !4116
  br i1 %tobool, label %if.end, label %if.then, !dbg !4118

if.then:                                          ; preds = %entry
  store %class.cModule* null, %class.cModule** %retval, align 8, !dbg !4119
  br label %return, !dbg !4119

if.end:                                           ; preds = %entry
  call void @llvm.dbg.declare(metadata %class.cModule** %t, metadata !4120, metadata !DIExpression()), !dbg !4121
  %p2 = getelementptr inbounds %"class.cModule::SubmoduleIterator", %"class.cModule::SubmoduleIterator"* %this1, i32 0, i32 0, !dbg !4122
  %2 = load %class.cModule*, %class.cModule** %p2, align 8, !dbg !4122
  store %class.cModule* %2, %class.cModule** %t, align 8, !dbg !4121
  %p3 = getelementptr inbounds %"class.cModule::SubmoduleIterator", %"class.cModule::SubmoduleIterator"* %this1, i32 0, i32 0, !dbg !4123
  %3 = load %class.cModule*, %class.cModule** %p3, align 8, !dbg !4123
  %nextp = getelementptr inbounds %class.cModule, %class.cModule* %3, i32 0, i32 4, !dbg !4124
  %4 = load %class.cModule*, %class.cModule** %nextp, align 8, !dbg !4124
  %p4 = getelementptr inbounds %"class.cModule::SubmoduleIterator", %"class.cModule::SubmoduleIterator"* %this1, i32 0, i32 0, !dbg !4125
  store %class.cModule* %4, %class.cModule** %p4, align 8, !dbg !4126
  %5 = load %class.cModule*, %class.cModule** %t, align 8, !dbg !4127
  store %class.cModule* %5, %class.cModule** %retval, align 8, !dbg !4128
  br label %return, !dbg !4128

return:                                           ; preds = %if.end, %if.then
  %6 = load %class.cModule*, %class.cModule** %retval, align 8, !dbg !4129
  ret %class.cModule* %6, !dbg !4129
}

; Function Attrs: noinline uwtable
define linkonce_odr dso_local void @_ZN7cModule12GateIteratorC2EPKS_(%"class.cModule::GateIterator"* %this, %class.cModule* %m) unnamed_addr #0 comdat align 2 !dbg !4130 {
entry:
  %this.addr = alloca %"class.cModule::GateIterator"*, align 8
  %m.addr = alloca %class.cModule*, align 8
  store %"class.cModule::GateIterator"* %this, %"class.cModule::GateIterator"** %this.addr, align 8
  call void @llvm.dbg.declare(metadata %"class.cModule::GateIterator"** %this.addr, metadata !4131, metadata !DIExpression()), !dbg !4133
  store %class.cModule* %m, %class.cModule** %m.addr, align 8
  call void @llvm.dbg.declare(metadata %class.cModule** %m.addr, metadata !4134, metadata !DIExpression()), !dbg !4135
  %this1 = load %"class.cModule::GateIterator"*, %"class.cModule::GateIterator"** %this.addr, align 8
  %0 = load %class.cModule*, %class.cModule** %m.addr, align 8, !dbg !4136
  call void @_ZN7cModule12GateIterator4initEPKS_(%"class.cModule::GateIterator"* %this1, %class.cModule* %0), !dbg !4138
  ret void, !dbg !4139
}

; Function Attrs: noinline nounwind uwtable
define dso_local zeroext i1 @_ZNK7cModule12GateIterator3endEv(%"class.cModule::GateIterator"* %this) #5 align 2 !dbg !4140 {
entry:
  %this.addr = alloca %"class.cModule::GateIterator"*, align 8
  store %"class.cModule::GateIterator"* %this, %"class.cModule::GateIterator"** %this.addr, align 8
  call void @llvm.dbg.declare(metadata %"class.cModule::GateIterator"** %this.addr, metadata !4141, metadata !DIExpression()), !dbg !4143
  %this1 = load %"class.cModule::GateIterator"*, %"class.cModule::GateIterator"** %this.addr, align 8
  %descIndex = getelementptr inbounds %"class.cModule::GateIterator", %"class.cModule::GateIterator"* %this1, i32 0, i32 1, !dbg !4144
  %0 = load i32, i32* %descIndex, align 8, !dbg !4144
  %module = getelementptr inbounds %"class.cModule::GateIterator", %"class.cModule::GateIterator"* %this1, i32 0, i32 0, !dbg !4145
  %1 = load %class.cModule*, %class.cModule** %module, align 8, !dbg !4145
  %descvSize = getelementptr inbounds %class.cModule, %class.cModule* %1, i32 0, i32 7, !dbg !4146
  %2 = load i32, i32* %descvSize, align 8, !dbg !4146
  %cmp = icmp sge i32 %0, %2, !dbg !4147
  ret i1 %cmp, !dbg !4148
}

; Function Attrs: noinline uwtable
define linkonce_odr dso_local %class.cGate* @_ZNK7cModule12GateIteratorclEv(%"class.cModule::GateIterator"* %this) #0 comdat align 2 !dbg !4149 {
entry:
  %this.addr = alloca %"class.cModule::GateIterator"*, align 8
  %result = alloca %class.cGate*, align 8
  store %"class.cModule::GateIterator"* %this, %"class.cModule::GateIterator"** %this.addr, align 8
  call void @llvm.dbg.declare(metadata %"class.cModule::GateIterator"** %this.addr, metadata !4150, metadata !DIExpression()), !dbg !4151
  %this1 = load %"class.cModule::GateIterator"*, %"class.cModule::GateIterator"** %this.addr, align 8
  call void @llvm.dbg.declare(metadata %class.cGate** %result, metadata !4152, metadata !DIExpression()), !dbg !4153
  %call = call %class.cGate* @_ZNK7cModule12GateIterator7currentEv(%"class.cModule::GateIterator"* %this1), !dbg !4154
  store %class.cGate* %call, %class.cGate** %result, align 8, !dbg !4153
  %0 = load %class.cGate*, %class.cGate** %result, align 8, !dbg !4155
  ret %class.cGate* %0, !dbg !4156
}

; Function Attrs: noinline nounwind uwtable
define linkonce_odr dso_local %class.cGate* @_ZNK5cGate11getNextGateEv(%class.cGate* %this) #5 comdat align 2 !dbg !4157 {
entry:
  %this.addr = alloca %class.cGate*, align 8
  store %class.cGate* %this, %class.cGate** %this.addr, align 8
  call void @llvm.dbg.declare(metadata %class.cGate** %this.addr, metadata !4162, metadata !DIExpression()), !dbg !4163
  %this1 = load %class.cGate*, %class.cGate** %this.addr, align 8
  %nextgatep = getelementptr inbounds %class.cGate, %class.cGate* %this1, i32 0, i32 5, !dbg !4164
  %0 = load %class.cGate*, %class.cGate** %nextgatep, align 8, !dbg !4164
  ret %class.cGate* %0, !dbg !4165
}

; Function Attrs: noinline nounwind uwtable
define linkonce_odr dso_local %class.cGate* @_ZNK5cGate15getPreviousGateEv(%class.cGate* %this) #5 comdat align 2 !dbg !4166 {
entry:
  %this.addr = alloca %class.cGate*, align 8
  store %class.cGate* %this, %class.cGate** %this.addr, align 8
  call void @llvm.dbg.declare(metadata %class.cGate** %this.addr, metadata !4168, metadata !DIExpression()), !dbg !4169
  %this1 = load %class.cGate*, %class.cGate** %this.addr, align 8
  %prevgatep = getelementptr inbounds %class.cGate, %class.cGate* %this1, i32 0, i32 4, !dbg !4170
  %0 = load %class.cGate*, %class.cGate** %prevgatep, align 8, !dbg !4170
  ret %class.cGate* %0, !dbg !4171
}

declare dso_local void @_ZN5cGate10disconnectEv(%class.cGate*) #1

; Function Attrs: noinline uwtable
define dso_local %class.cGate* @_ZN7cModule12GateIteratorppEi(%"class.cModule::GateIterator"* %this, i32 %0) #0 align 2 !dbg !4172 {
entry:
  %retval = alloca %class.cGate*, align 8
  %this.addr = alloca %"class.cModule::GateIterator"*, align 8
  %.addr = alloca i32, align 4
  %gate = alloca %class.cGate*, align 8
  store %"class.cModule::GateIterator"* %this, %"class.cModule::GateIterator"** %this.addr, align 8
  call void @llvm.dbg.declare(metadata %"class.cModule::GateIterator"** %this.addr, metadata !4173, metadata !DIExpression()), !dbg !4174
  store i32 %0, i32* %.addr, align 4
  call void @llvm.dbg.declare(metadata i32* %.addr, metadata !4175, metadata !DIExpression()), !dbg !4176
  %this1 = load %"class.cModule::GateIterator"*, %"class.cModule::GateIterator"** %this.addr, align 8
  %call = call zeroext i1 @_ZNK7cModule12GateIterator3endEv(%"class.cModule::GateIterator"* %this1), !dbg !4177
  br i1 %call, label %if.then, label %if.end, !dbg !4179

if.then:                                          ; preds = %entry
  store %class.cGate* null, %class.cGate** %retval, align 8, !dbg !4180
  br label %return, !dbg !4180

if.end:                                           ; preds = %entry
  call void @llvm.dbg.declare(metadata %class.cGate** %gate, metadata !4181, metadata !DIExpression()), !dbg !4182
  store %class.cGate* null, %class.cGate** %gate, align 8, !dbg !4182
  br label %do.body, !dbg !4183

do.body:                                          ; preds = %land.end, %if.end
  call void @_ZN7cModule12GateIterator7advanceEv(%"class.cModule::GateIterator"* %this1), !dbg !4184
  br label %do.cond, !dbg !4186

do.cond:                                          ; preds = %do.body
  %call2 = call zeroext i1 @_ZNK7cModule12GateIterator3endEv(%"class.cModule::GateIterator"* %this1), !dbg !4187
  br i1 %call2, label %land.end, label %land.rhs, !dbg !4188

land.rhs:                                         ; preds = %do.cond
  %call3 = call %class.cGate* @_ZNK7cModule12GateIterator7currentEv(%"class.cModule::GateIterator"* %this1), !dbg !4189
  store %class.cGate* %call3, %class.cGate** %gate, align 8, !dbg !4190
  %cmp = icmp eq %class.cGate* %call3, null, !dbg !4191
  br label %land.end

land.end:                                         ; preds = %land.rhs, %do.cond
  %1 = phi i1 [ false, %do.cond ], [ %cmp, %land.rhs ], !dbg !4174
  br i1 %1, label %do.body, label %do.end, !dbg !4186, !llvm.loop !4192

do.end:                                           ; preds = %land.end
  %2 = load %class.cGate*, %class.cGate** %gate, align 8, !dbg !4194
  store %class.cGate* %2, %class.cGate** %retval, align 8, !dbg !4195
  br label %return, !dbg !4195

return:                                           ; preds = %do.end, %if.then
  %3 = load %class.cGate*, %class.cGate** %retval, align 8, !dbg !4196
  ret %class.cGate* %3, !dbg !4196
}

; Function Attrs: noinline uwtable
define dso_local void @_ZN7cModule10clearGatesEv(%class.cModule* %this) #0 align 2 !dbg !4197 {
entry:
  %this.addr = alloca %class.cModule*, align 8
  %i = alloca i32, align 4
  store %class.cModule* %this, %class.cModule** %this.addr, align 8
  call void @llvm.dbg.declare(metadata %class.cModule** %this.addr, metadata !4198, metadata !DIExpression()), !dbg !4199
  %this1 = load %class.cModule*, %class.cModule** %this.addr, align 8
  call void @llvm.dbg.declare(metadata i32* %i, metadata !4200, metadata !DIExpression()), !dbg !4202
  store i32 0, i32* %i, align 4, !dbg !4202
  br label %for.cond, !dbg !4203

for.cond:                                         ; preds = %for.inc, %entry
  %0 = load i32, i32* %i, align 4, !dbg !4204
  %descvSize = getelementptr inbounds %class.cModule, %class.cModule* %this1, i32 0, i32 7, !dbg !4206
  %1 = load i32, i32* %descvSize, align 8, !dbg !4206
  %cmp = icmp slt i32 %0, %1, !dbg !4207
  br i1 %cmp, label %for.body, label %for.end, !dbg !4208

for.body:                                         ; preds = %for.cond
  %descv = getelementptr inbounds %class.cModule, %class.cModule* %this1, i32 0, i32 8, !dbg !4209
  %2 = load %"struct.cGate::Desc"*, %"struct.cGate::Desc"** %descv, align 8, !dbg !4209
  %3 = load i32, i32* %i, align 4, !dbg !4210
  %idx.ext = sext i32 %3 to i64, !dbg !4211
  %add.ptr = getelementptr inbounds %"struct.cGate::Desc", %"struct.cGate::Desc"* %2, i64 %idx.ext, !dbg !4211
  call void @_ZN7cModule15disposeGateDescEPN5cGate4DescEb(%class.cModule* %this1, %"struct.cGate::Desc"* %add.ptr, i1 zeroext false), !dbg !4212
  br label %for.inc, !dbg !4212

for.inc:                                          ; preds = %for.body
  %4 = load i32, i32* %i, align 4, !dbg !4213
  %inc = add nsw i32 %4, 1, !dbg !4213
  store i32 %inc, i32* %i, align 4, !dbg !4213
  br label %for.cond, !dbg !4214, !llvm.loop !4215

for.end:                                          ; preds = %for.cond
  %descv2 = getelementptr inbounds %class.cModule, %class.cModule* %this1, i32 0, i32 8, !dbg !4217
  %5 = load %"struct.cGate::Desc"*, %"struct.cGate::Desc"** %descv2, align 8, !dbg !4217
  %isnull = icmp eq %"struct.cGate::Desc"* %5, null, !dbg !4218
  br i1 %isnull, label %delete.end, label %delete.notnull, !dbg !4218

delete.notnull:                                   ; preds = %for.end
  %6 = bitcast %"struct.cGate::Desc"* %5 to i8*, !dbg !4218
  call void @_ZdaPv(i8* %6) #17, !dbg !4218
  br label %delete.end, !dbg !4218

delete.end:                                       ; preds = %delete.notnull, %for.end
  %descv3 = getelementptr inbounds %class.cModule, %class.cModule* %this1, i32 0, i32 8, !dbg !4219
  store %"struct.cGate::Desc"* null, %"struct.cGate::Desc"** %descv3, align 8, !dbg !4220
  %descvSize4 = getelementptr inbounds %class.cModule, %class.cModule* %this1, i32 0, i32 7, !dbg !4221
  store i32 0, i32* %descvSize4, align 8, !dbg !4222
  ret void, !dbg !4223
}

declare dso_local void @_ZN11cSimulation16deregisterModuleEP7cModule(%class.cSimulation*, %class.cModule*) #1

; Function Attrs: noinline nounwind uwtable
define dso_local void @_ZN7cModule15removeSubmoduleEPS_(%class.cModule* %this, %class.cModule* %mod) #5 align 2 !dbg !4224 {
entry:
  %this.addr = alloca %class.cModule*, align 8
  %mod.addr = alloca %class.cModule*, align 8
  store %class.cModule* %this, %class.cModule** %this.addr, align 8
  call void @llvm.dbg.declare(metadata %class.cModule** %this.addr, metadata !4225, metadata !DIExpression()), !dbg !4226
  store %class.cModule* %mod, %class.cModule** %mod.addr, align 8
  call void @llvm.dbg.declare(metadata %class.cModule** %mod.addr, metadata !4227, metadata !DIExpression()), !dbg !4228
  %this1 = load %class.cModule*, %class.cModule** %this.addr, align 8
  %0 = load %class.cModule*, %class.cModule** %mod.addr, align 8, !dbg !4229
  %nextp = getelementptr inbounds %class.cModule, %class.cModule* %0, i32 0, i32 4, !dbg !4231
  %1 = load %class.cModule*, %class.cModule** %nextp, align 8, !dbg !4231
  %tobool = icmp ne %class.cModule* %1, null, !dbg !4229
  br i1 %tobool, label %if.then, label %if.end, !dbg !4232

if.then:                                          ; preds = %entry
  %2 = load %class.cModule*, %class.cModule** %mod.addr, align 8, !dbg !4233
  %prevp = getelementptr inbounds %class.cModule, %class.cModule* %2, i32 0, i32 3, !dbg !4234
  %3 = load %class.cModule*, %class.cModule** %prevp, align 8, !dbg !4234
  %4 = load %class.cModule*, %class.cModule** %mod.addr, align 8, !dbg !4235
  %nextp2 = getelementptr inbounds %class.cModule, %class.cModule* %4, i32 0, i32 4, !dbg !4236
  %5 = load %class.cModule*, %class.cModule** %nextp2, align 8, !dbg !4236
  %prevp3 = getelementptr inbounds %class.cModule, %class.cModule* %5, i32 0, i32 3, !dbg !4237
  store %class.cModule* %3, %class.cModule** %prevp3, align 8, !dbg !4238
  br label %if.end, !dbg !4235

if.end:                                           ; preds = %if.then, %entry
  %6 = load %class.cModule*, %class.cModule** %mod.addr, align 8, !dbg !4239
  %prevp4 = getelementptr inbounds %class.cModule, %class.cModule* %6, i32 0, i32 3, !dbg !4241
  %7 = load %class.cModule*, %class.cModule** %prevp4, align 8, !dbg !4241
  %tobool5 = icmp ne %class.cModule* %7, null, !dbg !4239
  br i1 %tobool5, label %if.then6, label %if.end10, !dbg !4242

if.then6:                                         ; preds = %if.end
  %8 = load %class.cModule*, %class.cModule** %mod.addr, align 8, !dbg !4243
  %nextp7 = getelementptr inbounds %class.cModule, %class.cModule* %8, i32 0, i32 4, !dbg !4244
  %9 = load %class.cModule*, %class.cModule** %nextp7, align 8, !dbg !4244
  %10 = load %class.cModule*, %class.cModule** %mod.addr, align 8, !dbg !4245
  %prevp8 = getelementptr inbounds %class.cModule, %class.cModule* %10, i32 0, i32 3, !dbg !4246
  %11 = load %class.cModule*, %class.cModule** %prevp8, align 8, !dbg !4246
  %nextp9 = getelementptr inbounds %class.cModule, %class.cModule* %11, i32 0, i32 4, !dbg !4247
  store %class.cModule* %9, %class.cModule** %nextp9, align 8, !dbg !4248
  br label %if.end10, !dbg !4245

if.end10:                                         ; preds = %if.then6, %if.end
  %firstsubmodp = getelementptr inbounds %class.cModule, %class.cModule* %this1, i32 0, i32 5, !dbg !4249
  %12 = load %class.cModule*, %class.cModule** %firstsubmodp, align 8, !dbg !4249
  %13 = load %class.cModule*, %class.cModule** %mod.addr, align 8, !dbg !4251
  %cmp = icmp eq %class.cModule* %12, %13, !dbg !4252
  br i1 %cmp, label %if.then11, label %if.end14, !dbg !4253

if.then11:                                        ; preds = %if.end10
  %14 = load %class.cModule*, %class.cModule** %mod.addr, align 8, !dbg !4254
  %nextp12 = getelementptr inbounds %class.cModule, %class.cModule* %14, i32 0, i32 4, !dbg !4255
  %15 = load %class.cModule*, %class.cModule** %nextp12, align 8, !dbg !4255
  %firstsubmodp13 = getelementptr inbounds %class.cModule, %class.cModule* %this1, i32 0, i32 5, !dbg !4256
  store %class.cModule* %15, %class.cModule** %firstsubmodp13, align 8, !dbg !4257
  br label %if.end14, !dbg !4256

if.end14:                                         ; preds = %if.then11, %if.end10
  %lastsubmodp = getelementptr inbounds %class.cModule, %class.cModule* %this1, i32 0, i32 6, !dbg !4258
  %16 = load %class.cModule*, %class.cModule** %lastsubmodp, align 8, !dbg !4258
  %17 = load %class.cModule*, %class.cModule** %mod.addr, align 8, !dbg !4260
  %cmp15 = icmp eq %class.cModule* %16, %17, !dbg !4261
  br i1 %cmp15, label %if.then16, label %if.end19, !dbg !4262

if.then16:                                        ; preds = %if.end14
  %18 = load %class.cModule*, %class.cModule** %mod.addr, align 8, !dbg !4263
  %prevp17 = getelementptr inbounds %class.cModule, %class.cModule* %18, i32 0, i32 3, !dbg !4264
  %19 = load %class.cModule*, %class.cModule** %prevp17, align 8, !dbg !4264
  %lastsubmodp18 = getelementptr inbounds %class.cModule, %class.cModule* %this1, i32 0, i32 6, !dbg !4265
  store %class.cModule* %19, %class.cModule** %lastsubmodp18, align 8, !dbg !4266
  br label %if.end19, !dbg !4265

if.end19:                                         ; preds = %if.then16, %if.end14
  %20 = load %class.cModule*, %class.cModule** %mod.addr, align 8, !dbg !4267
  %nextp20 = getelementptr inbounds %class.cModule, %class.cModule* %20, i32 0, i32 4, !dbg !4268
  store %class.cModule* null, %class.cModule** %nextp20, align 8, !dbg !4269
  %21 = load %class.cModule*, %class.cModule** %mod.addr, align 8, !dbg !4270
  %prevp21 = getelementptr inbounds %class.cModule, %class.cModule* %21, i32 0, i32 3, !dbg !4271
  store %class.cModule* null, %class.cModule** %prevp21, align 8, !dbg !4272
  store %class.cModule* null, %class.cModule** @_ZN7cModule21lastmodulefullpathmodE, align 8, !dbg !4273
  ret void, !dbg !4274
}

; Function Attrs: nobuiltin nounwind
declare dso_local void @_ZdaPv(i8*) #6

; Function Attrs: nounwind
declare dso_local void @_ZN10cComponentD2Ev(%class.cComponent*) unnamed_addr #2

; Function Attrs: noinline noreturn nounwind
define linkonce_odr hidden void @__clang_call_terminate(i8* %0) #7 comdat {
  %2 = call i8* @__cxa_begin_catch(i8* %0) #3
  call void @_ZSt9terminatev() #18
  unreachable
}

declare dso_local i8* @__cxa_begin_catch(i8*)

declare dso_local void @_ZSt9terminatev()

; Function Attrs: noinline nounwind uwtable
define dso_local void @_ZN7cModuleD0Ev(%class.cModule* %this) unnamed_addr #5 align 2 !dbg !4275 {
entry:
  %this.addr = alloca %class.cModule*, align 8
  store %class.cModule* %this, %class.cModule** %this.addr, align 8
  call void @llvm.dbg.declare(metadata %class.cModule** %this.addr, metadata !4276, metadata !DIExpression()), !dbg !4277
  %this1 = load %class.cModule*, %class.cModule** %this.addr, align 8
  call void @llvm.trap() #18, !dbg !4278
  unreachable, !dbg !4278
}

; Function Attrs: cold noreturn nounwind
declare void @llvm.trap() #8

; Function Attrs: noinline uwtable
define dso_local void @_ZN7cModule12forEachChildEP8cVisitor(%class.cModule* %this, %class.cVisitor* %v) unnamed_addr #0 align 2 !dbg !4279 {
entry:
  %this.addr = alloca %class.cModule*, align 8
  %v.addr = alloca %class.cVisitor*, align 8
  %i = alloca i32, align 4
  %i2 = alloca %"class.cModule::GateIterator", align 8
  store %class.cModule* %this, %class.cModule** %this.addr, align 8
  call void @llvm.dbg.declare(metadata %class.cModule** %this.addr, metadata !4280, metadata !DIExpression()), !dbg !4281
  store %class.cVisitor* %v, %class.cVisitor** %v.addr, align 8
  call void @llvm.dbg.declare(metadata %class.cVisitor** %v.addr, metadata !4282, metadata !DIExpression()), !dbg !4283
  %this1 = load %class.cModule*, %class.cModule** %this.addr, align 8
  call void @llvm.dbg.declare(metadata i32* %i, metadata !4284, metadata !DIExpression()), !dbg !4286
  store i32 0, i32* %i, align 4, !dbg !4286
  br label %for.cond, !dbg !4287

for.cond:                                         ; preds = %for.inc, %entry
  %0 = load i32, i32* %i, align 4, !dbg !4288
  %1 = bitcast %class.cModule* %this1 to %class.cComponent*, !dbg !4290
  %numparams = getelementptr inbounds %class.cComponent, %class.cComponent* %1, i32 0, i32 5, !dbg !4290
  %2 = load i16, i16* %numparams, align 2, !dbg !4290
  %conv = sext i16 %2 to i32, !dbg !4290
  %cmp = icmp slt i32 %0, %conv, !dbg !4291
  br i1 %cmp, label %for.body, label %for.end, !dbg !4292

for.body:                                         ; preds = %for.cond
  %3 = load %class.cVisitor*, %class.cVisitor** %v.addr, align 8, !dbg !4293
  %4 = bitcast %class.cModule* %this1 to %class.cComponent*, !dbg !4294
  %paramv = getelementptr inbounds %class.cComponent, %class.cComponent* %4, i32 0, i32 6, !dbg !4294
  %5 = load %class.cPar*, %class.cPar** %paramv, align 8, !dbg !4294
  %6 = load i32, i32* %i, align 4, !dbg !4295
  %idxprom = sext i32 %6 to i64, !dbg !4294
  %arrayidx = getelementptr inbounds %class.cPar, %class.cPar* %5, i64 %idxprom, !dbg !4294
  %7 = bitcast %class.cPar* %arrayidx to %class.cObject*, !dbg !4296
  %8 = bitcast %class.cVisitor* %3 to void (%class.cVisitor*, %class.cObject*)***, !dbg !4297
  %vtable = load void (%class.cVisitor*, %class.cObject*)**, void (%class.cVisitor*, %class.cObject*)*** %8, align 8, !dbg !4297
  %vfn = getelementptr inbounds void (%class.cVisitor*, %class.cObject*)*, void (%class.cVisitor*, %class.cObject*)** %vtable, i64 4, !dbg !4297
  %9 = load void (%class.cVisitor*, %class.cObject*)*, void (%class.cVisitor*, %class.cObject*)** %vfn, align 8, !dbg !4297
  call void %9(%class.cVisitor* %3, %class.cObject* %7), !dbg !4297
  br label %for.inc, !dbg !4293

for.inc:                                          ; preds = %for.body
  %10 = load i32, i32* %i, align 4, !dbg !4298
  %inc = add nsw i32 %10, 1, !dbg !4298
  store i32 %inc, i32* %i, align 4, !dbg !4298
  br label %for.cond, !dbg !4299, !llvm.loop !4300

for.end:                                          ; preds = %for.cond
  call void @llvm.dbg.declare(metadata %"class.cModule::GateIterator"* %i2, metadata !4302, metadata !DIExpression()), !dbg !4304
  call void @_ZN7cModule12GateIteratorC2EPKS_(%"class.cModule::GateIterator"* %i2, %class.cModule* %this1), !dbg !4304
  br label %for.cond3, !dbg !4305

for.cond3:                                        ; preds = %for.inc8, %for.end
  %call = call zeroext i1 @_ZNK7cModule12GateIterator3endEv(%"class.cModule::GateIterator"* %i2), !dbg !4306
  %lnot = xor i1 %call, true, !dbg !4308
  br i1 %lnot, label %for.body4, label %for.end10, !dbg !4309

for.body4:                                        ; preds = %for.cond3
  %11 = load %class.cVisitor*, %class.cVisitor** %v.addr, align 8, !dbg !4310
  %call5 = call %class.cGate* @_ZNK7cModule12GateIteratorclEv(%"class.cModule::GateIterator"* %i2), !dbg !4311
  %12 = bitcast %class.cGate* %call5 to %class.cObject*, !dbg !4311
  %13 = bitcast %class.cVisitor* %11 to void (%class.cVisitor*, %class.cObject*)***, !dbg !4312
  %vtable6 = load void (%class.cVisitor*, %class.cObject*)**, void (%class.cVisitor*, %class.cObject*)*** %13, align 8, !dbg !4312
  %vfn7 = getelementptr inbounds void (%class.cVisitor*, %class.cObject*)*, void (%class.cVisitor*, %class.cObject*)** %vtable6, i64 4, !dbg !4312
  %14 = load void (%class.cVisitor*, %class.cObject*)*, void (%class.cVisitor*, %class.cObject*)** %vfn7, align 8, !dbg !4312
  call void %14(%class.cVisitor* %11, %class.cObject* %12), !dbg !4312
  br label %for.inc8, !dbg !4310

for.inc8:                                         ; preds = %for.body4
  %call9 = call %class.cGate* @_ZN7cModule12GateIteratorppEi(%"class.cModule::GateIterator"* %i2, i32 0), !dbg !4313
  br label %for.cond3, !dbg !4314, !llvm.loop !4315

for.end10:                                        ; preds = %for.cond3
  %15 = bitcast %class.cModule* %this1 to %class.cDefaultList*, !dbg !4317
  %16 = load %class.cVisitor*, %class.cVisitor** %v.addr, align 8, !dbg !4318
  call void @_ZN12cDefaultList12forEachChildEP8cVisitor(%class.cDefaultList* %15, %class.cVisitor* %16), !dbg !4317
  ret void, !dbg !4319
}

declare dso_local void @_ZN12cDefaultList12forEachChildEP8cVisitor(%class.cDefaultList*, %class.cVisitor*) unnamed_addr #1

; Function Attrs: noinline nounwind uwtable
define dso_local void @_ZN7cModule5setIdEi(%class.cModule* %this, i32 %n) unnamed_addr #5 align 2 !dbg !4320 {
entry:
  %this.addr = alloca %class.cModule*, align 8
  %n.addr = alloca i32, align 4
  store %class.cModule* %this, %class.cModule** %this.addr, align 8
  call void @llvm.dbg.declare(metadata %class.cModule** %this.addr, metadata !4321, metadata !DIExpression()), !dbg !4322
  store i32 %n, i32* %n.addr, align 4
  call void @llvm.dbg.declare(metadata i32* %n.addr, metadata !4323, metadata !DIExpression()), !dbg !4324
  %this1 = load %class.cModule*, %class.cModule** %this.addr, align 8
  %0 = load i32, i32* %n.addr, align 4, !dbg !4325
  %mod_id = getelementptr inbounds %class.cModule, %class.cModule* %this1, i32 0, i32 2, !dbg !4326
  store i32 %0, i32* %mod_id, align 8, !dbg !4327
  ret void, !dbg !4328
}

; Function Attrs: noinline uwtable
define dso_local void @_ZN7cModule8setIndexEii(%class.cModule* %this, i32 %i, i32 %n) unnamed_addr #0 align 2 !dbg !4329 {
entry:
  %this.addr = alloca %class.cModule*, align 8
  %i.addr = alloca i32, align 4
  %n.addr = alloca i32, align 4
  store %class.cModule* %this, %class.cModule** %this.addr, align 8
  call void @llvm.dbg.declare(metadata %class.cModule** %this.addr, metadata !4330, metadata !DIExpression()), !dbg !4331
  store i32 %i, i32* %i.addr, align 4
  call void @llvm.dbg.declare(metadata i32* %i.addr, metadata !4332, metadata !DIExpression()), !dbg !4333
  store i32 %n, i32* %n.addr, align 4
  call void @llvm.dbg.declare(metadata i32* %n.addr, metadata !4334, metadata !DIExpression()), !dbg !4335
  %this1 = load %class.cModule*, %class.cModule** %this.addr, align 8
  %0 = load i32, i32* %i.addr, align 4, !dbg !4336
  %idx = getelementptr inbounds %class.cModule, %class.cModule* %this1, i32 0, i32 9, !dbg !4337
  store i32 %0, i32* %idx, align 8, !dbg !4338
  %1 = load i32, i32* %n.addr, align 4, !dbg !4339
  %vectsize = getelementptr inbounds %class.cModule, %class.cModule* %this1, i32 0, i32 10, !dbg !4340
  store i32 %1, i32* %vectsize, align 4, !dbg !4341
  call void @_ZN7cModule14updateFullNameEv(%class.cModule* %this1), !dbg !4342
  ret void, !dbg !4343
}

; Function Attrs: noinline uwtable
define dso_local void @_ZN7cModule14updateFullNameEv(%class.cModule* %this) #0 align 2 !dbg !4344 {
entry:
  %this.addr = alloca %class.cModule*, align 8
  store %class.cModule* %this, %class.cModule** %this.addr, align 8
  call void @llvm.dbg.declare(metadata %class.cModule** %this.addr, metadata !4345, metadata !DIExpression()), !dbg !4346
  %this1 = load %class.cModule*, %class.cModule** %this.addr, align 8
  %fullname = getelementptr inbounds %class.cModule, %class.cModule* %this1, i32 0, i32 1, !dbg !4347
  %0 = load i8*, i8** %fullname, align 8, !dbg !4347
  %tobool = icmp ne i8* %0, null, !dbg !4347
  br i1 %tobool, label %if.then, label %if.end, !dbg !4349

if.then:                                          ; preds = %entry
  %fullname2 = getelementptr inbounds %class.cModule, %class.cModule* %this1, i32 0, i32 1, !dbg !4350
  %1 = load i8*, i8** %fullname2, align 8, !dbg !4350
  %isnull = icmp eq i8* %1, null, !dbg !4352
  br i1 %isnull, label %delete.end, label %delete.notnull, !dbg !4352

delete.notnull:                                   ; preds = %if.then
  call void @_ZdaPv(i8* %1) #17, !dbg !4352
  br label %delete.end, !dbg !4352

delete.end:                                       ; preds = %delete.notnull, %if.then
  %fullname3 = getelementptr inbounds %class.cModule, %class.cModule* %this1, i32 0, i32 1, !dbg !4353
  store i8* null, i8** %fullname3, align 8, !dbg !4354
  br label %if.end, !dbg !4355

if.end:                                           ; preds = %delete.end, %entry
  %call = call zeroext i1 @_ZNK7cModule8isVectorEv(%class.cModule* %this1), !dbg !4356
  br i1 %call, label %if.then4, label %if.end16, !dbg !4358

if.then4:                                         ; preds = %if.end
  %2 = bitcast %class.cModule* %this1 to %class.cNamedObject*, !dbg !4359
  %3 = bitcast %class.cNamedObject* %2 to i8* (%class.cNamedObject*)***, !dbg !4359
  %vtable = load i8* (%class.cNamedObject*)**, i8* (%class.cNamedObject*)*** %3, align 8, !dbg !4359
  %vfn = getelementptr inbounds i8* (%class.cNamedObject*)*, i8* (%class.cNamedObject*)** %vtable, i64 6, !dbg !4359
  %4 = load i8* (%class.cNamedObject*)*, i8* (%class.cNamedObject*)** %vfn, align 8, !dbg !4359
  %call5 = call i8* %4(%class.cNamedObject* %2), !dbg !4359
  %call6 = call i32 @_Z10opp_strlenPKc(i8* %call5), !dbg !4361
  %add = add nsw i32 %call6, 10, !dbg !4362
  %conv = sext i32 %add to i64, !dbg !4361
  %call7 = call i8* @_Znam(i64 %conv) #19, !dbg !4363
  %fullname8 = getelementptr inbounds %class.cModule, %class.cModule* %this1, i32 0, i32 1, !dbg !4364
  store i8* %call7, i8** %fullname8, align 8, !dbg !4365
  %fullname9 = getelementptr inbounds %class.cModule, %class.cModule* %this1, i32 0, i32 1, !dbg !4366
  %5 = load i8*, i8** %fullname9, align 8, !dbg !4366
  %6 = bitcast %class.cModule* %this1 to %class.cNamedObject*, !dbg !4367
  %7 = bitcast %class.cNamedObject* %6 to i8* (%class.cNamedObject*)***, !dbg !4367
  %vtable10 = load i8* (%class.cNamedObject*)**, i8* (%class.cNamedObject*)*** %7, align 8, !dbg !4367
  %vfn11 = getelementptr inbounds i8* (%class.cNamedObject*)*, i8* (%class.cNamedObject*)** %vtable10, i64 6, !dbg !4367
  %8 = load i8* (%class.cNamedObject*)*, i8* (%class.cNamedObject*)** %vfn11, align 8, !dbg !4367
  %call12 = call i8* %8(%class.cNamedObject* %6), !dbg !4367
  %call13 = call i8* @strcpy(i8* %5, i8* %call12) #3, !dbg !4368
  %fullname14 = getelementptr inbounds %class.cModule, %class.cModule* %this1, i32 0, i32 1, !dbg !4369
  %9 = load i8*, i8** %fullname14, align 8, !dbg !4369
  %call15 = call i32 @_ZNK7cModule8getIndexEv(%class.cModule* %this1), !dbg !4370
  call void @_Z15opp_appendindexPcj(i8* %9, i32 %call15), !dbg !4371
  br label %if.end16, !dbg !4372

if.end16:                                         ; preds = %if.then4, %if.end
  %10 = load %class.cModule*, %class.cModule** @_ZN7cModule21lastmodulefullpathmodE, align 8, !dbg !4373
  %cmp = icmp eq %class.cModule* %10, %this1, !dbg !4375
  br i1 %cmp, label %if.then17, label %if.end18, !dbg !4376

if.then17:                                        ; preds = %if.end16
  store %class.cModule* null, %class.cModule** @_ZN7cModule21lastmodulefullpathmodE, align 8, !dbg !4377
  br label %if.end18, !dbg !4378

if.end18:                                         ; preds = %if.then17, %if.end16
  ret void, !dbg !4379
}

; Function Attrs: noinline uwtable
define dso_local void @_ZN7cModule15insertSubmoduleEPS_(%class.cModule* %this, %class.cModule* %mod) #0 align 2 !dbg !4380 {
entry:
  %this.addr = alloca %class.cModule*, align 8
  %mod.addr = alloca %class.cModule*, align 8
  store %class.cModule* %this, %class.cModule** %this.addr, align 8
  call void @llvm.dbg.declare(metadata %class.cModule** %this.addr, metadata !4381, metadata !DIExpression()), !dbg !4382
  store %class.cModule* %mod, %class.cModule** %mod.addr, align 8
  call void @llvm.dbg.declare(metadata %class.cModule** %mod.addr, metadata !4383, metadata !DIExpression()), !dbg !4384
  %this1 = load %class.cModule*, %class.cModule** %this.addr, align 8
  %0 = bitcast %class.cModule* %this1 to %class.cDefaultList*, !dbg !4385
  %1 = load %class.cModule*, %class.cModule** %mod.addr, align 8, !dbg !4386
  %2 = bitcast %class.cModule* %1 to %class.cOwnedObject*, !dbg !4386
  %3 = bitcast %class.cDefaultList* %0 to void (%class.cDefaultList*, %class.cOwnedObject*)***, !dbg !4385
  %vtable = load void (%class.cDefaultList*, %class.cOwnedObject*)**, void (%class.cDefaultList*, %class.cOwnedObject*)*** %3, align 8, !dbg !4385
  %vfn = getelementptr inbounds void (%class.cDefaultList*, %class.cOwnedObject*)*, void (%class.cDefaultList*, %class.cOwnedObject*)** %vtable, i64 12, !dbg !4385
  %4 = load void (%class.cDefaultList*, %class.cOwnedObject*)*, void (%class.cDefaultList*, %class.cOwnedObject*)** %vfn, align 8, !dbg !4385
  call void %4(%class.cDefaultList* %0, %class.cOwnedObject* %2), !dbg !4385
  %5 = load %class.cModule*, %class.cModule** %mod.addr, align 8, !dbg !4387
  %nextp = getelementptr inbounds %class.cModule, %class.cModule* %5, i32 0, i32 4, !dbg !4388
  store %class.cModule* null, %class.cModule** %nextp, align 8, !dbg !4389
  %lastsubmodp = getelementptr inbounds %class.cModule, %class.cModule* %this1, i32 0, i32 6, !dbg !4390
  %6 = load %class.cModule*, %class.cModule** %lastsubmodp, align 8, !dbg !4390
  %7 = load %class.cModule*, %class.cModule** %mod.addr, align 8, !dbg !4391
  %prevp = getelementptr inbounds %class.cModule, %class.cModule* %7, i32 0, i32 3, !dbg !4392
  store %class.cModule* %6, %class.cModule** %prevp, align 8, !dbg !4393
  %8 = load %class.cModule*, %class.cModule** %mod.addr, align 8, !dbg !4394
  %prevp2 = getelementptr inbounds %class.cModule, %class.cModule* %8, i32 0, i32 3, !dbg !4396
  %9 = load %class.cModule*, %class.cModule** %prevp2, align 8, !dbg !4396
  %tobool = icmp ne %class.cModule* %9, null, !dbg !4394
  br i1 %tobool, label %if.then, label %if.end, !dbg !4397

if.then:                                          ; preds = %entry
  %10 = load %class.cModule*, %class.cModule** %mod.addr, align 8, !dbg !4398
  %11 = load %class.cModule*, %class.cModule** %mod.addr, align 8, !dbg !4399
  %prevp3 = getelementptr inbounds %class.cModule, %class.cModule* %11, i32 0, i32 3, !dbg !4400
  %12 = load %class.cModule*, %class.cModule** %prevp3, align 8, !dbg !4400
  %nextp4 = getelementptr inbounds %class.cModule, %class.cModule* %12, i32 0, i32 4, !dbg !4401
  store %class.cModule* %10, %class.cModule** %nextp4, align 8, !dbg !4402
  br label %if.end, !dbg !4399

if.end:                                           ; preds = %if.then, %entry
  %firstsubmodp = getelementptr inbounds %class.cModule, %class.cModule* %this1, i32 0, i32 5, !dbg !4403
  %13 = load %class.cModule*, %class.cModule** %firstsubmodp, align 8, !dbg !4403
  %tobool5 = icmp ne %class.cModule* %13, null, !dbg !4403
  br i1 %tobool5, label %if.end8, label %if.then6, !dbg !4405

if.then6:                                         ; preds = %if.end
  %14 = load %class.cModule*, %class.cModule** %mod.addr, align 8, !dbg !4406
  %firstsubmodp7 = getelementptr inbounds %class.cModule, %class.cModule* %this1, i32 0, i32 5, !dbg !4407
  store %class.cModule* %14, %class.cModule** %firstsubmodp7, align 8, !dbg !4408
  br label %if.end8, !dbg !4407

if.end8:                                          ; preds = %if.then6, %if.end
  %15 = load %class.cModule*, %class.cModule** %mod.addr, align 8, !dbg !4409
  %lastsubmodp9 = getelementptr inbounds %class.cModule, %class.cModule* %this1, i32 0, i32 6, !dbg !4410
  store %class.cModule* %15, %class.cModule** %lastsubmodp9, align 8, !dbg !4411
  store %class.cModule* null, %class.cModule** @_ZN7cModule21lastmodulefullpathmodE, align 8, !dbg !4412
  ret void, !dbg !4413
}

; Function Attrs: noinline uwtable
define dso_local %class.cModule* @_ZNK7cModule15getParentModuleEv(%class.cModule* %this) unnamed_addr #0 align 2 !dbg !4414 {
entry:
  %this.addr = alloca %class.cModule*, align 8
  store %class.cModule* %this, %class.cModule** %this.addr, align 8
  call void @llvm.dbg.declare(metadata %class.cModule** %this.addr, metadata !4415, metadata !DIExpression()), !dbg !4416
  %this1 = load %class.cModule*, %class.cModule** %this.addr, align 8
  %0 = bitcast %class.cModule* %this1 to %class.cOwnedObject*, !dbg !4417
  %1 = bitcast %class.cOwnedObject* %0 to %class.cObject* (%class.cOwnedObject*)***, !dbg !4417
  %vtable = load %class.cObject* (%class.cOwnedObject*)**, %class.cObject* (%class.cOwnedObject*)*** %1, align 8, !dbg !4417
  %vfn = getelementptr inbounds %class.cObject* (%class.cOwnedObject*)*, %class.cObject* (%class.cOwnedObject*)** %vtable, i64 16, !dbg !4417
  %2 = load %class.cObject* (%class.cOwnedObject*)*, %class.cObject* (%class.cOwnedObject*)** %vfn, align 8, !dbg !4417
  %call = call %class.cObject* %2(%class.cOwnedObject* %0), !dbg !4417
  %3 = icmp eq %class.cObject* %call, null, !dbg !4418
  br i1 %3, label %dynamic_cast.null, label %dynamic_cast.notnull, !dbg !4418

dynamic_cast.notnull:                             ; preds = %entry
  %4 = bitcast %class.cObject* %call to i8*, !dbg !4418
  %5 = call i8* @__dynamic_cast(i8* %4, i8* bitcast (i8** @_ZTI7cObject to i8*), i8* bitcast ({ i8*, i8*, i8* }* @_ZTI7cModule to i8*), i64 0) #3, !dbg !4418
  %6 = bitcast i8* %5 to %class.cModule*, !dbg !4418
  br label %dynamic_cast.end, !dbg !4418

dynamic_cast.null:                                ; preds = %entry
  br label %dynamic_cast.end, !dbg !4418

dynamic_cast.end:                                 ; preds = %dynamic_cast.null, %dynamic_cast.notnull
  %7 = phi %class.cModule* [ %6, %dynamic_cast.notnull ], [ null, %dynamic_cast.null ], !dbg !4418
  ret %class.cModule* %7, !dbg !4419
}

; Function Attrs: nounwind readonly
declare dso_local i8* @__dynamic_cast(i8*, i8*, i8*, i64) #9

; Function Attrs: noinline uwtable
define dso_local void @_ZN7cModule7setNameEPKc(%class.cModule* %this, i8* %s) unnamed_addr #0 align 2 !dbg !4420 {
entry:
  %this.addr = alloca %class.cModule*, align 8
  %s.addr = alloca i8*, align 8
  store %class.cModule* %this, %class.cModule** %this.addr, align 8
  call void @llvm.dbg.declare(metadata %class.cModule** %this.addr, metadata !4421, metadata !DIExpression()), !dbg !4422
  store i8* %s, i8** %s.addr, align 8
  call void @llvm.dbg.declare(metadata i8** %s.addr, metadata !4423, metadata !DIExpression()), !dbg !4424
  %this1 = load %class.cModule*, %class.cModule** %this.addr, align 8
  %0 = bitcast %class.cModule* %this1 to %class.cOwnedObject*, !dbg !4425
  %1 = bitcast %class.cOwnedObject* %0 to %class.cNamedObject*, !dbg !4425
  %2 = load i8*, i8** %s.addr, align 8, !dbg !4426
  call void @_ZN12cNamedObject7setNameEPKc(%class.cNamedObject* %1, i8* %2), !dbg !4425
  call void @_ZN7cModule14updateFullNameEv(%class.cModule* %this1), !dbg !4427
  ret void, !dbg !4428
}

declare dso_local void @_ZN12cNamedObject7setNameEPKc(%class.cNamedObject*, i8*) unnamed_addr #1

; Function Attrs: noinline nounwind uwtable
define linkonce_odr dso_local zeroext i1 @_ZNK7cModule8isVectorEv(%class.cModule* %this) #5 comdat align 2 !dbg !4429 {
entry:
  %this.addr = alloca %class.cModule*, align 8
  store %class.cModule* %this, %class.cModule** %this.addr, align 8
  call void @llvm.dbg.declare(metadata %class.cModule** %this.addr, metadata !4430, metadata !DIExpression()), !dbg !4431
  %this1 = load %class.cModule*, %class.cModule** %this.addr, align 8
  %vectsize = getelementptr inbounds %class.cModule, %class.cModule* %this1, i32 0, i32 10, !dbg !4432
  %0 = load i32, i32* %vectsize, align 4, !dbg !4432
  %cmp = icmp sge i32 %0, 0, !dbg !4433
  ret i1 %cmp, !dbg !4434
}

; Function Attrs: noinline nounwind uwtable
define linkonce_odr dso_local i32 @_Z10opp_strlenPKc(i8* %s) #5 comdat !dbg !4435 {
entry:
  %s.addr = alloca i8*, align 8
  store i8* %s, i8** %s.addr, align 8
  call void @llvm.dbg.declare(metadata i8** %s.addr, metadata !4436, metadata !DIExpression()), !dbg !4437
  %0 = load i8*, i8** %s.addr, align 8, !dbg !4438
  %tobool = icmp ne i8* %0, null, !dbg !4438
  br i1 %tobool, label %cond.true, label %cond.false, !dbg !4438

cond.true:                                        ; preds = %entry
  %1 = load i8*, i8** %s.addr, align 8, !dbg !4439
  %call = call i64 @strlen(i8* %1) #9, !dbg !4440
  br label %cond.end, !dbg !4438

cond.false:                                       ; preds = %entry
  br label %cond.end, !dbg !4438

cond.end:                                         ; preds = %cond.false, %cond.true
  %cond = phi i64 [ %call, %cond.true ], [ 0, %cond.false ], !dbg !4438
  %conv = trunc i64 %cond to i32, !dbg !4438
  ret i32 %conv, !dbg !4441
}

; Function Attrs: nobuiltin
declare dso_local noalias i8* @_Znam(i64) #10

; Function Attrs: nounwind
declare dso_local i8* @strcpy(i8*, i8*) #2

; Function Attrs: noinline nounwind uwtable
define linkonce_odr dso_local void @_Z15opp_appendindexPcj(i8* %s, i32 %i) #5 comdat !dbg !4442 {
entry:
  %s.addr = alloca i8*, align 8
  %i.addr = alloca i32, align 4
  store i8* %s, i8** %s.addr, align 8
  call void @llvm.dbg.declare(metadata i8** %s.addr, metadata !4445, metadata !DIExpression()), !dbg !4446
  store i32 %i, i32* %i.addr, align 4
  call void @llvm.dbg.declare(metadata i32* %i.addr, metadata !4447, metadata !DIExpression()), !dbg !4448
  br label %while.cond, !dbg !4449

while.cond:                                       ; preds = %while.body, %entry
  %0 = load i8*, i8** %s.addr, align 8, !dbg !4450
  %1 = load i8, i8* %0, align 1, !dbg !4451
  %tobool = icmp ne i8 %1, 0, !dbg !4451
  br i1 %tobool, label %while.body, label %while.end, !dbg !4449

while.body:                                       ; preds = %while.cond
  %2 = load i8*, i8** %s.addr, align 8, !dbg !4452
  %incdec.ptr = getelementptr inbounds i8, i8* %2, i32 1, !dbg !4452
  store i8* %incdec.ptr, i8** %s.addr, align 8, !dbg !4452
  br label %while.cond, !dbg !4449, !llvm.loop !4453

while.end:                                        ; preds = %while.cond
  %3 = load i8*, i8** %s.addr, align 8, !dbg !4454
  %incdec.ptr1 = getelementptr inbounds i8, i8* %3, i32 1, !dbg !4454
  store i8* %incdec.ptr1, i8** %s.addr, align 8, !dbg !4454
  store i8 91, i8* %3, align 1, !dbg !4455
  %4 = load i32, i32* %i.addr, align 4, !dbg !4456
  %cmp = icmp ult i32 %4, 10, !dbg !4458
  br i1 %cmp, label %if.then, label %if.end, !dbg !4459

if.then:                                          ; preds = %while.end
  %5 = load i32, i32* %i.addr, align 4, !dbg !4460
  %add = add i32 48, %5, !dbg !4462
  %conv = trunc i32 %add to i8, !dbg !4463
  %6 = load i8*, i8** %s.addr, align 8, !dbg !4464
  %incdec.ptr2 = getelementptr inbounds i8, i8* %6, i32 1, !dbg !4464
  store i8* %incdec.ptr2, i8** %s.addr, align 8, !dbg !4464
  store i8 %conv, i8* %6, align 1, !dbg !4465
  %7 = load i8*, i8** %s.addr, align 8, !dbg !4466
  %incdec.ptr3 = getelementptr inbounds i8, i8* %7, i32 1, !dbg !4466
  store i8* %incdec.ptr3, i8** %s.addr, align 8, !dbg !4466
  store i8 93, i8* %7, align 1, !dbg !4467
  %8 = load i8*, i8** %s.addr, align 8, !dbg !4468
  store i8 0, i8* %8, align 1, !dbg !4469
  br label %return, !dbg !4470

if.end:                                           ; preds = %while.end
  %9 = load i32, i32* %i.addr, align 4, !dbg !4471
  %cmp4 = icmp ult i32 %9, 100, !dbg !4473
  br i1 %cmp4, label %if.then5, label %if.end13, !dbg !4474

if.then5:                                         ; preds = %if.end
  %10 = load i32, i32* %i.addr, align 4, !dbg !4475
  %div = udiv i32 %10, 10, !dbg !4477
  %add6 = add i32 48, %div, !dbg !4478
  %conv7 = trunc i32 %add6 to i8, !dbg !4479
  %11 = load i8*, i8** %s.addr, align 8, !dbg !4480
  %incdec.ptr8 = getelementptr inbounds i8, i8* %11, i32 1, !dbg !4480
  store i8* %incdec.ptr8, i8** %s.addr, align 8, !dbg !4480
  store i8 %conv7, i8* %11, align 1, !dbg !4481
  %12 = load i32, i32* %i.addr, align 4, !dbg !4482
  %rem = urem i32 %12, 10, !dbg !4483
  %add9 = add i32 48, %rem, !dbg !4484
  %conv10 = trunc i32 %add9 to i8, !dbg !4485
  %13 = load i8*, i8** %s.addr, align 8, !dbg !4486
  %incdec.ptr11 = getelementptr inbounds i8, i8* %13, i32 1, !dbg !4486
  store i8* %incdec.ptr11, i8** %s.addr, align 8, !dbg !4486
  store i8 %conv10, i8* %13, align 1, !dbg !4487
  %14 = load i8*, i8** %s.addr, align 8, !dbg !4488
  %incdec.ptr12 = getelementptr inbounds i8, i8* %14, i32 1, !dbg !4488
  store i8* %incdec.ptr12, i8** %s.addr, align 8, !dbg !4488
  store i8 93, i8* %14, align 1, !dbg !4489
  %15 = load i8*, i8** %s.addr, align 8, !dbg !4490
  store i8 0, i8* %15, align 1, !dbg !4491
  br label %return, !dbg !4492

if.end13:                                         ; preds = %if.end
  %16 = load i8*, i8** %s.addr, align 8, !dbg !4493
  %17 = load i32, i32* %i.addr, align 4, !dbg !4494
  %call = call i32 (i8*, i8*, ...) @sprintf(i8* %16, i8* getelementptr inbounds ([4 x i8], [4 x i8]* @.str.51, i64 0, i64 0), i32 %17) #3, !dbg !4495
  br label %return, !dbg !4496

return:                                           ; preds = %if.end13, %if.then5, %if.then
  ret void, !dbg !4496
}

; Function Attrs: noinline nounwind uwtable
define linkonce_odr dso_local i32 @_ZNK7cModule8getIndexEv(%class.cModule* %this) #5 comdat align 2 !dbg !4497 {
entry:
  %this.addr = alloca %class.cModule*, align 8
  store %class.cModule* %this, %class.cModule** %this.addr, align 8
  call void @llvm.dbg.declare(metadata %class.cModule** %this.addr, metadata !4498, metadata !DIExpression()), !dbg !4499
  %this1 = load %class.cModule*, %class.cModule** %this.addr, align 8
  %idx = getelementptr inbounds %class.cModule, %class.cModule* %this1, i32 0, i32 9, !dbg !4500
  %0 = load i32, i32* %idx, align 8, !dbg !4500
  ret i32 %0, !dbg !4501
}

; Function Attrs: noinline uwtable
define dso_local i8* @_ZNK7cModule11getFullNameEv(%class.cModule* %this) unnamed_addr #0 align 2 !dbg !4502 {
entry:
  %this.addr = alloca %class.cModule*, align 8
  store %class.cModule* %this, %class.cModule** %this.addr, align 8
  call void @llvm.dbg.declare(metadata %class.cModule** %this.addr, metadata !4503, metadata !DIExpression()), !dbg !4504
  %this1 = load %class.cModule*, %class.cModule** %this.addr, align 8
  %call = call zeroext i1 @_ZNK7cModule8isVectorEv(%class.cModule* %this1), !dbg !4505
  br i1 %call, label %cond.true, label %cond.false, !dbg !4505

cond.true:                                        ; preds = %entry
  %fullname = getelementptr inbounds %class.cModule, %class.cModule* %this1, i32 0, i32 1, !dbg !4506
  %0 = load i8*, i8** %fullname, align 8, !dbg !4506
  br label %cond.end, !dbg !4505

cond.false:                                       ; preds = %entry
  %1 = bitcast %class.cModule* %this1 to %class.cNamedObject*, !dbg !4507
  %2 = bitcast %class.cNamedObject* %1 to i8* (%class.cNamedObject*)***, !dbg !4507
  %vtable = load i8* (%class.cNamedObject*)**, i8* (%class.cNamedObject*)*** %2, align 8, !dbg !4507
  %vfn = getelementptr inbounds i8* (%class.cNamedObject*)*, i8* (%class.cNamedObject*)** %vtable, i64 6, !dbg !4507
  %3 = load i8* (%class.cNamedObject*)*, i8* (%class.cNamedObject*)** %vfn, align 8, !dbg !4507
  %call2 = call i8* %3(%class.cNamedObject* %1), !dbg !4507
  br label %cond.end, !dbg !4505

cond.end:                                         ; preds = %cond.false, %cond.true
  %cond = phi i8* [ %0, %cond.true ], [ %call2, %cond.false ], !dbg !4505
  ret i8* %cond, !dbg !4508
}

; Function Attrs: noinline uwtable
define dso_local void @_ZNK7cModule11getFullPathB5cxx11Ev(%"class.std::__cxx11::basic_string"* noalias sret %agg.result, %class.cModule* %this) unnamed_addr #0 align 2 personality i8* bitcast (i32 (...)* @__gxx_personality_v0 to i8*) !dbg !4509 {
entry:
  %result.ptr = alloca i8*, align 8
  %this.addr = alloca %class.cModule*, align 8
  %ref.tmp = alloca %"class.std::__cxx11::basic_string", align 8
  %ref.tmp8 = alloca %"class.std::__cxx11::basic_string", align 8
  %ref.tmp9 = alloca %"class.std::__cxx11::basic_string", align 8
  %exn.slot = alloca i8*
  %ehselector.slot = alloca i32
  %0 = bitcast %"class.std::__cxx11::basic_string"* %agg.result to i8*
  store i8* %0, i8** %result.ptr, align 8
  store %class.cModule* %this, %class.cModule** %this.addr, align 8
  call void @llvm.dbg.declare(metadata %class.cModule** %this.addr, metadata !4510, metadata !DIExpression()), !dbg !4511
  %this1 = load %class.cModule*, %class.cModule** %this.addr, align 8
  %1 = load %class.cModule*, %class.cModule** @_ZN7cModule21lastmodulefullpathmodE, align 8, !dbg !4512
  %cmp = icmp ne %class.cModule* %1, %this1, !dbg !4514
  br i1 %cmp, label %if.then, label %if.end22, !dbg !4515

if.then:                                          ; preds = %entry
  %2 = bitcast %class.cModule* %this1 to %class.cModule* (%class.cModule*)***, !dbg !4516
  %vtable = load %class.cModule* (%class.cModule*)**, %class.cModule* (%class.cModule*)*** %2, align 8, !dbg !4516
  %vfn = getelementptr inbounds %class.cModule* (%class.cModule*)*, %class.cModule* (%class.cModule*)** %vtable, i64 37, !dbg !4516
  %3 = load %class.cModule* (%class.cModule*)*, %class.cModule* (%class.cModule*)** %vfn, align 8, !dbg !4516
  %call = call %class.cModule* %3(%class.cModule* %this1), !dbg !4516
  %cmp2 = icmp eq %class.cModule* %call, null, !dbg !4519
  br i1 %cmp2, label %if.then3, label %if.else, !dbg !4520

if.then3:                                         ; preds = %if.then
  %4 = bitcast %class.cModule* %this1 to i8* (%class.cModule*)***, !dbg !4521
  %vtable4 = load i8* (%class.cModule*)**, i8* (%class.cModule*)*** %4, align 8, !dbg !4521
  %vfn5 = getelementptr inbounds i8* (%class.cModule*)*, i8* (%class.cModule*)** %vtable4, i64 7, !dbg !4521
  %5 = load i8* (%class.cModule*)*, i8* (%class.cModule*)** %vfn5, align 8, !dbg !4521
  %call6 = call i8* %5(%class.cModule* %this1), !dbg !4521
  %call7 = call dereferenceable(32) %"class.std::__cxx11::basic_string"* @_ZNSt7__cxx1112basic_stringIcSt11char_traitsIcESaIcEEaSEPKc(%"class.std::__cxx11::basic_string"* @_ZN7cModule18lastmodulefullpathB5cxx11E, i8* %call6), !dbg !4522
  br label %if.end, !dbg !4523

if.else:                                          ; preds = %if.then
  %6 = bitcast %class.cModule* %this1 to %class.cModule* (%class.cModule*)***, !dbg !4524
  %vtable10 = load %class.cModule* (%class.cModule*)**, %class.cModule* (%class.cModule*)*** %6, align 8, !dbg !4524
  %vfn11 = getelementptr inbounds %class.cModule* (%class.cModule*)*, %class.cModule* (%class.cModule*)** %vtable10, i64 37, !dbg !4524
  %7 = load %class.cModule* (%class.cModule*)*, %class.cModule* (%class.cModule*)** %vfn11, align 8, !dbg !4524
  %call12 = call %class.cModule* %7(%class.cModule* %this1), !dbg !4524
  %8 = bitcast %class.cModule* %call12 to void (%"class.std::__cxx11::basic_string"*, %class.cModule*)***, !dbg !4525
  %vtable13 = load void (%"class.std::__cxx11::basic_string"*, %class.cModule*)**, void (%"class.std::__cxx11::basic_string"*, %class.cModule*)*** %8, align 8, !dbg !4525
  %vfn14 = getelementptr inbounds void (%"class.std::__cxx11::basic_string"*, %class.cModule*)*, void (%"class.std::__cxx11::basic_string"*, %class.cModule*)** %vtable13, i64 8, !dbg !4525
  %9 = load void (%"class.std::__cxx11::basic_string"*, %class.cModule*)*, void (%"class.std::__cxx11::basic_string"*, %class.cModule*)** %vfn14, align 8, !dbg !4525
  call void %9(%"class.std::__cxx11::basic_string"* sret %ref.tmp9, %class.cModule* %call12), !dbg !4525
  invoke void @_ZStplIcSt11char_traitsIcESaIcEENSt7__cxx1112basic_stringIT_T0_T1_EEOS8_PKS5_(%"class.std::__cxx11::basic_string"* sret %ref.tmp8, %"class.std::__cxx11::basic_string"* dereferenceable(32) %ref.tmp9, i8* getelementptr inbounds ([2 x i8], [2 x i8]* @.str.2, i64 0, i64 0))
          to label %invoke.cont unwind label %lpad, !dbg !4526

invoke.cont:                                      ; preds = %if.else
  %10 = bitcast %class.cModule* %this1 to i8* (%class.cModule*)***, !dbg !4527
  %vtable15 = load i8* (%class.cModule*)**, i8* (%class.cModule*)*** %10, align 8, !dbg !4527
  %vfn16 = getelementptr inbounds i8* (%class.cModule*)*, i8* (%class.cModule*)** %vtable15, i64 7, !dbg !4527
  %11 = load i8* (%class.cModule*)*, i8* (%class.cModule*)** %vfn16, align 8, !dbg !4527
  %call19 = invoke i8* %11(%class.cModule* %this1)
          to label %invoke.cont18 unwind label %lpad17, !dbg !4527

invoke.cont18:                                    ; preds = %invoke.cont
  invoke void @_ZStplIcSt11char_traitsIcESaIcEENSt7__cxx1112basic_stringIT_T0_T1_EEOS8_PKS5_(%"class.std::__cxx11::basic_string"* sret %ref.tmp, %"class.std::__cxx11::basic_string"* dereferenceable(32) %ref.tmp8, i8* %call19)
          to label %invoke.cont20 unwind label %lpad17, !dbg !4528

invoke.cont20:                                    ; preds = %invoke.cont18
  %call21 = call dereferenceable(32) %"class.std::__cxx11::basic_string"* @_ZNSt7__cxx1112basic_stringIcSt11char_traitsIcESaIcEEaSEOS4_(%"class.std::__cxx11::basic_string"* @_ZN7cModule18lastmodulefullpathB5cxx11E, %"class.std::__cxx11::basic_string"* dereferenceable(32) %ref.tmp) #3, !dbg !4529
  call void @_ZNSt7__cxx1112basic_stringIcSt11char_traitsIcESaIcEED1Ev(%"class.std::__cxx11::basic_string"* %ref.tmp) #3, !dbg !4530
  call void @_ZNSt7__cxx1112basic_stringIcSt11char_traitsIcESaIcEED1Ev(%"class.std::__cxx11::basic_string"* %ref.tmp8) #3, !dbg !4530
  call void @_ZNSt7__cxx1112basic_stringIcSt11char_traitsIcESaIcEED1Ev(%"class.std::__cxx11::basic_string"* %ref.tmp9) #3, !dbg !4530
  br label %if.end

lpad:                                             ; preds = %if.else
  %12 = landingpad { i8*, i32 }
          cleanup, !dbg !4531
  %13 = extractvalue { i8*, i32 } %12, 0, !dbg !4531
  store i8* %13, i8** %exn.slot, align 8, !dbg !4531
  %14 = extractvalue { i8*, i32 } %12, 1, !dbg !4531
  store i32 %14, i32* %ehselector.slot, align 4, !dbg !4531
  br label %ehcleanup, !dbg !4531

lpad17:                                           ; preds = %invoke.cont18, %invoke.cont
  %15 = landingpad { i8*, i32 }
          cleanup, !dbg !4531
  %16 = extractvalue { i8*, i32 } %15, 0, !dbg !4531
  store i8* %16, i8** %exn.slot, align 8, !dbg !4531
  %17 = extractvalue { i8*, i32 } %15, 1, !dbg !4531
  store i32 %17, i32* %ehselector.slot, align 4, !dbg !4531
  call void @_ZNSt7__cxx1112basic_stringIcSt11char_traitsIcESaIcEED1Ev(%"class.std::__cxx11::basic_string"* %ref.tmp8) #3, !dbg !4530
  br label %ehcleanup, !dbg !4530

ehcleanup:                                        ; preds = %lpad17, %lpad
  call void @_ZNSt7__cxx1112basic_stringIcSt11char_traitsIcESaIcEED1Ev(%"class.std::__cxx11::basic_string"* %ref.tmp9) #3, !dbg !4530
  br label %eh.resume, !dbg !4530

if.end:                                           ; preds = %invoke.cont20, %if.then3
  store %class.cModule* %this1, %class.cModule** @_ZN7cModule21lastmodulefullpathmodE, align 8, !dbg !4532
  br label %if.end22, !dbg !4533

if.end22:                                         ; preds = %if.end, %entry
  call void @_ZNSt7__cxx1112basic_stringIcSt11char_traitsIcESaIcEEC1ERKS4_(%"class.std::__cxx11::basic_string"* %agg.result, %"class.std::__cxx11::basic_string"* dereferenceable(32) @_ZN7cModule18lastmodulefullpathB5cxx11E), !dbg !4534
  ret void, !dbg !4535

eh.resume:                                        ; preds = %ehcleanup
  %exn = load i8*, i8** %exn.slot, align 8, !dbg !4530
  %sel = load i32, i32* %ehselector.slot, align 4, !dbg !4530
  %lpad.val = insertvalue { i8*, i32 } undef, i8* %exn, 0, !dbg !4530
  %lpad.val23 = insertvalue { i8*, i32 } %lpad.val, i32 %sel, 1, !dbg !4530
  resume { i8*, i32 } %lpad.val23, !dbg !4530
}

declare dso_local dereferenceable(32) %"class.std::__cxx11::basic_string"* @_ZNSt7__cxx1112basic_stringIcSt11char_traitsIcESaIcEEaSEPKc(%"class.std::__cxx11::basic_string"*, i8*) #1

; Function Attrs: noinline uwtable
define linkonce_odr dso_local void @_ZStplIcSt11char_traitsIcESaIcEENSt7__cxx1112basic_stringIT_T0_T1_EEOS8_PKS5_(%"class.std::__cxx11::basic_string"* noalias sret %agg.result, %"class.std::__cxx11::basic_string"* dereferenceable(32) %__lhs, i8* %__rhs) #0 comdat !dbg !4536 {
entry:
  %result.ptr = alloca i8*, align 8
  %__lhs.addr = alloca %"class.std::__cxx11::basic_string"*, align 8
  %__rhs.addr = alloca i8*, align 8
  %0 = bitcast %"class.std::__cxx11::basic_string"* %agg.result to i8*
  store i8* %0, i8** %result.ptr, align 8
  store %"class.std::__cxx11::basic_string"* %__lhs, %"class.std::__cxx11::basic_string"** %__lhs.addr, align 8
  call void @llvm.dbg.declare(metadata %"class.std::__cxx11::basic_string"** %__lhs.addr, metadata !4597, metadata !DIExpression()), !dbg !4598
  store i8* %__rhs, i8** %__rhs.addr, align 8
  call void @llvm.dbg.declare(metadata i8** %__rhs.addr, metadata !4599, metadata !DIExpression()), !dbg !4600
  %1 = load %"class.std::__cxx11::basic_string"*, %"class.std::__cxx11::basic_string"** %__lhs.addr, align 8, !dbg !4601
  %2 = load i8*, i8** %__rhs.addr, align 8, !dbg !4602
  %call = call dereferenceable(32) %"class.std::__cxx11::basic_string"* @_ZNSt7__cxx1112basic_stringIcSt11char_traitsIcESaIcEE6appendEPKc(%"class.std::__cxx11::basic_string"* %1, i8* %2), !dbg !4603
  %call1 = call dereferenceable(32) %"class.std::__cxx11::basic_string"* @_ZSt4moveIRNSt7__cxx1112basic_stringIcSt11char_traitsIcESaIcEEEEONSt16remove_referenceIT_E4typeEOS8_(%"class.std::__cxx11::basic_string"* dereferenceable(32) %call) #3, !dbg !4604
  call void @_ZNSt7__cxx1112basic_stringIcSt11char_traitsIcESaIcEEC1EOS4_(%"class.std::__cxx11::basic_string"* %agg.result, %"class.std::__cxx11::basic_string"* dereferenceable(32) %call1) #3, !dbg !4604
  ret void, !dbg !4605
}

; Function Attrs: nounwind
declare dso_local dereferenceable(32) %"class.std::__cxx11::basic_string"* @_ZNSt7__cxx1112basic_stringIcSt11char_traitsIcESaIcEEaSEOS4_(%"class.std::__cxx11::basic_string"*, %"class.std::__cxx11::basic_string"* dereferenceable(32)) #2

declare dso_local void @_ZNSt7__cxx1112basic_stringIcSt11char_traitsIcESaIcEEC1ERKS4_(%"class.std::__cxx11::basic_string"*, %"class.std::__cxx11::basic_string"* dereferenceable(32)) unnamed_addr #1

; Function Attrs: noinline nounwind uwtable
define dso_local zeroext i1 @_ZNK7cModule8isSimpleEv(%class.cModule* %this) unnamed_addr #5 align 2 !dbg !4606 {
entry:
  %this.addr = alloca %class.cModule*, align 8
  store %class.cModule* %this, %class.cModule** %this.addr, align 8
  call void @llvm.dbg.declare(metadata %class.cModule** %this.addr, metadata !4607, metadata !DIExpression()), !dbg !4608
  %this1 = load %class.cModule*, %class.cModule** %this.addr, align 8
  %0 = icmp eq %class.cModule* %this1, null, !dbg !4609
  br i1 %0, label %dynamic_cast.null, label %dynamic_cast.notnull, !dbg !4609

dynamic_cast.notnull:                             ; preds = %entry
  %1 = bitcast %class.cModule* %this1 to i8*, !dbg !4609
  %2 = call i8* @__dynamic_cast(i8* %1, i8* bitcast ({ i8*, i8*, i8* }* @_ZTI7cModule to i8*), i8* bitcast (i8** @_ZTI13cSimpleModule to i8*), i64 0) #3, !dbg !4609
  %3 = bitcast i8* %2 to %class.cSimpleModule*, !dbg !4609
  br label %dynamic_cast.end, !dbg !4609

dynamic_cast.null:                                ; preds = %entry
  br label %dynamic_cast.end, !dbg !4609

dynamic_cast.end:                                 ; preds = %dynamic_cast.null, %dynamic_cast.notnull
  %4 = phi %class.cSimpleModule* [ %3, %dynamic_cast.notnull ], [ null, %dynamic_cast.null ], !dbg !4609
  %cmp = icmp ne %class.cSimpleModule* %4, null, !dbg !4610
  ret i1 %cmp, !dbg !4611
}

; Function Attrs: noinline uwtable
define dso_local %class.cProperties* @_ZNK7cModule13getPropertiesEv(%class.cModule* %this) unnamed_addr #0 align 2 !dbg !4612 {
entry:
  %this.addr = alloca %class.cModule*, align 8
  %parent = alloca %class.cModule*, align 8
  %type = alloca %class.cComponentType*, align 8
  %props = alloca %class.cProperties*, align 8
  store %class.cModule* %this, %class.cModule** %this.addr, align 8
  call void @llvm.dbg.declare(metadata %class.cModule** %this.addr, metadata !4613, metadata !DIExpression()), !dbg !4614
  %this1 = load %class.cModule*, %class.cModule** %this.addr, align 8
  call void @llvm.dbg.declare(metadata %class.cModule** %parent, metadata !4615, metadata !DIExpression()), !dbg !4616
  %0 = bitcast %class.cModule* %this1 to %class.cModule* (%class.cModule*)***, !dbg !4617
  %vtable = load %class.cModule* (%class.cModule*)**, %class.cModule* (%class.cModule*)*** %0, align 8, !dbg !4617
  %vfn = getelementptr inbounds %class.cModule* (%class.cModule*)*, %class.cModule* (%class.cModule*)** %vtable, i64 37, !dbg !4617
  %1 = load %class.cModule* (%class.cModule*)*, %class.cModule* (%class.cModule*)** %vfn, align 8, !dbg !4617
  %call = call %class.cModule* %1(%class.cModule* %this1), !dbg !4617
  store %class.cModule* %call, %class.cModule** %parent, align 8, !dbg !4616
  call void @llvm.dbg.declare(metadata %class.cComponentType** %type, metadata !4618, metadata !DIExpression()), !dbg !4621
  %2 = bitcast %class.cModule* %this1 to %class.cComponent*, !dbg !4622
  %call2 = call %class.cComponentType* @_ZNK10cComponent16getComponentTypeEv(%class.cComponent* %2), !dbg !4622
  store %class.cComponentType* %call2, %class.cComponentType** %type, align 8, !dbg !4621
  call void @llvm.dbg.declare(metadata %class.cProperties** %props, metadata !4623, metadata !DIExpression()), !dbg !4624
  %3 = load %class.cModule*, %class.cModule** %parent, align 8, !dbg !4625
  %tobool = icmp ne %class.cModule* %3, null, !dbg !4625
  br i1 %tobool, label %if.then, label %if.else, !dbg !4627

if.then:                                          ; preds = %entry
  %4 = load %class.cModule*, %class.cModule** %parent, align 8, !dbg !4628
  %5 = bitcast %class.cModule* %4 to %class.cComponent*, !dbg !4629
  %call3 = call %class.cComponentType* @_ZNK10cComponent16getComponentTypeEv(%class.cComponent* %5), !dbg !4629
  %6 = bitcast %class.cModule* %this1 to %class.cNamedObject*, !dbg !4630
  %7 = bitcast %class.cNamedObject* %6 to i8* (%class.cNamedObject*)***, !dbg !4630
  %vtable4 = load i8* (%class.cNamedObject*)**, i8* (%class.cNamedObject*)*** %7, align 8, !dbg !4630
  %vfn5 = getelementptr inbounds i8* (%class.cNamedObject*)*, i8* (%class.cNamedObject*)** %vtable4, i64 6, !dbg !4630
  %8 = load i8* (%class.cNamedObject*)*, i8* (%class.cNamedObject*)** %vfn5, align 8, !dbg !4630
  %call6 = call i8* %8(%class.cNamedObject* %6), !dbg !4630
  %9 = load %class.cComponentType*, %class.cComponentType** %type, align 8, !dbg !4631
  %10 = bitcast %class.cComponentType* %9 to i8* (%class.cComponentType*)***, !dbg !4632
  %vtable7 = load i8* (%class.cComponentType*)**, i8* (%class.cComponentType*)*** %10, align 8, !dbg !4632
  %vfn8 = getelementptr inbounds i8* (%class.cComponentType*)*, i8* (%class.cComponentType*)** %vtable7, i64 7, !dbg !4632
  %11 = load i8* (%class.cComponentType*)*, i8* (%class.cComponentType*)** %vfn8, align 8, !dbg !4632
  %call9 = call i8* %11(%class.cComponentType* %9), !dbg !4632
  %12 = bitcast %class.cComponentType* %call3 to %class.cProperties* (%class.cComponentType*, i8*, i8*)***, !dbg !4633
  %vtable10 = load %class.cProperties* (%class.cComponentType*, i8*, i8*)**, %class.cProperties* (%class.cComponentType*, i8*, i8*)*** %12, align 8, !dbg !4633
  %vfn11 = getelementptr inbounds %class.cProperties* (%class.cComponentType*, i8*, i8*)*, %class.cProperties* (%class.cComponentType*, i8*, i8*)** %vtable10, i64 27, !dbg !4633
  %13 = load %class.cProperties* (%class.cComponentType*, i8*, i8*)*, %class.cProperties* (%class.cComponentType*, i8*, i8*)** %vfn11, align 8, !dbg !4633
  %call12 = call %class.cProperties* %13(%class.cComponentType* %call3, i8* %call6, i8* %call9), !dbg !4633
  store %class.cProperties* %call12, %class.cProperties** %props, align 8, !dbg !4634
  br label %if.end, !dbg !4635

if.else:                                          ; preds = %entry
  %14 = load %class.cComponentType*, %class.cComponentType** %type, align 8, !dbg !4636
  %15 = bitcast %class.cComponentType* %14 to %class.cProperties* (%class.cComponentType*)***, !dbg !4637
  %vtable13 = load %class.cProperties* (%class.cComponentType*)**, %class.cProperties* (%class.cComponentType*)*** %15, align 8, !dbg !4637
  %vfn14 = getelementptr inbounds %class.cProperties* (%class.cComponentType*)*, %class.cProperties* (%class.cComponentType*)** %vtable13, i64 24, !dbg !4637
  %16 = load %class.cProperties* (%class.cComponentType*)*, %class.cProperties* (%class.cComponentType*)** %vfn14, align 8, !dbg !4637
  %call15 = call %class.cProperties* %16(%class.cComponentType* %14), !dbg !4637
  store %class.cProperties* %call15, %class.cProperties** %props, align 8, !dbg !4638
  br label %if.end

if.end:                                           ; preds = %if.else, %if.then
  %17 = load %class.cProperties*, %class.cProperties** %props, align 8, !dbg !4639
  ret %class.cProperties* %17, !dbg !4640
}

declare dso_local %class.cComponentType* @_ZNK10cComponent16getComponentTypeEv(%class.cComponent*) #1

; Function Attrs: noinline uwtable
define dso_local %class.cGate* @_ZN7cModule16createGateObjectEN5cGate4TypeE(%class.cModule* %this, i32 %0) unnamed_addr #0 align 2 personality i8* bitcast (i32 (...)* @__gxx_personality_v0 to i8*) !dbg !4641 {
entry:
  %this.addr = alloca %class.cModule*, align 8
  %.addr = alloca i32, align 4
  %exn.slot = alloca i8*
  %ehselector.slot = alloca i32
  store %class.cModule* %this, %class.cModule** %this.addr, align 8
  call void @llvm.dbg.declare(metadata %class.cModule** %this.addr, metadata !4642, metadata !DIExpression()), !dbg !4643
  store i32 %0, i32* %.addr, align 4
  call void @llvm.dbg.declare(metadata i32* %.addr, metadata !4644, metadata !DIExpression()), !dbg !4645
  %this1 = load %class.cModule*, %class.cModule** %this.addr, align 8
  %call = call i8* @_Znwm(i64 48) #19, !dbg !4646
  %1 = bitcast i8* %call to %class.cGate*, !dbg !4646
  invoke void @_ZN5cGateC1Ev(%class.cGate* %1)
          to label %invoke.cont unwind label %lpad, !dbg !4647

invoke.cont:                                      ; preds = %entry
  ret %class.cGate* %1, !dbg !4648

lpad:                                             ; preds = %entry
  %2 = landingpad { i8*, i32 }
          cleanup, !dbg !4649
  %3 = extractvalue { i8*, i32 } %2, 0, !dbg !4649
  store i8* %3, i8** %exn.slot, align 8, !dbg !4649
  %4 = extractvalue { i8*, i32 } %2, 1, !dbg !4649
  store i32 %4, i32* %ehselector.slot, align 4, !dbg !4649
  call void @_ZdlPv(i8* %call) #17, !dbg !4646
  br label %eh.resume, !dbg !4646

eh.resume:                                        ; preds = %lpad
  %exn = load i8*, i8** %exn.slot, align 8, !dbg !4646
  %sel = load i32, i32* %ehselector.slot, align 4, !dbg !4646
  %lpad.val = insertvalue { i8*, i32 } undef, i8* %exn, 0, !dbg !4646
  %lpad.val2 = insertvalue { i8*, i32 } %lpad.val, i32 %sel, 1, !dbg !4646
  resume { i8*, i32 } %lpad.val2, !dbg !4646
}

; Function Attrs: nobuiltin
declare dso_local noalias i8* @_Znwm(i64) #10

declare dso_local void @_ZN5cGateC1Ev(%class.cGate*) unnamed_addr #1

; Function Attrs: nobuiltin nounwind
declare dso_local void @_ZdlPv(i8*) #6

; Function Attrs: noinline uwtable
define internal void @__cxx_global_var_init.3() #0 section ".text.startup" !dbg !4650 {
entry:
  call void @_ZNSt3setIN5cGate4NameESt4lessIS1_ESaIS1_EEC2Ev(%"class.std::set.23"* @_ZN7cModule8namePoolE) #3, !dbg !4651
  %0 = call i32 @__cxa_atexit(void (i8*)* bitcast (void (%"class.std::set.23"*)* @_ZNSt3setIN5cGate4NameESt4lessIS1_ESaIS1_EED2Ev to void (i8*)*), i8* getelementptr inbounds (%"class.std::set.23", %"class.std::set.23"* @_ZN7cModule8namePoolE, i32 0, i32 0, i32 0, i32 0, i32 0, i32 0), i8* @__dso_handle) #3, !dbg !4651
  ret void, !dbg !4651
}

; Function Attrs: noinline nounwind uwtable
define linkonce_odr dso_local void @_ZNSt3setIN5cGate4NameESt4lessIS1_ESaIS1_EEC2Ev(%"class.std::set.23"* %this) unnamed_addr #5 comdat align 2 !dbg !4652 {
entry:
  %this.addr = alloca %"class.std::set.23"*, align 8
  store %"class.std::set.23"* %this, %"class.std::set.23"** %this.addr, align 8
  call void @llvm.dbg.declare(metadata %"class.std::set.23"** %this.addr, metadata !4653, metadata !DIExpression()), !dbg !4655
  %this1 = load %"class.std::set.23"*, %"class.std::set.23"** %this.addr, align 8
  %_M_t = getelementptr inbounds %"class.std::set.23", %"class.std::set.23"* %this1, i32 0, i32 0, !dbg !4656
  call void @_ZNSt8_Rb_treeIN5cGate4NameES1_St9_IdentityIS1_ESt4lessIS1_ESaIS1_EEC2Ev(%"class.std::_Rb_tree.24"* %_M_t) #3, !dbg !4656
  ret void, !dbg !4657
}

; Function Attrs: noinline nounwind uwtable
define linkonce_odr dso_local void @_ZNSt3setIN5cGate4NameESt4lessIS1_ESaIS1_EED2Ev(%"class.std::set.23"* %this) unnamed_addr #5 comdat align 2 !dbg !4658 {
entry:
  %this.addr = alloca %"class.std::set.23"*, align 8
  store %"class.std::set.23"* %this, %"class.std::set.23"** %this.addr, align 8
  call void @llvm.dbg.declare(metadata %"class.std::set.23"** %this.addr, metadata !4659, metadata !DIExpression()), !dbg !4660
  %this1 = load %"class.std::set.23"*, %"class.std::set.23"** %this.addr, align 8
  %_M_t = getelementptr inbounds %"class.std::set.23", %"class.std::set.23"* %this1, i32 0, i32 0, !dbg !4661
  call void @_ZNSt8_Rb_treeIN5cGate4NameES1_St9_IdentityIS1_ESt4lessIS1_ESaIS1_EED2Ev(%"class.std::_Rb_tree.24"* %_M_t) #3, !dbg !4661
  ret void, !dbg !4663
}

; Function Attrs: noinline uwtable
define dso_local void @_ZN7cModule17disposeGateObjectEP5cGateb(%class.cModule* %this, %class.cGate* %gate, i1 zeroext %checkConnected) #0 align 2 personality i8* bitcast (i32 (...)* @__gxx_personality_v0 to i8*) !dbg !4664 {
entry:
  %this.addr = alloca %class.cModule*, align 8
  %gate.addr = alloca %class.cGate*, align 8
  %checkConnected.addr = alloca i8, align 1
  %exn.slot = alloca i8*
  %ehselector.slot = alloca i32
  store %class.cModule* %this, %class.cModule** %this.addr, align 8
  call void @llvm.dbg.declare(metadata %class.cModule** %this.addr, metadata !4665, metadata !DIExpression()), !dbg !4666
  store %class.cGate* %gate, %class.cGate** %gate.addr, align 8
  call void @llvm.dbg.declare(metadata %class.cGate** %gate.addr, metadata !4667, metadata !DIExpression()), !dbg !4668
  %frombool = zext i1 %checkConnected to i8
  store i8 %frombool, i8* %checkConnected.addr, align 1
  call void @llvm.dbg.declare(metadata i8* %checkConnected.addr, metadata !4669, metadata !DIExpression()), !dbg !4670
  %this1 = load %class.cModule*, %class.cModule** %this.addr, align 8
  %0 = load %class.cGate*, %class.cGate** %gate.addr, align 8, !dbg !4671
  %tobool = icmp ne %class.cGate* %0, null, !dbg !4671
  br i1 %tobool, label %if.then, label %if.end16, !dbg !4673

if.then:                                          ; preds = %entry
  %1 = load i8, i8* %checkConnected.addr, align 1, !dbg !4674
  %tobool2 = trunc i8 %1 to i1, !dbg !4674
  br i1 %tobool2, label %land.lhs.true, label %if.end, !dbg !4677

land.lhs.true:                                    ; preds = %if.then
  %2 = load %class.cGate*, %class.cGate** %gate.addr, align 8, !dbg !4678
  %call = call %class.cGate* @_ZNK5cGate15getPreviousGateEv(%class.cGate* %2), !dbg !4679
  %tobool3 = icmp ne %class.cGate* %call, null, !dbg !4678
  br i1 %tobool3, label %if.then6, label %lor.lhs.false, !dbg !4680

lor.lhs.false:                                    ; preds = %land.lhs.true
  %3 = load %class.cGate*, %class.cGate** %gate.addr, align 8, !dbg !4681
  %call4 = call %class.cGate* @_ZNK5cGate11getNextGateEv(%class.cGate* %3), !dbg !4682
  %tobool5 = icmp ne %class.cGate* %call4, null, !dbg !4681
  br i1 %tobool5, label %if.then6, label %if.end, !dbg !4683

if.then6:                                         ; preds = %lor.lhs.false, %land.lhs.true
  %exception = call i8* @__cxa_allocate_exception(i64 128) #3, !dbg !4684
  %4 = bitcast i8* %exception to %class.cRuntimeError*, !dbg !4684
  %5 = bitcast %class.cModule* %this1 to %class.cObject*, !dbg !4685
  %6 = load %class.cGate*, %class.cGate** %gate.addr, align 8, !dbg !4686
  %7 = bitcast %class.cGate* %6 to i8* (%class.cGate*)***, !dbg !4687
  %vtable = load i8* (%class.cGate*)**, i8* (%class.cGate*)*** %7, align 8, !dbg !4687
  %vfn = getelementptr inbounds i8* (%class.cGate*)*, i8* (%class.cGate*)** %vtable, i64 7, !dbg !4687
  %8 = load i8* (%class.cGate*)*, i8* (%class.cGate*)** %vfn, align 8, !dbg !4687
  %call7 = invoke i8* %8(%class.cGate* %6)
          to label %invoke.cont unwind label %lpad, !dbg !4687

invoke.cont:                                      ; preds = %if.then6
  invoke void (%class.cRuntimeError*, %class.cObject*, i8*, ...) @_ZN13cRuntimeErrorC1EPK7cObjectPKcz(%class.cRuntimeError* %4, %class.cObject* %5, i8* getelementptr inbounds ([47 x i8], [47 x i8]* @.str.4, i64 0, i64 0), i8* %call7)
          to label %invoke.cont8 unwind label %lpad, !dbg !4688

invoke.cont8:                                     ; preds = %invoke.cont
  call void @__cxa_throw(i8* %exception, i8* bitcast ({ i8*, i8*, i8* }* @_ZTI13cRuntimeError to i8*), i8* bitcast (void (%class.cRuntimeError*)* @_ZN13cRuntimeErrorD2Ev to i8*)) #16, !dbg !4684
  unreachable, !dbg !4684

lpad:                                             ; preds = %invoke.cont, %if.then6
  %9 = landingpad { i8*, i32 }
          cleanup, !dbg !4689
  %10 = extractvalue { i8*, i32 } %9, 0, !dbg !4689
  store i8* %10, i8** %exn.slot, align 8, !dbg !4689
  %11 = extractvalue { i8*, i32 } %9, 1, !dbg !4689
  store i32 %11, i32* %ehselector.slot, align 4, !dbg !4689
  call void @__cxa_free_exception(i8* %exception) #3, !dbg !4684
  br label %eh.resume, !dbg !4684

if.end:                                           ; preds = %lor.lhs.false, %if.then
  %call9 = call %class.cEnvir* @_ZN11cSimulation14getActiveEnvirEv(), !dbg !4690
  %suppress_notifications = getelementptr inbounds %class.cEnvir, %class.cEnvir* %call9, i32 0, i32 2, !dbg !4690
  %12 = load i8, i8* %suppress_notifications, align 1, !dbg !4690
  %tobool10 = trunc i8 %12 to i1, !dbg !4690
  br i1 %tobool10, label %cond.true, label %cond.false, !dbg !4690

cond.true:                                        ; preds = %if.end
  br label %cond.end, !dbg !4690

cond.false:                                       ; preds = %if.end
  %call11 = call %class.cEnvir* @_ZN11cSimulation14getActiveEnvirEv(), !dbg !4690
  %13 = load %class.cGate*, %class.cGate** %gate.addr, align 8, !dbg !4691
  %14 = bitcast %class.cEnvir* %call11 to void (%class.cEnvir*, %class.cGate*)***, !dbg !4692
  %vtable12 = load void (%class.cEnvir*, %class.cGate*)**, void (%class.cEnvir*, %class.cGate*)*** %14, align 8, !dbg !4692
  %vfn13 = getelementptr inbounds void (%class.cEnvir*, %class.cGate*)*, void (%class.cEnvir*, %class.cGate*)** %vtable12, i64 22, !dbg !4692
  %15 = load void (%class.cEnvir*, %class.cGate*)*, void (%class.cEnvir*, %class.cGate*)** %vfn13, align 8, !dbg !4692
  call void %15(%class.cEnvir* %call11, %class.cGate* %13), !dbg !4692
  br label %cond.end, !dbg !4690

cond.end:                                         ; preds = %cond.false, %cond.true
  %16 = load %class.cGate*, %class.cGate** %gate.addr, align 8, !dbg !4693
  %isnull = icmp eq %class.cGate* %16, null, !dbg !4694
  br i1 %isnull, label %delete.end, label %delete.notnull, !dbg !4694

delete.notnull:                                   ; preds = %cond.end
  %17 = bitcast %class.cGate* %16 to void (%class.cGate*)***, !dbg !4694
  %vtable14 = load void (%class.cGate*)**, void (%class.cGate*)*** %17, align 8, !dbg !4694
  %vfn15 = getelementptr inbounds void (%class.cGate*)*, void (%class.cGate*)** %vtable14, i64 4, !dbg !4694
  %18 = load void (%class.cGate*)*, void (%class.cGate*)** %vfn15, align 8, !dbg !4694
  call void %18(%class.cGate* %16) #3, !dbg !4694
  br label %delete.end, !dbg !4694

delete.end:                                       ; preds = %delete.notnull, %cond.end
  br label %if.end16, !dbg !4695

if.end16:                                         ; preds = %delete.end, %entry
  ret void, !dbg !4696

eh.resume:                                        ; preds = %lpad
  %exn = load i8*, i8** %exn.slot, align 8, !dbg !4684
  %sel = load i32, i32* %ehselector.slot, align 4, !dbg !4684
  %lpad.val = insertvalue { i8*, i32 } undef, i8* %exn, 0, !dbg !4684
  %lpad.val17 = insertvalue { i8*, i32 } %lpad.val, i32 %sel, 1, !dbg !4684
  resume { i8*, i32 } %lpad.val17, !dbg !4684
}

declare dso_local void @_ZN13cRuntimeErrorC1EPK7cObjectPKcz(%class.cRuntimeError*, %class.cObject*, i8*, ...) unnamed_addr #1

; Function Attrs: noinline uwtable
define dso_local void @_ZN7cModule15disposeGateDescEPN5cGate4DescEb(%class.cModule* %this, %"struct.cGate::Desc"* %desc, i1 zeroext %checkConnected) #0 align 2 !dbg !4697 {
entry:
  %this.addr = alloca %class.cModule*, align 8
  %desc.addr = alloca %"struct.cGate::Desc"*, align 8
  %checkConnected.addr = alloca i8, align 1
  %j = alloca i32, align 4
  store %class.cModule* %this, %class.cModule** %this.addr, align 8
  call void @llvm.dbg.declare(metadata %class.cModule** %this.addr, metadata !4698, metadata !DIExpression()), !dbg !4699
  store %"struct.cGate::Desc"* %desc, %"struct.cGate::Desc"** %desc.addr, align 8
  call void @llvm.dbg.declare(metadata %"struct.cGate::Desc"** %desc.addr, metadata !4700, metadata !DIExpression()), !dbg !4701
  %frombool = zext i1 %checkConnected to i8
  store i8 %frombool, i8* %checkConnected.addr, align 1
  call void @llvm.dbg.declare(metadata i8* %checkConnected.addr, metadata !4702, metadata !DIExpression()), !dbg !4703
  %this1 = load %class.cModule*, %class.cModule** %this.addr, align 8
  %0 = load %"struct.cGate::Desc"*, %"struct.cGate::Desc"** %desc.addr, align 8, !dbg !4704
  %namep = getelementptr inbounds %"struct.cGate::Desc", %"struct.cGate::Desc"* %0, i32 0, i32 1, !dbg !4706
  %1 = load %"struct.cGate::Name"*, %"struct.cGate::Name"** %namep, align 8, !dbg !4706
  %tobool = icmp ne %"struct.cGate::Name"* %1, null, !dbg !4704
  br i1 %tobool, label %if.then, label %if.end24, !dbg !4707

if.then:                                          ; preds = %entry
  %2 = load %"struct.cGate::Desc"*, %"struct.cGate::Desc"** %desc.addr, align 8, !dbg !4708
  %call = call zeroext i1 @_ZNK5cGate4Desc8isVectorEv(%"struct.cGate::Desc"* %2), !dbg !4711
  br i1 %call, label %if.else, label %if.then2, !dbg !4712

if.then2:                                         ; preds = %if.then
  %3 = load %"struct.cGate::Desc"*, %"struct.cGate::Desc"** %desc.addr, align 8, !dbg !4713
  %4 = getelementptr inbounds %"struct.cGate::Desc", %"struct.cGate::Desc"* %3, i32 0, i32 3, !dbg !4715
  %inputgate = bitcast %union.anon.8* %4 to %class.cGate**, !dbg !4715
  %5 = load %class.cGate*, %class.cGate** %inputgate, align 8, !dbg !4715
  %6 = load i8, i8* %checkConnected.addr, align 1, !dbg !4716
  %tobool3 = trunc i8 %6 to i1, !dbg !4716
  call void @_ZN7cModule17disposeGateObjectEP5cGateb(%class.cModule* %this1, %class.cGate* %5, i1 zeroext %tobool3), !dbg !4717
  %7 = load %"struct.cGate::Desc"*, %"struct.cGate::Desc"** %desc.addr, align 8, !dbg !4718
  %8 = getelementptr inbounds %"struct.cGate::Desc", %"struct.cGate::Desc"* %7, i32 0, i32 4, !dbg !4719
  %outputgate = bitcast %union.anon.9* %8 to %class.cGate**, !dbg !4719
  %9 = load %class.cGate*, %class.cGate** %outputgate, align 8, !dbg !4719
  %10 = load i8, i8* %checkConnected.addr, align 1, !dbg !4720
  %tobool4 = trunc i8 %10 to i1, !dbg !4720
  call void @_ZN7cModule17disposeGateObjectEP5cGateb(%class.cModule* %this1, %class.cGate* %9, i1 zeroext %tobool4), !dbg !4721
  br label %if.end22, !dbg !4722

if.else:                                          ; preds = %if.then
  call void @llvm.dbg.declare(metadata i32* %j, metadata !4723, metadata !DIExpression()), !dbg !4726
  store i32 0, i32* %j, align 4, !dbg !4726
  br label %for.cond, !dbg !4727

for.cond:                                         ; preds = %for.inc, %if.else
  %11 = load i32, i32* %j, align 4, !dbg !4728
  %12 = load %"struct.cGate::Desc"*, %"struct.cGate::Desc"** %desc.addr, align 8, !dbg !4730
  %call5 = call i32 @_ZNK5cGate4Desc8gateSizeEv(%"struct.cGate::Desc"* %12), !dbg !4731
  %cmp = icmp slt i32 %11, %call5, !dbg !4732
  br i1 %cmp, label %for.body, label %for.end, !dbg !4733

for.body:                                         ; preds = %for.cond
  %13 = load %"struct.cGate::Desc"*, %"struct.cGate::Desc"** %desc.addr, align 8, !dbg !4734
  %14 = getelementptr inbounds %"struct.cGate::Desc", %"struct.cGate::Desc"* %13, i32 0, i32 3, !dbg !4737
  %inputgatev = bitcast %union.anon.8* %14 to %class.cGate***, !dbg !4737
  %15 = load %class.cGate**, %class.cGate*** %inputgatev, align 8, !dbg !4737
  %tobool6 = icmp ne %class.cGate** %15, null, !dbg !4734
  br i1 %tobool6, label %if.then7, label %if.end, !dbg !4738

if.then7:                                         ; preds = %for.body
  %16 = load %"struct.cGate::Desc"*, %"struct.cGate::Desc"** %desc.addr, align 8, !dbg !4739
  %17 = getelementptr inbounds %"struct.cGate::Desc", %"struct.cGate::Desc"* %16, i32 0, i32 3, !dbg !4740
  %inputgatev8 = bitcast %union.anon.8* %17 to %class.cGate***, !dbg !4740
  %18 = load %class.cGate**, %class.cGate*** %inputgatev8, align 8, !dbg !4740
  %19 = load i32, i32* %j, align 4, !dbg !4741
  %idxprom = sext i32 %19 to i64, !dbg !4739
  %arrayidx = getelementptr inbounds %class.cGate*, %class.cGate** %18, i64 %idxprom, !dbg !4739
  %20 = load %class.cGate*, %class.cGate** %arrayidx, align 8, !dbg !4739
  %21 = load i8, i8* %checkConnected.addr, align 1, !dbg !4742
  %tobool9 = trunc i8 %21 to i1, !dbg !4742
  call void @_ZN7cModule17disposeGateObjectEP5cGateb(%class.cModule* %this1, %class.cGate* %20, i1 zeroext %tobool9), !dbg !4743
  br label %if.end, !dbg !4743

if.end:                                           ; preds = %if.then7, %for.body
  %22 = load %"struct.cGate::Desc"*, %"struct.cGate::Desc"** %desc.addr, align 8, !dbg !4744
  %23 = getelementptr inbounds %"struct.cGate::Desc", %"struct.cGate::Desc"* %22, i32 0, i32 4, !dbg !4746
  %outputgatev = bitcast %union.anon.9* %23 to %class.cGate***, !dbg !4746
  %24 = load %class.cGate**, %class.cGate*** %outputgatev, align 8, !dbg !4746
  %tobool10 = icmp ne %class.cGate** %24, null, !dbg !4744
  br i1 %tobool10, label %if.then11, label %if.end16, !dbg !4747

if.then11:                                        ; preds = %if.end
  %25 = load %"struct.cGate::Desc"*, %"struct.cGate::Desc"** %desc.addr, align 8, !dbg !4748
  %26 = getelementptr inbounds %"struct.cGate::Desc", %"struct.cGate::Desc"* %25, i32 0, i32 4, !dbg !4749
  %outputgatev12 = bitcast %union.anon.9* %26 to %class.cGate***, !dbg !4749
  %27 = load %class.cGate**, %class.cGate*** %outputgatev12, align 8, !dbg !4749
  %28 = load i32, i32* %j, align 4, !dbg !4750
  %idxprom13 = sext i32 %28 to i64, !dbg !4748
  %arrayidx14 = getelementptr inbounds %class.cGate*, %class.cGate** %27, i64 %idxprom13, !dbg !4748
  %29 = load %class.cGate*, %class.cGate** %arrayidx14, align 8, !dbg !4748
  %30 = load i8, i8* %checkConnected.addr, align 1, !dbg !4751
  %tobool15 = trunc i8 %30 to i1, !dbg !4751
  call void @_ZN7cModule17disposeGateObjectEP5cGateb(%class.cModule* %this1, %class.cGate* %29, i1 zeroext %tobool15), !dbg !4752
  br label %if.end16, !dbg !4752

if.end16:                                         ; preds = %if.then11, %if.end
  br label %for.inc, !dbg !4753

for.inc:                                          ; preds = %if.end16
  %31 = load i32, i32* %j, align 4, !dbg !4754
  %inc = add nsw i32 %31, 1, !dbg !4754
  store i32 %inc, i32* %j, align 4, !dbg !4754
  br label %for.cond, !dbg !4755, !llvm.loop !4756

for.end:                                          ; preds = %for.cond
  %32 = load %"struct.cGate::Desc"*, %"struct.cGate::Desc"** %desc.addr, align 8, !dbg !4758
  %33 = getelementptr inbounds %"struct.cGate::Desc", %"struct.cGate::Desc"* %32, i32 0, i32 3, !dbg !4759
  %inputgatev17 = bitcast %union.anon.8* %33 to %class.cGate***, !dbg !4759
  %34 = load %class.cGate**, %class.cGate*** %inputgatev17, align 8, !dbg !4759
  %isnull = icmp eq %class.cGate** %34, null, !dbg !4760
  br i1 %isnull, label %delete.end, label %delete.notnull, !dbg !4760

delete.notnull:                                   ; preds = %for.end
  %35 = bitcast %class.cGate** %34 to i8*, !dbg !4760
  call void @_ZdaPv(i8* %35) #17, !dbg !4760
  br label %delete.end, !dbg !4760

delete.end:                                       ; preds = %delete.notnull, %for.end
  %36 = load %"struct.cGate::Desc"*, %"struct.cGate::Desc"** %desc.addr, align 8, !dbg !4761
  %37 = getelementptr inbounds %"struct.cGate::Desc", %"struct.cGate::Desc"* %36, i32 0, i32 4, !dbg !4762
  %outputgatev18 = bitcast %union.anon.9* %37 to %class.cGate***, !dbg !4762
  %38 = load %class.cGate**, %class.cGate*** %outputgatev18, align 8, !dbg !4762
  %isnull19 = icmp eq %class.cGate** %38, null, !dbg !4763
  br i1 %isnull19, label %delete.end21, label %delete.notnull20, !dbg !4763

delete.notnull20:                                 ; preds = %delete.end
  %39 = bitcast %class.cGate** %38 to i8*, !dbg !4763
  call void @_ZdaPv(i8* %39) #17, !dbg !4763
  br label %delete.end21, !dbg !4763

delete.end21:                                     ; preds = %delete.notnull20, %delete.end
  br label %if.end22

if.end22:                                         ; preds = %delete.end21, %if.then2
  %40 = load %"struct.cGate::Desc"*, %"struct.cGate::Desc"** %desc.addr, align 8, !dbg !4764
  %namep23 = getelementptr inbounds %"struct.cGate::Desc", %"struct.cGate::Desc"* %40, i32 0, i32 1, !dbg !4765
  store %"struct.cGate::Name"* null, %"struct.cGate::Name"** %namep23, align 8, !dbg !4766
  br label %if.end24, !dbg !4767

if.end24:                                         ; preds = %if.end22, %entry
  ret void, !dbg !4768
}

; Function Attrs: noinline nounwind uwtable
define linkonce_odr dso_local zeroext i1 @_ZNK5cGate4Desc8isVectorEv(%"struct.cGate::Desc"* %this) #5 comdat align 2 !dbg !4769 {
entry:
  %this.addr = alloca %"struct.cGate::Desc"*, align 8
  store %"struct.cGate::Desc"* %this, %"struct.cGate::Desc"** %this.addr, align 8
  call void @llvm.dbg.declare(metadata %"struct.cGate::Desc"** %this.addr, metadata !4770, metadata !DIExpression()), !dbg !4772
  %this1 = load %"struct.cGate::Desc"*, %"struct.cGate::Desc"** %this.addr, align 8
  %size = getelementptr inbounds %"struct.cGate::Desc", %"struct.cGate::Desc"* %this1, i32 0, i32 2, !dbg !4773
  %0 = load i32, i32* %size, align 8, !dbg !4773
  %cmp = icmp sge i32 %0, 0, !dbg !4774
  ret i1 %cmp, !dbg !4775
}

; Function Attrs: noinline nounwind uwtable
define linkonce_odr dso_local i32 @_ZNK5cGate4Desc8gateSizeEv(%"struct.cGate::Desc"* %this) #5 comdat align 2 !dbg !4776 {
entry:
  %this.addr = alloca %"struct.cGate::Desc"*, align 8
  store %"struct.cGate::Desc"* %this, %"struct.cGate::Desc"** %this.addr, align 8
  call void @llvm.dbg.declare(metadata %"struct.cGate::Desc"** %this.addr, metadata !4777, metadata !DIExpression()), !dbg !4778
  %this1 = load %"struct.cGate::Desc"*, %"struct.cGate::Desc"** %this.addr, align 8
  %size = getelementptr inbounds %"struct.cGate::Desc", %"struct.cGate::Desc"* %this1, i32 0, i32 2, !dbg !4779
  %0 = load i32, i32* %size, align 8, !dbg !4779
  %cmp = icmp sge i32 %0, 0, !dbg !4780
  br i1 %cmp, label %cond.true, label %cond.false, !dbg !4779

cond.true:                                        ; preds = %entry
  %size2 = getelementptr inbounds %"struct.cGate::Desc", %"struct.cGate::Desc"* %this1, i32 0, i32 2, !dbg !4781
  %1 = load i32, i32* %size2, align 8, !dbg !4781
  br label %cond.end, !dbg !4779

cond.false:                                       ; preds = %entry
  br label %cond.end, !dbg !4779

cond.end:                                         ; preds = %cond.false, %cond.true
  %cond = phi i32 [ %1, %cond.true ], [ 1, %cond.false ], !dbg !4779
  ret i32 %cond, !dbg !4782
}

; Function Attrs: noinline uwtable
define dso_local void @_ZN7cModule14clearNamePoolsEv() #0 align 2 !dbg !4783 {
entry:
  call void @_ZNSt3setIN5cGate4NameESt4lessIS1_ESaIS1_EE5clearEv(%"class.std::set.23"* @_ZN7cModule8namePoolE) #3, !dbg !4784
  call void @_ZN5cGate17clearFullnamePoolEv(), !dbg !4785
  ret void, !dbg !4786
}

; Function Attrs: noinline nounwind uwtable
define linkonce_odr dso_local void @_ZNSt3setIN5cGate4NameESt4lessIS1_ESaIS1_EE5clearEv(%"class.std::set.23"* %this) #5 comdat align 2 !dbg !4787 {
entry:
  %this.addr = alloca %"class.std::set.23"*, align 8
  store %"class.std::set.23"* %this, %"class.std::set.23"** %this.addr, align 8
  call void @llvm.dbg.declare(metadata %"class.std::set.23"** %this.addr, metadata !4788, metadata !DIExpression()), !dbg !4789
  %this1 = load %"class.std::set.23"*, %"class.std::set.23"** %this.addr, align 8
  %_M_t = getelementptr inbounds %"class.std::set.23", %"class.std::set.23"* %this1, i32 0, i32 0, !dbg !4790
  call void @_ZNSt8_Rb_treeIN5cGate4NameES1_St9_IdentityIS1_ESt4lessIS1_ESaIS1_EE5clearEv(%"class.std::_Rb_tree.24"* %_M_t) #3, !dbg !4791
  ret void, !dbg !4792
}

declare dso_local void @_ZN5cGate17clearFullnamePoolEv() #1

; Function Attrs: noinline nounwind uwtable
define dso_local void @_ZN7cModule14adjustGateDescEP5cGatePNS0_4DescE(%class.cModule* %this, %class.cGate* %gate, %"struct.cGate::Desc"* %newvec) #5 align 2 !dbg !4793 {
entry:
  %this.addr = alloca %class.cModule*, align 8
  %gate.addr = alloca %class.cGate*, align 8
  %newvec.addr = alloca %"struct.cGate::Desc"*, align 8
  store %class.cModule* %this, %class.cModule** %this.addr, align 8
  call void @llvm.dbg.declare(metadata %class.cModule** %this.addr, metadata !4794, metadata !DIExpression()), !dbg !4795
  store %class.cGate* %gate, %class.cGate** %gate.addr, align 8
  call void @llvm.dbg.declare(metadata %class.cGate** %gate.addr, metadata !4796, metadata !DIExpression()), !dbg !4797
  store %"struct.cGate::Desc"* %newvec, %"struct.cGate::Desc"** %newvec.addr, align 8
  call void @llvm.dbg.declare(metadata %"struct.cGate::Desc"** %newvec.addr, metadata !4798, metadata !DIExpression()), !dbg !4799
  %this1 = load %class.cModule*, %class.cModule** %this.addr, align 8
  %0 = load %class.cGate*, %class.cGate** %gate.addr, align 8, !dbg !4800
  %tobool = icmp ne %class.cGate* %0, null, !dbg !4800
  br i1 %tobool, label %if.then, label %if.end, !dbg !4802

if.then:                                          ; preds = %entry
  %1 = load %"struct.cGate::Desc"*, %"struct.cGate::Desc"** %newvec.addr, align 8, !dbg !4803
  %2 = load %class.cGate*, %class.cGate** %gate.addr, align 8, !dbg !4805
  %desc = getelementptr inbounds %class.cGate, %class.cGate* %2, i32 0, i32 1, !dbg !4806
  %3 = load %"struct.cGate::Desc"*, %"struct.cGate::Desc"** %desc, align 8, !dbg !4806
  %descv = getelementptr inbounds %class.cModule, %class.cModule* %this1, i32 0, i32 8, !dbg !4807
  %4 = load %"struct.cGate::Desc"*, %"struct.cGate::Desc"** %descv, align 8, !dbg !4807
  %sub.ptr.lhs.cast = ptrtoint %"struct.cGate::Desc"* %3 to i64, !dbg !4808
  %sub.ptr.rhs.cast = ptrtoint %"struct.cGate::Desc"* %4 to i64, !dbg !4808
  %sub.ptr.sub = sub i64 %sub.ptr.lhs.cast, %sub.ptr.rhs.cast, !dbg !4808
  %sub.ptr.div = sdiv exact i64 %sub.ptr.sub, 40, !dbg !4808
  %add.ptr = getelementptr inbounds %"struct.cGate::Desc", %"struct.cGate::Desc"* %1, i64 %sub.ptr.div, !dbg !4809
  %5 = load %class.cGate*, %class.cGate** %gate.addr, align 8, !dbg !4810
  %desc2 = getelementptr inbounds %class.cGate, %class.cGate* %5, i32 0, i32 1, !dbg !4811
  store %"struct.cGate::Desc"* %add.ptr, %"struct.cGate::Desc"** %desc2, align 8, !dbg !4812
  br label %if.end, !dbg !4813

if.end:                                           ; preds = %if.then, %entry
  ret void, !dbg !4814
}

; Function Attrs: noinline uwtable
define dso_local %"struct.cGate::Desc"* @_ZN7cModule11addGateDescEPKcN5cGate4TypeEb(%class.cModule* %this, i8* %gatename, i32 %type, i1 zeroext %isVector) #0 align 2 personality i8* bitcast (i32 (...)* @__gxx_personality_v0 to i8*) !dbg !4815 {
entry:
  %this.addr = alloca %class.cModule*, align 8
  %gatename.addr = alloca i8*, align 8
  %type.addr = alloca i32, align 4
  %isVector.addr = alloca i8, align 1
  %exn.slot = alloca i8*
  %ehselector.slot = alloca i32
  %newv = alloca %"struct.cGate::Desc"*, align 8
  %i = alloca i32, align 4
  %desc = alloca %"struct.cGate::Desc"*, align 8
  %j = alloca i32, align 4
  %newDesc = alloca %"struct.cGate::Desc"*, align 8
  %key = alloca %"struct.cGate::Name", align 8
  %it = alloca %"struct.std::_Rb_tree_const_iterator", align 8
  %ref.tmp = alloca %"struct.std::_Rb_tree_const_iterator", align 8
  %ref.tmp57 = alloca %"struct.std::pair", align 8
  store %class.cModule* %this, %class.cModule** %this.addr, align 8
  call void @llvm.dbg.declare(metadata %class.cModule** %this.addr, metadata !4816, metadata !DIExpression()), !dbg !4817
  store i8* %gatename, i8** %gatename.addr, align 8
  call void @llvm.dbg.declare(metadata i8** %gatename.addr, metadata !4818, metadata !DIExpression()), !dbg !4819
  store i32 %type, i32* %type.addr, align 4
  call void @llvm.dbg.declare(metadata i32* %type.addr, metadata !4820, metadata !DIExpression()), !dbg !4821
  %frombool = zext i1 %isVector to i8
  store i8 %frombool, i8* %isVector.addr, align 1
  call void @llvm.dbg.declare(metadata i8* %isVector.addr, metadata !4822, metadata !DIExpression()), !dbg !4823
  %this1 = load %class.cModule*, %class.cModule** %this.addr, align 8
  %0 = load i8, i8* %isVector.addr, align 1, !dbg !4824
  %tobool = trunc i8 %0 to i1, !dbg !4824
  br i1 %tobool, label %if.then, label %if.else, !dbg !4826

if.then:                                          ; preds = %entry
  %descvSize = getelementptr inbounds %class.cModule, %class.cModule* %this1, i32 0, i32 7, !dbg !4827
  %1 = load i32, i32* %descvSize, align 8, !dbg !4827
  %cmp = icmp sge i32 %1, 2046, !dbg !4830
  br i1 %cmp, label %if.then2, label %if.end, !dbg !4831

if.then2:                                         ; preds = %if.then
  %exception = call i8* @__cxa_allocate_exception(i64 128) #3, !dbg !4832
  %2 = bitcast i8* %exception to %class.cRuntimeError*, !dbg !4832
  %3 = bitcast %class.cModule* %this1 to %class.cObject*, !dbg !4833
  %4 = load i8*, i8** %gatename.addr, align 8, !dbg !4834
  invoke void (%class.cRuntimeError*, %class.cObject*, i8*, ...) @_ZN13cRuntimeErrorC1EPK7cObjectPKcz(%class.cRuntimeError* %2, %class.cObject* %3, i8* getelementptr inbounds ([60 x i8], [60 x i8]* @.str.5, i64 0, i64 0), i8* %4, i32 2046)
          to label %invoke.cont unwind label %lpad, !dbg !4835

invoke.cont:                                      ; preds = %if.then2
  call void @__cxa_throw(i8* %exception, i8* bitcast ({ i8*, i8*, i8* }* @_ZTI13cRuntimeError to i8*), i8* bitcast (void (%class.cRuntimeError*)* @_ZN13cRuntimeErrorD2Ev to i8*)) #16, !dbg !4832
  unreachable, !dbg !4832

lpad:                                             ; preds = %if.then2
  %5 = landingpad { i8*, i32 }
          cleanup, !dbg !4836
  %6 = extractvalue { i8*, i32 } %5, 0, !dbg !4836
  store i8* %6, i8** %exn.slot, align 8, !dbg !4836
  %7 = extractvalue { i8*, i32 } %5, 1, !dbg !4836
  store i32 %7, i32* %ehselector.slot, align 4, !dbg !4836
  call void @__cxa_free_exception(i8* %exception) #3, !dbg !4832
  br label %eh.resume, !dbg !4832

if.end:                                           ; preds = %if.then
  br label %if.end10, !dbg !4837

if.else:                                          ; preds = %entry
  %descvSize3 = getelementptr inbounds %class.cModule, %class.cModule* %this1, i32 0, i32 7, !dbg !4838
  %8 = load i32, i32* %descvSize3, align 8, !dbg !4838
  %cmp4 = icmp sge i32 %8, 524286, !dbg !4841
  br i1 %cmp4, label %if.then5, label %if.end9, !dbg !4842

if.then5:                                         ; preds = %if.else
  %exception6 = call i8* @__cxa_allocate_exception(i64 128) #3, !dbg !4843
  %9 = bitcast i8* %exception6 to %class.cRuntimeError*, !dbg !4843
  %10 = bitcast %class.cModule* %this1 to %class.cObject*, !dbg !4844
  %11 = load i8*, i8** %gatename.addr, align 8, !dbg !4845
  invoke void (%class.cRuntimeError*, %class.cObject*, i8*, ...) @_ZN13cRuntimeErrorC1EPK7cObjectPKcz(%class.cRuntimeError* %9, %class.cObject* %10, i8* getelementptr inbounds ([58 x i8], [58 x i8]* @.str.6, i64 0, i64 0), i8* %11, i32 524286)
          to label %invoke.cont8 unwind label %lpad7, !dbg !4846

invoke.cont8:                                     ; preds = %if.then5
  call void @__cxa_throw(i8* %exception6, i8* bitcast ({ i8*, i8*, i8* }* @_ZTI13cRuntimeError to i8*), i8* bitcast (void (%class.cRuntimeError*)* @_ZN13cRuntimeErrorD2Ev to i8*)) #16, !dbg !4843
  unreachable, !dbg !4843

lpad7:                                            ; preds = %if.then5
  %12 = landingpad { i8*, i32 }
          cleanup, !dbg !4847
  %13 = extractvalue { i8*, i32 } %12, 0, !dbg !4847
  store i8* %13, i8** %exn.slot, align 8, !dbg !4847
  %14 = extractvalue { i8*, i32 } %12, 1, !dbg !4847
  store i32 %14, i32* %ehselector.slot, align 4, !dbg !4847
  call void @__cxa_free_exception(i8* %exception6) #3, !dbg !4843
  br label %eh.resume, !dbg !4843

if.end9:                                          ; preds = %if.else
  br label %if.end10

if.end10:                                         ; preds = %if.end9, %if.end
  call void @llvm.dbg.declare(metadata %"struct.cGate::Desc"** %newv, metadata !4848, metadata !DIExpression()), !dbg !4849
  %descvSize11 = getelementptr inbounds %class.cModule, %class.cModule* %this1, i32 0, i32 7, !dbg !4850
  %15 = load i32, i32* %descvSize11, align 8, !dbg !4850
  %add = add nsw i32 %15, 1, !dbg !4851
  %conv = sext i32 %add to i64, !dbg !4850
  %16 = call { i64, i1 } @llvm.umul.with.overflow.i64(i64 %conv, i64 40), !dbg !4852
  %17 = extractvalue { i64, i1 } %16, 1, !dbg !4852
  %18 = extractvalue { i64, i1 } %16, 0, !dbg !4852
  %19 = select i1 %17, i64 -1, i64 %18, !dbg !4852
  %call = call i8* @_Znam(i64 %19) #19, !dbg !4852
  %20 = bitcast i8* %call to %"struct.cGate::Desc"*, !dbg !4852
  %isempty = icmp eq i64 %conv, 0, !dbg !4852
  br i1 %isempty, label %arrayctor.cont, label %new.ctorloop, !dbg !4852

new.ctorloop:                                     ; preds = %if.end10
  %arrayctor.end = getelementptr inbounds %"struct.cGate::Desc", %"struct.cGate::Desc"* %20, i64 %conv, !dbg !4852
  br label %arrayctor.loop, !dbg !4852

arrayctor.loop:                                   ; preds = %invoke.cont13, %new.ctorloop
  %arrayctor.cur = phi %"struct.cGate::Desc"* [ %20, %new.ctorloop ], [ %arrayctor.next, %invoke.cont13 ], !dbg !4852
  invoke void @_ZN5cGate4DescC2Ev(%"struct.cGate::Desc"* %arrayctor.cur)
          to label %invoke.cont13 unwind label %lpad12, !dbg !4852

invoke.cont13:                                    ; preds = %arrayctor.loop
  %arrayctor.next = getelementptr inbounds %"struct.cGate::Desc", %"struct.cGate::Desc"* %arrayctor.cur, i64 1, !dbg !4852
  %arrayctor.done = icmp eq %"struct.cGate::Desc"* %arrayctor.next, %arrayctor.end, !dbg !4852
  br i1 %arrayctor.done, label %arrayctor.cont, label %arrayctor.loop, !dbg !4852

arrayctor.cont:                                   ; preds = %if.end10, %invoke.cont13
  store %"struct.cGate::Desc"* %20, %"struct.cGate::Desc"** %newv, align 8, !dbg !4849
  %21 = load %"struct.cGate::Desc"*, %"struct.cGate::Desc"** %newv, align 8, !dbg !4853
  %22 = bitcast %"struct.cGate::Desc"* %21 to i8*, !dbg !4854
  %descv = getelementptr inbounds %class.cModule, %class.cModule* %this1, i32 0, i32 8, !dbg !4855
  %23 = load %"struct.cGate::Desc"*, %"struct.cGate::Desc"** %descv, align 8, !dbg !4855
  %24 = bitcast %"struct.cGate::Desc"* %23 to i8*, !dbg !4854
  %descvSize14 = getelementptr inbounds %class.cModule, %class.cModule* %this1, i32 0, i32 7, !dbg !4856
  %25 = load i32, i32* %descvSize14, align 8, !dbg !4856
  %conv15 = sext i32 %25 to i64, !dbg !4856
  %mul = mul i64 %conv15, 40, !dbg !4857
  call void @llvm.memcpy.p0i8.p0i8.i64(i8* align 8 %22, i8* align 8 %24, i64 %mul, i1 false), !dbg !4854
  call void @llvm.dbg.declare(metadata i32* %i, metadata !4858, metadata !DIExpression()), !dbg !4860
  store i32 0, i32* %i, align 4, !dbg !4860
  br label %for.cond, !dbg !4861

for.cond:                                         ; preds = %for.inc40, %arrayctor.cont
  %26 = load i32, i32* %i, align 4, !dbg !4862
  %descvSize16 = getelementptr inbounds %class.cModule, %class.cModule* %this1, i32 0, i32 7, !dbg !4864
  %27 = load i32, i32* %descvSize16, align 8, !dbg !4864
  %cmp17 = icmp slt i32 %26, %27, !dbg !4865
  br i1 %cmp17, label %for.body, label %for.end42, !dbg !4866

for.body:                                         ; preds = %for.cond
  call void @llvm.dbg.declare(metadata %"struct.cGate::Desc"** %desc, metadata !4867, metadata !DIExpression()), !dbg !4869
  %descv18 = getelementptr inbounds %class.cModule, %class.cModule* %this1, i32 0, i32 8, !dbg !4870
  %28 = load %"struct.cGate::Desc"*, %"struct.cGate::Desc"** %descv18, align 8, !dbg !4870
  %29 = load i32, i32* %i, align 4, !dbg !4871
  %idx.ext = sext i32 %29 to i64, !dbg !4872
  %add.ptr = getelementptr inbounds %"struct.cGate::Desc", %"struct.cGate::Desc"* %28, i64 %idx.ext, !dbg !4872
  store %"struct.cGate::Desc"* %add.ptr, %"struct.cGate::Desc"** %desc, align 8, !dbg !4869
  %30 = load %"struct.cGate::Desc"*, %"struct.cGate::Desc"** %desc, align 8, !dbg !4873
  %namep = getelementptr inbounds %"struct.cGate::Desc", %"struct.cGate::Desc"* %30, i32 0, i32 1, !dbg !4875
  %31 = load %"struct.cGate::Name"*, %"struct.cGate::Name"** %namep, align 8, !dbg !4875
  %tobool19 = icmp ne %"struct.cGate::Name"* %31, null, !dbg !4873
  br i1 %tobool19, label %if.then20, label %if.end39, !dbg !4876

if.then20:                                        ; preds = %for.body
  %32 = load %"struct.cGate::Desc"*, %"struct.cGate::Desc"** %desc, align 8, !dbg !4877
  %call21 = call zeroext i1 @_ZNK5cGate4Desc8isVectorEv(%"struct.cGate::Desc"* %32), !dbg !4880
  br i1 %call21, label %if.else23, label %if.then22, !dbg !4881

if.then22:                                        ; preds = %if.then20
  %33 = load %"struct.cGate::Desc"*, %"struct.cGate::Desc"** %desc, align 8, !dbg !4882
  %34 = getelementptr inbounds %"struct.cGate::Desc", %"struct.cGate::Desc"* %33, i32 0, i32 3, !dbg !4884
  %inputgate = bitcast %union.anon.8* %34 to %class.cGate**, !dbg !4884
  %35 = load %class.cGate*, %class.cGate** %inputgate, align 8, !dbg !4884
  %36 = load %"struct.cGate::Desc"*, %"struct.cGate::Desc"** %newv, align 8, !dbg !4885
  call void @_ZN7cModule14adjustGateDescEP5cGatePNS0_4DescE(%class.cModule* %this1, %class.cGate* %35, %"struct.cGate::Desc"* %36), !dbg !4886
  %37 = load %"struct.cGate::Desc"*, %"struct.cGate::Desc"** %desc, align 8, !dbg !4887
  %38 = getelementptr inbounds %"struct.cGate::Desc", %"struct.cGate::Desc"* %37, i32 0, i32 4, !dbg !4888
  %outputgate = bitcast %union.anon.9* %38 to %class.cGate**, !dbg !4888
  %39 = load %class.cGate*, %class.cGate** %outputgate, align 8, !dbg !4888
  %40 = load %"struct.cGate::Desc"*, %"struct.cGate::Desc"** %newv, align 8, !dbg !4889
  call void @_ZN7cModule14adjustGateDescEP5cGatePNS0_4DescE(%class.cModule* %this1, %class.cGate* %39, %"struct.cGate::Desc"* %40), !dbg !4890
  br label %if.end38, !dbg !4891

lpad12:                                           ; preds = %arrayctor.loop
  %41 = landingpad { i8*, i32 }
          cleanup, !dbg !4892
  %42 = extractvalue { i8*, i32 } %41, 0, !dbg !4892
  store i8* %42, i8** %exn.slot, align 8, !dbg !4892
  %43 = extractvalue { i8*, i32 } %41, 1, !dbg !4892
  store i32 %43, i32* %ehselector.slot, align 4, !dbg !4892
  call void @_ZdaPv(i8* %call) #17, !dbg !4852
  br label %eh.resume, !dbg !4852

if.else23:                                        ; preds = %if.then20
  call void @llvm.dbg.declare(metadata i32* %j, metadata !4893, metadata !DIExpression()), !dbg !4896
  store i32 0, i32* %j, align 4, !dbg !4896
  br label %for.cond24, !dbg !4897

for.cond24:                                       ; preds = %for.inc, %if.else23
  %44 = load i32, i32* %j, align 4, !dbg !4898
  %45 = load %"struct.cGate::Desc"*, %"struct.cGate::Desc"** %desc, align 8, !dbg !4900
  %call25 = call i32 @_ZNK5cGate4Desc8gateSizeEv(%"struct.cGate::Desc"* %45), !dbg !4901
  %cmp26 = icmp slt i32 %44, %call25, !dbg !4902
  br i1 %cmp26, label %for.body27, label %for.end, !dbg !4903

for.body27:                                       ; preds = %for.cond24
  %46 = load %"struct.cGate::Desc"*, %"struct.cGate::Desc"** %desc, align 8, !dbg !4904
  %47 = getelementptr inbounds %"struct.cGate::Desc", %"struct.cGate::Desc"* %46, i32 0, i32 3, !dbg !4907
  %inputgatev = bitcast %union.anon.8* %47 to %class.cGate***, !dbg !4907
  %48 = load %class.cGate**, %class.cGate*** %inputgatev, align 8, !dbg !4907
  %tobool28 = icmp ne %class.cGate** %48, null, !dbg !4904
  br i1 %tobool28, label %if.then29, label %if.end31, !dbg !4908

if.then29:                                        ; preds = %for.body27
  %49 = load %"struct.cGate::Desc"*, %"struct.cGate::Desc"** %desc, align 8, !dbg !4909
  %50 = getelementptr inbounds %"struct.cGate::Desc", %"struct.cGate::Desc"* %49, i32 0, i32 3, !dbg !4910
  %inputgatev30 = bitcast %union.anon.8* %50 to %class.cGate***, !dbg !4910
  %51 = load %class.cGate**, %class.cGate*** %inputgatev30, align 8, !dbg !4910
  %52 = load i32, i32* %j, align 4, !dbg !4911
  %idxprom = sext i32 %52 to i64, !dbg !4909
  %arrayidx = getelementptr inbounds %class.cGate*, %class.cGate** %51, i64 %idxprom, !dbg !4909
  %53 = load %class.cGate*, %class.cGate** %arrayidx, align 8, !dbg !4909
  %54 = load %"struct.cGate::Desc"*, %"struct.cGate::Desc"** %newv, align 8, !dbg !4912
  call void @_ZN7cModule14adjustGateDescEP5cGatePNS0_4DescE(%class.cModule* %this1, %class.cGate* %53, %"struct.cGate::Desc"* %54), !dbg !4913
  br label %if.end31, !dbg !4913

if.end31:                                         ; preds = %if.then29, %for.body27
  %55 = load %"struct.cGate::Desc"*, %"struct.cGate::Desc"** %desc, align 8, !dbg !4914
  %56 = getelementptr inbounds %"struct.cGate::Desc", %"struct.cGate::Desc"* %55, i32 0, i32 4, !dbg !4916
  %outputgatev = bitcast %union.anon.9* %56 to %class.cGate***, !dbg !4916
  %57 = load %class.cGate**, %class.cGate*** %outputgatev, align 8, !dbg !4916
  %tobool32 = icmp ne %class.cGate** %57, null, !dbg !4914
  br i1 %tobool32, label %if.then33, label %if.end37, !dbg !4917

if.then33:                                        ; preds = %if.end31
  %58 = load %"struct.cGate::Desc"*, %"struct.cGate::Desc"** %desc, align 8, !dbg !4918
  %59 = getelementptr inbounds %"struct.cGate::Desc", %"struct.cGate::Desc"* %58, i32 0, i32 4, !dbg !4919
  %outputgatev34 = bitcast %union.anon.9* %59 to %class.cGate***, !dbg !4919
  %60 = load %class.cGate**, %class.cGate*** %outputgatev34, align 8, !dbg !4919
  %61 = load i32, i32* %j, align 4, !dbg !4920
  %idxprom35 = sext i32 %61 to i64, !dbg !4918
  %arrayidx36 = getelementptr inbounds %class.cGate*, %class.cGate** %60, i64 %idxprom35, !dbg !4918
  %62 = load %class.cGate*, %class.cGate** %arrayidx36, align 8, !dbg !4918
  %63 = load %"struct.cGate::Desc"*, %"struct.cGate::Desc"** %newv, align 8, !dbg !4921
  call void @_ZN7cModule14adjustGateDescEP5cGatePNS0_4DescE(%class.cModule* %this1, %class.cGate* %62, %"struct.cGate::Desc"* %63), !dbg !4922
  br label %if.end37, !dbg !4922

if.end37:                                         ; preds = %if.then33, %if.end31
  br label %for.inc, !dbg !4923

for.inc:                                          ; preds = %if.end37
  %64 = load i32, i32* %j, align 4, !dbg !4924
  %inc = add nsw i32 %64, 1, !dbg !4924
  store i32 %inc, i32* %j, align 4, !dbg !4924
  br label %for.cond24, !dbg !4925, !llvm.loop !4926

for.end:                                          ; preds = %for.cond24
  br label %if.end38

if.end38:                                         ; preds = %for.end, %if.then22
  br label %if.end39, !dbg !4928

if.end39:                                         ; preds = %if.end38, %for.body
  br label %for.inc40, !dbg !4929

for.inc40:                                        ; preds = %if.end39
  %65 = load i32, i32* %i, align 4, !dbg !4930
  %inc41 = add nsw i32 %65, 1, !dbg !4930
  store i32 %inc41, i32* %i, align 4, !dbg !4930
  br label %for.cond, !dbg !4931, !llvm.loop !4932

for.end42:                                        ; preds = %for.cond
  %descv43 = getelementptr inbounds %class.cModule, %class.cModule* %this1, i32 0, i32 8, !dbg !4934
  %66 = load %"struct.cGate::Desc"*, %"struct.cGate::Desc"** %descv43, align 8, !dbg !4934
  %isnull = icmp eq %"struct.cGate::Desc"* %66, null, !dbg !4935
  br i1 %isnull, label %delete.end, label %delete.notnull, !dbg !4935

delete.notnull:                                   ; preds = %for.end42
  %67 = bitcast %"struct.cGate::Desc"* %66 to i8*, !dbg !4935
  call void @_ZdaPv(i8* %67) #17, !dbg !4935
  br label %delete.end, !dbg !4935

delete.end:                                       ; preds = %delete.notnull, %for.end42
  %68 = load %"struct.cGate::Desc"*, %"struct.cGate::Desc"** %newv, align 8, !dbg !4936
  %descv44 = getelementptr inbounds %class.cModule, %class.cModule* %this1, i32 0, i32 8, !dbg !4937
  store %"struct.cGate::Desc"* %68, %"struct.cGate::Desc"** %descv44, align 8, !dbg !4938
  call void @llvm.dbg.declare(metadata %"struct.cGate::Desc"** %newDesc, metadata !4939, metadata !DIExpression()), !dbg !4940
  %descv45 = getelementptr inbounds %class.cModule, %class.cModule* %this1, i32 0, i32 8, !dbg !4941
  %69 = load %"struct.cGate::Desc"*, %"struct.cGate::Desc"** %descv45, align 8, !dbg !4941
  %descvSize46 = getelementptr inbounds %class.cModule, %class.cModule* %this1, i32 0, i32 7, !dbg !4942
  %70 = load i32, i32* %descvSize46, align 8, !dbg !4943
  %inc47 = add nsw i32 %70, 1, !dbg !4943
  store i32 %inc47, i32* %descvSize46, align 8, !dbg !4943
  %idx.ext48 = sext i32 %70 to i64, !dbg !4944
  %add.ptr49 = getelementptr inbounds %"struct.cGate::Desc", %"struct.cGate::Desc"* %69, i64 %idx.ext48, !dbg !4944
  store %"struct.cGate::Desc"* %add.ptr49, %"struct.cGate::Desc"** %newDesc, align 8, !dbg !4940
  call void @llvm.dbg.declare(metadata %"struct.cGate::Name"* %key, metadata !4945, metadata !DIExpression()), !dbg !4946
  %71 = load i8*, i8** %gatename.addr, align 8, !dbg !4947
  %72 = load i32, i32* %type.addr, align 4, !dbg !4948
  call void @_ZN5cGate4NameC1EPKcNS_4TypeE(%"struct.cGate::Name"* %key, i8* %71, i32 %72), !dbg !4946
  call void @llvm.dbg.declare(metadata %"struct.std::_Rb_tree_const_iterator"* %it, metadata !4949, metadata !DIExpression()), !dbg !4950
  %call52 = invoke %"struct.std::_Rb_tree_node_base"* @_ZNSt3setIN5cGate4NameESt4lessIS1_ESaIS1_EE4findERKS1_(%"class.std::set.23"* @_ZN7cModule8namePoolE, %"struct.cGate::Name"* dereferenceable(32) %key)
          to label %invoke.cont51 unwind label %lpad50, !dbg !4951

invoke.cont51:                                    ; preds = %delete.end
  %coerce.dive = getelementptr inbounds %"struct.std::_Rb_tree_const_iterator", %"struct.std::_Rb_tree_const_iterator"* %it, i32 0, i32 0, !dbg !4951
  store %"struct.std::_Rb_tree_node_base"* %call52, %"struct.std::_Rb_tree_node_base"** %coerce.dive, align 8, !dbg !4951
  %call53 = call %"struct.std::_Rb_tree_node_base"* @_ZNKSt3setIN5cGate4NameESt4lessIS1_ESaIS1_EE3endEv(%"class.std::set.23"* @_ZN7cModule8namePoolE) #3, !dbg !4952
  %coerce.dive54 = getelementptr inbounds %"struct.std::_Rb_tree_const_iterator", %"struct.std::_Rb_tree_const_iterator"* %ref.tmp, i32 0, i32 0, !dbg !4952
  store %"struct.std::_Rb_tree_node_base"* %call53, %"struct.std::_Rb_tree_node_base"** %coerce.dive54, align 8, !dbg !4952
  %call55 = call zeroext i1 @_ZSteqRKSt23_Rb_tree_const_iteratorIN5cGate4NameEES4_(%"struct.std::_Rb_tree_const_iterator"* dereferenceable(8) %it, %"struct.std::_Rb_tree_const_iterator"* dereferenceable(8) %ref.tmp) #3, !dbg !4954
  br i1 %call55, label %if.then56, label %if.end60, !dbg !4955

if.then56:                                        ; preds = %invoke.cont51
  %call59 = invoke { %"struct.std::_Rb_tree_node_base"*, i8 } @_ZNSt3setIN5cGate4NameESt4lessIS1_ESaIS1_EE6insertERKS1_(%"class.std::set.23"* @_ZN7cModule8namePoolE, %"struct.cGate::Name"* dereferenceable(32) %key)
          to label %invoke.cont58 unwind label %lpad50, !dbg !4956

invoke.cont58:                                    ; preds = %if.then56
  %73 = bitcast %"struct.std::pair"* %ref.tmp57 to { %"struct.std::_Rb_tree_node_base"*, i8 }*, !dbg !4956
  %74 = getelementptr inbounds { %"struct.std::_Rb_tree_node_base"*, i8 }, { %"struct.std::_Rb_tree_node_base"*, i8 }* %73, i32 0, i32 0, !dbg !4956
  %75 = extractvalue { %"struct.std::_Rb_tree_node_base"*, i8 } %call59, 0, !dbg !4956
  store %"struct.std::_Rb_tree_node_base"* %75, %"struct.std::_Rb_tree_node_base"** %74, align 8, !dbg !4956
  %76 = getelementptr inbounds { %"struct.std::_Rb_tree_node_base"*, i8 }, { %"struct.std::_Rb_tree_node_base"*, i8 }* %73, i32 0, i32 1, !dbg !4956
  %77 = extractvalue { %"struct.std::_Rb_tree_node_base"*, i8 } %call59, 1, !dbg !4956
  store i8 %77, i8* %76, align 8, !dbg !4956
  %first = getelementptr inbounds %"struct.std::pair", %"struct.std::pair"* %ref.tmp57, i32 0, i32 0, !dbg !4957
  %78 = bitcast %"struct.std::_Rb_tree_const_iterator"* %it to i8*, !dbg !4958
  %79 = bitcast %"struct.std::_Rb_tree_const_iterator"* %first to i8*, !dbg !4958
  call void @llvm.memcpy.p0i8.p0i8.i64(i8* align 8 %78, i8* align 8 %79, i64 8, i1 false), !dbg !4958
  br label %if.end60, !dbg !4959

lpad50:                                           ; preds = %if.then56, %delete.end
  %80 = landingpad { i8*, i32 }
          cleanup, !dbg !4892
  %81 = extractvalue { i8*, i32 } %80, 0, !dbg !4892
  store i8* %81, i8** %exn.slot, align 8, !dbg !4892
  %82 = extractvalue { i8*, i32 } %80, 1, !dbg !4892
  store i32 %82, i32* %ehselector.slot, align 4, !dbg !4892
  call void @_ZN5cGate4NameD2Ev(%"struct.cGate::Name"* %key) #3, !dbg !4892
  br label %eh.resume, !dbg !4892

if.end60:                                         ; preds = %invoke.cont58, %invoke.cont51
  %call61 = call dereferenceable(32) %"struct.cGate::Name"* @_ZNKSt23_Rb_tree_const_iteratorIN5cGate4NameEEdeEv(%"struct.std::_Rb_tree_const_iterator"* %it) #3, !dbg !4960
  %83 = load %"struct.cGate::Desc"*, %"struct.cGate::Desc"** %newDesc, align 8, !dbg !4961
  %namep62 = getelementptr inbounds %"struct.cGate::Desc", %"struct.cGate::Desc"* %83, i32 0, i32 1, !dbg !4962
  store %"struct.cGate::Name"* %call61, %"struct.cGate::Name"** %namep62, align 8, !dbg !4963
  %84 = load i8, i8* %isVector.addr, align 1, !dbg !4964
  %tobool63 = trunc i8 %84 to i1, !dbg !4964
  %85 = zext i1 %tobool63 to i64, !dbg !4964
  %cond = select i1 %tobool63, i32 0, i32 -1, !dbg !4964
  %86 = load %"struct.cGate::Desc"*, %"struct.cGate::Desc"** %newDesc, align 8, !dbg !4965
  %size = getelementptr inbounds %"struct.cGate::Desc", %"struct.cGate::Desc"* %86, i32 0, i32 2, !dbg !4966
  store i32 %cond, i32* %size, align 8, !dbg !4967
  %87 = load %"struct.cGate::Desc"*, %"struct.cGate::Desc"** %newDesc, align 8, !dbg !4968
  call void @_ZN5cGate4NameD2Ev(%"struct.cGate::Name"* %key) #3, !dbg !4892
  ret %"struct.cGate::Desc"* %87, !dbg !4892

eh.resume:                                        ; preds = %lpad50, %lpad12, %lpad7, %lpad
  %exn = load i8*, i8** %exn.slot, align 8, !dbg !4832
  %sel = load i32, i32* %ehselector.slot, align 4, !dbg !4832
  %lpad.val = insertvalue { i8*, i32 } undef, i8* %exn, 0, !dbg !4832
  %lpad.val64 = insertvalue { i8*, i32 } %lpad.val, i32 %sel, 1, !dbg !4832
  resume { i8*, i32 } %lpad.val64, !dbg !4832
}

; Function Attrs: nounwind readnone speculatable willreturn
declare { i64, i1 } @llvm.umul.with.overflow.i64(i64, i64) #4

; Function Attrs: noinline nounwind uwtable
define linkonce_odr dso_local void @_ZN5cGate4DescC2Ev(%"struct.cGate::Desc"* %this) unnamed_addr #5 comdat align 2 !dbg !4969 {
entry:
  %this.addr = alloca %"struct.cGate::Desc"*, align 8
  store %"struct.cGate::Desc"* %this, %"struct.cGate::Desc"** %this.addr, align 8
  call void @llvm.dbg.declare(metadata %"struct.cGate::Desc"** %this.addr, metadata !4970, metadata !DIExpression()), !dbg !4971
  %this1 = load %"struct.cGate::Desc"*, %"struct.cGate::Desc"** %this.addr, align 8
  %ownerp = getelementptr inbounds %"struct.cGate::Desc", %"struct.cGate::Desc"* %this1, i32 0, i32 0, !dbg !4972
  store %class.cModule* null, %class.cModule** %ownerp, align 8, !dbg !4974
  %size = getelementptr inbounds %"struct.cGate::Desc", %"struct.cGate::Desc"* %this1, i32 0, i32 2, !dbg !4975
  store i32 -1, i32* %size, align 8, !dbg !4976
  %namep = getelementptr inbounds %"struct.cGate::Desc", %"struct.cGate::Desc"* %this1, i32 0, i32 1, !dbg !4977
  store %"struct.cGate::Name"* null, %"struct.cGate::Name"** %namep, align 8, !dbg !4978
  %0 = getelementptr inbounds %"struct.cGate::Desc", %"struct.cGate::Desc"* %this1, i32 0, i32 4, !dbg !4979
  %outputgate = bitcast %union.anon.9* %0 to %class.cGate**, !dbg !4979
  store %class.cGate* null, %class.cGate** %outputgate, align 8, !dbg !4980
  %1 = getelementptr inbounds %"struct.cGate::Desc", %"struct.cGate::Desc"* %this1, i32 0, i32 3, !dbg !4981
  %inputgate = bitcast %union.anon.8* %1 to %class.cGate**, !dbg !4981
  store %class.cGate* null, %class.cGate** %inputgate, align 8, !dbg !4982
  ret void, !dbg !4983
}

; Function Attrs: argmemonly nounwind willreturn
declare void @llvm.memcpy.p0i8.p0i8.i64(i8* noalias nocapture writeonly, i8* noalias nocapture readonly, i64, i1 immarg) #11

declare dso_local void @_ZN5cGate4NameC1EPKcNS_4TypeE(%"struct.cGate::Name"*, i8*, i32) unnamed_addr #1

; Function Attrs: noinline uwtable
define linkonce_odr dso_local %"struct.std::_Rb_tree_node_base"* @_ZNSt3setIN5cGate4NameESt4lessIS1_ESaIS1_EE4findERKS1_(%"class.std::set.23"* %this, %"struct.cGate::Name"* dereferenceable(32) %__x) #0 comdat align 2 !dbg !4984 {
entry:
  %retval = alloca %"struct.std::_Rb_tree_const_iterator", align 8
  %this.addr = alloca %"class.std::set.23"*, align 8
  %__x.addr = alloca %"struct.cGate::Name"*, align 8
  %ref.tmp = alloca %"struct.std::_Rb_tree_iterator", align 8
  store %"class.std::set.23"* %this, %"class.std::set.23"** %this.addr, align 8
  call void @llvm.dbg.declare(metadata %"class.std::set.23"** %this.addr, metadata !4985, metadata !DIExpression()), !dbg !4986
  store %"struct.cGate::Name"* %__x, %"struct.cGate::Name"** %__x.addr, align 8
  call void @llvm.dbg.declare(metadata %"struct.cGate::Name"** %__x.addr, metadata !4987, metadata !DIExpression()), !dbg !4988
  %this1 = load %"class.std::set.23"*, %"class.std::set.23"** %this.addr, align 8
  %_M_t = getelementptr inbounds %"class.std::set.23", %"class.std::set.23"* %this1, i32 0, i32 0, !dbg !4989
  %0 = load %"struct.cGate::Name"*, %"struct.cGate::Name"** %__x.addr, align 8, !dbg !4990
  %call = call %"struct.std::_Rb_tree_node_base"* @_ZNSt8_Rb_treeIN5cGate4NameES1_St9_IdentityIS1_ESt4lessIS1_ESaIS1_EE4findERKS1_(%"class.std::_Rb_tree.24"* %_M_t, %"struct.cGate::Name"* dereferenceable(32) %0), !dbg !4991
  %coerce.dive = getelementptr inbounds %"struct.std::_Rb_tree_iterator", %"struct.std::_Rb_tree_iterator"* %ref.tmp, i32 0, i32 0, !dbg !4991
  store %"struct.std::_Rb_tree_node_base"* %call, %"struct.std::_Rb_tree_node_base"** %coerce.dive, align 8, !dbg !4991
  call void @_ZNSt23_Rb_tree_const_iteratorIN5cGate4NameEEC2ERKSt17_Rb_tree_iteratorIS1_E(%"struct.std::_Rb_tree_const_iterator"* %retval, %"struct.std::_Rb_tree_iterator"* dereferenceable(8) %ref.tmp) #3, !dbg !4989
  %coerce.dive2 = getelementptr inbounds %"struct.std::_Rb_tree_const_iterator", %"struct.std::_Rb_tree_const_iterator"* %retval, i32 0, i32 0, !dbg !4992
  %1 = load %"struct.std::_Rb_tree_node_base"*, %"struct.std::_Rb_tree_node_base"** %coerce.dive2, align 8, !dbg !4992
  ret %"struct.std::_Rb_tree_node_base"* %1, !dbg !4992
}

; Function Attrs: noinline nounwind uwtable
define linkonce_odr dso_local zeroext i1 @_ZSteqRKSt23_Rb_tree_const_iteratorIN5cGate4NameEES4_(%"struct.std::_Rb_tree_const_iterator"* dereferenceable(8) %__x, %"struct.std::_Rb_tree_const_iterator"* dereferenceable(8) %__y) #5 comdat !dbg !4993 {
entry:
  %__x.addr = alloca %"struct.std::_Rb_tree_const_iterator"*, align 8
  %__y.addr = alloca %"struct.std::_Rb_tree_const_iterator"*, align 8
  store %"struct.std::_Rb_tree_const_iterator"* %__x, %"struct.std::_Rb_tree_const_iterator"** %__x.addr, align 8
  call void @llvm.dbg.declare(metadata %"struct.std::_Rb_tree_const_iterator"** %__x.addr, metadata !4998, metadata !DIExpression()), !dbg !4999
  store %"struct.std::_Rb_tree_const_iterator"* %__y, %"struct.std::_Rb_tree_const_iterator"** %__y.addr, align 8
  call void @llvm.dbg.declare(metadata %"struct.std::_Rb_tree_const_iterator"** %__y.addr, metadata !5000, metadata !DIExpression()), !dbg !5001
  %0 = load %"struct.std::_Rb_tree_const_iterator"*, %"struct.std::_Rb_tree_const_iterator"** %__x.addr, align 8, !dbg !5002
  %_M_node = getelementptr inbounds %"struct.std::_Rb_tree_const_iterator", %"struct.std::_Rb_tree_const_iterator"* %0, i32 0, i32 0, !dbg !5003
  %1 = load %"struct.std::_Rb_tree_node_base"*, %"struct.std::_Rb_tree_node_base"** %_M_node, align 8, !dbg !5003
  %2 = load %"struct.std::_Rb_tree_const_iterator"*, %"struct.std::_Rb_tree_const_iterator"** %__y.addr, align 8, !dbg !5004
  %_M_node1 = getelementptr inbounds %"struct.std::_Rb_tree_const_iterator", %"struct.std::_Rb_tree_const_iterator"* %2, i32 0, i32 0, !dbg !5005
  %3 = load %"struct.std::_Rb_tree_node_base"*, %"struct.std::_Rb_tree_node_base"** %_M_node1, align 8, !dbg !5005
  %cmp = icmp eq %"struct.std::_Rb_tree_node_base"* %1, %3, !dbg !5006
  ret i1 %cmp, !dbg !5007
}

; Function Attrs: noinline nounwind uwtable
define linkonce_odr dso_local %"struct.std::_Rb_tree_node_base"* @_ZNKSt3setIN5cGate4NameESt4lessIS1_ESaIS1_EE3endEv(%"class.std::set.23"* %this) #5 comdat align 2 !dbg !5008 {
entry:
  %retval = alloca %"struct.std::_Rb_tree_const_iterator", align 8
  %this.addr = alloca %"class.std::set.23"*, align 8
  store %"class.std::set.23"* %this, %"class.std::set.23"** %this.addr, align 8
  call void @llvm.dbg.declare(metadata %"class.std::set.23"** %this.addr, metadata !5009, metadata !DIExpression()), !dbg !5011
  %this1 = load %"class.std::set.23"*, %"class.std::set.23"** %this.addr, align 8
  %_M_t = getelementptr inbounds %"class.std::set.23", %"class.std::set.23"* %this1, i32 0, i32 0, !dbg !5012
  %call = call %"struct.std::_Rb_tree_node_base"* @_ZNKSt8_Rb_treeIN5cGate4NameES1_St9_IdentityIS1_ESt4lessIS1_ESaIS1_EE3endEv(%"class.std::_Rb_tree.24"* %_M_t) #3, !dbg !5013
  %coerce.dive = getelementptr inbounds %"struct.std::_Rb_tree_const_iterator", %"struct.std::_Rb_tree_const_iterator"* %retval, i32 0, i32 0, !dbg !5013
  store %"struct.std::_Rb_tree_node_base"* %call, %"struct.std::_Rb_tree_node_base"** %coerce.dive, align 8, !dbg !5013
  %coerce.dive2 = getelementptr inbounds %"struct.std::_Rb_tree_const_iterator", %"struct.std::_Rb_tree_const_iterator"* %retval, i32 0, i32 0, !dbg !5014
  %0 = load %"struct.std::_Rb_tree_node_base"*, %"struct.std::_Rb_tree_node_base"** %coerce.dive2, align 8, !dbg !5014
  ret %"struct.std::_Rb_tree_node_base"* %0, !dbg !5014
}

; Function Attrs: noinline uwtable
define linkonce_odr dso_local { %"struct.std::_Rb_tree_node_base"*, i8 } @_ZNSt3setIN5cGate4NameESt4lessIS1_ESaIS1_EE6insertERKS1_(%"class.std::set.23"* %this, %"struct.cGate::Name"* dereferenceable(32) %__x) #0 comdat align 2 !dbg !5015 {
entry:
  %retval = alloca %"struct.std::pair", align 8
  %this.addr = alloca %"class.std::set.23"*, align 8
  %__x.addr = alloca %"struct.cGate::Name"*, align 8
  %__p = alloca %"struct.std::pair.36", align 8
  store %"class.std::set.23"* %this, %"class.std::set.23"** %this.addr, align 8
  call void @llvm.dbg.declare(metadata %"class.std::set.23"** %this.addr, metadata !5016, metadata !DIExpression()), !dbg !5017
  store %"struct.cGate::Name"* %__x, %"struct.cGate::Name"** %__x.addr, align 8
  call void @llvm.dbg.declare(metadata %"struct.cGate::Name"** %__x.addr, metadata !5018, metadata !DIExpression()), !dbg !5019
  %this1 = load %"class.std::set.23"*, %"class.std::set.23"** %this.addr, align 8
  call void @llvm.dbg.declare(metadata %"struct.std::pair.36"* %__p, metadata !5020, metadata !DIExpression()), !dbg !5074
  %_M_t = getelementptr inbounds %"class.std::set.23", %"class.std::set.23"* %this1, i32 0, i32 0, !dbg !5075
  %0 = load %"struct.cGate::Name"*, %"struct.cGate::Name"** %__x.addr, align 8, !dbg !5076
  %call = call { %"struct.std::_Rb_tree_node_base"*, i8 } @_ZNSt8_Rb_treeIN5cGate4NameES1_St9_IdentityIS1_ESt4lessIS1_ESaIS1_EE16_M_insert_uniqueIRKS1_EESt4pairISt17_Rb_tree_iteratorIS1_EbEOT_(%"class.std::_Rb_tree.24"* %_M_t, %"struct.cGate::Name"* dereferenceable(32) %0), !dbg !5077
  %1 = bitcast %"struct.std::pair.36"* %__p to { %"struct.std::_Rb_tree_node_base"*, i8 }*, !dbg !5077
  %2 = getelementptr inbounds { %"struct.std::_Rb_tree_node_base"*, i8 }, { %"struct.std::_Rb_tree_node_base"*, i8 }* %1, i32 0, i32 0, !dbg !5077
  %3 = extractvalue { %"struct.std::_Rb_tree_node_base"*, i8 } %call, 0, !dbg !5077
  store %"struct.std::_Rb_tree_node_base"* %3, %"struct.std::_Rb_tree_node_base"** %2, align 8, !dbg !5077
  %4 = getelementptr inbounds { %"struct.std::_Rb_tree_node_base"*, i8 }, { %"struct.std::_Rb_tree_node_base"*, i8 }* %1, i32 0, i32 1, !dbg !5077
  %5 = extractvalue { %"struct.std::_Rb_tree_node_base"*, i8 } %call, 1, !dbg !5077
  store i8 %5, i8* %4, align 8, !dbg !5077
  %first = getelementptr inbounds %"struct.std::pair.36", %"struct.std::pair.36"* %__p, i32 0, i32 0, !dbg !5078
  %second = getelementptr inbounds %"struct.std::pair.36", %"struct.std::pair.36"* %__p, i32 0, i32 1, !dbg !5079
  call void @_ZNSt4pairISt23_Rb_tree_const_iteratorIN5cGate4NameEEbEC2IRSt17_Rb_tree_iteratorIS2_ERbLb1EEEOT_OT0_(%"struct.std::pair"* %retval, %"struct.std::_Rb_tree_iterator"* dereferenceable(8) %first, i8* dereferenceable(1) %second), !dbg !5080
  %6 = bitcast %"struct.std::pair"* %retval to { %"struct.std::_Rb_tree_node_base"*, i8 }*, !dbg !5081
  %7 = load { %"struct.std::_Rb_tree_node_base"*, i8 }, { %"struct.std::_Rb_tree_node_base"*, i8 }* %6, align 8, !dbg !5081
  ret { %"struct.std::_Rb_tree_node_base"*, i8 } %7, !dbg !5081
}

; Function Attrs: noinline nounwind uwtable
define linkonce_odr dso_local dereferenceable(32) %"struct.cGate::Name"* @_ZNKSt23_Rb_tree_const_iteratorIN5cGate4NameEEdeEv(%"struct.std::_Rb_tree_const_iterator"* %this) #5 comdat align 2 personality i8* bitcast (i32 (...)* @__gxx_personality_v0 to i8*) !dbg !5082 {
entry:
  %this.addr = alloca %"struct.std::_Rb_tree_const_iterator"*, align 8
  store %"struct.std::_Rb_tree_const_iterator"* %this, %"struct.std::_Rb_tree_const_iterator"** %this.addr, align 8
  call void @llvm.dbg.declare(metadata %"struct.std::_Rb_tree_const_iterator"** %this.addr, metadata !5083, metadata !DIExpression()), !dbg !5085
  %this1 = load %"struct.std::_Rb_tree_const_iterator"*, %"struct.std::_Rb_tree_const_iterator"** %this.addr, align 8
  %_M_node = getelementptr inbounds %"struct.std::_Rb_tree_const_iterator", %"struct.std::_Rb_tree_const_iterator"* %this1, i32 0, i32 0, !dbg !5086
  %0 = load %"struct.std::_Rb_tree_node_base"*, %"struct.std::_Rb_tree_node_base"** %_M_node, align 8, !dbg !5086
  %1 = bitcast %"struct.std::_Rb_tree_node_base"* %0 to %"struct.std::_Rb_tree_node"*, !dbg !5087
  %call = invoke %"struct.cGate::Name"* @_ZNKSt13_Rb_tree_nodeIN5cGate4NameEE9_M_valptrEv(%"struct.std::_Rb_tree_node"* %1)
          to label %invoke.cont unwind label %terminate.lpad, !dbg !5088

invoke.cont:                                      ; preds = %entry
  ret %"struct.cGate::Name"* %call, !dbg !5089

terminate.lpad:                                   ; preds = %entry
  %2 = landingpad { i8*, i32 }
          catch i8* null, !dbg !5088
  %3 = extractvalue { i8*, i32 } %2, 0, !dbg !5088
  call void @__clang_call_terminate(i8* %3) #18, !dbg !5088
  unreachable, !dbg !5088
}

; Function Attrs: noinline nounwind uwtable
define linkonce_odr dso_local void @_ZN5cGate4NameD2Ev(%"struct.cGate::Name"* %this) unnamed_addr #5 comdat align 2 !dbg !5090 {
entry:
  %this.addr = alloca %"struct.cGate::Name"*, align 8
  store %"struct.cGate::Name"* %this, %"struct.cGate::Name"** %this.addr, align 8
  call void @llvm.dbg.declare(metadata %"struct.cGate::Name"** %this.addr, metadata !5094, metadata !DIExpression()), !dbg !5095
  %this1 = load %"struct.cGate::Name"*, %"struct.cGate::Name"** %this.addr, align 8
  %nameo = getelementptr inbounds %"struct.cGate::Name", %"struct.cGate::Name"* %this1, i32 0, i32 2, !dbg !5096
  call void @_ZN10opp_stringD2Ev(%class.opp_string* %nameo) #3, !dbg !5096
  %namei = getelementptr inbounds %"struct.cGate::Name", %"struct.cGate::Name"* %this1, i32 0, i32 1, !dbg !5096
  call void @_ZN10opp_stringD2Ev(%class.opp_string* %namei) #3, !dbg !5096
  %name = getelementptr inbounds %"struct.cGate::Name", %"struct.cGate::Name"* %this1, i32 0, i32 0, !dbg !5096
  call void @_ZN10opp_stringD2Ev(%class.opp_string* %name) #3, !dbg !5096
  ret void, !dbg !5098
}

; Function Attrs: noinline uwtable
define dso_local i32 @_ZNK7cModule12findGateDescEPKcRc(%class.cModule* %this, i8* %gatename, i8* dereferenceable(1) %suffix) #0 align 2 !dbg !5099 {
entry:
  %retval = alloca i32, align 4
  %this.addr = alloca %class.cModule*, align 8
  %gatename.addr = alloca i8*, align 8
  %suffix.addr = alloca i8*, align 8
  %len = alloca i32, align 4
  %i = alloca i32, align 4
  %desc = alloca %"struct.cGate::Desc"*, align 8
  %i26 = alloca i32, align 4
  %desc31 = alloca %"struct.cGate::Desc"*, align 8
  %i48 = alloca i32, align 4
  %desc53 = alloca %"struct.cGate::Desc"*, align 8
  store %class.cModule* %this, %class.cModule** %this.addr, align 8
  call void @llvm.dbg.declare(metadata %class.cModule** %this.addr, metadata !5100, metadata !DIExpression()), !dbg !5101
  store i8* %gatename, i8** %gatename.addr, align 8
  call void @llvm.dbg.declare(metadata i8** %gatename.addr, metadata !5102, metadata !DIExpression()), !dbg !5103
  store i8* %suffix, i8** %suffix.addr, align 8
  call void @llvm.dbg.declare(metadata i8** %suffix.addr, metadata !5104, metadata !DIExpression()), !dbg !5105
  %this1 = load %class.cModule*, %class.cModule** %this.addr, align 8
  call void @llvm.dbg.declare(metadata i32* %len, metadata !5106, metadata !DIExpression()), !dbg !5107
  %0 = load i8*, i8** %gatename.addr, align 8, !dbg !5108
  %call = call i64 @strlen(i8* %0) #9, !dbg !5109
  %conv = trunc i64 %call to i32, !dbg !5109
  store i32 %conv, i32* %len, align 4, !dbg !5107
  %1 = load i32, i32* %len, align 4, !dbg !5110
  %cmp = icmp sgt i32 %1, 2, !dbg !5111
  br i1 %cmp, label %land.lhs.true, label %cond.false, !dbg !5112

land.lhs.true:                                    ; preds = %entry
  %2 = load i8*, i8** %gatename.addr, align 8, !dbg !5113
  %3 = load i32, i32* %len, align 4, !dbg !5114
  %sub = sub nsw i32 %3, 2, !dbg !5115
  %idxprom = sext i32 %sub to i64, !dbg !5113
  %arrayidx = getelementptr inbounds i8, i8* %2, i64 %idxprom, !dbg !5113
  %4 = load i8, i8* %arrayidx, align 1, !dbg !5113
  %conv2 = sext i8 %4 to i32, !dbg !5113
  %cmp3 = icmp eq i32 %conv2, 36, !dbg !5116
  br i1 %cmp3, label %cond.true, label %cond.false, !dbg !5117

cond.true:                                        ; preds = %land.lhs.true
  %5 = load i8*, i8** %gatename.addr, align 8, !dbg !5118
  %6 = load i32, i32* %len, align 4, !dbg !5119
  %sub4 = sub nsw i32 %6, 1, !dbg !5120
  %idxprom5 = sext i32 %sub4 to i64, !dbg !5118
  %arrayidx6 = getelementptr inbounds i8, i8* %5, i64 %idxprom5, !dbg !5118
  %7 = load i8, i8* %arrayidx6, align 1, !dbg !5118
  %conv7 = sext i8 %7 to i32, !dbg !5118
  br label %cond.end, !dbg !5117

cond.false:                                       ; preds = %land.lhs.true, %entry
  br label %cond.end, !dbg !5117

cond.end:                                         ; preds = %cond.false, %cond.true
  %cond = phi i32 [ %conv7, %cond.true ], [ 0, %cond.false ], !dbg !5117
  %conv8 = trunc i32 %cond to i8, !dbg !5117
  %8 = load i8*, i8** %suffix.addr, align 8, !dbg !5121
  store i8 %conv8, i8* %8, align 1, !dbg !5122
  %9 = load i8*, i8** %suffix.addr, align 8, !dbg !5123
  %10 = load i8, i8* %9, align 1, !dbg !5123
  %tobool = icmp ne i8 %10, 0, !dbg !5123
  br i1 %tobool, label %land.lhs.true9, label %if.end, !dbg !5125

land.lhs.true9:                                   ; preds = %cond.end
  %11 = load i8*, i8** %suffix.addr, align 8, !dbg !5126
  %12 = load i8, i8* %11, align 1, !dbg !5126
  %conv10 = sext i8 %12 to i32, !dbg !5126
  %cmp11 = icmp ne i32 %conv10, 105, !dbg !5127
  br i1 %cmp11, label %land.lhs.true12, label %if.end, !dbg !5128

land.lhs.true12:                                  ; preds = %land.lhs.true9
  %13 = load i8*, i8** %suffix.addr, align 8, !dbg !5129
  %14 = load i8, i8* %13, align 1, !dbg !5129
  %conv13 = sext i8 %14 to i32, !dbg !5129
  %cmp14 = icmp ne i32 %conv13, 111, !dbg !5130
  br i1 %cmp14, label %if.then, label %if.end, !dbg !5131

if.then:                                          ; preds = %land.lhs.true12
  store i32 -1, i32* %retval, align 4, !dbg !5132
  br label %return, !dbg !5132

if.end:                                           ; preds = %land.lhs.true12, %land.lhs.true9, %cond.end
  %15 = load i8*, i8** %suffix.addr, align 8, !dbg !5133
  %16 = load i8, i8* %15, align 1, !dbg !5133
  %conv15 = sext i8 %16 to i32, !dbg !5133
  switch i32 %conv15, label %sw.epilog [
    i32 0, label %sw.bb
    i32 105, label %sw.bb25
    i32 111, label %sw.bb47
  ], !dbg !5134

sw.bb:                                            ; preds = %if.end
  call void @llvm.dbg.declare(metadata i32* %i, metadata !5135, metadata !DIExpression()), !dbg !5138
  store i32 0, i32* %i, align 4, !dbg !5138
  br label %for.cond, !dbg !5139

for.cond:                                         ; preds = %for.inc, %sw.bb
  %17 = load i32, i32* %i, align 4, !dbg !5140
  %descvSize = getelementptr inbounds %class.cModule, %class.cModule* %this1, i32 0, i32 7, !dbg !5142
  %18 = load i32, i32* %descvSize, align 8, !dbg !5142
  %cmp16 = icmp slt i32 %17, %18, !dbg !5143
  br i1 %cmp16, label %for.body, label %for.end, !dbg !5144

for.body:                                         ; preds = %for.cond
  call void @llvm.dbg.declare(metadata %"struct.cGate::Desc"** %desc, metadata !5145, metadata !DIExpression()), !dbg !5147
  %descv = getelementptr inbounds %class.cModule, %class.cModule* %this1, i32 0, i32 8, !dbg !5148
  %19 = load %"struct.cGate::Desc"*, %"struct.cGate::Desc"** %descv, align 8, !dbg !5148
  %20 = load i32, i32* %i, align 4, !dbg !5149
  %idx.ext = sext i32 %20 to i64, !dbg !5150
  %add.ptr = getelementptr inbounds %"struct.cGate::Desc", %"struct.cGate::Desc"* %19, i64 %idx.ext, !dbg !5150
  store %"struct.cGate::Desc"* %add.ptr, %"struct.cGate::Desc"** %desc, align 8, !dbg !5147
  %21 = load %"struct.cGate::Desc"*, %"struct.cGate::Desc"** %desc, align 8, !dbg !5151
  %namep = getelementptr inbounds %"struct.cGate::Desc", %"struct.cGate::Desc"* %21, i32 0, i32 1, !dbg !5153
  %22 = load %"struct.cGate::Name"*, %"struct.cGate::Name"** %namep, align 8, !dbg !5153
  %tobool17 = icmp ne %"struct.cGate::Name"* %22, null, !dbg !5151
  br i1 %tobool17, label %land.lhs.true18, label %if.end24, !dbg !5154

land.lhs.true18:                                  ; preds = %for.body
  %23 = load %"struct.cGate::Desc"*, %"struct.cGate::Desc"** %desc, align 8, !dbg !5155
  %namep19 = getelementptr inbounds %"struct.cGate::Desc", %"struct.cGate::Desc"* %23, i32 0, i32 1, !dbg !5156
  %24 = load %"struct.cGate::Name"*, %"struct.cGate::Name"** %namep19, align 8, !dbg !5156
  %name = getelementptr inbounds %"struct.cGate::Name", %"struct.cGate::Name"* %24, i32 0, i32 0, !dbg !5157
  %call20 = call i8* @_ZNK10opp_string5c_strEv(%class.opp_string* %name), !dbg !5158
  %25 = load i8*, i8** %gatename.addr, align 8, !dbg !5159
  %call21 = call i32 @strcmp(i8* %call20, i8* %25) #9, !dbg !5160
  %cmp22 = icmp eq i32 %call21, 0, !dbg !5161
  br i1 %cmp22, label %if.then23, label %if.end24, !dbg !5162

if.then23:                                        ; preds = %land.lhs.true18
  %26 = load i32, i32* %i, align 4, !dbg !5163
  store i32 %26, i32* %retval, align 4, !dbg !5164
  br label %return, !dbg !5164

if.end24:                                         ; preds = %land.lhs.true18, %for.body
  br label %for.inc, !dbg !5165

for.inc:                                          ; preds = %if.end24
  %27 = load i32, i32* %i, align 4, !dbg !5166
  %inc = add nsw i32 %27, 1, !dbg !5166
  store i32 %inc, i32* %i, align 4, !dbg !5166
  br label %for.cond, !dbg !5167, !llvm.loop !5168

for.end:                                          ; preds = %for.cond
  br label %sw.epilog, !dbg !5170

sw.bb25:                                          ; preds = %if.end
  call void @llvm.dbg.declare(metadata i32* %i26, metadata !5171, metadata !DIExpression()), !dbg !5173
  store i32 0, i32* %i26, align 4, !dbg !5173
  br label %for.cond27, !dbg !5174

for.cond27:                                       ; preds = %for.inc44, %sw.bb25
  %28 = load i32, i32* %i26, align 4, !dbg !5175
  %descvSize28 = getelementptr inbounds %class.cModule, %class.cModule* %this1, i32 0, i32 7, !dbg !5177
  %29 = load i32, i32* %descvSize28, align 8, !dbg !5177
  %cmp29 = icmp slt i32 %28, %29, !dbg !5178
  br i1 %cmp29, label %for.body30, label %for.end46, !dbg !5179

for.body30:                                       ; preds = %for.cond27
  call void @llvm.dbg.declare(metadata %"struct.cGate::Desc"** %desc31, metadata !5180, metadata !DIExpression()), !dbg !5182
  %descv32 = getelementptr inbounds %class.cModule, %class.cModule* %this1, i32 0, i32 8, !dbg !5183
  %30 = load %"struct.cGate::Desc"*, %"struct.cGate::Desc"** %descv32, align 8, !dbg !5183
  %31 = load i32, i32* %i26, align 4, !dbg !5184
  %idx.ext33 = sext i32 %31 to i64, !dbg !5185
  %add.ptr34 = getelementptr inbounds %"struct.cGate::Desc", %"struct.cGate::Desc"* %30, i64 %idx.ext33, !dbg !5185
  store %"struct.cGate::Desc"* %add.ptr34, %"struct.cGate::Desc"** %desc31, align 8, !dbg !5182
  %32 = load %"struct.cGate::Desc"*, %"struct.cGate::Desc"** %desc31, align 8, !dbg !5186
  %namep35 = getelementptr inbounds %"struct.cGate::Desc", %"struct.cGate::Desc"* %32, i32 0, i32 1, !dbg !5188
  %33 = load %"struct.cGate::Name"*, %"struct.cGate::Name"** %namep35, align 8, !dbg !5188
  %tobool36 = icmp ne %"struct.cGate::Name"* %33, null, !dbg !5186
  br i1 %tobool36, label %land.lhs.true37, label %if.end43, !dbg !5189

land.lhs.true37:                                  ; preds = %for.body30
  %34 = load %"struct.cGate::Desc"*, %"struct.cGate::Desc"** %desc31, align 8, !dbg !5190
  %namep38 = getelementptr inbounds %"struct.cGate::Desc", %"struct.cGate::Desc"* %34, i32 0, i32 1, !dbg !5191
  %35 = load %"struct.cGate::Name"*, %"struct.cGate::Name"** %namep38, align 8, !dbg !5191
  %namei = getelementptr inbounds %"struct.cGate::Name", %"struct.cGate::Name"* %35, i32 0, i32 1, !dbg !5192
  %call39 = call i8* @_ZNK10opp_string5c_strEv(%class.opp_string* %namei), !dbg !5193
  %36 = load i8*, i8** %gatename.addr, align 8, !dbg !5194
  %call40 = call i32 @strcmp(i8* %call39, i8* %36) #9, !dbg !5195
  %cmp41 = icmp eq i32 %call40, 0, !dbg !5196
  br i1 %cmp41, label %if.then42, label %if.end43, !dbg !5197

if.then42:                                        ; preds = %land.lhs.true37
  %37 = load i32, i32* %i26, align 4, !dbg !5198
  store i32 %37, i32* %retval, align 4, !dbg !5199
  br label %return, !dbg !5199

if.end43:                                         ; preds = %land.lhs.true37, %for.body30
  br label %for.inc44, !dbg !5200

for.inc44:                                        ; preds = %if.end43
  %38 = load i32, i32* %i26, align 4, !dbg !5201
  %inc45 = add nsw i32 %38, 1, !dbg !5201
  store i32 %inc45, i32* %i26, align 4, !dbg !5201
  br label %for.cond27, !dbg !5202, !llvm.loop !5203

for.end46:                                        ; preds = %for.cond27
  br label %sw.epilog, !dbg !5205

sw.bb47:                                          ; preds = %if.end
  call void @llvm.dbg.declare(metadata i32* %i48, metadata !5206, metadata !DIExpression()), !dbg !5208
  store i32 0, i32* %i48, align 4, !dbg !5208
  br label %for.cond49, !dbg !5209

for.cond49:                                       ; preds = %for.inc66, %sw.bb47
  %39 = load i32, i32* %i48, align 4, !dbg !5210
  %descvSize50 = getelementptr inbounds %class.cModule, %class.cModule* %this1, i32 0, i32 7, !dbg !5212
  %40 = load i32, i32* %descvSize50, align 8, !dbg !5212
  %cmp51 = icmp slt i32 %39, %40, !dbg !5213
  br i1 %cmp51, label %for.body52, label %for.end68, !dbg !5214

for.body52:                                       ; preds = %for.cond49
  call void @llvm.dbg.declare(metadata %"struct.cGate::Desc"** %desc53, metadata !5215, metadata !DIExpression()), !dbg !5217
  %descv54 = getelementptr inbounds %class.cModule, %class.cModule* %this1, i32 0, i32 8, !dbg !5218
  %41 = load %"struct.cGate::Desc"*, %"struct.cGate::Desc"** %descv54, align 8, !dbg !5218
  %42 = load i32, i32* %i48, align 4, !dbg !5219
  %idx.ext55 = sext i32 %42 to i64, !dbg !5220
  %add.ptr56 = getelementptr inbounds %"struct.cGate::Desc", %"struct.cGate::Desc"* %41, i64 %idx.ext55, !dbg !5220
  store %"struct.cGate::Desc"* %add.ptr56, %"struct.cGate::Desc"** %desc53, align 8, !dbg !5217
  %43 = load %"struct.cGate::Desc"*, %"struct.cGate::Desc"** %desc53, align 8, !dbg !5221
  %namep57 = getelementptr inbounds %"struct.cGate::Desc", %"struct.cGate::Desc"* %43, i32 0, i32 1, !dbg !5223
  %44 = load %"struct.cGate::Name"*, %"struct.cGate::Name"** %namep57, align 8, !dbg !5223
  %tobool58 = icmp ne %"struct.cGate::Name"* %44, null, !dbg !5221
  br i1 %tobool58, label %land.lhs.true59, label %if.end65, !dbg !5224

land.lhs.true59:                                  ; preds = %for.body52
  %45 = load %"struct.cGate::Desc"*, %"struct.cGate::Desc"** %desc53, align 8, !dbg !5225
  %namep60 = getelementptr inbounds %"struct.cGate::Desc", %"struct.cGate::Desc"* %45, i32 0, i32 1, !dbg !5226
  %46 = load %"struct.cGate::Name"*, %"struct.cGate::Name"** %namep60, align 8, !dbg !5226
  %nameo = getelementptr inbounds %"struct.cGate::Name", %"struct.cGate::Name"* %46, i32 0, i32 2, !dbg !5227
  %call61 = call i8* @_ZNK10opp_string5c_strEv(%class.opp_string* %nameo), !dbg !5228
  %47 = load i8*, i8** %gatename.addr, align 8, !dbg !5229
  %call62 = call i32 @strcmp(i8* %call61, i8* %47) #9, !dbg !5230
  %cmp63 = icmp eq i32 %call62, 0, !dbg !5231
  br i1 %cmp63, label %if.then64, label %if.end65, !dbg !5232

if.then64:                                        ; preds = %land.lhs.true59
  %48 = load i32, i32* %i48, align 4, !dbg !5233
  store i32 %48, i32* %retval, align 4, !dbg !5234
  br label %return, !dbg !5234

if.end65:                                         ; preds = %land.lhs.true59, %for.body52
  br label %for.inc66, !dbg !5235

for.inc66:                                        ; preds = %if.end65
  %49 = load i32, i32* %i48, align 4, !dbg !5236
  %inc67 = add nsw i32 %49, 1, !dbg !5236
  store i32 %inc67, i32* %i48, align 4, !dbg !5236
  br label %for.cond49, !dbg !5237, !llvm.loop !5238

for.end68:                                        ; preds = %for.cond49
  br label %sw.epilog, !dbg !5240

sw.epilog:                                        ; preds = %if.end, %for.end68, %for.end46, %for.end
  store i32 -1, i32* %retval, align 4, !dbg !5241
  br label %return, !dbg !5241

return:                                           ; preds = %sw.epilog, %if.then64, %if.then42, %if.then23, %if.then
  %50 = load i32, i32* %retval, align 4, !dbg !5242
  ret i32 %50, !dbg !5242
}

; Function Attrs: nounwind readonly
declare dso_local i64 @strlen(i8*) #12

; Function Attrs: nounwind readonly
declare dso_local i32 @strcmp(i8*, i8*) #12

; Function Attrs: noinline nounwind uwtable
define linkonce_odr dso_local i8* @_ZNK10opp_string5c_strEv(%class.opp_string* %this) #5 comdat align 2 !dbg !5243 {
entry:
  %this.addr = alloca %class.opp_string*, align 8
  store %class.opp_string* %this, %class.opp_string** %this.addr, align 8
  call void @llvm.dbg.declare(metadata %class.opp_string** %this.addr, metadata !5244, metadata !DIExpression()), !dbg !5246
  %this1 = load %class.opp_string*, %class.opp_string** %this.addr, align 8
  %str = getelementptr inbounds %class.opp_string, %class.opp_string* %this1, i32 0, i32 0, !dbg !5247
  %0 = load i8*, i8** %str, align 8, !dbg !5247
  %tobool = icmp ne i8* %0, null, !dbg !5247
  br i1 %tobool, label %cond.true, label %cond.false, !dbg !5247

cond.true:                                        ; preds = %entry
  %str2 = getelementptr inbounds %class.opp_string, %class.opp_string* %this1, i32 0, i32 0, !dbg !5248
  %1 = load i8*, i8** %str2, align 8, !dbg !5248
  br label %cond.end, !dbg !5247

cond.false:                                       ; preds = %entry
  br label %cond.end, !dbg !5247

cond.end:                                         ; preds = %cond.false, %cond.true
  %cond = phi i8* [ %1, %cond.true ], [ getelementptr inbounds ([1 x i8], [1 x i8]* @.str.52, i64 0, i64 0), %cond.false ], !dbg !5247
  ret i8* %cond, !dbg !5249
}

; Function Attrs: noinline uwtable
define dso_local %"struct.cGate::Desc"* @_ZNK7cModule8gateDescEPKcRc(%class.cModule* %this, i8* %gatename, i8* dereferenceable(1) %suffix) #0 align 2 personality i8* bitcast (i32 (...)* @__gxx_personality_v0 to i8*) !dbg !5250 {
entry:
  %this.addr = alloca %class.cModule*, align 8
  %gatename.addr = alloca i8*, align 8
  %suffix.addr = alloca i8*, align 8
  %descIndex = alloca i32, align 4
  %exn.slot = alloca i8*
  %ehselector.slot = alloca i32
  store %class.cModule* %this, %class.cModule** %this.addr, align 8
  call void @llvm.dbg.declare(metadata %class.cModule** %this.addr, metadata !5251, metadata !DIExpression()), !dbg !5252
  store i8* %gatename, i8** %gatename.addr, align 8
  call void @llvm.dbg.declare(metadata i8** %gatename.addr, metadata !5253, metadata !DIExpression()), !dbg !5254
  store i8* %suffix, i8** %suffix.addr, align 8
  call void @llvm.dbg.declare(metadata i8** %suffix.addr, metadata !5255, metadata !DIExpression()), !dbg !5256
  %this1 = load %class.cModule*, %class.cModule** %this.addr, align 8
  call void @llvm.dbg.declare(metadata i32* %descIndex, metadata !5257, metadata !DIExpression()), !dbg !5258
  %0 = load i8*, i8** %gatename.addr, align 8, !dbg !5259
  %1 = load i8*, i8** %suffix.addr, align 8, !dbg !5260
  %call = call i32 @_ZNK7cModule12findGateDescEPKcRc(%class.cModule* %this1, i8* %0, i8* dereferenceable(1) %1), !dbg !5261
  store i32 %call, i32* %descIndex, align 4, !dbg !5258
  %2 = load i32, i32* %descIndex, align 4, !dbg !5262
  %cmp = icmp slt i32 %2, 0, !dbg !5264
  br i1 %cmp, label %if.then, label %if.end, !dbg !5265

if.then:                                          ; preds = %entry
  %exception = call i8* @__cxa_allocate_exception(i64 128) #3, !dbg !5266
  %3 = bitcast i8* %exception to %class.cRuntimeError*, !dbg !5266
  %4 = bitcast %class.cModule* %this1 to %class.cObject*, !dbg !5267
  %5 = load i8*, i8** %gatename.addr, align 8, !dbg !5268
  invoke void (%class.cRuntimeError*, %class.cObject*, i8*, ...) @_ZN13cRuntimeErrorC1EPK7cObjectPKcz(%class.cRuntimeError* %3, %class.cObject* %4, i8* getelementptr inbounds ([34 x i8], [34 x i8]* @.str.7, i64 0, i64 0), i8* %5)
          to label %invoke.cont unwind label %lpad, !dbg !5269

invoke.cont:                                      ; preds = %if.then
  call void @__cxa_throw(i8* %exception, i8* bitcast ({ i8*, i8*, i8* }* @_ZTI13cRuntimeError to i8*), i8* bitcast (void (%class.cRuntimeError*)* @_ZN13cRuntimeErrorD2Ev to i8*)) #16, !dbg !5266
  unreachable, !dbg !5266

lpad:                                             ; preds = %if.then
  %6 = landingpad { i8*, i32 }
          cleanup, !dbg !5270
  %7 = extractvalue { i8*, i32 } %6, 0, !dbg !5270
  store i8* %7, i8** %exn.slot, align 8, !dbg !5270
  %8 = extractvalue { i8*, i32 } %6, 1, !dbg !5270
  store i32 %8, i32* %ehselector.slot, align 4, !dbg !5270
  call void @__cxa_free_exception(i8* %exception) #3, !dbg !5266
  br label %eh.resume, !dbg !5266

if.end:                                           ; preds = %entry
  %descv = getelementptr inbounds %class.cModule, %class.cModule* %this1, i32 0, i32 8, !dbg !5271
  %9 = load %"struct.cGate::Desc"*, %"struct.cGate::Desc"** %descv, align 8, !dbg !5271
  %10 = load i32, i32* %descIndex, align 4, !dbg !5272
  %idx.ext = sext i32 %10 to i64, !dbg !5273
  %add.ptr = getelementptr inbounds %"struct.cGate::Desc", %"struct.cGate::Desc"* %9, i64 %idx.ext, !dbg !5273
  ret %"struct.cGate::Desc"* %add.ptr, !dbg !5274

eh.resume:                                        ; preds = %lpad
  %exn = load i8*, i8** %exn.slot, align 8, !dbg !5266
  %sel = load i32, i32* %ehselector.slot, align 4, !dbg !5266
  %lpad.val = insertvalue { i8*, i32 } undef, i8* %exn, 0, !dbg !5266
  %lpad.val2 = insertvalue { i8*, i32 } %lpad.val, i32 %sel, 1, !dbg !5266
  resume { i8*, i32 } %lpad.val2, !dbg !5266
}

; Function Attrs: noinline uwtable
define dso_local %class.cGate* @_ZN7cModule4gateEi(%class.cModule* %this, i32 %id) unnamed_addr #0 align 2 personality i8* bitcast (i32 (...)* @__gxx_personality_v0 to i8*) !dbg !5275 {
entry:
  %retval = alloca %class.cGate*, align 8
  %this.addr = alloca %class.cModule*, align 8
  %id.addr = alloca i32, align 4
  %h = alloca i32, align 4
  %descIndex = alloca i32, align 4
  %exn.slot = alloca i8*
  %ehselector.slot = alloca i32
  %desc = alloca %"struct.cGate::Desc"*, align 8
  %g = alloca %class.cGate*, align 8
  %descIndex37 = alloca i32, align 4
  %desc46 = alloca %"struct.cGate::Desc"*, align 8
  %isOutput = alloca i8, align 1
  %index = alloca i32, align 4
  store %class.cModule* %this, %class.cModule** %this.addr, align 8
  call void @llvm.dbg.declare(metadata %class.cModule** %this.addr, metadata !5276, metadata !DIExpression()), !dbg !5277
  store i32 %id, i32* %id.addr, align 4
  call void @llvm.dbg.declare(metadata i32* %id.addr, metadata !5278, metadata !DIExpression()), !dbg !5279
  %this1 = load %class.cModule*, %class.cModule** %this.addr, align 8
  call void @llvm.dbg.declare(metadata i32* %h, metadata !5280, metadata !DIExpression()), !dbg !5281
  %0 = load i32, i32* %id.addr, align 4, !dbg !5282
  %and = and i32 %0, -1048576, !dbg !5283
  store i32 %and, i32* %h, align 4, !dbg !5281
  %1 = load i32, i32* %h, align 4, !dbg !5284
  %cmp = icmp eq i32 %1, 0, !dbg !5286
  br i1 %cmp, label %if.then, label %if.else, !dbg !5287

if.then:                                          ; preds = %entry
  call void @llvm.dbg.declare(metadata i32* %descIndex, metadata !5288, metadata !DIExpression()), !dbg !5290
  %2 = load i32, i32* %id.addr, align 4, !dbg !5291
  %shr = ashr i32 %2, 1, !dbg !5292
  store i32 %shr, i32* %descIndex, align 4, !dbg !5290
  %3 = load i32, i32* %descIndex, align 4, !dbg !5293
  %descvSize = getelementptr inbounds %class.cModule, %class.cModule* %this1, i32 0, i32 7, !dbg !5293
  %4 = load i32, i32* %descvSize, align 8, !dbg !5293
  %cmp2 = icmp ult i32 %3, %4, !dbg !5293
  br i1 %cmp2, label %if.end, label %if.then3, !dbg !5295

if.then3:                                         ; preds = %if.then
  %exception = call i8* @__cxa_allocate_exception(i64 128) #3, !dbg !5293
  %5 = bitcast i8* %exception to %class.cRuntimeError*, !dbg !5293
  %6 = bitcast %class.cModule* %this1 to %class.cObject*, !dbg !5293
  %7 = load i32, i32* %id.addr, align 4, !dbg !5293
  invoke void (%class.cRuntimeError*, %class.cObject*, i32, ...) @_ZN13cRuntimeErrorC1EPK7cObject12OppErrorCodez(%class.cRuntimeError* %5, %class.cObject* %6, i32 19, i32 %7)
          to label %invoke.cont unwind label %lpad, !dbg !5293

invoke.cont:                                      ; preds = %if.then3
  call void @__cxa_throw(i8* %exception, i8* bitcast ({ i8*, i8*, i8* }* @_ZTI13cRuntimeError to i8*), i8* bitcast (void (%class.cRuntimeError*)* @_ZN13cRuntimeErrorD2Ev to i8*)) #16, !dbg !5293
  unreachable, !dbg !5293

lpad:                                             ; preds = %if.then3
  %8 = landingpad { i8*, i32 }
          cleanup, !dbg !5296
  %9 = extractvalue { i8*, i32 } %8, 0, !dbg !5296
  store i8* %9, i8** %exn.slot, align 8, !dbg !5296
  %10 = extractvalue { i8*, i32 } %8, 1, !dbg !5296
  store i32 %10, i32* %ehselector.slot, align 4, !dbg !5296
  call void @__cxa_free_exception(i8* %exception) #3, !dbg !5293
  br label %eh.resume, !dbg !5293

if.end:                                           ; preds = %if.then
  call void @llvm.dbg.declare(metadata %"struct.cGate::Desc"** %desc, metadata !5297, metadata !DIExpression()), !dbg !5298
  %descv = getelementptr inbounds %class.cModule, %class.cModule* %this1, i32 0, i32 8, !dbg !5299
  %11 = load %"struct.cGate::Desc"*, %"struct.cGate::Desc"** %descv, align 8, !dbg !5299
  %12 = load i32, i32* %descIndex, align 4, !dbg !5300
  %idx.ext = zext i32 %12 to i64, !dbg !5301
  %add.ptr = getelementptr inbounds %"struct.cGate::Desc", %"struct.cGate::Desc"* %11, i64 %idx.ext, !dbg !5301
  store %"struct.cGate::Desc"* %add.ptr, %"struct.cGate::Desc"** %desc, align 8, !dbg !5298
  %13 = load %"struct.cGate::Desc"*, %"struct.cGate::Desc"** %desc, align 8, !dbg !5302
  %namep = getelementptr inbounds %"struct.cGate::Desc", %"struct.cGate::Desc"* %13, i32 0, i32 1, !dbg !5302
  %14 = load %"struct.cGate::Name"*, %"struct.cGate::Name"** %namep, align 8, !dbg !5302
  %tobool = icmp ne %"struct.cGate::Name"* %14, null, !dbg !5302
  br i1 %tobool, label %if.end8, label %if.then4, !dbg !5304

if.then4:                                         ; preds = %if.end
  %exception5 = call i8* @__cxa_allocate_exception(i64 128) #3, !dbg !5302
  %15 = bitcast i8* %exception5 to %class.cRuntimeError*, !dbg !5302
  %16 = bitcast %class.cModule* %this1 to %class.cObject*, !dbg !5302
  %17 = load i32, i32* %id.addr, align 4, !dbg !5302
  invoke void (%class.cRuntimeError*, %class.cObject*, i32, ...) @_ZN13cRuntimeErrorC1EPK7cObject12OppErrorCodez(%class.cRuntimeError* %15, %class.cObject* %16, i32 19, i32 %17)
          to label %invoke.cont7 unwind label %lpad6, !dbg !5302

invoke.cont7:                                     ; preds = %if.then4
  call void @__cxa_throw(i8* %exception5, i8* bitcast ({ i8*, i8*, i8* }* @_ZTI13cRuntimeError to i8*), i8* bitcast (void (%class.cRuntimeError*)* @_ZN13cRuntimeErrorD2Ev to i8*)) #16, !dbg !5302
  unreachable, !dbg !5302

lpad6:                                            ; preds = %if.then4
  %18 = landingpad { i8*, i32 }
          cleanup, !dbg !5305
  %19 = extractvalue { i8*, i32 } %18, 0, !dbg !5305
  store i8* %19, i8** %exn.slot, align 8, !dbg !5305
  %20 = extractvalue { i8*, i32 } %18, 1, !dbg !5305
  store i32 %20, i32* %ehselector.slot, align 4, !dbg !5305
  call void @__cxa_free_exception(i8* %exception5) #3, !dbg !5302
  br label %eh.resume, !dbg !5302

if.end8:                                          ; preds = %if.end
  %21 = load %"struct.cGate::Desc"*, %"struct.cGate::Desc"** %desc, align 8, !dbg !5306
  %call = call zeroext i1 @_ZNK5cGate4Desc8isVectorEv(%"struct.cGate::Desc"* %21), !dbg !5306
  br i1 %call, label %if.then9, label %if.end13, !dbg !5308

if.then9:                                         ; preds = %if.end8
  %exception10 = call i8* @__cxa_allocate_exception(i64 128) #3, !dbg !5306
  %22 = bitcast i8* %exception10 to %class.cRuntimeError*, !dbg !5306
  %23 = bitcast %class.cModule* %this1 to %class.cObject*, !dbg !5306
  %24 = load i32, i32* %id.addr, align 4, !dbg !5306
  invoke void (%class.cRuntimeError*, %class.cObject*, i32, ...) @_ZN13cRuntimeErrorC1EPK7cObject12OppErrorCodez(%class.cRuntimeError* %22, %class.cObject* %23, i32 19, i32 %24)
          to label %invoke.cont12 unwind label %lpad11, !dbg !5306

invoke.cont12:                                    ; preds = %if.then9
  call void @__cxa_throw(i8* %exception10, i8* bitcast ({ i8*, i8*, i8* }* @_ZTI13cRuntimeError to i8*), i8* bitcast (void (%class.cRuntimeError*)* @_ZN13cRuntimeErrorD2Ev to i8*)) #16, !dbg !5306
  unreachable, !dbg !5306

lpad11:                                           ; preds = %if.then9
  %25 = landingpad { i8*, i32 }
          cleanup, !dbg !5309
  %26 = extractvalue { i8*, i32 } %25, 0, !dbg !5309
  store i8* %26, i8** %exn.slot, align 8, !dbg !5309
  %27 = extractvalue { i8*, i32 } %25, 1, !dbg !5309
  store i32 %27, i32* %ehselector.slot, align 4, !dbg !5309
  call void @__cxa_free_exception(i8* %exception10) #3, !dbg !5306
  br label %eh.resume, !dbg !5306

if.end13:                                         ; preds = %if.end8
  %28 = load i32, i32* %id.addr, align 4, !dbg !5310
  %and14 = and i32 %28, 1, !dbg !5310
  %cmp15 = icmp eq i32 %and14, 0, !dbg !5310
  br i1 %cmp15, label %cond.true, label %cond.false, !dbg !5312

cond.true:                                        ; preds = %if.end13
  %29 = load %"struct.cGate::Desc"*, %"struct.cGate::Desc"** %desc, align 8, !dbg !5310
  %call16 = call i32 @_ZNK5cGate4Desc7getTypeEv(%"struct.cGate::Desc"* %29), !dbg !5310
  %cmp17 = icmp ne i32 %call16, 79, !dbg !5310
  br i1 %cmp17, label %if.end24, label %if.then20, !dbg !5310

cond.false:                                       ; preds = %if.end13
  %30 = load %"struct.cGate::Desc"*, %"struct.cGate::Desc"** %desc, align 8, !dbg !5310
  %call18 = call i32 @_ZNK5cGate4Desc7getTypeEv(%"struct.cGate::Desc"* %30), !dbg !5310
  %cmp19 = icmp ne i32 %call18, 73, !dbg !5310
  br i1 %cmp19, label %if.end24, label %if.then20, !dbg !5312

if.then20:                                        ; preds = %cond.false, %cond.true
  %exception21 = call i8* @__cxa_allocate_exception(i64 128) #3, !dbg !5310
  %31 = bitcast i8* %exception21 to %class.cRuntimeError*, !dbg !5310
  %32 = bitcast %class.cModule* %this1 to %class.cObject*, !dbg !5310
  %33 = load i32, i32* %id.addr, align 4, !dbg !5310
  invoke void (%class.cRuntimeError*, %class.cObject*, i32, ...) @_ZN13cRuntimeErrorC1EPK7cObject12OppErrorCodez(%class.cRuntimeError* %31, %class.cObject* %32, i32 19, i32 %33)
          to label %invoke.cont23 unwind label %lpad22, !dbg !5310

invoke.cont23:                                    ; preds = %if.then20
  call void @__cxa_throw(i8* %exception21, i8* bitcast ({ i8*, i8*, i8* }* @_ZTI13cRuntimeError to i8*), i8* bitcast (void (%class.cRuntimeError*)* @_ZN13cRuntimeErrorD2Ev to i8*)) #16, !dbg !5310
  unreachable, !dbg !5310

lpad22:                                           ; preds = %if.then20
  %34 = landingpad { i8*, i32 }
          cleanup, !dbg !5313
  %35 = extractvalue { i8*, i32 } %34, 0, !dbg !5313
  store i8* %35, i8** %exn.slot, align 8, !dbg !5313
  %36 = extractvalue { i8*, i32 } %34, 1, !dbg !5313
  store i32 %36, i32* %ehselector.slot, align 4, !dbg !5313
  call void @__cxa_free_exception(i8* %exception21) #3, !dbg !5310
  br label %eh.resume, !dbg !5310

if.end24:                                         ; preds = %cond.false, %cond.true
  call void @llvm.dbg.declare(metadata %class.cGate** %g, metadata !5314, metadata !DIExpression()), !dbg !5315
  %37 = load i32, i32* %id.addr, align 4, !dbg !5316
  %and25 = and i32 %37, 1, !dbg !5317
  %cmp26 = icmp eq i32 %and25, 0, !dbg !5318
  br i1 %cmp26, label %cond.true27, label %cond.false28, !dbg !5319

cond.true27:                                      ; preds = %if.end24
  %38 = load %"struct.cGate::Desc"*, %"struct.cGate::Desc"** %desc, align 8, !dbg !5320
  %39 = getelementptr inbounds %"struct.cGate::Desc", %"struct.cGate::Desc"* %38, i32 0, i32 3, !dbg !5321
  %inputgate = bitcast %union.anon.8* %39 to %class.cGate**, !dbg !5321
  %40 = load %class.cGate*, %class.cGate** %inputgate, align 8, !dbg !5321
  br label %cond.end, !dbg !5319

cond.false28:                                     ; preds = %if.end24
  %41 = load %"struct.cGate::Desc"*, %"struct.cGate::Desc"** %desc, align 8, !dbg !5322
  %42 = getelementptr inbounds %"struct.cGate::Desc", %"struct.cGate::Desc"* %41, i32 0, i32 4, !dbg !5323
  %outputgate = bitcast %union.anon.9* %42 to %class.cGate**, !dbg !5323
  %43 = load %class.cGate*, %class.cGate** %outputgate, align 8, !dbg !5323
  br label %cond.end, !dbg !5319

cond.end:                                         ; preds = %cond.false28, %cond.true27
  %cond = phi %class.cGate* [ %40, %cond.true27 ], [ %43, %cond.false28 ], !dbg !5319
  store %class.cGate* %cond, %class.cGate** %g, align 8, !dbg !5315
  %44 = load i32, i32* %id.addr, align 4, !dbg !5324
  %and29 = and i32 %44, 1, !dbg !5324
  %45 = load %class.cGate*, %class.cGate** %g, align 8, !dbg !5324
  %pos = getelementptr inbounds %class.cGate, %class.cGate* %45, i32 0, i32 2, !dbg !5324
  %46 = load i32, i32* %pos, align 8, !dbg !5324
  %and30 = and i32 %46, 1, !dbg !5324
  %cmp31 = icmp eq i32 %and29, %and30, !dbg !5324
  br i1 %cmp31, label %if.end36, label %if.then32, !dbg !5326

if.then32:                                        ; preds = %cond.end
  %exception33 = call i8* @__cxa_allocate_exception(i64 128) #3, !dbg !5324
  %47 = bitcast i8* %exception33 to %class.cRuntimeError*, !dbg !5324
  %48 = bitcast %class.cModule* %this1 to %class.cObject*, !dbg !5324
  %49 = load i32, i32* %id.addr, align 4, !dbg !5324
  invoke void (%class.cRuntimeError*, %class.cObject*, i32, ...) @_ZN13cRuntimeErrorC1EPK7cObject12OppErrorCodez(%class.cRuntimeError* %47, %class.cObject* %48, i32 19, i32 %49)
          to label %invoke.cont35 unwind label %lpad34, !dbg !5324

invoke.cont35:                                    ; preds = %if.then32
  call void @__cxa_throw(i8* %exception33, i8* bitcast ({ i8*, i8*, i8* }* @_ZTI13cRuntimeError to i8*), i8* bitcast (void (%class.cRuntimeError*)* @_ZN13cRuntimeErrorD2Ev to i8*)) #16, !dbg !5324
  unreachable, !dbg !5324

lpad34:                                           ; preds = %if.then32
  %50 = landingpad { i8*, i32 }
          cleanup, !dbg !5327
  %51 = extractvalue { i8*, i32 } %50, 0, !dbg !5327
  store i8* %51, i8** %exn.slot, align 8, !dbg !5327
  %52 = extractvalue { i8*, i32 } %50, 1, !dbg !5327
  store i32 %52, i32* %ehselector.slot, align 4, !dbg !5327
  call void @__cxa_free_exception(i8* %exception33) #3, !dbg !5324
  br label %eh.resume, !dbg !5324

if.end36:                                         ; preds = %cond.end
  %53 = load %class.cGate*, %class.cGate** %g, align 8, !dbg !5328
  store %class.cGate* %53, %class.cGate** %retval, align 8, !dbg !5329
  br label %return, !dbg !5329

if.else:                                          ; preds = %entry
  call void @llvm.dbg.declare(metadata i32* %descIndex37, metadata !5330, metadata !DIExpression()), !dbg !5332
  %54 = load i32, i32* %h, align 4, !dbg !5333
  %shr38 = lshr i32 %54, 20, !dbg !5334
  %sub = sub i32 %shr38, 1, !dbg !5335
  store i32 %sub, i32* %descIndex37, align 4, !dbg !5332
  %55 = load i32, i32* %descIndex37, align 4, !dbg !5336
  %descvSize39 = getelementptr inbounds %class.cModule, %class.cModule* %this1, i32 0, i32 7, !dbg !5336
  %56 = load i32, i32* %descvSize39, align 8, !dbg !5336
  %cmp40 = icmp ult i32 %55, %56, !dbg !5336
  br i1 %cmp40, label %if.end45, label %if.then41, !dbg !5338

if.then41:                                        ; preds = %if.else
  %exception42 = call i8* @__cxa_allocate_exception(i64 128) #3, !dbg !5336
  %57 = bitcast i8* %exception42 to %class.cRuntimeError*, !dbg !5336
  %58 = bitcast %class.cModule* %this1 to %class.cObject*, !dbg !5336
  %59 = load i32, i32* %id.addr, align 4, !dbg !5336
  invoke void (%class.cRuntimeError*, %class.cObject*, i32, ...) @_ZN13cRuntimeErrorC1EPK7cObject12OppErrorCodez(%class.cRuntimeError* %57, %class.cObject* %58, i32 19, i32 %59)
          to label %invoke.cont44 unwind label %lpad43, !dbg !5336

invoke.cont44:                                    ; preds = %if.then41
  call void @__cxa_throw(i8* %exception42, i8* bitcast ({ i8*, i8*, i8* }* @_ZTI13cRuntimeError to i8*), i8* bitcast (void (%class.cRuntimeError*)* @_ZN13cRuntimeErrorD2Ev to i8*)) #16, !dbg !5336
  unreachable, !dbg !5336

lpad43:                                           ; preds = %if.then41
  %60 = landingpad { i8*, i32 }
          cleanup, !dbg !5339
  %61 = extractvalue { i8*, i32 } %60, 0, !dbg !5339
  store i8* %61, i8** %exn.slot, align 8, !dbg !5339
  %62 = extractvalue { i8*, i32 } %60, 1, !dbg !5339
  store i32 %62, i32* %ehselector.slot, align 4, !dbg !5339
  call void @__cxa_free_exception(i8* %exception42) #3, !dbg !5336
  br label %eh.resume, !dbg !5336

if.end45:                                         ; preds = %if.else
  call void @llvm.dbg.declare(metadata %"struct.cGate::Desc"** %desc46, metadata !5340, metadata !DIExpression()), !dbg !5341
  %descv47 = getelementptr inbounds %class.cModule, %class.cModule* %this1, i32 0, i32 8, !dbg !5342
  %63 = load %"struct.cGate::Desc"*, %"struct.cGate::Desc"** %descv47, align 8, !dbg !5342
  %64 = load i32, i32* %descIndex37, align 4, !dbg !5343
  %idx.ext48 = zext i32 %64 to i64, !dbg !5344
  %add.ptr49 = getelementptr inbounds %"struct.cGate::Desc", %"struct.cGate::Desc"* %63, i64 %idx.ext48, !dbg !5344
  store %"struct.cGate::Desc"* %add.ptr49, %"struct.cGate::Desc"** %desc46, align 8, !dbg !5341
  %65 = load %"struct.cGate::Desc"*, %"struct.cGate::Desc"** %desc46, align 8, !dbg !5345
  %namep50 = getelementptr inbounds %"struct.cGate::Desc", %"struct.cGate::Desc"* %65, i32 0, i32 1, !dbg !5345
  %66 = load %"struct.cGate::Name"*, %"struct.cGate::Name"** %namep50, align 8, !dbg !5345
  %tobool51 = icmp ne %"struct.cGate::Name"* %66, null, !dbg !5345
  br i1 %tobool51, label %if.end56, label %if.then52, !dbg !5347

if.then52:                                        ; preds = %if.end45
  %exception53 = call i8* @__cxa_allocate_exception(i64 128) #3, !dbg !5345
  %67 = bitcast i8* %exception53 to %class.cRuntimeError*, !dbg !5345
  %68 = bitcast %class.cModule* %this1 to %class.cObject*, !dbg !5345
  %69 = load i32, i32* %id.addr, align 4, !dbg !5345
  invoke void (%class.cRuntimeError*, %class.cObject*, i32, ...) @_ZN13cRuntimeErrorC1EPK7cObject12OppErrorCodez(%class.cRuntimeError* %67, %class.cObject* %68, i32 19, i32 %69)
          to label %invoke.cont55 unwind label %lpad54, !dbg !5345

invoke.cont55:                                    ; preds = %if.then52
  call void @__cxa_throw(i8* %exception53, i8* bitcast ({ i8*, i8*, i8* }* @_ZTI13cRuntimeError to i8*), i8* bitcast (void (%class.cRuntimeError*)* @_ZN13cRuntimeErrorD2Ev to i8*)) #16, !dbg !5345
  unreachable, !dbg !5345

lpad54:                                           ; preds = %if.then52
  %70 = landingpad { i8*, i32 }
          cleanup, !dbg !5348
  %71 = extractvalue { i8*, i32 } %70, 0, !dbg !5348
  store i8* %71, i8** %exn.slot, align 8, !dbg !5348
  %72 = extractvalue { i8*, i32 } %70, 1, !dbg !5348
  store i32 %72, i32* %ehselector.slot, align 4, !dbg !5348
  call void @__cxa_free_exception(i8* %exception53) #3, !dbg !5345
  br label %eh.resume, !dbg !5345

if.end56:                                         ; preds = %if.end45
  %73 = load %"struct.cGate::Desc"*, %"struct.cGate::Desc"** %desc46, align 8, !dbg !5349
  %call57 = call zeroext i1 @_ZNK5cGate4Desc8isVectorEv(%"struct.cGate::Desc"* %73), !dbg !5349
  br i1 %call57, label %if.end62, label %if.then58, !dbg !5351

if.then58:                                        ; preds = %if.end56
  %exception59 = call i8* @__cxa_allocate_exception(i64 128) #3, !dbg !5349
  %74 = bitcast i8* %exception59 to %class.cRuntimeError*, !dbg !5349
  %75 = bitcast %class.cModule* %this1 to %class.cObject*, !dbg !5349
  %76 = load i32, i32* %id.addr, align 4, !dbg !5349
  invoke void (%class.cRuntimeError*, %class.cObject*, i32, ...) @_ZN13cRuntimeErrorC1EPK7cObject12OppErrorCodez(%class.cRuntimeError* %74, %class.cObject* %75, i32 19, i32 %76)
          to label %invoke.cont61 unwind label %lpad60, !dbg !5349

invoke.cont61:                                    ; preds = %if.then58
  call void @__cxa_throw(i8* %exception59, i8* bitcast ({ i8*, i8*, i8* }* @_ZTI13cRuntimeError to i8*), i8* bitcast (void (%class.cRuntimeError*)* @_ZN13cRuntimeErrorD2Ev to i8*)) #16, !dbg !5349
  unreachable, !dbg !5349

lpad60:                                           ; preds = %if.then58
  %77 = landingpad { i8*, i32 }
          cleanup, !dbg !5352
  %78 = extractvalue { i8*, i32 } %77, 0, !dbg !5352
  store i8* %78, i8** %exn.slot, align 8, !dbg !5352
  %79 = extractvalue { i8*, i32 } %77, 1, !dbg !5352
  store i32 %79, i32* %ehselector.slot, align 4, !dbg !5352
  call void @__cxa_free_exception(i8* %exception59) #3, !dbg !5349
  br label %eh.resume, !dbg !5349

if.end62:                                         ; preds = %if.end56
  call void @llvm.dbg.declare(metadata i8* %isOutput, metadata !5353, metadata !DIExpression()), !dbg !5354
  %80 = load i32, i32* %id.addr, align 4, !dbg !5355
  %and63 = and i32 %80, 524288, !dbg !5356
  %tobool64 = icmp ne i32 %and63, 0, !dbg !5355
  %frombool = zext i1 %tobool64 to i8, !dbg !5354
  store i8 %frombool, i8* %isOutput, align 1, !dbg !5354
  %81 = load i8, i8* %isOutput, align 1, !dbg !5357
  %tobool65 = trunc i8 %81 to i1, !dbg !5357
  br i1 %tobool65, label %cond.true66, label %cond.false69, !dbg !5359

cond.true66:                                      ; preds = %if.end62
  %82 = load %"struct.cGate::Desc"*, %"struct.cGate::Desc"** %desc46, align 8, !dbg !5357
  %call67 = call i32 @_ZNK5cGate4Desc7getTypeEv(%"struct.cGate::Desc"* %82), !dbg !5357
  %cmp68 = icmp ne i32 %call67, 73, !dbg !5357
  br i1 %cmp68, label %if.end76, label %if.then72, !dbg !5357

cond.false69:                                     ; preds = %if.end62
  %83 = load %"struct.cGate::Desc"*, %"struct.cGate::Desc"** %desc46, align 8, !dbg !5357
  %call70 = call i32 @_ZNK5cGate4Desc7getTypeEv(%"struct.cGate::Desc"* %83), !dbg !5357
  %cmp71 = icmp ne i32 %call70, 79, !dbg !5357
  br i1 %cmp71, label %if.end76, label %if.then72, !dbg !5359

if.then72:                                        ; preds = %cond.false69, %cond.true66
  %exception73 = call i8* @__cxa_allocate_exception(i64 128) #3, !dbg !5357
  %84 = bitcast i8* %exception73 to %class.cRuntimeError*, !dbg !5357
  %85 = bitcast %class.cModule* %this1 to %class.cObject*, !dbg !5357
  %86 = load i32, i32* %id.addr, align 4, !dbg !5357
  invoke void (%class.cRuntimeError*, %class.cObject*, i32, ...) @_ZN13cRuntimeErrorC1EPK7cObject12OppErrorCodez(%class.cRuntimeError* %84, %class.cObject* %85, i32 19, i32 %86)
          to label %invoke.cont75 unwind label %lpad74, !dbg !5357

invoke.cont75:                                    ; preds = %if.then72
  call void @__cxa_throw(i8* %exception73, i8* bitcast ({ i8*, i8*, i8* }* @_ZTI13cRuntimeError to i8*), i8* bitcast (void (%class.cRuntimeError*)* @_ZN13cRuntimeErrorD2Ev to i8*)) #16, !dbg !5357
  unreachable, !dbg !5357

