; ModuleID = 'simulator/spec_qsort.cc'
source_filename = "simulator/spec_qsort.cc"
target datalayout = "e-m:e-p270:32:32-p271:32:32-p272:64:64-i64:64-f80:128-n8:16:32:64-S128"
target triple = "x86_64-unknown-linux-gnu"

; Function Attrs: noinline uwtable
define dso_local void @_Z10spec_qsortPvmmPFiPKvS1_E(i8* %array, i64 %nitems, i64 %size, i32 (i8*, i8*)* %cmp) #0 !dbg !224 {
entry:
  %array.addr = alloca i8*, align 8
  %nitems.addr = alloca i64, align 8
  %size.addr = alloca i64, align 8
  %cmp.addr = alloca i32 (i8*, i8*)*, align 8
  store i8* %array, i8** %array.addr, align 8
  call void @llvm.dbg.declare(metadata i8** %array.addr, metadata !227, metadata !DIExpression()), !dbg !228
  store i64 %nitems, i64* %nitems.addr, align 8
  call void @llvm.dbg.declare(metadata i64* %nitems.addr, metadata !229, metadata !DIExpression()), !dbg !230
  store i64 %size, i64* %size.addr, align 8
  call void @llvm.dbg.declare(metadata i64* %size.addr, metadata !231, metadata !DIExpression()), !dbg !232
  store i32 (i8*, i8*)* %cmp, i32 (i8*, i8*)** %cmp.addr, align 8
  call void @llvm.dbg.declare(metadata i32 (i8*, i8*)** %cmp.addr, metadata !233, metadata !DIExpression()), !dbg !234
  %0 = load i8*, i8** %array.addr, align 8, !dbg !235
  %1 = load i64, i64* %size.addr, align 8, !dbg !236
  %2 = load i64, i64* %nitems.addr, align 8, !dbg !237
  %sub = sub i64 %2, 1, !dbg !238
  %3 = load i64, i64* %size.addr, align 8, !dbg !239
  %mul = mul i64 %sub, %3, !dbg !240
  %conv = trunc i64 %mul to i32, !dbg !241
  %4 = load i32 (i8*, i8*)*, i32 (i8*, i8*)** %cmp.addr, align 8, !dbg !242
  call void @_ZL9spec_sortPcmiiPFiPKvS1_E(i8* %0, i64 %1, i32 0, i32 %conv, i32 (i8*, i8*)* %4), !dbg !243
  ret void, !dbg !244
}

; Function Attrs: nounwind readnone speculatable willreturn
declare void @llvm.dbg.declare(metadata, metadata, metadata) #1

; Function Attrs: noinline uwtable
define internal void @_ZL9spec_sortPcmiiPFiPKvS1_E(i8* %array, i64 %size, i32 %begin, i32 %end, i32 (i8*, i8*)* %cmp) #0 !dbg !245 {
entry:
  %array.addr = alloca i8*, align 8
  %size.addr = alloca i64, align 8
  %begin.addr = alloca i32, align 4
  %end.addr = alloca i32, align 4
  %cmp.addr = alloca i32 (i8*, i8*)*, align 8
  %pivot = alloca i8*, align 8
  %l = alloca i32, align 4
  %r = alloca i32, align 4
  store i8* %array, i8** %array.addr, align 8
  call void @llvm.dbg.declare(metadata i8** %array.addr, metadata !248, metadata !DIExpression()), !dbg !249
  store i64 %size, i64* %size.addr, align 8
  call void @llvm.dbg.declare(metadata i64* %size.addr, metadata !250, metadata !DIExpression()), !dbg !251
  store i32 %begin, i32* %begin.addr, align 4
  call void @llvm.dbg.declare(metadata i32* %begin.addr, metadata !252, metadata !DIExpression()), !dbg !253
  store i32 %end, i32* %end.addr, align 4
  call void @llvm.dbg.declare(metadata i32* %end.addr, metadata !254, metadata !DIExpression()), !dbg !255
  store i32 (i8*, i8*)* %cmp, i32 (i8*, i8*)** %cmp.addr, align 8
  call void @llvm.dbg.declare(metadata i32 (i8*, i8*)** %cmp.addr, metadata !256, metadata !DIExpression()), !dbg !257
  %0 = load i32, i32* %end.addr, align 4, !dbg !258
  %1 = load i32, i32* %begin.addr, align 4, !dbg !260
  %cmp1 = icmp sgt i32 %0, %1, !dbg !261
  br i1 %cmp1, label %if.then, label %if.end24, !dbg !262

if.then:                                          ; preds = %entry
  call void @llvm.dbg.declare(metadata i8** %pivot, metadata !263, metadata !DIExpression()), !dbg !265
  %2 = load i8*, i8** %array.addr, align 8, !dbg !266
  %3 = load i32, i32* %begin.addr, align 4, !dbg !267
  %idx.ext = sext i32 %3 to i64, !dbg !268
  %add.ptr = getelementptr inbounds i8, i8* %2, i64 %idx.ext, !dbg !268
  store i8* %add.ptr, i8** %pivot, align 8, !dbg !265
  call void @llvm.dbg.declare(metadata i32* %l, metadata !269, metadata !DIExpression()), !dbg !270
  %4 = load i32, i32* %begin.addr, align 4, !dbg !271
  %conv = sext i32 %4 to i64, !dbg !271
  %5 = load i64, i64* %size.addr, align 8, !dbg !272
  %add = add i64 %conv, %5, !dbg !273
  %conv2 = trunc i64 %add to i32, !dbg !271
  store i32 %conv2, i32* %l, align 4, !dbg !270
  call void @llvm.dbg.declare(metadata i32* %r, metadata !274, metadata !DIExpression()), !dbg !275
  %6 = load i32, i32* %end.addr, align 4, !dbg !276
  store i32 %6, i32* %r, align 4, !dbg !275
  br label %while.cond, !dbg !277

while.cond:                                       ; preds = %if.end, %if.then
  %7 = load i32, i32* %l, align 4, !dbg !278
  %8 = load i32, i32* %r, align 4, !dbg !279
  %cmp3 = icmp slt i32 %7, %8, !dbg !280
  br i1 %cmp3, label %while.body, label %while.end, !dbg !277

while.body:                                       ; preds = %while.cond
  %9 = load i32 (i8*, i8*)*, i32 (i8*, i8*)** %cmp.addr, align 8, !dbg !281
  %10 = load i8*, i8** %array.addr, align 8, !dbg !284
  %11 = load i32, i32* %l, align 4, !dbg !285
  %idx.ext4 = sext i32 %11 to i64, !dbg !286
  %add.ptr5 = getelementptr inbounds i8, i8* %10, i64 %idx.ext4, !dbg !286
  %12 = load i8*, i8** %pivot, align 8, !dbg !287
  %call = call i32 %9(i8* %add.ptr5, i8* %12), !dbg !281
  %cmp6 = icmp sle i32 %call, 0, !dbg !288
  br i1 %cmp6, label %if.then7, label %if.else, !dbg !289

if.then7:                                         ; preds = %while.body
  %13 = load i64, i64* %size.addr, align 8, !dbg !290
  %14 = load i32, i32* %l, align 4, !dbg !292
  %conv8 = sext i32 %14 to i64, !dbg !292
  %add9 = add i64 %conv8, %13, !dbg !292
  %conv10 = trunc i64 %add9 to i32, !dbg !292
  store i32 %conv10, i32* %l, align 4, !dbg !292
  br label %if.end, !dbg !293

if.else:                                          ; preds = %while.body
  %15 = load i64, i64* %size.addr, align 8, !dbg !294
  %16 = load i32, i32* %r, align 4, !dbg !296
  %conv11 = sext i32 %16 to i64, !dbg !296
  %sub = sub i64 %conv11, %15, !dbg !296
  %conv12 = trunc i64 %sub to i32, !dbg !296
  store i32 %conv12, i32* %r, align 4, !dbg !296
  %17 = load i8*, i8** %array.addr, align 8, !dbg !297
  %18 = load i32, i32* %l, align 4, !dbg !298
  %idx.ext13 = sext i32 %18 to i64, !dbg !299
  %add.ptr14 = getelementptr inbounds i8, i8* %17, i64 %idx.ext13, !dbg !299
  %19 = load i8*, i8** %array.addr, align 8, !dbg !300
  %20 = load i32, i32* %r, align 4, !dbg !301
  %idx.ext15 = sext i32 %20 to i64, !dbg !302
  %add.ptr16 = getelementptr inbounds i8, i8* %19, i64 %idx.ext15, !dbg !302
  %21 = load i64, i64* %size.addr, align 8, !dbg !303
  call void @_ZL9spec_swapPvS_m(i8* %add.ptr14, i8* %add.ptr16, i64 %21), !dbg !304
  br label %if.end

if.end:                                           ; preds = %if.else, %if.then7
  br label %while.cond, !dbg !277, !llvm.loop !305

while.end:                                        ; preds = %while.cond
  %22 = load i64, i64* %size.addr, align 8, !dbg !307
  %23 = load i32, i32* %l, align 4, !dbg !308
  %conv17 = sext i32 %23 to i64, !dbg !308
  %sub18 = sub i64 %conv17, %22, !dbg !308
  %conv19 = trunc i64 %sub18 to i32, !dbg !308
  store i32 %conv19, i32* %l, align 4, !dbg !308
  %24 = load i8*, i8** %array.addr, align 8, !dbg !309
  %25 = load i32, i32* %begin.addr, align 4, !dbg !310
  %idx.ext20 = sext i32 %25 to i64, !dbg !311
  %add.ptr21 = getelementptr inbounds i8, i8* %24, i64 %idx.ext20, !dbg !311
  %26 = load i8*, i8** %array.addr, align 8, !dbg !312
  %27 = load i32, i32* %l, align 4, !dbg !313
  %idx.ext22 = sext i32 %27 to i64, !dbg !314
  %add.ptr23 = getelementptr inbounds i8, i8* %26, i64 %idx.ext22, !dbg !314
  %28 = load i64, i64* %size.addr, align 8, !dbg !315
  call void @_ZL9spec_swapPvS_m(i8* %add.ptr21, i8* %add.ptr23, i64 %28), !dbg !316
  %29 = load i8*, i8** %array.addr, align 8, !dbg !317
  %30 = load i64, i64* %size.addr, align 8, !dbg !318
  %31 = load i32, i32* %begin.addr, align 4, !dbg !319
  %32 = load i32, i32* %l, align 4, !dbg !320
  %33 = load i32 (i8*, i8*)*, i32 (i8*, i8*)** %cmp.addr, align 8, !dbg !321
  call void @_ZL9spec_sortPcmiiPFiPKvS1_E(i8* %29, i64 %30, i32 %31, i32 %32, i32 (i8*, i8*)* %33), !dbg !322
  %34 = load i8*, i8** %array.addr, align 8, !dbg !323
  %35 = load i64, i64* %size.addr, align 8, !dbg !324
  %36 = load i32, i32* %r, align 4, !dbg !325
  %37 = load i32, i32* %end.addr, align 4, !dbg !326
  %38 = load i32 (i8*, i8*)*, i32 (i8*, i8*)** %cmp.addr, align 8, !dbg !327
  call void @_ZL9spec_sortPcmiiPFiPKvS1_E(i8* %34, i64 %35, i32 %36, i32 %37, i32 (i8*, i8*)* %38), !dbg !328
  br label %if.end24, !dbg !329

if.end24:                                         ; preds = %while.end, %entry
  ret void, !dbg !330
}

; Function Attrs: noinline nounwind uwtable
define internal void @_ZL9spec_swapPvS_m(i8* %x, i8* %y, i64 %l) #2 !dbg !331 {
entry:
  %x.addr = alloca i8*, align 8
  %y.addr = alloca i8*, align 8
  %l.addr = alloca i64, align 8
  %a = alloca i8*, align 8
  %b = alloca i8*, align 8
  %c = alloca i8, align 1
  store i8* %x, i8** %x.addr, align 8
  call void @llvm.dbg.declare(metadata i8** %x.addr, metadata !334, metadata !DIExpression()), !dbg !335
  store i8* %y, i8** %y.addr, align 8
  call void @llvm.dbg.declare(metadata i8** %y.addr, metadata !336, metadata !DIExpression()), !dbg !337
  store i64 %l, i64* %l.addr, align 8
  call void @llvm.dbg.declare(metadata i64* %l.addr, metadata !338, metadata !DIExpression()), !dbg !339
  call void @llvm.dbg.declare(metadata i8** %a, metadata !340, metadata !DIExpression()), !dbg !341
  %0 = load i8*, i8** %x.addr, align 8, !dbg !342
  store i8* %0, i8** %a, align 8, !dbg !341
  call void @llvm.dbg.declare(metadata i8** %b, metadata !343, metadata !DIExpression()), !dbg !344
  %1 = load i8*, i8** %y.addr, align 8, !dbg !345
  store i8* %1, i8** %b, align 8, !dbg !344
  call void @llvm.dbg.declare(metadata i8* %c, metadata !346, metadata !DIExpression()), !dbg !347
  br label %while.cond, !dbg !348

while.cond:                                       ; preds = %while.body, %entry
  %2 = load i64, i64* %l.addr, align 8, !dbg !349
  %dec = add i64 %2, -1, !dbg !349
  store i64 %dec, i64* %l.addr, align 8, !dbg !349
  %tobool = icmp ne i64 %2, 0, !dbg !350
  br i1 %tobool, label %while.body, label %while.end, !dbg !348

while.body:                                       ; preds = %while.cond
  %3 = load i8*, i8** %a, align 8, !dbg !351
  %4 = load i8, i8* %3, align 1, !dbg !353
  store i8 %4, i8* %c, align 1, !dbg !354
  %5 = load i8*, i8** %b, align 8, !dbg !355
  %6 = load i8, i8* %5, align 1, !dbg !356
  %7 = load i8*, i8** %a, align 8, !dbg !357
  %incdec.ptr = getelementptr inbounds i8, i8* %7, i32 1, !dbg !357
  store i8* %incdec.ptr, i8** %a, align 8, !dbg !357
  store i8 %6, i8* %7, align 1, !dbg !358
  %8 = load i8, i8* %c, align 1, !dbg !359
  %9 = load i8*, i8** %b, align 8, !dbg !360
  %incdec.ptr1 = getelementptr inbounds i8, i8* %9, i32 1, !dbg !360
  store i8* %incdec.ptr1, i8** %b, align 8, !dbg !360
  store i8 %8, i8* %9, align 1, !dbg !361
  br label %while.cond, !dbg !348, !llvm.loop !362

while.end:                                        ; preds = %while.cond
  ret void, !dbg !364
}

attributes #0 = { noinline uwtable "correctly-rounded-divide-sqrt-fp-math"="false" "disable-tail-calls"="false" "frame-pointer"="all" "less-precise-fpmad"="false" "min-legal-vector-width"="0" "no-infs-fp-math"="false" "no-jump-tables"="false" "no-nans-fp-math"="false" "no-signed-zeros-fp-math"="false" "no-trapping-math"="false" "stack-protector-buffer-size"="8" "target-cpu"="x86-64" "target-features"="+cx8,+fxsr,+mmx,+sse,+sse2,+x87" "unsafe-fp-math"="false" "use-soft-float"="false" }
attributes #1 = { nounwind readnone speculatable willreturn }
attributes #2 = { noinline nounwind uwtable "correctly-rounded-divide-sqrt-fp-math"="false" "disable-tail-calls"="false" "frame-pointer"="all" "less-precise-fpmad"="false" "min-legal-vector-width"="0" "no-infs-fp-math"="false" "no-jump-tables"="false" "no-nans-fp-math"="false" "no-signed-zeros-fp-math"="false" "no-trapping-math"="false" "stack-protector-buffer-size"="8" "target-cpu"="x86-64" "target-features"="+cx8,+fxsr,+mmx,+sse,+sse2,+x87" "unsafe-fp-math"="false" "use-soft-float"="false" }

!llvm.dbg.cu = !{!0}
!llvm.module.flags = !{!220, !221, !222}
!llvm.ident = !{!223}

!0 = distinct !DICompileUnit(language: DW_LANG_C_plus_plus_14, file: !1, producer: "clang version 10.0.1 (https://github.com/svkeerthy/IR2Vec-LoopOptimizationFramework.git 561ac470e63b728263a0ac06ef987886ac648486)", isOptimized: false, runtimeVersion: 0, emissionKind: FullDebug, enums: !2, retainedTypes: !3, imports: !6, splitDebugInlining: false, nameTableKind: None)
!1 = !DIFile(filename: "simulator/spec_qsort.cc", directory: "/home/venkat/IF-DV/spec_build_release/CPU_2017/benchspec/CPU/520.omnetpp_r/build/build_base_ld-loop-ext-m64.0000")
!2 = !{}
!3 = !{!4}
!4 = !DIDerivedType(tag: DW_TAG_pointer_type, baseType: !5, size: 64)
!5 = !DIBasicType(name: "char", size: 8, encoding: DW_ATE_signed_char)
!6 = !{!7, !15, !19, !26, !30, !35, !37, !44, !48, !52, !66, !70, !74, !78, !82, !86, !90, !94, !98, !102, !110, !114, !118, !120, !124, !128, !133, !139, !143, !147, !149, !157, !161, !169, !171, !175, !179, !183, !187, !192, !197, !202, !203, !204, !205, !207, !208, !209, !210, !211, !212, !213, !218}
!7 = !DIImportedEntity(tag: DW_TAG_imported_declaration, scope: !8, entity: !9, file: !14, line: 52)
!8 = !DINamespace(name: "std", scope: null)
!9 = !DISubprogram(name: "abs", scope: !10, file: !10, line: 840, type: !11, flags: DIFlagPrototyped, spFlags: 0)
!10 = !DIFile(filename: "/usr/include/stdlib.h", directory: "")
!11 = !DISubroutineType(types: !12)
!12 = !{!13, !13}
!13 = !DIBasicType(name: "int", size: 32, encoding: DW_ATE_signed)
!14 = !DIFile(filename: "/usr/lib/gcc/x86_64-linux-gnu/10/../../../../include/c++/10/bits/std_abs.h", directory: "")
!15 = !DIImportedEntity(tag: DW_TAG_imported_declaration, scope: !8, entity: !16, file: !18, line: 127)
!16 = !DIDerivedType(tag: DW_TAG_typedef, name: "div_t", file: !10, line: 62, baseType: !17)
!17 = !DICompositeType(tag: DW_TAG_structure_type, file: !10, line: 58, flags: DIFlagFwdDecl, identifier: "_ZTS5div_t")
!18 = !DIFile(filename: "/usr/lib/gcc/x86_64-linux-gnu/10/../../../../include/c++/10/cstdlib", directory: "")
!19 = !DIImportedEntity(tag: DW_TAG_imported_declaration, scope: !8, entity: !20, file: !18, line: 128)
!20 = !DIDerivedType(tag: DW_TAG_typedef, name: "ldiv_t", file: !10, line: 70, baseType: !21)
!21 = distinct !DICompositeType(tag: DW_TAG_structure_type, file: !10, line: 66, size: 128, flags: DIFlagTypePassByValue, elements: !22, identifier: "_ZTS6ldiv_t")
!22 = !{!23, !25}
!23 = !DIDerivedType(tag: DW_TAG_member, name: "quot", scope: !21, file: !10, line: 68, baseType: !24, size: 64)
!24 = !DIBasicType(name: "long int", size: 64, encoding: DW_ATE_signed)
!25 = !DIDerivedType(tag: DW_TAG_member, name: "rem", scope: !21, file: !10, line: 69, baseType: !24, size: 64, offset: 64)
!26 = !DIImportedEntity(tag: DW_TAG_imported_declaration, scope: !8, entity: !27, file: !18, line: 130)
!27 = !DISubprogram(name: "abort", scope: !10, file: !10, line: 591, type: !28, flags: DIFlagPrototyped | DIFlagNoReturn, spFlags: 0)
!28 = !DISubroutineType(types: !29)
!29 = !{null}
!30 = !DIImportedEntity(tag: DW_TAG_imported_declaration, scope: !8, entity: !31, file: !18, line: 134)
!31 = !DISubprogram(name: "atexit", scope: !10, file: !10, line: 595, type: !32, flags: DIFlagPrototyped, spFlags: 0)
!32 = !DISubroutineType(types: !33)
!33 = !{!13, !34}
!34 = !DIDerivedType(tag: DW_TAG_pointer_type, baseType: !28, size: 64)
!35 = !DIImportedEntity(tag: DW_TAG_imported_declaration, scope: !8, entity: !36, file: !18, line: 137)
!36 = !DISubprogram(name: "at_quick_exit", scope: !10, file: !10, line: 600, type: !32, flags: DIFlagPrototyped, spFlags: 0)
!37 = !DIImportedEntity(tag: DW_TAG_imported_declaration, scope: !8, entity: !38, file: !18, line: 140)
!38 = !DISubprogram(name: "atof", scope: !10, file: !10, line: 101, type: !39, flags: DIFlagPrototyped, spFlags: 0)
!39 = !DISubroutineType(types: !40)
!40 = !{!41, !42}
!41 = !DIBasicType(name: "double", size: 64, encoding: DW_ATE_float)
!42 = !DIDerivedType(tag: DW_TAG_pointer_type, baseType: !43, size: 64)
!43 = !DIDerivedType(tag: DW_TAG_const_type, baseType: !5)
!44 = !DIImportedEntity(tag: DW_TAG_imported_declaration, scope: !8, entity: !45, file: !18, line: 141)
!45 = !DISubprogram(name: "atoi", scope: !10, file: !10, line: 104, type: !46, flags: DIFlagPrototyped, spFlags: 0)
!46 = !DISubroutineType(types: !47)
!47 = !{!13, !42}
!48 = !DIImportedEntity(tag: DW_TAG_imported_declaration, scope: !8, entity: !49, file: !18, line: 142)
!49 = !DISubprogram(name: "atol", scope: !10, file: !10, line: 107, type: !50, flags: DIFlagPrototyped, spFlags: 0)
!50 = !DISubroutineType(types: !51)
!51 = !{!24, !42}
!52 = !DIImportedEntity(tag: DW_TAG_imported_declaration, scope: !8, entity: !53, file: !18, line: 143)
!53 = !DISubprogram(name: "bsearch", scope: !10, file: !10, line: 820, type: !54, flags: DIFlagPrototyped, spFlags: 0)
!54 = !DISubroutineType(types: !55)
!55 = !{!56, !57, !57, !59, !59, !62}
!56 = !DIDerivedType(tag: DW_TAG_pointer_type, baseType: null, size: 64)
!57 = !DIDerivedType(tag: DW_TAG_pointer_type, baseType: !58, size: 64)
!58 = !DIDerivedType(tag: DW_TAG_const_type, baseType: null)
!59 = !DIDerivedType(tag: DW_TAG_typedef, name: "size_t", file: !60, line: 46, baseType: !61)
!60 = !DIFile(filename: "Rohit/IR2Vec-LoopOptimizationFramework/build_REL_AsrtON/lib/clang/10.0.1/include/stddef.h", directory: "/home/venkat/IF-DV")
!61 = !DIBasicType(name: "long unsigned int", size: 64, encoding: DW_ATE_unsigned)
!62 = !DIDerivedType(tag: DW_TAG_typedef, name: "__compar_fn_t", file: !10, line: 808, baseType: !63)
!63 = !DIDerivedType(tag: DW_TAG_pointer_type, baseType: !64, size: 64)
!64 = !DISubroutineType(types: !65)
!65 = !{!13, !57, !57}
!66 = !DIImportedEntity(tag: DW_TAG_imported_declaration, scope: !8, entity: !67, file: !18, line: 144)
!67 = !DISubprogram(name: "calloc", scope: !10, file: !10, line: 542, type: !68, flags: DIFlagPrototyped, spFlags: 0)
!68 = !DISubroutineType(types: !69)
!69 = !{!56, !59, !59}
!70 = !DIImportedEntity(tag: DW_TAG_imported_declaration, scope: !8, entity: !71, file: !18, line: 145)
!71 = !DISubprogram(name: "div", scope: !10, file: !10, line: 852, type: !72, flags: DIFlagPrototyped, spFlags: 0)
!72 = !DISubroutineType(types: !73)
!73 = !{!16, !13, !13}
!74 = !DIImportedEntity(tag: DW_TAG_imported_declaration, scope: !8, entity: !75, file: !18, line: 146)
!75 = !DISubprogram(name: "exit", scope: !10, file: !10, line: 617, type: !76, flags: DIFlagPrototyped | DIFlagNoReturn, spFlags: 0)
!76 = !DISubroutineType(types: !77)
!77 = !{null, !13}
!78 = !DIImportedEntity(tag: DW_TAG_imported_declaration, scope: !8, entity: !79, file: !18, line: 147)
!79 = !DISubprogram(name: "free", scope: !10, file: !10, line: 565, type: !80, flags: DIFlagPrototyped, spFlags: 0)
!80 = !DISubroutineType(types: !81)
!81 = !{null, !56}
!82 = !DIImportedEntity(tag: DW_TAG_imported_declaration, scope: !8, entity: !83, file: !18, line: 148)
!83 = !DISubprogram(name: "getenv", scope: !10, file: !10, line: 634, type: !84, flags: DIFlagPrototyped, spFlags: 0)
!84 = !DISubroutineType(types: !85)
!85 = !{!4, !42}
!86 = !DIImportedEntity(tag: DW_TAG_imported_declaration, scope: !8, entity: !87, file: !18, line: 149)
!87 = !DISubprogram(name: "labs", scope: !10, file: !10, line: 841, type: !88, flags: DIFlagPrototyped, spFlags: 0)
!88 = !DISubroutineType(types: !89)
!89 = !{!24, !24}
!90 = !DIImportedEntity(tag: DW_TAG_imported_declaration, scope: !8, entity: !91, file: !18, line: 150)
!91 = !DISubprogram(name: "ldiv", scope: !10, file: !10, line: 854, type: !92, flags: DIFlagPrototyped, spFlags: 0)
!92 = !DISubroutineType(types: !93)
!93 = !{!20, !24, !24}
!94 = !DIImportedEntity(tag: DW_TAG_imported_declaration, scope: !8, entity: !95, file: !18, line: 151)
!95 = !DISubprogram(name: "malloc", scope: !10, file: !10, line: 539, type: !96, flags: DIFlagPrototyped, spFlags: 0)
!96 = !DISubroutineType(types: !97)
!97 = !{!56, !59}
!98 = !DIImportedEntity(tag: DW_TAG_imported_declaration, scope: !8, entity: !99, file: !18, line: 153)
!99 = !DISubprogram(name: "mblen", scope: !10, file: !10, line: 922, type: !100, flags: DIFlagPrototyped, spFlags: 0)
!100 = !DISubroutineType(types: !101)
!101 = !{!13, !42, !59}
!102 = !DIImportedEntity(tag: DW_TAG_imported_declaration, scope: !8, entity: !103, file: !18, line: 154)
!103 = !DISubprogram(name: "mbstowcs", scope: !10, file: !10, line: 933, type: !104, flags: DIFlagPrototyped, spFlags: 0)
!104 = !DISubroutineType(types: !105)
!105 = !{!59, !106, !109, !59}
!106 = !DIDerivedType(tag: DW_TAG_restrict_type, baseType: !107)
!107 = !DIDerivedType(tag: DW_TAG_pointer_type, baseType: !108, size: 64)
!108 = !DIBasicType(name: "wchar_t", size: 32, encoding: DW_ATE_signed)
!109 = !DIDerivedType(tag: DW_TAG_restrict_type, baseType: !42)
!110 = !DIImportedEntity(tag: DW_TAG_imported_declaration, scope: !8, entity: !111, file: !18, line: 155)
!111 = !DISubprogram(name: "mbtowc", scope: !10, file: !10, line: 925, type: !112, flags: DIFlagPrototyped, spFlags: 0)
!112 = !DISubroutineType(types: !113)
!113 = !{!13, !106, !109, !59}
!114 = !DIImportedEntity(tag: DW_TAG_imported_declaration, scope: !8, entity: !115, file: !18, line: 157)
!115 = !DISubprogram(name: "qsort", scope: !10, file: !10, line: 830, type: !116, flags: DIFlagPrototyped, spFlags: 0)
!116 = !DISubroutineType(types: !117)
!117 = !{null, !56, !59, !59, !62}
!118 = !DIImportedEntity(tag: DW_TAG_imported_declaration, scope: !8, entity: !119, file: !18, line: 160)
!119 = !DISubprogram(name: "quick_exit", scope: !10, file: !10, line: 623, type: !76, flags: DIFlagPrototyped | DIFlagNoReturn, spFlags: 0)
!120 = !DIImportedEntity(tag: DW_TAG_imported_declaration, scope: !8, entity: !121, file: !18, line: 163)
!121 = !DISubprogram(name: "rand", scope: !10, file: !10, line: 453, type: !122, flags: DIFlagPrototyped, spFlags: 0)
!122 = !DISubroutineType(types: !123)
!123 = !{!13}
!124 = !DIImportedEntity(tag: DW_TAG_imported_declaration, scope: !8, entity: !125, file: !18, line: 164)
!125 = !DISubprogram(name: "realloc", scope: !10, file: !10, line: 550, type: !126, flags: DIFlagPrototyped, spFlags: 0)
!126 = !DISubroutineType(types: !127)
!127 = !{!56, !56, !59}
!128 = !DIImportedEntity(tag: DW_TAG_imported_declaration, scope: !8, entity: !129, file: !18, line: 165)
!129 = !DISubprogram(name: "srand", scope: !10, file: !10, line: 455, type: !130, flags: DIFlagPrototyped, spFlags: 0)
!130 = !DISubroutineType(types: !131)
!131 = !{null, !132}
!132 = !DIBasicType(name: "unsigned int", size: 32, encoding: DW_ATE_unsigned)
!133 = !DIImportedEntity(tag: DW_TAG_imported_declaration, scope: !8, entity: !134, file: !18, line: 166)
!134 = !DISubprogram(name: "strtod", scope: !10, file: !10, line: 117, type: !135, flags: DIFlagPrototyped, spFlags: 0)
!135 = !DISubroutineType(types: !136)
!136 = !{!41, !109, !137}
!137 = !DIDerivedType(tag: DW_TAG_restrict_type, baseType: !138)
!138 = !DIDerivedType(tag: DW_TAG_pointer_type, baseType: !4, size: 64)
!139 = !DIImportedEntity(tag: DW_TAG_imported_declaration, scope: !8, entity: !140, file: !18, line: 167)
!140 = !DISubprogram(name: "strtol", scope: !10, file: !10, line: 176, type: !141, flags: DIFlagPrototyped, spFlags: 0)
!141 = !DISubroutineType(types: !142)
!142 = !{!24, !109, !137, !13}
!143 = !DIImportedEntity(tag: DW_TAG_imported_declaration, scope: !8, entity: !144, file: !18, line: 168)
!144 = !DISubprogram(name: "strtoul", scope: !10, file: !10, line: 180, type: !145, flags: DIFlagPrototyped, spFlags: 0)
!145 = !DISubroutineType(types: !146)
!146 = !{!61, !109, !137, !13}
!147 = !DIImportedEntity(tag: DW_TAG_imported_declaration, scope: !8, entity: !148, file: !18, line: 169)
!148 = !DISubprogram(name: "system", scope: !10, file: !10, line: 784, type: !46, flags: DIFlagPrototyped, spFlags: 0)
!149 = !DIImportedEntity(tag: DW_TAG_imported_declaration, scope: !8, entity: !150, file: !18, line: 171)
!150 = !DISubprogram(name: "wcstombs", scope: !10, file: !10, line: 936, type: !151, flags: DIFlagPrototyped, spFlags: 0)
!151 = !DISubroutineType(types: !152)
!152 = !{!59, !153, !154, !59}
!153 = !DIDerivedType(tag: DW_TAG_restrict_type, baseType: !4)
!154 = !DIDerivedType(tag: DW_TAG_restrict_type, baseType: !155)
!155 = !DIDerivedType(tag: DW_TAG_pointer_type, baseType: !156, size: 64)
!156 = !DIDerivedType(tag: DW_TAG_const_type, baseType: !108)
!157 = !DIImportedEntity(tag: DW_TAG_imported_declaration, scope: !8, entity: !158, file: !18, line: 172)
!158 = !DISubprogram(name: "wctomb", scope: !10, file: !10, line: 929, type: !159, flags: DIFlagPrototyped, spFlags: 0)
!159 = !DISubroutineType(types: !160)
!160 = !{!13, !4, !108}
!161 = !DIImportedEntity(tag: DW_TAG_imported_declaration, scope: !162, entity: !163, file: !18, line: 200)
!162 = !DINamespace(name: "__gnu_cxx", scope: null)
!163 = !DIDerivedType(tag: DW_TAG_typedef, name: "lldiv_t", file: !10, line: 80, baseType: !164)
!164 = distinct !DICompositeType(tag: DW_TAG_structure_type, file: !10, line: 76, size: 128, flags: DIFlagTypePassByValue, elements: !165, identifier: "_ZTS7lldiv_t")
!165 = !{!166, !168}
!166 = !DIDerivedType(tag: DW_TAG_member, name: "quot", scope: !164, file: !10, line: 78, baseType: !167, size: 64)
!167 = !DIBasicType(name: "long long int", size: 64, encoding: DW_ATE_signed)
!168 = !DIDerivedType(tag: DW_TAG_member, name: "rem", scope: !164, file: !10, line: 79, baseType: !167, size: 64, offset: 64)
!169 = !DIImportedEntity(tag: DW_TAG_imported_declaration, scope: !162, entity: !170, file: !18, line: 206)
!170 = !DISubprogram(name: "_Exit", scope: !10, file: !10, line: 629, type: !76, flags: DIFlagPrototyped | DIFlagNoReturn, spFlags: 0)
!171 = !DIImportedEntity(tag: DW_TAG_imported_declaration, scope: !162, entity: !172, file: !18, line: 210)
!172 = !DISubprogram(name: "llabs", scope: !10, file: !10, line: 844, type: !173, flags: DIFlagPrototyped, spFlags: 0)
!173 = !DISubroutineType(types: !174)
!174 = !{!167, !167}
!175 = !DIImportedEntity(tag: DW_TAG_imported_declaration, scope: !162, entity: !176, file: !18, line: 216)
!176 = !DISubprogram(name: "lldiv", scope: !10, file: !10, line: 858, type: !177, flags: DIFlagPrototyped, spFlags: 0)
!177 = !DISubroutineType(types: !178)
!178 = !{!163, !167, !167}
!179 = !DIImportedEntity(tag: DW_TAG_imported_declaration, scope: !162, entity: !180, file: !18, line: 227)
!180 = !DISubprogram(name: "atoll", scope: !10, file: !10, line: 112, type: !181, flags: DIFlagPrototyped, spFlags: 0)
!181 = !DISubroutineType(types: !182)
!182 = !{!167, !42}
!183 = !DIImportedEntity(tag: DW_TAG_imported_declaration, scope: !162, entity: !184, file: !18, line: 228)
!184 = !DISubprogram(name: "strtoll", scope: !10, file: !10, line: 200, type: !185, flags: DIFlagPrototyped, spFlags: 0)
!185 = !DISubroutineType(types: !186)
!186 = !{!167, !109, !137, !13}
!187 = !DIImportedEntity(tag: DW_TAG_imported_declaration, scope: !162, entity: !188, file: !18, line: 229)
!188 = !DISubprogram(name: "strtoull", scope: !10, file: !10, line: 205, type: !189, flags: DIFlagPrototyped, spFlags: 0)
!189 = !DISubroutineType(types: !190)
!190 = !{!191, !109, !137, !13}
!191 = !DIBasicType(name: "long long unsigned int", size: 64, encoding: DW_ATE_unsigned)
!192 = !DIImportedEntity(tag: DW_TAG_imported_declaration, scope: !162, entity: !193, file: !18, line: 231)
!193 = !DISubprogram(name: "strtof", scope: !10, file: !10, line: 123, type: !194, flags: DIFlagPrototyped, spFlags: 0)
!194 = !DISubroutineType(types: !195)
!195 = !{!196, !109, !137}
!196 = !DIBasicType(name: "float", size: 32, encoding: DW_ATE_float)
!197 = !DIImportedEntity(tag: DW_TAG_imported_declaration, scope: !162, entity: !198, file: !18, line: 232)
!198 = !DISubprogram(name: "strtold", scope: !10, file: !10, line: 126, type: !199, flags: DIFlagPrototyped, spFlags: 0)
!199 = !DISubroutineType(types: !200)
!200 = !{!201, !109, !137}
!201 = !DIBasicType(name: "long double", size: 128, encoding: DW_ATE_float)
!202 = !DIImportedEntity(tag: DW_TAG_imported_declaration, scope: !8, entity: !163, file: !18, line: 240)
!203 = !DIImportedEntity(tag: DW_TAG_imported_declaration, scope: !8, entity: !170, file: !18, line: 242)
!204 = !DIImportedEntity(tag: DW_TAG_imported_declaration, scope: !8, entity: !172, file: !18, line: 244)
!205 = !DIImportedEntity(tag: DW_TAG_imported_declaration, scope: !8, entity: !206, file: !18, line: 245)
!206 = !DISubprogram(name: "div", linkageName: "_ZN9__gnu_cxx3divExx", scope: !162, file: !18, line: 213, type: !177, flags: DIFlagPrototyped, spFlags: 0)
!207 = !DIImportedEntity(tag: DW_TAG_imported_declaration, scope: !8, entity: !176, file: !18, line: 246)
!208 = !DIImportedEntity(tag: DW_TAG_imported_declaration, scope: !8, entity: !180, file: !18, line: 248)
!209 = !DIImportedEntity(tag: DW_TAG_imported_declaration, scope: !8, entity: !193, file: !18, line: 249)
!210 = !DIImportedEntity(tag: DW_TAG_imported_declaration, scope: !8, entity: !184, file: !18, line: 250)
!211 = !DIImportedEntity(tag: DW_TAG_imported_declaration, scope: !8, entity: !188, file: !18, line: 251)
!212 = !DIImportedEntity(tag: DW_TAG_imported_declaration, scope: !8, entity: !198, file: !18, line: 252)
!213 = !DIImportedEntity(tag: DW_TAG_imported_declaration, scope: !8, entity: !214, file: !217, line: 58)
!214 = !DIDerivedType(tag: DW_TAG_typedef, name: "max_align_t", file: !215, line: 24, baseType: !216)
!215 = !DIFile(filename: "Rohit/IR2Vec-LoopOptimizationFramework/build_REL_AsrtON/lib/clang/10.0.1/include/__stddef_max_align_t.h", directory: "/home/venkat/IF-DV")
!216 = !DICompositeType(tag: DW_TAG_structure_type, file: !215, line: 19, flags: DIFlagFwdDecl, identifier: "_ZTS11max_align_t")
!217 = !DIFile(filename: "/usr/lib/gcc/x86_64-linux-gnu/10/../../../../include/c++/10/cstddef", directory: "")
!218 = !DIImportedEntity(tag: DW_TAG_imported_module, scope: !0, entity: !8, file: !219, line: 6)
!219 = !DIFile(filename: "simulator/spec_qsort.h", directory: "/home/venkat/IF-DV/spec_build_release/CPU_2017/benchspec/CPU/520.omnetpp_r/build/build_base_ld-loop-ext-m64.0000")
!220 = !{i32 7, !"Dwarf Version", i32 4}
!221 = !{i32 2, !"Debug Info Version", i32 3}
!222 = !{i32 1, !"wchar_size", i32 4}
!223 = !{!"clang version 10.0.1 (https://github.com/svkeerthy/IR2Vec-LoopOptimizationFramework.git 561ac470e63b728263a0ac06ef987886ac648486)"}
!224 = distinct !DISubprogram(name: "spec_qsort", linkageName: "_Z10spec_qsortPvmmPFiPKvS1_E", scope: !1, file: !1, line: 52, type: !225, scopeLine: 52, flags: DIFlagPrototyped, spFlags: DISPFlagDefinition, unit: !0, retainedNodes: !2)
!225 = !DISubroutineType(types: !226)
!226 = !{null, !56, !59, !59, !63}
!227 = !DILocalVariable(name: "array", arg: 1, scope: !224, file: !1, line: 52, type: !56)
!228 = !DILocation(line: 52, column: 23, scope: !224)
!229 = !DILocalVariable(name: "nitems", arg: 2, scope: !224, file: !1, line: 52, type: !59)
!230 = !DILocation(line: 52, column: 37, scope: !224)
!231 = !DILocalVariable(name: "size", arg: 3, scope: !224, file: !1, line: 52, type: !59)
!232 = !DILocation(line: 52, column: 52, scope: !224)
!233 = !DILocalVariable(name: "cmp", arg: 4, scope: !224, file: !1, line: 52, type: !63)
!234 = !DILocation(line: 52, column: 64, scope: !224)
!235 = !DILocation(line: 53, column: 22, scope: !224)
!236 = !DILocation(line: 53, column: 29, scope: !224)
!237 = !DILocation(line: 53, column: 39, scope: !224)
!238 = !DILocation(line: 53, column: 45, scope: !224)
!239 = !DILocation(line: 53, column: 49, scope: !224)
!240 = !DILocation(line: 53, column: 48, scope: !224)
!241 = !DILocation(line: 53, column: 38, scope: !224)
!242 = !DILocation(line: 53, column: 55, scope: !224)
!243 = !DILocation(line: 53, column: 4, scope: !224)
!244 = !DILocation(line: 54, column: 1, scope: !224)
!245 = distinct !DISubprogram(name: "spec_sort", linkageName: "_ZL9spec_sortPcmiiPFiPKvS1_E", scope: !1, file: !1, line: 30, type: !246, scopeLine: 30, flags: DIFlagPrototyped, spFlags: DISPFlagLocalToUnit | DISPFlagDefinition, unit: !0, retainedNodes: !2)
!246 = !DISubroutineType(types: !247)
!247 = !{null, !4, !59, !13, !13, !63}
!248 = !DILocalVariable(name: "array", arg: 1, scope: !245, file: !1, line: 30, type: !4)
!249 = !DILocation(line: 30, column: 29, scope: !245)
!250 = !DILocalVariable(name: "size", arg: 2, scope: !245, file: !1, line: 30, type: !59)
!251 = !DILocation(line: 30, column: 43, scope: !245)
!252 = !DILocalVariable(name: "begin", arg: 3, scope: !245, file: !1, line: 30, type: !13)
!253 = !DILocation(line: 30, column: 53, scope: !245)
!254 = !DILocalVariable(name: "end", arg: 4, scope: !245, file: !1, line: 30, type: !13)
!255 = !DILocation(line: 30, column: 64, scope: !245)
!256 = !DILocalVariable(name: "cmp", arg: 5, scope: !245, file: !1, line: 30, type: !63)
!257 = !DILocation(line: 30, column: 75, scope: !245)
!258 = !DILocation(line: 32, column: 8, scope: !259)
!259 = distinct !DILexicalBlock(scope: !245, file: !1, line: 32, column: 8)
!260 = !DILocation(line: 32, column: 14, scope: !259)
!261 = !DILocation(line: 32, column: 12, scope: !259)
!262 = !DILocation(line: 32, column: 8, scope: !245)
!263 = !DILocalVariable(name: "pivot", scope: !264, file: !1, line: 33, type: !56)
!264 = distinct !DILexicalBlock(scope: !259, file: !1, line: 32, column: 21)
!265 = !DILocation(line: 33, column: 13, scope: !264)
!266 = !DILocation(line: 33, column: 21, scope: !264)
!267 = !DILocation(line: 33, column: 29, scope: !264)
!268 = !DILocation(line: 33, column: 27, scope: !264)
!269 = !DILocalVariable(name: "l", scope: !264, file: !1, line: 34, type: !13)
!270 = !DILocation(line: 34, column: 11, scope: !264)
!271 = !DILocation(line: 34, column: 15, scope: !264)
!272 = !DILocation(line: 34, column: 23, scope: !264)
!273 = !DILocation(line: 34, column: 21, scope: !264)
!274 = !DILocalVariable(name: "r", scope: !264, file: !1, line: 35, type: !13)
!275 = !DILocation(line: 35, column: 11, scope: !264)
!276 = !DILocation(line: 35, column: 15, scope: !264)
!277 = !DILocation(line: 36, column: 7, scope: !264)
!278 = !DILocation(line: 36, column: 13, scope: !264)
!279 = !DILocation(line: 36, column: 17, scope: !264)
!280 = !DILocation(line: 36, column: 15, scope: !264)
!281 = !DILocation(line: 37, column: 14, scope: !282)
!282 = distinct !DILexicalBlock(scope: !283, file: !1, line: 37, column: 14)
!283 = distinct !DILexicalBlock(scope: !264, file: !1, line: 36, column: 20)
!284 = !DILocation(line: 37, column: 18, scope: !282)
!285 = !DILocation(line: 37, column: 24, scope: !282)
!286 = !DILocation(line: 37, column: 23, scope: !282)
!287 = !DILocation(line: 37, column: 26, scope: !282)
!288 = !DILocation(line: 37, column: 33, scope: !282)
!289 = !DILocation(line: 37, column: 14, scope: !283)
!290 = !DILocation(line: 38, column: 18, scope: !291)
!291 = distinct !DILexicalBlock(scope: !282, file: !1, line: 37, column: 39)
!292 = !DILocation(line: 38, column: 15, scope: !291)
!293 = !DILocation(line: 39, column: 10, scope: !291)
!294 = !DILocation(line: 40, column: 18, scope: !295)
!295 = distinct !DILexicalBlock(scope: !282, file: !1, line: 39, column: 17)
!296 = !DILocation(line: 40, column: 15, scope: !295)
!297 = !DILocation(line: 41, column: 23, scope: !295)
!298 = !DILocation(line: 41, column: 29, scope: !295)
!299 = !DILocation(line: 41, column: 28, scope: !295)
!300 = !DILocation(line: 41, column: 32, scope: !295)
!301 = !DILocation(line: 41, column: 38, scope: !295)
!302 = !DILocation(line: 41, column: 37, scope: !295)
!303 = !DILocation(line: 41, column: 41, scope: !295)
!304 = !DILocation(line: 41, column: 13, scope: !295)
!305 = distinct !{!305, !277, !306}
!306 = !DILocation(line: 43, column: 7, scope: !264)
!307 = !DILocation(line: 44, column: 12, scope: !264)
!308 = !DILocation(line: 44, column: 9, scope: !264)
!309 = !DILocation(line: 45, column: 17, scope: !264)
!310 = !DILocation(line: 45, column: 23, scope: !264)
!311 = !DILocation(line: 45, column: 22, scope: !264)
!312 = !DILocation(line: 45, column: 30, scope: !264)
!313 = !DILocation(line: 45, column: 36, scope: !264)
!314 = !DILocation(line: 45, column: 35, scope: !264)
!315 = !DILocation(line: 45, column: 39, scope: !264)
!316 = !DILocation(line: 45, column: 7, scope: !264)
!317 = !DILocation(line: 46, column: 17, scope: !264)
!318 = !DILocation(line: 46, column: 24, scope: !264)
!319 = !DILocation(line: 46, column: 30, scope: !264)
!320 = !DILocation(line: 46, column: 37, scope: !264)
!321 = !DILocation(line: 46, column: 40, scope: !264)
!322 = !DILocation(line: 46, column: 7, scope: !264)
!323 = !DILocation(line: 47, column: 17, scope: !264)
!324 = !DILocation(line: 47, column: 24, scope: !264)
!325 = !DILocation(line: 47, column: 30, scope: !264)
!326 = !DILocation(line: 47, column: 33, scope: !264)
!327 = !DILocation(line: 47, column: 38, scope: !264)
!328 = !DILocation(line: 47, column: 7, scope: !264)
!329 = !DILocation(line: 48, column: 4, scope: !264)
!330 = !DILocation(line: 49, column: 1, scope: !245)
!331 = distinct !DISubprogram(name: "spec_swap", linkageName: "_ZL9spec_swapPvS_m", scope: !1, file: !1, line: 18, type: !332, scopeLine: 18, flags: DIFlagPrototyped, spFlags: DISPFlagLocalToUnit | DISPFlagDefinition, unit: !0, retainedNodes: !2)
!332 = !DISubroutineType(types: !333)
!333 = !{null, !56, !56, !59}
!334 = !DILocalVariable(name: "x", arg: 1, scope: !331, file: !1, line: 18, type: !56)
!335 = !DILocation(line: 18, column: 29, scope: !331)
!336 = !DILocalVariable(name: "y", arg: 2, scope: !331, file: !1, line: 18, type: !56)
!337 = !DILocation(line: 18, column: 38, scope: !331)
!338 = !DILocalVariable(name: "l", arg: 3, scope: !331, file: !1, line: 18, type: !59)
!339 = !DILocation(line: 18, column: 48, scope: !331)
!340 = !DILocalVariable(name: "a", scope: !331, file: !1, line: 21, type: !4)
!341 = !DILocation(line: 21, column: 10, scope: !331)
!342 = !DILocation(line: 21, column: 22, scope: !331)
!343 = !DILocalVariable(name: "b", scope: !331, file: !1, line: 21, type: !4)
!344 = !DILocation(line: 21, column: 26, scope: !331)
!345 = !DILocation(line: 21, column: 38, scope: !331)
!346 = !DILocalVariable(name: "c", scope: !331, file: !1, line: 21, type: !5)
!347 = !DILocation(line: 21, column: 41, scope: !331)
!348 = !DILocation(line: 22, column: 4, scope: !331)
!349 = !DILocation(line: 22, column: 11, scope: !331)
!350 = !DILocation(line: 22, column: 10, scope: !331)
!351 = !DILocation(line: 23, column: 12, scope: !352)
!352 = distinct !DILexicalBlock(scope: !331, file: !1, line: 22, column: 15)
!353 = !DILocation(line: 23, column: 11, scope: !352)
!354 = !DILocation(line: 23, column: 9, scope: !352)
!355 = !DILocation(line: 24, column: 15, scope: !352)
!356 = !DILocation(line: 24, column: 14, scope: !352)
!357 = !DILocation(line: 24, column: 9, scope: !352)
!358 = !DILocation(line: 24, column: 12, scope: !352)
!359 = !DILocation(line: 25, column: 14, scope: !352)
!360 = !DILocation(line: 25, column: 9, scope: !352)
!361 = !DILocation(line: 25, column: 12, scope: !352)
!362 = distinct !{!362, !348, !363}
!363 = !DILocation(line: 26, column: 4, scope: !331)
!364 = !DILocation(line: 27, column: 1, scope: !331)
