; ModuleID = 'simulator/stringtokenizer.cc'
source_filename = "simulator/stringtokenizer.cc"
target datalayout = "e-m:e-p270:32:32-p271:32:32-p272:64:64-i64:64-f80:128-n8:16:32:64-S128"
target triple = "x86_64-unknown-linux-gnu"

%class.StringTokenizer = type { i8*, i8*, %"class.std::__cxx11::basic_string" }
%"class.std::__cxx11::basic_string" = type { %"struct.std::__cxx11::basic_string<char, std::char_traits<char>, std::allocator<char> >::_Alloc_hider", i64, %union.anon }
%"struct.std::__cxx11::basic_string<char, std::char_traits<char>, std::allocator<char> >::_Alloc_hider" = type { i8* }
%union.anon = type { i64, [8 x i8] }
%"class.std::vector" = type { %"struct.std::_Vector_base" }
%"struct.std::_Vector_base" = type { %"struct.std::_Vector_base<std::__cxx11::basic_string<char>, std::allocator<std::__cxx11::basic_string<char> > >::_Vector_impl" }
%"struct.std::_Vector_base<std::__cxx11::basic_string<char>, std::allocator<std::__cxx11::basic_string<char> > >::_Vector_impl" = type { %"struct.std::_Vector_base<std::__cxx11::basic_string<char>, std::allocator<std::__cxx11::basic_string<char> > >::_Vector_impl_data" }
%"struct.std::_Vector_base<std::__cxx11::basic_string<char>, std::allocator<std::__cxx11::basic_string<char> > >::_Vector_impl_data" = type { %"class.std::__cxx11::basic_string"*, %"class.std::__cxx11::basic_string"*, %"class.std::__cxx11::basic_string"* }
%"class.std::allocator" = type { i8 }
%"class.std::allocator.0" = type { i8 }
%"class.__gnu_cxx::new_allocator.1" = type { i8 }
%"class.__gnu_cxx::__normal_iterator" = type { %"class.std::__cxx11::basic_string"* }
%"struct.std::integral_constant" = type { i8 }

$_Z14skipDelimitersRPcPKc = comdat any

$_Z9skipTokenRPcPKc = comdat any

$_ZNSt6vectorINSt7__cxx1112basic_stringIcSt11char_traitsIcESaIcEEESaIS5_EEC2Ev = comdat any

$_ZNSt6vectorINSt7__cxx1112basic_stringIcSt11char_traitsIcESaIcEEESaIS5_EE9push_backEOS5_ = comdat any

$_ZNSt6vectorINSt7__cxx1112basic_stringIcSt11char_traitsIcESaIcEEESaIS5_EED2Ev = comdat any

$_ZNSt12_Vector_baseINSt7__cxx1112basic_stringIcSt11char_traitsIcESaIcEEESaIS5_EEC2Ev = comdat any

$_ZNSt12_Vector_baseINSt7__cxx1112basic_stringIcSt11char_traitsIcESaIcEEESaIS5_EE12_Vector_implC2Ev = comdat any

$_ZNSaINSt7__cxx1112basic_stringIcSt11char_traitsIcESaIcEEEEC2Ev = comdat any

$_ZNSt12_Vector_baseINSt7__cxx1112basic_stringIcSt11char_traitsIcESaIcEEESaIS5_EE17_Vector_impl_dataC2Ev = comdat any

$_ZN9__gnu_cxx13new_allocatorINSt7__cxx1112basic_stringIcSt11char_traitsIcESaIcEEEEC2Ev = comdat any

$_ZSt8_DestroyIPNSt7__cxx1112basic_stringIcSt11char_traitsIcESaIcEEES5_EvT_S7_RSaIT0_E = comdat any

$_ZNSt12_Vector_baseINSt7__cxx1112basic_stringIcSt11char_traitsIcESaIcEEESaIS5_EE19_M_get_Tp_allocatorEv = comdat any

$_ZNSt12_Vector_baseINSt7__cxx1112basic_stringIcSt11char_traitsIcESaIcEEESaIS5_EED2Ev = comdat any

$__clang_call_terminate = comdat any

$_ZSt8_DestroyIPNSt7__cxx1112basic_stringIcSt11char_traitsIcESaIcEEEEvT_S7_ = comdat any

$_ZNSt12_Destroy_auxILb0EE9__destroyIPNSt7__cxx1112basic_stringIcSt11char_traitsIcESaIcEEEEEvT_S9_ = comdat any

$_ZSt8_DestroyINSt7__cxx1112basic_stringIcSt11char_traitsIcESaIcEEEEvPT_ = comdat any

$_ZSt11__addressofINSt7__cxx1112basic_stringIcSt11char_traitsIcESaIcEEEEPT_RS6_ = comdat any

$_ZNSt12_Vector_baseINSt7__cxx1112basic_stringIcSt11char_traitsIcESaIcEEESaIS5_EE13_M_deallocateEPS5_m = comdat any

$_ZNSt12_Vector_baseINSt7__cxx1112basic_stringIcSt11char_traitsIcESaIcEEESaIS5_EE12_Vector_implD2Ev = comdat any

$_ZNSt16allocator_traitsISaINSt7__cxx1112basic_stringIcSt11char_traitsIcESaIcEEEEE10deallocateERS6_PS5_m = comdat any

$_ZN9__gnu_cxx13new_allocatorINSt7__cxx1112basic_stringIcSt11char_traitsIcESaIcEEEE10deallocateEPS6_m = comdat any

$_ZNSaINSt7__cxx1112basic_stringIcSt11char_traitsIcESaIcEEEED2Ev = comdat any

$_ZN9__gnu_cxx13new_allocatorINSt7__cxx1112basic_stringIcSt11char_traitsIcESaIcEEEED2Ev = comdat any

$_ZNSt6vectorINSt7__cxx1112basic_stringIcSt11char_traitsIcESaIcEEESaIS5_EE12emplace_backIJS5_EEEvDpOT_ = comdat any

$_ZSt4moveIRNSt7__cxx1112basic_stringIcSt11char_traitsIcESaIcEEEEONSt16remove_referenceIT_E4typeEOS8_ = comdat any

$_ZNSt16allocator_traitsISaINSt7__cxx1112basic_stringIcSt11char_traitsIcESaIcEEEEE9constructIS5_JS5_EEEvRS6_PT_DpOT0_ = comdat any

$_ZSt7forwardINSt7__cxx1112basic_stringIcSt11char_traitsIcESaIcEEEEOT_RNSt16remove_referenceIS6_E4typeE = comdat any

$_ZNSt6vectorINSt7__cxx1112basic_stringIcSt11char_traitsIcESaIcEEESaIS5_EE17_M_realloc_insertIJS5_EEEvN9__gnu_cxx17__normal_iteratorIPS5_S7_EEDpOT_ = comdat any

$_ZNSt6vectorINSt7__cxx1112basic_stringIcSt11char_traitsIcESaIcEEESaIS5_EE3endEv = comdat any

$_ZN9__gnu_cxx13new_allocatorINSt7__cxx1112basic_stringIcSt11char_traitsIcESaIcEEEE9constructIS6_JS6_EEEvPT_DpOT0_ = comdat any

$_ZNKSt6vectorINSt7__cxx1112basic_stringIcSt11char_traitsIcESaIcEEESaIS5_EE12_M_check_lenEmPKc = comdat any

$_ZN9__gnu_cxxmiIPNSt7__cxx1112basic_stringIcSt11char_traitsIcESaIcEEESt6vectorIS6_SaIS6_EEEENS_17__normal_iteratorIT_T0_E15difference_typeERKSE_SH_ = comdat any

$_ZNSt6vectorINSt7__cxx1112basic_stringIcSt11char_traitsIcESaIcEEESaIS5_EE5beginEv = comdat any

$_ZNSt12_Vector_baseINSt7__cxx1112basic_stringIcSt11char_traitsIcESaIcEEESaIS5_EE11_M_allocateEm = comdat any

$_ZNSt6vectorINSt7__cxx1112basic_stringIcSt11char_traitsIcESaIcEEESaIS5_EE11_S_relocateEPS5_S8_S8_RS6_ = comdat any

$_ZNK9__gnu_cxx17__normal_iteratorIPNSt7__cxx1112basic_stringIcSt11char_traitsIcESaIcEEESt6vectorIS6_SaIS6_EEE4baseEv = comdat any

$_ZNKSt6vectorINSt7__cxx1112basic_stringIcSt11char_traitsIcESaIcEEESaIS5_EE8max_sizeEv = comdat any

$_ZNKSt6vectorINSt7__cxx1112basic_stringIcSt11char_traitsIcESaIcEEESaIS5_EE4sizeEv = comdat any

$_ZSt3maxImERKT_S2_S2_ = comdat any

$_ZNSt6vectorINSt7__cxx1112basic_stringIcSt11char_traitsIcESaIcEEESaIS5_EE11_S_max_sizeERKS6_ = comdat any

$_ZNKSt12_Vector_baseINSt7__cxx1112basic_stringIcSt11char_traitsIcESaIcEEESaIS5_EE19_M_get_Tp_allocatorEv = comdat any

$_ZNSt16allocator_traitsISaINSt7__cxx1112basic_stringIcSt11char_traitsIcESaIcEEEEE8max_sizeERKS6_ = comdat any

$_ZSt3minImERKT_S2_S2_ = comdat any

$_ZNK9__gnu_cxx13new_allocatorINSt7__cxx1112basic_stringIcSt11char_traitsIcESaIcEEEE8max_sizeEv = comdat any

$_ZNK9__gnu_cxx13new_allocatorINSt7__cxx1112basic_stringIcSt11char_traitsIcESaIcEEEE11_M_max_sizeEv = comdat any

$_ZN9__gnu_cxx17__normal_iteratorIPNSt7__cxx1112basic_stringIcSt11char_traitsIcESaIcEEESt6vectorIS6_SaIS6_EEEC2ERKS7_ = comdat any

$_ZNSt16allocator_traitsISaINSt7__cxx1112basic_stringIcSt11char_traitsIcESaIcEEEEE8allocateERS6_m = comdat any

$_ZN9__gnu_cxx13new_allocatorINSt7__cxx1112basic_stringIcSt11char_traitsIcESaIcEEEE8allocateEmPKv = comdat any

$_ZNSt6vectorINSt7__cxx1112basic_stringIcSt11char_traitsIcESaIcEEESaIS5_EE14_S_do_relocateEPS5_S8_S8_RS6_St17integral_constantIbLb1EE = comdat any

$_ZSt12__relocate_aIPNSt7__cxx1112basic_stringIcSt11char_traitsIcESaIcEEES6_SaIS5_EET0_T_S9_S8_RT1_ = comdat any

$_ZSt14__relocate_a_1IPNSt7__cxx1112basic_stringIcSt11char_traitsIcESaIcEEES6_SaIS5_EET0_T_S9_S8_RT1_ = comdat any

$_ZSt12__niter_baseIPNSt7__cxx1112basic_stringIcSt11char_traitsIcESaIcEEEET_S7_ = comdat any

$_ZSt19__relocate_object_aINSt7__cxx1112basic_stringIcSt11char_traitsIcESaIcEEES5_SaIS5_EEvPT_PT0_RT1_ = comdat any

$_ZNSt16allocator_traitsISaINSt7__cxx1112basic_stringIcSt11char_traitsIcESaIcEEEEE7destroyIS5_EEvRS6_PT_ = comdat any

$_ZN9__gnu_cxx13new_allocatorINSt7__cxx1112basic_stringIcSt11char_traitsIcESaIcEEEE7destroyIS6_EEvPT_ = comdat any

@.str = private unnamed_addr constant [1 x i8] zeroinitializer, align 1
@.str.1 = private unnamed_addr constant [6 x i8] c" \09\0A\0D\0C\00", align 1
@.str.2 = private unnamed_addr constant [26 x i8] c"vector::_M_realloc_insert\00", align 1

@_ZN15StringTokenizerC1EPKcS1_ = dso_local unnamed_addr alias void (%class.StringTokenizer*, i8*, i8*), void (%class.StringTokenizer*, i8*, i8*)* @_ZN15StringTokenizerC2EPKcS1_
@_ZN15StringTokenizerD1Ev = dso_local unnamed_addr alias void (%class.StringTokenizer*), void (%class.StringTokenizer*)* @_ZN15StringTokenizerD2Ev

; Function Attrs: noinline uwtable
define dso_local void @_ZN15StringTokenizerC2EPKcS1_(%class.StringTokenizer* %this, i8* %s, i8* %delim) unnamed_addr #0 align 2 personality i8* bitcast (i32 (...)* @__gxx_personality_v0 to i8*) !dbg !1420 {
entry:
  %this.addr = alloca %class.StringTokenizer*, align 8
  %s.addr = alloca i8*, align 8
  %delim.addr = alloca i8*, align 8
  %exn.slot = alloca i8*
  %ehselector.slot = alloca i32
  store %class.StringTokenizer* %this, %class.StringTokenizer** %this.addr, align 8
  call void @llvm.dbg.declare(metadata %class.StringTokenizer** %this.addr, metadata !1446, metadata !DIExpression()), !dbg !1448
  store i8* %s, i8** %s.addr, align 8
  call void @llvm.dbg.declare(metadata i8** %s.addr, metadata !1449, metadata !DIExpression()), !dbg !1450
  store i8* %delim, i8** %delim.addr, align 8
  call void @llvm.dbg.declare(metadata i8** %delim.addr, metadata !1451, metadata !DIExpression()), !dbg !1452
  %this1 = load %class.StringTokenizer*, %class.StringTokenizer** %this.addr, align 8
  %delimiter = getelementptr inbounds %class.StringTokenizer, %class.StringTokenizer* %this1, i32 0, i32 2, !dbg !1453
  call void @_ZNSt7__cxx1112basic_stringIcSt11char_traitsIcESaIcEEC1Ev(%"class.std::__cxx11::basic_string"* %delimiter) #10, !dbg !1453
  %0 = load i8*, i8** %s.addr, align 8, !dbg !1454
  %tobool = icmp ne i8* %0, null, !dbg !1454
  br i1 %tobool, label %if.end, label %if.then, !dbg !1457

if.then:                                          ; preds = %entry
  store i8* getelementptr inbounds ([1 x i8], [1 x i8]* @.str, i64 0, i64 0), i8** %s.addr, align 8, !dbg !1458
  br label %if.end, !dbg !1459

if.end:                                           ; preds = %if.then, %entry
  %1 = load i8*, i8** %delim.addr, align 8, !dbg !1460
  %tobool2 = icmp ne i8* %1, null, !dbg !1460
  br i1 %tobool2, label %lor.lhs.false, label %if.then4, !dbg !1462

lor.lhs.false:                                    ; preds = %if.end
  %2 = load i8*, i8** %delim.addr, align 8, !dbg !1463
  %3 = load i8, i8* %2, align 1, !dbg !1464
  %tobool3 = icmp ne i8 %3, 0, !dbg !1464
  br i1 %tobool3, label %if.end5, label %if.then4, !dbg !1465

if.then4:                                         ; preds = %lor.lhs.false, %if.end
  store i8* getelementptr inbounds ([6 x i8], [6 x i8]* @.str.1, i64 0, i64 0), i8** %delim.addr, align 8, !dbg !1466
  br label %if.end5, !dbg !1467

if.end5:                                          ; preds = %if.then4, %lor.lhs.false
  %4 = load i8*, i8** %delim.addr, align 8, !dbg !1468
  %delimiter6 = getelementptr inbounds %class.StringTokenizer, %class.StringTokenizer* %this1, i32 0, i32 2, !dbg !1469
  %call = invoke dereferenceable(32) %"class.std::__cxx11::basic_string"* @_ZNSt7__cxx1112basic_stringIcSt11char_traitsIcESaIcEEaSEPKc(%"class.std::__cxx11::basic_string"* %delimiter6, i8* %4)
          to label %invoke.cont unwind label %lpad, !dbg !1470

invoke.cont:                                      ; preds = %if.end5
  %5 = load i8*, i8** %s.addr, align 8, !dbg !1471
  %call7 = call i64 @strlen(i8* %5) #11, !dbg !1472
  %add = add i64 %call7, 1, !dbg !1473
  %call9 = invoke i8* @_Znam(i64 %add) #12
          to label %invoke.cont8 unwind label %lpad, !dbg !1474

invoke.cont8:                                     ; preds = %invoke.cont
  %str = getelementptr inbounds %class.StringTokenizer, %class.StringTokenizer* %this1, i32 0, i32 0, !dbg !1475
  store i8* %call9, i8** %str, align 8, !dbg !1476
  %str10 = getelementptr inbounds %class.StringTokenizer, %class.StringTokenizer* %this1, i32 0, i32 0, !dbg !1477
  %6 = load i8*, i8** %str10, align 8, !dbg !1477
  %7 = load i8*, i8** %s.addr, align 8, !dbg !1478
  %call11 = call i8* @strcpy(i8* %6, i8* %7) #10, !dbg !1479
  %str12 = getelementptr inbounds %class.StringTokenizer, %class.StringTokenizer* %this1, i32 0, i32 0, !dbg !1480
  %8 = load i8*, i8** %str12, align 8, !dbg !1480
  %rest = getelementptr inbounds %class.StringTokenizer, %class.StringTokenizer* %this1, i32 0, i32 1, !dbg !1481
  store i8* %8, i8** %rest, align 8, !dbg !1482
  ret void, !dbg !1483

lpad:                                             ; preds = %invoke.cont, %if.end5
  %9 = landingpad { i8*, i32 }
          cleanup, !dbg !1484
  %10 = extractvalue { i8*, i32 } %9, 0, !dbg !1484
  store i8* %10, i8** %exn.slot, align 8, !dbg !1484
  %11 = extractvalue { i8*, i32 } %9, 1, !dbg !1484
  store i32 %11, i32* %ehselector.slot, align 4, !dbg !1484
  call void @_ZNSt7__cxx1112basic_stringIcSt11char_traitsIcESaIcEED1Ev(%"class.std::__cxx11::basic_string"* %delimiter) #10, !dbg !1484
  br label %eh.resume, !dbg !1484

eh.resume:                                        ; preds = %lpad
  %exn = load i8*, i8** %exn.slot, align 8, !dbg !1484
  %sel = load i32, i32* %ehselector.slot, align 4, !dbg !1484
  %lpad.val = insertvalue { i8*, i32 } undef, i8* %exn, 0, !dbg !1484
  %lpad.val13 = insertvalue { i8*, i32 } %lpad.val, i32 %sel, 1, !dbg !1484
  resume { i8*, i32 } %lpad.val13, !dbg !1484
}

; Function Attrs: nounwind readnone speculatable willreturn
declare void @llvm.dbg.declare(metadata, metadata, metadata) #1

; Function Attrs: nounwind
declare dso_local void @_ZNSt7__cxx1112basic_stringIcSt11char_traitsIcESaIcEEC1Ev(%"class.std::__cxx11::basic_string"*) unnamed_addr #2

declare dso_local dereferenceable(32) %"class.std::__cxx11::basic_string"* @_ZNSt7__cxx1112basic_stringIcSt11char_traitsIcESaIcEEaSEPKc(%"class.std::__cxx11::basic_string"*, i8*) #3

declare dso_local i32 @__gxx_personality_v0(...)

; Function Attrs: nounwind readonly
declare dso_local i64 @strlen(i8*) #4

; Function Attrs: nobuiltin
declare dso_local noalias i8* @_Znam(i64) #5

; Function Attrs: nounwind
declare dso_local i8* @strcpy(i8*, i8*) #2

; Function Attrs: nounwind
declare dso_local void @_ZNSt7__cxx1112basic_stringIcSt11char_traitsIcESaIcEED1Ev(%"class.std::__cxx11::basic_string"*) unnamed_addr #2

; Function Attrs: noinline nounwind uwtable
define dso_local void @_ZN15StringTokenizerD2Ev(%class.StringTokenizer* %this) unnamed_addr #6 align 2 !dbg !1485 {
entry:
  %this.addr = alloca %class.StringTokenizer*, align 8
  store %class.StringTokenizer* %this, %class.StringTokenizer** %this.addr, align 8
  call void @llvm.dbg.declare(metadata %class.StringTokenizer** %this.addr, metadata !1486, metadata !DIExpression()), !dbg !1487
  %this1 = load %class.StringTokenizer*, %class.StringTokenizer** %this.addr, align 8
  %str = getelementptr inbounds %class.StringTokenizer, %class.StringTokenizer* %this1, i32 0, i32 0, !dbg !1488
  %0 = load i8*, i8** %str, align 8, !dbg !1488
  %isnull = icmp eq i8* %0, null, !dbg !1490
  br i1 %isnull, label %delete.end, label %delete.notnull, !dbg !1490

delete.notnull:                                   ; preds = %entry
  call void @_ZdaPv(i8* %0) #13, !dbg !1490
  br label %delete.end, !dbg !1490

delete.end:                                       ; preds = %delete.notnull, %entry
  %delimiter = getelementptr inbounds %class.StringTokenizer, %class.StringTokenizer* %this1, i32 0, i32 2, !dbg !1491
  call void @_ZNSt7__cxx1112basic_stringIcSt11char_traitsIcESaIcEED1Ev(%"class.std::__cxx11::basic_string"* %delimiter) #10, !dbg !1491
  ret void, !dbg !1492
}

; Function Attrs: nobuiltin nounwind
declare dso_local void @_ZdaPv(i8*) #7

; Function Attrs: noinline uwtable
define dso_local void @_ZN15StringTokenizer12setDelimiterEPKc(%class.StringTokenizer* %this, i8* %delim) #0 align 2 !dbg !1493 {
entry:
  %this.addr = alloca %class.StringTokenizer*, align 8
  %delim.addr = alloca i8*, align 8
  store %class.StringTokenizer* %this, %class.StringTokenizer** %this.addr, align 8
  call void @llvm.dbg.declare(metadata %class.StringTokenizer** %this.addr, metadata !1494, metadata !DIExpression()), !dbg !1495
  store i8* %delim, i8** %delim.addr, align 8
  call void @llvm.dbg.declare(metadata i8** %delim.addr, metadata !1496, metadata !DIExpression()), !dbg !1497
  %this1 = load %class.StringTokenizer*, %class.StringTokenizer** %this.addr, align 8
  %0 = load i8*, i8** %delim.addr, align 8, !dbg !1498
  %tobool = icmp ne i8* %0, null, !dbg !1498
  br i1 %tobool, label %lor.lhs.false, label %if.then, !dbg !1500

lor.lhs.false:                                    ; preds = %entry
  %1 = load i8*, i8** %delim.addr, align 8, !dbg !1501
  %2 = load i8, i8* %1, align 1, !dbg !1502
  %tobool2 = icmp ne i8 %2, 0, !dbg !1502
  br i1 %tobool2, label %if.end, label %if.then, !dbg !1503

if.then:                                          ; preds = %lor.lhs.false, %entry
  store i8* getelementptr inbounds ([6 x i8], [6 x i8]* @.str.1, i64 0, i64 0), i8** %delim.addr, align 8, !dbg !1504
  br label %if.end, !dbg !1505

if.end:                                           ; preds = %if.then, %lor.lhs.false
  %3 = load i8*, i8** %delim.addr, align 8, !dbg !1506
  %delimiter = getelementptr inbounds %class.StringTokenizer, %class.StringTokenizer* %this1, i32 0, i32 2, !dbg !1507
  %call = call dereferenceable(32) %"class.std::__cxx11::basic_string"* @_ZNSt7__cxx1112basic_stringIcSt11char_traitsIcESaIcEEaSEPKc(%"class.std::__cxx11::basic_string"* %delimiter, i8* %3), !dbg !1508
  ret void, !dbg !1509
}

; Function Attrs: noinline uwtable
define dso_local i8* @_ZN15StringTokenizer9nextTokenEv(%class.StringTokenizer* %this) #0 align 2 !dbg !1510 {
entry:
  %retval = alloca i8*, align 8
  %this.addr = alloca %class.StringTokenizer*, align 8
  %token = alloca i8*, align 8
  store %class.StringTokenizer* %this, %class.StringTokenizer** %this.addr, align 8
  call void @llvm.dbg.declare(metadata %class.StringTokenizer** %this.addr, metadata !1511, metadata !DIExpression()), !dbg !1512
  %this1 = load %class.StringTokenizer*, %class.StringTokenizer** %this.addr, align 8
  %rest = getelementptr inbounds %class.StringTokenizer, %class.StringTokenizer* %this1, i32 0, i32 1, !dbg !1513
  %delimiter = getelementptr inbounds %class.StringTokenizer, %class.StringTokenizer* %this1, i32 0, i32 2, !dbg !1514
  %call = call i8* @_ZNKSt7__cxx1112basic_stringIcSt11char_traitsIcESaIcEE5c_strEv(%"class.std::__cxx11::basic_string"* %delimiter) #10, !dbg !1515
  call void @_Z14skipDelimitersRPcPKc(i8** dereferenceable(8) %rest, i8* %call), !dbg !1516
  %rest2 = getelementptr inbounds %class.StringTokenizer, %class.StringTokenizer* %this1, i32 0, i32 1, !dbg !1517
  %0 = load i8*, i8** %rest2, align 8, !dbg !1517
  %1 = load i8, i8* %0, align 1, !dbg !1519
  %tobool = icmp ne i8 %1, 0, !dbg !1519
  br i1 %tobool, label %if.end, label %if.then, !dbg !1520

if.then:                                          ; preds = %entry
  store i8* null, i8** %retval, align 8, !dbg !1521
  br label %return, !dbg !1521

if.end:                                           ; preds = %entry
  call void @llvm.dbg.declare(metadata i8** %token, metadata !1522, metadata !DIExpression()), !dbg !1523
  %rest3 = getelementptr inbounds %class.StringTokenizer, %class.StringTokenizer* %this1, i32 0, i32 1, !dbg !1524
  %2 = load i8*, i8** %rest3, align 8, !dbg !1524
  store i8* %2, i8** %token, align 8, !dbg !1523
  %rest4 = getelementptr inbounds %class.StringTokenizer, %class.StringTokenizer* %this1, i32 0, i32 1, !dbg !1525
  %delimiter5 = getelementptr inbounds %class.StringTokenizer, %class.StringTokenizer* %this1, i32 0, i32 2, !dbg !1526
  %call6 = call i8* @_ZNKSt7__cxx1112basic_stringIcSt11char_traitsIcESaIcEE5c_strEv(%"class.std::__cxx11::basic_string"* %delimiter5) #10, !dbg !1527
  call void @_Z9skipTokenRPcPKc(i8** dereferenceable(8) %rest4, i8* %call6), !dbg !1528
  %rest7 = getelementptr inbounds %class.StringTokenizer, %class.StringTokenizer* %this1, i32 0, i32 1, !dbg !1529
  %3 = load i8*, i8** %rest7, align 8, !dbg !1529
  %4 = load i8, i8* %3, align 1, !dbg !1531
  %tobool8 = icmp ne i8 %4, 0, !dbg !1531
  br i1 %tobool8, label %if.then9, label %if.end11, !dbg !1532

if.then9:                                         ; preds = %if.end
  %rest10 = getelementptr inbounds %class.StringTokenizer, %class.StringTokenizer* %this1, i32 0, i32 1, !dbg !1533
  %5 = load i8*, i8** %rest10, align 8, !dbg !1534
  %incdec.ptr = getelementptr inbounds i8, i8* %5, i32 1, !dbg !1534
  store i8* %incdec.ptr, i8** %rest10, align 8, !dbg !1534
  store i8 0, i8* %5, align 1, !dbg !1535
  br label %if.end11, !dbg !1536

if.end11:                                         ; preds = %if.then9, %if.end
  %6 = load i8*, i8** %token, align 8, !dbg !1537
  store i8* %6, i8** %retval, align 8, !dbg !1538
  br label %return, !dbg !1538

return:                                           ; preds = %if.end11, %if.then
  %7 = load i8*, i8** %retval, align 8, !dbg !1539
  ret i8* %7, !dbg !1539
}

; Function Attrs: noinline nounwind uwtable
define linkonce_odr dso_local void @_Z14skipDelimitersRPcPKc(i8** dereferenceable(8) %s, i8* %delims) #6 comdat !dbg !1540 {
entry:
  %s.addr = alloca i8**, align 8
  %delims.addr = alloca i8*, align 8
  store i8** %s, i8*** %s.addr, align 8
  call void @llvm.dbg.declare(metadata i8*** %s.addr, metadata !1544, metadata !DIExpression()), !dbg !1545
  store i8* %delims, i8** %delims.addr, align 8
  call void @llvm.dbg.declare(metadata i8** %delims.addr, metadata !1546, metadata !DIExpression()), !dbg !1547
  br label %while.cond, !dbg !1548

while.cond:                                       ; preds = %while.body, %entry
  %0 = load i8**, i8*** %s.addr, align 8, !dbg !1549
  %1 = load i8*, i8** %0, align 8, !dbg !1549
  %2 = load i8, i8* %1, align 1, !dbg !1550
  %tobool = icmp ne i8 %2, 0, !dbg !1550
  br i1 %tobool, label %land.rhs, label %land.end, !dbg !1551

land.rhs:                                         ; preds = %while.cond
  %3 = load i8*, i8** %delims.addr, align 8, !dbg !1552
  %4 = load i8**, i8*** %s.addr, align 8, !dbg !1553
  %5 = load i8*, i8** %4, align 8, !dbg !1553
  %6 = load i8, i8* %5, align 1, !dbg !1554
  %conv = sext i8 %6 to i32, !dbg !1554
  %call = call i8* @strchr(i8* %3, i32 %conv) #11, !dbg !1555
  %cmp = icmp ne i8* %call, null, !dbg !1556
  br label %land.end

land.end:                                         ; preds = %land.rhs, %while.cond
  %7 = phi i1 [ false, %while.cond ], [ %cmp, %land.rhs ], !dbg !1557
  br i1 %7, label %while.body, label %while.end, !dbg !1548

while.body:                                       ; preds = %land.end
  %8 = load i8**, i8*** %s.addr, align 8, !dbg !1558
  %9 = load i8*, i8** %8, align 8, !dbg !1559
  %incdec.ptr = getelementptr inbounds i8, i8* %9, i32 1, !dbg !1559
  store i8* %incdec.ptr, i8** %8, align 8, !dbg !1559
  br label %while.cond, !dbg !1548, !llvm.loop !1560

while.end:                                        ; preds = %land.end
  ret void, !dbg !1561
}

; Function Attrs: nounwind
declare dso_local i8* @_ZNKSt7__cxx1112basic_stringIcSt11char_traitsIcESaIcEE5c_strEv(%"class.std::__cxx11::basic_string"*) #2

; Function Attrs: noinline nounwind uwtable
define linkonce_odr dso_local void @_Z9skipTokenRPcPKc(i8** dereferenceable(8) %s, i8* %delims) #6 comdat !dbg !1562 {
entry:
  %s.addr = alloca i8**, align 8
  %delims.addr = alloca i8*, align 8
  store i8** %s, i8*** %s.addr, align 8
  call void @llvm.dbg.declare(metadata i8*** %s.addr, metadata !1563, metadata !DIExpression()), !dbg !1564
  store i8* %delims, i8** %delims.addr, align 8
  call void @llvm.dbg.declare(metadata i8** %delims.addr, metadata !1565, metadata !DIExpression()), !dbg !1566
  br label %while.cond, !dbg !1567

while.cond:                                       ; preds = %while.body, %entry
  %0 = load i8**, i8*** %s.addr, align 8, !dbg !1568
  %1 = load i8*, i8** %0, align 8, !dbg !1568
  %2 = load i8, i8* %1, align 1, !dbg !1569
  %tobool = icmp ne i8 %2, 0, !dbg !1569
  br i1 %tobool, label %land.rhs, label %land.end, !dbg !1570

land.rhs:                                         ; preds = %while.cond
  %3 = load i8*, i8** %delims.addr, align 8, !dbg !1571
  %4 = load i8**, i8*** %s.addr, align 8, !dbg !1572
  %5 = load i8*, i8** %4, align 8, !dbg !1572
  %6 = load i8, i8* %5, align 1, !dbg !1573
  %conv = sext i8 %6 to i32, !dbg !1573
  %call = call i8* @strchr(i8* %3, i32 %conv) #11, !dbg !1574
  %cmp = icmp eq i8* %call, null, !dbg !1575
  br label %land.end

land.end:                                         ; preds = %land.rhs, %while.cond
  %7 = phi i1 [ false, %while.cond ], [ %cmp, %land.rhs ], !dbg !1576
  br i1 %7, label %while.body, label %while.end, !dbg !1567

while.body:                                       ; preds = %land.end
  %8 = load i8**, i8*** %s.addr, align 8, !dbg !1577
  %9 = load i8*, i8** %8, align 8, !dbg !1578
  %incdec.ptr = getelementptr inbounds i8, i8* %9, i32 1, !dbg !1578
  store i8* %incdec.ptr, i8** %8, align 8, !dbg !1578
  br label %while.cond, !dbg !1567, !llvm.loop !1579

while.end:                                        ; preds = %land.end
  ret void, !dbg !1580
}

; Function Attrs: noinline uwtable
define dso_local zeroext i1 @_ZN15StringTokenizer13hasMoreTokensEv(%class.StringTokenizer* %this) #0 align 2 !dbg !1581 {
entry:
  %this.addr = alloca %class.StringTokenizer*, align 8
  store %class.StringTokenizer* %this, %class.StringTokenizer** %this.addr, align 8
  call void @llvm.dbg.declare(metadata %class.StringTokenizer** %this.addr, metadata !1582, metadata !DIExpression()), !dbg !1583
  %this1 = load %class.StringTokenizer*, %class.StringTokenizer** %this.addr, align 8
  %rest = getelementptr inbounds %class.StringTokenizer, %class.StringTokenizer* %this1, i32 0, i32 1, !dbg !1584
  %delimiter = getelementptr inbounds %class.StringTokenizer, %class.StringTokenizer* %this1, i32 0, i32 2, !dbg !1585
  %call = call i8* @_ZNKSt7__cxx1112basic_stringIcSt11char_traitsIcESaIcEE5c_strEv(%"class.std::__cxx11::basic_string"* %delimiter) #10, !dbg !1586
  call void @_Z14skipDelimitersRPcPKc(i8** dereferenceable(8) %rest, i8* %call), !dbg !1587
  %rest2 = getelementptr inbounds %class.StringTokenizer, %class.StringTokenizer* %this1, i32 0, i32 1, !dbg !1588
  %0 = load i8*, i8** %rest2, align 8, !dbg !1588
  %1 = load i8, i8* %0, align 1, !dbg !1589
  %tobool = icmp ne i8 %1, 0, !dbg !1589
  ret i1 %tobool, !dbg !1590
}

; Function Attrs: noinline uwtable
define dso_local void @_ZN15StringTokenizer8asVectorB5cxx11Ev(%"class.std::vector"* noalias sret %agg.result, %class.StringTokenizer* %this) #0 align 2 personality i8* bitcast (i32 (...)* @__gxx_personality_v0 to i8*) !dbg !1591 {
entry:
  %result.ptr = alloca i8*, align 8
  %this.addr = alloca %class.StringTokenizer*, align 8
  %s = alloca i8*, align 8
  %nrvo = alloca i1, align 1
  %exn.slot = alloca i8*
  %ehselector.slot = alloca i32
  %ref.tmp = alloca %"class.std::__cxx11::basic_string", align 8
  %ref.tmp2 = alloca %"class.std::allocator", align 1
  %0 = bitcast %"class.std::vector"* %agg.result to i8*
  store i8* %0, i8** %result.ptr, align 8
  store %class.StringTokenizer* %this, %class.StringTokenizer** %this.addr, align 8
  call void @llvm.dbg.declare(metadata %class.StringTokenizer** %this.addr, metadata !1592, metadata !DIExpression()), !dbg !1593
  %this1 = load %class.StringTokenizer*, %class.StringTokenizer** %this.addr, align 8
  call void @llvm.dbg.declare(metadata i8** %s, metadata !1594, metadata !DIExpression()), !dbg !1595
  store i1 false, i1* %nrvo, align 1, !dbg !1596
  call void @llvm.dbg.declare(metadata i8** %result.ptr, metadata !1597, metadata !DIExpression(DW_OP_deref)), !dbg !1598
  call void @_ZNSt6vectorINSt7__cxx1112basic_stringIcSt11char_traitsIcESaIcEEESaIS5_EEC2Ev(%"class.std::vector"* %agg.result) #10, !dbg !1598
  br label %while.cond, !dbg !1599

while.cond:                                       ; preds = %invoke.cont6, %entry
  %call = invoke i8* @_ZN15StringTokenizer9nextTokenEv(%class.StringTokenizer* %this1)
          to label %invoke.cont unwind label %lpad, !dbg !1600

invoke.cont:                                      ; preds = %while.cond
  store i8* %call, i8** %s, align 8, !dbg !1601
  %cmp = icmp ne i8* %call, null, !dbg !1602
  br i1 %cmp, label %while.body, label %while.end, !dbg !1599

while.body:                                       ; preds = %invoke.cont
  %1 = load i8*, i8** %s, align 8, !dbg !1603
  call void @_ZNSaIcEC1Ev(%"class.std::allocator"* %ref.tmp2) #10, !dbg !1604
  invoke void @_ZNSt7__cxx1112basic_stringIcSt11char_traitsIcESaIcEEC1EPKcRKS3_(%"class.std::__cxx11::basic_string"* %ref.tmp, i8* %1, %"class.std::allocator"* dereferenceable(1) %ref.tmp2)
          to label %invoke.cont4 unwind label %lpad3, !dbg !1604

invoke.cont4:                                     ; preds = %while.body
  invoke void @_ZNSt6vectorINSt7__cxx1112basic_stringIcSt11char_traitsIcESaIcEEESaIS5_EE9push_backEOS5_(%"class.std::vector"* %agg.result, %"class.std::__cxx11::basic_string"* dereferenceable(32) %ref.tmp)
          to label %invoke.cont6 unwind label %lpad5, !dbg !1605

invoke.cont6:                                     ; preds = %invoke.cont4
  call void @_ZNSt7__cxx1112basic_stringIcSt11char_traitsIcESaIcEED1Ev(%"class.std::__cxx11::basic_string"* %ref.tmp) #10, !dbg !1606
  call void @_ZNSaIcED1Ev(%"class.std::allocator"* %ref.tmp2) #10, !dbg !1606
  br label %while.cond, !dbg !1599, !llvm.loop !1607

lpad:                                             ; preds = %while.cond
  %2 = landingpad { i8*, i32 }
          cleanup, !dbg !1609
  %3 = extractvalue { i8*, i32 } %2, 0, !dbg !1609
  store i8* %3, i8** %exn.slot, align 8, !dbg !1609
  %4 = extractvalue { i8*, i32 } %2, 1, !dbg !1609
  store i32 %4, i32* %ehselector.slot, align 4, !dbg !1609
  br label %ehcleanup7, !dbg !1609

lpad3:                                            ; preds = %while.body
  %5 = landingpad { i8*, i32 }
          cleanup, !dbg !1609
  %6 = extractvalue { i8*, i32 } %5, 0, !dbg !1609
  store i8* %6, i8** %exn.slot, align 8, !dbg !1609
  %7 = extractvalue { i8*, i32 } %5, 1, !dbg !1609
  store i32 %7, i32* %ehselector.slot, align 4, !dbg !1609
  br label %ehcleanup, !dbg !1609

lpad5:                                            ; preds = %invoke.cont4
  %8 = landingpad { i8*, i32 }
          cleanup, !dbg !1609
  %9 = extractvalue { i8*, i32 } %8, 0, !dbg !1609
  store i8* %9, i8** %exn.slot, align 8, !dbg !1609
  %10 = extractvalue { i8*, i32 } %8, 1, !dbg !1609
  store i32 %10, i32* %ehselector.slot, align 4, !dbg !1609
  call void @_ZNSt7__cxx1112basic_stringIcSt11char_traitsIcESaIcEED1Ev(%"class.std::__cxx11::basic_string"* %ref.tmp) #10, !dbg !1606
  br label %ehcleanup, !dbg !1606

ehcleanup:                                        ; preds = %lpad5, %lpad3
  call void @_ZNSaIcED1Ev(%"class.std::allocator"* %ref.tmp2) #10, !dbg !1606
  br label %ehcleanup7, !dbg !1606

while.end:                                        ; preds = %invoke.cont
  store i1 true, i1* %nrvo, align 1, !dbg !1610
  %nrvo.val = load i1, i1* %nrvo, align 1, !dbg !1609
  br i1 %nrvo.val, label %nrvo.skipdtor, label %nrvo.unused, !dbg !1609

nrvo.unused:                                      ; preds = %while.end
  call void @_ZNSt6vectorINSt7__cxx1112basic_stringIcSt11char_traitsIcESaIcEEESaIS5_EED2Ev(%"class.std::vector"* %agg.result) #10, !dbg !1609
  br label %nrvo.skipdtor, !dbg !1609

nrvo.skipdtor:                                    ; preds = %nrvo.unused, %while.end
  ret void, !dbg !1609

ehcleanup7:                                       ; preds = %ehcleanup, %lpad
  call void @_ZNSt6vectorINSt7__cxx1112basic_stringIcSt11char_traitsIcESaIcEEESaIS5_EED2Ev(%"class.std::vector"* %agg.result) #10, !dbg !1609
  br label %eh.resume, !dbg !1609

eh.resume:                                        ; preds = %ehcleanup7
  %exn = load i8*, i8** %exn.slot, align 8, !dbg !1609
  %sel = load i32, i32* %ehselector.slot, align 4, !dbg !1609
  %lpad.val = insertvalue { i8*, i32 } undef, i8* %exn, 0, !dbg !1609
  %lpad.val8 = insertvalue { i8*, i32 } %lpad.val, i32 %sel, 1, !dbg !1609
  resume { i8*, i32 } %lpad.val8, !dbg !1609
}

; Function Attrs: noinline nounwind uwtable
define linkonce_odr dso_local void @_ZNSt6vectorINSt7__cxx1112basic_stringIcSt11char_traitsIcESaIcEEESaIS5_EEC2Ev(%"class.std::vector"* %this) unnamed_addr #6 comdat align 2 !dbg !1611 {
entry:
  %this.addr = alloca %"class.std::vector"*, align 8
  store %"class.std::vector"* %this, %"class.std::vector"** %this.addr, align 8
  call void @llvm.dbg.declare(metadata %"class.std::vector"** %this.addr, metadata !1612, metadata !DIExpression()), !dbg !1614
  %this1 = load %"class.std::vector"*, %"class.std::vector"** %this.addr, align 8
  %0 = bitcast %"class.std::vector"* %this1 to %"struct.std::_Vector_base"*, !dbg !1615
  call void @_ZNSt12_Vector_baseINSt7__cxx1112basic_stringIcSt11char_traitsIcESaIcEEESaIS5_EEC2Ev(%"struct.std::_Vector_base"* %0) #10, !dbg !1616
  ret void, !dbg !1615
}

; Function Attrs: noinline uwtable
define linkonce_odr dso_local void @_ZNSt6vectorINSt7__cxx1112basic_stringIcSt11char_traitsIcESaIcEEESaIS5_EE9push_backEOS5_(%"class.std::vector"* %this, %"class.std::__cxx11::basic_string"* dereferenceable(32) %__x) #0 comdat align 2 !dbg !1617 {
entry:
  %this.addr = alloca %"class.std::vector"*, align 8
  %__x.addr = alloca %"class.std::__cxx11::basic_string"*, align 8
  store %"class.std::vector"* %this, %"class.std::vector"** %this.addr, align 8
  call void @llvm.dbg.declare(metadata %"class.std::vector"** %this.addr, metadata !1618, metadata !DIExpression()), !dbg !1619
  store %"class.std::__cxx11::basic_string"* %__x, %"class.std::__cxx11::basic_string"** %__x.addr, align 8
  call void @llvm.dbg.declare(metadata %"class.std::__cxx11::basic_string"** %__x.addr, metadata !1620, metadata !DIExpression()), !dbg !1621
  %this1 = load %"class.std::vector"*, %"class.std::vector"** %this.addr, align 8
  %0 = load %"class.std::__cxx11::basic_string"*, %"class.std::__cxx11::basic_string"** %__x.addr, align 8, !dbg !1622
  %call = call dereferenceable(32) %"class.std::__cxx11::basic_string"* @_ZSt4moveIRNSt7__cxx1112basic_stringIcSt11char_traitsIcESaIcEEEEONSt16remove_referenceIT_E4typeEOS8_(%"class.std::__cxx11::basic_string"* dereferenceable(32) %0) #10, !dbg !1623
  call void @_ZNSt6vectorINSt7__cxx1112basic_stringIcSt11char_traitsIcESaIcEEESaIS5_EE12emplace_backIJS5_EEEvDpOT_(%"class.std::vector"* %this1, %"class.std::__cxx11::basic_string"* dereferenceable(32) %call), !dbg !1624
  ret void, !dbg !1625
}

; Function Attrs: nounwind
declare dso_local void @_ZNSaIcEC1Ev(%"class.std::allocator"*) unnamed_addr #2

declare dso_local void @_ZNSt7__cxx1112basic_stringIcSt11char_traitsIcESaIcEEC1EPKcRKS3_(%"class.std::__cxx11::basic_string"*, i8*, %"class.std::allocator"* dereferenceable(1)) unnamed_addr #3

; Function Attrs: nounwind
declare dso_local void @_ZNSaIcED1Ev(%"class.std::allocator"*) unnamed_addr #2

; Function Attrs: noinline nounwind uwtable
define linkonce_odr dso_local void @_ZNSt6vectorINSt7__cxx1112basic_stringIcSt11char_traitsIcESaIcEEESaIS5_EED2Ev(%"class.std::vector"* %this) unnamed_addr #6 comdat align 2 personality i8* bitcast (i32 (...)* @__gxx_personality_v0 to i8*) !dbg !1626 {
entry:
  %this.addr = alloca %"class.std::vector"*, align 8
  %exn.slot = alloca i8*
  %ehselector.slot = alloca i32
  store %"class.std::vector"* %this, %"class.std::vector"** %this.addr, align 8
  call void @llvm.dbg.declare(metadata %"class.std::vector"** %this.addr, metadata !1627, metadata !DIExpression()), !dbg !1628
  %this1 = load %"class.std::vector"*, %"class.std::vector"** %this.addr, align 8
  %0 = bitcast %"class.std::vector"* %this1 to %"struct.std::_Vector_base"*, !dbg !1629
  %_M_impl = getelementptr inbounds %"struct.std::_Vector_base", %"struct.std::_Vector_base"* %0, i32 0, i32 0, !dbg !1629
  %1 = bitcast %"struct.std::_Vector_base<std::__cxx11::basic_string<char>, std::allocator<std::__cxx11::basic_string<char> > >::_Vector_impl"* %_M_impl to %"struct.std::_Vector_base<std::__cxx11::basic_string<char>, std::allocator<std::__cxx11::basic_string<char> > >::_Vector_impl_data"*, !dbg !1631
  %_M_start = getelementptr inbounds %"struct.std::_Vector_base<std::__cxx11::basic_string<char>, std::allocator<std::__cxx11::basic_string<char> > >::_Vector_impl_data", %"struct.std::_Vector_base<std::__cxx11::basic_string<char>, std::allocator<std::__cxx11::basic_string<char> > >::_Vector_impl_data"* %1, i32 0, i32 0, !dbg !1632
  %2 = load %"class.std::__cxx11::basic_string"*, %"class.std::__cxx11::basic_string"** %_M_start, align 8, !dbg !1632
  %3 = bitcast %"class.std::vector"* %this1 to %"struct.std::_Vector_base"*, !dbg !1633
  %_M_impl2 = getelementptr inbounds %"struct.std::_Vector_base", %"struct.std::_Vector_base"* %3, i32 0, i32 0, !dbg !1633
  %4 = bitcast %"struct.std::_Vector_base<std::__cxx11::basic_string<char>, std::allocator<std::__cxx11::basic_string<char> > >::_Vector_impl"* %_M_impl2 to %"struct.std::_Vector_base<std::__cxx11::basic_string<char>, std::allocator<std::__cxx11::basic_string<char> > >::_Vector_impl_data"*, !dbg !1634
  %_M_finish = getelementptr inbounds %"struct.std::_Vector_base<std::__cxx11::basic_string<char>, std::allocator<std::__cxx11::basic_string<char> > >::_Vector_impl_data", %"struct.std::_Vector_base<std::__cxx11::basic_string<char>, std::allocator<std::__cxx11::basic_string<char> > >::_Vector_impl_data"* %4, i32 0, i32 1, !dbg !1635
  %5 = load %"class.std::__cxx11::basic_string"*, %"class.std::__cxx11::basic_string"** %_M_finish, align 8, !dbg !1635
  %6 = bitcast %"class.std::vector"* %this1 to %"struct.std::_Vector_base"*, !dbg !1636
  %call = call dereferenceable(1) %"class.std::allocator.0"* @_ZNSt12_Vector_baseINSt7__cxx1112basic_stringIcSt11char_traitsIcESaIcEEESaIS5_EE19_M_get_Tp_allocatorEv(%"struct.std::_Vector_base"* %6) #10, !dbg !1636
  invoke void @_ZSt8_DestroyIPNSt7__cxx1112basic_stringIcSt11char_traitsIcESaIcEEES5_EvT_S7_RSaIT0_E(%"class.std::__cxx11::basic_string"* %2, %"class.std::__cxx11::basic_string"* %5, %"class.std::allocator.0"* dereferenceable(1) %call)
          to label %invoke.cont unwind label %lpad, !dbg !1637

invoke.cont:                                      ; preds = %entry
  %7 = bitcast %"class.std::vector"* %this1 to %"struct.std::_Vector_base"*, !dbg !1638
  call void @_ZNSt12_Vector_baseINSt7__cxx1112basic_stringIcSt11char_traitsIcESaIcEEESaIS5_EED2Ev(%"struct.std::_Vector_base"* %7) #10, !dbg !1638
  ret void, !dbg !1639

lpad:                                             ; preds = %entry
  %8 = landingpad { i8*, i32 }
          catch i8* null, !dbg !1638
  %9 = extractvalue { i8*, i32 } %8, 0, !dbg !1638
  store i8* %9, i8** %exn.slot, align 8, !dbg !1638
  %10 = extractvalue { i8*, i32 } %8, 1, !dbg !1638
  store i32 %10, i32* %ehselector.slot, align 4, !dbg !1638
  %11 = bitcast %"class.std::vector"* %this1 to %"struct.std::_Vector_base"*, !dbg !1638
  call void @_ZNSt12_Vector_baseINSt7__cxx1112basic_stringIcSt11char_traitsIcESaIcEEESaIS5_EED2Ev(%"struct.std::_Vector_base"* %11) #10, !dbg !1638
  br label %terminate.handler, !dbg !1638

terminate.handler:                                ; preds = %lpad
  %exn = load i8*, i8** %exn.slot, align 8, !dbg !1638
  call void @__clang_call_terminate(i8* %exn) #14, !dbg !1638
  unreachable, !dbg !1638
}

; Function Attrs: nounwind readonly
declare dso_local i8* @strchr(i8*, i32) #4

; Function Attrs: noinline nounwind uwtable
define linkonce_odr dso_local void @_ZNSt12_Vector_baseINSt7__cxx1112basic_stringIcSt11char_traitsIcESaIcEEESaIS5_EEC2Ev(%"struct.std::_Vector_base"* %this) unnamed_addr #6 comdat align 2 !dbg !1640 {
entry:
  %this.addr = alloca %"struct.std::_Vector_base"*, align 8
  store %"struct.std::_Vector_base"* %this, %"struct.std::_Vector_base"** %this.addr, align 8
  call void @llvm.dbg.declare(metadata %"struct.std::_Vector_base"** %this.addr, metadata !1641, metadata !DIExpression()), !dbg !1643
  %this1 = load %"struct.std::_Vector_base"*, %"struct.std::_Vector_base"** %this.addr, align 8
  %_M_impl = getelementptr inbounds %"struct.std::_Vector_base", %"struct.std::_Vector_base"* %this1, i32 0, i32 0, !dbg !1644
  call void @_ZNSt12_Vector_baseINSt7__cxx1112basic_stringIcSt11char_traitsIcESaIcEEESaIS5_EE12_Vector_implC2Ev(%"struct.std::_Vector_base<std::__cxx11::basic_string<char>, std::allocator<std::__cxx11::basic_string<char> > >::_Vector_impl"* %_M_impl) #10, !dbg !1644
  ret void, !dbg !1645
}

; Function Attrs: noinline nounwind uwtable
define linkonce_odr dso_local void @_ZNSt12_Vector_baseINSt7__cxx1112basic_stringIcSt11char_traitsIcESaIcEEESaIS5_EE12_Vector_implC2Ev(%"struct.std::_Vector_base<std::__cxx11::basic_string<char>, std::allocator<std::__cxx11::basic_string<char> > >::_Vector_impl"* %this) unnamed_addr #6 comdat align 2 !dbg !1646 {
entry:
  %this.addr = alloca %"struct.std::_Vector_base<std::__cxx11::basic_string<char>, std::allocator<std::__cxx11::basic_string<char> > >::_Vector_impl"*, align 8
  store %"struct.std::_Vector_base<std::__cxx11::basic_string<char>, std::allocator<std::__cxx11::basic_string<char> > >::_Vector_impl"* %this, %"struct.std::_Vector_base<std::__cxx11::basic_string<char>, std::allocator<std::__cxx11::basic_string<char> > >::_Vector_impl"** %this.addr, align 8
  call void @llvm.dbg.declare(metadata %"struct.std::_Vector_base<std::__cxx11::basic_string<char>, std::allocator<std::__cxx11::basic_string<char> > >::_Vector_impl"** %this.addr, metadata !1647, metadata !DIExpression()), !dbg !1649
  %this1 = load %"struct.std::_Vector_base<std::__cxx11::basic_string<char>, std::allocator<std::__cxx11::basic_string<char> > >::_Vector_impl"*, %"struct.std::_Vector_base<std::__cxx11::basic_string<char>, std::allocator<std::__cxx11::basic_string<char> > >::_Vector_impl"** %this.addr, align 8
  %0 = bitcast %"struct.std::_Vector_base<std::__cxx11::basic_string<char>, std::allocator<std::__cxx11::basic_string<char> > >::_Vector_impl"* %this1 to %"class.std::allocator.0"*, !dbg !1650
  call void @_ZNSaINSt7__cxx1112basic_stringIcSt11char_traitsIcESaIcEEEEC2Ev(%"class.std::allocator.0"* %0) #10, !dbg !1651
  %1 = bitcast %"struct.std::_Vector_base<std::__cxx11::basic_string<char>, std::allocator<std::__cxx11::basic_string<char> > >::_Vector_impl"* %this1 to %"struct.std::_Vector_base<std::__cxx11::basic_string<char>, std::allocator<std::__cxx11::basic_string<char> > >::_Vector_impl_data"*, !dbg !1650
  call void @_ZNSt12_Vector_baseINSt7__cxx1112basic_stringIcSt11char_traitsIcESaIcEEESaIS5_EE17_Vector_impl_dataC2Ev(%"struct.std::_Vector_base<std::__cxx11::basic_string<char>, std::allocator<std::__cxx11::basic_string<char> > >::_Vector_impl_data"* %1) #10, !dbg !1652
  ret void, !dbg !1653
}

; Function Attrs: noinline nounwind uwtable
define linkonce_odr dso_local void @_ZNSaINSt7__cxx1112basic_stringIcSt11char_traitsIcESaIcEEEEC2Ev(%"class.std::allocator.0"* %this) unnamed_addr #6 comdat align 2 !dbg !1654 {
entry:
  %this.addr = alloca %"class.std::allocator.0"*, align 8
  store %"class.std::allocator.0"* %this, %"class.std::allocator.0"** %this.addr, align 8
  call void @llvm.dbg.declare(metadata %"class.std::allocator.0"** %this.addr, metadata !1655, metadata !DIExpression()), !dbg !1657
  %this1 = load %"class.std::allocator.0"*, %"class.std::allocator.0"** %this.addr, align 8
  %0 = bitcast %"class.std::allocator.0"* %this1 to %"class.__gnu_cxx::new_allocator.1"*, !dbg !1658
  call void @_ZN9__gnu_cxx13new_allocatorINSt7__cxx1112basic_stringIcSt11char_traitsIcESaIcEEEEC2Ev(%"class.__gnu_cxx::new_allocator.1"* %0) #10, !dbg !1659
  ret void, !dbg !1660
}

; Function Attrs: noinline nounwind uwtable
define linkonce_odr dso_local void @_ZNSt12_Vector_baseINSt7__cxx1112basic_stringIcSt11char_traitsIcESaIcEEESaIS5_EE17_Vector_impl_dataC2Ev(%"struct.std::_Vector_base<std::__cxx11::basic_string<char>, std::allocator<std::__cxx11::basic_string<char> > >::_Vector_impl_data"* %this) unnamed_addr #6 comdat align 2 !dbg !1661 {
entry:
  %this.addr = alloca %"struct.std::_Vector_base<std::__cxx11::basic_string<char>, std::allocator<std::__cxx11::basic_string<char> > >::_Vector_impl_data"*, align 8
  store %"struct.std::_Vector_base<std::__cxx11::basic_string<char>, std::allocator<std::__cxx11::basic_string<char> > >::_Vector_impl_data"* %this, %"struct.std::_Vector_base<std::__cxx11::basic_string<char>, std::allocator<std::__cxx11::basic_string<char> > >::_Vector_impl_data"** %this.addr, align 8
  call void @llvm.dbg.declare(metadata %"struct.std::_Vector_base<std::__cxx11::basic_string<char>, std::allocator<std::__cxx11::basic_string<char> > >::_Vector_impl_data"** %this.addr, metadata !1662, metadata !DIExpression()), !dbg !1664
  %this1 = load %"struct.std::_Vector_base<std::__cxx11::basic_string<char>, std::allocator<std::__cxx11::basic_string<char> > >::_Vector_impl_data"*, %"struct.std::_Vector_base<std::__cxx11::basic_string<char>, std::allocator<std::__cxx11::basic_string<char> > >::_Vector_impl_data"** %this.addr, align 8
  %_M_start = getelementptr inbounds %"struct.std::_Vector_base<std::__cxx11::basic_string<char>, std::allocator<std::__cxx11::basic_string<char> > >::_Vector_impl_data", %"struct.std::_Vector_base<std::__cxx11::basic_string<char>, std::allocator<std::__cxx11::basic_string<char> > >::_Vector_impl_data"* %this1, i32 0, i32 0, !dbg !1665
  store %"class.std::__cxx11::basic_string"* null, %"class.std::__cxx11::basic_string"** %_M_start, align 8, !dbg !1665
  %_M_finish = getelementptr inbounds %"struct.std::_Vector_base<std::__cxx11::basic_string<char>, std::allocator<std::__cxx11::basic_string<char> > >::_Vector_impl_data", %"struct.std::_Vector_base<std::__cxx11::basic_string<char>, std::allocator<std::__cxx11::basic_string<char> > >::_Vector_impl_data"* %this1, i32 0, i32 1, !dbg !1666
  store %"class.std::__cxx11::basic_string"* null, %"class.std::__cxx11::basic_string"** %_M_finish, align 8, !dbg !1666
  %_M_end_of_storage = getelementptr inbounds %"struct.std::_Vector_base<std::__cxx11::basic_string<char>, std::allocator<std::__cxx11::basic_string<char> > >::_Vector_impl_data", %"struct.std::_Vector_base<std::__cxx11::basic_string<char>, std::allocator<std::__cxx11::basic_string<char> > >::_Vector_impl_data"* %this1, i32 0, i32 2, !dbg !1667
  store %"class.std::__cxx11::basic_string"* null, %"class.std::__cxx11::basic_string"** %_M_end_of_storage, align 8, !dbg !1667
  ret void, !dbg !1668
}

; Function Attrs: noinline nounwind uwtable
define linkonce_odr dso_local void @_ZN9__gnu_cxx13new_allocatorINSt7__cxx1112basic_stringIcSt11char_traitsIcESaIcEEEEC2Ev(%"class.__gnu_cxx::new_allocator.1"* %this) unnamed_addr #6 comdat align 2 !dbg !1669 {
entry:
  %this.addr = alloca %"class.__gnu_cxx::new_allocator.1"*, align 8
  store %"class.__gnu_cxx::new_allocator.1"* %this, %"class.__gnu_cxx::new_allocator.1"** %this.addr, align 8
  call void @llvm.dbg.declare(metadata %"class.__gnu_cxx::new_allocator.1"** %this.addr, metadata !1670, metadata !DIExpression()), !dbg !1672
  %this1 = load %"class.__gnu_cxx::new_allocator.1"*, %"class.__gnu_cxx::new_allocator.1"** %this.addr, align 8
  ret void, !dbg !1673
}

; Function Attrs: noinline uwtable
define linkonce_odr dso_local void @_ZSt8_DestroyIPNSt7__cxx1112basic_stringIcSt11char_traitsIcESaIcEEES5_EvT_S7_RSaIT0_E(%"class.std::__cxx11::basic_string"* %__first, %"class.std::__cxx11::basic_string"* %__last, %"class.std::allocator.0"* dereferenceable(1) %0) #0 comdat !dbg !1674 {
entry:
  %__first.addr = alloca %"class.std::__cxx11::basic_string"*, align 8
  %__last.addr = alloca %"class.std::__cxx11::basic_string"*, align 8
  %.addr = alloca %"class.std::allocator.0"*, align 8
  store %"class.std::__cxx11::basic_string"* %__first, %"class.std::__cxx11::basic_string"** %__first.addr, align 8
  call void @llvm.dbg.declare(metadata %"class.std::__cxx11::basic_string"** %__first.addr, metadata !1679, metadata !DIExpression()), !dbg !1680
  store %"class.std::__cxx11::basic_string"* %__last, %"class.std::__cxx11::basic_string"** %__last.addr, align 8
  call void @llvm.dbg.declare(metadata %"class.std::__cxx11::basic_string"** %__last.addr, metadata !1681, metadata !DIExpression()), !dbg !1682
  store %"class.std::allocator.0"* %0, %"class.std::allocator.0"** %.addr, align 8
  call void @llvm.dbg.declare(metadata %"class.std::allocator.0"** %.addr, metadata !1683, metadata !DIExpression()), !dbg !1684
  %1 = load %"class.std::__cxx11::basic_string"*, %"class.std::__cxx11::basic_string"** %__first.addr, align 8, !dbg !1685
  %2 = load %"class.std::__cxx11::basic_string"*, %"class.std::__cxx11::basic_string"** %__last.addr, align 8, !dbg !1686
  call void @_ZSt8_DestroyIPNSt7__cxx1112basic_stringIcSt11char_traitsIcESaIcEEEEvT_S7_(%"class.std::__cxx11::basic_string"* %1, %"class.std::__cxx11::basic_string"* %2), !dbg !1687
  ret void, !dbg !1688
}

; Function Attrs: noinline nounwind uwtable
define linkonce_odr dso_local dereferenceable(1) %"class.std::allocator.0"* @_ZNSt12_Vector_baseINSt7__cxx1112basic_stringIcSt11char_traitsIcESaIcEEESaIS5_EE19_M_get_Tp_allocatorEv(%"struct.std::_Vector_base"* %this) #6 comdat align 2 !dbg !1689 {
entry:
  %this.addr = alloca %"struct.std::_Vector_base"*, align 8
  store %"struct.std::_Vector_base"* %this, %"struct.std::_Vector_base"** %this.addr, align 8
  call void @llvm.dbg.declare(metadata %"struct.std::_Vector_base"** %this.addr, metadata !1690, metadata !DIExpression()), !dbg !1691
  %this1 = load %"struct.std::_Vector_base"*, %"struct.std::_Vector_base"** %this.addr, align 8
  %_M_impl = getelementptr inbounds %"struct.std::_Vector_base", %"struct.std::_Vector_base"* %this1, i32 0, i32 0, !dbg !1692
  %0 = bitcast %"struct.std::_Vector_base<std::__cxx11::basic_string<char>, std::allocator<std::__cxx11::basic_string<char> > >::_Vector_impl"* %_M_impl to %"class.std::allocator.0"*, !dbg !1693
  ret %"class.std::allocator.0"* %0, !dbg !1694
}

; Function Attrs: noinline nounwind uwtable
define linkonce_odr dso_local void @_ZNSt12_Vector_baseINSt7__cxx1112basic_stringIcSt11char_traitsIcESaIcEEESaIS5_EED2Ev(%"struct.std::_Vector_base"* %this) unnamed_addr #6 comdat align 2 personality i8* bitcast (i32 (...)* @__gxx_personality_v0 to i8*) !dbg !1695 {
entry:
  %this.addr = alloca %"struct.std::_Vector_base"*, align 8
  %exn.slot = alloca i8*
  %ehselector.slot = alloca i32
  store %"struct.std::_Vector_base"* %this, %"struct.std::_Vector_base"** %this.addr, align 8
  call void @llvm.dbg.declare(metadata %"struct.std::_Vector_base"** %this.addr, metadata !1696, metadata !DIExpression()), !dbg !1697
  %this1 = load %"struct.std::_Vector_base"*, %"struct.std::_Vector_base"** %this.addr, align 8
  %_M_impl = getelementptr inbounds %"struct.std::_Vector_base", %"struct.std::_Vector_base"* %this1, i32 0, i32 0, !dbg !1698
  %0 = bitcast %"struct.std::_Vector_base<std::__cxx11::basic_string<char>, std::allocator<std::__cxx11::basic_string<char> > >::_Vector_impl"* %_M_impl to %"struct.std::_Vector_base<std::__cxx11::basic_string<char>, std::allocator<std::__cxx11::basic_string<char> > >::_Vector_impl_data"*, !dbg !1698
  %_M_start = getelementptr inbounds %"struct.std::_Vector_base<std::__cxx11::basic_string<char>, std::allocator<std::__cxx11::basic_string<char> > >::_Vector_impl_data", %"struct.std::_Vector_base<std::__cxx11::basic_string<char>, std::allocator<std::__cxx11::basic_string<char> > >::_Vector_impl_data"* %0, i32 0, i32 0, !dbg !1700
  %1 = load %"class.std::__cxx11::basic_string"*, %"class.std::__cxx11::basic_string"** %_M_start, align 8, !dbg !1700
  %_M_impl2 = getelementptr inbounds %"struct.std::_Vector_base", %"struct.std::_Vector_base"* %this1, i32 0, i32 0, !dbg !1701
  %2 = bitcast %"struct.std::_Vector_base<std::__cxx11::basic_string<char>, std::allocator<std::__cxx11::basic_string<char> > >::_Vector_impl"* %_M_impl2 to %"struct.std::_Vector_base<std::__cxx11::basic_string<char>, std::allocator<std::__cxx11::basic_string<char> > >::_Vector_impl_data"*, !dbg !1701
  %_M_end_of_storage = getelementptr inbounds %"struct.std::_Vector_base<std::__cxx11::basic_string<char>, std::allocator<std::__cxx11::basic_string<char> > >::_Vector_impl_data", %"struct.std::_Vector_base<std::__cxx11::basic_string<char>, std::allocator<std::__cxx11::basic_string<char> > >::_Vector_impl_data"* %2, i32 0, i32 2, !dbg !1702
  %3 = load %"class.std::__cxx11::basic_string"*, %"class.std::__cxx11::basic_string"** %_M_end_of_storage, align 8, !dbg !1702
  %_M_impl3 = getelementptr inbounds %"struct.std::_Vector_base", %"struct.std::_Vector_base"* %this1, i32 0, i32 0, !dbg !1703
  %4 = bitcast %"struct.std::_Vector_base<std::__cxx11::basic_string<char>, std::allocator<std::__cxx11::basic_string<char> > >::_Vector_impl"* %_M_impl3 to %"struct.std::_Vector_base<std::__cxx11::basic_string<char>, std::allocator<std::__cxx11::basic_string<char> > >::_Vector_impl_data"*, !dbg !1703
  %_M_start4 = getelementptr inbounds %"struct.std::_Vector_base<std::__cxx11::basic_string<char>, std::allocator<std::__cxx11::basic_string<char> > >::_Vector_impl_data", %"struct.std::_Vector_base<std::__cxx11::basic_string<char>, std::allocator<std::__cxx11::basic_string<char> > >::_Vector_impl_data"* %4, i32 0, i32 0, !dbg !1704
  %5 = load %"class.std::__cxx11::basic_string"*, %"class.std::__cxx11::basic_string"** %_M_start4, align 8, !dbg !1704
  %sub.ptr.lhs.cast = ptrtoint %"class.std::__cxx11::basic_string"* %3 to i64, !dbg !1705
  %sub.ptr.rhs.cast = ptrtoint %"class.std::__cxx11::basic_string"* %5 to i64, !dbg !1705
  %sub.ptr.sub = sub i64 %sub.ptr.lhs.cast, %sub.ptr.rhs.cast, !dbg !1705
  %sub.ptr.div = sdiv exact i64 %sub.ptr.sub, 32, !dbg !1705
  invoke void @_ZNSt12_Vector_baseINSt7__cxx1112basic_stringIcSt11char_traitsIcESaIcEEESaIS5_EE13_M_deallocateEPS5_m(%"struct.std::_Vector_base"* %this1, %"class.std::__cxx11::basic_string"* %1, i64 %sub.ptr.div)
          to label %invoke.cont unwind label %lpad, !dbg !1706

invoke.cont:                                      ; preds = %entry
  %_M_impl5 = getelementptr inbounds %"struct.std::_Vector_base", %"struct.std::_Vector_base"* %this1, i32 0, i32 0, !dbg !1707
  call void @_ZNSt12_Vector_baseINSt7__cxx1112basic_stringIcSt11char_traitsIcESaIcEEESaIS5_EE12_Vector_implD2Ev(%"struct.std::_Vector_base<std::__cxx11::basic_string<char>, std::allocator<std::__cxx11::basic_string<char> > >::_Vector_impl"* %_M_impl5) #10, !dbg !1707
  ret void, !dbg !1708

lpad:                                             ; preds = %entry
  %6 = landingpad { i8*, i32 }
          catch i8* null, !dbg !1707
  %7 = extractvalue { i8*, i32 } %6, 0, !dbg !1707
  store i8* %7, i8** %exn.slot, align 8, !dbg !1707
  %8 = extractvalue { i8*, i32 } %6, 1, !dbg !1707
  store i32 %8, i32* %ehselector.slot, align 4, !dbg !1707
  %_M_impl6 = getelementptr inbounds %"struct.std::_Vector_base", %"struct.std::_Vector_base"* %this1, i32 0, i32 0, !dbg !1707
  call void @_ZNSt12_Vector_baseINSt7__cxx1112basic_stringIcSt11char_traitsIcESaIcEEESaIS5_EE12_Vector_implD2Ev(%"struct.std::_Vector_base<std::__cxx11::basic_string<char>, std::allocator<std::__cxx11::basic_string<char> > >::_Vector_impl"* %_M_impl6) #10, !dbg !1707
  br label %terminate.handler, !dbg !1707

terminate.handler:                                ; preds = %lpad
  %exn = load i8*, i8** %exn.slot, align 8, !dbg !1707
  call void @__clang_call_terminate(i8* %exn) #14, !dbg !1707
  unreachable, !dbg !1707
}

; Function Attrs: noinline noreturn nounwind
define linkonce_odr hidden void @__clang_call_terminate(i8* %0) #8 comdat {
  %2 = call i8* @__cxa_begin_catch(i8* %0) #10
  call void @_ZSt9terminatev() #14
  unreachable
}

declare dso_local i8* @__cxa_begin_catch(i8*)

declare dso_local void @_ZSt9terminatev()

; Function Attrs: noinline uwtable
define linkonce_odr dso_local void @_ZSt8_DestroyIPNSt7__cxx1112basic_stringIcSt11char_traitsIcESaIcEEEEvT_S7_(%"class.std::__cxx11::basic_string"* %__first, %"class.std::__cxx11::basic_string"* %__last) #0 comdat !dbg !1709 {
entry:
  %__first.addr = alloca %"class.std::__cxx11::basic_string"*, align 8
  %__last.addr = alloca %"class.std::__cxx11::basic_string"*, align 8
  store %"class.std::__cxx11::basic_string"* %__first, %"class.std::__cxx11::basic_string"** %__first.addr, align 8
  call void @llvm.dbg.declare(metadata %"class.std::__cxx11::basic_string"** %__first.addr, metadata !1714, metadata !DIExpression()), !dbg !1715
  store %"class.std::__cxx11::basic_string"* %__last, %"class.std::__cxx11::basic_string"** %__last.addr, align 8
  call void @llvm.dbg.declare(metadata %"class.std::__cxx11::basic_string"** %__last.addr, metadata !1716, metadata !DIExpression()), !dbg !1717
  %0 = load %"class.std::__cxx11::basic_string"*, %"class.std::__cxx11::basic_string"** %__first.addr, align 8, !dbg !1718
  %1 = load %"class.std::__cxx11::basic_string"*, %"class.std::__cxx11::basic_string"** %__last.addr, align 8, !dbg !1719
  call void @_ZNSt12_Destroy_auxILb0EE9__destroyIPNSt7__cxx1112basic_stringIcSt11char_traitsIcESaIcEEEEEvT_S9_(%"class.std::__cxx11::basic_string"* %0, %"class.std::__cxx11::basic_string"* %1), !dbg !1720
  ret void, !dbg !1721
}

; Function Attrs: noinline uwtable
define linkonce_odr dso_local void @_ZNSt12_Destroy_auxILb0EE9__destroyIPNSt7__cxx1112basic_stringIcSt11char_traitsIcESaIcEEEEEvT_S9_(%"class.std::__cxx11::basic_string"* %__first, %"class.std::__cxx11::basic_string"* %__last) #0 comdat align 2 !dbg !1722 {
entry:
  %__first.addr = alloca %"class.std::__cxx11::basic_string"*, align 8
  %__last.addr = alloca %"class.std::__cxx11::basic_string"*, align 8
  store %"class.std::__cxx11::basic_string"* %__first, %"class.std::__cxx11::basic_string"** %__first.addr, align 8
  call void @llvm.dbg.declare(metadata %"class.std::__cxx11::basic_string"** %__first.addr, metadata !1727, metadata !DIExpression()), !dbg !1728
  store %"class.std::__cxx11::basic_string"* %__last, %"class.std::__cxx11::basic_string"** %__last.addr, align 8
  call void @llvm.dbg.declare(metadata %"class.std::__cxx11::basic_string"** %__last.addr, metadata !1729, metadata !DIExpression()), !dbg !1730
  br label %for.cond, !dbg !1731

for.cond:                                         ; preds = %for.inc, %entry
  %0 = load %"class.std::__cxx11::basic_string"*, %"class.std::__cxx11::basic_string"** %__first.addr, align 8, !dbg !1732
  %1 = load %"class.std::__cxx11::basic_string"*, %"class.std::__cxx11::basic_string"** %__last.addr, align 8, !dbg !1735
  %cmp = icmp ne %"class.std::__cxx11::basic_string"* %0, %1, !dbg !1736
  br i1 %cmp, label %for.body, label %for.end, !dbg !1737

for.body:                                         ; preds = %for.cond
  %2 = load %"class.std::__cxx11::basic_string"*, %"class.std::__cxx11::basic_string"** %__first.addr, align 8, !dbg !1738
  %call = call %"class.std::__cxx11::basic_string"* @_ZSt11__addressofINSt7__cxx1112basic_stringIcSt11char_traitsIcESaIcEEEEPT_RS6_(%"class.std::__cxx11::basic_string"* dereferenceable(32) %2) #10, !dbg !1739
  call void @_ZSt8_DestroyINSt7__cxx1112basic_stringIcSt11char_traitsIcESaIcEEEEvPT_(%"class.std::__cxx11::basic_string"* %call), !dbg !1740
  br label %for.inc, !dbg !1740

for.inc:                                          ; preds = %for.body
  %3 = load %"class.std::__cxx11::basic_string"*, %"class.std::__cxx11::basic_string"** %__first.addr, align 8, !dbg !1741
  %incdec.ptr = getelementptr inbounds %"class.std::__cxx11::basic_string", %"class.std::__cxx11::basic_string"* %3, i32 1, !dbg !1741
  store %"class.std::__cxx11::basic_string"* %incdec.ptr, %"class.std::__cxx11::basic_string"** %__first.addr, align 8, !dbg !1741
  br label %for.cond, !dbg !1742, !llvm.loop !1743

for.end:                                          ; preds = %for.cond
  ret void, !dbg !1745
}

; Function Attrs: noinline nounwind uwtable
define linkonce_odr dso_local void @_ZSt8_DestroyINSt7__cxx1112basic_stringIcSt11char_traitsIcESaIcEEEEvPT_(%"class.std::__cxx11::basic_string"* %__pointer) #6 comdat !dbg !1746 {
entry:
  %__pointer.addr = alloca %"class.std::__cxx11::basic_string"*, align 8
  store %"class.std::__cxx11::basic_string"* %__pointer, %"class.std::__cxx11::basic_string"** %__pointer.addr, align 8
  call void @llvm.dbg.declare(metadata %"class.std::__cxx11::basic_string"** %__pointer.addr, metadata !1749, metadata !DIExpression()), !dbg !1750
  %0 = load %"class.std::__cxx11::basic_string"*, %"class.std::__cxx11::basic_string"** %__pointer.addr, align 8, !dbg !1751
  call void @_ZNSt7__cxx1112basic_stringIcSt11char_traitsIcESaIcEED1Ev(%"class.std::__cxx11::basic_string"* %0) #10, !dbg !1752
  ret void, !dbg !1753
}

; Function Attrs: noinline nounwind uwtable
define linkonce_odr dso_local %"class.std::__cxx11::basic_string"* @_ZSt11__addressofINSt7__cxx1112basic_stringIcSt11char_traitsIcESaIcEEEEPT_RS6_(%"class.std::__cxx11::basic_string"* dereferenceable(32) %__r) #6 comdat !dbg !1754 {
entry:
  %__r.addr = alloca %"class.std::__cxx11::basic_string"*, align 8
  store %"class.std::__cxx11::basic_string"* %__r, %"class.std::__cxx11::basic_string"** %__r.addr, align 8
  call void @llvm.dbg.declare(metadata %"class.std::__cxx11::basic_string"** %__r.addr, metadata !1758, metadata !DIExpression()), !dbg !1759
  %0 = load %"class.std::__cxx11::basic_string"*, %"class.std::__cxx11::basic_string"** %__r.addr, align 8, !dbg !1760
  ret %"class.std::__cxx11::basic_string"* %0, !dbg !1761
}

; Function Attrs: noinline uwtable
define linkonce_odr dso_local void @_ZNSt12_Vector_baseINSt7__cxx1112basic_stringIcSt11char_traitsIcESaIcEEESaIS5_EE13_M_deallocateEPS5_m(%"struct.std::_Vector_base"* %this, %"class.std::__cxx11::basic_string"* %__p, i64 %__n) #0 comdat align 2 !dbg !1762 {
entry:
  %this.addr = alloca %"struct.std::_Vector_base"*, align 8
  %__p.addr = alloca %"class.std::__cxx11::basic_string"*, align 8
  %__n.addr = alloca i64, align 8
  store %"struct.std::_Vector_base"* %this, %"struct.std::_Vector_base"** %this.addr, align 8
  call void @llvm.dbg.declare(metadata %"struct.std::_Vector_base"** %this.addr, metadata !1763, metadata !DIExpression()), !dbg !1764
  store %"class.std::__cxx11::basic_string"* %__p, %"class.std::__cxx11::basic_string"** %__p.addr, align 8
  call void @llvm.dbg.declare(metadata %"class.std::__cxx11::basic_string"** %__p.addr, metadata !1765, metadata !DIExpression()), !dbg !1766
  store i64 %__n, i64* %__n.addr, align 8
  call void @llvm.dbg.declare(metadata i64* %__n.addr, metadata !1767, metadata !DIExpression()), !dbg !1768
  %this1 = load %"struct.std::_Vector_base"*, %"struct.std::_Vector_base"** %this.addr, align 8
  %0 = load %"class.std::__cxx11::basic_string"*, %"class.std::__cxx11::basic_string"** %__p.addr, align 8, !dbg !1769
  %tobool = icmp ne %"class.std::__cxx11::basic_string"* %0, null, !dbg !1769
  br i1 %tobool, label %if.then, label %if.end, !dbg !1771

if.then:                                          ; preds = %entry
  %_M_impl = getelementptr inbounds %"struct.std::_Vector_base", %"struct.std::_Vector_base"* %this1, i32 0, i32 0, !dbg !1772
  %1 = bitcast %"struct.std::_Vector_base<std::__cxx11::basic_string<char>, std::allocator<std::__cxx11::basic_string<char> > >::_Vector_impl"* %_M_impl to %"class.std::allocator.0"*, !dbg !1772
  %2 = load %"class.std::__cxx11::basic_string"*, %"class.std::__cxx11::basic_string"** %__p.addr, align 8, !dbg !1773
  %3 = load i64, i64* %__n.addr, align 8, !dbg !1774
  call void @_ZNSt16allocator_traitsISaINSt7__cxx1112basic_stringIcSt11char_traitsIcESaIcEEEEE10deallocateERS6_PS5_m(%"class.std::allocator.0"* dereferenceable(1) %1, %"class.std::__cxx11::basic_string"* %2, i64 %3), !dbg !1775
  br label %if.end, !dbg !1775

if.end:                                           ; preds = %if.then, %entry
  ret void, !dbg !1776
}

; Function Attrs: noinline nounwind uwtable
define linkonce_odr dso_local void @_ZNSt12_Vector_baseINSt7__cxx1112basic_stringIcSt11char_traitsIcESaIcEEESaIS5_EE12_Vector_implD2Ev(%"struct.std::_Vector_base<std::__cxx11::basic_string<char>, std::allocator<std::__cxx11::basic_string<char> > >::_Vector_impl"* %this) unnamed_addr #6 comdat align 2 !dbg !1777 {
entry:
  %this.addr = alloca %"struct.std::_Vector_base<std::__cxx11::basic_string<char>, std::allocator<std::__cxx11::basic_string<char> > >::_Vector_impl"*, align 8
  store %"struct.std::_Vector_base<std::__cxx11::basic_string<char>, std::allocator<std::__cxx11::basic_string<char> > >::_Vector_impl"* %this, %"struct.std::_Vector_base<std::__cxx11::basic_string<char>, std::allocator<std::__cxx11::basic_string<char> > >::_Vector_impl"** %this.addr, align 8
  call void @llvm.dbg.declare(metadata %"struct.std::_Vector_base<std::__cxx11::basic_string<char>, std::allocator<std::__cxx11::basic_string<char> > >::_Vector_impl"** %this.addr, metadata !1779, metadata !DIExpression()), !dbg !1780
  %this1 = load %"struct.std::_Vector_base<std::__cxx11::basic_string<char>, std::allocator<std::__cxx11::basic_string<char> > >::_Vector_impl"*, %"struct.std::_Vector_base<std::__cxx11::basic_string<char>, std::allocator<std::__cxx11::basic_string<char> > >::_Vector_impl"** %this.addr, align 8
  %0 = bitcast %"struct.std::_Vector_base<std::__cxx11::basic_string<char>, std::allocator<std::__cxx11::basic_string<char> > >::_Vector_impl"* %this1 to %"class.std::allocator.0"*, !dbg !1781
  call void @_ZNSaINSt7__cxx1112basic_stringIcSt11char_traitsIcESaIcEEEED2Ev(%"class.std::allocator.0"* %0) #10, !dbg !1781
  ret void, !dbg !1783
}

; Function Attrs: noinline uwtable
define linkonce_odr dso_local void @_ZNSt16allocator_traitsISaINSt7__cxx1112basic_stringIcSt11char_traitsIcESaIcEEEEE10deallocateERS6_PS5_m(%"class.std::allocator.0"* dereferenceable(1) %__a, %"class.std::__cxx11::basic_string"* %__p, i64 %__n) #0 comdat align 2 !dbg !1784 {
entry:
  %__a.addr = alloca %"class.std::allocator.0"*, align 8
  %__p.addr = alloca %"class.std::__cxx11::basic_string"*, align 8
  %__n.addr = alloca i64, align 8
  store %"class.std::allocator.0"* %__a, %"class.std::allocator.0"** %__a.addr, align 8
  call void @llvm.dbg.declare(metadata %"class.std::allocator.0"** %__a.addr, metadata !1785, metadata !DIExpression()), !dbg !1786
  store %"class.std::__cxx11::basic_string"* %__p, %"class.std::__cxx11::basic_string"** %__p.addr, align 8
  call void @llvm.dbg.declare(metadata %"class.std::__cxx11::basic_string"** %__p.addr, metadata !1787, metadata !DIExpression()), !dbg !1788
  store i64 %__n, i64* %__n.addr, align 8
  call void @llvm.dbg.declare(metadata i64* %__n.addr, metadata !1789, metadata !DIExpression()), !dbg !1790
  %0 = load %"class.std::allocator.0"*, %"class.std::allocator.0"** %__a.addr, align 8, !dbg !1791
  %1 = bitcast %"class.std::allocator.0"* %0 to %"class.__gnu_cxx::new_allocator.1"*, !dbg !1791
  %2 = load %"class.std::__cxx11::basic_string"*, %"class.std::__cxx11::basic_string"** %__p.addr, align 8, !dbg !1792
  %3 = load i64, i64* %__n.addr, align 8, !dbg !1793
  call void @_ZN9__gnu_cxx13new_allocatorINSt7__cxx1112basic_stringIcSt11char_traitsIcESaIcEEEE10deallocateEPS6_m(%"class.__gnu_cxx::new_allocator.1"* %1, %"class.std::__cxx11::basic_string"* %2, i64 %3), !dbg !1794
  ret void, !dbg !1795
}

; Function Attrs: noinline nounwind uwtable
define linkonce_odr dso_local void @_ZN9__gnu_cxx13new_allocatorINSt7__cxx1112basic_stringIcSt11char_traitsIcESaIcEEEE10deallocateEPS6_m(%"class.__gnu_cxx::new_allocator.1"* %this, %"class.std::__cxx11::basic_string"* %__p, i64 %__t) #6 comdat align 2 !dbg !1796 {
entry:
  %this.addr = alloca %"class.__gnu_cxx::new_allocator.1"*, align 8
  %__p.addr = alloca %"class.std::__cxx11::basic_string"*, align 8
  %__t.addr = alloca i64, align 8
  store %"class.__gnu_cxx::new_allocator.1"* %this, %"class.__gnu_cxx::new_allocator.1"** %this.addr, align 8
  call void @llvm.dbg.declare(metadata %"class.__gnu_cxx::new_allocator.1"** %this.addr, metadata !1797, metadata !DIExpression()), !dbg !1798
  store %"class.std::__cxx11::basic_string"* %__p, %"class.std::__cxx11::basic_string"** %__p.addr, align 8
  call void @llvm.dbg.declare(metadata %"class.std::__cxx11::basic_string"** %__p.addr, metadata !1799, metadata !DIExpression()), !dbg !1800
  store i64 %__t, i64* %__t.addr, align 8
  call void @llvm.dbg.declare(metadata i64* %__t.addr, metadata !1801, metadata !DIExpression()), !dbg !1802
  %this1 = load %"class.__gnu_cxx::new_allocator.1"*, %"class.__gnu_cxx::new_allocator.1"** %this.addr, align 8
  %0 = load %"class.std::__cxx11::basic_string"*, %"class.std::__cxx11::basic_string"** %__p.addr, align 8, !dbg !1803
  %1 = bitcast %"class.std::__cxx11::basic_string"* %0 to i8*, !dbg !1803
  call void @_ZdlPv(i8* %1) #10, !dbg !1804
  ret void, !dbg !1805
}

; Function Attrs: nobuiltin nounwind
declare dso_local void @_ZdlPv(i8*) #7

; Function Attrs: noinline nounwind uwtable
define linkonce_odr dso_local void @_ZNSaINSt7__cxx1112basic_stringIcSt11char_traitsIcESaIcEEEED2Ev(%"class.std::allocator.0"* %this) unnamed_addr #6 comdat align 2 !dbg !1806 {
entry:
  %this.addr = alloca %"class.std::allocator.0"*, align 8
  store %"class.std::allocator.0"* %this, %"class.std::allocator.0"** %this.addr, align 8
  call void @llvm.dbg.declare(metadata %"class.std::allocator.0"** %this.addr, metadata !1807, metadata !DIExpression()), !dbg !1808
  %this1 = load %"class.std::allocator.0"*, %"class.std::allocator.0"** %this.addr, align 8
  %0 = bitcast %"class.std::allocator.0"* %this1 to %"class.__gnu_cxx::new_allocator.1"*, !dbg !1809
  call void @_ZN9__gnu_cxx13new_allocatorINSt7__cxx1112basic_stringIcSt11char_traitsIcESaIcEEEED2Ev(%"class.__gnu_cxx::new_allocator.1"* %0) #10, !dbg !1809
  ret void, !dbg !1811
}

; Function Attrs: noinline nounwind uwtable
define linkonce_odr dso_local void @_ZN9__gnu_cxx13new_allocatorINSt7__cxx1112basic_stringIcSt11char_traitsIcESaIcEEEED2Ev(%"class.__gnu_cxx::new_allocator.1"* %this) unnamed_addr #6 comdat align 2 !dbg !1812 {
entry:
  %this.addr = alloca %"class.__gnu_cxx::new_allocator.1"*, align 8
  store %"class.__gnu_cxx::new_allocator.1"* %this, %"class.__gnu_cxx::new_allocator.1"** %this.addr, align 8
  call void @llvm.dbg.declare(metadata %"class.__gnu_cxx::new_allocator.1"** %this.addr, metadata !1813, metadata !DIExpression()), !dbg !1814
  %this1 = load %"class.__gnu_cxx::new_allocator.1"*, %"class.__gnu_cxx::new_allocator.1"** %this.addr, align 8
  ret void, !dbg !1815
}

; Function Attrs: noinline uwtable
define linkonce_odr dso_local void @_ZNSt6vectorINSt7__cxx1112basic_stringIcSt11char_traitsIcESaIcEEESaIS5_EE12emplace_backIJS5_EEEvDpOT_(%"class.std::vector"* %this, %"class.std::__cxx11::basic_string"* dereferenceable(32) %__args) #0 comdat align 2 !dbg !1816 {
entry:
  %this.addr = alloca %"class.std::vector"*, align 8
  %__args.addr = alloca %"class.std::__cxx11::basic_string"*, align 8
  %agg.tmp = alloca %"class.__gnu_cxx::__normal_iterator", align 8
  store %"class.std::vector"* %this, %"class.std::vector"** %this.addr, align 8
  call void @llvm.dbg.declare(metadata %"class.std::vector"** %this.addr, metadata !1825, metadata !DIExpression()), !dbg !1826
  store %"class.std::__cxx11::basic_string"* %__args, %"class.std::__cxx11::basic_string"** %__args.addr, align 8
  call void @llvm.dbg.declare(metadata %"class.std::__cxx11::basic_string"** %__args.addr, metadata !1827, metadata !DIExpression()), !dbg !1828
  %this1 = load %"class.std::vector"*, %"class.std::vector"** %this.addr, align 8
  %0 = bitcast %"class.std::vector"* %this1 to %"struct.std::_Vector_base"*, !dbg !1829
  %_M_impl = getelementptr inbounds %"struct.std::_Vector_base", %"struct.std::_Vector_base"* %0, i32 0, i32 0, !dbg !1829
  %1 = bitcast %"struct.std::_Vector_base<std::__cxx11::basic_string<char>, std::allocator<std::__cxx11::basic_string<char> > >::_Vector_impl"* %_M_impl to %"struct.std::_Vector_base<std::__cxx11::basic_string<char>, std::allocator<std::__cxx11::basic_string<char> > >::_Vector_impl_data"*, !dbg !1831
  %_M_finish = getelementptr inbounds %"struct.std::_Vector_base<std::__cxx11::basic_string<char>, std::allocator<std::__cxx11::basic_string<char> > >::_Vector_impl_data", %"struct.std::_Vector_base<std::__cxx11::basic_string<char>, std::allocator<std::__cxx11::basic_string<char> > >::_Vector_impl_data"* %1, i32 0, i32 1, !dbg !1832
  %2 = load %"class.std::__cxx11::basic_string"*, %"class.std::__cxx11::basic_string"** %_M_finish, align 8, !dbg !1832
  %3 = bitcast %"class.std::vector"* %this1 to %"struct.std::_Vector_base"*, !dbg !1833
  %_M_impl2 = getelementptr inbounds %"struct.std::_Vector_base", %"struct.std::_Vector_base"* %3, i32 0, i32 0, !dbg !1833
  %4 = bitcast %"struct.std::_Vector_base<std::__cxx11::basic_string<char>, std::allocator<std::__cxx11::basic_string<char> > >::_Vector_impl"* %_M_impl2 to %"struct.std::_Vector_base<std::__cxx11::basic_string<char>, std::allocator<std::__cxx11::basic_string<char> > >::_Vector_impl_data"*, !dbg !1834
  %_M_end_of_storage = getelementptr inbounds %"struct.std::_Vector_base<std::__cxx11::basic_string<char>, std::allocator<std::__cxx11::basic_string<char> > >::_Vector_impl_data", %"struct.std::_Vector_base<std::__cxx11::basic_string<char>, std::allocator<std::__cxx11::basic_string<char> > >::_Vector_impl_data"* %4, i32 0, i32 2, !dbg !1835
  %5 = load %"class.std::__cxx11::basic_string"*, %"class.std::__cxx11::basic_string"** %_M_end_of_storage, align 8, !dbg !1835
  %cmp = icmp ne %"class.std::__cxx11::basic_string"* %2, %5, !dbg !1836
  br i1 %cmp, label %if.then, label %if.else, !dbg !1837

if.then:                                          ; preds = %entry
  %6 = bitcast %"class.std::vector"* %this1 to %"struct.std::_Vector_base"*, !dbg !1838
  %_M_impl3 = getelementptr inbounds %"struct.std::_Vector_base", %"struct.std::_Vector_base"* %6, i32 0, i32 0, !dbg !1838
  %7 = bitcast %"struct.std::_Vector_base<std::__cxx11::basic_string<char>, std::allocator<std::__cxx11::basic_string<char> > >::_Vector_impl"* %_M_impl3 to %"class.std::allocator.0"*, !dbg !1840
  %8 = bitcast %"class.std::vector"* %this1 to %"struct.std::_Vector_base"*, !dbg !1841
  %_M_impl4 = getelementptr inbounds %"struct.std::_Vector_base", %"struct.std::_Vector_base"* %8, i32 0, i32 0, !dbg !1841
  %9 = bitcast %"struct.std::_Vector_base<std::__cxx11::basic_string<char>, std::allocator<std::__cxx11::basic_string<char> > >::_Vector_impl"* %_M_impl4 to %"struct.std::_Vector_base<std::__cxx11::basic_string<char>, std::allocator<std::__cxx11::basic_string<char> > >::_Vector_impl_data"*, !dbg !1842
  %_M_finish5 = getelementptr inbounds %"struct.std::_Vector_base<std::__cxx11::basic_string<char>, std::allocator<std::__cxx11::basic_string<char> > >::_Vector_impl_data", %"struct.std::_Vector_base<std::__cxx11::basic_string<char>, std::allocator<std::__cxx11::basic_string<char> > >::_Vector_impl_data"* %9, i32 0, i32 1, !dbg !1843
  %10 = load %"class.std::__cxx11::basic_string"*, %"class.std::__cxx11::basic_string"** %_M_finish5, align 8, !dbg !1843
  %11 = load %"class.std::__cxx11::basic_string"*, %"class.std::__cxx11::basic_string"** %__args.addr, align 8, !dbg !1844
  %call = call dereferenceable(32) %"class.std::__cxx11::basic_string"* @_ZSt7forwardINSt7__cxx1112basic_stringIcSt11char_traitsIcESaIcEEEEOT_RNSt16remove_referenceIS6_E4typeE(%"class.std::__cxx11::basic_string"* dereferenceable(32) %11) #10, !dbg !1845
  call void @_ZNSt16allocator_traitsISaINSt7__cxx1112basic_stringIcSt11char_traitsIcESaIcEEEEE9constructIS5_JS5_EEEvRS6_PT_DpOT0_(%"class.std::allocator.0"* dereferenceable(1) %7, %"class.std::__cxx11::basic_string"* %10, %"class.std::__cxx11::basic_string"* dereferenceable(32) %call) #10, !dbg !1846
  %12 = bitcast %"class.std::vector"* %this1 to %"struct.std::_Vector_base"*, !dbg !1847
  %_M_impl6 = getelementptr inbounds %"struct.std::_Vector_base", %"struct.std::_Vector_base"* %12, i32 0, i32 0, !dbg !1847
  %13 = bitcast %"struct.std::_Vector_base<std::__cxx11::basic_string<char>, std::allocator<std::__cxx11::basic_string<char> > >::_Vector_impl"* %_M_impl6 to %"struct.std::_Vector_base<std::__cxx11::basic_string<char>, std::allocator<std::__cxx11::basic_string<char> > >::_Vector_impl_data"*, !dbg !1848
  %_M_finish7 = getelementptr inbounds %"struct.std::_Vector_base<std::__cxx11::basic_string<char>, std::allocator<std::__cxx11::basic_string<char> > >::_Vector_impl_data", %"struct.std::_Vector_base<std::__cxx11::basic_string<char>, std::allocator<std::__cxx11::basic_string<char> > >::_Vector_impl_data"* %13, i32 0, i32 1, !dbg !1849
  %14 = load %"class.std::__cxx11::basic_string"*, %"class.std::__cxx11::basic_string"** %_M_finish7, align 8, !dbg !1850
  %incdec.ptr = getelementptr inbounds %"class.std::__cxx11::basic_string", %"class.std::__cxx11::basic_string"* %14, i32 1, !dbg !1850
  store %"class.std::__cxx11::basic_string"* %incdec.ptr, %"class.std::__cxx11::basic_string"** %_M_finish7, align 8, !dbg !1850
  br label %if.end, !dbg !1851

if.else:                                          ; preds = %entry
  %call8 = call %"class.std::__cxx11::basic_string"* @_ZNSt6vectorINSt7__cxx1112basic_stringIcSt11char_traitsIcESaIcEEESaIS5_EE3endEv(%"class.std::vector"* %this1) #10, !dbg !1852
  %coerce.dive = getelementptr inbounds %"class.__gnu_cxx::__normal_iterator", %"class.__gnu_cxx::__normal_iterator"* %agg.tmp, i32 0, i32 0, !dbg !1852
  store %"class.std::__cxx11::basic_string"* %call8, %"class.std::__cxx11::basic_string"** %coerce.dive, align 8, !dbg !1852
  %15 = load %"class.std::__cxx11::basic_string"*, %"class.std::__cxx11::basic_string"** %__args.addr, align 8, !dbg !1853
  %call9 = call dereferenceable(32) %"class.std::__cxx11::basic_string"* @_ZSt7forwardINSt7__cxx1112basic_stringIcSt11char_traitsIcESaIcEEEEOT_RNSt16remove_referenceIS6_E4typeE(%"class.std::__cxx11::basic_string"* dereferenceable(32) %15) #10, !dbg !1854
  %coerce.dive10 = getelementptr inbounds %"class.__gnu_cxx::__normal_iterator", %"class.__gnu_cxx::__normal_iterator"* %agg.tmp, i32 0, i32 0, !dbg !1855
  %16 = load %"class.std::__cxx11::basic_string"*, %"class.std::__cxx11::basic_string"** %coerce.dive10, align 8, !dbg !1855
  call void @_ZNSt6vectorINSt7__cxx1112basic_stringIcSt11char_traitsIcESaIcEEESaIS5_EE17_M_realloc_insertIJS5_EEEvN9__gnu_cxx17__normal_iteratorIPS5_S7_EEDpOT_(%"class.std::vector"* %this1, %"class.std::__cxx11::basic_string"* %16, %"class.std::__cxx11::basic_string"* dereferenceable(32) %call9), !dbg !1855
  br label %if.end

if.end:                                           ; preds = %if.else, %if.then
  ret void, !dbg !1856
}

; Function Attrs: noinline nounwind uwtable
define linkonce_odr dso_local dereferenceable(32) %"class.std::__cxx11::basic_string"* @_ZSt4moveIRNSt7__cxx1112basic_stringIcSt11char_traitsIcESaIcEEEEONSt16remove_referenceIT_E4typeEOS8_(%"class.std::__cxx11::basic_string"* dereferenceable(32) %__t) #6 comdat !dbg !1857 {
entry:
  %__t.addr = alloca %"class.std::__cxx11::basic_string"*, align 8
  store %"class.std::__cxx11::basic_string"* %__t, %"class.std::__cxx11::basic_string"** %__t.addr, align 8
  call void @llvm.dbg.declare(metadata %"class.std::__cxx11::basic_string"** %__t.addr, metadata !1865, metadata !DIExpression()), !dbg !1866
  %0 = load %"class.std::__cxx11::basic_string"*, %"class.std::__cxx11::basic_string"** %__t.addr, align 8, !dbg !1867
  ret %"class.std::__cxx11::basic_string"* %0, !dbg !1868
}

; Function Attrs: noinline nounwind uwtable
define linkonce_odr dso_local void @_ZNSt16allocator_traitsISaINSt7__cxx1112basic_stringIcSt11char_traitsIcESaIcEEEEE9constructIS5_JS5_EEEvRS6_PT_DpOT0_(%"class.std::allocator.0"* dereferenceable(1) %__a, %"class.std::__cxx11::basic_string"* %__p, %"class.std::__cxx11::basic_string"* dereferenceable(32) %__args) #6 comdat align 2 !dbg !1869 {
entry:
  %__a.addr = alloca %"class.std::allocator.0"*, align 8
  %__p.addr = alloca %"class.std::__cxx11::basic_string"*, align 8
  %__args.addr = alloca %"class.std::__cxx11::basic_string"*, align 8
  store %"class.std::allocator.0"* %__a, %"class.std::allocator.0"** %__a.addr, align 8
  call void @llvm.dbg.declare(metadata %"class.std::allocator.0"** %__a.addr, metadata !1875, metadata !DIExpression()), !dbg !1876
  store %"class.std::__cxx11::basic_string"* %__p, %"class.std::__cxx11::basic_string"** %__p.addr, align 8
  call void @llvm.dbg.declare(metadata %"class.std::__cxx11::basic_string"** %__p.addr, metadata !1877, metadata !DIExpression()), !dbg !1878
  store %"class.std::__cxx11::basic_string"* %__args, %"class.std::__cxx11::basic_string"** %__args.addr, align 8
  call void @llvm.dbg.declare(metadata %"class.std::__cxx11::basic_string"** %__args.addr, metadata !1879, metadata !DIExpression()), !dbg !1880
  %0 = load %"class.std::allocator.0"*, %"class.std::allocator.0"** %__a.addr, align 8, !dbg !1881
  %1 = bitcast %"class.std::allocator.0"* %0 to %"class.__gnu_cxx::new_allocator.1"*, !dbg !1881
  %2 = load %"class.std::__cxx11::basic_string"*, %"class.std::__cxx11::basic_string"** %__p.addr, align 8, !dbg !1882
  %3 = load %"class.std::__cxx11::basic_string"*, %"class.std::__cxx11::basic_string"** %__args.addr, align 8, !dbg !1883
  %call = call dereferenceable(32) %"class.std::__cxx11::basic_string"* @_ZSt7forwardINSt7__cxx1112basic_stringIcSt11char_traitsIcESaIcEEEEOT_RNSt16remove_referenceIS6_E4typeE(%"class.std::__cxx11::basic_string"* dereferenceable(32) %3) #10, !dbg !1884
  call void @_ZN9__gnu_cxx13new_allocatorINSt7__cxx1112basic_stringIcSt11char_traitsIcESaIcEEEE9constructIS6_JS6_EEEvPT_DpOT0_(%"class.__gnu_cxx::new_allocator.1"* %1, %"class.std::__cxx11::basic_string"* %2, %"class.std::__cxx11::basic_string"* dereferenceable(32) %call) #10, !dbg !1885
  ret void, !dbg !1886
}

; Function Attrs: noinline nounwind uwtable
define linkonce_odr dso_local dereferenceable(32) %"class.std::__cxx11::basic_string"* @_ZSt7forwardINSt7__cxx1112basic_stringIcSt11char_traitsIcESaIcEEEEOT_RNSt16remove_referenceIS6_E4typeE(%"class.std::__cxx11::basic_string"* dereferenceable(32) %__t) #6 comdat !dbg !1887 {
entry:
  %__t.addr = alloca %"class.std::__cxx11::basic_string"*, align 8
  store %"class.std::__cxx11::basic_string"* %__t, %"class.std::__cxx11::basic_string"** %__t.addr, align 8
  call void @llvm.dbg.declare(metadata %"class.std::__cxx11::basic_string"** %__t.addr, metadata !1893, metadata !DIExpression()), !dbg !1894
  %0 = load %"class.std::__cxx11::basic_string"*, %"class.std::__cxx11::basic_string"** %__t.addr, align 8, !dbg !1895
  ret %"class.std::__cxx11::basic_string"* %0, !dbg !1896
}

; Function Attrs: noinline uwtable
define linkonce_odr dso_local void @_ZNSt6vectorINSt7__cxx1112basic_stringIcSt11char_traitsIcESaIcEEESaIS5_EE17_M_realloc_insertIJS5_EEEvN9__gnu_cxx17__normal_iteratorIPS5_S7_EEDpOT_(%"class.std::vector"* %this, %"class.std::__cxx11::basic_string"* %__position.coerce, %"class.std::__cxx11::basic_string"* dereferenceable(32) %__args) #0 comdat align 2 !dbg !1897 {
entry:
  %__position = alloca %"class.__gnu_cxx::__normal_iterator", align 8
  %this.addr = alloca %"class.std::vector"*, align 8
  %__args.addr = alloca %"class.std::__cxx11::basic_string"*, align 8
  %__len = alloca i64, align 8
  %__old_start = alloca %"class.std::__cxx11::basic_string"*, align 8
  %__old_finish = alloca %"class.std::__cxx11::basic_string"*, align 8
  %__elems_before = alloca i64, align 8
  %ref.tmp = alloca %"class.__gnu_cxx::__normal_iterator", align 8
  %__new_start = alloca %"class.std::__cxx11::basic_string"*, align 8
  %__new_finish = alloca %"class.std::__cxx11::basic_string"*, align 8
  %coerce.dive = getelementptr inbounds %"class.__gnu_cxx::__normal_iterator", %"class.__gnu_cxx::__normal_iterator"* %__position, i32 0, i32 0
  store %"class.std::__cxx11::basic_string"* %__position.coerce, %"class.std::__cxx11::basic_string"** %coerce.dive, align 8
  store %"class.std::vector"* %this, %"class.std::vector"** %this.addr, align 8
  call void @llvm.dbg.declare(metadata %"class.std::vector"** %this.addr, metadata !1901, metadata !DIExpression()), !dbg !1902
  call void @llvm.dbg.declare(metadata %"class.__gnu_cxx::__normal_iterator"* %__position, metadata !1903, metadata !DIExpression()), !dbg !1904
  store %"class.std::__cxx11::basic_string"* %__args, %"class.std::__cxx11::basic_string"** %__args.addr, align 8
  call void @llvm.dbg.declare(metadata %"class.std::__cxx11::basic_string"** %__args.addr, metadata !1905, metadata !DIExpression()), !dbg !1906
  %this1 = load %"class.std::vector"*, %"class.std::vector"** %this.addr, align 8
  call void @llvm.dbg.declare(metadata i64* %__len, metadata !1907, metadata !DIExpression()), !dbg !1909
  %call = call i64 @_ZNKSt6vectorINSt7__cxx1112basic_stringIcSt11char_traitsIcESaIcEEESaIS5_EE12_M_check_lenEmPKc(%"class.std::vector"* %this1, i64 1, i8* getelementptr inbounds ([26 x i8], [26 x i8]* @.str.2, i64 0, i64 0)), !dbg !1910
  store i64 %call, i64* %__len, align 8, !dbg !1909
  call void @llvm.dbg.declare(metadata %"class.std::__cxx11::basic_string"** %__old_start, metadata !1911, metadata !DIExpression()), !dbg !1912
  %0 = bitcast %"class.std::vector"* %this1 to %"struct.std::_Vector_base"*, !dbg !1913
  %_M_impl = getelementptr inbounds %"struct.std::_Vector_base", %"struct.std::_Vector_base"* %0, i32 0, i32 0, !dbg !1913
  %1 = bitcast %"struct.std::_Vector_base<std::__cxx11::basic_string<char>, std::allocator<std::__cxx11::basic_string<char> > >::_Vector_impl"* %_M_impl to %"struct.std::_Vector_base<std::__cxx11::basic_string<char>, std::allocator<std::__cxx11::basic_string<char> > >::_Vector_impl_data"*, !dbg !1914
  %_M_start = getelementptr inbounds %"struct.std::_Vector_base<std::__cxx11::basic_string<char>, std::allocator<std::__cxx11::basic_string<char> > >::_Vector_impl_data", %"struct.std::_Vector_base<std::__cxx11::basic_string<char>, std::allocator<std::__cxx11::basic_string<char> > >::_Vector_impl_data"* %1, i32 0, i32 0, !dbg !1915
  %2 = load %"class.std::__cxx11::basic_string"*, %"class.std::__cxx11::basic_string"** %_M_start, align 8, !dbg !1915
  store %"class.std::__cxx11::basic_string"* %2, %"class.std::__cxx11::basic_string"** %__old_start, align 8, !dbg !1912
  call void @llvm.dbg.declare(metadata %"class.std::__cxx11::basic_string"** %__old_finish, metadata !1916, metadata !DIExpression()), !dbg !1917
  %3 = bitcast %"class.std::vector"* %this1 to %"struct.std::_Vector_base"*, !dbg !1918
  %_M_impl2 = getelementptr inbounds %"struct.std::_Vector_base", %"struct.std::_Vector_base"* %3, i32 0, i32 0, !dbg !1918
  %4 = bitcast %"struct.std::_Vector_base<std::__cxx11::basic_string<char>, std::allocator<std::__cxx11::basic_string<char> > >::_Vector_impl"* %_M_impl2 to %"struct.std::_Vector_base<std::__cxx11::basic_string<char>, std::allocator<std::__cxx11::basic_string<char> > >::_Vector_impl_data"*, !dbg !1919
  %_M_finish = getelementptr inbounds %"struct.std::_Vector_base<std::__cxx11::basic_string<char>, std::allocator<std::__cxx11::basic_string<char> > >::_Vector_impl_data", %"struct.std::_Vector_base<std::__cxx11::basic_string<char>, std::allocator<std::__cxx11::basic_string<char> > >::_Vector_impl_data"* %4, i32 0, i32 1, !dbg !1920
  %5 = load %"class.std::__cxx11::basic_string"*, %"class.std::__cxx11::basic_string"** %_M_finish, align 8, !dbg !1920
  store %"class.std::__cxx11::basic_string"* %5, %"class.std::__cxx11::basic_string"** %__old_finish, align 8, !dbg !1917
  call void @llvm.dbg.declare(metadata i64* %__elems_before, metadata !1921, metadata !DIExpression()), !dbg !1922
  %call3 = call %"class.std::__cxx11::basic_string"* @_ZNSt6vectorINSt7__cxx1112basic_stringIcSt11char_traitsIcESaIcEEESaIS5_EE5beginEv(%"class.std::vector"* %this1) #10, !dbg !1923
  %coerce.dive4 = getelementptr inbounds %"class.__gnu_cxx::__normal_iterator", %"class.__gnu_cxx::__normal_iterator"* %ref.tmp, i32 0, i32 0, !dbg !1923
  store %"class.std::__cxx11::basic_string"* %call3, %"class.std::__cxx11::basic_string"** %coerce.dive4, align 8, !dbg !1923
  %call5 = call i64 @_ZN9__gnu_cxxmiIPNSt7__cxx1112basic_stringIcSt11char_traitsIcESaIcEEESt6vectorIS6_SaIS6_EEEENS_17__normal_iteratorIT_T0_E15difference_typeERKSE_SH_(%"class.__gnu_cxx::__normal_iterator"* dereferenceable(8) %__position, %"class.__gnu_cxx::__normal_iterator"* dereferenceable(8) %ref.tmp) #10, !dbg !1924
  store i64 %call5, i64* %__elems_before, align 8, !dbg !1922
  call void @llvm.dbg.declare(metadata %"class.std::__cxx11::basic_string"** %__new_start, metadata !1925, metadata !DIExpression()), !dbg !1926
  %6 = bitcast %"class.std::vector"* %this1 to %"struct.std::_Vector_base"*, !dbg !1927
  %7 = load i64, i64* %__len, align 8, !dbg !1928
  %call6 = call %"class.std::__cxx11::basic_string"* @_ZNSt12_Vector_baseINSt7__cxx1112basic_stringIcSt11char_traitsIcESaIcEEESaIS5_EE11_M_allocateEm(%"struct.std::_Vector_base"* %6, i64 %7), !dbg !1927
  store %"class.std::__cxx11::basic_string"* %call6, %"class.std::__cxx11::basic_string"** %__new_start, align 8, !dbg !1926
  call void @llvm.dbg.declare(metadata %"class.std::__cxx11::basic_string"** %__new_finish, metadata !1929, metadata !DIExpression()), !dbg !1930
  %8 = load %"class.std::__cxx11::basic_string"*, %"class.std::__cxx11::basic_string"** %__new_start, align 8, !dbg !1931
  store %"class.std::__cxx11::basic_string"* %8, %"class.std::__cxx11::basic_string"** %__new_finish, align 8, !dbg !1930
  %9 = bitcast %"class.std::vector"* %this1 to %"struct.std::_Vector_base"*, !dbg !1932
  %_M_impl7 = getelementptr inbounds %"struct.std::_Vector_base", %"struct.std::_Vector_base"* %9, i32 0, i32 0, !dbg !1932
  %10 = bitcast %"struct.std::_Vector_base<std::__cxx11::basic_string<char>, std::allocator<std::__cxx11::basic_string<char> > >::_Vector_impl"* %_M_impl7 to %"class.std::allocator.0"*, !dbg !1934
  %11 = load %"class.std::__cxx11::basic_string"*, %"class.std::__cxx11::basic_string"** %__new_start, align 8, !dbg !1935
  %12 = load i64, i64* %__elems_before, align 8, !dbg !1936
  %add.ptr = getelementptr inbounds %"class.std::__cxx11::basic_string", %"class.std::__cxx11::basic_string"* %11, i64 %12, !dbg !1937
  %13 = load %"class.std::__cxx11::basic_string"*, %"class.std::__cxx11::basic_string"** %__args.addr, align 8, !dbg !1938
  %call8 = call dereferenceable(32) %"class.std::__cxx11::basic_string"* @_ZSt7forwardINSt7__cxx1112basic_stringIcSt11char_traitsIcESaIcEEEEOT_RNSt16remove_referenceIS6_E4typeE(%"class.std::__cxx11::basic_string"* dereferenceable(32) %13) #10, !dbg !1939
  call void @_ZNSt16allocator_traitsISaINSt7__cxx1112basic_stringIcSt11char_traitsIcESaIcEEEEE9constructIS5_JS5_EEEvRS6_PT_DpOT0_(%"class.std::allocator.0"* dereferenceable(1) %10, %"class.std::__cxx11::basic_string"* %add.ptr, %"class.std::__cxx11::basic_string"* dereferenceable(32) %call8) #10, !dbg !1940
  store %"class.std::__cxx11::basic_string"* null, %"class.std::__cxx11::basic_string"** %__new_finish, align 8, !dbg !1941
  %14 = load %"class.std::__cxx11::basic_string"*, %"class.std::__cxx11::basic_string"** %__old_start, align 8, !dbg !1942
  %call9 = call dereferenceable(8) %"class.std::__cxx11::basic_string"** @_ZNK9__gnu_cxx17__normal_iteratorIPNSt7__cxx1112basic_stringIcSt11char_traitsIcESaIcEEESt6vectorIS6_SaIS6_EEE4baseEv(%"class.__gnu_cxx::__normal_iterator"* %__position) #10, !dbg !1945
  %15 = load %"class.std::__cxx11::basic_string"*, %"class.std::__cxx11::basic_string"** %call9, align 8, !dbg !1945
  %16 = load %"class.std::__cxx11::basic_string"*, %"class.std::__cxx11::basic_string"** %__new_start, align 8, !dbg !1946
  %17 = bitcast %"class.std::vector"* %this1 to %"struct.std::_Vector_base"*, !dbg !1947
  %call10 = call dereferenceable(1) %"class.std::allocator.0"* @_ZNSt12_Vector_baseINSt7__cxx1112basic_stringIcSt11char_traitsIcESaIcEEESaIS5_EE19_M_get_Tp_allocatorEv(%"struct.std::_Vector_base"* %17) #10, !dbg !1947
  %call11 = call %"class.std::__cxx11::basic_string"* @_ZNSt6vectorINSt7__cxx1112basic_stringIcSt11char_traitsIcESaIcEEESaIS5_EE11_S_relocateEPS5_S8_S8_RS6_(%"class.std::__cxx11::basic_string"* %14, %"class.std::__cxx11::basic_string"* %15, %"class.std::__cxx11::basic_string"* %16, %"class.std::allocator.0"* dereferenceable(1) %call10) #10, !dbg !1948
  store %"class.std::__cxx11::basic_string"* %call11, %"class.std::__cxx11::basic_string"** %__new_finish, align 8, !dbg !1949
  %18 = load %"class.std::__cxx11::basic_string"*, %"class.std::__cxx11::basic_string"** %__new_finish, align 8, !dbg !1950
  %incdec.ptr = getelementptr inbounds %"class.std::__cxx11::basic_string", %"class.std::__cxx11::basic_string"* %18, i32 1, !dbg !1950
  store %"class.std::__cxx11::basic_string"* %incdec.ptr, %"class.std::__cxx11::basic_string"** %__new_finish, align 8, !dbg !1950
  %call12 = call dereferenceable(8) %"class.std::__cxx11::basic_string"** @_ZNK9__gnu_cxx17__normal_iteratorIPNSt7__cxx1112basic_stringIcSt11char_traitsIcESaIcEEESt6vectorIS6_SaIS6_EEE4baseEv(%"class.__gnu_cxx::__normal_iterator"* %__position) #10, !dbg !1951
  %19 = load %"class.std::__cxx11::basic_string"*, %"class.std::__cxx11::basic_string"** %call12, align 8, !dbg !1951
  %20 = load %"class.std::__cxx11::basic_string"*, %"class.std::__cxx11::basic_string"** %__old_finish, align 8, !dbg !1952
  %21 = load %"class.std::__cxx11::basic_string"*, %"class.std::__cxx11::basic_string"** %__new_finish, align 8, !dbg !1953
  %22 = bitcast %"class.std::vector"* %this1 to %"struct.std::_Vector_base"*, !dbg !1954
  %call13 = call dereferenceable(1) %"class.std::allocator.0"* @_ZNSt12_Vector_baseINSt7__cxx1112basic_stringIcSt11char_traitsIcESaIcEEESaIS5_EE19_M_get_Tp_allocatorEv(%"struct.std::_Vector_base"* %22) #10, !dbg !1954
  %call14 = call %"class.std::__cxx11::basic_string"* @_ZNSt6vectorINSt7__cxx1112basic_stringIcSt11char_traitsIcESaIcEEESaIS5_EE11_S_relocateEPS5_S8_S8_RS6_(%"class.std::__cxx11::basic_string"* %19, %"class.std::__cxx11::basic_string"* %20, %"class.std::__cxx11::basic_string"* %21, %"class.std::allocator.0"* dereferenceable(1) %call13) #10, !dbg !1955
  store %"class.std::__cxx11::basic_string"* %call14, %"class.std::__cxx11::basic_string"** %__new_finish, align 8, !dbg !1956
  %23 = bitcast %"class.std::vector"* %this1 to %"struct.std::_Vector_base"*, !dbg !1957
  %24 = load %"class.std::__cxx11::basic_string"*, %"class.std::__cxx11::basic_string"** %__old_start, align 8, !dbg !1958
  %25 = bitcast %"class.std::vector"* %this1 to %"struct.std::_Vector_base"*, !dbg !1959
  %_M_impl15 = getelementptr inbounds %"struct.std::_Vector_base", %"struct.std::_Vector_base"* %25, i32 0, i32 0, !dbg !1959
  %26 = bitcast %"struct.std::_Vector_base<std::__cxx11::basic_string<char>, std::allocator<std::__cxx11::basic_string<char> > >::_Vector_impl"* %_M_impl15 to %"struct.std::_Vector_base<std::__cxx11::basic_string<char>, std::allocator<std::__cxx11::basic_string<char> > >::_Vector_impl_data"*, !dbg !1960
  %_M_end_of_storage = getelementptr inbounds %"struct.std::_Vector_base<std::__cxx11::basic_string<char>, std::allocator<std::__cxx11::basic_string<char> > >::_Vector_impl_data", %"struct.std::_Vector_base<std::__cxx11::basic_string<char>, std::allocator<std::__cxx11::basic_string<char> > >::_Vector_impl_data"* %26, i32 0, i32 2, !dbg !1961
  %27 = load %"class.std::__cxx11::basic_string"*, %"class.std::__cxx11::basic_string"** %_M_end_of_storage, align 8, !dbg !1961
  %28 = load %"class.std::__cxx11::basic_string"*, %"class.std::__cxx11::basic_string"** %__old_start, align 8, !dbg !1962
  %sub.ptr.lhs.cast = ptrtoint %"class.std::__cxx11::basic_string"* %27 to i64, !dbg !1963
  %sub.ptr.rhs.cast = ptrtoint %"class.std::__cxx11::basic_string"* %28 to i64, !dbg !1963
  %sub.ptr.sub = sub i64 %sub.ptr.lhs.cast, %sub.ptr.rhs.cast, !dbg !1963
  %sub.ptr.div = sdiv exact i64 %sub.ptr.sub, 32, !dbg !1963
  call void @_ZNSt12_Vector_baseINSt7__cxx1112basic_stringIcSt11char_traitsIcESaIcEEESaIS5_EE13_M_deallocateEPS5_m(%"struct.std::_Vector_base"* %23, %"class.std::__cxx11::basic_string"* %24, i64 %sub.ptr.div), !dbg !1957
  %29 = load %"class.std::__cxx11::basic_string"*, %"class.std::__cxx11::basic_string"** %__new_start, align 8, !dbg !1964
  %30 = bitcast %"class.std::vector"* %this1 to %"struct.std::_Vector_base"*, !dbg !1965
  %_M_impl16 = getelementptr inbounds %"struct.std::_Vector_base", %"struct.std::_Vector_base"* %30, i32 0, i32 0, !dbg !1965
  %31 = bitcast %"struct.std::_Vector_base<std::__cxx11::basic_string<char>, std::allocator<std::__cxx11::basic_string<char> > >::_Vector_impl"* %_M_impl16 to %"struct.std::_Vector_base<std::__cxx11::basic_string<char>, std::allocator<std::__cxx11::basic_string<char> > >::_Vector_impl_data"*, !dbg !1966
  %_M_start17 = getelementptr inbounds %"struct.std::_Vector_base<std::__cxx11::basic_string<char>, std::allocator<std::__cxx11::basic_string<char> > >::_Vector_impl_data", %"struct.std::_Vector_base<std::__cxx11::basic_string<char>, std::allocator<std::__cxx11::basic_string<char> > >::_Vector_impl_data"* %31, i32 0, i32 0, !dbg !1967
  store %"class.std::__cxx11::basic_string"* %29, %"class.std::__cxx11::basic_string"** %_M_start17, align 8, !dbg !1968
  %32 = load %"class.std::__cxx11::basic_string"*, %"class.std::__cxx11::basic_string"** %__new_finish, align 8, !dbg !1969
  %33 = bitcast %"class.std::vector"* %this1 to %"struct.std::_Vector_base"*, !dbg !1970
  %_M_impl18 = getelementptr inbounds %"struct.std::_Vector_base", %"struct.std::_Vector_base"* %33, i32 0, i32 0, !dbg !1970
  %34 = bitcast %"struct.std::_Vector_base<std::__cxx11::basic_string<char>, std::allocator<std::__cxx11::basic_string<char> > >::_Vector_impl"* %_M_impl18 to %"struct.std::_Vector_base<std::__cxx11::basic_string<char>, std::allocator<std::__cxx11::basic_string<char> > >::_Vector_impl_data"*, !dbg !1971
  %_M_finish19 = getelementptr inbounds %"struct.std::_Vector_base<std::__cxx11::basic_string<char>, std::allocator<std::__cxx11::basic_string<char> > >::_Vector_impl_data", %"struct.std::_Vector_base<std::__cxx11::basic_string<char>, std::allocator<std::__cxx11::basic_string<char> > >::_Vector_impl_data"* %34, i32 0, i32 1, !dbg !1972
  store %"class.std::__cxx11::basic_string"* %32, %"class.std::__cxx11::basic_string"** %_M_finish19, align 8, !dbg !1973
  %35 = load %"class.std::__cxx11::basic_string"*, %"class.std::__cxx11::basic_string"** %__new_start, align 8, !dbg !1974
  %36 = load i64, i64* %__len, align 8, !dbg !1975
  %add.ptr20 = getelementptr inbounds %"class.std::__cxx11::basic_string", %"class.std::__cxx11::basic_string"* %35, i64 %36, !dbg !1976
  %37 = bitcast %"class.std::vector"* %this1 to %"struct.std::_Vector_base"*, !dbg !1977
  %_M_impl21 = getelementptr inbounds %"struct.std::_Vector_base", %"struct.std::_Vector_base"* %37, i32 0, i32 0, !dbg !1977
  %38 = bitcast %"struct.std::_Vector_base<std::__cxx11::basic_string<char>, std::allocator<std::__cxx11::basic_string<char> > >::_Vector_impl"* %_M_impl21 to %"struct.std::_Vector_base<std::__cxx11::basic_string<char>, std::allocator<std::__cxx11::basic_string<char> > >::_Vector_impl_data"*, !dbg !1978
  %_M_end_of_storage22 = getelementptr inbounds %"struct.std::_Vector_base<std::__cxx11::basic_string<char>, std::allocator<std::__cxx11::basic_string<char> > >::_Vector_impl_data", %"struct.std::_Vector_base<std::__cxx11::basic_string<char>, std::allocator<std::__cxx11::basic_string<char> > >::_Vector_impl_data"* %38, i32 0, i32 2, !dbg !1979
  store %"class.std::__cxx11::basic_string"* %add.ptr20, %"class.std::__cxx11::basic_string"** %_M_end_of_storage22, align 8, !dbg !1980
  ret void, !dbg !1981
}

; Function Attrs: noinline nounwind uwtable
define linkonce_odr dso_local %"class.std::__cxx11::basic_string"* @_ZNSt6vectorINSt7__cxx1112basic_stringIcSt11char_traitsIcESaIcEEESaIS5_EE3endEv(%"class.std::vector"* %this) #6 comdat align 2 !dbg !1982 {
entry:
  %retval = alloca %"class.__gnu_cxx::__normal_iterator", align 8
  %this.addr = alloca %"class.std::vector"*, align 8
  store %"class.std::vector"* %this, %"class.std::vector"** %this.addr, align 8
  call void @llvm.dbg.declare(metadata %"class.std::vector"** %this.addr, metadata !1983, metadata !DIExpression()), !dbg !1984
  %this1 = load %"class.std::vector"*, %"class.std::vector"** %this.addr, align 8
  %0 = bitcast %"class.std::vector"* %this1 to %"struct.std::_Vector_base"*, !dbg !1985
  %_M_impl = getelementptr inbounds %"struct.std::_Vector_base", %"struct.std::_Vector_base"* %0, i32 0, i32 0, !dbg !1985
  %1 = bitcast %"struct.std::_Vector_base<std::__cxx11::basic_string<char>, std::allocator<std::__cxx11::basic_string<char> > >::_Vector_impl"* %_M_impl to %"struct.std::_Vector_base<std::__cxx11::basic_string<char>, std::allocator<std::__cxx11::basic_string<char> > >::_Vector_impl_data"*, !dbg !1986
  %_M_finish = getelementptr inbounds %"struct.std::_Vector_base<std::__cxx11::basic_string<char>, std::allocator<std::__cxx11::basic_string<char> > >::_Vector_impl_data", %"struct.std::_Vector_base<std::__cxx11::basic_string<char>, std::allocator<std::__cxx11::basic_string<char> > >::_Vector_impl_data"* %1, i32 0, i32 1, !dbg !1987
  call void @_ZN9__gnu_cxx17__normal_iteratorIPNSt7__cxx1112basic_stringIcSt11char_traitsIcESaIcEEESt6vectorIS6_SaIS6_EEEC2ERKS7_(%"class.__gnu_cxx::__normal_iterator"* %retval, %"class.std::__cxx11::basic_string"** dereferenceable(8) %_M_finish) #10, !dbg !1988
  %coerce.dive = getelementptr inbounds %"class.__gnu_cxx::__normal_iterator", %"class.__gnu_cxx::__normal_iterator"* %retval, i32 0, i32 0, !dbg !1989
  %2 = load %"class.std::__cxx11::basic_string"*, %"class.std::__cxx11::basic_string"** %coerce.dive, align 8, !dbg !1989
  ret %"class.std::__cxx11::basic_string"* %2, !dbg !1989
}

; Function Attrs: noinline nounwind uwtable
define linkonce_odr dso_local void @_ZN9__gnu_cxx13new_allocatorINSt7__cxx1112basic_stringIcSt11char_traitsIcESaIcEEEE9constructIS6_JS6_EEEvPT_DpOT0_(%"class.__gnu_cxx::new_allocator.1"* %this, %"class.std::__cxx11::basic_string"* %__p, %"class.std::__cxx11::basic_string"* dereferenceable(32) %__args) #6 comdat align 2 !dbg !1990 {
entry:
  %this.addr = alloca %"class.__gnu_cxx::new_allocator.1"*, align 8
  %__p.addr = alloca %"class.std::__cxx11::basic_string"*, align 8
  %__args.addr = alloca %"class.std::__cxx11::basic_string"*, align 8
  store %"class.__gnu_cxx::new_allocator.1"* %this, %"class.__gnu_cxx::new_allocator.1"** %this.addr, align 8
  call void @llvm.dbg.declare(metadata %"class.__gnu_cxx::new_allocator.1"** %this.addr, metadata !1994, metadata !DIExpression()), !dbg !1995
  store %"class.std::__cxx11::basic_string"* %__p, %"class.std::__cxx11::basic_string"** %__p.addr, align 8
  call void @llvm.dbg.declare(metadata %"class.std::__cxx11::basic_string"** %__p.addr, metadata !1996, metadata !DIExpression()), !dbg !1997
  store %"class.std::__cxx11::basic_string"* %__args, %"class.std::__cxx11::basic_string"** %__args.addr, align 8
  call void @llvm.dbg.declare(metadata %"class.std::__cxx11::basic_string"** %__args.addr, metadata !1998, metadata !DIExpression()), !dbg !1999
  %this1 = load %"class.__gnu_cxx::new_allocator.1"*, %"class.__gnu_cxx::new_allocator.1"** %this.addr, align 8
  %0 = load %"class.std::__cxx11::basic_string"*, %"class.std::__cxx11::basic_string"** %__p.addr, align 8, !dbg !2000
  %1 = bitcast %"class.std::__cxx11::basic_string"* %0 to i8*, !dbg !2000
  %2 = bitcast i8* %1 to %"class.std::__cxx11::basic_string"*, !dbg !2001
  %3 = load %"class.std::__cxx11::basic_string"*, %"class.std::__cxx11::basic_string"** %__args.addr, align 8, !dbg !2002
  %call = call dereferenceable(32) %"class.std::__cxx11::basic_string"* @_ZSt7forwardINSt7__cxx1112basic_stringIcSt11char_traitsIcESaIcEEEEOT_RNSt16remove_referenceIS6_E4typeE(%"class.std::__cxx11::basic_string"* dereferenceable(32) %3) #10, !dbg !2003
  call void @_ZNSt7__cxx1112basic_stringIcSt11char_traitsIcESaIcEEC1EOS4_(%"class.std::__cxx11::basic_string"* %2, %"class.std::__cxx11::basic_string"* dereferenceable(32) %call) #10, !dbg !2004
  ret void, !dbg !2005
}

; Function Attrs: nounwind
declare dso_local void @_ZNSt7__cxx1112basic_stringIcSt11char_traitsIcESaIcEEC1EOS4_(%"class.std::__cxx11::basic_string"*, %"class.std::__cxx11::basic_string"* dereferenceable(32)) unnamed_addr #2

; Function Attrs: noinline uwtable
define linkonce_odr dso_local i64 @_ZNKSt6vectorINSt7__cxx1112basic_stringIcSt11char_traitsIcESaIcEEESaIS5_EE12_M_check_lenEmPKc(%"class.std::vector"* %this, i64 %__n, i8* %__s) #0 comdat align 2 !dbg !2006 {
entry:
  %this.addr = alloca %"class.std::vector"*, align 8
  %__n.addr = alloca i64, align 8
  %__s.addr = alloca i8*, align 8
  %__len = alloca i64, align 8
  %ref.tmp = alloca i64, align 8
  store %"class.std::vector"* %this, %"class.std::vector"** %this.addr, align 8
  call void @llvm.dbg.declare(metadata %"class.std::vector"** %this.addr, metadata !2007, metadata !DIExpression()), !dbg !2009
  store i64 %__n, i64* %__n.addr, align 8
  call void @llvm.dbg.declare(metadata i64* %__n.addr, metadata !2010, metadata !DIExpression()), !dbg !2011
  store i8* %__s, i8** %__s.addr, align 8
  call void @llvm.dbg.declare(metadata i8** %__s.addr, metadata !2012, metadata !DIExpression()), !dbg !2013
  %this1 = load %"class.std::vector"*, %"class.std::vector"** %this.addr, align 8
  %call = call i64 @_ZNKSt6vectorINSt7__cxx1112basic_stringIcSt11char_traitsIcESaIcEEESaIS5_EE8max_sizeEv(%"class.std::vector"* %this1) #10, !dbg !2014
  %call2 = call i64 @_ZNKSt6vectorINSt7__cxx1112basic_stringIcSt11char_traitsIcESaIcEEESaIS5_EE4sizeEv(%"class.std::vector"* %this1) #10, !dbg !2016
  %sub = sub i64 %call, %call2, !dbg !2017
  %0 = load i64, i64* %__n.addr, align 8, !dbg !2018
  %cmp = icmp ult i64 %sub, %0, !dbg !2019
  br i1 %cmp, label %if.then, label %if.end, !dbg !2020

if.then:                                          ; preds = %entry
  %1 = load i8*, i8** %__s.addr, align 8, !dbg !2021
  call void @_ZSt20__throw_length_errorPKc(i8* %1) #15, !dbg !2022
  unreachable, !dbg !2022

if.end:                                           ; preds = %entry
  call void @llvm.dbg.declare(metadata i64* %__len, metadata !2023, metadata !DIExpression()), !dbg !2024
  %call3 = call i64 @_ZNKSt6vectorINSt7__cxx1112basic_stringIcSt11char_traitsIcESaIcEEESaIS5_EE4sizeEv(%"class.std::vector"* %this1) #10, !dbg !2025
  %call4 = call i64 @_ZNKSt6vectorINSt7__cxx1112basic_stringIcSt11char_traitsIcESaIcEEESaIS5_EE4sizeEv(%"class.std::vector"* %this1) #10, !dbg !2026
  store i64 %call4, i64* %ref.tmp, align 8, !dbg !2026
  %call5 = call dereferenceable(8) i64* @_ZSt3maxImERKT_S2_S2_(i64* dereferenceable(8) %ref.tmp, i64* dereferenceable(8) %__n.addr), !dbg !2027
  %2 = load i64, i64* %call5, align 8, !dbg !2027
  %add = add i64 %call3, %2, !dbg !2028
  store i64 %add, i64* %__len, align 8, !dbg !2024
  %3 = load i64, i64* %__len, align 8, !dbg !2029
  %call6 = call i64 @_ZNKSt6vectorINSt7__cxx1112basic_stringIcSt11char_traitsIcESaIcEEESaIS5_EE4sizeEv(%"class.std::vector"* %this1) #10, !dbg !2030
  %cmp7 = icmp ult i64 %3, %call6, !dbg !2031
  br i1 %cmp7, label %cond.true, label %lor.lhs.false, !dbg !2032

lor.lhs.false:                                    ; preds = %if.end
  %4 = load i64, i64* %__len, align 8, !dbg !2033
  %call8 = call i64 @_ZNKSt6vectorINSt7__cxx1112basic_stringIcSt11char_traitsIcESaIcEEESaIS5_EE8max_sizeEv(%"class.std::vector"* %this1) #10, !dbg !2034
  %cmp9 = icmp ugt i64 %4, %call8, !dbg !2035
  br i1 %cmp9, label %cond.true, label %cond.false, !dbg !2036

cond.true:                                        ; preds = %lor.lhs.false, %if.end
  %call10 = call i64 @_ZNKSt6vectorINSt7__cxx1112basic_stringIcSt11char_traitsIcESaIcEEESaIS5_EE8max_sizeEv(%"class.std::vector"* %this1) #10, !dbg !2037
  br label %cond.end, !dbg !2036

cond.false:                                       ; preds = %lor.lhs.false
  %5 = load i64, i64* %__len, align 8, !dbg !2038
  br label %cond.end, !dbg !2036

cond.end:                                         ; preds = %cond.false, %cond.true
  %cond = phi i64 [ %call10, %cond.true ], [ %5, %cond.false ], !dbg !2036
  ret i64 %cond, !dbg !2039
}

; Function Attrs: noinline nounwind uwtable
define linkonce_odr dso_local i64 @_ZN9__gnu_cxxmiIPNSt7__cxx1112basic_stringIcSt11char_traitsIcESaIcEEESt6vectorIS6_SaIS6_EEEENS_17__normal_iteratorIT_T0_E15difference_typeERKSE_SH_(%"class.__gnu_cxx::__normal_iterator"* dereferenceable(8) %__lhs, %"class.__gnu_cxx::__normal_iterator"* dereferenceable(8) %__rhs) #6 comdat !dbg !2040 {
entry:
  %__lhs.addr = alloca %"class.__gnu_cxx::__normal_iterator"*, align 8
  %__rhs.addr = alloca %"class.__gnu_cxx::__normal_iterator"*, align 8
  store %"class.__gnu_cxx::__normal_iterator"* %__lhs, %"class.__gnu_cxx::__normal_iterator"** %__lhs.addr, align 8
  call void @llvm.dbg.declare(metadata %"class.__gnu_cxx::__normal_iterator"** %__lhs.addr, metadata !2044, metadata !DIExpression()), !dbg !2045
  store %"class.__gnu_cxx::__normal_iterator"* %__rhs, %"class.__gnu_cxx::__normal_iterator"** %__rhs.addr, align 8
  call void @llvm.dbg.declare(metadata %"class.__gnu_cxx::__normal_iterator"** %__rhs.addr, metadata !2046, metadata !DIExpression()), !dbg !2047
  %0 = load %"class.__gnu_cxx::__normal_iterator"*, %"class.__gnu_cxx::__normal_iterator"** %__lhs.addr, align 8, !dbg !2048
  %call = call dereferenceable(8) %"class.std::__cxx11::basic_string"** @_ZNK9__gnu_cxx17__normal_iteratorIPNSt7__cxx1112basic_stringIcSt11char_traitsIcESaIcEEESt6vectorIS6_SaIS6_EEE4baseEv(%"class.__gnu_cxx::__normal_iterator"* %0) #10, !dbg !2049
  %1 = load %"class.std::__cxx11::basic_string"*, %"class.std::__cxx11::basic_string"** %call, align 8, !dbg !2049
  %2 = load %"class.__gnu_cxx::__normal_iterator"*, %"class.__gnu_cxx::__normal_iterator"** %__rhs.addr, align 8, !dbg !2050
  %call1 = call dereferenceable(8) %"class.std::__cxx11::basic_string"** @_ZNK9__gnu_cxx17__normal_iteratorIPNSt7__cxx1112basic_stringIcSt11char_traitsIcESaIcEEESt6vectorIS6_SaIS6_EEE4baseEv(%"class.__gnu_cxx::__normal_iterator"* %2) #10, !dbg !2051
  %3 = load %"class.std::__cxx11::basic_string"*, %"class.std::__cxx11::basic_string"** %call1, align 8, !dbg !2051
  %sub.ptr.lhs.cast = ptrtoint %"class.std::__cxx11::basic_string"* %1 to i64, !dbg !2052
  %sub.ptr.rhs.cast = ptrtoint %"class.std::__cxx11::basic_string"* %3 to i64, !dbg !2052
  %sub.ptr.sub = sub i64 %sub.ptr.lhs.cast, %sub.ptr.rhs.cast, !dbg !2052
  %sub.ptr.div = sdiv exact i64 %sub.ptr.sub, 32, !dbg !2052
  ret i64 %sub.ptr.div, !dbg !2053
}

; Function Attrs: noinline nounwind uwtable
define linkonce_odr dso_local %"class.std::__cxx11::basic_string"* @_ZNSt6vectorINSt7__cxx1112basic_stringIcSt11char_traitsIcESaIcEEESaIS5_EE5beginEv(%"class.std::vector"* %this) #6 comdat align 2 !dbg !2054 {
entry:
  %retval = alloca %"class.__gnu_cxx::__normal_iterator", align 8
  %this.addr = alloca %"class.std::vector"*, align 8
  store %"class.std::vector"* %this, %"class.std::vector"** %this.addr, align 8
  call void @llvm.dbg.declare(metadata %"class.std::vector"** %this.addr, metadata !2055, metadata !DIExpression()), !dbg !2056
  %this1 = load %"class.std::vector"*, %"class.std::vector"** %this.addr, align 8
  %0 = bitcast %"class.std::vector"* %this1 to %"struct.std::_Vector_base"*, !dbg !2057
  %_M_impl = getelementptr inbounds %"struct.std::_Vector_base", %"struct.std::_Vector_base"* %0, i32 0, i32 0, !dbg !2057
  %1 = bitcast %"struct.std::_Vector_base<std::__cxx11::basic_string<char>, std::allocator<std::__cxx11::basic_string<char> > >::_Vector_impl"* %_M_impl to %"struct.std::_Vector_base<std::__cxx11::basic_string<char>, std::allocator<std::__cxx11::basic_string<char> > >::_Vector_impl_data"*, !dbg !2058
  %_M_start = getelementptr inbounds %"struct.std::_Vector_base<std::__cxx11::basic_string<char>, std::allocator<std::__cxx11::basic_string<char> > >::_Vector_impl_data", %"struct.std::_Vector_base<std::__cxx11::basic_string<char>, std::allocator<std::__cxx11::basic_string<char> > >::_Vector_impl_data"* %1, i32 0, i32 0, !dbg !2059
  call void @_ZN9__gnu_cxx17__normal_iteratorIPNSt7__cxx1112basic_stringIcSt11char_traitsIcESaIcEEESt6vectorIS6_SaIS6_EEEC2ERKS7_(%"class.__gnu_cxx::__normal_iterator"* %retval, %"class.std::__cxx11::basic_string"** dereferenceable(8) %_M_start) #10, !dbg !2060
  %coerce.dive = getelementptr inbounds %"class.__gnu_cxx::__normal_iterator", %"class.__gnu_cxx::__normal_iterator"* %retval, i32 0, i32 0, !dbg !2061
  %2 = load %"class.std::__cxx11::basic_string"*, %"class.std::__cxx11::basic_string"** %coerce.dive, align 8, !dbg !2061
  ret %"class.std::__cxx11::basic_string"* %2, !dbg !2061
}

; Function Attrs: noinline uwtable
define linkonce_odr dso_local %"class.std::__cxx11::basic_string"* @_ZNSt12_Vector_baseINSt7__cxx1112basic_stringIcSt11char_traitsIcESaIcEEESaIS5_EE11_M_allocateEm(%"struct.std::_Vector_base"* %this, i64 %__n) #0 comdat align 2 !dbg !2062 {
entry:
  %this.addr = alloca %"struct.std::_Vector_base"*, align 8
  %__n.addr = alloca i64, align 8
  store %"struct.std::_Vector_base"* %this, %"struct.std::_Vector_base"** %this.addr, align 8
  call void @llvm.dbg.declare(metadata %"struct.std::_Vector_base"** %this.addr, metadata !2063, metadata !DIExpression()), !dbg !2064
  store i64 %__n, i64* %__n.addr, align 8
  call void @llvm.dbg.declare(metadata i64* %__n.addr, metadata !2065, metadata !DIExpression()), !dbg !2066
  %this1 = load %"struct.std::_Vector_base"*, %"struct.std::_Vector_base"** %this.addr, align 8
  %0 = load i64, i64* %__n.addr, align 8, !dbg !2067
  %cmp = icmp ne i64 %0, 0, !dbg !2068
  br i1 %cmp, label %cond.true, label %cond.false, !dbg !2067

cond.true:                                        ; preds = %entry
  %_M_impl = getelementptr inbounds %"struct.std::_Vector_base", %"struct.std::_Vector_base"* %this1, i32 0, i32 0, !dbg !2069
  %1 = bitcast %"struct.std::_Vector_base<std::__cxx11::basic_string<char>, std::allocator<std::__cxx11::basic_string<char> > >::_Vector_impl"* %_M_impl to %"class.std::allocator.0"*, !dbg !2069
  %2 = load i64, i64* %__n.addr, align 8, !dbg !2070
  %call = call %"class.std::__cxx11::basic_string"* @_ZNSt16allocator_traitsISaINSt7__cxx1112basic_stringIcSt11char_traitsIcESaIcEEEEE8allocateERS6_m(%"class.std::allocator.0"* dereferenceable(1) %1, i64 %2), !dbg !2071
  br label %cond.end, !dbg !2067

cond.false:                                       ; preds = %entry
  br label %cond.end, !dbg !2067

cond.end:                                         ; preds = %cond.false, %cond.true
  %cond = phi %"class.std::__cxx11::basic_string"* [ %call, %cond.true ], [ null, %cond.false ], !dbg !2067
  ret %"class.std::__cxx11::basic_string"* %cond, !dbg !2072
}

; Function Attrs: noinline nounwind uwtable
define linkonce_odr dso_local %"class.std::__cxx11::basic_string"* @_ZNSt6vectorINSt7__cxx1112basic_stringIcSt11char_traitsIcESaIcEEESaIS5_EE11_S_relocateEPS5_S8_S8_RS6_(%"class.std::__cxx11::basic_string"* %__first, %"class.std::__cxx11::basic_string"* %__last, %"class.std::__cxx11::basic_string"* %__result, %"class.std::allocator.0"* dereferenceable(1) %__alloc) #6 comdat align 2 !dbg !555 {
entry:
  %__first.addr = alloca %"class.std::__cxx11::basic_string"*, align 8
  %__last.addr = alloca %"class.std::__cxx11::basic_string"*, align 8
  %__result.addr = alloca %"class.std::__cxx11::basic_string"*, align 8
  %__alloc.addr = alloca %"class.std::allocator.0"*, align 8
  %agg.tmp = alloca %"struct.std::integral_constant", align 1
  store %"class.std::__cxx11::basic_string"* %__first, %"class.std::__cxx11::basic_string"** %__first.addr, align 8
  call void @llvm.dbg.declare(metadata %"class.std::__cxx11::basic_string"** %__first.addr, metadata !2073, metadata !DIExpression()), !dbg !2074
  store %"class.std::__cxx11::basic_string"* %__last, %"class.std::__cxx11::basic_string"** %__last.addr, align 8
  call void @llvm.dbg.declare(metadata %"class.std::__cxx11::basic_string"** %__last.addr, metadata !2075, metadata !DIExpression()), !dbg !2076
  store %"class.std::__cxx11::basic_string"* %__result, %"class.std::__cxx11::basic_string"** %__result.addr, align 8
  call void @llvm.dbg.declare(metadata %"class.std::__cxx11::basic_string"** %__result.addr, metadata !2077, metadata !DIExpression()), !dbg !2078
  store %"class.std::allocator.0"* %__alloc, %"class.std::allocator.0"** %__alloc.addr, align 8
  call void @llvm.dbg.declare(metadata %"class.std::allocator.0"** %__alloc.addr, metadata !2079, metadata !DIExpression()), !dbg !2080
  %0 = load %"class.std::__cxx11::basic_string"*, %"class.std::__cxx11::basic_string"** %__first.addr, align 8, !dbg !2081
  %1 = load %"class.std::__cxx11::basic_string"*, %"class.std::__cxx11::basic_string"** %__last.addr, align 8, !dbg !2082
  %2 = load %"class.std::__cxx11::basic_string"*, %"class.std::__cxx11::basic_string"** %__result.addr, align 8, !dbg !2083
  %3 = load %"class.std::allocator.0"*, %"class.std::allocator.0"** %__alloc.addr, align 8, !dbg !2084
  %call = call %"class.std::__cxx11::basic_string"* @_ZNSt6vectorINSt7__cxx1112basic_stringIcSt11char_traitsIcESaIcEEESaIS5_EE14_S_do_relocateEPS5_S8_S8_RS6_St17integral_constantIbLb1EE(%"class.std::__cxx11::basic_string"* %0, %"class.std::__cxx11::basic_string"* %1, %"class.std::__cxx11::basic_string"* %2, %"class.std::allocator.0"* dereferenceable(1) %3) #10, !dbg !2085
  ret %"class.std::__cxx11::basic_string"* %call, !dbg !2086
}

; Function Attrs: noinline nounwind uwtable
define linkonce_odr dso_local dereferenceable(8) %"class.std::__cxx11::basic_string"** @_ZNK9__gnu_cxx17__normal_iteratorIPNSt7__cxx1112basic_stringIcSt11char_traitsIcESaIcEEESt6vectorIS6_SaIS6_EEE4baseEv(%"class.__gnu_cxx::__normal_iterator"* %this) #6 comdat align 2 !dbg !2087 {
entry:
  %this.addr = alloca %"class.__gnu_cxx::__normal_iterator"*, align 8
  store %"class.__gnu_cxx::__normal_iterator"* %this, %"class.__gnu_cxx::__normal_iterator"** %this.addr, align 8
  call void @llvm.dbg.declare(metadata %"class.__gnu_cxx::__normal_iterator"** %this.addr, metadata !2088, metadata !DIExpression()), !dbg !2090
  %this1 = load %"class.__gnu_cxx::__normal_iterator"*, %"class.__gnu_cxx::__normal_iterator"** %this.addr, align 8
  %_M_current = getelementptr inbounds %"class.__gnu_cxx::__normal_iterator", %"class.__gnu_cxx::__normal_iterator"* %this1, i32 0, i32 0, !dbg !2091
  ret %"class.std::__cxx11::basic_string"** %_M_current, !dbg !2092
}

; Function Attrs: noinline nounwind uwtable
define linkonce_odr dso_local i64 @_ZNKSt6vectorINSt7__cxx1112basic_stringIcSt11char_traitsIcESaIcEEESaIS5_EE8max_sizeEv(%"class.std::vector"* %this) #6 comdat align 2 !dbg !2093 {
entry:
  %this.addr = alloca %"class.std::vector"*, align 8
  store %"class.std::vector"* %this, %"class.std::vector"** %this.addr, align 8
  call void @llvm.dbg.declare(metadata %"class.std::vector"** %this.addr, metadata !2094, metadata !DIExpression()), !dbg !2095
  %this1 = load %"class.std::vector"*, %"class.std::vector"** %this.addr, align 8
  %0 = bitcast %"class.std::vector"* %this1 to %"struct.std::_Vector_base"*, !dbg !2096
  %call = call dereferenceable(1) %"class.std::allocator.0"* @_ZNKSt12_Vector_baseINSt7__cxx1112basic_stringIcSt11char_traitsIcESaIcEEESaIS5_EE19_M_get_Tp_allocatorEv(%"struct.std::_Vector_base"* %0) #10, !dbg !2096
  %call2 = call i64 @_ZNSt6vectorINSt7__cxx1112basic_stringIcSt11char_traitsIcESaIcEEESaIS5_EE11_S_max_sizeERKS6_(%"class.std::allocator.0"* dereferenceable(1) %call) #10, !dbg !2097
  ret i64 %call2, !dbg !2098
}

; Function Attrs: noinline nounwind uwtable
define linkonce_odr dso_local i64 @_ZNKSt6vectorINSt7__cxx1112basic_stringIcSt11char_traitsIcESaIcEEESaIS5_EE4sizeEv(%"class.std::vector"* %this) #6 comdat align 2 !dbg !2099 {
entry:
  %this.addr = alloca %"class.std::vector"*, align 8
  store %"class.std::vector"* %this, %"class.std::vector"** %this.addr, align 8
  call void @llvm.dbg.declare(metadata %"class.std::vector"** %this.addr, metadata !2100, metadata !DIExpression()), !dbg !2101
  %this1 = load %"class.std::vector"*, %"class.std::vector"** %this.addr, align 8
  %0 = bitcast %"class.std::vector"* %this1 to %"struct.std::_Vector_base"*, !dbg !2102
  %_M_impl = getelementptr inbounds %"struct.std::_Vector_base", %"struct.std::_Vector_base"* %0, i32 0, i32 0, !dbg !2102
  %1 = bitcast %"struct.std::_Vector_base<std::__cxx11::basic_string<char>, std::allocator<std::__cxx11::basic_string<char> > >::_Vector_impl"* %_M_impl to %"struct.std::_Vector_base<std::__cxx11::basic_string<char>, std::allocator<std::__cxx11::basic_string<char> > >::_Vector_impl_data"*, !dbg !2103
  %_M_finish = getelementptr inbounds %"struct.std::_Vector_base<std::__cxx11::basic_string<char>, std::allocator<std::__cxx11::basic_string<char> > >::_Vector_impl_data", %"struct.std::_Vector_base<std::__cxx11::basic_string<char>, std::allocator<std::__cxx11::basic_string<char> > >::_Vector_impl_data"* %1, i32 0, i32 1, !dbg !2104
  %2 = load %"class.std::__cxx11::basic_string"*, %"class.std::__cxx11::basic_string"** %_M_finish, align 8, !dbg !2104
  %3 = bitcast %"class.std::vector"* %this1 to %"struct.std::_Vector_base"*, !dbg !2105
  %_M_impl2 = getelementptr inbounds %"struct.std::_Vector_base", %"struct.std::_Vector_base"* %3, i32 0, i32 0, !dbg !2105
  %4 = bitcast %"struct.std::_Vector_base<std::__cxx11::basic_string<char>, std::allocator<std::__cxx11::basic_string<char> > >::_Vector_impl"* %_M_impl2 to %"struct.std::_Vector_base<std::__cxx11::basic_string<char>, std::allocator<std::__cxx11::basic_string<char> > >::_Vector_impl_data"*, !dbg !2106
  %_M_start = getelementptr inbounds %"struct.std::_Vector_base<std::__cxx11::basic_string<char>, std::allocator<std::__cxx11::basic_string<char> > >::_Vector_impl_data", %"struct.std::_Vector_base<std::__cxx11::basic_string<char>, std::allocator<std::__cxx11::basic_string<char> > >::_Vector_impl_data"* %4, i32 0, i32 0, !dbg !2107
  %5 = load %"class.std::__cxx11::basic_string"*, %"class.std::__cxx11::basic_string"** %_M_start, align 8, !dbg !2107
  %sub.ptr.lhs.cast = ptrtoint %"class.std::__cxx11::basic_string"* %2 to i64, !dbg !2108
  %sub.ptr.rhs.cast = ptrtoint %"class.std::__cxx11::basic_string"* %5 to i64, !dbg !2108
  %sub.ptr.sub = sub i64 %sub.ptr.lhs.cast, %sub.ptr.rhs.cast, !dbg !2108
  %sub.ptr.div = sdiv exact i64 %sub.ptr.sub, 32, !dbg !2108
  ret i64 %sub.ptr.div, !dbg !2109
}

; Function Attrs: noreturn
declare dso_local void @_ZSt20__throw_length_errorPKc(i8*) #9

; Function Attrs: noinline nounwind uwtable
define linkonce_odr dso_local dereferenceable(8) i64* @_ZSt3maxImERKT_S2_S2_(i64* dereferenceable(8) %__a, i64* dereferenceable(8) %__b) #6 comdat !dbg !2110 {
entry:
  %retval = alloca i64*, align 8
  %__a.addr = alloca i64*, align 8
  %__b.addr = alloca i64*, align 8
  store i64* %__a, i64** %__a.addr, align 8
  call void @llvm.dbg.declare(metadata i64** %__a.addr, metadata !2118, metadata !DIExpression()), !dbg !2119
  store i64* %__b, i64** %__b.addr, align 8
  call void @llvm.dbg.declare(metadata i64** %__b.addr, metadata !2120, metadata !DIExpression()), !dbg !2121
  %0 = load i64*, i64** %__a.addr, align 8, !dbg !2122
  %1 = load i64, i64* %0, align 8, !dbg !2122
  %2 = load i64*, i64** %__b.addr, align 8, !dbg !2124
  %3 = load i64, i64* %2, align 8, !dbg !2124
  %cmp = icmp ult i64 %1, %3, !dbg !2125
  br i1 %cmp, label %if.then, label %if.end, !dbg !2126

if.then:                                          ; preds = %entry
  %4 = load i64*, i64** %__b.addr, align 8, !dbg !2127
  store i64* %4, i64** %retval, align 8, !dbg !2128
  br label %return, !dbg !2128

if.end:                                           ; preds = %entry
  %5 = load i64*, i64** %__a.addr, align 8, !dbg !2129
  store i64* %5, i64** %retval, align 8, !dbg !2130
  br label %return, !dbg !2130

return:                                           ; preds = %if.end, %if.then
  %6 = load i64*, i64** %retval, align 8, !dbg !2131
  ret i64* %6, !dbg !2131
}

; Function Attrs: noinline nounwind uwtable
define linkonce_odr dso_local i64 @_ZNSt6vectorINSt7__cxx1112basic_stringIcSt11char_traitsIcESaIcEEESaIS5_EE11_S_max_sizeERKS6_(%"class.std::allocator.0"* dereferenceable(1) %__a) #6 comdat align 2 personality i8* bitcast (i32 (...)* @__gxx_personality_v0 to i8*) !dbg !2132 {
entry:
  %__a.addr = alloca %"class.std::allocator.0"*, align 8
  %__diffmax = alloca i64, align 8
  %__allocmax = alloca i64, align 8
  store %"class.std::allocator.0"* %__a, %"class.std::allocator.0"** %__a.addr, align 8
  call void @llvm.dbg.declare(metadata %"class.std::allocator.0"** %__a.addr, metadata !2133, metadata !DIExpression()), !dbg !2134
  call void @llvm.dbg.declare(metadata i64* %__diffmax, metadata !2135, metadata !DIExpression()), !dbg !2137
  store i64 288230376151711743, i64* %__diffmax, align 8, !dbg !2137
  call void @llvm.dbg.declare(metadata i64* %__allocmax, metadata !2138, metadata !DIExpression()), !dbg !2139
  %0 = load %"class.std::allocator.0"*, %"class.std::allocator.0"** %__a.addr, align 8, !dbg !2140
  %call = call i64 @_ZNSt16allocator_traitsISaINSt7__cxx1112basic_stringIcSt11char_traitsIcESaIcEEEEE8max_sizeERKS6_(%"class.std::allocator.0"* dereferenceable(1) %0) #10, !dbg !2141
  store i64 %call, i64* %__allocmax, align 8, !dbg !2139
  %call1 = invoke dereferenceable(8) i64* @_ZSt3minImERKT_S2_S2_(i64* dereferenceable(8) %__diffmax, i64* dereferenceable(8) %__allocmax)
          to label %invoke.cont unwind label %terminate.lpad, !dbg !2142

invoke.cont:                                      ; preds = %entry
  %1 = load i64, i64* %call1, align 8, !dbg !2142
  ret i64 %1, !dbg !2143

terminate.lpad:                                   ; preds = %entry
  %2 = landingpad { i8*, i32 }
          catch i8* null, !dbg !2142
  %3 = extractvalue { i8*, i32 } %2, 0, !dbg !2142
  call void @__clang_call_terminate(i8* %3) #14, !dbg !2142
  unreachable, !dbg !2142
}

; Function Attrs: noinline nounwind uwtable
define linkonce_odr dso_local dereferenceable(1) %"class.std::allocator.0"* @_ZNKSt12_Vector_baseINSt7__cxx1112basic_stringIcSt11char_traitsIcESaIcEEESaIS5_EE19_M_get_Tp_allocatorEv(%"struct.std::_Vector_base"* %this) #6 comdat align 2 !dbg !2144 {
entry:
  %this.addr = alloca %"struct.std::_Vector_base"*, align 8
  store %"struct.std::_Vector_base"* %this, %"struct.std::_Vector_base"** %this.addr, align 8
  call void @llvm.dbg.declare(metadata %"struct.std::_Vector_base"** %this.addr, metadata !2145, metadata !DIExpression()), !dbg !2147
  %this1 = load %"struct.std::_Vector_base"*, %"struct.std::_Vector_base"** %this.addr, align 8
  %_M_impl = getelementptr inbounds %"struct.std::_Vector_base", %"struct.std::_Vector_base"* %this1, i32 0, i32 0, !dbg !2148
  %0 = bitcast %"struct.std::_Vector_base<std::__cxx11::basic_string<char>, std::allocator<std::__cxx11::basic_string<char> > >::_Vector_impl"* %_M_impl to %"class.std::allocator.0"*, !dbg !2149
  ret %"class.std::allocator.0"* %0, !dbg !2150
}

; Function Attrs: noinline nounwind uwtable
define linkonce_odr dso_local i64 @_ZNSt16allocator_traitsISaINSt7__cxx1112basic_stringIcSt11char_traitsIcESaIcEEEEE8max_sizeERKS6_(%"class.std::allocator.0"* dereferenceable(1) %__a) #6 comdat align 2 !dbg !2151 {
entry:
  %__a.addr = alloca %"class.std::allocator.0"*, align 8
  store %"class.std::allocator.0"* %__a, %"class.std::allocator.0"** %__a.addr, align 8
  call void @llvm.dbg.declare(metadata %"class.std::allocator.0"** %__a.addr, metadata !2152, metadata !DIExpression()), !dbg !2153
  %0 = load %"class.std::allocator.0"*, %"class.std::allocator.0"** %__a.addr, align 8, !dbg !2154
  %1 = bitcast %"class.std::allocator.0"* %0 to %"class.__gnu_cxx::new_allocator.1"*, !dbg !2154
  %call = call i64 @_ZNK9__gnu_cxx13new_allocatorINSt7__cxx1112basic_stringIcSt11char_traitsIcESaIcEEEE8max_sizeEv(%"class.__gnu_cxx::new_allocator.1"* %1) #10, !dbg !2155
  ret i64 %call, !dbg !2156
}

; Function Attrs: noinline nounwind uwtable
define linkonce_odr dso_local dereferenceable(8) i64* @_ZSt3minImERKT_S2_S2_(i64* dereferenceable(8) %__a, i64* dereferenceable(8) %__b) #6 comdat !dbg !2157 {
entry:
  %retval = alloca i64*, align 8
  %__a.addr = alloca i64*, align 8
  %__b.addr = alloca i64*, align 8
  store i64* %__a, i64** %__a.addr, align 8
  call void @llvm.dbg.declare(metadata i64** %__a.addr, metadata !2158, metadata !DIExpression()), !dbg !2159
  store i64* %__b, i64** %__b.addr, align 8
  call void @llvm.dbg.declare(metadata i64** %__b.addr, metadata !2160, metadata !DIExpression()), !dbg !2161
  %0 = load i64*, i64** %__b.addr, align 8, !dbg !2162
  %1 = load i64, i64* %0, align 8, !dbg !2162
  %2 = load i64*, i64** %__a.addr, align 8, !dbg !2164
  %3 = load i64, i64* %2, align 8, !dbg !2164
  %cmp = icmp ult i64 %1, %3, !dbg !2165
  br i1 %cmp, label %if.then, label %if.end, !dbg !2166

if.then:                                          ; preds = %entry
  %4 = load i64*, i64** %__b.addr, align 8, !dbg !2167
  store i64* %4, i64** %retval, align 8, !dbg !2168
  br label %return, !dbg !2168

if.end:                                           ; preds = %entry
  %5 = load i64*, i64** %__a.addr, align 8, !dbg !2169
  store i64* %5, i64** %retval, align 8, !dbg !2170
  br label %return, !dbg !2170

return:                                           ; preds = %if.end, %if.then
  %6 = load i64*, i64** %retval, align 8, !dbg !2171
  ret i64* %6, !dbg !2171
}

; Function Attrs: noinline nounwind uwtable
define linkonce_odr dso_local i64 @_ZNK9__gnu_cxx13new_allocatorINSt7__cxx1112basic_stringIcSt11char_traitsIcESaIcEEEE8max_sizeEv(%"class.__gnu_cxx::new_allocator.1"* %this) #6 comdat align 2 !dbg !2172 {
entry:
  %this.addr = alloca %"class.__gnu_cxx::new_allocator.1"*, align 8
  store %"class.__gnu_cxx::new_allocator.1"* %this, %"class.__gnu_cxx::new_allocator.1"** %this.addr, align 8
  call void @llvm.dbg.declare(metadata %"class.__gnu_cxx::new_allocator.1"** %this.addr, metadata !2173, metadata !DIExpression()), !dbg !2175
  %this1 = load %"class.__gnu_cxx::new_allocator.1"*, %"class.__gnu_cxx::new_allocator.1"** %this.addr, align 8
  %call = call i64 @_ZNK9__gnu_cxx13new_allocatorINSt7__cxx1112basic_stringIcSt11char_traitsIcESaIcEEEE11_M_max_sizeEv(%"class.__gnu_cxx::new_allocator.1"* %this1) #10, !dbg !2176
  ret i64 %call, !dbg !2177
}

; Function Attrs: noinline nounwind uwtable
define linkonce_odr dso_local i64 @_ZNK9__gnu_cxx13new_allocatorINSt7__cxx1112basic_stringIcSt11char_traitsIcESaIcEEEE11_M_max_sizeEv(%"class.__gnu_cxx::new_allocator.1"* %this) #6 comdat align 2 !dbg !2178 {
entry:
  %this.addr = alloca %"class.__gnu_cxx::new_allocator.1"*, align 8
  store %"class.__gnu_cxx::new_allocator.1"* %this, %"class.__gnu_cxx::new_allocator.1"** %this.addr, align 8
  call void @llvm.dbg.declare(metadata %"class.__gnu_cxx::new_allocator.1"** %this.addr, metadata !2179, metadata !DIExpression()), !dbg !2180
  %this1 = load %"class.__gnu_cxx::new_allocator.1"*, %"class.__gnu_cxx::new_allocator.1"** %this.addr, align 8
  ret i64 288230376151711743, !dbg !2181
}

; Function Attrs: noinline nounwind uwtable
define linkonce_odr dso_local void @_ZN9__gnu_cxx17__normal_iteratorIPNSt7__cxx1112basic_stringIcSt11char_traitsIcESaIcEEESt6vectorIS6_SaIS6_EEEC2ERKS7_(%"class.__gnu_cxx::__normal_iterator"* %this, %"class.std::__cxx11::basic_string"** dereferenceable(8) %__i) unnamed_addr #6 comdat align 2 !dbg !2182 {
entry:
  %this.addr = alloca %"class.__gnu_cxx::__normal_iterator"*, align 8
  %__i.addr = alloca %"class.std::__cxx11::basic_string"**, align 8
  store %"class.__gnu_cxx::__normal_iterator"* %this, %"class.__gnu_cxx::__normal_iterator"** %this.addr, align 8
  call void @llvm.dbg.declare(metadata %"class.__gnu_cxx::__normal_iterator"** %this.addr, metadata !2183, metadata !DIExpression()), !dbg !2185
  store %"class.std::__cxx11::basic_string"** %__i, %"class.std::__cxx11::basic_string"*** %__i.addr, align 8
  call void @llvm.dbg.declare(metadata %"class.std::__cxx11::basic_string"*** %__i.addr, metadata !2186, metadata !DIExpression()), !dbg !2187
  %this1 = load %"class.__gnu_cxx::__normal_iterator"*, %"class.__gnu_cxx::__normal_iterator"** %this.addr, align 8
  %_M_current = getelementptr inbounds %"class.__gnu_cxx::__normal_iterator", %"class.__gnu_cxx::__normal_iterator"* %this1, i32 0, i32 0, !dbg !2188
  %0 = load %"class.std::__cxx11::basic_string"**, %"class.std::__cxx11::basic_string"*** %__i.addr, align 8, !dbg !2189
  %1 = load %"class.std::__cxx11::basic_string"*, %"class.std::__cxx11::basic_string"** %0, align 8, !dbg !2189
  store %"class.std::__cxx11::basic_string"* %1, %"class.std::__cxx11::basic_string"** %_M_current, align 8, !dbg !2188
  ret void, !dbg !2190
}

; Function Attrs: noinline uwtable
define linkonce_odr dso_local %"class.std::__cxx11::basic_string"* @_ZNSt16allocator_traitsISaINSt7__cxx1112basic_stringIcSt11char_traitsIcESaIcEEEEE8allocateERS6_m(%"class.std::allocator.0"* dereferenceable(1) %__a, i64 %__n) #0 comdat align 2 !dbg !2191 {
entry:
  %__a.addr = alloca %"class.std::allocator.0"*, align 8
  %__n.addr = alloca i64, align 8
  store %"class.std::allocator.0"* %__a, %"class.std::allocator.0"** %__a.addr, align 8
  call void @llvm.dbg.declare(metadata %"class.std::allocator.0"** %__a.addr, metadata !2192, metadata !DIExpression()), !dbg !2193
  store i64 %__n, i64* %__n.addr, align 8
  call void @llvm.dbg.declare(metadata i64* %__n.addr, metadata !2194, metadata !DIExpression()), !dbg !2195
  %0 = load %"class.std::allocator.0"*, %"class.std::allocator.0"** %__a.addr, align 8, !dbg !2196
  %1 = bitcast %"class.std::allocator.0"* %0 to %"class.__gnu_cxx::new_allocator.1"*, !dbg !2196
  %2 = load i64, i64* %__n.addr, align 8, !dbg !2197
  %call = call %"class.std::__cxx11::basic_string"* @_ZN9__gnu_cxx13new_allocatorINSt7__cxx1112basic_stringIcSt11char_traitsIcESaIcEEEE8allocateEmPKv(%"class.__gnu_cxx::new_allocator.1"* %1, i64 %2, i8* null), !dbg !2198
  ret %"class.std::__cxx11::basic_string"* %call, !dbg !2199
}

; Function Attrs: noinline uwtable
define linkonce_odr dso_local %"class.std::__cxx11::basic_string"* @_ZN9__gnu_cxx13new_allocatorINSt7__cxx1112basic_stringIcSt11char_traitsIcESaIcEEEE8allocateEmPKv(%"class.__gnu_cxx::new_allocator.1"* %this, i64 %__n, i8* %0) #0 comdat align 2 !dbg !2200 {
entry:
  %this.addr = alloca %"class.__gnu_cxx::new_allocator.1"*, align 8
  %__n.addr = alloca i64, align 8
  %.addr = alloca i8*, align 8
  store %"class.__gnu_cxx::new_allocator.1"* %this, %"class.__gnu_cxx::new_allocator.1"** %this.addr, align 8
  call void @llvm.dbg.declare(metadata %"class.__gnu_cxx::new_allocator.1"** %this.addr, metadata !2201, metadata !DIExpression()), !dbg !2202
  store i64 %__n, i64* %__n.addr, align 8
  call void @llvm.dbg.declare(metadata i64* %__n.addr, metadata !2203, metadata !DIExpression()), !dbg !2204
  store i8* %0, i8** %.addr, align 8
  call void @llvm.dbg.declare(metadata i8** %.addr, metadata !2205, metadata !DIExpression()), !dbg !2206
  %this1 = load %"class.__gnu_cxx::new_allocator.1"*, %"class.__gnu_cxx::new_allocator.1"** %this.addr, align 8
  %1 = load i64, i64* %__n.addr, align 8, !dbg !2207
  %call = call i64 @_ZNK9__gnu_cxx13new_allocatorINSt7__cxx1112basic_stringIcSt11char_traitsIcESaIcEEEE11_M_max_sizeEv(%"class.__gnu_cxx::new_allocator.1"* %this1) #10, !dbg !2209
  %cmp = icmp ugt i64 %1, %call, !dbg !2210
  br i1 %cmp, label %if.then, label %if.end, !dbg !2211

if.then:                                          ; preds = %entry
  call void @_ZSt17__throw_bad_allocv() #15, !dbg !2212
  unreachable, !dbg !2212

if.end:                                           ; preds = %entry
  %2 = load i64, i64* %__n.addr, align 8, !dbg !2213
  %mul = mul i64 %2, 32, !dbg !2214
  %call2 = call i8* @_Znwm(i64 %mul), !dbg !2215
  %3 = bitcast i8* %call2 to %"class.std::__cxx11::basic_string"*, !dbg !2216
  ret %"class.std::__cxx11::basic_string"* %3, !dbg !2217
}

; Function Attrs: noreturn
declare dso_local void @_ZSt17__throw_bad_allocv() #9

; Function Attrs: nobuiltin
declare dso_local noalias i8* @_Znwm(i64) #5

; Function Attrs: noinline nounwind uwtable
define linkonce_odr dso_local %"class.std::__cxx11::basic_string"* @_ZNSt6vectorINSt7__cxx1112basic_stringIcSt11char_traitsIcESaIcEEESaIS5_EE14_S_do_relocateEPS5_S8_S8_RS6_St17integral_constantIbLb1EE(%"class.std::__cxx11::basic_string"* %__first, %"class.std::__cxx11::basic_string"* %__last, %"class.std::__cxx11::basic_string"* %__result, %"class.std::allocator.0"* dereferenceable(1) %__alloc) #6 comdat align 2 !dbg !2218 {
entry:
  %0 = alloca %"struct.std::integral_constant", align 1
  %__first.addr = alloca %"class.std::__cxx11::basic_string"*, align 8
  %__last.addr = alloca %"class.std::__cxx11::basic_string"*, align 8
  %__result.addr = alloca %"class.std::__cxx11::basic_string"*, align 8
  %__alloc.addr = alloca %"class.std::allocator.0"*, align 8
  store %"class.std::__cxx11::basic_string"* %__first, %"class.std::__cxx11::basic_string"** %__first.addr, align 8
  call void @llvm.dbg.declare(metadata %"class.std::__cxx11::basic_string"** %__first.addr, metadata !2219, metadata !DIExpression()), !dbg !2220
  store %"class.std::__cxx11::basic_string"* %__last, %"class.std::__cxx11::basic_string"** %__last.addr, align 8
  call void @llvm.dbg.declare(metadata %"class.std::__cxx11::basic_string"** %__last.addr, metadata !2221, metadata !DIExpression()), !dbg !2222
  store %"class.std::__cxx11::basic_string"* %__result, %"class.std::__cxx11::basic_string"** %__result.addr, align 8
  call void @llvm.dbg.declare(metadata %"class.std::__cxx11::basic_string"** %__result.addr, metadata !2223, metadata !DIExpression()), !dbg !2224
  store %"class.std::allocator.0"* %__alloc, %"class.std::allocator.0"** %__alloc.addr, align 8
  call void @llvm.dbg.declare(metadata %"class.std::allocator.0"** %__alloc.addr, metadata !2225, metadata !DIExpression()), !dbg !2226
  call void @llvm.dbg.declare(metadata %"struct.std::integral_constant"* %0, metadata !2227, metadata !DIExpression()), !dbg !2228
  %1 = load %"class.std::__cxx11::basic_string"*, %"class.std::__cxx11::basic_string"** %__first.addr, align 8, !dbg !2229
  %2 = load %"class.std::__cxx11::basic_string"*, %"class.std::__cxx11::basic_string"** %__last.addr, align 8, !dbg !2230
  %3 = load %"class.std::__cxx11::basic_string"*, %"class.std::__cxx11::basic_string"** %__result.addr, align 8, !dbg !2231
  %4 = load %"class.std::allocator.0"*, %"class.std::allocator.0"** %__alloc.addr, align 8, !dbg !2232
  %call = call %"class.std::__cxx11::basic_string"* @_ZSt12__relocate_aIPNSt7__cxx1112basic_stringIcSt11char_traitsIcESaIcEEES6_SaIS5_EET0_T_S9_S8_RT1_(%"class.std::__cxx11::basic_string"* %1, %"class.std::__cxx11::basic_string"* %2, %"class.std::__cxx11::basic_string"* %3, %"class.std::allocator.0"* dereferenceable(1) %4) #10, !dbg !2233
  ret %"class.std::__cxx11::basic_string"* %call, !dbg !2234
}

; Function Attrs: noinline nounwind uwtable
define linkonce_odr dso_local %"class.std::__cxx11::basic_string"* @_ZSt12__relocate_aIPNSt7__cxx1112basic_stringIcSt11char_traitsIcESaIcEEES6_SaIS5_EET0_T_S9_S8_RT1_(%"class.std::__cxx11::basic_string"* %__first, %"class.std::__cxx11::basic_string"* %__last, %"class.std::__cxx11::basic_string"* %__result, %"class.std::allocator.0"* dereferenceable(1) %__alloc) #6 comdat !dbg !2235 {
entry:
  %__first.addr = alloca %"class.std::__cxx11::basic_string"*, align 8
  %__last.addr = alloca %"class.std::__cxx11::basic_string"*, align 8
  %__result.addr = alloca %"class.std::__cxx11::basic_string"*, align 8
  %__alloc.addr = alloca %"class.std::allocator.0"*, align 8
  store %"class.std::__cxx11::basic_string"* %__first, %"class.std::__cxx11::basic_string"** %__first.addr, align 8
  call void @llvm.dbg.declare(metadata %"class.std::__cxx11::basic_string"** %__first.addr, metadata !2242, metadata !DIExpression()), !dbg !2243
  store %"class.std::__cxx11::basic_string"* %__last, %"class.std::__cxx11::basic_string"** %__last.addr, align 8
  call void @llvm.dbg.declare(metadata %"class.std::__cxx11::basic_string"** %__last.addr, metadata !2244, metadata !DIExpression()), !dbg !2245
  store %"class.std::__cxx11::basic_string"* %__result, %"class.std::__cxx11::basic_string"** %__result.addr, align 8
  call void @llvm.dbg.declare(metadata %"class.std::__cxx11::basic_string"** %__result.addr, metadata !2246, metadata !DIExpression()), !dbg !2247
  store %"class.std::allocator.0"* %__alloc, %"class.std::allocator.0"** %__alloc.addr, align 8
  call void @llvm.dbg.declare(metadata %"class.std::allocator.0"** %__alloc.addr, metadata !2248, metadata !DIExpression()), !dbg !2249
  %0 = load %"class.std::__cxx11::basic_string"*, %"class.std::__cxx11::basic_string"** %__first.addr, align 8, !dbg !2250
  %call = call %"class.std::__cxx11::basic_string"* @_ZSt12__niter_baseIPNSt7__cxx1112basic_stringIcSt11char_traitsIcESaIcEEEET_S7_(%"class.std::__cxx11::basic_string"* %0) #10, !dbg !2251
  %1 = load %"class.std::__cxx11::basic_string"*, %"class.std::__cxx11::basic_string"** %__last.addr, align 8, !dbg !2252
  %call1 = call %"class.std::__cxx11::basic_string"* @_ZSt12__niter_baseIPNSt7__cxx1112basic_stringIcSt11char_traitsIcESaIcEEEET_S7_(%"class.std::__cxx11::basic_string"* %1) #10, !dbg !2253
  %2 = load %"class.std::__cxx11::basic_string"*, %"class.std::__cxx11::basic_string"** %__result.addr, align 8, !dbg !2254
  %call2 = call %"class.std::__cxx11::basic_string"* @_ZSt12__niter_baseIPNSt7__cxx1112basic_stringIcSt11char_traitsIcESaIcEEEET_S7_(%"class.std::__cxx11::basic_string"* %2) #10, !dbg !2255
  %3 = load %"class.std::allocator.0"*, %"class.std::allocator.0"** %__alloc.addr, align 8, !dbg !2256
  %call3 = call %"class.std::__cxx11::basic_string"* @_ZSt14__relocate_a_1IPNSt7__cxx1112basic_stringIcSt11char_traitsIcESaIcEEES6_SaIS5_EET0_T_S9_S8_RT1_(%"class.std::__cxx11::basic_string"* %call, %"class.std::__cxx11::basic_string"* %call1, %"class.std::__cxx11::basic_string"* %call2, %"class.std::allocator.0"* dereferenceable(1) %3) #10, !dbg !2257
  ret %"class.std::__cxx11::basic_string"* %call3, !dbg !2258
}

; Function Attrs: noinline nounwind uwtable
define linkonce_odr dso_local %"class.std::__cxx11::basic_string"* @_ZSt14__relocate_a_1IPNSt7__cxx1112basic_stringIcSt11char_traitsIcESaIcEEES6_SaIS5_EET0_T_S9_S8_RT1_(%"class.std::__cxx11::basic_string"* %__first, %"class.std::__cxx11::basic_string"* %__last, %"class.std::__cxx11::basic_string"* %__result, %"class.std::allocator.0"* dereferenceable(1) %__alloc) #6 comdat !dbg !2259 {
entry:
  %__first.addr = alloca %"class.std::__cxx11::basic_string"*, align 8
  %__last.addr = alloca %"class.std::__cxx11::basic_string"*, align 8
  %__result.addr = alloca %"class.std::__cxx11::basic_string"*, align 8
  %__alloc.addr = alloca %"class.std::allocator.0"*, align 8
  %__cur = alloca %"class.std::__cxx11::basic_string"*, align 8
  store %"class.std::__cxx11::basic_string"* %__first, %"class.std::__cxx11::basic_string"** %__first.addr, align 8
  call void @llvm.dbg.declare(metadata %"class.std::__cxx11::basic_string"** %__first.addr, metadata !2260, metadata !DIExpression()), !dbg !2261
  store %"class.std::__cxx11::basic_string"* %__last, %"class.std::__cxx11::basic_string"** %__last.addr, align 8
  call void @llvm.dbg.declare(metadata %"class.std::__cxx11::basic_string"** %__last.addr, metadata !2262, metadata !DIExpression()), !dbg !2263
  store %"class.std::__cxx11::basic_string"* %__result, %"class.std::__cxx11::basic_string"** %__result.addr, align 8
  call void @llvm.dbg.declare(metadata %"class.std::__cxx11::basic_string"** %__result.addr, metadata !2264, metadata !DIExpression()), !dbg !2265
  store %"class.std::allocator.0"* %__alloc, %"class.std::allocator.0"** %__alloc.addr, align 8
  call void @llvm.dbg.declare(metadata %"class.std::allocator.0"** %__alloc.addr, metadata !2266, metadata !DIExpression()), !dbg !2267
  call void @llvm.dbg.declare(metadata %"class.std::__cxx11::basic_string"** %__cur, metadata !2268, metadata !DIExpression()), !dbg !2269
  %0 = load %"class.std::__cxx11::basic_string"*, %"class.std::__cxx11::basic_string"** %__result.addr, align 8, !dbg !2270
  store %"class.std::__cxx11::basic_string"* %0, %"class.std::__cxx11::basic_string"** %__cur, align 8, !dbg !2269
  br label %for.cond, !dbg !2271

for.cond:                                         ; preds = %for.inc, %entry
  %1 = load %"class.std::__cxx11::basic_string"*, %"class.std::__cxx11::basic_string"** %__first.addr, align 8, !dbg !2272
  %2 = load %"class.std::__cxx11::basic_string"*, %"class.std::__cxx11::basic_string"** %__last.addr, align 8, !dbg !2275
  %cmp = icmp ne %"class.std::__cxx11::basic_string"* %1, %2, !dbg !2276
  br i1 %cmp, label %for.body, label %for.end, !dbg !2277

for.body:                                         ; preds = %for.cond
  %3 = load %"class.std::__cxx11::basic_string"*, %"class.std::__cxx11::basic_string"** %__cur, align 8, !dbg !2278
  %call = call %"class.std::__cxx11::basic_string"* @_ZSt11__addressofINSt7__cxx1112basic_stringIcSt11char_traitsIcESaIcEEEEPT_RS6_(%"class.std::__cxx11::basic_string"* dereferenceable(32) %3) #10, !dbg !2279
  %4 = load %"class.std::__cxx11::basic_string"*, %"class.std::__cxx11::basic_string"** %__first.addr, align 8, !dbg !2280
  %call1 = call %"class.std::__cxx11::basic_string"* @_ZSt11__addressofINSt7__cxx1112basic_stringIcSt11char_traitsIcESaIcEEEEPT_RS6_(%"class.std::__cxx11::basic_string"* dereferenceable(32) %4) #10, !dbg !2281
  %5 = load %"class.std::allocator.0"*, %"class.std::allocator.0"** %__alloc.addr, align 8, !dbg !2282
  call void @_ZSt19__relocate_object_aINSt7__cxx1112basic_stringIcSt11char_traitsIcESaIcEEES5_SaIS5_EEvPT_PT0_RT1_(%"class.std::__cxx11::basic_string"* %call, %"class.std::__cxx11::basic_string"* %call1, %"class.std::allocator.0"* dereferenceable(1) %5) #10, !dbg !2283
  br label %for.inc, !dbg !2283

for.inc:                                          ; preds = %for.body
  %6 = load %"class.std::__cxx11::basic_string"*, %"class.std::__cxx11::basic_string"** %__first.addr, align 8, !dbg !2284
  %incdec.ptr = getelementptr inbounds %"class.std::__cxx11::basic_string", %"class.std::__cxx11::basic_string"* %6, i32 1, !dbg !2284
  store %"class.std::__cxx11::basic_string"* %incdec.ptr, %"class.std::__cxx11::basic_string"** %__first.addr, align 8, !dbg !2284
  %7 = load %"class.std::__cxx11::basic_string"*, %"class.std::__cxx11::basic_string"** %__cur, align 8, !dbg !2285
  %incdec.ptr2 = getelementptr inbounds %"class.std::__cxx11::basic_string", %"class.std::__cxx11::basic_string"* %7, i32 1, !dbg !2285
  store %"class.std::__cxx11::basic_string"* %incdec.ptr2, %"class.std::__cxx11::basic_string"** %__cur, align 8, !dbg !2285
  br label %for.cond, !dbg !2286, !llvm.loop !2287

for.end:                                          ; preds = %for.cond
  %8 = load %"class.std::__cxx11::basic_string"*, %"class.std::__cxx11::basic_string"** %__cur, align 8, !dbg !2289
  ret %"class.std::__cxx11::basic_string"* %8, !dbg !2290
}

; Function Attrs: noinline nounwind uwtable
define linkonce_odr dso_local %"class.std::__cxx11::basic_string"* @_ZSt12__niter_baseIPNSt7__cxx1112basic_stringIcSt11char_traitsIcESaIcEEEET_S7_(%"class.std::__cxx11::basic_string"* %__it) #6 comdat !dbg !2291 {
entry:
  %__it.addr = alloca %"class.std::__cxx11::basic_string"*, align 8
  store %"class.std::__cxx11::basic_string"* %__it, %"class.std::__cxx11::basic_string"** %__it.addr, align 8
  call void @llvm.dbg.declare(metadata %"class.std::__cxx11::basic_string"** %__it.addr, metadata !2294, metadata !DIExpression()), !dbg !2295
  %0 = load %"class.std::__cxx11::basic_string"*, %"class.std::__cxx11::basic_string"** %__it.addr, align 8, !dbg !2296
  ret %"class.std::__cxx11::basic_string"* %0, !dbg !2297
}

; Function Attrs: noinline nounwind uwtable
define linkonce_odr dso_local void @_ZSt19__relocate_object_aINSt7__cxx1112basic_stringIcSt11char_traitsIcESaIcEEES5_SaIS5_EEvPT_PT0_RT1_(%"class.std::__cxx11::basic_string"* noalias %__dest, %"class.std::__cxx11::basic_string"* noalias %__orig, %"class.std::allocator.0"* dereferenceable(1) %__alloc) #6 comdat !dbg !2298 {
entry:
  %__dest.addr = alloca %"class.std::__cxx11::basic_string"*, align 8
  %__orig.addr = alloca %"class.std::__cxx11::basic_string"*, align 8
  %__alloc.addr = alloca %"class.std::allocator.0"*, align 8
  store %"class.std::__cxx11::basic_string"* %__dest, %"class.std::__cxx11::basic_string"** %__dest.addr, align 8
  call void @llvm.dbg.declare(metadata %"class.std::__cxx11::basic_string"** %__dest.addr, metadata !2303, metadata !DIExpression()), !dbg !2304
  store %"class.std::__cxx11::basic_string"* %__orig, %"class.std::__cxx11::basic_string"** %__orig.addr, align 8
  call void @llvm.dbg.declare(metadata %"class.std::__cxx11::basic_string"** %__orig.addr, metadata !2305, metadata !DIExpression()), !dbg !2306
  store %"class.std::allocator.0"* %__alloc, %"class.std::allocator.0"** %__alloc.addr, align 8
  call void @llvm.dbg.declare(metadata %"class.std::allocator.0"** %__alloc.addr, metadata !2307, metadata !DIExpression()), !dbg !2308
  %0 = load %"class.std::allocator.0"*, %"class.std::allocator.0"** %__alloc.addr, align 8, !dbg !2309
  %1 = load %"class.std::__cxx11::basic_string"*, %"class.std::__cxx11::basic_string"** %__dest.addr, align 8, !dbg !2310
  %2 = load %"class.std::__cxx11::basic_string"*, %"class.std::__cxx11::basic_string"** %__orig.addr, align 8, !dbg !2311
  %call = call dereferenceable(32) %"class.std::__cxx11::basic_string"* @_ZSt4moveIRNSt7__cxx1112basic_stringIcSt11char_traitsIcESaIcEEEEONSt16remove_referenceIT_E4typeEOS8_(%"class.std::__cxx11::basic_string"* dereferenceable(32) %2) #10, !dbg !2312
  call void @_ZNSt16allocator_traitsISaINSt7__cxx1112basic_stringIcSt11char_traitsIcESaIcEEEEE9constructIS5_JS5_EEEvRS6_PT_DpOT0_(%"class.std::allocator.0"* dereferenceable(1) %0, %"class.std::__cxx11::basic_string"* %1, %"class.std::__cxx11::basic_string"* dereferenceable(32) %call) #10, !dbg !2313
  %3 = load %"class.std::allocator.0"*, %"class.std::allocator.0"** %__alloc.addr, align 8, !dbg !2314
  %4 = load %"class.std::__cxx11::basic_string"*, %"class.std::__cxx11::basic_string"** %__orig.addr, align 8, !dbg !2315
  %call1 = call %"class.std::__cxx11::basic_string"* @_ZSt11__addressofINSt7__cxx1112basic_stringIcSt11char_traitsIcESaIcEEEEPT_RS6_(%"class.std::__cxx11::basic_string"* dereferenceable(32) %4) #10, !dbg !2316
  call void @_ZNSt16allocator_traitsISaINSt7__cxx1112basic_stringIcSt11char_traitsIcESaIcEEEEE7destroyIS5_EEvRS6_PT_(%"class.std::allocator.0"* dereferenceable(1) %3, %"class.std::__cxx11::basic_string"* %call1) #10, !dbg !2317
  ret void, !dbg !2318
}

; Function Attrs: noinline nounwind uwtable
define linkonce_odr dso_local void @_ZNSt16allocator_traitsISaINSt7__cxx1112basic_stringIcSt11char_traitsIcESaIcEEEEE7destroyIS5_EEvRS6_PT_(%"class.std::allocator.0"* dereferenceable(1) %__a, %"class.std::__cxx11::basic_string"* %__p) #6 comdat align 2 !dbg !2319 {
entry:
  %__a.addr = alloca %"class.std::allocator.0"*, align 8
  %__p.addr = alloca %"class.std::__cxx11::basic_string"*, align 8
  store %"class.std::allocator.0"* %__a, %"class.std::allocator.0"** %__a.addr, align 8
  call void @llvm.dbg.declare(metadata %"class.std::allocator.0"** %__a.addr, metadata !2324, metadata !DIExpression()), !dbg !2325
  store %"class.std::__cxx11::basic_string"* %__p, %"class.std::__cxx11::basic_string"** %__p.addr, align 8
  call void @llvm.dbg.declare(metadata %"class.std::__cxx11::basic_string"** %__p.addr, metadata !2326, metadata !DIExpression()), !dbg !2327
  %0 = load %"class.std::allocator.0"*, %"class.std::allocator.0"** %__a.addr, align 8, !dbg !2328
  %1 = bitcast %"class.std::allocator.0"* %0 to %"class.__gnu_cxx::new_allocator.1"*, !dbg !2328
  %2 = load %"class.std::__cxx11::basic_string"*, %"class.std::__cxx11::basic_string"** %__p.addr, align 8, !dbg !2329
  call void @_ZN9__gnu_cxx13new_allocatorINSt7__cxx1112basic_stringIcSt11char_traitsIcESaIcEEEE7destroyIS6_EEvPT_(%"class.__gnu_cxx::new_allocator.1"* %1, %"class.std::__cxx11::basic_string"* %2) #10, !dbg !2330
  ret void, !dbg !2331
}

; Function Attrs: noinline nounwind uwtable
define linkonce_odr dso_local void @_ZN9__gnu_cxx13new_allocatorINSt7__cxx1112basic_stringIcSt11char_traitsIcESaIcEEEE7destroyIS6_EEvPT_(%"class.__gnu_cxx::new_allocator.1"* %this, %"class.std::__cxx11::basic_string"* %__p) #6 comdat align 2 !dbg !2332 {
entry:
  %this.addr = alloca %"class.__gnu_cxx::new_allocator.1"*, align 8
  %__p.addr = alloca %"class.std::__cxx11::basic_string"*, align 8
  store %"class.__gnu_cxx::new_allocator.1"* %this, %"class.__gnu_cxx::new_allocator.1"** %this.addr, align 8
  call void @llvm.dbg.declare(metadata %"class.__gnu_cxx::new_allocator.1"** %this.addr, metadata !2336, metadata !DIExpression()), !dbg !2337
  store %"class.std::__cxx11::basic_string"* %__p, %"class.std::__cxx11::basic_string"** %__p.addr, align 8
  call void @llvm.dbg.declare(metadata %"class.std::__cxx11::basic_string"** %__p.addr, metadata !2338, metadata !DIExpression()), !dbg !2339
  %this1 = load %"class.__gnu_cxx::new_allocator.1"*, %"class.__gnu_cxx::new_allocator.1"** %this.addr, align 8
  %0 = load %"class.std::__cxx11::basic_string"*, %"class.std::__cxx11::basic_string"** %__p.addr, align 8, !dbg !2340
  call void @_ZNSt7__cxx1112basic_stringIcSt11char_traitsIcESaIcEED1Ev(%"class.std::__cxx11::basic_string"* %0) #10, !dbg !2341
  ret void, !dbg !2342
}

attributes #0 = { noinline uwtable "correctly-rounded-divide-sqrt-fp-math"="false" "disable-tail-calls"="false" "frame-pointer"="all" "less-precise-fpmad"="false" "min-legal-vector-width"="0" "no-infs-fp-math"="false" "no-jump-tables"="false" "no-nans-fp-math"="false" "no-signed-zeros-fp-math"="false" "no-trapping-math"="false" "stack-protector-buffer-size"="8" "target-cpu"="x86-64" "target-features"="+cx8,+fxsr,+mmx,+sse,+sse2,+x87" "unsafe-fp-math"="false" "use-soft-float"="false" }
attributes #1 = { nounwind readnone speculatable willreturn }
attributes #2 = { nounwind "correctly-rounded-divide-sqrt-fp-math"="false" "disable-tail-calls"="false" "frame-pointer"="all" "less-precise-fpmad"="false" "no-infs-fp-math"="false" "no-nans-fp-math"="false" "no-signed-zeros-fp-math"="false" "no-trapping-math"="false" "stack-protector-buffer-size"="8" "target-cpu"="x86-64" "target-features"="+cx8,+fxsr,+mmx,+sse,+sse2,+x87" "unsafe-fp-math"="false" "use-soft-float"="false" }
attributes #3 = { "correctly-rounded-divide-sqrt-fp-math"="false" "disable-tail-calls"="false" "frame-pointer"="all" "less-precise-fpmad"="false" "no-infs-fp-math"="false" "no-nans-fp-math"="false" "no-signed-zeros-fp-math"="false" "no-trapping-math"="false" "stack-protector-buffer-size"="8" "target-cpu"="x86-64" "target-features"="+cx8,+fxsr,+mmx,+sse,+sse2,+x87" "unsafe-fp-math"="false" "use-soft-float"="false" }
attributes #4 = { nounwind readonly "correctly-rounded-divide-sqrt-fp-math"="false" "disable-tail-calls"="false" "frame-pointer"="all" "less-precise-fpmad"="false" "no-infs-fp-math"="false" "no-nans-fp-math"="false" "no-signed-zeros-fp-math"="false" "no-trapping-math"="false" "stack-protector-buffer-size"="8" "target-cpu"="x86-64" "target-features"="+cx8,+fxsr,+mmx,+sse,+sse2,+x87" "unsafe-fp-math"="false" "use-soft-float"="false" }
attributes #5 = { nobuiltin "correctly-rounded-divide-sqrt-fp-math"="false" "disable-tail-calls"="false" "frame-pointer"="all" "less-precise-fpmad"="false" "no-infs-fp-math"="false" "no-nans-fp-math"="false" "no-signed-zeros-fp-math"="false" "no-trapping-math"="false" "stack-protector-buffer-size"="8" "target-cpu"="x86-64" "target-features"="+cx8,+fxsr,+mmx,+sse,+sse2,+x87" "unsafe-fp-math"="false" "use-soft-float"="false" }
attributes #6 = { noinline nounwind uwtable "correctly-rounded-divide-sqrt-fp-math"="false" "disable-tail-calls"="false" "frame-pointer"="all" "less-precise-fpmad"="false" "min-legal-vector-width"="0" "no-infs-fp-math"="false" "no-jump-tables"="false" "no-nans-fp-math"="false" "no-signed-zeros-fp-math"="false" "no-trapping-math"="false" "stack-protector-buffer-size"="8" "target-cpu"="x86-64" "target-features"="+cx8,+fxsr,+mmx,+sse,+sse2,+x87" "unsafe-fp-math"="false" "use-soft-float"="false" }
attributes #7 = { nobuiltin nounwind "correctly-rounded-divide-sqrt-fp-math"="false" "disable-tail-calls"="false" "frame-pointer"="all" "less-precise-fpmad"="false" "no-infs-fp-math"="false" "no-nans-fp-math"="false" "no-signed-zeros-fp-math"="false" "no-trapping-math"="false" "stack-protector-buffer-size"="8" "target-cpu"="x86-64" "target-features"="+cx8,+fxsr,+mmx,+sse,+sse2,+x87" "unsafe-fp-math"="false" "use-soft-float"="false" }
attributes #8 = { noinline noreturn nounwind }
attributes #9 = { noreturn "correctly-rounded-divide-sqrt-fp-math"="false" "disable-tail-calls"="false" "frame-pointer"="all" "less-precise-fpmad"="false" "no-infs-fp-math"="false" "no-nans-fp-math"="false" "no-signed-zeros-fp-math"="false" "no-trapping-math"="false" "stack-protector-buffer-size"="8" "target-cpu"="x86-64" "target-features"="+cx8,+fxsr,+mmx,+sse,+sse2,+x87" "unsafe-fp-math"="false" "use-soft-float"="false" }
attributes #10 = { nounwind }
attributes #11 = { nounwind readonly }
attributes #12 = { builtin }
attributes #13 = { builtin nounwind }
attributes #14 = { noreturn nounwind }
attributes #15 = { noreturn }

!llvm.dbg.cu = !{!0}
!llvm.module.flags = !{!1416, !1417, !1418}
!llvm.ident = !{!1419}

!0 = distinct !DICompileUnit(language: DW_LANG_C_plus_plus_14, file: !1, producer: "clang version 10.0.1 (https://github.com/svkeerthy/IR2Vec-LoopOptimizationFramework.git 561ac470e63b728263a0ac06ef987886ac648486)", isOptimized: false, runtimeVersion: 0, emissionKind: FullDebug, enums: !2, retainedTypes: !3, imports: !557, splitDebugInlining: false, nameTableKind: None)
!1 = !DIFile(filename: "simulator/stringtokenizer.cc", directory: "/home/venkat/IF-DV/spec_build_release/CPU_2017/benchspec/CPU/520.omnetpp_r/build/build_base_ld-loop-ext-m64.0000")
!2 = !{}
!3 = !{!4, !10, !11, !13, !16, !82, !41, !554}
!4 = !DIDerivedType(tag: DW_TAG_typedef, name: "string", scope: !6, file: !5, line: 79, baseType: !7)
!5 = !DIFile(filename: "/usr/lib/gcc/x86_64-linux-gnu/10/../../../../include/c++/10/bits/stringfwd.h", directory: "")
!6 = !DINamespace(name: "std", scope: null)
!7 = !DICompositeType(tag: DW_TAG_class_type, name: "basic_string<char, std::char_traits<char>, std::allocator<char> >", scope: !9, file: !8, line: 1618, flags: DIFlagFwdDecl, identifier: "_ZTSNSt7__cxx1112basic_stringIcSt11char_traitsIcESaIcEEE")
!8 = !DIFile(filename: "/usr/lib/gcc/x86_64-linux-gnu/10/../../../../include/c++/10/bits/basic_string.tcc", directory: "")
!9 = !DINamespace(name: "__cxx11", scope: !6, exportSymbols: true)
!10 = !DIDerivedType(tag: DW_TAG_pointer_type, baseType: null, size: 64)
!11 = !DIDerivedType(tag: DW_TAG_typedef, name: "size_type", file: !12, line: 424, baseType: !13)
!12 = !DIFile(filename: "/usr/lib/gcc/x86_64-linux-gnu/10/../../../../include/c++/10/bits/stl_vector.h", directory: "")
!13 = !DIDerivedType(tag: DW_TAG_typedef, name: "size_t", scope: !6, file: !14, line: 260, baseType: !15)
!14 = !DIFile(filename: "/usr/lib/gcc/x86_64-linux-gnu/10/../../../../include/x86_64-linux-gnu/c++/10/bits/c++config.h", directory: "")
!15 = !DIBasicType(name: "long unsigned int", size: 64, encoding: DW_ATE_unsigned)
!16 = !DIDerivedType(tag: DW_TAG_typedef, name: "iterator", scope: !17, file: !12, line: 419, baseType: !496)
!17 = distinct !DICompositeType(tag: DW_TAG_class_type, name: "vector<std::__cxx11::basic_string<char, std::char_traits<char>, std::allocator<char> >, std::allocator<std::__cxx11::basic_string<char, std::char_traits<char>, std::allocator<char> > > >", scope: !6, file: !12, line: 389, size: 192, flags: DIFlagTypePassByReference | DIFlagNonTrivial, elements: !18, templateParams: !237, identifier: "_ZTSSt6vectorINSt7__cxx1112basic_stringIcSt11char_traitsIcESaIcEEESaIS5_EE")
!18 = !{!19, !238, !257, !273, !274, !280, !283, !286, !290, !296, !299, !305, !310, !314, !317, !320, !323, !326, !331, !332, !336, !339, !342, !345, !348, !351, !358, !359, !360, !365, !370, !371, !372, !373, !374, !375, !376, !379, !380, !383, !384, !385, !386, !389, !390, !398, !405, !408, !409, !410, !413, !416, !417, !418, !421, !424, !427, !431, !432, !435, !438, !441, !444, !447, !450, !453, !454, !455, !456, !457, !460, !461, !464, !465, !466, !473, !476, !481, !484, !487, !490, !493}
!19 = !DIDerivedType(tag: DW_TAG_inheritance, scope: !17, baseType: !20, flags: DIFlagProtected, extraData: i32 0)
!20 = distinct !DICompositeType(tag: DW_TAG_structure_type, name: "_Vector_base<std::__cxx11::basic_string<char, std::char_traits<char>, std::allocator<char> >, std::allocator<std::__cxx11::basic_string<char, std::char_traits<char>, std::allocator<char> > > >", scope: !6, file: !12, line: 84, size: 192, flags: DIFlagTypePassByReference | DIFlagNonTrivial, elements: !21, templateParams: !237, identifier: "_ZTSSt12_Vector_baseINSt7__cxx1112basic_stringIcSt11char_traitsIcESaIcEEESaIS5_EE")
!21 = !{!22, !188, !193, !198, !202, !205, !210, !213, !216, !220, !223, !226, !229, !230, !233, !236}
!22 = !DIDerivedType(tag: DW_TAG_member, name: "_M_impl", scope: !20, file: !12, line: 340, baseType: !23, size: 192)
!23 = distinct !DICompositeType(tag: DW_TAG_structure_type, name: "_Vector_impl", scope: !20, file: !12, line: 128, size: 192, flags: DIFlagTypePassByReference | DIFlagNonTrivial, elements: !24, identifier: "_ZTSNSt12_Vector_baseINSt7__cxx1112basic_stringIcSt11char_traitsIcESaIcEEESaIS5_EE12_Vector_implE")
!24 = !{!25, !143, !168, !172, !177, !181, !185}
!25 = !DIDerivedType(tag: DW_TAG_inheritance, scope: !23, baseType: !26, extraData: i32 0)
!26 = !DIDerivedType(tag: DW_TAG_typedef, name: "_Tp_alloc_type", scope: !20, file: !12, line: 87, baseType: !27)
!27 = !DIDerivedType(tag: DW_TAG_typedef, name: "other", scope: !29, file: !28, line: 120, baseType: !142)
!28 = !DIFile(filename: "/usr/lib/gcc/x86_64-linux-gnu/10/../../../../include/c++/10/ext/alloc_traits.h", directory: "")
!29 = distinct !DICompositeType(tag: DW_TAG_structure_type, name: "rebind<std::__cxx11::basic_string<char, std::char_traits<char>, std::allocator<char> > >", scope: !30, file: !28, line: 119, size: 8, flags: DIFlagTypePassByValue, elements: !2, templateParams: !91, identifier: "_ZTSN9__gnu_cxx14__alloc_traitsISaINSt7__cxx1112basic_stringIcSt11char_traitsIcESaIcEEEES6_E6rebindIS6_EE")
!30 = distinct !DICompositeType(tag: DW_TAG_structure_type, name: "__alloc_traits<std::allocator<std::__cxx11::basic_string<char, std::char_traits<char>, std::allocator<char> > >, std::__cxx11::basic_string<char, std::char_traits<char>, std::allocator<char> > >", scope: !31, file: !28, line: 48, size: 8, flags: DIFlagTypePassByValue, elements: !32, templateParams: !140, identifier: "_ZTSN9__gnu_cxx14__alloc_traitsISaINSt7__cxx1112basic_stringIcSt11char_traitsIcESaIcEEEES6_EE")
!31 = !DINamespace(name: "__gnu_cxx", scope: null)
!32 = !{!33, !126, !129, !132, !136, !137, !138, !139}
!33 = !DIDerivedType(tag: DW_TAG_inheritance, scope: !30, baseType: !34, extraData: i32 0)
!34 = distinct !DICompositeType(tag: DW_TAG_structure_type, name: "allocator_traits<std::allocator<std::__cxx11::basic_string<char, std::char_traits<char>, std::allocator<char> > > >", scope: !6, file: !35, line: 407, size: 8, flags: DIFlagTypePassByValue, elements: !36, templateParams: !124, identifier: "_ZTSSt16allocator_traitsISaINSt7__cxx1112basic_stringIcSt11char_traitsIcESaIcEEEEE")
!35 = !DIFile(filename: "/usr/lib/gcc/x86_64-linux-gnu/10/../../../../include/c++/10/bits/alloc_traits.h", directory: "")
!36 = !{!37, !108, !112, !115, !121}
!37 = !DISubprogram(name: "allocate", linkageName: "_ZNSt16allocator_traitsISaINSt7__cxx1112basic_stringIcSt11char_traitsIcESaIcEEEEE8allocateERS6_m", scope: !34, file: !35, line: 459, type: !38, scopeLine: 459, flags: DIFlagPrototyped | DIFlagStaticMember, spFlags: 0)
!38 = !DISubroutineType(types: !39)
!39 = !{!40, !42, !107}
!40 = !DIDerivedType(tag: DW_TAG_typedef, name: "pointer", scope: !34, file: !35, line: 416, baseType: !41)
!41 = !DIDerivedType(tag: DW_TAG_pointer_type, baseType: !7, size: 64)
!42 = !DIDerivedType(tag: DW_TAG_reference_type, baseType: !43, size: 64)
!43 = !DIDerivedType(tag: DW_TAG_typedef, name: "allocator_type", scope: !34, file: !35, line: 410, baseType: !44)
!44 = distinct !DICompositeType(tag: DW_TAG_class_type, name: "allocator<std::__cxx11::basic_string<char, std::char_traits<char>, std::allocator<char> > >", scope: !6, file: !45, line: 116, size: 8, flags: DIFlagTypePassByReference | DIFlagNonTrivial, elements: !46, templateParams: !91, identifier: "_ZTSSaINSt7__cxx1112basic_stringIcSt11char_traitsIcESaIcEEEE")
!45 = !DIFile(filename: "/usr/lib/gcc/x86_64-linux-gnu/10/../../../../include/c++/10/bits/allocator.h", directory: "")
!46 = !{!47, !93, !97, !102, !106}
!47 = !DIDerivedType(tag: DW_TAG_inheritance, scope: !44, baseType: !48, flags: DIFlagPublic, extraData: i32 0)
!48 = !DIDerivedType(tag: DW_TAG_typedef, name: "__allocator_base<std::__cxx11::basic_string<char> >", scope: !6, file: !49, line: 48, baseType: !50)
!49 = !DIFile(filename: "/usr/lib/gcc/x86_64-linux-gnu/10/../../../../include/x86_64-linux-gnu/c++/10/bits/c++allocator.h", directory: "")
!50 = distinct !DICompositeType(tag: DW_TAG_class_type, name: "new_allocator<std::__cxx11::basic_string<char, std::char_traits<char>, std::allocator<char> > >", scope: !31, file: !51, line: 55, size: 8, flags: DIFlagTypePassByReference | DIFlagNonTrivial, elements: !52, templateParams: !91, identifier: "_ZTSN9__gnu_cxx13new_allocatorINSt7__cxx1112basic_stringIcSt11char_traitsIcESaIcEEEEE")
!51 = !DIFile(filename: "/usr/lib/gcc/x86_64-linux-gnu/10/../../../../include/c++/10/ext/new_allocator.h", directory: "")
!52 = !{!53, !57, !62, !63, !70, !78, !84, !87, !90}
!53 = !DISubprogram(name: "new_allocator", scope: !50, file: !51, line: 79, type: !54, scopeLine: 79, flags: DIFlagPublic | DIFlagPrototyped, spFlags: 0)
!54 = !DISubroutineType(types: !55)
!55 = !{null, !56}
!56 = !DIDerivedType(tag: DW_TAG_pointer_type, baseType: !50, size: 64, flags: DIFlagArtificial | DIFlagObjectPointer)
!57 = !DISubprogram(name: "new_allocator", scope: !50, file: !51, line: 82, type: !58, scopeLine: 82, flags: DIFlagPublic | DIFlagPrototyped, spFlags: 0)
!58 = !DISubroutineType(types: !59)
!59 = !{null, !56, !60}
!60 = !DIDerivedType(tag: DW_TAG_reference_type, baseType: !61, size: 64)
!61 = !DIDerivedType(tag: DW_TAG_const_type, baseType: !50)
!62 = !DISubprogram(name: "~new_allocator", scope: !50, file: !51, line: 89, type: !54, scopeLine: 89, flags: DIFlagPublic | DIFlagPrototyped, spFlags: 0)
!63 = !DISubprogram(name: "address", linkageName: "_ZNK9__gnu_cxx13new_allocatorINSt7__cxx1112basic_stringIcSt11char_traitsIcESaIcEEEE7addressERS6_", scope: !50, file: !51, line: 92, type: !64, scopeLine: 92, flags: DIFlagPublic | DIFlagPrototyped, spFlags: 0)
!64 = !DISubroutineType(types: !65)
!65 = !{!66, !67, !68}
!66 = !DIDerivedType(tag: DW_TAG_typedef, name: "pointer", scope: !50, file: !51, line: 62, baseType: !41)
!67 = !DIDerivedType(tag: DW_TAG_pointer_type, baseType: !61, size: 64, flags: DIFlagArtificial | DIFlagObjectPointer)
!68 = !DIDerivedType(tag: DW_TAG_typedef, name: "reference", scope: !50, file: !51, line: 64, baseType: !69)
!69 = !DIDerivedType(tag: DW_TAG_reference_type, baseType: !7, size: 64)
!70 = !DISubprogram(name: "address", linkageName: "_ZNK9__gnu_cxx13new_allocatorINSt7__cxx1112basic_stringIcSt11char_traitsIcESaIcEEEE7addressERKS6_", scope: !50, file: !51, line: 96, type: !71, scopeLine: 96, flags: DIFlagPublic | DIFlagPrototyped, spFlags: 0)
!71 = !DISubroutineType(types: !72)
!72 = !{!73, !67, !76}
!73 = !DIDerivedType(tag: DW_TAG_typedef, name: "const_pointer", scope: !50, file: !51, line: 63, baseType: !74)
!74 = !DIDerivedType(tag: DW_TAG_pointer_type, baseType: !75, size: 64)
!75 = !DIDerivedType(tag: DW_TAG_const_type, baseType: !7)
!76 = !DIDerivedType(tag: DW_TAG_typedef, name: "const_reference", scope: !50, file: !51, line: 65, baseType: !77)
!77 = !DIDerivedType(tag: DW_TAG_reference_type, baseType: !75, size: 64)
!78 = !DISubprogram(name: "allocate", linkageName: "_ZN9__gnu_cxx13new_allocatorINSt7__cxx1112basic_stringIcSt11char_traitsIcESaIcEEEE8allocateEmPKv", scope: !50, file: !51, line: 103, type: !79, scopeLine: 103, flags: DIFlagPublic | DIFlagPrototyped, spFlags: 0)
!79 = !DISubroutineType(types: !80)
!80 = !{!41, !56, !81, !82}
!81 = !DIDerivedType(tag: DW_TAG_typedef, name: "size_type", file: !51, line: 59, baseType: !13)
!82 = !DIDerivedType(tag: DW_TAG_pointer_type, baseType: !83, size: 64)
!83 = !DIDerivedType(tag: DW_TAG_const_type, baseType: null)
!84 = !DISubprogram(name: "deallocate", linkageName: "_ZN9__gnu_cxx13new_allocatorINSt7__cxx1112basic_stringIcSt11char_traitsIcESaIcEEEE10deallocateEPS6_m", scope: !50, file: !51, line: 120, type: !85, scopeLine: 120, flags: DIFlagPublic | DIFlagPrototyped, spFlags: 0)
!85 = !DISubroutineType(types: !86)
!86 = !{null, !56, !41, !81}
!87 = !DISubprogram(name: "max_size", linkageName: "_ZNK9__gnu_cxx13new_allocatorINSt7__cxx1112basic_stringIcSt11char_traitsIcESaIcEEEE8max_sizeEv", scope: !50, file: !51, line: 142, type: !88, scopeLine: 142, flags: DIFlagPublic | DIFlagPrototyped, spFlags: 0)
!88 = !DISubroutineType(types: !89)
!89 = !{!81, !67}
!90 = !DISubprogram(name: "_M_max_size", linkageName: "_ZNK9__gnu_cxx13new_allocatorINSt7__cxx1112basic_stringIcSt11char_traitsIcESaIcEEEE11_M_max_sizeEv", scope: !50, file: !51, line: 185, type: !88, scopeLine: 185, flags: DIFlagPrototyped, spFlags: 0)
!91 = !{!92}
!92 = !DITemplateTypeParameter(name: "_Tp", type: !7)
!93 = !DISubprogram(name: "allocator", scope: !44, file: !45, line: 144, type: !94, scopeLine: 144, flags: DIFlagPublic | DIFlagPrototyped, spFlags: 0)
!94 = !DISubroutineType(types: !95)
!95 = !{null, !96}
!96 = !DIDerivedType(tag: DW_TAG_pointer_type, baseType: !44, size: 64, flags: DIFlagArtificial | DIFlagObjectPointer)
!97 = !DISubprogram(name: "allocator", scope: !44, file: !45, line: 147, type: !98, scopeLine: 147, flags: DIFlagPublic | DIFlagPrototyped, spFlags: 0)
!98 = !DISubroutineType(types: !99)
!99 = !{null, !96, !100}
!100 = !DIDerivedType(tag: DW_TAG_reference_type, baseType: !101, size: 64)
!101 = !DIDerivedType(tag: DW_TAG_const_type, baseType: !44)
!102 = !DISubprogram(name: "operator=", linkageName: "_ZNSaINSt7__cxx1112basic_stringIcSt11char_traitsIcESaIcEEEEaSERKS5_", scope: !44, file: !45, line: 152, type: !103, scopeLine: 152, flags: DIFlagPublic | DIFlagPrototyped, spFlags: 0)
!103 = !DISubroutineType(types: !104)
!104 = !{!105, !96, !100}
!105 = !DIDerivedType(tag: DW_TAG_reference_type, baseType: !44, size: 64)
!106 = !DISubprogram(name: "~allocator", scope: !44, file: !45, line: 162, type: !94, scopeLine: 162, flags: DIFlagPublic | DIFlagPrototyped, spFlags: 0)
!107 = !DIDerivedType(tag: DW_TAG_typedef, name: "size_type", file: !35, line: 431, baseType: !13)
!108 = !DISubprogram(name: "allocate", linkageName: "_ZNSt16allocator_traitsISaINSt7__cxx1112basic_stringIcSt11char_traitsIcESaIcEEEEE8allocateERS6_mPKv", scope: !34, file: !35, line: 473, type: !109, scopeLine: 473, flags: DIFlagPrototyped | DIFlagStaticMember, spFlags: 0)
!109 = !DISubroutineType(types: !110)
!110 = !{!40, !42, !107, !111}
!111 = !DIDerivedType(tag: DW_TAG_typedef, name: "const_void_pointer", file: !35, line: 425, baseType: !82)
!112 = !DISubprogram(name: "deallocate", linkageName: "_ZNSt16allocator_traitsISaINSt7__cxx1112basic_stringIcSt11char_traitsIcESaIcEEEEE10deallocateERS6_PS5_m", scope: !34, file: !35, line: 491, type: !113, scopeLine: 491, flags: DIFlagPrototyped | DIFlagStaticMember, spFlags: 0)
!113 = !DISubroutineType(types: !114)
!114 = !{null, !42, !40, !107}
!115 = !DISubprogram(name: "max_size", linkageName: "_ZNSt16allocator_traitsISaINSt7__cxx1112basic_stringIcSt11char_traitsIcESaIcEEEEE8max_sizeERKS6_", scope: !34, file: !35, line: 543, type: !116, scopeLine: 543, flags: DIFlagPrototyped | DIFlagStaticMember, spFlags: 0)
!116 = !DISubroutineType(types: !117)
!117 = !{!118, !119}
!118 = !DIDerivedType(tag: DW_TAG_typedef, name: "size_type", scope: !34, file: !35, line: 431, baseType: !13)
!119 = !DIDerivedType(tag: DW_TAG_reference_type, baseType: !120, size: 64)
!120 = !DIDerivedType(tag: DW_TAG_const_type, baseType: !43)
!121 = !DISubprogram(name: "select_on_container_copy_construction", linkageName: "_ZNSt16allocator_traitsISaINSt7__cxx1112basic_stringIcSt11char_traitsIcESaIcEEEEE37select_on_container_copy_constructionERKS6_", scope: !34, file: !35, line: 558, type: !122, scopeLine: 558, flags: DIFlagPrototyped | DIFlagStaticMember, spFlags: 0)
!122 = !DISubroutineType(types: !123)
!123 = !{!43, !119}
!124 = !{!125}
!125 = !DITemplateTypeParameter(name: "_Alloc", type: !44)
!126 = !DISubprogram(name: "_S_select_on_copy", linkageName: "_ZN9__gnu_cxx14__alloc_traitsISaINSt7__cxx1112basic_stringIcSt11char_traitsIcESaIcEEEES6_E17_S_select_on_copyERKS7_", scope: !30, file: !28, line: 97, type: !127, scopeLine: 97, flags: DIFlagPrototyped | DIFlagStaticMember, spFlags: 0)
!127 = !DISubroutineType(types: !128)
!128 = !{!44, !100}
!129 = !DISubprogram(name: "_S_on_swap", linkageName: "_ZN9__gnu_cxx14__alloc_traitsISaINSt7__cxx1112basic_stringIcSt11char_traitsIcESaIcEEEES6_E10_S_on_swapERS7_S9_", scope: !30, file: !28, line: 100, type: !130, scopeLine: 100, flags: DIFlagPrototyped | DIFlagStaticMember, spFlags: 0)
!130 = !DISubroutineType(types: !131)
!131 = !{null, !105, !105}
!132 = !DISubprogram(name: "_S_propagate_on_copy_assign", linkageName: "_ZN9__gnu_cxx14__alloc_traitsISaINSt7__cxx1112basic_stringIcSt11char_traitsIcESaIcEEEES6_E27_S_propagate_on_copy_assignEv", scope: !30, file: !28, line: 103, type: !133, scopeLine: 103, flags: DIFlagPrototyped | DIFlagStaticMember, spFlags: 0)
!133 = !DISubroutineType(types: !134)
!134 = !{!135}
!135 = !DIBasicType(name: "bool", size: 8, encoding: DW_ATE_boolean)
!136 = !DISubprogram(name: "_S_propagate_on_move_assign", linkageName: "_ZN9__gnu_cxx14__alloc_traitsISaINSt7__cxx1112basic_stringIcSt11char_traitsIcESaIcEEEES6_E27_S_propagate_on_move_assignEv", scope: !30, file: !28, line: 106, type: !133, scopeLine: 106, flags: DIFlagPrototyped | DIFlagStaticMember, spFlags: 0)
!137 = !DISubprogram(name: "_S_propagate_on_swap", linkageName: "_ZN9__gnu_cxx14__alloc_traitsISaINSt7__cxx1112basic_stringIcSt11char_traitsIcESaIcEEEES6_E20_S_propagate_on_swapEv", scope: !30, file: !28, line: 109, type: !133, scopeLine: 109, flags: DIFlagPrototyped | DIFlagStaticMember, spFlags: 0)
!138 = !DISubprogram(name: "_S_always_equal", linkageName: "_ZN9__gnu_cxx14__alloc_traitsISaINSt7__cxx1112basic_stringIcSt11char_traitsIcESaIcEEEES6_E15_S_always_equalEv", scope: !30, file: !28, line: 112, type: !133, scopeLine: 112, flags: DIFlagPrototyped | DIFlagStaticMember, spFlags: 0)
!139 = !DISubprogram(name: "_S_nothrow_move", linkageName: "_ZN9__gnu_cxx14__alloc_traitsISaINSt7__cxx1112basic_stringIcSt11char_traitsIcESaIcEEEES6_E15_S_nothrow_moveEv", scope: !30, file: !28, line: 115, type: !133, scopeLine: 115, flags: DIFlagPrototyped | DIFlagStaticMember, spFlags: 0)
!140 = !{!125, !141}
!141 = !DITemplateTypeParameter(type: !7)
!142 = !DIDerivedType(tag: DW_TAG_typedef, name: "rebind_alloc<std::__cxx11::basic_string<char> >", scope: !34, file: !35, line: 446, baseType: !44)
!143 = !DIDerivedType(tag: DW_TAG_inheritance, scope: !23, baseType: !144, extraData: i32 0)
!144 = distinct !DICompositeType(tag: DW_TAG_structure_type, name: "_Vector_impl_data", scope: !20, file: !12, line: 91, size: 192, flags: DIFlagTypePassByReference | DIFlagNonTrivial, elements: !145, identifier: "_ZTSNSt12_Vector_baseINSt7__cxx1112basic_stringIcSt11char_traitsIcESaIcEEESaIS5_EE17_Vector_impl_dataE")
!145 = !{!146, !149, !150, !151, !155, !159, !164}
!146 = !DIDerivedType(tag: DW_TAG_member, name: "_M_start", scope: !144, file: !12, line: 93, baseType: !147, size: 64)
!147 = !DIDerivedType(tag: DW_TAG_typedef, name: "pointer", scope: !20, file: !12, line: 89, baseType: !148)
!148 = !DIDerivedType(tag: DW_TAG_typedef, name: "pointer", scope: !30, file: !28, line: 57, baseType: !40)
!149 = !DIDerivedType(tag: DW_TAG_member, name: "_M_finish", scope: !144, file: !12, line: 94, baseType: !147, size: 64, offset: 64)
!150 = !DIDerivedType(tag: DW_TAG_member, name: "_M_end_of_storage", scope: !144, file: !12, line: 95, baseType: !147, size: 64, offset: 128)
!151 = !DISubprogram(name: "_Vector_impl_data", scope: !144, file: !12, line: 97, type: !152, scopeLine: 97, flags: DIFlagPrototyped, spFlags: 0)
!152 = !DISubroutineType(types: !153)
!153 = !{null, !154}
!154 = !DIDerivedType(tag: DW_TAG_pointer_type, baseType: !144, size: 64, flags: DIFlagArtificial | DIFlagObjectPointer)
!155 = !DISubprogram(name: "_Vector_impl_data", scope: !144, file: !12, line: 102, type: !156, scopeLine: 102, flags: DIFlagPrototyped, spFlags: 0)
!156 = !DISubroutineType(types: !157)
!157 = !{null, !154, !158}
!158 = !DIDerivedType(tag: DW_TAG_rvalue_reference_type, baseType: !144, size: 64)
!159 = !DISubprogram(name: "_M_copy_data", linkageName: "_ZNSt12_Vector_baseINSt7__cxx1112basic_stringIcSt11char_traitsIcESaIcEEESaIS5_EE17_Vector_impl_data12_M_copy_dataERKS8_", scope: !144, file: !12, line: 109, type: !160, scopeLine: 109, flags: DIFlagPrototyped, spFlags: 0)
!160 = !DISubroutineType(types: !161)
!161 = !{null, !154, !162}
!162 = !DIDerivedType(tag: DW_TAG_reference_type, baseType: !163, size: 64)
!163 = !DIDerivedType(tag: DW_TAG_const_type, baseType: !144)
!164 = !DISubprogram(name: "_M_swap_data", linkageName: "_ZNSt12_Vector_baseINSt7__cxx1112basic_stringIcSt11char_traitsIcESaIcEEESaIS5_EE17_Vector_impl_data12_M_swap_dataERS8_", scope: !144, file: !12, line: 117, type: !165, scopeLine: 117, flags: DIFlagPrototyped, spFlags: 0)
!165 = !DISubroutineType(types: !166)
!166 = !{null, !154, !167}
!167 = !DIDerivedType(tag: DW_TAG_reference_type, baseType: !144, size: 64)
!168 = !DISubprogram(name: "_Vector_impl", scope: !23, file: !12, line: 131, type: !169, scopeLine: 131, flags: DIFlagPrototyped, spFlags: 0)
!169 = !DISubroutineType(types: !170)
!170 = !{null, !171}
!171 = !DIDerivedType(tag: DW_TAG_pointer_type, baseType: !23, size: 64, flags: DIFlagArtificial | DIFlagObjectPointer)
!172 = !DISubprogram(name: "_Vector_impl", scope: !23, file: !12, line: 136, type: !173, scopeLine: 136, flags: DIFlagPrototyped, spFlags: 0)
!173 = !DISubroutineType(types: !174)
!174 = !{null, !171, !175}
!175 = !DIDerivedType(tag: DW_TAG_reference_type, baseType: !176, size: 64)
!176 = !DIDerivedType(tag: DW_TAG_const_type, baseType: !26)
!177 = !DISubprogram(name: "_Vector_impl", scope: !23, file: !12, line: 143, type: !178, scopeLine: 143, flags: DIFlagPrototyped, spFlags: 0)
!178 = !DISubroutineType(types: !179)
!179 = !{null, !171, !180}
!180 = !DIDerivedType(tag: DW_TAG_rvalue_reference_type, baseType: !23, size: 64)
!181 = !DISubprogram(name: "_Vector_impl", scope: !23, file: !12, line: 147, type: !182, scopeLine: 147, flags: DIFlagPrototyped, spFlags: 0)
!182 = !DISubroutineType(types: !183)
!183 = !{null, !171, !184}
!184 = !DIDerivedType(tag: DW_TAG_rvalue_reference_type, baseType: !26, size: 64)
!185 = !DISubprogram(name: "_Vector_impl", scope: !23, file: !12, line: 151, type: !186, scopeLine: 151, flags: DIFlagPrototyped, spFlags: 0)
!186 = !DISubroutineType(types: !187)
!187 = !{null, !171, !184, !180}
!188 = !DISubprogram(name: "_M_get_Tp_allocator", linkageName: "_ZNSt12_Vector_baseINSt7__cxx1112basic_stringIcSt11char_traitsIcESaIcEEESaIS5_EE19_M_get_Tp_allocatorEv", scope: !20, file: !12, line: 276, type: !189, scopeLine: 276, flags: DIFlagPrototyped, spFlags: 0)
!189 = !DISubroutineType(types: !190)
!190 = !{!191, !192}
!191 = !DIDerivedType(tag: DW_TAG_reference_type, baseType: !26, size: 64)
!192 = !DIDerivedType(tag: DW_TAG_pointer_type, baseType: !20, size: 64, flags: DIFlagArtificial | DIFlagObjectPointer)
!193 = !DISubprogram(name: "_M_get_Tp_allocator", linkageName: "_ZNKSt12_Vector_baseINSt7__cxx1112basic_stringIcSt11char_traitsIcESaIcEEESaIS5_EE19_M_get_Tp_allocatorEv", scope: !20, file: !12, line: 280, type: !194, scopeLine: 280, flags: DIFlagPrototyped, spFlags: 0)
!194 = !DISubroutineType(types: !195)
!195 = !{!175, !196}
!196 = !DIDerivedType(tag: DW_TAG_pointer_type, baseType: !197, size: 64, flags: DIFlagArtificial | DIFlagObjectPointer)
!197 = !DIDerivedType(tag: DW_TAG_const_type, baseType: !20)
!198 = !DISubprogram(name: "get_allocator", linkageName: "_ZNKSt12_Vector_baseINSt7__cxx1112basic_stringIcSt11char_traitsIcESaIcEEESaIS5_EE13get_allocatorEv", scope: !20, file: !12, line: 284, type: !199, scopeLine: 284, flags: DIFlagPrototyped, spFlags: 0)
!199 = !DISubroutineType(types: !200)
!200 = !{!201, !196}
!201 = !DIDerivedType(tag: DW_TAG_typedef, name: "allocator_type", scope: !20, file: !12, line: 273, baseType: !44)
!202 = !DISubprogram(name: "_Vector_base", scope: !20, file: !12, line: 288, type: !203, scopeLine: 288, flags: DIFlagPrototyped, spFlags: 0)
!203 = !DISubroutineType(types: !204)
!204 = !{null, !192}
!205 = !DISubprogram(name: "_Vector_base", scope: !20, file: !12, line: 293, type: !206, scopeLine: 293, flags: DIFlagPrototyped, spFlags: 0)
!206 = !DISubroutineType(types: !207)
!207 = !{null, !192, !208}
!208 = !DIDerivedType(tag: DW_TAG_reference_type, baseType: !209, size: 64)
!209 = !DIDerivedType(tag: DW_TAG_const_type, baseType: !201)
!210 = !DISubprogram(name: "_Vector_base", scope: !20, file: !12, line: 298, type: !211, scopeLine: 298, flags: DIFlagPrototyped, spFlags: 0)
!211 = !DISubroutineType(types: !212)
!212 = !{null, !192, !13}
!213 = !DISubprogram(name: "_Vector_base", scope: !20, file: !12, line: 303, type: !214, scopeLine: 303, flags: DIFlagPrototyped, spFlags: 0)
!214 = !DISubroutineType(types: !215)
!215 = !{null, !192, !13, !208}
!216 = !DISubprogram(name: "_Vector_base", scope: !20, file: !12, line: 308, type: !217, scopeLine: 308, flags: DIFlagPrototyped, spFlags: 0)
!217 = !DISubroutineType(types: !218)
!218 = !{null, !192, !219}
!219 = !DIDerivedType(tag: DW_TAG_rvalue_reference_type, baseType: !20, size: 64)
!220 = !DISubprogram(name: "_Vector_base", scope: !20, file: !12, line: 312, type: !221, scopeLine: 312, flags: DIFlagPrototyped, spFlags: 0)
!221 = !DISubroutineType(types: !222)
!222 = !{null, !192, !184}
!223 = !DISubprogram(name: "_Vector_base", scope: !20, file: !12, line: 315, type: !224, scopeLine: 315, flags: DIFlagPrototyped, spFlags: 0)
!224 = !DISubroutineType(types: !225)
!225 = !{null, !192, !219, !208}
!226 = !DISubprogram(name: "_Vector_base", scope: !20, file: !12, line: 328, type: !227, scopeLine: 328, flags: DIFlagPrototyped, spFlags: 0)
!227 = !DISubroutineType(types: !228)
!228 = !{null, !192, !208, !219}
!229 = !DISubprogram(name: "~_Vector_base", scope: !20, file: !12, line: 333, type: !203, scopeLine: 333, flags: DIFlagPrototyped, spFlags: 0)
!230 = !DISubprogram(name: "_M_allocate", linkageName: "_ZNSt12_Vector_baseINSt7__cxx1112basic_stringIcSt11char_traitsIcESaIcEEESaIS5_EE11_M_allocateEm", scope: !20, file: !12, line: 343, type: !231, scopeLine: 343, flags: DIFlagPrototyped, spFlags: 0)
!231 = !DISubroutineType(types: !232)
!232 = !{!147, !192, !13}
!233 = !DISubprogram(name: "_M_deallocate", linkageName: "_ZNSt12_Vector_baseINSt7__cxx1112basic_stringIcSt11char_traitsIcESaIcEEESaIS5_EE13_M_deallocateEPS5_m", scope: !20, file: !12, line: 350, type: !234, scopeLine: 350, flags: DIFlagPrototyped, spFlags: 0)
!234 = !DISubroutineType(types: !235)
!235 = !{null, !192, !147, !13}
!236 = !DISubprogram(name: "_M_create_storage", linkageName: "_ZNSt12_Vector_baseINSt7__cxx1112basic_stringIcSt11char_traitsIcESaIcEEESaIS5_EE17_M_create_storageEm", scope: !20, file: !12, line: 359, type: !211, scopeLine: 359, flags: DIFlagProtected | DIFlagPrototyped, spFlags: 0)
!237 = !{!92, !125}
!238 = !DISubprogram(name: "_S_nothrow_relocate", linkageName: "_ZNSt6vectorINSt7__cxx1112basic_stringIcSt11char_traitsIcESaIcEEESaIS5_EE19_S_nothrow_relocateESt17integral_constantIbLb1EE", scope: !17, file: !12, line: 431, type: !239, scopeLine: 431, flags: DIFlagPrototyped | DIFlagStaticMember, spFlags: 0)
!239 = !DISubroutineType(types: !240)
!240 = !{!135, !241}
!241 = !DIDerivedType(tag: DW_TAG_typedef, name: "true_type", scope: !6, file: !242, line: 75, baseType: !243)
!242 = !DIFile(filename: "/usr/lib/gcc/x86_64-linux-gnu/10/../../../../include/c++/10/type_traits", directory: "")
!243 = distinct !DICompositeType(tag: DW_TAG_structure_type, name: "integral_constant<bool, true>", scope: !6, file: !242, line: 57, size: 8, flags: DIFlagTypePassByValue, elements: !244, templateParams: !254, identifier: "_ZTSSt17integral_constantIbLb1EE")
!244 = !{!245, !247, !253}
!245 = !DIDerivedType(tag: DW_TAG_member, name: "value", scope: !243, file: !242, line: 59, baseType: !246, flags: DIFlagStaticMember, extraData: i1 true)
!246 = !DIDerivedType(tag: DW_TAG_const_type, baseType: !135)
!247 = !DISubprogram(name: "operator bool", linkageName: "_ZNKSt17integral_constantIbLb1EEcvbEv", scope: !243, file: !242, line: 62, type: !248, scopeLine: 62, flags: DIFlagPrototyped, spFlags: 0)
!248 = !DISubroutineType(types: !249)
!249 = !{!250, !251}
!250 = !DIDerivedType(tag: DW_TAG_typedef, name: "value_type", scope: !243, file: !242, line: 60, baseType: !135)
!251 = !DIDerivedType(tag: DW_TAG_pointer_type, baseType: !252, size: 64, flags: DIFlagArtificial | DIFlagObjectPointer)
!252 = !DIDerivedType(tag: DW_TAG_const_type, baseType: !243)
!253 = !DISubprogram(name: "operator()", linkageName: "_ZNKSt17integral_constantIbLb1EEclEv", scope: !243, file: !242, line: 67, type: !248, scopeLine: 67, flags: DIFlagPrototyped, spFlags: 0)
!254 = !{!255, !256}
!255 = !DITemplateTypeParameter(name: "_Tp", type: !135)
!256 = !DITemplateValueParameter(name: "__v", type: !135, value: i8 1)
!257 = !DISubprogram(name: "_S_nothrow_relocate", linkageName: "_ZNSt6vectorINSt7__cxx1112basic_stringIcSt11char_traitsIcESaIcEEESaIS5_EE19_S_nothrow_relocateESt17integral_constantIbLb0EE", scope: !17, file: !12, line: 440, type: !258, scopeLine: 440, flags: DIFlagPrototyped | DIFlagStaticMember, spFlags: 0)
!258 = !DISubroutineType(types: !259)
!259 = !{!135, !260}
!260 = !DIDerivedType(tag: DW_TAG_typedef, name: "false_type", scope: !6, file: !242, line: 78, baseType: !261)
!261 = distinct !DICompositeType(tag: DW_TAG_structure_type, name: "integral_constant<bool, false>", scope: !6, file: !242, line: 57, size: 8, flags: DIFlagTypePassByValue, elements: !262, templateParams: !271, identifier: "_ZTSSt17integral_constantIbLb0EE")
!262 = !{!263, !264, !270}
!263 = !DIDerivedType(tag: DW_TAG_member, name: "value", scope: !261, file: !242, line: 59, baseType: !246, flags: DIFlagStaticMember, extraData: i1 false)
!264 = !DISubprogram(name: "operator bool", linkageName: "_ZNKSt17integral_constantIbLb0EEcvbEv", scope: !261, file: !242, line: 62, type: !265, scopeLine: 62, flags: DIFlagPrototyped, spFlags: 0)
!265 = !DISubroutineType(types: !266)
!266 = !{!267, !268}
!267 = !DIDerivedType(tag: DW_TAG_typedef, name: "value_type", scope: !261, file: !242, line: 60, baseType: !135)
!268 = !DIDerivedType(tag: DW_TAG_pointer_type, baseType: !269, size: 64, flags: DIFlagArtificial | DIFlagObjectPointer)
!269 = !DIDerivedType(tag: DW_TAG_const_type, baseType: !261)
!270 = !DISubprogram(name: "operator()", linkageName: "_ZNKSt17integral_constantIbLb0EEclEv", scope: !261, file: !242, line: 67, type: !265, scopeLine: 67, flags: DIFlagPrototyped, spFlags: 0)
!271 = !{!255, !272}
!272 = !DITemplateValueParameter(name: "__v", type: !135, value: i8 0)
!273 = !DISubprogram(name: "_S_use_relocate", linkageName: "_ZNSt6vectorINSt7__cxx1112basic_stringIcSt11char_traitsIcESaIcEEESaIS5_EE15_S_use_relocateEv", scope: !17, file: !12, line: 444, type: !133, scopeLine: 444, flags: DIFlagPrototyped | DIFlagStaticMember, spFlags: 0)
!274 = !DISubprogram(name: "_S_do_relocate", linkageName: "_ZNSt6vectorINSt7__cxx1112basic_stringIcSt11char_traitsIcESaIcEEESaIS5_EE14_S_do_relocateEPS5_S8_S8_RS6_St17integral_constantIbLb1EE", scope: !17, file: !12, line: 453, type: !275, scopeLine: 453, flags: DIFlagPrototyped | DIFlagStaticMember, spFlags: 0)
!275 = !DISubroutineType(types: !276)
!276 = !{!277, !277, !277, !277, !278, !241}
!277 = !DIDerivedType(tag: DW_TAG_typedef, name: "pointer", scope: !17, file: !12, line: 415, baseType: !147)
!278 = !DIDerivedType(tag: DW_TAG_reference_type, baseType: !279, size: 64)
!279 = !DIDerivedType(tag: DW_TAG_typedef, name: "_Tp_alloc_type", scope: !17, file: !12, line: 410, baseType: !26)
!280 = !DISubprogram(name: "_S_do_relocate", linkageName: "_ZNSt6vectorINSt7__cxx1112basic_stringIcSt11char_traitsIcESaIcEEESaIS5_EE14_S_do_relocateEPS5_S8_S8_RS6_St17integral_constantIbLb0EE", scope: !17, file: !12, line: 460, type: !281, scopeLine: 460, flags: DIFlagPrototyped | DIFlagStaticMember, spFlags: 0)
!281 = !DISubroutineType(types: !282)
!282 = !{!277, !277, !277, !277, !278, !260}
!283 = !DISubprogram(name: "_S_relocate", linkageName: "_ZNSt6vectorINSt7__cxx1112basic_stringIcSt11char_traitsIcESaIcEEESaIS5_EE11_S_relocateEPS5_S8_S8_RS6_", scope: !17, file: !12, line: 465, type: !284, scopeLine: 465, flags: DIFlagPrototyped | DIFlagStaticMember, spFlags: 0)
!284 = !DISubroutineType(types: !285)
!285 = !{!277, !277, !277, !277, !278}
!286 = !DISubprogram(name: "vector", scope: !17, file: !12, line: 487, type: !287, scopeLine: 487, flags: DIFlagPublic | DIFlagPrototyped, spFlags: 0)
!287 = !DISubroutineType(types: !288)
!288 = !{null, !289}
!289 = !DIDerivedType(tag: DW_TAG_pointer_type, baseType: !17, size: 64, flags: DIFlagArtificial | DIFlagObjectPointer)
!290 = !DISubprogram(name: "vector", scope: !17, file: !12, line: 497, type: !291, scopeLine: 497, flags: DIFlagPublic | DIFlagExplicit | DIFlagPrototyped, spFlags: 0)
!291 = !DISubroutineType(types: !292)
!292 = !{null, !289, !293}
!293 = !DIDerivedType(tag: DW_TAG_reference_type, baseType: !294, size: 64)
!294 = !DIDerivedType(tag: DW_TAG_const_type, baseType: !295)
!295 = !DIDerivedType(tag: DW_TAG_typedef, name: "allocator_type", scope: !17, file: !12, line: 426, baseType: !44)
!296 = !DISubprogram(name: "vector", scope: !17, file: !12, line: 510, type: !297, scopeLine: 510, flags: DIFlagPublic | DIFlagExplicit | DIFlagPrototyped, spFlags: 0)
!297 = !DISubroutineType(types: !298)
!298 = !{null, !289, !11, !293}
!299 = !DISubprogram(name: "vector", scope: !17, file: !12, line: 522, type: !300, scopeLine: 522, flags: DIFlagPublic | DIFlagPrototyped, spFlags: 0)
!300 = !DISubroutineType(types: !301)
!301 = !{null, !289, !11, !302, !293}
!302 = !DIDerivedType(tag: DW_TAG_reference_type, baseType: !303, size: 64)
!303 = !DIDerivedType(tag: DW_TAG_const_type, baseType: !304)
!304 = !DIDerivedType(tag: DW_TAG_typedef, name: "value_type", scope: !17, file: !12, line: 414, baseType: !7)
!305 = !DISubprogram(name: "vector", scope: !17, file: !12, line: 553, type: !306, scopeLine: 553, flags: DIFlagPublic | DIFlagPrototyped, spFlags: 0)
!306 = !DISubroutineType(types: !307)
!307 = !{null, !289, !308}
!308 = !DIDerivedType(tag: DW_TAG_reference_type, baseType: !309, size: 64)
!309 = !DIDerivedType(tag: DW_TAG_const_type, baseType: !17)
!310 = !DISubprogram(name: "vector", scope: !17, file: !12, line: 572, type: !311, scopeLine: 572, flags: DIFlagPublic | DIFlagPrototyped, spFlags: 0)
!311 = !DISubroutineType(types: !312)
!312 = !{null, !289, !313}
!313 = !DIDerivedType(tag: DW_TAG_rvalue_reference_type, baseType: !17, size: 64)
!314 = !DISubprogram(name: "vector", scope: !17, file: !12, line: 575, type: !315, scopeLine: 575, flags: DIFlagPublic | DIFlagPrototyped, spFlags: 0)
!315 = !DISubroutineType(types: !316)
!316 = !{null, !289, !308, !293}
!317 = !DISubprogram(name: "vector", scope: !17, file: !12, line: 585, type: !318, scopeLine: 585, flags: DIFlagPrototyped, spFlags: 0)
!318 = !DISubroutineType(types: !319)
!319 = !{null, !289, !313, !293, !241}
!320 = !DISubprogram(name: "vector", scope: !17, file: !12, line: 589, type: !321, scopeLine: 589, flags: DIFlagPrototyped, spFlags: 0)
!321 = !DISubroutineType(types: !322)
!322 = !{null, !289, !313, !293, !260}
!323 = !DISubprogram(name: "vector", scope: !17, file: !12, line: 607, type: !324, scopeLine: 607, flags: DIFlagPublic | DIFlagPrototyped, spFlags: 0)
!324 = !DISubroutineType(types: !325)
!325 = !{null, !289, !313, !293}
!326 = !DISubprogram(name: "vector", scope: !17, file: !12, line: 625, type: !327, scopeLine: 625, flags: DIFlagPublic | DIFlagPrototyped, spFlags: 0)
!327 = !DISubroutineType(types: !328)
!328 = !{null, !289, !329, !293}
!329 = !DICompositeType(tag: DW_TAG_class_type, name: "initializer_list<std::__cxx11::basic_string<char, std::char_traits<char>, std::allocator<char> > >", scope: !6, file: !330, line: 47, flags: DIFlagFwdDecl, identifier: "_ZTSSt16initializer_listINSt7__cxx1112basic_stringIcSt11char_traitsIcESaIcEEEE")
!330 = !DIFile(filename: "/usr/lib/gcc/x86_64-linux-gnu/10/../../../../include/c++/10/initializer_list", directory: "")
!331 = !DISubprogram(name: "~vector", scope: !17, file: !12, line: 678, type: !287, scopeLine: 678, flags: DIFlagPublic | DIFlagPrototyped, spFlags: 0)
!332 = !DISubprogram(name: "operator=", linkageName: "_ZNSt6vectorINSt7__cxx1112basic_stringIcSt11char_traitsIcESaIcEEESaIS5_EEaSERKS7_", scope: !17, file: !12, line: 695, type: !333, scopeLine: 695, flags: DIFlagPublic | DIFlagPrototyped, spFlags: 0)
!333 = !DISubroutineType(types: !334)
!334 = !{!335, !289, !308}
!335 = !DIDerivedType(tag: DW_TAG_reference_type, baseType: !17, size: 64)
!336 = !DISubprogram(name: "operator=", linkageName: "_ZNSt6vectorINSt7__cxx1112basic_stringIcSt11char_traitsIcESaIcEEESaIS5_EEaSEOS7_", scope: !17, file: !12, line: 709, type: !337, scopeLine: 709, flags: DIFlagPublic | DIFlagPrototyped, spFlags: 0)
!337 = !DISubroutineType(types: !338)
!338 = !{!335, !289, !313}
!339 = !DISubprogram(name: "operator=", linkageName: "_ZNSt6vectorINSt7__cxx1112basic_stringIcSt11char_traitsIcESaIcEEESaIS5_EEaSESt16initializer_listIS5_E", scope: !17, file: !12, line: 730, type: !340, scopeLine: 730, flags: DIFlagPublic | DIFlagPrototyped, spFlags: 0)
!340 = !DISubroutineType(types: !341)
!341 = !{!335, !289, !329}
!342 = !DISubprogram(name: "assign", linkageName: "_ZNSt6vectorINSt7__cxx1112basic_stringIcSt11char_traitsIcESaIcEEESaIS5_EE6assignEmRKS5_", scope: !17, file: !12, line: 749, type: !343, scopeLine: 749, flags: DIFlagPublic | DIFlagPrototyped, spFlags: 0)
!343 = !DISubroutineType(types: !344)
!344 = !{null, !289, !11, !302}
!345 = !DISubprogram(name: "assign", linkageName: "_ZNSt6vectorINSt7__cxx1112basic_stringIcSt11char_traitsIcESaIcEEESaIS5_EE6assignESt16initializer_listIS5_E", scope: !17, file: !12, line: 794, type: !346, scopeLine: 794, flags: DIFlagPublic | DIFlagPrototyped, spFlags: 0)
!346 = !DISubroutineType(types: !347)
!347 = !{null, !289, !329}
!348 = !DISubprogram(name: "begin", linkageName: "_ZNSt6vectorINSt7__cxx1112basic_stringIcSt11char_traitsIcESaIcEEESaIS5_EE5beginEv", scope: !17, file: !12, line: 811, type: !349, scopeLine: 811, flags: DIFlagPublic | DIFlagPrototyped, spFlags: 0)
!349 = !DISubroutineType(types: !350)
!350 = !{!16, !289}
!351 = !DISubprogram(name: "begin", linkageName: "_ZNKSt6vectorINSt7__cxx1112basic_stringIcSt11char_traitsIcESaIcEEESaIS5_EE5beginEv", scope: !17, file: !12, line: 820, type: !352, scopeLine: 820, flags: DIFlagPublic | DIFlagPrototyped, spFlags: 0)
!352 = !DISubroutineType(types: !353)
!353 = !{!354, !357}
!354 = !DIDerivedType(tag: DW_TAG_typedef, name: "const_iterator", scope: !17, file: !12, line: 421, baseType: !355)
!355 = !DICompositeType(tag: DW_TAG_class_type, name: "__normal_iterator<const std::__cxx11::basic_string<char, std::char_traits<char>, std::allocator<char> > *, std::vector<std::__cxx11::basic_string<char, std::char_traits<char>, std::allocator<char> >, std::allocator<std::__cxx11::basic_string<char, std::char_traits<char>, std::allocator<char> > > > >", scope: !31, file: !356, line: 930, flags: DIFlagFwdDecl, identifier: "_ZTSN9__gnu_cxx17__normal_iteratorIPKNSt7__cxx1112basic_stringIcSt11char_traitsIcESaIcEEESt6vectorIS6_SaIS6_EEEE")
!356 = !DIFile(filename: "/usr/lib/gcc/x86_64-linux-gnu/10/../../../../include/c++/10/bits/stl_iterator.h", directory: "")
!357 = !DIDerivedType(tag: DW_TAG_pointer_type, baseType: !309, size: 64, flags: DIFlagArtificial | DIFlagObjectPointer)
!358 = !DISubprogram(name: "end", linkageName: "_ZNSt6vectorINSt7__cxx1112basic_stringIcSt11char_traitsIcESaIcEEESaIS5_EE3endEv", scope: !17, file: !12, line: 829, type: !349, scopeLine: 829, flags: DIFlagPublic | DIFlagPrototyped, spFlags: 0)
!359 = !DISubprogram(name: "end", linkageName: "_ZNKSt6vectorINSt7__cxx1112basic_stringIcSt11char_traitsIcESaIcEEESaIS5_EE3endEv", scope: !17, file: !12, line: 838, type: !352, scopeLine: 838, flags: DIFlagPublic | DIFlagPrototyped, spFlags: 0)
!360 = !DISubprogram(name: "rbegin", linkageName: "_ZNSt6vectorINSt7__cxx1112basic_stringIcSt11char_traitsIcESaIcEEESaIS5_EE6rbeginEv", scope: !17, file: !12, line: 847, type: !361, scopeLine: 847, flags: DIFlagPublic | DIFlagPrototyped, spFlags: 0)
!361 = !DISubroutineType(types: !362)
!362 = !{!363, !289}
!363 = !DIDerivedType(tag: DW_TAG_typedef, name: "reverse_iterator", scope: !17, file: !12, line: 423, baseType: !364)
!364 = !DICompositeType(tag: DW_TAG_class_type, name: "reverse_iterator<__gnu_cxx::__normal_iterator<std::__cxx11::basic_string<char, std::char_traits<char>, std::allocator<char> > *, std::vector<std::__cxx11::basic_string<char, std::char_traits<char>, std::allocator<char> >, std::allocator<std::__cxx11::basic_string<char, std::char_traits<char>, std::allocator<char> > > > > >", scope: !6, file: !356, line: 125, flags: DIFlagFwdDecl, identifier: "_ZTSSt16reverse_iteratorIN9__gnu_cxx17__normal_iteratorIPNSt7__cxx1112basic_stringIcSt11char_traitsIcESaIcEEESt6vectorIS7_SaIS7_EEEEE")
!365 = !DISubprogram(name: "rbegin", linkageName: "_ZNKSt6vectorINSt7__cxx1112basic_stringIcSt11char_traitsIcESaIcEEESaIS5_EE6rbeginEv", scope: !17, file: !12, line: 856, type: !366, scopeLine: 856, flags: DIFlagPublic | DIFlagPrototyped, spFlags: 0)
!366 = !DISubroutineType(types: !367)
!367 = !{!368, !357}
!368 = !DIDerivedType(tag: DW_TAG_typedef, name: "const_reverse_iterator", scope: !17, file: !12, line: 422, baseType: !369)
!369 = !DICompositeType(tag: DW_TAG_class_type, name: "reverse_iterator<__gnu_cxx::__normal_iterator<const std::__cxx11::basic_string<char, std::char_traits<char>, std::allocator<char> > *, std::vector<std::__cxx11::basic_string<char, std::char_traits<char>, std::allocator<char> >, std::allocator<std::__cxx11::basic_string<char, std::char_traits<char>, std::allocator<char> > > > > >", scope: !6, file: !356, line: 125, flags: DIFlagFwdDecl, identifier: "_ZTSSt16reverse_iteratorIN9__gnu_cxx17__normal_iteratorIPKNSt7__cxx1112basic_stringIcSt11char_traitsIcESaIcEEESt6vectorIS7_SaIS7_EEEEE")
!370 = !DISubprogram(name: "rend", linkageName: "_ZNSt6vectorINSt7__cxx1112basic_stringIcSt11char_traitsIcESaIcEEESaIS5_EE4rendEv", scope: !17, file: !12, line: 865, type: !361, scopeLine: 865, flags: DIFlagPublic | DIFlagPrototyped, spFlags: 0)
!371 = !DISubprogram(name: "rend", linkageName: "_ZNKSt6vectorINSt7__cxx1112basic_stringIcSt11char_traitsIcESaIcEEESaIS5_EE4rendEv", scope: !17, file: !12, line: 874, type: !366, scopeLine: 874, flags: DIFlagPublic | DIFlagPrototyped, spFlags: 0)
!372 = !DISubprogram(name: "cbegin", linkageName: "_ZNKSt6vectorINSt7__cxx1112basic_stringIcSt11char_traitsIcESaIcEEESaIS5_EE6cbeginEv", scope: !17, file: !12, line: 884, type: !352, scopeLine: 884, flags: DIFlagPublic | DIFlagPrototyped, spFlags: 0)
!373 = !DISubprogram(name: "cend", linkageName: "_ZNKSt6vectorINSt7__cxx1112basic_stringIcSt11char_traitsIcESaIcEEESaIS5_EE4cendEv", scope: !17, file: !12, line: 893, type: !352, scopeLine: 893, flags: DIFlagPublic | DIFlagPrototyped, spFlags: 0)
!374 = !DISubprogram(name: "crbegin", linkageName: "_ZNKSt6vectorINSt7__cxx1112basic_stringIcSt11char_traitsIcESaIcEEESaIS5_EE7crbeginEv", scope: !17, file: !12, line: 902, type: !366, scopeLine: 902, flags: DIFlagPublic | DIFlagPrototyped, spFlags: 0)
!375 = !DISubprogram(name: "crend", linkageName: "_ZNKSt6vectorINSt7__cxx1112basic_stringIcSt11char_traitsIcESaIcEEESaIS5_EE5crendEv", scope: !17, file: !12, line: 911, type: !366, scopeLine: 911, flags: DIFlagPublic | DIFlagPrototyped, spFlags: 0)
!376 = !DISubprogram(name: "size", linkageName: "_ZNKSt6vectorINSt7__cxx1112basic_stringIcSt11char_traitsIcESaIcEEESaIS5_EE4sizeEv", scope: !17, file: !12, line: 918, type: !377, scopeLine: 918, flags: DIFlagPublic | DIFlagPrototyped, spFlags: 0)
!377 = !DISubroutineType(types: !378)
!378 = !{!11, !357}
!379 = !DISubprogram(name: "max_size", linkageName: "_ZNKSt6vectorINSt7__cxx1112basic_stringIcSt11char_traitsIcESaIcEEESaIS5_EE8max_sizeEv", scope: !17, file: !12, line: 923, type: !377, scopeLine: 923, flags: DIFlagPublic | DIFlagPrototyped, spFlags: 0)
!380 = !DISubprogram(name: "resize", linkageName: "_ZNSt6vectorINSt7__cxx1112basic_stringIcSt11char_traitsIcESaIcEEESaIS5_EE6resizeEm", scope: !17, file: !12, line: 937, type: !381, scopeLine: 937, flags: DIFlagPublic | DIFlagPrototyped, spFlags: 0)
!381 = !DISubroutineType(types: !382)
!382 = !{null, !289, !11}
!383 = !DISubprogram(name: "resize", linkageName: "_ZNSt6vectorINSt7__cxx1112basic_stringIcSt11char_traitsIcESaIcEEESaIS5_EE6resizeEmRKS5_", scope: !17, file: !12, line: 957, type: !343, scopeLine: 957, flags: DIFlagPublic | DIFlagPrototyped, spFlags: 0)
!384 = !DISubprogram(name: "shrink_to_fit", linkageName: "_ZNSt6vectorINSt7__cxx1112basic_stringIcSt11char_traitsIcESaIcEEESaIS5_EE13shrink_to_fitEv", scope: !17, file: !12, line: 989, type: !287, scopeLine: 989, flags: DIFlagPublic | DIFlagPrototyped, spFlags: 0)
!385 = !DISubprogram(name: "capacity", linkageName: "_ZNKSt6vectorINSt7__cxx1112basic_stringIcSt11char_traitsIcESaIcEEESaIS5_EE8capacityEv", scope: !17, file: !12, line: 998, type: !377, scopeLine: 998, flags: DIFlagPublic | DIFlagPrototyped, spFlags: 0)
!386 = !DISubprogram(name: "empty", linkageName: "_ZNKSt6vectorINSt7__cxx1112basic_stringIcSt11char_traitsIcESaIcEEESaIS5_EE5emptyEv", scope: !17, file: !12, line: 1007, type: !387, scopeLine: 1007, flags: DIFlagPublic | DIFlagPrototyped, spFlags: 0)
!387 = !DISubroutineType(types: !388)
!388 = !{!135, !357}
!389 = !DISubprogram(name: "reserve", linkageName: "_ZNSt6vectorINSt7__cxx1112basic_stringIcSt11char_traitsIcESaIcEEESaIS5_EE7reserveEm", scope: !17, file: !12, line: 1028, type: !381, scopeLine: 1028, flags: DIFlagPublic | DIFlagPrototyped, spFlags: 0)
!390 = !DISubprogram(name: "operator[]", linkageName: "_ZNSt6vectorINSt7__cxx1112basic_stringIcSt11char_traitsIcESaIcEEESaIS5_EEixEm", scope: !17, file: !12, line: 1043, type: !391, scopeLine: 1043, flags: DIFlagPublic | DIFlagPrototyped, spFlags: 0)
!391 = !DISubroutineType(types: !392)
!392 = !{!393, !289, !11}
!393 = !DIDerivedType(tag: DW_TAG_typedef, name: "reference", scope: !17, file: !12, line: 417, baseType: !394)
!394 = !DIDerivedType(tag: DW_TAG_typedef, name: "reference", scope: !30, file: !28, line: 62, baseType: !395)
!395 = !DIDerivedType(tag: DW_TAG_reference_type, baseType: !396, size: 64)
!396 = !DIDerivedType(tag: DW_TAG_typedef, name: "value_type", scope: !30, file: !28, line: 56, baseType: !397)
!397 = !DIDerivedType(tag: DW_TAG_typedef, name: "value_type", scope: !34, file: !35, line: 413, baseType: !7)
!398 = !DISubprogram(name: "operator[]", linkageName: "_ZNKSt6vectorINSt7__cxx1112basic_stringIcSt11char_traitsIcESaIcEEESaIS5_EEixEm", scope: !17, file: !12, line: 1061, type: !399, scopeLine: 1061, flags: DIFlagPublic | DIFlagPrototyped, spFlags: 0)
!399 = !DISubroutineType(types: !400)
!400 = !{!401, !357, !11}
!401 = !DIDerivedType(tag: DW_TAG_typedef, name: "const_reference", scope: !17, file: !12, line: 418, baseType: !402)
!402 = !DIDerivedType(tag: DW_TAG_typedef, name: "const_reference", scope: !30, file: !28, line: 63, baseType: !403)
!403 = !DIDerivedType(tag: DW_TAG_reference_type, baseType: !404, size: 64)
!404 = !DIDerivedType(tag: DW_TAG_const_type, baseType: !396)
!405 = !DISubprogram(name: "_M_range_check", linkageName: "_ZNKSt6vectorINSt7__cxx1112basic_stringIcSt11char_traitsIcESaIcEEESaIS5_EE14_M_range_checkEm", scope: !17, file: !12, line: 1070, type: !406, scopeLine: 1070, flags: DIFlagProtected | DIFlagPrototyped, spFlags: 0)
!406 = !DISubroutineType(types: !407)
!407 = !{null, !357, !11}
!408 = !DISubprogram(name: "at", linkageName: "_ZNSt6vectorINSt7__cxx1112basic_stringIcSt11char_traitsIcESaIcEEESaIS5_EE2atEm", scope: !17, file: !12, line: 1092, type: !391, scopeLine: 1092, flags: DIFlagPublic | DIFlagPrototyped, spFlags: 0)
!409 = !DISubprogram(name: "at", linkageName: "_ZNKSt6vectorINSt7__cxx1112basic_stringIcSt11char_traitsIcESaIcEEESaIS5_EE2atEm", scope: !17, file: !12, line: 1110, type: !399, scopeLine: 1110, flags: DIFlagPublic | DIFlagPrototyped, spFlags: 0)
!410 = !DISubprogram(name: "front", linkageName: "_ZNSt6vectorINSt7__cxx1112basic_stringIcSt11char_traitsIcESaIcEEESaIS5_EE5frontEv", scope: !17, file: !12, line: 1121, type: !411, scopeLine: 1121, flags: DIFlagPublic | DIFlagPrototyped, spFlags: 0)
!411 = !DISubroutineType(types: !412)
!412 = !{!393, !289}
!413 = !DISubprogram(name: "front", linkageName: "_ZNKSt6vectorINSt7__cxx1112basic_stringIcSt11char_traitsIcESaIcEEESaIS5_EE5frontEv", scope: !17, file: !12, line: 1132, type: !414, scopeLine: 1132, flags: DIFlagPublic | DIFlagPrototyped, spFlags: 0)
!414 = !DISubroutineType(types: !415)
!415 = !{!401, !357}
!416 = !DISubprogram(name: "back", linkageName: "_ZNSt6vectorINSt7__cxx1112basic_stringIcSt11char_traitsIcESaIcEEESaIS5_EE4backEv", scope: !17, file: !12, line: 1143, type: !411, scopeLine: 1143, flags: DIFlagPublic | DIFlagPrototyped, spFlags: 0)
!417 = !DISubprogram(name: "back", linkageName: "_ZNKSt6vectorINSt7__cxx1112basic_stringIcSt11char_traitsIcESaIcEEESaIS5_EE4backEv", scope: !17, file: !12, line: 1154, type: !414, scopeLine: 1154, flags: DIFlagPublic | DIFlagPrototyped, spFlags: 0)
!418 = !DISubprogram(name: "data", linkageName: "_ZNSt6vectorINSt7__cxx1112basic_stringIcSt11char_traitsIcESaIcEEESaIS5_EE4dataEv", scope: !17, file: !12, line: 1168, type: !419, scopeLine: 1168, flags: DIFlagPublic | DIFlagPrototyped, spFlags: 0)
!419 = !DISubroutineType(types: !420)
!420 = !{!41, !289}
!421 = !DISubprogram(name: "data", linkageName: "_ZNKSt6vectorINSt7__cxx1112basic_stringIcSt11char_traitsIcESaIcEEESaIS5_EE4dataEv", scope: !17, file: !12, line: 1172, type: !422, scopeLine: 1172, flags: DIFlagPublic | DIFlagPrototyped, spFlags: 0)
!422 = !DISubroutineType(types: !423)
!423 = !{!74, !357}
!424 = !DISubprogram(name: "push_back", linkageName: "_ZNSt6vectorINSt7__cxx1112basic_stringIcSt11char_traitsIcESaIcEEESaIS5_EE9push_backERKS5_", scope: !17, file: !12, line: 1187, type: !425, scopeLine: 1187, flags: DIFlagPublic | DIFlagPrototyped, spFlags: 0)
!425 = !DISubroutineType(types: !426)
!426 = !{null, !289, !302}
!427 = !DISubprogram(name: "push_back", linkageName: "_ZNSt6vectorINSt7__cxx1112basic_stringIcSt11char_traitsIcESaIcEEESaIS5_EE9push_backEOS5_", scope: !17, file: !12, line: 1203, type: !428, scopeLine: 1203, flags: DIFlagPublic | DIFlagPrototyped, spFlags: 0)
!428 = !DISubroutineType(types: !429)
!429 = !{null, !289, !430}
!430 = !DIDerivedType(tag: DW_TAG_rvalue_reference_type, baseType: !304, size: 64)
!431 = !DISubprogram(name: "pop_back", linkageName: "_ZNSt6vectorINSt7__cxx1112basic_stringIcSt11char_traitsIcESaIcEEESaIS5_EE8pop_backEv", scope: !17, file: !12, line: 1225, type: !287, scopeLine: 1225, flags: DIFlagPublic | DIFlagPrototyped, spFlags: 0)
!432 = !DISubprogram(name: "insert", linkageName: "_ZNSt6vectorINSt7__cxx1112basic_stringIcSt11char_traitsIcESaIcEEESaIS5_EE6insertEN9__gnu_cxx17__normal_iteratorIPKS5_S7_EERSA_", scope: !17, file: !12, line: 1263, type: !433, scopeLine: 1263, flags: DIFlagPublic | DIFlagPrototyped, spFlags: 0)
!433 = !DISubroutineType(types: !434)
!434 = !{!16, !289, !354, !302}
!435 = !DISubprogram(name: "insert", linkageName: "_ZNSt6vectorINSt7__cxx1112basic_stringIcSt11char_traitsIcESaIcEEESaIS5_EE6insertEN9__gnu_cxx17__normal_iteratorIPKS5_S7_EEOS5_", scope: !17, file: !12, line: 1293, type: !436, scopeLine: 1293, flags: DIFlagPublic | DIFlagPrototyped, spFlags: 0)
!436 = !DISubroutineType(types: !437)
!437 = !{!16, !289, !354, !430}
!438 = !DISubprogram(name: "insert", linkageName: "_ZNSt6vectorINSt7__cxx1112basic_stringIcSt11char_traitsIcESaIcEEESaIS5_EE6insertEN9__gnu_cxx17__normal_iteratorIPKS5_S7_EESt16initializer_listIS5_E", scope: !17, file: !12, line: 1310, type: !439, scopeLine: 1310, flags: DIFlagPublic | DIFlagPrototyped, spFlags: 0)
!439 = !DISubroutineType(types: !440)
!440 = !{!16, !289, !354, !329}
!441 = !DISubprogram(name: "insert", linkageName: "_ZNSt6vectorINSt7__cxx1112basic_stringIcSt11char_traitsIcESaIcEEESaIS5_EE6insertEN9__gnu_cxx17__normal_iteratorIPKS5_S7_EEmRSA_", scope: !17, file: !12, line: 1335, type: !442, scopeLine: 1335, flags: DIFlagPublic | DIFlagPrototyped, spFlags: 0)
!442 = !DISubroutineType(types: !443)
!443 = !{!16, !289, !354, !11, !302}
!444 = !DISubprogram(name: "erase", linkageName: "_ZNSt6vectorINSt7__cxx1112basic_stringIcSt11char_traitsIcESaIcEEESaIS5_EE5eraseEN9__gnu_cxx17__normal_iteratorIPKS5_S7_EE", scope: !17, file: !12, line: 1430, type: !445, scopeLine: 1430, flags: DIFlagPublic | DIFlagPrototyped, spFlags: 0)
!445 = !DISubroutineType(types: !446)
!446 = !{!16, !289, !354}
!447 = !DISubprogram(name: "erase", linkageName: "_ZNSt6vectorINSt7__cxx1112basic_stringIcSt11char_traitsIcESaIcEEESaIS5_EE5eraseEN9__gnu_cxx17__normal_iteratorIPKS5_S7_EESC_", scope: !17, file: !12, line: 1457, type: !448, scopeLine: 1457, flags: DIFlagPublic | DIFlagPrototyped, spFlags: 0)
!448 = !DISubroutineType(types: !449)
!449 = !{!16, !289, !354, !354}
!450 = !DISubprogram(name: "swap", linkageName: "_ZNSt6vectorINSt7__cxx1112basic_stringIcSt11char_traitsIcESaIcEEESaIS5_EE4swapERS7_", scope: !17, file: !12, line: 1480, type: !451, scopeLine: 1480, flags: DIFlagPublic | DIFlagPrototyped, spFlags: 0)
!451 = !DISubroutineType(types: !452)
!452 = !{null, !289, !335}
!453 = !DISubprogram(name: "clear", linkageName: "_ZNSt6vectorINSt7__cxx1112basic_stringIcSt11char_traitsIcESaIcEEESaIS5_EE5clearEv", scope: !17, file: !12, line: 1498, type: !287, scopeLine: 1498, flags: DIFlagPublic | DIFlagPrototyped, spFlags: 0)
!454 = !DISubprogram(name: "_M_fill_initialize", linkageName: "_ZNSt6vectorINSt7__cxx1112basic_stringIcSt11char_traitsIcESaIcEEESaIS5_EE18_M_fill_initializeEmRKS5_", scope: !17, file: !12, line: 1593, type: !343, scopeLine: 1593, flags: DIFlagProtected | DIFlagPrototyped, spFlags: 0)
!455 = !DISubprogram(name: "_M_default_initialize", linkageName: "_ZNSt6vectorINSt7__cxx1112basic_stringIcSt11char_traitsIcESaIcEEESaIS5_EE21_M_default_initializeEm", scope: !17, file: !12, line: 1603, type: !381, scopeLine: 1603, flags: DIFlagProtected | DIFlagPrototyped, spFlags: 0)
!456 = !DISubprogram(name: "_M_fill_assign", linkageName: "_ZNSt6vectorINSt7__cxx1112basic_stringIcSt11char_traitsIcESaIcEEESaIS5_EE14_M_fill_assignEmRKS5_", scope: !17, file: !12, line: 1645, type: !343, scopeLine: 1645, flags: DIFlagProtected | DIFlagPrototyped, spFlags: 0)
!457 = !DISubprogram(name: "_M_fill_insert", linkageName: "_ZNSt6vectorINSt7__cxx1112basic_stringIcSt11char_traitsIcESaIcEEESaIS5_EE14_M_fill_insertEN9__gnu_cxx17__normal_iteratorIPS5_S7_EEmRKS5_", scope: !17, file: !12, line: 1684, type: !458, scopeLine: 1684, flags: DIFlagProtected | DIFlagPrototyped, spFlags: 0)
!458 = !DISubroutineType(types: !459)
!459 = !{null, !289, !16, !11, !302}
!460 = !DISubprogram(name: "_M_default_append", linkageName: "_ZNSt6vectorINSt7__cxx1112basic_stringIcSt11char_traitsIcESaIcEEESaIS5_EE17_M_default_appendEm", scope: !17, file: !12, line: 1689, type: !381, scopeLine: 1689, flags: DIFlagProtected | DIFlagPrototyped, spFlags: 0)
!461 = !DISubprogram(name: "_M_shrink_to_fit", linkageName: "_ZNSt6vectorINSt7__cxx1112basic_stringIcSt11char_traitsIcESaIcEEESaIS5_EE16_M_shrink_to_fitEv", scope: !17, file: !12, line: 1692, type: !462, scopeLine: 1692, flags: DIFlagProtected | DIFlagPrototyped, spFlags: 0)
!462 = !DISubroutineType(types: !463)
!463 = !{!135, !289}
!464 = !DISubprogram(name: "_M_insert_rval", linkageName: "_ZNSt6vectorINSt7__cxx1112basic_stringIcSt11char_traitsIcESaIcEEESaIS5_EE14_M_insert_rvalEN9__gnu_cxx17__normal_iteratorIPKS5_S7_EEOS5_", scope: !17, file: !12, line: 1741, type: !436, scopeLine: 1741, flags: DIFlagProtected | DIFlagPrototyped, spFlags: 0)
!465 = !DISubprogram(name: "_M_emplace_aux", linkageName: "_ZNSt6vectorINSt7__cxx1112basic_stringIcSt11char_traitsIcESaIcEEESaIS5_EE14_M_emplace_auxEN9__gnu_cxx17__normal_iteratorIPKS5_S7_EEOS5_", scope: !17, file: !12, line: 1750, type: !436, scopeLine: 1750, flags: DIFlagProtected | DIFlagPrototyped, spFlags: 0)
!466 = !DISubprogram(name: "_M_check_len", linkageName: "_ZNKSt6vectorINSt7__cxx1112basic_stringIcSt11char_traitsIcESaIcEEESaIS5_EE12_M_check_lenEmPKc", scope: !17, file: !12, line: 1756, type: !467, scopeLine: 1756, flags: DIFlagProtected | DIFlagPrototyped, spFlags: 0)
!467 = !DISubroutineType(types: !468)
!468 = !{!469, !357, !11, !470}
!469 = !DIDerivedType(tag: DW_TAG_typedef, name: "size_type", scope: !17, file: !12, line: 424, baseType: !13)
!470 = !DIDerivedType(tag: DW_TAG_pointer_type, baseType: !471, size: 64)
!471 = !DIDerivedType(tag: DW_TAG_const_type, baseType: !472)
!472 = !DIBasicType(name: "char", size: 8, encoding: DW_ATE_signed_char)
!473 = !DISubprogram(name: "_S_check_init_len", linkageName: "_ZNSt6vectorINSt7__cxx1112basic_stringIcSt11char_traitsIcESaIcEEESaIS5_EE17_S_check_init_lenEmRKS6_", scope: !17, file: !12, line: 1767, type: !474, scopeLine: 1767, flags: DIFlagProtected | DIFlagPrototyped | DIFlagStaticMember, spFlags: 0)
!474 = !DISubroutineType(types: !475)
!475 = !{!469, !11, !293}
!476 = !DISubprogram(name: "_S_max_size", linkageName: "_ZNSt6vectorINSt7__cxx1112basic_stringIcSt11char_traitsIcESaIcEEESaIS5_EE11_S_max_sizeERKS6_", scope: !17, file: !12, line: 1776, type: !477, scopeLine: 1776, flags: DIFlagProtected | DIFlagPrototyped | DIFlagStaticMember, spFlags: 0)
!477 = !DISubroutineType(types: !478)
!478 = !{!469, !479}
!479 = !DIDerivedType(tag: DW_TAG_reference_type, baseType: !480, size: 64)
!480 = !DIDerivedType(tag: DW_TAG_const_type, baseType: !279)
!481 = !DISubprogram(name: "_M_erase_at_end", linkageName: "_ZNSt6vectorINSt7__cxx1112basic_stringIcSt11char_traitsIcESaIcEEESaIS5_EE15_M_erase_at_endEPS5_", scope: !17, file: !12, line: 1792, type: !482, scopeLine: 1792, flags: DIFlagProtected | DIFlagPrototyped, spFlags: 0)
!482 = !DISubroutineType(types: !483)
!483 = !{null, !289, !277}
!484 = !DISubprogram(name: "_M_erase", linkageName: "_ZNSt6vectorINSt7__cxx1112basic_stringIcSt11char_traitsIcESaIcEEESaIS5_EE8_M_eraseEN9__gnu_cxx17__normal_iteratorIPS5_S7_EE", scope: !17, file: !12, line: 1804, type: !485, scopeLine: 1804, flags: DIFlagProtected | DIFlagPrototyped, spFlags: 0)
!485 = !DISubroutineType(types: !486)
!486 = !{!16, !289, !16}
!487 = !DISubprogram(name: "_M_erase", linkageName: "_ZNSt6vectorINSt7__cxx1112basic_stringIcSt11char_traitsIcESaIcEEESaIS5_EE8_M_eraseEN9__gnu_cxx17__normal_iteratorIPS5_S7_EESB_", scope: !17, file: !12, line: 1807, type: !488, scopeLine: 1807, flags: DIFlagProtected | DIFlagPrototyped, spFlags: 0)
!488 = !DISubroutineType(types: !489)
!489 = !{!16, !289, !16, !16}
!490 = !DISubprogram(name: "_M_move_assign", linkageName: "_ZNSt6vectorINSt7__cxx1112basic_stringIcSt11char_traitsIcESaIcEEESaIS5_EE14_M_move_assignEOS7_St17integral_constantIbLb1EE", scope: !17, file: !12, line: 1815, type: !491, scopeLine: 1815, flags: DIFlagPrototyped, spFlags: 0)
!491 = !DISubroutineType(types: !492)
!492 = !{null, !289, !313, !241}
!493 = !DISubprogram(name: "_M_move_assign", linkageName: "_ZNSt6vectorINSt7__cxx1112basic_stringIcSt11char_traitsIcESaIcEEESaIS5_EE14_M_move_assignEOS7_St17integral_constantIbLb0EE", scope: !17, file: !12, line: 1826, type: !494, scopeLine: 1826, flags: DIFlagPrototyped, spFlags: 0)
!494 = !DISubroutineType(types: !495)
!495 = !{null, !289, !313, !260}
!496 = distinct !DICompositeType(tag: DW_TAG_class_type, name: "__normal_iterator<std::__cxx11::basic_string<char, std::char_traits<char>, std::allocator<char> > *, std::vector<std::__cxx11::basic_string<char, std::char_traits<char>, std::allocator<char> >, std::allocator<std::__cxx11::basic_string<char, std::char_traits<char>, std::allocator<char> > > > >", scope: !31, file: !356, line: 930, size: 64, flags: DIFlagTypePassByValue | DIFlagNonTrivial, elements: !497, templateParams: !552, identifier: "_ZTSN9__gnu_cxx17__normal_iteratorIPNSt7__cxx1112basic_stringIcSt11char_traitsIcESaIcEEESt6vectorIS6_SaIS6_EEEE")
!497 = !{!498, !499, !503, !508, !519, !524, !528, !532, !533, !534, !541, !544, !547, !548, !549}
!498 = !DIDerivedType(tag: DW_TAG_member, name: "_M_current", scope: !496, file: !356, line: 933, baseType: !41, size: 64, flags: DIFlagProtected)
!499 = !DISubprogram(name: "__normal_iterator", scope: !496, file: !356, line: 949, type: !500, scopeLine: 949, flags: DIFlagPublic | DIFlagPrototyped, spFlags: 0)
!500 = !DISubroutineType(types: !501)
!501 = !{null, !502}
!502 = !DIDerivedType(tag: DW_TAG_pointer_type, baseType: !496, size: 64, flags: DIFlagArtificial | DIFlagObjectPointer)
!503 = !DISubprogram(name: "__normal_iterator", scope: !496, file: !356, line: 953, type: !504, scopeLine: 953, flags: DIFlagPublic | DIFlagExplicit | DIFlagPrototyped, spFlags: 0)
!504 = !DISubroutineType(types: !505)
!505 = !{null, !502, !506}
!506 = !DIDerivedType(tag: DW_TAG_reference_type, baseType: !507, size: 64)
!507 = !DIDerivedType(tag: DW_TAG_const_type, baseType: !41)
!508 = !DISubprogram(name: "operator*", linkageName: "_ZNK9__gnu_cxx17__normal_iteratorIPNSt7__cxx1112basic_stringIcSt11char_traitsIcESaIcEEESt6vectorIS6_SaIS6_EEEdeEv", scope: !496, file: !356, line: 968, type: !509, scopeLine: 968, flags: DIFlagPublic | DIFlagPrototyped, spFlags: 0)
!509 = !DISubroutineType(types: !510)
!510 = !{!511, !517}
!511 = !DIDerivedType(tag: DW_TAG_typedef, name: "reference", scope: !496, file: !356, line: 942, baseType: !512)
!512 = !DIDerivedType(tag: DW_TAG_typedef, name: "reference", scope: !514, file: !513, line: 216, baseType: !69)
!513 = !DIFile(filename: "/usr/lib/gcc/x86_64-linux-gnu/10/../../../../include/c++/10/bits/stl_iterator_base_types.h", directory: "")
!514 = distinct !DICompositeType(tag: DW_TAG_structure_type, name: "iterator_traits<std::__cxx11::basic_string<char, std::char_traits<char>, std::allocator<char> > *>", scope: !6, file: !513, line: 210, size: 8, flags: DIFlagTypePassByValue, elements: !2, templateParams: !515, identifier: "_ZTSSt15iterator_traitsIPNSt7__cxx1112basic_stringIcSt11char_traitsIcESaIcEEEE")
!515 = !{!516}
!516 = !DITemplateTypeParameter(name: "_Iterator", type: !41)
!517 = !DIDerivedType(tag: DW_TAG_pointer_type, baseType: !518, size: 64, flags: DIFlagArtificial | DIFlagObjectPointer)
!518 = !DIDerivedType(tag: DW_TAG_const_type, baseType: !496)
!519 = !DISubprogram(name: "operator->", linkageName: "_ZNK9__gnu_cxx17__normal_iteratorIPNSt7__cxx1112basic_stringIcSt11char_traitsIcESaIcEEESt6vectorIS6_SaIS6_EEEptEv", scope: !496, file: !356, line: 973, type: !520, scopeLine: 973, flags: DIFlagPublic | DIFlagPrototyped, spFlags: 0)
!520 = !DISubroutineType(types: !521)
!521 = !{!522, !517}
!522 = !DIDerivedType(tag: DW_TAG_typedef, name: "pointer", scope: !496, file: !356, line: 943, baseType: !523)
!523 = !DIDerivedType(tag: DW_TAG_typedef, name: "pointer", scope: !514, file: !513, line: 215, baseType: !41)
!524 = !DISubprogram(name: "operator++", linkageName: "_ZN9__gnu_cxx17__normal_iteratorIPNSt7__cxx1112basic_stringIcSt11char_traitsIcESaIcEEESt6vectorIS6_SaIS6_EEEppEv", scope: !496, file: !356, line: 978, type: !525, scopeLine: 978, flags: DIFlagPublic | DIFlagPrototyped, spFlags: 0)
!525 = !DISubroutineType(types: !526)
!526 = !{!527, !502}
!527 = !DIDerivedType(tag: DW_TAG_reference_type, baseType: !496, size: 64)
!528 = !DISubprogram(name: "operator++", linkageName: "_ZN9__gnu_cxx17__normal_iteratorIPNSt7__cxx1112basic_stringIcSt11char_traitsIcESaIcEEESt6vectorIS6_SaIS6_EEEppEi", scope: !496, file: !356, line: 986, type: !529, scopeLine: 986, flags: DIFlagPublic | DIFlagPrototyped, spFlags: 0)
!529 = !DISubroutineType(types: !530)
!530 = !{!496, !502, !531}
!531 = !DIBasicType(name: "int", size: 32, encoding: DW_ATE_signed)
!532 = !DISubprogram(name: "operator--", linkageName: "_ZN9__gnu_cxx17__normal_iteratorIPNSt7__cxx1112basic_stringIcSt11char_traitsIcESaIcEEESt6vectorIS6_SaIS6_EEEmmEv", scope: !496, file: !356, line: 992, type: !525, scopeLine: 992, flags: DIFlagPublic | DIFlagPrototyped, spFlags: 0)
!533 = !DISubprogram(name: "operator--", linkageName: "_ZN9__gnu_cxx17__normal_iteratorIPNSt7__cxx1112basic_stringIcSt11char_traitsIcESaIcEEESt6vectorIS6_SaIS6_EEEmmEi", scope: !496, file: !356, line: 1000, type: !529, scopeLine: 1000, flags: DIFlagPublic | DIFlagPrototyped, spFlags: 0)
!534 = !DISubprogram(name: "operator[]", linkageName: "_ZNK9__gnu_cxx17__normal_iteratorIPNSt7__cxx1112basic_stringIcSt11char_traitsIcESaIcEEESt6vectorIS6_SaIS6_EEEixEl", scope: !496, file: !356, line: 1006, type: !535, scopeLine: 1006, flags: DIFlagPublic | DIFlagPrototyped, spFlags: 0)
!535 = !DISubroutineType(types: !536)
!536 = !{!511, !517, !537}
!537 = !DIDerivedType(tag: DW_TAG_typedef, name: "difference_type", scope: !496, file: !356, line: 941, baseType: !538)
!538 = !DIDerivedType(tag: DW_TAG_typedef, name: "difference_type", scope: !514, file: !513, line: 214, baseType: !539)
!539 = !DIDerivedType(tag: DW_TAG_typedef, name: "ptrdiff_t", scope: !6, file: !14, line: 261, baseType: !540)
!540 = !DIBasicType(name: "long int", size: 64, encoding: DW_ATE_signed)
!541 = !DISubprogram(name: "operator+=", linkageName: "_ZN9__gnu_cxx17__normal_iteratorIPNSt7__cxx1112basic_stringIcSt11char_traitsIcESaIcEEESt6vectorIS6_SaIS6_EEEpLEl", scope: !496, file: !356, line: 1011, type: !542, scopeLine: 1011, flags: DIFlagPublic | DIFlagPrototyped, spFlags: 0)
!542 = !DISubroutineType(types: !543)
!543 = !{!527, !502, !537}
!544 = !DISubprogram(name: "operator+", linkageName: "_ZNK9__gnu_cxx17__normal_iteratorIPNSt7__cxx1112basic_stringIcSt11char_traitsIcESaIcEEESt6vectorIS6_SaIS6_EEEplEl", scope: !496, file: !356, line: 1016, type: !545, scopeLine: 1016, flags: DIFlagPublic | DIFlagPrototyped, spFlags: 0)
!545 = !DISubroutineType(types: !546)
!546 = !{!496, !517, !537}
!547 = !DISubprogram(name: "operator-=", linkageName: "_ZN9__gnu_cxx17__normal_iteratorIPNSt7__cxx1112basic_stringIcSt11char_traitsIcESaIcEEESt6vectorIS6_SaIS6_EEEmIEl", scope: !496, file: !356, line: 1021, type: !542, scopeLine: 1021, flags: DIFlagPublic | DIFlagPrototyped, spFlags: 0)
!548 = !DISubprogram(name: "operator-", linkageName: "_ZNK9__gnu_cxx17__normal_iteratorIPNSt7__cxx1112basic_stringIcSt11char_traitsIcESaIcEEESt6vectorIS6_SaIS6_EEEmiEl", scope: !496, file: !356, line: 1026, type: !545, scopeLine: 1026, flags: DIFlagPublic | DIFlagPrototyped, spFlags: 0)
!549 = !DISubprogram(name: "base", linkageName: "_ZNK9__gnu_cxx17__normal_iteratorIPNSt7__cxx1112basic_stringIcSt11char_traitsIcESaIcEEESt6vectorIS6_SaIS6_EEE4baseEv", scope: !496, file: !356, line: 1031, type: !550, scopeLine: 1031, flags: DIFlagPublic | DIFlagPrototyped, spFlags: 0)
!550 = !DISubroutineType(types: !551)
!551 = !{!506, !517}
!552 = !{!516, !553}
!553 = !DITemplateTypeParameter(name: "_Container", type: !17)
!554 = !DIDerivedType(tag: DW_TAG_typedef, name: "__do_it", scope: !555, file: !12, line: 468, baseType: !556)
!555 = distinct !DISubprogram(name: "_S_relocate", linkageName: "_ZNSt6vectorINSt7__cxx1112basic_stringIcSt11char_traitsIcESaIcEEESaIS5_EE11_S_relocateEPS5_S8_S8_RS6_", scope: !17, file: !12, line: 465, type: !284, scopeLine: 467, flags: DIFlagPrototyped, spFlags: DISPFlagDefinition, unit: !0, declaration: !283, retainedNodes: !2)
!556 = !DIDerivedType(tag: DW_TAG_typedef, name: "__bool_constant<_S_use_relocate()>", scope: !6, file: !242, line: 81, baseType: !243)
!557 = !{!558, !564, !568, !574, !578, !583, !585, !590, !594, !598, !608, !612, !616, !620, !624, !629, !633, !637, !641, !645, !653, !657, !661, !663, !667, !671, !676, !682, !686, !690, !692, !700, !704, !711, !713, !717, !721, !725, !729, !734, !739, !744, !745, !746, !747, !749, !750, !751, !752, !753, !754, !755, !757, !758, !759, !760, !761, !762, !763, !768, !769, !770, !771, !772, !773, !774, !775, !776, !777, !778, !779, !780, !781, !782, !783, !784, !785, !786, !787, !788, !789, !790, !791, !792, !796, !813, !816, !821, !829, !834, !838, !842, !846, !850, !852, !854, !858, !864, !868, !874, !880, !882, !886, !890, !894, !898, !909, !911, !915, !919, !923, !925, !929, !933, !937, !939, !941, !945, !953, !957, !961, !965, !967, !973, !975, !981, !985, !989, !993, !997, !1001, !1005, !1007, !1009, !1013, !1017, !1021, !1023, !1027, !1031, !1033, !1035, !1039, !1043, !1047, !1051, !1052, !1053, !1054, !1055, !1056, !1057, !1058, !1059, !1060, !1061, !1068, !1072, !1075, !1078, !1081, !1083, !1085, !1087, !1090, !1093, !1096, !1099, !1102, !1104, !1109, !1113, !1116, !1119, !1121, !1123, !1125, !1127, !1130, !1133, !1136, !1139, !1142, !1144, !1198, !1202, !1206, !1210, !1215, !1219, !1221, !1223, !1225, !1227, !1229, !1231, !1233, !1235, !1237, !1239, !1241, !1243, !1245, !1249, !1255, !1260, !1264, !1266, !1268, !1270, !1272, !1279, !1283, !1287, !1291, !1295, !1299, !1304, !1308, !1310, !1314, !1320, !1324, !1329, !1331, !1333, !1337, !1341, !1343, !1345, !1347, !1349, !1353, !1355, !1357, !1361, !1365, !1369, !1373, !1377, !1381, !1383, !1387, !1391, !1395, !1399, !1401, !1403, !1407, !1411, !1412, !1413, !1414, !1415}
!558 = !DIImportedEntity(tag: DW_TAG_imported_declaration, scope: !6, entity: !559, file: !563, line: 52)
!559 = !DISubprogram(name: "abs", scope: !560, file: !560, line: 840, type: !561, flags: DIFlagPrototyped, spFlags: 0)
!560 = !DIFile(filename: "/usr/include/stdlib.h", directory: "")
!561 = !DISubroutineType(types: !562)
!562 = !{!531, !531}
!563 = !DIFile(filename: "/usr/lib/gcc/x86_64-linux-gnu/10/../../../../include/c++/10/bits/std_abs.h", directory: "")
!564 = !DIImportedEntity(tag: DW_TAG_imported_declaration, scope: !6, entity: !565, file: !567, line: 127)
!565 = !DIDerivedType(tag: DW_TAG_typedef, name: "div_t", file: !560, line: 62, baseType: !566)
!566 = !DICompositeType(tag: DW_TAG_structure_type, file: !560, line: 58, flags: DIFlagFwdDecl, identifier: "_ZTS5div_t")
!567 = !DIFile(filename: "/usr/lib/gcc/x86_64-linux-gnu/10/../../../../include/c++/10/cstdlib", directory: "")
!568 = !DIImportedEntity(tag: DW_TAG_imported_declaration, scope: !6, entity: !569, file: !567, line: 128)
!569 = !DIDerivedType(tag: DW_TAG_typedef, name: "ldiv_t", file: !560, line: 70, baseType: !570)
!570 = distinct !DICompositeType(tag: DW_TAG_structure_type, file: !560, line: 66, size: 128, flags: DIFlagTypePassByValue, elements: !571, identifier: "_ZTS6ldiv_t")
!571 = !{!572, !573}
!572 = !DIDerivedType(tag: DW_TAG_member, name: "quot", scope: !570, file: !560, line: 68, baseType: !540, size: 64)
!573 = !DIDerivedType(tag: DW_TAG_member, name: "rem", scope: !570, file: !560, line: 69, baseType: !540, size: 64, offset: 64)
!574 = !DIImportedEntity(tag: DW_TAG_imported_declaration, scope: !6, entity: !575, file: !567, line: 130)
!575 = !DISubprogram(name: "abort", scope: !560, file: !560, line: 591, type: !576, flags: DIFlagPrototyped | DIFlagNoReturn, spFlags: 0)
!576 = !DISubroutineType(types: !577)
!577 = !{null}
!578 = !DIImportedEntity(tag: DW_TAG_imported_declaration, scope: !6, entity: !579, file: !567, line: 134)
!579 = !DISubprogram(name: "atexit", scope: !560, file: !560, line: 595, type: !580, flags: DIFlagPrototyped, spFlags: 0)
!580 = !DISubroutineType(types: !581)
!581 = !{!531, !582}
!582 = !DIDerivedType(tag: DW_TAG_pointer_type, baseType: !576, size: 64)
!583 = !DIImportedEntity(tag: DW_TAG_imported_declaration, scope: !6, entity: !584, file: !567, line: 137)
!584 = !DISubprogram(name: "at_quick_exit", scope: !560, file: !560, line: 600, type: !580, flags: DIFlagPrototyped, spFlags: 0)
!585 = !DIImportedEntity(tag: DW_TAG_imported_declaration, scope: !6, entity: !586, file: !567, line: 140)
!586 = !DISubprogram(name: "atof", scope: !560, file: !560, line: 101, type: !587, flags: DIFlagPrototyped, spFlags: 0)
!587 = !DISubroutineType(types: !588)
!588 = !{!589, !470}
!589 = !DIBasicType(name: "double", size: 64, encoding: DW_ATE_float)
!590 = !DIImportedEntity(tag: DW_TAG_imported_declaration, scope: !6, entity: !591, file: !567, line: 141)
!591 = !DISubprogram(name: "atoi", scope: !560, file: !560, line: 104, type: !592, flags: DIFlagPrototyped, spFlags: 0)
!592 = !DISubroutineType(types: !593)
!593 = !{!531, !470}
!594 = !DIImportedEntity(tag: DW_TAG_imported_declaration, scope: !6, entity: !595, file: !567, line: 142)
!595 = !DISubprogram(name: "atol", scope: !560, file: !560, line: 107, type: !596, flags: DIFlagPrototyped, spFlags: 0)
!596 = !DISubroutineType(types: !597)
!597 = !{!540, !470}
!598 = !DIImportedEntity(tag: DW_TAG_imported_declaration, scope: !6, entity: !599, file: !567, line: 143)
!599 = !DISubprogram(name: "bsearch", scope: !560, file: !560, line: 820, type: !600, flags: DIFlagPrototyped, spFlags: 0)
!600 = !DISubroutineType(types: !601)
!601 = !{!10, !82, !82, !602, !602, !604}
!602 = !DIDerivedType(tag: DW_TAG_typedef, name: "size_t", file: !603, line: 46, baseType: !15)
!603 = !DIFile(filename: "Rohit/IR2Vec-LoopOptimizationFramework/build_REL_AsrtON/lib/clang/10.0.1/include/stddef.h", directory: "/home/venkat/IF-DV")
!604 = !DIDerivedType(tag: DW_TAG_typedef, name: "__compar_fn_t", file: !560, line: 808, baseType: !605)
!605 = !DIDerivedType(tag: DW_TAG_pointer_type, baseType: !606, size: 64)
!606 = !DISubroutineType(types: !607)
!607 = !{!531, !82, !82}
!608 = !DIImportedEntity(tag: DW_TAG_imported_declaration, scope: !6, entity: !609, file: !567, line: 144)
!609 = !DISubprogram(name: "calloc", scope: !560, file: !560, line: 542, type: !610, flags: DIFlagPrototyped, spFlags: 0)
!610 = !DISubroutineType(types: !611)
!611 = !{!10, !602, !602}
!612 = !DIImportedEntity(tag: DW_TAG_imported_declaration, scope: !6, entity: !613, file: !567, line: 145)
!613 = !DISubprogram(name: "div", scope: !560, file: !560, line: 852, type: !614, flags: DIFlagPrototyped, spFlags: 0)
!614 = !DISubroutineType(types: !615)
!615 = !{!565, !531, !531}
!616 = !DIImportedEntity(tag: DW_TAG_imported_declaration, scope: !6, entity: !617, file: !567, line: 146)
!617 = !DISubprogram(name: "exit", scope: !560, file: !560, line: 617, type: !618, flags: DIFlagPrototyped | DIFlagNoReturn, spFlags: 0)
!618 = !DISubroutineType(types: !619)
!619 = !{null, !531}
!620 = !DIImportedEntity(tag: DW_TAG_imported_declaration, scope: !6, entity: !621, file: !567, line: 147)
!621 = !DISubprogram(name: "free", scope: !560, file: !560, line: 565, type: !622, flags: DIFlagPrototyped, spFlags: 0)
!622 = !DISubroutineType(types: !623)
!623 = !{null, !10}
!624 = !DIImportedEntity(tag: DW_TAG_imported_declaration, scope: !6, entity: !625, file: !567, line: 148)
!625 = !DISubprogram(name: "getenv", scope: !560, file: !560, line: 634, type: !626, flags: DIFlagPrototyped, spFlags: 0)
!626 = !DISubroutineType(types: !627)
!627 = !{!628, !470}
!628 = !DIDerivedType(tag: DW_TAG_pointer_type, baseType: !472, size: 64)
!629 = !DIImportedEntity(tag: DW_TAG_imported_declaration, scope: !6, entity: !630, file: !567, line: 149)
!630 = !DISubprogram(name: "labs", scope: !560, file: !560, line: 841, type: !631, flags: DIFlagPrototyped, spFlags: 0)
!631 = !DISubroutineType(types: !632)
!632 = !{!540, !540}
!633 = !DIImportedEntity(tag: DW_TAG_imported_declaration, scope: !6, entity: !634, file: !567, line: 150)
!634 = !DISubprogram(name: "ldiv", scope: !560, file: !560, line: 854, type: !635, flags: DIFlagPrototyped, spFlags: 0)
!635 = !DISubroutineType(types: !636)
!636 = !{!569, !540, !540}
!637 = !DIImportedEntity(tag: DW_TAG_imported_declaration, scope: !6, entity: !638, file: !567, line: 151)
!638 = !DISubprogram(name: "malloc", scope: !560, file: !560, line: 539, type: !639, flags: DIFlagPrototyped, spFlags: 0)
!639 = !DISubroutineType(types: !640)
!640 = !{!10, !602}
!641 = !DIImportedEntity(tag: DW_TAG_imported_declaration, scope: !6, entity: !642, file: !567, line: 153)
!642 = !DISubprogram(name: "mblen", scope: !560, file: !560, line: 922, type: !643, flags: DIFlagPrototyped, spFlags: 0)
!643 = !DISubroutineType(types: !644)
!644 = !{!531, !470, !602}
!645 = !DIImportedEntity(tag: DW_TAG_imported_declaration, scope: !6, entity: !646, file: !567, line: 154)
!646 = !DISubprogram(name: "mbstowcs", scope: !560, file: !560, line: 933, type: !647, flags: DIFlagPrototyped, spFlags: 0)
!647 = !DISubroutineType(types: !648)
!648 = !{!602, !649, !652, !602}
!649 = !DIDerivedType(tag: DW_TAG_restrict_type, baseType: !650)
!650 = !DIDerivedType(tag: DW_TAG_pointer_type, baseType: !651, size: 64)
!651 = !DIBasicType(name: "wchar_t", size: 32, encoding: DW_ATE_signed)
!652 = !DIDerivedType(tag: DW_TAG_restrict_type, baseType: !470)
!653 = !DIImportedEntity(tag: DW_TAG_imported_declaration, scope: !6, entity: !654, file: !567, line: 155)
!654 = !DISubprogram(name: "mbtowc", scope: !560, file: !560, line: 925, type: !655, flags: DIFlagPrototyped, spFlags: 0)
!655 = !DISubroutineType(types: !656)
!656 = !{!531, !649, !652, !602}
!657 = !DIImportedEntity(tag: DW_TAG_imported_declaration, scope: !6, entity: !658, file: !567, line: 157)
!658 = !DISubprogram(name: "qsort", scope: !560, file: !560, line: 830, type: !659, flags: DIFlagPrototyped, spFlags: 0)
!659 = !DISubroutineType(types: !660)
!660 = !{null, !10, !602, !602, !604}
!661 = !DIImportedEntity(tag: DW_TAG_imported_declaration, scope: !6, entity: !662, file: !567, line: 160)
!662 = !DISubprogram(name: "quick_exit", scope: !560, file: !560, line: 623, type: !618, flags: DIFlagPrototyped | DIFlagNoReturn, spFlags: 0)
!663 = !DIImportedEntity(tag: DW_TAG_imported_declaration, scope: !6, entity: !664, file: !567, line: 163)
!664 = !DISubprogram(name: "rand", scope: !560, file: !560, line: 453, type: !665, flags: DIFlagPrototyped, spFlags: 0)
!665 = !DISubroutineType(types: !666)
!666 = !{!531}
!667 = !DIImportedEntity(tag: DW_TAG_imported_declaration, scope: !6, entity: !668, file: !567, line: 164)
!668 = !DISubprogram(name: "realloc", scope: !560, file: !560, line: 550, type: !669, flags: DIFlagPrototyped, spFlags: 0)
!669 = !DISubroutineType(types: !670)
!670 = !{!10, !10, !602}
!671 = !DIImportedEntity(tag: DW_TAG_imported_declaration, scope: !6, entity: !672, file: !567, line: 165)
!672 = !DISubprogram(name: "srand", scope: !560, file: !560, line: 455, type: !673, flags: DIFlagPrototyped, spFlags: 0)
!673 = !DISubroutineType(types: !674)
!674 = !{null, !675}
!675 = !DIBasicType(name: "unsigned int", size: 32, encoding: DW_ATE_unsigned)
!676 = !DIImportedEntity(tag: DW_TAG_imported_declaration, scope: !6, entity: !677, file: !567, line: 166)
!677 = !DISubprogram(name: "strtod", scope: !560, file: !560, line: 117, type: !678, flags: DIFlagPrototyped, spFlags: 0)
!678 = !DISubroutineType(types: !679)
!679 = !{!589, !652, !680}
!680 = !DIDerivedType(tag: DW_TAG_restrict_type, baseType: !681)
!681 = !DIDerivedType(tag: DW_TAG_pointer_type, baseType: !628, size: 64)
!682 = !DIImportedEntity(tag: DW_TAG_imported_declaration, scope: !6, entity: !683, file: !567, line: 167)
!683 = !DISubprogram(name: "strtol", scope: !560, file: !560, line: 176, type: !684, flags: DIFlagPrototyped, spFlags: 0)
!684 = !DISubroutineType(types: !685)
!685 = !{!540, !652, !680, !531}
!686 = !DIImportedEntity(tag: DW_TAG_imported_declaration, scope: !6, entity: !687, file: !567, line: 168)
!687 = !DISubprogram(name: "strtoul", scope: !560, file: !560, line: 180, type: !688, flags: DIFlagPrototyped, spFlags: 0)
!688 = !DISubroutineType(types: !689)
!689 = !{!15, !652, !680, !531}
!690 = !DIImportedEntity(tag: DW_TAG_imported_declaration, scope: !6, entity: !691, file: !567, line: 169)
!691 = !DISubprogram(name: "system", scope: !560, file: !560, line: 784, type: !592, flags: DIFlagPrototyped, spFlags: 0)
!692 = !DIImportedEntity(tag: DW_TAG_imported_declaration, scope: !6, entity: !693, file: !567, line: 171)
!693 = !DISubprogram(name: "wcstombs", scope: !560, file: !560, line: 936, type: !694, flags: DIFlagPrototyped, spFlags: 0)
!694 = !DISubroutineType(types: !695)
!695 = !{!602, !696, !697, !602}
!696 = !DIDerivedType(tag: DW_TAG_restrict_type, baseType: !628)
!697 = !DIDerivedType(tag: DW_TAG_restrict_type, baseType: !698)
!698 = !DIDerivedType(tag: DW_TAG_pointer_type, baseType: !699, size: 64)
!699 = !DIDerivedType(tag: DW_TAG_const_type, baseType: !651)
!700 = !DIImportedEntity(tag: DW_TAG_imported_declaration, scope: !6, entity: !701, file: !567, line: 172)
!701 = !DISubprogram(name: "wctomb", scope: !560, file: !560, line: 929, type: !702, flags: DIFlagPrototyped, spFlags: 0)
!702 = !DISubroutineType(types: !703)
!703 = !{!531, !628, !651}
!704 = !DIImportedEntity(tag: DW_TAG_imported_declaration, scope: !31, entity: !705, file: !567, line: 200)
!705 = !DIDerivedType(tag: DW_TAG_typedef, name: "lldiv_t", file: !560, line: 80, baseType: !706)
!706 = distinct !DICompositeType(tag: DW_TAG_structure_type, file: !560, line: 76, size: 128, flags: DIFlagTypePassByValue, elements: !707, identifier: "_ZTS7lldiv_t")
!707 = !{!708, !710}
!708 = !DIDerivedType(tag: DW_TAG_member, name: "quot", scope: !706, file: !560, line: 78, baseType: !709, size: 64)
!709 = !DIBasicType(name: "long long int", size: 64, encoding: DW_ATE_signed)
!710 = !DIDerivedType(tag: DW_TAG_member, name: "rem", scope: !706, file: !560, line: 79, baseType: !709, size: 64, offset: 64)
!711 = !DIImportedEntity(tag: DW_TAG_imported_declaration, scope: !31, entity: !712, file: !567, line: 206)
!712 = !DISubprogram(name: "_Exit", scope: !560, file: !560, line: 629, type: !618, flags: DIFlagPrototyped | DIFlagNoReturn, spFlags: 0)
!713 = !DIImportedEntity(tag: DW_TAG_imported_declaration, scope: !31, entity: !714, file: !567, line: 210)
!714 = !DISubprogram(name: "llabs", scope: !560, file: !560, line: 844, type: !715, flags: DIFlagPrototyped, spFlags: 0)
!715 = !DISubroutineType(types: !716)
!716 = !{!709, !709}
!717 = !DIImportedEntity(tag: DW_TAG_imported_declaration, scope: !31, entity: !718, file: !567, line: 216)
!718 = !DISubprogram(name: "lldiv", scope: !560, file: !560, line: 858, type: !719, flags: DIFlagPrototyped, spFlags: 0)
!719 = !DISubroutineType(types: !720)
!720 = !{!705, !709, !709}
!721 = !DIImportedEntity(tag: DW_TAG_imported_declaration, scope: !31, entity: !722, file: !567, line: 227)
!722 = !DISubprogram(name: "atoll", scope: !560, file: !560, line: 112, type: !723, flags: DIFlagPrototyped, spFlags: 0)
!723 = !DISubroutineType(types: !724)
!724 = !{!709, !470}
!725 = !DIImportedEntity(tag: DW_TAG_imported_declaration, scope: !31, entity: !726, file: !567, line: 228)
!726 = !DISubprogram(name: "strtoll", scope: !560, file: !560, line: 200, type: !727, flags: DIFlagPrototyped, spFlags: 0)
!727 = !DISubroutineType(types: !728)
!728 = !{!709, !652, !680, !531}
!729 = !DIImportedEntity(tag: DW_TAG_imported_declaration, scope: !31, entity: !730, file: !567, line: 229)
!730 = !DISubprogram(name: "strtoull", scope: !560, file: !560, line: 205, type: !731, flags: DIFlagPrototyped, spFlags: 0)
!731 = !DISubroutineType(types: !732)
!732 = !{!733, !652, !680, !531}
!733 = !DIBasicType(name: "long long unsigned int", size: 64, encoding: DW_ATE_unsigned)
!734 = !DIImportedEntity(tag: DW_TAG_imported_declaration, scope: !31, entity: !735, file: !567, line: 231)
!735 = !DISubprogram(name: "strtof", scope: !560, file: !560, line: 123, type: !736, flags: DIFlagPrototyped, spFlags: 0)
!736 = !DISubroutineType(types: !737)
!737 = !{!738, !652, !680}
!738 = !DIBasicType(name: "float", size: 32, encoding: DW_ATE_float)
!739 = !DIImportedEntity(tag: DW_TAG_imported_declaration, scope: !31, entity: !740, file: !567, line: 232)
!740 = !DISubprogram(name: "strtold", scope: !560, file: !560, line: 126, type: !741, flags: DIFlagPrototyped, spFlags: 0)
!741 = !DISubroutineType(types: !742)
!742 = !{!743, !652, !680}
!743 = !DIBasicType(name: "long double", size: 128, encoding: DW_ATE_float)
!744 = !DIImportedEntity(tag: DW_TAG_imported_declaration, scope: !6, entity: !705, file: !567, line: 240)
!745 = !DIImportedEntity(tag: DW_TAG_imported_declaration, scope: !6, entity: !712, file: !567, line: 242)
!746 = !DIImportedEntity(tag: DW_TAG_imported_declaration, scope: !6, entity: !714, file: !567, line: 244)
!747 = !DIImportedEntity(tag: DW_TAG_imported_declaration, scope: !6, entity: !748, file: !567, line: 245)
!748 = !DISubprogram(name: "div", linkageName: "_ZN9__gnu_cxx3divExx", scope: !31, file: !567, line: 213, type: !719, flags: DIFlagPrototyped, spFlags: 0)
!749 = !DIImportedEntity(tag: DW_TAG_imported_declaration, scope: !6, entity: !718, file: !567, line: 246)
!750 = !DIImportedEntity(tag: DW_TAG_imported_declaration, scope: !6, entity: !722, file: !567, line: 248)
!751 = !DIImportedEntity(tag: DW_TAG_imported_declaration, scope: !6, entity: !735, file: !567, line: 249)
!752 = !DIImportedEntity(tag: DW_TAG_imported_declaration, scope: !6, entity: !726, file: !567, line: 250)
!753 = !DIImportedEntity(tag: DW_TAG_imported_declaration, scope: !6, entity: !730, file: !567, line: 251)
!754 = !DIImportedEntity(tag: DW_TAG_imported_declaration, scope: !6, entity: !740, file: !567, line: 252)
!755 = !DIImportedEntity(tag: DW_TAG_imported_declaration, scope: !0, entity: !575, file: !756, line: 38)
!756 = !DIFile(filename: "/usr/lib/gcc/x86_64-linux-gnu/10/../../../../include/c++/10/stdlib.h", directory: "")
!757 = !DIImportedEntity(tag: DW_TAG_imported_declaration, scope: !0, entity: !579, file: !756, line: 39)
!758 = !DIImportedEntity(tag: DW_TAG_imported_declaration, scope: !0, entity: !617, file: !756, line: 40)
!759 = !DIImportedEntity(tag: DW_TAG_imported_declaration, scope: !0, entity: !584, file: !756, line: 43)
!760 = !DIImportedEntity(tag: DW_TAG_imported_declaration, scope: !0, entity: !662, file: !756, line: 46)
!761 = !DIImportedEntity(tag: DW_TAG_imported_declaration, scope: !0, entity: !565, file: !756, line: 51)
!762 = !DIImportedEntity(tag: DW_TAG_imported_declaration, scope: !0, entity: !569, file: !756, line: 52)
!763 = !DIImportedEntity(tag: DW_TAG_imported_declaration, scope: !0, entity: !764, file: !756, line: 54)
!764 = !DISubprogram(name: "abs", linkageName: "_ZSt3absg", scope: !6, file: !563, line: 103, type: !765, flags: DIFlagPrototyped, spFlags: 0)
!765 = !DISubroutineType(types: !766)
!766 = !{!767, !767}
!767 = !DIBasicType(name: "__float128", size: 128, encoding: DW_ATE_float)
!768 = !DIImportedEntity(tag: DW_TAG_imported_declaration, scope: !0, entity: !586, file: !756, line: 55)
!769 = !DIImportedEntity(tag: DW_TAG_imported_declaration, scope: !0, entity: !591, file: !756, line: 56)
!770 = !DIImportedEntity(tag: DW_TAG_imported_declaration, scope: !0, entity: !595, file: !756, line: 57)
!771 = !DIImportedEntity(tag: DW_TAG_imported_declaration, scope: !0, entity: !599, file: !756, line: 58)
!772 = !DIImportedEntity(tag: DW_TAG_imported_declaration, scope: !0, entity: !609, file: !756, line: 59)
!773 = !DIImportedEntity(tag: DW_TAG_imported_declaration, scope: !0, entity: !748, file: !756, line: 60)
!774 = !DIImportedEntity(tag: DW_TAG_imported_declaration, scope: !0, entity: !621, file: !756, line: 61)
!775 = !DIImportedEntity(tag: DW_TAG_imported_declaration, scope: !0, entity: !625, file: !756, line: 62)
!776 = !DIImportedEntity(tag: DW_TAG_imported_declaration, scope: !0, entity: !630, file: !756, line: 63)
!777 = !DIImportedEntity(tag: DW_TAG_imported_declaration, scope: !0, entity: !634, file: !756, line: 64)
!778 = !DIImportedEntity(tag: DW_TAG_imported_declaration, scope: !0, entity: !638, file: !756, line: 65)
!779 = !DIImportedEntity(tag: DW_TAG_imported_declaration, scope: !0, entity: !642, file: !756, line: 67)
!780 = !DIImportedEntity(tag: DW_TAG_imported_declaration, scope: !0, entity: !646, file: !756, line: 68)
!781 = !DIImportedEntity(tag: DW_TAG_imported_declaration, scope: !0, entity: !654, file: !756, line: 69)
!782 = !DIImportedEntity(tag: DW_TAG_imported_declaration, scope: !0, entity: !658, file: !756, line: 71)
!783 = !DIImportedEntity(tag: DW_TAG_imported_declaration, scope: !0, entity: !664, file: !756, line: 72)
!784 = !DIImportedEntity(tag: DW_TAG_imported_declaration, scope: !0, entity: !668, file: !756, line: 73)
!785 = !DIImportedEntity(tag: DW_TAG_imported_declaration, scope: !0, entity: !672, file: !756, line: 74)
!786 = !DIImportedEntity(tag: DW_TAG_imported_declaration, scope: !0, entity: !677, file: !756, line: 75)
!787 = !DIImportedEntity(tag: DW_TAG_imported_declaration, scope: !0, entity: !683, file: !756, line: 76)
!788 = !DIImportedEntity(tag: DW_TAG_imported_declaration, scope: !0, entity: !687, file: !756, line: 77)
!789 = !DIImportedEntity(tag: DW_TAG_imported_declaration, scope: !0, entity: !691, file: !756, line: 78)
!790 = !DIImportedEntity(tag: DW_TAG_imported_declaration, scope: !0, entity: !693, file: !756, line: 80)
!791 = !DIImportedEntity(tag: DW_TAG_imported_declaration, scope: !0, entity: !701, file: !756, line: 81)
!792 = !DIImportedEntity(tag: DW_TAG_imported_module, scope: !793, entity: !794, file: !795, line: 58)
!793 = !DINamespace(name: "__gnu_debug", scope: null)
!794 = !DINamespace(name: "__debug", scope: !6)
!795 = !DIFile(filename: "/usr/lib/gcc/x86_64-linux-gnu/10/../../../../include/c++/10/debug/debug.h", directory: "")
!796 = !DIImportedEntity(tag: DW_TAG_imported_declaration, scope: !6, entity: !797, file: !812, line: 64)
!797 = !DIDerivedType(tag: DW_TAG_typedef, name: "mbstate_t", file: !798, line: 6, baseType: !799)
!798 = !DIFile(filename: "/usr/include/x86_64-linux-gnu/bits/types/mbstate_t.h", directory: "")
!799 = !DIDerivedType(tag: DW_TAG_typedef, name: "__mbstate_t", file: !800, line: 21, baseType: !801)
!800 = !DIFile(filename: "/usr/include/x86_64-linux-gnu/bits/types/__mbstate_t.h", directory: "")
!801 = distinct !DICompositeType(tag: DW_TAG_structure_type, file: !800, line: 13, size: 64, flags: DIFlagTypePassByValue, elements: !802, identifier: "_ZTS11__mbstate_t")
!802 = !{!803, !804}
!803 = !DIDerivedType(tag: DW_TAG_member, name: "__count", scope: !801, file: !800, line: 15, baseType: !531, size: 32)
!804 = !DIDerivedType(tag: DW_TAG_member, name: "__value", scope: !801, file: !800, line: 20, baseType: !805, size: 32, offset: 32)
!805 = distinct !DICompositeType(tag: DW_TAG_union_type, scope: !801, file: !800, line: 16, size: 32, flags: DIFlagTypePassByValue, elements: !806, identifier: "_ZTSN11__mbstate_tUt_E")
!806 = !{!807, !808}
!807 = !DIDerivedType(tag: DW_TAG_member, name: "__wch", scope: !805, file: !800, line: 18, baseType: !675, size: 32)
!808 = !DIDerivedType(tag: DW_TAG_member, name: "__wchb", scope: !805, file: !800, line: 19, baseType: !809, size: 32)
!809 = !DICompositeType(tag: DW_TAG_array_type, baseType: !472, size: 32, elements: !810)
!810 = !{!811}
!811 = !DISubrange(count: 4)
!812 = !DIFile(filename: "/usr/lib/gcc/x86_64-linux-gnu/10/../../../../include/c++/10/cwchar", directory: "")
!813 = !DIImportedEntity(tag: DW_TAG_imported_declaration, scope: !6, entity: !814, file: !812, line: 141)
!814 = !DIDerivedType(tag: DW_TAG_typedef, name: "wint_t", file: !815, line: 20, baseType: !675)
!815 = !DIFile(filename: "/usr/include/x86_64-linux-gnu/bits/types/wint_t.h", directory: "")
!816 = !DIImportedEntity(tag: DW_TAG_imported_declaration, scope: !6, entity: !817, file: !812, line: 143)
!817 = !DISubprogram(name: "btowc", scope: !818, file: !818, line: 284, type: !819, flags: DIFlagPrototyped, spFlags: 0)
!818 = !DIFile(filename: "/usr/include/wchar.h", directory: "")
!819 = !DISubroutineType(types: !820)
!820 = !{!814, !531}
!821 = !DIImportedEntity(tag: DW_TAG_imported_declaration, scope: !6, entity: !822, file: !812, line: 144)
!822 = !DISubprogram(name: "fgetwc", scope: !818, file: !818, line: 726, type: !823, flags: DIFlagPrototyped, spFlags: 0)
!823 = !DISubroutineType(types: !824)
!824 = !{!814, !825}
!825 = !DIDerivedType(tag: DW_TAG_pointer_type, baseType: !826, size: 64)
!826 = !DIDerivedType(tag: DW_TAG_typedef, name: "__FILE", file: !827, line: 5, baseType: !828)
!827 = !DIFile(filename: "/usr/include/x86_64-linux-gnu/bits/types/__FILE.h", directory: "")
!828 = !DICompositeType(tag: DW_TAG_structure_type, name: "_IO_FILE", file: !827, line: 4, flags: DIFlagFwdDecl, identifier: "_ZTS8_IO_FILE")
!829 = !DIImportedEntity(tag: DW_TAG_imported_declaration, scope: !6, entity: !830, file: !812, line: 145)
!830 = !DISubprogram(name: "fgetws", scope: !818, file: !818, line: 755, type: !831, flags: DIFlagPrototyped, spFlags: 0)
!831 = !DISubroutineType(types: !832)
!832 = !{!650, !649, !531, !833}
!833 = !DIDerivedType(tag: DW_TAG_restrict_type, baseType: !825)
!834 = !DIImportedEntity(tag: DW_TAG_imported_declaration, scope: !6, entity: !835, file: !812, line: 146)
!835 = !DISubprogram(name: "fputwc", scope: !818, file: !818, line: 740, type: !836, flags: DIFlagPrototyped, spFlags: 0)
!836 = !DISubroutineType(types: !837)
!837 = !{!814, !651, !825}
!838 = !DIImportedEntity(tag: DW_TAG_imported_declaration, scope: !6, entity: !839, file: !812, line: 147)
!839 = !DISubprogram(name: "fputws", scope: !818, file: !818, line: 762, type: !840, flags: DIFlagPrototyped, spFlags: 0)
!840 = !DISubroutineType(types: !841)
!841 = !{!531, !697, !833}
!842 = !DIImportedEntity(tag: DW_TAG_imported_declaration, scope: !6, entity: !843, file: !812, line: 148)
!843 = !DISubprogram(name: "fwide", scope: !818, file: !818, line: 573, type: !844, flags: DIFlagPrototyped, spFlags: 0)
!844 = !DISubroutineType(types: !845)
!845 = !{!531, !825, !531}
