; ModuleID = 'simulator/chistogram.cc'
source_filename = "simulator/chistogram.cc"
target datalayout = "e-m:e-p270:32:32-p271:32:32-p272:64:64-i64:64-f80:128-n8:16:32:64-S128"
target triple = "x86_64-unknown-linux-gnu"

%"class.std::ios_base::Init" = type { i8 }
%class.ExecuteOnStartup = type { void ()*, %class.ExecuteOnStartup* }
%class.cGlobalRegistrationList = type { %class.cRegistrationList*, i8* }
%class.cRegistrationList = type { %class.cNamedObject.base, %"class.std::vector", %"class.std::map.6", %"class.std::map.6" }
%class.cNamedObject.base = type <{ %class.cObject, i8*, i16, i16 }>
%class.cObject = type { i32 (...)** }
%"class.std::vector" = type { %"struct.std::_Vector_base" }
%"struct.std::_Vector_base" = type { %"struct.std::_Vector_base<cOwnedObject *, std::allocator<cOwnedObject *> >::_Vector_impl" }
%"struct.std::_Vector_base<cOwnedObject *, std::allocator<cOwnedObject *> >::_Vector_impl" = type { %"struct.std::_Vector_base<cOwnedObject *, std::allocator<cOwnedObject *> >::_Vector_impl_data" }
%"struct.std::_Vector_base<cOwnedObject *, std::allocator<cOwnedObject *> >::_Vector_impl_data" = type { %class.cOwnedObject**, %class.cOwnedObject**, %class.cOwnedObject** }
%class.cOwnedObject = type <{ %class.cNamedObject.base, [4 x i8], %class.cObject*, i32, [4 x i8] }>
%"class.std::map.6" = type { %"class.std::_Rb_tree.7" }
%"class.std::_Rb_tree.7" = type { %"struct.std::_Rb_tree<std::__cxx11::basic_string<char>, std::pair<const std::__cxx11::basic_string<char>, cOwnedObject *>, std::_Select1st<std::pair<const std::__cxx11::basic_string<char>, cOwnedObject *> >, std::less<std::__cxx11::basic_string<char> >, std::allocator<std::pair<const std::__cxx11::basic_string<char>, cOwnedObject *> > >::_Rb_tree_impl" }
%"struct.std::_Rb_tree<std::__cxx11::basic_string<char>, std::pair<const std::__cxx11::basic_string<char>, cOwnedObject *>, std::_Select1st<std::pair<const std::__cxx11::basic_string<char>, cOwnedObject *> >, std::less<std::__cxx11::basic_string<char> >, std::allocator<std::pair<const std::__cxx11::basic_string<char>, cOwnedObject *> > >::_Rb_tree_impl" = type { %"struct.std::_Rb_tree_key_compare.11", %"struct.std::_Rb_tree_header" }
%"struct.std::_Rb_tree_key_compare.11" = type { %"struct.std::less.12" }
%"struct.std::less.12" = type { i8 }
%"struct.std::_Rb_tree_header" = type { %"struct.std::_Rb_tree_node_base", i64 }
%"struct.std::_Rb_tree_node_base" = type { i32, %"struct.std::_Rb_tree_node_base"*, %"struct.std::_Rb_tree_node_base"*, %"struct.std::_Rb_tree_node_base"* }
%class.cSimulation = type { %class.cNoncopyableOwnedObject.base, i32, i32, %class.cModule**, i32, %class.cEnvir*, %class.cModule*, %class.cSimpleModule*, %class.cComponent*, i32, %class.cModuleType*, %class.cScheduler*, %class.SimTime, i64, %class.cMessage*, %class.cException*, %class.cHasher*, %class.cMessageHeap }
%class.cNoncopyableOwnedObject.base = type { %class.cOwnedObject.base }
%class.cOwnedObject.base = type <{ %class.cNamedObject.base, [4 x i8], %class.cObject*, i32 }>
%class.cEnvir = type { i32 (...)**, i8, i8, i8, %"class.std::basic_ostream" }
%"class.std::basic_ostream" = type { i32 (...)**, %"class.std::basic_ios" }
%"class.std::basic_ios" = type { %"class.std::ios_base", %"class.std::basic_ostream"*, i8, i8, %"class.std::basic_streambuf"*, %"class.std::ctype"*, %"class.std::num_put"*, %"class.std::num_get"* }
%"class.std::ios_base" = type { i32 (...)**, i64, i64, i32, i32, i32, %"struct.std::ios_base::_Callback_list"*, %"struct.std::ios_base::_Words", [8 x %"struct.std::ios_base::_Words"], i32, %"struct.std::ios_base::_Words"*, %"class.std::locale" }
%"struct.std::ios_base::_Callback_list" = type { %"struct.std::ios_base::_Callback_list"*, void (i32, %"class.std::ios_base"*, i32)*, i32, i32 }
%"struct.std::ios_base::_Words" = type { i8*, i64 }
%"class.std::locale" = type { %"class.std::locale::_Impl"* }
%"class.std::locale::_Impl" = type { i32, %"class.std::locale::facet"**, i64, %"class.std::locale::facet"**, i8** }
%"class.std::locale::facet" = type <{ i32 (...)**, i32, [4 x i8] }>
%"class.std::basic_streambuf" = type { i32 (...)**, i8*, i8*, i8*, i8*, i8*, i8*, %"class.std::locale" }
%"class.std::ctype" = type <{ %"class.std::locale::facet.base", [4 x i8], %struct.__locale_struct*, i8, [7 x i8], i32*, i32*, i16*, i8, [256 x i8], [256 x i8], i8, [6 x i8] }>
%"class.std::locale::facet.base" = type <{ i32 (...)**, i32 }>
%struct.__locale_struct = type { [13 x %struct.__locale_data*], i16*, i32*, i32*, [13 x i8*] }
%struct.__locale_data = type opaque
%"class.std::num_put" = type { %"class.std::locale::facet.base", [4 x i8] }
%"class.std::num_get" = type { %"class.std::locale::facet.base", [4 x i8] }
%class.cModule = type { %class.cComponent, i8*, i32, %class.cModule*, %class.cModule*, %class.cModule*, %class.cModule*, i32, %"struct.cGate::Desc"*, i32, i32 }
%class.cComponent = type { %class.cDefaultList, %class.cComponentType*, i16, i32*, i16, i16, %class.cPar*, %class.cDisplayString* }
%class.cDefaultList = type { %class.cNoncopyableOwnedObject.base, %class.cOwnedObject**, i32, i32 }
%class.cComponentType = type opaque
%class.cPar = type { %class.cObject, %class.cComponent*, %class.cParImpl* }
%class.cParImpl = type opaque
%class.cDisplayString = type opaque
%"struct.cGate::Desc" = type { %class.cModule*, %"struct.cGate::Name"*, i32, %union.anon.14, %union.anon.15 }
%"struct.cGate::Name" = type <{ %class.opp_string, %class.opp_string, %class.opp_string, i32, [4 x i8] }>
%class.opp_string = type { i8* }
%union.anon.14 = type { %class.cGate* }
%class.cGate = type { %class.cObject, %"struct.cGate::Desc"*, i32, %class.cChannel*, %class.cGate*, %class.cGate* }
%class.cChannel = type opaque
%union.anon.15 = type { %class.cGate* }
%class.cSimpleModule = type opaque
%class.cModuleType = type opaque
%class.cScheduler = type opaque
%class.SimTime = type { i64 }
%class.cMessage = type opaque
%class.cException = type <{ %"class.std::exception", i32, [4 x i8], %"class.std::__cxx11::basic_string", i8, [7 x i8], %"class.std::__cxx11::basic_string", %"class.std::__cxx11::basic_string", i32, [4 x i8] }>
%"class.std::exception" = type { i32 (...)** }
%"class.std::__cxx11::basic_string" = type { %"struct.std::__cxx11::basic_string<char, std::char_traits<char>, std::allocator<char> >::_Alloc_hider", i64, %union.anon }
%"struct.std::__cxx11::basic_string<char, std::char_traits<char>, std::allocator<char> >::_Alloc_hider" = type { i8* }
%union.anon = type { i64, [8 x i8] }
%class.cHasher = type opaque
%class.cMessageHeap = type { %class.cOwnedObject.base, %class.cMessage**, i32, i32, i64 }
%"struct.std::piecewise_construct_t" = type { i8 }
%class.cHistogramBase = type { %class.cDensityEstBase, i32, i32* }
%class.cDensityEstBase = type { %class.cStdDev, double, double, i64, i64, i64, double, i32, i8, double* }
%class.cStdDev = type { %class.cStatistic.base, i64, double, double, double, double }
%class.cStatistic.base = type <{ %class.cOwnedObject.base, [4 x i8], %class.cTransientDetection*, %class.cAccuracyDetection*, i32 }>
%class.cTransientDetection = type { %class.cOwnedObject.base, %class.cStatistic*, void (%class.cTransientDetection*, i8*)*, i8* }
%class.cStatistic = type <{ %class.cOwnedObject.base, [4 x i8], %class.cTransientDetection*, %class.cAccuracyDetection*, i32, [4 x i8] }>
%class.cAccuracyDetection = type { %class.cOwnedObject.base, %class.cStatistic*, void (%class.cAccuracyDetection*, i8*)*, i8* }
%class.cEqdHistogramBase = type { %class.cHistogramBase, double }
%class.cLongHistogram = type { %class.cEqdHistogramBase }
%class.cDoubleHistogram = type { %class.cEqdHistogramBase }
%class.cClassFactory = type { %class.cNoncopyableOwnedObject.base, %class.cObject* ()*, %"class.std::__cxx11::basic_string" }
%"class.std::type_info" = type { i32 (...)**, i8* }
%class.cCommBuffer = type opaque
%class.cRuntimeError = type { %class.cException.base, [4 x i8] }
%class.cException.base = type <{ %"class.std::exception", i32, [4 x i8], %"class.std::__cxx11::basic_string", i8, [7 x i8], %"class.std::__cxx11::basic_string", %"class.std::__cxx11::basic_string", i32 }>
%struct._IO_FILE = type { i32, i8*, i8*, i8*, i8*, i8*, i8*, i8*, i8*, i8*, i8*, i8*, %struct._IO_marker*, %struct._IO_FILE*, i32, i32, i64, i16, i8, [1 x i8], i8*, i64, %struct._IO_codecvt*, %struct._IO_wide_data*, %struct._IO_FILE*, i8*, i64, i32, [20 x i8] }
%struct._IO_marker = type opaque
%struct._IO_codecvt = type opaque
%struct._IO_wide_data = type opaque
%class.opp_string_map = type { %"class.std::map" }
%"class.std::map" = type { %"class.std::_Rb_tree" }
%"class.std::_Rb_tree" = type { %"struct.std::_Rb_tree<opp_string, std::pair<const opp_string, opp_string>, std::_Select1st<std::pair<const opp_string, opp_string> >, std::less<opp_string>, std::allocator<std::pair<const opp_string, opp_string> > >::_Rb_tree_impl" }
%"struct.std::_Rb_tree<opp_string, std::pair<const opp_string, opp_string>, std::_Select1st<std::pair<const opp_string, opp_string> >, std::less<opp_string>, std::allocator<std::pair<const opp_string, opp_string> > >::_Rb_tree_impl" = type { %"struct.std::_Rb_tree_key_compare", %"struct.std::_Rb_tree_header" }
%"struct.std::_Rb_tree_key_compare" = type { %"struct.std::less" }
%"struct.std::less" = type { i8 }
%"struct.std::_Rb_tree_iterator" = type { %"struct.std::_Rb_tree_node_base"* }
%"struct.std::_Rb_tree_const_iterator" = type { %"struct.std::_Rb_tree_node_base"* }
%"class.std::tuple" = type { %"struct.std::_Tuple_impl" }
%"struct.std::_Tuple_impl" = type { %"struct.std::_Head_base" }
%"struct.std::_Head_base" = type { %class.opp_string* }
%"class.std::tuple.16" = type { i8 }
%"struct.std::pair" = type { %class.opp_string, %class.opp_string }
%class.cRNG = type { %class.cObject, i64 }
%class.cClassDescriptor = type opaque
%class.cNamedObject = type <{ %class.cObject, i8*, i16, i16, [4 x i8] }>
%class.cVisitor = type { i32 (...)** }
%"struct.cDensityEstBase::Cell" = type { double, double, double, double }
%"class.std::allocator" = type { i8 }
%"struct.std::_Rb_tree_node" = type { %"struct.std::_Rb_tree_node_base", %"struct.__gnu_cxx::__aligned_membuf" }
%"struct.__gnu_cxx::__aligned_membuf" = type { [16 x i8] }
%"struct.std::pair.17" = type { %"struct.std::_Rb_tree_node_base"*, %"struct.std::_Rb_tree_node_base"* }
%"struct.std::_Select1st" = type { i8 }
%"class.std::allocator.0" = type { i8 }
%"class.__gnu_cxx::new_allocator.1" = type { i8 }
%"struct.std::_Index_tuple" = type { i8 }
%"struct.std::_Index_tuple.20" = type { i8 }
%"class.std::__pair_base" = type { i8 }
%"class.std::__pair_base.18" = type { i8 }

$_ZN13cRuntimeErrorD2Ev = comdat any

$_ZNSt3mapI10opp_stringS0_St4lessIS0_ESaISt4pairIKS0_S0_EEEixEOS0_ = comdat any

$_ZN10opp_stringC2EPKc = comdat any

$_ZN10opp_stringaSEPKc = comdat any

$_ZN10opp_stringD2Ev = comdat any

$_Z12genk_intrandil = comdat any

$_Z12genk_dblrandi = comdat any

$_ZNK12cNamedObject7getNameEv = comdat any

$_ZNK7cObject11getFullNameEv = comdat any

$_ZNK7cStdDev3dupEv = comdat any

$_ZNK12cOwnedObject8getOwnerEv = comdat any

$_ZNK12cOwnedObject13isOwnedObjectEv = comdat any

$_ZN12cNamedObject14getNamePoolingEv = comdat any

$_ZNK12cOwnedObject11isSoftOwnerEv = comdat any

$_ZN10cStatistic21getAttributesToRecordER14opp_string_map = comdat any

$_ZN15cDensityEstBase7collectE7SimTime = comdat any

$_ZNK7cStdDev10isWeightedEv = comdat any

$_ZNK7cStdDev8getCountEv = comdat any

$_ZNK7cStdDev6getSumEv = comdat any

$_ZNK7cStdDev9getSqrSumEv = comdat any

$_ZNK7cStdDev6getMinEv = comdat any

$_ZNK7cStdDev6getMaxEv = comdat any

$_ZNK7cStdDev7getMeanEv = comdat any

$_ZNK7cStdDev10getWeightsEv = comdat any

$_ZNK7cStdDev14getWeightedSumEv = comdat any

$_ZNK7cStdDev16getSqrSumWeightsEv = comdat any

$_ZNK7cStdDev17getWeightedSqrSumEv = comdat any

$_ZN10cStatistic6recordEv = comdat any

$_ZN10cStatistic14recordWithUnitEPKc = comdat any

$_ZNK15cDensityEstBase13isTransformedEv = comdat any

$_ZNK15cDensityEstBase16getUnderflowCellEv = comdat any

$_ZNK15cDensityEstBase15getOverflowCellEv = comdat any

$_ZN17cEqdHistogramBaseD2Ev = comdat any

$_ZN17cEqdHistogramBaseD0Ev = comdat any

$_ZNK17cEqdHistogramBase11getCellSizeEv = comdat any

$_ZNK14cLongHistogram3dupEv = comdat any

$_ZN14cLongHistogram7collectE7SimTime = comdat any

$_ZNK16cDoubleHistogram3dupEv = comdat any

$_ZN10cExceptionD2Ev = comdat any

$_ZN10cExceptionD0Ev = comdat any

$_ZNK10cException4whatEv = comdat any

$_ZNK10cException3dupEv = comdat any

$_ZNK10cException12getErrorCodeEv = comdat any

$_ZN10cException10setMessageEPKc = comdat any

$_ZN10cException14prependMessageEPKc = comdat any

$_ZNK10cException10hasContextEv = comdat any

$_ZNK10cException19getContextClassNameEv = comdat any

$_ZNK10cException18getContextFullPathEv = comdat any

$_ZNK10cException11getModuleIDEv = comdat any

$_ZStplIcSt11char_traitsIcESaIcEENSt7__cxx1112basic_stringIT_T0_T1_EEOS8_RKS8_ = comdat any

$_ZStplIcSt11char_traitsIcESaIcEENSt7__cxx1112basic_stringIT_T0_T1_EEOS8_PKS5_ = comdat any

$_ZSt4moveIRNSt7__cxx1112basic_stringIcSt11char_traitsIcESaIcEEEEONSt16remove_referenceIT_E4typeEOS8_ = comdat any

$_Z10opp_strdupPKc = comdat any

$_Z18__contextModuleRNGi = comdat any

$_ZN11cSimulation19getActiveSimulationEv = comdat any

$_ZNK10cComponent6getRNGEi = comdat any

$_ZN11cSimulation14getActiveEnvirEv = comdat any

$_ZN7cStdDevC2ERKS_ = comdat any

$_ZNK7SimTime3dblEv = comdat any

$_ZN14cLongHistogramC2ERKS_ = comdat any

$_ZN17cEqdHistogramBaseC2ERKS_ = comdat any

$_ZN14cLongHistogramaSERKS_ = comdat any

$_ZN14cHistogramBaseC2ERKS_ = comdat any

$_ZN15cDensityEstBaseC2ERKS_ = comdat any

$_ZN7cStdDevD2Ev = comdat any

$_ZN16cDoubleHistogramC2ERKS_ = comdat any

$_ZN16cDoubleHistogramaSERKS_ = comdat any

$_ZNSt3mapI10opp_stringS0_St4lessIS0_ESaISt4pairIKS0_S0_EEE11lower_boundERS4_ = comdat any

$_ZSteqRKSt17_Rb_tree_iteratorISt4pairIK10opp_stringS1_EES6_ = comdat any

$_ZNSt3mapI10opp_stringS0_St4lessIS0_ESaISt4pairIKS0_S0_EEE3endEv = comdat any

$_ZNKSt3mapI10opp_stringS0_St4lessIS0_ESaISt4pairIKS0_S0_EEE8key_compEv = comdat any

$_ZNKSt4lessI10opp_stringEclERKS0_S3_ = comdat any

$_ZNKSt17_Rb_tree_iteratorISt4pairIK10opp_stringS1_EEdeEv = comdat any

$_ZNSt8_Rb_treeI10opp_stringSt4pairIKS0_S0_ESt10_Select1stIS3_ESt4lessIS0_ESaIS3_EE22_M_emplace_hint_uniqueIJRKSt21piecewise_construct_tSt5tupleIJOS0_EESE_IJEEEEESt17_Rb_tree_iteratorIS3_ESt23_Rb_tree_const_iteratorIS3_EDpOT_ = comdat any

$_ZNSt23_Rb_tree_const_iteratorISt4pairIK10opp_stringS1_EEC2ERKSt17_Rb_tree_iteratorIS3_E = comdat any

$_ZSt16forward_as_tupleIJ10opp_stringEESt5tupleIJDpOT_EES4_ = comdat any

$_ZSt4moveIR10opp_stringEONSt16remove_referenceIT_E4typeEOS3_ = comdat any

$_ZNSt8_Rb_treeI10opp_stringSt4pairIKS0_S0_ESt10_Select1stIS3_ESt4lessIS0_ESaIS3_EE11lower_boundERS2_ = comdat any

$_ZNSt8_Rb_treeI10opp_stringSt4pairIKS0_S0_ESt10_Select1stIS3_ESt4lessIS0_ESaIS3_EE14_M_lower_boundEPSt13_Rb_tree_nodeIS3_EPSt18_Rb_tree_node_baseRS2_ = comdat any

$_ZNSt8_Rb_treeI10opp_stringSt4pairIKS0_S0_ESt10_Select1stIS3_ESt4lessIS0_ESaIS3_EE8_M_beginEv = comdat any

$_ZNSt8_Rb_treeI10opp_stringSt4pairIKS0_S0_ESt10_Select1stIS3_ESt4lessIS0_ESaIS3_EE6_M_endEv = comdat any

$_ZNSt8_Rb_treeI10opp_stringSt4pairIKS0_S0_ESt10_Select1stIS3_ESt4lessIS0_ESaIS3_EE6_S_keyEPKSt13_Rb_tree_nodeIS3_E = comdat any

$_ZNSt8_Rb_treeI10opp_stringSt4pairIKS0_S0_ESt10_Select1stIS3_ESt4lessIS0_ESaIS3_EE7_S_leftEPSt18_Rb_tree_node_base = comdat any

$_ZNSt8_Rb_treeI10opp_stringSt4pairIKS0_S0_ESt10_Select1stIS3_ESt4lessIS0_ESaIS3_EE8_S_rightEPSt18_Rb_tree_node_base = comdat any

$_ZNSt17_Rb_tree_iteratorISt4pairIK10opp_stringS1_EEC2EPSt18_Rb_tree_node_base = comdat any

$_ZNKSt10_Select1stISt4pairIK10opp_stringS1_EEclERKS3_ = comdat any

$_ZNKSt13_Rb_tree_nodeISt4pairIK10opp_stringS1_EE9_M_valptrEv = comdat any

$_ZNK9__gnu_cxx16__aligned_membufISt4pairIK10opp_stringS2_EE6_M_ptrEv = comdat any

$_ZNK9__gnu_cxx16__aligned_membufISt4pairIK10opp_stringS2_EE7_M_addrEv = comdat any

$_ZNSt8_Rb_treeI10opp_stringSt4pairIKS0_S0_ESt10_Select1stIS3_ESt4lessIS0_ESaIS3_EE3endEv = comdat any

$_ZNKSt8_Rb_treeI10opp_stringSt4pairIKS0_S0_ESt10_Select1stIS3_ESt4lessIS0_ESaIS3_EE8key_compEv = comdat any

$_ZNK10opp_stringltERKS_ = comdat any

$_Z10opp_strcmpPKcS0_ = comdat any

$_ZNSt13_Rb_tree_nodeISt4pairIK10opp_stringS1_EE9_M_valptrEv = comdat any

$__clang_call_terminate = comdat any

$_ZN9__gnu_cxx16__aligned_membufISt4pairIK10opp_stringS2_EE6_M_ptrEv = comdat any

$_ZN9__gnu_cxx16__aligned_membufISt4pairIK10opp_stringS2_EE7_M_addrEv = comdat any

$_ZNSt8_Rb_treeI10opp_stringSt4pairIKS0_S0_ESt10_Select1stIS3_ESt4lessIS0_ESaIS3_EE14_M_create_nodeIJRKSt21piecewise_construct_tSt5tupleIJOS0_EESE_IJEEEEEPSt13_Rb_tree_nodeIS3_EDpOT_ = comdat any

$_ZSt7forwardIRKSt21piecewise_construct_tEOT_RNSt16remove_referenceIS3_E4typeE = comdat any

$_ZSt7forwardISt5tupleIJO10opp_stringEEEOT_RNSt16remove_referenceIS4_E4typeE = comdat any

$_ZSt7forwardISt5tupleIJEEEOT_RNSt16remove_referenceIS2_E4typeE = comdat any

$_ZNSt8_Rb_treeI10opp_stringSt4pairIKS0_S0_ESt10_Select1stIS3_ESt4lessIS0_ESaIS3_EE29_M_get_insert_hint_unique_posESt23_Rb_tree_const_iteratorIS3_ERS2_ = comdat any

$_ZNSt8_Rb_treeI10opp_stringSt4pairIKS0_S0_ESt10_Select1stIS3_ESt4lessIS0_ESaIS3_EE14_M_insert_nodeEPSt18_Rb_tree_node_baseSB_PSt13_Rb_tree_nodeIS3_E = comdat any

$_ZNSt8_Rb_treeI10opp_stringSt4pairIKS0_S0_ESt10_Select1stIS3_ESt4lessIS0_ESaIS3_EE12_M_drop_nodeEPSt13_Rb_tree_nodeIS3_E = comdat any

$_ZNSt8_Rb_treeI10opp_stringSt4pairIKS0_S0_ESt10_Select1stIS3_ESt4lessIS0_ESaIS3_EE11_M_get_nodeEv = comdat any

$_ZNSt8_Rb_treeI10opp_stringSt4pairIKS0_S0_ESt10_Select1stIS3_ESt4lessIS0_ESaIS3_EE17_M_construct_nodeIJRKSt21piecewise_construct_tSt5tupleIJOS0_EESE_IJEEEEEvPSt13_Rb_tree_nodeIS3_EDpOT_ = comdat any

$_ZNSt16allocator_traitsISaISt13_Rb_tree_nodeISt4pairIK10opp_stringS2_EEEE8allocateERS6_m = comdat any

$_ZNSt8_Rb_treeI10opp_stringSt4pairIKS0_S0_ESt10_Select1stIS3_ESt4lessIS0_ESaIS3_EE21_M_get_Node_allocatorEv = comdat any

$_ZN9__gnu_cxx13new_allocatorISt13_Rb_tree_nodeISt4pairIK10opp_stringS3_EEE8allocateEmPKv = comdat any

$_ZNK9__gnu_cxx13new_allocatorISt13_Rb_tree_nodeISt4pairIK10opp_stringS3_EEE11_M_max_sizeEv = comdat any

$_ZNSt16allocator_traitsISaISt13_Rb_tree_nodeISt4pairIK10opp_stringS2_EEEE9constructIS4_JRKSt21piecewise_construct_tSt5tupleIJOS2_EESC_IJEEEEEvRS6_PT_DpOT0_ = comdat any

$_ZNSt8_Rb_treeI10opp_stringSt4pairIKS0_S0_ESt10_Select1stIS3_ESt4lessIS0_ESaIS3_EE11_M_put_nodeEPSt13_Rb_tree_nodeIS3_E = comdat any

$_ZN9__gnu_cxx13new_allocatorISt13_Rb_tree_nodeISt4pairIK10opp_stringS3_EEE9constructIS5_JRKSt21piecewise_construct_tSt5tupleIJOS3_EESC_IJEEEEEvPT_DpOT0_ = comdat any

$_ZNSt5tupleIJO10opp_stringEEC2EOS2_ = comdat any

$_ZNSt4pairIK10opp_stringS0_EC2IJOS0_EJEEESt21piecewise_construct_tSt5tupleIJDpT_EES6_IJDpT0_EE = comdat any

$_ZNSt11_Tuple_implILm0EJO10opp_stringEEC2EOS2_ = comdat any

$_ZSt7forwardIO10opp_stringEOT_RNSt16remove_referenceIS2_E4typeE = comdat any

$_ZNSt11_Tuple_implILm0EJO10opp_stringEE7_M_headERS2_ = comdat any

$_ZNSt10_Head_baseILm0EO10opp_stringLb0EEC2IS0_EEOT_ = comdat any

$_ZNSt10_Head_baseILm0EO10opp_stringLb0EE7_M_headERS2_ = comdat any

$_ZSt7forwardI10opp_stringEOT_RNSt16remove_referenceIS1_E4typeE = comdat any

$_ZNSt4pairIK10opp_stringS0_EC2IJOS0_EJLm0EEJEJEEERSt5tupleIJDpT_EERS5_IJDpT1_EESt12_Index_tupleIJXspT0_EEESE_IJXspT2_EEE = comdat any

$_ZSt3getILm0EJO10opp_stringEERNSt13tuple_elementIXT_ESt5tupleIJDpT0_EEE4typeERS6_ = comdat any

$_ZN10opp_stringC2ERKS_ = comdat any

$_ZN10opp_stringC2Ev = comdat any

$_ZSt12__get_helperILm0EO10opp_stringJEERT0_RSt11_Tuple_implIXT_EJS2_DpT1_EE = comdat any

$_ZNSt16allocator_traitsISaISt13_Rb_tree_nodeISt4pairIK10opp_stringS2_EEEE10deallocateERS6_PS5_m = comdat any

$_ZN9__gnu_cxx13new_allocatorISt13_Rb_tree_nodeISt4pairIK10opp_stringS3_EEE10deallocateEPS6_m = comdat any

$_ZNKSt23_Rb_tree_const_iteratorISt4pairIK10opp_stringS1_EE13_M_const_castEv = comdat any

$_ZNKSt8_Rb_treeI10opp_stringSt4pairIKS0_S0_ESt10_Select1stIS3_ESt4lessIS0_ESaIS3_EE4sizeEv = comdat any

$_ZNSt8_Rb_treeI10opp_stringSt4pairIKS0_S0_ESt10_Select1stIS3_ESt4lessIS0_ESaIS3_EE6_S_keyEPKSt18_Rb_tree_node_base = comdat any

$_ZNSt8_Rb_treeI10opp_stringSt4pairIKS0_S0_ESt10_Select1stIS3_ESt4lessIS0_ESaIS3_EE12_M_rightmostEv = comdat any

$_ZNSt4pairIPSt18_Rb_tree_node_baseS1_EC2IRS1_Lb1EEERKS1_OT_ = comdat any

$_ZNSt8_Rb_treeI10opp_stringSt4pairIKS0_S0_ESt10_Select1stIS3_ESt4lessIS0_ESaIS3_EE24_M_get_insert_unique_posERS2_ = comdat any

$_ZNSt8_Rb_treeI10opp_stringSt4pairIKS0_S0_ESt10_Select1stIS3_ESt4lessIS0_ESaIS3_EE11_M_leftmostEv = comdat any

$_ZNSt4pairIPSt18_Rb_tree_node_baseS1_EC2IRS1_S4_Lb1EEEOT_OT0_ = comdat any

$_ZNSt17_Rb_tree_iteratorISt4pairIK10opp_stringS1_EEmmEv = comdat any

$_ZNSt17_Rb_tree_iteratorISt4pairIK10opp_stringS1_EEppEv = comdat any

$_ZNSt4pairIPSt18_Rb_tree_node_baseS1_EC2IRS1_Lb1EEEOT_RKS1_ = comdat any

$_ZSt7forwardIRPSt18_Rb_tree_node_baseEOT_RNSt16remove_referenceIS3_E4typeE = comdat any

$_ZNSt8_Rb_treeI10opp_stringSt4pairIKS0_S0_ESt10_Select1stIS3_ESt4lessIS0_ESaIS3_EE5beginEv = comdat any

$_ZNSt4pairIPSt18_Rb_tree_node_baseS1_EC2IRPSt13_Rb_tree_nodeIS_IK10opp_stringS5_EERS1_Lb1EEEOT_OT0_ = comdat any

$_ZSt7forwardIRPSt13_Rb_tree_nodeISt4pairIK10opp_stringS2_EEEOT_RNSt16remove_referenceIS8_E4typeE = comdat any

$_ZNSt8_Rb_treeI10opp_stringSt4pairIKS0_S0_ESt10_Select1stIS3_ESt4lessIS0_ESaIS3_EE15_M_destroy_nodeEPSt13_Rb_tree_nodeIS3_E = comdat any

$_ZNSt16allocator_traitsISaISt13_Rb_tree_nodeISt4pairIK10opp_stringS2_EEEE7destroyIS4_EEvRS6_PT_ = comdat any

$_ZN9__gnu_cxx13new_allocatorISt13_Rb_tree_nodeISt4pairIK10opp_stringS3_EEE7destroyIS5_EEvPT_ = comdat any

$_ZNSt4pairIK10opp_stringS0_ED2Ev = comdat any

$_ZNSt5tupleIJO10opp_stringEEC2IJS0_ELb1ELb1EEEDpOT_ = comdat any

$_ZNSt11_Tuple_implILm0EJO10opp_stringEEC2IS0_EEOT_ = comdat any

$_ZTS13cRuntimeError = comdat any

$_ZTS10cException = comdat any

$_ZTI10cException = comdat any

$_ZTI13cRuntimeError = comdat any

$_ZTV10cException = comdat any

@_ZStL8__ioinit = internal global %"class.std::ios_base::Init" zeroinitializer, align 1, !dbg !0
@__dso_handle = external hidden global i8
@_ZN12_GLOBAL__N_118__onstartup_obj_47E = internal global %class.ExecuteOnStartup zeroinitializer, align 8, !dbg !28
@_ZN12_GLOBAL__N_118__onstartup_obj_48E = internal global %class.ExecuteOnStartup zeroinitializer, align 8, !dbg !51
@_ZTV14cHistogramBase = dso_local unnamed_addr constant { [71 x i8*] } { [71 x i8*] [i8* null, i8* bitcast ({ i8*, i8*, i8* }* @_ZTI14cHistogramBase to i8*), i8* bitcast (%class.cClassDescriptor* (%class.cObject*)* @_ZN7cObject13getDescriptorEv to i8*), i8* bitcast (void (%class.cObject*, %class.cOwnedObject*)* @_ZN7cObject18ownedObjectDeletedEP12cOwnedObject to i8*), i8* bitcast (void (%class.cObject*, %class.cOwnedObject*, %class.cObject*)* @_ZN7cObject14yieldOwnershipEP12cOwnedObjectPS_ to i8*), i8* bitcast (void (%class.cHistogramBase*)* @_ZN14cHistogramBaseD1Ev to i8*), i8* bitcast (void (%class.cHistogramBase*)* @_ZN14cHistogramBaseD0Ev to i8*), i8* bitcast (i8* (%class.cObject*)* @_ZNK7cObject12getClassNameEv to i8*), i8* bitcast (i8* (%class.cNamedObject*)* @_ZNK12cNamedObject7getNameEv to i8*), i8* bitcast (i8* (%class.cObject*)* @_ZNK7cObject11getFullNameEv to i8*), i8* bitcast (void (%"class.std::__cxx11::basic_string"*, %class.cObject*)* @_ZNK7cObject11getFullPathB5cxx11Ev to i8*), i8* bitcast (void (%"class.std::__cxx11::basic_string"*, %class.cStdDev*)* @_ZNK7cStdDev4infoB5cxx11Ev to i8*), i8* bitcast (void (%"class.std::__cxx11::basic_string"*, %class.cDensityEstBase*)* @_ZNK15cDensityEstBase12detailedInfoB5cxx11Ev to i8*), i8* bitcast (%class.cStdDev* (%class.cStdDev*)* @_ZNK7cStdDev3dupEv to i8*), i8* bitcast (void (%class.cObject*, %class.cOwnedObject*)* @_ZN7cObject4takeEP12cOwnedObject to i8*), i8* bitcast (void (%class.cObject*, %class.cOwnedObject*)* @_ZN7cObject4dropEP12cOwnedObject to i8*), i8* bitcast (void (%class.cHistogramBase*, %class.cCommBuffer*)* @_ZN14cHistogramBase10parsimPackEP11cCommBuffer to i8*), i8* bitcast (void (%class.cHistogramBase*, %class.cCommBuffer*)* @_ZN14cHistogramBase12parsimUnpackEP11cCommBuffer to i8*), i8* bitcast (%class.cObject* (%class.cOwnedObject*)* @_ZNK12cOwnedObject8getOwnerEv to i8*), i8* bitcast (i1 (%class.cOwnedObject*)* @_ZNK12cOwnedObject13isOwnedObjectEv to i8*), i8* bitcast (void (%class.cObject*, %class.cVisitor*)* @_ZN7cObject12forEachChildEP8cVisitor to i8*), i8* bitcast (void (%class.cNamedObject*, i8*)* @_ZN12cNamedObject7setNameEPKc to i8*), i8* bitcast (void (%class.cNamedObject*, i1)* @_ZN12cNamedObject14setNamePoolingEb to i8*), i8* bitcast (i1 (%class.cNamedObject*)* @_ZN12cNamedObject14getNamePoolingEv to i8*), i8* bitcast (void (%class.cOwnedObject*)* @_ZN12cOwnedObject23removeFromOwnershipTreeEv to i8*), i8* bitcast (i1 (%class.cOwnedObject*)* @_ZNK12cOwnedObject11isSoftOwnerEv to i8*), i8* bitcast (void (%class.cStatistic*, %class.opp_string_map*)* @_ZN10cStatistic21getAttributesToRecordER14opp_string_map to i8*), i8* bitcast (void (%class.cDensityEstBase*, double)* @_ZN15cDensityEstBase7collectEd to i8*), i8* bitcast (void (%class.cDensityEstBase*, %class.SimTime*)* @_ZN15cDensityEstBase7collectE7SimTime to i8*), i8* bitcast (i1 (%class.cStdDev*)* @_ZNK7cStdDev10isWeightedEv to i8*), i8* bitcast (void (%class.cStatistic*, double, double)* @_ZN10cStatistic8collect2Edd to i8*), i8* bitcast (void (%class.cDensityEstBase*, %class.cStatistic*)* @_ZN15cDensityEstBase5mergeEPK10cStatistic to i8*), i8* bitcast (void (%class.cHistogramBase*)* @_ZN14cHistogramBase11clearResultEv to i8*), i8* bitcast (i64 (%class.cStdDev*)* @_ZNK7cStdDev8getCountEv to i8*), i8* bitcast (double (%class.cStdDev*)* @_ZNK7cStdDev6getSumEv to i8*), i8* bitcast (double (%class.cStdDev*)* @_ZNK7cStdDev9getSqrSumEv to i8*), i8* bitcast (double (%class.cStdDev*)* @_ZNK7cStdDev6getMinEv to i8*), i8* bitcast (double (%class.cStdDev*)* @_ZNK7cStdDev6getMaxEv to i8*), i8* bitcast (double (%class.cStdDev*)* @_ZNK7cStdDev7getMeanEv to i8*), i8* bitcast (double (%class.cStdDev*)* @_ZNK7cStdDev9getStddevEv to i8*), i8* bitcast (double (%class.cStdDev*)* @_ZNK7cStdDev11getVarianceEv to i8*), i8* bitcast (double (%class.cStdDev*)* @_ZNK7cStdDev10getWeightsEv to i8*), i8* bitcast (double (%class.cStdDev*)* @_ZNK7cStdDev14getWeightedSumEv to i8*), i8* bitcast (double (%class.cStdDev*)* @_ZNK7cStdDev16getSqrSumWeightsEv to i8*), i8* bitcast (double (%class.cStdDev*)* @_ZNK7cStdDev17getWeightedSqrSumEv to i8*), i8* bitcast (double (%class.cStdDev*)* @_ZNK7cStdDev6randomEv to i8*), i8* bitcast (void (%class.cHistogramBase*, %struct._IO_FILE*)* @_ZNK14cHistogramBase10saveToFileEP8_IO_FILE to i8*), i8* bitcast (void (%class.cHistogramBase*, %struct._IO_FILE*)* @_ZN14cHistogramBase12loadFromFileEP8_IO_FILE to i8*), i8* bitcast (void (%class.cStatistic*)* @_ZN10cStatistic6recordEv to i8*), i8* bitcast (void (%class.cStatistic*, i8*)* @_ZN10cStatistic14recordWithUnitEPKc to i8*), i8* bitcast (void (%class.cStatistic*, i8*, i8*)* @_ZN10cStatistic8recordAsEPKcS1_ to i8*), i8* bitcast (void (%class.cHistogramBase*, %class.cDensityEstBase*)* @_ZN14cHistogramBase17doMergeCellValuesEPK15cDensityEstBase to i8*), i8* bitcast (void (%class.cDensityEstBase*, double, double)* @_ZN15cDensityEstBase8setRangeEdd to i8*), i8* bitcast (void (%class.cDensityEstBase*, i32, double)* @_ZN15cDensityEstBase12setRangeAutoEid to i8*), i8* bitcast (void (%class.cDensityEstBase*, double, i32, double)* @_ZN15cDensityEstBase17setRangeAutoLowerEdid to i8*), i8* bitcast (void (%class.cDensityEstBase*, double, i32, double)* @_ZN15cDensityEstBase17setRangeAutoUpperEdid to i8*), i8* bitcast (void (%class.cDensityEstBase*, i32)* @_ZN15cDensityEstBase15setNumFirstValsEi to i8*), i8* bitcast (void (%class.cDensityEstBase*)* @_ZN15cDensityEstBase10setupRangeEv to i8*), i8* bitcast (void ()* @__cxa_pure_virtual to i8*), i8* bitcast (i1 (%class.cDensityEstBase*)* @_ZNK15cDensityEstBase13isTransformedEv to i8*), i8* bitcast (void (%class.cHistogramBase*)* @_ZN14cHistogramBase9transformEv to i8*), i8* bitcast (i32 (%class.cHistogramBase*)* @_ZNK14cHistogramBase11getNumCellsEv to i8*), i8* bitcast (void ()* @__cxa_pure_virtual to i8*), i8* bitcast (void ()* @__cxa_pure_virtual to i8*), i8* bitcast (double (%class.cDensityEstBase*, i32)* @_ZNK15cDensityEstBase10getCellPDFEi to i8*), i8* bitcast (i64 (%class.cDensityEstBase*)* @_ZNK15cDensityEstBase16getUnderflowCellEv to i8*), i8* bitcast (i64 (%class.cDensityEstBase*)* @_ZNK15cDensityEstBase15getOverflowCellEv to i8*), i8* bitcast (void (%"struct.cDensityEstBase::Cell"*, %class.cDensityEstBase*, i32)* @_ZNK15cDensityEstBase11getCellInfoEi to i8*), i8* bitcast (void ()* @__cxa_pure_virtual to i8*), i8* bitcast (void ()* @__cxa_pure_virtual to i8*), i8* bitcast (void (%class.cHistogramBase*, i32)* @_ZN14cHistogramBase11setNumCellsEi to i8*)] }, align 8
@_ZTVN10__cxxabiv120__si_class_type_infoE = external dso_local global i8*
@_ZTS13cRuntimeError = linkonce_odr dso_local constant [16 x i8] c"13cRuntimeError\00", comdat, align 1
@_ZTS10cException = linkonce_odr dso_local constant [13 x i8] c"10cException\00", comdat, align 1
@_ZTISt9exception = external dso_local constant i8*
@_ZTI10cException = linkonce_odr dso_local constant { i8*, i8*, i8* } { i8* bitcast (i8** getelementptr inbounds (i8*, i8** @_ZTVN10__cxxabiv120__si_class_type_infoE, i64 2) to i8*), i8* getelementptr inbounds ([13 x i8], [13 x i8]* @_ZTS10cException, i32 0, i32 0), i8* bitcast (i8** @_ZTISt9exception to i8*) }, comdat, align 8
@_ZTI13cRuntimeError = linkonce_odr dso_local constant { i8*, i8*, i8* } { i8* bitcast (i8** getelementptr inbounds (i8*, i8** @_ZTVN10__cxxabiv120__si_class_type_infoE, i64 2) to i8*), i8* getelementptr inbounds ([16 x i8], [16 x i8]* @_ZTS13cRuntimeError, i32 0, i32 0), i8* bitcast ({ i8*, i8*, i8* }* @_ZTI10cException to i8*) }, comdat, align 8
@.str = private unnamed_addr constant [18 x i8] c"%d\09 #= num_cells\0A\00", align 1
@.str.3 = private unnamed_addr constant [23 x i8] c"%d\09 #= cellv[] exists\0A\00", align 1
@.str.4 = private unnamed_addr constant [5 x i8] c" %u\0A\00", align 1
@.str.5 = private unnamed_addr constant [17 x i8] c"%d\09 #= num_cells\00", align 1
@.str.6 = private unnamed_addr constant [22 x i8] c"%d\09 #= cellv[] exists\00", align 1
@.str.7 = private unnamed_addr constant [4 x i8] c" %u\00", align 1
@.str.8 = private unnamed_addr constant [46 x i8] c"setNumCells(): too late, cells already set up\00", align 1
@_ZTV17cEqdHistogramBase = dso_local unnamed_addr constant { [73 x i8*] } { [73 x i8*] [i8* null, i8* bitcast ({ i8*, i8*, i8* }* @_ZTI17cEqdHistogramBase to i8*), i8* bitcast (%class.cClassDescriptor* (%class.cObject*)* @_ZN7cObject13getDescriptorEv to i8*), i8* bitcast (void (%class.cObject*, %class.cOwnedObject*)* @_ZN7cObject18ownedObjectDeletedEP12cOwnedObject to i8*), i8* bitcast (void (%class.cObject*, %class.cOwnedObject*, %class.cObject*)* @_ZN7cObject14yieldOwnershipEP12cOwnedObjectPS_ to i8*), i8* bitcast (void (%class.cEqdHistogramBase*)* @_ZN17cEqdHistogramBaseD2Ev to i8*), i8* bitcast (void (%class.cEqdHistogramBase*)* @_ZN17cEqdHistogramBaseD0Ev to i8*), i8* bitcast (i8* (%class.cObject*)* @_ZNK7cObject12getClassNameEv to i8*), i8* bitcast (i8* (%class.cNamedObject*)* @_ZNK12cNamedObject7getNameEv to i8*), i8* bitcast (i8* (%class.cObject*)* @_ZNK7cObject11getFullNameEv to i8*), i8* bitcast (void (%"class.std::__cxx11::basic_string"*, %class.cObject*)* @_ZNK7cObject11getFullPathB5cxx11Ev to i8*), i8* bitcast (void (%"class.std::__cxx11::basic_string"*, %class.cStdDev*)* @_ZNK7cStdDev4infoB5cxx11Ev to i8*), i8* bitcast (void (%"class.std::__cxx11::basic_string"*, %class.cDensityEstBase*)* @_ZNK15cDensityEstBase12detailedInfoB5cxx11Ev to i8*), i8* bitcast (%class.cStdDev* (%class.cStdDev*)* @_ZNK7cStdDev3dupEv to i8*), i8* bitcast (void (%class.cObject*, %class.cOwnedObject*)* @_ZN7cObject4takeEP12cOwnedObject to i8*), i8* bitcast (void (%class.cObject*, %class.cOwnedObject*)* @_ZN7cObject4dropEP12cOwnedObject to i8*), i8* bitcast (void (%class.cEqdHistogramBase*, %class.cCommBuffer*)* @_ZN17cEqdHistogramBase10parsimPackEP11cCommBuffer to i8*), i8* bitcast (void (%class.cEqdHistogramBase*, %class.cCommBuffer*)* @_ZN17cEqdHistogramBase12parsimUnpackEP11cCommBuffer to i8*), i8* bitcast (%class.cObject* (%class.cOwnedObject*)* @_ZNK12cOwnedObject8getOwnerEv to i8*), i8* bitcast (i1 (%class.cOwnedObject*)* @_ZNK12cOwnedObject13isOwnedObjectEv to i8*), i8* bitcast (void (%class.cObject*, %class.cVisitor*)* @_ZN7cObject12forEachChildEP8cVisitor to i8*), i8* bitcast (void (%class.cNamedObject*, i8*)* @_ZN12cNamedObject7setNameEPKc to i8*), i8* bitcast (void (%class.cNamedObject*, i1)* @_ZN12cNamedObject14setNamePoolingEb to i8*), i8* bitcast (i1 (%class.cNamedObject*)* @_ZN12cNamedObject14getNamePoolingEv to i8*), i8* bitcast (void (%class.cOwnedObject*)* @_ZN12cOwnedObject23removeFromOwnershipTreeEv to i8*), i8* bitcast (i1 (%class.cOwnedObject*)* @_ZNK12cOwnedObject11isSoftOwnerEv to i8*), i8* bitcast (void (%class.cStatistic*, %class.opp_string_map*)* @_ZN10cStatistic21getAttributesToRecordER14opp_string_map to i8*), i8* bitcast (void (%class.cDensityEstBase*, double)* @_ZN15cDensityEstBase7collectEd to i8*), i8* bitcast (void (%class.cDensityEstBase*, %class.SimTime*)* @_ZN15cDensityEstBase7collectE7SimTime to i8*), i8* bitcast (i1 (%class.cStdDev*)* @_ZNK7cStdDev10isWeightedEv to i8*), i8* bitcast (void (%class.cStatistic*, double, double)* @_ZN10cStatistic8collect2Edd to i8*), i8* bitcast (void (%class.cDensityEstBase*, %class.cStatistic*)* @_ZN15cDensityEstBase5mergeEPK10cStatistic to i8*), i8* bitcast (void (%class.cHistogramBase*)* @_ZN14cHistogramBase11clearResultEv to i8*), i8* bitcast (i64 (%class.cStdDev*)* @_ZNK7cStdDev8getCountEv to i8*), i8* bitcast (double (%class.cStdDev*)* @_ZNK7cStdDev6getSumEv to i8*), i8* bitcast (double (%class.cStdDev*)* @_ZNK7cStdDev9getSqrSumEv to i8*), i8* bitcast (double (%class.cStdDev*)* @_ZNK7cStdDev6getMinEv to i8*), i8* bitcast (double (%class.cStdDev*)* @_ZNK7cStdDev6getMaxEv to i8*), i8* bitcast (double (%class.cStdDev*)* @_ZNK7cStdDev7getMeanEv to i8*), i8* bitcast (double (%class.cStdDev*)* @_ZNK7cStdDev9getStddevEv to i8*), i8* bitcast (double (%class.cStdDev*)* @_ZNK7cStdDev11getVarianceEv to i8*), i8* bitcast (double (%class.cStdDev*)* @_ZNK7cStdDev10getWeightsEv to i8*), i8* bitcast (double (%class.cStdDev*)* @_ZNK7cStdDev14getWeightedSumEv to i8*), i8* bitcast (double (%class.cStdDev*)* @_ZNK7cStdDev16getSqrSumWeightsEv to i8*), i8* bitcast (double (%class.cStdDev*)* @_ZNK7cStdDev17getWeightedSqrSumEv to i8*), i8* bitcast (double (%class.cStdDev*)* @_ZNK7cStdDev6randomEv to i8*), i8* bitcast (void (%class.cEqdHistogramBase*, %struct._IO_FILE*)* @_ZNK17cEqdHistogramBase10saveToFileEP8_IO_FILE to i8*), i8* bitcast (void (%class.cEqdHistogramBase*, %struct._IO_FILE*)* @_ZN17cEqdHistogramBase12loadFromFileEP8_IO_FILE to i8*), i8* bitcast (void (%class.cStatistic*)* @_ZN10cStatistic6recordEv to i8*), i8* bitcast (void (%class.cStatistic*, i8*)* @_ZN10cStatistic14recordWithUnitEPKc to i8*), i8* bitcast (void (%class.cStatistic*, i8*, i8*)* @_ZN10cStatistic8recordAsEPKcS1_ to i8*), i8* bitcast (void (%class.cHistogramBase*, %class.cDensityEstBase*)* @_ZN14cHistogramBase17doMergeCellValuesEPK15cDensityEstBase to i8*), i8* bitcast (void (%class.cDensityEstBase*, double, double)* @_ZN15cDensityEstBase8setRangeEdd to i8*), i8* bitcast (void (%class.cDensityEstBase*, i32, double)* @_ZN15cDensityEstBase12setRangeAutoEid to i8*), i8* bitcast (void (%class.cDensityEstBase*, double, i32, double)* @_ZN15cDensityEstBase17setRangeAutoLowerEdid to i8*), i8* bitcast (void (%class.cDensityEstBase*, double, i32, double)* @_ZN15cDensityEstBase17setRangeAutoUpperEdid to i8*), i8* bitcast (void (%class.cDensityEstBase*, i32)* @_ZN15cDensityEstBase15setNumFirstValsEi to i8*), i8* bitcast (void (%class.cEqdHistogramBase*)* @_ZN17cEqdHistogramBase10setupRangeEv to i8*), i8* bitcast (void (%class.cEqdHistogramBase*, double)* @_ZN17cEqdHistogramBase18collectTransformedEd to i8*), i8* bitcast (i1 (%class.cDensityEstBase*)* @_ZNK15cDensityEstBase13isTransformedEv to i8*), i8* bitcast (void (%class.cHistogramBase*)* @_ZN14cHistogramBase9transformEv to i8*), i8* bitcast (i32 (%class.cHistogramBase*)* @_ZNK14cHistogramBase11getNumCellsEv to i8*), i8* bitcast (double (%class.cEqdHistogramBase*, i32)* @_ZNK17cEqdHistogramBase12getBasepointEi to i8*), i8* bitcast (double (%class.cEqdHistogramBase*, i32)* @_ZNK17cEqdHistogramBase12getCellValueEi to i8*), i8* bitcast (double (%class.cDensityEstBase*, i32)* @_ZNK15cDensityEstBase10getCellPDFEi to i8*), i8* bitcast (i64 (%class.cDensityEstBase*)* @_ZNK15cDensityEstBase16getUnderflowCellEv to i8*), i8* bitcast (i64 (%class.cDensityEstBase*)* @_ZNK15cDensityEstBase15getOverflowCellEv to i8*), i8* bitcast (void (%"struct.cDensityEstBase::Cell"*, %class.cDensityEstBase*, i32)* @_ZNK15cDensityEstBase11getCellInfoEi to i8*), i8* bitcast (double (%class.cEqdHistogramBase*, double)* @_ZNK17cEqdHistogramBase6getPDFEd to i8*), i8* bitcast (double (%class.cEqdHistogramBase*, double)* @_ZNK17cEqdHistogramBase6getCDFEd to i8*), i8* bitcast (void (%class.cHistogramBase*, i32)* @_ZN14cHistogramBase11setNumCellsEi to i8*), i8* bitcast (void (%class.cEqdHistogramBase*, double)* @_ZN17cEqdHistogramBase11setCellSizeEd to i8*), i8* bitcast (double (%class.cEqdHistogramBase*)* @_ZNK17cEqdHistogramBase11getCellSizeEv to i8*)] }, align 8
@.str.9 = private unnamed_addr constant [67 x i8] c"setCellSize() cannot be called when cells have been set up already\00", align 1
@.str.10 = private unnamed_addr constant [59 x i8] c"getPDF(x) cannot be called before histogram is transformed\00", align 1
@.str.11 = private unnamed_addr constant [25 x i8] c"getCDF() not implemented\00", align 1
@.str.12 = private unnamed_addr constant [27 x i8] c"invalid basepoint index %u\00", align 1
@.str.13 = private unnamed_addr constant [22 x i8] c"invalid cell index %u\00", align 1
@.str.14 = private unnamed_addr constant [17 x i8] c"%g\09 #= cellsize\0A\00", align 1
@.str.15 = private unnamed_addr constant [16 x i8] c"%g\09 #= cellsize\00", align 1
@_ZTV14cLongHistogram = dso_local unnamed_addr constant { [73 x i8*] } { [73 x i8*] [i8* null, i8* bitcast ({ i8*, i8*, i8* }* @_ZTI14cLongHistogram to i8*), i8* bitcast (%class.cClassDescriptor* (%class.cObject*)* @_ZN7cObject13getDescriptorEv to i8*), i8* bitcast (void (%class.cObject*, %class.cOwnedObject*)* @_ZN7cObject18ownedObjectDeletedEP12cOwnedObject to i8*), i8* bitcast (void (%class.cObject*, %class.cOwnedObject*, %class.cObject*)* @_ZN7cObject14yieldOwnershipEP12cOwnedObjectPS_ to i8*), i8* bitcast (void (%class.cLongHistogram*)* @_ZN14cLongHistogramD1Ev to i8*), i8* bitcast (void (%class.cLongHistogram*)* @_ZN14cLongHistogramD0Ev to i8*), i8* bitcast (i8* (%class.cObject*)* @_ZNK7cObject12getClassNameEv to i8*), i8* bitcast (i8* (%class.cNamedObject*)* @_ZNK12cNamedObject7getNameEv to i8*), i8* bitcast (i8* (%class.cObject*)* @_ZNK7cObject11getFullNameEv to i8*), i8* bitcast (void (%"class.std::__cxx11::basic_string"*, %class.cObject*)* @_ZNK7cObject11getFullPathB5cxx11Ev to i8*), i8* bitcast (void (%"class.std::__cxx11::basic_string"*, %class.cStdDev*)* @_ZNK7cStdDev4infoB5cxx11Ev to i8*), i8* bitcast (void (%"class.std::__cxx11::basic_string"*, %class.cDensityEstBase*)* @_ZNK15cDensityEstBase12detailedInfoB5cxx11Ev to i8*), i8* bitcast (%class.cLongHistogram* (%class.cLongHistogram*)* @_ZNK14cLongHistogram3dupEv to i8*), i8* bitcast (void (%class.cObject*, %class.cOwnedObject*)* @_ZN7cObject4takeEP12cOwnedObject to i8*), i8* bitcast (void (%class.cObject*, %class.cOwnedObject*)* @_ZN7cObject4dropEP12cOwnedObject to i8*), i8* bitcast (void (%class.cEqdHistogramBase*, %class.cCommBuffer*)* @_ZN17cEqdHistogramBase10parsimPackEP11cCommBuffer to i8*), i8* bitcast (void (%class.cEqdHistogramBase*, %class.cCommBuffer*)* @_ZN17cEqdHistogramBase12parsimUnpackEP11cCommBuffer to i8*), i8* bitcast (%class.cObject* (%class.cOwnedObject*)* @_ZNK12cOwnedObject8getOwnerEv to i8*), i8* bitcast (i1 (%class.cOwnedObject*)* @_ZNK12cOwnedObject13isOwnedObjectEv to i8*), i8* bitcast (void (%class.cObject*, %class.cVisitor*)* @_ZN7cObject12forEachChildEP8cVisitor to i8*), i8* bitcast (void (%class.cNamedObject*, i8*)* @_ZN12cNamedObject7setNameEPKc to i8*), i8* bitcast (void (%class.cNamedObject*, i1)* @_ZN12cNamedObject14setNamePoolingEb to i8*), i8* bitcast (i1 (%class.cNamedObject*)* @_ZN12cNamedObject14getNamePoolingEv to i8*), i8* bitcast (void (%class.cOwnedObject*)* @_ZN12cOwnedObject23removeFromOwnershipTreeEv to i8*), i8* bitcast (i1 (%class.cOwnedObject*)* @_ZNK12cOwnedObject11isSoftOwnerEv to i8*), i8* bitcast (void (%class.cLongHistogram*, %class.opp_string_map*)* @_ZN14cLongHistogram21getAttributesToRecordER14opp_string_map to i8*), i8* bitcast (void (%class.cLongHistogram*, double)* @_ZN14cLongHistogram7collectEd to i8*), i8* bitcast (void (%class.cLongHistogram*, %class.SimTime*)* @_ZN14cLongHistogram7collectE7SimTime to i8*), i8* bitcast (i1 (%class.cStdDev*)* @_ZNK7cStdDev10isWeightedEv to i8*), i8* bitcast (void (%class.cStatistic*, double, double)* @_ZN10cStatistic8collect2Edd to i8*), i8* bitcast (void (%class.cDensityEstBase*, %class.cStatistic*)* @_ZN15cDensityEstBase5mergeEPK10cStatistic to i8*), i8* bitcast (void (%class.cHistogramBase*)* @_ZN14cHistogramBase11clearResultEv to i8*), i8* bitcast (i64 (%class.cStdDev*)* @_ZNK7cStdDev8getCountEv to i8*), i8* bitcast (double (%class.cStdDev*)* @_ZNK7cStdDev6getSumEv to i8*), i8* bitcast (double (%class.cStdDev*)* @_ZNK7cStdDev9getSqrSumEv to i8*), i8* bitcast (double (%class.cStdDev*)* @_ZNK7cStdDev6getMinEv to i8*), i8* bitcast (double (%class.cStdDev*)* @_ZNK7cStdDev6getMaxEv to i8*), i8* bitcast (double (%class.cStdDev*)* @_ZNK7cStdDev7getMeanEv to i8*), i8* bitcast (double (%class.cStdDev*)* @_ZNK7cStdDev9getStddevEv to i8*), i8* bitcast (double (%class.cStdDev*)* @_ZNK7cStdDev11getVarianceEv to i8*), i8* bitcast (double (%class.cStdDev*)* @_ZNK7cStdDev10getWeightsEv to i8*), i8* bitcast (double (%class.cStdDev*)* @_ZNK7cStdDev14getWeightedSumEv to i8*), i8* bitcast (double (%class.cStdDev*)* @_ZNK7cStdDev16getSqrSumWeightsEv to i8*), i8* bitcast (double (%class.cStdDev*)* @_ZNK7cStdDev17getWeightedSqrSumEv to i8*), i8* bitcast (double (%class.cLongHistogram*)* @_ZNK14cLongHistogram6randomEv to i8*), i8* bitcast (void (%class.cEqdHistogramBase*, %struct._IO_FILE*)* @_ZNK17cEqdHistogramBase10saveToFileEP8_IO_FILE to i8*), i8* bitcast (void (%class.cEqdHistogramBase*, %struct._IO_FILE*)* @_ZN17cEqdHistogramBase12loadFromFileEP8_IO_FILE to i8*), i8* bitcast (void (%class.cStatistic*)* @_ZN10cStatistic6recordEv to i8*), i8* bitcast (void (%class.cStatistic*, i8*)* @_ZN10cStatistic14recordWithUnitEPKc to i8*), i8* bitcast (void (%class.cStatistic*, i8*, i8*)* @_ZN10cStatistic8recordAsEPKcS1_ to i8*), i8* bitcast (void (%class.cHistogramBase*, %class.cDensityEstBase*)* @_ZN14cHistogramBase17doMergeCellValuesEPK15cDensityEstBase to i8*), i8* bitcast (void (%class.cDensityEstBase*, double, double)* @_ZN15cDensityEstBase8setRangeEdd to i8*), i8* bitcast (void (%class.cDensityEstBase*, i32, double)* @_ZN15cDensityEstBase12setRangeAutoEid to i8*), i8* bitcast (void (%class.cDensityEstBase*, double, i32, double)* @_ZN15cDensityEstBase17setRangeAutoLowerEdid to i8*), i8* bitcast (void (%class.cDensityEstBase*, double, i32, double)* @_ZN15cDensityEstBase17setRangeAutoUpperEdid to i8*), i8* bitcast (void (%class.cDensityEstBase*, i32)* @_ZN15cDensityEstBase15setNumFirstValsEi to i8*), i8* bitcast (void (%class.cLongHistogram*)* @_ZN14cLongHistogram10setupRangeEv to i8*), i8* bitcast (void (%class.cEqdHistogramBase*, double)* @_ZN17cEqdHistogramBase18collectTransformedEd to i8*), i8* bitcast (i1 (%class.cDensityEstBase*)* @_ZNK15cDensityEstBase13isTransformedEv to i8*), i8* bitcast (void (%class.cHistogramBase*)* @_ZN14cHistogramBase9transformEv to i8*), i8* bitcast (i32 (%class.cHistogramBase*)* @_ZNK14cHistogramBase11getNumCellsEv to i8*), i8* bitcast (double (%class.cEqdHistogramBase*, i32)* @_ZNK17cEqdHistogramBase12getBasepointEi to i8*), i8* bitcast (double (%class.cEqdHistogramBase*, i32)* @_ZNK17cEqdHistogramBase12getCellValueEi to i8*), i8* bitcast (double (%class.cDensityEstBase*, i32)* @_ZNK15cDensityEstBase10getCellPDFEi to i8*), i8* bitcast (i64 (%class.cDensityEstBase*)* @_ZNK15cDensityEstBase16getUnderflowCellEv to i8*), i8* bitcast (i64 (%class.cDensityEstBase*)* @_ZNK15cDensityEstBase15getOverflowCellEv to i8*), i8* bitcast (void (%"struct.cDensityEstBase::Cell"*, %class.cDensityEstBase*, i32)* @_ZNK15cDensityEstBase11getCellInfoEi to i8*), i8* bitcast (double (%class.cEqdHistogramBase*, double)* @_ZNK17cEqdHistogramBase6getPDFEd to i8*), i8* bitcast (double (%class.cEqdHistogramBase*, double)* @_ZNK17cEqdHistogramBase6getCDFEd to i8*), i8* bitcast (void (%class.cHistogramBase*, i32)* @_ZN14cHistogramBase11setNumCellsEi to i8*), i8* bitcast (void (%class.cEqdHistogramBase*, double)* @_ZN17cEqdHistogramBase11setCellSizeEd to i8*), i8* bitcast (double (%class.cEqdHistogramBase*)* @_ZNK17cEqdHistogramBase11getCellSizeEv to i8*)] }, align 8
@.str.16 = private unnamed_addr constant [83 x i8] c"Cannot set up cells to satisfy constraints: numCells*cellSize != rangeMax-rangeMin\00", align 1
@.str.17 = private unnamed_addr constant [90 x i8] c"Cannot set up cells to satisfy constraints: specified range is not a multiple of cellSize\00", align 1
@.str.18 = private unnamed_addr constant [90 x i8] c"Cannot set up cells to satisfy constraints: specified range is not a multiple of numCells\00", align 1
@.str.19 = private unnamed_addr constant [125 x i8] c"Cannot set up cells to satisfy constraints: specified range is too large, and cannot divide it to 10..1000 equal-sized cells\00", align 1
@.str.20 = private unnamed_addr constant [2 x i8] c"1\00", align 1
@.str.21 = private unnamed_addr constant [11 x i8] c"isDiscrete\00", align 1
@_ZTV16cDoubleHistogram = dso_local unnamed_addr constant { [73 x i8*] } { [73 x i8*] [i8* null, i8* bitcast ({ i8*, i8*, i8* }* @_ZTI16cDoubleHistogram to i8*), i8* bitcast (%class.cClassDescriptor* (%class.cObject*)* @_ZN7cObject13getDescriptorEv to i8*), i8* bitcast (void (%class.cObject*, %class.cOwnedObject*)* @_ZN7cObject18ownedObjectDeletedEP12cOwnedObject to i8*), i8* bitcast (void (%class.cObject*, %class.cOwnedObject*, %class.cObject*)* @_ZN7cObject14yieldOwnershipEP12cOwnedObjectPS_ to i8*), i8* bitcast (void (%class.cDoubleHistogram*)* @_ZN16cDoubleHistogramD1Ev to i8*), i8* bitcast (void (%class.cDoubleHistogram*)* @_ZN16cDoubleHistogramD0Ev to i8*), i8* bitcast (i8* (%class.cObject*)* @_ZNK7cObject12getClassNameEv to i8*), i8* bitcast (i8* (%class.cNamedObject*)* @_ZNK12cNamedObject7getNameEv to i8*), i8* bitcast (i8* (%class.cObject*)* @_ZNK7cObject11getFullNameEv to i8*), i8* bitcast (void (%"class.std::__cxx11::basic_string"*, %class.cObject*)* @_ZNK7cObject11getFullPathB5cxx11Ev to i8*), i8* bitcast (void (%"class.std::__cxx11::basic_string"*, %class.cStdDev*)* @_ZNK7cStdDev4infoB5cxx11Ev to i8*), i8* bitcast (void (%"class.std::__cxx11::basic_string"*, %class.cDensityEstBase*)* @_ZNK15cDensityEstBase12detailedInfoB5cxx11Ev to i8*), i8* bitcast (%class.cDoubleHistogram* (%class.cDoubleHistogram*)* @_ZNK16cDoubleHistogram3dupEv to i8*), i8* bitcast (void (%class.cObject*, %class.cOwnedObject*)* @_ZN7cObject4takeEP12cOwnedObject to i8*), i8* bitcast (void (%class.cObject*, %class.cOwnedObject*)* @_ZN7cObject4dropEP12cOwnedObject to i8*), i8* bitcast (void (%class.cEqdHistogramBase*, %class.cCommBuffer*)* @_ZN17cEqdHistogramBase10parsimPackEP11cCommBuffer to i8*), i8* bitcast (void (%class.cEqdHistogramBase*, %class.cCommBuffer*)* @_ZN17cEqdHistogramBase12parsimUnpackEP11cCommBuffer to i8*), i8* bitcast (%class.cObject* (%class.cOwnedObject*)* @_ZNK12cOwnedObject8getOwnerEv to i8*), i8* bitcast (i1 (%class.cOwnedObject*)* @_ZNK12cOwnedObject13isOwnedObjectEv to i8*), i8* bitcast (void (%class.cObject*, %class.cVisitor*)* @_ZN7cObject12forEachChildEP8cVisitor to i8*), i8* bitcast (void (%class.cNamedObject*, i8*)* @_ZN12cNamedObject7setNameEPKc to i8*), i8* bitcast (void (%class.cNamedObject*, i1)* @_ZN12cNamedObject14setNamePoolingEb to i8*), i8* bitcast (i1 (%class.cNamedObject*)* @_ZN12cNamedObject14getNamePoolingEv to i8*), i8* bitcast (void (%class.cOwnedObject*)* @_ZN12cOwnedObject23removeFromOwnershipTreeEv to i8*), i8* bitcast (i1 (%class.cOwnedObject*)* @_ZNK12cOwnedObject11isSoftOwnerEv to i8*), i8* bitcast (void (%class.cStatistic*, %class.opp_string_map*)* @_ZN10cStatistic21getAttributesToRecordER14opp_string_map to i8*), i8* bitcast (void (%class.cDensityEstBase*, double)* @_ZN15cDensityEstBase7collectEd to i8*), i8* bitcast (void (%class.cDensityEstBase*, %class.SimTime*)* @_ZN15cDensityEstBase7collectE7SimTime to i8*), i8* bitcast (i1 (%class.cStdDev*)* @_ZNK7cStdDev10isWeightedEv to i8*), i8* bitcast (void (%class.cStatistic*, double, double)* @_ZN10cStatistic8collect2Edd to i8*), i8* bitcast (void (%class.cDensityEstBase*, %class.cStatistic*)* @_ZN15cDensityEstBase5mergeEPK10cStatistic to i8*), i8* bitcast (void (%class.cHistogramBase*)* @_ZN14cHistogramBase11clearResultEv to i8*), i8* bitcast (i64 (%class.cStdDev*)* @_ZNK7cStdDev8getCountEv to i8*), i8* bitcast (double (%class.cStdDev*)* @_ZNK7cStdDev6getSumEv to i8*), i8* bitcast (double (%class.cStdDev*)* @_ZNK7cStdDev9getSqrSumEv to i8*), i8* bitcast (double (%class.cStdDev*)* @_ZNK7cStdDev6getMinEv to i8*), i8* bitcast (double (%class.cStdDev*)* @_ZNK7cStdDev6getMaxEv to i8*), i8* bitcast (double (%class.cStdDev*)* @_ZNK7cStdDev7getMeanEv to i8*), i8* bitcast (double (%class.cStdDev*)* @_ZNK7cStdDev9getStddevEv to i8*), i8* bitcast (double (%class.cStdDev*)* @_ZNK7cStdDev11getVarianceEv to i8*), i8* bitcast (double (%class.cStdDev*)* @_ZNK7cStdDev10getWeightsEv to i8*), i8* bitcast (double (%class.cStdDev*)* @_ZNK7cStdDev14getWeightedSumEv to i8*), i8* bitcast (double (%class.cStdDev*)* @_ZNK7cStdDev16getSqrSumWeightsEv to i8*), i8* bitcast (double (%class.cStdDev*)* @_ZNK7cStdDev17getWeightedSqrSumEv to i8*), i8* bitcast (double (%class.cDoubleHistogram*)* @_ZNK16cDoubleHistogram6randomEv to i8*), i8* bitcast (void (%class.cEqdHistogramBase*, %struct._IO_FILE*)* @_ZNK17cEqdHistogramBase10saveToFileEP8_IO_FILE to i8*), i8* bitcast (void (%class.cEqdHistogramBase*, %struct._IO_FILE*)* @_ZN17cEqdHistogramBase12loadFromFileEP8_IO_FILE to i8*), i8* bitcast (void (%class.cStatistic*)* @_ZN10cStatistic6recordEv to i8*), i8* bitcast (void (%class.cStatistic*, i8*)* @_ZN10cStatistic14recordWithUnitEPKc to i8*), i8* bitcast (void (%class.cStatistic*, i8*, i8*)* @_ZN10cStatistic8recordAsEPKcS1_ to i8*), i8* bitcast (void (%class.cHistogramBase*, %class.cDensityEstBase*)* @_ZN14cHistogramBase17doMergeCellValuesEPK15cDensityEstBase to i8*), i8* bitcast (void (%class.cDensityEstBase*, double, double)* @_ZN15cDensityEstBase8setRangeEdd to i8*), i8* bitcast (void (%class.cDensityEstBase*, i32, double)* @_ZN15cDensityEstBase12setRangeAutoEid to i8*), i8* bitcast (void (%class.cDensityEstBase*, double, i32, double)* @_ZN15cDensityEstBase17setRangeAutoLowerEdid to i8*), i8* bitcast (void (%class.cDensityEstBase*, double, i32, double)* @_ZN15cDensityEstBase17setRangeAutoUpperEdid to i8*), i8* bitcast (void (%class.cDensityEstBase*, i32)* @_ZN15cDensityEstBase15setNumFirstValsEi to i8*), i8* bitcast (void (%class.cDoubleHistogram*)* @_ZN16cDoubleHistogram10setupRangeEv to i8*), i8* bitcast (void (%class.cEqdHistogramBase*, double)* @_ZN17cEqdHistogramBase18collectTransformedEd to i8*), i8* bitcast (i1 (%class.cDensityEstBase*)* @_ZNK15cDensityEstBase13isTransformedEv to i8*), i8* bitcast (void (%class.cHistogramBase*)* @_ZN14cHistogramBase9transformEv to i8*), i8* bitcast (i32 (%class.cHistogramBase*)* @_ZNK14cHistogramBase11getNumCellsEv to i8*), i8* bitcast (double (%class.cEqdHistogramBase*, i32)* @_ZNK17cEqdHistogramBase12getBasepointEi to i8*), i8* bitcast (double (%class.cEqdHistogramBase*, i32)* @_ZNK17cEqdHistogramBase12getCellValueEi to i8*), i8* bitcast (double (%class.cDensityEstBase*, i32)* @_ZNK15cDensityEstBase10getCellPDFEi to i8*), i8* bitcast (i64 (%class.cDensityEstBase*)* @_ZNK15cDensityEstBase16getUnderflowCellEv to i8*), i8* bitcast (i64 (%class.cDensityEstBase*)* @_ZNK15cDensityEstBase15getOverflowCellEv to i8*), i8* bitcast (void (%"struct.cDensityEstBase::Cell"*, %class.cDensityEstBase*, i32)* @_ZNK15cDensityEstBase11getCellInfoEi to i8*), i8* bitcast (double (%class.cEqdHistogramBase*, double)* @_ZNK17cEqdHistogramBase6getPDFEd to i8*), i8* bitcast (double (%class.cEqdHistogramBase*, double)* @_ZNK17cEqdHistogramBase6getCDFEd to i8*), i8* bitcast (void (%class.cHistogramBase*, i32)* @_ZN14cHistogramBase11setNumCellsEi to i8*), i8* bitcast (void (%class.cEqdHistogramBase*, double)* @_ZN17cEqdHistogramBase11setCellSizeEd to i8*), i8* bitcast (double (%class.cEqdHistogramBase*)* @_ZNK17cEqdHistogramBase11getCellSizeEv to i8*)] }, align 8
@_ZTS14cHistogramBase = dso_local constant [17 x i8] c"14cHistogramBase\00", align 1
@_ZTI15cDensityEstBase = external dso_local constant i8*
@_ZTI14cHistogramBase = dso_local constant { i8*, i8*, i8* } { i8* bitcast (i8** getelementptr inbounds (i8*, i8** @_ZTVN10__cxxabiv120__si_class_type_infoE, i64 2) to i8*), i8* getelementptr inbounds ([17 x i8], [17 x i8]* @_ZTS14cHistogramBase, i32 0, i32 0), i8* bitcast (i8** @_ZTI15cDensityEstBase to i8*) }, align 8
@_ZTS17cEqdHistogramBase = dso_local constant [20 x i8] c"17cEqdHistogramBase\00", align 1
@_ZTI17cEqdHistogramBase = dso_local constant { i8*, i8*, i8* } { i8* bitcast (i8** getelementptr inbounds (i8*, i8** @_ZTVN10__cxxabiv120__si_class_type_infoE, i64 2) to i8*), i8* getelementptr inbounds ([20 x i8], [20 x i8]* @_ZTS17cEqdHistogramBase, i32 0, i32 0), i8* bitcast ({ i8*, i8*, i8* }* @_ZTI14cHistogramBase to i8*) }, align 8
@_ZTS14cLongHistogram = dso_local constant [17 x i8] c"14cLongHistogram\00", align 1
@_ZTI14cLongHistogram = dso_local constant { i8*, i8*, i8* } { i8* bitcast (i8** getelementptr inbounds (i8*, i8** @_ZTVN10__cxxabiv120__si_class_type_infoE, i64 2) to i8*), i8* getelementptr inbounds ([17 x i8], [17 x i8]* @_ZTS14cLongHistogram, i32 0, i32 0), i8* bitcast ({ i8*, i8*, i8* }* @_ZTI17cEqdHistogramBase to i8*) }, align 8
@_ZTS16cDoubleHistogram = dso_local constant [19 x i8] c"16cDoubleHistogram\00", align 1
@_ZTI16cDoubleHistogram = dso_local constant { i8*, i8*, i8* } { i8* bitcast (i8** getelementptr inbounds (i8*, i8** @_ZTVN10__cxxabiv120__si_class_type_infoE, i64 2) to i8*), i8* getelementptr inbounds ([19 x i8], [19 x i8]* @_ZTS16cDoubleHistogram, i32 0, i32 0), i8* bitcast ({ i8*, i8*, i8* }* @_ZTI17cEqdHistogramBase to i8*) }, align 8
@classes = external dso_local global %class.cGlobalRegistrationList, align 8
@_ZTV10cException = linkonce_odr dso_local unnamed_addr constant { [13 x i8*] } { [13 x i8*] [i8* null, i8* bitcast ({ i8*, i8*, i8* }* @_ZTI10cException to i8*), i8* bitcast (void (%class.cException*)* @_ZN10cExceptionD2Ev to i8*), i8* bitcast (void (%class.cException*)* @_ZN10cExceptionD0Ev to i8*), i8* bitcast (i8* (%class.cException*)* @_ZNK10cException4whatEv to i8*), i8* bitcast (%class.cException* (%class.cException*)* @_ZNK10cException3dupEv to i8*), i8* bitcast (i32 (%class.cException*)* @_ZNK10cException12getErrorCodeEv to i8*), i8* bitcast (void (%class.cException*, i8*)* @_ZN10cException10setMessageEPKc to i8*), i8* bitcast (void (%class.cException*, i8*)* @_ZN10cException14prependMessageEPKc to i8*), i8* bitcast (i1 (%class.cException*)* @_ZNK10cException10hasContextEv to i8*), i8* bitcast (i8* (%class.cException*)* @_ZNK10cException19getContextClassNameEv to i8*), i8* bitcast (i8* (%class.cException*)* @_ZNK10cException18getContextFullPathEv to i8*), i8* bitcast (i32 (%class.cException*)* @_ZNK10cException11getModuleIDEv to i8*)] }, comdat, align 8
@.str.22 = private unnamed_addr constant [3 x i8] c": \00", align 1
@_ZN11cSimulation6simPtrE = external dso_local global %class.cSimulation*, align 8
@_ZN11cSimulation5evPtrE = external dso_local global %class.cEnvir*, align 8
@.str.23 = private unnamed_addr constant [1 x i8] zeroinitializer, align 1
@_ZTV7cStdDev = external dso_local unnamed_addr constant { [51 x i8*] }, align 8
@_ZN7SimTime9invfscaleE = external dso_local global double, align 8
@_ZTV15cDensityEstBase = external dso_local unnamed_addr constant { [70 x i8*] }, align 8
@_ZStL19piecewise_construct = internal constant %"struct.std::piecewise_construct_t" undef, align 1, !dbg !53
@llvm.global_ctors = appending global [1 x { i32, void ()*, i8* }] [{ i32, void ()*, i8* } { i32 65535, void ()* @_GLOBAL__sub_I_chistogram.cc, i8* null }]

@_ZN14cHistogramBaseD1Ev = dso_local unnamed_addr alias void (%class.cHistogramBase*), void (%class.cHistogramBase*)* @_ZN14cHistogramBaseD2Ev
@_ZN17cEqdHistogramBaseC1EPKci = dso_local unnamed_addr alias void (%class.cEqdHistogramBase*, i8*, i32), void (%class.cEqdHistogramBase*, i8*, i32)* @_ZN17cEqdHistogramBaseC2EPKci
@_ZN14cLongHistogramC1EPKci = dso_local unnamed_addr alias void (%class.cLongHistogram*, i8*, i32), void (%class.cLongHistogram*, i8*, i32)* @_ZN14cLongHistogramC2EPKci
@_ZN14cLongHistogramD1Ev = dso_local unnamed_addr alias void (%class.cLongHistogram*), void (%class.cLongHistogram*)* @_ZN14cLongHistogramD2Ev
@_ZN16cDoubleHistogramC1EPKci = dso_local unnamed_addr alias void (%class.cDoubleHistogram*, i8*, i32), void (%class.cDoubleHistogram*, i8*, i32)* @_ZN16cDoubleHistogramC2EPKci
@_ZN16cDoubleHistogramD1Ev = dso_local unnamed_addr alias void (%class.cDoubleHistogram*), void (%class.cDoubleHistogram*)* @_ZN16cDoubleHistogramD2Ev

; Function Attrs: noinline uwtable
define internal void @__cxx_global_var_init() #0 section ".text.startup" !dbg !2370 {
entry:
  call void @_ZNSt8ios_base4InitC1Ev(%"class.std::ios_base::Init"* @_ZStL8__ioinit), !dbg !2371
  %0 = call i32 @__cxa_atexit(void (i8*)* bitcast (void (%"class.std::ios_base::Init"*)* @_ZNSt8ios_base4InitD1Ev to void (i8*)*), i8* getelementptr inbounds (%"class.std::ios_base::Init", %"class.std::ios_base::Init"* @_ZStL8__ioinit, i32 0, i32 0), i8* @__dso_handle) #3, !dbg !2371
  ret void, !dbg !2371
}

declare dso_local void @_ZNSt8ios_base4InitC1Ev(%"class.std::ios_base::Init"*) unnamed_addr #1

; Function Attrs: nounwind
declare dso_local void @_ZNSt8ios_base4InitD1Ev(%"class.std::ios_base::Init"*) unnamed_addr #2

; Function Attrs: nounwind
declare dso_local i32 @__cxa_atexit(void (i8*)*, i8*, i8*) #3

; Function Attrs: noinline uwtable
define internal void @__cxx_global_var_init.1() #0 section ".text.startup" !dbg !2372 {
entry:
  call void @_ZN16ExecuteOnStartupC1EPFvvE(%class.ExecuteOnStartup* @_ZN12_GLOBAL__N_118__onstartup_obj_47E, void ()* @_ZN12_GLOBAL__N_119__onstartup_func_47Ev), !dbg !2373
  %0 = call i32 @__cxa_atexit(void (i8*)* bitcast (void (%class.ExecuteOnStartup*)* @_ZN16ExecuteOnStartupD1Ev to void (i8*)*), i8* bitcast (%class.ExecuteOnStartup* @_ZN12_GLOBAL__N_118__onstartup_obj_47E to i8*), i8* @__dso_handle) #3, !dbg !2373
  ret void, !dbg !2373
}

; Function Attrs: noinline uwtable
define internal void @_ZN12_GLOBAL__N_119__onstartup_func_47Ev() #0 personality i8* bitcast (i32 (...)* @__gxx_personality_v0 to i8*) !dbg !2374 {
entry:
  %exn.slot = alloca i8*
  %ehselector.slot = alloca i32
  %call = call %class.cRegistrationList* @_ZN23cGlobalRegistrationList11getInstanceEv(%class.cGlobalRegistrationList* @classes), !dbg !2375
  %call1 = call i8* @_Znwm(i64 80) #13, !dbg !2375
  %0 = bitcast i8* %call1 to %class.cClassFactory*, !dbg !2375
  %call2 = invoke i8* @_Z12opp_typenameRKSt9type_info(%"class.std::type_info"* dereferenceable(16) bitcast ({ i8*, i8*, i8* }* @_ZTI14cLongHistogram to %"class.std::type_info"*))
          to label %invoke.cont unwind label %lpad, !dbg !2375

invoke.cont:                                      ; preds = %entry
  invoke void @_ZN13cClassFactoryC1EPKcPFP7cObjectvES1_(%class.cClassFactory* %0, i8* %call2, %class.cObject* ()* @_ZL15__uniquename_47v, i8* null)
          to label %invoke.cont3 unwind label %lpad, !dbg !2375

invoke.cont3:                                     ; preds = %invoke.cont
  %1 = bitcast %class.cClassFactory* %0 to %class.cOwnedObject*, !dbg !2375
  %2 = bitcast %class.cRegistrationList* %call to void (%class.cRegistrationList*, %class.cOwnedObject*)***, !dbg !2375
  %vtable = load void (%class.cRegistrationList*, %class.cOwnedObject*)**, void (%class.cRegistrationList*, %class.cOwnedObject*)*** %2, align 8, !dbg !2375
  %vfn = getelementptr inbounds void (%class.cRegistrationList*, %class.cOwnedObject*)*, void (%class.cRegistrationList*, %class.cOwnedObject*)** %vtable, i64 22, !dbg !2375
  %3 = load void (%class.cRegistrationList*, %class.cOwnedObject*)*, void (%class.cRegistrationList*, %class.cOwnedObject*)** %vfn, align 8, !dbg !2375
  call void %3(%class.cRegistrationList* %call, %class.cOwnedObject* %1), !dbg !2375
  ret void, !dbg !2375

lpad:                                             ; preds = %invoke.cont, %entry
  %4 = landingpad { i8*, i32 }
          cleanup, !dbg !2375
  %5 = extractvalue { i8*, i32 } %4, 0, !dbg !2375
  store i8* %5, i8** %exn.slot, align 8, !dbg !2375
  %6 = extractvalue { i8*, i32 } %4, 1, !dbg !2375
  store i32 %6, i32* %ehselector.slot, align 4, !dbg !2375
  call void @_ZdlPv(i8* %call1) #14, !dbg !2375
  br label %eh.resume, !dbg !2375

eh.resume:                                        ; preds = %lpad
  %exn = load i8*, i8** %exn.slot, align 8, !dbg !2375
  %sel = load i32, i32* %ehselector.slot, align 4, !dbg !2375
  %lpad.val = insertvalue { i8*, i32 } undef, i8* %exn, 0, !dbg !2375
  %lpad.val4 = insertvalue { i8*, i32 } %lpad.val, i32 %sel, 1, !dbg !2375
  resume { i8*, i32 } %lpad.val4, !dbg !2375
}

declare dso_local void @_ZN16ExecuteOnStartupC1EPFvvE(%class.ExecuteOnStartup*, void ()*) unnamed_addr #1

; Function Attrs: nounwind
declare dso_local void @_ZN16ExecuteOnStartupD1Ev(%class.ExecuteOnStartup*) unnamed_addr #2

; Function Attrs: noinline uwtable
define internal void @__cxx_global_var_init.2() #0 section ".text.startup" !dbg !2376 {
entry:
  call void @_ZN16ExecuteOnStartupC1EPFvvE(%class.ExecuteOnStartup* @_ZN12_GLOBAL__N_118__onstartup_obj_48E, void ()* @_ZN12_GLOBAL__N_119__onstartup_func_48Ev), !dbg !2377
  %0 = call i32 @__cxa_atexit(void (i8*)* bitcast (void (%class.ExecuteOnStartup*)* @_ZN16ExecuteOnStartupD1Ev to void (i8*)*), i8* bitcast (%class.ExecuteOnStartup* @_ZN12_GLOBAL__N_118__onstartup_obj_48E to i8*), i8* @__dso_handle) #3, !dbg !2377
  ret void, !dbg !2377
}

; Function Attrs: noinline uwtable
define internal void @_ZN12_GLOBAL__N_119__onstartup_func_48Ev() #0 personality i8* bitcast (i32 (...)* @__gxx_personality_v0 to i8*) !dbg !2378 {
entry:
  %exn.slot = alloca i8*
  %ehselector.slot = alloca i32
  %call = call %class.cRegistrationList* @_ZN23cGlobalRegistrationList11getInstanceEv(%class.cGlobalRegistrationList* @classes), !dbg !2379
  %call1 = call i8* @_Znwm(i64 80) #13, !dbg !2379
  %0 = bitcast i8* %call1 to %class.cClassFactory*, !dbg !2379
  %call2 = invoke i8* @_Z12opp_typenameRKSt9type_info(%"class.std::type_info"* dereferenceable(16) bitcast ({ i8*, i8*, i8* }* @_ZTI16cDoubleHistogram to %"class.std::type_info"*))
          to label %invoke.cont unwind label %lpad, !dbg !2379

invoke.cont:                                      ; preds = %entry
  invoke void @_ZN13cClassFactoryC1EPKcPFP7cObjectvES1_(%class.cClassFactory* %0, i8* %call2, %class.cObject* ()* @_ZL15__uniquename_48v, i8* null)
          to label %invoke.cont3 unwind label %lpad, !dbg !2379

invoke.cont3:                                     ; preds = %invoke.cont
  %1 = bitcast %class.cClassFactory* %0 to %class.cOwnedObject*, !dbg !2379
  %2 = bitcast %class.cRegistrationList* %call to void (%class.cRegistrationList*, %class.cOwnedObject*)***, !dbg !2379
  %vtable = load void (%class.cRegistrationList*, %class.cOwnedObject*)**, void (%class.cRegistrationList*, %class.cOwnedObject*)*** %2, align 8, !dbg !2379
  %vfn = getelementptr inbounds void (%class.cRegistrationList*, %class.cOwnedObject*)*, void (%class.cRegistrationList*, %class.cOwnedObject*)** %vtable, i64 22, !dbg !2379
  %3 = load void (%class.cRegistrationList*, %class.cOwnedObject*)*, void (%class.cRegistrationList*, %class.cOwnedObject*)** %vfn, align 8, !dbg !2379
  call void %3(%class.cRegistrationList* %call, %class.cOwnedObject* %1), !dbg !2379
  ret void, !dbg !2379

lpad:                                             ; preds = %invoke.cont, %entry
  %4 = landingpad { i8*, i32 }
          cleanup, !dbg !2379
  %5 = extractvalue { i8*, i32 } %4, 0, !dbg !2379
  store i8* %5, i8** %exn.slot, align 8, !dbg !2379
  %6 = extractvalue { i8*, i32 } %4, 1, !dbg !2379
  store i32 %6, i32* %ehselector.slot, align 4, !dbg !2379
  call void @_ZdlPv(i8* %call1) #14, !dbg !2379
  br label %eh.resume, !dbg !2379

eh.resume:                                        ; preds = %lpad
  %exn = load i8*, i8** %exn.slot, align 8, !dbg !2379
  %sel = load i32, i32* %ehselector.slot, align 4, !dbg !2379
  %lpad.val = insertvalue { i8*, i32 } undef, i8* %exn, 0, !dbg !2379
  %lpad.val4 = insertvalue { i8*, i32 } %lpad.val, i32 %sel, 1, !dbg !2379
  resume { i8*, i32 } %lpad.val4, !dbg !2379
}

; Function Attrs: noinline uwtable
define dso_local void @_ZN14cHistogramBaseC2EPKci(%class.cHistogramBase* %this, i8* %name, i32 %numcells) unnamed_addr #0 align 2 !dbg !2380 {
entry:
  %this.addr = alloca %class.cHistogramBase*, align 8
  %name.addr = alloca i8*, align 8
  %numcells.addr = alloca i32, align 4
  store %class.cHistogramBase* %this, %class.cHistogramBase** %this.addr, align 8
  call void @llvm.dbg.declare(metadata %class.cHistogramBase** %this.addr, metadata !2432, metadata !DIExpression()), !dbg !2434
  store i8* %name, i8** %name.addr, align 8
  call void @llvm.dbg.declare(metadata i8** %name.addr, metadata !2435, metadata !DIExpression()), !dbg !2436
  store i32 %numcells, i32* %numcells.addr, align 4
  call void @llvm.dbg.declare(metadata i32* %numcells.addr, metadata !2437, metadata !DIExpression()), !dbg !2438
  %this1 = load %class.cHistogramBase*, %class.cHistogramBase** %this.addr, align 8
  %0 = bitcast %class.cHistogramBase* %this1 to %class.cDensityEstBase*, !dbg !2439
  %1 = load i8*, i8** %name.addr, align 8, !dbg !2440
  call void @_ZN15cDensityEstBaseC2EPKc(%class.cDensityEstBase* %0, i8* %1), !dbg !2441
  %2 = bitcast %class.cHistogramBase* %this1 to i32 (...)***, !dbg !2439
  store i32 (...)** bitcast (i8** getelementptr inbounds ({ [71 x i8*] }, { [71 x i8*] }* @_ZTV14cHistogramBase, i32 0, inrange i32 0, i32 2) to i32 (...)**), i32 (...)*** %2, align 8, !dbg !2439
  %cellv = getelementptr inbounds %class.cHistogramBase, %class.cHistogramBase* %this1, i32 0, i32 2, !dbg !2442
  store i32* null, i32** %cellv, align 8, !dbg !2444
  %3 = load i32, i32* %numcells.addr, align 4, !dbg !2445
  %num_cells = getelementptr inbounds %class.cHistogramBase, %class.cHistogramBase* %this1, i32 0, i32 1, !dbg !2446
  store i32 %3, i32* %num_cells, align 8, !dbg !2447
  ret void, !dbg !2448
}

; Function Attrs: nounwind readnone speculatable willreturn
declare void @llvm.dbg.declare(metadata, metadata, metadata) #4

declare dso_local void @_ZN15cDensityEstBaseC2EPKc(%class.cDensityEstBase*, i8*) unnamed_addr #1

; Function Attrs: noinline nounwind uwtable
define dso_local void @_ZN14cHistogramBaseD2Ev(%class.cHistogramBase* %this) unnamed_addr #5 align 2 !dbg !2449 {
entry:
  %this.addr = alloca %class.cHistogramBase*, align 8
  store %class.cHistogramBase* %this, %class.cHistogramBase** %this.addr, align 8
  call void @llvm.dbg.declare(metadata %class.cHistogramBase** %this.addr, metadata !2450, metadata !DIExpression()), !dbg !2451
  %this1 = load %class.cHistogramBase*, %class.cHistogramBase** %this.addr, align 8
  %0 = bitcast %class.cHistogramBase* %this1 to i32 (...)***, !dbg !2452
  store i32 (...)** bitcast (i8** getelementptr inbounds ({ [71 x i8*] }, { [71 x i8*] }* @_ZTV14cHistogramBase, i32 0, inrange i32 0, i32 2) to i32 (...)**), i32 (...)*** %0, align 8, !dbg !2452
  %cellv = getelementptr inbounds %class.cHistogramBase, %class.cHistogramBase* %this1, i32 0, i32 2, !dbg !2453
  %1 = load i32*, i32** %cellv, align 8, !dbg !2453
  %isnull = icmp eq i32* %1, null, !dbg !2455
  br i1 %isnull, label %delete.end, label %delete.notnull, !dbg !2455

delete.notnull:                                   ; preds = %entry
  %2 = bitcast i32* %1 to i8*, !dbg !2455
  call void @_ZdaPv(i8* %2) #14, !dbg !2455
  br label %delete.end, !dbg !2455

delete.end:                                       ; preds = %delete.notnull, %entry
  %3 = bitcast %class.cHistogramBase* %this1 to %class.cDensityEstBase*, !dbg !2456
  call void @_ZN15cDensityEstBaseD2Ev(%class.cDensityEstBase* %3) #3, !dbg !2456
  ret void, !dbg !2457
}

; Function Attrs: nobuiltin nounwind
declare dso_local void @_ZdaPv(i8*) #6

; Function Attrs: nounwind
declare dso_local void @_ZN15cDensityEstBaseD2Ev(%class.cDensityEstBase*) unnamed_addr #2

; Function Attrs: noinline nounwind uwtable
define dso_local void @_ZN14cHistogramBaseD0Ev(%class.cHistogramBase* %this) unnamed_addr #5 align 2 !dbg !2458 {
entry:
  %this.addr = alloca %class.cHistogramBase*, align 8
  store %class.cHistogramBase* %this, %class.cHistogramBase** %this.addr, align 8
  call void @llvm.dbg.declare(metadata %class.cHistogramBase** %this.addr, metadata !2459, metadata !DIExpression()), !dbg !2460
  %this1 = load %class.cHistogramBase*, %class.cHistogramBase** %this.addr, align 8
  call void @llvm.trap() #15, !dbg !2461
  unreachable, !dbg !2461
}

; Function Attrs: cold noreturn nounwind
declare void @llvm.trap() #7

; Function Attrs: noinline uwtable
define dso_local void @_ZN14cHistogramBase10parsimPackEP11cCommBuffer(%class.cHistogramBase* %this, %class.cCommBuffer* %buffer) unnamed_addr #0 align 2 personality i8* bitcast (i32 (...)* @__gxx_personality_v0 to i8*) !dbg !2462 {
entry:
  %this.addr = alloca %class.cHistogramBase*, align 8
  %buffer.addr = alloca %class.cCommBuffer*, align 8
  %exn.slot = alloca i8*
  %ehselector.slot = alloca i32
  store %class.cHistogramBase* %this, %class.cHistogramBase** %this.addr, align 8
  call void @llvm.dbg.declare(metadata %class.cHistogramBase** %this.addr, metadata !2463, metadata !DIExpression()), !dbg !2464
  store %class.cCommBuffer* %buffer, %class.cCommBuffer** %buffer.addr, align 8
  call void @llvm.dbg.declare(metadata %class.cCommBuffer** %buffer.addr, metadata !2465, metadata !DIExpression()), !dbg !2466
  %this1 = load %class.cHistogramBase*, %class.cHistogramBase** %this.addr, align 8
  %exception = call i8* @__cxa_allocate_exception(i64 128) #3, !dbg !2467
  %0 = bitcast i8* %exception to %class.cRuntimeError*, !dbg !2467
  %1 = bitcast %class.cHistogramBase* %this1 to %class.cObject*, !dbg !2468
  invoke void (%class.cRuntimeError*, %class.cObject*, i32, ...) @_ZN13cRuntimeErrorC1EPK7cObject12OppErrorCodez(%class.cRuntimeError* %0, %class.cObject* %1, i32 29)
          to label %invoke.cont unwind label %lpad, !dbg !2469

invoke.cont:                                      ; preds = %entry
  call void @__cxa_throw(i8* %exception, i8* bitcast ({ i8*, i8*, i8* }* @_ZTI13cRuntimeError to i8*), i8* bitcast (void (%class.cRuntimeError*)* @_ZN13cRuntimeErrorD2Ev to i8*)) #16, !dbg !2467
  unreachable, !dbg !2467

lpad:                                             ; preds = %entry
  %2 = landingpad { i8*, i32 }
          cleanup, !dbg !2470
  %3 = extractvalue { i8*, i32 } %2, 0, !dbg !2470
  store i8* %3, i8** %exn.slot, align 8, !dbg !2470
  %4 = extractvalue { i8*, i32 } %2, 1, !dbg !2470
  store i32 %4, i32* %ehselector.slot, align 4, !dbg !2470
  call void @__cxa_free_exception(i8* %exception) #3, !dbg !2467
  br label %eh.resume, !dbg !2467

eh.resume:                                        ; preds = %lpad
  %exn = load i8*, i8** %exn.slot, align 8, !dbg !2467
  %sel = load i32, i32* %ehselector.slot, align 4, !dbg !2467
  %lpad.val = insertvalue { i8*, i32 } undef, i8* %exn, 0, !dbg !2467
  %lpad.val2 = insertvalue { i8*, i32 } %lpad.val, i32 %sel, 1, !dbg !2467
  resume { i8*, i32 } %lpad.val2, !dbg !2467
}

declare dso_local i8* @__cxa_allocate_exception(i64)

declare dso_local void @_ZN13cRuntimeErrorC1EPK7cObject12OppErrorCodez(%class.cRuntimeError*, %class.cObject*, i32, ...) unnamed_addr #1

declare dso_local i32 @__gxx_personality_v0(...)

declare dso_local void @__cxa_free_exception(i8*)

; Function Attrs: noinline nounwind uwtable
define linkonce_odr dso_local void @_ZN13cRuntimeErrorD2Ev(%class.cRuntimeError* %this) unnamed_addr #5 comdat align 2 !dbg !2471 {
entry:
  %this.addr = alloca %class.cRuntimeError*, align 8
  store %class.cRuntimeError* %this, %class.cRuntimeError** %this.addr, align 8
  call void @llvm.dbg.declare(metadata %class.cRuntimeError** %this.addr, metadata !2478, metadata !DIExpression()), !dbg !2480
  %this1 = load %class.cRuntimeError*, %class.cRuntimeError** %this.addr, align 8
  %0 = bitcast %class.cRuntimeError* %this1 to %class.cException*, !dbg !2481
  call void @_ZN10cExceptionD2Ev(%class.cException* %0) #3, !dbg !2481
  ret void, !dbg !2483
}

declare dso_local void @__cxa_throw(i8*, i8*, i8*)

; Function Attrs: noinline uwtable
define dso_local void @_ZN14cHistogramBase12parsimUnpackEP11cCommBuffer(%class.cHistogramBase* %this, %class.cCommBuffer* %buffer) unnamed_addr #0 align 2 personality i8* bitcast (i32 (...)* @__gxx_personality_v0 to i8*) !dbg !2484 {
entry:
  %this.addr = alloca %class.cHistogramBase*, align 8
  %buffer.addr = alloca %class.cCommBuffer*, align 8
  %exn.slot = alloca i8*
  %ehselector.slot = alloca i32
  store %class.cHistogramBase* %this, %class.cHistogramBase** %this.addr, align 8
  call void @llvm.dbg.declare(metadata %class.cHistogramBase** %this.addr, metadata !2485, metadata !DIExpression()), !dbg !2486
  store %class.cCommBuffer* %buffer, %class.cCommBuffer** %buffer.addr, align 8
  call void @llvm.dbg.declare(metadata %class.cCommBuffer** %buffer.addr, metadata !2487, metadata !DIExpression()), !dbg !2488
  %this1 = load %class.cHistogramBase*, %class.cHistogramBase** %this.addr, align 8
  %exception = call i8* @__cxa_allocate_exception(i64 128) #3, !dbg !2489
  %0 = bitcast i8* %exception to %class.cRuntimeError*, !dbg !2489
  %1 = bitcast %class.cHistogramBase* %this1 to %class.cObject*, !dbg !2490
  invoke void (%class.cRuntimeError*, %class.cObject*, i32, ...) @_ZN13cRuntimeErrorC1EPK7cObject12OppErrorCodez(%class.cRuntimeError* %0, %class.cObject* %1, i32 29)
          to label %invoke.cont unwind label %lpad, !dbg !2491

invoke.cont:                                      ; preds = %entry
  call void @__cxa_throw(i8* %exception, i8* bitcast ({ i8*, i8*, i8* }* @_ZTI13cRuntimeError to i8*), i8* bitcast (void (%class.cRuntimeError*)* @_ZN13cRuntimeErrorD2Ev to i8*)) #16, !dbg !2489
  unreachable, !dbg !2489

lpad:                                             ; preds = %entry
  %2 = landingpad { i8*, i32 }
          cleanup, !dbg !2492
  %3 = extractvalue { i8*, i32 } %2, 0, !dbg !2492
  store i8* %3, i8** %exn.slot, align 8, !dbg !2492
  %4 = extractvalue { i8*, i32 } %2, 1, !dbg !2492
  store i32 %4, i32* %ehselector.slot, align 4, !dbg !2492
  call void @__cxa_free_exception(i8* %exception) #3, !dbg !2489
  br label %eh.resume, !dbg !2489

eh.resume:                                        ; preds = %lpad
  %exn = load i8*, i8** %exn.slot, align 8, !dbg !2489
  %sel = load i32, i32* %ehselector.slot, align 4, !dbg !2489
  %lpad.val = insertvalue { i8*, i32 } undef, i8* %exn, 0, !dbg !2489
  %lpad.val2 = insertvalue { i8*, i32 } %lpad.val, i32 %sel, 1, !dbg !2489
  resume { i8*, i32 } %lpad.val2, !dbg !2489
}

; Function Attrs: noinline uwtable
define dso_local dereferenceable(184) %class.cHistogramBase* @_ZN14cHistogramBaseaSERKS_(%class.cHistogramBase* %this, %class.cHistogramBase* dereferenceable(184) %res) #0 align 2 !dbg !2493 {
entry:
  %retval = alloca %class.cHistogramBase*, align 8
  %this.addr = alloca %class.cHistogramBase*, align 8
  %res.addr = alloca %class.cHistogramBase*, align 8
  store %class.cHistogramBase* %this, %class.cHistogramBase** %this.addr, align 8
  call void @llvm.dbg.declare(metadata %class.cHistogramBase** %this.addr, metadata !2494, metadata !DIExpression()), !dbg !2495
  store %class.cHistogramBase* %res, %class.cHistogramBase** %res.addr, align 8
  call void @llvm.dbg.declare(metadata %class.cHistogramBase** %res.addr, metadata !2496, metadata !DIExpression()), !dbg !2497
  %this1 = load %class.cHistogramBase*, %class.cHistogramBase** %this.addr, align 8
  %0 = load %class.cHistogramBase*, %class.cHistogramBase** %res.addr, align 8, !dbg !2498
  %cmp = icmp eq %class.cHistogramBase* %this1, %0, !dbg !2500
  br i1 %cmp, label %if.then, label %if.end, !dbg !2501

if.then:                                          ; preds = %entry
  store %class.cHistogramBase* %this1, %class.cHistogramBase** %retval, align 8, !dbg !2502
  br label %return, !dbg !2502

if.end:                                           ; preds = %entry
  %1 = bitcast %class.cHistogramBase* %this1 to %class.cDensityEstBase*, !dbg !2503
  %2 = load %class.cHistogramBase*, %class.cHistogramBase** %res.addr, align 8, !dbg !2504
  %3 = bitcast %class.cHistogramBase* %2 to %class.cDensityEstBase*, !dbg !2504
  %call = call dereferenceable(168) %class.cDensityEstBase* @_ZN15cDensityEstBaseaSERKS_(%class.cDensityEstBase* %1, %class.cDensityEstBase* dereferenceable(168) %3), !dbg !2503
  %4 = load %class.cHistogramBase*, %class.cHistogramBase** %res.addr, align 8, !dbg !2505
  %num_cells = getelementptr inbounds %class.cHistogramBase, %class.cHistogramBase* %4, i32 0, i32 1, !dbg !2506
  %5 = load i32, i32* %num_cells, align 8, !dbg !2506
  %num_cells2 = getelementptr inbounds %class.cHistogramBase, %class.cHistogramBase* %this1, i32 0, i32 1, !dbg !2507
  store i32 %5, i32* %num_cells2, align 8, !dbg !2508
  %cellv = getelementptr inbounds %class.cHistogramBase, %class.cHistogramBase* %this1, i32 0, i32 2, !dbg !2509
  %6 = load i32*, i32** %cellv, align 8, !dbg !2509
  %isnull = icmp eq i32* %6, null, !dbg !2510
  br i1 %isnull, label %delete.end, label %delete.notnull, !dbg !2510

delete.notnull:                                   ; preds = %if.end
  %7 = bitcast i32* %6 to i8*, !dbg !2510
  call void @_ZdaPv(i8* %7) #14, !dbg !2510
  br label %delete.end, !dbg !2510

delete.end:                                       ; preds = %delete.notnull, %if.end
  %cellv3 = getelementptr inbounds %class.cHistogramBase, %class.cHistogramBase* %this1, i32 0, i32 2, !dbg !2511
  store i32* null, i32** %cellv3, align 8, !dbg !2512
  %8 = load %class.cHistogramBase*, %class.cHistogramBase** %res.addr, align 8, !dbg !2513
  %cellv4 = getelementptr inbounds %class.cHistogramBase, %class.cHistogramBase* %8, i32 0, i32 2, !dbg !2515
  %9 = load i32*, i32** %cellv4, align 8, !dbg !2515
  %tobool = icmp ne i32* %9, null, !dbg !2513
  br i1 %tobool, label %if.then5, label %if.end13, !dbg !2516

if.then5:                                         ; preds = %delete.end
  %num_cells6 = getelementptr inbounds %class.cHistogramBase, %class.cHistogramBase* %this1, i32 0, i32 1, !dbg !2517
  %10 = load i32, i32* %num_cells6, align 8, !dbg !2517
  %conv = sext i32 %10 to i64, !dbg !2517
  %11 = call { i64, i1 } @llvm.umul.with.overflow.i64(i64 %conv, i64 4), !dbg !2519
  %12 = extractvalue { i64, i1 } %11, 1, !dbg !2519
  %13 = extractvalue { i64, i1 } %11, 0, !dbg !2519
  %14 = select i1 %12, i64 -1, i64 %13, !dbg !2519
  %call7 = call i8* @_Znam(i64 %14) #13, !dbg !2519
  %15 = bitcast i8* %call7 to i32*, !dbg !2519
  %cellv8 = getelementptr inbounds %class.cHistogramBase, %class.cHistogramBase* %this1, i32 0, i32 2, !dbg !2520
  store i32* %15, i32** %cellv8, align 8, !dbg !2521
  %cellv9 = getelementptr inbounds %class.cHistogramBase, %class.cHistogramBase* %this1, i32 0, i32 2, !dbg !2522
  %16 = load i32*, i32** %cellv9, align 8, !dbg !2522
  %17 = bitcast i32* %16 to i8*, !dbg !2523
  %18 = load %class.cHistogramBase*, %class.cHistogramBase** %res.addr, align 8, !dbg !2524
  %cellv10 = getelementptr inbounds %class.cHistogramBase, %class.cHistogramBase* %18, i32 0, i32 2, !dbg !2525
  %19 = load i32*, i32** %cellv10, align 8, !dbg !2525
  %20 = bitcast i32* %19 to i8*, !dbg !2523
  %num_cells11 = getelementptr inbounds %class.cHistogramBase, %class.cHistogramBase* %this1, i32 0, i32 1, !dbg !2526
  %21 = load i32, i32* %num_cells11, align 8, !dbg !2526
  %conv12 = sext i32 %21 to i64, !dbg !2526
  %mul = mul i64 %conv12, 4, !dbg !2527
  call void @llvm.memcpy.p0i8.p0i8.i64(i8* align 4 %17, i8* align 4 %20, i64 %mul, i1 false), !dbg !2523
  br label %if.end13, !dbg !2528

if.end13:                                         ; preds = %if.then5, %delete.end
  store %class.cHistogramBase* %this1, %class.cHistogramBase** %retval, align 8, !dbg !2529
  br label %return, !dbg !2529

return:                                           ; preds = %if.end13, %if.then
  %22 = load %class.cHistogramBase*, %class.cHistogramBase** %retval, align 8, !dbg !2530
  ret %class.cHistogramBase* %22, !dbg !2530
}

declare dso_local dereferenceable(168) %class.cDensityEstBase* @_ZN15cDensityEstBaseaSERKS_(%class.cDensityEstBase*, %class.cDensityEstBase* dereferenceable(168)) #1

; Function Attrs: nounwind readnone speculatable willreturn
declare { i64, i1 } @llvm.umul.with.overflow.i64(i64, i64) #4

; Function Attrs: nobuiltin
declare dso_local noalias i8* @_Znam(i64) #8

; Function Attrs: argmemonly nounwind willreturn
declare void @llvm.memcpy.p0i8.p0i8.i64(i8* noalias nocapture writeonly, i8* noalias nocapture readonly, i64, i1 immarg) #9

; Function Attrs: noinline uwtable
define dso_local void @_ZN14cHistogramBase17doMergeCellValuesEPK15cDensityEstBase(%class.cHistogramBase* %this, %class.cDensityEstBase* %other) unnamed_addr #0 align 2 !dbg !2531 {
entry:
  %this.addr = alloca %class.cHistogramBase*, align 8
  %other.addr = alloca %class.cDensityEstBase*, align 8
  %i = alloca i32, align 4
  store %class.cHistogramBase* %this, %class.cHistogramBase** %this.addr, align 8
  call void @llvm.dbg.declare(metadata %class.cHistogramBase** %this.addr, metadata !2532, metadata !DIExpression()), !dbg !2533
  store %class.cDensityEstBase* %other, %class.cDensityEstBase** %other.addr, align 8
  call void @llvm.dbg.declare(metadata %class.cDensityEstBase** %other.addr, metadata !2534, metadata !DIExpression()), !dbg !2535
  %this1 = load %class.cHistogramBase*, %class.cHistogramBase** %this.addr, align 8
  call void @llvm.dbg.declare(metadata i32* %i, metadata !2536, metadata !DIExpression()), !dbg !2538
  store i32 0, i32* %i, align 4, !dbg !2538
  br label %for.cond, !dbg !2539

for.cond:                                         ; preds = %for.inc, %entry
  %0 = load i32, i32* %i, align 4, !dbg !2540
  %num_cells = getelementptr inbounds %class.cHistogramBase, %class.cHistogramBase* %this1, i32 0, i32 1, !dbg !2542
  %1 = load i32, i32* %num_cells, align 8, !dbg !2542
  %cmp = icmp slt i32 %0, %1, !dbg !2543
  br i1 %cmp, label %for.body, label %for.end, !dbg !2544

for.body:                                         ; preds = %for.cond
  %2 = load %class.cDensityEstBase*, %class.cDensityEstBase** %other.addr, align 8, !dbg !2545
  %3 = load i32, i32* %i, align 4, !dbg !2546
  %4 = bitcast %class.cDensityEstBase* %2 to double (%class.cDensityEstBase*, i32)***, !dbg !2547
  %vtable = load double (%class.cDensityEstBase*, i32)**, double (%class.cDensityEstBase*, i32)*** %4, align 8, !dbg !2547
  %vfn = getelementptr inbounds double (%class.cDensityEstBase*, i32)*, double (%class.cDensityEstBase*, i32)** %vtable, i64 61, !dbg !2547
  %5 = load double (%class.cDensityEstBase*, i32)*, double (%class.cDensityEstBase*, i32)** %vfn, align 8, !dbg !2547
  %call = call double %5(%class.cDensityEstBase* %2, i32 %3), !dbg !2547
  %conv = fptoui double %call to i32, !dbg !2545
  %cellv = getelementptr inbounds %class.cHistogramBase, %class.cHistogramBase* %this1, i32 0, i32 2, !dbg !2548
  %6 = load i32*, i32** %cellv, align 8, !dbg !2548
  %7 = load i32, i32* %i, align 4, !dbg !2549
  %idxprom = sext i32 %7 to i64, !dbg !2548
  %arrayidx = getelementptr inbounds i32, i32* %6, i64 %idxprom, !dbg !2548
  %8 = load i32, i32* %arrayidx, align 4, !dbg !2550
  %add = add i32 %8, %conv, !dbg !2550
  store i32 %add, i32* %arrayidx, align 4, !dbg !2550
  br label %for.inc, !dbg !2548

for.inc:                                          ; preds = %for.body
  %9 = load i32, i32* %i, align 4, !dbg !2551
  %inc = add nsw i32 %9, 1, !dbg !2551
  store i32 %inc, i32* %i, align 4, !dbg !2551
  br label %for.cond, !dbg !2552, !llvm.loop !2553

for.end:                                          ; preds = %for.cond
  ret void, !dbg !2555
}

; Function Attrs: noinline uwtable
define dso_local void @_ZN14cHistogramBase11clearResultEv(%class.cHistogramBase* %this) unnamed_addr #0 align 2 !dbg !2556 {
entry:
  %this.addr = alloca %class.cHistogramBase*, align 8
  store %class.cHistogramBase* %this, %class.cHistogramBase** %this.addr, align 8
  call void @llvm.dbg.declare(metadata %class.cHistogramBase** %this.addr, metadata !2557, metadata !DIExpression()), !dbg !2558
  %this1 = load %class.cHistogramBase*, %class.cHistogramBase** %this.addr, align 8
  %0 = bitcast %class.cHistogramBase* %this1 to %class.cDensityEstBase*, !dbg !2559
  call void @_ZN15cDensityEstBase11clearResultEv(%class.cDensityEstBase* %0), !dbg !2559
  %cellv = getelementptr inbounds %class.cHistogramBase, %class.cHistogramBase* %this1, i32 0, i32 2, !dbg !2560
  %1 = load i32*, i32** %cellv, align 8, !dbg !2560
  %isnull = icmp eq i32* %1, null, !dbg !2561
  br i1 %isnull, label %delete.end, label %delete.notnull, !dbg !2561

delete.notnull:                                   ; preds = %entry
  %2 = bitcast i32* %1 to i8*, !dbg !2561
  call void @_ZdaPv(i8* %2) #14, !dbg !2561
  br label %delete.end, !dbg !2561

delete.end:                                       ; preds = %delete.notnull, %entry
  %cellv2 = getelementptr inbounds %class.cHistogramBase, %class.cHistogramBase* %this1, i32 0, i32 2, !dbg !2562
  store i32* null, i32** %cellv2, align 8, !dbg !2563
  ret void, !dbg !2564
}

declare dso_local void @_ZN15cDensityEstBase11clearResultEv(%class.cDensityEstBase*) unnamed_addr #1

; Function Attrs: noinline uwtable
define dso_local void @_ZN14cHistogramBase9transformEv(%class.cHistogramBase* %this) unnamed_addr #0 align 2 !dbg !2565 {
entry:
  %this.addr = alloca %class.cHistogramBase*, align 8
  %i = alloca i32, align 4
  store %class.cHistogramBase* %this, %class.cHistogramBase** %this.addr, align 8
  call void @llvm.dbg.declare(metadata %class.cHistogramBase** %this.addr, metadata !2566, metadata !DIExpression()), !dbg !2567
  %this1 = load %class.cHistogramBase*, %class.cHistogramBase** %this.addr, align 8
  %0 = bitcast %class.cHistogramBase* %this1 to %class.cDensityEstBase*, !dbg !2568
  %1 = bitcast %class.cDensityEstBase* %0 to void (%class.cDensityEstBase*)***, !dbg !2568
  %vtable = load void (%class.cDensityEstBase*)**, void (%class.cDensityEstBase*)*** %1, align 8, !dbg !2568
  %vfn = getelementptr inbounds void (%class.cDensityEstBase*)*, void (%class.cDensityEstBase*)** %vtable, i64 55, !dbg !2568
  %2 = load void (%class.cDensityEstBase*)*, void (%class.cDensityEstBase*)** %vfn, align 8, !dbg !2568
  call void %2(%class.cDensityEstBase* %0), !dbg !2568
  call void @llvm.dbg.declare(metadata i32* %i, metadata !2569, metadata !DIExpression()), !dbg !2570
  %num_cells = getelementptr inbounds %class.cHistogramBase, %class.cHistogramBase* %this1, i32 0, i32 1, !dbg !2571
  %3 = load i32, i32* %num_cells, align 8, !dbg !2571
  %conv = sext i32 %3 to i64, !dbg !2571
  %4 = call { i64, i1 } @llvm.umul.with.overflow.i64(i64 %conv, i64 4), !dbg !2572
  %5 = extractvalue { i64, i1 } %4, 1, !dbg !2572
  %6 = extractvalue { i64, i1 } %4, 0, !dbg !2572
  %7 = select i1 %5, i64 -1, i64 %6, !dbg !2572
  %call = call i8* @_Znam(i64 %7) #13, !dbg !2572
  %8 = bitcast i8* %call to i32*, !dbg !2572
  %cellv = getelementptr inbounds %class.cHistogramBase, %class.cHistogramBase* %this1, i32 0, i32 2, !dbg !2573
  store i32* %8, i32** %cellv, align 8, !dbg !2574
  store i32 0, i32* %i, align 4, !dbg !2575
  br label %for.cond, !dbg !2577

for.cond:                                         ; preds = %for.inc, %entry
  %9 = load i32, i32* %i, align 4, !dbg !2578
  %num_cells2 = getelementptr inbounds %class.cHistogramBase, %class.cHistogramBase* %this1, i32 0, i32 1, !dbg !2580
  %10 = load i32, i32* %num_cells2, align 8, !dbg !2580
  %cmp = icmp slt i32 %9, %10, !dbg !2581
  br i1 %cmp, label %for.body, label %for.end, !dbg !2582

for.body:                                         ; preds = %for.cond
  %cellv3 = getelementptr inbounds %class.cHistogramBase, %class.cHistogramBase* %this1, i32 0, i32 2, !dbg !2583
  %11 = load i32*, i32** %cellv3, align 8, !dbg !2583
  %12 = load i32, i32* %i, align 4, !dbg !2584
  %idxprom = sext i32 %12 to i64, !dbg !2583
  %arrayidx = getelementptr inbounds i32, i32* %11, i64 %idxprom, !dbg !2583
  store i32 0, i32* %arrayidx, align 4, !dbg !2585
  br label %for.inc, !dbg !2583

for.inc:                                          ; preds = %for.body
  %13 = load i32, i32* %i, align 4, !dbg !2586
  %inc = add nsw i32 %13, 1, !dbg !2586
  store i32 %inc, i32* %i, align 4, !dbg !2586
  br label %for.cond, !dbg !2587, !llvm.loop !2588

for.end:                                          ; preds = %for.cond
  store i32 0, i32* %i, align 4, !dbg !2590
  br label %for.cond4, !dbg !2592

for.cond4:                                        ; preds = %for.inc12, %for.end
  %14 = load i32, i32* %i, align 4, !dbg !2593
  %conv5 = sext i32 %14 to i64, !dbg !2593
  %15 = bitcast %class.cHistogramBase* %this1 to %class.cStdDev*, !dbg !2595
  %num_vals = getelementptr inbounds %class.cStdDev, %class.cStdDev* %15, i32 0, i32 1, !dbg !2595
  %16 = load i64, i64* %num_vals, align 8, !dbg !2595
  %cmp6 = icmp slt i64 %conv5, %16, !dbg !2596
  br i1 %cmp6, label %for.body7, label %for.end14, !dbg !2597

for.body7:                                        ; preds = %for.cond4
  %17 = bitcast %class.cHistogramBase* %this1 to %class.cDensityEstBase*, !dbg !2598
  %18 = bitcast %class.cHistogramBase* %this1 to %class.cDensityEstBase*, !dbg !2599
  %firstvals = getelementptr inbounds %class.cDensityEstBase, %class.cDensityEstBase* %18, i32 0, i32 9, !dbg !2599
  %19 = load double*, double** %firstvals, align 8, !dbg !2599
  %20 = load i32, i32* %i, align 4, !dbg !2600
  %idxprom8 = sext i32 %20 to i64, !dbg !2599
  %arrayidx9 = getelementptr inbounds double, double* %19, i64 %idxprom8, !dbg !2599
  %21 = load double, double* %arrayidx9, align 8, !dbg !2599
  %22 = bitcast %class.cDensityEstBase* %17 to void (%class.cDensityEstBase*, double)***, !dbg !2598
  %vtable10 = load void (%class.cDensityEstBase*, double)**, void (%class.cDensityEstBase*, double)*** %22, align 8, !dbg !2598
  %vfn11 = getelementptr inbounds void (%class.cDensityEstBase*, double)*, void (%class.cDensityEstBase*, double)** %vtable10, i64 56, !dbg !2598
  %23 = load void (%class.cDensityEstBase*, double)*, void (%class.cDensityEstBase*, double)** %vfn11, align 8, !dbg !2598
  call void %23(%class.cDensityEstBase* %17, double %21), !dbg !2598
  br label %for.inc12, !dbg !2598

for.inc12:                                        ; preds = %for.body7
  %24 = load i32, i32* %i, align 4, !dbg !2601
  %inc13 = add nsw i32 %24, 1, !dbg !2601
  store i32 %inc13, i32* %i, align 4, !dbg !2601
  br label %for.cond4, !dbg !2602, !llvm.loop !2603

for.end14:                                        ; preds = %for.cond4
  %25 = bitcast %class.cHistogramBase* %this1 to %class.cDensityEstBase*, !dbg !2605
  %transfd = getelementptr inbounds %class.cDensityEstBase, %class.cDensityEstBase* %25, i32 0, i32 8, !dbg !2605
  store i8 1, i8* %transfd, align 4, !dbg !2606
  ret void, !dbg !2607
}

; Function Attrs: noinline uwtable
define dso_local i32 @_ZNK14cHistogramBase11getNumCellsEv(%class.cHistogramBase* %this) unnamed_addr #0 align 2 !dbg !2608 {
entry:
  %retval = alloca i32, align 4
  %this.addr = alloca %class.cHistogramBase*, align 8
  store %class.cHistogramBase* %this, %class.cHistogramBase** %this.addr, align 8
  call void @llvm.dbg.declare(metadata %class.cHistogramBase** %this.addr, metadata !2609, metadata !DIExpression()), !dbg !2611
  %this1 = load %class.cHistogramBase*, %class.cHistogramBase** %this.addr, align 8
  %0 = bitcast %class.cHistogramBase* %this1 to %class.cDensityEstBase*, !dbg !2612
  %1 = bitcast %class.cDensityEstBase* %0 to i1 (%class.cDensityEstBase*)***, !dbg !2612
  %vtable = load i1 (%class.cDensityEstBase*)**, i1 (%class.cDensityEstBase*)*** %1, align 8, !dbg !2612
  %vfn = getelementptr inbounds i1 (%class.cDensityEstBase*)*, i1 (%class.cDensityEstBase*)** %vtable, i64 57, !dbg !2612
  %2 = load i1 (%class.cDensityEstBase*)*, i1 (%class.cDensityEstBase*)** %vfn, align 8, !dbg !2612
  %call = call zeroext i1 %2(%class.cDensityEstBase* %0), !dbg !2612
  br i1 %call, label %if.end, label %if.then, !dbg !2614

if.then:                                          ; preds = %entry
  store i32 0, i32* %retval, align 4, !dbg !2615
  br label %return, !dbg !2615

if.end:                                           ; preds = %entry
  %num_cells = getelementptr inbounds %class.cHistogramBase, %class.cHistogramBase* %this1, i32 0, i32 1, !dbg !2616
  %3 = load i32, i32* %num_cells, align 8, !dbg !2616
  store i32 %3, i32* %retval, align 4, !dbg !2617
  br label %return, !dbg !2617

return:                                           ; preds = %if.end, %if.then
  %4 = load i32, i32* %retval, align 4, !dbg !2618
  ret i32 %4, !dbg !2618
}

; Function Attrs: noinline uwtable
define dso_local void @_ZNK14cHistogramBase10saveToFileEP8_IO_FILE(%class.cHistogramBase* %this, %struct._IO_FILE* %f) unnamed_addr #0 align 2 !dbg !2619 {
entry:
  %this.addr = alloca %class.cHistogramBase*, align 8
  %f.addr = alloca %struct._IO_FILE*, align 8
  %i = alloca i32, align 4
  store %class.cHistogramBase* %this, %class.cHistogramBase** %this.addr, align 8
  call void @llvm.dbg.declare(metadata %class.cHistogramBase** %this.addr, metadata !2620, metadata !DIExpression()), !dbg !2621
  store %struct._IO_FILE* %f, %struct._IO_FILE** %f.addr, align 8
  call void @llvm.dbg.declare(metadata %struct._IO_FILE** %f.addr, metadata !2622, metadata !DIExpression()), !dbg !2623
  %this1 = load %class.cHistogramBase*, %class.cHistogramBase** %this.addr, align 8
  %0 = bitcast %class.cHistogramBase* %this1 to %class.cDensityEstBase*, !dbg !2624
  %1 = load %struct._IO_FILE*, %struct._IO_FILE** %f.addr, align 8, !dbg !2625
  call void @_ZNK15cDensityEstBase10saveToFileEP8_IO_FILE(%class.cDensityEstBase* %0, %struct._IO_FILE* %1), !dbg !2624
  %2 = load %struct._IO_FILE*, %struct._IO_FILE** %f.addr, align 8, !dbg !2626
  %num_cells = getelementptr inbounds %class.cHistogramBase, %class.cHistogramBase* %this1, i32 0, i32 1, !dbg !2627
  %3 = load i32, i32* %num_cells, align 8, !dbg !2627
  %call = call i32 (%struct._IO_FILE*, i8*, ...) @fprintf(%struct._IO_FILE* %2, i8* getelementptr inbounds ([18 x i8], [18 x i8]* @.str, i64 0, i64 0), i32 %3), !dbg !2628
  %4 = load %struct._IO_FILE*, %struct._IO_FILE** %f.addr, align 8, !dbg !2629
  %cellv = getelementptr inbounds %class.cHistogramBase, %class.cHistogramBase* %this1, i32 0, i32 2, !dbg !2630
  %5 = load i32*, i32** %cellv, align 8, !dbg !2630
  %cmp = icmp ne i32* %5, null, !dbg !2631
  %conv = zext i1 %cmp to i32, !dbg !2630
  %call2 = call i32 (%struct._IO_FILE*, i8*, ...) @fprintf(%struct._IO_FILE* %4, i8* getelementptr inbounds ([23 x i8], [23 x i8]* @.str.3, i64 0, i64 0), i32 %conv), !dbg !2632
  %cellv3 = getelementptr inbounds %class.cHistogramBase, %class.cHistogramBase* %this1, i32 0, i32 2, !dbg !2633
  %6 = load i32*, i32** %cellv3, align 8, !dbg !2633
  %tobool = icmp ne i32* %6, null, !dbg !2633
  br i1 %tobool, label %if.then, label %if.end, !dbg !2635

if.then:                                          ; preds = %entry
  call void @llvm.dbg.declare(metadata i32* %i, metadata !2636, metadata !DIExpression()), !dbg !2638
  store i32 0, i32* %i, align 4, !dbg !2638
  br label %for.cond, !dbg !2639

for.cond:                                         ; preds = %for.inc, %if.then
  %7 = load i32, i32* %i, align 4, !dbg !2640
  %num_cells4 = getelementptr inbounds %class.cHistogramBase, %class.cHistogramBase* %this1, i32 0, i32 1, !dbg !2642
  %8 = load i32, i32* %num_cells4, align 8, !dbg !2642
  %cmp5 = icmp slt i32 %7, %8, !dbg !2643
  br i1 %cmp5, label %for.body, label %for.end, !dbg !2644

for.body:                                         ; preds = %for.cond
  %9 = load %struct._IO_FILE*, %struct._IO_FILE** %f.addr, align 8, !dbg !2645
  %cellv6 = getelementptr inbounds %class.cHistogramBase, %class.cHistogramBase* %this1, i32 0, i32 2, !dbg !2646
  %10 = load i32*, i32** %cellv6, align 8, !dbg !2646
  %11 = load i32, i32* %i, align 4, !dbg !2647
  %idxprom = sext i32 %11 to i64, !dbg !2646
  %arrayidx = getelementptr inbounds i32, i32* %10, i64 %idxprom, !dbg !2646
  %12 = load i32, i32* %arrayidx, align 4, !dbg !2646
  %call7 = call i32 (%struct._IO_FILE*, i8*, ...) @fprintf(%struct._IO_FILE* %9, i8* getelementptr inbounds ([5 x i8], [5 x i8]* @.str.4, i64 0, i64 0), i32 %12), !dbg !2648
  br label %for.inc, !dbg !2648

for.inc:                                          ; preds = %for.body
  %13 = load i32, i32* %i, align 4, !dbg !2649
  %inc = add nsw i32 %13, 1, !dbg !2649
  store i32 %inc, i32* %i, align 4, !dbg !2649
  br label %for.cond, !dbg !2650, !llvm.loop !2651

for.end:                                          ; preds = %for.cond
  br label %if.end, !dbg !2652

if.end:                                           ; preds = %for.end, %entry
  ret void, !dbg !2653
}

declare dso_local void @_ZNK15cDensityEstBase10saveToFileEP8_IO_FILE(%class.cDensityEstBase*, %struct._IO_FILE*) unnamed_addr #1

declare dso_local i32 @fprintf(%struct._IO_FILE*, i8*, ...) #1

; Function Attrs: noinline uwtable
define dso_local void @_ZN14cHistogramBase12loadFromFileEP8_IO_FILE(%class.cHistogramBase* %this, %struct._IO_FILE* %f) unnamed_addr #0 align 2 !dbg !2654 {
entry:
  %this.addr = alloca %class.cHistogramBase*, align 8
  %f.addr = alloca %struct._IO_FILE*, align 8
  %cellv_exists = alloca i32, align 4
  %i = alloca i32, align 4
  store %class.cHistogramBase* %this, %class.cHistogramBase** %this.addr, align 8
  call void @llvm.dbg.declare(metadata %class.cHistogramBase** %this.addr, metadata !2655, metadata !DIExpression()), !dbg !2656
  store %struct._IO_FILE* %f, %struct._IO_FILE** %f.addr, align 8
  call void @llvm.dbg.declare(metadata %struct._IO_FILE** %f.addr, metadata !2657, metadata !DIExpression()), !dbg !2658
  %this1 = load %class.cHistogramBase*, %class.cHistogramBase** %this.addr, align 8
  %0 = bitcast %class.cHistogramBase* %this1 to %class.cDensityEstBase*, !dbg !2659
  %1 = load %struct._IO_FILE*, %struct._IO_FILE** %f.addr, align 8, !dbg !2660
  call void @_ZN15cDensityEstBase12loadFromFileEP8_IO_FILE(%class.cDensityEstBase* %0, %struct._IO_FILE* %1), !dbg !2659
  %2 = bitcast %class.cHistogramBase* %this1 to %class.cStatistic*, !dbg !2661
  %3 = load %struct._IO_FILE*, %struct._IO_FILE** %f.addr, align 8, !dbg !2662
  %num_cells = getelementptr inbounds %class.cHistogramBase, %class.cHistogramBase* %this1, i32 0, i32 1, !dbg !2663
  call void (%class.cStatistic*, %struct._IO_FILE*, i8*, ...) @_ZN10cStatistic10freadvarsfEP8_IO_FILEPKcz(%class.cStatistic* %2, %struct._IO_FILE* %3, i8* getelementptr inbounds ([17 x i8], [17 x i8]* @.str.5, i64 0, i64 0), i32* %num_cells), !dbg !2661
  call void @llvm.dbg.declare(metadata i32* %cellv_exists, metadata !2664, metadata !DIExpression()), !dbg !2665
  %4 = bitcast %class.cHistogramBase* %this1 to %class.cStatistic*, !dbg !2666
  %5 = load %struct._IO_FILE*, %struct._IO_FILE** %f.addr, align 8, !dbg !2667
  call void (%class.cStatistic*, %struct._IO_FILE*, i8*, ...) @_ZN10cStatistic10freadvarsfEP8_IO_FILEPKcz(%class.cStatistic* %4, %struct._IO_FILE* %5, i8* getelementptr inbounds ([22 x i8], [22 x i8]* @.str.6, i64 0, i64 0), i32* %cellv_exists), !dbg !2666
  %cellv = getelementptr inbounds %class.cHistogramBase, %class.cHistogramBase* %this1, i32 0, i32 2, !dbg !2668
  %6 = load i32*, i32** %cellv, align 8, !dbg !2668
  %isnull = icmp eq i32* %6, null, !dbg !2669
  br i1 %isnull, label %delete.end, label %delete.notnull, !dbg !2669

delete.notnull:                                   ; preds = %entry
  %7 = bitcast i32* %6 to i8*, !dbg !2669
  call void @_ZdaPv(i8* %7) #14, !dbg !2669
  br label %delete.end, !dbg !2669

delete.end:                                       ; preds = %delete.notnull, %entry
  %cellv2 = getelementptr inbounds %class.cHistogramBase, %class.cHistogramBase* %this1, i32 0, i32 2, !dbg !2670
  store i32* null, i32** %cellv2, align 8, !dbg !2671
  %8 = load i32, i32* %cellv_exists, align 4, !dbg !2672
  %tobool = icmp ne i32 %8, 0, !dbg !2672
  br i1 %tobool, label %if.then, label %if.end, !dbg !2674

if.then:                                          ; preds = %delete.end
  %num_cells3 = getelementptr inbounds %class.cHistogramBase, %class.cHistogramBase* %this1, i32 0, i32 1, !dbg !2675
  %9 = load i32, i32* %num_cells3, align 8, !dbg !2675
  %conv = sext i32 %9 to i64, !dbg !2675
  %10 = call { i64, i1 } @llvm.umul.with.overflow.i64(i64 %conv, i64 4), !dbg !2677
  %11 = extractvalue { i64, i1 } %10, 1, !dbg !2677
  %12 = extractvalue { i64, i1 } %10, 0, !dbg !2677
  %13 = select i1 %11, i64 -1, i64 %12, !dbg !2677
  %call = call i8* @_Znam(i64 %13) #13, !dbg !2677
  %14 = bitcast i8* %call to i32*, !dbg !2677
  %cellv4 = getelementptr inbounds %class.cHistogramBase, %class.cHistogramBase* %this1, i32 0, i32 2, !dbg !2678
  store i32* %14, i32** %cellv4, align 8, !dbg !2679
  call void @llvm.dbg.declare(metadata i32* %i, metadata !2680, metadata !DIExpression()), !dbg !2682
  store i32 0, i32* %i, align 4, !dbg !2682
  br label %for.cond, !dbg !2683

for.cond:                                         ; preds = %for.inc, %if.then
  %15 = load i32, i32* %i, align 4, !dbg !2684
  %num_cells5 = getelementptr inbounds %class.cHistogramBase, %class.cHistogramBase* %this1, i32 0, i32 1, !dbg !2686
  %16 = load i32, i32* %num_cells5, align 8, !dbg !2686
  %cmp = icmp slt i32 %15, %16, !dbg !2687
  br i1 %cmp, label %for.body, label %for.end, !dbg !2688

for.body:                                         ; preds = %for.cond
  %17 = bitcast %class.cHistogramBase* %this1 to %class.cStatistic*, !dbg !2689
  %18 = load %struct._IO_FILE*, %struct._IO_FILE** %f.addr, align 8, !dbg !2690
  %cellv6 = getelementptr inbounds %class.cHistogramBase, %class.cHistogramBase* %this1, i32 0, i32 2, !dbg !2691
  %19 = load i32*, i32** %cellv6, align 8, !dbg !2691
  %20 = load i32, i32* %i, align 4, !dbg !2692
  %idx.ext = sext i32 %20 to i64, !dbg !2693
  %add.ptr = getelementptr inbounds i32, i32* %19, i64 %idx.ext, !dbg !2693
  call void (%class.cStatistic*, %struct._IO_FILE*, i8*, ...) @_ZN10cStatistic10freadvarsfEP8_IO_FILEPKcz(%class.cStatistic* %17, %struct._IO_FILE* %18, i8* getelementptr inbounds ([4 x i8], [4 x i8]* @.str.7, i64 0, i64 0), i32* %add.ptr), !dbg !2689
  br label %for.inc, !dbg !2689

for.inc:                                          ; preds = %for.body
  %21 = load i32, i32* %i, align 4, !dbg !2694
  %inc = add nsw i32 %21, 1, !dbg !2694
  store i32 %inc, i32* %i, align 4, !dbg !2694
  br label %for.cond, !dbg !2695, !llvm.loop !2696

for.end:                                          ; preds = %for.cond
  br label %if.end, !dbg !2698

if.end:                                           ; preds = %for.end, %delete.end
  ret void, !dbg !2699
}

declare dso_local void @_ZN15cDensityEstBase12loadFromFileEP8_IO_FILE(%class.cDensityEstBase*, %struct._IO_FILE*) unnamed_addr #1

declare dso_local void @_ZN10cStatistic10freadvarsfEP8_IO_FILEPKcz(%class.cStatistic*, %struct._IO_FILE*, i8*, ...) #1

; Function Attrs: noinline uwtable
define dso_local void @_ZN14cHistogramBase11setNumCellsEi(%class.cHistogramBase* %this, i32 %numcells) unnamed_addr #0 align 2 personality i8* bitcast (i32 (...)* @__gxx_personality_v0 to i8*) !dbg !2700 {
entry:
  %this.addr = alloca %class.cHistogramBase*, align 8
  %numcells.addr = alloca i32, align 4
  %exn.slot = alloca i8*
  %ehselector.slot = alloca i32
  store %class.cHistogramBase* %this, %class.cHistogramBase** %this.addr, align 8
  call void @llvm.dbg.declare(metadata %class.cHistogramBase** %this.addr, metadata !2701, metadata !DIExpression()), !dbg !2702
  store i32 %numcells, i32* %numcells.addr, align 4
  call void @llvm.dbg.declare(metadata i32* %numcells.addr, metadata !2703, metadata !DIExpression()), !dbg !2704
  %this1 = load %class.cHistogramBase*, %class.cHistogramBase** %this.addr, align 8
  %cellv = getelementptr inbounds %class.cHistogramBase, %class.cHistogramBase* %this1, i32 0, i32 2, !dbg !2705
  %0 = load i32*, i32** %cellv, align 8, !dbg !2705
  %tobool = icmp ne i32* %0, null, !dbg !2705
  br i1 %tobool, label %if.then, label %if.end, !dbg !2707

if.then:                                          ; preds = %entry
  %exception = call i8* @__cxa_allocate_exception(i64 128) #3, !dbg !2708
  %1 = bitcast i8* %exception to %class.cRuntimeError*, !dbg !2708
  %2 = bitcast %class.cHistogramBase* %this1 to %class.cObject*, !dbg !2709
  invoke void (%class.cRuntimeError*, %class.cObject*, i8*, ...) @_ZN13cRuntimeErrorC1EPK7cObjectPKcz(%class.cRuntimeError* %1, %class.cObject* %2, i8* getelementptr inbounds ([46 x i8], [46 x i8]* @.str.8, i64 0, i64 0))
          to label %invoke.cont unwind label %lpad, !dbg !2710

invoke.cont:                                      ; preds = %if.then
  call void @__cxa_throw(i8* %exception, i8* bitcast ({ i8*, i8*, i8* }* @_ZTI13cRuntimeError to i8*), i8* bitcast (void (%class.cRuntimeError*)* @_ZN13cRuntimeErrorD2Ev to i8*)) #16, !dbg !2708
  unreachable, !dbg !2708

lpad:                                             ; preds = %if.then
  %3 = landingpad { i8*, i32 }
          cleanup, !dbg !2711
  %4 = extractvalue { i8*, i32 } %3, 0, !dbg !2711
  store i8* %4, i8** %exn.slot, align 8, !dbg !2711
  %5 = extractvalue { i8*, i32 } %3, 1, !dbg !2711
  store i32 %5, i32* %ehselector.slot, align 4, !dbg !2711
  call void @__cxa_free_exception(i8* %exception) #3, !dbg !2708
  br label %eh.resume, !dbg !2708

if.end:                                           ; preds = %entry
  %6 = load i32, i32* %numcells.addr, align 4, !dbg !2712
  %num_cells = getelementptr inbounds %class.cHistogramBase, %class.cHistogramBase* %this1, i32 0, i32 1, !dbg !2713
  store i32 %6, i32* %num_cells, align 8, !dbg !2714
  ret void, !dbg !2715

eh.resume:                                        ; preds = %lpad
  %exn = load i8*, i8** %exn.slot, align 8, !dbg !2708
  %sel = load i32, i32* %ehselector.slot, align 4, !dbg !2708
  %lpad.val = insertvalue { i8*, i32 } undef, i8* %exn, 0, !dbg !2708
  %lpad.val2 = insertvalue { i8*, i32 } %lpad.val, i32 %sel, 1, !dbg !2708
  resume { i8*, i32 } %lpad.val2, !dbg !2708
}

declare dso_local void @_ZN13cRuntimeErrorC1EPK7cObjectPKcz(%class.cRuntimeError*, %class.cObject*, i8*, ...) unnamed_addr #1

; Function Attrs: noinline uwtable
define dso_local void @_ZN17cEqdHistogramBaseC2EPKci(%class.cEqdHistogramBase* %this, i8* %name, i32 %numcells) unnamed_addr #0 align 2 !dbg !2716 {
entry:
  %this.addr = alloca %class.cEqdHistogramBase*, align 8
  %name.addr = alloca i8*, align 8
  %numcells.addr = alloca i32, align 4
  store %class.cEqdHistogramBase* %this, %class.cEqdHistogramBase** %this.addr, align 8
  call void @llvm.dbg.declare(metadata %class.cEqdHistogramBase** %this.addr, metadata !2763, metadata !DIExpression()), !dbg !2765
  store i8* %name, i8** %name.addr, align 8
  call void @llvm.dbg.declare(metadata i8** %name.addr, metadata !2766, metadata !DIExpression()), !dbg !2767
  store i32 %numcells, i32* %numcells.addr, align 4
  call void @llvm.dbg.declare(metadata i32* %numcells.addr, metadata !2768, metadata !DIExpression()), !dbg !2769
  %this1 = load %class.cEqdHistogramBase*, %class.cEqdHistogramBase** %this.addr, align 8
  %0 = bitcast %class.cEqdHistogramBase* %this1 to %class.cHistogramBase*, !dbg !2770
  %1 = load i8*, i8** %name.addr, align 8, !dbg !2771
  %2 = load i32, i32* %numcells.addr, align 4, !dbg !2772
  call void @_ZN14cHistogramBaseC2EPKci(%class.cHistogramBase* %0, i8* %1, i32 %2), !dbg !2773
  %3 = bitcast %class.cEqdHistogramBase* %this1 to i32 (...)***, !dbg !2770
  store i32 (...)** bitcast (i8** getelementptr inbounds ({ [73 x i8*] }, { [73 x i8*] }* @_ZTV17cEqdHistogramBase, i32 0, inrange i32 0, i32 2) to i32 (...)**), i32 (...)*** %3, align 8, !dbg !2770
  %cellsize = getelementptr inbounds %class.cEqdHistogramBase, %class.cEqdHistogramBase* %this1, i32 0, i32 1, !dbg !2774
  store double 0.000000e+00, double* %cellsize, align 8, !dbg !2776
  ret void, !dbg !2777
}

; Function Attrs: noinline uwtable
define dso_local void @_ZN17cEqdHistogramBase10parsimPackEP11cCommBuffer(%class.cEqdHistogramBase* %this, %class.cCommBuffer* %buffer) unnamed_addr #0 align 2 personality i8* bitcast (i32 (...)* @__gxx_personality_v0 to i8*) !dbg !2778 {
entry:
  %this.addr = alloca %class.cEqdHistogramBase*, align 8
  %buffer.addr = alloca %class.cCommBuffer*, align 8
  %exn.slot = alloca i8*
  %ehselector.slot = alloca i32
  store %class.cEqdHistogramBase* %this, %class.cEqdHistogramBase** %this.addr, align 8
  call void @llvm.dbg.declare(metadata %class.cEqdHistogramBase** %this.addr, metadata !2779, metadata !DIExpression()), !dbg !2780
  store %class.cCommBuffer* %buffer, %class.cCommBuffer** %buffer.addr, align 8
  call void @llvm.dbg.declare(metadata %class.cCommBuffer** %buffer.addr, metadata !2781, metadata !DIExpression()), !dbg !2782
  %this1 = load %class.cEqdHistogramBase*, %class.cEqdHistogramBase** %this.addr, align 8
  %exception = call i8* @__cxa_allocate_exception(i64 128) #3, !dbg !2783
  %0 = bitcast i8* %exception to %class.cRuntimeError*, !dbg !2783
  %1 = bitcast %class.cEqdHistogramBase* %this1 to %class.cObject*, !dbg !2784
  invoke void (%class.cRuntimeError*, %class.cObject*, i32, ...) @_ZN13cRuntimeErrorC1EPK7cObject12OppErrorCodez(%class.cRuntimeError* %0, %class.cObject* %1, i32 29)
          to label %invoke.cont unwind label %lpad, !dbg !2785

invoke.cont:                                      ; preds = %entry
  call void @__cxa_throw(i8* %exception, i8* bitcast ({ i8*, i8*, i8* }* @_ZTI13cRuntimeError to i8*), i8* bitcast (void (%class.cRuntimeError*)* @_ZN13cRuntimeErrorD2Ev to i8*)) #16, !dbg !2783
  unreachable, !dbg !2783

lpad:                                             ; preds = %entry
  %2 = landingpad { i8*, i32 }
          cleanup, !dbg !2786
  %3 = extractvalue { i8*, i32 } %2, 0, !dbg !2786
  store i8* %3, i8** %exn.slot, align 8, !dbg !2786
  %4 = extractvalue { i8*, i32 } %2, 1, !dbg !2786
  store i32 %4, i32* %ehselector.slot, align 4, !dbg !2786
  call void @__cxa_free_exception(i8* %exception) #3, !dbg !2783
  br label %eh.resume, !dbg !2783

eh.resume:                                        ; preds = %lpad
  %exn = load i8*, i8** %exn.slot, align 8, !dbg !2783
  %sel = load i32, i32* %ehselector.slot, align 4, !dbg !2783
  %lpad.val = insertvalue { i8*, i32 } undef, i8* %exn, 0, !dbg !2783
  %lpad.val2 = insertvalue { i8*, i32 } %lpad.val, i32 %sel, 1, !dbg !2783
  resume { i8*, i32 } %lpad.val2, !dbg !2783
}

; Function Attrs: noinline uwtable
define dso_local void @_ZN17cEqdHistogramBase12parsimUnpackEP11cCommBuffer(%class.cEqdHistogramBase* %this, %class.cCommBuffer* %buffer) unnamed_addr #0 align 2 personality i8* bitcast (i32 (...)* @__gxx_personality_v0 to i8*) !dbg !2787 {
entry:
  %this.addr = alloca %class.cEqdHistogramBase*, align 8
  %buffer.addr = alloca %class.cCommBuffer*, align 8
  %exn.slot = alloca i8*
  %ehselector.slot = alloca i32
  store %class.cEqdHistogramBase* %this, %class.cEqdHistogramBase** %this.addr, align 8
  call void @llvm.dbg.declare(metadata %class.cEqdHistogramBase** %this.addr, metadata !2788, metadata !DIExpression()), !dbg !2789
  store %class.cCommBuffer* %buffer, %class.cCommBuffer** %buffer.addr, align 8
  call void @llvm.dbg.declare(metadata %class.cCommBuffer** %buffer.addr, metadata !2790, metadata !DIExpression()), !dbg !2791
  %this1 = load %class.cEqdHistogramBase*, %class.cEqdHistogramBase** %this.addr, align 8
  %exception = call i8* @__cxa_allocate_exception(i64 128) #3, !dbg !2792
  %0 = bitcast i8* %exception to %class.cRuntimeError*, !dbg !2792
  %1 = bitcast %class.cEqdHistogramBase* %this1 to %class.cObject*, !dbg !2793
  invoke void (%class.cRuntimeError*, %class.cObject*, i32, ...) @_ZN13cRuntimeErrorC1EPK7cObject12OppErrorCodez(%class.cRuntimeError* %0, %class.cObject* %1, i32 29)
          to label %invoke.cont unwind label %lpad, !dbg !2794

invoke.cont:                                      ; preds = %entry
  call void @__cxa_throw(i8* %exception, i8* bitcast ({ i8*, i8*, i8* }* @_ZTI13cRuntimeError to i8*), i8* bitcast (void (%class.cRuntimeError*)* @_ZN13cRuntimeErrorD2Ev to i8*)) #16, !dbg !2792
  unreachable, !dbg !2792

lpad:                                             ; preds = %entry
  %2 = landingpad { i8*, i32 }
          cleanup, !dbg !2795
  %3 = extractvalue { i8*, i32 } %2, 0, !dbg !2795
  store i8* %3, i8** %exn.slot, align 8, !dbg !2795
  %4 = extractvalue { i8*, i32 } %2, 1, !dbg !2795
  store i32 %4, i32* %ehselector.slot, align 4, !dbg !2795
  call void @__cxa_free_exception(i8* %exception) #3, !dbg !2792
  br label %eh.resume, !dbg !2792

eh.resume:                                        ; preds = %lpad
  %exn = load i8*, i8** %exn.slot, align 8, !dbg !2792
  %sel = load i32, i32* %ehselector.slot, align 4, !dbg !2792
  %lpad.val = insertvalue { i8*, i32 } undef, i8* %exn, 0, !dbg !2792
  %lpad.val2 = insertvalue { i8*, i32 } %lpad.val, i32 %sel, 1, !dbg !2792
  resume { i8*, i32 } %lpad.val2, !dbg !2792
}

; Function Attrs: noinline uwtable
define dso_local dereferenceable(192) %class.cEqdHistogramBase* @_ZN17cEqdHistogramBaseaSERKS_(%class.cEqdHistogramBase* %this, %class.cEqdHistogramBase* dereferenceable(192) %res) #0 align 2 !dbg !2796 {
entry:
  %retval = alloca %class.cEqdHistogramBase*, align 8
  %this.addr = alloca %class.cEqdHistogramBase*, align 8
  %res.addr = alloca %class.cEqdHistogramBase*, align 8
  store %class.cEqdHistogramBase* %this, %class.cEqdHistogramBase** %this.addr, align 8
  call void @llvm.dbg.declare(metadata %class.cEqdHistogramBase** %this.addr, metadata !2797, metadata !DIExpression()), !dbg !2798
  store %class.cEqdHistogramBase* %res, %class.cEqdHistogramBase** %res.addr, align 8
  call void @llvm.dbg.declare(metadata %class.cEqdHistogramBase** %res.addr, metadata !2799, metadata !DIExpression()), !dbg !2800
  %this1 = load %class.cEqdHistogramBase*, %class.cEqdHistogramBase** %this.addr, align 8
  %0 = load %class.cEqdHistogramBase*, %class.cEqdHistogramBase** %res.addr, align 8, !dbg !2801
  %cmp = icmp eq %class.cEqdHistogramBase* %this1, %0, !dbg !2803
  br i1 %cmp, label %if.then, label %if.end, !dbg !2804

if.then:                                          ; preds = %entry
  store %class.cEqdHistogramBase* %this1, %class.cEqdHistogramBase** %retval, align 8, !dbg !2805
  br label %return, !dbg !2805

if.end:                                           ; preds = %entry
  %1 = bitcast %class.cEqdHistogramBase* %this1 to %class.cHistogramBase*, !dbg !2806
  %2 = load %class.cEqdHistogramBase*, %class.cEqdHistogramBase** %res.addr, align 8, !dbg !2807
  %3 = bitcast %class.cEqdHistogramBase* %2 to %class.cHistogramBase*, !dbg !2807
  %call = call dereferenceable(184) %class.cHistogramBase* @_ZN14cHistogramBaseaSERKS_(%class.cHistogramBase* %1, %class.cHistogramBase* dereferenceable(184) %3), !dbg !2806
  %4 = load %class.cEqdHistogramBase*, %class.cEqdHistogramBase** %res.addr, align 8, !dbg !2808
  %cellsize = getelementptr inbounds %class.cEqdHistogramBase, %class.cEqdHistogramBase* %4, i32 0, i32 1, !dbg !2809
  %5 = load double, double* %cellsize, align 8, !dbg !2809
  %cellsize2 = getelementptr inbounds %class.cEqdHistogramBase, %class.cEqdHistogramBase* %this1, i32 0, i32 1, !dbg !2810
  store double %5, double* %cellsize2, align 8, !dbg !2811
  store %class.cEqdHistogramBase* %this1, %class.cEqdHistogramBase** %retval, align 8, !dbg !2812
  br label %return, !dbg !2812

return:                                           ; preds = %if.end, %if.then
  %6 = load %class.cEqdHistogramBase*, %class.cEqdHistogramBase** %retval, align 8, !dbg !2813
  ret %class.cEqdHistogramBase* %6, !dbg !2813
}

; Function Attrs: noinline uwtable
define dso_local void @_ZN17cEqdHistogramBase11setCellSizeEd(%class.cEqdHistogramBase* %this, double %d) unnamed_addr #0 align 2 personality i8* bitcast (i32 (...)* @__gxx_personality_v0 to i8*) !dbg !2814 {
entry:
  %this.addr = alloca %class.cEqdHistogramBase*, align 8
  %d.addr = alloca double, align 8
  %exn.slot = alloca i8*
  %ehselector.slot = alloca i32
  store %class.cEqdHistogramBase* %this, %class.cEqdHistogramBase** %this.addr, align 8
  call void @llvm.dbg.declare(metadata %class.cEqdHistogramBase** %this.addr, metadata !2815, metadata !DIExpression()), !dbg !2816
  store double %d, double* %d.addr, align 8
  call void @llvm.dbg.declare(metadata double* %d.addr, metadata !2817, metadata !DIExpression()), !dbg !2818
  %this1 = load %class.cEqdHistogramBase*, %class.cEqdHistogramBase** %this.addr, align 8
  %0 = bitcast %class.cEqdHistogramBase* %this1 to %class.cDensityEstBase*, !dbg !2819
  %1 = bitcast %class.cDensityEstBase* %0 to i1 (%class.cDensityEstBase*)***, !dbg !2819
  %vtable = load i1 (%class.cDensityEstBase*)**, i1 (%class.cDensityEstBase*)*** %1, align 8, !dbg !2819
  %vfn = getelementptr inbounds i1 (%class.cDensityEstBase*)*, i1 (%class.cDensityEstBase*)** %vtable, i64 57, !dbg !2819
  %2 = load i1 (%class.cDensityEstBase*)*, i1 (%class.cDensityEstBase*)** %vfn, align 8, !dbg !2819
  %call = call zeroext i1 %2(%class.cDensityEstBase* %0), !dbg !2819
  br i1 %call, label %if.then, label %if.end, !dbg !2821

if.then:                                          ; preds = %entry
  %exception = call i8* @__cxa_allocate_exception(i64 128) #3, !dbg !2822
  %3 = bitcast i8* %exception to %class.cRuntimeError*, !dbg !2822
  %4 = bitcast %class.cEqdHistogramBase* %this1 to %class.cObject*, !dbg !2823
  invoke void (%class.cRuntimeError*, %class.cObject*, i8*, ...) @_ZN13cRuntimeErrorC1EPK7cObjectPKcz(%class.cRuntimeError* %3, %class.cObject* %4, i8* getelementptr inbounds ([67 x i8], [67 x i8]* @.str.9, i64 0, i64 0))
          to label %invoke.cont unwind label %lpad, !dbg !2824

invoke.cont:                                      ; preds = %if.then
  call void @__cxa_throw(i8* %exception, i8* bitcast ({ i8*, i8*, i8* }* @_ZTI13cRuntimeError to i8*), i8* bitcast (void (%class.cRuntimeError*)* @_ZN13cRuntimeErrorD2Ev to i8*)) #16, !dbg !2822
  unreachable, !dbg !2822

lpad:                                             ; preds = %if.then
  %5 = landingpad { i8*, i32 }
          cleanup, !dbg !2825
  %6 = extractvalue { i8*, i32 } %5, 0, !dbg !2825
  store i8* %6, i8** %exn.slot, align 8, !dbg !2825
  %7 = extractvalue { i8*, i32 } %5, 1, !dbg !2825
  store i32 %7, i32* %ehselector.slot, align 4, !dbg !2825
  call void @__cxa_free_exception(i8* %exception) #3, !dbg !2822
  br label %eh.resume, !dbg !2822

if.end:                                           ; preds = %entry
  %8 = load double, double* %d.addr, align 8, !dbg !2826
  %cellsize = getelementptr inbounds %class.cEqdHistogramBase, %class.cEqdHistogramBase* %this1, i32 0, i32 1, !dbg !2827
  store double %8, double* %cellsize, align 8, !dbg !2828
  ret void, !dbg !2829

eh.resume:                                        ; preds = %lpad
  %exn = load i8*, i8** %exn.slot, align 8, !dbg !2822
  %sel = load i32, i32* %ehselector.slot, align 4, !dbg !2822
  %lpad.val = insertvalue { i8*, i32 } undef, i8* %exn, 0, !dbg !2822
  %lpad.val2 = insertvalue { i8*, i32 } %lpad.val, i32 %sel, 1, !dbg !2822
  resume { i8*, i32 } %lpad.val2, !dbg !2822
}

; Function Attrs: noinline uwtable
define dso_local void @_ZN17cEqdHistogramBase10setupRangeEv(%class.cEqdHistogramBase* %this) unnamed_addr #0 align 2 !dbg !2830 {
entry:
  %this.addr = alloca %class.cEqdHistogramBase*, align 8
  store %class.cEqdHistogramBase* %this, %class.cEqdHistogramBase** %this.addr, align 8
  call void @llvm.dbg.declare(metadata %class.cEqdHistogramBase** %this.addr, metadata !2831, metadata !DIExpression()), !dbg !2832
  %this1 = load %class.cEqdHistogramBase*, %class.cEqdHistogramBase** %this.addr, align 8
  %0 = bitcast %class.cEqdHistogramBase* %this1 to %class.cHistogramBase*, !dbg !2833
  %1 = bitcast %class.cHistogramBase* %0 to %class.cDensityEstBase*, !dbg !2833
  call void @_ZN15cDensityEstBase10setupRangeEv(%class.cDensityEstBase* %1), !dbg !2833
  ret void, !dbg !2834
}

declare dso_local void @_ZN15cDensityEstBase10setupRangeEv(%class.cDensityEstBase*) unnamed_addr #1

; Function Attrs: noinline nounwind uwtable
define dso_local void @_ZN17cEqdHistogramBase18collectTransformedEd(%class.cEqdHistogramBase* %this, double %val) unnamed_addr #5 align 2 !dbg !2835 {
entry:
  %this.addr = alloca %class.cEqdHistogramBase*, align 8
  %val.addr = alloca double, align 8
  %k = alloca i32, align 4
  store %class.cEqdHistogramBase* %this, %class.cEqdHistogramBase** %this.addr, align 8
  call void @llvm.dbg.declare(metadata %class.cEqdHistogramBase** %this.addr, metadata !2836, metadata !DIExpression()), !dbg !2837
  store double %val, double* %val.addr, align 8
  call void @llvm.dbg.declare(metadata double* %val.addr, metadata !2838, metadata !DIExpression()), !dbg !2839
  %this1 = load %class.cEqdHistogramBase*, %class.cEqdHistogramBase** %this.addr, align 8
  call void @llvm.dbg.declare(metadata i32* %k, metadata !2840, metadata !DIExpression()), !dbg !2841
  %0 = load double, double* %val.addr, align 8, !dbg !2842
  %1 = bitcast %class.cEqdHistogramBase* %this1 to %class.cDensityEstBase*, !dbg !2843
  %rangemin = getelementptr inbounds %class.cDensityEstBase, %class.cDensityEstBase* %1, i32 0, i32 1, !dbg !2843
  %2 = load double, double* %rangemin, align 8, !dbg !2843
  %sub = fsub double %0, %2, !dbg !2844
  %cellsize = getelementptr inbounds %class.cEqdHistogramBase, %class.cEqdHistogramBase* %this1, i32 0, i32 1, !dbg !2845
  %3 = load double, double* %cellsize, align 8, !dbg !2845
  %div = fdiv double %sub, %3, !dbg !2846
  %4 = call double @llvm.floor.f64(double %div), !dbg !2847
  %conv = fptosi double %4 to i32, !dbg !2847
  store i32 %conv, i32* %k, align 4, !dbg !2841
  %5 = load i32, i32* %k, align 4, !dbg !2848
  %cmp = icmp slt i32 %5, 0, !dbg !2850
  br i1 %cmp, label %if.then, label %lor.lhs.false, !dbg !2851

lor.lhs.false:                                    ; preds = %entry
  %6 = load double, double* %val.addr, align 8, !dbg !2852
  %7 = bitcast %class.cEqdHistogramBase* %this1 to %class.cDensityEstBase*, !dbg !2853
  %rangemin2 = getelementptr inbounds %class.cDensityEstBase, %class.cDensityEstBase* %7, i32 0, i32 1, !dbg !2853
  %8 = load double, double* %rangemin2, align 8, !dbg !2853
  %cmp3 = fcmp olt double %6, %8, !dbg !2854
  br i1 %cmp3, label %if.then, label %if.else, !dbg !2855

if.then:                                          ; preds = %lor.lhs.false, %entry
  %9 = bitcast %class.cEqdHistogramBase* %this1 to %class.cDensityEstBase*, !dbg !2856
  %cell_under = getelementptr inbounds %class.cDensityEstBase, %class.cDensityEstBase* %9, i32 0, i32 4, !dbg !2856
  %10 = load i64, i64* %cell_under, align 8, !dbg !2857
  %inc = add i64 %10, 1, !dbg !2857
  store i64 %inc, i64* %cell_under, align 8, !dbg !2857
  br label %if.end11, !dbg !2856

if.else:                                          ; preds = %lor.lhs.false
  %11 = load i32, i32* %k, align 4, !dbg !2858
  %12 = bitcast %class.cEqdHistogramBase* %this1 to %class.cHistogramBase*, !dbg !2860
  %num_cells = getelementptr inbounds %class.cHistogramBase, %class.cHistogramBase* %12, i32 0, i32 1, !dbg !2860
  %13 = load i32, i32* %num_cells, align 8, !dbg !2860
  %cmp4 = icmp sge i32 %11, %13, !dbg !2861
  br i1 %cmp4, label %if.then7, label %lor.lhs.false5, !dbg !2862

lor.lhs.false5:                                   ; preds = %if.else
  %14 = load double, double* %val.addr, align 8, !dbg !2863
  %15 = bitcast %class.cEqdHistogramBase* %this1 to %class.cDensityEstBase*, !dbg !2864
  %rangemax = getelementptr inbounds %class.cDensityEstBase, %class.cDensityEstBase* %15, i32 0, i32 2, !dbg !2864
  %16 = load double, double* %rangemax, align 8, !dbg !2864
  %cmp6 = fcmp oge double %14, %16, !dbg !2865
  br i1 %cmp6, label %if.then7, label %if.else9, !dbg !2866

if.then7:                                         ; preds = %lor.lhs.false5, %if.else
  %17 = bitcast %class.cEqdHistogramBase* %this1 to %class.cDensityEstBase*, !dbg !2867
  %cell_over = getelementptr inbounds %class.cDensityEstBase, %class.cDensityEstBase* %17, i32 0, i32 5, !dbg !2867
  %18 = load i64, i64* %cell_over, align 8, !dbg !2868
  %inc8 = add i64 %18, 1, !dbg !2868
  store i64 %inc8, i64* %cell_over, align 8, !dbg !2868
  br label %if.end, !dbg !2867

if.else9:                                         ; preds = %lor.lhs.false5
  %19 = bitcast %class.cEqdHistogramBase* %this1 to %class.cHistogramBase*, !dbg !2869
  %cellv = getelementptr inbounds %class.cHistogramBase, %class.cHistogramBase* %19, i32 0, i32 2, !dbg !2869
  %20 = load i32*, i32** %cellv, align 8, !dbg !2869
  %21 = load i32, i32* %k, align 4, !dbg !2870
  %idxprom = sext i32 %21 to i64, !dbg !2869
  %arrayidx = getelementptr inbounds i32, i32* %20, i64 %idxprom, !dbg !2869
  %22 = load i32, i32* %arrayidx, align 4, !dbg !2871
  %inc10 = add i32 %22, 1, !dbg !2871
  store i32 %inc10, i32* %arrayidx, align 4, !dbg !2871
  br label %if.end

if.end:                                           ; preds = %if.else9, %if.then7
  br label %if.end11

if.end11:                                         ; preds = %if.end, %if.then
  ret void, !dbg !2872
}

; Function Attrs: nounwind readnone speculatable willreturn
declare double @llvm.floor.f64(double) #4

; Function Attrs: noinline uwtable
define dso_local double @_ZNK17cEqdHistogramBase6getPDFEd(%class.cEqdHistogramBase* %this, double %x) unnamed_addr #0 align 2 personality i8* bitcast (i32 (...)* @__gxx_personality_v0 to i8*) !dbg !2873 {
entry:
  %retval = alloca double, align 8
  %this.addr = alloca %class.cEqdHistogramBase*, align 8
  %x.addr = alloca double, align 8
  %exn.slot = alloca i8*
  %ehselector.slot = alloca i32
  %k = alloca i32, align 4
  store %class.cEqdHistogramBase* %this, %class.cEqdHistogramBase** %this.addr, align 8
  call void @llvm.dbg.declare(metadata %class.cEqdHistogramBase** %this.addr, metadata !2874, metadata !DIExpression()), !dbg !2876
  store double %x, double* %x.addr, align 8
  call void @llvm.dbg.declare(metadata double* %x.addr, metadata !2877, metadata !DIExpression()), !dbg !2878
  %this1 = load %class.cEqdHistogramBase*, %class.cEqdHistogramBase** %this.addr, align 8
  %0 = bitcast %class.cEqdHistogramBase* %this1 to %class.cDensityEstBase*, !dbg !2879
  %1 = bitcast %class.cDensityEstBase* %0 to i1 (%class.cDensityEstBase*)***, !dbg !2879
  %vtable = load i1 (%class.cDensityEstBase*)**, i1 (%class.cDensityEstBase*)*** %1, align 8, !dbg !2879
  %vfn = getelementptr inbounds i1 (%class.cDensityEstBase*)*, i1 (%class.cDensityEstBase*)** %vtable, i64 57, !dbg !2879
  %2 = load i1 (%class.cDensityEstBase*)*, i1 (%class.cDensityEstBase*)** %vfn, align 8, !dbg !2879
  %call = call zeroext i1 %2(%class.cDensityEstBase* %0), !dbg !2879
  br i1 %call, label %if.end, label %if.then, !dbg !2881

if.then:                                          ; preds = %entry
  %exception = call i8* @__cxa_allocate_exception(i64 128) #3, !dbg !2882
  %3 = bitcast i8* %exception to %class.cRuntimeError*, !dbg !2882
  %4 = bitcast %class.cEqdHistogramBase* %this1 to %class.cObject*, !dbg !2883
  invoke void (%class.cRuntimeError*, %class.cObject*, i8*, ...) @_ZN13cRuntimeErrorC1EPK7cObjectPKcz(%class.cRuntimeError* %3, %class.cObject* %4, i8* getelementptr inbounds ([59 x i8], [59 x i8]* @.str.10, i64 0, i64 0))
          to label %invoke.cont unwind label %lpad, !dbg !2884

invoke.cont:                                      ; preds = %if.then
  call void @__cxa_throw(i8* %exception, i8* bitcast ({ i8*, i8*, i8* }* @_ZTI13cRuntimeError to i8*), i8* bitcast (void (%class.cRuntimeError*)* @_ZN13cRuntimeErrorD2Ev to i8*)) #16, !dbg !2882
  unreachable, !dbg !2882

lpad:                                             ; preds = %if.then
  %5 = landingpad { i8*, i32 }
          cleanup, !dbg !2885
  %6 = extractvalue { i8*, i32 } %5, 0, !dbg !2885
  store i8* %6, i8** %exn.slot, align 8, !dbg !2885
  %7 = extractvalue { i8*, i32 } %5, 1, !dbg !2885
  store i32 %7, i32* %ehselector.slot, align 4, !dbg !2885
  call void @__cxa_free_exception(i8* %exception) #3, !dbg !2882
  br label %eh.resume, !dbg !2882

if.end:                                           ; preds = %entry
  call void @llvm.dbg.declare(metadata i32* %k, metadata !2886, metadata !DIExpression()), !dbg !2887
  %8 = load double, double* %x.addr, align 8, !dbg !2888
  %9 = bitcast %class.cEqdHistogramBase* %this1 to %class.cDensityEstBase*, !dbg !2889
  %rangemin = getelementptr inbounds %class.cDensityEstBase, %class.cDensityEstBase* %9, i32 0, i32 1, !dbg !2889
  %10 = load double, double* %rangemin, align 8, !dbg !2889
  %sub = fsub double %8, %10, !dbg !2890
  %cellsize = getelementptr inbounds %class.cEqdHistogramBase, %class.cEqdHistogramBase* %this1, i32 0, i32 1, !dbg !2891
  %11 = load double, double* %cellsize, align 8, !dbg !2891
  %div = fdiv double %sub, %11, !dbg !2892
  %12 = call double @llvm.floor.f64(double %div), !dbg !2893
  %conv = fptosi double %12 to i32, !dbg !2893
  store i32 %conv, i32* %k, align 4, !dbg !2887
  %13 = load i32, i32* %k, align 4, !dbg !2894
  %cmp = icmp slt i32 %13, 0, !dbg !2896
  br i1 %cmp, label %if.then8, label %lor.lhs.false, !dbg !2897

lor.lhs.false:                                    ; preds = %if.end
  %14 = load double, double* %x.addr, align 8, !dbg !2898
  %15 = bitcast %class.cEqdHistogramBase* %this1 to %class.cDensityEstBase*, !dbg !2899
  %rangemin2 = getelementptr inbounds %class.cDensityEstBase, %class.cDensityEstBase* %15, i32 0, i32 1, !dbg !2899
  %16 = load double, double* %rangemin2, align 8, !dbg !2899
  %cmp3 = fcmp olt double %14, %16, !dbg !2900
  br i1 %cmp3, label %if.then8, label %lor.lhs.false4, !dbg !2901

lor.lhs.false4:                                   ; preds = %lor.lhs.false
  %17 = load i32, i32* %k, align 4, !dbg !2902
  %18 = bitcast %class.cEqdHistogramBase* %this1 to %class.cHistogramBase*, !dbg !2903
  %num_cells = getelementptr inbounds %class.cHistogramBase, %class.cHistogramBase* %18, i32 0, i32 1, !dbg !2903
  %19 = load i32, i32* %num_cells, align 8, !dbg !2903
  %cmp5 = icmp sge i32 %17, %19, !dbg !2904
  br i1 %cmp5, label %if.then8, label %lor.lhs.false6, !dbg !2905

lor.lhs.false6:                                   ; preds = %lor.lhs.false4
  %20 = load double, double* %x.addr, align 8, !dbg !2906
  %21 = bitcast %class.cEqdHistogramBase* %this1 to %class.cDensityEstBase*, !dbg !2907
  %rangemax = getelementptr inbounds %class.cDensityEstBase, %class.cDensityEstBase* %21, i32 0, i32 2, !dbg !2907
  %22 = load double, double* %rangemax, align 8, !dbg !2907
  %cmp7 = fcmp oge double %20, %22, !dbg !2908
  br i1 %cmp7, label %if.then8, label %if.end9, !dbg !2909

if.then8:                                         ; preds = %lor.lhs.false6, %lor.lhs.false4, %lor.lhs.false, %if.end
  store double 0.000000e+00, double* %retval, align 8, !dbg !2910
  br label %return, !dbg !2910

if.end9:                                          ; preds = %lor.lhs.false6
  %23 = bitcast %class.cEqdHistogramBase* %this1 to %class.cHistogramBase*, !dbg !2911
  %cellv = getelementptr inbounds %class.cHistogramBase, %class.cHistogramBase* %23, i32 0, i32 2, !dbg !2911
  %24 = load i32*, i32** %cellv, align 8, !dbg !2911
  %25 = load i32, i32* %k, align 4, !dbg !2912
  %idxprom = sext i32 %25 to i64, !dbg !2911
  %arrayidx = getelementptr inbounds i32, i32* %24, i64 %idxprom, !dbg !2911
  %26 = load i32, i32* %arrayidx, align 4, !dbg !2911
  %conv10 = uitofp i32 %26 to double, !dbg !2911
  %cellsize11 = getelementptr inbounds %class.cEqdHistogramBase, %class.cEqdHistogramBase* %this1, i32 0, i32 1, !dbg !2913
  %27 = load double, double* %cellsize11, align 8, !dbg !2913
  %div12 = fdiv double %conv10, %27, !dbg !2914
  %28 = bitcast %class.cEqdHistogramBase* %this1 to %class.cStdDev*, !dbg !2915
  %num_vals = getelementptr inbounds %class.cStdDev, %class.cStdDev* %28, i32 0, i32 1, !dbg !2915
  %29 = load i64, i64* %num_vals, align 8, !dbg !2915
  %conv13 = sitofp i64 %29 to double, !dbg !2915
  %div14 = fdiv double %div12, %conv13, !dbg !2916
  store double %div14, double* %retval, align 8, !dbg !2917
  br label %return, !dbg !2917

return:                                           ; preds = %if.end9, %if.then8
  %30 = load double, double* %retval, align 8, !dbg !2918
  ret double %30, !dbg !2918

eh.resume:                                        ; preds = %lpad
  %exn = load i8*, i8** %exn.slot, align 8, !dbg !2882
  %sel = load i32, i32* %ehselector.slot, align 4, !dbg !2882
  %lpad.val = insertvalue { i8*, i32 } undef, i8* %exn, 0, !dbg !2882
  %lpad.val15 = insertvalue { i8*, i32 } %lpad.val, i32 %sel, 1, !dbg !2882
  resume { i8*, i32 } %lpad.val15, !dbg !2882
}

; Function Attrs: noinline uwtable
define dso_local double @_ZNK17cEqdHistogramBase6getCDFEd(%class.cEqdHistogramBase* %this, double %0) unnamed_addr #0 align 2 personality i8* bitcast (i32 (...)* @__gxx_personality_v0 to i8*) !dbg !2919 {
entry:
  %this.addr = alloca %class.cEqdHistogramBase*, align 8
  %.addr = alloca double, align 8
  %exn.slot = alloca i8*
  %ehselector.slot = alloca i32
  store %class.cEqdHistogramBase* %this, %class.cEqdHistogramBase** %this.addr, align 8
  call void @llvm.dbg.declare(metadata %class.cEqdHistogramBase** %this.addr, metadata !2920, metadata !DIExpression()), !dbg !2921
  store double %0, double* %.addr, align 8
  call void @llvm.dbg.declare(metadata double* %.addr, metadata !2922, metadata !DIExpression()), !dbg !2923
  %this1 = load %class.cEqdHistogramBase*, %class.cEqdHistogramBase** %this.addr, align 8
  %exception = call i8* @__cxa_allocate_exception(i64 128) #3, !dbg !2924
  %1 = bitcast i8* %exception to %class.cRuntimeError*, !dbg !2924
  %2 = bitcast %class.cEqdHistogramBase* %this1 to %class.cObject*, !dbg !2925
  invoke void (%class.cRuntimeError*, %class.cObject*, i8*, ...) @_ZN13cRuntimeErrorC1EPK7cObjectPKcz(%class.cRuntimeError* %1, %class.cObject* %2, i8* getelementptr inbounds ([25 x i8], [25 x i8]* @.str.11, i64 0, i64 0))
          to label %invoke.cont unwind label %lpad, !dbg !2926

invoke.cont:                                      ; preds = %entry
  call void @__cxa_throw(i8* %exception, i8* bitcast ({ i8*, i8*, i8* }* @_ZTI13cRuntimeError to i8*), i8* bitcast (void (%class.cRuntimeError*)* @_ZN13cRuntimeErrorD2Ev to i8*)) #16, !dbg !2924
  unreachable, !dbg !2924

lpad:                                             ; preds = %entry
  %3 = landingpad { i8*, i32 }
          cleanup, !dbg !2927
  %4 = extractvalue { i8*, i32 } %3, 0, !dbg !2927
  store i8* %4, i8** %exn.slot, align 8, !dbg !2927
  %5 = extractvalue { i8*, i32 } %3, 1, !dbg !2927
  store i32 %5, i32* %ehselector.slot, align 4, !dbg !2927
  call void @__cxa_free_exception(i8* %exception) #3, !dbg !2924
  br label %eh.resume, !dbg !2924

eh.resume:                                        ; preds = %lpad
  %exn = load i8*, i8** %exn.slot, align 8, !dbg !2924
  %sel = load i32, i32* %ehselector.slot, align 4, !dbg !2924
  %lpad.val = insertvalue { i8*, i32 } undef, i8* %exn, 0, !dbg !2924
  %lpad.val2 = insertvalue { i8*, i32 } %lpad.val, i32 %sel, 1, !dbg !2924
  resume { i8*, i32 } %lpad.val2, !dbg !2924
}

; Function Attrs: noinline uwtable
define dso_local double @_ZNK17cEqdHistogramBase12getBasepointEi(%class.cEqdHistogramBase* %this, i32 %k) unnamed_addr #0 align 2 personality i8* bitcast (i32 (...)* @__gxx_personality_v0 to i8*) !dbg !2928 {
entry:
  %retval = alloca double, align 8
  %this.addr = alloca %class.cEqdHistogramBase*, align 8
  %k.addr = alloca i32, align 4
  %exn.slot = alloca i8*
  %ehselector.slot = alloca i32
  store %class.cEqdHistogramBase* %this, %class.cEqdHistogramBase** %this.addr, align 8
  call void @llvm.dbg.declare(metadata %class.cEqdHistogramBase** %this.addr, metadata !2929, metadata !DIExpression()), !dbg !2930
  store i32 %k, i32* %k.addr, align 4
  call void @llvm.dbg.declare(metadata i32* %k.addr, metadata !2931, metadata !DIExpression()), !dbg !2932
  %this1 = load %class.cEqdHistogramBase*, %class.cEqdHistogramBase** %this.addr, align 8
  %0 = load i32, i32* %k.addr, align 4, !dbg !2933
  %cmp = icmp slt i32 %0, 0, !dbg !2935
  br i1 %cmp, label %if.then, label %lor.lhs.false, !dbg !2936

lor.lhs.false:                                    ; preds = %entry
  %1 = load i32, i32* %k.addr, align 4, !dbg !2937
  %2 = bitcast %class.cEqdHistogramBase* %this1 to %class.cHistogramBase*, !dbg !2938
  %num_cells = getelementptr inbounds %class.cHistogramBase, %class.cHistogramBase* %2, i32 0, i32 1, !dbg !2938
  %3 = load i32, i32* %num_cells, align 8, !dbg !2938
  %cmp2 = icmp sgt i32 %1, %3, !dbg !2939
  br i1 %cmp2, label %if.then, label %if.end, !dbg !2940

if.then:                                          ; preds = %lor.lhs.false, %entry
  %exception = call i8* @__cxa_allocate_exception(i64 128) #3, !dbg !2941
  %4 = bitcast i8* %exception to %class.cRuntimeError*, !dbg !2941
  %5 = bitcast %class.cEqdHistogramBase* %this1 to %class.cObject*, !dbg !2942
  %6 = load i32, i32* %k.addr, align 4, !dbg !2943
  invoke void (%class.cRuntimeError*, %class.cObject*, i8*, ...) @_ZN13cRuntimeErrorC1EPK7cObjectPKcz(%class.cRuntimeError* %4, %class.cObject* %5, i8* getelementptr inbounds ([27 x i8], [27 x i8]* @.str.12, i64 0, i64 0), i32 %6)
          to label %invoke.cont unwind label %lpad, !dbg !2944

invoke.cont:                                      ; preds = %if.then
  call void @__cxa_throw(i8* %exception, i8* bitcast ({ i8*, i8*, i8* }* @_ZTI13cRuntimeError to i8*), i8* bitcast (void (%class.cRuntimeError*)* @_ZN13cRuntimeErrorD2Ev to i8*)) #16, !dbg !2941
  unreachable, !dbg !2941

lpad:                                             ; preds = %if.then
  %7 = landingpad { i8*, i32 }
          cleanup, !dbg !2945
  %8 = extractvalue { i8*, i32 } %7, 0, !dbg !2945
  store i8* %8, i8** %exn.slot, align 8, !dbg !2945
  %9 = extractvalue { i8*, i32 } %7, 1, !dbg !2945
  store i32 %9, i32* %ehselector.slot, align 4, !dbg !2945
  call void @__cxa_free_exception(i8* %exception) #3, !dbg !2941
  br label %eh.resume, !dbg !2941

if.end:                                           ; preds = %lor.lhs.false
  %10 = load i32, i32* %k.addr, align 4, !dbg !2946
  %11 = bitcast %class.cEqdHistogramBase* %this1 to %class.cHistogramBase*, !dbg !2948
  %num_cells3 = getelementptr inbounds %class.cHistogramBase, %class.cHistogramBase* %11, i32 0, i32 1, !dbg !2948
  %12 = load i32, i32* %num_cells3, align 8, !dbg !2948
  %cmp4 = icmp eq i32 %10, %12, !dbg !2949
  br i1 %cmp4, label %if.then5, label %if.else, !dbg !2950

if.then5:                                         ; preds = %if.end
  %13 = bitcast %class.cEqdHistogramBase* %this1 to %class.cDensityEstBase*, !dbg !2951
  %rangemax = getelementptr inbounds %class.cDensityEstBase, %class.cDensityEstBase* %13, i32 0, i32 2, !dbg !2951
  %14 = load double, double* %rangemax, align 8, !dbg !2951
  store double %14, double* %retval, align 8, !dbg !2952
  br label %return, !dbg !2952

if.else:                                          ; preds = %if.end
  %15 = bitcast %class.cEqdHistogramBase* %this1 to %class.cDensityEstBase*, !dbg !2953
  %rangemin = getelementptr inbounds %class.cDensityEstBase, %class.cDensityEstBase* %15, i32 0, i32 1, !dbg !2953
  %16 = load double, double* %rangemin, align 8, !dbg !2953
  %17 = load i32, i32* %k.addr, align 4, !dbg !2954
  %conv = sitofp i32 %17 to double, !dbg !2954
  %cellsize = getelementptr inbounds %class.cEqdHistogramBase, %class.cEqdHistogramBase* %this1, i32 0, i32 1, !dbg !2955
  %18 = load double, double* %cellsize, align 8, !dbg !2955
  %mul = fmul double %conv, %18, !dbg !2956
  %add = fadd double %16, %mul, !dbg !2957
  store double %add, double* %retval, align 8, !dbg !2958
  br label %return, !dbg !2958

return:                                           ; preds = %if.else, %if.then5
  %19 = load double, double* %retval, align 8, !dbg !2959
  ret double %19, !dbg !2959

eh.resume:                                        ; preds = %lpad
  %exn = load i8*, i8** %exn.slot, align 8, !dbg !2941
  %sel = load i32, i32* %ehselector.slot, align 4, !dbg !2941
  %lpad.val = insertvalue { i8*, i32 } undef, i8* %exn, 0, !dbg !2941
  %lpad.val6 = insertvalue { i8*, i32 } %lpad.val, i32 %sel, 1, !dbg !2941
  resume { i8*, i32 } %lpad.val6, !dbg !2941
}

; Function Attrs: noinline uwtable
define dso_local double @_ZNK17cEqdHistogramBase12getCellValueEi(%class.cEqdHistogramBase* %this, i32 %k) unnamed_addr #0 align 2 personality i8* bitcast (i32 (...)* @__gxx_personality_v0 to i8*) !dbg !2960 {
entry:
  %this.addr = alloca %class.cEqdHistogramBase*, align 8
  %k.addr = alloca i32, align 4
  %exn.slot = alloca i8*
  %ehselector.slot = alloca i32
  store %class.cEqdHistogramBase* %this, %class.cEqdHistogramBase** %this.addr, align 8
  call void @llvm.dbg.declare(metadata %class.cEqdHistogramBase** %this.addr, metadata !2961, metadata !DIExpression()), !dbg !2962
  store i32 %k, i32* %k.addr, align 4
  call void @llvm.dbg.declare(metadata i32* %k.addr, metadata !2963, metadata !DIExpression()), !dbg !2964
  %this1 = load %class.cEqdHistogramBase*, %class.cEqdHistogramBase** %this.addr, align 8
  %0 = load i32, i32* %k.addr, align 4, !dbg !2965
  %cmp = icmp slt i32 %0, 0, !dbg !2967
  br i1 %cmp, label %if.then, label %lor.lhs.false, !dbg !2968

lor.lhs.false:                                    ; preds = %entry
  %1 = load i32, i32* %k.addr, align 4, !dbg !2969
  %2 = bitcast %class.cEqdHistogramBase* %this1 to %class.cHistogramBase*, !dbg !2970
  %num_cells = getelementptr inbounds %class.cHistogramBase, %class.cHistogramBase* %2, i32 0, i32 1, !dbg !2970
  %3 = load i32, i32* %num_cells, align 8, !dbg !2970
  %cmp2 = icmp sgt i32 %1, %3, !dbg !2971
  br i1 %cmp2, label %if.then, label %if.end, !dbg !2972

if.then:                                          ; preds = %lor.lhs.false, %entry
  %exception = call i8* @__cxa_allocate_exception(i64 128) #3, !dbg !2973
  %4 = bitcast i8* %exception to %class.cRuntimeError*, !dbg !2973
  %5 = bitcast %class.cEqdHistogramBase* %this1 to %class.cObject*, !dbg !2974
  %6 = load i32, i32* %k.addr, align 4, !dbg !2975
  invoke void (%class.cRuntimeError*, %class.cObject*, i8*, ...) @_ZN13cRuntimeErrorC1EPK7cObjectPKcz(%class.cRuntimeError* %4, %class.cObject* %5, i8* getelementptr inbounds ([22 x i8], [22 x i8]* @.str.13, i64 0, i64 0), i32 %6)
          to label %invoke.cont unwind label %lpad, !dbg !2976

invoke.cont:                                      ; preds = %if.then
  call void @__cxa_throw(i8* %exception, i8* bitcast ({ i8*, i8*, i8* }* @_ZTI13cRuntimeError to i8*), i8* bitcast (void (%class.cRuntimeError*)* @_ZN13cRuntimeErrorD2Ev to i8*)) #16, !dbg !2973
  unreachable, !dbg !2973

lpad:                                             ; preds = %if.then
  %7 = landingpad { i8*, i32 }
          cleanup, !dbg !2977
  %8 = extractvalue { i8*, i32 } %7, 0, !dbg !2977
  store i8* %8, i8** %exn.slot, align 8, !dbg !2977
  %9 = extractvalue { i8*, i32 } %7, 1, !dbg !2977
  store i32 %9, i32* %ehselector.slot, align 4, !dbg !2977
  call void @__cxa_free_exception(i8* %exception) #3, !dbg !2973
  br label %eh.resume, !dbg !2973

if.end:                                           ; preds = %lor.lhs.false
  %10 = bitcast %class.cEqdHistogramBase* %this1 to %class.cHistogramBase*, !dbg !2978
  %cellv = getelementptr inbounds %class.cHistogramBase, %class.cHistogramBase* %10, i32 0, i32 2, !dbg !2978
  %11 = load i32*, i32** %cellv, align 8, !dbg !2978
  %12 = load i32, i32* %k.addr, align 4, !dbg !2979
  %idxprom = sext i32 %12 to i64, !dbg !2978
  %arrayidx = getelementptr inbounds i32, i32* %11, i64 %idxprom, !dbg !2978
  %13 = load i32, i32* %arrayidx, align 4, !dbg !2978
  %conv = uitofp i32 %13 to double, !dbg !2978
  ret double %conv, !dbg !2980

eh.resume:                                        ; preds = %lpad
  %exn = load i8*, i8** %exn.slot, align 8, !dbg !2973
  %sel = load i32, i32* %ehselector.slot, align 4, !dbg !2973
  %lpad.val = insertvalue { i8*, i32 } undef, i8* %exn, 0, !dbg !2973
  %lpad.val3 = insertvalue { i8*, i32 } %lpad.val, i32 %sel, 1, !dbg !2973
  resume { i8*, i32 } %lpad.val3, !dbg !2973
}

; Function Attrs: noinline uwtable
define dso_local void @_ZNK17cEqdHistogramBase10saveToFileEP8_IO_FILE(%class.cEqdHistogramBase* %this, %struct._IO_FILE* %f) unnamed_addr #0 align 2 !dbg !2981 {
entry:
  %this.addr = alloca %class.cEqdHistogramBase*, align 8
  %f.addr = alloca %struct._IO_FILE*, align 8
  store %class.cEqdHistogramBase* %this, %class.cEqdHistogramBase** %this.addr, align 8
  call void @llvm.dbg.declare(metadata %class.cEqdHistogramBase** %this.addr, metadata !2982, metadata !DIExpression()), !dbg !2983
  store %struct._IO_FILE* %f, %struct._IO_FILE** %f.addr, align 8
  call void @llvm.dbg.declare(metadata %struct._IO_FILE** %f.addr, metadata !2984, metadata !DIExpression()), !dbg !2985
  %this1 = load %class.cEqdHistogramBase*, %class.cEqdHistogramBase** %this.addr, align 8
  %0 = bitcast %class.cEqdHistogramBase* %this1 to %class.cHistogramBase*, !dbg !2986
  %1 = load %struct._IO_FILE*, %struct._IO_FILE** %f.addr, align 8, !dbg !2987
  call void @_ZNK14cHistogramBase10saveToFileEP8_IO_FILE(%class.cHistogramBase* %0, %struct._IO_FILE* %1), !dbg !2986
  %2 = load %struct._IO_FILE*, %struct._IO_FILE** %f.addr, align 8, !dbg !2988
  %cellsize = getelementptr inbounds %class.cEqdHistogramBase, %class.cEqdHistogramBase* %this1, i32 0, i32 1, !dbg !2989
  %3 = load double, double* %cellsize, align 8, !dbg !2989
  %call = call i32 (%struct._IO_FILE*, i8*, ...) @fprintf(%struct._IO_FILE* %2, i8* getelementptr inbounds ([17 x i8], [17 x i8]* @.str.14, i64 0, i64 0), double %3), !dbg !2990
  ret void, !dbg !2991
}

; Function Attrs: noinline uwtable
define dso_local void @_ZN17cEqdHistogramBase12loadFromFileEP8_IO_FILE(%class.cEqdHistogramBase* %this, %struct._IO_FILE* %f) unnamed_addr #0 align 2 !dbg !2992 {
entry:
  %this.addr = alloca %class.cEqdHistogramBase*, align 8
  %f.addr = alloca %struct._IO_FILE*, align 8
  store %class.cEqdHistogramBase* %this, %class.cEqdHistogramBase** %this.addr, align 8
  call void @llvm.dbg.declare(metadata %class.cEqdHistogramBase** %this.addr, metadata !2993, metadata !DIExpression()), !dbg !2994
  store %struct._IO_FILE* %f, %struct._IO_FILE** %f.addr, align 8
  call void @llvm.dbg.declare(metadata %struct._IO_FILE** %f.addr, metadata !2995, metadata !DIExpression()), !dbg !2996
  %this1 = load %class.cEqdHistogramBase*, %class.cEqdHistogramBase** %this.addr, align 8
  %0 = bitcast %class.cEqdHistogramBase* %this1 to %class.cHistogramBase*, !dbg !2997
  %1 = load %struct._IO_FILE*, %struct._IO_FILE** %f.addr, align 8, !dbg !2998
  call void @_ZN14cHistogramBase12loadFromFileEP8_IO_FILE(%class.cHistogramBase* %0, %struct._IO_FILE* %1), !dbg !2997
  %2 = bitcast %class.cEqdHistogramBase* %this1 to %class.cStatistic*, !dbg !2999
  %3 = load %struct._IO_FILE*, %struct._IO_FILE** %f.addr, align 8, !dbg !3000
  %cellsize = getelementptr inbounds %class.cEqdHistogramBase, %class.cEqdHistogramBase* %this1, i32 0, i32 1, !dbg !3001
  call void (%class.cStatistic*, %struct._IO_FILE*, i8*, ...) @_ZN10cStatistic10freadvarsfEP8_IO_FILEPKcz(%class.cStatistic* %2, %struct._IO_FILE* %3, i8* getelementptr inbounds ([16 x i8], [16 x i8]* @.str.15, i64 0, i64 0), double* %cellsize), !dbg !2999
  ret void, !dbg !3002
}

; Function Attrs: noinline uwtable
define dso_local void @_ZN14cLongHistogramC2EPKci(%class.cLongHistogram* %this, i8* %name, i32 %numcells) unnamed_addr #0 align 2 !dbg !3003 {
entry:
  %this.addr = alloca %class.cLongHistogram*, align 8
  %name.addr = alloca i8*, align 8
  %numcells.addr = alloca i32, align 4
  store %class.cLongHistogram* %this, %class.cLongHistogram** %this.addr, align 8
  call void @llvm.dbg.declare(metadata %class.cLongHistogram** %this.addr, metadata !3349, metadata !DIExpression()), !dbg !3350
  store i8* %name, i8** %name.addr, align 8
  call void @llvm.dbg.declare(metadata i8** %name.addr, metadata !3351, metadata !DIExpression()), !dbg !3352
  store i32 %numcells, i32* %numcells.addr, align 4
  call void @llvm.dbg.declare(metadata i32* %numcells.addr, metadata !3353, metadata !DIExpression()), !dbg !3354
  %this1 = load %class.cLongHistogram*, %class.cLongHistogram** %this.addr, align 8
  %0 = bitcast %class.cLongHistogram* %this1 to %class.cEqdHistogramBase*, !dbg !3355
  %1 = load i8*, i8** %name.addr, align 8, !dbg !3356
  %2 = load i32, i32* %numcells.addr, align 4, !dbg !3357
  call void @_ZN17cEqdHistogramBaseC2EPKci(%class.cEqdHistogramBase* %0, i8* %1, i32 %2), !dbg !3358
  %3 = bitcast %class.cLongHistogram* %this1 to i32 (...)***, !dbg !3355
  store i32 (...)** bitcast (i8** getelementptr inbounds ({ [73 x i8*] }, { [73 x i8*] }* @_ZTV14cLongHistogram, i32 0, inrange i32 0, i32 2) to i32 (...)**), i32 (...)*** %3, align 8, !dbg !3355
  ret void, !dbg !3359
}

; Function Attrs: noinline nounwind uwtable
define dso_local void @_ZN14cLongHistogramD2Ev(%class.cLongHistogram* %this) unnamed_addr #5 align 2 !dbg !3360 {
entry:
  %this.addr = alloca %class.cLongHistogram*, align 8
  store %class.cLongHistogram* %this, %class.cLongHistogram** %this.addr, align 8
  call void @llvm.dbg.declare(metadata %class.cLongHistogram** %this.addr, metadata !3361, metadata !DIExpression()), !dbg !3362
  %this1 = load %class.cLongHistogram*, %class.cLongHistogram** %this.addr, align 8
  %0 = bitcast %class.cLongHistogram* %this1 to %class.cEqdHistogramBase*, !dbg !3363
  call void @_ZN17cEqdHistogramBaseD2Ev(%class.cEqdHistogramBase* %0) #3, !dbg !3363
  ret void, !dbg !3365
}

; Function Attrs: noinline nounwind uwtable
define dso_local void @_ZN14cLongHistogramD0Ev(%class.cLongHistogram* %this) unnamed_addr #5 align 2 !dbg !3366 {
entry:
  %this.addr = alloca %class.cLongHistogram*, align 8
  store %class.cLongHistogram* %this, %class.cLongHistogram** %this.addr, align 8
  call void @llvm.dbg.declare(metadata %class.cLongHistogram** %this.addr, metadata !3367, metadata !DIExpression()), !dbg !3368
  %this1 = load %class.cLongHistogram*, %class.cLongHistogram** %this.addr, align 8
  call void @_ZN14cLongHistogramD1Ev(%class.cLongHistogram* %this1) #3, !dbg !3369
  %0 = bitcast %class.cLongHistogram* %this1 to i8*, !dbg !3369
  call void @_ZdlPv(i8* %0) #14, !dbg !3369
  ret void, !dbg !3370
}

; Function Attrs: nobuiltin nounwind
declare dso_local void @_ZdlPv(i8*) #6

; Function Attrs: noinline uwtable
define dso_local void @_ZN14cLongHistogram7collectEd(%class.cLongHistogram* %this, double %val) unnamed_addr #0 align 2 !dbg !3371 {
entry:
  %this.addr = alloca %class.cLongHistogram*, align 8
  %val.addr = alloca double, align 8
  store %class.cLongHistogram* %this, %class.cLongHistogram** %this.addr, align 8
  call void @llvm.dbg.declare(metadata %class.cLongHistogram** %this.addr, metadata !3372, metadata !DIExpression()), !dbg !3373
  store double %val, double* %val.addr, align 8
  call void @llvm.dbg.declare(metadata double* %val.addr, metadata !3374, metadata !DIExpression()), !dbg !3375
  %this1 = load %class.cLongHistogram*, %class.cLongHistogram** %this.addr, align 8
  %0 = bitcast %class.cLongHistogram* %this1 to %class.cEqdHistogramBase*, !dbg !3376
  %1 = bitcast %class.cEqdHistogramBase* %0 to %class.cDensityEstBase*, !dbg !3376
  %2 = load double, double* %val.addr, align 8, !dbg !3377
  %3 = call double @llvm.floor.f64(double %2), !dbg !3378
  call void @_ZN15cDensityEstBase7collectEd(%class.cDensityEstBase* %1, double %3), !dbg !3376
  ret void, !dbg !3379
}

declare dso_local void @_ZN15cDensityEstBase7collectEd(%class.cDensityEstBase*, double) unnamed_addr #1

; Function Attrs: noinline uwtable
define dso_local void @_ZN14cLongHistogram10setupRangeEv(%class.cLongHistogram* %this) unnamed_addr #0 align 2 personality i8* bitcast (i32 (...)* @__gxx_personality_v0 to i8*) !dbg !3380 {
entry:
  %this.addr = alloca %class.cLongHistogram*, align 8
  %cellsize = alloca i64, align 8
  %range = alloca i64, align 8
  %exn.slot = alloca i8*
  %ehselector.slot = alloca i32
  %mincellsize = alloca i32, align 4
  %maxcellsize = alloca i32, align 4
  %range98 = alloca double, align 8
  %newrange = alloca double, align 8
  %rangediff = alloca double, align 8
  store %class.cLongHistogram* %this, %class.cLongHistogram** %this.addr, align 8
  call void @llvm.dbg.declare(metadata %class.cLongHistogram** %this.addr, metadata !3381, metadata !DIExpression()), !dbg !3382
  %this1 = load %class.cLongHistogram*, %class.cLongHistogram** %this.addr, align 8
  %0 = bitcast %class.cLongHistogram* %this1 to %class.cHistogramBase*, !dbg !3383
  %1 = bitcast %class.cHistogramBase* %0 to %class.cDensityEstBase*, !dbg !3383
  call void @_ZN15cDensityEstBase10setupRangeEv(%class.cDensityEstBase* %1), !dbg !3383
  call void @llvm.dbg.declare(metadata i64* %cellsize, metadata !3384, metadata !DIExpression()), !dbg !3385
  %2 = bitcast %class.cLongHistogram* %this1 to %class.cEqdHistogramBase*, !dbg !3386
  %cellsize2 = getelementptr inbounds %class.cEqdHistogramBase, %class.cEqdHistogramBase* %2, i32 0, i32 1, !dbg !3386
  %3 = load double, double* %cellsize2, align 8, !dbg !3386
  %conv = fptosi double %3 to i64, !dbg !3387
  store i64 %conv, i64* %cellsize, align 8, !dbg !3385
  %4 = bitcast %class.cLongHistogram* %this1 to %class.cDensityEstBase*, !dbg !3388
  %rangemin = getelementptr inbounds %class.cDensityEstBase, %class.cDensityEstBase* %4, i32 0, i32 1, !dbg !3388
  %5 = load double, double* %rangemin, align 8, !dbg !3388
  %6 = call double @llvm.ceil.f64(double %5), !dbg !3389
  %sub = fsub double %6, 5.000000e-01, !dbg !3390
  %7 = bitcast %class.cLongHistogram* %this1 to %class.cDensityEstBase*, !dbg !3391
  %rangemin3 = getelementptr inbounds %class.cDensityEstBase, %class.cDensityEstBase* %7, i32 0, i32 1, !dbg !3391
  store double %sub, double* %rangemin3, align 8, !dbg !3392
  %8 = bitcast %class.cLongHistogram* %this1 to %class.cDensityEstBase*, !dbg !3393
  %rangemax = getelementptr inbounds %class.cDensityEstBase, %class.cDensityEstBase* %8, i32 0, i32 2, !dbg !3393
  %9 = load double, double* %rangemax, align 8, !dbg !3393
  %10 = call double @llvm.ceil.f64(double %9), !dbg !3394
  %sub4 = fsub double %10, 5.000000e-01, !dbg !3395
  %11 = bitcast %class.cLongHistogram* %this1 to %class.cDensityEstBase*, !dbg !3396
  %rangemax5 = getelementptr inbounds %class.cDensityEstBase, %class.cDensityEstBase* %11, i32 0, i32 2, !dbg !3396
  store double %sub4, double* %rangemax5, align 8, !dbg !3397
  %12 = bitcast %class.cLongHistogram* %this1 to %class.cDensityEstBase*, !dbg !3398
  %range_mode = getelementptr inbounds %class.cDensityEstBase, %class.cDensityEstBase* %12, i32 0, i32 7, !dbg !3398
  %13 = load i32, i32* %range_mode, align 8, !dbg !3398
  %cmp = icmp eq i32 %13, 1, !dbg !3400
  br i1 %cmp, label %if.then, label %if.else70, !dbg !3401

if.then:                                          ; preds = %entry
  call void @llvm.dbg.declare(metadata i64* %range, metadata !3402, metadata !DIExpression()), !dbg !3404
  %14 = bitcast %class.cLongHistogram* %this1 to %class.cDensityEstBase*, !dbg !3405
  %rangemax6 = getelementptr inbounds %class.cDensityEstBase, %class.cDensityEstBase* %14, i32 0, i32 2, !dbg !3405
  %15 = load double, double* %rangemax6, align 8, !dbg !3405
  %16 = bitcast %class.cLongHistogram* %this1 to %class.cDensityEstBase*, !dbg !3406
  %rangemin7 = getelementptr inbounds %class.cDensityEstBase, %class.cDensityEstBase* %16, i32 0, i32 1, !dbg !3406
  %17 = load double, double* %rangemin7, align 8, !dbg !3406
  %sub8 = fsub double %15, %17, !dbg !3407
  %conv9 = fptosi double %sub8 to i64, !dbg !3408
  store i64 %conv9, i64* %range, align 8, !dbg !3404
  %18 = bitcast %class.cLongHistogram* %this1 to %class.cHistogramBase*, !dbg !3409
  %num_cells = getelementptr inbounds %class.cHistogramBase, %class.cHistogramBase* %18, i32 0, i32 1, !dbg !3409
  %19 = load i32, i32* %num_cells, align 8, !dbg !3409
  %cmp10 = icmp sgt i32 %19, 0, !dbg !3411
  br i1 %cmp10, label %land.lhs.true, label %if.else, !dbg !3412

land.lhs.true:                                    ; preds = %if.then
  %20 = load i64, i64* %cellsize, align 8, !dbg !3413
  %cmp11 = icmp sgt i64 %20, 0, !dbg !3414
  br i1 %cmp11, label %if.then12, label %if.else, !dbg !3415

if.then12:                                        ; preds = %land.lhs.true
  %21 = bitcast %class.cLongHistogram* %this1 to %class.cHistogramBase*, !dbg !3416
  %num_cells13 = getelementptr inbounds %class.cHistogramBase, %class.cHistogramBase* %21, i32 0, i32 1, !dbg !3416
  %22 = load i32, i32* %num_cells13, align 8, !dbg !3416
  %conv14 = sext i32 %22 to i64, !dbg !3416
  %23 = load i64, i64* %cellsize, align 8, !dbg !3419
  %mul = mul nsw i64 %conv14, %23, !dbg !3420
  %24 = load i64, i64* %range, align 8, !dbg !3421
  %cmp15 = icmp ne i64 %mul, %24, !dbg !3422
  br i1 %cmp15, label %if.then16, label %if.end, !dbg !3423

if.then16:                                        ; preds = %if.then12
  %exception = call i8* @__cxa_allocate_exception(i64 128) #3, !dbg !3424
  %25 = bitcast i8* %exception to %class.cRuntimeError*, !dbg !3424
  %26 = bitcast %class.cLongHistogram* %this1 to %class.cObject*, !dbg !3425
  invoke void (%class.cRuntimeError*, %class.cObject*, i8*, ...) @_ZN13cRuntimeErrorC1EPK7cObjectPKcz(%class.cRuntimeError* %25, %class.cObject* %26, i8* getelementptr inbounds ([83 x i8], [83 x i8]* @.str.16, i64 0, i64 0))
          to label %invoke.cont unwind label %lpad, !dbg !3426

invoke.cont:                                      ; preds = %if.then16
  call void @__cxa_throw(i8* %exception, i8* bitcast ({ i8*, i8*, i8* }* @_ZTI13cRuntimeError to i8*), i8* bitcast (void (%class.cRuntimeError*)* @_ZN13cRuntimeErrorD2Ev to i8*)) #16, !dbg !3424
  unreachable, !dbg !3424

lpad:                                             ; preds = %if.then16
  %27 = landingpad { i8*, i32 }
          cleanup, !dbg !3427
  %28 = extractvalue { i8*, i32 } %27, 0, !dbg !3427
  store i8* %28, i8** %exn.slot, align 8, !dbg !3427
  %29 = extractvalue { i8*, i32 } %27, 1, !dbg !3427
  store i32 %29, i32* %ehselector.slot, align 4, !dbg !3427
  call void @__cxa_free_exception(i8* %exception) #3, !dbg !3424
  br label %eh.resume, !dbg !3424

if.end:                                           ; preds = %if.then12
  br label %if.end69, !dbg !3428

if.else:                                          ; preds = %land.lhs.true, %if.then
  %30 = load i64, i64* %cellsize, align 8, !dbg !3429
  %cmp17 = icmp sgt i64 %30, 0, !dbg !3431
  br i1 %cmp17, label %if.then18, label %if.else27, !dbg !3432

if.then18:                                        ; preds = %if.else
  %31 = load i64, i64* %range, align 8, !dbg !3433
  %32 = load i64, i64* %cellsize, align 8, !dbg !3436
  %rem = srem i64 %31, %32, !dbg !3437
  %cmp19 = icmp ne i64 %rem, 0, !dbg !3438
  br i1 %cmp19, label %if.then20, label %if.end24, !dbg !3439

if.then20:                                        ; preds = %if.then18
  %exception21 = call i8* @__cxa_allocate_exception(i64 128) #3, !dbg !3440
  %33 = bitcast i8* %exception21 to %class.cRuntimeError*, !dbg !3440
  %34 = bitcast %class.cLongHistogram* %this1 to %class.cObject*, !dbg !3441
  invoke void (%class.cRuntimeError*, %class.cObject*, i8*, ...) @_ZN13cRuntimeErrorC1EPK7cObjectPKcz(%class.cRuntimeError* %33, %class.cObject* %34, i8* getelementptr inbounds ([90 x i8], [90 x i8]* @.str.17, i64 0, i64 0))
          to label %invoke.cont23 unwind label %lpad22, !dbg !3442

invoke.cont23:                                    ; preds = %if.then20
  call void @__cxa_throw(i8* %exception21, i8* bitcast ({ i8*, i8*, i8* }* @_ZTI13cRuntimeError to i8*), i8* bitcast (void (%class.cRuntimeError*)* @_ZN13cRuntimeErrorD2Ev to i8*)) #16, !dbg !3440
  unreachable, !dbg !3440

lpad22:                                           ; preds = %if.then20
  %35 = landingpad { i8*, i32 }
          cleanup, !dbg !3443
  %36 = extractvalue { i8*, i32 } %35, 0, !dbg !3443
  store i8* %36, i8** %exn.slot, align 8, !dbg !3443
  %37 = extractvalue { i8*, i32 } %35, 1, !dbg !3443
  store i32 %37, i32* %ehselector.slot, align 4, !dbg !3443
  call void @__cxa_free_exception(i8* %exception21) #3, !dbg !3440
  br label %eh.resume, !dbg !3440

if.end24:                                         ; preds = %if.then18
  %38 = load i64, i64* %range, align 8, !dbg !3444
  %39 = load i64, i64* %cellsize, align 8, !dbg !3445
  %div = sdiv i64 %38, %39, !dbg !3446
  %conv25 = trunc i64 %div to i32, !dbg !3444
  %40 = bitcast %class.cLongHistogram* %this1 to %class.cHistogramBase*, !dbg !3447
  %num_cells26 = getelementptr inbounds %class.cHistogramBase, %class.cHistogramBase* %40, i32 0, i32 1, !dbg !3447
  store i32 %conv25, i32* %num_cells26, align 8, !dbg !3448
  br label %if.end68, !dbg !3449

if.else27:                                        ; preds = %if.else
  %41 = bitcast %class.cLongHistogram* %this1 to %class.cHistogramBase*, !dbg !3450
  %num_cells28 = getelementptr inbounds %class.cHistogramBase, %class.cHistogramBase* %41, i32 0, i32 1, !dbg !3450
  %42 = load i32, i32* %num_cells28, align 8, !dbg !3450
  %cmp29 = icmp sgt i32 %42, 0, !dbg !3452
  br i1 %cmp29, label %if.then30, label %if.else43, !dbg !3453

if.then30:                                        ; preds = %if.else27
  %43 = load i64, i64* %range, align 8, !dbg !3454
  %44 = bitcast %class.cLongHistogram* %this1 to %class.cHistogramBase*, !dbg !3457
  %num_cells31 = getelementptr inbounds %class.cHistogramBase, %class.cHistogramBase* %44, i32 0, i32 1, !dbg !3457
  %45 = load i32, i32* %num_cells31, align 8, !dbg !3457
  %conv32 = sext i32 %45 to i64, !dbg !3457
  %rem33 = srem i64 %43, %conv32, !dbg !3458
  %cmp34 = icmp ne i64 %rem33, 0, !dbg !3459
  br i1 %cmp34, label %if.then35, label %if.end39, !dbg !3460

if.then35:                                        ; preds = %if.then30
  %exception36 = call i8* @__cxa_allocate_exception(i64 128) #3, !dbg !3461
  %46 = bitcast i8* %exception36 to %class.cRuntimeError*, !dbg !3461
  %47 = bitcast %class.cLongHistogram* %this1 to %class.cObject*, !dbg !3462
  invoke void (%class.cRuntimeError*, %class.cObject*, i8*, ...) @_ZN13cRuntimeErrorC1EPK7cObjectPKcz(%class.cRuntimeError* %46, %class.cObject* %47, i8* getelementptr inbounds ([90 x i8], [90 x i8]* @.str.18, i64 0, i64 0))
          to label %invoke.cont38 unwind label %lpad37, !dbg !3463

invoke.cont38:                                    ; preds = %if.then35
  call void @__cxa_throw(i8* %exception36, i8* bitcast ({ i8*, i8*, i8* }* @_ZTI13cRuntimeError to i8*), i8* bitcast (void (%class.cRuntimeError*)* @_ZN13cRuntimeErrorD2Ev to i8*)) #16, !dbg !3461
  unreachable, !dbg !3461

lpad37:                                           ; preds = %if.then35
  %48 = landingpad { i8*, i32 }
          cleanup, !dbg !3464
  %49 = extractvalue { i8*, i32 } %48, 0, !dbg !3464
  store i8* %49, i8** %exn.slot, align 8, !dbg !3464
  %50 = extractvalue { i8*, i32 } %48, 1, !dbg !3464
  store i32 %50, i32* %ehselector.slot, align 4, !dbg !3464
  call void @__cxa_free_exception(i8* %exception36) #3, !dbg !3461
  br label %eh.resume, !dbg !3461

if.end39:                                         ; preds = %if.then30
  %51 = load i64, i64* %range, align 8, !dbg !3465
  %52 = bitcast %class.cLongHistogram* %this1 to %class.cHistogramBase*, !dbg !3466
  %num_cells40 = getelementptr inbounds %class.cHistogramBase, %class.cHistogramBase* %52, i32 0, i32 1, !dbg !3466
  %53 = load i32, i32* %num_cells40, align 8, !dbg !3466
  %conv41 = sext i32 %53 to i64, !dbg !3466
  %div42 = sdiv i64 %51, %conv41, !dbg !3467
  store i64 %div42, i64* %cellsize, align 8, !dbg !3468
  br label %if.end67, !dbg !3469

if.else43:                                        ; preds = %if.else27
  call void @llvm.dbg.declare(metadata i32* %mincellsize, metadata !3470, metadata !DIExpression()), !dbg !3472
  %54 = load i64, i64* %range, align 8, !dbg !3473
  %conv44 = sitofp i64 %54 to double, !dbg !3473
  %div45 = fdiv double %conv44, 1.000000e+03, !dbg !3474
  %55 = call double @llvm.ceil.f64(double %div45), !dbg !3475
  %conv46 = fptosi double %55 to i32, !dbg !3475
  store i32 %conv46, i32* %mincellsize, align 4, !dbg !3472
  call void @llvm.dbg.declare(metadata i32* %maxcellsize, metadata !3476, metadata !DIExpression()), !dbg !3477
  %56 = load i64, i64* %range, align 8, !dbg !3478
  %conv47 = sitofp i64 %56 to double, !dbg !3478
  %div48 = fdiv double %conv47, 1.000000e+01, !dbg !3479
  %57 = call double @llvm.ceil.f64(double %div48), !dbg !3480
  %conv49 = fptosi double %57 to i32, !dbg !3480
  store i32 %conv49, i32* %maxcellsize, align 4, !dbg !3477
  %58 = load i32, i32* %mincellsize, align 4, !dbg !3481
  %conv50 = sext i32 %58 to i64, !dbg !3481
  store i64 %conv50, i64* %cellsize, align 8, !dbg !3483
  br label %for.cond, !dbg !3484

for.cond:                                         ; preds = %for.inc, %if.else43
  %59 = load i64, i64* %cellsize, align 8, !dbg !3485
  %60 = load i32, i32* %maxcellsize, align 4, !dbg !3487
  %conv51 = sext i32 %60 to i64, !dbg !3487
  %cmp52 = icmp sle i64 %59, %conv51, !dbg !3488
  br i1 %cmp52, label %for.body, label %for.end, !dbg !3489

for.body:                                         ; preds = %for.cond
  %61 = load i64, i64* %range, align 8, !dbg !3490
  %62 = load i64, i64* %cellsize, align 8, !dbg !3492
  %rem53 = srem i64 %61, %62, !dbg !3493
  %cmp54 = icmp eq i64 %rem53, 0, !dbg !3494
  br i1 %cmp54, label %if.then55, label %if.end56, !dbg !3495

if.then55:                                        ; preds = %for.body
  br label %for.end, !dbg !3496

if.end56:                                         ; preds = %for.body
  br label %for.inc, !dbg !3497

for.inc:                                          ; preds = %if.end56
  %63 = load i64, i64* %cellsize, align 8, !dbg !3498
  %inc = add nsw i64 %63, 1, !dbg !3498
  store i64 %inc, i64* %cellsize, align 8, !dbg !3498
  br label %for.cond, !dbg !3499, !llvm.loop !3500

for.end:                                          ; preds = %if.then55, %for.cond
  %64 = load i64, i64* %cellsize, align 8, !dbg !3502
  %65 = load i32, i32* %maxcellsize, align 4, !dbg !3504
  %conv57 = sext i32 %65 to i64, !dbg !3504
  %cmp58 = icmp sgt i64 %64, %conv57, !dbg !3505
  br i1 %cmp58, label %if.then59, label %if.end63, !dbg !3506

if.then59:                                        ; preds = %for.end
  %exception60 = call i8* @__cxa_allocate_exception(i64 128) #3, !dbg !3507
  %66 = bitcast i8* %exception60 to %class.cRuntimeError*, !dbg !3507
  %67 = bitcast %class.cLongHistogram* %this1 to %class.cObject*, !dbg !3508
  invoke void (%class.cRuntimeError*, %class.cObject*, i8*, ...) @_ZN13cRuntimeErrorC1EPK7cObjectPKcz(%class.cRuntimeError* %66, %class.cObject* %67, i8* getelementptr inbounds ([125 x i8], [125 x i8]* @.str.19, i64 0, i64 0))
          to label %invoke.cont62 unwind label %lpad61, !dbg !3509

invoke.cont62:                                    ; preds = %if.then59
  call void @__cxa_throw(i8* %exception60, i8* bitcast ({ i8*, i8*, i8* }* @_ZTI13cRuntimeError to i8*), i8* bitcast (void (%class.cRuntimeError*)* @_ZN13cRuntimeErrorD2Ev to i8*)) #16, !dbg !3507
  unreachable, !dbg !3507

lpad61:                                           ; preds = %if.then59
  %68 = landingpad { i8*, i32 }
          cleanup, !dbg !3510
  %69 = extractvalue { i8*, i32 } %68, 0, !dbg !3510
  store i8* %69, i8** %exn.slot, align 8, !dbg !3510
  %70 = extractvalue { i8*, i32 } %68, 1, !dbg !3510
  store i32 %70, i32* %ehselector.slot, align 4, !dbg !3510
  call void @__cxa_free_exception(i8* %exception60) #3, !dbg !3507
  br label %eh.resume, !dbg !3507

if.end63:                                         ; preds = %for.end
  %71 = load i64, i64* %range, align 8, !dbg !3511
  %72 = load i64, i64* %cellsize, align 8, !dbg !3512
  %div64 = sdiv i64 %71, %72, !dbg !3513
  %conv65 = trunc i64 %div64 to i32, !dbg !3511
  %73 = bitcast %class.cLongHistogram* %this1 to %class.cHistogramBase*, !dbg !3514
  %num_cells66 = getelementptr inbounds %class.cHistogramBase, %class.cHistogramBase* %73, i32 0, i32 1, !dbg !3514
  store i32 %conv65, i32* %num_cells66, align 8, !dbg !3515
  br label %if.end67

if.end67:                                         ; preds = %if.end63, %if.end39
  br label %if.end68

if.end68:                                         ; preds = %if.end67, %if.end24
  br label %if.end69

if.end69:                                         ; preds = %if.end68, %if.end
  br label %if.end133, !dbg !3516

if.else70:                                        ; preds = %entry
  %74 = bitcast %class.cLongHistogram* %this1 to %class.cHistogramBase*, !dbg !3517
  %num_cells71 = getelementptr inbounds %class.cHistogramBase, %class.cHistogramBase* %74, i32 0, i32 1, !dbg !3517
  %75 = load i32, i32* %num_cells71, align 8, !dbg !3517
  %cmp72 = icmp sgt i32 %75, 0, !dbg !3520
  br i1 %cmp72, label %land.lhs.true73, label %if.else76, !dbg !3521

land.lhs.true73:                                  ; preds = %if.else70
  %76 = load i64, i64* %cellsize, align 8, !dbg !3522
  %cmp74 = icmp sgt i64 %76, 0, !dbg !3523
  br i1 %cmp74, label %if.then75, label %if.else76, !dbg !3524

if.then75:                                        ; preds = %land.lhs.true73
  br label %if.end110, !dbg !3525

if.else76:                                        ; preds = %land.lhs.true73, %if.else70
  %77 = bitcast %class.cLongHistogram* %this1 to %class.cHistogramBase*, !dbg !3527
  %num_cells77 = getelementptr inbounds %class.cHistogramBase, %class.cHistogramBase* %77, i32 0, i32 1, !dbg !3527
  %78 = load i32, i32* %num_cells77, align 8, !dbg !3527
  %cmp78 = icmp sgt i32 %78, 0, !dbg !3529
  br i1 %cmp78, label %if.then79, label %if.else87, !dbg !3530

if.then79:                                        ; preds = %if.else76
  %79 = bitcast %class.cLongHistogram* %this1 to %class.cDensityEstBase*, !dbg !3531
  %rangemax80 = getelementptr inbounds %class.cDensityEstBase, %class.cDensityEstBase* %79, i32 0, i32 2, !dbg !3531
  %80 = load double, double* %rangemax80, align 8, !dbg !3531
  %81 = bitcast %class.cLongHistogram* %this1 to %class.cDensityEstBase*, !dbg !3533
  %rangemin81 = getelementptr inbounds %class.cDensityEstBase, %class.cDensityEstBase* %81, i32 0, i32 1, !dbg !3533
  %82 = load double, double* %rangemin81, align 8, !dbg !3533
  %sub82 = fsub double %80, %82, !dbg !3534
  %83 = bitcast %class.cLongHistogram* %this1 to %class.cHistogramBase*, !dbg !3535
  %num_cells83 = getelementptr inbounds %class.cHistogramBase, %class.cHistogramBase* %83, i32 0, i32 1, !dbg !3535
  %84 = load i32, i32* %num_cells83, align 8, !dbg !3535
  %conv84 = sitofp i32 %84 to double, !dbg !3535
  %div85 = fdiv double %sub82, %conv84, !dbg !3536
  %85 = call double @llvm.ceil.f64(double %div85), !dbg !3537
  %conv86 = fptosi double %85 to i64, !dbg !3537
  store i64 %conv86, i64* %cellsize, align 8, !dbg !3538
  br label %if.end109, !dbg !3539

if.else87:                                        ; preds = %if.else76
  %86 = load i64, i64* %cellsize, align 8, !dbg !3540
  %cmp88 = icmp sgt i64 %86, 0, !dbg !3542
  br i1 %cmp88, label %if.then89, label %if.else97, !dbg !3543

if.then89:                                        ; preds = %if.else87
  %87 = bitcast %class.cLongHistogram* %this1 to %class.cDensityEstBase*, !dbg !3544
  %rangemax90 = getelementptr inbounds %class.cDensityEstBase, %class.cDensityEstBase* %87, i32 0, i32 2, !dbg !3544
  %88 = load double, double* %rangemax90, align 8, !dbg !3544
  %89 = bitcast %class.cLongHistogram* %this1 to %class.cDensityEstBase*, !dbg !3546
  %rangemin91 = getelementptr inbounds %class.cDensityEstBase, %class.cDensityEstBase* %89, i32 0, i32 1, !dbg !3546
  %90 = load double, double* %rangemin91, align 8, !dbg !3546
  %sub92 = fsub double %88, %90, !dbg !3547
  %91 = load i64, i64* %cellsize, align 8, !dbg !3548
  %conv93 = sitofp i64 %91 to double, !dbg !3548
  %div94 = fdiv double %sub92, %conv93, !dbg !3549
  %92 = call double @llvm.ceil.f64(double %div94), !dbg !3550
  %conv95 = fptosi double %92 to i32, !dbg !3550
  %93 = bitcast %class.cLongHistogram* %this1 to %class.cHistogramBase*, !dbg !3551
  %num_cells96 = getelementptr inbounds %class.cHistogramBase, %class.cHistogramBase* %93, i32 0, i32 1, !dbg !3551
  store i32 %conv95, i32* %num_cells96, align 8, !dbg !3552
  br label %if.end108, !dbg !3553

if.else97:                                        ; preds = %if.else87
  call void @llvm.dbg.declare(metadata double* %range98, metadata !3554, metadata !DIExpression()), !dbg !3556
  %94 = bitcast %class.cLongHistogram* %this1 to %class.cDensityEstBase*, !dbg !3557
  %rangemax99 = getelementptr inbounds %class.cDensityEstBase, %class.cDensityEstBase* %94, i32 0, i32 2, !dbg !3557
  %95 = load double, double* %rangemax99, align 8, !dbg !3557
  %96 = bitcast %class.cLongHistogram* %this1 to %class.cDensityEstBase*, !dbg !3558
  %rangemin100 = getelementptr inbounds %class.cDensityEstBase, %class.cDensityEstBase* %96, i32 0, i32 1, !dbg !3558
  %97 = load double, double* %rangemin100, align 8, !dbg !3558
  %sub101 = fsub double %95, %97, !dbg !3559
  store double %sub101, double* %range98, align 8, !dbg !3556
  %98 = load double, double* %range98, align 8, !dbg !3560
  %div102 = fdiv double %98, 1.000000e+03, !dbg !3561
  %99 = call double @llvm.ceil.f64(double %div102), !dbg !3562
  %conv103 = fptosi double %99 to i64, !dbg !3562
  store i64 %conv103, i64* %cellsize, align 8, !dbg !3563
  %100 = load double, double* %range98, align 8, !dbg !3564
  %101 = load i64, i64* %cellsize, align 8, !dbg !3565
  %conv104 = sitofp i64 %101 to double, !dbg !3565
  %div105 = fdiv double %100, %conv104, !dbg !3566
  %102 = call double @llvm.ceil.f64(double %div105), !dbg !3567
  %conv106 = fptosi double %102 to i32, !dbg !3567
  %103 = bitcast %class.cLongHistogram* %this1 to %class.cHistogramBase*, !dbg !3568
  %num_cells107 = getelementptr inbounds %class.cHistogramBase, %class.cHistogramBase* %103, i32 0, i32 1, !dbg !3568
  store i32 %conv106, i32* %num_cells107, align 8, !dbg !3569
  br label %if.end108

if.end108:                                        ; preds = %if.else97, %if.then89
  br label %if.end109

if.end109:                                        ; preds = %if.end108, %if.then79
  br label %if.end110

if.end110:                                        ; preds = %if.end109, %if.then75
  call void @llvm.dbg.declare(metadata double* %newrange, metadata !3570, metadata !DIExpression()), !dbg !3571
  %104 = load i64, i64* %cellsize, align 8, !dbg !3572
  %105 = bitcast %class.cLongHistogram* %this1 to %class.cHistogramBase*, !dbg !3573
  %num_cells111 = getelementptr inbounds %class.cHistogramBase, %class.cHistogramBase* %105, i32 0, i32 1, !dbg !3573
  %106 = load i32, i32* %num_cells111, align 8, !dbg !3573
  %conv112 = sext i32 %106 to i64, !dbg !3573
  %mul113 = mul nsw i64 %104, %conv112, !dbg !3574
  %conv114 = sitofp i64 %mul113 to double, !dbg !3572
  store double %conv114, double* %newrange, align 8, !dbg !3571
  call void @llvm.dbg.declare(metadata double* %rangediff, metadata !3575, metadata !DIExpression()), !dbg !3576
  %107 = load double, double* %newrange, align 8, !dbg !3577
  %108 = bitcast %class.cLongHistogram* %this1 to %class.cDensityEstBase*, !dbg !3578
  %rangemax115 = getelementptr inbounds %class.cDensityEstBase, %class.cDensityEstBase* %108, i32 0, i32 2, !dbg !3578
  %109 = load double, double* %rangemax115, align 8, !dbg !3578
  %110 = bitcast %class.cLongHistogram* %this1 to %class.cDensityEstBase*, !dbg !3579
  %rangemin116 = getelementptr inbounds %class.cDensityEstBase, %class.cDensityEstBase* %110, i32 0, i32 1, !dbg !3579
  %111 = load double, double* %rangemin116, align 8, !dbg !3579
  %sub117 = fsub double %109, %111, !dbg !3580
  %sub118 = fsub double %107, %sub117, !dbg !3581
  store double %sub118, double* %rangediff, align 8, !dbg !3576
  %112 = bitcast %class.cLongHistogram* %this1 to %class.cDensityEstBase*, !dbg !3582
  %range_mode119 = getelementptr inbounds %class.cDensityEstBase, %class.cDensityEstBase* %112, i32 0, i32 7, !dbg !3582
  %113 = load i32, i32* %range_mode119, align 8, !dbg !3582
  switch i32 %113, label %sw.epilog [
    i32 2, label %sw.bb
    i32 3, label %sw.bb125
    i32 4, label %sw.bb129
  ], !dbg !3583

sw.bb:                                            ; preds = %if.end110
  %114 = load double, double* %rangediff, align 8, !dbg !3584
  %div120 = fdiv double %114, 2.000000e+00, !dbg !3586
  %115 = call double @llvm.floor.f64(double %div120), !dbg !3587
  %116 = bitcast %class.cLongHistogram* %this1 to %class.cDensityEstBase*, !dbg !3588
  %rangemin121 = getelementptr inbounds %class.cDensityEstBase, %class.cDensityEstBase* %116, i32 0, i32 1, !dbg !3588
  %117 = load double, double* %rangemin121, align 8, !dbg !3589
  %sub122 = fsub double %117, %115, !dbg !3589
  store double %sub122, double* %rangemin121, align 8, !dbg !3589
  %118 = bitcast %class.cLongHistogram* %this1 to %class.cDensityEstBase*, !dbg !3590
  %rangemin123 = getelementptr inbounds %class.cDensityEstBase, %class.cDensityEstBase* %118, i32 0, i32 1, !dbg !3590
  %119 = load double, double* %rangemin123, align 8, !dbg !3590
  %120 = load double, double* %newrange, align 8, !dbg !3591
  %add = fadd double %119, %120, !dbg !3592
  %121 = bitcast %class.cLongHistogram* %this1 to %class.cDensityEstBase*, !dbg !3593
  %rangemax124 = getelementptr inbounds %class.cDensityEstBase, %class.cDensityEstBase* %121, i32 0, i32 2, !dbg !3593
  store double %add, double* %rangemax124, align 8, !dbg !3594
  br label %sw.epilog, !dbg !3595

sw.bb125:                                         ; preds = %if.end110
  %122 = bitcast %class.cLongHistogram* %this1 to %class.cDensityEstBase*, !dbg !3596
  %rangemax126 = getelementptr inbounds %class.cDensityEstBase, %class.cDensityEstBase* %122, i32 0, i32 2, !dbg !3596
  %123 = load double, double* %rangemax126, align 8, !dbg !3596
  %124 = load double, double* %newrange, align 8, !dbg !3597
  %sub127 = fsub double %123, %124, !dbg !3598
  %125 = bitcast %class.cLongHistogram* %this1 to %class.cDensityEstBase*, !dbg !3599
  %rangemin128 = getelementptr inbounds %class.cDensityEstBase, %class.cDensityEstBase* %125, i32 0, i32 1, !dbg !3599
  store double %sub127, double* %rangemin128, align 8, !dbg !3600
  br label %sw.epilog, !dbg !3601

sw.bb129:                                         ; preds = %if.end110
  %126 = bitcast %class.cLongHistogram* %this1 to %class.cDensityEstBase*, !dbg !3602
  %rangemin130 = getelementptr inbounds %class.cDensityEstBase, %class.cDensityEstBase* %126, i32 0, i32 1, !dbg !3602
  %127 = load double, double* %rangemin130, align 8, !dbg !3602
  %128 = load double, double* %newrange, align 8, !dbg !3603
  %add131 = fadd double %127, %128, !dbg !3604
  %129 = bitcast %class.cLongHistogram* %this1 to %class.cDensityEstBase*, !dbg !3605
  %rangemax132 = getelementptr inbounds %class.cDensityEstBase, %class.cDensityEstBase* %129, i32 0, i32 2, !dbg !3605
  store double %add131, double* %rangemax132, align 8, !dbg !3606
  br label %sw.epilog, !dbg !3607

sw.epilog:                                        ; preds = %if.end110, %sw.bb129, %sw.bb125, %sw.bb
  br label %if.end133

if.end133:                                        ; preds = %sw.epilog, %if.end69
  %130 = load i64, i64* %cellsize, align 8, !dbg !3608
  %conv134 = sitofp i64 %130 to double, !dbg !3608
  %131 = bitcast %class.cLongHistogram* %this1 to %class.cEqdHistogramBase*, !dbg !3609
  %cellsize135 = getelementptr inbounds %class.cEqdHistogramBase, %class.cEqdHistogramBase* %131, i32 0, i32 1, !dbg !3609
  store double %conv134, double* %cellsize135, align 8, !dbg !3610
  ret void, !dbg !3611

eh.resume:                                        ; preds = %lpad61, %lpad37, %lpad22, %lpad
  %exn = load i8*, i8** %exn.slot, align 8, !dbg !3424
  %sel = load i32, i32* %ehselector.slot, align 4, !dbg !3424
  %lpad.val = insertvalue { i8*, i32 } undef, i8* %exn, 0, !dbg !3424
  %lpad.val136 = insertvalue { i8*, i32 } %lpad.val, i32 %sel, 1, !dbg !3424
  resume { i8*, i32 } %lpad.val136, !dbg !3424
}

; Function Attrs: nounwind readnone speculatable willreturn
declare double @llvm.ceil.f64(double) #4

; Function Attrs: noinline uwtable
define dso_local void @_ZN14cLongHistogram21getAttributesToRecordER14opp_string_map(%class.cLongHistogram* %this, %class.opp_string_map* dereferenceable(48) %attributes) unnamed_addr #0 align 2 personality i8* bitcast (i32 (...)* @__gxx_personality_v0 to i8*) !dbg !3612 {
entry:
  %this.addr = alloca %class.cLongHistogram*, align 8
  %attributes.addr = alloca %class.opp_string_map*, align 8
  %ref.tmp = alloca %class.opp_string, align 8
  %exn.slot = alloca i8*
  %ehselector.slot = alloca i32
  store %class.cLongHistogram* %this, %class.cLongHistogram** %this.addr, align 8
  call void @llvm.dbg.declare(metadata %class.cLongHistogram** %this.addr, metadata !3613, metadata !DIExpression()), !dbg !3614
  store %class.opp_string_map* %attributes, %class.opp_string_map** %attributes.addr, align 8
  call void @llvm.dbg.declare(metadata %class.opp_string_map** %attributes.addr, metadata !3615, metadata !DIExpression()), !dbg !3616
  %this1 = load %class.cLongHistogram*, %class.cLongHistogram** %this.addr, align 8
  %0 = load %class.opp_string_map*, %class.opp_string_map** %attributes.addr, align 8, !dbg !3617
  %1 = bitcast %class.opp_string_map* %0 to %"class.std::map"*, !dbg !3617
  call void @_ZN10opp_stringC2EPKc(%class.opp_string* %ref.tmp, i8* getelementptr inbounds ([11 x i8], [11 x i8]* @.str.21, i64 0, i64 0)), !dbg !3618
  %call = invoke dereferenceable(8) %class.opp_string* @_ZNSt3mapI10opp_stringS0_St4lessIS0_ESaISt4pairIKS0_S0_EEEixEOS0_(%"class.std::map"* %1, %class.opp_string* dereferenceable(8) %ref.tmp)
          to label %invoke.cont unwind label %lpad, !dbg !3617

invoke.cont:                                      ; preds = %entry
  %call3 = invoke i8* @_ZN10opp_stringaSEPKc(%class.opp_string* %call, i8* getelementptr inbounds ([2 x i8], [2 x i8]* @.str.20, i64 0, i64 0))
          to label %invoke.cont2 unwind label %lpad, !dbg !3619

invoke.cont2:                                     ; preds = %invoke.cont
  call void @_ZN10opp_stringD2Ev(%class.opp_string* %ref.tmp) #3, !dbg !3617
  ret void, !dbg !3620

lpad:                                             ; preds = %invoke.cont, %entry
  %2 = landingpad { i8*, i32 }
          cleanup, !dbg !3620
  %3 = extractvalue { i8*, i32 } %2, 0, !dbg !3620
  store i8* %3, i8** %exn.slot, align 8, !dbg !3620
  %4 = extractvalue { i8*, i32 } %2, 1, !dbg !3620
  store i32 %4, i32* %ehselector.slot, align 4, !dbg !3620
  call void @_ZN10opp_stringD2Ev(%class.opp_string* %ref.tmp) #3, !dbg !3617
  br label %eh.resume, !dbg !3617

eh.resume:                                        ; preds = %lpad
  %exn = load i8*, i8** %exn.slot, align 8, !dbg !3617
  %sel = load i32, i32* %ehselector.slot, align 4, !dbg !3617
  %lpad.val = insertvalue { i8*, i32 } undef, i8* %exn, 0, !dbg !3617
  %lpad.val4 = insertvalue { i8*, i32 } %lpad.val, i32 %sel, 1, !dbg !3617
  resume { i8*, i32 } %lpad.val4, !dbg !3617
}

; Function Attrs: noinline uwtable
define linkonce_odr dso_local dereferenceable(8) %class.opp_string* @_ZNSt3mapI10opp_stringS0_St4lessIS0_ESaISt4pairIKS0_S0_EEEixEOS0_(%"class.std::map"* %this, %class.opp_string* dereferenceable(8) %__k) #0 comdat align 2 !dbg !3621 {
entry:
  %this.addr = alloca %"class.std::map"*, align 8
  %__k.addr = alloca %class.opp_string*, align 8
  %__i = alloca %"struct.std::_Rb_tree_iterator", align 8
  %ref.tmp = alloca %"struct.std::_Rb_tree_iterator", align 8
  %ref.tmp5 = alloca %"struct.std::less", align 1
  %undef.agg.tmp = alloca %"struct.std::less", align 1
  %ref.tmp8 = alloca %"struct.std::_Rb_tree_iterator", align 8
  %agg.tmp = alloca %"struct.std::_Rb_tree_const_iterator", align 8
  %ref.tmp9 = alloca %"class.std::tuple", align 8
  %ref.tmp11 = alloca %"class.std::tuple.16", align 1
  store %"class.std::map"* %this, %"class.std::map"** %this.addr, align 8
  call void @llvm.dbg.declare(metadata %"class.std::map"** %this.addr, metadata !3622, metadata !DIExpression()), !dbg !3624
  store %class.opp_string* %__k, %class.opp_string** %__k.addr, align 8
  call void @llvm.dbg.declare(metadata %class.opp_string** %__k.addr, metadata !3625, metadata !DIExpression()), !dbg !3626
  %this1 = load %"class.std::map"*, %"class.std::map"** %this.addr, align 8
  call void @llvm.dbg.declare(metadata %"struct.std::_Rb_tree_iterator"* %__i, metadata !3627, metadata !DIExpression()), !dbg !3628
  %0 = load %class.opp_string*, %class.opp_string** %__k.addr, align 8, !dbg !3629
  %call = call %"struct.std::_Rb_tree_node_base"* @_ZNSt3mapI10opp_stringS0_St4lessIS0_ESaISt4pairIKS0_S0_EEE11lower_boundERS4_(%"class.std::map"* %this1, %class.opp_string* dereferenceable(8) %0), !dbg !3630
  %coerce.dive = getelementptr inbounds %"struct.std::_Rb_tree_iterator", %"struct.std::_Rb_tree_iterator"* %__i, i32 0, i32 0, !dbg !3630
  store %"struct.std::_Rb_tree_node_base"* %call, %"struct.std::_Rb_tree_node_base"** %coerce.dive, align 8, !dbg !3630
  %call2 = call %"struct.std::_Rb_tree_node_base"* @_ZNSt3mapI10opp_stringS0_St4lessIS0_ESaISt4pairIKS0_S0_EEE3endEv(%"class.std::map"* %this1) #3, !dbg !3631
  %coerce.dive3 = getelementptr inbounds %"struct.std::_Rb_tree_iterator", %"struct.std::_Rb_tree_iterator"* %ref.tmp, i32 0, i32 0, !dbg !3631
  store %"struct.std::_Rb_tree_node_base"* %call2, %"struct.std::_Rb_tree_node_base"** %coerce.dive3, align 8, !dbg !3631
  %call4 = call zeroext i1 @_ZSteqRKSt17_Rb_tree_iteratorISt4pairIK10opp_stringS1_EES6_(%"struct.std::_Rb_tree_iterator"* dereferenceable(8) %__i, %"struct.std::_Rb_tree_iterator"* dereferenceable(8) %ref.tmp) #3, !dbg !3633
  br i1 %call4, label %lor.end, label %lor.rhs, !dbg !3634

lor.rhs:                                          ; preds = %entry
  call void @_ZNKSt3mapI10opp_stringS0_St4lessIS0_ESaISt4pairIKS0_S0_EEE8key_compEv(%"class.std::map"* %this1), !dbg !3635
  %1 = load %class.opp_string*, %class.opp_string** %__k.addr, align 8, !dbg !3636
  %call6 = call dereferenceable(16) %"struct.std::pair"* @_ZNKSt17_Rb_tree_iteratorISt4pairIK10opp_stringS1_EEdeEv(%"struct.std::_Rb_tree_iterator"* %__i) #3, !dbg !3637
  %first = getelementptr inbounds %"struct.std::pair", %"struct.std::pair"* %call6, i32 0, i32 0, !dbg !3638
  %call7 = call zeroext i1 @_ZNKSt4lessI10opp_stringEclERKS0_S3_(%"struct.std::less"* %ref.tmp5, %class.opp_string* dereferenceable(8) %1, %class.opp_string* dereferenceable(8) %first), !dbg !3635
  br label %lor.end, !dbg !3634

lor.end:                                          ; preds = %lor.rhs, %entry
  %2 = phi i1 [ true, %entry ], [ %call7, %lor.rhs ]
  br i1 %2, label %if.then, label %if.end, !dbg !3639

if.then:                                          ; preds = %lor.end
  %_M_t = getelementptr inbounds %"class.std::map", %"class.std::map"* %this1, i32 0, i32 0, !dbg !3640
  call void @_ZNSt23_Rb_tree_const_iteratorISt4pairIK10opp_stringS1_EEC2ERKSt17_Rb_tree_iteratorIS3_E(%"struct.std::_Rb_tree_const_iterator"* %agg.tmp, %"struct.std::_Rb_tree_iterator"* dereferenceable(8) %__i) #3, !dbg !3641
  %3 = load %class.opp_string*, %class.opp_string** %__k.addr, align 8, !dbg !3642
  %call10 = call dereferenceable(8) %class.opp_string* @_ZSt4moveIR10opp_stringEONSt16remove_referenceIT_E4typeEOS3_(%class.opp_string* dereferenceable(8) %3) #3, !dbg !3643
  call void @_ZSt16forward_as_tupleIJ10opp_stringEESt5tupleIJDpOT_EES4_(%"class.std::tuple"* sret %ref.tmp9, %class.opp_string* dereferenceable(8) %call10) #3, !dbg !3644
  %coerce.dive12 = getelementptr inbounds %"struct.std::_Rb_tree_const_iterator", %"struct.std::_Rb_tree_const_iterator"* %agg.tmp, i32 0, i32 0, !dbg !3645
  %4 = load %"struct.std::_Rb_tree_node_base"*, %"struct.std::_Rb_tree_node_base"** %coerce.dive12, align 8, !dbg !3645
  %call13 = call %"struct.std::_Rb_tree_node_base"* @_ZNSt8_Rb_treeI10opp_stringSt4pairIKS0_S0_ESt10_Select1stIS3_ESt4lessIS0_ESaIS3_EE22_M_emplace_hint_uniqueIJRKSt21piecewise_construct_tSt5tupleIJOS0_EESE_IJEEEEESt17_Rb_tree_iteratorIS3_ESt23_Rb_tree_const_iteratorIS3_EDpOT_(%"class.std::_Rb_tree"* %_M_t, %"struct.std::_Rb_tree_node_base"* %4, %"struct.std::piecewise_construct_t"* dereferenceable(1) @_ZStL19piecewise_construct, %"class.std::tuple"* dereferenceable(8) %ref.tmp9, %"class.std::tuple.16"* dereferenceable(1) %ref.tmp11), !dbg !3645
  %coerce.dive14 = getelementptr inbounds %"struct.std::_Rb_tree_iterator", %"struct.std::_Rb_tree_iterator"* %ref.tmp8, i32 0, i32 0, !dbg !3645
  store %"struct.std::_Rb_tree_node_base"* %call13, %"struct.std::_Rb_tree_node_base"** %coerce.dive14, align 8, !dbg !3645
  %5 = bitcast %"struct.std::_Rb_tree_iterator"* %__i to i8*, !dbg !3646
  %6 = bitcast %"struct.std::_Rb_tree_iterator"* %ref.tmp8 to i8*, !dbg !3646
  call void @llvm.memcpy.p0i8.p0i8.i64(i8* align 8 %5, i8* align 8 %6, i64 8, i1 false), !dbg !3646
  br label %if.end, !dbg !3647

if.end:                                           ; preds = %if.then, %lor.end
  %call15 = call dereferenceable(16) %"struct.std::pair"* @_ZNKSt17_Rb_tree_iteratorISt4pairIK10opp_stringS1_EEdeEv(%"struct.std::_Rb_tree_iterator"* %__i) #3, !dbg !3648
  %second = getelementptr inbounds %"struct.std::pair", %"struct.std::pair"* %call15, i32 0, i32 1, !dbg !3649
  ret %class.opp_string* %second, !dbg !3650
}

; Function Attrs: noinline uwtable
define linkonce_odr dso_local void @_ZN10opp_stringC2EPKc(%class.opp_string* %this, i8* %s) unnamed_addr #0 comdat align 2 !dbg !3651 {
entry:
  %this.addr = alloca %class.opp_string*, align 8
  %s.addr = alloca i8*, align 8
  store %class.opp_string* %this, %class.opp_string** %this.addr, align 8
  call void @llvm.dbg.declare(metadata %class.opp_string** %this.addr, metadata !3652, metadata !DIExpression()), !dbg !3654
  store i8* %s, i8** %s.addr, align 8
  call void @llvm.dbg.declare(metadata i8** %s.addr, metadata !3655, metadata !DIExpression()), !dbg !3656
  %this1 = load %class.opp_string*, %class.opp_string** %this.addr, align 8
  %0 = load i8*, i8** %s.addr, align 8, !dbg !3657
  %call = call i8* @_Z10opp_strdupPKc(i8* %0), !dbg !3659
  %str = getelementptr inbounds %class.opp_string, %class.opp_string* %this1, i32 0, i32 0, !dbg !3660
  store i8* %call, i8** %str, align 8, !dbg !3661
  ret void, !dbg !3662
}

; Function Attrs: noinline uwtable
define linkonce_odr dso_local i8* @_ZN10opp_stringaSEPKc(%class.opp_string* %this, i8* %s) #0 comdat align 2 !dbg !3663 {
entry:
  %this.addr = alloca %class.opp_string*, align 8
  %s.addr = alloca i8*, align 8
  store %class.opp_string* %this, %class.opp_string** %this.addr, align 8
  call void @llvm.dbg.declare(metadata %class.opp_string** %this.addr, metadata !3664, metadata !DIExpression()), !dbg !3665
  store i8* %s, i8** %s.addr, align 8
  call void @llvm.dbg.declare(metadata i8** %s.addr, metadata !3666, metadata !DIExpression()), !dbg !3667
  %this1 = load %class.opp_string*, %class.opp_string** %this.addr, align 8
  %str = getelementptr inbounds %class.opp_string, %class.opp_string* %this1, i32 0, i32 0, !dbg !3668
  %0 = load i8*, i8** %str, align 8, !dbg !3668
  %isnull = icmp eq i8* %0, null, !dbg !3669
  br i1 %isnull, label %delete.end, label %delete.notnull, !dbg !3669

delete.notnull:                                   ; preds = %entry
  call void @_ZdaPv(i8* %0) #14, !dbg !3669
  br label %delete.end, !dbg !3669

delete.end:                                       ; preds = %delete.notnull, %entry
  %1 = load i8*, i8** %s.addr, align 8, !dbg !3670
  %call = call i8* @_Z10opp_strdupPKc(i8* %1), !dbg !3671
  %str2 = getelementptr inbounds %class.opp_string, %class.opp_string* %this1, i32 0, i32 0, !dbg !3672
  store i8* %call, i8** %str2, align 8, !dbg !3673
  %str3 = getelementptr inbounds %class.opp_string, %class.opp_string* %this1, i32 0, i32 0, !dbg !3674
  %2 = load i8*, i8** %str3, align 8, !dbg !3674
  ret i8* %2, !dbg !3675
}

; Function Attrs: noinline nounwind uwtable
define linkonce_odr dso_local void @_ZN10opp_stringD2Ev(%class.opp_string* %this) unnamed_addr #5 comdat align 2 !dbg !3676 {
entry:
  %this.addr = alloca %class.opp_string*, align 8
  store %class.opp_string* %this, %class.opp_string** %this.addr, align 8
  call void @llvm.dbg.declare(metadata %class.opp_string** %this.addr, metadata !3677, metadata !DIExpression()), !dbg !3678
  %this1 = load %class.opp_string*, %class.opp_string** %this.addr, align 8
  %str = getelementptr inbounds %class.opp_string, %class.opp_string* %this1, i32 0, i32 0, !dbg !3679
  %0 = load i8*, i8** %str, align 8, !dbg !3679
  %isnull = icmp eq i8* %0, null, !dbg !3681
  br i1 %isnull, label %delete.end, label %delete.notnull, !dbg !3681

delete.notnull:                                   ; preds = %entry
  call void @_ZdaPv(i8* %0) #14, !dbg !3681
  br label %delete.end, !dbg !3681

delete.end:                                       ; preds = %delete.notnull, %entry
  ret void, !dbg !3682
}

; Function Attrs: noinline uwtable
define dso_local double @_ZNK14cLongHistogram6randomEv(%class.cLongHistogram* %this) unnamed_addr #0 align 2 !dbg !3683 {
entry:
  %retval = alloca double, align 8
  %this.addr = alloca %class.cLongHistogram*, align 8
  %m = alloca double, align 8
  %k = alloca i32, align 4
  store %class.cLongHistogram* %this, %class.cLongHistogram** %this.addr, align 8
  call void @llvm.dbg.declare(metadata %class.cLongHistogram** %this.addr, metadata !3684, metadata !DIExpression()), !dbg !3686
  %this1 = load %class.cLongHistogram*, %class.cLongHistogram** %this.addr, align 8
  %0 = bitcast %class.cLongHistogram* %this1 to %class.cStdDev*, !dbg !3687
  %num_vals = getelementptr inbounds %class.cStdDev, %class.cStdDev* %0, i32 0, i32 1, !dbg !3687
  %1 = load i64, i64* %num_vals, align 8, !dbg !3687
  %cmp = icmp eq i64 %1, 0, !dbg !3689
  br i1 %cmp, label %if.then, label %if.else, !dbg !3690

if.then:                                          ; preds = %entry
  store double 0.000000e+00, double* %retval, align 8, !dbg !3691
  br label %return, !dbg !3691

if.else:                                          ; preds = %entry
  %2 = bitcast %class.cLongHistogram* %this1 to %class.cStdDev*, !dbg !3693
  %num_vals2 = getelementptr inbounds %class.cStdDev, %class.cStdDev* %2, i32 0, i32 1, !dbg !3693
  %3 = load i64, i64* %num_vals2, align 8, !dbg !3693
  %4 = bitcast %class.cLongHistogram* %this1 to %class.cDensityEstBase*, !dbg !3695
  %num_firstvals = getelementptr inbounds %class.cDensityEstBase, %class.cDensityEstBase* %4, i32 0, i32 3, !dbg !3695
  %5 = load i64, i64* %num_firstvals, align 8, !dbg !3695
  %cmp3 = icmp slt i64 %3, %5, !dbg !3696
  br i1 %cmp3, label %if.then4, label %if.else6, !dbg !3697

if.then4:                                         ; preds = %if.else
  %6 = bitcast %class.cLongHistogram* %this1 to %class.cDensityEstBase*, !dbg !3698
  %firstvals = getelementptr inbounds %class.cDensityEstBase, %class.cDensityEstBase* %6, i32 0, i32 9, !dbg !3698
  %7 = load double*, double** %firstvals, align 8, !dbg !3698
  %8 = bitcast %class.cLongHistogram* %this1 to %class.cStatistic*, !dbg !3700
  %genk = getelementptr inbounds %class.cStatistic, %class.cStatistic* %8, i32 0, i32 4, !dbg !3700
  %9 = load i32, i32* %genk, align 8, !dbg !3700
  %10 = bitcast %class.cLongHistogram* %this1 to %class.cStdDev*, !dbg !3701
  %num_vals5 = getelementptr inbounds %class.cStdDev, %class.cStdDev* %10, i32 0, i32 1, !dbg !3701
  %11 = load i64, i64* %num_vals5, align 8, !dbg !3701
  %call = call i64 @_Z12genk_intrandil(i32 %9, i64 %11), !dbg !3702
  %arrayidx = getelementptr inbounds double, double* %7, i64 %call, !dbg !3698
  %12 = load double, double* %arrayidx, align 8, !dbg !3698
  store double %12, double* %retval, align 8, !dbg !3703
  br label %return, !dbg !3703

if.else6:                                         ; preds = %if.else
  call void @llvm.dbg.declare(metadata double* %m, metadata !3704, metadata !DIExpression()), !dbg !3706
  %13 = bitcast %class.cLongHistogram* %this1 to %class.cStatistic*, !dbg !3707
  %genk7 = getelementptr inbounds %class.cStatistic, %class.cStatistic* %13, i32 0, i32 4, !dbg !3707
  %14 = load i32, i32* %genk7, align 8, !dbg !3707
  %15 = bitcast %class.cLongHistogram* %this1 to %class.cStdDev*, !dbg !3708
  %num_vals8 = getelementptr inbounds %class.cStdDev, %class.cStdDev* %15, i32 0, i32 1, !dbg !3708
  %16 = load i64, i64* %num_vals8, align 8, !dbg !3708
  %17 = bitcast %class.cLongHistogram* %this1 to %class.cDensityEstBase*, !dbg !3709
  %cell_under = getelementptr inbounds %class.cDensityEstBase, %class.cDensityEstBase* %17, i32 0, i32 4, !dbg !3709
  %18 = load i64, i64* %cell_under, align 8, !dbg !3709
  %sub = sub i64 %16, %18, !dbg !3710
  %19 = bitcast %class.cLongHistogram* %this1 to %class.cDensityEstBase*, !dbg !3711
  %cell_over = getelementptr inbounds %class.cDensityEstBase, %class.cDensityEstBase* %19, i32 0, i32 5, !dbg !3711
  %20 = load i64, i64* %cell_over, align 8, !dbg !3711
  %sub9 = sub i64 %sub, %20, !dbg !3712
  %call10 = call i64 @_Z12genk_intrandil(i32 %14, i64 %sub9), !dbg !3713
  %conv = sitofp i64 %call10 to double, !dbg !3713
  store double %conv, double* %m, align 8, !dbg !3706
  call void @llvm.dbg.declare(metadata i32* %k, metadata !3714, metadata !DIExpression()), !dbg !3715
  store i32 0, i32* %k, align 4, !dbg !3716
  br label %for.cond, !dbg !3718

for.cond:                                         ; preds = %for.inc, %if.else6
  %21 = load double, double* %m, align 8, !dbg !3719
  %cmp11 = fcmp oge double %21, 0.000000e+00, !dbg !3721
  br i1 %cmp11, label %for.body, label %for.end, !dbg !3722

for.body:                                         ; preds = %for.cond
  %22 = bitcast %class.cLongHistogram* %this1 to %class.cHistogramBase*, !dbg !3723
  %cellv = getelementptr inbounds %class.cHistogramBase, %class.cHistogramBase* %22, i32 0, i32 2, !dbg !3723
  %23 = load i32*, i32** %cellv, align 8, !dbg !3723
  %24 = load i32, i32* %k, align 4, !dbg !3724
  %idxprom = sext i32 %24 to i64, !dbg !3723
  %arrayidx12 = getelementptr inbounds i32, i32* %23, i64 %idxprom, !dbg !3723
  %25 = load i32, i32* %arrayidx12, align 4, !dbg !3723
  %conv13 = uitofp i32 %25 to double, !dbg !3723
  %26 = load double, double* %m, align 8, !dbg !3725
  %sub14 = fsub double %26, %conv13, !dbg !3725
  store double %sub14, double* %m, align 8, !dbg !3725
  br label %for.inc, !dbg !3726

for.inc:                                          ; preds = %for.body
  %27 = load i32, i32* %k, align 4, !dbg !3727
  %inc = add nsw i32 %27, 1, !dbg !3727
  store i32 %inc, i32* %k, align 4, !dbg !3727
  br label %for.cond, !dbg !3728, !llvm.loop !3729

for.end:                                          ; preds = %for.cond
  %28 = bitcast %class.cLongHistogram* %this1 to %class.cDensityEstBase*, !dbg !3731
  %rangemin = getelementptr inbounds %class.cDensityEstBase, %class.cDensityEstBase* %28, i32 0, i32 1, !dbg !3731
  %29 = load double, double* %rangemin, align 8, !dbg !3731
  %30 = call double @llvm.ceil.f64(double %29), !dbg !3732
  %31 = load i32, i32* %k, align 4, !dbg !3733
  %sub15 = sub nsw i32 %31, 1, !dbg !3734
  %conv16 = sext i32 %sub15 to i64, !dbg !3735
  %32 = bitcast %class.cLongHistogram* %this1 to %class.cEqdHistogramBase*, !dbg !3736
  %cellsize = getelementptr inbounds %class.cEqdHistogramBase, %class.cEqdHistogramBase* %32, i32 0, i32 1, !dbg !3736
  %33 = load double, double* %cellsize, align 8, !dbg !3736
  %conv17 = fptosi double %33 to i64, !dbg !3736
  %mul = mul nsw i64 %conv16, %conv17, !dbg !3737
  %conv18 = sitofp i64 %mul to double, !dbg !3735
  %add = fadd double %30, %conv18, !dbg !3738
  %34 = bitcast %class.cLongHistogram* %this1 to %class.cStatistic*, !dbg !3739
  %genk19 = getelementptr inbounds %class.cStatistic, %class.cStatistic* %34, i32 0, i32 4, !dbg !3739
  %35 = load i32, i32* %genk19, align 8, !dbg !3739
  %36 = bitcast %class.cLongHistogram* %this1 to %class.cEqdHistogramBase*, !dbg !3740
  %cellsize20 = getelementptr inbounds %class.cEqdHistogramBase, %class.cEqdHistogramBase* %36, i32 0, i32 1, !dbg !3740
  %37 = load double, double* %cellsize20, align 8, !dbg !3740
  %conv21 = fptosi double %37 to i64, !dbg !3740
  %call22 = call i64 @_Z12genk_intrandil(i32 %35, i64 %conv21), !dbg !3741
  %conv23 = sitofp i64 %call22 to double, !dbg !3741
  %add24 = fadd double %add, %conv23, !dbg !3742
  store double %add24, double* %retval, align 8, !dbg !3743
  br label %return, !dbg !3743

return:                                           ; preds = %for.end, %if.then4, %if.then
  %38 = load double, double* %retval, align 8, !dbg !3744
  ret double %38, !dbg !3744
}

; Function Attrs: noinline uwtable
define linkonce_odr dso_local i64 @_Z12genk_intrandil(i32 %k, i64 %r) #0 comdat !dbg !3745 {
entry:
  %k.addr = alloca i32, align 4
  %r.addr = alloca i64, align 8
  store i32 %k, i32* %k.addr, align 4
  call void @llvm.dbg.declare(metadata i32* %k.addr, metadata !3749, metadata !DIExpression()), !dbg !3750
  store i64 %r, i64* %r.addr, align 8
  call void @llvm.dbg.declare(metadata i64* %r.addr, metadata !3751, metadata !DIExpression()), !dbg !3752
  %0 = load i32, i32* %k.addr, align 4, !dbg !3753
  %call = call %class.cRNG* @_Z18__contextModuleRNGi(i32 %0), !dbg !3754
  %1 = load i64, i64* %r.addr, align 8, !dbg !3755
  %2 = bitcast %class.cRNG* %call to i64 (%class.cRNG*, i64)***, !dbg !3756
  %vtable = load i64 (%class.cRNG*, i64)**, i64 (%class.cRNG*, i64)*** %2, align 8, !dbg !3756
  %vfn = getelementptr inbounds i64 (%class.cRNG*, i64)*, i64 (%class.cRNG*, i64)** %vtable, i64 24, !dbg !3756
  %3 = load i64 (%class.cRNG*, i64)*, i64 (%class.cRNG*, i64)** %vfn, align 8, !dbg !3756
  %call1 = call i64 %3(%class.cRNG* %call, i64 %1), !dbg !3756
  ret i64 %call1, !dbg !3757
}

; Function Attrs: noinline uwtable
define dso_local void @_ZN16cDoubleHistogramC2EPKci(%class.cDoubleHistogram* %this, i8* %name, i32 %numcells) unnamed_addr #0 align 2 !dbg !3758 {
entry:
  %this.addr = alloca %class.cDoubleHistogram*, align 8
  %name.addr = alloca i8*, align 8
  %numcells.addr = alloca i32, align 4
  store %class.cDoubleHistogram* %this, %class.cDoubleHistogram** %this.addr, align 8
  call void @llvm.dbg.declare(metadata %class.cDoubleHistogram** %this.addr, metadata !3787, metadata !DIExpression()), !dbg !3788
  store i8* %name, i8** %name.addr, align 8
  call void @llvm.dbg.declare(metadata i8** %name.addr, metadata !3789, metadata !DIExpression()), !dbg !3790
  store i32 %numcells, i32* %numcells.addr, align 4
  call void @llvm.dbg.declare(metadata i32* %numcells.addr, metadata !3791, metadata !DIExpression()), !dbg !3792
  %this1 = load %class.cDoubleHistogram*, %class.cDoubleHistogram** %this.addr, align 8
  %0 = bitcast %class.cDoubleHistogram* %this1 to %class.cEqdHistogramBase*, !dbg !3793
  %1 = load i8*, i8** %name.addr, align 8, !dbg !3794
  %2 = load i32, i32* %numcells.addr, align 4, !dbg !3795
  call void @_ZN17cEqdHistogramBaseC2EPKci(%class.cEqdHistogramBase* %0, i8* %1, i32 %2), !dbg !3796
  %3 = bitcast %class.cDoubleHistogram* %this1 to i32 (...)***, !dbg !3793
  store i32 (...)** bitcast (i8** getelementptr inbounds ({ [73 x i8*] }, { [73 x i8*] }* @_ZTV16cDoubleHistogram, i32 0, inrange i32 0, i32 2) to i32 (...)**), i32 (...)*** %3, align 8, !dbg !3793
  ret void, !dbg !3797
}

; Function Attrs: noinline nounwind uwtable
define dso_local void @_ZN16cDoubleHistogramD2Ev(%class.cDoubleHistogram* %this) unnamed_addr #5 align 2 !dbg !3798 {
entry:
  %this.addr = alloca %class.cDoubleHistogram*, align 8
  store %class.cDoubleHistogram* %this, %class.cDoubleHistogram** %this.addr, align 8
  call void @llvm.dbg.declare(metadata %class.cDoubleHistogram** %this.addr, metadata !3799, metadata !DIExpression()), !dbg !3800
  %this1 = load %class.cDoubleHistogram*, %class.cDoubleHistogram** %this.addr, align 8
  %0 = bitcast %class.cDoubleHistogram* %this1 to %class.cEqdHistogramBase*, !dbg !3801
  call void @_ZN17cEqdHistogramBaseD2Ev(%class.cEqdHistogramBase* %0) #3, !dbg !3801
  ret void, !dbg !3803
}

; Function Attrs: noinline nounwind uwtable
define dso_local void @_ZN16cDoubleHistogramD0Ev(%class.cDoubleHistogram* %this) unnamed_addr #5 align 2 !dbg !3804 {
entry:
  %this.addr = alloca %class.cDoubleHistogram*, align 8
  store %class.cDoubleHistogram* %this, %class.cDoubleHistogram** %this.addr, align 8
  call void @llvm.dbg.declare(metadata %class.cDoubleHistogram** %this.addr, metadata !3805, metadata !DIExpression()), !dbg !3806
  %this1 = load %class.cDoubleHistogram*, %class.cDoubleHistogram** %this.addr, align 8
  call void @_ZN16cDoubleHistogramD1Ev(%class.cDoubleHistogram* %this1) #3, !dbg !3807
  %0 = bitcast %class.cDoubleHistogram* %this1 to i8*, !dbg !3807
  call void @_ZdlPv(i8* %0) #14, !dbg !3807
  ret void, !dbg !3808
}

; Function Attrs: noinline uwtable
define dso_local void @_ZN16cDoubleHistogram10setupRangeEv(%class.cDoubleHistogram* %this) unnamed_addr #0 align 2 !dbg !3809 {
entry:
  %this.addr = alloca %class.cDoubleHistogram*, align 8
  store %class.cDoubleHistogram* %this, %class.cDoubleHistogram** %this.addr, align 8
  call void @llvm.dbg.declare(metadata %class.cDoubleHistogram** %this.addr, metadata !3810, metadata !DIExpression()), !dbg !3811
  %this1 = load %class.cDoubleHistogram*, %class.cDoubleHistogram** %this.addr, align 8
  %0 = bitcast %class.cDoubleHistogram* %this1 to %class.cHistogramBase*, !dbg !3812
  %1 = bitcast %class.cHistogramBase* %0 to %class.cDensityEstBase*, !dbg !3812
  call void @_ZN15cDensityEstBase10setupRangeEv(%class.cDensityEstBase* %1), !dbg !3812
  %2 = bitcast %class.cDoubleHistogram* %this1 to %class.cHistogramBase*, !dbg !3813
  %num_cells = getelementptr inbounds %class.cHistogramBase, %class.cHistogramBase* %2, i32 0, i32 1, !dbg !3813
  %3 = load i32, i32* %num_cells, align 8, !dbg !3813
  %cmp = icmp eq i32 %3, -1, !dbg !3815
  br i1 %cmp, label %if.then, label %if.end, !dbg !3816

if.then:                                          ; preds = %entry
  %4 = bitcast %class.cDoubleHistogram* %this1 to %class.cHistogramBase*, !dbg !3817
  %num_cells2 = getelementptr inbounds %class.cHistogramBase, %class.cHistogramBase* %4, i32 0, i32 1, !dbg !3817
  store i32 50, i32* %num_cells2, align 8, !dbg !3818
  br label %if.end, !dbg !3817

if.end:                                           ; preds = %if.then, %entry
  %5 = bitcast %class.cDoubleHistogram* %this1 to %class.cDensityEstBase*, !dbg !3819
  %rangemax = getelementptr inbounds %class.cDensityEstBase, %class.cDensityEstBase* %5, i32 0, i32 2, !dbg !3819
  %6 = load double, double* %rangemax, align 8, !dbg !3819
  %7 = bitcast %class.cDoubleHistogram* %this1 to %class.cDensityEstBase*, !dbg !3820
  %rangemin = getelementptr inbounds %class.cDensityEstBase, %class.cDensityEstBase* %7, i32 0, i32 1, !dbg !3820
  %8 = load double, double* %rangemin, align 8, !dbg !3820
  %sub = fsub double %6, %8, !dbg !3821
  %9 = bitcast %class.cDoubleHistogram* %this1 to %class.cHistogramBase*, !dbg !3822
  %num_cells3 = getelementptr inbounds %class.cHistogramBase, %class.cHistogramBase* %9, i32 0, i32 1, !dbg !3822
  %10 = load i32, i32* %num_cells3, align 8, !dbg !3822
  %conv = sitofp i32 %10 to double, !dbg !3822
  %div = fdiv double %sub, %conv, !dbg !3823
  %11 = bitcast %class.cDoubleHistogram* %this1 to %class.cEqdHistogramBase*, !dbg !3824
  %cellsize = getelementptr inbounds %class.cEqdHistogramBase, %class.cEqdHistogramBase* %11, i32 0, i32 1, !dbg !3824
  store double %div, double* %cellsize, align 8, !dbg !3825
  ret void, !dbg !3826
}

; Function Attrs: noinline uwtable
define dso_local double @_ZNK16cDoubleHistogram6randomEv(%class.cDoubleHistogram* %this) unnamed_addr #0 align 2 !dbg !3827 {
entry:
  %retval = alloca double, align 8
  %this.addr = alloca %class.cDoubleHistogram*, align 8
  %m = alloca double, align 8
  %k = alloca i32, align 4
  store %class.cDoubleHistogram* %this, %class.cDoubleHistogram** %this.addr, align 8
  call void @llvm.dbg.declare(metadata %class.cDoubleHistogram** %this.addr, metadata !3828, metadata !DIExpression()), !dbg !3830
  %this1 = load %class.cDoubleHistogram*, %class.cDoubleHistogram** %this.addr, align 8
  %0 = bitcast %class.cDoubleHistogram* %this1 to %class.cStdDev*, !dbg !3831
  %num_vals = getelementptr inbounds %class.cStdDev, %class.cStdDev* %0, i32 0, i32 1, !dbg !3831
  %1 = load i64, i64* %num_vals, align 8, !dbg !3831
  %cmp = icmp eq i64 %1, 0, !dbg !3833
  br i1 %cmp, label %if.then, label %if.else, !dbg !3834

if.then:                                          ; preds = %entry
  store double 0.000000e+00, double* %retval, align 8, !dbg !3835
  br label %return, !dbg !3835

if.else:                                          ; preds = %entry
  %2 = bitcast %class.cDoubleHistogram* %this1 to %class.cStdDev*, !dbg !3837
  %num_vals2 = getelementptr inbounds %class.cStdDev, %class.cStdDev* %2, i32 0, i32 1, !dbg !3837
  %3 = load i64, i64* %num_vals2, align 8, !dbg !3837
  %4 = bitcast %class.cDoubleHistogram* %this1 to %class.cDensityEstBase*, !dbg !3839
  %num_firstvals = getelementptr inbounds %class.cDensityEstBase, %class.cDensityEstBase* %4, i32 0, i32 3, !dbg !3839
  %5 = load i64, i64* %num_firstvals, align 8, !dbg !3839
  %cmp3 = icmp slt i64 %3, %5, !dbg !3840
  br i1 %cmp3, label %if.then4, label %if.else6, !dbg !3841

if.then4:                                         ; preds = %if.else
  %6 = bitcast %class.cDoubleHistogram* %this1 to %class.cDensityEstBase*, !dbg !3842
  %firstvals = getelementptr inbounds %class.cDensityEstBase, %class.cDensityEstBase* %6, i32 0, i32 9, !dbg !3842
  %7 = load double*, double** %firstvals, align 8, !dbg !3842
  %8 = bitcast %class.cDoubleHistogram* %this1 to %class.cStatistic*, !dbg !3844
  %genk = getelementptr inbounds %class.cStatistic, %class.cStatistic* %8, i32 0, i32 4, !dbg !3844
  %9 = load i32, i32* %genk, align 8, !dbg !3844
  %10 = bitcast %class.cDoubleHistogram* %this1 to %class.cStdDev*, !dbg !3845
  %num_vals5 = getelementptr inbounds %class.cStdDev, %class.cStdDev* %10, i32 0, i32 1, !dbg !3845
  %11 = load i64, i64* %num_vals5, align 8, !dbg !3845
  %call = call i64 @_Z12genk_intrandil(i32 %9, i64 %11), !dbg !3846
  %arrayidx = getelementptr inbounds double, double* %7, i64 %call, !dbg !3842
  %12 = load double, double* %arrayidx, align 8, !dbg !3842
  store double %12, double* %retval, align 8, !dbg !3847
  br label %return, !dbg !3847

if.else6:                                         ; preds = %if.else
  call void @llvm.dbg.declare(metadata double* %m, metadata !3848, metadata !DIExpression()), !dbg !3850
  %13 = bitcast %class.cDoubleHistogram* %this1 to %class.cStatistic*, !dbg !3851
  %genk7 = getelementptr inbounds %class.cStatistic, %class.cStatistic* %13, i32 0, i32 4, !dbg !3851
  %14 = load i32, i32* %genk7, align 8, !dbg !3851
  %15 = bitcast %class.cDoubleHistogram* %this1 to %class.cStdDev*, !dbg !3852
  %num_vals8 = getelementptr inbounds %class.cStdDev, %class.cStdDev* %15, i32 0, i32 1, !dbg !3852
  %16 = load i64, i64* %num_vals8, align 8, !dbg !3852
  %17 = bitcast %class.cDoubleHistogram* %this1 to %class.cDensityEstBase*, !dbg !3853
  %cell_under = getelementptr inbounds %class.cDensityEstBase, %class.cDensityEstBase* %17, i32 0, i32 4, !dbg !3853
  %18 = load i64, i64* %cell_under, align 8, !dbg !3853
  %sub = sub i64 %16, %18, !dbg !3854
  %19 = bitcast %class.cDoubleHistogram* %this1 to %class.cDensityEstBase*, !dbg !3855
  %cell_over = getelementptr inbounds %class.cDensityEstBase, %class.cDensityEstBase* %19, i32 0, i32 5, !dbg !3855
  %20 = load i64, i64* %cell_over, align 8, !dbg !3855
  %sub9 = sub i64 %sub, %20, !dbg !3856
  %call10 = call i64 @_Z12genk_intrandil(i32 %14, i64 %sub9), !dbg !3857
  %conv = sitofp i64 %call10 to double, !dbg !3857
  store double %conv, double* %m, align 8, !dbg !3850
  call void @llvm.dbg.declare(metadata i32* %k, metadata !3858, metadata !DIExpression()), !dbg !3859
  store i32 0, i32* %k, align 4, !dbg !3860
  br label %for.cond, !dbg !3862

for.cond:                                         ; preds = %for.inc, %if.else6
  %21 = load double, double* %m, align 8, !dbg !3863
  %cmp11 = fcmp oge double %21, 0.000000e+00, !dbg !3865
  br i1 %cmp11, label %for.body, label %for.end, !dbg !3866

for.body:                                         ; preds = %for.cond
  %22 = bitcast %class.cDoubleHistogram* %this1 to %class.cHistogramBase*, !dbg !3867
  %cellv = getelementptr inbounds %class.cHistogramBase, %class.cHistogramBase* %22, i32 0, i32 2, !dbg !3867
  %23 = load i32*, i32** %cellv, align 8, !dbg !3867
  %24 = load i32, i32* %k, align 4, !dbg !3868
  %idxprom = sext i32 %24 to i64, !dbg !3867
  %arrayidx12 = getelementptr inbounds i32, i32* %23, i64 %idxprom, !dbg !3867
  %25 = load i32, i32* %arrayidx12, align 4, !dbg !3867
  %conv13 = uitofp i32 %25 to double, !dbg !3867
  %26 = load double, double* %m, align 8, !dbg !3869
  %sub14 = fsub double %26, %conv13, !dbg !3869
  store double %sub14, double* %m, align 8, !dbg !3869
  br label %for.inc, !dbg !3870

for.inc:                                          ; preds = %for.body
  %27 = load i32, i32* %k, align 4, !dbg !3871
  %inc = add nsw i32 %27, 1, !dbg !3871
  store i32 %inc, i32* %k, align 4, !dbg !3871
  br label %for.cond, !dbg !3872, !llvm.loop !3873

for.end:                                          ; preds = %for.cond
  %28 = bitcast %class.cDoubleHistogram* %this1 to %class.cDensityEstBase*, !dbg !3875
  %rangemin = getelementptr inbounds %class.cDensityEstBase, %class.cDensityEstBase* %28, i32 0, i32 1, !dbg !3875
  %29 = load double, double* %rangemin, align 8, !dbg !3875
  %30 = load i32, i32* %k, align 4, !dbg !3876
  %sub15 = sub nsw i32 %30, 1, !dbg !3877
  %conv16 = sitofp i32 %sub15 to double, !dbg !3878
  %31 = bitcast %class.cDoubleHistogram* %this1 to %class.cEqdHistogramBase*, !dbg !3879
  %cellsize = getelementptr inbounds %class.cEqdHistogramBase, %class.cEqdHistogramBase* %31, i32 0, i32 1, !dbg !3879
  %32 = load double, double* %cellsize, align 8, !dbg !3879
  %mul = fmul double %conv16, %32, !dbg !3880
  %add = fadd double %29, %mul, !dbg !3881
  %33 = bitcast %class.cDoubleHistogram* %this1 to %class.cStatistic*, !dbg !3882
  %genk17 = getelementptr inbounds %class.cStatistic, %class.cStatistic* %33, i32 0, i32 4, !dbg !3882
  %34 = load i32, i32* %genk17, align 8, !dbg !3882
  %call18 = call double @_Z12genk_dblrandi(i32 %34), !dbg !3883
  %35 = bitcast %class.cDoubleHistogram* %this1 to %class.cEqdHistogramBase*, !dbg !3884
  %cellsize19 = getelementptr inbounds %class.cEqdHistogramBase, %class.cEqdHistogramBase* %35, i32 0, i32 1, !dbg !3884
  %36 = load double, double* %cellsize19, align 8, !dbg !3884
  %mul20 = fmul double %call18, %36, !dbg !3885
  %add21 = fadd double %add, %mul20, !dbg !3886
  store double %add21, double* %retval, align 8, !dbg !3887
  br label %return, !dbg !3887

return:                                           ; preds = %for.end, %if.then4, %if.then
  %37 = load double, double* %retval, align 8, !dbg !3888
  ret double %37, !dbg !3888
}

; Function Attrs: noinline uwtable
define linkonce_odr dso_local double @_Z12genk_dblrandi(i32 %k) #0 comdat !dbg !3889 {
entry:
  %k.addr = alloca i32, align 4
  store i32 %k, i32* %k.addr, align 4
  call void @llvm.dbg.declare(metadata i32* %k.addr, metadata !3892, metadata !DIExpression()), !dbg !3893
  %0 = load i32, i32* %k.addr, align 4, !dbg !3894
  %call = call %class.cRNG* @_Z18__contextModuleRNGi(i32 %0), !dbg !3895
  %1 = bitcast %class.cRNG* %call to double (%class.cRNG*)***, !dbg !3896
  %vtable = load double (%class.cRNG*)**, double (%class.cRNG*)*** %1, align 8, !dbg !3896
  %vfn = getelementptr inbounds double (%class.cRNG*)*, double (%class.cRNG*)** %vtable, i64 25, !dbg !3896
  %2 = load double (%class.cRNG*)*, double (%class.cRNG*)** %vfn, align 8, !dbg !3896
  %call1 = call double %2(%class.cRNG* %call), !dbg !3896
  ret double %call1, !dbg !3897
}

declare dso_local %class.cClassDescriptor* @_ZN7cObject13getDescriptorEv(%class.cObject*) unnamed_addr #1

declare dso_local void @_ZN7cObject18ownedObjectDeletedEP12cOwnedObject(%class.cObject*, %class.cOwnedObject*) unnamed_addr #1

declare dso_local void @_ZN7cObject14yieldOwnershipEP12cOwnedObjectPS_(%class.cObject*, %class.cOwnedObject*, %class.cObject*) unnamed_addr #1

declare dso_local i8* @_ZNK7cObject12getClassNameEv(%class.cObject*) unnamed_addr #1

; Function Attrs: noinline nounwind uwtable
define linkonce_odr dso_local i8* @_ZNK12cNamedObject7getNameEv(%class.cNamedObject* %this) unnamed_addr #5 comdat align 2 !dbg !3898 {
entry:
  %this.addr = alloca %class.cNamedObject*, align 8
  store %class.cNamedObject* %this, %class.cNamedObject** %this.addr, align 8
  call void @llvm.dbg.declare(metadata %class.cNamedObject** %this.addr, metadata !3904, metadata !DIExpression()), !dbg !3906
  %this1 = load %class.cNamedObject*, %class.cNamedObject** %this.addr, align 8
  %namep = getelementptr inbounds %class.cNamedObject, %class.cNamedObject* %this1, i32 0, i32 1, !dbg !3907
  %0 = load i8*, i8** %namep, align 8, !dbg !3907
  %tobool = icmp ne i8* %0, null, !dbg !3907
  br i1 %tobool, label %cond.true, label %cond.false, !dbg !3907

cond.true:                                        ; preds = %entry
  %namep2 = getelementptr inbounds %class.cNamedObject, %class.cNamedObject* %this1, i32 0, i32 1, !dbg !3908
  %1 = load i8*, i8** %namep2, align 8, !dbg !3908
  br label %cond.end, !dbg !3907

cond.false:                                       ; preds = %entry
  br label %cond.end, !dbg !3907

cond.end:                                         ; preds = %cond.false, %cond.true
  %cond = phi i8* [ %1, %cond.true ], [ getelementptr inbounds ([1 x i8], [1 x i8]* @.str.23, i64 0, i64 0), %cond.false ], !dbg !3907
  ret i8* %cond, !dbg !3909
}

; Function Attrs: noinline uwtable
define linkonce_odr dso_local i8* @_ZNK7cObject11getFullNameEv(%class.cObject* %this) unnamed_addr #0 comdat align 2 !dbg !3910 {
entry:
  %this.addr = alloca %class.cObject*, align 8
  store %class.cObject* %this, %class.cObject** %this.addr, align 8
  call void @llvm.dbg.declare(metadata %class.cObject** %this.addr, metadata !3916, metadata !DIExpression()), !dbg !3918
  %this1 = load %class.cObject*, %class.cObject** %this.addr, align 8
  %0 = bitcast %class.cObject* %this1 to i8* (%class.cObject*)***, !dbg !3919
  %vtable = load i8* (%class.cObject*)**, i8* (%class.cObject*)*** %0, align 8, !dbg !3919
  %vfn = getelementptr inbounds i8* (%class.cObject*)*, i8* (%class.cObject*)** %vtable, i64 6, !dbg !3919
  %1 = load i8* (%class.cObject*)*, i8* (%class.cObject*)** %vfn, align 8, !dbg !3919
  %call = call i8* %1(%class.cObject* %this1), !dbg !3919
  ret i8* %call, !dbg !3920
}

declare dso_local void @_ZNK7cObject11getFullPathB5cxx11Ev(%"class.std::__cxx11::basic_string"* sret, %class.cObject*) unnamed_addr #1

declare dso_local void @_ZNK7cStdDev4infoB5cxx11Ev(%"class.std::__cxx11::basic_string"* sret, %class.cStdDev*) unnamed_addr #1

declare dso_local void @_ZNK15cDensityEstBase12detailedInfoB5cxx11Ev(%"class.std::__cxx11::basic_string"* sret, %class.cDensityEstBase*) unnamed_addr #1

; Function Attrs: noinline uwtable
define linkonce_odr dso_local %class.cStdDev* @_ZNK7cStdDev3dupEv(%class.cStdDev* %this) unnamed_addr #0 comdat align 2 personality i8* bitcast (i32 (...)* @__gxx_personality_v0 to i8*) !dbg !3921 {
entry:
  %this.addr = alloca %class.cStdDev*, align 8
  %exn.slot = alloca i8*
  %ehselector.slot = alloca i32
  store %class.cStdDev* %this, %class.cStdDev** %this.addr, align 8
  call void @llvm.dbg.declare(metadata %class.cStdDev** %this.addr, metadata !3930, metadata !DIExpression()), !dbg !3932
  %this1 = load %class.cStdDev*, %class.cStdDev** %this.addr, align 8
  %call = call i8* @_Znwm(i64 104) #13, !dbg !3933
  %0 = bitcast i8* %call to %class.cStdDev*, !dbg !3933
  invoke void @_ZN7cStdDevC2ERKS_(%class.cStdDev* %0, %class.cStdDev* dereferenceable(104) %this1)
          to label %invoke.cont unwind label %lpad, !dbg !3934

invoke.cont:                                      ; preds = %entry
  ret %class.cStdDev* %0, !dbg !3935

lpad:                                             ; preds = %entry
  %1 = landingpad { i8*, i32 }
          cleanup, !dbg !3936
  %2 = extractvalue { i8*, i32 } %1, 0, !dbg !3936
  store i8* %2, i8** %exn.slot, align 8, !dbg !3936
  %3 = extractvalue { i8*, i32 } %1, 1, !dbg !3936
  store i32 %3, i32* %ehselector.slot, align 4, !dbg !3936
  call void @_ZdlPv(i8* %call) #14, !dbg !3933
  br label %eh.resume, !dbg !3933

eh.resume:                                        ; preds = %lpad
  %exn = load i8*, i8** %exn.slot, align 8, !dbg !3933
  %sel = load i32, i32* %ehselector.slot, align 4, !dbg !3933
  %lpad.val = insertvalue { i8*, i32 } undef, i8* %exn, 0, !dbg !3933
  %lpad.val2 = insertvalue { i8*, i32 } %lpad.val, i32 %sel, 1, !dbg !3933
  resume { i8*, i32 } %lpad.val2, !dbg !3933
}

declare dso_local void @_ZN7cObject4takeEP12cOwnedObject(%class.cObject*, %class.cOwnedObject*) unnamed_addr #1

declare dso_local void @_ZN7cObject4dropEP12cOwnedObject(%class.cObject*, %class.cOwnedObject*) unnamed_addr #1

; Function Attrs: noinline nounwind uwtable
define linkonce_odr dso_local %class.cObject* @_ZNK12cOwnedObject8getOwnerEv(%class.cOwnedObject* %this) unnamed_addr #5 comdat align 2 !dbg !3937 {
entry:
  %this.addr = alloca %class.cOwnedObject*, align 8
  store %class.cOwnedObject* %this, %class.cOwnedObject** %this.addr, align 8
  call void @llvm.dbg.declare(metadata %class.cOwnedObject** %this.addr, metadata !3946, metadata !DIExpression()), !dbg !3948
  %this1 = load %class.cOwnedObject*, %class.cOwnedObject** %this.addr, align 8
  %ownerp = getelementptr inbounds %class.cOwnedObject, %class.cOwnedObject* %this1, i32 0, i32 2, !dbg !3949
  %0 = load %class.cObject*, %class.cObject** %ownerp, align 8, !dbg !3949
  ret %class.cObject* %0, !dbg !3950
}

; Function Attrs: noinline nounwind uwtable
define linkonce_odr dso_local zeroext i1 @_ZNK12cOwnedObject13isOwnedObjectEv(%class.cOwnedObject* %this) unnamed_addr #5 comdat align 2 !dbg !3951 {
entry:
  %this.addr = alloca %class.cOwnedObject*, align 8
  store %class.cOwnedObject* %this, %class.cOwnedObject** %this.addr, align 8
  call void @llvm.dbg.declare(metadata %class.cOwnedObject** %this.addr, metadata !3955, metadata !DIExpression()), !dbg !3956
  %this1 = load %class.cOwnedObject*, %class.cOwnedObject** %this.addr, align 8
  ret i1 true, !dbg !3957
}

declare dso_local void @_ZN7cObject12forEachChildEP8cVisitor(%class.cObject*, %class.cVisitor*) unnamed_addr #1

declare dso_local void @_ZN12cNamedObject7setNameEPKc(%class.cNamedObject*, i8*) unnamed_addr #1

declare dso_local void @_ZN12cNamedObject14setNamePoolingEb(%class.cNamedObject*, i1 zeroext) unnamed_addr #1

; Function Attrs: noinline nounwind uwtable
define linkonce_odr dso_local zeroext i1 @_ZN12cNamedObject14getNamePoolingEv(%class.cNamedObject* %this) unnamed_addr #5 comdat align 2 !dbg !3958 {
entry:
  %this.addr = alloca %class.cNamedObject*, align 8
  store %class.cNamedObject* %this, %class.cNamedObject** %this.addr, align 8
  call void @llvm.dbg.declare(metadata %class.cNamedObject** %this.addr, metadata !3963, metadata !DIExpression()), !dbg !3965
  %this1 = load %class.cNamedObject*, %class.cNamedObject** %this.addr, align 8
  %flags = getelementptr inbounds %class.cNamedObject, %class.cNamedObject* %this1, i32 0, i32 2, !dbg !3966
  %0 = load i16, i16* %flags, align 8, !dbg !3966
  %conv = zext i16 %0 to i32, !dbg !3966
  %and = and i32 %conv, 1, !dbg !3967
  %tobool = icmp ne i32 %and, 0, !dbg !3966
  ret i1 %tobool, !dbg !3968
}

declare dso_local void @_ZN12cOwnedObject23removeFromOwnershipTreeEv(%class.cOwnedObject*) unnamed_addr #1

; Function Attrs: noinline nounwind uwtable
define linkonce_odr dso_local zeroext i1 @_ZNK12cOwnedObject11isSoftOwnerEv(%class.cOwnedObject* %this) unnamed_addr #5 comdat align 2 !dbg !3969 {
entry:
  %this.addr = alloca %class.cOwnedObject*, align 8
  store %class.cOwnedObject* %this, %class.cOwnedObject** %this.addr, align 8
  call void @llvm.dbg.declare(metadata %class.cOwnedObject** %this.addr, metadata !3971, metadata !DIExpression()), !dbg !3972
  %this1 = load %class.cOwnedObject*, %class.cOwnedObject** %this.addr, align 8
  ret i1 false, !dbg !3973
}

; Function Attrs: noinline nounwind uwtable
define linkonce_odr dso_local void @_ZN10cStatistic21getAttributesToRecordER14opp_string_map(%class.cStatistic* %this, %class.opp_string_map* dereferenceable(48) %attributes) unnamed_addr #5 comdat align 2 !dbg !3974 {
entry:
  %this.addr = alloca %class.cStatistic*, align 8
  %attributes.addr = alloca %class.opp_string_map*, align 8
  store %class.cStatistic* %this, %class.cStatistic** %this.addr, align 8
  call void @llvm.dbg.declare(metadata %class.cStatistic** %this.addr, metadata !3981, metadata !DIExpression()), !dbg !3983
  store %class.opp_string_map* %attributes, %class.opp_string_map** %attributes.addr, align 8
  call void @llvm.dbg.declare(metadata %class.opp_string_map** %attributes.addr, metadata !3984, metadata !DIExpression()), !dbg !3985
  %this1 = load %class.cStatistic*, %class.cStatistic** %this.addr, align 8
  ret void, !dbg !3986
}

; Function Attrs: noinline uwtable
define linkonce_odr dso_local void @_ZN15cDensityEstBase7collectE7SimTime(%class.cDensityEstBase* %this, %class.SimTime* %value) unnamed_addr #0 comdat align 2 !dbg !3987 {
entry:
  %this.addr = alloca %class.cDensityEstBase*, align 8
  store %class.cDensityEstBase* %this, %class.cDensityEstBase** %this.addr, align 8
  call void @llvm.dbg.declare(metadata %class.cDensityEstBase** %this.addr, metadata !3992, metadata !DIExpression()), !dbg !3994
  call void @llvm.dbg.declare(metadata %class.SimTime* %value, metadata !3995, metadata !DIExpression()), !dbg !3996
  %this1 = load %class.cDensityEstBase*, %class.cDensityEstBase** %this.addr, align 8
  %call = call double @_ZNK7SimTime3dblEv(%class.SimTime* %value), !dbg !3997
  %0 = bitcast %class.cDensityEstBase* %this1 to void (%class.cDensityEstBase*, double)***, !dbg !3998
  %vtable = load void (%class.cDensityEstBase*, double)**, void (%class.cDensityEstBase*, double)*** %0, align 8, !dbg !3998
  %vfn = getelementptr inbounds void (%class.cDensityEstBase*, double)*, void (%class.cDensityEstBase*, double)** %vtable, i64 25, !dbg !3998
  %1 = load void (%class.cDensityEstBase*, double)*, void (%class.cDensityEstBase*, double)** %vfn, align 8, !dbg !3998
  call void %1(%class.cDensityEstBase* %this1, double %call), !dbg !3998
  ret void, !dbg !3999
}

; Function Attrs: noinline nounwind uwtable
define linkonce_odr dso_local zeroext i1 @_ZNK7cStdDev10isWeightedEv(%class.cStdDev* %this) unnamed_addr #5 comdat align 2 !dbg !4000 {
entry:
  %this.addr = alloca %class.cStdDev*, align 8
  store %class.cStdDev* %this, %class.cStdDev** %this.addr, align 8
  call void @llvm.dbg.declare(metadata %class.cStdDev** %this.addr, metadata !4004, metadata !DIExpression()), !dbg !4005
  %this1 = load %class.cStdDev*, %class.cStdDev** %this.addr, align 8
  ret i1 false, !dbg !4006
}

declare dso_local void @_ZN10cStatistic8collect2Edd(%class.cStatistic*, double, double) unnamed_addr #1

declare dso_local void @_ZN15cDensityEstBase5mergeEPK10cStatistic(%class.cDensityEstBase*, %class.cStatistic*) unnamed_addr #1

; Function Attrs: noinline nounwind uwtable
define linkonce_odr dso_local i64 @_ZNK7cStdDev8getCountEv(%class.cStdDev* %this) unnamed_addr #5 comdat align 2 !dbg !4007 {
entry:
  %this.addr = alloca %class.cStdDev*, align 8
  store %class.cStdDev* %this, %class.cStdDev** %this.addr, align 8
  call void @llvm.dbg.declare(metadata %class.cStdDev** %this.addr, metadata !4011, metadata !DIExpression()), !dbg !4012
  %this1 = load %class.cStdDev*, %class.cStdDev** %this.addr, align 8
  %num_vals = getelementptr inbounds %class.cStdDev, %class.cStdDev* %this1, i32 0, i32 1, !dbg !4013
  %0 = load i64, i64* %num_vals, align 8, !dbg !4013
  ret i64 %0, !dbg !4014
}

; Function Attrs: noinline nounwind uwtable
define linkonce_odr dso_local double @_ZNK7cStdDev6getSumEv(%class.cStdDev* %this) unnamed_addr #5 comdat align 2 !dbg !4015 {
entry:
  %this.addr = alloca %class.cStdDev*, align 8
  store %class.cStdDev* %this, %class.cStdDev** %this.addr, align 8
  call void @llvm.dbg.declare(metadata %class.cStdDev** %this.addr, metadata !4019, metadata !DIExpression()), !dbg !4020
  %this1 = load %class.cStdDev*, %class.cStdDev** %this.addr, align 8
  %sum_vals = getelementptr inbounds %class.cStdDev, %class.cStdDev* %this1, i32 0, i32 4, !dbg !4021
  %0 = load double, double* %sum_vals, align 8, !dbg !4021
  ret double %0, !dbg !4022
}

; Function Attrs: noinline nounwind uwtable
define linkonce_odr dso_local double @_ZNK7cStdDev9getSqrSumEv(%class.cStdDev* %this) unnamed_addr #5 comdat align 2 !dbg !4023 {
entry:
  %this.addr = alloca %class.cStdDev*, align 8
  store %class.cStdDev* %this, %class.cStdDev** %this.addr, align 8
  call void @llvm.dbg.declare(metadata %class.cStdDev** %this.addr, metadata !4025, metadata !DIExpression()), !dbg !4026
  %this1 = load %class.cStdDev*, %class.cStdDev** %this.addr, align 8
  %sqrsum_vals = getelementptr inbounds %class.cStdDev, %class.cStdDev* %this1, i32 0, i32 5, !dbg !4027
  %0 = load double, double* %sqrsum_vals, align 8, !dbg !4027
  ret double %0, !dbg !4028
}

; Function Attrs: noinline nounwind uwtable
define linkonce_odr dso_local double @_ZNK7cStdDev6getMinEv(%class.cStdDev* %this) unnamed_addr #5 comdat align 2 !dbg !4029 {
entry:
  %this.addr = alloca %class.cStdDev*, align 8
  store %class.cStdDev* %this, %class.cStdDev** %this.addr, align 8
  call void @llvm.dbg.declare(metadata %class.cStdDev** %this.addr, metadata !4031, metadata !DIExpression()), !dbg !4032
  %this1 = load %class.cStdDev*, %class.cStdDev** %this.addr, align 8
  %min_vals = getelementptr inbounds %class.cStdDev, %class.cStdDev* %this1, i32 0, i32 2, !dbg !4033
  %0 = load double, double* %min_vals, align 8, !dbg !4033
  ret double %0, !dbg !4034
}

; Function Attrs: noinline nounwind uwtable
define linkonce_odr dso_local double @_ZNK7cStdDev6getMaxEv(%class.cStdDev* %this) unnamed_addr #5 comdat align 2 !dbg !4035 {
entry:
  %this.addr = alloca %class.cStdDev*, align 8
  store %class.cStdDev* %this, %class.cStdDev** %this.addr, align 8
  call void @llvm.dbg.declare(metadata %class.cStdDev** %this.addr, metadata !4037, metadata !DIExpression()), !dbg !4038
  %this1 = load %class.cStdDev*, %class.cStdDev** %this.addr, align 8
  %max_vals = getelementptr inbounds %class.cStdDev, %class.cStdDev* %this1, i32 0, i32 3, !dbg !4039
  %0 = load double, double* %max_vals, align 8, !dbg !4039
  ret double %0, !dbg !4040
}

; Function Attrs: noinline nounwind uwtable
define linkonce_odr dso_local double @_ZNK7cStdDev7getMeanEv(%class.cStdDev* %this) unnamed_addr #5 comdat align 2 !dbg !4041 {
entry:
  %this.addr = alloca %class.cStdDev*, align 8
  store %class.cStdDev* %this, %class.cStdDev** %this.addr, align 8
  call void @llvm.dbg.declare(metadata %class.cStdDev** %this.addr, metadata !4043, metadata !DIExpression()), !dbg !4044
  %this1 = load %class.cStdDev*, %class.cStdDev** %this.addr, align 8
  %num_vals = getelementptr inbounds %class.cStdDev, %class.cStdDev* %this1, i32 0, i32 1, !dbg !4045
  %0 = load i64, i64* %num_vals, align 8, !dbg !4045
  %cmp = icmp eq i64 %0, 0, !dbg !4046
  br i1 %cmp, label %cond.true, label %cond.false, !dbg !4045

cond.true:                                        ; preds = %entry
  br label %cond.end, !dbg !4045

cond.false:                                       ; preds = %entry
  %sum_vals = getelementptr inbounds %class.cStdDev, %class.cStdDev* %this1, i32 0, i32 4, !dbg !4047
  %1 = load double, double* %sum_vals, align 8, !dbg !4047
  %num_vals2 = getelementptr inbounds %class.cStdDev, %class.cStdDev* %this1, i32 0, i32 1, !dbg !4048
  %2 = load i64, i64* %num_vals2, align 8, !dbg !4048
  %conv = sitofp i64 %2 to double, !dbg !4048
  %div = fdiv double %1, %conv, !dbg !4049
  br label %cond.end, !dbg !4045

cond.end:                                         ; preds = %cond.false, %cond.true
  %cond = phi double [ 0.000000e+00, %cond.true ], [ %div, %cond.false ], !dbg !4045
  ret double %cond, !dbg !4050
}

declare dso_local double @_ZNK7cStdDev9getStddevEv(%class.cStdDev*) unnamed_addr #1

declare dso_local double @_ZNK7cStdDev11getVarianceEv(%class.cStdDev*) unnamed_addr #1

; Function Attrs: noinline uwtable
define linkonce_odr dso_local double @_ZNK7cStdDev10getWeightsEv(%class.cStdDev* %this) unnamed_addr #0 comdat align 2 !dbg !4051 {
entry:
  %this.addr = alloca %class.cStdDev*, align 8
  store %class.cStdDev* %this, %class.cStdDev** %this.addr, align 8
  call void @llvm.dbg.declare(metadata %class.cStdDev** %this.addr, metadata !4053, metadata !DIExpression()), !dbg !4054
  %this1 = load %class.cStdDev*, %class.cStdDev** %this.addr, align 8
  %0 = bitcast %class.cStdDev* %this1 to i64 (%class.cStdDev*)***, !dbg !4055
  %vtable = load i64 (%class.cStdDev*)**, i64 (%class.cStdDev*)*** %0, align 8, !dbg !4055
  %vfn = getelementptr inbounds i64 (%class.cStdDev*)*, i64 (%class.cStdDev*)** %vtable, i64 31, !dbg !4055
  %1 = load i64 (%class.cStdDev*)*, i64 (%class.cStdDev*)** %vfn, align 8, !dbg !4055
  %call = call i64 %1(%class.cStdDev* %this1), !dbg !4055
  %conv = sitofp i64 %call to double, !dbg !4055
  ret double %conv, !dbg !4056
}

; Function Attrs: noinline uwtable
define linkonce_odr dso_local double @_ZNK7cStdDev14getWeightedSumEv(%class.cStdDev* %this) unnamed_addr #0 comdat align 2 !dbg !4057 {
entry:
  %this.addr = alloca %class.cStdDev*, align 8
  store %class.cStdDev* %this, %class.cStdDev** %this.addr, align 8
  call void @llvm.dbg.declare(metadata %class.cStdDev** %this.addr, metadata !4059, metadata !DIExpression()), !dbg !4060
  %this1 = load %class.cStdDev*, %class.cStdDev** %this.addr, align 8
  %0 = bitcast %class.cStdDev* %this1 to double (%class.cStdDev*)***, !dbg !4061
  %vtable = load double (%class.cStdDev*)**, double (%class.cStdDev*)*** %0, align 8, !dbg !4061
  %vfn = getelementptr inbounds double (%class.cStdDev*)*, double (%class.cStdDev*)** %vtable, i64 32, !dbg !4061
  %1 = load double (%class.cStdDev*)*, double (%class.cStdDev*)** %vfn, align 8, !dbg !4061
  %call = call double %1(%class.cStdDev* %this1), !dbg !4061
  ret double %call, !dbg !4062
}

; Function Attrs: noinline uwtable
define linkonce_odr dso_local double @_ZNK7cStdDev16getSqrSumWeightsEv(%class.cStdDev* %this) unnamed_addr #0 comdat align 2 !dbg !4063 {
entry:
  %this.addr = alloca %class.cStdDev*, align 8
  store %class.cStdDev* %this, %class.cStdDev** %this.addr, align 8
  call void @llvm.dbg.declare(metadata %class.cStdDev** %this.addr, metadata !4065, metadata !DIExpression()), !dbg !4066
  %this1 = load %class.cStdDev*, %class.cStdDev** %this.addr, align 8
  %0 = bitcast %class.cStdDev* %this1 to i64 (%class.cStdDev*)***, !dbg !4067
  %vtable = load i64 (%class.cStdDev*)**, i64 (%class.cStdDev*)*** %0, align 8, !dbg !4067
  %vfn = getelementptr inbounds i64 (%class.cStdDev*)*, i64 (%class.cStdDev*)** %vtable, i64 31, !dbg !4067
  %1 = load i64 (%class.cStdDev*)*, i64 (%class.cStdDev*)** %vfn, align 8, !dbg !4067
  %call = call i64 %1(%class.cStdDev* %this1), !dbg !4067
  %conv = sitofp i64 %call to double, !dbg !4067
  ret double %conv, !dbg !4068
}

; Function Attrs: noinline uwtable
define linkonce_odr dso_local double @_ZNK7cStdDev17getWeightedSqrSumEv(%class.cStdDev* %this) unnamed_addr #0 comdat align 2 !dbg !4069 {
entry:
  %this.addr = alloca %class.cStdDev*, align 8
  store %class.cStdDev* %this, %class.cStdDev** %this.addr, align 8
  call void @llvm.dbg.declare(metadata %class.cStdDev** %this.addr, metadata !4071, metadata !DIExpression()), !dbg !4072
  %this1 = load %class.cStdDev*, %class.cStdDev** %this.addr, align 8
  %0 = bitcast %class.cStdDev* %this1 to double (%class.cStdDev*)***, !dbg !4073
  %vtable = load double (%class.cStdDev*)**, double (%class.cStdDev*)*** %0, align 8, !dbg !4073
  %vfn = getelementptr inbounds double (%class.cStdDev*)*, double (%class.cStdDev*)** %vtable, i64 33, !dbg !4073
  %1 = load double (%class.cStdDev*)*, double (%class.cStdDev*)** %vfn, align 8, !dbg !4073
  %call = call double %1(%class.cStdDev* %this1), !dbg !4073
  ret double %call, !dbg !4074
}

declare dso_local double @_ZNK7cStdDev6randomEv(%class.cStdDev*) unnamed_addr #1

; Function Attrs: noinline uwtable
define linkonce_odr dso_local void @_ZN10cStatistic6recordEv(%class.cStatistic* %this) unnamed_addr #0 comdat align 2 !dbg !4075 {
entry:
  %this.addr = alloca %class.cStatistic*, align 8
  store %class.cStatistic* %this, %class.cStatistic** %this.addr, align 8
  call void @llvm.dbg.declare(metadata %class.cStatistic** %this.addr, metadata !4079, metadata !DIExpression()), !dbg !4080
  %this1 = load %class.cStatistic*, %class.cStatistic** %this.addr, align 8
  %0 = bitcast %class.cStatistic* %this1 to void (%class.cStatistic*, i8*, i8*)***, !dbg !4081
  %vtable = load void (%class.cStatistic*, i8*, i8*)**, void (%class.cStatistic*, i8*, i8*)*** %0, align 8, !dbg !4081
  %vfn = getelementptr inbounds void (%class.cStatistic*, i8*, i8*)*, void (%class.cStatistic*, i8*, i8*)** %vtable, i64 48, !dbg !4081
  %1 = load void (%class.cStatistic*, i8*, i8*)*, void (%class.cStatistic*, i8*, i8*)** %vfn, align 8, !dbg !4081
  call void %1(%class.cStatistic* %this1, i8* null, i8* null), !dbg !4081
  ret void, !dbg !4082
}

; Function Attrs: noinline uwtable
define linkonce_odr dso_local void @_ZN10cStatistic14recordWithUnitEPKc(%class.cStatistic* %this, i8* %unit) unnamed_addr #0 comdat align 2 !dbg !4083 {
entry:
  %this.addr = alloca %class.cStatistic*, align 8
  %unit.addr = alloca i8*, align 8
  store %class.cStatistic* %this, %class.cStatistic** %this.addr, align 8
  call void @llvm.dbg.declare(metadata %class.cStatistic** %this.addr, metadata !4087, metadata !DIExpression()), !dbg !4088
  store i8* %unit, i8** %unit.addr, align 8
  call void @llvm.dbg.declare(metadata i8** %unit.addr, metadata !4089, metadata !DIExpression()), !dbg !4090
  %this1 = load %class.cStatistic*, %class.cStatistic** %this.addr, align 8
  %0 = load i8*, i8** %unit.addr, align 8, !dbg !4091
  %1 = bitcast %class.cStatistic* %this1 to void (%class.cStatistic*, i8*, i8*)***, !dbg !4092
  %vtable = load void (%class.cStatistic*, i8*, i8*)**, void (%class.cStatistic*, i8*, i8*)*** %1, align 8, !dbg !4092
  %vfn = getelementptr inbounds void (%class.cStatistic*, i8*, i8*)*, void (%class.cStatistic*, i8*, i8*)** %vtable, i64 48, !dbg !4092
  %2 = load void (%class.cStatistic*, i8*, i8*)*, void (%class.cStatistic*, i8*, i8*)** %vfn, align 8, !dbg !4092
  call void %2(%class.cStatistic* %this1, i8* null, i8* %0), !dbg !4092
  ret void, !dbg !4093
}

declare dso_local void @_ZN10cStatistic8recordAsEPKcS1_(%class.cStatistic*, i8*, i8*) unnamed_addr #1

declare dso_local void @_ZN15cDensityEstBase8setRangeEdd(%class.cDensityEstBase*, double, double) unnamed_addr #1

declare dso_local void @_ZN15cDensityEstBase12setRangeAutoEid(%class.cDensityEstBase*, i32, double) unnamed_addr #1

declare dso_local void @_ZN15cDensityEstBase17setRangeAutoLowerEdid(%class.cDensityEstBase*, double, i32, double) unnamed_addr #1

declare dso_local void @_ZN15cDensityEstBase17setRangeAutoUpperEdid(%class.cDensityEstBase*, double, i32, double) unnamed_addr #1

declare dso_local void @_ZN15cDensityEstBase15setNumFirstValsEi(%class.cDensityEstBase*, i32) unnamed_addr #1

declare dso_local void @__cxa_pure_virtual() unnamed_addr

; Function Attrs: noinline nounwind uwtable
define linkonce_odr dso_local zeroext i1 @_ZNK15cDensityEstBase13isTransformedEv(%class.cDensityEstBase* %this) unnamed_addr #5 comdat align 2 !dbg !4094 {
entry:
  %this.addr = alloca %class.cDensityEstBase*, align 8
  store %class.cDensityEstBase* %this, %class.cDensityEstBase** %this.addr, align 8
  call void @llvm.dbg.declare(metadata %class.cDensityEstBase** %this.addr, metadata !4099, metadata !DIExpression()), !dbg !4100
  %this1 = load %class.cDensityEstBase*, %class.cDensityEstBase** %this.addr, align 8
  %transfd = getelementptr inbounds %class.cDensityEstBase, %class.cDensityEstBase* %this1, i32 0, i32 8, !dbg !4101
  %0 = load i8, i8* %transfd, align 4, !dbg !4101
  %tobool = trunc i8 %0 to i1, !dbg !4101
  ret i1 %tobool, !dbg !4102
}

declare dso_local double @_ZNK15cDensityEstBase10getCellPDFEi(%class.cDensityEstBase*, i32) unnamed_addr #1

; Function Attrs: noinline nounwind uwtable
define linkonce_odr dso_local i64 @_ZNK15cDensityEstBase16getUnderflowCellEv(%class.cDensityEstBase* %this) unnamed_addr #5 comdat align 2 !dbg !4103 {
entry:
  %this.addr = alloca %class.cDensityEstBase*, align 8
  store %class.cDensityEstBase* %this, %class.cDensityEstBase** %this.addr, align 8
  call void @llvm.dbg.declare(metadata %class.cDensityEstBase** %this.addr, metadata !4107, metadata !DIExpression()), !dbg !4108
  %this1 = load %class.cDensityEstBase*, %class.cDensityEstBase** %this.addr, align 8
  %cell_under = getelementptr inbounds %class.cDensityEstBase, %class.cDensityEstBase* %this1, i32 0, i32 4, !dbg !4109
  %0 = load i64, i64* %cell_under, align 8, !dbg !4109
  ret i64 %0, !dbg !4110
}

; Function Attrs: noinline nounwind uwtable
define linkonce_odr dso_local i64 @_ZNK15cDensityEstBase15getOverflowCellEv(%class.cDensityEstBase* %this) unnamed_addr #5 comdat align 2 !dbg !4111 {
entry:
  %this.addr = alloca %class.cDensityEstBase*, align 8
  store %class.cDensityEstBase* %this, %class.cDensityEstBase** %this.addr, align 8
  call void @llvm.dbg.declare(metadata %class.cDensityEstBase** %this.addr, metadata !4113, metadata !DIExpression()), !dbg !4114
  %this1 = load %class.cDensityEstBase*, %class.cDensityEstBase** %this.addr, align 8
  %cell_over = getelementptr inbounds %class.cDensityEstBase, %class.cDensityEstBase* %this1, i32 0, i32 5, !dbg !4115
  %0 = load i64, i64* %cell_over, align 8, !dbg !4115
  ret i64 %0, !dbg !4116
}

declare dso_local void @_ZNK15cDensityEstBase11getCellInfoEi(%"struct.cDensityEstBase::Cell"* sret, %class.cDensityEstBase*, i32) unnamed_addr #1

; Function Attrs: noinline nounwind uwtable
define linkonce_odr dso_local void @_ZN17cEqdHistogramBaseD2Ev(%class.cEqdHistogramBase* %this) unnamed_addr #5 comdat align 2 !dbg !4117 {
entry:
  %this.addr = alloca %class.cEqdHistogramBase*, align 8
  store %class.cEqdHistogramBase* %this, %class.cEqdHistogramBase** %this.addr, align 8
  call void @llvm.dbg.declare(metadata %class.cEqdHistogramBase** %this.addr, metadata !4119, metadata !DIExpression()), !dbg !4120
  %this1 = load %class.cEqdHistogramBase*, %class.cEqdHistogramBase** %this.addr, align 8
  %0 = bitcast %class.cEqdHistogramBase* %this1 to %class.cHistogramBase*, !dbg !4121
  call void @_ZN14cHistogramBaseD2Ev(%class.cHistogramBase* %0) #3, !dbg !4121
  ret void, !dbg !4123
}

; Function Attrs: noinline nounwind uwtable
define linkonce_odr dso_local void @_ZN17cEqdHistogramBaseD0Ev(%class.cEqdHistogramBase* %this) unnamed_addr #5 comdat align 2 !dbg !4124 {
entry:
  %this.addr = alloca %class.cEqdHistogramBase*, align 8
  store %class.cEqdHistogramBase* %this, %class.cEqdHistogramBase** %this.addr, align 8
  call void @llvm.dbg.declare(metadata %class.cEqdHistogramBase** %this.addr, metadata !4125, metadata !DIExpression()), !dbg !4126
  %this1 = load %class.cEqdHistogramBase*, %class.cEqdHistogramBase** %this.addr, align 8
  call void @_ZN17cEqdHistogramBaseD2Ev(%class.cEqdHistogramBase* %this1) #3, !dbg !4127
  %0 = bitcast %class.cEqdHistogramBase* %this1 to i8*, !dbg !4127
  call void @_ZdlPv(i8* %0) #14, !dbg !4127
  ret void, !dbg !4127
}

; Function Attrs: noinline nounwind uwtable
define linkonce_odr dso_local double @_ZNK17cEqdHistogramBase11getCellSizeEv(%class.cEqdHistogramBase* %this) unnamed_addr #5 comdat align 2 !dbg !4128 {
entry:
  %this.addr = alloca %class.cEqdHistogramBase*, align 8
  store %class.cEqdHistogramBase* %this, %class.cEqdHistogramBase** %this.addr, align 8
  call void @llvm.dbg.declare(metadata %class.cEqdHistogramBase** %this.addr, metadata !4129, metadata !DIExpression()), !dbg !4130
  %this1 = load %class.cEqdHistogramBase*, %class.cEqdHistogramBase** %this.addr, align 8
  %cellsize = getelementptr inbounds %class.cEqdHistogramBase, %class.cEqdHistogramBase* %this1, i32 0, i32 1, !dbg !4131
  %0 = load double, double* %cellsize, align 8, !dbg !4131
  ret double %0, !dbg !4132
}

; Function Attrs: noinline uwtable
define linkonce_odr dso_local %class.cLongHistogram* @_ZNK14cLongHistogram3dupEv(%class.cLongHistogram* %this) unnamed_addr #0 comdat align 2 personality i8* bitcast (i32 (...)* @__gxx_personality_v0 to i8*) !dbg !4133 {
entry:
  %this.addr = alloca %class.cLongHistogram*, align 8
  %exn.slot = alloca i8*
  %ehselector.slot = alloca i32
  store %class.cLongHistogram* %this, %class.cLongHistogram** %this.addr, align 8
  call void @llvm.dbg.declare(metadata %class.cLongHistogram** %this.addr, metadata !4134, metadata !DIExpression()), !dbg !4135
  %this1 = load %class.cLongHistogram*, %class.cLongHistogram** %this.addr, align 8
  %call = call i8* @_Znwm(i64 192) #13, !dbg !4136
  %0 = bitcast i8* %call to %class.cLongHistogram*, !dbg !4136
  invoke void @_ZN14cLongHistogramC2ERKS_(%class.cLongHistogram* %0, %class.cLongHistogram* dereferenceable(192) %this1)
          to label %invoke.cont unwind label %lpad, !dbg !4137

invoke.cont:                                      ; preds = %entry
  ret %class.cLongHistogram* %0, !dbg !4138

lpad:                                             ; preds = %entry
  %1 = landingpad { i8*, i32 }
          cleanup, !dbg !4139
  %2 = extractvalue { i8*, i32 } %1, 0, !dbg !4139
  store i8* %2, i8** %exn.slot, align 8, !dbg !4139
  %3 = extractvalue { i8*, i32 } %1, 1, !dbg !4139
  store i32 %3, i32* %ehselector.slot, align 4, !dbg !4139
  call void @_ZdlPv(i8* %call) #14, !dbg !4136
  br label %eh.resume, !dbg !4136

eh.resume:                                        ; preds = %lpad
  %exn = load i8*, i8** %exn.slot, align 8, !dbg !4136
  %sel = load i32, i32* %ehselector.slot, align 4, !dbg !4136
  %lpad.val = insertvalue { i8*, i32 } undef, i8* %exn, 0, !dbg !4136
  %lpad.val2 = insertvalue { i8*, i32 } %lpad.val, i32 %sel, 1, !dbg !4136
  resume { i8*, i32 } %lpad.val2, !dbg !4136
}

; Function Attrs: noinline uwtable
define linkonce_odr dso_local void @_ZN14cLongHistogram7collectE7SimTime(%class.cLongHistogram* %this, %class.SimTime* %value) unnamed_addr #0 comdat align 2 !dbg !4140 {
entry:
  %this.addr = alloca %class.cLongHistogram*, align 8
  store %class.cLongHistogram* %this, %class.cLongHistogram** %this.addr, align 8
  call void @llvm.dbg.declare(metadata %class.cLongHistogram** %this.addr, metadata !4141, metadata !DIExpression()), !dbg !4142
  call void @llvm.dbg.declare(metadata %class.SimTime* %value, metadata !4143, metadata !DIExpression()), !dbg !4144
  %this1 = load %class.cLongHistogram*, %class.cLongHistogram** %this.addr, align 8
  %call = call double @_ZNK7SimTime3dblEv(%class.SimTime* %value), !dbg !4145
  %0 = bitcast %class.cLongHistogram* %this1 to void (%class.cLongHistogram*, double)***, !dbg !4146
  %vtable = load void (%class.cLongHistogram*, double)**, void (%class.cLongHistogram*, double)*** %0, align 8, !dbg !4146
  %vfn = getelementptr inbounds void (%class.cLongHistogram*, double)*, void (%class.cLongHistogram*, double)** %vtable, i64 25, !dbg !4146
  %1 = load void (%class.cLongHistogram*, double)*, void (%class.cLongHistogram*, double)** %vfn, align 8, !dbg !4146
  call void %1(%class.cLongHistogram* %this1, double %call), !dbg !4146
  ret void, !dbg !4147
}

; Function Attrs: noinline uwtable
define linkonce_odr dso_local %class.cDoubleHistogram* @_ZNK16cDoubleHistogram3dupEv(%class.cDoubleHistogram* %this) unnamed_addr #0 comdat align 2 personality i8* bitcast (i32 (...)* @__gxx_personality_v0 to i8*) !dbg !4148 {
entry:
  %this.addr = alloca %class.cDoubleHistogram*, align 8
  %exn.slot = alloca i8*
  %ehselector.slot = alloca i32
  store %class.cDoubleHistogram* %this, %class.cDoubleHistogram** %this.addr, align 8
