; ModuleID = 'simulator/unitconversion.cc'
source_filename = "simulator/unitconversion.cc"
target datalayout = "e-m:e-p270:32:32-p271:32:32-p272:64:64-i64:64-f80:128-n8:16:32:64-S128"
target triple = "x86_64-unknown-linux-gnu"

%"struct.UnitConversion::UnitDesc" = type { i8*, double, i8*, i8* }
%"class.std::__cxx11::basic_string" = type { %"struct.std::__cxx11::basic_string<char, std::char_traits<char>, std::allocator<char> >::_Alloc_hider", i64, %union.anon }
%"struct.std::__cxx11::basic_string<char, std::char_traits<char>, std::allocator<char> >::_Alloc_hider" = type { i8* }
%union.anon = type { i64, [8 x i8] }
%"class.std::allocator" = type { i8 }
%class.opp_runtime_error = type { %"class.std::runtime_error", %"class.std::__cxx11::basic_string" }
%"class.std::runtime_error" = type { %"class.std::exception", %"struct.std::__cow_string" }
%"class.std::exception" = type { i32 (...)** }
%"struct.std::__cow_string" = type { %union.anon.0 }
%union.anon.0 = type { i8* }
%"class.std::vector" = type { %"struct.std::_Vector_base" }
%"struct.std::_Vector_base" = type { %"struct.std::_Vector_base<const char *, std::allocator<const char *> >::_Vector_impl" }
%"struct.std::_Vector_base<const char *, std::allocator<const char *> >::_Vector_impl" = type { %"struct.std::_Vector_base<const char *, std::allocator<const char *> >::_Vector_impl_data" }
%"struct.std::_Vector_base<const char *, std::allocator<const char *> >::_Vector_impl_data" = type { i8**, i8**, i8** }
%"class.__gnu_cxx::__normal_iterator" = type { i8** }
%"class.std::allocator.1" = type { i8 }
%"class.__gnu_cxx::new_allocator.2" = type { i8 }
%"struct.std::integral_constant" = type { i8 }

$_Z11opp_isspaceh = comdat any

$_Z11opp_isalphah = comdat any

$_ZN17opp_runtime_errorD2Ev = comdat any

$_Z15opp_nulltoemptyPKc = comdat any

$_ZStplIcSt11char_traitsIcESaIcEENSt7__cxx1112basic_stringIT_T0_T1_EEOS8_PKS5_ = comdat any

$_Z10opp_strcmpPKcS0_ = comdat any

$_Z11opp_isemptyPKc = comdat any

$_ZNSt6vectorIPKcSaIS1_EEC2Ev = comdat any

$_ZNSt6vectorIPKcSaIS1_EE9push_backERKS1_ = comdat any

$_ZNSt6vectorIPKcSaIS1_EED2Ev = comdat any

$_ZN17opp_runtime_errorD0Ev = comdat any

$_ZNK17opp_runtime_error4whatEv = comdat any

$_ZNSt12_Vector_baseIPKcSaIS1_EEC2Ev = comdat any

$_ZNSt12_Vector_baseIPKcSaIS1_EE12_Vector_implC2Ev = comdat any

$_ZNSaIPKcEC2Ev = comdat any

$_ZNSt12_Vector_baseIPKcSaIS1_EE17_Vector_impl_dataC2Ev = comdat any

$_ZN9__gnu_cxx13new_allocatorIPKcEC2Ev = comdat any

$_ZSt4moveIRNSt7__cxx1112basic_stringIcSt11char_traitsIcESaIcEEEEONSt16remove_referenceIT_E4typeEOS8_ = comdat any

$_ZSt8_DestroyIPPKcS1_EvT_S3_RSaIT0_E = comdat any

$_ZNSt12_Vector_baseIPKcSaIS1_EE19_M_get_Tp_allocatorEv = comdat any

$_ZNSt12_Vector_baseIPKcSaIS1_EED2Ev = comdat any

$__clang_call_terminate = comdat any

$_ZSt8_DestroyIPPKcEvT_S3_ = comdat any

$_ZNSt12_Destroy_auxILb1EE9__destroyIPPKcEEvT_S5_ = comdat any

$_ZNSt12_Vector_baseIPKcSaIS1_EE13_M_deallocateEPS1_m = comdat any

$_ZNSt12_Vector_baseIPKcSaIS1_EE12_Vector_implD2Ev = comdat any

$_ZNSt16allocator_traitsISaIPKcEE10deallocateERS2_PS1_m = comdat any

$_ZN9__gnu_cxx13new_allocatorIPKcE10deallocateEPS2_m = comdat any

$_ZNSaIPKcED2Ev = comdat any

$_ZN9__gnu_cxx13new_allocatorIPKcED2Ev = comdat any

$_ZNSt16allocator_traitsISaIPKcEE9constructIS1_JRKS1_EEEvRS2_PT_DpOT0_ = comdat any

$_ZNSt6vectorIPKcSaIS1_EE17_M_realloc_insertIJRKS1_EEEvN9__gnu_cxx17__normal_iteratorIPS1_S3_EEDpOT_ = comdat any

$_ZNSt6vectorIPKcSaIS1_EE3endEv = comdat any

$_ZN9__gnu_cxx13new_allocatorIPKcE9constructIS2_JRKS2_EEEvPT_DpOT0_ = comdat any

$_ZSt7forwardIRKPKcEOT_RNSt16remove_referenceIS4_E4typeE = comdat any

$_ZNKSt6vectorIPKcSaIS1_EE12_M_check_lenEmS1_ = comdat any

$_ZN9__gnu_cxxmiIPPKcSt6vectorIS2_SaIS2_EEEENS_17__normal_iteratorIT_T0_E15difference_typeERKSA_SD_ = comdat any

$_ZNSt6vectorIPKcSaIS1_EE5beginEv = comdat any

$_ZNSt12_Vector_baseIPKcSaIS1_EE11_M_allocateEm = comdat any

$_ZNSt6vectorIPKcSaIS1_EE11_S_relocateEPS1_S4_S4_RS2_ = comdat any

$_ZNK9__gnu_cxx17__normal_iteratorIPPKcSt6vectorIS2_SaIS2_EEE4baseEv = comdat any

$_ZNKSt6vectorIPKcSaIS1_EE8max_sizeEv = comdat any

$_ZNKSt6vectorIPKcSaIS1_EE4sizeEv = comdat any

$_ZSt3maxImERKT_S2_S2_ = comdat any

$_ZNSt6vectorIPKcSaIS1_EE11_S_max_sizeERKS2_ = comdat any

$_ZNKSt12_Vector_baseIPKcSaIS1_EE19_M_get_Tp_allocatorEv = comdat any

$_ZNSt16allocator_traitsISaIPKcEE8max_sizeERKS2_ = comdat any

$_ZSt3minImERKT_S2_S2_ = comdat any

$_ZNK9__gnu_cxx13new_allocatorIPKcE8max_sizeEv = comdat any

$_ZNK9__gnu_cxx13new_allocatorIPKcE11_M_max_sizeEv = comdat any

$_ZN9__gnu_cxx17__normal_iteratorIPPKcSt6vectorIS2_SaIS2_EEEC2ERKS3_ = comdat any

$_ZNSt16allocator_traitsISaIPKcEE8allocateERS2_m = comdat any

$_ZN9__gnu_cxx13new_allocatorIPKcE8allocateEmPKv = comdat any

$_ZNSt6vectorIPKcSaIS1_EE14_S_do_relocateEPS1_S4_S4_RS2_St17integral_constantIbLb1EE = comdat any

$_ZSt12__relocate_aIPPKcS2_SaIS1_EET0_T_S5_S4_RT1_ = comdat any

$_ZSt14__relocate_a_1IPKcS1_ENSt9enable_ifIXsr3std24__is_bitwise_relocatableIT_EE5valueEPS3_E4typeES4_S4_S4_RSaIT0_E = comdat any

$_ZSt12__niter_baseIPPKcET_S3_ = comdat any

$_ZTS17opp_runtime_error = comdat any

$_ZTI17opp_runtime_error = comdat any

$_ZTV17opp_runtime_error = comdat any

@.str = private unnamed_addr constant [2 x i8] c"s\00", align 1
@.str.1 = private unnamed_addr constant [7 x i8] c"second\00", align 1
@.str.2 = private unnamed_addr constant [2 x i8] c"d\00", align 1
@.str.3 = private unnamed_addr constant [4 x i8] c"day\00", align 1
@.str.4 = private unnamed_addr constant [2 x i8] c"h\00", align 1
@.str.5 = private unnamed_addr constant [5 x i8] c"hour\00", align 1
@.str.6 = private unnamed_addr constant [4 x i8] c"min\00", align 1
@.str.7 = private unnamed_addr constant [7 x i8] c"minute\00", align 1
@.str.8 = private unnamed_addr constant [3 x i8] c"ms\00", align 1
@.str.9 = private unnamed_addr constant [12 x i8] c"millisecond\00", align 1
@.str.10 = private unnamed_addr constant [3 x i8] c"us\00", align 1
@.str.11 = private unnamed_addr constant [12 x i8] c"microsecond\00", align 1
@.str.12 = private unnamed_addr constant [3 x i8] c"ns\00", align 1
@.str.13 = private unnamed_addr constant [11 x i8] c"nanosecond\00", align 1
@.str.14 = private unnamed_addr constant [3 x i8] c"ps\00", align 1
@.str.15 = private unnamed_addr constant [11 x i8] c"picosecond\00", align 1
@.str.16 = private unnamed_addr constant [4 x i8] c"bps\00", align 1
@.str.17 = private unnamed_addr constant [8 x i8] c"bit/sec\00", align 1
@.str.18 = private unnamed_addr constant [5 x i8] c"Kbps\00", align 1
@.str.19 = private unnamed_addr constant [12 x i8] c"kilobit/sec\00", align 1
@.str.20 = private unnamed_addr constant [5 x i8] c"Mbps\00", align 1
@.str.21 = private unnamed_addr constant [12 x i8] c"megabit/sec\00", align 1
@.str.22 = private unnamed_addr constant [5 x i8] c"Gbps\00", align 1
@.str.23 = private unnamed_addr constant [12 x i8] c"gigabit/sec\00", align 1
@.str.24 = private unnamed_addr constant [5 x i8] c"Tbps\00", align 1
@.str.25 = private unnamed_addr constant [12 x i8] c"terabit/sec\00", align 1
@.str.26 = private unnamed_addr constant [2 x i8] c"B\00", align 1
@.str.27 = private unnamed_addr constant [5 x i8] c"byte\00", align 1
@.str.28 = private unnamed_addr constant [3 x i8] c"KB\00", align 1
@.str.29 = private unnamed_addr constant [9 x i8] c"kilobyte\00", align 1
@.str.30 = private unnamed_addr constant [3 x i8] c"MB\00", align 1
@.str.31 = private unnamed_addr constant [9 x i8] c"megabyte\00", align 1
@.str.32 = private unnamed_addr constant [3 x i8] c"GB\00", align 1
@.str.33 = private unnamed_addr constant [9 x i8] c"gigabyte\00", align 1
@.str.34 = private unnamed_addr constant [3 x i8] c"TB\00", align 1
@.str.35 = private unnamed_addr constant [9 x i8] c"terabyte\00", align 1
@.str.36 = private unnamed_addr constant [2 x i8] c"b\00", align 1
@.str.37 = private unnamed_addr constant [4 x i8] c"bit\00", align 1
@.str.38 = private unnamed_addr constant [2 x i8] c"m\00", align 1
@.str.39 = private unnamed_addr constant [6 x i8] c"meter\00", align 1
@.str.40 = private unnamed_addr constant [3 x i8] c"km\00", align 1
@.str.41 = private unnamed_addr constant [10 x i8] c"kilometer\00", align 1
@.str.42 = private unnamed_addr constant [3 x i8] c"cm\00", align 1
@.str.43 = private unnamed_addr constant [11 x i8] c"centimeter\00", align 1
@.str.44 = private unnamed_addr constant [3 x i8] c"mm\00", align 1
@.str.45 = private unnamed_addr constant [11 x i8] c"millimeter\00", align 1
@.str.46 = private unnamed_addr constant [2 x i8] c"W\00", align 1
@.str.47 = private unnamed_addr constant [5 x i8] c"watt\00", align 1
@.str.48 = private unnamed_addr constant [3 x i8] c"mW\00", align 1
@.str.49 = private unnamed_addr constant [10 x i8] c"milliwatt\00", align 1
@.str.50 = private unnamed_addr constant [3 x i8] c"Hz\00", align 1
@.str.51 = private unnamed_addr constant [5 x i8] c"herz\00", align 1
@.str.52 = private unnamed_addr constant [4 x i8] c"kHz\00", align 1
@.str.53 = private unnamed_addr constant [9 x i8] c"kiloherz\00", align 1
@.str.54 = private unnamed_addr constant [4 x i8] c"MHz\00", align 1
@.str.55 = private unnamed_addr constant [9 x i8] c"megaherz\00", align 1
@.str.56 = private unnamed_addr constant [4 x i8] c"GHz\00", align 1
@.str.57 = private unnamed_addr constant [9 x i8] c"gigaherz\00", align 1
@.str.58 = private unnamed_addr constant [3 x i8] c"kg\00", align 1
@.str.59 = private unnamed_addr constant [9 x i8] c"kilogram\00", align 1
@.str.60 = private unnamed_addr constant [2 x i8] c"g\00", align 1
@.str.61 = private unnamed_addr constant [5 x i8] c"gram\00", align 1
@.str.62 = private unnamed_addr constant [2 x i8] c"J\00", align 1
@.str.63 = private unnamed_addr constant [6 x i8] c"joule\00", align 1
@.str.64 = private unnamed_addr constant [3 x i8] c"kJ\00", align 1
@.str.65 = private unnamed_addr constant [10 x i8] c"kilojoule\00", align 1
@.str.66 = private unnamed_addr constant [3 x i8] c"MJ\00", align 1
@.str.67 = private unnamed_addr constant [10 x i8] c"megajoule\00", align 1
@.str.68 = private unnamed_addr constant [2 x i8] c"V\00", align 1
@.str.69 = private unnamed_addr constant [5 x i8] c"volt\00", align 1
@.str.70 = private unnamed_addr constant [3 x i8] c"kV\00", align 1
@.str.71 = private unnamed_addr constant [9 x i8] c"kilovolt\00", align 1
@.str.72 = private unnamed_addr constant [3 x i8] c"mV\00", align 1
@.str.73 = private unnamed_addr constant [10 x i8] c"millivolt\00", align 1
@.str.74 = private unnamed_addr constant [2 x i8] c"A\00", align 1
@.str.75 = private unnamed_addr constant [6 x i8] c"amper\00", align 1
@.str.76 = private unnamed_addr constant [3 x i8] c"mA\00", align 1
@.str.77 = private unnamed_addr constant [11 x i8] c"milliamper\00", align 1
@.str.78 = private unnamed_addr constant [3 x i8] c"uA\00", align 1
@.str.79 = private unnamed_addr constant [11 x i8] c"microamper\00", align 1
@_ZN14UnitConversion9unitTableE = dso_local global [41 x %"struct.UnitConversion::UnitDesc"] [%"struct.UnitConversion::UnitDesc" { i8* getelementptr inbounds ([2 x i8], [2 x i8]* @.str, i32 0, i32 0), double 1.000000e+00, i8* getelementptr inbounds ([2 x i8], [2 x i8]* @.str, i32 0, i32 0), i8* getelementptr inbounds ([7 x i8], [7 x i8]* @.str.1, i32 0, i32 0) }, %"struct.UnitConversion::UnitDesc" { i8* getelementptr inbounds ([2 x i8], [2 x i8]* @.str.2, i32 0, i32 0), double 8.640000e+04, i8* getelementptr inbounds ([2 x i8], [2 x i8]* @.str, i32 0, i32 0), i8* getelementptr inbounds ([4 x i8], [4 x i8]* @.str.3, i32 0, i32 0) }, %"struct.UnitConversion::UnitDesc" { i8* getelementptr inbounds ([2 x i8], [2 x i8]* @.str.4, i32 0, i32 0), double 3.600000e+03, i8* getelementptr inbounds ([2 x i8], [2 x i8]* @.str, i32 0, i32 0), i8* getelementptr inbounds ([5 x i8], [5 x i8]* @.str.5, i32 0, i32 0) }, %"struct.UnitConversion::UnitDesc" { i8* getelementptr inbounds ([4 x i8], [4 x i8]* @.str.6, i32 0, i32 0), double 6.000000e+01, i8* getelementptr inbounds ([2 x i8], [2 x i8]* @.str, i32 0, i32 0), i8* getelementptr inbounds ([7 x i8], [7 x i8]* @.str.7, i32 0, i32 0) }, %"struct.UnitConversion::UnitDesc" { i8* getelementptr inbounds ([3 x i8], [3 x i8]* @.str.8, i32 0, i32 0), double 1.000000e-03, i8* getelementptr inbounds ([2 x i8], [2 x i8]* @.str, i32 0, i32 0), i8* getelementptr inbounds ([12 x i8], [12 x i8]* @.str.9, i32 0, i32 0) }, %"struct.UnitConversion::UnitDesc" { i8* getelementptr inbounds ([3 x i8], [3 x i8]* @.str.10, i32 0, i32 0), double 0x3EB0C6F7A0B5ED8D, i8* getelementptr inbounds ([2 x i8], [2 x i8]* @.str, i32 0, i32 0), i8* getelementptr inbounds ([12 x i8], [12 x i8]* @.str.11, i32 0, i32 0) }, %"struct.UnitConversion::UnitDesc" { i8* getelementptr inbounds ([3 x i8], [3 x i8]* @.str.12, i32 0, i32 0), double 1.000000e-09, i8* getelementptr inbounds ([2 x i8], [2 x i8]* @.str, i32 0, i32 0), i8* getelementptr inbounds ([11 x i8], [11 x i8]* @.str.13, i32 0, i32 0) }, %"struct.UnitConversion::UnitDesc" { i8* getelementptr inbounds ([3 x i8], [3 x i8]* @.str.14, i32 0, i32 0), double 0x3D719799812DEA11, i8* getelementptr inbounds ([2 x i8], [2 x i8]* @.str, i32 0, i32 0), i8* getelementptr inbounds ([11 x i8], [11 x i8]* @.str.15, i32 0, i32 0) }, %"struct.UnitConversion::UnitDesc" { i8* getelementptr inbounds ([4 x i8], [4 x i8]* @.str.16, i32 0, i32 0), double 1.000000e+00, i8* getelementptr inbounds ([4 x i8], [4 x i8]* @.str.16, i32 0, i32 0), i8* getelementptr inbounds ([8 x i8], [8 x i8]* @.str.17, i32 0, i32 0) }, %"struct.UnitConversion::UnitDesc" { i8* getelementptr inbounds ([5 x i8], [5 x i8]* @.str.18, i32 0, i32 0), double 1.000000e+03, i8* getelementptr inbounds ([4 x i8], [4 x i8]* @.str.16, i32 0, i32 0), i8* getelementptr inbounds ([12 x i8], [12 x i8]* @.str.19, i32 0, i32 0) }, %"struct.UnitConversion::UnitDesc" { i8* getelementptr inbounds ([5 x i8], [5 x i8]* @.str.20, i32 0, i32 0), double 1.000000e+06, i8* getelementptr inbounds ([4 x i8], [4 x i8]* @.str.16, i32 0, i32 0), i8* getelementptr inbounds ([12 x i8], [12 x i8]* @.str.21, i32 0, i32 0) }, %"struct.UnitConversion::UnitDesc" { i8* getelementptr inbounds ([5 x i8], [5 x i8]* @.str.22, i32 0, i32 0), double 1.000000e+09, i8* getelementptr inbounds ([4 x i8], [4 x i8]* @.str.16, i32 0, i32 0), i8* getelementptr inbounds ([12 x i8], [12 x i8]* @.str.23, i32 0, i32 0) }, %"struct.UnitConversion::UnitDesc" { i8* getelementptr inbounds ([5 x i8], [5 x i8]* @.str.24, i32 0, i32 0), double 1.000000e+12, i8* getelementptr inbounds ([4 x i8], [4 x i8]* @.str.16, i32 0, i32 0), i8* getelementptr inbounds ([12 x i8], [12 x i8]* @.str.25, i32 0, i32 0) }, %"struct.UnitConversion::UnitDesc" { i8* getelementptr inbounds ([2 x i8], [2 x i8]* @.str.26, i32 0, i32 0), double 1.000000e+00, i8* getelementptr inbounds ([2 x i8], [2 x i8]* @.str.26, i32 0, i32 0), i8* getelementptr inbounds ([5 x i8], [5 x i8]* @.str.27, i32 0, i32 0) }, %"struct.UnitConversion::UnitDesc" { i8* getelementptr inbounds ([3 x i8], [3 x i8]* @.str.28, i32 0, i32 0), double 1.024000e+03, i8* getelementptr inbounds ([2 x i8], [2 x i8]* @.str.26, i32 0, i32 0), i8* getelementptr inbounds ([9 x i8], [9 x i8]* @.str.29, i32 0, i32 0) }, %"struct.UnitConversion::UnitDesc" { i8* getelementptr inbounds ([3 x i8], [3 x i8]* @.str.30, i32 0, i32 0), double 0x4130000000000000, i8* getelementptr inbounds ([2 x i8], [2 x i8]* @.str.26, i32 0, i32 0), i8* getelementptr inbounds ([9 x i8], [9 x i8]* @.str.31, i32 0, i32 0) }, %"struct.UnitConversion::UnitDesc" { i8* getelementptr inbounds ([3 x i8], [3 x i8]* @.str.32, i32 0, i32 0), double 0x41D0000000000000, i8* getelementptr inbounds ([2 x i8], [2 x i8]* @.str.26, i32 0, i32 0), i8* getelementptr inbounds ([9 x i8], [9 x i8]* @.str.33, i32 0, i32 0) }, %"struct.UnitConversion::UnitDesc" { i8* getelementptr inbounds ([3 x i8], [3 x i8]* @.str.34, i32 0, i32 0), double 0x4270000000000000, i8* getelementptr inbounds ([2 x i8], [2 x i8]* @.str.26, i32 0, i32 0), i8* getelementptr inbounds ([9 x i8], [9 x i8]* @.str.35, i32 0, i32 0) }, %"struct.UnitConversion::UnitDesc" { i8* getelementptr inbounds ([2 x i8], [2 x i8]* @.str.36, i32 0, i32 0), double 1.000000e+00, i8* getelementptr inbounds ([2 x i8], [2 x i8]* @.str.36, i32 0, i32 0), i8* getelementptr inbounds ([4 x i8], [4 x i8]* @.str.37, i32 0, i32 0) }, %"struct.UnitConversion::UnitDesc" { i8* getelementptr inbounds ([2 x i8], [2 x i8]* @.str.38, i32 0, i32 0), double 1.000000e+00, i8* getelementptr inbounds ([2 x i8], [2 x i8]* @.str.38, i32 0, i32 0), i8* getelementptr inbounds ([6 x i8], [6 x i8]* @.str.39, i32 0, i32 0) }, %"struct.UnitConversion::UnitDesc" { i8* getelementptr inbounds ([3 x i8], [3 x i8]* @.str.40, i32 0, i32 0), double 1.000000e+03, i8* getelementptr inbounds ([2 x i8], [2 x i8]* @.str.38, i32 0, i32 0), i8* getelementptr inbounds ([10 x i8], [10 x i8]* @.str.41, i32 0, i32 0) }, %"struct.UnitConversion::UnitDesc" { i8* getelementptr inbounds ([3 x i8], [3 x i8]* @.str.42, i32 0, i32 0), double 1.000000e-02, i8* getelementptr inbounds ([2 x i8], [2 x i8]* @.str.38, i32 0, i32 0), i8* getelementptr inbounds ([11 x i8], [11 x i8]* @.str.43, i32 0, i32 0) }, %"struct.UnitConversion::UnitDesc" { i8* getelementptr inbounds ([3 x i8], [3 x i8]* @.str.44, i32 0, i32 0), double 1.000000e-03, i8* getelementptr inbounds ([2 x i8], [2 x i8]* @.str.38, i32 0, i32 0), i8* getelementptr inbounds ([11 x i8], [11 x i8]* @.str.45, i32 0, i32 0) }, %"struct.UnitConversion::UnitDesc" { i8* getelementptr inbounds ([2 x i8], [2 x i8]* @.str.46, i32 0, i32 0), double 1.000000e+00, i8* getelementptr inbounds ([2 x i8], [2 x i8]* @.str.46, i32 0, i32 0), i8* getelementptr inbounds ([5 x i8], [5 x i8]* @.str.47, i32 0, i32 0) }, %"struct.UnitConversion::UnitDesc" { i8* getelementptr inbounds ([3 x i8], [3 x i8]* @.str.48, i32 0, i32 0), double 1.000000e-03, i8* getelementptr inbounds ([2 x i8], [2 x i8]* @.str.46, i32 0, i32 0), i8* getelementptr inbounds ([10 x i8], [10 x i8]* @.str.49, i32 0, i32 0) }, %"struct.UnitConversion::UnitDesc" { i8* getelementptr inbounds ([3 x i8], [3 x i8]* @.str.50, i32 0, i32 0), double 1.000000e+00, i8* getelementptr inbounds ([3 x i8], [3 x i8]* @.str.50, i32 0, i32 0), i8* getelementptr inbounds ([5 x i8], [5 x i8]* @.str.51, i32 0, i32 0) }, %"struct.UnitConversion::UnitDesc" { i8* getelementptr inbounds ([4 x i8], [4 x i8]* @.str.52, i32 0, i32 0), double 1.000000e+03, i8* getelementptr inbounds ([3 x i8], [3 x i8]* @.str.50, i32 0, i32 0), i8* getelementptr inbounds ([9 x i8], [9 x i8]* @.str.53, i32 0, i32 0) }, %"struct.UnitConversion::UnitDesc" { i8* getelementptr inbounds ([4 x i8], [4 x i8]* @.str.54, i32 0, i32 0), double 1.000000e+06, i8* getelementptr inbounds ([3 x i8], [3 x i8]* @.str.50, i32 0, i32 0), i8* getelementptr inbounds ([9 x i8], [9 x i8]* @.str.55, i32 0, i32 0) }, %"struct.UnitConversion::UnitDesc" { i8* getelementptr inbounds ([4 x i8], [4 x i8]* @.str.56, i32 0, i32 0), double 1.000000e+09, i8* getelementptr inbounds ([3 x i8], [3 x i8]* @.str.50, i32 0, i32 0), i8* getelementptr inbounds ([9 x i8], [9 x i8]* @.str.57, i32 0, i32 0) }, %"struct.UnitConversion::UnitDesc" { i8* getelementptr inbounds ([3 x i8], [3 x i8]* @.str.58, i32 0, i32 0), double 1.000000e+00, i8* getelementptr inbounds ([3 x i8], [3 x i8]* @.str.58, i32 0, i32 0), i8* getelementptr inbounds ([9 x i8], [9 x i8]* @.str.59, i32 0, i32 0) }, %"struct.UnitConversion::UnitDesc" { i8* getelementptr inbounds ([2 x i8], [2 x i8]* @.str.60, i32 0, i32 0), double 1.000000e-03, i8* getelementptr inbounds ([3 x i8], [3 x i8]* @.str.58, i32 0, i32 0), i8* getelementptr inbounds ([5 x i8], [5 x i8]* @.str.61, i32 0, i32 0) }, %"struct.UnitConversion::UnitDesc" { i8* getelementptr inbounds ([2 x i8], [2 x i8]* @.str.62, i32 0, i32 0), double 1.000000e+00, i8* getelementptr inbounds ([2 x i8], [2 x i8]* @.str.62, i32 0, i32 0), i8* getelementptr inbounds ([6 x i8], [6 x i8]* @.str.63, i32 0, i32 0) }, %"struct.UnitConversion::UnitDesc" { i8* getelementptr inbounds ([3 x i8], [3 x i8]* @.str.64, i32 0, i32 0), double 1.000000e+03, i8* getelementptr inbounds ([2 x i8], [2 x i8]* @.str.62, i32 0, i32 0), i8* getelementptr inbounds ([10 x i8], [10 x i8]* @.str.65, i32 0, i32 0) }, %"struct.UnitConversion::UnitDesc" { i8* getelementptr inbounds ([3 x i8], [3 x i8]* @.str.66, i32 0, i32 0), double 1.000000e+06, i8* getelementptr inbounds ([2 x i8], [2 x i8]* @.str.62, i32 0, i32 0), i8* getelementptr inbounds ([10 x i8], [10 x i8]* @.str.67, i32 0, i32 0) }, %"struct.UnitConversion::UnitDesc" { i8* getelementptr inbounds ([2 x i8], [2 x i8]* @.str.68, i32 0, i32 0), double 1.000000e+00, i8* getelementptr inbounds ([2 x i8], [2 x i8]* @.str.68, i32 0, i32 0), i8* getelementptr inbounds ([5 x i8], [5 x i8]* @.str.69, i32 0, i32 0) }, %"struct.UnitConversion::UnitDesc" { i8* getelementptr inbounds ([3 x i8], [3 x i8]* @.str.70, i32 0, i32 0), double 1.000000e+03, i8* getelementptr inbounds ([2 x i8], [2 x i8]* @.str.68, i32 0, i32 0), i8* getelementptr inbounds ([9 x i8], [9 x i8]* @.str.71, i32 0, i32 0) }, %"struct.UnitConversion::UnitDesc" { i8* getelementptr inbounds ([3 x i8], [3 x i8]* @.str.72, i32 0, i32 0), double 1.000000e-03, i8* getelementptr inbounds ([2 x i8], [2 x i8]* @.str.68, i32 0, i32 0), i8* getelementptr inbounds ([10 x i8], [10 x i8]* @.str.73, i32 0, i32 0) }, %"struct.UnitConversion::UnitDesc" { i8* getelementptr inbounds ([2 x i8], [2 x i8]* @.str.74, i32 0, i32 0), double 1.000000e+00, i8* getelementptr inbounds ([2 x i8], [2 x i8]* @.str.74, i32 0, i32 0), i8* getelementptr inbounds ([6 x i8], [6 x i8]* @.str.75, i32 0, i32 0) }, %"struct.UnitConversion::UnitDesc" { i8* getelementptr inbounds ([3 x i8], [3 x i8]* @.str.76, i32 0, i32 0), double 1.000000e-03, i8* getelementptr inbounds ([2 x i8], [2 x i8]* @.str.74, i32 0, i32 0), i8* getelementptr inbounds ([11 x i8], [11 x i8]* @.str.77, i32 0, i32 0) }, %"struct.UnitConversion::UnitDesc" { i8* getelementptr inbounds ([3 x i8], [3 x i8]* @.str.78, i32 0, i32 0), double 0x3EB0C6F7A0B5ED8D, i8* getelementptr inbounds ([2 x i8], [2 x i8]* @.str.74, i32 0, i32 0), i8* getelementptr inbounds ([11 x i8], [11 x i8]* @.str.79, i32 0, i32 0) }, %"struct.UnitConversion::UnitDesc" zeroinitializer], align 16, !dbg !0
@.str.80 = private unnamed_addr constant [2 x i8] c"C\00", align 1
@.str.81 = private unnamed_addr constant [6 x i8] c"%lf%n\00", align 1
@.str.82 = private unnamed_addr constant [1 x i8] zeroinitializer, align 1
@.str.83 = private unnamed_addr constant [61 x i8] c"Syntax error parsing quantity '%s': must begin with a number\00", align 1
@_ZTVN10__cxxabiv120__si_class_type_infoE = external dso_local global i8*
@_ZTS17opp_runtime_error = linkonce_odr dso_local constant [20 x i8] c"17opp_runtime_error\00", comdat, align 1
@_ZTISt13runtime_error = external dso_local constant i8*
@_ZTI17opp_runtime_error = linkonce_odr dso_local constant { i8*, i8*, i8* } { i8* bitcast (i8** getelementptr inbounds (i8*, i8** @_ZTVN10__cxxabiv120__si_class_type_infoE, i64 2) to i8*), i8* getelementptr inbounds ([20 x i8], [20 x i8]* @_ZTS17opp_runtime_error, i32 0, i32 0), i8* bitcast (i8** @_ZTISt13runtime_error to i8*) }, comdat, align 8
@.str.84 = private unnamed_addr constant [63 x i8] c"Syntax error parsing quantity '%s': garbage after first number\00", align 1
@.str.85 = private unnamed_addr constant [49 x i8] c"syntax error parsing quantity '%s': missing unit\00", align 1
@.str.86 = private unnamed_addr constant [50 x i8] c"error in quantity '%s': unit %s does not match %s\00", align 1
@.str.87 = private unnamed_addr constant [35 x i8] c"syntax error parsing quantity '%s'\00", align 1
@.str.88 = private unnamed_addr constant [5 x i8] c"%g%s\00", align 1
@.str.89 = private unnamed_addr constant [2 x i8] c"'\00", align 1
@.str.90 = private unnamed_addr constant [3 x i8] c" (\00", align 1
@.str.91 = private unnamed_addr constant [2 x i8] c")\00", align 1
@.str.92 = private unnamed_addr constant [29 x i8] c"Cannot convert unit %s to %s\00", align 1
@.str.93 = private unnamed_addr constant [5 x i8] c"none\00", align 1
@_ZTV17opp_runtime_error = linkonce_odr dso_local unnamed_addr constant { [5 x i8*] } { [5 x i8*] [i8* null, i8* bitcast ({ i8*, i8*, i8* }* @_ZTI17opp_runtime_error to i8*), i8* bitcast (void (%class.opp_runtime_error*)* @_ZN17opp_runtime_errorD2Ev to i8*), i8* bitcast (void (%class.opp_runtime_error*)* @_ZN17opp_runtime_errorD0Ev to i8*), i8* bitcast (i8* (%class.opp_runtime_error*)* @_ZNK17opp_runtime_error4whatEv to i8*)] }, comdat, align 8
@.str.94 = private unnamed_addr constant [26 x i8] c"vector::_M_realloc_insert\00", align 1

; Function Attrs: noinline uwtable
define dso_local %"struct.UnitConversion::UnitDesc"* @_ZN14UnitConversion10lookupUnitEPKc(i8* %unit) #0 align 2 personality i8* bitcast (i32 (...)* @__gxx_personality_v0 to i8*) !dbg !1441 {
entry:
  %retval = alloca %"struct.UnitConversion::UnitDesc"*, align 8
  %unit.addr = alloca i8*, align 8
  %i = alloca i32, align 4
  %i6 = alloca i32, align 4
  %tmp = alloca %"class.std::__cxx11::basic_string", align 8
  %ref.tmp = alloca %"class.std::allocator", align 1
  %exn.slot = alloca i8*
  %ehselector.slot = alloca i32
  %i29 = alloca i32, align 4
  %cleanup.dest.slot = alloca i32, align 4
  store i8* %unit, i8** %unit.addr, align 8
  call void @llvm.dbg.declare(metadata i8** %unit.addr, metadata !1442, metadata !DIExpression()), !dbg !1443
  call void @llvm.dbg.declare(metadata i32* %i, metadata !1444, metadata !DIExpression()), !dbg !1446
  store i32 0, i32* %i, align 4, !dbg !1446
  br label %for.cond, !dbg !1447

for.cond:                                         ; preds = %for.inc, %entry
  %0 = load i32, i32* %i, align 4, !dbg !1448
  %idxprom = sext i32 %0 to i64, !dbg !1450
  %arrayidx = getelementptr inbounds [41 x %"struct.UnitConversion::UnitDesc"], [41 x %"struct.UnitConversion::UnitDesc"]* @_ZN14UnitConversion9unitTableE, i64 0, i64 %idxprom, !dbg !1450
  %unit1 = getelementptr inbounds %"struct.UnitConversion::UnitDesc", %"struct.UnitConversion::UnitDesc"* %arrayidx, i32 0, i32 0, !dbg !1451
  %1 = load i8*, i8** %unit1, align 16, !dbg !1451
  %tobool = icmp ne i8* %1, null, !dbg !1450
  br i1 %tobool, label %for.body, label %for.end, !dbg !1452

for.body:                                         ; preds = %for.cond
  %2 = load i32, i32* %i, align 4, !dbg !1453
  %idxprom2 = sext i32 %2 to i64, !dbg !1455
  %arrayidx3 = getelementptr inbounds [41 x %"struct.UnitConversion::UnitDesc"], [41 x %"struct.UnitConversion::UnitDesc"]* @_ZN14UnitConversion9unitTableE, i64 0, i64 %idxprom2, !dbg !1455
  %unit4 = getelementptr inbounds %"struct.UnitConversion::UnitDesc", %"struct.UnitConversion::UnitDesc"* %arrayidx3, i32 0, i32 0, !dbg !1456
  %3 = load i8*, i8** %unit4, align 16, !dbg !1456
  %4 = load i8*, i8** %unit.addr, align 8, !dbg !1457
  %call = call i32 @strcmp(i8* %3, i8* %4) #11, !dbg !1458
  %tobool5 = icmp ne i32 %call, 0, !dbg !1458
  br i1 %tobool5, label %if.end, label %if.then, !dbg !1459

if.then:                                          ; preds = %for.body
  %5 = load i32, i32* %i, align 4, !dbg !1460
  %idx.ext = sext i32 %5 to i64, !dbg !1461
  %add.ptr = getelementptr inbounds %"struct.UnitConversion::UnitDesc", %"struct.UnitConversion::UnitDesc"* getelementptr inbounds ([41 x %"struct.UnitConversion::UnitDesc"], [41 x %"struct.UnitConversion::UnitDesc"]* @_ZN14UnitConversion9unitTableE, i64 0, i64 0), i64 %idx.ext, !dbg !1461
  store %"struct.UnitConversion::UnitDesc"* %add.ptr, %"struct.UnitConversion::UnitDesc"** %retval, align 8, !dbg !1462
  br label %return, !dbg !1462

if.end:                                           ; preds = %for.body
  br label %for.inc, !dbg !1463

for.inc:                                          ; preds = %if.end
  %6 = load i32, i32* %i, align 4, !dbg !1464
  %inc = add nsw i32 %6, 1, !dbg !1464
  store i32 %inc, i32* %i, align 4, !dbg !1464
  br label %for.cond, !dbg !1465, !llvm.loop !1466

for.end:                                          ; preds = %for.cond
  call void @llvm.dbg.declare(metadata i32* %i6, metadata !1468, metadata !DIExpression()), !dbg !1470
  store i32 0, i32* %i6, align 4, !dbg !1470
  br label %for.cond7, !dbg !1471

for.cond7:                                        ; preds = %for.inc21, %for.end
  %7 = load i32, i32* %i6, align 4, !dbg !1472
  %idxprom8 = sext i32 %7 to i64, !dbg !1474
  %arrayidx9 = getelementptr inbounds [41 x %"struct.UnitConversion::UnitDesc"], [41 x %"struct.UnitConversion::UnitDesc"]* @_ZN14UnitConversion9unitTableE, i64 0, i64 %idxprom8, !dbg !1474
  %unit10 = getelementptr inbounds %"struct.UnitConversion::UnitDesc", %"struct.UnitConversion::UnitDesc"* %arrayidx9, i32 0, i32 0, !dbg !1475
  %8 = load i8*, i8** %unit10, align 16, !dbg !1475
  %tobool11 = icmp ne i8* %8, null, !dbg !1474
  br i1 %tobool11, label %for.body12, label %for.end23, !dbg !1476

for.body12:                                       ; preds = %for.cond7
  %9 = load i32, i32* %i6, align 4, !dbg !1477
  %idxprom13 = sext i32 %9 to i64, !dbg !1479
  %arrayidx14 = getelementptr inbounds [41 x %"struct.UnitConversion::UnitDesc"], [41 x %"struct.UnitConversion::UnitDesc"]* @_ZN14UnitConversion9unitTableE, i64 0, i64 %idxprom13, !dbg !1479
  %longName = getelementptr inbounds %"struct.UnitConversion::UnitDesc", %"struct.UnitConversion::UnitDesc"* %arrayidx14, i32 0, i32 3, !dbg !1480
  %10 = load i8*, i8** %longName, align 8, !dbg !1480
  %11 = load i8*, i8** %unit.addr, align 8, !dbg !1481
  %call15 = call i32 @strcasecmp(i8* %10, i8* %11) #11, !dbg !1482
  %tobool16 = icmp ne i32 %call15, 0, !dbg !1482
  br i1 %tobool16, label %if.end20, label %if.then17, !dbg !1483

if.then17:                                        ; preds = %for.body12
  %12 = load i32, i32* %i6, align 4, !dbg !1484
  %idx.ext18 = sext i32 %12 to i64, !dbg !1485
  %add.ptr19 = getelementptr inbounds %"struct.UnitConversion::UnitDesc", %"struct.UnitConversion::UnitDesc"* getelementptr inbounds ([41 x %"struct.UnitConversion::UnitDesc"], [41 x %"struct.UnitConversion::UnitDesc"]* @_ZN14UnitConversion9unitTableE, i64 0, i64 0), i64 %idx.ext18, !dbg !1485
  store %"struct.UnitConversion::UnitDesc"* %add.ptr19, %"struct.UnitConversion::UnitDesc"** %retval, align 8, !dbg !1486
  br label %return, !dbg !1486

if.end20:                                         ; preds = %for.body12
  br label %for.inc21, !dbg !1487

for.inc21:                                        ; preds = %if.end20
  %13 = load i32, i32* %i6, align 4, !dbg !1488
  %inc22 = add nsw i32 %13, 1, !dbg !1488
  store i32 %inc22, i32* %i6, align 4, !dbg !1488
  br label %for.cond7, !dbg !1489, !llvm.loop !1490

for.end23:                                        ; preds = %for.cond7
  %14 = load i8*, i8** %unit.addr, align 8, !dbg !1492
  %15 = load i8*, i8** %unit.addr, align 8, !dbg !1494
  %call24 = call i64 @strlen(i8* %15) #11, !dbg !1495
  %sub = sub i64 %call24, 1, !dbg !1496
  %arrayidx25 = getelementptr inbounds i8, i8* %14, i64 %sub, !dbg !1492
  %16 = load i8, i8* %arrayidx25, align 1, !dbg !1492
  %conv = sext i8 %16 to i32, !dbg !1492
  %cmp = icmp eq i32 %conv, 115, !dbg !1497
  br i1 %cmp, label %if.then26, label %if.end49, !dbg !1498

if.then26:                                        ; preds = %for.end23
  call void @llvm.dbg.declare(metadata %"class.std::__cxx11::basic_string"* %tmp, metadata !1499, metadata !DIExpression()), !dbg !1501
  %17 = load i8*, i8** %unit.addr, align 8, !dbg !1502
  %18 = load i8*, i8** %unit.addr, align 8, !dbg !1503
  %call27 = call i64 @strlen(i8* %18) #11, !dbg !1504
  %sub28 = sub i64 %call27, 1, !dbg !1505
  call void @_ZNSaIcEC1Ev(%"class.std::allocator"* %ref.tmp) #12, !dbg !1506
  invoke void @_ZNSt7__cxx1112basic_stringIcSt11char_traitsIcESaIcEEC1EPKcmRKS3_(%"class.std::__cxx11::basic_string"* %tmp, i8* %17, i64 %sub28, %"class.std::allocator"* dereferenceable(1) %ref.tmp)
          to label %invoke.cont unwind label %lpad, !dbg !1506

invoke.cont:                                      ; preds = %if.then26
  call void @_ZNSaIcED1Ev(%"class.std::allocator"* %ref.tmp) #12, !dbg !1506
  call void @llvm.dbg.declare(metadata i32* %i29, metadata !1507, metadata !DIExpression()), !dbg !1509
  store i32 0, i32* %i29, align 4, !dbg !1509
  br label %for.cond30, !dbg !1510

for.cond30:                                       ; preds = %for.inc46, %invoke.cont
  %19 = load i32, i32* %i29, align 4, !dbg !1511
  %idxprom31 = sext i32 %19 to i64, !dbg !1513
  %arrayidx32 = getelementptr inbounds [41 x %"struct.UnitConversion::UnitDesc"], [41 x %"struct.UnitConversion::UnitDesc"]* @_ZN14UnitConversion9unitTableE, i64 0, i64 %idxprom31, !dbg !1513
  %unit33 = getelementptr inbounds %"struct.UnitConversion::UnitDesc", %"struct.UnitConversion::UnitDesc"* %arrayidx32, i32 0, i32 0, !dbg !1514
  %20 = load i8*, i8** %unit33, align 16, !dbg !1514
  %tobool34 = icmp ne i8* %20, null, !dbg !1513
  br i1 %tobool34, label %for.body35, label %for.end48, !dbg !1515

for.body35:                                       ; preds = %for.cond30
  %21 = load i32, i32* %i29, align 4, !dbg !1516
  %idxprom36 = sext i32 %21 to i64, !dbg !1518
  %arrayidx37 = getelementptr inbounds [41 x %"struct.UnitConversion::UnitDesc"], [41 x %"struct.UnitConversion::UnitDesc"]* @_ZN14UnitConversion9unitTableE, i64 0, i64 %idxprom36, !dbg !1518
  %longName38 = getelementptr inbounds %"struct.UnitConversion::UnitDesc", %"struct.UnitConversion::UnitDesc"* %arrayidx37, i32 0, i32 3, !dbg !1519
  %22 = load i8*, i8** %longName38, align 8, !dbg !1519
  %call39 = call i8* @_ZNKSt7__cxx1112basic_stringIcSt11char_traitsIcESaIcEE5c_strEv(%"class.std::__cxx11::basic_string"* %tmp) #12, !dbg !1520
  %call40 = call i32 @strcasecmp(i8* %22, i8* %call39) #11, !dbg !1521
  %tobool41 = icmp ne i32 %call40, 0, !dbg !1521
  br i1 %tobool41, label %if.end45, label %if.then42, !dbg !1522

if.then42:                                        ; preds = %for.body35
  %23 = load i32, i32* %i29, align 4, !dbg !1523
  %idx.ext43 = sext i32 %23 to i64, !dbg !1524
  %add.ptr44 = getelementptr inbounds %"struct.UnitConversion::UnitDesc", %"struct.UnitConversion::UnitDesc"* getelementptr inbounds ([41 x %"struct.UnitConversion::UnitDesc"], [41 x %"struct.UnitConversion::UnitDesc"]* @_ZN14UnitConversion9unitTableE, i64 0, i64 0), i64 %idx.ext43, !dbg !1524
  store %"struct.UnitConversion::UnitDesc"* %add.ptr44, %"struct.UnitConversion::UnitDesc"** %retval, align 8, !dbg !1525
  store i32 1, i32* %cleanup.dest.slot, align 4
  br label %cleanup, !dbg !1525

lpad:                                             ; preds = %if.then26
  %24 = landingpad { i8*, i32 }
          cleanup, !dbg !1526
  %25 = extractvalue { i8*, i32 } %24, 0, !dbg !1526
  store i8* %25, i8** %exn.slot, align 8, !dbg !1526
  %26 = extractvalue { i8*, i32 } %24, 1, !dbg !1526
  store i32 %26, i32* %ehselector.slot, align 4, !dbg !1526
  call void @_ZNSaIcED1Ev(%"class.std::allocator"* %ref.tmp) #12, !dbg !1506
  br label %eh.resume, !dbg !1506

if.end45:                                         ; preds = %for.body35
  br label %for.inc46, !dbg !1527

for.inc46:                                        ; preds = %if.end45
  %27 = load i32, i32* %i29, align 4, !dbg !1528
  %inc47 = add nsw i32 %27, 1, !dbg !1528
  store i32 %inc47, i32* %i29, align 4, !dbg !1528
  br label %for.cond30, !dbg !1529, !llvm.loop !1530

for.end48:                                        ; preds = %for.cond30
  store i32 0, i32* %cleanup.dest.slot, align 4, !dbg !1532
  br label %cleanup, !dbg !1532

cleanup:                                          ; preds = %for.end48, %if.then42
  call void @_ZNSt7__cxx1112basic_stringIcSt11char_traitsIcESaIcEED1Ev(%"class.std::__cxx11::basic_string"* %tmp) #12, !dbg !1532
  %cleanup.dest = load i32, i32* %cleanup.dest.slot, align 4
  switch i32 %cleanup.dest, label %unreachable [
    i32 0, label %cleanup.cont
    i32 1, label %return
  ]

cleanup.cont:                                     ; preds = %cleanup
  br label %if.end49, !dbg !1533

if.end49:                                         ; preds = %cleanup.cont, %for.end23
  store %"struct.UnitConversion::UnitDesc"* null, %"struct.UnitConversion::UnitDesc"** %retval, align 8, !dbg !1534
  br label %return, !dbg !1534

return:                                           ; preds = %if.end49, %cleanup, %if.then17, %if.then
  %28 = load %"struct.UnitConversion::UnitDesc"*, %"struct.UnitConversion::UnitDesc"** %retval, align 8, !dbg !1535
  ret %"struct.UnitConversion::UnitDesc"* %28, !dbg !1535

eh.resume:                                        ; preds = %lpad
  %exn = load i8*, i8** %exn.slot, align 8, !dbg !1506
  %sel = load i32, i32* %ehselector.slot, align 4, !dbg !1506
  %lpad.val = insertvalue { i8*, i32 } undef, i8* %exn, 0, !dbg !1506
  %lpad.val50 = insertvalue { i8*, i32 } %lpad.val, i32 %sel, 1, !dbg !1506
  resume { i8*, i32 } %lpad.val50, !dbg !1506

unreachable:                                      ; preds = %cleanup
  unreachable
}

; Function Attrs: nounwind readnone speculatable willreturn
declare void @llvm.dbg.declare(metadata, metadata, metadata) #1

; Function Attrs: nounwind readonly
declare dso_local i32 @strcmp(i8*, i8*) #2

; Function Attrs: nounwind readonly
declare dso_local i32 @strcasecmp(i8*, i8*) #2

; Function Attrs: nounwind readonly
declare dso_local i64 @strlen(i8*) #2

; Function Attrs: nounwind
declare dso_local void @_ZNSaIcEC1Ev(%"class.std::allocator"*) unnamed_addr #3

declare dso_local void @_ZNSt7__cxx1112basic_stringIcSt11char_traitsIcESaIcEEC1EPKcmRKS3_(%"class.std::__cxx11::basic_string"*, i8*, i64, %"class.std::allocator"* dereferenceable(1)) unnamed_addr #4

declare dso_local i32 @__gxx_personality_v0(...)

; Function Attrs: nounwind
declare dso_local void @_ZNSaIcED1Ev(%"class.std::allocator"*) unnamed_addr #3

; Function Attrs: nounwind
declare dso_local i8* @_ZNKSt7__cxx1112basic_stringIcSt11char_traitsIcESaIcEE5c_strEv(%"class.std::__cxx11::basic_string"*) #3

; Function Attrs: nounwind
declare dso_local void @_ZNSt7__cxx1112basic_stringIcSt11char_traitsIcESaIcEED1Ev(%"class.std::__cxx11::basic_string"*) unnamed_addr #3

; Function Attrs: noinline uwtable
define dso_local zeroext i1 @_ZN14UnitConversion10readNumberERPKcRd(i8** dereferenceable(8) %s, double* dereferenceable(8) %number) #0 align 2 !dbg !1536 {
entry:
  %retval = alloca i1, align 1
  %s.addr = alloca i8**, align 8
  %number.addr = alloca double*, align 8
  %len = alloca i32, align 4
  store i8** %s, i8*** %s.addr, align 8
  call void @llvm.dbg.declare(metadata i8*** %s.addr, metadata !1537, metadata !DIExpression()), !dbg !1538
  store double* %number, double** %number.addr, align 8
  call void @llvm.dbg.declare(metadata double** %number.addr, metadata !1539, metadata !DIExpression()), !dbg !1540
  br label %while.cond, !dbg !1541

while.cond:                                       ; preds = %while.body, %entry
  %0 = load i8**, i8*** %s.addr, align 8, !dbg !1542
  %1 = load i8*, i8** %0, align 8, !dbg !1542
  %2 = load i8, i8* %1, align 1, !dbg !1543
  %call = call zeroext i1 @_Z11opp_isspaceh(i8 zeroext %2), !dbg !1544
  br i1 %call, label %while.body, label %while.end, !dbg !1541

while.body:                                       ; preds = %while.cond
  %3 = load i8**, i8*** %s.addr, align 8, !dbg !1545
  %4 = load i8*, i8** %3, align 8, !dbg !1546
  %incdec.ptr = getelementptr inbounds i8, i8* %4, i32 1, !dbg !1546
  store i8* %incdec.ptr, i8** %3, align 8, !dbg !1546
  br label %while.cond, !dbg !1541, !llvm.loop !1547

while.end:                                        ; preds = %while.cond
  call void @llvm.dbg.declare(metadata i32* %len, metadata !1548, metadata !DIExpression()), !dbg !1549
  %call1 = call i8* @setlocale(i32 1, i8* getelementptr inbounds ([2 x i8], [2 x i8]* @.str.80, i64 0, i64 0)) #12, !dbg !1550
  %5 = load i8**, i8*** %s.addr, align 8, !dbg !1551
  %6 = load i8*, i8** %5, align 8, !dbg !1551
  %7 = load double*, double** %number.addr, align 8, !dbg !1553
  %call2 = call i32 (i8*, i8*, ...) @__isoc99_sscanf(i8* %6, i8* getelementptr inbounds ([6 x i8], [6 x i8]* @.str.81, i64 0, i64 0), double* %7, i32* %len) #12, !dbg !1554
  %cmp = icmp sle i32 %call2, 0, !dbg !1555
  br i1 %cmp, label %if.then, label %if.end, !dbg !1556

if.then:                                          ; preds = %while.end
  store i1 false, i1* %retval, align 1, !dbg !1557
  br label %return, !dbg !1557

if.end:                                           ; preds = %while.end
  %8 = load i32, i32* %len, align 4, !dbg !1558
  %9 = load i8**, i8*** %s.addr, align 8, !dbg !1559
  %10 = load i8*, i8** %9, align 8, !dbg !1560
  %idx.ext = sext i32 %8 to i64, !dbg !1560
  %add.ptr = getelementptr inbounds i8, i8* %10, i64 %idx.ext, !dbg !1560
  store i8* %add.ptr, i8** %9, align 8, !dbg !1560
  br label %while.cond3, !dbg !1561

while.cond3:                                      ; preds = %while.body5, %if.end
  %11 = load i8**, i8*** %s.addr, align 8, !dbg !1562
  %12 = load i8*, i8** %11, align 8, !dbg !1562
  %13 = load i8, i8* %12, align 1, !dbg !1563
  %call4 = call zeroext i1 @_Z11opp_isspaceh(i8 zeroext %13), !dbg !1564
  br i1 %call4, label %while.body5, label %while.end7, !dbg !1561

while.body5:                                      ; preds = %while.cond3
  %14 = load i8**, i8*** %s.addr, align 8, !dbg !1565
  %15 = load i8*, i8** %14, align 8, !dbg !1566
  %incdec.ptr6 = getelementptr inbounds i8, i8* %15, i32 1, !dbg !1566
  store i8* %incdec.ptr6, i8** %14, align 8, !dbg !1566
  br label %while.cond3, !dbg !1561, !llvm.loop !1567

while.end7:                                       ; preds = %while.cond3
  store i1 true, i1* %retval, align 1, !dbg !1568
  br label %return, !dbg !1568

return:                                           ; preds = %while.end7, %if.then
  %16 = load i1, i1* %retval, align 1, !dbg !1569
  ret i1 %16, !dbg !1569
}

; Function Attrs: noinline nounwind uwtable
define linkonce_odr dso_local zeroext i1 @_Z11opp_isspaceh(i8 zeroext %c) #5 comdat !dbg !1570 {
entry:
  %c.addr = alloca i8, align 1
  store i8 %c, i8* %c.addr, align 1
  call void @llvm.dbg.declare(metadata i8* %c.addr, metadata !1574, metadata !DIExpression()), !dbg !1575
  %0 = load i8, i8* %c.addr, align 1, !dbg !1576
  %conv = zext i8 %0 to i32, !dbg !1576
  %call = call i32 @isspace(i32 %conv) #11, !dbg !1577
  %tobool = icmp ne i32 %call, 0, !dbg !1577
  ret i1 %tobool, !dbg !1578
}

; Function Attrs: nounwind
declare dso_local i8* @setlocale(i32, i8*) #3

; Function Attrs: nounwind
declare dso_local i32 @__isoc99_sscanf(i8*, i8*, ...) #3

; Function Attrs: noinline uwtable
define dso_local zeroext i1 @_ZN14UnitConversion8readUnitERPKcRNSt7__cxx1112basic_stringIcSt11char_traitsIcESaIcEEE(i8** dereferenceable(8) %s, %"class.std::__cxx11::basic_string"* dereferenceable(32) %unit) #0 align 2 !dbg !1579 {
entry:
  %s.addr = alloca i8**, align 8
  %unit.addr = alloca %"class.std::__cxx11::basic_string"*, align 8
  store i8** %s, i8*** %s.addr, align 8
  call void @llvm.dbg.declare(metadata i8*** %s.addr, metadata !1580, metadata !DIExpression()), !dbg !1581
  store %"class.std::__cxx11::basic_string"* %unit, %"class.std::__cxx11::basic_string"** %unit.addr, align 8
  call void @llvm.dbg.declare(metadata %"class.std::__cxx11::basic_string"** %unit.addr, metadata !1582, metadata !DIExpression()), !dbg !1583
  %0 = load %"class.std::__cxx11::basic_string"*, %"class.std::__cxx11::basic_string"** %unit.addr, align 8, !dbg !1584
  %call = call dereferenceable(32) %"class.std::__cxx11::basic_string"* @_ZNSt7__cxx1112basic_stringIcSt11char_traitsIcESaIcEEaSEPKc(%"class.std::__cxx11::basic_string"* %0, i8* getelementptr inbounds ([1 x i8], [1 x i8]* @.str.82, i64 0, i64 0)), !dbg !1585
  br label %while.cond, !dbg !1586

while.cond:                                       ; preds = %while.body, %entry
  %1 = load i8**, i8*** %s.addr, align 8, !dbg !1587
  %2 = load i8*, i8** %1, align 8, !dbg !1587
  %3 = load i8, i8* %2, align 1, !dbg !1588
  %call1 = call zeroext i1 @_Z11opp_isspaceh(i8 zeroext %3), !dbg !1589
  br i1 %call1, label %while.body, label %while.end, !dbg !1586

while.body:                                       ; preds = %while.cond
  %4 = load i8**, i8*** %s.addr, align 8, !dbg !1590
  %5 = load i8*, i8** %4, align 8, !dbg !1591
  %incdec.ptr = getelementptr inbounds i8, i8* %5, i32 1, !dbg !1591
  store i8* %incdec.ptr, i8** %4, align 8, !dbg !1591
  br label %while.cond, !dbg !1586, !llvm.loop !1592

while.end:                                        ; preds = %while.cond
  br label %while.cond2, !dbg !1593

while.cond2:                                      ; preds = %while.body4, %while.end
  %6 = load i8**, i8*** %s.addr, align 8, !dbg !1594
  %7 = load i8*, i8** %6, align 8, !dbg !1594
  %8 = load i8, i8* %7, align 1, !dbg !1595
  %call3 = call zeroext i1 @_Z11opp_isalphah(i8 zeroext %8), !dbg !1596
  br i1 %call3, label %while.body4, label %while.end7, !dbg !1593

while.body4:                                      ; preds = %while.cond2
  %9 = load %"class.std::__cxx11::basic_string"*, %"class.std::__cxx11::basic_string"** %unit.addr, align 8, !dbg !1597
  %10 = load i8**, i8*** %s.addr, align 8, !dbg !1598
  %11 = load i8*, i8** %10, align 8, !dbg !1599
  %incdec.ptr5 = getelementptr inbounds i8, i8* %11, i32 1, !dbg !1599
  store i8* %incdec.ptr5, i8** %10, align 8, !dbg !1599
  %12 = load i8, i8* %11, align 1, !dbg !1600
  %call6 = call dereferenceable(32) %"class.std::__cxx11::basic_string"* @_ZNSt7__cxx1112basic_stringIcSt11char_traitsIcESaIcEE6appendEmc(%"class.std::__cxx11::basic_string"* %9, i64 1, i8 signext %12), !dbg !1601
  br label %while.cond2, !dbg !1593, !llvm.loop !1602

while.end7:                                       ; preds = %while.cond2
  br label %while.cond8, !dbg !1604

while.cond8:                                      ; preds = %while.body10, %while.end7
  %13 = load i8**, i8*** %s.addr, align 8, !dbg !1605
  %14 = load i8*, i8** %13, align 8, !dbg !1605
  %15 = load i8, i8* %14, align 1, !dbg !1606
  %call9 = call zeroext i1 @_Z11opp_isspaceh(i8 zeroext %15), !dbg !1607
  br i1 %call9, label %while.body10, label %while.end12, !dbg !1604

while.body10:                                     ; preds = %while.cond8
  %16 = load i8**, i8*** %s.addr, align 8, !dbg !1608
  %17 = load i8*, i8** %16, align 8, !dbg !1609
  %incdec.ptr11 = getelementptr inbounds i8, i8* %17, i32 1, !dbg !1609
  store i8* %incdec.ptr11, i8** %16, align 8, !dbg !1609
  br label %while.cond8, !dbg !1604, !llvm.loop !1610

while.end12:                                      ; preds = %while.cond8
  %18 = load %"class.std::__cxx11::basic_string"*, %"class.std::__cxx11::basic_string"** %unit.addr, align 8, !dbg !1611
  %call13 = call zeroext i1 @_ZNKSt7__cxx1112basic_stringIcSt11char_traitsIcESaIcEE5emptyEv(%"class.std::__cxx11::basic_string"* %18) #12, !dbg !1612
  %lnot = xor i1 %call13, true, !dbg !1613
  ret i1 %lnot, !dbg !1614
}

declare dso_local dereferenceable(32) %"class.std::__cxx11::basic_string"* @_ZNSt7__cxx1112basic_stringIcSt11char_traitsIcESaIcEEaSEPKc(%"class.std::__cxx11::basic_string"*, i8*) #4

; Function Attrs: noinline nounwind uwtable
define linkonce_odr dso_local zeroext i1 @_Z11opp_isalphah(i8 zeroext %c) #5 comdat !dbg !1615 {
entry:
  %c.addr = alloca i8, align 1
  store i8 %c, i8* %c.addr, align 1
  call void @llvm.dbg.declare(metadata i8* %c.addr, metadata !1616, metadata !DIExpression()), !dbg !1617
  %0 = load i8, i8* %c.addr, align 1, !dbg !1618
  %conv = zext i8 %0 to i32, !dbg !1618
  %call = call i32 @isalpha(i32 %conv) #11, !dbg !1619
  %tobool = icmp ne i32 %call, 0, !dbg !1619
  ret i1 %tobool, !dbg !1620
}

declare dso_local dereferenceable(32) %"class.std::__cxx11::basic_string"* @_ZNSt7__cxx1112basic_stringIcSt11char_traitsIcESaIcEE6appendEmc(%"class.std::__cxx11::basic_string"*, i64, i8 signext) #4

; Function Attrs: nounwind
declare dso_local zeroext i1 @_ZNKSt7__cxx1112basic_stringIcSt11char_traitsIcESaIcEE5emptyEv(%"class.std::__cxx11::basic_string"*) #3

; Function Attrs: noinline uwtable
define dso_local double @_ZN14UnitConversion13parseQuantityEPKcS1_(i8* %str, i8* %expectedUnit) #0 align 2 personality i8* bitcast (i32 (...)* @__gxx_personality_v0 to i8*) !dbg !1621 {
entry:
  %str.addr = alloca i8*, align 8
  %expectedUnit.addr = alloca i8*, align 8
  %unit = alloca %"class.std::__cxx11::basic_string", align 8
  %d = alloca double, align 8
  %exn.slot = alloca i8*
  %ehselector.slot = alloca i32
  store i8* %str, i8** %str.addr, align 8
  call void @llvm.dbg.declare(metadata i8** %str.addr, metadata !1622, metadata !DIExpression()), !dbg !1623
  store i8* %expectedUnit, i8** %expectedUnit.addr, align 8
  call void @llvm.dbg.declare(metadata i8** %expectedUnit.addr, metadata !1624, metadata !DIExpression()), !dbg !1625
  call void @llvm.dbg.declare(metadata %"class.std::__cxx11::basic_string"* %unit, metadata !1626, metadata !DIExpression()), !dbg !1627
  call void @_ZNSt7__cxx1112basic_stringIcSt11char_traitsIcESaIcEEC1Ev(%"class.std::__cxx11::basic_string"* %unit) #12, !dbg !1627
  call void @llvm.dbg.declare(metadata double* %d, metadata !1628, metadata !DIExpression()), !dbg !1629
  %0 = load i8*, i8** %str.addr, align 8, !dbg !1630
  %call = invoke double @_ZN14UnitConversion13parseQuantityEPKcRNSt7__cxx1112basic_stringIcSt11char_traitsIcESaIcEEE(i8* %0, %"class.std::__cxx11::basic_string"* dereferenceable(32) %unit)
          to label %invoke.cont unwind label %lpad, !dbg !1631

invoke.cont:                                      ; preds = %entry
  store double %call, double* %d, align 8, !dbg !1629
  %1 = load double, double* %d, align 8, !dbg !1632
  %call1 = call i8* @_ZNKSt7__cxx1112basic_stringIcSt11char_traitsIcESaIcEE5c_strEv(%"class.std::__cxx11::basic_string"* %unit) #12, !dbg !1633
  %2 = load i8*, i8** %expectedUnit.addr, align 8, !dbg !1634
  %call3 = invoke double @_ZN14UnitConversion11convertUnitEdPKcS1_(double %1, i8* %call1, i8* %2)
          to label %invoke.cont2 unwind label %lpad, !dbg !1635

invoke.cont2:                                     ; preds = %invoke.cont
  call void @_ZNSt7__cxx1112basic_stringIcSt11char_traitsIcESaIcEED1Ev(%"class.std::__cxx11::basic_string"* %unit) #12, !dbg !1636
  ret double %call3, !dbg !1636

lpad:                                             ; preds = %invoke.cont, %entry
  %3 = landingpad { i8*, i32 }
          cleanup, !dbg !1636
  %4 = extractvalue { i8*, i32 } %3, 0, !dbg !1636
  store i8* %4, i8** %exn.slot, align 8, !dbg !1636
  %5 = extractvalue { i8*, i32 } %3, 1, !dbg !1636
  store i32 %5, i32* %ehselector.slot, align 4, !dbg !1636
  call void @_ZNSt7__cxx1112basic_stringIcSt11char_traitsIcESaIcEED1Ev(%"class.std::__cxx11::basic_string"* %unit) #12, !dbg !1636
  br label %eh.resume, !dbg !1636

eh.resume:                                        ; preds = %lpad
  %exn = load i8*, i8** %exn.slot, align 8, !dbg !1636
  %sel = load i32, i32* %ehselector.slot, align 4, !dbg !1636
  %lpad.val = insertvalue { i8*, i32 } undef, i8* %exn, 0, !dbg !1636
  %lpad.val4 = insertvalue { i8*, i32 } %lpad.val, i32 %sel, 1, !dbg !1636
  resume { i8*, i32 } %lpad.val4, !dbg !1636
}

; Function Attrs: nounwind
declare dso_local void @_ZNSt7__cxx1112basic_stringIcSt11char_traitsIcESaIcEEC1Ev(%"class.std::__cxx11::basic_string"*) unnamed_addr #3

; Function Attrs: noinline uwtable
define dso_local double @_ZN14UnitConversion13parseQuantityEPKcRNSt7__cxx1112basic_stringIcSt11char_traitsIcESaIcEEE(i8* %str, %"class.std::__cxx11::basic_string"* dereferenceable(32) %unit) #0 align 2 personality i8* bitcast (i32 (...)* @__gxx_personality_v0 to i8*) !dbg !1637 {
entry:
  %retval = alloca double, align 8
  %str.addr = alloca i8*, align 8
  %unit.addr = alloca %"class.std::__cxx11::basic_string"*, align 8
  %result = alloca double, align 8
  %s = alloca i8*, align 8
  %exn.slot = alloca i8*
  %ehselector.slot = alloca i32
  %d = alloca double, align 8
  %tmpUnit = alloca %"class.std::__cxx11::basic_string", align 8
  %factor = alloca double, align 8
  %ref.tmp = alloca %"class.std::__cxx11::basic_string", align 8
  %ref.tmp32 = alloca %"class.std::__cxx11::basic_string", align 8
  %cleanup.isactive = alloca i1, align 1
  store i8* %str, i8** %str.addr, align 8
  call void @llvm.dbg.declare(metadata i8** %str.addr, metadata !1638, metadata !DIExpression()), !dbg !1639
  store %"class.std::__cxx11::basic_string"* %unit, %"class.std::__cxx11::basic_string"** %unit.addr, align 8
  call void @llvm.dbg.declare(metadata %"class.std::__cxx11::basic_string"** %unit.addr, metadata !1640, metadata !DIExpression()), !dbg !1641
  call void @llvm.dbg.declare(metadata double* %result, metadata !1642, metadata !DIExpression()), !dbg !1643
  store double 0.000000e+00, double* %result, align 8, !dbg !1643
  %0 = load %"class.std::__cxx11::basic_string"*, %"class.std::__cxx11::basic_string"** %unit.addr, align 8, !dbg !1644
  %call = call dereferenceable(32) %"class.std::__cxx11::basic_string"* @_ZNSt7__cxx1112basic_stringIcSt11char_traitsIcESaIcEEaSEPKc(%"class.std::__cxx11::basic_string"* %0, i8* getelementptr inbounds ([1 x i8], [1 x i8]* @.str.82, i64 0, i64 0)), !dbg !1645
  call void @llvm.dbg.declare(metadata i8** %s, metadata !1646, metadata !DIExpression()), !dbg !1647
  %1 = load i8*, i8** %str.addr, align 8, !dbg !1648
  store i8* %1, i8** %s, align 8, !dbg !1647
  %call1 = call zeroext i1 @_ZN14UnitConversion10readNumberERPKcRd(i8** dereferenceable(8) %s, double* dereferenceable(8) %result), !dbg !1649
  br i1 %call1, label %if.end, label %if.then, !dbg !1651

if.then:                                          ; preds = %entry
  %exception = call i8* @__cxa_allocate_exception(i64 48) #12, !dbg !1652
  %2 = bitcast i8* %exception to %class.opp_runtime_error*, !dbg !1652
  %3 = load i8*, i8** %str.addr, align 8, !dbg !1653
  invoke void (%class.opp_runtime_error*, i8*, ...) @_ZN17opp_runtime_errorC1EPKcz(%class.opp_runtime_error* %2, i8* getelementptr inbounds ([61 x i8], [61 x i8]* @.str.83, i64 0, i64 0), i8* %3)
          to label %invoke.cont unwind label %lpad, !dbg !1654

invoke.cont:                                      ; preds = %if.then
  call void @__cxa_throw(i8* %exception, i8* bitcast ({ i8*, i8*, i8* }* @_ZTI17opp_runtime_error to i8*), i8* bitcast (void (%class.opp_runtime_error*)* @_ZN17opp_runtime_errorD2Ev to i8*)) #13, !dbg !1652
  unreachable, !dbg !1652

lpad:                                             ; preds = %if.then
  %4 = landingpad { i8*, i32 }
          cleanup, !dbg !1655
  %5 = extractvalue { i8*, i32 } %4, 0, !dbg !1655
  store i8* %5, i8** %exn.slot, align 8, !dbg !1655
  %6 = extractvalue { i8*, i32 } %4, 1, !dbg !1655
  store i32 %6, i32* %ehselector.slot, align 4, !dbg !1655
  call void @__cxa_free_exception(i8* %exception) #12, !dbg !1652
  br label %eh.resume, !dbg !1652

if.end:                                           ; preds = %entry
  %7 = load %"class.std::__cxx11::basic_string"*, %"class.std::__cxx11::basic_string"** %unit.addr, align 8, !dbg !1656
  %call2 = call zeroext i1 @_ZN14UnitConversion8readUnitERPKcRNSt7__cxx1112basic_stringIcSt11char_traitsIcESaIcEEE(i8** dereferenceable(8) %s, %"class.std::__cxx11::basic_string"* dereferenceable(32) %7), !dbg !1658
  br i1 %call2, label %if.end9, label %if.then3, !dbg !1659

if.then3:                                         ; preds = %if.end
  %8 = load i8*, i8** %s, align 8, !dbg !1660
  %9 = load i8, i8* %8, align 1, !dbg !1663
  %tobool = icmp ne i8 %9, 0, !dbg !1663
  br i1 %tobool, label %if.then4, label %if.end8, !dbg !1664

if.then4:                                         ; preds = %if.then3
  %exception5 = call i8* @__cxa_allocate_exception(i64 48) #12, !dbg !1665
  %10 = bitcast i8* %exception5 to %class.opp_runtime_error*, !dbg !1665
  %11 = load i8*, i8** %str.addr, align 8, !dbg !1666
  invoke void (%class.opp_runtime_error*, i8*, ...) @_ZN17opp_runtime_errorC1EPKcz(%class.opp_runtime_error* %10, i8* getelementptr inbounds ([63 x i8], [63 x i8]* @.str.84, i64 0, i64 0), i8* %11)
          to label %invoke.cont7 unwind label %lpad6, !dbg !1667

invoke.cont7:                                     ; preds = %if.then4
  call void @__cxa_throw(i8* %exception5, i8* bitcast ({ i8*, i8*, i8* }* @_ZTI17opp_runtime_error to i8*), i8* bitcast (void (%class.opp_runtime_error*)* @_ZN17opp_runtime_errorD2Ev to i8*)) #13, !dbg !1665
  unreachable, !dbg !1665

lpad6:                                            ; preds = %if.then4
  %12 = landingpad { i8*, i32 }
          cleanup, !dbg !1668
  %13 = extractvalue { i8*, i32 } %12, 0, !dbg !1668
  store i8* %13, i8** %exn.slot, align 8, !dbg !1668
  %14 = extractvalue { i8*, i32 } %12, 1, !dbg !1668
  store i32 %14, i32* %ehselector.slot, align 4, !dbg !1668
  call void @__cxa_free_exception(i8* %exception5) #12, !dbg !1665
  br label %eh.resume, !dbg !1665

if.end8:                                          ; preds = %if.then3
  %15 = load double, double* %result, align 8, !dbg !1669
  store double %15, double* %retval, align 8, !dbg !1670
  br label %return, !dbg !1670

if.end9:                                          ; preds = %if.end
  br label %while.cond, !dbg !1671

while.cond:                                       ; preds = %invoke.cont41, %if.end9
  %16 = load i8*, i8** %s, align 8, !dbg !1672
  %17 = load i8, i8* %16, align 1, !dbg !1673
  %tobool10 = icmp ne i8 %17, 0, !dbg !1673
  br i1 %tobool10, label %while.body, label %while.end, !dbg !1671

while.body:                                       ; preds = %while.cond
  call void @llvm.dbg.declare(metadata double* %d, metadata !1674, metadata !DIExpression()), !dbg !1676
  %call11 = call zeroext i1 @_ZN14UnitConversion10readNumberERPKcRd(i8** dereferenceable(8) %s, double* dereferenceable(8) %d), !dbg !1677
  br i1 %call11, label %if.end13, label %if.then12, !dbg !1679

if.then12:                                        ; preds = %while.body
  br label %while.end, !dbg !1680

if.end13:                                         ; preds = %while.body
  call void @llvm.dbg.declare(metadata %"class.std::__cxx11::basic_string"* %tmpUnit, metadata !1681, metadata !DIExpression()), !dbg !1682
  call void @_ZNSt7__cxx1112basic_stringIcSt11char_traitsIcESaIcEEC1Ev(%"class.std::__cxx11::basic_string"* %tmpUnit) #12, !dbg !1682
  %call16 = invoke zeroext i1 @_ZN14UnitConversion8readUnitERPKcRNSt7__cxx1112basic_stringIcSt11char_traitsIcESaIcEEE(i8** dereferenceable(8) %s, %"class.std::__cxx11::basic_string"* dereferenceable(32) %tmpUnit)
          to label %invoke.cont15 unwind label %lpad14, !dbg !1683

invoke.cont15:                                    ; preds = %if.end13
  br i1 %call16, label %if.end21, label %if.then17, !dbg !1685

if.then17:                                        ; preds = %invoke.cont15
  %exception18 = call i8* @__cxa_allocate_exception(i64 48) #12, !dbg !1686
  %18 = bitcast i8* %exception18 to %class.opp_runtime_error*, !dbg !1686
  %19 = load i8*, i8** %str.addr, align 8, !dbg !1687
  invoke void (%class.opp_runtime_error*, i8*, ...) @_ZN17opp_runtime_errorC1EPKcz(%class.opp_runtime_error* %18, i8* getelementptr inbounds ([49 x i8], [49 x i8]* @.str.85, i64 0, i64 0), i8* %19)
          to label %invoke.cont20 unwind label %lpad19, !dbg !1688

invoke.cont20:                                    ; preds = %if.then17
  invoke void @__cxa_throw(i8* %exception18, i8* bitcast ({ i8*, i8*, i8* }* @_ZTI17opp_runtime_error to i8*), i8* bitcast (void (%class.opp_runtime_error*)* @_ZN17opp_runtime_errorD2Ev to i8*)) #13
          to label %unreachable unwind label %lpad14, !dbg !1686

lpad14:                                           ; preds = %if.end40, %if.end21, %invoke.cont20, %if.end13
  %20 = landingpad { i8*, i32 }
          cleanup, !dbg !1689
  %21 = extractvalue { i8*, i32 } %20, 0, !dbg !1689
  store i8* %21, i8** %exn.slot, align 8, !dbg !1689
  %22 = extractvalue { i8*, i32 } %20, 1, !dbg !1689
  store i32 %22, i32* %ehselector.slot, align 4, !dbg !1689
  br label %ehcleanup43, !dbg !1689

lpad19:                                           ; preds = %if.then17
  %23 = landingpad { i8*, i32 }
          cleanup, !dbg !1689
  %24 = extractvalue { i8*, i32 } %23, 0, !dbg !1689
  store i8* %24, i8** %exn.slot, align 8, !dbg !1689
  %25 = extractvalue { i8*, i32 } %23, 1, !dbg !1689
  store i32 %25, i32* %ehselector.slot, align 4, !dbg !1689
  call void @__cxa_free_exception(i8* %exception18) #12, !dbg !1686
  br label %ehcleanup43, !dbg !1686

if.end21:                                         ; preds = %invoke.cont15
  call void @llvm.dbg.declare(metadata double* %factor, metadata !1690, metadata !DIExpression()), !dbg !1691
  %26 = load %"class.std::__cxx11::basic_string"*, %"class.std::__cxx11::basic_string"** %unit.addr, align 8, !dbg !1692
  %call22 = call i8* @_ZNKSt7__cxx1112basic_stringIcSt11char_traitsIcESaIcEE5c_strEv(%"class.std::__cxx11::basic_string"* %26) #12, !dbg !1693
  %call23 = call i8* @_ZNKSt7__cxx1112basic_stringIcSt11char_traitsIcESaIcEE5c_strEv(%"class.std::__cxx11::basic_string"* %tmpUnit) #12, !dbg !1694
  %call25 = invoke double @_ZN14UnitConversion19getConversionFactorEPKcS1_(i8* %call22, i8* %call23)
          to label %invoke.cont24 unwind label %lpad14, !dbg !1695

invoke.cont24:                                    ; preds = %if.end21
  store double %call25, double* %factor, align 8, !dbg !1691
  %27 = load double, double* %factor, align 8, !dbg !1696
  %cmp = fcmp oeq double %27, 0.000000e+00, !dbg !1698
  br i1 %cmp, label %if.then26, label %if.end40, !dbg !1699

if.then26:                                        ; preds = %invoke.cont24
  %exception27 = call i8* @__cxa_allocate_exception(i64 48) #12, !dbg !1700
  store i1 true, i1* %cleanup.isactive, align 1
  %28 = bitcast i8* %exception27 to %class.opp_runtime_error*, !dbg !1700
  %29 = load i8*, i8** %str.addr, align 8, !dbg !1701
  %call28 = call i8* @_ZNKSt7__cxx1112basic_stringIcSt11char_traitsIcESaIcEE5c_strEv(%"class.std::__cxx11::basic_string"* %tmpUnit) #12, !dbg !1702
  invoke void @_ZN14UnitConversion18getUnitDescriptionB5cxx11EPKc(%"class.std::__cxx11::basic_string"* sret %ref.tmp, i8* %call28)
          to label %invoke.cont30 unwind label %lpad29, !dbg !1703

invoke.cont30:                                    ; preds = %if.then26
  %call31 = call i8* @_ZNKSt7__cxx1112basic_stringIcSt11char_traitsIcESaIcEE5c_strEv(%"class.std::__cxx11::basic_string"* %ref.tmp) #12, !dbg !1704
  %30 = load %"class.std::__cxx11::basic_string"*, %"class.std::__cxx11::basic_string"** %unit.addr, align 8, !dbg !1705
  %call33 = call i8* @_ZNKSt7__cxx1112basic_stringIcSt11char_traitsIcESaIcEE5c_strEv(%"class.std::__cxx11::basic_string"* %30) #12, !dbg !1706
  invoke void @_ZN14UnitConversion18getUnitDescriptionB5cxx11EPKc(%"class.std::__cxx11::basic_string"* sret %ref.tmp32, i8* %call33)
          to label %invoke.cont35 unwind label %lpad34, !dbg !1707

invoke.cont35:                                    ; preds = %invoke.cont30
  %call36 = call i8* @_ZNKSt7__cxx1112basic_stringIcSt11char_traitsIcESaIcEE5c_strEv(%"class.std::__cxx11::basic_string"* %ref.tmp32) #12, !dbg !1708
  invoke void (%class.opp_runtime_error*, i8*, ...) @_ZN17opp_runtime_errorC1EPKcz(%class.opp_runtime_error* %28, i8* getelementptr inbounds ([50 x i8], [50 x i8]* @.str.86, i64 0, i64 0), i8* %29, i8* %call31, i8* %call36)
          to label %invoke.cont38 unwind label %lpad37, !dbg !1709

invoke.cont38:                                    ; preds = %invoke.cont35
  store i1 false, i1* %cleanup.isactive, align 1, !dbg !1700
  invoke void @__cxa_throw(i8* %exception27, i8* bitcast ({ i8*, i8*, i8* }* @_ZTI17opp_runtime_error to i8*), i8* bitcast (void (%class.opp_runtime_error*)* @_ZN17opp_runtime_errorD2Ev to i8*)) #13
          to label %unreachable unwind label %lpad37, !dbg !1700

lpad29:                                           ; preds = %if.then26
  %31 = landingpad { i8*, i32 }
          cleanup, !dbg !1710
  %32 = extractvalue { i8*, i32 } %31, 0, !dbg !1710
  store i8* %32, i8** %exn.slot, align 8, !dbg !1710
  %33 = extractvalue { i8*, i32 } %31, 1, !dbg !1710
  store i32 %33, i32* %ehselector.slot, align 4, !dbg !1710
  br label %ehcleanup39, !dbg !1710

lpad34:                                           ; preds = %invoke.cont30
  %34 = landingpad { i8*, i32 }
          cleanup, !dbg !1710
  %35 = extractvalue { i8*, i32 } %34, 0, !dbg !1710
  store i8* %35, i8** %exn.slot, align 8, !dbg !1710
  %36 = extractvalue { i8*, i32 } %34, 1, !dbg !1710
  store i32 %36, i32* %ehselector.slot, align 4, !dbg !1710
  br label %ehcleanup, !dbg !1710

lpad37:                                           ; preds = %invoke.cont38, %invoke.cont35
  %37 = landingpad { i8*, i32 }
          cleanup, !dbg !1710
  %38 = extractvalue { i8*, i32 } %37, 0, !dbg !1710
  store i8* %38, i8** %exn.slot, align 8, !dbg !1710
  %39 = extractvalue { i8*, i32 } %37, 1, !dbg !1710
  store i32 %39, i32* %ehselector.slot, align 4, !dbg !1710
  call void @_ZNSt7__cxx1112basic_stringIcSt11char_traitsIcESaIcEED1Ev(%"class.std::__cxx11::basic_string"* %ref.tmp32) #12, !dbg !1700
  br label %ehcleanup, !dbg !1700

ehcleanup:                                        ; preds = %lpad37, %lpad34
  call void @_ZNSt7__cxx1112basic_stringIcSt11char_traitsIcESaIcEED1Ev(%"class.std::__cxx11::basic_string"* %ref.tmp) #12, !dbg !1700
  br label %ehcleanup39, !dbg !1700

ehcleanup39:                                      ; preds = %ehcleanup, %lpad29
  %cleanup.is_active = load i1, i1* %cleanup.isactive, align 1, !dbg !1700
  br i1 %cleanup.is_active, label %cleanup.action, label %cleanup.done, !dbg !1700

cleanup.action:                                   ; preds = %ehcleanup39
  call void @__cxa_free_exception(i8* %exception27) #12, !dbg !1700
  br label %cleanup.done, !dbg !1700

cleanup.done:                                     ; preds = %cleanup.action, %ehcleanup39
  br label %ehcleanup43, !dbg !1700

if.end40:                                         ; preds = %invoke.cont24
  %40 = load double, double* %result, align 8, !dbg !1711
  %41 = load double, double* %factor, align 8, !dbg !1712
  %mul = fmul double %40, %41, !dbg !1713
  %42 = load double, double* %d, align 8, !dbg !1714
  %add = fadd double %mul, %42, !dbg !1715
  store double %add, double* %result, align 8, !dbg !1716
  %43 = load %"class.std::__cxx11::basic_string"*, %"class.std::__cxx11::basic_string"** %unit.addr, align 8, !dbg !1717
  %call42 = invoke dereferenceable(32) %"class.std::__cxx11::basic_string"* @_ZNSt7__cxx1112basic_stringIcSt11char_traitsIcESaIcEEaSERKS4_(%"class.std::__cxx11::basic_string"* %43, %"class.std::__cxx11::basic_string"* dereferenceable(32) %tmpUnit)
          to label %invoke.cont41 unwind label %lpad14, !dbg !1718

invoke.cont41:                                    ; preds = %if.end40
  call void @_ZNSt7__cxx1112basic_stringIcSt11char_traitsIcESaIcEED1Ev(%"class.std::__cxx11::basic_string"* %tmpUnit) #12, !dbg !1719
  br label %while.cond, !dbg !1671, !llvm.loop !1720

ehcleanup43:                                      ; preds = %cleanup.done, %lpad19, %lpad14
  call void @_ZNSt7__cxx1112basic_stringIcSt11char_traitsIcESaIcEED1Ev(%"class.std::__cxx11::basic_string"* %tmpUnit) #12, !dbg !1719
  br label %eh.resume, !dbg !1719

while.end:                                        ; preds = %if.then12, %while.cond
  %44 = load i8*, i8** %s, align 8, !dbg !1721
  %45 = load i8, i8* %44, align 1, !dbg !1723
  %tobool44 = icmp ne i8 %45, 0, !dbg !1723
  br i1 %tobool44, label %if.then45, label %if.end50, !dbg !1724

if.then45:                                        ; preds = %while.end
  %exception46 = call i8* @__cxa_allocate_exception(i64 48) #12, !dbg !1725
  %46 = bitcast i8* %exception46 to %class.opp_runtime_error*, !dbg !1725
  %47 = load i8*, i8** %str.addr, align 8, !dbg !1726
  invoke void (%class.opp_runtime_error*, i8*, ...) @_ZN17opp_runtime_errorC1EPKcz(%class.opp_runtime_error* %46, i8* getelementptr inbounds ([35 x i8], [35 x i8]* @.str.87, i64 0, i64 0), i8* %47)
          to label %invoke.cont48 unwind label %lpad47, !dbg !1727

invoke.cont48:                                    ; preds = %if.then45
  call void @__cxa_throw(i8* %exception46, i8* bitcast ({ i8*, i8*, i8* }* @_ZTI17opp_runtime_error to i8*), i8* bitcast (void (%class.opp_runtime_error*)* @_ZN17opp_runtime_errorD2Ev to i8*)) #13, !dbg !1725
  unreachable, !dbg !1725

lpad47:                                           ; preds = %if.then45
  %48 = landingpad { i8*, i32 }
          cleanup, !dbg !1728
  %49 = extractvalue { i8*, i32 } %48, 0, !dbg !1728
  store i8* %49, i8** %exn.slot, align 8, !dbg !1728
  %50 = extractvalue { i8*, i32 } %48, 1, !dbg !1728
  store i32 %50, i32* %ehselector.slot, align 4, !dbg !1728
  call void @__cxa_free_exception(i8* %exception46) #12, !dbg !1725
  br label %eh.resume, !dbg !1725

if.end50:                                         ; preds = %while.end
  %51 = load double, double* %result, align 8, !dbg !1729
  store double %51, double* %retval, align 8, !dbg !1730
  br label %return, !dbg !1730

return:                                           ; preds = %if.end50, %if.end8
  %52 = load double, double* %retval, align 8, !dbg !1731
  ret double %52, !dbg !1731

eh.resume:                                        ; preds = %lpad47, %ehcleanup43, %lpad6, %lpad
  %exn = load i8*, i8** %exn.slot, align 8, !dbg !1652
  %sel = load i32, i32* %ehselector.slot, align 4, !dbg !1652
  %lpad.val = insertvalue { i8*, i32 } undef, i8* %exn, 0, !dbg !1652
  %lpad.val51 = insertvalue { i8*, i32 } %lpad.val, i32 %sel, 1, !dbg !1652
  resume { i8*, i32 } %lpad.val51, !dbg !1652

unreachable:                                      ; preds = %invoke.cont38, %invoke.cont20
  unreachable
}

; Function Attrs: noinline uwtable
define dso_local double @_ZN14UnitConversion11convertUnitEdPKcS1_(double %d, i8* %unit, i8* %targetUnit) #0 align 2 personality i8* bitcast (i32 (...)* @__gxx_personality_v0 to i8*) !dbg !1732 {
entry:
  %retval = alloca double, align 8
  %d.addr = alloca double, align 8
  %unit.addr = alloca i8*, align 8
  %targetUnit.addr = alloca i8*, align 8
  %factor = alloca double, align 8
  %exn.slot = alloca i8*
  %ehselector.slot = alloca i32
  %ref.tmp = alloca %"class.std::__cxx11::basic_string", align 8
  %cleanup.cond = alloca i1, align 1
  %ref.tmp12 = alloca %"class.std::__cxx11::basic_string", align 8
  %cleanup.cond14 = alloca i1, align 1
  %cleanup.isactive = alloca i1, align 1
  store double %d, double* %d.addr, align 8
  call void @llvm.dbg.declare(metadata double* %d.addr, metadata !1733, metadata !DIExpression()), !dbg !1734
  store i8* %unit, i8** %unit.addr, align 8
  call void @llvm.dbg.declare(metadata i8** %unit.addr, metadata !1735, metadata !DIExpression()), !dbg !1736
  store i8* %targetUnit, i8** %targetUnit.addr, align 8
  call void @llvm.dbg.declare(metadata i8** %targetUnit.addr, metadata !1737, metadata !DIExpression()), !dbg !1738
  %0 = load double, double* %d.addr, align 8, !dbg !1739
  %cmp = fcmp oeq double %0, 0.000000e+00, !dbg !1741
  br i1 %cmp, label %land.lhs.true, label %if.end, !dbg !1742

land.lhs.true:                                    ; preds = %entry
  %1 = load i8*, i8** %unit.addr, align 8, !dbg !1743
  %call = call zeroext i1 @_Z11opp_isemptyPKc(i8* %1), !dbg !1744
  br i1 %call, label %if.then, label %if.end, !dbg !1745

if.then:                                          ; preds = %land.lhs.true
  store double 0.000000e+00, double* %retval, align 8, !dbg !1746
  br label %return, !dbg !1746

if.end:                                           ; preds = %land.lhs.true, %entry
  call void @llvm.dbg.declare(metadata double* %factor, metadata !1747, metadata !DIExpression()), !dbg !1748
  %2 = load i8*, i8** %unit.addr, align 8, !dbg !1749
  %3 = load i8*, i8** %targetUnit.addr, align 8, !dbg !1750
  %call1 = call double @_ZN14UnitConversion19getConversionFactorEPKcS1_(i8* %2, i8* %3), !dbg !1751
  store double %call1, double* %factor, align 8, !dbg !1748
  %4 = load double, double* %factor, align 8, !dbg !1752
  %cmp2 = fcmp oeq double %4, 0.000000e+00, !dbg !1754
  br i1 %cmp2, label %if.then3, label %if.end33, !dbg !1755

if.then3:                                         ; preds = %if.end
  %exception = call i8* @__cxa_allocate_exception(i64 48) #12, !dbg !1756
  store i1 true, i1* %cleanup.isactive, align 1
  %5 = bitcast i8* %exception to %class.opp_runtime_error*, !dbg !1756
  %6 = load i8*, i8** %unit.addr, align 8, !dbg !1757
  store i1 false, i1* %cleanup.cond, align 1
  %call4 = invoke zeroext i1 @_Z11opp_isemptyPKc(i8* %6)
          to label %invoke.cont unwind label %lpad, !dbg !1758

invoke.cont:                                      ; preds = %if.then3
  br i1 %call4, label %cond.true, label %cond.false, !dbg !1758

cond.true:                                        ; preds = %invoke.cont
  br label %cond.end, !dbg !1758

cond.false:                                       ; preds = %invoke.cont
  %7 = load i8*, i8** %unit.addr, align 8, !dbg !1759
  invoke void @_ZN14UnitConversion18getUnitDescriptionB5cxx11EPKc(%"class.std::__cxx11::basic_string"* sret %ref.tmp, i8* %7)
          to label %invoke.cont5 unwind label %lpad, !dbg !1760

invoke.cont5:                                     ; preds = %cond.false
  store i1 true, i1* %cleanup.cond, align 1, !dbg !1760
  %call6 = call i8* @_ZNKSt7__cxx1112basic_stringIcSt11char_traitsIcESaIcEE5c_strEv(%"class.std::__cxx11::basic_string"* %ref.tmp) #12, !dbg !1761
  br label %cond.end, !dbg !1758

cond.end:                                         ; preds = %invoke.cont5, %cond.true
  %cond = phi i8* [ getelementptr inbounds ([5 x i8], [5 x i8]* @.str.93, i64 0, i64 0), %cond.true ], [ %call6, %invoke.cont5 ], !dbg !1758
  %8 = load i8*, i8** %targetUnit.addr, align 8, !dbg !1762
  store i1 false, i1* %cleanup.cond14, align 1
  %call9 = invoke zeroext i1 @_Z11opp_isemptyPKc(i8* %8)
          to label %invoke.cont8 unwind label %lpad7, !dbg !1763

invoke.cont8:                                     ; preds = %cond.end
  br i1 %call9, label %cond.true10, label %cond.false11, !dbg !1763

cond.true10:                                      ; preds = %invoke.cont8
  br label %cond.end16, !dbg !1763

cond.false11:                                     ; preds = %invoke.cont8
  %9 = load i8*, i8** %targetUnit.addr, align 8, !dbg !1764
  invoke void @_ZN14UnitConversion18getUnitDescriptionB5cxx11EPKc(%"class.std::__cxx11::basic_string"* sret %ref.tmp12, i8* %9)
          to label %invoke.cont13 unwind label %lpad7, !dbg !1765

invoke.cont13:                                    ; preds = %cond.false11
  store i1 true, i1* %cleanup.cond14, align 1, !dbg !1765
  %call15 = call i8* @_ZNKSt7__cxx1112basic_stringIcSt11char_traitsIcESaIcEE5c_strEv(%"class.std::__cxx11::basic_string"* %ref.tmp12) #12, !dbg !1766
  br label %cond.end16, !dbg !1763

cond.end16:                                       ; preds = %invoke.cont13, %cond.true10
  %cond17 = phi i8* [ getelementptr inbounds ([5 x i8], [5 x i8]* @.str.93, i64 0, i64 0), %cond.true10 ], [ %call15, %invoke.cont13 ], !dbg !1763
  invoke void (%class.opp_runtime_error*, i8*, ...) @_ZN17opp_runtime_errorC1EPKcz(%class.opp_runtime_error* %5, i8* getelementptr inbounds ([29 x i8], [29 x i8]* @.str.92, i64 0, i64 0), i8* %cond, i8* %cond17)
          to label %invoke.cont19 unwind label %lpad18, !dbg !1767

invoke.cont19:                                    ; preds = %cond.end16
  store i1 false, i1* %cleanup.isactive, align 1, !dbg !1756
  invoke void @__cxa_throw(i8* %exception, i8* bitcast ({ i8*, i8*, i8* }* @_ZTI17opp_runtime_error to i8*), i8* bitcast (void (%class.opp_runtime_error*)* @_ZN17opp_runtime_errorD2Ev to i8*)) #13
          to label %unreachable unwind label %lpad18, !dbg !1756

throw.cont:                                       ; No predecessors!
  %cleanup.is_active = load i1, i1* %cleanup.cond14, align 1, !dbg !1756
  br i1 %cleanup.is_active, label %cleanup.action, label %cleanup.done, !dbg !1756

cleanup.action:                                   ; preds = %throw.cont
  call void @_ZNSt7__cxx1112basic_stringIcSt11char_traitsIcESaIcEED1Ev(%"class.std::__cxx11::basic_string"* %ref.tmp12) #12, !dbg !1756
  br label %cleanup.done, !dbg !1756

cleanup.done:                                     ; preds = %cleanup.action, %throw.cont
  %cleanup.is_active23 = load i1, i1* %cleanup.cond, align 1, !dbg !1756
  br i1 %cleanup.is_active23, label %cleanup.action24, label %cleanup.done25, !dbg !1756

cleanup.action24:                                 ; preds = %cleanup.done
  call void @_ZNSt7__cxx1112basic_stringIcSt11char_traitsIcESaIcEED1Ev(%"class.std::__cxx11::basic_string"* %ref.tmp) #12, !dbg !1756
  br label %cleanup.done25, !dbg !1756

cleanup.done25:                                   ; preds = %cleanup.action24, %cleanup.done
  br label %if.end33, !dbg !1756

lpad:                                             ; preds = %cond.false, %if.then3
  %10 = landingpad { i8*, i32 }
          cleanup, !dbg !1768
  %11 = extractvalue { i8*, i32 } %10, 0, !dbg !1768
  store i8* %11, i8** %exn.slot, align 8, !dbg !1768
  %12 = extractvalue { i8*, i32 } %10, 1, !dbg !1768
  store i32 %12, i32* %ehselector.slot, align 4, !dbg !1768
  br label %ehcleanup29, !dbg !1768

lpad7:                                            ; preds = %cond.false11, %cond.end
  %13 = landingpad { i8*, i32 }
          cleanup, !dbg !1768
  %14 = extractvalue { i8*, i32 } %13, 0, !dbg !1768
  store i8* %14, i8** %exn.slot, align 8, !dbg !1768
  %15 = extractvalue { i8*, i32 } %13, 1, !dbg !1768
  store i32 %15, i32* %ehselector.slot, align 4, !dbg !1768
  br label %ehcleanup, !dbg !1768

lpad18:                                           ; preds = %invoke.cont19, %cond.end16
  %16 = landingpad { i8*, i32 }
          cleanup, !dbg !1768
  %17 = extractvalue { i8*, i32 } %16, 0, !dbg !1768
  store i8* %17, i8** %exn.slot, align 8, !dbg !1768
  %18 = extractvalue { i8*, i32 } %16, 1, !dbg !1768
  store i32 %18, i32* %ehselector.slot, align 4, !dbg !1768
  %cleanup.is_active20 = load i1, i1* %cleanup.cond14, align 1, !dbg !1756
  br i1 %cleanup.is_active20, label %cleanup.action21, label %cleanup.done22, !dbg !1756

cleanup.action21:                                 ; preds = %lpad18
  call void @_ZNSt7__cxx1112basic_stringIcSt11char_traitsIcESaIcEED1Ev(%"class.std::__cxx11::basic_string"* %ref.tmp12) #12, !dbg !1756
  br label %cleanup.done22, !dbg !1756

cleanup.done22:                                   ; preds = %cleanup.action21, %lpad18
  br label %ehcleanup, !dbg !1756

ehcleanup:                                        ; preds = %cleanup.done22, %lpad7
  %cleanup.is_active26 = load i1, i1* %cleanup.cond, align 1, !dbg !1756
  br i1 %cleanup.is_active26, label %cleanup.action27, label %cleanup.done28, !dbg !1756

cleanup.action27:                                 ; preds = %ehcleanup
  call void @_ZNSt7__cxx1112basic_stringIcSt11char_traitsIcESaIcEED1Ev(%"class.std::__cxx11::basic_string"* %ref.tmp) #12, !dbg !1756
  br label %cleanup.done28, !dbg !1756

cleanup.done28:                                   ; preds = %cleanup.action27, %ehcleanup
  br label %ehcleanup29, !dbg !1756

ehcleanup29:                                      ; preds = %cleanup.done28, %lpad
  %cleanup.is_active30 = load i1, i1* %cleanup.isactive, align 1, !dbg !1756
  br i1 %cleanup.is_active30, label %cleanup.action31, label %cleanup.done32, !dbg !1756

cleanup.action31:                                 ; preds = %ehcleanup29
  call void @__cxa_free_exception(i8* %exception) #12, !dbg !1756
  br label %cleanup.done32, !dbg !1756

cleanup.done32:                                   ; preds = %cleanup.action31, %ehcleanup29
  br label %eh.resume, !dbg !1756

if.end33:                                         ; preds = %cleanup.done25, %if.end
  %19 = load double, double* %factor, align 8, !dbg !1769
  %20 = load double, double* %d.addr, align 8, !dbg !1770
  %mul = fmul double %19, %20, !dbg !1771
  store double %mul, double* %retval, align 8, !dbg !1772
  br label %return, !dbg !1772

return:                                           ; preds = %if.end33, %if.then
  %21 = load double, double* %retval, align 8, !dbg !1773
  ret double %21, !dbg !1773

eh.resume:                                        ; preds = %cleanup.done32
  %exn = load i8*, i8** %exn.slot, align 8, !dbg !1756
  %sel = load i32, i32* %ehselector.slot, align 4, !dbg !1756
  %lpad.val = insertvalue { i8*, i32 } undef, i8* %exn, 0, !dbg !1756
  %lpad.val34 = insertvalue { i8*, i32 } %lpad.val, i32 %sel, 1, !dbg !1756
  resume { i8*, i32 } %lpad.val34, !dbg !1756

unreachable:                                      ; preds = %invoke.cont19
  unreachable
}

declare dso_local i8* @__cxa_allocate_exception(i64)

declare dso_local void @_ZN17opp_runtime_errorC1EPKcz(%class.opp_runtime_error*, i8*, ...) unnamed_addr #4

declare dso_local void @__cxa_free_exception(i8*)

; Function Attrs: noinline nounwind uwtable
define linkonce_odr dso_local void @_ZN17opp_runtime_errorD2Ev(%class.opp_runtime_error* %this) unnamed_addr #5 comdat align 2 !dbg !1774 {
entry:
  %this.addr = alloca %class.opp_runtime_error*, align 8
  store %class.opp_runtime_error* %this, %class.opp_runtime_error** %this.addr, align 8
  call void @llvm.dbg.declare(metadata %class.opp_runtime_error** %this.addr, metadata !1796, metadata !DIExpression()), !dbg !1798
  %this1 = load %class.opp_runtime_error*, %class.opp_runtime_error** %this.addr, align 8
  %0 = bitcast %class.opp_runtime_error* %this1 to i32 (...)***, !dbg !1799
  store i32 (...)** bitcast (i8** getelementptr inbounds ({ [5 x i8*] }, { [5 x i8*] }* @_ZTV17opp_runtime_error, i32 0, inrange i32 0, i32 2) to i32 (...)**), i32 (...)*** %0, align 8, !dbg !1799
  %errormsg = getelementptr inbounds %class.opp_runtime_error, %class.opp_runtime_error* %this1, i32 0, i32 1, !dbg !1800
  call void @_ZNSt7__cxx1112basic_stringIcSt11char_traitsIcESaIcEED1Ev(%"class.std::__cxx11::basic_string"* %errormsg) #12, !dbg !1800
  %1 = bitcast %class.opp_runtime_error* %this1 to %"class.std::runtime_error"*, !dbg !1800
  call void @_ZNSt13runtime_errorD2Ev(%"class.std::runtime_error"* %1) #12, !dbg !1800
  ret void, !dbg !1802
}

declare dso_local void @__cxa_throw(i8*, i8*, i8*)

; Function Attrs: noinline uwtable
define dso_local double @_ZN14UnitConversion19getConversionFactorEPKcS1_(i8* %unit, i8* %targetUnit) #0 align 2 !dbg !1803 {
entry:
  %retval = alloca double, align 8
  %unit.addr = alloca i8*, align 8
  %targetUnit.addr = alloca i8*, align 8
  %unitDesc = alloca %"struct.UnitConversion::UnitDesc"*, align 8
  %targetUnitDesc = alloca %"struct.UnitConversion::UnitDesc"*, align 8
  store i8* %unit, i8** %unit.addr, align 8
  call void @llvm.dbg.declare(metadata i8** %unit.addr, metadata !1804, metadata !DIExpression()), !dbg !1805
  store i8* %targetUnit, i8** %targetUnit.addr, align 8
  call void @llvm.dbg.declare(metadata i8** %targetUnit.addr, metadata !1806, metadata !DIExpression()), !dbg !1807
  %0 = load i8*, i8** %unit.addr, align 8, !dbg !1808
  %1 = load i8*, i8** %targetUnit.addr, align 8, !dbg !1810
  %cmp = icmp eq i8* %0, %1, !dbg !1811
  br i1 %cmp, label %if.then, label %lor.lhs.false, !dbg !1812

lor.lhs.false:                                    ; preds = %entry
  %2 = load i8*, i8** %unit.addr, align 8, !dbg !1813
  %3 = load i8*, i8** %targetUnit.addr, align 8, !dbg !1814
  %call = call i32 @_Z10opp_strcmpPKcS0_(i8* %2, i8* %3), !dbg !1815
  %cmp1 = icmp eq i32 %call, 0, !dbg !1816
  br i1 %cmp1, label %if.then, label %if.end, !dbg !1817

if.then:                                          ; preds = %lor.lhs.false, %entry
  store double 1.000000e+00, double* %retval, align 8, !dbg !1818
  br label %return, !dbg !1818

if.end:                                           ; preds = %lor.lhs.false
  %4 = load i8*, i8** %unit.addr, align 8, !dbg !1819
  %call2 = call zeroext i1 @_Z11opp_isemptyPKc(i8* %4), !dbg !1821
  br i1 %call2, label %if.then5, label %lor.lhs.false3, !dbg !1822

lor.lhs.false3:                                   ; preds = %if.end
  %5 = load i8*, i8** %targetUnit.addr, align 8, !dbg !1823
  %call4 = call zeroext i1 @_Z11opp_isemptyPKc(i8* %5), !dbg !1824
  br i1 %call4, label %if.then5, label %if.end6, !dbg !1825

if.then5:                                         ; preds = %lor.lhs.false3, %if.end
  store double 0.000000e+00, double* %retval, align 8, !dbg !1826
  br label %return, !dbg !1826

if.end6:                                          ; preds = %lor.lhs.false3
  call void @llvm.dbg.declare(metadata %"struct.UnitConversion::UnitDesc"** %unitDesc, metadata !1827, metadata !DIExpression()), !dbg !1828
  %6 = load i8*, i8** %unit.addr, align 8, !dbg !1829
  %call7 = call %"struct.UnitConversion::UnitDesc"* @_ZN14UnitConversion10lookupUnitEPKc(i8* %6), !dbg !1830
  store %"struct.UnitConversion::UnitDesc"* %call7, %"struct.UnitConversion::UnitDesc"** %unitDesc, align 8, !dbg !1828
  call void @llvm.dbg.declare(metadata %"struct.UnitConversion::UnitDesc"** %targetUnitDesc, metadata !1831, metadata !DIExpression()), !dbg !1832
  %7 = load i8*, i8** %targetUnit.addr, align 8, !dbg !1833
  %call8 = call %"struct.UnitConversion::UnitDesc"* @_ZN14UnitConversion10lookupUnitEPKc(i8* %7), !dbg !1834
  store %"struct.UnitConversion::UnitDesc"* %call8, %"struct.UnitConversion::UnitDesc"** %targetUnitDesc, align 8, !dbg !1832
  %8 = load %"struct.UnitConversion::UnitDesc"*, %"struct.UnitConversion::UnitDesc"** %unitDesc, align 8, !dbg !1835
  %cmp9 = icmp eq %"struct.UnitConversion::UnitDesc"* %8, null, !dbg !1837
  br i1 %cmp9, label %if.then16, label %lor.lhs.false10, !dbg !1838

lor.lhs.false10:                                  ; preds = %if.end6
  %9 = load %"struct.UnitConversion::UnitDesc"*, %"struct.UnitConversion::UnitDesc"** %targetUnitDesc, align 8, !dbg !1839
  %cmp11 = icmp eq %"struct.UnitConversion::UnitDesc"* %9, null, !dbg !1840
  br i1 %cmp11, label %if.then16, label %lor.lhs.false12, !dbg !1841

lor.lhs.false12:                                  ; preds = %lor.lhs.false10
  %10 = load %"struct.UnitConversion::UnitDesc"*, %"struct.UnitConversion::UnitDesc"** %unitDesc, align 8, !dbg !1842
  %baseUnit = getelementptr inbounds %"struct.UnitConversion::UnitDesc", %"struct.UnitConversion::UnitDesc"* %10, i32 0, i32 2, !dbg !1843
  %11 = load i8*, i8** %baseUnit, align 8, !dbg !1843
  %12 = load %"struct.UnitConversion::UnitDesc"*, %"struct.UnitConversion::UnitDesc"** %targetUnitDesc, align 8, !dbg !1844
  %baseUnit13 = getelementptr inbounds %"struct.UnitConversion::UnitDesc", %"struct.UnitConversion::UnitDesc"* %12, i32 0, i32 2, !dbg !1845
  %13 = load i8*, i8** %baseUnit13, align 8, !dbg !1845
  %call14 = call i32 @strcmp(i8* %11, i8* %13) #11, !dbg !1846
  %cmp15 = icmp ne i32 %call14, 0, !dbg !1847
  br i1 %cmp15, label %if.then16, label %if.end17, !dbg !1848

if.then16:                                        ; preds = %lor.lhs.false12, %lor.lhs.false10, %if.end6
  store double 0.000000e+00, double* %retval, align 8, !dbg !1849
  br label %return, !dbg !1849

if.end17:                                         ; preds = %lor.lhs.false12
  %14 = load %"struct.UnitConversion::UnitDesc"*, %"struct.UnitConversion::UnitDesc"** %unitDesc, align 8, !dbg !1850
  %mult = getelementptr inbounds %"struct.UnitConversion::UnitDesc", %"struct.UnitConversion::UnitDesc"* %14, i32 0, i32 1, !dbg !1851
  %15 = load double, double* %mult, align 8, !dbg !1851
  %16 = load %"struct.UnitConversion::UnitDesc"*, %"struct.UnitConversion::UnitDesc"** %targetUnitDesc, align 8, !dbg !1852
  %mult18 = getelementptr inbounds %"struct.UnitConversion::UnitDesc", %"struct.UnitConversion::UnitDesc"* %16, i32 0, i32 1, !dbg !1853
  %17 = load double, double* %mult18, align 8, !dbg !1853
  %div = fdiv double %15, %17, !dbg !1854
  store double %div, double* %retval, align 8, !dbg !1855
  br label %return, !dbg !1855

return:                                           ; preds = %if.end17, %if.then16, %if.then5, %if.then
  %18 = load double, double* %retval, align 8, !dbg !1856
  ret double %18, !dbg !1856
}

; Function Attrs: noinline uwtable
define dso_local void @_ZN14UnitConversion18getUnitDescriptionB5cxx11EPKc(%"class.std::__cxx11::basic_string"* noalias sret %agg.result, i8* %unit) #0 align 2 personality i8* bitcast (i32 (...)* @__gxx_personality_v0 to i8*) !dbg !1857 {
entry:
  %result.ptr = alloca i8*, align 8
  %unit.addr = alloca i8*, align 8
  %desc = alloca %"struct.UnitConversion::UnitDesc"*, align 8
  %nrvo = alloca i1, align 1
  %ref.tmp = alloca %"class.std::__cxx11::basic_string", align 8
  %ref.tmp1 = alloca %"class.std::__cxx11::basic_string", align 8
  %ref.tmp2 = alloca %"class.std::allocator", align 1
  %exn.slot = alloca i8*
  %ehselector.slot = alloca i32
  %ref.tmp8 = alloca %"class.std::__cxx11::basic_string", align 8
  %ref.tmp9 = alloca %"class.std::__cxx11::basic_string", align 8
  %ref.tmp10 = alloca %"class.std::__cxx11::basic_string", align 8
  %ref.tmp11 = alloca %"class.std::allocator", align 1
  %0 = bitcast %"class.std::__cxx11::basic_string"* %agg.result to i8*
  store i8* %0, i8** %result.ptr, align 8
  store i8* %unit, i8** %unit.addr, align 8
  call void @llvm.dbg.declare(metadata i8** %unit.addr, metadata !1858, metadata !DIExpression()), !dbg !1859
  call void @llvm.dbg.declare(metadata %"struct.UnitConversion::UnitDesc"** %desc, metadata !1860, metadata !DIExpression()), !dbg !1861
  %1 = load i8*, i8** %unit.addr, align 8, !dbg !1862
  %call = call %"struct.UnitConversion::UnitDesc"* @_ZN14UnitConversion10lookupUnitEPKc(i8* %1), !dbg !1863
  store %"struct.UnitConversion::UnitDesc"* %call, %"struct.UnitConversion::UnitDesc"** %desc, align 8, !dbg !1861
  store i1 false, i1* %nrvo, align 1, !dbg !1864
  call void @llvm.dbg.declare(metadata i8** %result.ptr, metadata !1865, metadata !DIExpression(DW_OP_deref)), !dbg !1866
  call void @_ZNSaIcEC1Ev(%"class.std::allocator"* %ref.tmp2) #12, !dbg !1867
  invoke void @_ZNSt7__cxx1112basic_stringIcSt11char_traitsIcESaIcEEC1EPKcRKS3_(%"class.std::__cxx11::basic_string"* %ref.tmp1, i8* getelementptr inbounds ([2 x i8], [2 x i8]* @.str.89, i64 0, i64 0), %"class.std::allocator"* dereferenceable(1) %ref.tmp2)
          to label %invoke.cont unwind label %lpad, !dbg !1867

invoke.cont:                                      ; preds = %entry
  %2 = load i8*, i8** %unit.addr, align 8, !dbg !1868
  invoke void @_ZStplIcSt11char_traitsIcESaIcEENSt7__cxx1112basic_stringIT_T0_T1_EEOS8_PKS5_(%"class.std::__cxx11::basic_string"* sret %ref.tmp, %"class.std::__cxx11::basic_string"* dereferenceable(32) %ref.tmp1, i8* %2)
          to label %invoke.cont4 unwind label %lpad3, !dbg !1869

invoke.cont4:                                     ; preds = %invoke.cont
  invoke void @_ZStplIcSt11char_traitsIcESaIcEENSt7__cxx1112basic_stringIT_T0_T1_EEOS8_PKS5_(%"class.std::__cxx11::basic_string"* sret %agg.result, %"class.std::__cxx11::basic_string"* dereferenceable(32) %ref.tmp, i8* getelementptr inbounds ([2 x i8], [2 x i8]* @.str.89, i64 0, i64 0))
          to label %invoke.cont6 unwind label %lpad5, !dbg !1870

invoke.cont6:                                     ; preds = %invoke.cont4
  call void @_ZNSt7__cxx1112basic_stringIcSt11char_traitsIcESaIcEED1Ev(%"class.std::__cxx11::basic_string"* %ref.tmp) #12, !dbg !1867
  call void @_ZNSt7__cxx1112basic_stringIcSt11char_traitsIcESaIcEED1Ev(%"class.std::__cxx11::basic_string"* %ref.tmp1) #12, !dbg !1867
  call void @_ZNSaIcED1Ev(%"class.std::allocator"* %ref.tmp2) #12, !dbg !1867
  %3 = load %"struct.UnitConversion::UnitDesc"*, %"struct.UnitConversion::UnitDesc"** %desc, align 8, !dbg !1871
  %tobool = icmp ne %"struct.UnitConversion::UnitDesc"* %3, null, !dbg !1871
  br i1 %tobool, label %if.then, label %if.end, !dbg !1873

if.then:                                          ; preds = %invoke.cont6
  call void @_ZNSaIcEC1Ev(%"class.std::allocator"* %ref.tmp11) #12, !dbg !1874
  invoke void @_ZNSt7__cxx1112basic_stringIcSt11char_traitsIcESaIcEEC1EPKcRKS3_(%"class.std::__cxx11::basic_string"* %ref.tmp10, i8* getelementptr inbounds ([3 x i8], [3 x i8]* @.str.90, i64 0, i64 0), %"class.std::allocator"* dereferenceable(1) %ref.tmp11)
          to label %invoke.cont13 unwind label %lpad12, !dbg !1874

invoke.cont13:                                    ; preds = %if.then
  %4 = load %"struct.UnitConversion::UnitDesc"*, %"struct.UnitConversion::UnitDesc"** %desc, align 8, !dbg !1875
  %longName = getelementptr inbounds %"struct.UnitConversion::UnitDesc", %"struct.UnitConversion::UnitDesc"* %4, i32 0, i32 3, !dbg !1876
  %5 = load i8*, i8** %longName, align 8, !dbg !1876
  invoke void @_ZStplIcSt11char_traitsIcESaIcEENSt7__cxx1112basic_stringIT_T0_T1_EEOS8_PKS5_(%"class.std::__cxx11::basic_string"* sret %ref.tmp9, %"class.std::__cxx11::basic_string"* dereferenceable(32) %ref.tmp10, i8* %5)
          to label %invoke.cont15 unwind label %lpad14, !dbg !1877

invoke.cont15:                                    ; preds = %invoke.cont13
  invoke void @_ZStplIcSt11char_traitsIcESaIcEENSt7__cxx1112basic_stringIT_T0_T1_EEOS8_PKS5_(%"class.std::__cxx11::basic_string"* sret %ref.tmp8, %"class.std::__cxx11::basic_string"* dereferenceable(32) %ref.tmp9, i8* getelementptr inbounds ([2 x i8], [2 x i8]* @.str.91, i64 0, i64 0))
          to label %invoke.cont17 unwind label %lpad16, !dbg !1878

invoke.cont17:                                    ; preds = %invoke.cont15
  %call20 = invoke dereferenceable(32) %"class.std::__cxx11::basic_string"* @_ZNSt7__cxx1112basic_stringIcSt11char_traitsIcESaIcEEpLERKS4_(%"class.std::__cxx11::basic_string"* %agg.result, %"class.std::__cxx11::basic_string"* dereferenceable(32) %ref.tmp8)
          to label %invoke.cont19 unwind label %lpad18, !dbg !1879

invoke.cont19:                                    ; preds = %invoke.cont17
  call void @_ZNSt7__cxx1112basic_stringIcSt11char_traitsIcESaIcEED1Ev(%"class.std::__cxx11::basic_string"* %ref.tmp8) #12, !dbg !1880
  call void @_ZNSt7__cxx1112basic_stringIcSt11char_traitsIcESaIcEED1Ev(%"class.std::__cxx11::basic_string"* %ref.tmp9) #12, !dbg !1880
  call void @_ZNSt7__cxx1112basic_stringIcSt11char_traitsIcESaIcEED1Ev(%"class.std::__cxx11::basic_string"* %ref.tmp10) #12, !dbg !1880
  call void @_ZNSaIcED1Ev(%"class.std::allocator"* %ref.tmp11) #12, !dbg !1880
  br label %if.end, !dbg !1880

lpad:                                             ; preds = %entry
  %6 = landingpad { i8*, i32 }
          cleanup, !dbg !1881
  %7 = extractvalue { i8*, i32 } %6, 0, !dbg !1881
  store i8* %7, i8** %exn.slot, align 8, !dbg !1881
  %8 = extractvalue { i8*, i32 } %6, 1, !dbg !1881
  store i32 %8, i32* %ehselector.slot, align 4, !dbg !1881
  br label %ehcleanup7, !dbg !1881

lpad3:                                            ; preds = %invoke.cont
  %9 = landingpad { i8*, i32 }
          cleanup, !dbg !1881
  %10 = extractvalue { i8*, i32 } %9, 0, !dbg !1881
  store i8* %10, i8** %exn.slot, align 8, !dbg !1881
  %11 = extractvalue { i8*, i32 } %9, 1, !dbg !1881
  store i32 %11, i32* %ehselector.slot, align 4, !dbg !1881
  br label %ehcleanup, !dbg !1881

lpad5:                                            ; preds = %invoke.cont4
  %12 = landingpad { i8*, i32 }
          cleanup, !dbg !1881
  %13 = extractvalue { i8*, i32 } %12, 0, !dbg !1881
  store i8* %13, i8** %exn.slot, align 8, !dbg !1881
  %14 = extractvalue { i8*, i32 } %12, 1, !dbg !1881
  store i32 %14, i32* %ehselector.slot, align 4, !dbg !1881
  call void @_ZNSt7__cxx1112basic_stringIcSt11char_traitsIcESaIcEED1Ev(%"class.std::__cxx11::basic_string"* %ref.tmp) #12, !dbg !1867
  br label %ehcleanup, !dbg !1867

ehcleanup:                                        ; preds = %lpad5, %lpad3
  call void @_ZNSt7__cxx1112basic_stringIcSt11char_traitsIcESaIcEED1Ev(%"class.std::__cxx11::basic_string"* %ref.tmp1) #12, !dbg !1867
  br label %ehcleanup7, !dbg !1867

ehcleanup7:                                       ; preds = %ehcleanup, %lpad
  call void @_ZNSaIcED1Ev(%"class.std::allocator"* %ref.tmp2) #12, !dbg !1867
  br label %eh.resume, !dbg !1867

lpad12:                                           ; preds = %if.then
  %15 = landingpad { i8*, i32 }
          cleanup, !dbg !1882
  %16 = extractvalue { i8*, i32 } %15, 0, !dbg !1882
  store i8* %16, i8** %exn.slot, align 8, !dbg !1882
  %17 = extractvalue { i8*, i32 } %15, 1, !dbg !1882
  store i32 %17, i32* %ehselector.slot, align 4, !dbg !1882
  br label %ehcleanup24, !dbg !1882

lpad14:                                           ; preds = %invoke.cont13
  %18 = landingpad { i8*, i32 }
          cleanup, !dbg !1882
  %19 = extractvalue { i8*, i32 } %18, 0, !dbg !1882
  store i8* %19, i8** %exn.slot, align 8, !dbg !1882
  %20 = extractvalue { i8*, i32 } %18, 1, !dbg !1882
  store i32 %20, i32* %ehselector.slot, align 4, !dbg !1882
  br label %ehcleanup23, !dbg !1882

lpad16:                                           ; preds = %invoke.cont15
  %21 = landingpad { i8*, i32 }
          cleanup, !dbg !1882
  %22 = extractvalue { i8*, i32 } %21, 0, !dbg !1882
  store i8* %22, i8** %exn.slot, align 8, !dbg !1882
  %23 = extractvalue { i8*, i32 } %21, 1, !dbg !1882
  store i32 %23, i32* %ehselector.slot, align 4, !dbg !1882
  br label %ehcleanup22, !dbg !1882

lpad18:                                           ; preds = %invoke.cont17
  %24 = landingpad { i8*, i32 }
          cleanup, !dbg !1882
  %25 = extractvalue { i8*, i32 } %24, 0, !dbg !1882
  store i8* %25, i8** %exn.slot, align 8, !dbg !1882
  %26 = extractvalue { i8*, i32 } %24, 1, !dbg !1882
  store i32 %26, i32* %ehselector.slot, align 4, !dbg !1882
  call void @_ZNSt7__cxx1112basic_stringIcSt11char_traitsIcESaIcEED1Ev(%"class.std::__cxx11::basic_string"* %ref.tmp8) #12, !dbg !1880
  br label %ehcleanup22, !dbg !1880

ehcleanup22:                                      ; preds = %lpad18, %lpad16
  call void @_ZNSt7__cxx1112basic_stringIcSt11char_traitsIcESaIcEED1Ev(%"class.std::__cxx11::basic_string"* %ref.tmp9) #12, !dbg !1880
  br label %ehcleanup23, !dbg !1880

ehcleanup23:                                      ; preds = %ehcleanup22, %lpad14
  call void @_ZNSt7__cxx1112basic_stringIcSt11char_traitsIcESaIcEED1Ev(%"class.std::__cxx11::basic_string"* %ref.tmp10) #12, !dbg !1880
  br label %ehcleanup24, !dbg !1880

ehcleanup24:                                      ; preds = %ehcleanup23, %lpad12
  call void @_ZNSaIcED1Ev(%"class.std::allocator"* %ref.tmp11) #12, !dbg !1880
  call void @_ZNSt7__cxx1112basic_stringIcSt11char_traitsIcESaIcEED1Ev(%"class.std::__cxx11::basic_string"* %agg.result) #12, !dbg !1881
  br label %eh.resume, !dbg !1881

if.end:                                           ; preds = %invoke.cont19, %invoke.cont6
  store i1 true, i1* %nrvo, align 1, !dbg !1883
  %nrvo.val = load i1, i1* %nrvo, align 1, !dbg !1881
  br i1 %nrvo.val, label %nrvo.skipdtor, label %nrvo.unused, !dbg !1881

nrvo.unused:                                      ; preds = %if.end
  call void @_ZNSt7__cxx1112basic_stringIcSt11char_traitsIcESaIcEED1Ev(%"class.std::__cxx11::basic_string"* %agg.result) #12, !dbg !1881
  br label %nrvo.skipdtor, !dbg !1881

nrvo.skipdtor:                                    ; preds = %nrvo.unused, %if.end
  ret void, !dbg !1881

eh.resume:                                        ; preds = %ehcleanup24, %ehcleanup7
  %exn = load i8*, i8** %exn.slot, align 8, !dbg !1867
  %sel = load i32, i32* %ehselector.slot, align 4, !dbg !1867
  %lpad.val = insertvalue { i8*, i32 } undef, i8* %exn, 0, !dbg !1867
  %lpad.val26 = insertvalue { i8*, i32 } %lpad.val, i32 %sel, 1, !dbg !1867
  resume { i8*, i32 } %lpad.val26, !dbg !1867
}

declare dso_local dereferenceable(32) %"class.std::__cxx11::basic_string"* @_ZNSt7__cxx1112basic_stringIcSt11char_traitsIcESaIcEEaSERKS4_(%"class.std::__cxx11::basic_string"*, %"class.std::__cxx11::basic_string"* dereferenceable(32)) #4

; Function Attrs: noinline uwtable
define dso_local void @_ZN14UnitConversion14formatQuantityB5cxx11EdPKc(%"class.std::__cxx11::basic_string"* noalias sret %agg.result, double %d, i8* %unit) #0 align 2 !dbg !1884 {
entry:
  %result.ptr = alloca i8*, align 8
  %d.addr = alloca double, align 8
  %unit.addr = alloca i8*, align 8
  %0 = bitcast %"class.std::__cxx11::basic_string"* %agg.result to i8*
  store i8* %0, i8** %result.ptr, align 8
  store double %d, double* %d.addr, align 8
  call void @llvm.dbg.declare(metadata double* %d.addr, metadata !1885, metadata !DIExpression()), !dbg !1886
  store i8* %unit, i8** %unit.addr, align 8
  call void @llvm.dbg.declare(metadata i8** %unit.addr, metadata !1887, metadata !DIExpression()), !dbg !1888
  %1 = load double, double* %d.addr, align 8, !dbg !1889
  %2 = load i8*, i8** %unit.addr, align 8, !dbg !1890
  %call = call i8* @_Z15opp_nulltoemptyPKc(i8* %2), !dbg !1891
  call void (%"class.std::__cxx11::basic_string"*, i8*, ...) @_Z11opp_stringfB5cxx11PKcz(%"class.std::__cxx11::basic_string"* sret %agg.result, i8* getelementptr inbounds ([5 x i8], [5 x i8]* @.str.88, i64 0, i64 0), double %1, i8* %call), !dbg !1892
  ret void, !dbg !1893
}

declare dso_local void @_Z11opp_stringfB5cxx11PKcz(%"class.std::__cxx11::basic_string"* sret, i8*, ...) #4

; Function Attrs: noinline nounwind uwtable
define linkonce_odr dso_local i8* @_Z15opp_nulltoemptyPKc(i8* %s) #5 comdat !dbg !1894 {
entry:
  %s.addr = alloca i8*, align 8
  store i8* %s, i8** %s.addr, align 8
  call void @llvm.dbg.declare(metadata i8** %s.addr, metadata !1896, metadata !DIExpression()), !dbg !1897
  %0 = load i8*, i8** %s.addr, align 8, !dbg !1898
  %tobool = icmp ne i8* %0, null, !dbg !1898
  br i1 %tobool, label %cond.true, label %cond.false, !dbg !1898

cond.true:                                        ; preds = %entry
  %1 = load i8*, i8** %s.addr, align 8, !dbg !1899
  br label %cond.end, !dbg !1898

cond.false:                                       ; preds = %entry
  br label %cond.end, !dbg !1898

cond.end:                                         ; preds = %cond.false, %cond.true
  %cond = phi i8* [ %1, %cond.true ], [ getelementptr inbounds ([1 x i8], [1 x i8]* @.str.82, i64 0, i64 0), %cond.false ], !dbg !1898
  ret i8* %cond, !dbg !1900
}

; Function Attrs: noinline uwtable
define linkonce_odr dso_local void @_ZStplIcSt11char_traitsIcESaIcEENSt7__cxx1112basic_stringIT_T0_T1_EEOS8_PKS5_(%"class.std::__cxx11::basic_string"* noalias sret %agg.result, %"class.std::__cxx11::basic_string"* dereferenceable(32) %__lhs, i8* %__rhs) #0 comdat !dbg !1901 {
entry:
  %result.ptr = alloca i8*, align 8
  %__lhs.addr = alloca %"class.std::__cxx11::basic_string"*, align 8
  %__rhs.addr = alloca i8*, align 8
  %0 = bitcast %"class.std::__cxx11::basic_string"* %agg.result to i8*
  store i8* %0, i8** %result.ptr, align 8
  store %"class.std::__cxx11::basic_string"* %__lhs, %"class.std::__cxx11::basic_string"** %__lhs.addr, align 8
  call void @llvm.dbg.declare(metadata %"class.std::__cxx11::basic_string"** %__lhs.addr, metadata !1962, metadata !DIExpression()), !dbg !1963
  store i8* %__rhs, i8** %__rhs.addr, align 8
  call void @llvm.dbg.declare(metadata i8** %__rhs.addr, metadata !1964, metadata !DIExpression()), !dbg !1965
  %1 = load %"class.std::__cxx11::basic_string"*, %"class.std::__cxx11::basic_string"** %__lhs.addr, align 8, !dbg !1966
  %2 = load i8*, i8** %__rhs.addr, align 8, !dbg !1967
  %call = call dereferenceable(32) %"class.std::__cxx11::basic_string"* @_ZNSt7__cxx1112basic_stringIcSt11char_traitsIcESaIcEE6appendEPKc(%"class.std::__cxx11::basic_string"* %1, i8* %2), !dbg !1968
  %call1 = call dereferenceable(32) %"class.std::__cxx11::basic_string"* @_ZSt4moveIRNSt7__cxx1112basic_stringIcSt11char_traitsIcESaIcEEEEONSt16remove_referenceIT_E4typeEOS8_(%"class.std::__cxx11::basic_string"* dereferenceable(32) %call) #12, !dbg !1969
  call void @_ZNSt7__cxx1112basic_stringIcSt11char_traitsIcESaIcEEC1EOS4_(%"class.std::__cxx11::basic_string"* %agg.result, %"class.std::__cxx11::basic_string"* dereferenceable(32) %call1) #12, !dbg !1969
  ret void, !dbg !1970
}

declare dso_local void @_ZNSt7__cxx1112basic_stringIcSt11char_traitsIcESaIcEEC1EPKcRKS3_(%"class.std::__cxx11::basic_string"*, i8*, %"class.std::allocator"* dereferenceable(1)) unnamed_addr #4

declare dso_local dereferenceable(32) %"class.std::__cxx11::basic_string"* @_ZNSt7__cxx1112basic_stringIcSt11char_traitsIcESaIcEEpLERKS4_(%"class.std::__cxx11::basic_string"*, %"class.std::__cxx11::basic_string"* dereferenceable(32)) #4

; Function Attrs: noinline nounwind uwtable
define linkonce_odr dso_local i32 @_Z10opp_strcmpPKcS0_(i8* %s1, i8* %s2) #5 comdat !dbg !1971 {
entry:
  %retval = alloca i32, align 4
  %s1.addr = alloca i8*, align 8
  %s2.addr = alloca i8*, align 8
  store i8* %s1, i8** %s1.addr, align 8
  call void @llvm.dbg.declare(metadata i8** %s1.addr, metadata !1972, metadata !DIExpression()), !dbg !1973
  store i8* %s2, i8** %s2.addr, align 8
  call void @llvm.dbg.declare(metadata i8** %s2.addr, metadata !1974, metadata !DIExpression()), !dbg !1975
  %0 = load i8*, i8** %s1.addr, align 8, !dbg !1976
  %tobool = icmp ne i8* %0, null, !dbg !1976
  br i1 %tobool, label %if.then, label %if.else, !dbg !1978

if.then:                                          ; preds = %entry
  %1 = load i8*, i8** %s2.addr, align 8, !dbg !1979
  %tobool1 = icmp ne i8* %1, null, !dbg !1979
  br i1 %tobool1, label %cond.true, label %cond.false, !dbg !1979

cond.true:                                        ; preds = %if.then
  %2 = load i8*, i8** %s1.addr, align 8, !dbg !1980
  %3 = load i8*, i8** %s2.addr, align 8, !dbg !1981
  %call = call i32 @strcmp(i8* %2, i8* %3) #11, !dbg !1982
  br label %cond.end, !dbg !1979

cond.false:                                       ; preds = %if.then
  %4 = load i8*, i8** %s1.addr, align 8, !dbg !1983
  %5 = load i8, i8* %4, align 1, !dbg !1984
  %tobool2 = icmp ne i8 %5, 0, !dbg !1984
  %6 = zext i1 %tobool2 to i64, !dbg !1984
  %cond = select i1 %tobool2, i32 1, i32 0, !dbg !1984
  br label %cond.end, !dbg !1979

cond.end:                                         ; preds = %cond.false, %cond.true
  %cond3 = phi i32 [ %call, %cond.true ], [ %cond, %cond.false ], !dbg !1979
  store i32 %cond3, i32* %retval, align 4, !dbg !1985
  br label %return, !dbg !1985

if.else:                                          ; preds = %entry
  %7 = load i8*, i8** %s2.addr, align 8, !dbg !1986
  %tobool4 = icmp ne i8* %7, null, !dbg !1986
  br i1 %tobool4, label %land.rhs, label %land.end, !dbg !1987

land.rhs:                                         ; preds = %if.else
  %8 = load i8*, i8** %s2.addr, align 8, !dbg !1988
  %9 = load i8, i8* %8, align 1, !dbg !1989
  %tobool5 = icmp ne i8 %9, 0, !dbg !1989
  br label %land.end

land.end:                                         ; preds = %land.rhs, %if.else
  %10 = phi i1 [ false, %if.else ], [ %tobool5, %land.rhs ], !dbg !1990
  %11 = zext i1 %10 to i64, !dbg !1991
  %cond6 = select i1 %10, i32 -1, i32 0, !dbg !1991
  store i32 %cond6, i32* %retval, align 4, !dbg !1992
  br label %return, !dbg !1992

return:                                           ; preds = %land.end, %cond.end
  %12 = load i32, i32* %retval, align 4, !dbg !1993
  ret i32 %12, !dbg !1993
}

; Function Attrs: noinline nounwind uwtable
define linkonce_odr dso_local zeroext i1 @_Z11opp_isemptyPKc(i8* %s) #5 comdat !dbg !1994 {
entry:
  %s.addr = alloca i8*, align 8
  store i8* %s, i8** %s.addr, align 8
  call void @llvm.dbg.declare(metadata i8** %s.addr, metadata !1997, metadata !DIExpression()), !dbg !1998
  %0 = load i8*, i8** %s.addr, align 8, !dbg !1999
  %tobool = icmp ne i8* %0, null, !dbg !1999
  br i1 %tobool, label %lor.rhs, label %lor.end, !dbg !2000

lor.rhs:                                          ; preds = %entry
  %1 = load i8*, i8** %s.addr, align 8, !dbg !2001
  %arrayidx = getelementptr inbounds i8, i8* %1, i64 0, !dbg !2001
  %2 = load i8, i8* %arrayidx, align 1, !dbg !2001
  %tobool1 = icmp ne i8 %2, 0, !dbg !2001
  %lnot = xor i1 %tobool1, true, !dbg !2002
  br label %lor.end, !dbg !2000

lor.end:                                          ; preds = %lor.rhs, %entry
  %3 = phi i1 [ true, %entry ], [ %lnot, %lor.rhs ]
  ret i1 %3, !dbg !2003
}

; Function Attrs: noinline uwtable
define dso_local i8* @_ZN14UnitConversion11getLongNameEPKc(i8* %unit) #0 align 2 !dbg !2004 {
entry:
  %unit.addr = alloca i8*, align 8
  %unitDesc = alloca %"struct.UnitConversion::UnitDesc"*, align 8
  store i8* %unit, i8** %unit.addr, align 8
  call void @llvm.dbg.declare(metadata i8** %unit.addr, metadata !2005, metadata !DIExpression()), !dbg !2006
  call void @llvm.dbg.declare(metadata %"struct.UnitConversion::UnitDesc"** %unitDesc, metadata !2007, metadata !DIExpression()), !dbg !2008
  %0 = load i8*, i8** %unit.addr, align 8, !dbg !2009
  %call = call %"struct.UnitConversion::UnitDesc"* @_ZN14UnitConversion10lookupUnitEPKc(i8* %0), !dbg !2010
  store %"struct.UnitConversion::UnitDesc"* %call, %"struct.UnitConversion::UnitDesc"** %unitDesc, align 8, !dbg !2008
  %1 = load %"struct.UnitConversion::UnitDesc"*, %"struct.UnitConversion::UnitDesc"** %unitDesc, align 8, !dbg !2011
  %tobool = icmp ne %"struct.UnitConversion::UnitDesc"* %1, null, !dbg !2011
  br i1 %tobool, label %cond.true, label %cond.false, !dbg !2011

cond.true:                                        ; preds = %entry
  %2 = load %"struct.UnitConversion::UnitDesc"*, %"struct.UnitConversion::UnitDesc"** %unitDesc, align 8, !dbg !2012
  %longName = getelementptr inbounds %"struct.UnitConversion::UnitDesc", %"struct.UnitConversion::UnitDesc"* %2, i32 0, i32 3, !dbg !2013
  %3 = load i8*, i8** %longName, align 8, !dbg !2013
  br label %cond.end, !dbg !2011

cond.false:                                       ; preds = %entry
  br label %cond.end, !dbg !2011

cond.end:                                         ; preds = %cond.false, %cond.true
  %cond = phi i8* [ %3, %cond.true ], [ null, %cond.false ], !dbg !2011
  ret i8* %cond, !dbg !2014
}

; Function Attrs: noinline uwtable
define dso_local i8* @_ZN14UnitConversion11getBaseUnitEPKc(i8* %unit) #0 align 2 !dbg !2015 {
entry:
  %unit.addr = alloca i8*, align 8
  %unitDesc = alloca %"struct.UnitConversion::UnitDesc"*, align 8
  store i8* %unit, i8** %unit.addr, align 8
  call void @llvm.dbg.declare(metadata i8** %unit.addr, metadata !2016, metadata !DIExpression()), !dbg !2017
  call void @llvm.dbg.declare(metadata %"struct.UnitConversion::UnitDesc"** %unitDesc, metadata !2018, metadata !DIExpression()), !dbg !2019
  %0 = load i8*, i8** %unit.addr, align 8, !dbg !2020
  %call = call %"struct.UnitConversion::UnitDesc"* @_ZN14UnitConversion10lookupUnitEPKc(i8* %0), !dbg !2021
  store %"struct.UnitConversion::UnitDesc"* %call, %"struct.UnitConversion::UnitDesc"** %unitDesc, align 8, !dbg !2019
  %1 = load %"struct.UnitConversion::UnitDesc"*, %"struct.UnitConversion::UnitDesc"** %unitDesc, align 8, !dbg !2022
  %tobool = icmp ne %"struct.UnitConversion::UnitDesc"* %1, null, !dbg !2022
  br i1 %tobool, label %cond.true, label %cond.false, !dbg !2022

cond.true:                                        ; preds = %entry
  %2 = load %"struct.UnitConversion::UnitDesc"*, %"struct.UnitConversion::UnitDesc"** %unitDesc, align 8, !dbg !2023
  %baseUnit = getelementptr inbounds %"struct.UnitConversion::UnitDesc", %"struct.UnitConversion::UnitDesc"* %2, i32 0, i32 2, !dbg !2024
  %3 = load i8*, i8** %baseUnit, align 8, !dbg !2024
  br label %cond.end, !dbg !2022

cond.false:                                       ; preds = %entry
  br label %cond.end, !dbg !2022

cond.end:                                         ; preds = %cond.false, %cond.true
  %cond = phi i8* [ %3, %cond.true ], [ null, %cond.false ], !dbg !2022
  ret i8* %cond, !dbg !2025
}

; Function Attrs: noinline uwtable
define dso_local void @_ZN14UnitConversion11getAllUnitsEv(%"class.std::vector"* noalias sret %agg.result) #0 align 2 personality i8* bitcast (i32 (...)* @__gxx_personality_v0 to i8*) !dbg !2026 {
entry:
  %result.ptr = alloca i8*, align 8
  %nrvo = alloca i1, align 1
  %i = alloca i32, align 4
  %exn.slot = alloca i8*
  %ehselector.slot = alloca i32
  %0 = bitcast %"class.std::vector"* %agg.result to i8*
  store i8* %0, i8** %result.ptr, align 8
  store i1 false, i1* %nrvo, align 1, !dbg !2027
  call void @llvm.dbg.declare(metadata i8** %result.ptr, metadata !2028, metadata !DIExpression(DW_OP_deref)), !dbg !2029
  call void @_ZNSt6vectorIPKcSaIS1_EEC2Ev(%"class.std::vector"* %agg.result) #12, !dbg !2029
  call void @llvm.dbg.declare(metadata i32* %i, metadata !2030, metadata !DIExpression()), !dbg !2032
  store i32 0, i32* %i, align 4, !dbg !2032
  br label %for.cond, !dbg !2033

for.cond:                                         ; preds = %for.inc, %entry
  %1 = load i32, i32* %i, align 4, !dbg !2034
  %idxprom = sext i32 %1 to i64, !dbg !2036
  %arrayidx = getelementptr inbounds [41 x %"struct.UnitConversion::UnitDesc"], [41 x %"struct.UnitConversion::UnitDesc"]* @_ZN14UnitConversion9unitTableE, i64 0, i64 %idxprom, !dbg !2036
  %unit = getelementptr inbounds %"struct.UnitConversion::UnitDesc", %"struct.UnitConversion::UnitDesc"* %arrayidx, i32 0, i32 0, !dbg !2037
  %2 = load i8*, i8** %unit, align 16, !dbg !2037
  %tobool = icmp ne i8* %2, null, !dbg !2036
  br i1 %tobool, label %for.body, label %for.end, !dbg !2038

for.body:                                         ; preds = %for.cond
  %3 = load i32, i32* %i, align 4, !dbg !2039
  %idxprom1 = sext i32 %3 to i64, !dbg !2040
  %arrayidx2 = getelementptr inbounds [41 x %"struct.UnitConversion::UnitDesc"], [41 x %"struct.UnitConversion::UnitDesc"]* @_ZN14UnitConversion9unitTableE, i64 0, i64 %idxprom1, !dbg !2040
  %unit3 = getelementptr inbounds %"struct.UnitConversion::UnitDesc", %"struct.UnitConversion::UnitDesc"* %arrayidx2, i32 0, i32 0, !dbg !2041
  invoke void @_ZNSt6vectorIPKcSaIS1_EE9push_backERKS1_(%"class.std::vector"* %agg.result, i8** dereferenceable(8) %unit3)
          to label %invoke.cont unwind label %lpad, !dbg !2042

invoke.cont:                                      ; preds = %for.body
  br label %for.inc, !dbg !2043

for.inc:                                          ; preds = %invoke.cont
  %4 = load i32, i32* %i, align 4, !dbg !2044
  %inc = add nsw i32 %4, 1, !dbg !2044
  store i32 %inc, i32* %i, align 4, !dbg !2044
  br label %for.cond, !dbg !2045, !llvm.loop !2046

lpad:                                             ; preds = %for.body
  %5 = landingpad { i8*, i32 }
          cleanup, !dbg !2048
  %6 = extractvalue { i8*, i32 } %5, 0, !dbg !2048
  store i8* %6, i8** %exn.slot, align 8, !dbg !2048
  %7 = extractvalue { i8*, i32 } %5, 1, !dbg !2048
  store i32 %7, i32* %ehselector.slot, align 4, !dbg !2048
  call void @_ZNSt6vectorIPKcSaIS1_EED2Ev(%"class.std::vector"* %agg.result) #12, !dbg !2049
  br label %eh.resume, !dbg !2049

for.end:                                          ; preds = %for.cond
  store i1 true, i1* %nrvo, align 1, !dbg !2050
  %nrvo.val = load i1, i1* %nrvo, align 1, !dbg !2049
  br i1 %nrvo.val, label %nrvo.skipdtor, label %nrvo.unused, !dbg !2049

nrvo.unused:                                      ; preds = %for.end
  call void @_ZNSt6vectorIPKcSaIS1_EED2Ev(%"class.std::vector"* %agg.result) #12, !dbg !2049
  br label %nrvo.skipdtor, !dbg !2049

nrvo.skipdtor:                                    ; preds = %nrvo.unused, %for.end
  ret void, !dbg !2049

eh.resume:                                        ; preds = %lpad
  %exn = load i8*, i8** %exn.slot, align 8, !dbg !2049
  %sel = load i32, i32* %ehselector.slot, align 4, !dbg !2049
  %lpad.val = insertvalue { i8*, i32 } undef, i8* %exn, 0, !dbg !2049
  %lpad.val4 = insertvalue { i8*, i32 } %lpad.val, i32 %sel, 1, !dbg !2049
  resume { i8*, i32 } %lpad.val4, !dbg !2049
}

; Function Attrs: noinline nounwind uwtable
define linkonce_odr dso_local void @_ZNSt6vectorIPKcSaIS1_EEC2Ev(%"class.std::vector"* %this) unnamed_addr #5 comdat align 2 !dbg !2051 {
entry:
  %this.addr = alloca %"class.std::vector"*, align 8
  store %"class.std::vector"* %this, %"class.std::vector"** %this.addr, align 8
  call void @llvm.dbg.declare(metadata %"class.std::vector"** %this.addr, metadata !2052, metadata !DIExpression()), !dbg !2054
  %this1 = load %"class.std::vector"*, %"class.std::vector"** %this.addr, align 8
  %0 = bitcast %"class.std::vector"* %this1 to %"struct.std::_Vector_base"*, !dbg !2055
  call void @_ZNSt12_Vector_baseIPKcSaIS1_EEC2Ev(%"struct.std::_Vector_base"* %0) #12, !dbg !2056
  ret void, !dbg !2055
}

; Function Attrs: noinline uwtable
define linkonce_odr dso_local void @_ZNSt6vectorIPKcSaIS1_EE9push_backERKS1_(%"class.std::vector"* %this, i8** dereferenceable(8) %__x) #0 comdat align 2 !dbg !2057 {
entry:
  %this.addr = alloca %"class.std::vector"*, align 8
  %__x.addr = alloca i8**, align 8
  %agg.tmp = alloca %"class.__gnu_cxx::__normal_iterator", align 8
  store %"class.std::vector"* %this, %"class.std::vector"** %this.addr, align 8
  call void @llvm.dbg.declare(metadata %"class.std::vector"** %this.addr, metadata !2058, metadata !DIExpression()), !dbg !2059
  store i8** %__x, i8*** %__x.addr, align 8
  call void @llvm.dbg.declare(metadata i8*** %__x.addr, metadata !2060, metadata !DIExpression()), !dbg !2061
  %this1 = load %"class.std::vector"*, %"class.std::vector"** %this.addr, align 8
  %0 = bitcast %"class.std::vector"* %this1 to %"struct.std::_Vector_base"*, !dbg !2062
  %_M_impl = getelementptr inbounds %"struct.std::_Vector_base", %"struct.std::_Vector_base"* %0, i32 0, i32 0, !dbg !2062
  %1 = bitcast %"struct.std::_Vector_base<const char *, std::allocator<const char *> >::_Vector_impl"* %_M_impl to %"struct.std::_Vector_base<const char *, std::allocator<const char *> >::_Vector_impl_data"*, !dbg !2064
  %_M_finish = getelementptr inbounds %"struct.std::_Vector_base<const char *, std::allocator<const char *> >::_Vector_impl_data", %"struct.std::_Vector_base<const char *, std::allocator<const char *> >::_Vector_impl_data"* %1, i32 0, i32 1, !dbg !2065
  %2 = load i8**, i8*** %_M_finish, align 8, !dbg !2065
  %3 = bitcast %"class.std::vector"* %this1 to %"struct.std::_Vector_base"*, !dbg !2066
  %_M_impl2 = getelementptr inbounds %"struct.std::_Vector_base", %"struct.std::_Vector_base"* %3, i32 0, i32 0, !dbg !2066
  %4 = bitcast %"struct.std::_Vector_base<const char *, std::allocator<const char *> >::_Vector_impl"* %_M_impl2 to %"struct.std::_Vector_base<const char *, std::allocator<const char *> >::_Vector_impl_data"*, !dbg !2067
  %_M_end_of_storage = getelementptr inbounds %"struct.std::_Vector_base<const char *, std::allocator<const char *> >::_Vector_impl_data", %"struct.std::_Vector_base<const char *, std::allocator<const char *> >::_Vector_impl_data"* %4, i32 0, i32 2, !dbg !2068
  %5 = load i8**, i8*** %_M_end_of_storage, align 8, !dbg !2068
  %cmp = icmp ne i8** %2, %5, !dbg !2069
  br i1 %cmp, label %if.then, label %if.else, !dbg !2070

if.then:                                          ; preds = %entry
  %6 = bitcast %"class.std::vector"* %this1 to %"struct.std::_Vector_base"*, !dbg !2071
  %_M_impl3 = getelementptr inbounds %"struct.std::_Vector_base", %"struct.std::_Vector_base"* %6, i32 0, i32 0, !dbg !2071
  %7 = bitcast %"struct.std::_Vector_base<const char *, std::allocator<const char *> >::_Vector_impl"* %_M_impl3 to %"class.std::allocator.1"*, !dbg !2073
  %8 = bitcast %"class.std::vector"* %this1 to %"struct.std::_Vector_base"*, !dbg !2074
  %_M_impl4 = getelementptr inbounds %"struct.std::_Vector_base", %"struct.std::_Vector_base"* %8, i32 0, i32 0, !dbg !2074
  %9 = bitcast %"struct.std::_Vector_base<const char *, std::allocator<const char *> >::_Vector_impl"* %_M_impl4 to %"struct.std::_Vector_base<const char *, std::allocator<const char *> >::_Vector_impl_data"*, !dbg !2075
  %_M_finish5 = getelementptr inbounds %"struct.std::_Vector_base<const char *, std::allocator<const char *> >::_Vector_impl_data", %"struct.std::_Vector_base<const char *, std::allocator<const char *> >::_Vector_impl_data"* %9, i32 0, i32 1, !dbg !2076
  %10 = load i8**, i8*** %_M_finish5, align 8, !dbg !2076
  %11 = load i8**, i8*** %__x.addr, align 8, !dbg !2077
  call void @_ZNSt16allocator_traitsISaIPKcEE9constructIS1_JRKS1_EEEvRS2_PT_DpOT0_(%"class.std::allocator.1"* dereferenceable(1) %7, i8** %10, i8** dereferenceable(8) %11) #12, !dbg !2078
  %12 = bitcast %"class.std::vector"* %this1 to %"struct.std::_Vector_base"*, !dbg !2079
  %_M_impl6 = getelementptr inbounds %"struct.std::_Vector_base", %"struct.std::_Vector_base"* %12, i32 0, i32 0, !dbg !2079
  %13 = bitcast %"struct.std::_Vector_base<const char *, std::allocator<const char *> >::_Vector_impl"* %_M_impl6 to %"struct.std::_Vector_base<const char *, std::allocator<const char *> >::_Vector_impl_data"*, !dbg !2080
  %_M_finish7 = getelementptr inbounds %"struct.std::_Vector_base<const char *, std::allocator<const char *> >::_Vector_impl_data", %"struct.std::_Vector_base<const char *, std::allocator<const char *> >::_Vector_impl_data"* %13, i32 0, i32 1, !dbg !2081
  %14 = load i8**, i8*** %_M_finish7, align 8, !dbg !2082
  %incdec.ptr = getelementptr inbounds i8*, i8** %14, i32 1, !dbg !2082
  store i8** %incdec.ptr, i8*** %_M_finish7, align 8, !dbg !2082
  br label %if.end, !dbg !2083

if.else:                                          ; preds = %entry
  %call = call i8** @_ZNSt6vectorIPKcSaIS1_EE3endEv(%"class.std::vector"* %this1) #12, !dbg !2084
  %coerce.dive = getelementptr inbounds %"class.__gnu_cxx::__normal_iterator", %"class.__gnu_cxx::__normal_iterator"* %agg.tmp, i32 0, i32 0, !dbg !2084
  store i8** %call, i8*** %coerce.dive, align 8, !dbg !2084
  %15 = load i8**, i8*** %__x.addr, align 8, !dbg !2085
  %coerce.dive8 = getelementptr inbounds %"class.__gnu_cxx::__normal_iterator", %"class.__gnu_cxx::__normal_iterator"* %agg.tmp, i32 0, i32 0, !dbg !2086
  %16 = load i8**, i8*** %coerce.dive8, align 8, !dbg !2086
  call void @_ZNSt6vectorIPKcSaIS1_EE17_M_realloc_insertIJRKS1_EEEvN9__gnu_cxx17__normal_iteratorIPS1_S3_EEDpOT_(%"class.std::vector"* %this1, i8** %16, i8** dereferenceable(8) %15), !dbg !2086
  br label %if.end

if.end:                                           ; preds = %if.else, %if.then
  ret void, !dbg !2087
}

; Function Attrs: noinline nounwind uwtable
define linkonce_odr dso_local void @_ZNSt6vectorIPKcSaIS1_EED2Ev(%"class.std::vector"* %this) unnamed_addr #5 comdat align 2 personality i8* bitcast (i32 (...)* @__gxx_personality_v0 to i8*) !dbg !2088 {
entry:
  %this.addr = alloca %"class.std::vector"*, align 8
  %exn.slot = alloca i8*
  %ehselector.slot = alloca i32
  store %"class.std::vector"* %this, %"class.std::vector"** %this.addr, align 8
  call void @llvm.dbg.declare(metadata %"class.std::vector"** %this.addr, metadata !2089, metadata !DIExpression()), !dbg !2090
  %this1 = load %"class.std::vector"*, %"class.std::vector"** %this.addr, align 8
  %0 = bitcast %"class.std::vector"* %this1 to %"struct.std::_Vector_base"*, !dbg !2091
  %_M_impl = getelementptr inbounds %"struct.std::_Vector_base", %"struct.std::_Vector_base"* %0, i32 0, i32 0, !dbg !2091
  %1 = bitcast %"struct.std::_Vector_base<const char *, std::allocator<const char *> >::_Vector_impl"* %_M_impl to %"struct.std::_Vector_base<const char *, std::allocator<const char *> >::_Vector_impl_data"*, !dbg !2093
  %_M_start = getelementptr inbounds %"struct.std::_Vector_base<const char *, std::allocator<const char *> >::_Vector_impl_data", %"struct.std::_Vector_base<const char *, std::allocator<const char *> >::_Vector_impl_data"* %1, i32 0, i32 0, !dbg !2094
  %2 = load i8**, i8*** %_M_start, align 8, !dbg !2094
  %3 = bitcast %"class.std::vector"* %this1 to %"struct.std::_Vector_base"*, !dbg !2095
  %_M_impl2 = getelementptr inbounds %"struct.std::_Vector_base", %"struct.std::_Vector_base"* %3, i32 0, i32 0, !dbg !2095
  %4 = bitcast %"struct.std::_Vector_base<const char *, std::allocator<const char *> >::_Vector_impl"* %_M_impl2 to %"struct.std::_Vector_base<const char *, std::allocator<const char *> >::_Vector_impl_data"*, !dbg !2096
  %_M_finish = getelementptr inbounds %"struct.std::_Vector_base<const char *, std::allocator<const char *> >::_Vector_impl_data", %"struct.std::_Vector_base<const char *, std::allocator<const char *> >::_Vector_impl_data"* %4, i32 0, i32 1, !dbg !2097
  %5 = load i8**, i8*** %_M_finish, align 8, !dbg !2097
  %6 = bitcast %"class.std::vector"* %this1 to %"struct.std::_Vector_base"*, !dbg !2098
  %call = call dereferenceable(1) %"class.std::allocator.1"* @_ZNSt12_Vector_baseIPKcSaIS1_EE19_M_get_Tp_allocatorEv(%"struct.std::_Vector_base"* %6) #12, !dbg !2098
  invoke void @_ZSt8_DestroyIPPKcS1_EvT_S3_RSaIT0_E(i8** %2, i8** %5, %"class.std::allocator.1"* dereferenceable(1) %call)
          to label %invoke.cont unwind label %lpad, !dbg !2099

invoke.cont:                                      ; preds = %entry
  %7 = bitcast %"class.std::vector"* %this1 to %"struct.std::_Vector_base"*, !dbg !2100
  call void @_ZNSt12_Vector_baseIPKcSaIS1_EED2Ev(%"struct.std::_Vector_base"* %7) #12, !dbg !2100
  ret void, !dbg !2101

lpad:                                             ; preds = %entry
  %8 = landingpad { i8*, i32 }
          catch i8* null, !dbg !2100
  %9 = extractvalue { i8*, i32 } %8, 0, !dbg !2100
  store i8* %9, i8** %exn.slot, align 8, !dbg !2100
  %10 = extractvalue { i8*, i32 } %8, 1, !dbg !2100
  store i32 %10, i32* %ehselector.slot, align 4, !dbg !2100
  %11 = bitcast %"class.std::vector"* %this1 to %"struct.std::_Vector_base"*, !dbg !2100
  call void @_ZNSt12_Vector_baseIPKcSaIS1_EED2Ev(%"struct.std::_Vector_base"* %11) #12, !dbg !2100
  br label %terminate.handler, !dbg !2100

terminate.handler:                                ; preds = %lpad
  %exn = load i8*, i8** %exn.slot, align 8, !dbg !2100
  call void @__clang_call_terminate(i8* %exn) #14, !dbg !2100
  unreachable, !dbg !2100
}

; Function Attrs: nounwind readonly
declare dso_local i32 @isspace(i32) #2

; Function Attrs: nounwind readonly
declare dso_local i32 @isalpha(i32) #2

; Function Attrs: nounwind
declare dso_local void @_ZNSt13runtime_errorD2Ev(%"class.std::runtime_error"*) unnamed_addr #3

; Function Attrs: noinline nounwind uwtable
define linkonce_odr dso_local void @_ZN17opp_runtime_errorD0Ev(%class.opp_runtime_error* %this) unnamed_addr #5 comdat align 2 !dbg !2102 {
entry:
  %this.addr = alloca %class.opp_runtime_error*, align 8
  store %class.opp_runtime_error* %this, %class.opp_runtime_error** %this.addr, align 8
  call void @llvm.dbg.declare(metadata %class.opp_runtime_error** %this.addr, metadata !2103, metadata !DIExpression()), !dbg !2104
  %this1 = load %class.opp_runtime_error*, %class.opp_runtime_error** %this.addr, align 8
  call void @_ZN17opp_runtime_errorD2Ev(%class.opp_runtime_error* %this1) #12, !dbg !2105
  %0 = bitcast %class.opp_runtime_error* %this1 to i8*, !dbg !2105
  call void @_ZdlPv(i8* %0) #15, !dbg !2105
  ret void, !dbg !2106
}

; Function Attrs: noinline nounwind uwtable
define linkonce_odr dso_local i8* @_ZNK17opp_runtime_error4whatEv(%class.opp_runtime_error* %this) unnamed_addr #5 comdat align 2 !dbg !2107 {
entry:
  %this.addr = alloca %class.opp_runtime_error*, align 8
  store %class.opp_runtime_error* %this, %class.opp_runtime_error** %this.addr, align 8
  call void @llvm.dbg.declare(metadata %class.opp_runtime_error** %this.addr, metadata !2108, metadata !DIExpression()), !dbg !2110
  %this1 = load %class.opp_runtime_error*, %class.opp_runtime_error** %this.addr, align 8
  %errormsg = getelementptr inbounds %class.opp_runtime_error, %class.opp_runtime_error* %this1, i32 0, i32 1, !dbg !2111
  %call = call i8* @_ZNKSt7__cxx1112basic_stringIcSt11char_traitsIcESaIcEE5c_strEv(%"class.std::__cxx11::basic_string"* %errormsg) #12, !dbg !2112
  ret i8* %call, !dbg !2113
}

; Function Attrs: nobuiltin nounwind
declare dso_local void @_ZdlPv(i8*) #6

; Function Attrs: noinline nounwind uwtable
define linkonce_odr dso_local void @_ZNSt12_Vector_baseIPKcSaIS1_EEC2Ev(%"struct.std::_Vector_base"* %this) unnamed_addr #5 comdat align 2 !dbg !2114 {
entry:
  %this.addr = alloca %"struct.std::_Vector_base"*, align 8
  store %"struct.std::_Vector_base"* %this, %"struct.std::_Vector_base"** %this.addr, align 8
  call void @llvm.dbg.declare(metadata %"struct.std::_Vector_base"** %this.addr, metadata !2115, metadata !DIExpression()), !dbg !2117
  %this1 = load %"struct.std::_Vector_base"*, %"struct.std::_Vector_base"** %this.addr, align 8
  %_M_impl = getelementptr inbounds %"struct.std::_Vector_base", %"struct.std::_Vector_base"* %this1, i32 0, i32 0, !dbg !2118
  call void @_ZNSt12_Vector_baseIPKcSaIS1_EE12_Vector_implC2Ev(%"struct.std::_Vector_base<const char *, std::allocator<const char *> >::_Vector_impl"* %_M_impl) #12, !dbg !2118
  ret void, !dbg !2119
}

; Function Attrs: noinline nounwind uwtable
define linkonce_odr dso_local void @_ZNSt12_Vector_baseIPKcSaIS1_EE12_Vector_implC2Ev(%"struct.std::_Vector_base<const char *, std::allocator<const char *> >::_Vector_impl"* %this) unnamed_addr #5 comdat align 2 !dbg !2120 {
entry:
  %this.addr = alloca %"struct.std::_Vector_base<const char *, std::allocator<const char *> >::_Vector_impl"*, align 8
  store %"struct.std::_Vector_base<const char *, std::allocator<const char *> >::_Vector_impl"* %this, %"struct.std::_Vector_base<const char *, std::allocator<const char *> >::_Vector_impl"** %this.addr, align 8
  call void @llvm.dbg.declare(metadata %"struct.std::_Vector_base<const char *, std::allocator<const char *> >::_Vector_impl"** %this.addr, metadata !2121, metadata !DIExpression()), !dbg !2123
  %this1 = load %"struct.std::_Vector_base<const char *, std::allocator<const char *> >::_Vector_impl"*, %"struct.std::_Vector_base<const char *, std::allocator<const char *> >::_Vector_impl"** %this.addr, align 8
  %0 = bitcast %"struct.std::_Vector_base<const char *, std::allocator<const char *> >::_Vector_impl"* %this1 to %"class.std::allocator.1"*, !dbg !2124
  call void @_ZNSaIPKcEC2Ev(%"class.std::allocator.1"* %0) #12, !dbg !2125
  %1 = bitcast %"struct.std::_Vector_base<const char *, std::allocator<const char *> >::_Vector_impl"* %this1 to %"struct.std::_Vector_base<const char *, std::allocator<const char *> >::_Vector_impl_data"*, !dbg !2124
  call void @_ZNSt12_Vector_baseIPKcSaIS1_EE17_Vector_impl_dataC2Ev(%"struct.std::_Vector_base<const char *, std::allocator<const char *> >::_Vector_impl_data"* %1) #12, !dbg !2126
  ret void, !dbg !2127
}

; Function Attrs: noinline nounwind uwtable
define linkonce_odr dso_local void @_ZNSaIPKcEC2Ev(%"class.std::allocator.1"* %this) unnamed_addr #5 comdat align 2 !dbg !2128 {
entry:
  %this.addr = alloca %"class.std::allocator.1"*, align 8
  store %"class.std::allocator.1"* %this, %"class.std::allocator.1"** %this.addr, align 8
  call void @llvm.dbg.declare(metadata %"class.std::allocator.1"** %this.addr, metadata !2129, metadata !DIExpression()), !dbg !2131
  %this1 = load %"class.std::allocator.1"*, %"class.std::allocator.1"** %this.addr, align 8
  %0 = bitcast %"class.std::allocator.1"* %this1 to %"class.__gnu_cxx::new_allocator.2"*, !dbg !2132
  call void @_ZN9__gnu_cxx13new_allocatorIPKcEC2Ev(%"class.__gnu_cxx::new_allocator.2"* %0) #12, !dbg !2133
  ret void, !dbg !2134
}

; Function Attrs: noinline nounwind uwtable
define linkonce_odr dso_local void @_ZNSt12_Vector_baseIPKcSaIS1_EE17_Vector_impl_dataC2Ev(%"struct.std::_Vector_base<const char *, std::allocator<const char *> >::_Vector_impl_data"* %this) unnamed_addr #5 comdat align 2 !dbg !2135 {
entry:
  %this.addr = alloca %"struct.std::_Vector_base<const char *, std::allocator<const char *> >::_Vector_impl_data"*, align 8
  store %"struct.std::_Vector_base<const char *, std::allocator<const char *> >::_Vector_impl_data"* %this, %"struct.std::_Vector_base<const char *, std::allocator<const char *> >::_Vector_impl_data"** %this.addr, align 8
  call void @llvm.dbg.declare(metadata %"struct.std::_Vector_base<const char *, std::allocator<const char *> >::_Vector_impl_data"** %this.addr, metadata !2136, metadata !DIExpression()), !dbg !2138
  %this1 = load %"struct.std::_Vector_base<const char *, std::allocator<const char *> >::_Vector_impl_data"*, %"struct.std::_Vector_base<const char *, std::allocator<const char *> >::_Vector_impl_data"** %this.addr, align 8
  %_M_start = getelementptr inbounds %"struct.std::_Vector_base<const char *, std::allocator<const char *> >::_Vector_impl_data", %"struct.std::_Vector_base<const char *, std::allocator<const char *> >::_Vector_impl_data"* %this1, i32 0, i32 0, !dbg !2139
  store i8** null, i8*** %_M_start, align 8, !dbg !2139
  %_M_finish = getelementptr inbounds %"struct.std::_Vector_base<const char *, std::allocator<const char *> >::_Vector_impl_data", %"struct.std::_Vector_base<const char *, std::allocator<const char *> >::_Vector_impl_data"* %this1, i32 0, i32 1, !dbg !2140
  store i8** null, i8*** %_M_finish, align 8, !dbg !2140
  %_M_end_of_storage = getelementptr inbounds %"struct.std::_Vector_base<const char *, std::allocator<const char *> >::_Vector_impl_data", %"struct.std::_Vector_base<const char *, std::allocator<const char *> >::_Vector_impl_data"* %this1, i32 0, i32 2, !dbg !2141
  store i8** null, i8*** %_M_end_of_storage, align 8, !dbg !2141
  ret void, !dbg !2142
}

; Function Attrs: noinline nounwind uwtable
define linkonce_odr dso_local void @_ZN9__gnu_cxx13new_allocatorIPKcEC2Ev(%"class.__gnu_cxx::new_allocator.2"* %this) unnamed_addr #5 comdat align 2 !dbg !2143 {
entry:
  %this.addr = alloca %"class.__gnu_cxx::new_allocator.2"*, align 8
  store %"class.__gnu_cxx::new_allocator.2"* %this, %"class.__gnu_cxx::new_allocator.2"** %this.addr, align 8
  call void @llvm.dbg.declare(metadata %"class.__gnu_cxx::new_allocator.2"** %this.addr, metadata !2144, metadata !DIExpression()), !dbg !2146
  %this1 = load %"class.__gnu_cxx::new_allocator.2"*, %"class.__gnu_cxx::new_allocator.2"** %this.addr, align 8
  ret void, !dbg !2147
}

; Function Attrs: noinline nounwind uwtable
define linkonce_odr dso_local dereferenceable(32) %"class.std::__cxx11::basic_string"* @_ZSt4moveIRNSt7__cxx1112basic_stringIcSt11char_traitsIcESaIcEEEEONSt16remove_referenceIT_E4typeEOS8_(%"class.std::__cxx11::basic_string"* dereferenceable(32) %__t) #5 comdat !dbg !2148 {
entry:
  %__t.addr = alloca %"class.std::__cxx11::basic_string"*, align 8
  store %"class.std::__cxx11::basic_string"* %__t, %"class.std::__cxx11::basic_string"** %__t.addr, align 8
  call void @llvm.dbg.declare(metadata %"class.std::__cxx11::basic_string"** %__t.addr, metadata !2158, metadata !DIExpression()), !dbg !2159
  %0 = load %"class.std::__cxx11::basic_string"*, %"class.std::__cxx11::basic_string"** %__t.addr, align 8, !dbg !2160
  ret %"class.std::__cxx11::basic_string"* %0, !dbg !2161
}

declare dso_local dereferenceable(32) %"class.std::__cxx11::basic_string"* @_ZNSt7__cxx1112basic_stringIcSt11char_traitsIcESaIcEE6appendEPKc(%"class.std::__cxx11::basic_string"*, i8*) #4

; Function Attrs: nounwind
declare dso_local void @_ZNSt7__cxx1112basic_stringIcSt11char_traitsIcESaIcEEC1EOS4_(%"class.std::__cxx11::basic_string"*, %"class.std::__cxx11::basic_string"* dereferenceable(32)) unnamed_addr #3

; Function Attrs: noinline uwtable
define linkonce_odr dso_local void @_ZSt8_DestroyIPPKcS1_EvT_S3_RSaIT0_E(i8** %__first, i8** %__last, %"class.std::allocator.1"* dereferenceable(1) %0) #0 comdat !dbg !2162 {
entry:
  %__first.addr = alloca i8**, align 8
  %__last.addr = alloca i8**, align 8
  %.addr = alloca %"class.std::allocator.1"*, align 8
  store i8** %__first, i8*** %__first.addr, align 8
  call void @llvm.dbg.declare(metadata i8*** %__first.addr, metadata !2167, metadata !DIExpression()), !dbg !2168
  store i8** %__last, i8*** %__last.addr, align 8
  call void @llvm.dbg.declare(metadata i8*** %__last.addr, metadata !2169, metadata !DIExpression()), !dbg !2170
  store %"class.std::allocator.1"* %0, %"class.std::allocator.1"** %.addr, align 8
  call void @llvm.dbg.declare(metadata %"class.std::allocator.1"** %.addr, metadata !2171, metadata !DIExpression()), !dbg !2172
  %1 = load i8**, i8*** %__first.addr, align 8, !dbg !2173
  %2 = load i8**, i8*** %__last.addr, align 8, !dbg !2174
  call void @_ZSt8_DestroyIPPKcEvT_S3_(i8** %1, i8** %2), !dbg !2175
  ret void, !dbg !2176
}

; Function Attrs: noinline nounwind uwtable
define linkonce_odr dso_local dereferenceable(1) %"class.std::allocator.1"* @_ZNSt12_Vector_baseIPKcSaIS1_EE19_M_get_Tp_allocatorEv(%"struct.std::_Vector_base"* %this) #5 comdat align 2 !dbg !2177 {
entry:
  %this.addr = alloca %"struct.std::_Vector_base"*, align 8
  store %"struct.std::_Vector_base"* %this, %"struct.std::_Vector_base"** %this.addr, align 8
  call void @llvm.dbg.declare(metadata %"struct.std::_Vector_base"** %this.addr, metadata !2178, metadata !DIExpression()), !dbg !2179
  %this1 = load %"struct.std::_Vector_base"*, %"struct.std::_Vector_base"** %this.addr, align 8
  %_M_impl = getelementptr inbounds %"struct.std::_Vector_base", %"struct.std::_Vector_base"* %this1, i32 0, i32 0, !dbg !2180
  %0 = bitcast %"struct.std::_Vector_base<const char *, std::allocator<const char *> >::_Vector_impl"* %_M_impl to %"class.std::allocator.1"*, !dbg !2181
  ret %"class.std::allocator.1"* %0, !dbg !2182
}

; Function Attrs: noinline nounwind uwtable
define linkonce_odr dso_local void @_ZNSt12_Vector_baseIPKcSaIS1_EED2Ev(%"struct.std::_Vector_base"* %this) unnamed_addr #5 comdat align 2 personality i8* bitcast (i32 (...)* @__gxx_personality_v0 to i8*) !dbg !2183 {
entry:
  %this.addr = alloca %"struct.std::_Vector_base"*, align 8
  %exn.slot = alloca i8*
  %ehselector.slot = alloca i32
  store %"struct.std::_Vector_base"* %this, %"struct.std::_Vector_base"** %this.addr, align 8
  call void @llvm.dbg.declare(metadata %"struct.std::_Vector_base"** %this.addr, metadata !2184, metadata !DIExpression()), !dbg !2185
  %this1 = load %"struct.std::_Vector_base"*, %"struct.std::_Vector_base"** %this.addr, align 8
  %_M_impl = getelementptr inbounds %"struct.std::_Vector_base", %"struct.std::_Vector_base"* %this1, i32 0, i32 0, !dbg !2186
  %0 = bitcast %"struct.std::_Vector_base<const char *, std::allocator<const char *> >::_Vector_impl"* %_M_impl to %"struct.std::_Vector_base<const char *, std::allocator<const char *> >::_Vector_impl_data"*, !dbg !2186
  %_M_start = getelementptr inbounds %"struct.std::_Vector_base<const char *, std::allocator<const char *> >::_Vector_impl_data", %"struct.std::_Vector_base<const char *, std::allocator<const char *> >::_Vector_impl_data"* %0, i32 0, i32 0, !dbg !2188
  %1 = load i8**, i8*** %_M_start, align 8, !dbg !2188
  %_M_impl2 = getelementptr inbounds %"struct.std::_Vector_base", %"struct.std::_Vector_base"* %this1, i32 0, i32 0, !dbg !2189
  %2 = bitcast %"struct.std::_Vector_base<const char *, std::allocator<const char *> >::_Vector_impl"* %_M_impl2 to %"struct.std::_Vector_base<const char *, std::allocator<const char *> >::_Vector_impl_data"*, !dbg !2189
  %_M_end_of_storage = getelementptr inbounds %"struct.std::_Vector_base<const char *, std::allocator<const char *> >::_Vector_impl_data", %"struct.std::_Vector_base<const char *, std::allocator<const char *> >::_Vector_impl_data"* %2, i32 0, i32 2, !dbg !2190
  %3 = load i8**, i8*** %_M_end_of_storage, align 8, !dbg !2190
  %_M_impl3 = getelementptr inbounds %"struct.std::_Vector_base", %"struct.std::_Vector_base"* %this1, i32 0, i32 0, !dbg !2191
  %4 = bitcast %"struct.std::_Vector_base<const char *, std::allocator<const char *> >::_Vector_impl"* %_M_impl3 to %"struct.std::_Vector_base<const char *, std::allocator<const char *> >::_Vector_impl_data"*, !dbg !2191
  %_M_start4 = getelementptr inbounds %"struct.std::_Vector_base<const char *, std::allocator<const char *> >::_Vector_impl_data", %"struct.std::_Vector_base<const char *, std::allocator<const char *> >::_Vector_impl_data"* %4, i32 0, i32 0, !dbg !2192
  %5 = load i8**, i8*** %_M_start4, align 8, !dbg !2192
  %sub.ptr.lhs.cast = ptrtoint i8** %3 to i64, !dbg !2193
  %sub.ptr.rhs.cast = ptrtoint i8** %5 to i64, !dbg !2193
  %sub.ptr.sub = sub i64 %sub.ptr.lhs.cast, %sub.ptr.rhs.cast, !dbg !2193
  %sub.ptr.div = sdiv exact i64 %sub.ptr.sub, 8, !dbg !2193
  invoke void @_ZNSt12_Vector_baseIPKcSaIS1_EE13_M_deallocateEPS1_m(%"struct.std::_Vector_base"* %this1, i8** %1, i64 %sub.ptr.div)
          to label %invoke.cont unwind label %lpad, !dbg !2194

invoke.cont:                                      ; preds = %entry
  %_M_impl5 = getelementptr inbounds %"struct.std::_Vector_base", %"struct.std::_Vector_base"* %this1, i32 0, i32 0, !dbg !2195
  call void @_ZNSt12_Vector_baseIPKcSaIS1_EE12_Vector_implD2Ev(%"struct.std::_Vector_base<const char *, std::allocator<const char *> >::_Vector_impl"* %_M_impl5) #12, !dbg !2195
  ret void, !dbg !2196

lpad:                                             ; preds = %entry
  %6 = landingpad { i8*, i32 }
          catch i8* null, !dbg !2195
  %7 = extractvalue { i8*, i32 } %6, 0, !dbg !2195
  store i8* %7, i8** %exn.slot, align 8, !dbg !2195
  %8 = extractvalue { i8*, i32 } %6, 1, !dbg !2195
  store i32 %8, i32* %ehselector.slot, align 4, !dbg !2195
  %_M_impl6 = getelementptr inbounds %"struct.std::_Vector_base", %"struct.std::_Vector_base"* %this1, i32 0, i32 0, !dbg !2195
  call void @_ZNSt12_Vector_baseIPKcSaIS1_EE12_Vector_implD2Ev(%"struct.std::_Vector_base<const char *, std::allocator<const char *> >::_Vector_impl"* %_M_impl6) #12, !dbg !2195
  br label %terminate.handler, !dbg !2195

terminate.handler:                                ; preds = %lpad
  %exn = load i8*, i8** %exn.slot, align 8, !dbg !2195
  call void @__clang_call_terminate(i8* %exn) #14, !dbg !2195
  unreachable, !dbg !2195
}

; Function Attrs: noinline noreturn nounwind
define linkonce_odr hidden void @__clang_call_terminate(i8* %0) #7 comdat {
  %2 = call i8* @__cxa_begin_catch(i8* %0) #12
  call void @_ZSt9terminatev() #14
  unreachable
}

declare dso_local i8* @__cxa_begin_catch(i8*)

declare dso_local void @_ZSt9terminatev()

; Function Attrs: noinline uwtable
define linkonce_odr dso_local void @_ZSt8_DestroyIPPKcEvT_S3_(i8** %__first, i8** %__last) #0 comdat !dbg !2197 {
entry:
  %__first.addr = alloca i8**, align 8
  %__last.addr = alloca i8**, align 8
  store i8** %__first, i8*** %__first.addr, align 8
  call void @llvm.dbg.declare(metadata i8*** %__first.addr, metadata !2202, metadata !DIExpression()), !dbg !2203
  store i8** %__last, i8*** %__last.addr, align 8
  call void @llvm.dbg.declare(metadata i8*** %__last.addr, metadata !2204, metadata !DIExpression()), !dbg !2205
  %0 = load i8**, i8*** %__first.addr, align 8, !dbg !2206
  %1 = load i8**, i8*** %__last.addr, align 8, !dbg !2207
  call void @_ZNSt12_Destroy_auxILb1EE9__destroyIPPKcEEvT_S5_(i8** %0, i8** %1), !dbg !2208
  ret void, !dbg !2209
}

; Function Attrs: noinline nounwind uwtable
define linkonce_odr dso_local void @_ZNSt12_Destroy_auxILb1EE9__destroyIPPKcEEvT_S5_(i8** %0, i8** %1) #5 comdat align 2 !dbg !2210 {
entry:
  %.addr = alloca i8**, align 8
  %.addr1 = alloca i8**, align 8
  store i8** %0, i8*** %.addr, align 8
  call void @llvm.dbg.declare(metadata i8*** %.addr, metadata !2215, metadata !DIExpression()), !dbg !2216
  store i8** %1, i8*** %.addr1, align 8
  call void @llvm.dbg.declare(metadata i8*** %.addr1, metadata !2217, metadata !DIExpression()), !dbg !2218
  ret void, !dbg !2219
}

; Function Attrs: noinline uwtable
define linkonce_odr dso_local void @_ZNSt12_Vector_baseIPKcSaIS1_EE13_M_deallocateEPS1_m(%"struct.std::_Vector_base"* %this, i8** %__p, i64 %__n) #0 comdat align 2 !dbg !2220 {
entry:
  %this.addr = alloca %"struct.std::_Vector_base"*, align 8
  %__p.addr = alloca i8**, align 8
  %__n.addr = alloca i64, align 8
  store %"struct.std::_Vector_base"* %this, %"struct.std::_Vector_base"** %this.addr, align 8
  call void @llvm.dbg.declare(metadata %"struct.std::_Vector_base"** %this.addr, metadata !2221, metadata !DIExpression()), !dbg !2222
  store i8** %__p, i8*** %__p.addr, align 8
  call void @llvm.dbg.declare(metadata i8*** %__p.addr, metadata !2223, metadata !DIExpression()), !dbg !2224
  store i64 %__n, i64* %__n.addr, align 8
  call void @llvm.dbg.declare(metadata i64* %__n.addr, metadata !2225, metadata !DIExpression()), !dbg !2226
  %this1 = load %"struct.std::_Vector_base"*, %"struct.std::_Vector_base"** %this.addr, align 8
  %0 = load i8**, i8*** %__p.addr, align 8, !dbg !2227
  %tobool = icmp ne i8** %0, null, !dbg !2227
  br i1 %tobool, label %if.then, label %if.end, !dbg !2229

if.then:                                          ; preds = %entry
  %_M_impl = getelementptr inbounds %"struct.std::_Vector_base", %"struct.std::_Vector_base"* %this1, i32 0, i32 0, !dbg !2230
  %1 = bitcast %"struct.std::_Vector_base<const char *, std::allocator<const char *> >::_Vector_impl"* %_M_impl to %"class.std::allocator.1"*, !dbg !2230
  %2 = load i8**, i8*** %__p.addr, align 8, !dbg !2231
  %3 = load i64, i64* %__n.addr, align 8, !dbg !2232
  call void @_ZNSt16allocator_traitsISaIPKcEE10deallocateERS2_PS1_m(%"class.std::allocator.1"* dereferenceable(1) %1, i8** %2, i64 %3), !dbg !2233
  br label %if.end, !dbg !2233

if.end:                                           ; preds = %if.then, %entry
  ret void, !dbg !2234
}

; Function Attrs: noinline nounwind uwtable
define linkonce_odr dso_local void @_ZNSt12_Vector_baseIPKcSaIS1_EE12_Vector_implD2Ev(%"struct.std::_Vector_base<const char *, std::allocator<const char *> >::_Vector_impl"* %this) unnamed_addr #5 comdat align 2 !dbg !2235 {
entry:
  %this.addr = alloca %"struct.std::_Vector_base<const char *, std::allocator<const char *> >::_Vector_impl"*, align 8
  store %"struct.std::_Vector_base<const char *, std::allocator<const char *> >::_Vector_impl"* %this, %"struct.std::_Vector_base<const char *, std::allocator<const char *> >::_Vector_impl"** %this.addr, align 8
  call void @llvm.dbg.declare(metadata %"struct.std::_Vector_base<const char *, std::allocator<const char *> >::_Vector_impl"** %this.addr, metadata !2237, metadata !DIExpression()), !dbg !2238
  %this1 = load %"struct.std::_Vector_base<const char *, std::allocator<const char *> >::_Vector_impl"*, %"struct.std::_Vector_base<const char *, std::allocator<const char *> >::_Vector_impl"** %this.addr, align 8
  %0 = bitcast %"struct.std::_Vector_base<const char *, std::allocator<const char *> >::_Vector_impl"* %this1 to %"class.std::allocator.1"*, !dbg !2239
  call void @_ZNSaIPKcED2Ev(%"class.std::allocator.1"* %0) #12, !dbg !2239
  ret void, !dbg !2241
}

; Function Attrs: noinline uwtable
define linkonce_odr dso_local void @_ZNSt16allocator_traitsISaIPKcEE10deallocateERS2_PS1_m(%"class.std::allocator.1"* dereferenceable(1) %__a, i8** %__p, i64 %__n) #0 comdat align 2 !dbg !2242 {
entry:
  %__a.addr = alloca %"class.std::allocator.1"*, align 8
  %__p.addr = alloca i8**, align 8
  %__n.addr = alloca i64, align 8
  store %"class.std::allocator.1"* %__a, %"class.std::allocator.1"** %__a.addr, align 8
  call void @llvm.dbg.declare(metadata %"class.std::allocator.1"** %__a.addr, metadata !2243, metadata !DIExpression()), !dbg !2244
  store i8** %__p, i8*** %__p.addr, align 8
  call void @llvm.dbg.declare(metadata i8*** %__p.addr, metadata !2245, metadata !DIExpression()), !dbg !2246
  store i64 %__n, i64* %__n.addr, align 8
  call void @llvm.dbg.declare(metadata i64* %__n.addr, metadata !2247, metadata !DIExpression()), !dbg !2248
  %0 = load %"class.std::allocator.1"*, %"class.std::allocator.1"** %__a.addr, align 8, !dbg !2249
  %1 = bitcast %"class.std::allocator.1"* %0 to %"class.__gnu_cxx::new_allocator.2"*, !dbg !2249
  %2 = load i8**, i8*** %__p.addr, align 8, !dbg !2250
  %3 = load i64, i64* %__n.addr, align 8, !dbg !2251
  call void @_ZN9__gnu_cxx13new_allocatorIPKcE10deallocateEPS2_m(%"class.__gnu_cxx::new_allocator.2"* %1, i8** %2, i64 %3), !dbg !2252
  ret void, !dbg !2253
}

; Function Attrs: noinline nounwind uwtable
define linkonce_odr dso_local void @_ZN9__gnu_cxx13new_allocatorIPKcE10deallocateEPS2_m(%"class.__gnu_cxx::new_allocator.2"* %this, i8** %__p, i64 %__t) #5 comdat align 2 !dbg !2254 {
entry:
  %this.addr = alloca %"class.__gnu_cxx::new_allocator.2"*, align 8
  %__p.addr = alloca i8**, align 8
  %__t.addr = alloca i64, align 8
  store %"class.__gnu_cxx::new_allocator.2"* %this, %"class.__gnu_cxx::new_allocator.2"** %this.addr, align 8
  call void @llvm.dbg.declare(metadata %"class.__gnu_cxx::new_allocator.2"** %this.addr, metadata !2255, metadata !DIExpression()), !dbg !2256
  store i8** %__p, i8*** %__p.addr, align 8
  call void @llvm.dbg.declare(metadata i8*** %__p.addr, metadata !2257, metadata !DIExpression()), !dbg !2258
  store i64 %__t, i64* %__t.addr, align 8
  call void @llvm.dbg.declare(metadata i64* %__t.addr, metadata !2259, metadata !DIExpression()), !dbg !2260
  %this1 = load %"class.__gnu_cxx::new_allocator.2"*, %"class.__gnu_cxx::new_allocator.2"** %this.addr, align 8
  %0 = load i8**, i8*** %__p.addr, align 8, !dbg !2261
  %1 = bitcast i8** %0 to i8*, !dbg !2261
  call void @_ZdlPv(i8* %1) #12, !dbg !2262
  ret void, !dbg !2263
}

; Function Attrs: noinline nounwind uwtable
define linkonce_odr dso_local void @_ZNSaIPKcED2Ev(%"class.std::allocator.1"* %this) unnamed_addr #5 comdat align 2 !dbg !2264 {
entry:
  %this.addr = alloca %"class.std::allocator.1"*, align 8
  store %"class.std::allocator.1"* %this, %"class.std::allocator.1"** %this.addr, align 8
  call void @llvm.dbg.declare(metadata %"class.std::allocator.1"** %this.addr, metadata !2265, metadata !DIExpression()), !dbg !2266
  %this1 = load %"class.std::allocator.1"*, %"class.std::allocator.1"** %this.addr, align 8
  %0 = bitcast %"class.std::allocator.1"* %this1 to %"class.__gnu_cxx::new_allocator.2"*, !dbg !2267
  call void @_ZN9__gnu_cxx13new_allocatorIPKcED2Ev(%"class.__gnu_cxx::new_allocator.2"* %0) #12, !dbg !2267
  ret void, !dbg !2269
}

; Function Attrs: noinline nounwind uwtable
define linkonce_odr dso_local void @_ZN9__gnu_cxx13new_allocatorIPKcED2Ev(%"class.__gnu_cxx::new_allocator.2"* %this) unnamed_addr #5 comdat align 2 !dbg !2270 {
entry:
  %this.addr = alloca %"class.__gnu_cxx::new_allocator.2"*, align 8
  store %"class.__gnu_cxx::new_allocator.2"* %this, %"class.__gnu_cxx::new_allocator.2"** %this.addr, align 8
  call void @llvm.dbg.declare(metadata %"class.__gnu_cxx::new_allocator.2"** %this.addr, metadata !2271, metadata !DIExpression()), !dbg !2272
  %this1 = load %"class.__gnu_cxx::new_allocator.2"*, %"class.__gnu_cxx::new_allocator.2"** %this.addr, align 8
  ret void, !dbg !2273
}

; Function Attrs: noinline nounwind uwtable
define linkonce_odr dso_local void @_ZNSt16allocator_traitsISaIPKcEE9constructIS1_JRKS1_EEEvRS2_PT_DpOT0_(%"class.std::allocator.1"* dereferenceable(1) %__a, i8** %__p, i8** dereferenceable(8) %__args) #5 comdat align 2 !dbg !2274 {
entry:
  %__a.addr = alloca %"class.std::allocator.1"*, align 8
  %__p.addr = alloca i8**, align 8
  %__args.addr = alloca i8**, align 8
  store %"class.std::allocator.1"* %__a, %"class.std::allocator.1"** %__a.addr, align 8
  call void @llvm.dbg.declare(metadata %"class.std::allocator.1"** %__a.addr, metadata !2283, metadata !DIExpression()), !dbg !2284
  store i8** %__p, i8*** %__p.addr, align 8
  call void @llvm.dbg.declare(metadata i8*** %__p.addr, metadata !2285, metadata !DIExpression()), !dbg !2286
  store i8** %__args, i8*** %__args.addr, align 8
  call void @llvm.dbg.declare(metadata i8*** %__args.addr, metadata !2287, metadata !DIExpression()), !dbg !2288
  %0 = load %"class.std::allocator.1"*, %"class.std::allocator.1"** %__a.addr, align 8, !dbg !2289
  %1 = bitcast %"class.std::allocator.1"* %0 to %"class.__gnu_cxx::new_allocator.2"*, !dbg !2289
  %2 = load i8**, i8*** %__p.addr, align 8, !dbg !2290
  %3 = load i8**, i8*** %__args.addr, align 8, !dbg !2291
  %call = call dereferenceable(8) i8** @_ZSt7forwardIRKPKcEOT_RNSt16remove_referenceIS4_E4typeE(i8** dereferenceable(8) %3) #12, !dbg !2292
  call void @_ZN9__gnu_cxx13new_allocatorIPKcE9constructIS2_JRKS2_EEEvPT_DpOT0_(%"class.__gnu_cxx::new_allocator.2"* %1, i8** %2, i8** dereferenceable(8) %call) #12, !dbg !2293
  ret void, !dbg !2294
}

; Function Attrs: noinline uwtable
define linkonce_odr dso_local void @_ZNSt6vectorIPKcSaIS1_EE17_M_realloc_insertIJRKS1_EEEvN9__gnu_cxx17__normal_iteratorIPS1_S3_EEDpOT_(%"class.std::vector"* %this, i8** %__position.coerce, i8** dereferenceable(8) %__args) #0 comdat align 2 !dbg !2295 {
entry:
  %__position = alloca %"class.__gnu_cxx::__normal_iterator", align 8
  %this.addr = alloca %"class.std::vector"*, align 8
  %__args.addr = alloca i8**, align 8
  %__len = alloca i64, align 8
  %__old_start = alloca i8**, align 8
  %__old_finish = alloca i8**, align 8
  %__elems_before = alloca i64, align 8
  %ref.tmp = alloca %"class.__gnu_cxx::__normal_iterator", align 8
  %__new_start = alloca i8**, align 8
  %__new_finish = alloca i8**, align 8
  %coerce.dive = getelementptr inbounds %"class.__gnu_cxx::__normal_iterator", %"class.__gnu_cxx::__normal_iterator"* %__position, i32 0, i32 0
  store i8** %__position.coerce, i8*** %coerce.dive, align 8
  store %"class.std::vector"* %this, %"class.std::vector"** %this.addr, align 8
  call void @llvm.dbg.declare(metadata %"class.std::vector"** %this.addr, metadata !2301, metadata !DIExpression()), !dbg !2302
  call void @llvm.dbg.declare(metadata %"class.__gnu_cxx::__normal_iterator"* %__position, metadata !2303, metadata !DIExpression()), !dbg !2304
  store i8** %__args, i8*** %__args.addr, align 8
  call void @llvm.dbg.declare(metadata i8*** %__args.addr, metadata !2305, metadata !DIExpression()), !dbg !2306
  %this1 = load %"class.std::vector"*, %"class.std::vector"** %this.addr, align 8
  call void @llvm.dbg.declare(metadata i64* %__len, metadata !2307, metadata !DIExpression()), !dbg !2309
  %call = call i64 @_ZNKSt6vectorIPKcSaIS1_EE12_M_check_lenEmS1_(%"class.std::vector"* %this1, i64 1, i8* getelementptr inbounds ([26 x i8], [26 x i8]* @.str.94, i64 0, i64 0)), !dbg !2310
  store i64 %call, i64* %__len, align 8, !dbg !2309
  call void @llvm.dbg.declare(metadata i8*** %__old_start, metadata !2311, metadata !DIExpression()), !dbg !2312
  %0 = bitcast %"class.std::vector"* %this1 to %"struct.std::_Vector_base"*, !dbg !2313
  %_M_impl = getelementptr inbounds %"struct.std::_Vector_base", %"struct.std::_Vector_base"* %0, i32 0, i32 0, !dbg !2313
  %1 = bitcast %"struct.std::_Vector_base<const char *, std::allocator<const char *> >::_Vector_impl"* %_M_impl to %"struct.std::_Vector_base<const char *, std::allocator<const char *> >::_Vector_impl_data"*, !dbg !2314
  %_M_start = getelementptr inbounds %"struct.std::_Vector_base<const char *, std::allocator<const char *> >::_Vector_impl_data", %"struct.std::_Vector_base<const char *, std::allocator<const char *> >::_Vector_impl_data"* %1, i32 0, i32 0, !dbg !2315
  %2 = load i8**, i8*** %_M_start, align 8, !dbg !2315
  store i8** %2, i8*** %__old_start, align 8, !dbg !2312
  call void @llvm.dbg.declare(metadata i8*** %__old_finish, metadata !2316, metadata !DIExpression()), !dbg !2317
  %3 = bitcast %"class.std::vector"* %this1 to %"struct.std::_Vector_base"*, !dbg !2318
  %_M_impl2 = getelementptr inbounds %"struct.std::_Vector_base", %"struct.std::_Vector_base"* %3, i32 0, i32 0, !dbg !2318
  %4 = bitcast %"struct.std::_Vector_base<const char *, std::allocator<const char *> >::_Vector_impl"* %_M_impl2 to %"struct.std::_Vector_base<const char *, std::allocator<const char *> >::_Vector_impl_data"*, !dbg !2319
  %_M_finish = getelementptr inbounds %"struct.std::_Vector_base<const char *, std::allocator<const char *> >::_Vector_impl_data", %"struct.std::_Vector_base<const char *, std::allocator<const char *> >::_Vector_impl_data"* %4, i32 0, i32 1, !dbg !2320
  %5 = load i8**, i8*** %_M_finish, align 8, !dbg !2320
  store i8** %5, i8*** %__old_finish, align 8, !dbg !2317
  call void @llvm.dbg.declare(metadata i64* %__elems_before, metadata !2321, metadata !DIExpression()), !dbg !2322
  %call3 = call i8** @_ZNSt6vectorIPKcSaIS1_EE5beginEv(%"class.std::vector"* %this1) #12, !dbg !2323
  %coerce.dive4 = getelementptr inbounds %"class.__gnu_cxx::__normal_iterator", %"class.__gnu_cxx::__normal_iterator"* %ref.tmp, i32 0, i32 0, !dbg !2323
  store i8** %call3, i8*** %coerce.dive4, align 8, !dbg !2323
  %call5 = call i64 @_ZN9__gnu_cxxmiIPPKcSt6vectorIS2_SaIS2_EEEENS_17__normal_iteratorIT_T0_E15difference_typeERKSA_SD_(%"class.__gnu_cxx::__normal_iterator"* dereferenceable(8) %__position, %"class.__gnu_cxx::__normal_iterator"* dereferenceable(8) %ref.tmp) #12, !dbg !2324
  store i64 %call5, i64* %__elems_before, align 8, !dbg !2322
  call void @llvm.dbg.declare(metadata i8*** %__new_start, metadata !2325, metadata !DIExpression()), !dbg !2326
  %6 = bitcast %"class.std::vector"* %this1 to %"struct.std::_Vector_base"*, !dbg !2327
  %7 = load i64, i64* %__len, align 8, !dbg !2328
  %call6 = call i8** @_ZNSt12_Vector_baseIPKcSaIS1_EE11_M_allocateEm(%"struct.std::_Vector_base"* %6, i64 %7), !dbg !2327
  store i8** %call6, i8*** %__new_start, align 8, !dbg !2326
  call void @llvm.dbg.declare(metadata i8*** %__new_finish, metadata !2329, metadata !DIExpression()), !dbg !2330
  %8 = load i8**, i8*** %__new_start, align 8, !dbg !2331
  store i8** %8, i8*** %__new_finish, align 8, !dbg !2330
  %9 = bitcast %"class.std::vector"* %this1 to %"struct.std::_Vector_base"*, !dbg !2332
  %_M_impl7 = getelementptr inbounds %"struct.std::_Vector_base", %"struct.std::_Vector_base"* %9, i32 0, i32 0, !dbg !2332
  %10 = bitcast %"struct.std::_Vector_base<const char *, std::allocator<const char *> >::_Vector_impl"* %_M_impl7 to %"class.std::allocator.1"*, !dbg !2334
  %11 = load i8**, i8*** %__new_start, align 8, !dbg !2335
  %12 = load i64, i64* %__elems_before, align 8, !dbg !2336
  %add.ptr = getelementptr inbounds i8*, i8** %11, i64 %12, !dbg !2337
  %13 = load i8**, i8*** %__args.addr, align 8, !dbg !2338
  %call8 = call dereferenceable(8) i8** @_ZSt7forwardIRKPKcEOT_RNSt16remove_referenceIS4_E4typeE(i8** dereferenceable(8) %13) #12, !dbg !2339
  call void @_ZNSt16allocator_traitsISaIPKcEE9constructIS1_JRKS1_EEEvRS2_PT_DpOT0_(%"class.std::allocator.1"* dereferenceable(1) %10, i8** %add.ptr, i8** dereferenceable(8) %call8) #12, !dbg !2340
  store i8** null, i8*** %__new_finish, align 8, !dbg !2341
  %14 = load i8**, i8*** %__old_start, align 8, !dbg !2342
  %call9 = call dereferenceable(8) i8*** @_ZNK9__gnu_cxx17__normal_iteratorIPPKcSt6vectorIS2_SaIS2_EEE4baseEv(%"class.__gnu_cxx::__normal_iterator"* %__position) #12, !dbg !2345
  %15 = load i8**, i8*** %call9, align 8, !dbg !2345
  %16 = load i8**, i8*** %__new_start, align 8, !dbg !2346
  %17 = bitcast %"class.std::vector"* %this1 to %"struct.std::_Vector_base"*, !dbg !2347
  %call10 = call dereferenceable(1) %"class.std::allocator.1"* @_ZNSt12_Vector_baseIPKcSaIS1_EE19_M_get_Tp_allocatorEv(%"struct.std::_Vector_base"* %17) #12, !dbg !2347
  %call11 = call i8** @_ZNSt6vectorIPKcSaIS1_EE11_S_relocateEPS1_S4_S4_RS2_(i8** %14, i8** %15, i8** %16, %"class.std::allocator.1"* dereferenceable(1) %call10) #12, !dbg !2348
  store i8** %call11, i8*** %__new_finish, align 8, !dbg !2349
  %18 = load i8**, i8*** %__new_finish, align 8, !dbg !2350
  %incdec.ptr = getelementptr inbounds i8*, i8** %18, i32 1, !dbg !2350
  store i8** %incdec.ptr, i8*** %__new_finish, align 8, !dbg !2350
  %call12 = call dereferenceable(8) i8*** @_ZNK9__gnu_cxx17__normal_iteratorIPPKcSt6vectorIS2_SaIS2_EEE4baseEv(%"class.__gnu_cxx::__normal_iterator"* %__position) #12, !dbg !2351
  %19 = load i8**, i8*** %call12, align 8, !dbg !2351
  %20 = load i8**, i8*** %__old_finish, align 8, !dbg !2352
  %21 = load i8**, i8*** %__new_finish, align 8, !dbg !2353
  %22 = bitcast %"class.std::vector"* %this1 to %"struct.std::_Vector_base"*, !dbg !2354
  %call13 = call dereferenceable(1) %"class.std::allocator.1"* @_ZNSt12_Vector_baseIPKcSaIS1_EE19_M_get_Tp_allocatorEv(%"struct.std::_Vector_base"* %22) #12, !dbg !2354
  %call14 = call i8** @_ZNSt6vectorIPKcSaIS1_EE11_S_relocateEPS1_S4_S4_RS2_(i8** %19, i8** %20, i8** %21, %"class.std::allocator.1"* dereferenceable(1) %call13) #12, !dbg !2355
  store i8** %call14, i8*** %__new_finish, align 8, !dbg !2356
  %23 = bitcast %"class.std::vector"* %this1 to %"struct.std::_Vector_base"*, !dbg !2357
  %24 = load i8**, i8*** %__old_start, align 8, !dbg !2358
  %25 = bitcast %"class.std::vector"* %this1 to %"struct.std::_Vector_base"*, !dbg !2359
  %_M_impl15 = getelementptr inbounds %"struct.std::_Vector_base", %"struct.std::_Vector_base"* %25, i32 0, i32 0, !dbg !2359
  %26 = bitcast %"struct.std::_Vector_base<const char *, std::allocator<const char *> >::_Vector_impl"* %_M_impl15 to %"struct.std::_Vector_base<const char *, std::allocator<const char *> >::_Vector_impl_data"*, !dbg !2360
  %_M_end_of_storage = getelementptr inbounds %"struct.std::_Vector_base<const char *, std::allocator<const char *> >::_Vector_impl_data", %"struct.std::_Vector_base<const char *, std::allocator<const char *> >::_Vector_impl_data"* %26, i32 0, i32 2, !dbg !2361
  %27 = load i8**, i8*** %_M_end_of_storage, align 8, !dbg !2361
  %28 = load i8**, i8*** %__old_start, align 8, !dbg !2362
  %sub.ptr.lhs.cast = ptrtoint i8** %27 to i64, !dbg !2363
  %sub.ptr.rhs.cast = ptrtoint i8** %28 to i64, !dbg !2363
  %sub.ptr.sub = sub i64 %sub.ptr.lhs.cast, %sub.ptr.rhs.cast, !dbg !2363
  %sub.ptr.div = sdiv exact i64 %sub.ptr.sub, 8, !dbg !2363
  call void @_ZNSt12_Vector_baseIPKcSaIS1_EE13_M_deallocateEPS1_m(%"struct.std::_Vector_base"* %23, i8** %24, i64 %sub.ptr.div), !dbg !2357
  %29 = load i8**, i8*** %__new_start, align 8, !dbg !2364
  %30 = bitcast %"class.std::vector"* %this1 to %"struct.std::_Vector_base"*, !dbg !2365
  %_M_impl16 = getelementptr inbounds %"struct.std::_Vector_base", %"struct.std::_Vector_base"* %30, i32 0, i32 0, !dbg !2365
  %31 = bitcast %"struct.std::_Vector_base<const char *, std::allocator<const char *> >::_Vector_impl"* %_M_impl16 to %"struct.std::_Vector_base<const char *, std::allocator<const char *> >::_Vector_impl_data"*, !dbg !2366
  %_M_start17 = getelementptr inbounds %"struct.std::_Vector_base<const char *, std::allocator<const char *> >::_Vector_impl_data", %"struct.std::_Vector_base<const char *, std::allocator<const char *> >::_Vector_impl_data"* %31, i32 0, i32 0, !dbg !2367
  store i8** %29, i8*** %_M_start17, align 8, !dbg !2368
  %32 = load i8**, i8*** %__new_finish, align 8, !dbg !2369
  %33 = bitcast %"class.std::vector"* %this1 to %"struct.std::_Vector_base"*, !dbg !2370
  %_M_impl18 = getelementptr inbounds %"struct.std::_Vector_base", %"struct.std::_Vector_base"* %33, i32 0, i32 0, !dbg !2370
  %34 = bitcast %"struct.std::_Vector_base<const char *, std::allocator<const char *> >::_Vector_impl"* %_M_impl18 to %"struct.std::_Vector_base<const char *, std::allocator<const char *> >::_Vector_impl_data"*, !dbg !2371
  %_M_finish19 = getelementptr inbounds %"struct.std::_Vector_base<const char *, std::allocator<const char *> >::_Vector_impl_data", %"struct.std::_Vector_base<const char *, std::allocator<const char *> >::_Vector_impl_data"* %34, i32 0, i32 1, !dbg !2372
  store i8** %32, i8*** %_M_finish19, align 8, !dbg !2373
  %35 = load i8**, i8*** %__new_start, align 8, !dbg !2374
  %36 = load i64, i64* %__len, align 8, !dbg !2375
  %add.ptr20 = getelementptr inbounds i8*, i8** %35, i64 %36, !dbg !2376
  %37 = bitcast %"class.std::vector"* %this1 to %"struct.std::_Vector_base"*, !dbg !2377
  %_M_impl21 = getelementptr inbounds %"struct.std::_Vector_base", %"struct.std::_Vector_base"* %37, i32 0, i32 0, !dbg !2377
  %38 = bitcast %"struct.std::_Vector_base<const char *, std::allocator<const char *> >::_Vector_impl"* %_M_impl21 to %"struct.std::_Vector_base<const char *, std::allocator<const char *> >::_Vector_impl_data"*, !dbg !2378
  %_M_end_of_storage22 = getelementptr inbounds %"struct.std::_Vector_base<const char *, std::allocator<const char *> >::_Vector_impl_data", %"struct.std::_Vector_base<const char *, std::allocator<const char *> >::_Vector_impl_data"* %38, i32 0, i32 2, !dbg !2379
  store i8** %add.ptr20, i8*** %_M_end_of_storage22, align 8, !dbg !2380
  ret void, !dbg !2381
}

; Function Attrs: noinline nounwind uwtable
define linkonce_odr dso_local i8** @_ZNSt6vectorIPKcSaIS1_EE3endEv(%"class.std::vector"* %this) #5 comdat align 2 !dbg !2382 {
entry:
  %retval = alloca %"class.__gnu_cxx::__normal_iterator", align 8
  %this.addr = alloca %"class.std::vector"*, align 8
  store %"class.std::vector"* %this, %"class.std::vector"** %this.addr, align 8
  call void @llvm.dbg.declare(metadata %"class.std::vector"** %this.addr, metadata !2383, metadata !DIExpression()), !dbg !2384
  %this1 = load %"class.std::vector"*, %"class.std::vector"** %this.addr, align 8
  %0 = bitcast %"class.std::vector"* %this1 to %"struct.std::_Vector_base"*, !dbg !2385
  %_M_impl = getelementptr inbounds %"struct.std::_Vector_base", %"struct.std::_Vector_base"* %0, i32 0, i32 0, !dbg !2385
  %1 = bitcast %"struct.std::_Vector_base<const char *, std::allocator<const char *> >::_Vector_impl"* %_M_impl to %"struct.std::_Vector_base<const char *, std::allocator<const char *> >::_Vector_impl_data"*, !dbg !2386
  %_M_finish = getelementptr inbounds %"struct.std::_Vector_base<const char *, std::allocator<const char *> >::_Vector_impl_data", %"struct.std::_Vector_base<const char *, std::allocator<const char *> >::_Vector_impl_data"* %1, i32 0, i32 1, !dbg !2387
  call void @_ZN9__gnu_cxx17__normal_iteratorIPPKcSt6vectorIS2_SaIS2_EEEC2ERKS3_(%"class.__gnu_cxx::__normal_iterator"* %retval, i8*** dereferenceable(8) %_M_finish) #12, !dbg !2388
  %coerce.dive = getelementptr inbounds %"class.__gnu_cxx::__normal_iterator", %"class.__gnu_cxx::__normal_iterator"* %retval, i32 0, i32 0, !dbg !2389
  %2 = load i8**, i8*** %coerce.dive, align 8, !dbg !2389
  ret i8** %2, !dbg !2389
}

; Function Attrs: noinline nounwind uwtable
define linkonce_odr dso_local void @_ZN9__gnu_cxx13new_allocatorIPKcE9constructIS2_JRKS2_EEEvPT_DpOT0_(%"class.__gnu_cxx::new_allocator.2"* %this, i8** %__p, i8** dereferenceable(8) %__args) #5 comdat align 2 !dbg !2390 {
entry:
  %this.addr = alloca %"class.__gnu_cxx::new_allocator.2"*, align 8
  %__p.addr = alloca i8**, align 8
  %__args.addr = alloca i8**, align 8
  store %"class.__gnu_cxx::new_allocator.2"* %this, %"class.__gnu_cxx::new_allocator.2"** %this.addr, align 8
  call void @llvm.dbg.declare(metadata %"class.__gnu_cxx::new_allocator.2"** %this.addr, metadata !2394, metadata !DIExpression()), !dbg !2395
  store i8** %__p, i8*** %__p.addr, align 8
  call void @llvm.dbg.declare(metadata i8*** %__p.addr, metadata !2396, metadata !DIExpression()), !dbg !2397
  store i8** %__args, i8*** %__args.addr, align 8
  call void @llvm.dbg.declare(metadata i8*** %__args.addr, metadata !2398, metadata !DIExpression()), !dbg !2399
  %this1 = load %"class.__gnu_cxx::new_allocator.2"*, %"class.__gnu_cxx::new_allocator.2"** %this.addr, align 8
  %0 = load i8**, i8*** %__p.addr, align 8, !dbg !2400
  %1 = bitcast i8** %0 to i8*, !dbg !2400
  %2 = bitcast i8* %1 to i8**, !dbg !2401
  %3 = load i8**, i8*** %__args.addr, align 8, !dbg !2402
  %call = call dereferenceable(8) i8** @_ZSt7forwardIRKPKcEOT_RNSt16remove_referenceIS4_E4typeE(i8** dereferenceable(8) %3) #12, !dbg !2403
  %4 = load i8*, i8** %call, align 8, !dbg !2403
  store i8* %4, i8** %2, align 8, !dbg !2401
  ret void, !dbg !2404
}

; Function Attrs: noinline nounwind uwtable
define linkonce_odr dso_local dereferenceable(8) i8** @_ZSt7forwardIRKPKcEOT_RNSt16remove_referenceIS4_E4typeE(i8** dereferenceable(8) %__t) #5 comdat !dbg !2405 {
entry:
  %__t.addr = alloca i8**, align 8
  store i8** %__t, i8*** %__t.addr, align 8
  call void @llvm.dbg.declare(metadata i8*** %__t.addr, metadata !2413, metadata !DIExpression()), !dbg !2414
  %0 = load i8**, i8*** %__t.addr, align 8, !dbg !2415
  ret i8** %0, !dbg !2416
}

; Function Attrs: noinline uwtable
define linkonce_odr dso_local i64 @_ZNKSt6vectorIPKcSaIS1_EE12_M_check_lenEmS1_(%"class.std::vector"* %this, i64 %__n, i8* %__s) #0 comdat align 2 !dbg !2417 {
entry:
  %this.addr = alloca %"class.std::vector"*, align 8
  %__n.addr = alloca i64, align 8
  %__s.addr = alloca i8*, align 8
  %__len = alloca i64, align 8
  %ref.tmp = alloca i64, align 8
  store %"class.std::vector"* %this, %"class.std::vector"** %this.addr, align 8
  call void @llvm.dbg.declare(metadata %"class.std::vector"** %this.addr, metadata !2418, metadata !DIExpression()), !dbg !2420
  store i64 %__n, i64* %__n.addr, align 8
  call void @llvm.dbg.declare(metadata i64* %__n.addr, metadata !2421, metadata !DIExpression()), !dbg !2422
  store i8* %__s, i8** %__s.addr, align 8
  call void @llvm.dbg.declare(metadata i8** %__s.addr, metadata !2423, metadata !DIExpression()), !dbg !2424
  %this1 = load %"class.std::vector"*, %"class.std::vector"** %this.addr, align 8
  %call = call i64 @_ZNKSt6vectorIPKcSaIS1_EE8max_sizeEv(%"class.std::vector"* %this1) #12, !dbg !2425
  %call2 = call i64 @_ZNKSt6vectorIPKcSaIS1_EE4sizeEv(%"class.std::vector"* %this1) #12, !dbg !2427
  %sub = sub i64 %call, %call2, !dbg !2428
  %0 = load i64, i64* %__n.addr, align 8, !dbg !2429
  %cmp = icmp ult i64 %sub, %0, !dbg !2430
  br i1 %cmp, label %if.then, label %if.end, !dbg !2431

if.then:                                          ; preds = %entry
  %1 = load i8*, i8** %__s.addr, align 8, !dbg !2432
  call void @_ZSt20__throw_length_errorPKc(i8* %1) #13, !dbg !2433
  unreachable, !dbg !2433

if.end:                                           ; preds = %entry
  call void @llvm.dbg.declare(metadata i64* %__len, metadata !2434, metadata !DIExpression()), !dbg !2435
  %call3 = call i64 @_ZNKSt6vectorIPKcSaIS1_EE4sizeEv(%"class.std::vector"* %this1) #12, !dbg !2436
  %call4 = call i64 @_ZNKSt6vectorIPKcSaIS1_EE4sizeEv(%"class.std::vector"* %this1) #12, !dbg !2437
  store i64 %call4, i64* %ref.tmp, align 8, !dbg !2437
  %call5 = call dereferenceable(8) i64* @_ZSt3maxImERKT_S2_S2_(i64* dereferenceable(8) %ref.tmp, i64* dereferenceable(8) %__n.addr), !dbg !2438
  %2 = load i64, i64* %call5, align 8, !dbg !2438
  %add = add i64 %call3, %2, !dbg !2439
  store i64 %add, i64* %__len, align 8, !dbg !2435
  %3 = load i64, i64* %__len, align 8, !dbg !2440
  %call6 = call i64 @_ZNKSt6vectorIPKcSaIS1_EE4sizeEv(%"class.std::vector"* %this1) #12, !dbg !2441
  %cmp7 = icmp ult i64 %3, %call6, !dbg !2442
  br i1 %cmp7, label %cond.true, label %lor.lhs.false, !dbg !2443

lor.lhs.false:                                    ; preds = %if.end
  %4 = load i64, i64* %__len, align 8, !dbg !2444
  %call8 = call i64 @_ZNKSt6vectorIPKcSaIS1_EE8max_sizeEv(%"class.std::vector"* %this1) #12, !dbg !2445
  %cmp9 = icmp ugt i64 %4, %call8, !dbg !2446
  br i1 %cmp9, label %cond.true, label %cond.false, !dbg !2447

cond.true:                                        ; preds = %lor.lhs.false, %if.end
  %call10 = call i64 @_ZNKSt6vectorIPKcSaIS1_EE8max_sizeEv(%"class.std::vector"* %this1) #12, !dbg !2448
  br label %cond.end, !dbg !2447

cond.false:                                       ; preds = %lor.lhs.false
  %5 = load i64, i64* %__len, align 8, !dbg !2449
  br label %cond.end, !dbg !2447

cond.end:                                         ; preds = %cond.false, %cond.true
  %cond = phi i64 [ %call10, %cond.true ], [ %5, %cond.false ], !dbg !2447
  ret i64 %cond, !dbg !2450
}

; Function Attrs: noinline nounwind uwtable
define linkonce_odr dso_local i64 @_ZN9__gnu_cxxmiIPPKcSt6vectorIS2_SaIS2_EEEENS_17__normal_iteratorIT_T0_E15difference_typeERKSA_SD_(%"class.__gnu_cxx::__normal_iterator"* dereferenceable(8) %__lhs, %"class.__gnu_cxx::__normal_iterator"* dereferenceable(8) %__rhs) #5 comdat !dbg !2451 {
entry:
  %__lhs.addr = alloca %"class.__gnu_cxx::__normal_iterator"*, align 8
  %__rhs.addr = alloca %"class.__gnu_cxx::__normal_iterator"*, align 8
  store %"class.__gnu_cxx::__normal_iterator"* %__lhs, %"class.__gnu_cxx::__normal_iterator"** %__lhs.addr, align 8
  call void @llvm.dbg.declare(metadata %"class.__gnu_cxx::__normal_iterator"** %__lhs.addr, metadata !2455, metadata !DIExpression()), !dbg !2456
  store %"class.__gnu_cxx::__normal_iterator"* %__rhs, %"class.__gnu_cxx::__normal_iterator"** %__rhs.addr, align 8
  call void @llvm.dbg.declare(metadata %"class.__gnu_cxx::__normal_iterator"** %__rhs.addr, metadata !2457, metadata !DIExpression()), !dbg !2458
  %0 = load %"class.__gnu_cxx::__normal_iterator"*, %"class.__gnu_cxx::__normal_iterator"** %__lhs.addr, align 8, !dbg !2459
  %call = call dereferenceable(8) i8*** @_ZNK9__gnu_cxx17__normal_iteratorIPPKcSt6vectorIS2_SaIS2_EEE4baseEv(%"class.__gnu_cxx::__normal_iterator"* %0) #12, !dbg !2460
  %1 = load i8**, i8*** %call, align 8, !dbg !2460
  %2 = load %"class.__gnu_cxx::__normal_iterator"*, %"class.__gnu_cxx::__normal_iterator"** %__rhs.addr, align 8, !dbg !2461
  %call1 = call dereferenceable(8) i8*** @_ZNK9__gnu_cxx17__normal_iteratorIPPKcSt6vectorIS2_SaIS2_EEE4baseEv(%"class.__gnu_cxx::__normal_iterator"* %2) #12, !dbg !2462
  %3 = load i8**, i8*** %call1, align 8, !dbg !2462
  %sub.ptr.lhs.cast = ptrtoint i8** %1 to i64, !dbg !2463
  %sub.ptr.rhs.cast = ptrtoint i8** %3 to i64, !dbg !2463
  %sub.ptr.sub = sub i64 %sub.ptr.lhs.cast, %sub.ptr.rhs.cast, !dbg !2463
  %sub.ptr.div = sdiv exact i64 %sub.ptr.sub, 8, !dbg !2463
  ret i64 %sub.ptr.div, !dbg !2464
}

; Function Attrs: noinline nounwind uwtable
define linkonce_odr dso_local i8** @_ZNSt6vectorIPKcSaIS1_EE5beginEv(%"class.std::vector"* %this) #5 comdat align 2 !dbg !2465 {
entry:
  %retval = alloca %"class.__gnu_cxx::__normal_iterator", align 8
  %this.addr = alloca %"class.std::vector"*, align 8
  store %"class.std::vector"* %this, %"class.std::vector"** %this.addr, align 8
  call void @llvm.dbg.declare(metadata %"class.std::vector"** %this.addr, metadata !2466, metadata !DIExpression()), !dbg !2467
  %this1 = load %"class.std::vector"*, %"class.std::vector"** %this.addr, align 8
  %0 = bitcast %"class.std::vector"* %this1 to %"struct.std::_Vector_base"*, !dbg !2468
  %_M_impl = getelementptr inbounds %"struct.std::_Vector_base", %"struct.std::_Vector_base"* %0, i32 0, i32 0, !dbg !2468
  %1 = bitcast %"struct.std::_Vector_base<const char *, std::allocator<const char *> >::_Vector_impl"* %_M_impl to %"struct.std::_Vector_base<const char *, std::allocator<const char *> >::_Vector_impl_data"*, !dbg !2469
  %_M_start = getelementptr inbounds %"struct.std::_Vector_base<const char *, std::allocator<const char *> >::_Vector_impl_data", %"struct.std::_Vector_base<const char *, std::allocator<const char *> >::_Vector_impl_data"* %1, i32 0, i32 0, !dbg !2470
  call void @_ZN9__gnu_cxx17__normal_iteratorIPPKcSt6vectorIS2_SaIS2_EEEC2ERKS3_(%"class.__gnu_cxx::__normal_iterator"* %retval, i8*** dereferenceable(8) %_M_start) #12, !dbg !2471
  %coerce.dive = getelementptr inbounds %"class.__gnu_cxx::__normal_iterator", %"class.__gnu_cxx::__normal_iterator"* %retval, i32 0, i32 0, !dbg !2472
  %2 = load i8**, i8*** %coerce.dive, align 8, !dbg !2472
  ret i8** %2, !dbg !2472
}

; Function Attrs: noinline uwtable
define linkonce_odr dso_local i8** @_ZNSt12_Vector_baseIPKcSaIS1_EE11_M_allocateEm(%"struct.std::_Vector_base"* %this, i64 %__n) #0 comdat align 2 !dbg !2473 {
entry:
  %this.addr = alloca %"struct.std::_Vector_base"*, align 8
  %__n.addr = alloca i64, align 8
  store %"struct.std::_Vector_base"* %this, %"struct.std::_Vector_base"** %this.addr, align 8
  call void @llvm.dbg.declare(metadata %"struct.std::_Vector_base"** %this.addr, metadata !2474, metadata !DIExpression()), !dbg !2475
  store i64 %__n, i64* %__n.addr, align 8
  call void @llvm.dbg.declare(metadata i64* %__n.addr, metadata !2476, metadata !DIExpression()), !dbg !2477
  %this1 = load %"struct.std::_Vector_base"*, %"struct.std::_Vector_base"** %this.addr, align 8
  %0 = load i64, i64* %__n.addr, align 8, !dbg !2478
  %cmp = icmp ne i64 %0, 0, !dbg !2479
  br i1 %cmp, label %cond.true, label %cond.false, !dbg !2478

cond.true:                                        ; preds = %entry
  %_M_impl = getelementptr inbounds %"struct.std::_Vector_base", %"struct.std::_Vector_base"* %this1, i32 0, i32 0, !dbg !2480
  %1 = bitcast %"struct.std::_Vector_base<const char *, std::allocator<const char *> >::_Vector_impl"* %_M_impl to %"class.std::allocator.1"*, !dbg !2480
  %2 = load i64, i64* %__n.addr, align 8, !dbg !2481
  %call = call i8** @_ZNSt16allocator_traitsISaIPKcEE8allocateERS2_m(%"class.std::allocator.1"* dereferenceable(1) %1, i64 %2), !dbg !2482
  br label %cond.end, !dbg !2478

cond.false:                                       ; preds = %entry
  br label %cond.end, !dbg !2478

cond.end:                                         ; preds = %cond.false, %cond.true
  %cond = phi i8** [ %call, %cond.true ], [ null, %cond.false ], !dbg !2478
  ret i8** %cond, !dbg !2483
}

; Function Attrs: noinline nounwind uwtable
define linkonce_odr dso_local i8** @_ZNSt6vectorIPKcSaIS1_EE11_S_relocateEPS1_S4_S4_RS2_(i8** %__first, i8** %__last, i8** %__result, %"class.std::allocator.1"* dereferenceable(1) %__alloc) #5 comdat align 2 !dbg !557 {
entry:
  %__first.addr = alloca i8**, align 8
  %__last.addr = alloca i8**, align 8
  %__result.addr = alloca i8**, align 8
  %__alloc.addr = alloca %"class.std::allocator.1"*, align 8
  %agg.tmp = alloca %"struct.std::integral_constant", align 1
  store i8** %__first, i8*** %__first.addr, align 8
  call void @llvm.dbg.declare(metadata i8*** %__first.addr, metadata !2484, metadata !DIExpression()), !dbg !2485
  store i8** %__last, i8*** %__last.addr, align 8
  call void @llvm.dbg.declare(metadata i8*** %__last.addr, metadata !2486, metadata !DIExpression()), !dbg !2487
  store i8** %__result, i8*** %__result.addr, align 8
  call void @llvm.dbg.declare(metadata i8*** %__result.addr, metadata !2488, metadata !DIExpression()), !dbg !2489
  store %"class.std::allocator.1"* %__alloc, %"class.std::allocator.1"** %__alloc.addr, align 8
  call void @llvm.dbg.declare(metadata %"class.std::allocator.1"** %__alloc.addr, metadata !2490, metadata !DIExpression()), !dbg !2491
  %0 = load i8**, i8*** %__first.addr, align 8, !dbg !2492
  %1 = load i8**, i8*** %__last.addr, align 8, !dbg !2493
  %2 = load i8**, i8*** %__result.addr, align 8, !dbg !2494
  %3 = load %"class.std::allocator.1"*, %"class.std::allocator.1"** %__alloc.addr, align 8, !dbg !2495
  %call = call i8** @_ZNSt6vectorIPKcSaIS1_EE14_S_do_relocateEPS1_S4_S4_RS2_St17integral_constantIbLb1EE(i8** %0, i8** %1, i8** %2, %"class.std::allocator.1"* dereferenceable(1) %3) #12, !dbg !2496
  ret i8** %call, !dbg !2497
}

; Function Attrs: noinline nounwind uwtable
define linkonce_odr dso_local dereferenceable(8) i8*** @_ZNK9__gnu_cxx17__normal_iteratorIPPKcSt6vectorIS2_SaIS2_EEE4baseEv(%"class.__gnu_cxx::__normal_iterator"* %this) #5 comdat align 2 !dbg !2498 {
entry:
  %this.addr = alloca %"class.__gnu_cxx::__normal_iterator"*, align 8
  store %"class.__gnu_cxx::__normal_iterator"* %this, %"class.__gnu_cxx::__normal_iterator"** %this.addr, align 8
  call void @llvm.dbg.declare(metadata %"class.__gnu_cxx::__normal_iterator"** %this.addr, metadata !2499, metadata !DIExpression()), !dbg !2501
  %this1 = load %"class.__gnu_cxx::__normal_iterator"*, %"class.__gnu_cxx::__normal_iterator"** %this.addr, align 8
  %_M_current = getelementptr inbounds %"class.__gnu_cxx::__normal_iterator", %"class.__gnu_cxx::__normal_iterator"* %this1, i32 0, i32 0, !dbg !2502
  ret i8*** %_M_current, !dbg !2503
}

; Function Attrs: noinline nounwind uwtable
define linkonce_odr dso_local i64 @_ZNKSt6vectorIPKcSaIS1_EE8max_sizeEv(%"class.std::vector"* %this) #5 comdat align 2 !dbg !2504 {
entry:
  %this.addr = alloca %"class.std::vector"*, align 8
  store %"class.std::vector"* %this, %"class.std::vector"** %this.addr, align 8
  call void @llvm.dbg.declare(metadata %"class.std::vector"** %this.addr, metadata !2505, metadata !DIExpression()), !dbg !2506
  %this1 = load %"class.std::vector"*, %"class.std::vector"** %this.addr, align 8
  %0 = bitcast %"class.std::vector"* %this1 to %"struct.std::_Vector_base"*, !dbg !2507
  %call = call dereferenceable(1) %"class.std::allocator.1"* @_ZNKSt12_Vector_baseIPKcSaIS1_EE19_M_get_Tp_allocatorEv(%"struct.std::_Vector_base"* %0) #12, !dbg !2507
  %call2 = call i64 @_ZNSt6vectorIPKcSaIS1_EE11_S_max_sizeERKS2_(%"class.std::allocator.1"* dereferenceable(1) %call) #12, !dbg !2508
  ret i64 %call2, !dbg !2509
}

; Function Attrs: noinline nounwind uwtable
define linkonce_odr dso_local i64 @_ZNKSt6vectorIPKcSaIS1_EE4sizeEv(%"class.std::vector"* %this) #5 comdat align 2 !dbg !2510 {
entry:
  %this.addr = alloca %"class.std::vector"*, align 8
  store %"class.std::vector"* %this, %"class.std::vector"** %this.addr, align 8
  call void @llvm.dbg.declare(metadata %"class.std::vector"** %this.addr, metadata !2511, metadata !DIExpression()), !dbg !2512
  %this1 = load %"class.std::vector"*, %"class.std::vector"** %this.addr, align 8
  %0 = bitcast %"class.std::vector"* %this1 to %"struct.std::_Vector_base"*, !dbg !2513
  %_M_impl = getelementptr inbounds %"struct.std::_Vector_base", %"struct.std::_Vector_base"* %0, i32 0, i32 0, !dbg !2513
  %1 = bitcast %"struct.std::_Vector_base<const char *, std::allocator<const char *> >::_Vector_impl"* %_M_impl to %"struct.std::_Vector_base<const char *, std::allocator<const char *> >::_Vector_impl_data"*, !dbg !2514
  %_M_finish = getelementptr inbounds %"struct.std::_Vector_base<const char *, std::allocator<const char *> >::_Vector_impl_data", %"struct.std::_Vector_base<const char *, std::allocator<const char *> >::_Vector_impl_data"* %1, i32 0, i32 1, !dbg !2515
  %2 = load i8**, i8*** %_M_finish, align 8, !dbg !2515
  %3 = bitcast %"class.std::vector"* %this1 to %"struct.std::_Vector_base"*, !dbg !2516
  %_M_impl2 = getelementptr inbounds %"struct.std::_Vector_base", %"struct.std::_Vector_base"* %3, i32 0, i32 0, !dbg !2516
  %4 = bitcast %"struct.std::_Vector_base<const char *, std::allocator<const char *> >::_Vector_impl"* %_M_impl2 to %"struct.std::_Vector_base<const char *, std::allocator<const char *> >::_Vector_impl_data"*, !dbg !2517
  %_M_start = getelementptr inbounds %"struct.std::_Vector_base<const char *, std::allocator<const char *> >::_Vector_impl_data", %"struct.std::_Vector_base<const char *, std::allocator<const char *> >::_Vector_impl_data"* %4, i32 0, i32 0, !dbg !2518
  %5 = load i8**, i8*** %_M_start, align 8, !dbg !2518
  %sub.ptr.lhs.cast = ptrtoint i8** %2 to i64, !dbg !2519
  %sub.ptr.rhs.cast = ptrtoint i8** %5 to i64, !dbg !2519
  %sub.ptr.sub = sub i64 %sub.ptr.lhs.cast, %sub.ptr.rhs.cast, !dbg !2519
  %sub.ptr.div = sdiv exact i64 %sub.ptr.sub, 8, !dbg !2519
  ret i64 %sub.ptr.div, !dbg !2520
}

; Function Attrs: noreturn
declare dso_local void @_ZSt20__throw_length_errorPKc(i8*) #8

; Function Attrs: noinline nounwind uwtable
define linkonce_odr dso_local dereferenceable(8) i64* @_ZSt3maxImERKT_S2_S2_(i64* dereferenceable(8) %__a, i64* dereferenceable(8) %__b) #5 comdat !dbg !2521 {
entry:
  %retval = alloca i64*, align 8
  %__a.addr = alloca i64*, align 8
  %__b.addr = alloca i64*, align 8
  store i64* %__a, i64** %__a.addr, align 8
  call void @llvm.dbg.declare(metadata i64** %__a.addr, metadata !2529, metadata !DIExpression()), !dbg !2530
  store i64* %__b, i64** %__b.addr, align 8
  call void @llvm.dbg.declare(metadata i64** %__b.addr, metadata !2531, metadata !DIExpression()), !dbg !2532
  %0 = load i64*, i64** %__a.addr, align 8, !dbg !2533
  %1 = load i64, i64* %0, align 8, !dbg !2533
  %2 = load i64*, i64** %__b.addr, align 8, !dbg !2535
  %3 = load i64, i64* %2, align 8, !dbg !2535
  %cmp = icmp ult i64 %1, %3, !dbg !2536
  br i1 %cmp, label %if.then, label %if.end, !dbg !2537

if.then:                                          ; preds = %entry
  %4 = load i64*, i64** %__b.addr, align 8, !dbg !2538
  store i64* %4, i64** %retval, align 8, !dbg !2539
  br label %return, !dbg !2539

if.end:                                           ; preds = %entry
  %5 = load i64*, i64** %__a.addr, align 8, !dbg !2540
  store i64* %5, i64** %retval, align 8, !dbg !2541
  br label %return, !dbg !2541

return:                                           ; preds = %if.end, %if.then
  %6 = load i64*, i64** %retval, align 8, !dbg !2542
  ret i64* %6, !dbg !2542
}

; Function Attrs: noinline nounwind uwtable
define linkonce_odr dso_local i64 @_ZNSt6vectorIPKcSaIS1_EE11_S_max_sizeERKS2_(%"class.std::allocator.1"* dereferenceable(1) %__a) #5 comdat align 2 personality i8* bitcast (i32 (...)* @__gxx_personality_v0 to i8*) !dbg !2543 {
entry:
  %__a.addr = alloca %"class.std::allocator.1"*, align 8
  %__diffmax = alloca i64, align 8
  %__allocmax = alloca i64, align 8
  store %"class.std::allocator.1"* %__a, %"class.std::allocator.1"** %__a.addr, align 8
  call void @llvm.dbg.declare(metadata %"class.std::allocator.1"** %__a.addr, metadata !2544, metadata !DIExpression()), !dbg !2545
  call void @llvm.dbg.declare(metadata i64* %__diffmax, metadata !2546, metadata !DIExpression()), !dbg !2548
  store i64 1152921504606846975, i64* %__diffmax, align 8, !dbg !2548
  call void @llvm.dbg.declare(metadata i64* %__allocmax, metadata !2549, metadata !DIExpression()), !dbg !2550
  %0 = load %"class.std::allocator.1"*, %"class.std::allocator.1"** %__a.addr, align 8, !dbg !2551
  %call = call i64 @_ZNSt16allocator_traitsISaIPKcEE8max_sizeERKS2_(%"class.std::allocator.1"* dereferenceable(1) %0) #12, !dbg !2552
  store i64 %call, i64* %__allocmax, align 8, !dbg !2550
  %call1 = invoke dereferenceable(8) i64* @_ZSt3minImERKT_S2_S2_(i64* dereferenceable(8) %__diffmax, i64* dereferenceable(8) %__allocmax)
          to label %invoke.cont unwind label %terminate.lpad, !dbg !2553

invoke.cont:                                      ; preds = %entry
  %1 = load i64, i64* %call1, align 8, !dbg !2553
  ret i64 %1, !dbg !2554

terminate.lpad:                                   ; preds = %entry
  %2 = landingpad { i8*, i32 }
          catch i8* null, !dbg !2553
  %3 = extractvalue { i8*, i32 } %2, 0, !dbg !2553
  call void @__clang_call_terminate(i8* %3) #14, !dbg !2553
  unreachable, !dbg !2553
}

; Function Attrs: noinline nounwind uwtable
define linkonce_odr dso_local dereferenceable(1) %"class.std::allocator.1"* @_ZNKSt12_Vector_baseIPKcSaIS1_EE19_M_get_Tp_allocatorEv(%"struct.std::_Vector_base"* %this) #5 comdat align 2 !dbg !2555 {
entry:
  %this.addr = alloca %"struct.std::_Vector_base"*, align 8
  store %"struct.std::_Vector_base"* %this, %"struct.std::_Vector_base"** %this.addr, align 8
  call void @llvm.dbg.declare(metadata %"struct.std::_Vector_base"** %this.addr, metadata !2556, metadata !DIExpression()), !dbg !2558
  %this1 = load %"struct.std::_Vector_base"*, %"struct.std::_Vector_base"** %this.addr, align 8
  %_M_impl = getelementptr inbounds %"struct.std::_Vector_base", %"struct.std::_Vector_base"* %this1, i32 0, i32 0, !dbg !2559
  %0 = bitcast %"struct.std::_Vector_base<const char *, std::allocator<const char *> >::_Vector_impl"* %_M_impl to %"class.std::allocator.1"*, !dbg !2560
  ret %"class.std::allocator.1"* %0, !dbg !2561
}

; Function Attrs: noinline nounwind uwtable
define linkonce_odr dso_local i64 @_ZNSt16allocator_traitsISaIPKcEE8max_sizeERKS2_(%"class.std::allocator.1"* dereferenceable(1) %__a) #5 comdat align 2 !dbg !2562 {
entry:
  %__a.addr = alloca %"class.std::allocator.1"*, align 8
  store %"class.std::allocator.1"* %__a, %"class.std::allocator.1"** %__a.addr, align 8
  call void @llvm.dbg.declare(metadata %"class.std::allocator.1"** %__a.addr, metadata !2563, metadata !DIExpression()), !dbg !2564
  %0 = load %"class.std::allocator.1"*, %"class.std::allocator.1"** %__a.addr, align 8, !dbg !2565
  %1 = bitcast %"class.std::allocator.1"* %0 to %"class.__gnu_cxx::new_allocator.2"*, !dbg !2565
  %call = call i64 @_ZNK9__gnu_cxx13new_allocatorIPKcE8max_sizeEv(%"class.__gnu_cxx::new_allocator.2"* %1) #12, !dbg !2566
  ret i64 %call, !dbg !2567
}

; Function Attrs: noinline nounwind uwtable
define linkonce_odr dso_local dereferenceable(8) i64* @_ZSt3minImERKT_S2_S2_(i64* dereferenceable(8) %__a, i64* dereferenceable(8) %__b) #5 comdat !dbg !2568 {
entry:
  %retval = alloca i64*, align 8
  %__a.addr = alloca i64*, align 8
  %__b.addr = alloca i64*, align 8
  store i64* %__a, i64** %__a.addr, align 8
  call void @llvm.dbg.declare(metadata i64** %__a.addr, metadata !2569, metadata !DIExpression()), !dbg !2570
  store i64* %__b, i64** %__b.addr, align 8
  call void @llvm.dbg.declare(metadata i64** %__b.addr, metadata !2571, metadata !DIExpression()), !dbg !2572
  %0 = load i64*, i64** %__b.addr, align 8, !dbg !2573
  %1 = load i64, i64* %0, align 8, !dbg !2573
  %2 = load i64*, i64** %__a.addr, align 8, !dbg !2575
  %3 = load i64, i64* %2, align 8, !dbg !2575
  %cmp = icmp ult i64 %1, %3, !dbg !2576
  br i1 %cmp, label %if.then, label %if.end, !dbg !2577

if.then:                                          ; preds = %entry
  %4 = load i64*, i64** %__b.addr, align 8, !dbg !2578
  store i64* %4, i64** %retval, align 8, !dbg !2579
  br label %return, !dbg !2579

if.end:                                           ; preds = %entry
  %5 = load i64*, i64** %__a.addr, align 8, !dbg !2580
  store i64* %5, i64** %retval, align 8, !dbg !2581
  br label %return, !dbg !2581

return:                                           ; preds = %if.end, %if.then
  %6 = load i64*, i64** %retval, align 8, !dbg !2582
  ret i64* %6, !dbg !2582
}

; Function Attrs: noinline nounwind uwtable
define linkonce_odr dso_local i64 @_ZNK9__gnu_cxx13new_allocatorIPKcE8max_sizeEv(%"class.__gnu_cxx::new_allocator.2"* %this) #5 comdat align 2 !dbg !2583 {
entry:
  %this.addr = alloca %"class.__gnu_cxx::new_allocator.2"*, align 8
  store %"class.__gnu_cxx::new_allocator.2"* %this, %"class.__gnu_cxx::new_allocator.2"** %this.addr, align 8
  call void @llvm.dbg.declare(metadata %"class.__gnu_cxx::new_allocator.2"** %this.addr, metadata !2584, metadata !DIExpression()), !dbg !2586
  %this1 = load %"class.__gnu_cxx::new_allocator.2"*, %"class.__gnu_cxx::new_allocator.2"** %this.addr, align 8
  %call = call i64 @_ZNK9__gnu_cxx13new_allocatorIPKcE11_M_max_sizeEv(%"class.__gnu_cxx::new_allocator.2"* %this1) #12, !dbg !2587
  ret i64 %call, !dbg !2588
}

; Function Attrs: noinline nounwind uwtable
define linkonce_odr dso_local i64 @_ZNK9__gnu_cxx13new_allocatorIPKcE11_M_max_sizeEv(%"class.__gnu_cxx::new_allocator.2"* %this) #5 comdat align 2 !dbg !2589 {
entry:
  %this.addr = alloca %"class.__gnu_cxx::new_allocator.2"*, align 8
  store %"class.__gnu_cxx::new_allocator.2"* %this, %"class.__gnu_cxx::new_allocator.2"** %this.addr, align 8
  call void @llvm.dbg.declare(metadata %"class.__gnu_cxx::new_allocator.2"** %this.addr, metadata !2590, metadata !DIExpression()), !dbg !2591
  %this1 = load %"class.__gnu_cxx::new_allocator.2"*, %"class.__gnu_cxx::new_allocator.2"** %this.addr, align 8
  ret i64 1152921504606846975, !dbg !2592
}

; Function Attrs: noinline nounwind uwtable
define linkonce_odr dso_local void @_ZN9__gnu_cxx17__normal_iteratorIPPKcSt6vectorIS2_SaIS2_EEEC2ERKS3_(%"class.__gnu_cxx::__normal_iterator"* %this, i8*** dereferenceable(8) %__i) unnamed_addr #5 comdat align 2 !dbg !2593 {
entry:
  %this.addr = alloca %"class.__gnu_cxx::__normal_iterator"*, align 8
  %__i.addr = alloca i8***, align 8
  store %"class.__gnu_cxx::__normal_iterator"* %this, %"class.__gnu_cxx::__normal_iterator"** %this.addr, align 8
  call void @llvm.dbg.declare(metadata %"class.__gnu_cxx::__normal_iterator"** %this.addr, metadata !2594, metadata !DIExpression()), !dbg !2596
  store i8*** %__i, i8**** %__i.addr, align 8
  call void @llvm.dbg.declare(metadata i8**** %__i.addr, metadata !2597, metadata !DIExpression()), !dbg !2598
  %this1 = load %"class.__gnu_cxx::__normal_iterator"*, %"class.__gnu_cxx::__normal_iterator"** %this.addr, align 8
  %_M_current = getelementptr inbounds %"class.__gnu_cxx::__normal_iterator", %"class.__gnu_cxx::__normal_iterator"* %this1, i32 0, i32 0, !dbg !2599
  %0 = load i8***, i8**** %__i.addr, align 8, !dbg !2600
  %1 = load i8**, i8*** %0, align 8, !dbg !2600
  store i8** %1, i8*** %_M_current, align 8, !dbg !2599
  ret void, !dbg !2601
}

; Function Attrs: noinline uwtable
define linkonce_odr dso_local i8** @_ZNSt16allocator_traitsISaIPKcEE8allocateERS2_m(%"class.std::allocator.1"* dereferenceable(1) %__a, i64 %__n) #0 comdat align 2 !dbg !2602 {
entry:
  %__a.addr = alloca %"class.std::allocator.1"*, align 8
  %__n.addr = alloca i64, align 8
  store %"class.std::allocator.1"* %__a, %"class.std::allocator.1"** %__a.addr, align 8
  call void @llvm.dbg.declare(metadata %"class.std::allocator.1"** %__a.addr, metadata !2603, metadata !DIExpression()), !dbg !2604
  store i64 %__n, i64* %__n.addr, align 8
  call void @llvm.dbg.declare(metadata i64* %__n.addr, metadata !2605, metadata !DIExpression()), !dbg !2606
  %0 = load %"class.std::allocator.1"*, %"class.std::allocator.1"** %__a.addr, align 8, !dbg !2607
  %1 = bitcast %"class.std::allocator.1"* %0 to %"class.__gnu_cxx::new_allocator.2"*, !dbg !2607
  %2 = load i64, i64* %__n.addr, align 8, !dbg !2608
  %call = call i8** @_ZN9__gnu_cxx13new_allocatorIPKcE8allocateEmPKv(%"class.__gnu_cxx::new_allocator.2"* %1, i64 %2, i8* null), !dbg !2609
  ret i8** %call, !dbg !2610
}

; Function Attrs: noinline uwtable
define linkonce_odr dso_local i8** @_ZN9__gnu_cxx13new_allocatorIPKcE8allocateEmPKv(%"class.__gnu_cxx::new_allocator.2"* %this, i64 %__n, i8* %0) #0 comdat align 2 !dbg !2611 {
entry:
  %this.addr = alloca %"class.__gnu_cxx::new_allocator.2"*, align 8
  %__n.addr = alloca i64, align 8
  %.addr = alloca i8*, align 8
  store %"class.__gnu_cxx::new_allocator.2"* %this, %"class.__gnu_cxx::new_allocator.2"** %this.addr, align 8
  call void @llvm.dbg.declare(metadata %"class.__gnu_cxx::new_allocator.2"** %this.addr, metadata !2612, metadata !DIExpression()), !dbg !2613
  store i64 %__n, i64* %__n.addr, align 8
  call void @llvm.dbg.declare(metadata i64* %__n.addr, metadata !2614, metadata !DIExpression()), !dbg !2615
  store i8* %0, i8** %.addr, align 8
  call void @llvm.dbg.declare(metadata i8** %.addr, metadata !2616, metadata !DIExpression()), !dbg !2617
  %this1 = load %"class.__gnu_cxx::new_allocator.2"*, %"class.__gnu_cxx::new_allocator.2"** %this.addr, align 8
  %1 = load i64, i64* %__n.addr, align 8, !dbg !2618
  %call = call i64 @_ZNK9__gnu_cxx13new_allocatorIPKcE11_M_max_sizeEv(%"class.__gnu_cxx::new_allocator.2"* %this1) #12, !dbg !2620
  %cmp = icmp ugt i64 %1, %call, !dbg !2621
  br i1 %cmp, label %if.then, label %if.end, !dbg !2622

if.then:                                          ; preds = %entry
  call void @_ZSt17__throw_bad_allocv() #13, !dbg !2623
  unreachable, !dbg !2623

if.end:                                           ; preds = %entry
  %2 = load i64, i64* %__n.addr, align 8, !dbg !2624
  %mul = mul i64 %2, 8, !dbg !2625
  %call2 = call i8* @_Znwm(i64 %mul), !dbg !2626
  %3 = bitcast i8* %call2 to i8**, !dbg !2627
  ret i8** %3, !dbg !2628
}

; Function Attrs: noreturn
declare dso_local void @_ZSt17__throw_bad_allocv() #8

; Function Attrs: nobuiltin
declare dso_local noalias i8* @_Znwm(i64) #9

; Function Attrs: noinline nounwind uwtable
define linkonce_odr dso_local i8** @_ZNSt6vectorIPKcSaIS1_EE14_S_do_relocateEPS1_S4_S4_RS2_St17integral_constantIbLb1EE(i8** %__first, i8** %__last, i8** %__result, %"class.std::allocator.1"* dereferenceable(1) %__alloc) #5 comdat align 2 !dbg !2629 {
entry:
  %0 = alloca %"struct.std::integral_constant", align 1
  %__first.addr = alloca i8**, align 8
  %__last.addr = alloca i8**, align 8
  %__result.addr = alloca i8**, align 8
  %__alloc.addr = alloca %"class.std::allocator.1"*, align 8
  store i8** %__first, i8*** %__first.addr, align 8
  call void @llvm.dbg.declare(metadata i8*** %__first.addr, metadata !2630, metadata !DIExpression()), !dbg !2631
  store i8** %__last, i8*** %__last.addr, align 8
  call void @llvm.dbg.declare(metadata i8*** %__last.addr, metadata !2632, metadata !DIExpression()), !dbg !2633
  store i8** %__result, i8*** %__result.addr, align 8
  call void @llvm.dbg.declare(metadata i8*** %__result.addr, metadata !2634, metadata !DIExpression()), !dbg !2635
  store %"class.std::allocator.1"* %__alloc, %"class.std::allocator.1"** %__alloc.addr, align 8
  call void @llvm.dbg.declare(metadata %"class.std::allocator.1"** %__alloc.addr, metadata !2636, metadata !DIExpression()), !dbg !2637
  call void @llvm.dbg.declare(metadata %"struct.std::integral_constant"* %0, metadata !2638, metadata !DIExpression()), !dbg !2639
  %1 = load i8**, i8*** %__first.addr, align 8, !dbg !2640
  %2 = load i8**, i8*** %__last.addr, align 8, !dbg !2641
  %3 = load i8**, i8*** %__result.addr, align 8, !dbg !2642
  %4 = load %"class.std::allocator.1"*, %"class.std::allocator.1"** %__alloc.addr, align 8, !dbg !2643
  %call = call i8** @_ZSt12__relocate_aIPPKcS2_SaIS1_EET0_T_S5_S4_RT1_(i8** %1, i8** %2, i8** %3, %"class.std::allocator.1"* dereferenceable(1) %4) #12, !dbg !2644
  ret i8** %call, !dbg !2645
}

; Function Attrs: noinline nounwind uwtable
define linkonce_odr dso_local i8** @_ZSt12__relocate_aIPPKcS2_SaIS1_EET0_T_S5_S4_RT1_(i8** %__first, i8** %__last, i8** %__result, %"class.std::allocator.1"* dereferenceable(1) %__alloc) #5 comdat !dbg !2646 {
entry:
  %__first.addr = alloca i8**, align 8
  %__last.addr = alloca i8**, align 8
  %__result.addr = alloca i8**, align 8
  %__alloc.addr = alloca %"class.std::allocator.1"*, align 8
  store i8** %__first, i8*** %__first.addr, align 8
  call void @llvm.dbg.declare(metadata i8*** %__first.addr, metadata !2653, metadata !DIExpression()), !dbg !2654
  store i8** %__last, i8*** %__last.addr, align 8
  call void @llvm.dbg.declare(metadata i8*** %__last.addr, metadata !2655, metadata !DIExpression()), !dbg !2656
  store i8** %__result, i8*** %__result.addr, align 8
  call void @llvm.dbg.declare(metadata i8*** %__result.addr, metadata !2657, metadata !DIExpression()), !dbg !2658
  store %"class.std::allocator.1"* %__alloc, %"class.std::allocator.1"** %__alloc.addr, align 8
  call void @llvm.dbg.declare(metadata %"class.std::allocator.1"** %__alloc.addr, metadata !2659, metadata !DIExpression()), !dbg !2660
  %0 = load i8**, i8*** %__first.addr, align 8, !dbg !2661
  %call = call i8** @_ZSt12__niter_baseIPPKcET_S3_(i8** %0) #12, !dbg !2662
  %1 = load i8**, i8*** %__last.addr, align 8, !dbg !2663
  %call1 = call i8** @_ZSt12__niter_baseIPPKcET_S3_(i8** %1) #12, !dbg !2664
  %2 = load i8**, i8*** %__result.addr, align 8, !dbg !2665
  %call2 = call i8** @_ZSt12__niter_baseIPPKcET_S3_(i8** %2) #12, !dbg !2666
  %3 = load %"class.std::allocator.1"*, %"class.std::allocator.1"** %__alloc.addr, align 8, !dbg !2667
  %call3 = call i8** @_ZSt14__relocate_a_1IPKcS1_ENSt9enable_ifIXsr3std24__is_bitwise_relocatableIT_EE5valueEPS3_E4typeES4_S4_S4_RSaIT0_E(i8** %call, i8** %call1, i8** %call2, %"class.std::allocator.1"* dereferenceable(1) %3) #12, !dbg !2668
  ret i8** %call3, !dbg !2669
}

; Function Attrs: noinline nounwind uwtable
define linkonce_odr dso_local i8** @_ZSt14__relocate_a_1IPKcS1_ENSt9enable_ifIXsr3std24__is_bitwise_relocatableIT_EE5valueEPS3_E4typeES4_S4_S4_RSaIT0_E(i8** %__first, i8** %__last, i8** %__result, %"class.std::allocator.1"* dereferenceable(1) %0) #5 comdat !dbg !2670 {
entry:
  %__first.addr = alloca i8**, align 8
  %__last.addr = alloca i8**, align 8
  %__result.addr = alloca i8**, align 8
  %.addr = alloca %"class.std::allocator.1"*, align 8
  %__count = alloca i64, align 8
  store i8** %__first, i8*** %__first.addr, align 8
  call void @llvm.dbg.declare(metadata i8*** %__first.addr, metadata !2679, metadata !DIExpression()), !dbg !2680
  store i8** %__last, i8*** %__last.addr, align 8
  call void @llvm.dbg.declare(metadata i8*** %__last.addr, metadata !2681, metadata !DIExpression()), !dbg !2682
  store i8** %__result, i8*** %__result.addr, align 8
  call void @llvm.dbg.declare(metadata i8*** %__result.addr, metadata !2683, metadata !DIExpression()), !dbg !2684
  store %"class.std::allocator.1"* %0, %"class.std::allocator.1"** %.addr, align 8
  call void @llvm.dbg.declare(metadata %"class.std::allocator.1"** %.addr, metadata !2685, metadata !DIExpression()), !dbg !2686
  call void @llvm.dbg.declare(metadata i64* %__count, metadata !2687, metadata !DIExpression()), !dbg !2688
  %1 = load i8**, i8*** %__last.addr, align 8, !dbg !2689
  %2 = load i8**, i8*** %__first.addr, align 8, !dbg !2690
  %sub.ptr.lhs.cast = ptrtoint i8** %1 to i64, !dbg !2691
  %sub.ptr.rhs.cast = ptrtoint i8** %2 to i64, !dbg !2691
  %sub.ptr.sub = sub i64 %sub.ptr.lhs.cast, %sub.ptr.rhs.cast, !dbg !2691
  %sub.ptr.div = sdiv exact i64 %sub.ptr.sub, 8, !dbg !2691
  store i64 %sub.ptr.div, i64* %__count, align 8, !dbg !2688
  %3 = load i64, i64* %__count, align 8, !dbg !2692
  %cmp = icmp sgt i64 %3, 0, !dbg !2694
  br i1 %cmp, label %if.then, label %if.end, !dbg !2695

if.then:                                          ; preds = %entry
  %4 = load i8**, i8*** %__result.addr, align 8, !dbg !2696
  %5 = bitcast i8** %4 to i8*, !dbg !2697
  %6 = load i8**, i8*** %__first.addr, align 8, !dbg !2698
  %7 = bitcast i8** %6 to i8*, !dbg !2697
  %8 = load i64, i64* %__count, align 8, !dbg !2699
  %mul = mul i64 %8, 8, !dbg !2700
  call void @llvm.memmove.p0i8.p0i8.i64(i8* align 8 %5, i8* align 8 %7, i64 %mul, i1 false), !dbg !2697
  br label %if.end, !dbg !2697

if.end:                                           ; preds = %if.then, %entry
  %9 = load i8**, i8*** %__result.addr, align 8, !dbg !2701
  %10 = load i64, i64* %__count, align 8, !dbg !2702
  %add.ptr = getelementptr inbounds i8*, i8** %9, i64 %10, !dbg !2703
  ret i8** %add.ptr, !dbg !2704
}

; Function Attrs: noinline nounwind uwtable
define linkonce_odr dso_local i8** @_ZSt12__niter_baseIPPKcET_S3_(i8** %__it) #5 comdat !dbg !2705 {
entry:
  %__it.addr = alloca i8**, align 8
  store i8** %__it, i8*** %__it.addr, align 8
  call void @llvm.dbg.declare(metadata i8*** %__it.addr, metadata !2708, metadata !DIExpression()), !dbg !2709
  %0 = load i8**, i8*** %__it.addr, align 8, !dbg !2710
  ret i8** %0, !dbg !2711
}

; Function Attrs: argmemonly nounwind willreturn
declare void @llvm.memmove.p0i8.p0i8.i64(i8* nocapture, i8* nocapture readonly, i64, i1 immarg) #10

attributes #0 = { noinline uwtable "correctly-rounded-divide-sqrt-fp-math"="false" "disable-tail-calls"="false" "frame-pointer"="all" "less-precise-fpmad"="false" "min-legal-vector-width"="0" "no-infs-fp-math"="false" "no-jump-tables"="false" "no-nans-fp-math"="false" "no-signed-zeros-fp-math"="false" "no-trapping-math"="false" "stack-protector-buffer-size"="8" "target-cpu"="x86-64" "target-features"="+cx8,+fxsr,+mmx,+sse,+sse2,+x87" "unsafe-fp-math"="false" "use-soft-float"="false" }
attributes #1 = { nounwind readnone speculatable willreturn }
attributes #2 = { nounwind readonly "correctly-rounded-divide-sqrt-fp-math"="false" "disable-tail-calls"="false" "frame-pointer"="all" "less-precise-fpmad"="false" "no-infs-fp-math"="false" "no-nans-fp-math"="false" "no-signed-zeros-fp-math"="false" "no-trapping-math"="false" "stack-protector-buffer-size"="8" "target-cpu"="x86-64" "target-features"="+cx8,+fxsr,+mmx,+sse,+sse2,+x87" "unsafe-fp-math"="false" "use-soft-float"="false" }
attributes #3 = { nounwind "correctly-rounded-divide-sqrt-fp-math"="false" "disable-tail-calls"="false" "frame-pointer"="all" "less-precise-fpmad"="false" "no-infs-fp-math"="false" "no-nans-fp-math"="false" "no-signed-zeros-fp-math"="false" "no-trapping-math"="false" "stack-protector-buffer-size"="8" "target-cpu"="x86-64" "target-features"="+cx8,+fxsr,+mmx,+sse,+sse2,+x87" "unsafe-fp-math"="false" "use-soft-float"="false" }
attributes #4 = { "correctly-rounded-divide-sqrt-fp-math"="false" "disable-tail-calls"="false" "frame-pointer"="all" "less-precise-fpmad"="false" "no-infs-fp-math"="false" "no-nans-fp-math"="false" "no-signed-zeros-fp-math"="false" "no-trapping-math"="false" "stack-protector-buffer-size"="8" "target-cpu"="x86-64" "target-features"="+cx8,+fxsr,+mmx,+sse,+sse2,+x87" "unsafe-fp-math"="false" "use-soft-float"="false" }
attributes #5 = { noinline nounwind uwtable "correctly-rounded-divide-sqrt-fp-math"="false" "disable-tail-calls"="false" "frame-pointer"="all" "less-precise-fpmad"="false" "min-legal-vector-width"="0" "no-infs-fp-math"="false" "no-jump-tables"="false" "no-nans-fp-math"="false" "no-signed-zeros-fp-math"="false" "no-trapping-math"="false" "stack-protector-buffer-size"="8" "target-cpu"="x86-64" "target-features"="+cx8,+fxsr,+mmx,+sse,+sse2,+x87" "unsafe-fp-math"="false" "use-soft-float"="false" }
attributes #6 = { nobuiltin nounwind "correctly-rounded-divide-sqrt-fp-math"="false" "disable-tail-calls"="false" "frame-pointer"="all" "less-precise-fpmad"="false" "no-infs-fp-math"="false" "no-nans-fp-math"="false" "no-signed-zeros-fp-math"="false" "no-trapping-math"="false" "stack-protector-buffer-size"="8" "target-cpu"="x86-64" "target-features"="+cx8,+fxsr,+mmx,+sse,+sse2,+x87" "unsafe-fp-math"="false" "use-soft-float"="false" }
attributes #7 = { noinline noreturn nounwind }
attributes #8 = { noreturn "correctly-rounded-divide-sqrt-fp-math"="false" "disable-tail-calls"="false" "frame-pointer"="all" "less-precise-fpmad"="false" "no-infs-fp-math"="false" "no-nans-fp-math"="false" "no-signed-zeros-fp-math"="false" "no-trapping-math"="false" "stack-protector-buffer-size"="8" "target-cpu"="x86-64" "target-features"="+cx8,+fxsr,+mmx,+sse,+sse2,+x87" "unsafe-fp-math"="false" "use-soft-float"="false" }
attributes #9 = { nobuiltin "correctly-rounded-divide-sqrt-fp-math"="false" "disable-tail-calls"="false" "frame-pointer"="all" "less-precise-fpmad"="false" "no-infs-fp-math"="false" "no-nans-fp-math"="false" "no-signed-zeros-fp-math"="false" "no-trapping-math"="false" "stack-protector-buffer-size"="8" "target-cpu"="x86-64" "target-features"="+cx8,+fxsr,+mmx,+sse,+sse2,+x87" "unsafe-fp-math"="false" "use-soft-float"="false" }
attributes #10 = { argmemonly nounwind willreturn }
attributes #11 = { nounwind readonly }
attributes #12 = { nounwind }
attributes #13 = { noreturn }
attributes #14 = { noreturn nounwind }
attributes #15 = { builtin nounwind }

!llvm.dbg.cu = !{!2}
!llvm.module.flags = !{!1437, !1438, !1439}
!llvm.ident = !{!1440}

!0 = !DIGlobalVariableExpression(var: !1, expr: !DIExpression())
!1 = distinct !DIGlobalVariable(name: "unitTable", linkageName: "_ZN14UnitConversion9unitTableE", scope: !2, file: !3, line: 31, type: !1381, isLocal: false, isDefinition: true, declaration: !1386)
!2 = distinct !DICompileUnit(language: DW_LANG_C_plus_plus_14, file: !3, producer: "clang version 10.0.1 (https://github.com/svkeerthy/IR2Vec-LoopOptimizationFramework.git 561ac470e63b728263a0ac06ef987886ac648486)", isOptimized: false, runtimeVersion: 0, emissionKind: FullDebug, enums: !4, retainedTypes: !5, globals: !559, imports: !560, splitDebugInlining: false, nameTableKind: None)
!3 = !DIFile(filename: "simulator/unitconversion.cc", directory: "/home/venkat/IF-DV/spec_build_release/CPU_2017/benchspec/CPU/520.omnetpp_r/build/build_base_ld-loop-ext-m64.0000")
!4 = !{}
!5 = !{!6, !12, !13, !15, !18, !87, !43, !556}
!6 = !DIDerivedType(tag: DW_TAG_typedef, name: "string", scope: !8, file: !7, line: 79, baseType: !9)
!7 = !DIFile(filename: "/usr/lib/gcc/x86_64-linux-gnu/10/../../../../include/c++/10/bits/stringfwd.h", directory: "")
!8 = !DINamespace(name: "std", scope: null)
!9 = !DICompositeType(tag: DW_TAG_class_type, name: "basic_string<char, std::char_traits<char>, std::allocator<char> >", scope: !11, file: !10, line: 1618, flags: DIFlagFwdDecl, identifier: "_ZTSNSt7__cxx1112basic_stringIcSt11char_traitsIcESaIcEEE")
!10 = !DIFile(filename: "/usr/lib/gcc/x86_64-linux-gnu/10/../../../../include/c++/10/bits/basic_string.tcc", directory: "")
!11 = !DINamespace(name: "__cxx11", scope: !8, exportSymbols: true)
!12 = !DIDerivedType(tag: DW_TAG_pointer_type, baseType: null, size: 64)
!13 = !DIDerivedType(tag: DW_TAG_typedef, name: "size_type", file: !14, line: 424, baseType: !15)
!14 = !DIFile(filename: "/usr/lib/gcc/x86_64-linux-gnu/10/../../../../include/c++/10/bits/stl_vector.h", directory: "")
!15 = !DIDerivedType(tag: DW_TAG_typedef, name: "size_t", scope: !8, file: !16, line: 260, baseType: !17)
!16 = !DIFile(filename: "/usr/lib/gcc/x86_64-linux-gnu/10/../../../../include/x86_64-linux-gnu/c++/10/bits/c++config.h", directory: "")
!17 = !DIBasicType(name: "long unsigned int", size: 64, encoding: DW_ATE_unsigned)
!18 = !DIDerivedType(tag: DW_TAG_typedef, name: "iterator", scope: !19, file: !14, line: 419, baseType: !498)
!19 = distinct !DICompositeType(tag: DW_TAG_class_type, name: "vector<const char *, std::allocator<const char *> >", scope: !8, file: !14, line: 389, size: 192, flags: DIFlagTypePassByReference | DIFlagNonTrivial, elements: !20, templateParams: !242, identifier: "_ZTSSt6vectorIPKcSaIS1_EE")
!20 = !{!21, !243, !262, !278, !279, !285, !288, !291, !295, !301, !304, !310, !315, !319, !322, !325, !328, !331, !336, !337, !341, !344, !347, !350, !353, !356, !363, !364, !365, !370, !375, !376, !377, !378, !379, !380, !381, !384, !385, !388, !389, !390, !391, !394, !395, !403, !410, !413, !414, !415, !418, !421, !422, !423, !426, !429, !432, !436, !437, !440, !443, !446, !449, !452, !455, !458, !459, !460, !461, !462, !465, !466, !469, !470, !471, !475, !478, !483, !486, !489, !492, !495}
!21 = !DIDerivedType(tag: DW_TAG_inheritance, scope: !19, baseType: !22, flags: DIFlagProtected, extraData: i32 0)
!22 = distinct !DICompositeType(tag: DW_TAG_structure_type, name: "_Vector_base<const char *, std::allocator<const char *> >", scope: !8, file: !14, line: 84, size: 192, flags: DIFlagTypePassByReference | DIFlagNonTrivial, elements: !23, templateParams: !242, identifier: "_ZTSSt12_Vector_baseIPKcSaIS1_EE")
!23 = !{!24, !193, !198, !203, !207, !210, !215, !218, !221, !225, !228, !231, !234, !235, !238, !241}
!24 = !DIDerivedType(tag: DW_TAG_member, name: "_M_impl", scope: !22, file: !14, line: 340, baseType: !25, size: 192)
!25 = distinct !DICompositeType(tag: DW_TAG_structure_type, name: "_Vector_impl", scope: !22, file: !14, line: 128, size: 192, flags: DIFlagTypePassByReference | DIFlagNonTrivial, elements: !26, identifier: "_ZTSNSt12_Vector_baseIPKcSaIS1_EE12_Vector_implE")
!26 = !{!27, !148, !173, !177, !182, !186, !190}
!27 = !DIDerivedType(tag: DW_TAG_inheritance, scope: !25, baseType: !28, extraData: i32 0)
!28 = !DIDerivedType(tag: DW_TAG_typedef, name: "_Tp_alloc_type", scope: !22, file: !14, line: 87, baseType: !29)
!29 = !DIDerivedType(tag: DW_TAG_typedef, name: "other", scope: !31, file: !30, line: 120, baseType: !147)
!30 = !DIFile(filename: "/usr/lib/gcc/x86_64-linux-gnu/10/../../../../include/c++/10/ext/alloc_traits.h", directory: "")
!31 = distinct !DICompositeType(tag: DW_TAG_structure_type, name: "rebind<const char *>", scope: !32, file: !30, line: 119, size: 8, flags: DIFlagTypePassByValue, elements: !4, templateParams: !96, identifier: "_ZTSN9__gnu_cxx14__alloc_traitsISaIPKcES2_E6rebindIS2_EE")
!32 = distinct !DICompositeType(tag: DW_TAG_structure_type, name: "__alloc_traits<std::allocator<const char *>, const char *>", scope: !33, file: !30, line: 48, size: 8, flags: DIFlagTypePassByValue, elements: !34, templateParams: !145, identifier: "_ZTSN9__gnu_cxx14__alloc_traitsISaIPKcES2_EE")
!33 = !DINamespace(name: "__gnu_cxx", scope: null)
!34 = !{!35, !131, !134, !137, !141, !142, !143, !144}
!35 = !DIDerivedType(tag: DW_TAG_inheritance, scope: !32, baseType: !36, extraData: i32 0)
!36 = distinct !DICompositeType(tag: DW_TAG_structure_type, name: "allocator_traits<std::allocator<const char *> >", scope: !8, file: !37, line: 407, size: 8, flags: DIFlagTypePassByValue, elements: !38, templateParams: !129, identifier: "_ZTSSt16allocator_traitsISaIPKcEE")
!37 = !DIFile(filename: "/usr/lib/gcc/x86_64-linux-gnu/10/../../../../include/c++/10/bits/alloc_traits.h", directory: "")
!38 = !{!39, !113, !117, !120, !126}
!39 = !DISubprogram(name: "allocate", linkageName: "_ZNSt16allocator_traitsISaIPKcEE8allocateERS2_m", scope: !36, file: !37, line: 459, type: !40, scopeLine: 459, flags: DIFlagPrototyped | DIFlagStaticMember, spFlags: 0)
!40 = !DISubroutineType(types: !41)
!41 = !{!42, !47, !112}
!42 = !DIDerivedType(tag: DW_TAG_typedef, name: "pointer", scope: !36, file: !37, line: 416, baseType: !43)
!43 = !DIDerivedType(tag: DW_TAG_pointer_type, baseType: !44, size: 64)
!44 = !DIDerivedType(tag: DW_TAG_pointer_type, baseType: !45, size: 64)
!45 = !DIDerivedType(tag: DW_TAG_const_type, baseType: !46)
!46 = !DIBasicType(name: "char", size: 8, encoding: DW_ATE_signed_char)
!47 = !DIDerivedType(tag: DW_TAG_reference_type, baseType: !48, size: 64)
!48 = !DIDerivedType(tag: DW_TAG_typedef, name: "allocator_type", scope: !36, file: !37, line: 410, baseType: !49)
!49 = distinct !DICompositeType(tag: DW_TAG_class_type, name: "allocator<const char *>", scope: !8, file: !50, line: 116, size: 8, flags: DIFlagTypePassByReference | DIFlagNonTrivial, elements: !51, templateParams: !96, identifier: "_ZTSSaIPKcE")
!50 = !DIFile(filename: "/usr/lib/gcc/x86_64-linux-gnu/10/../../../../include/c++/10/bits/allocator.h", directory: "")
!51 = !{!52, !98, !102, !107, !111}
!52 = !DIDerivedType(tag: DW_TAG_inheritance, scope: !49, baseType: !53, flags: DIFlagPublic, extraData: i32 0)
!53 = !DIDerivedType(tag: DW_TAG_typedef, name: "__allocator_base<const char *>", scope: !8, file: !54, line: 48, baseType: !55)
!54 = !DIFile(filename: "/usr/lib/gcc/x86_64-linux-gnu/10/../../../../include/x86_64-linux-gnu/c++/10/bits/c++allocator.h", directory: "")
!55 = distinct !DICompositeType(tag: DW_TAG_class_type, name: "new_allocator<const char *>", scope: !33, file: !56, line: 55, size: 8, flags: DIFlagTypePassByReference | DIFlagNonTrivial, elements: !57, templateParams: !96, identifier: "_ZTSN9__gnu_cxx13new_allocatorIPKcEE")
!56 = !DIFile(filename: "/usr/lib/gcc/x86_64-linux-gnu/10/../../../../include/c++/10/ext/new_allocator.h", directory: "")
!57 = !{!58, !62, !67, !68, !75, !83, !89, !92, !95}
!58 = !DISubprogram(name: "new_allocator", scope: !55, file: !56, line: 79, type: !59, scopeLine: 79, flags: DIFlagPublic | DIFlagPrototyped, spFlags: 0)
!59 = !DISubroutineType(types: !60)
!60 = !{null, !61}
!61 = !DIDerivedType(tag: DW_TAG_pointer_type, baseType: !55, size: 64, flags: DIFlagArtificial | DIFlagObjectPointer)
!62 = !DISubprogram(name: "new_allocator", scope: !55, file: !56, line: 82, type: !63, scopeLine: 82, flags: DIFlagPublic | DIFlagPrototyped, spFlags: 0)
!63 = !DISubroutineType(types: !64)
!64 = !{null, !61, !65}
!65 = !DIDerivedType(tag: DW_TAG_reference_type, baseType: !66, size: 64)
!66 = !DIDerivedType(tag: DW_TAG_const_type, baseType: !55)
!67 = !DISubprogram(name: "~new_allocator", scope: !55, file: !56, line: 89, type: !59, scopeLine: 89, flags: DIFlagPublic | DIFlagPrototyped, spFlags: 0)
!68 = !DISubprogram(name: "address", linkageName: "_ZNK9__gnu_cxx13new_allocatorIPKcE7addressERS2_", scope: !55, file: !56, line: 92, type: !69, scopeLine: 92, flags: DIFlagPublic | DIFlagPrototyped, spFlags: 0)
!69 = !DISubroutineType(types: !70)
!70 = !{!71, !72, !73}
!71 = !DIDerivedType(tag: DW_TAG_typedef, name: "pointer", scope: !55, file: !56, line: 62, baseType: !43)
!72 = !DIDerivedType(tag: DW_TAG_pointer_type, baseType: !66, size: 64, flags: DIFlagArtificial | DIFlagObjectPointer)
!73 = !DIDerivedType(tag: DW_TAG_typedef, name: "reference", scope: !55, file: !56, line: 64, baseType: !74)
!74 = !DIDerivedType(tag: DW_TAG_reference_type, baseType: !44, size: 64)
!75 = !DISubprogram(name: "address", linkageName: "_ZNK9__gnu_cxx13new_allocatorIPKcE7addressERKS2_", scope: !55, file: !56, line: 96, type: !76, scopeLine: 96, flags: DIFlagPublic | DIFlagPrototyped, spFlags: 0)
!76 = !DISubroutineType(types: !77)
!77 = !{!78, !72, !81}
!78 = !DIDerivedType(tag: DW_TAG_typedef, name: "const_pointer", scope: !55, file: !56, line: 63, baseType: !79)
!79 = !DIDerivedType(tag: DW_TAG_pointer_type, baseType: !80, size: 64)
!80 = !DIDerivedType(tag: DW_TAG_const_type, baseType: !44)
!81 = !DIDerivedType(tag: DW_TAG_typedef, name: "const_reference", scope: !55, file: !56, line: 65, baseType: !82)
!82 = !DIDerivedType(tag: DW_TAG_reference_type, baseType: !80, size: 64)
!83 = !DISubprogram(name: "allocate", linkageName: "_ZN9__gnu_cxx13new_allocatorIPKcE8allocateEmPKv", scope: !55, file: !56, line: 103, type: !84, scopeLine: 103, flags: DIFlagPublic | DIFlagPrototyped, spFlags: 0)
!84 = !DISubroutineType(types: !85)
!85 = !{!43, !61, !86, !87}
!86 = !DIDerivedType(tag: DW_TAG_typedef, name: "size_type", file: !56, line: 59, baseType: !15)
!87 = !DIDerivedType(tag: DW_TAG_pointer_type, baseType: !88, size: 64)
!88 = !DIDerivedType(tag: DW_TAG_const_type, baseType: null)
!89 = !DISubprogram(name: "deallocate", linkageName: "_ZN9__gnu_cxx13new_allocatorIPKcE10deallocateEPS2_m", scope: !55, file: !56, line: 120, type: !90, scopeLine: 120, flags: DIFlagPublic | DIFlagPrototyped, spFlags: 0)
!90 = !DISubroutineType(types: !91)
!91 = !{null, !61, !43, !86}
!92 = !DISubprogram(name: "max_size", linkageName: "_ZNK9__gnu_cxx13new_allocatorIPKcE8max_sizeEv", scope: !55, file: !56, line: 142, type: !93, scopeLine: 142, flags: DIFlagPublic | DIFlagPrototyped, spFlags: 0)
!93 = !DISubroutineType(types: !94)
!94 = !{!86, !72}
!95 = !DISubprogram(name: "_M_max_size", linkageName: "_ZNK9__gnu_cxx13new_allocatorIPKcE11_M_max_sizeEv", scope: !55, file: !56, line: 185, type: !93, scopeLine: 185, flags: DIFlagPrototyped, spFlags: 0)
!96 = !{!97}
!97 = !DITemplateTypeParameter(name: "_Tp", type: !44)
!98 = !DISubprogram(name: "allocator", scope: !49, file: !50, line: 144, type: !99, scopeLine: 144, flags: DIFlagPublic | DIFlagPrototyped, spFlags: 0)
!99 = !DISubroutineType(types: !100)
!100 = !{null, !101}
!101 = !DIDerivedType(tag: DW_TAG_pointer_type, baseType: !49, size: 64, flags: DIFlagArtificial | DIFlagObjectPointer)
!102 = !DISubprogram(name: "allocator", scope: !49, file: !50, line: 147, type: !103, scopeLine: 147, flags: DIFlagPublic | DIFlagPrototyped, spFlags: 0)
!103 = !DISubroutineType(types: !104)
!104 = !{null, !101, !105}
!105 = !DIDerivedType(tag: DW_TAG_reference_type, baseType: !106, size: 64)
!106 = !DIDerivedType(tag: DW_TAG_const_type, baseType: !49)
!107 = !DISubprogram(name: "operator=", linkageName: "_ZNSaIPKcEaSERKS1_", scope: !49, file: !50, line: 152, type: !108, scopeLine: 152, flags: DIFlagPublic | DIFlagPrototyped, spFlags: 0)
!108 = !DISubroutineType(types: !109)
!109 = !{!110, !101, !105}
!110 = !DIDerivedType(tag: DW_TAG_reference_type, baseType: !49, size: 64)
!111 = !DISubprogram(name: "~allocator", scope: !49, file: !50, line: 162, type: !99, scopeLine: 162, flags: DIFlagPublic | DIFlagPrototyped, spFlags: 0)
!112 = !DIDerivedType(tag: DW_TAG_typedef, name: "size_type", file: !37, line: 431, baseType: !15)
!113 = !DISubprogram(name: "allocate", linkageName: "_ZNSt16allocator_traitsISaIPKcEE8allocateERS2_mPKv", scope: !36, file: !37, line: 473, type: !114, scopeLine: 473, flags: DIFlagPrototyped | DIFlagStaticMember, spFlags: 0)
!114 = !DISubroutineType(types: !115)
!115 = !{!42, !47, !112, !116}
!116 = !DIDerivedType(tag: DW_TAG_typedef, name: "const_void_pointer", file: !37, line: 425, baseType: !87)
!117 = !DISubprogram(name: "deallocate", linkageName: "_ZNSt16allocator_traitsISaIPKcEE10deallocateERS2_PS1_m", scope: !36, file: !37, line: 491, type: !118, scopeLine: 491, flags: DIFlagPrototyped | DIFlagStaticMember, spFlags: 0)
!118 = !DISubroutineType(types: !119)
!119 = !{null, !47, !42, !112}
!120 = !DISubprogram(name: "max_size", linkageName: "_ZNSt16allocator_traitsISaIPKcEE8max_sizeERKS2_", scope: !36, file: !37, line: 543, type: !121, scopeLine: 543, flags: DIFlagPrototyped | DIFlagStaticMember, spFlags: 0)
!121 = !DISubroutineType(types: !122)
!122 = !{!123, !124}
!123 = !DIDerivedType(tag: DW_TAG_typedef, name: "size_type", scope: !36, file: !37, line: 431, baseType: !15)
!124 = !DIDerivedType(tag: DW_TAG_reference_type, baseType: !125, size: 64)
!125 = !DIDerivedType(tag: DW_TAG_const_type, baseType: !48)
!126 = !DISubprogram(name: "select_on_container_copy_construction", linkageName: "_ZNSt16allocator_traitsISaIPKcEE37select_on_container_copy_constructionERKS2_", scope: !36, file: !37, line: 558, type: !127, scopeLine: 558, flags: DIFlagPrototyped | DIFlagStaticMember, spFlags: 0)
!127 = !DISubroutineType(types: !128)
!128 = !{!48, !124}
!129 = !{!130}
!130 = !DITemplateTypeParameter(name: "_Alloc", type: !49)
!131 = !DISubprogram(name: "_S_select_on_copy", linkageName: "_ZN9__gnu_cxx14__alloc_traitsISaIPKcES2_E17_S_select_on_copyERKS3_", scope: !32, file: !30, line: 97, type: !132, scopeLine: 97, flags: DIFlagPrototyped | DIFlagStaticMember, spFlags: 0)
!132 = !DISubroutineType(types: !133)
!133 = !{!49, !105}
!134 = !DISubprogram(name: "_S_on_swap", linkageName: "_ZN9__gnu_cxx14__alloc_traitsISaIPKcES2_E10_S_on_swapERS3_S5_", scope: !32, file: !30, line: 100, type: !135, scopeLine: 100, flags: DIFlagPrototyped | DIFlagStaticMember, spFlags: 0)
!135 = !DISubroutineType(types: !136)
!136 = !{null, !110, !110}
!137 = !DISubprogram(name: "_S_propagate_on_copy_assign", linkageName: "_ZN9__gnu_cxx14__alloc_traitsISaIPKcES2_E27_S_propagate_on_copy_assignEv", scope: !32, file: !30, line: 103, type: !138, scopeLine: 103, flags: DIFlagPrototyped | DIFlagStaticMember, spFlags: 0)
!138 = !DISubroutineType(types: !139)
!139 = !{!140}
!140 = !DIBasicType(name: "bool", size: 8, encoding: DW_ATE_boolean)
!141 = !DISubprogram(name: "_S_propagate_on_move_assign", linkageName: "_ZN9__gnu_cxx14__alloc_traitsISaIPKcES2_E27_S_propagate_on_move_assignEv", scope: !32, file: !30, line: 106, type: !138, scopeLine: 106, flags: DIFlagPrototyped | DIFlagStaticMember, spFlags: 0)
!142 = !DISubprogram(name: "_S_propagate_on_swap", linkageName: "_ZN9__gnu_cxx14__alloc_traitsISaIPKcES2_E20_S_propagate_on_swapEv", scope: !32, file: !30, line: 109, type: !138, scopeLine: 109, flags: DIFlagPrototyped | DIFlagStaticMember, spFlags: 0)
!143 = !DISubprogram(name: "_S_always_equal", linkageName: "_ZN9__gnu_cxx14__alloc_traitsISaIPKcES2_E15_S_always_equalEv", scope: !32, file: !30, line: 112, type: !138, scopeLine: 112, flags: DIFlagPrototyped | DIFlagStaticMember, spFlags: 0)
!144 = !DISubprogram(name: "_S_nothrow_move", linkageName: "_ZN9__gnu_cxx14__alloc_traitsISaIPKcES2_E15_S_nothrow_moveEv", scope: !32, file: !30, line: 115, type: !138, scopeLine: 115, flags: DIFlagPrototyped | DIFlagStaticMember, spFlags: 0)
!145 = !{!130, !146}
!146 = !DITemplateTypeParameter(type: !44)
!147 = !DIDerivedType(tag: DW_TAG_typedef, name: "rebind_alloc<const char *>", scope: !36, file: !37, line: 446, baseType: !49)
!148 = !DIDerivedType(tag: DW_TAG_inheritance, scope: !25, baseType: !149, extraData: i32 0)
!149 = distinct !DICompositeType(tag: DW_TAG_structure_type, name: "_Vector_impl_data", scope: !22, file: !14, line: 91, size: 192, flags: DIFlagTypePassByReference | DIFlagNonTrivial, elements: !150, identifier: "_ZTSNSt12_Vector_baseIPKcSaIS1_EE17_Vector_impl_dataE")
!150 = !{!151, !154, !155, !156, !160, !164, !169}
!151 = !DIDerivedType(tag: DW_TAG_member, name: "_M_start", scope: !149, file: !14, line: 93, baseType: !152, size: 64)
!152 = !DIDerivedType(tag: DW_TAG_typedef, name: "pointer", scope: !22, file: !14, line: 89, baseType: !153)
!153 = !DIDerivedType(tag: DW_TAG_typedef, name: "pointer", scope: !32, file: !30, line: 57, baseType: !42)
!154 = !DIDerivedType(tag: DW_TAG_member, name: "_M_finish", scope: !149, file: !14, line: 94, baseType: !152, size: 64, offset: 64)
!155 = !DIDerivedType(tag: DW_TAG_member, name: "_M_end_of_storage", scope: !149, file: !14, line: 95, baseType: !152, size: 64, offset: 128)
!156 = !DISubprogram(name: "_Vector_impl_data", scope: !149, file: !14, line: 97, type: !157, scopeLine: 97, flags: DIFlagPrototyped, spFlags: 0)
!157 = !DISubroutineType(types: !158)
!158 = !{null, !159}
!159 = !DIDerivedType(tag: DW_TAG_pointer_type, baseType: !149, size: 64, flags: DIFlagArtificial | DIFlagObjectPointer)
!160 = !DISubprogram(name: "_Vector_impl_data", scope: !149, file: !14, line: 102, type: !161, scopeLine: 102, flags: DIFlagPrototyped, spFlags: 0)
!161 = !DISubroutineType(types: !162)
!162 = !{null, !159, !163}
!163 = !DIDerivedType(tag: DW_TAG_rvalue_reference_type, baseType: !149, size: 64)
!164 = !DISubprogram(name: "_M_copy_data", linkageName: "_ZNSt12_Vector_baseIPKcSaIS1_EE17_Vector_impl_data12_M_copy_dataERKS4_", scope: !149, file: !14, line: 109, type: !165, scopeLine: 109, flags: DIFlagPrototyped, spFlags: 0)
!165 = !DISubroutineType(types: !166)
!166 = !{null, !159, !167}
!167 = !DIDerivedType(tag: DW_TAG_reference_type, baseType: !168, size: 64)
!168 = !DIDerivedType(tag: DW_TAG_const_type, baseType: !149)
!169 = !DISubprogram(name: "_M_swap_data", linkageName: "_ZNSt12_Vector_baseIPKcSaIS1_EE17_Vector_impl_data12_M_swap_dataERS4_", scope: !149, file: !14, line: 117, type: !170, scopeLine: 117, flags: DIFlagPrototyped, spFlags: 0)
!170 = !DISubroutineType(types: !171)
!171 = !{null, !159, !172}
!172 = !DIDerivedType(tag: DW_TAG_reference_type, baseType: !149, size: 64)
!173 = !DISubprogram(name: "_Vector_impl", scope: !25, file: !14, line: 131, type: !174, scopeLine: 131, flags: DIFlagPrototyped, spFlags: 0)
!174 = !DISubroutineType(types: !175)
!175 = !{null, !176}
!176 = !DIDerivedType(tag: DW_TAG_pointer_type, baseType: !25, size: 64, flags: DIFlagArtificial | DIFlagObjectPointer)
!177 = !DISubprogram(name: "_Vector_impl", scope: !25, file: !14, line: 136, type: !178, scopeLine: 136, flags: DIFlagPrototyped, spFlags: 0)
!178 = !DISubroutineType(types: !179)
!179 = !{null, !176, !180}
!180 = !DIDerivedType(tag: DW_TAG_reference_type, baseType: !181, size: 64)
!181 = !DIDerivedType(tag: DW_TAG_const_type, baseType: !28)
!182 = !DISubprogram(name: "_Vector_impl", scope: !25, file: !14, line: 143, type: !183, scopeLine: 143, flags: DIFlagPrototyped, spFlags: 0)
!183 = !DISubroutineType(types: !184)
!184 = !{null, !176, !185}
!185 = !DIDerivedType(tag: DW_TAG_rvalue_reference_type, baseType: !25, size: 64)
!186 = !DISubprogram(name: "_Vector_impl", scope: !25, file: !14, line: 147, type: !187, scopeLine: 147, flags: DIFlagPrototyped, spFlags: 0)
!187 = !DISubroutineType(types: !188)
!188 = !{null, !176, !189}
!189 = !DIDerivedType(tag: DW_TAG_rvalue_reference_type, baseType: !28, size: 64)
!190 = !DISubprogram(name: "_Vector_impl", scope: !25, file: !14, line: 151, type: !191, scopeLine: 151, flags: DIFlagPrototyped, spFlags: 0)
!191 = !DISubroutineType(types: !192)
!192 = !{null, !176, !189, !185}
!193 = !DISubprogram(name: "_M_get_Tp_allocator", linkageName: "_ZNSt12_Vector_baseIPKcSaIS1_EE19_M_get_Tp_allocatorEv", scope: !22, file: !14, line: 276, type: !194, scopeLine: 276, flags: DIFlagPrototyped, spFlags: 0)
!194 = !DISubroutineType(types: !195)
!195 = !{!196, !197}
!196 = !DIDerivedType(tag: DW_TAG_reference_type, baseType: !28, size: 64)
!197 = !DIDerivedType(tag: DW_TAG_pointer_type, baseType: !22, size: 64, flags: DIFlagArtificial | DIFlagObjectPointer)
!198 = !DISubprogram(name: "_M_get_Tp_allocator", linkageName: "_ZNKSt12_Vector_baseIPKcSaIS1_EE19_M_get_Tp_allocatorEv", scope: !22, file: !14, line: 280, type: !199, scopeLine: 280, flags: DIFlagPrototyped, spFlags: 0)
!199 = !DISubroutineType(types: !200)
!200 = !{!180, !201}
!201 = !DIDerivedType(tag: DW_TAG_pointer_type, baseType: !202, size: 64, flags: DIFlagArtificial | DIFlagObjectPointer)
!202 = !DIDerivedType(tag: DW_TAG_const_type, baseType: !22)
!203 = !DISubprogram(name: "get_allocator", linkageName: "_ZNKSt12_Vector_baseIPKcSaIS1_EE13get_allocatorEv", scope: !22, file: !14, line: 284, type: !204, scopeLine: 284, flags: DIFlagPrototyped, spFlags: 0)
!204 = !DISubroutineType(types: !205)
!205 = !{!206, !201}
!206 = !DIDerivedType(tag: DW_TAG_typedef, name: "allocator_type", scope: !22, file: !14, line: 273, baseType: !49)
!207 = !DISubprogram(name: "_Vector_base", scope: !22, file: !14, line: 288, type: !208, scopeLine: 288, flags: DIFlagPrototyped, spFlags: 0)
!208 = !DISubroutineType(types: !209)
!209 = !{null, !197}
!210 = !DISubprogram(name: "_Vector_base", scope: !22, file: !14, line: 293, type: !211, scopeLine: 293, flags: DIFlagPrototyped, spFlags: 0)
!211 = !DISubroutineType(types: !212)
!212 = !{null, !197, !213}
!213 = !DIDerivedType(tag: DW_TAG_reference_type, baseType: !214, size: 64)
!214 = !DIDerivedType(tag: DW_TAG_const_type, baseType: !206)
!215 = !DISubprogram(name: "_Vector_base", scope: !22, file: !14, line: 298, type: !216, scopeLine: 298, flags: DIFlagPrototyped, spFlags: 0)
!216 = !DISubroutineType(types: !217)
!217 = !{null, !197, !15}
!218 = !DISubprogram(name: "_Vector_base", scope: !22, file: !14, line: 303, type: !219, scopeLine: 303, flags: DIFlagPrototyped, spFlags: 0)
!219 = !DISubroutineType(types: !220)
!220 = !{null, !197, !15, !213}
!221 = !DISubprogram(name: "_Vector_base", scope: !22, file: !14, line: 308, type: !222, scopeLine: 308, flags: DIFlagPrototyped, spFlags: 0)
!222 = !DISubroutineType(types: !223)
!223 = !{null, !197, !224}
!224 = !DIDerivedType(tag: DW_TAG_rvalue_reference_type, baseType: !22, size: 64)
!225 = !DISubprogram(name: "_Vector_base", scope: !22, file: !14, line: 312, type: !226, scopeLine: 312, flags: DIFlagPrototyped, spFlags: 0)
!226 = !DISubroutineType(types: !227)
!227 = !{null, !197, !189}
!228 = !DISubprogram(name: "_Vector_base", scope: !22, file: !14, line: 315, type: !229, scopeLine: 315, flags: DIFlagPrototyped, spFlags: 0)
!229 = !DISubroutineType(types: !230)
!230 = !{null, !197, !224, !213}
!231 = !DISubprogram(name: "_Vector_base", scope: !22, file: !14, line: 328, type: !232, scopeLine: 328, flags: DIFlagPrototyped, spFlags: 0)
!232 = !DISubroutineType(types: !233)
!233 = !{null, !197, !213, !224}
!234 = !DISubprogram(name: "~_Vector_base", scope: !22, file: !14, line: 333, type: !208, scopeLine: 333, flags: DIFlagPrototyped, spFlags: 0)
!235 = !DISubprogram(name: "_M_allocate", linkageName: "_ZNSt12_Vector_baseIPKcSaIS1_EE11_M_allocateEm", scope: !22, file: !14, line: 343, type: !236, scopeLine: 343, flags: DIFlagPrototyped, spFlags: 0)
!236 = !DISubroutineType(types: !237)
!237 = !{!152, !197, !15}
!238 = !DISubprogram(name: "_M_deallocate", linkageName: "_ZNSt12_Vector_baseIPKcSaIS1_EE13_M_deallocateEPS1_m", scope: !22, file: !14, line: 350, type: !239, scopeLine: 350, flags: DIFlagPrototyped, spFlags: 0)
!239 = !DISubroutineType(types: !240)
!240 = !{null, !197, !152, !15}
!241 = !DISubprogram(name: "_M_create_storage", linkageName: "_ZNSt12_Vector_baseIPKcSaIS1_EE17_M_create_storageEm", scope: !22, file: !14, line: 359, type: !216, scopeLine: 359, flags: DIFlagProtected | DIFlagPrototyped, spFlags: 0)
!242 = !{!97, !130}
!243 = !DISubprogram(name: "_S_nothrow_relocate", linkageName: "_ZNSt6vectorIPKcSaIS1_EE19_S_nothrow_relocateESt17integral_constantIbLb1EE", scope: !19, file: !14, line: 431, type: !244, scopeLine: 431, flags: DIFlagPrototyped | DIFlagStaticMember, spFlags: 0)
!244 = !DISubroutineType(types: !245)
!245 = !{!140, !246}
!246 = !DIDerivedType(tag: DW_TAG_typedef, name: "true_type", scope: !8, file: !247, line: 75, baseType: !248)
!247 = !DIFile(filename: "/usr/lib/gcc/x86_64-linux-gnu/10/../../../../include/c++/10/type_traits", directory: "")
!248 = distinct !DICompositeType(tag: DW_TAG_structure_type, name: "integral_constant<bool, true>", scope: !8, file: !247, line: 57, size: 8, flags: DIFlagTypePassByValue, elements: !249, templateParams: !259, identifier: "_ZTSSt17integral_constantIbLb1EE")
!249 = !{!250, !252, !258}
!250 = !DIDerivedType(tag: DW_TAG_member, name: "value", scope: !248, file: !247, line: 59, baseType: !251, flags: DIFlagStaticMember, extraData: i1 true)
!251 = !DIDerivedType(tag: DW_TAG_const_type, baseType: !140)
!252 = !DISubprogram(name: "operator bool", linkageName: "_ZNKSt17integral_constantIbLb1EEcvbEv", scope: !248, file: !247, line: 62, type: !253, scopeLine: 62, flags: DIFlagPrototyped, spFlags: 0)
!253 = !DISubroutineType(types: !254)
!254 = !{!255, !256}
!255 = !DIDerivedType(tag: DW_TAG_typedef, name: "value_type", scope: !248, file: !247, line: 60, baseType: !140)
!256 = !DIDerivedType(tag: DW_TAG_pointer_type, baseType: !257, size: 64, flags: DIFlagArtificial | DIFlagObjectPointer)
!257 = !DIDerivedType(tag: DW_TAG_const_type, baseType: !248)
!258 = !DISubprogram(name: "operator()", linkageName: "_ZNKSt17integral_constantIbLb1EEclEv", scope: !248, file: !247, line: 67, type: !253, scopeLine: 67, flags: DIFlagPrototyped, spFlags: 0)
!259 = !{!260, !261}
!260 = !DITemplateTypeParameter(name: "_Tp", type: !140)
!261 = !DITemplateValueParameter(name: "__v", type: !140, value: i8 1)
!262 = !DISubprogram(name: "_S_nothrow_relocate", linkageName: "_ZNSt6vectorIPKcSaIS1_EE19_S_nothrow_relocateESt17integral_constantIbLb0EE", scope: !19, file: !14, line: 440, type: !263, scopeLine: 440, flags: DIFlagPrototyped | DIFlagStaticMember, spFlags: 0)
!263 = !DISubroutineType(types: !264)
!264 = !{!140, !265}
!265 = !DIDerivedType(tag: DW_TAG_typedef, name: "false_type", scope: !8, file: !247, line: 78, baseType: !266)
!266 = distinct !DICompositeType(tag: DW_TAG_structure_type, name: "integral_constant<bool, false>", scope: !8, file: !247, line: 57, size: 8, flags: DIFlagTypePassByValue, elements: !267, templateParams: !276, identifier: "_ZTSSt17integral_constantIbLb0EE")
!267 = !{!268, !269, !275}
!268 = !DIDerivedType(tag: DW_TAG_member, name: "value", scope: !266, file: !247, line: 59, baseType: !251, flags: DIFlagStaticMember, extraData: i1 false)
!269 = !DISubprogram(name: "operator bool", linkageName: "_ZNKSt17integral_constantIbLb0EEcvbEv", scope: !266, file: !247, line: 62, type: !270, scopeLine: 62, flags: DIFlagPrototyped, spFlags: 0)
!270 = !DISubroutineType(types: !271)
!271 = !{!272, !273}
!272 = !DIDerivedType(tag: DW_TAG_typedef, name: "value_type", scope: !266, file: !247, line: 60, baseType: !140)
!273 = !DIDerivedType(tag: DW_TAG_pointer_type, baseType: !274, size: 64, flags: DIFlagArtificial | DIFlagObjectPointer)
!274 = !DIDerivedType(tag: DW_TAG_const_type, baseType: !266)
!275 = !DISubprogram(name: "operator()", linkageName: "_ZNKSt17integral_constantIbLb0EEclEv", scope: !266, file: !247, line: 67, type: !270, scopeLine: 67, flags: DIFlagPrototyped, spFlags: 0)
!276 = !{!260, !277}
!277 = !DITemplateValueParameter(name: "__v", type: !140, value: i8 0)
!278 = !DISubprogram(name: "_S_use_relocate", linkageName: "_ZNSt6vectorIPKcSaIS1_EE15_S_use_relocateEv", scope: !19, file: !14, line: 444, type: !138, scopeLine: 444, flags: DIFlagPrototyped | DIFlagStaticMember, spFlags: 0)
!279 = !DISubprogram(name: "_S_do_relocate", linkageName: "_ZNSt6vectorIPKcSaIS1_EE14_S_do_relocateEPS1_S4_S4_RS2_St17integral_constantIbLb1EE", scope: !19, file: !14, line: 453, type: !280, scopeLine: 453, flags: DIFlagPrototyped | DIFlagStaticMember, spFlags: 0)
!280 = !DISubroutineType(types: !281)
!281 = !{!282, !282, !282, !282, !283, !246}
!282 = !DIDerivedType(tag: DW_TAG_typedef, name: "pointer", scope: !19, file: !14, line: 415, baseType: !152)
!283 = !DIDerivedType(tag: DW_TAG_reference_type, baseType: !284, size: 64)
!284 = !DIDerivedType(tag: DW_TAG_typedef, name: "_Tp_alloc_type", scope: !19, file: !14, line: 410, baseType: !28)
!285 = !DISubprogram(name: "_S_do_relocate", linkageName: "_ZNSt6vectorIPKcSaIS1_EE14_S_do_relocateEPS1_S4_S4_RS2_St17integral_constantIbLb0EE", scope: !19, file: !14, line: 460, type: !286, scopeLine: 460, flags: DIFlagPrototyped | DIFlagStaticMember, spFlags: 0)
!286 = !DISubroutineType(types: !287)
!287 = !{!282, !282, !282, !282, !283, !265}
!288 = !DISubprogram(name: "_S_relocate", linkageName: "_ZNSt6vectorIPKcSaIS1_EE11_S_relocateEPS1_S4_S4_RS2_", scope: !19, file: !14, line: 465, type: !289, scopeLine: 465, flags: DIFlagPrototyped | DIFlagStaticMember, spFlags: 0)
!289 = !DISubroutineType(types: !290)
!290 = !{!282, !282, !282, !282, !283}
!291 = !DISubprogram(name: "vector", scope: !19, file: !14, line: 487, type: !292, scopeLine: 487, flags: DIFlagPublic | DIFlagPrototyped, spFlags: 0)
!292 = !DISubroutineType(types: !293)
!293 = !{null, !294}
!294 = !DIDerivedType(tag: DW_TAG_pointer_type, baseType: !19, size: 64, flags: DIFlagArtificial | DIFlagObjectPointer)
!295 = !DISubprogram(name: "vector", scope: !19, file: !14, line: 497, type: !296, scopeLine: 497, flags: DIFlagPublic | DIFlagExplicit | DIFlagPrototyped, spFlags: 0)
!296 = !DISubroutineType(types: !297)
!297 = !{null, !294, !298}
!298 = !DIDerivedType(tag: DW_TAG_reference_type, baseType: !299, size: 64)
!299 = !DIDerivedType(tag: DW_TAG_const_type, baseType: !300)
!300 = !DIDerivedType(tag: DW_TAG_typedef, name: "allocator_type", scope: !19, file: !14, line: 426, baseType: !49)
!301 = !DISubprogram(name: "vector", scope: !19, file: !14, line: 510, type: !302, scopeLine: 510, flags: DIFlagPublic | DIFlagExplicit | DIFlagPrototyped, spFlags: 0)
!302 = !DISubroutineType(types: !303)
!303 = !{null, !294, !13, !298}
!304 = !DISubprogram(name: "vector", scope: !19, file: !14, line: 522, type: !305, scopeLine: 522, flags: DIFlagPublic | DIFlagPrototyped, spFlags: 0)
!305 = !DISubroutineType(types: !306)
!306 = !{null, !294, !13, !307, !298}
!307 = !DIDerivedType(tag: DW_TAG_reference_type, baseType: !308, size: 64)
!308 = !DIDerivedType(tag: DW_TAG_const_type, baseType: !309)
!309 = !DIDerivedType(tag: DW_TAG_typedef, name: "value_type", scope: !19, file: !14, line: 414, baseType: !44)
!310 = !DISubprogram(name: "vector", scope: !19, file: !14, line: 553, type: !311, scopeLine: 553, flags: DIFlagPublic | DIFlagPrototyped, spFlags: 0)
!311 = !DISubroutineType(types: !312)
!312 = !{null, !294, !313}
!313 = !DIDerivedType(tag: DW_TAG_reference_type, baseType: !314, size: 64)
!314 = !DIDerivedType(tag: DW_TAG_const_type, baseType: !19)
!315 = !DISubprogram(name: "vector", scope: !19, file: !14, line: 572, type: !316, scopeLine: 572, flags: DIFlagPublic | DIFlagPrototyped, spFlags: 0)
!316 = !DISubroutineType(types: !317)
!317 = !{null, !294, !318}
!318 = !DIDerivedType(tag: DW_TAG_rvalue_reference_type, baseType: !19, size: 64)
!319 = !DISubprogram(name: "vector", scope: !19, file: !14, line: 575, type: !320, scopeLine: 575, flags: DIFlagPublic | DIFlagPrototyped, spFlags: 0)
!320 = !DISubroutineType(types: !321)
!321 = !{null, !294, !313, !298}
!322 = !DISubprogram(name: "vector", scope: !19, file: !14, line: 585, type: !323, scopeLine: 585, flags: DIFlagPrototyped, spFlags: 0)
!323 = !DISubroutineType(types: !324)
!324 = !{null, !294, !318, !298, !246}
!325 = !DISubprogram(name: "vector", scope: !19, file: !14, line: 589, type: !326, scopeLine: 589, flags: DIFlagPrototyped, spFlags: 0)
!326 = !DISubroutineType(types: !327)
!327 = !{null, !294, !318, !298, !265}
!328 = !DISubprogram(name: "vector", scope: !19, file: !14, line: 607, type: !329, scopeLine: 607, flags: DIFlagPublic | DIFlagPrototyped, spFlags: 0)
!329 = !DISubroutineType(types: !330)
!330 = !{null, !294, !318, !298}
!331 = !DISubprogram(name: "vector", scope: !19, file: !14, line: 625, type: !332, scopeLine: 625, flags: DIFlagPublic | DIFlagPrototyped, spFlags: 0)
!332 = !DISubroutineType(types: !333)
!333 = !{null, !294, !334, !298}
!334 = !DICompositeType(tag: DW_TAG_class_type, name: "initializer_list<const char *>", scope: !8, file: !335, line: 47, flags: DIFlagFwdDecl, identifier: "_ZTSSt16initializer_listIPKcE")
!335 = !DIFile(filename: "/usr/lib/gcc/x86_64-linux-gnu/10/../../../../include/c++/10/initializer_list", directory: "")
!336 = !DISubprogram(name: "~vector", scope: !19, file: !14, line: 678, type: !292, scopeLine: 678, flags: DIFlagPublic | DIFlagPrototyped, spFlags: 0)
!337 = !DISubprogram(name: "operator=", linkageName: "_ZNSt6vectorIPKcSaIS1_EEaSERKS3_", scope: !19, file: !14, line: 695, type: !338, scopeLine: 695, flags: DIFlagPublic | DIFlagPrototyped, spFlags: 0)
!338 = !DISubroutineType(types: !339)
!339 = !{!340, !294, !313}
!340 = !DIDerivedType(tag: DW_TAG_reference_type, baseType: !19, size: 64)
!341 = !DISubprogram(name: "operator=", linkageName: "_ZNSt6vectorIPKcSaIS1_EEaSEOS3_", scope: !19, file: !14, line: 709, type: !342, scopeLine: 709, flags: DIFlagPublic | DIFlagPrototyped, spFlags: 0)
!342 = !DISubroutineType(types: !343)
!343 = !{!340, !294, !318}
!344 = !DISubprogram(name: "operator=", linkageName: "_ZNSt6vectorIPKcSaIS1_EEaSESt16initializer_listIS1_E", scope: !19, file: !14, line: 730, type: !345, scopeLine: 730, flags: DIFlagPublic | DIFlagPrototyped, spFlags: 0)
!345 = !DISubroutineType(types: !346)
!346 = !{!340, !294, !334}
!347 = !DISubprogram(name: "assign", linkageName: "_ZNSt6vectorIPKcSaIS1_EE6assignEmRKS1_", scope: !19, file: !14, line: 749, type: !348, scopeLine: 749, flags: DIFlagPublic | DIFlagPrototyped, spFlags: 0)
!348 = !DISubroutineType(types: !349)
!349 = !{null, !294, !13, !307}
!350 = !DISubprogram(name: "assign", linkageName: "_ZNSt6vectorIPKcSaIS1_EE6assignESt16initializer_listIS1_E", scope: !19, file: !14, line: 794, type: !351, scopeLine: 794, flags: DIFlagPublic | DIFlagPrototyped, spFlags: 0)
!351 = !DISubroutineType(types: !352)
!352 = !{null, !294, !334}
!353 = !DISubprogram(name: "begin", linkageName: "_ZNSt6vectorIPKcSaIS1_EE5beginEv", scope: !19, file: !14, line: 811, type: !354, scopeLine: 811, flags: DIFlagPublic | DIFlagPrototyped, spFlags: 0)
!354 = !DISubroutineType(types: !355)
!355 = !{!18, !294}
!356 = !DISubprogram(name: "begin", linkageName: "_ZNKSt6vectorIPKcSaIS1_EE5beginEv", scope: !19, file: !14, line: 820, type: !357, scopeLine: 820, flags: DIFlagPublic | DIFlagPrototyped, spFlags: 0)
!357 = !DISubroutineType(types: !358)
!358 = !{!359, !362}
!359 = !DIDerivedType(tag: DW_TAG_typedef, name: "const_iterator", scope: !19, file: !14, line: 421, baseType: !360)
!360 = !DICompositeType(tag: DW_TAG_class_type, name: "__normal_iterator<const char *const *, std::vector<const char *, std::allocator<const char *> > >", scope: !33, file: !361, line: 930, flags: DIFlagFwdDecl, identifier: "_ZTSN9__gnu_cxx17__normal_iteratorIPKPKcSt6vectorIS2_SaIS2_EEEE")
!361 = !DIFile(filename: "/usr/lib/gcc/x86_64-linux-gnu/10/../../../../include/c++/10/bits/stl_iterator.h", directory: "")
!362 = !DIDerivedType(tag: DW_TAG_pointer_type, baseType: !314, size: 64, flags: DIFlagArtificial | DIFlagObjectPointer)
!363 = !DISubprogram(name: "end", linkageName: "_ZNSt6vectorIPKcSaIS1_EE3endEv", scope: !19, file: !14, line: 829, type: !354, scopeLine: 829, flags: DIFlagPublic | DIFlagPrototyped, spFlags: 0)
!364 = !DISubprogram(name: "end", linkageName: "_ZNKSt6vectorIPKcSaIS1_EE3endEv", scope: !19, file: !14, line: 838, type: !357, scopeLine: 838, flags: DIFlagPublic | DIFlagPrototyped, spFlags: 0)
!365 = !DISubprogram(name: "rbegin", linkageName: "_ZNSt6vectorIPKcSaIS1_EE6rbeginEv", scope: !19, file: !14, line: 847, type: !366, scopeLine: 847, flags: DIFlagPublic | DIFlagPrototyped, spFlags: 0)
!366 = !DISubroutineType(types: !367)
!367 = !{!368, !294}
!368 = !DIDerivedType(tag: DW_TAG_typedef, name: "reverse_iterator", scope: !19, file: !14, line: 423, baseType: !369)
!369 = !DICompositeType(tag: DW_TAG_class_type, name: "reverse_iterator<__gnu_cxx::__normal_iterator<const char **, std::vector<const char *, std::allocator<const char *> > > >", scope: !8, file: !361, line: 125, flags: DIFlagFwdDecl, identifier: "_ZTSSt16reverse_iteratorIN9__gnu_cxx17__normal_iteratorIPPKcSt6vectorIS3_SaIS3_EEEEE")
!370 = !DISubprogram(name: "rbegin", linkageName: "_ZNKSt6vectorIPKcSaIS1_EE6rbeginEv", scope: !19, file: !14, line: 856, type: !371, scopeLine: 856, flags: DIFlagPublic | DIFlagPrototyped, spFlags: 0)
!371 = !DISubroutineType(types: !372)
!372 = !{!373, !362}
!373 = !DIDerivedType(tag: DW_TAG_typedef, name: "const_reverse_iterator", scope: !19, file: !14, line: 422, baseType: !374)
!374 = !DICompositeType(tag: DW_TAG_class_type, name: "reverse_iterator<__gnu_cxx::__normal_iterator<const char *const *, std::vector<const char *, std::allocator<const char *> > > >", scope: !8, file: !361, line: 125, flags: DIFlagFwdDecl, identifier: "_ZTSSt16reverse_iteratorIN9__gnu_cxx17__normal_iteratorIPKPKcSt6vectorIS3_SaIS3_EEEEE")
!375 = !DISubprogram(name: "rend", linkageName: "_ZNSt6vectorIPKcSaIS1_EE4rendEv", scope: !19, file: !14, line: 865, type: !366, scopeLine: 865, flags: DIFlagPublic | DIFlagPrototyped, spFlags: 0)
!376 = !DISubprogram(name: "rend", linkageName: "_ZNKSt6vectorIPKcSaIS1_EE4rendEv", scope: !19, file: !14, line: 874, type: !371, scopeLine: 874, flags: DIFlagPublic | DIFlagPrototyped, spFlags: 0)
!377 = !DISubprogram(name: "cbegin", linkageName: "_ZNKSt6vectorIPKcSaIS1_EE6cbeginEv", scope: !19, file: !14, line: 884, type: !357, scopeLine: 884, flags: DIFlagPublic | DIFlagPrototyped, spFlags: 0)
!378 = !DISubprogram(name: "cend", linkageName: "_ZNKSt6vectorIPKcSaIS1_EE4cendEv", scope: !19, file: !14, line: 893, type: !357, scopeLine: 893, flags: DIFlagPublic | DIFlagPrototyped, spFlags: 0)
!379 = !DISubprogram(name: "crbegin", linkageName: "_ZNKSt6vectorIPKcSaIS1_EE7crbeginEv", scope: !19, file: !14, line: 902, type: !371, scopeLine: 902, flags: DIFlagPublic | DIFlagPrototyped, spFlags: 0)
!380 = !DISubprogram(name: "crend", linkageName: "_ZNKSt6vectorIPKcSaIS1_EE5crendEv", scope: !19, file: !14, line: 911, type: !371, scopeLine: 911, flags: DIFlagPublic | DIFlagPrototyped, spFlags: 0)
!381 = !DISubprogram(name: "size", linkageName: "_ZNKSt6vectorIPKcSaIS1_EE4sizeEv", scope: !19, file: !14, line: 918, type: !382, scopeLine: 918, flags: DIFlagPublic | DIFlagPrototyped, spFlags: 0)
!382 = !DISubroutineType(types: !383)
!383 = !{!13, !362}
!384 = !DISubprogram(name: "max_size", linkageName: "_ZNKSt6vectorIPKcSaIS1_EE8max_sizeEv", scope: !19, file: !14, line: 923, type: !382, scopeLine: 923, flags: DIFlagPublic | DIFlagPrototyped, spFlags: 0)
!385 = !DISubprogram(name: "resize", linkageName: "_ZNSt6vectorIPKcSaIS1_EE6resizeEm", scope: !19, file: !14, line: 937, type: !386, scopeLine: 937, flags: DIFlagPublic | DIFlagPrototyped, spFlags: 0)
!386 = !DISubroutineType(types: !387)
!387 = !{null, !294, !13}
!388 = !DISubprogram(name: "resize", linkageName: "_ZNSt6vectorIPKcSaIS1_EE6resizeEmRKS1_", scope: !19, file: !14, line: 957, type: !348, scopeLine: 957, flags: DIFlagPublic | DIFlagPrototyped, spFlags: 0)
!389 = !DISubprogram(name: "shrink_to_fit", linkageName: "_ZNSt6vectorIPKcSaIS1_EE13shrink_to_fitEv", scope: !19, file: !14, line: 989, type: !292, scopeLine: 989, flags: DIFlagPublic | DIFlagPrototyped, spFlags: 0)
!390 = !DISubprogram(name: "capacity", linkageName: "_ZNKSt6vectorIPKcSaIS1_EE8capacityEv", scope: !19, file: !14, line: 998, type: !382, scopeLine: 998, flags: DIFlagPublic | DIFlagPrototyped, spFlags: 0)
!391 = !DISubprogram(name: "empty", linkageName: "_ZNKSt6vectorIPKcSaIS1_EE5emptyEv", scope: !19, file: !14, line: 1007, type: !392, scopeLine: 1007, flags: DIFlagPublic | DIFlagPrototyped, spFlags: 0)
!392 = !DISubroutineType(types: !393)
!393 = !{!140, !362}
!394 = !DISubprogram(name: "reserve", linkageName: "_ZNSt6vectorIPKcSaIS1_EE7reserveEm", scope: !19, file: !14, line: 1028, type: !386, scopeLine: 1028, flags: DIFlagPublic | DIFlagPrototyped, spFlags: 0)
!395 = !DISubprogram(name: "operator[]", linkageName: "_ZNSt6vectorIPKcSaIS1_EEixEm", scope: !19, file: !14, line: 1043, type: !396, scopeLine: 1043, flags: DIFlagPublic | DIFlagPrototyped, spFlags: 0)
!396 = !DISubroutineType(types: !397)
!397 = !{!398, !294, !13}
!398 = !DIDerivedType(tag: DW_TAG_typedef, name: "reference", scope: !19, file: !14, line: 417, baseType: !399)
!399 = !DIDerivedType(tag: DW_TAG_typedef, name: "reference", scope: !32, file: !30, line: 62, baseType: !400)
!400 = !DIDerivedType(tag: DW_TAG_reference_type, baseType: !401, size: 64)
!401 = !DIDerivedType(tag: DW_TAG_typedef, name: "value_type", scope: !32, file: !30, line: 56, baseType: !402)
!402 = !DIDerivedType(tag: DW_TAG_typedef, name: "value_type", scope: !36, file: !37, line: 413, baseType: !44)
!403 = !DISubprogram(name: "operator[]", linkageName: "_ZNKSt6vectorIPKcSaIS1_EEixEm", scope: !19, file: !14, line: 1061, type: !404, scopeLine: 1061, flags: DIFlagPublic | DIFlagPrototyped, spFlags: 0)
!404 = !DISubroutineType(types: !405)
!405 = !{!406, !362, !13}
!406 = !DIDerivedType(tag: DW_TAG_typedef, name: "const_reference", scope: !19, file: !14, line: 418, baseType: !407)
!407 = !DIDerivedType(tag: DW_TAG_typedef, name: "const_reference", scope: !32, file: !30, line: 63, baseType: !408)
!408 = !DIDerivedType(tag: DW_TAG_reference_type, baseType: !409, size: 64)
!409 = !DIDerivedType(tag: DW_TAG_const_type, baseType: !401)
!410 = !DISubprogram(name: "_M_range_check", linkageName: "_ZNKSt6vectorIPKcSaIS1_EE14_M_range_checkEm", scope: !19, file: !14, line: 1070, type: !411, scopeLine: 1070, flags: DIFlagProtected | DIFlagPrototyped, spFlags: 0)
!411 = !DISubroutineType(types: !412)
!412 = !{null, !362, !13}
!413 = !DISubprogram(name: "at", linkageName: "_ZNSt6vectorIPKcSaIS1_EE2atEm", scope: !19, file: !14, line: 1092, type: !396, scopeLine: 1092, flags: DIFlagPublic | DIFlagPrototyped, spFlags: 0)
!414 = !DISubprogram(name: "at", linkageName: "_ZNKSt6vectorIPKcSaIS1_EE2atEm", scope: !19, file: !14, line: 1110, type: !404, scopeLine: 1110, flags: DIFlagPublic | DIFlagPrototyped, spFlags: 0)
!415 = !DISubprogram(name: "front", linkageName: "_ZNSt6vectorIPKcSaIS1_EE5frontEv", scope: !19, file: !14, line: 1121, type: !416, scopeLine: 1121, flags: DIFlagPublic | DIFlagPrototyped, spFlags: 0)
!416 = !DISubroutineType(types: !417)
!417 = !{!398, !294}
!418 = !DISubprogram(name: "front", linkageName: "_ZNKSt6vectorIPKcSaIS1_EE5frontEv", scope: !19, file: !14, line: 1132, type: !419, scopeLine: 1132, flags: DIFlagPublic | DIFlagPrototyped, spFlags: 0)
!419 = !DISubroutineType(types: !420)
!420 = !{!406, !362}
