; ModuleID = 'model/EtherApp_m.cc'
source_filename = "model/EtherApp_m.cc"
target datalayout = "e-m:e-p270:32:32-p271:32:32-p272:64:64-i64:64-f80:128-n8:16:32:64-S128"
target triple = "x86_64-unknown-linux-gnu"

%"class.std::ios_base::Init" = type { i8 }
%class.ExecuteOnStartup = type { void ()*, %class.ExecuteOnStartup* }
%class.cGlobalRegistrationList = type { %class.cRegistrationList*, i8* }
%class.cRegistrationList = type { %class.cNamedObject.base, %"class.std::vector", %"class.std::map", %"class.std::map" }
%class.cNamedObject.base = type <{ %class.cObject, i8*, i16, i16 }>
%class.cObject = type { i32 (...)** }
%"class.std::vector" = type { %"struct.std::_Vector_base" }
%"struct.std::_Vector_base" = type { %"struct.std::_Vector_base<cOwnedObject *, std::allocator<cOwnedObject *> >::_Vector_impl" }
%"struct.std::_Vector_base<cOwnedObject *, std::allocator<cOwnedObject *> >::_Vector_impl" = type { %"struct.std::_Vector_base<cOwnedObject *, std::allocator<cOwnedObject *> >::_Vector_impl_data" }
%"struct.std::_Vector_base<cOwnedObject *, std::allocator<cOwnedObject *> >::_Vector_impl_data" = type { %class.cOwnedObject**, %class.cOwnedObject**, %class.cOwnedObject** }
%class.cOwnedObject = type <{ %class.cNamedObject.base, [4 x i8], %class.cObject*, i32, [4 x i8] }>
%"class.std::map" = type { %"class.std::_Rb_tree" }
%"class.std::_Rb_tree" = type { %"struct.std::_Rb_tree<std::__cxx11::basic_string<char>, std::pair<const std::__cxx11::basic_string<char>, cOwnedObject *>, std::_Select1st<std::pair<const std::__cxx11::basic_string<char>, cOwnedObject *> >, std::less<std::__cxx11::basic_string<char> >, std::allocator<std::pair<const std::__cxx11::basic_string<char>, cOwnedObject *> > >::_Rb_tree_impl" }
%"struct.std::_Rb_tree<std::__cxx11::basic_string<char>, std::pair<const std::__cxx11::basic_string<char>, cOwnedObject *>, std::_Select1st<std::pair<const std::__cxx11::basic_string<char>, cOwnedObject *> >, std::less<std::__cxx11::basic_string<char> >, std::allocator<std::pair<const std::__cxx11::basic_string<char>, cOwnedObject *> > >::_Rb_tree_impl" = type { %"struct.std::_Rb_tree_key_compare", %"struct.std::_Rb_tree_header" }
%"struct.std::_Rb_tree_key_compare" = type { %"struct.std::less" }
%"struct.std::less" = type { i8 }
%"struct.std::_Rb_tree_header" = type { %"struct.std::_Rb_tree_node_base", i64 }
%"struct.std::_Rb_tree_node_base" = type { i32, %"struct.std::_Rb_tree_node_base"*, %"struct.std::_Rb_tree_node_base"*, %"struct.std::_Rb_tree_node_base"* }
%class.EtherAppReq = type { %class.cPacket.base, i64, i64 }
%class.cPacket.base = type <{ %class.cMessage, i64, %class.SimTime, %class.cPacket*, i16 }>
%class.cMessage = type { %class.cOwnedObject.base, i16, i16, i16, %class.cArray*, %class.cObject*, i8*, i32, i32, i32, i32, %class.SimTime, %class.SimTime, %class.SimTime, %class.SimTime, i32, i64, i64, i64, i64 }
%class.cOwnedObject.base = type <{ %class.cNamedObject.base, [4 x i8], %class.cObject*, i32 }>
%class.cArray = type { %class.cOwnedObject.base, %class.cObject**, i32, i32, i32, i32 }
%class.SimTime = type { i64 }
%class.cPacket = type <{ %class.cMessage, i64, %class.SimTime, %class.cPacket*, i16, [6 x i8] }>
%class.EtherAppReqDescriptor = type { %class.cClassDescriptor }
%class.cClassDescriptor = type { %class.cNoncopyableOwnedObject.base, %"class.std::__cxx11::basic_string", %class.cClassDescriptor*, i32, i32 }
%class.cNoncopyableOwnedObject.base = type { %class.cOwnedObject.base }
%"class.std::__cxx11::basic_string" = type { %"struct.std::__cxx11::basic_string<char, std::char_traits<char>, std::allocator<char> >::_Alloc_hider", i64, %union.anon }
%"struct.std::__cxx11::basic_string<char, std::char_traits<char>, std::allocator<char> >::_Alloc_hider" = type { i8* }
%union.anon = type { i64, [8 x i8] }
%class.EtherAppResp = type { %class.cPacket.base, i32, i32, [4 x i8] }
%class.EtherAppRespDescriptor = type { %class.cClassDescriptor }
%class.cClassFactory = type { %class.cNoncopyableOwnedObject.base, %class.cObject* ()*, %"class.std::__cxx11::basic_string" }
%"class.std::type_info" = type { i32 (...)**, i8* }
%class.cNamedObject = type <{ %class.cObject, i8*, i16, i16, [4 x i8] }>
%class.cCommBuffer = type { %class.cObject }
%class.cVisitor = type { i32 (...)** }
%class.cNoncopyableOwnedObject = type { %class.cOwnedObject.base, [4 x i8] }

$_Z9doPackingP11cCommBufferl = comdat any

$_Z11doUnpackingP11cCommBufferRl = comdat any

$_Z9doPackingP11cCommBufferi = comdat any

$_Z11doUnpackingP11cCommBufferRi = comdat any

$_ZNK12cNamedObject7getNameEv = comdat any

$_ZNK7cObject11getFullNameEv = comdat any

$_ZNK11EtherAppReq3dupEv = comdat any

$_ZNK12cOwnedObject8getOwnerEv = comdat any

$_ZNK12cOwnedObject13isOwnedObjectEv = comdat any

$_ZN12cNamedObject14getNamePoolingEv = comdat any

$_ZNK12cOwnedObject11isSoftOwnerEv = comdat any

$_ZNK7cPacket8isPacketEv = comdat any

$_ZNK12EtherAppResp3dupEv = comdat any

@_ZStL8__ioinit = internal global %"class.std::ios_base::Init" zeroinitializer, align 1, !dbg !0
@__dso_handle = external hidden global i8
@_ZN12_GLOBAL__N_118__onstartup_obj_33E = internal global %class.ExecuteOnStartup zeroinitializer, align 8, !dbg !28
@_ZTV11EtherAppReq = dso_local unnamed_addr constant { [32 x i8*] } { [32 x i8*] [i8* null, i8* bitcast ({ i8*, i8*, i8* }* @_ZTI11EtherAppReq to i8*), i8* bitcast (%class.cClassDescriptor* (%class.cObject*)* @_ZN7cObject13getDescriptorEv to i8*), i8* bitcast (void (%class.cObject*, %class.cOwnedObject*)* @_ZN7cObject18ownedObjectDeletedEP12cOwnedObject to i8*), i8* bitcast (void (%class.cObject*, %class.cOwnedObject*, %class.cObject*)* @_ZN7cObject14yieldOwnershipEP12cOwnedObjectPS_ to i8*), i8* bitcast (void (%class.EtherAppReq*)* @_ZN11EtherAppReqD1Ev to i8*), i8* bitcast (void (%class.EtherAppReq*)* @_ZN11EtherAppReqD0Ev to i8*), i8* bitcast (i8* (%class.cObject*)* @_ZNK7cObject12getClassNameEv to i8*), i8* bitcast (i8* (%class.cNamedObject*)* @_ZNK12cNamedObject7getNameEv to i8*), i8* bitcast (i8* (%class.cObject*)* @_ZNK7cObject11getFullNameEv to i8*), i8* bitcast (void (%"class.std::__cxx11::basic_string"*, %class.cObject*)* @_ZNK7cObject11getFullPathB5cxx11Ev to i8*), i8* bitcast (void (%"class.std::__cxx11::basic_string"*, %class.cPacket*)* @_ZNK7cPacket4infoB5cxx11Ev to i8*), i8* bitcast (void (%"class.std::__cxx11::basic_string"*, %class.cPacket*)* @_ZNK7cPacket12detailedInfoB5cxx11Ev to i8*), i8* bitcast (%class.EtherAppReq* (%class.EtherAppReq*)* @_ZNK11EtherAppReq3dupEv to i8*), i8* bitcast (void (%class.cObject*, %class.cOwnedObject*)* @_ZN7cObject4takeEP12cOwnedObject to i8*), i8* bitcast (void (%class.cObject*, %class.cOwnedObject*)* @_ZN7cObject4dropEP12cOwnedObject to i8*), i8* bitcast (void (%class.EtherAppReq*, %class.cCommBuffer*)* @_ZN11EtherAppReq10parsimPackEP11cCommBuffer to i8*), i8* bitcast (void (%class.EtherAppReq*, %class.cCommBuffer*)* @_ZN11EtherAppReq12parsimUnpackEP11cCommBuffer to i8*), i8* bitcast (%class.cObject* (%class.cOwnedObject*)* @_ZNK12cOwnedObject8getOwnerEv to i8*), i8* bitcast (i1 (%class.cOwnedObject*)* @_ZNK12cOwnedObject13isOwnedObjectEv to i8*), i8* bitcast (void (%class.cPacket*, %class.cVisitor*)* @_ZN7cPacket12forEachChildEP8cVisitor to i8*), i8* bitcast (void (%class.cNamedObject*, i8*)* @_ZN12cNamedObject7setNameEPKc to i8*), i8* bitcast (void (%class.cNamedObject*, i1)* @_ZN12cNamedObject14setNamePoolingEb to i8*), i8* bitcast (i1 (%class.cNamedObject*)* @_ZN12cNamedObject14getNamePoolingEv to i8*), i8* bitcast (void (%class.cOwnedObject*)* @_ZN12cOwnedObject23removeFromOwnershipTreeEv to i8*), i8* bitcast (i1 (%class.cOwnedObject*)* @_ZNK12cOwnedObject11isSoftOwnerEv to i8*), i8* bitcast (i1 (%class.cPacket*)* @_ZNK7cPacket8isPacketEv to i8*), i8* bitcast (i8* (%class.cMessage*)* @_ZNK8cMessage16getDisplayStringEv to i8*), i8* bitcast (i64 (%class.EtherAppReq*)* @_ZNK11EtherAppReq12getRequestIdEv to i8*), i8* bitcast (void (%class.EtherAppReq*, i64)* @_ZN11EtherAppReq12setRequestIdEl to i8*), i8* bitcast (i64 (%class.EtherAppReq*)* @_ZNK11EtherAppReq16getResponseBytesEv to i8*), i8* bitcast (void (%class.EtherAppReq*, i64)* @_ZN11EtherAppReq16setResponseBytesEl to i8*)] }, align 8
@_ZN12_GLOBAL__N_119__onstartup_obj_116E = internal global %class.ExecuteOnStartup zeroinitializer, align 8, !dbg !51
@.str = private unnamed_addr constant [12 x i8] c"EtherAppReq\00", align 1
@.str.3 = private unnamed_addr constant [8 x i8] c"cPacket\00", align 1
@_ZTV21EtherAppReqDescriptor = dso_local unnamed_addr constant { [40 x i8*] } { [40 x i8*] [i8* null, i8* bitcast ({ i8*, i8*, i8* }* @_ZTI21EtherAppReqDescriptor to i8*), i8* bitcast (%class.cClassDescriptor* (%class.cObject*)* @_ZN7cObject13getDescriptorEv to i8*), i8* bitcast (void (%class.cObject*, %class.cOwnedObject*)* @_ZN7cObject18ownedObjectDeletedEP12cOwnedObject to i8*), i8* bitcast (void (%class.cObject*, %class.cOwnedObject*, %class.cObject*)* @_ZN7cObject14yieldOwnershipEP12cOwnedObjectPS_ to i8*), i8* bitcast (void (%class.EtherAppReqDescriptor*)* @_ZN21EtherAppReqDescriptorD1Ev to i8*), i8* bitcast (void (%class.EtherAppReqDescriptor*)* @_ZN21EtherAppReqDescriptorD0Ev to i8*), i8* bitcast (i8* (%class.cObject*)* @_ZNK7cObject12getClassNameEv to i8*), i8* bitcast (i8* (%class.cNamedObject*)* @_ZNK12cNamedObject7getNameEv to i8*), i8* bitcast (i8* (%class.cObject*)* @_ZNK7cObject11getFullNameEv to i8*), i8* bitcast (void (%"class.std::__cxx11::basic_string"*, %class.cObject*)* @_ZNK7cObject11getFullPathB5cxx11Ev to i8*), i8* bitcast (void (%"class.std::__cxx11::basic_string"*, %class.cObject*)* @_ZNK7cObject4infoB5cxx11Ev to i8*), i8* bitcast (void (%"class.std::__cxx11::basic_string"*, %class.cObject*)* @_ZNK7cObject12detailedInfoB5cxx11Ev to i8*), i8* bitcast (%class.cNoncopyableOwnedObject* (%class.cNoncopyableOwnedObject*)* @_ZNK23cNoncopyableOwnedObject3dupEv to i8*), i8* bitcast (void (%class.cObject*, %class.cOwnedObject*)* @_ZN7cObject4takeEP12cOwnedObject to i8*), i8* bitcast (void (%class.cObject*, %class.cOwnedObject*)* @_ZN7cObject4dropEP12cOwnedObject to i8*), i8* bitcast (void (%class.cNoncopyableOwnedObject*, %class.cCommBuffer*)* @_ZN23cNoncopyableOwnedObject10parsimPackEP11cCommBuffer to i8*), i8* bitcast (void (%class.cNoncopyableOwnedObject*, %class.cCommBuffer*)* @_ZN23cNoncopyableOwnedObject12parsimUnpackEP11cCommBuffer to i8*), i8* bitcast (%class.cObject* (%class.cOwnedObject*)* @_ZNK12cOwnedObject8getOwnerEv to i8*), i8* bitcast (i1 (%class.cOwnedObject*)* @_ZNK12cOwnedObject13isOwnedObjectEv to i8*), i8* bitcast (void (%class.cObject*, %class.cVisitor*)* @_ZN7cObject12forEachChildEP8cVisitor to i8*), i8* bitcast (void (%class.cNamedObject*, i8*)* @_ZN12cNamedObject7setNameEPKc to i8*), i8* bitcast (void (%class.cNamedObject*, i1)* @_ZN12cNamedObject14setNamePoolingEb to i8*), i8* bitcast (i1 (%class.cNamedObject*)* @_ZN12cNamedObject14getNamePoolingEv to i8*), i8* bitcast (void (%class.cOwnedObject*)* @_ZN12cOwnedObject23removeFromOwnershipTreeEv to i8*), i8* bitcast (i1 (%class.cOwnedObject*)* @_ZNK12cOwnedObject11isSoftOwnerEv to i8*), i8* bitcast (i1 (%class.EtherAppReqDescriptor*, %class.cObject*)* @_ZNK21EtherAppReqDescriptor11doesSupportEP7cObject to i8*), i8* bitcast (%class.cClassDescriptor* (%class.cClassDescriptor*)* @_ZNK16cClassDescriptor22getBaseClassDescriptorEv to i8*), i8* bitcast (i8* (%class.EtherAppReqDescriptor*, i8*)* @_ZNK21EtherAppReqDescriptor11getPropertyEPKc to i8*), i8* bitcast (i32 (%class.EtherAppReqDescriptor*, i8*)* @_ZNK21EtherAppReqDescriptor13getFieldCountEPv to i8*), i8* bitcast (i8* (%class.EtherAppReqDescriptor*, i8*, i32)* @_ZNK21EtherAppReqDescriptor12getFieldNameEPvi to i8*), i8* bitcast (i32 (%class.EtherAppReqDescriptor*, i8*, i32)* @_ZNK21EtherAppReqDescriptor17getFieldTypeFlagsEPvi to i8*), i8* bitcast (i8* (%class.cClassDescriptor*, i8*, i32)* @_ZNK16cClassDescriptor18getFieldDeclaredOnEPvi to i8*), i8* bitcast (i8* (%class.EtherAppReqDescriptor*, i8*, i32)* @_ZNK21EtherAppReqDescriptor18getFieldTypeStringEPvi to i8*), i8* bitcast (i8* (%class.EtherAppReqDescriptor*, i8*, i32, i8*)* @_ZNK21EtherAppReqDescriptor16getFieldPropertyEPviPKc to i8*), i8* bitcast (i32 (%class.EtherAppReqDescriptor*, i8*, i32)* @_ZNK21EtherAppReqDescriptor12getArraySizeEPvi to i8*), i8* bitcast (i1 (%class.EtherAppReqDescriptor*, i8*, i32, i32, i8*, i32)* @_ZNK21EtherAppReqDescriptor16getFieldAsStringEPviiPci to i8*), i8* bitcast (i1 (%class.EtherAppReqDescriptor*, i8*, i32, i32, i8*)* @_ZNK21EtherAppReqDescriptor16setFieldAsStringEPviiPKc to i8*), i8* bitcast (i8* (%class.EtherAppReqDescriptor*, i8*, i32)* @_ZNK21EtherAppReqDescriptor18getFieldStructNameEPvi to i8*), i8* bitcast (i8* (%class.EtherAppReqDescriptor*, i8*, i32, i32)* @_ZNK21EtherAppReqDescriptor21getFieldStructPointerEPvii to i8*)] }, align 8
@_ZTI7cObject = external dso_local constant i8*
@_ZTVN10__cxxabiv120__si_class_type_infoE = external dso_local global i8*
@_ZTS11EtherAppReq = dso_local constant [14 x i8] c"11EtherAppReq\00", align 1
@_ZTI7cPacket = external dso_local constant i8*
@_ZTI11EtherAppReq = dso_local constant { i8*, i8*, i8* } { i8* bitcast (i8** getelementptr inbounds (i8*, i8** @_ZTVN10__cxxabiv120__si_class_type_infoE, i64 2) to i8*), i8* getelementptr inbounds ([14 x i8], [14 x i8]* @_ZTS11EtherAppReq, i32 0, i32 0), i8* bitcast (i8** @_ZTI7cPacket to i8*) }, align 8
@.str.4 = private unnamed_addr constant [10 x i8] c"requestId\00", align 1
@.str.5 = private unnamed_addr constant [14 x i8] c"responseBytes\00", align 1
@.str.6 = private unnamed_addr constant [5 x i8] c"long\00", align 1
@_ZN12_GLOBAL__N_119__onstartup_obj_274E = internal global %class.ExecuteOnStartup zeroinitializer, align 8, !dbg !53
@_ZTV12EtherAppResp = dso_local unnamed_addr constant { [32 x i8*] } { [32 x i8*] [i8* null, i8* bitcast ({ i8*, i8*, i8* }* @_ZTI12EtherAppResp to i8*), i8* bitcast (%class.cClassDescriptor* (%class.cObject*)* @_ZN7cObject13getDescriptorEv to i8*), i8* bitcast (void (%class.cObject*, %class.cOwnedObject*)* @_ZN7cObject18ownedObjectDeletedEP12cOwnedObject to i8*), i8* bitcast (void (%class.cObject*, %class.cOwnedObject*, %class.cObject*)* @_ZN7cObject14yieldOwnershipEP12cOwnedObjectPS_ to i8*), i8* bitcast (void (%class.EtherAppResp*)* @_ZN12EtherAppRespD1Ev to i8*), i8* bitcast (void (%class.EtherAppResp*)* @_ZN12EtherAppRespD0Ev to i8*), i8* bitcast (i8* (%class.cObject*)* @_ZNK7cObject12getClassNameEv to i8*), i8* bitcast (i8* (%class.cNamedObject*)* @_ZNK12cNamedObject7getNameEv to i8*), i8* bitcast (i8* (%class.cObject*)* @_ZNK7cObject11getFullNameEv to i8*), i8* bitcast (void (%"class.std::__cxx11::basic_string"*, %class.cObject*)* @_ZNK7cObject11getFullPathB5cxx11Ev to i8*), i8* bitcast (void (%"class.std::__cxx11::basic_string"*, %class.cPacket*)* @_ZNK7cPacket4infoB5cxx11Ev to i8*), i8* bitcast (void (%"class.std::__cxx11::basic_string"*, %class.cPacket*)* @_ZNK7cPacket12detailedInfoB5cxx11Ev to i8*), i8* bitcast (%class.EtherAppResp* (%class.EtherAppResp*)* @_ZNK12EtherAppResp3dupEv to i8*), i8* bitcast (void (%class.cObject*, %class.cOwnedObject*)* @_ZN7cObject4takeEP12cOwnedObject to i8*), i8* bitcast (void (%class.cObject*, %class.cOwnedObject*)* @_ZN7cObject4dropEP12cOwnedObject to i8*), i8* bitcast (void (%class.EtherAppResp*, %class.cCommBuffer*)* @_ZN12EtherAppResp10parsimPackEP11cCommBuffer to i8*), i8* bitcast (void (%class.EtherAppResp*, %class.cCommBuffer*)* @_ZN12EtherAppResp12parsimUnpackEP11cCommBuffer to i8*), i8* bitcast (%class.cObject* (%class.cOwnedObject*)* @_ZNK12cOwnedObject8getOwnerEv to i8*), i8* bitcast (i1 (%class.cOwnedObject*)* @_ZNK12cOwnedObject13isOwnedObjectEv to i8*), i8* bitcast (void (%class.cPacket*, %class.cVisitor*)* @_ZN7cPacket12forEachChildEP8cVisitor to i8*), i8* bitcast (void (%class.cNamedObject*, i8*)* @_ZN12cNamedObject7setNameEPKc to i8*), i8* bitcast (void (%class.cNamedObject*, i1)* @_ZN12cNamedObject14setNamePoolingEb to i8*), i8* bitcast (i1 (%class.cNamedObject*)* @_ZN12cNamedObject14getNamePoolingEv to i8*), i8* bitcast (void (%class.cOwnedObject*)* @_ZN12cOwnedObject23removeFromOwnershipTreeEv to i8*), i8* bitcast (i1 (%class.cOwnedObject*)* @_ZNK12cOwnedObject11isSoftOwnerEv to i8*), i8* bitcast (i1 (%class.cPacket*)* @_ZNK7cPacket8isPacketEv to i8*), i8* bitcast (i8* (%class.cMessage*)* @_ZNK8cMessage16getDisplayStringEv to i8*), i8* bitcast (i32 (%class.EtherAppResp*)* @_ZNK12EtherAppResp12getRequestIdEv to i8*), i8* bitcast (void (%class.EtherAppResp*, i32)* @_ZN12EtherAppResp12setRequestIdEi to i8*), i8* bitcast (i32 (%class.EtherAppResp*)* @_ZNK12EtherAppResp12getNumFramesEv to i8*), i8* bitcast (void (%class.EtherAppResp*, i32)* @_ZN12EtherAppResp12setNumFramesEi to i8*)] }, align 8
@_ZN12_GLOBAL__N_119__onstartup_obj_357E = internal global %class.ExecuteOnStartup zeroinitializer, align 8, !dbg !55
@.str.9 = private unnamed_addr constant [13 x i8] c"EtherAppResp\00", align 1
@_ZTV22EtherAppRespDescriptor = dso_local unnamed_addr constant { [40 x i8*] } { [40 x i8*] [i8* null, i8* bitcast ({ i8*, i8*, i8* }* @_ZTI22EtherAppRespDescriptor to i8*), i8* bitcast (%class.cClassDescriptor* (%class.cObject*)* @_ZN7cObject13getDescriptorEv to i8*), i8* bitcast (void (%class.cObject*, %class.cOwnedObject*)* @_ZN7cObject18ownedObjectDeletedEP12cOwnedObject to i8*), i8* bitcast (void (%class.cObject*, %class.cOwnedObject*, %class.cObject*)* @_ZN7cObject14yieldOwnershipEP12cOwnedObjectPS_ to i8*), i8* bitcast (void (%class.EtherAppRespDescriptor*)* @_ZN22EtherAppRespDescriptorD1Ev to i8*), i8* bitcast (void (%class.EtherAppRespDescriptor*)* @_ZN22EtherAppRespDescriptorD0Ev to i8*), i8* bitcast (i8* (%class.cObject*)* @_ZNK7cObject12getClassNameEv to i8*), i8* bitcast (i8* (%class.cNamedObject*)* @_ZNK12cNamedObject7getNameEv to i8*), i8* bitcast (i8* (%class.cObject*)* @_ZNK7cObject11getFullNameEv to i8*), i8* bitcast (void (%"class.std::__cxx11::basic_string"*, %class.cObject*)* @_ZNK7cObject11getFullPathB5cxx11Ev to i8*), i8* bitcast (void (%"class.std::__cxx11::basic_string"*, %class.cObject*)* @_ZNK7cObject4infoB5cxx11Ev to i8*), i8* bitcast (void (%"class.std::__cxx11::basic_string"*, %class.cObject*)* @_ZNK7cObject12detailedInfoB5cxx11Ev to i8*), i8* bitcast (%class.cNoncopyableOwnedObject* (%class.cNoncopyableOwnedObject*)* @_ZNK23cNoncopyableOwnedObject3dupEv to i8*), i8* bitcast (void (%class.cObject*, %class.cOwnedObject*)* @_ZN7cObject4takeEP12cOwnedObject to i8*), i8* bitcast (void (%class.cObject*, %class.cOwnedObject*)* @_ZN7cObject4dropEP12cOwnedObject to i8*), i8* bitcast (void (%class.cNoncopyableOwnedObject*, %class.cCommBuffer*)* @_ZN23cNoncopyableOwnedObject10parsimPackEP11cCommBuffer to i8*), i8* bitcast (void (%class.cNoncopyableOwnedObject*, %class.cCommBuffer*)* @_ZN23cNoncopyableOwnedObject12parsimUnpackEP11cCommBuffer to i8*), i8* bitcast (%class.cObject* (%class.cOwnedObject*)* @_ZNK12cOwnedObject8getOwnerEv to i8*), i8* bitcast (i1 (%class.cOwnedObject*)* @_ZNK12cOwnedObject13isOwnedObjectEv to i8*), i8* bitcast (void (%class.cObject*, %class.cVisitor*)* @_ZN7cObject12forEachChildEP8cVisitor to i8*), i8* bitcast (void (%class.cNamedObject*, i8*)* @_ZN12cNamedObject7setNameEPKc to i8*), i8* bitcast (void (%class.cNamedObject*, i1)* @_ZN12cNamedObject14setNamePoolingEb to i8*), i8* bitcast (i1 (%class.cNamedObject*)* @_ZN12cNamedObject14getNamePoolingEv to i8*), i8* bitcast (void (%class.cOwnedObject*)* @_ZN12cOwnedObject23removeFromOwnershipTreeEv to i8*), i8* bitcast (i1 (%class.cOwnedObject*)* @_ZNK12cOwnedObject11isSoftOwnerEv to i8*), i8* bitcast (i1 (%class.EtherAppRespDescriptor*, %class.cObject*)* @_ZNK22EtherAppRespDescriptor11doesSupportEP7cObject to i8*), i8* bitcast (%class.cClassDescriptor* (%class.cClassDescriptor*)* @_ZNK16cClassDescriptor22getBaseClassDescriptorEv to i8*), i8* bitcast (i8* (%class.EtherAppRespDescriptor*, i8*)* @_ZNK22EtherAppRespDescriptor11getPropertyEPKc to i8*), i8* bitcast (i32 (%class.EtherAppRespDescriptor*, i8*)* @_ZNK22EtherAppRespDescriptor13getFieldCountEPv to i8*), i8* bitcast (i8* (%class.EtherAppRespDescriptor*, i8*, i32)* @_ZNK22EtherAppRespDescriptor12getFieldNameEPvi to i8*), i8* bitcast (i32 (%class.EtherAppRespDescriptor*, i8*, i32)* @_ZNK22EtherAppRespDescriptor17getFieldTypeFlagsEPvi to i8*), i8* bitcast (i8* (%class.cClassDescriptor*, i8*, i32)* @_ZNK16cClassDescriptor18getFieldDeclaredOnEPvi to i8*), i8* bitcast (i8* (%class.EtherAppRespDescriptor*, i8*, i32)* @_ZNK22EtherAppRespDescriptor18getFieldTypeStringEPvi to i8*), i8* bitcast (i8* (%class.EtherAppRespDescriptor*, i8*, i32, i8*)* @_ZNK22EtherAppRespDescriptor16getFieldPropertyEPviPKc to i8*), i8* bitcast (i32 (%class.EtherAppRespDescriptor*, i8*, i32)* @_ZNK22EtherAppRespDescriptor12getArraySizeEPvi to i8*), i8* bitcast (i1 (%class.EtherAppRespDescriptor*, i8*, i32, i32, i8*, i32)* @_ZNK22EtherAppRespDescriptor16getFieldAsStringEPviiPci to i8*), i8* bitcast (i1 (%class.EtherAppRespDescriptor*, i8*, i32, i32, i8*)* @_ZNK22EtherAppRespDescriptor16setFieldAsStringEPviiPKc to i8*), i8* bitcast (i8* (%class.EtherAppRespDescriptor*, i8*, i32)* @_ZNK22EtherAppRespDescriptor18getFieldStructNameEPvi to i8*), i8* bitcast (i8* (%class.EtherAppRespDescriptor*, i8*, i32, i32)* @_ZNK22EtherAppRespDescriptor21getFieldStructPointerEPvii to i8*)] }, align 8
@_ZTS12EtherAppResp = dso_local constant [15 x i8] c"12EtherAppResp\00", align 1
@_ZTI12EtherAppResp = dso_local constant { i8*, i8*, i8* } { i8* bitcast (i8** getelementptr inbounds (i8*, i8** @_ZTVN10__cxxabiv120__si_class_type_infoE, i64 2) to i8*), i8* getelementptr inbounds ([15 x i8], [15 x i8]* @_ZTS12EtherAppResp, i32 0, i32 0), i8* bitcast (i8** @_ZTI7cPacket to i8*) }, align 8
@.str.10 = private unnamed_addr constant [10 x i8] c"numFrames\00", align 1
@.str.11 = private unnamed_addr constant [4 x i8] c"int\00", align 1
@_ZTS21EtherAppReqDescriptor = dso_local constant [24 x i8] c"21EtherAppReqDescriptor\00", align 1
@_ZTI16cClassDescriptor = external dso_local constant i8*
@_ZTI21EtherAppReqDescriptor = dso_local constant { i8*, i8*, i8* } { i8* bitcast (i8** getelementptr inbounds (i8*, i8** @_ZTVN10__cxxabiv120__si_class_type_infoE, i64 2) to i8*), i8* getelementptr inbounds ([24 x i8], [24 x i8]* @_ZTS21EtherAppReqDescriptor, i32 0, i32 0), i8* bitcast (i8** @_ZTI16cClassDescriptor to i8*) }, align 8
@_ZTS22EtherAppRespDescriptor = dso_local constant [25 x i8] c"22EtherAppRespDescriptor\00", align 1
@_ZTI22EtherAppRespDescriptor = dso_local constant { i8*, i8*, i8* } { i8* bitcast (i8** getelementptr inbounds (i8*, i8** @_ZTVN10__cxxabiv120__si_class_type_infoE, i64 2) to i8*), i8* getelementptr inbounds ([25 x i8], [25 x i8]* @_ZTS22EtherAppRespDescriptor, i32 0, i32 0), i8* bitcast (i8** @_ZTI16cClassDescriptor to i8*) }, align 8
@classes = external dso_local global %class.cGlobalRegistrationList, align 8
@classDescriptors = external dso_local global %class.cGlobalRegistrationList, align 8
@.str.12 = private unnamed_addr constant [1 x i8] zeroinitializer, align 1
@llvm.global_ctors = appending global [1 x { i32, void ()*, i8* }] [{ i32, void ()*, i8* } { i32 65535, void ()* @_GLOBAL__sub_I_EtherApp_m.cc, i8* null }]

@_ZN11EtherAppReqC1EPKci = dso_local unnamed_addr alias void (%class.EtherAppReq*, i8*, i32), void (%class.EtherAppReq*, i8*, i32)* @_ZN11EtherAppReqC2EPKci
@_ZN11EtherAppReqC1ERKS_ = dso_local unnamed_addr alias void (%class.EtherAppReq*, %class.EtherAppReq*), void (%class.EtherAppReq*, %class.EtherAppReq*)* @_ZN11EtherAppReqC2ERKS_
@_ZN11EtherAppReqD1Ev = dso_local unnamed_addr alias void (%class.EtherAppReq*), void (%class.EtherAppReq*)* @_ZN11EtherAppReqD2Ev
@_ZN21EtherAppReqDescriptorC1Ev = dso_local unnamed_addr alias void (%class.EtherAppReqDescriptor*), void (%class.EtherAppReqDescriptor*)* @_ZN21EtherAppReqDescriptorC2Ev
@_ZN21EtherAppReqDescriptorD1Ev = dso_local unnamed_addr alias void (%class.EtherAppReqDescriptor*), void (%class.EtherAppReqDescriptor*)* @_ZN21EtherAppReqDescriptorD2Ev
@_ZN12EtherAppRespC1EPKci = dso_local unnamed_addr alias void (%class.EtherAppResp*, i8*, i32), void (%class.EtherAppResp*, i8*, i32)* @_ZN12EtherAppRespC2EPKci
@_ZN12EtherAppRespC1ERKS_ = dso_local unnamed_addr alias void (%class.EtherAppResp*, %class.EtherAppResp*), void (%class.EtherAppResp*, %class.EtherAppResp*)* @_ZN12EtherAppRespC2ERKS_
@_ZN12EtherAppRespD1Ev = dso_local unnamed_addr alias void (%class.EtherAppResp*), void (%class.EtherAppResp*)* @_ZN12EtherAppRespD2Ev
@_ZN22EtherAppRespDescriptorC1Ev = dso_local unnamed_addr alias void (%class.EtherAppRespDescriptor*), void (%class.EtherAppRespDescriptor*)* @_ZN22EtherAppRespDescriptorC2Ev
@_ZN22EtherAppRespDescriptorD1Ev = dso_local unnamed_addr alias void (%class.EtherAppRespDescriptor*), void (%class.EtherAppRespDescriptor*)* @_ZN22EtherAppRespDescriptorD2Ev

; Function Attrs: noinline uwtable
define internal void @__cxx_global_var_init() #0 section ".text.startup" !dbg !1442 {
entry:
  call void @_ZNSt8ios_base4InitC1Ev(%"class.std::ios_base::Init"* @_ZStL8__ioinit), !dbg !1444
  %0 = call i32 @__cxa_atexit(void (i8*)* bitcast (void (%"class.std::ios_base::Init"*)* @_ZNSt8ios_base4InitD1Ev to void (i8*)*), i8* getelementptr inbounds (%"class.std::ios_base::Init", %"class.std::ios_base::Init"* @_ZStL8__ioinit, i32 0, i32 0), i8* @__dso_handle) #3, !dbg !1444
  ret void, !dbg !1444
}

declare dso_local void @_ZNSt8ios_base4InitC1Ev(%"class.std::ios_base::Init"*) unnamed_addr #1

; Function Attrs: nounwind
declare dso_local void @_ZNSt8ios_base4InitD1Ev(%"class.std::ios_base::Init"*) unnamed_addr #2

; Function Attrs: nounwind
declare dso_local i32 @__cxa_atexit(void (i8*)*, i8*, i8*) #3

; Function Attrs: noinline uwtable
define internal void @__cxx_global_var_init.1() #0 section ".text.startup" !dbg !1445 {
entry:
  call void @_ZN16ExecuteOnStartupC1EPFvvE(%class.ExecuteOnStartup* @_ZN12_GLOBAL__N_118__onstartup_obj_33E, void ()* @_ZN12_GLOBAL__N_119__onstartup_func_33Ev), !dbg !1446
  %0 = call i32 @__cxa_atexit(void (i8*)* bitcast (void (%class.ExecuteOnStartup*)* @_ZN16ExecuteOnStartupD1Ev to void (i8*)*), i8* bitcast (%class.ExecuteOnStartup* @_ZN12_GLOBAL__N_118__onstartup_obj_33E to i8*), i8* @__dso_handle) #3, !dbg !1446
  ret void, !dbg !1446
}

; Function Attrs: noinline uwtable
define internal void @_ZN12_GLOBAL__N_119__onstartup_func_33Ev() #0 personality i8* bitcast (i32 (...)* @__gxx_personality_v0 to i8*) !dbg !1447 {
entry:
  %exn.slot = alloca i8*
  %ehselector.slot = alloca i32
  %call = call %class.cRegistrationList* @_ZN23cGlobalRegistrationList11getInstanceEv(%class.cGlobalRegistrationList* @classes), !dbg !1448
  %call1 = call i8* @_Znwm(i64 80) #9, !dbg !1448
  %0 = bitcast i8* %call1 to %class.cClassFactory*, !dbg !1448
  %call2 = invoke i8* @_Z12opp_typenameRKSt9type_info(%"class.std::type_info"* dereferenceable(16) bitcast ({ i8*, i8*, i8* }* @_ZTI11EtherAppReq to %"class.std::type_info"*))
          to label %invoke.cont unwind label %lpad, !dbg !1448

invoke.cont:                                      ; preds = %entry
  invoke void @_ZN13cClassFactoryC1EPKcPFP7cObjectvES1_(%class.cClassFactory* %0, i8* %call2, %class.cObject* ()* @_ZL15__uniquename_33v, i8* null)
          to label %invoke.cont3 unwind label %lpad, !dbg !1448

invoke.cont3:                                     ; preds = %invoke.cont
  %1 = bitcast %class.cClassFactory* %0 to %class.cOwnedObject*, !dbg !1448
  %2 = bitcast %class.cRegistrationList* %call to void (%class.cRegistrationList*, %class.cOwnedObject*)***, !dbg !1448
  %vtable = load void (%class.cRegistrationList*, %class.cOwnedObject*)**, void (%class.cRegistrationList*, %class.cOwnedObject*)*** %2, align 8, !dbg !1448
  %vfn = getelementptr inbounds void (%class.cRegistrationList*, %class.cOwnedObject*)*, void (%class.cRegistrationList*, %class.cOwnedObject*)** %vtable, i64 22, !dbg !1448
  %3 = load void (%class.cRegistrationList*, %class.cOwnedObject*)*, void (%class.cRegistrationList*, %class.cOwnedObject*)** %vfn, align 8, !dbg !1448
  call void %3(%class.cRegistrationList* %call, %class.cOwnedObject* %1), !dbg !1448
  ret void, !dbg !1448

lpad:                                             ; preds = %invoke.cont, %entry
  %4 = landingpad { i8*, i32 }
          cleanup, !dbg !1448
  %5 = extractvalue { i8*, i32 } %4, 0, !dbg !1448
  store i8* %5, i8** %exn.slot, align 8, !dbg !1448
  %6 = extractvalue { i8*, i32 } %4, 1, !dbg !1448
  store i32 %6, i32* %ehselector.slot, align 4, !dbg !1448
  call void @_ZdlPv(i8* %call1) #10, !dbg !1448
  br label %eh.resume, !dbg !1448

eh.resume:                                        ; preds = %lpad
  %exn = load i8*, i8** %exn.slot, align 8, !dbg !1448
  %sel = load i32, i32* %ehselector.slot, align 4, !dbg !1448
  %lpad.val = insertvalue { i8*, i32 } undef, i8* %exn, 0, !dbg !1448
  %lpad.val4 = insertvalue { i8*, i32 } %lpad.val, i32 %sel, 1, !dbg !1448
  resume { i8*, i32 } %lpad.val4, !dbg !1448
}

declare dso_local void @_ZN16ExecuteOnStartupC1EPFvvE(%class.ExecuteOnStartup*, void ()*) unnamed_addr #1

; Function Attrs: nounwind
declare dso_local void @_ZN16ExecuteOnStartupD1Ev(%class.ExecuteOnStartup*) unnamed_addr #2

; Function Attrs: noinline uwtable
define dso_local void @_ZN11EtherAppReqC2EPKci(%class.EtherAppReq* %this, i8* %name, i32 %kind) unnamed_addr #0 align 2 !dbg !1449 {
entry:
  %this.addr = alloca %class.EtherAppReq*, align 8
  %name.addr = alloca i8*, align 8
  %kind.addr = alloca i32, align 4
  store %class.EtherAppReq* %this, %class.EtherAppReq** %this.addr, align 8
  call void @llvm.dbg.declare(metadata %class.EtherAppReq** %this.addr, metadata !1450, metadata !DIExpression()), !dbg !1451
  store i8* %name, i8** %name.addr, align 8
  call void @llvm.dbg.declare(metadata i8** %name.addr, metadata !1452, metadata !DIExpression()), !dbg !1453
  store i32 %kind, i32* %kind.addr, align 4
  call void @llvm.dbg.declare(metadata i32* %kind.addr, metadata !1454, metadata !DIExpression()), !dbg !1455
  %this1 = load %class.EtherAppReq*, %class.EtherAppReq** %this.addr, align 8
  %0 = bitcast %class.EtherAppReq* %this1 to %class.cPacket*, !dbg !1456
  %1 = load i8*, i8** %name.addr, align 8, !dbg !1457
  %2 = load i32, i32* %kind.addr, align 4, !dbg !1458
  %conv = trunc i32 %2 to i16, !dbg !1458
  call void @_ZN7cPacketC2EPKcsl(%class.cPacket* %0, i8* %1, i16 signext %conv, i64 0), !dbg !1459
  %3 = bitcast %class.EtherAppReq* %this1 to i32 (...)***, !dbg !1456
  store i32 (...)** bitcast (i8** getelementptr inbounds ({ [32 x i8*] }, { [32 x i8*] }* @_ZTV11EtherAppReq, i32 0, inrange i32 0, i32 2) to i32 (...)**), i32 (...)*** %3, align 8, !dbg !1456
  %requestId_var = getelementptr inbounds %class.EtherAppReq, %class.EtherAppReq* %this1, i32 0, i32 1, !dbg !1460
  store i64 0, i64* %requestId_var, align 8, !dbg !1462
  %responseBytes_var = getelementptr inbounds %class.EtherAppReq, %class.EtherAppReq* %this1, i32 0, i32 2, !dbg !1463
  store i64 0, i64* %responseBytes_var, align 8, !dbg !1464
  ret void, !dbg !1465
}

; Function Attrs: nounwind readnone speculatable willreturn
declare void @llvm.dbg.declare(metadata, metadata, metadata) #4

declare dso_local void @_ZN7cPacketC2EPKcsl(%class.cPacket*, i8*, i16 signext, i64) unnamed_addr #1

; Function Attrs: noinline uwtable
define dso_local void @_ZN11EtherAppReqC2ERKS_(%class.EtherAppReq* %this, %class.EtherAppReq* dereferenceable(208) %other) unnamed_addr #0 align 2 personality i8* bitcast (i32 (...)* @__gxx_personality_v0 to i8*) !dbg !1466 {
entry:
  %this.addr = alloca %class.EtherAppReq*, align 8
  %other.addr = alloca %class.EtherAppReq*, align 8
  %exn.slot = alloca i8*
  %ehselector.slot = alloca i32
  store %class.EtherAppReq* %this, %class.EtherAppReq** %this.addr, align 8
  call void @llvm.dbg.declare(metadata %class.EtherAppReq** %this.addr, metadata !1467, metadata !DIExpression()), !dbg !1468
  store %class.EtherAppReq* %other, %class.EtherAppReq** %other.addr, align 8
  call void @llvm.dbg.declare(metadata %class.EtherAppReq** %other.addr, metadata !1469, metadata !DIExpression()), !dbg !1470
  %this1 = load %class.EtherAppReq*, %class.EtherAppReq** %this.addr, align 8
  %0 = bitcast %class.EtherAppReq* %this1 to %class.cPacket*, !dbg !1471
  call void @_ZN7cPacketC2EPKcsl(%class.cPacket* %0, i8* null, i16 signext 0, i64 0), !dbg !1472
  %1 = bitcast %class.EtherAppReq* %this1 to i32 (...)***, !dbg !1471
  store i32 (...)** bitcast (i8** getelementptr inbounds ({ [32 x i8*] }, { [32 x i8*] }* @_ZTV11EtherAppReq, i32 0, inrange i32 0, i32 2) to i32 (...)**), i32 (...)*** %1, align 8, !dbg !1471
  %2 = bitcast %class.EtherAppReq* %this1 to %class.cNamedObject*, !dbg !1473
  %3 = load %class.EtherAppReq*, %class.EtherAppReq** %other.addr, align 8, !dbg !1475
  %4 = bitcast %class.EtherAppReq* %3 to %class.cNamedObject*, !dbg !1475
  %5 = bitcast %class.cNamedObject* %4 to i8* (%class.cNamedObject*)***, !dbg !1476
  %vtable = load i8* (%class.cNamedObject*)**, i8* (%class.cNamedObject*)*** %5, align 8, !dbg !1476
  %vfn = getelementptr inbounds i8* (%class.cNamedObject*)*, i8* (%class.cNamedObject*)** %vtable, i64 6, !dbg !1476
  %6 = load i8* (%class.cNamedObject*)*, i8* (%class.cNamedObject*)** %vfn, align 8, !dbg !1476
  %call = invoke i8* %6(%class.cNamedObject* %4)
          to label %invoke.cont unwind label %lpad, !dbg !1476

invoke.cont:                                      ; preds = %entry
  %7 = bitcast %class.cNamedObject* %2 to void (%class.cNamedObject*, i8*)***, !dbg !1473
  %vtable2 = load void (%class.cNamedObject*, i8*)**, void (%class.cNamedObject*, i8*)*** %7, align 8, !dbg !1473
  %vfn3 = getelementptr inbounds void (%class.cNamedObject*, i8*)*, void (%class.cNamedObject*, i8*)** %vtable2, i64 19, !dbg !1473
  %8 = load void (%class.cNamedObject*, i8*)*, void (%class.cNamedObject*, i8*)** %vfn3, align 8, !dbg !1473
  invoke void %8(%class.cNamedObject* %2, i8* %call)
          to label %invoke.cont4 unwind label %lpad, !dbg !1473

invoke.cont4:                                     ; preds = %invoke.cont
  %9 = load %class.EtherAppReq*, %class.EtherAppReq** %other.addr, align 8, !dbg !1477
  %call6 = invoke dereferenceable(208) %class.EtherAppReq* @_ZN11EtherAppReqaSERKS_(%class.EtherAppReq* %this1, %class.EtherAppReq* dereferenceable(208) %9)
          to label %invoke.cont5 unwind label %lpad, !dbg !1478

invoke.cont5:                                     ; preds = %invoke.cont4
  ret void, !dbg !1479

lpad:                                             ; preds = %invoke.cont4, %invoke.cont, %entry
  %10 = landingpad { i8*, i32 }
          cleanup, !dbg !1480
  %11 = extractvalue { i8*, i32 } %10, 0, !dbg !1480
  store i8* %11, i8** %exn.slot, align 8, !dbg !1480
  %12 = extractvalue { i8*, i32 } %10, 1, !dbg !1480
  store i32 %12, i32* %ehselector.slot, align 4, !dbg !1480
  %13 = bitcast %class.EtherAppReq* %this1 to %class.cPacket*, !dbg !1480
  call void @_ZN7cPacketD2Ev(%class.cPacket* %13) #3, !dbg !1480
  br label %eh.resume, !dbg !1480

eh.resume:                                        ; preds = %lpad
  %exn = load i8*, i8** %exn.slot, align 8, !dbg !1480
  %sel = load i32, i32* %ehselector.slot, align 4, !dbg !1480
  %lpad.val = insertvalue { i8*, i32 } undef, i8* %exn, 0, !dbg !1480
  %lpad.val7 = insertvalue { i8*, i32 } %lpad.val, i32 %sel, 1, !dbg !1480
  resume { i8*, i32 } %lpad.val7, !dbg !1480
}

declare dso_local i32 @__gxx_personality_v0(...)

; Function Attrs: noinline uwtable
define dso_local dereferenceable(208) %class.EtherAppReq* @_ZN11EtherAppReqaSERKS_(%class.EtherAppReq* %this, %class.EtherAppReq* dereferenceable(208) %other) #0 align 2 !dbg !1481 {
entry:
  %retval = alloca %class.EtherAppReq*, align 8
  %this.addr = alloca %class.EtherAppReq*, align 8
  %other.addr = alloca %class.EtherAppReq*, align 8
  store %class.EtherAppReq* %this, %class.EtherAppReq** %this.addr, align 8
  call void @llvm.dbg.declare(metadata %class.EtherAppReq** %this.addr, metadata !1482, metadata !DIExpression()), !dbg !1483
  store %class.EtherAppReq* %other, %class.EtherAppReq** %other.addr, align 8
  call void @llvm.dbg.declare(metadata %class.EtherAppReq** %other.addr, metadata !1484, metadata !DIExpression()), !dbg !1485
  %this1 = load %class.EtherAppReq*, %class.EtherAppReq** %this.addr, align 8
  %0 = load %class.EtherAppReq*, %class.EtherAppReq** %other.addr, align 8, !dbg !1486
  %cmp = icmp eq %class.EtherAppReq* %this1, %0, !dbg !1488
  br i1 %cmp, label %if.then, label %if.end, !dbg !1489

if.then:                                          ; preds = %entry
  store %class.EtherAppReq* %this1, %class.EtherAppReq** %retval, align 8, !dbg !1490
  br label %return, !dbg !1490

if.end:                                           ; preds = %entry
  %1 = bitcast %class.EtherAppReq* %this1 to %class.cPacket*, !dbg !1491
  %2 = load %class.EtherAppReq*, %class.EtherAppReq** %other.addr, align 8, !dbg !1492
  %3 = bitcast %class.EtherAppReq* %2 to %class.cPacket*, !dbg !1492
  %call = call dereferenceable(192) %class.cPacket* @_ZN7cPacketaSERKS_(%class.cPacket* %1, %class.cPacket* dereferenceable(192) %3), !dbg !1491
  %4 = load %class.EtherAppReq*, %class.EtherAppReq** %other.addr, align 8, !dbg !1493
  %requestId_var = getelementptr inbounds %class.EtherAppReq, %class.EtherAppReq* %4, i32 0, i32 1, !dbg !1494
  %5 = load i64, i64* %requestId_var, align 8, !dbg !1494
  %requestId_var2 = getelementptr inbounds %class.EtherAppReq, %class.EtherAppReq* %this1, i32 0, i32 1, !dbg !1495
  store i64 %5, i64* %requestId_var2, align 8, !dbg !1496
  %6 = load %class.EtherAppReq*, %class.EtherAppReq** %other.addr, align 8, !dbg !1497
  %responseBytes_var = getelementptr inbounds %class.EtherAppReq, %class.EtherAppReq* %6, i32 0, i32 2, !dbg !1498
  %7 = load i64, i64* %responseBytes_var, align 8, !dbg !1498
  %responseBytes_var3 = getelementptr inbounds %class.EtherAppReq, %class.EtherAppReq* %this1, i32 0, i32 2, !dbg !1499
  store i64 %7, i64* %responseBytes_var3, align 8, !dbg !1500
  store %class.EtherAppReq* %this1, %class.EtherAppReq** %retval, align 8, !dbg !1501
  br label %return, !dbg !1501

return:                                           ; preds = %if.end, %if.then
  %8 = load %class.EtherAppReq*, %class.EtherAppReq** %retval, align 8, !dbg !1502
  ret %class.EtherAppReq* %8, !dbg !1502
}

; Function Attrs: nounwind
declare dso_local void @_ZN7cPacketD2Ev(%class.cPacket*) unnamed_addr #2

; Function Attrs: noinline nounwind uwtable
define dso_local void @_ZN11EtherAppReqD2Ev(%class.EtherAppReq* %this) unnamed_addr #5 align 2 !dbg !1503 {
entry:
  %this.addr = alloca %class.EtherAppReq*, align 8
  store %class.EtherAppReq* %this, %class.EtherAppReq** %this.addr, align 8
  call void @llvm.dbg.declare(metadata %class.EtherAppReq** %this.addr, metadata !1504, metadata !DIExpression()), !dbg !1505
  %this1 = load %class.EtherAppReq*, %class.EtherAppReq** %this.addr, align 8
  %0 = bitcast %class.EtherAppReq* %this1 to %class.cPacket*, !dbg !1506
  call void @_ZN7cPacketD2Ev(%class.cPacket* %0) #3, !dbg !1506
  ret void, !dbg !1508
}

; Function Attrs: noinline nounwind uwtable
define dso_local void @_ZN11EtherAppReqD0Ev(%class.EtherAppReq* %this) unnamed_addr #5 align 2 !dbg !1509 {
entry:
  %this.addr = alloca %class.EtherAppReq*, align 8
  store %class.EtherAppReq* %this, %class.EtherAppReq** %this.addr, align 8
  call void @llvm.dbg.declare(metadata %class.EtherAppReq** %this.addr, metadata !1510, metadata !DIExpression()), !dbg !1511
  %this1 = load %class.EtherAppReq*, %class.EtherAppReq** %this.addr, align 8
  call void @_ZN11EtherAppReqD1Ev(%class.EtherAppReq* %this1) #3, !dbg !1512
  %0 = bitcast %class.EtherAppReq* %this1 to i8*, !dbg !1512
  call void @_ZdlPv(i8* %0) #10, !dbg !1512
  ret void, !dbg !1513
}

; Function Attrs: nobuiltin nounwind
declare dso_local void @_ZdlPv(i8*) #6

declare dso_local dereferenceable(192) %class.cPacket* @_ZN7cPacketaSERKS_(%class.cPacket*, %class.cPacket* dereferenceable(192)) #1

; Function Attrs: noinline uwtable
define dso_local void @_ZN11EtherAppReq10parsimPackEP11cCommBuffer(%class.EtherAppReq* %this, %class.cCommBuffer* %b) unnamed_addr #0 align 2 !dbg !1514 {
entry:
  %this.addr = alloca %class.EtherAppReq*, align 8
  %b.addr = alloca %class.cCommBuffer*, align 8
  store %class.EtherAppReq* %this, %class.EtherAppReq** %this.addr, align 8
  call void @llvm.dbg.declare(metadata %class.EtherAppReq** %this.addr, metadata !1515, metadata !DIExpression()), !dbg !1516
  store %class.cCommBuffer* %b, %class.cCommBuffer** %b.addr, align 8
  call void @llvm.dbg.declare(metadata %class.cCommBuffer** %b.addr, metadata !1517, metadata !DIExpression()), !dbg !1518
  %this1 = load %class.EtherAppReq*, %class.EtherAppReq** %this.addr, align 8
  %0 = bitcast %class.EtherAppReq* %this1 to %class.cPacket*, !dbg !1519
  %1 = load %class.cCommBuffer*, %class.cCommBuffer** %b.addr, align 8, !dbg !1520
  call void @_ZN7cPacket10parsimPackEP11cCommBuffer(%class.cPacket* %0, %class.cCommBuffer* %1), !dbg !1519
  %2 = load %class.cCommBuffer*, %class.cCommBuffer** %b.addr, align 8, !dbg !1521
  %requestId_var = getelementptr inbounds %class.EtherAppReq, %class.EtherAppReq* %this1, i32 0, i32 1, !dbg !1522
  %3 = load i64, i64* %requestId_var, align 8, !dbg !1522
  call void @_Z9doPackingP11cCommBufferl(%class.cCommBuffer* %2, i64 %3), !dbg !1523
  %4 = load %class.cCommBuffer*, %class.cCommBuffer** %b.addr, align 8, !dbg !1524
  %responseBytes_var = getelementptr inbounds %class.EtherAppReq, %class.EtherAppReq* %this1, i32 0, i32 2, !dbg !1525
  %5 = load i64, i64* %responseBytes_var, align 8, !dbg !1525
  call void @_Z9doPackingP11cCommBufferl(%class.cCommBuffer* %4, i64 %5), !dbg !1526
  ret void, !dbg !1527
}

declare dso_local void @_ZN7cPacket10parsimPackEP11cCommBuffer(%class.cPacket*, %class.cCommBuffer*) unnamed_addr #1

; Function Attrs: noinline uwtable
define linkonce_odr dso_local void @_Z9doPackingP11cCommBufferl(%class.cCommBuffer* %b, i64 %a) #0 comdat !dbg !1528 {
entry:
  %b.addr = alloca %class.cCommBuffer*, align 8
  %a.addr = alloca i64, align 8
  store %class.cCommBuffer* %b, %class.cCommBuffer** %b.addr, align 8
  call void @llvm.dbg.declare(metadata %class.cCommBuffer** %b.addr, metadata !1532, metadata !DIExpression()), !dbg !1533
  store i64 %a, i64* %a.addr, align 8
  call void @llvm.dbg.declare(metadata i64* %a.addr, metadata !1534, metadata !DIExpression()), !dbg !1533
  %0 = load %class.cCommBuffer*, %class.cCommBuffer** %b.addr, align 8, !dbg !1533
  %1 = load i64, i64* %a.addr, align 8, !dbg !1533
  %2 = bitcast %class.cCommBuffer* %0 to void (%class.cCommBuffer*, i64)***, !dbg !1533
  %vtable = load void (%class.cCommBuffer*, i64)**, void (%class.cCommBuffer*, i64)*** %2, align 8, !dbg !1533
  %vfn = getelementptr inbounds void (%class.cCommBuffer*, i64)*, void (%class.cCommBuffer*, i64)** %vtable, i64 28, !dbg !1533
  %3 = load void (%class.cCommBuffer*, i64)*, void (%class.cCommBuffer*, i64)** %vfn, align 8, !dbg !1533
  call void %3(%class.cCommBuffer* %0, i64 %1), !dbg !1533
  ret void, !dbg !1533
}

; Function Attrs: noinline uwtable
define dso_local void @_ZN11EtherAppReq12parsimUnpackEP11cCommBuffer(%class.EtherAppReq* %this, %class.cCommBuffer* %b) unnamed_addr #0 align 2 !dbg !1535 {
entry:
  %this.addr = alloca %class.EtherAppReq*, align 8
  %b.addr = alloca %class.cCommBuffer*, align 8
  store %class.EtherAppReq* %this, %class.EtherAppReq** %this.addr, align 8
  call void @llvm.dbg.declare(metadata %class.EtherAppReq** %this.addr, metadata !1536, metadata !DIExpression()), !dbg !1537
  store %class.cCommBuffer* %b, %class.cCommBuffer** %b.addr, align 8
  call void @llvm.dbg.declare(metadata %class.cCommBuffer** %b.addr, metadata !1538, metadata !DIExpression()), !dbg !1539
  %this1 = load %class.EtherAppReq*, %class.EtherAppReq** %this.addr, align 8
  %0 = bitcast %class.EtherAppReq* %this1 to %class.cPacket*, !dbg !1540
  %1 = load %class.cCommBuffer*, %class.cCommBuffer** %b.addr, align 8, !dbg !1541
  call void @_ZN7cPacket12parsimUnpackEP11cCommBuffer(%class.cPacket* %0, %class.cCommBuffer* %1), !dbg !1540
  %2 = load %class.cCommBuffer*, %class.cCommBuffer** %b.addr, align 8, !dbg !1542
  %requestId_var = getelementptr inbounds %class.EtherAppReq, %class.EtherAppReq* %this1, i32 0, i32 1, !dbg !1543
  call void @_Z11doUnpackingP11cCommBufferRl(%class.cCommBuffer* %2, i64* dereferenceable(8) %requestId_var), !dbg !1544
  %3 = load %class.cCommBuffer*, %class.cCommBuffer** %b.addr, align 8, !dbg !1545
  %responseBytes_var = getelementptr inbounds %class.EtherAppReq, %class.EtherAppReq* %this1, i32 0, i32 2, !dbg !1546
  call void @_Z11doUnpackingP11cCommBufferRl(%class.cCommBuffer* %3, i64* dereferenceable(8) %responseBytes_var), !dbg !1547
  ret void, !dbg !1548
}

declare dso_local void @_ZN7cPacket12parsimUnpackEP11cCommBuffer(%class.cPacket*, %class.cCommBuffer*) unnamed_addr #1

; Function Attrs: noinline uwtable
define linkonce_odr dso_local void @_Z11doUnpackingP11cCommBufferRl(%class.cCommBuffer* %b, i64* dereferenceable(8) %a) #0 comdat !dbg !1549 {
entry:
  %b.addr = alloca %class.cCommBuffer*, align 8
  %a.addr = alloca i64*, align 8
  store %class.cCommBuffer* %b, %class.cCommBuffer** %b.addr, align 8
  call void @llvm.dbg.declare(metadata %class.cCommBuffer** %b.addr, metadata !1553, metadata !DIExpression()), !dbg !1554
  store i64* %a, i64** %a.addr, align 8
  call void @llvm.dbg.declare(metadata i64** %a.addr, metadata !1555, metadata !DIExpression()), !dbg !1554
  %0 = load %class.cCommBuffer*, %class.cCommBuffer** %b.addr, align 8, !dbg !1554
  %1 = load i64*, i64** %a.addr, align 8, !dbg !1554
  %2 = bitcast %class.cCommBuffer* %0 to void (%class.cCommBuffer*, i64*)***, !dbg !1554
  %vtable = load void (%class.cCommBuffer*, i64*)**, void (%class.cCommBuffer*, i64*)*** %2, align 8, !dbg !1554
  %vfn = getelementptr inbounds void (%class.cCommBuffer*, i64*)*, void (%class.cCommBuffer*, i64*)** %vtable, i64 62, !dbg !1554
  %3 = load void (%class.cCommBuffer*, i64*)*, void (%class.cCommBuffer*, i64*)** %vfn, align 8, !dbg !1554
  call void %3(%class.cCommBuffer* %0, i64* dereferenceable(8) %1), !dbg !1554
  ret void, !dbg !1554
}

; Function Attrs: noinline nounwind uwtable
define dso_local i64 @_ZNK11EtherAppReq12getRequestIdEv(%class.EtherAppReq* %this) unnamed_addr #5 align 2 !dbg !1556 {
entry:
  %this.addr = alloca %class.EtherAppReq*, align 8
  store %class.EtherAppReq* %this, %class.EtherAppReq** %this.addr, align 8
  call void @llvm.dbg.declare(metadata %class.EtherAppReq** %this.addr, metadata !1557, metadata !DIExpression()), !dbg !1559
  %this1 = load %class.EtherAppReq*, %class.EtherAppReq** %this.addr, align 8
  %requestId_var = getelementptr inbounds %class.EtherAppReq, %class.EtherAppReq* %this1, i32 0, i32 1, !dbg !1560
  %0 = load i64, i64* %requestId_var, align 8, !dbg !1560
  ret i64 %0, !dbg !1561
}

; Function Attrs: noinline nounwind uwtable
define dso_local void @_ZN11EtherAppReq12setRequestIdEl(%class.EtherAppReq* %this, i64 %requestId_var) unnamed_addr #5 align 2 !dbg !1562 {
entry:
  %this.addr = alloca %class.EtherAppReq*, align 8
  %requestId_var.addr = alloca i64, align 8
  store %class.EtherAppReq* %this, %class.EtherAppReq** %this.addr, align 8
  call void @llvm.dbg.declare(metadata %class.EtherAppReq** %this.addr, metadata !1563, metadata !DIExpression()), !dbg !1564
  store i64 %requestId_var, i64* %requestId_var.addr, align 8
  call void @llvm.dbg.declare(metadata i64* %requestId_var.addr, metadata !1565, metadata !DIExpression()), !dbg !1566
  %this1 = load %class.EtherAppReq*, %class.EtherAppReq** %this.addr, align 8
  %0 = load i64, i64* %requestId_var.addr, align 8, !dbg !1567
  %requestId_var2 = getelementptr inbounds %class.EtherAppReq, %class.EtherAppReq* %this1, i32 0, i32 1, !dbg !1568
  store i64 %0, i64* %requestId_var2, align 8, !dbg !1569
  ret void, !dbg !1570
}

; Function Attrs: noinline nounwind uwtable
define dso_local i64 @_ZNK11EtherAppReq16getResponseBytesEv(%class.EtherAppReq* %this) unnamed_addr #5 align 2 !dbg !1571 {
entry:
  %this.addr = alloca %class.EtherAppReq*, align 8
  store %class.EtherAppReq* %this, %class.EtherAppReq** %this.addr, align 8
  call void @llvm.dbg.declare(metadata %class.EtherAppReq** %this.addr, metadata !1572, metadata !DIExpression()), !dbg !1573
  %this1 = load %class.EtherAppReq*, %class.EtherAppReq** %this.addr, align 8
  %responseBytes_var = getelementptr inbounds %class.EtherAppReq, %class.EtherAppReq* %this1, i32 0, i32 2, !dbg !1574
  %0 = load i64, i64* %responseBytes_var, align 8, !dbg !1574
  ret i64 %0, !dbg !1575
}

; Function Attrs: noinline nounwind uwtable
define dso_local void @_ZN11EtherAppReq16setResponseBytesEl(%class.EtherAppReq* %this, i64 %responseBytes_var) unnamed_addr #5 align 2 !dbg !1576 {
entry:
  %this.addr = alloca %class.EtherAppReq*, align 8
  %responseBytes_var.addr = alloca i64, align 8
  store %class.EtherAppReq* %this, %class.EtherAppReq** %this.addr, align 8
  call void @llvm.dbg.declare(metadata %class.EtherAppReq** %this.addr, metadata !1577, metadata !DIExpression()), !dbg !1578
  store i64 %responseBytes_var, i64* %responseBytes_var.addr, align 8
  call void @llvm.dbg.declare(metadata i64* %responseBytes_var.addr, metadata !1579, metadata !DIExpression()), !dbg !1580
  %this1 = load %class.EtherAppReq*, %class.EtherAppReq** %this.addr, align 8
  %0 = load i64, i64* %responseBytes_var.addr, align 8, !dbg !1581
  %responseBytes_var2 = getelementptr inbounds %class.EtherAppReq, %class.EtherAppReq* %this1, i32 0, i32 2, !dbg !1582
  store i64 %0, i64* %responseBytes_var2, align 8, !dbg !1583
  ret void, !dbg !1584
}

; Function Attrs: noinline uwtable
define internal void @__cxx_global_var_init.2() #0 section ".text.startup" !dbg !1585 {
entry:
  call void @_ZN16ExecuteOnStartupC1EPFvvE(%class.ExecuteOnStartup* @_ZN12_GLOBAL__N_119__onstartup_obj_116E, void ()* @_ZN12_GLOBAL__N_120__onstartup_func_116Ev), !dbg !1586
  %0 = call i32 @__cxa_atexit(void (i8*)* bitcast (void (%class.ExecuteOnStartup*)* @_ZN16ExecuteOnStartupD1Ev to void (i8*)*), i8* bitcast (%class.ExecuteOnStartup* @_ZN12_GLOBAL__N_119__onstartup_obj_116E to i8*), i8* @__dso_handle) #3, !dbg !1586
  ret void, !dbg !1586
}

; Function Attrs: noinline uwtable
define internal void @_ZN12_GLOBAL__N_120__onstartup_func_116Ev() #0 personality i8* bitcast (i32 (...)* @__gxx_personality_v0 to i8*) !dbg !1587 {
entry:
  %exn.slot = alloca i8*
  %ehselector.slot = alloca i32
  %call = call %class.cRegistrationList* @_ZN23cGlobalRegistrationList11getInstanceEv(%class.cGlobalRegistrationList* @classDescriptors), !dbg !1588
  %call1 = call i8* @_Znwm(i64 88) #9, !dbg !1588
  %0 = bitcast i8* %call1 to %class.EtherAppReqDescriptor*, !dbg !1588
  invoke void @_ZN21EtherAppReqDescriptorC1Ev(%class.EtherAppReqDescriptor* %0)
          to label %invoke.cont unwind label %lpad, !dbg !1588

invoke.cont:                                      ; preds = %entry
  %1 = bitcast %class.EtherAppReqDescriptor* %0 to %class.cOwnedObject*, !dbg !1588
  %2 = bitcast %class.cRegistrationList* %call to void (%class.cRegistrationList*, %class.cOwnedObject*)***, !dbg !1588
  %vtable = load void (%class.cRegistrationList*, %class.cOwnedObject*)**, void (%class.cRegistrationList*, %class.cOwnedObject*)*** %2, align 8, !dbg !1588
  %vfn = getelementptr inbounds void (%class.cRegistrationList*, %class.cOwnedObject*)*, void (%class.cRegistrationList*, %class.cOwnedObject*)** %vtable, i64 22, !dbg !1588
  %3 = load void (%class.cRegistrationList*, %class.cOwnedObject*)*, void (%class.cRegistrationList*, %class.cOwnedObject*)** %vfn, align 8, !dbg !1588
  call void %3(%class.cRegistrationList* %call, %class.cOwnedObject* %1), !dbg !1588
  ret void, !dbg !1588

lpad:                                             ; preds = %entry
  %4 = landingpad { i8*, i32 }
          cleanup, !dbg !1588
  %5 = extractvalue { i8*, i32 } %4, 0, !dbg !1588
  store i8* %5, i8** %exn.slot, align 8, !dbg !1588
  %6 = extractvalue { i8*, i32 } %4, 1, !dbg !1588
  store i32 %6, i32* %ehselector.slot, align 4, !dbg !1588
  call void @_ZdlPv(i8* %call1) #10, !dbg !1588
  br label %eh.resume, !dbg !1588

eh.resume:                                        ; preds = %lpad
  %exn = load i8*, i8** %exn.slot, align 8, !dbg !1588
  %sel = load i32, i32* %ehselector.slot, align 4, !dbg !1588
  %lpad.val = insertvalue { i8*, i32 } undef, i8* %exn, 0, !dbg !1588
  %lpad.val2 = insertvalue { i8*, i32 } %lpad.val, i32 %sel, 1, !dbg !1588
  resume { i8*, i32 } %lpad.val2, !dbg !1588
}

; Function Attrs: noinline uwtable
define dso_local void @_ZN21EtherAppReqDescriptorC2Ev(%class.EtherAppReqDescriptor* %this) unnamed_addr #0 align 2 !dbg !1589 {
entry:
  %this.addr = alloca %class.EtherAppReqDescriptor*, align 8
  store %class.EtherAppReqDescriptor* %this, %class.EtherAppReqDescriptor** %this.addr, align 8
  call void @llvm.dbg.declare(metadata %class.EtherAppReqDescriptor** %this.addr, metadata !1633, metadata !DIExpression()), !dbg !1635
  %this1 = load %class.EtherAppReqDescriptor*, %class.EtherAppReqDescriptor** %this.addr, align 8
  %0 = bitcast %class.EtherAppReqDescriptor* %this1 to %class.cClassDescriptor*, !dbg !1636
  call void @_ZN16cClassDescriptorC2EPKcS1_(%class.cClassDescriptor* %0, i8* getelementptr inbounds ([12 x i8], [12 x i8]* @.str, i64 0, i64 0), i8* getelementptr inbounds ([8 x i8], [8 x i8]* @.str.3, i64 0, i64 0)), !dbg !1637
  %1 = bitcast %class.EtherAppReqDescriptor* %this1 to i32 (...)***, !dbg !1636
  store i32 (...)** bitcast (i8** getelementptr inbounds ({ [40 x i8*] }, { [40 x i8*] }* @_ZTV21EtherAppReqDescriptor, i32 0, inrange i32 0, i32 2) to i32 (...)**), i32 (...)*** %1, align 8, !dbg !1636
  ret void, !dbg !1638
}

declare dso_local void @_ZN16cClassDescriptorC2EPKcS1_(%class.cClassDescriptor*, i8*, i8*) unnamed_addr #1

; Function Attrs: noinline nounwind uwtable
define dso_local void @_ZN21EtherAppReqDescriptorD2Ev(%class.EtherAppReqDescriptor* %this) unnamed_addr #5 align 2 !dbg !1639 {
entry:
  %this.addr = alloca %class.EtherAppReqDescriptor*, align 8
  store %class.EtherAppReqDescriptor* %this, %class.EtherAppReqDescriptor** %this.addr, align 8
  call void @llvm.dbg.declare(metadata %class.EtherAppReqDescriptor** %this.addr, metadata !1640, metadata !DIExpression()), !dbg !1641
  %this1 = load %class.EtherAppReqDescriptor*, %class.EtherAppReqDescriptor** %this.addr, align 8
  %0 = bitcast %class.EtherAppReqDescriptor* %this1 to %class.cClassDescriptor*, !dbg !1642
  call void @_ZN16cClassDescriptorD2Ev(%class.cClassDescriptor* %0) #3, !dbg !1642
  ret void, !dbg !1644
}

; Function Attrs: nounwind
declare dso_local void @_ZN16cClassDescriptorD2Ev(%class.cClassDescriptor*) unnamed_addr #2

; Function Attrs: noinline nounwind uwtable
define dso_local void @_ZN21EtherAppReqDescriptorD0Ev(%class.EtherAppReqDescriptor* %this) unnamed_addr #5 align 2 !dbg !1645 {
entry:
  %this.addr = alloca %class.EtherAppReqDescriptor*, align 8
  store %class.EtherAppReqDescriptor* %this, %class.EtherAppReqDescriptor** %this.addr, align 8
  call void @llvm.dbg.declare(metadata %class.EtherAppReqDescriptor** %this.addr, metadata !1646, metadata !DIExpression()), !dbg !1647
  %this1 = load %class.EtherAppReqDescriptor*, %class.EtherAppReqDescriptor** %this.addr, align 8
  call void @_ZN21EtherAppReqDescriptorD1Ev(%class.EtherAppReqDescriptor* %this1) #3, !dbg !1648
  %0 = bitcast %class.EtherAppReqDescriptor* %this1 to i8*, !dbg !1648
  call void @_ZdlPv(i8* %0) #10, !dbg !1648
  ret void, !dbg !1649
}

; Function Attrs: noinline nounwind uwtable
define dso_local zeroext i1 @_ZNK21EtherAppReqDescriptor11doesSupportEP7cObject(%class.EtherAppReqDescriptor* %this, %class.cObject* %obj) unnamed_addr #5 align 2 !dbg !1650 {
entry:
  %this.addr = alloca %class.EtherAppReqDescriptor*, align 8
  %obj.addr = alloca %class.cObject*, align 8
  store %class.EtherAppReqDescriptor* %this, %class.EtherAppReqDescriptor** %this.addr, align 8
  call void @llvm.dbg.declare(metadata %class.EtherAppReqDescriptor** %this.addr, metadata !1651, metadata !DIExpression()), !dbg !1653
  store %class.cObject* %obj, %class.cObject** %obj.addr, align 8
  call void @llvm.dbg.declare(metadata %class.cObject** %obj.addr, metadata !1654, metadata !DIExpression()), !dbg !1655
  %this1 = load %class.EtherAppReqDescriptor*, %class.EtherAppReqDescriptor** %this.addr, align 8
  %0 = load %class.cObject*, %class.cObject** %obj.addr, align 8, !dbg !1656
  %1 = icmp eq %class.cObject* %0, null, !dbg !1657
  br i1 %1, label %dynamic_cast.null, label %dynamic_cast.notnull, !dbg !1657

dynamic_cast.notnull:                             ; preds = %entry
  %2 = bitcast %class.cObject* %0 to i8*, !dbg !1657
  %3 = call i8* @__dynamic_cast(i8* %2, i8* bitcast (i8** @_ZTI7cObject to i8*), i8* bitcast ({ i8*, i8*, i8* }* @_ZTI11EtherAppReq to i8*), i64 0) #3, !dbg !1657
  %4 = bitcast i8* %3 to %class.EtherAppReq*, !dbg !1657
  br label %dynamic_cast.end, !dbg !1657

dynamic_cast.null:                                ; preds = %entry
  br label %dynamic_cast.end, !dbg !1657

dynamic_cast.end:                                 ; preds = %dynamic_cast.null, %dynamic_cast.notnull
  %5 = phi %class.EtherAppReq* [ %4, %dynamic_cast.notnull ], [ null, %dynamic_cast.null ], !dbg !1657
  %cmp = icmp ne %class.EtherAppReq* %5, null, !dbg !1658
  ret i1 %cmp, !dbg !1659
}

; Function Attrs: nounwind readonly
declare dso_local i8* @__dynamic_cast(i8*, i8*, i8*, i64) #7

; Function Attrs: noinline uwtable
define dso_local i8* @_ZNK21EtherAppReqDescriptor11getPropertyEPKc(%class.EtherAppReqDescriptor* %this, i8* %propertyname) unnamed_addr #0 align 2 !dbg !1660 {
entry:
  %this.addr = alloca %class.EtherAppReqDescriptor*, align 8
  %propertyname.addr = alloca i8*, align 8
  %basedesc = alloca %class.cClassDescriptor*, align 8
  store %class.EtherAppReqDescriptor* %this, %class.EtherAppReqDescriptor** %this.addr, align 8
  call void @llvm.dbg.declare(metadata %class.EtherAppReqDescriptor** %this.addr, metadata !1661, metadata !DIExpression()), !dbg !1662
  store i8* %propertyname, i8** %propertyname.addr, align 8
  call void @llvm.dbg.declare(metadata i8** %propertyname.addr, metadata !1663, metadata !DIExpression()), !dbg !1664
  %this1 = load %class.EtherAppReqDescriptor*, %class.EtherAppReqDescriptor** %this.addr, align 8
  call void @llvm.dbg.declare(metadata %class.cClassDescriptor** %basedesc, metadata !1665, metadata !DIExpression()), !dbg !1667
  %0 = bitcast %class.EtherAppReqDescriptor* %this1 to %class.cClassDescriptor*, !dbg !1668
  %1 = bitcast %class.cClassDescriptor* %0 to %class.cClassDescriptor* (%class.cClassDescriptor*)***, !dbg !1668
  %vtable = load %class.cClassDescriptor* (%class.cClassDescriptor*)**, %class.cClassDescriptor* (%class.cClassDescriptor*)*** %1, align 8, !dbg !1668
  %vfn = getelementptr inbounds %class.cClassDescriptor* (%class.cClassDescriptor*)*, %class.cClassDescriptor* (%class.cClassDescriptor*)** %vtable, i64 25, !dbg !1668
  %2 = load %class.cClassDescriptor* (%class.cClassDescriptor*)*, %class.cClassDescriptor* (%class.cClassDescriptor*)** %vfn, align 8, !dbg !1668
  %call = call %class.cClassDescriptor* %2(%class.cClassDescriptor* %0), !dbg !1668
  store %class.cClassDescriptor* %call, %class.cClassDescriptor** %basedesc, align 8, !dbg !1667
  %3 = load %class.cClassDescriptor*, %class.cClassDescriptor** %basedesc, align 8, !dbg !1669
  %tobool = icmp ne %class.cClassDescriptor* %3, null, !dbg !1669
  br i1 %tobool, label %cond.true, label %cond.false, !dbg !1669

cond.true:                                        ; preds = %entry
  %4 = load %class.cClassDescriptor*, %class.cClassDescriptor** %basedesc, align 8, !dbg !1670
  %5 = load i8*, i8** %propertyname.addr, align 8, !dbg !1671
  %6 = bitcast %class.cClassDescriptor* %4 to i8* (%class.cClassDescriptor*, i8*)***, !dbg !1672
  %vtable2 = load i8* (%class.cClassDescriptor*, i8*)**, i8* (%class.cClassDescriptor*, i8*)*** %6, align 8, !dbg !1672
  %vfn3 = getelementptr inbounds i8* (%class.cClassDescriptor*, i8*)*, i8* (%class.cClassDescriptor*, i8*)** %vtable2, i64 26, !dbg !1672
  %7 = load i8* (%class.cClassDescriptor*, i8*)*, i8* (%class.cClassDescriptor*, i8*)** %vfn3, align 8, !dbg !1672
  %call4 = call i8* %7(%class.cClassDescriptor* %4, i8* %5), !dbg !1672
  br label %cond.end, !dbg !1669

cond.false:                                       ; preds = %entry
  br label %cond.end, !dbg !1669

cond.end:                                         ; preds = %cond.false, %cond.true
  %cond = phi i8* [ %call4, %cond.true ], [ null, %cond.false ], !dbg !1669
  ret i8* %cond, !dbg !1673
}

; Function Attrs: noinline uwtable
define dso_local i32 @_ZNK21EtherAppReqDescriptor13getFieldCountEPv(%class.EtherAppReqDescriptor* %this, i8* %object) unnamed_addr #0 align 2 !dbg !1674 {
entry:
  %this.addr = alloca %class.EtherAppReqDescriptor*, align 8
  %object.addr = alloca i8*, align 8
  %basedesc = alloca %class.cClassDescriptor*, align 8
  store %class.EtherAppReqDescriptor* %this, %class.EtherAppReqDescriptor** %this.addr, align 8
  call void @llvm.dbg.declare(metadata %class.EtherAppReqDescriptor** %this.addr, metadata !1675, metadata !DIExpression()), !dbg !1676
  store i8* %object, i8** %object.addr, align 8
  call void @llvm.dbg.declare(metadata i8** %object.addr, metadata !1677, metadata !DIExpression()), !dbg !1678
  %this1 = load %class.EtherAppReqDescriptor*, %class.EtherAppReqDescriptor** %this.addr, align 8
  call void @llvm.dbg.declare(metadata %class.cClassDescriptor** %basedesc, metadata !1679, metadata !DIExpression()), !dbg !1680
  %0 = bitcast %class.EtherAppReqDescriptor* %this1 to %class.cClassDescriptor*, !dbg !1681
  %1 = bitcast %class.cClassDescriptor* %0 to %class.cClassDescriptor* (%class.cClassDescriptor*)***, !dbg !1681
  %vtable = load %class.cClassDescriptor* (%class.cClassDescriptor*)**, %class.cClassDescriptor* (%class.cClassDescriptor*)*** %1, align 8, !dbg !1681
  %vfn = getelementptr inbounds %class.cClassDescriptor* (%class.cClassDescriptor*)*, %class.cClassDescriptor* (%class.cClassDescriptor*)** %vtable, i64 25, !dbg !1681
  %2 = load %class.cClassDescriptor* (%class.cClassDescriptor*)*, %class.cClassDescriptor* (%class.cClassDescriptor*)** %vfn, align 8, !dbg !1681
  %call = call %class.cClassDescriptor* %2(%class.cClassDescriptor* %0), !dbg !1681
  store %class.cClassDescriptor* %call, %class.cClassDescriptor** %basedesc, align 8, !dbg !1680
  %3 = load %class.cClassDescriptor*, %class.cClassDescriptor** %basedesc, align 8, !dbg !1682
  %tobool = icmp ne %class.cClassDescriptor* %3, null, !dbg !1682
  br i1 %tobool, label %cond.true, label %cond.false, !dbg !1682

cond.true:                                        ; preds = %entry
  %4 = load %class.cClassDescriptor*, %class.cClassDescriptor** %basedesc, align 8, !dbg !1683
  %5 = load i8*, i8** %object.addr, align 8, !dbg !1684
  %6 = bitcast %class.cClassDescriptor* %4 to i32 (%class.cClassDescriptor*, i8*)***, !dbg !1685
  %vtable2 = load i32 (%class.cClassDescriptor*, i8*)**, i32 (%class.cClassDescriptor*, i8*)*** %6, align 8, !dbg !1685
  %vfn3 = getelementptr inbounds i32 (%class.cClassDescriptor*, i8*)*, i32 (%class.cClassDescriptor*, i8*)** %vtable2, i64 27, !dbg !1685
  %7 = load i32 (%class.cClassDescriptor*, i8*)*, i32 (%class.cClassDescriptor*, i8*)** %vfn3, align 8, !dbg !1685
  %call4 = call i32 %7(%class.cClassDescriptor* %4, i8* %5), !dbg !1685
  %add = add nsw i32 2, %call4, !dbg !1686
  br label %cond.end, !dbg !1682

cond.false:                                       ; preds = %entry
  br label %cond.end, !dbg !1682

cond.end:                                         ; preds = %cond.false, %cond.true
  %cond = phi i32 [ %add, %cond.true ], [ 2, %cond.false ], !dbg !1682
  ret i32 %cond, !dbg !1687
}

; Function Attrs: noinline uwtable
define dso_local i32 @_ZNK21EtherAppReqDescriptor17getFieldTypeFlagsEPvi(%class.EtherAppReqDescriptor* %this, i8* %object, i32 %field) unnamed_addr #0 align 2 !dbg !1688 {
entry:
  %retval = alloca i32, align 4
  %this.addr = alloca %class.EtherAppReqDescriptor*, align 8
  %object.addr = alloca i8*, align 8
  %field.addr = alloca i32, align 4
  %basedesc = alloca %class.cClassDescriptor*, align 8
  store %class.EtherAppReqDescriptor* %this, %class.EtherAppReqDescriptor** %this.addr, align 8
  call void @llvm.dbg.declare(metadata %class.EtherAppReqDescriptor** %this.addr, metadata !1689, metadata !DIExpression()), !dbg !1690
  store i8* %object, i8** %object.addr, align 8
  call void @llvm.dbg.declare(metadata i8** %object.addr, metadata !1691, metadata !DIExpression()), !dbg !1692
  store i32 %field, i32* %field.addr, align 4
  call void @llvm.dbg.declare(metadata i32* %field.addr, metadata !1693, metadata !DIExpression()), !dbg !1694
  %this1 = load %class.EtherAppReqDescriptor*, %class.EtherAppReqDescriptor** %this.addr, align 8
  call void @llvm.dbg.declare(metadata %class.cClassDescriptor** %basedesc, metadata !1695, metadata !DIExpression()), !dbg !1696
  %0 = bitcast %class.EtherAppReqDescriptor* %this1 to %class.cClassDescriptor*, !dbg !1697
  %1 = bitcast %class.cClassDescriptor* %0 to %class.cClassDescriptor* (%class.cClassDescriptor*)***, !dbg !1697
  %vtable = load %class.cClassDescriptor* (%class.cClassDescriptor*)**, %class.cClassDescriptor* (%class.cClassDescriptor*)*** %1, align 8, !dbg !1697
  %vfn = getelementptr inbounds %class.cClassDescriptor* (%class.cClassDescriptor*)*, %class.cClassDescriptor* (%class.cClassDescriptor*)** %vtable, i64 25, !dbg !1697
  %2 = load %class.cClassDescriptor* (%class.cClassDescriptor*)*, %class.cClassDescriptor* (%class.cClassDescriptor*)** %vfn, align 8, !dbg !1697
  %call = call %class.cClassDescriptor* %2(%class.cClassDescriptor* %0), !dbg !1697
  store %class.cClassDescriptor* %call, %class.cClassDescriptor** %basedesc, align 8, !dbg !1696
  %3 = load %class.cClassDescriptor*, %class.cClassDescriptor** %basedesc, align 8, !dbg !1698
  %tobool = icmp ne %class.cClassDescriptor* %3, null, !dbg !1698
  br i1 %tobool, label %if.then, label %if.end12, !dbg !1700

if.then:                                          ; preds = %entry
  %4 = load i32, i32* %field.addr, align 4, !dbg !1701
  %5 = load %class.cClassDescriptor*, %class.cClassDescriptor** %basedesc, align 8, !dbg !1704
  %6 = load i8*, i8** %object.addr, align 8, !dbg !1705
  %7 = bitcast %class.cClassDescriptor* %5 to i32 (%class.cClassDescriptor*, i8*)***, !dbg !1706
  %vtable2 = load i32 (%class.cClassDescriptor*, i8*)**, i32 (%class.cClassDescriptor*, i8*)*** %7, align 8, !dbg !1706
  %vfn3 = getelementptr inbounds i32 (%class.cClassDescriptor*, i8*)*, i32 (%class.cClassDescriptor*, i8*)** %vtable2, i64 27, !dbg !1706
  %8 = load i32 (%class.cClassDescriptor*, i8*)*, i32 (%class.cClassDescriptor*, i8*)** %vfn3, align 8, !dbg !1706
  %call4 = call i32 %8(%class.cClassDescriptor* %5, i8* %6), !dbg !1706
  %cmp = icmp slt i32 %4, %call4, !dbg !1707
  br i1 %cmp, label %if.then5, label %if.end, !dbg !1708

if.then5:                                         ; preds = %if.then
  %9 = load %class.cClassDescriptor*, %class.cClassDescriptor** %basedesc, align 8, !dbg !1709
  %10 = load i8*, i8** %object.addr, align 8, !dbg !1710
  %11 = load i32, i32* %field.addr, align 4, !dbg !1711
  %12 = bitcast %class.cClassDescriptor* %9 to i32 (%class.cClassDescriptor*, i8*, i32)***, !dbg !1712
  %vtable6 = load i32 (%class.cClassDescriptor*, i8*, i32)**, i32 (%class.cClassDescriptor*, i8*, i32)*** %12, align 8, !dbg !1712
  %vfn7 = getelementptr inbounds i32 (%class.cClassDescriptor*, i8*, i32)*, i32 (%class.cClassDescriptor*, i8*, i32)** %vtable6, i64 29, !dbg !1712
  %13 = load i32 (%class.cClassDescriptor*, i8*, i32)*, i32 (%class.cClassDescriptor*, i8*, i32)** %vfn7, align 8, !dbg !1712
  %call8 = call i32 %13(%class.cClassDescriptor* %9, i8* %10, i32 %11), !dbg !1712
  store i32 %call8, i32* %retval, align 4, !dbg !1713
  br label %return, !dbg !1713

if.end:                                           ; preds = %if.then
  %14 = load %class.cClassDescriptor*, %class.cClassDescriptor** %basedesc, align 8, !dbg !1714
  %15 = load i8*, i8** %object.addr, align 8, !dbg !1715
  %16 = bitcast %class.cClassDescriptor* %14 to i32 (%class.cClassDescriptor*, i8*)***, !dbg !1716
  %vtable9 = load i32 (%class.cClassDescriptor*, i8*)**, i32 (%class.cClassDescriptor*, i8*)*** %16, align 8, !dbg !1716
  %vfn10 = getelementptr inbounds i32 (%class.cClassDescriptor*, i8*)*, i32 (%class.cClassDescriptor*, i8*)** %vtable9, i64 27, !dbg !1716
  %17 = load i32 (%class.cClassDescriptor*, i8*)*, i32 (%class.cClassDescriptor*, i8*)** %vfn10, align 8, !dbg !1716
  %call11 = call i32 %17(%class.cClassDescriptor* %14, i8* %15), !dbg !1716
  %18 = load i32, i32* %field.addr, align 4, !dbg !1717
  %sub = sub nsw i32 %18, %call11, !dbg !1717
  store i32 %sub, i32* %field.addr, align 4, !dbg !1717
  br label %if.end12, !dbg !1718

if.end12:                                         ; preds = %if.end, %entry
  %19 = load i32, i32* %field.addr, align 4, !dbg !1719
  switch i32 %19, label %sw.default [
    i32 0, label %sw.bb
    i32 1, label %sw.bb13
  ], !dbg !1720

sw.bb:                                            ; preds = %if.end12
  store i32 32, i32* %retval, align 4, !dbg !1721
  br label %return, !dbg !1721

sw.bb13:                                          ; preds = %if.end12
  store i32 32, i32* %retval, align 4, !dbg !1723
  br label %return, !dbg !1723

sw.default:                                       ; preds = %if.end12
  store i32 0, i32* %retval, align 4, !dbg !1724
  br label %return, !dbg !1724

return:                                           ; preds = %sw.default, %sw.bb13, %sw.bb, %if.then5
  %20 = load i32, i32* %retval, align 4, !dbg !1725
  ret i32 %20, !dbg !1725
}

; Function Attrs: noinline uwtable
define dso_local i8* @_ZNK21EtherAppReqDescriptor12getFieldNameEPvi(%class.EtherAppReqDescriptor* %this, i8* %object, i32 %field) unnamed_addr #0 align 2 !dbg !1726 {
entry:
  %retval = alloca i8*, align 8
  %this.addr = alloca %class.EtherAppReqDescriptor*, align 8
  %object.addr = alloca i8*, align 8
  %field.addr = alloca i32, align 4
  %basedesc = alloca %class.cClassDescriptor*, align 8
  store %class.EtherAppReqDescriptor* %this, %class.EtherAppReqDescriptor** %this.addr, align 8
  call void @llvm.dbg.declare(metadata %class.EtherAppReqDescriptor** %this.addr, metadata !1727, metadata !DIExpression()), !dbg !1728
  store i8* %object, i8** %object.addr, align 8
  call void @llvm.dbg.declare(metadata i8** %object.addr, metadata !1729, metadata !DIExpression()), !dbg !1730
  store i32 %field, i32* %field.addr, align 4
  call void @llvm.dbg.declare(metadata i32* %field.addr, metadata !1731, metadata !DIExpression()), !dbg !1732
  %this1 = load %class.EtherAppReqDescriptor*, %class.EtherAppReqDescriptor** %this.addr, align 8
  call void @llvm.dbg.declare(metadata %class.cClassDescriptor** %basedesc, metadata !1733, metadata !DIExpression()), !dbg !1734
  %0 = bitcast %class.EtherAppReqDescriptor* %this1 to %class.cClassDescriptor*, !dbg !1735
  %1 = bitcast %class.cClassDescriptor* %0 to %class.cClassDescriptor* (%class.cClassDescriptor*)***, !dbg !1735
  %vtable = load %class.cClassDescriptor* (%class.cClassDescriptor*)**, %class.cClassDescriptor* (%class.cClassDescriptor*)*** %1, align 8, !dbg !1735
  %vfn = getelementptr inbounds %class.cClassDescriptor* (%class.cClassDescriptor*)*, %class.cClassDescriptor* (%class.cClassDescriptor*)** %vtable, i64 25, !dbg !1735
  %2 = load %class.cClassDescriptor* (%class.cClassDescriptor*)*, %class.cClassDescriptor* (%class.cClassDescriptor*)** %vfn, align 8, !dbg !1735
  %call = call %class.cClassDescriptor* %2(%class.cClassDescriptor* %0), !dbg !1735
  store %class.cClassDescriptor* %call, %class.cClassDescriptor** %basedesc, align 8, !dbg !1734
  %3 = load %class.cClassDescriptor*, %class.cClassDescriptor** %basedesc, align 8, !dbg !1736
  %tobool = icmp ne %class.cClassDescriptor* %3, null, !dbg !1736
  br i1 %tobool, label %if.then, label %if.end12, !dbg !1738

if.then:                                          ; preds = %entry
  %4 = load i32, i32* %field.addr, align 4, !dbg !1739
  %5 = load %class.cClassDescriptor*, %class.cClassDescriptor** %basedesc, align 8, !dbg !1742
  %6 = load i8*, i8** %object.addr, align 8, !dbg !1743
  %7 = bitcast %class.cClassDescriptor* %5 to i32 (%class.cClassDescriptor*, i8*)***, !dbg !1744
  %vtable2 = load i32 (%class.cClassDescriptor*, i8*)**, i32 (%class.cClassDescriptor*, i8*)*** %7, align 8, !dbg !1744
  %vfn3 = getelementptr inbounds i32 (%class.cClassDescriptor*, i8*)*, i32 (%class.cClassDescriptor*, i8*)** %vtable2, i64 27, !dbg !1744
  %8 = load i32 (%class.cClassDescriptor*, i8*)*, i32 (%class.cClassDescriptor*, i8*)** %vfn3, align 8, !dbg !1744
  %call4 = call i32 %8(%class.cClassDescriptor* %5, i8* %6), !dbg !1744
  %cmp = icmp slt i32 %4, %call4, !dbg !1745
  br i1 %cmp, label %if.then5, label %if.end, !dbg !1746

if.then5:                                         ; preds = %if.then
  %9 = load %class.cClassDescriptor*, %class.cClassDescriptor** %basedesc, align 8, !dbg !1747
  %10 = load i8*, i8** %object.addr, align 8, !dbg !1748
  %11 = load i32, i32* %field.addr, align 4, !dbg !1749
  %12 = bitcast %class.cClassDescriptor* %9 to i8* (%class.cClassDescriptor*, i8*, i32)***, !dbg !1750
  %vtable6 = load i8* (%class.cClassDescriptor*, i8*, i32)**, i8* (%class.cClassDescriptor*, i8*, i32)*** %12, align 8, !dbg !1750
  %vfn7 = getelementptr inbounds i8* (%class.cClassDescriptor*, i8*, i32)*, i8* (%class.cClassDescriptor*, i8*, i32)** %vtable6, i64 28, !dbg !1750
  %13 = load i8* (%class.cClassDescriptor*, i8*, i32)*, i8* (%class.cClassDescriptor*, i8*, i32)** %vfn7, align 8, !dbg !1750
  %call8 = call i8* %13(%class.cClassDescriptor* %9, i8* %10, i32 %11), !dbg !1750
  store i8* %call8, i8** %retval, align 8, !dbg !1751
  br label %return, !dbg !1751

if.end:                                           ; preds = %if.then
  %14 = load %class.cClassDescriptor*, %class.cClassDescriptor** %basedesc, align 8, !dbg !1752
  %15 = load i8*, i8** %object.addr, align 8, !dbg !1753
  %16 = bitcast %class.cClassDescriptor* %14 to i32 (%class.cClassDescriptor*, i8*)***, !dbg !1754
  %vtable9 = load i32 (%class.cClassDescriptor*, i8*)**, i32 (%class.cClassDescriptor*, i8*)*** %16, align 8, !dbg !1754
  %vfn10 = getelementptr inbounds i32 (%class.cClassDescriptor*, i8*)*, i32 (%class.cClassDescriptor*, i8*)** %vtable9, i64 27, !dbg !1754
  %17 = load i32 (%class.cClassDescriptor*, i8*)*, i32 (%class.cClassDescriptor*, i8*)** %vfn10, align 8, !dbg !1754
  %call11 = call i32 %17(%class.cClassDescriptor* %14, i8* %15), !dbg !1754
  %18 = load i32, i32* %field.addr, align 4, !dbg !1755
  %sub = sub nsw i32 %18, %call11, !dbg !1755
  store i32 %sub, i32* %field.addr, align 4, !dbg !1755
  br label %if.end12, !dbg !1756

if.end12:                                         ; preds = %if.end, %entry
  %19 = load i32, i32* %field.addr, align 4, !dbg !1757
  switch i32 %19, label %sw.default [
    i32 0, label %sw.bb
    i32 1, label %sw.bb13
  ], !dbg !1758

sw.bb:                                            ; preds = %if.end12
  store i8* getelementptr inbounds ([10 x i8], [10 x i8]* @.str.4, i64 0, i64 0), i8** %retval, align 8, !dbg !1759
  br label %return, !dbg !1759

sw.bb13:                                          ; preds = %if.end12
  store i8* getelementptr inbounds ([14 x i8], [14 x i8]* @.str.5, i64 0, i64 0), i8** %retval, align 8, !dbg !1761
  br label %return, !dbg !1761

sw.default:                                       ; preds = %if.end12
  store i8* null, i8** %retval, align 8, !dbg !1762
  br label %return, !dbg !1762

return:                                           ; preds = %sw.default, %sw.bb13, %sw.bb, %if.then5
  %20 = load i8*, i8** %retval, align 8, !dbg !1763
  ret i8* %20, !dbg !1763
}

; Function Attrs: noinline uwtable
define dso_local i8* @_ZNK21EtherAppReqDescriptor18getFieldTypeStringEPvi(%class.EtherAppReqDescriptor* %this, i8* %object, i32 %field) unnamed_addr #0 align 2 !dbg !1764 {
entry:
  %retval = alloca i8*, align 8
  %this.addr = alloca %class.EtherAppReqDescriptor*, align 8
  %object.addr = alloca i8*, align 8
  %field.addr = alloca i32, align 4
  %basedesc = alloca %class.cClassDescriptor*, align 8
  store %class.EtherAppReqDescriptor* %this, %class.EtherAppReqDescriptor** %this.addr, align 8
  call void @llvm.dbg.declare(metadata %class.EtherAppReqDescriptor** %this.addr, metadata !1765, metadata !DIExpression()), !dbg !1766
  store i8* %object, i8** %object.addr, align 8
  call void @llvm.dbg.declare(metadata i8** %object.addr, metadata !1767, metadata !DIExpression()), !dbg !1768
  store i32 %field, i32* %field.addr, align 4
  call void @llvm.dbg.declare(metadata i32* %field.addr, metadata !1769, metadata !DIExpression()), !dbg !1770
  %this1 = load %class.EtherAppReqDescriptor*, %class.EtherAppReqDescriptor** %this.addr, align 8
  call void @llvm.dbg.declare(metadata %class.cClassDescriptor** %basedesc, metadata !1771, metadata !DIExpression()), !dbg !1772
  %0 = bitcast %class.EtherAppReqDescriptor* %this1 to %class.cClassDescriptor*, !dbg !1773
  %1 = bitcast %class.cClassDescriptor* %0 to %class.cClassDescriptor* (%class.cClassDescriptor*)***, !dbg !1773
  %vtable = load %class.cClassDescriptor* (%class.cClassDescriptor*)**, %class.cClassDescriptor* (%class.cClassDescriptor*)*** %1, align 8, !dbg !1773
  %vfn = getelementptr inbounds %class.cClassDescriptor* (%class.cClassDescriptor*)*, %class.cClassDescriptor* (%class.cClassDescriptor*)** %vtable, i64 25, !dbg !1773
  %2 = load %class.cClassDescriptor* (%class.cClassDescriptor*)*, %class.cClassDescriptor* (%class.cClassDescriptor*)** %vfn, align 8, !dbg !1773
  %call = call %class.cClassDescriptor* %2(%class.cClassDescriptor* %0), !dbg !1773
  store %class.cClassDescriptor* %call, %class.cClassDescriptor** %basedesc, align 8, !dbg !1772
  %3 = load %class.cClassDescriptor*, %class.cClassDescriptor** %basedesc, align 8, !dbg !1774
  %tobool = icmp ne %class.cClassDescriptor* %3, null, !dbg !1774
  br i1 %tobool, label %if.then, label %if.end12, !dbg !1776

if.then:                                          ; preds = %entry
  %4 = load i32, i32* %field.addr, align 4, !dbg !1777
  %5 = load %class.cClassDescriptor*, %class.cClassDescriptor** %basedesc, align 8, !dbg !1780
  %6 = load i8*, i8** %object.addr, align 8, !dbg !1781
  %7 = bitcast %class.cClassDescriptor* %5 to i32 (%class.cClassDescriptor*, i8*)***, !dbg !1782
  %vtable2 = load i32 (%class.cClassDescriptor*, i8*)**, i32 (%class.cClassDescriptor*, i8*)*** %7, align 8, !dbg !1782
  %vfn3 = getelementptr inbounds i32 (%class.cClassDescriptor*, i8*)*, i32 (%class.cClassDescriptor*, i8*)** %vtable2, i64 27, !dbg !1782
  %8 = load i32 (%class.cClassDescriptor*, i8*)*, i32 (%class.cClassDescriptor*, i8*)** %vfn3, align 8, !dbg !1782
  %call4 = call i32 %8(%class.cClassDescriptor* %5, i8* %6), !dbg !1782
  %cmp = icmp slt i32 %4, %call4, !dbg !1783
  br i1 %cmp, label %if.then5, label %if.end, !dbg !1784

if.then5:                                         ; preds = %if.then
  %9 = load %class.cClassDescriptor*, %class.cClassDescriptor** %basedesc, align 8, !dbg !1785
  %10 = load i8*, i8** %object.addr, align 8, !dbg !1786
  %11 = load i32, i32* %field.addr, align 4, !dbg !1787
  %12 = bitcast %class.cClassDescriptor* %9 to i8* (%class.cClassDescriptor*, i8*, i32)***, !dbg !1788
  %vtable6 = load i8* (%class.cClassDescriptor*, i8*, i32)**, i8* (%class.cClassDescriptor*, i8*, i32)*** %12, align 8, !dbg !1788
  %vfn7 = getelementptr inbounds i8* (%class.cClassDescriptor*, i8*, i32)*, i8* (%class.cClassDescriptor*, i8*, i32)** %vtable6, i64 31, !dbg !1788
  %13 = load i8* (%class.cClassDescriptor*, i8*, i32)*, i8* (%class.cClassDescriptor*, i8*, i32)** %vfn7, align 8, !dbg !1788
  %call8 = call i8* %13(%class.cClassDescriptor* %9, i8* %10, i32 %11), !dbg !1788
  store i8* %call8, i8** %retval, align 8, !dbg !1789
  br label %return, !dbg !1789

if.end:                                           ; preds = %if.then
  %14 = load %class.cClassDescriptor*, %class.cClassDescriptor** %basedesc, align 8, !dbg !1790
  %15 = load i8*, i8** %object.addr, align 8, !dbg !1791
  %16 = bitcast %class.cClassDescriptor* %14 to i32 (%class.cClassDescriptor*, i8*)***, !dbg !1792
  %vtable9 = load i32 (%class.cClassDescriptor*, i8*)**, i32 (%class.cClassDescriptor*, i8*)*** %16, align 8, !dbg !1792
  %vfn10 = getelementptr inbounds i32 (%class.cClassDescriptor*, i8*)*, i32 (%class.cClassDescriptor*, i8*)** %vtable9, i64 27, !dbg !1792
  %17 = load i32 (%class.cClassDescriptor*, i8*)*, i32 (%class.cClassDescriptor*, i8*)** %vfn10, align 8, !dbg !1792
  %call11 = call i32 %17(%class.cClassDescriptor* %14, i8* %15), !dbg !1792
  %18 = load i32, i32* %field.addr, align 4, !dbg !1793
  %sub = sub nsw i32 %18, %call11, !dbg !1793
  store i32 %sub, i32* %field.addr, align 4, !dbg !1793
  br label %if.end12, !dbg !1794

if.end12:                                         ; preds = %if.end, %entry
  %19 = load i32, i32* %field.addr, align 4, !dbg !1795
  switch i32 %19, label %sw.default [
    i32 0, label %sw.bb
    i32 1, label %sw.bb13
  ], !dbg !1796

sw.bb:                                            ; preds = %if.end12
  store i8* getelementptr inbounds ([5 x i8], [5 x i8]* @.str.6, i64 0, i64 0), i8** %retval, align 8, !dbg !1797
  br label %return, !dbg !1797

sw.bb13:                                          ; preds = %if.end12
  store i8* getelementptr inbounds ([5 x i8], [5 x i8]* @.str.6, i64 0, i64 0), i8** %retval, align 8, !dbg !1799
  br label %return, !dbg !1799

sw.default:                                       ; preds = %if.end12
  store i8* null, i8** %retval, align 8, !dbg !1800
  br label %return, !dbg !1800

return:                                           ; preds = %sw.default, %sw.bb13, %sw.bb, %if.then5
  %20 = load i8*, i8** %retval, align 8, !dbg !1801
  ret i8* %20, !dbg !1801
}

; Function Attrs: noinline uwtable
define dso_local i8* @_ZNK21EtherAppReqDescriptor16getFieldPropertyEPviPKc(%class.EtherAppReqDescriptor* %this, i8* %object, i32 %field, i8* %propertyname) unnamed_addr #0 align 2 !dbg !1802 {
entry:
  %retval = alloca i8*, align 8
  %this.addr = alloca %class.EtherAppReqDescriptor*, align 8
  %object.addr = alloca i8*, align 8
  %field.addr = alloca i32, align 4
  %propertyname.addr = alloca i8*, align 8
  %basedesc = alloca %class.cClassDescriptor*, align 8
  store %class.EtherAppReqDescriptor* %this, %class.EtherAppReqDescriptor** %this.addr, align 8
  call void @llvm.dbg.declare(metadata %class.EtherAppReqDescriptor** %this.addr, metadata !1803, metadata !DIExpression()), !dbg !1804
  store i8* %object, i8** %object.addr, align 8
  call void @llvm.dbg.declare(metadata i8** %object.addr, metadata !1805, metadata !DIExpression()), !dbg !1806
  store i32 %field, i32* %field.addr, align 4
  call void @llvm.dbg.declare(metadata i32* %field.addr, metadata !1807, metadata !DIExpression()), !dbg !1808
  store i8* %propertyname, i8** %propertyname.addr, align 8
  call void @llvm.dbg.declare(metadata i8** %propertyname.addr, metadata !1809, metadata !DIExpression()), !dbg !1810
  %this1 = load %class.EtherAppReqDescriptor*, %class.EtherAppReqDescriptor** %this.addr, align 8
  call void @llvm.dbg.declare(metadata %class.cClassDescriptor** %basedesc, metadata !1811, metadata !DIExpression()), !dbg !1812
  %0 = bitcast %class.EtherAppReqDescriptor* %this1 to %class.cClassDescriptor*, !dbg !1813
  %1 = bitcast %class.cClassDescriptor* %0 to %class.cClassDescriptor* (%class.cClassDescriptor*)***, !dbg !1813
  %vtable = load %class.cClassDescriptor* (%class.cClassDescriptor*)**, %class.cClassDescriptor* (%class.cClassDescriptor*)*** %1, align 8, !dbg !1813
  %vfn = getelementptr inbounds %class.cClassDescriptor* (%class.cClassDescriptor*)*, %class.cClassDescriptor* (%class.cClassDescriptor*)** %vtable, i64 25, !dbg !1813
  %2 = load %class.cClassDescriptor* (%class.cClassDescriptor*)*, %class.cClassDescriptor* (%class.cClassDescriptor*)** %vfn, align 8, !dbg !1813
  %call = call %class.cClassDescriptor* %2(%class.cClassDescriptor* %0), !dbg !1813
  store %class.cClassDescriptor* %call, %class.cClassDescriptor** %basedesc, align 8, !dbg !1812
  %3 = load %class.cClassDescriptor*, %class.cClassDescriptor** %basedesc, align 8, !dbg !1814
  %tobool = icmp ne %class.cClassDescriptor* %3, null, !dbg !1814
  br i1 %tobool, label %if.then, label %if.end12, !dbg !1816

if.then:                                          ; preds = %entry
  %4 = load i32, i32* %field.addr, align 4, !dbg !1817
  %5 = load %class.cClassDescriptor*, %class.cClassDescriptor** %basedesc, align 8, !dbg !1820
  %6 = load i8*, i8** %object.addr, align 8, !dbg !1821
  %7 = bitcast %class.cClassDescriptor* %5 to i32 (%class.cClassDescriptor*, i8*)***, !dbg !1822
  %vtable2 = load i32 (%class.cClassDescriptor*, i8*)**, i32 (%class.cClassDescriptor*, i8*)*** %7, align 8, !dbg !1822
  %vfn3 = getelementptr inbounds i32 (%class.cClassDescriptor*, i8*)*, i32 (%class.cClassDescriptor*, i8*)** %vtable2, i64 27, !dbg !1822
  %8 = load i32 (%class.cClassDescriptor*, i8*)*, i32 (%class.cClassDescriptor*, i8*)** %vfn3, align 8, !dbg !1822
  %call4 = call i32 %8(%class.cClassDescriptor* %5, i8* %6), !dbg !1822
  %cmp = icmp slt i32 %4, %call4, !dbg !1823
  br i1 %cmp, label %if.then5, label %if.end, !dbg !1824

if.then5:                                         ; preds = %if.then
  %9 = load %class.cClassDescriptor*, %class.cClassDescriptor** %basedesc, align 8, !dbg !1825
  %10 = load i8*, i8** %object.addr, align 8, !dbg !1826
  %11 = load i32, i32* %field.addr, align 4, !dbg !1827
  %12 = load i8*, i8** %propertyname.addr, align 8, !dbg !1828
  %13 = bitcast %class.cClassDescriptor* %9 to i8* (%class.cClassDescriptor*, i8*, i32, i8*)***, !dbg !1829
  %vtable6 = load i8* (%class.cClassDescriptor*, i8*, i32, i8*)**, i8* (%class.cClassDescriptor*, i8*, i32, i8*)*** %13, align 8, !dbg !1829
  %vfn7 = getelementptr inbounds i8* (%class.cClassDescriptor*, i8*, i32, i8*)*, i8* (%class.cClassDescriptor*, i8*, i32, i8*)** %vtable6, i64 32, !dbg !1829
  %14 = load i8* (%class.cClassDescriptor*, i8*, i32, i8*)*, i8* (%class.cClassDescriptor*, i8*, i32, i8*)** %vfn7, align 8, !dbg !1829
  %call8 = call i8* %14(%class.cClassDescriptor* %9, i8* %10, i32 %11, i8* %12), !dbg !1829
  store i8* %call8, i8** %retval, align 8, !dbg !1830
  br label %return, !dbg !1830

if.end:                                           ; preds = %if.then
  %15 = load %class.cClassDescriptor*, %class.cClassDescriptor** %basedesc, align 8, !dbg !1831
  %16 = load i8*, i8** %object.addr, align 8, !dbg !1832
  %17 = bitcast %class.cClassDescriptor* %15 to i32 (%class.cClassDescriptor*, i8*)***, !dbg !1833
  %vtable9 = load i32 (%class.cClassDescriptor*, i8*)**, i32 (%class.cClassDescriptor*, i8*)*** %17, align 8, !dbg !1833
  %vfn10 = getelementptr inbounds i32 (%class.cClassDescriptor*, i8*)*, i32 (%class.cClassDescriptor*, i8*)** %vtable9, i64 27, !dbg !1833
  %18 = load i32 (%class.cClassDescriptor*, i8*)*, i32 (%class.cClassDescriptor*, i8*)** %vfn10, align 8, !dbg !1833
  %call11 = call i32 %18(%class.cClassDescriptor* %15, i8* %16), !dbg !1833
  %19 = load i32, i32* %field.addr, align 4, !dbg !1834
  %sub = sub nsw i32 %19, %call11, !dbg !1834
  store i32 %sub, i32* %field.addr, align 4, !dbg !1834
  br label %if.end12, !dbg !1835

if.end12:                                         ; preds = %if.end, %entry
  %20 = load i32, i32* %field.addr, align 4, !dbg !1836
  switch i32 %20, label %sw.default [
  ], !dbg !1837

sw.default:                                       ; preds = %if.end12
  store i8* null, i8** %retval, align 8, !dbg !1838
  br label %return, !dbg !1838

return:                                           ; preds = %sw.default, %if.then5
  %21 = load i8*, i8** %retval, align 8, !dbg !1840
  ret i8* %21, !dbg !1840
}

; Function Attrs: noinline uwtable
define dso_local i32 @_ZNK21EtherAppReqDescriptor12getArraySizeEPvi(%class.EtherAppReqDescriptor* %this, i8* %object, i32 %field) unnamed_addr #0 align 2 !dbg !1841 {
entry:
  %retval = alloca i32, align 4
  %this.addr = alloca %class.EtherAppReqDescriptor*, align 8
  %object.addr = alloca i8*, align 8
  %field.addr = alloca i32, align 4
  %basedesc = alloca %class.cClassDescriptor*, align 8
  %pp = alloca %class.EtherAppReq*, align 8
  store %class.EtherAppReqDescriptor* %this, %class.EtherAppReqDescriptor** %this.addr, align 8
  call void @llvm.dbg.declare(metadata %class.EtherAppReqDescriptor** %this.addr, metadata !1842, metadata !DIExpression()), !dbg !1843
  store i8* %object, i8** %object.addr, align 8
  call void @llvm.dbg.declare(metadata i8** %object.addr, metadata !1844, metadata !DIExpression()), !dbg !1845
  store i32 %field, i32* %field.addr, align 4
  call void @llvm.dbg.declare(metadata i32* %field.addr, metadata !1846, metadata !DIExpression()), !dbg !1847
  %this1 = load %class.EtherAppReqDescriptor*, %class.EtherAppReqDescriptor** %this.addr, align 8
  call void @llvm.dbg.declare(metadata %class.cClassDescriptor** %basedesc, metadata !1848, metadata !DIExpression()), !dbg !1849
  %0 = bitcast %class.EtherAppReqDescriptor* %this1 to %class.cClassDescriptor*, !dbg !1850
  %1 = bitcast %class.cClassDescriptor* %0 to %class.cClassDescriptor* (%class.cClassDescriptor*)***, !dbg !1850
  %vtable = load %class.cClassDescriptor* (%class.cClassDescriptor*)**, %class.cClassDescriptor* (%class.cClassDescriptor*)*** %1, align 8, !dbg !1850
  %vfn = getelementptr inbounds %class.cClassDescriptor* (%class.cClassDescriptor*)*, %class.cClassDescriptor* (%class.cClassDescriptor*)** %vtable, i64 25, !dbg !1850
  %2 = load %class.cClassDescriptor* (%class.cClassDescriptor*)*, %class.cClassDescriptor* (%class.cClassDescriptor*)** %vfn, align 8, !dbg !1850
  %call = call %class.cClassDescriptor* %2(%class.cClassDescriptor* %0), !dbg !1850
  store %class.cClassDescriptor* %call, %class.cClassDescriptor** %basedesc, align 8, !dbg !1849
  %3 = load %class.cClassDescriptor*, %class.cClassDescriptor** %basedesc, align 8, !dbg !1851
  %tobool = icmp ne %class.cClassDescriptor* %3, null, !dbg !1851
  br i1 %tobool, label %if.then, label %if.end12, !dbg !1853

if.then:                                          ; preds = %entry
  %4 = load i32, i32* %field.addr, align 4, !dbg !1854
  %5 = load %class.cClassDescriptor*, %class.cClassDescriptor** %basedesc, align 8, !dbg !1857
  %6 = load i8*, i8** %object.addr, align 8, !dbg !1858
  %7 = bitcast %class.cClassDescriptor* %5 to i32 (%class.cClassDescriptor*, i8*)***, !dbg !1859
  %vtable2 = load i32 (%class.cClassDescriptor*, i8*)**, i32 (%class.cClassDescriptor*, i8*)*** %7, align 8, !dbg !1859
  %vfn3 = getelementptr inbounds i32 (%class.cClassDescriptor*, i8*)*, i32 (%class.cClassDescriptor*, i8*)** %vtable2, i64 27, !dbg !1859
  %8 = load i32 (%class.cClassDescriptor*, i8*)*, i32 (%class.cClassDescriptor*, i8*)** %vfn3, align 8, !dbg !1859
  %call4 = call i32 %8(%class.cClassDescriptor* %5, i8* %6), !dbg !1859
  %cmp = icmp slt i32 %4, %call4, !dbg !1860
  br i1 %cmp, label %if.then5, label %if.end, !dbg !1861

if.then5:                                         ; preds = %if.then
  %9 = load %class.cClassDescriptor*, %class.cClassDescriptor** %basedesc, align 8, !dbg !1862
  %10 = load i8*, i8** %object.addr, align 8, !dbg !1863
  %11 = load i32, i32* %field.addr, align 4, !dbg !1864
  %12 = bitcast %class.cClassDescriptor* %9 to i32 (%class.cClassDescriptor*, i8*, i32)***, !dbg !1865
  %vtable6 = load i32 (%class.cClassDescriptor*, i8*, i32)**, i32 (%class.cClassDescriptor*, i8*, i32)*** %12, align 8, !dbg !1865
  %vfn7 = getelementptr inbounds i32 (%class.cClassDescriptor*, i8*, i32)*, i32 (%class.cClassDescriptor*, i8*, i32)** %vtable6, i64 33, !dbg !1865
  %13 = load i32 (%class.cClassDescriptor*, i8*, i32)*, i32 (%class.cClassDescriptor*, i8*, i32)** %vfn7, align 8, !dbg !1865
  %call8 = call i32 %13(%class.cClassDescriptor* %9, i8* %10, i32 %11), !dbg !1865
  store i32 %call8, i32* %retval, align 4, !dbg !1866
  br label %return, !dbg !1866

if.end:                                           ; preds = %if.then
  %14 = load %class.cClassDescriptor*, %class.cClassDescriptor** %basedesc, align 8, !dbg !1867
  %15 = load i8*, i8** %object.addr, align 8, !dbg !1868
  %16 = bitcast %class.cClassDescriptor* %14 to i32 (%class.cClassDescriptor*, i8*)***, !dbg !1869
  %vtable9 = load i32 (%class.cClassDescriptor*, i8*)**, i32 (%class.cClassDescriptor*, i8*)*** %16, align 8, !dbg !1869
  %vfn10 = getelementptr inbounds i32 (%class.cClassDescriptor*, i8*)*, i32 (%class.cClassDescriptor*, i8*)** %vtable9, i64 27, !dbg !1869
  %17 = load i32 (%class.cClassDescriptor*, i8*)*, i32 (%class.cClassDescriptor*, i8*)** %vfn10, align 8, !dbg !1869
  %call11 = call i32 %17(%class.cClassDescriptor* %14, i8* %15), !dbg !1869
  %18 = load i32, i32* %field.addr, align 4, !dbg !1870
  %sub = sub nsw i32 %18, %call11, !dbg !1870
  store i32 %sub, i32* %field.addr, align 4, !dbg !1870
  br label %if.end12, !dbg !1871

if.end12:                                         ; preds = %if.end, %entry
  call void @llvm.dbg.declare(metadata %class.EtherAppReq** %pp, metadata !1872, metadata !DIExpression()), !dbg !1873
  %19 = load i8*, i8** %object.addr, align 8, !dbg !1874
  %20 = bitcast i8* %19 to %class.EtherAppReq*, !dbg !1875
  store %class.EtherAppReq* %20, %class.EtherAppReq** %pp, align 8, !dbg !1873
  %21 = load i32, i32* %field.addr, align 4, !dbg !1876
  switch i32 %21, label %sw.default [
  ], !dbg !1877

sw.default:                                       ; preds = %if.end12
  store i32 0, i32* %retval, align 4, !dbg !1878
  br label %return, !dbg !1878

return:                                           ; preds = %sw.default, %if.then5
  %22 = load i32, i32* %retval, align 4, !dbg !1880
  ret i32 %22, !dbg !1880
}

; Function Attrs: noinline uwtable
define dso_local zeroext i1 @_ZNK21EtherAppReqDescriptor16getFieldAsStringEPviiPci(%class.EtherAppReqDescriptor* %this, i8* %object, i32 %field, i32 %i, i8* %resultbuf, i32 %bufsize) unnamed_addr #0 align 2 !dbg !1881 {
entry:
  %retval = alloca i1, align 1
  %this.addr = alloca %class.EtherAppReqDescriptor*, align 8
  %object.addr = alloca i8*, align 8
  %field.addr = alloca i32, align 4
  %i.addr = alloca i32, align 4
  %resultbuf.addr = alloca i8*, align 8
  %bufsize.addr = alloca i32, align 4
  %basedesc = alloca %class.cClassDescriptor*, align 8
  %pp = alloca %class.EtherAppReq*, align 8
  store %class.EtherAppReqDescriptor* %this, %class.EtherAppReqDescriptor** %this.addr, align 8
  call void @llvm.dbg.declare(metadata %class.EtherAppReqDescriptor** %this.addr, metadata !1882, metadata !DIExpression()), !dbg !1883
  store i8* %object, i8** %object.addr, align 8
  call void @llvm.dbg.declare(metadata i8** %object.addr, metadata !1884, metadata !DIExpression()), !dbg !1885
  store i32 %field, i32* %field.addr, align 4
  call void @llvm.dbg.declare(metadata i32* %field.addr, metadata !1886, metadata !DIExpression()), !dbg !1887
  store i32 %i, i32* %i.addr, align 4
  call void @llvm.dbg.declare(metadata i32* %i.addr, metadata !1888, metadata !DIExpression()), !dbg !1889
  store i8* %resultbuf, i8** %resultbuf.addr, align 8
  call void @llvm.dbg.declare(metadata i8** %resultbuf.addr, metadata !1890, metadata !DIExpression()), !dbg !1891
  store i32 %bufsize, i32* %bufsize.addr, align 4
  call void @llvm.dbg.declare(metadata i32* %bufsize.addr, metadata !1892, metadata !DIExpression()), !dbg !1893
  %this1 = load %class.EtherAppReqDescriptor*, %class.EtherAppReqDescriptor** %this.addr, align 8
  call void @llvm.dbg.declare(metadata %class.cClassDescriptor** %basedesc, metadata !1894, metadata !DIExpression()), !dbg !1895
  %0 = bitcast %class.EtherAppReqDescriptor* %this1 to %class.cClassDescriptor*, !dbg !1896
  %1 = bitcast %class.cClassDescriptor* %0 to %class.cClassDescriptor* (%class.cClassDescriptor*)***, !dbg !1896
  %vtable = load %class.cClassDescriptor* (%class.cClassDescriptor*)**, %class.cClassDescriptor* (%class.cClassDescriptor*)*** %1, align 8, !dbg !1896
  %vfn = getelementptr inbounds %class.cClassDescriptor* (%class.cClassDescriptor*)*, %class.cClassDescriptor* (%class.cClassDescriptor*)** %vtable, i64 25, !dbg !1896
  %2 = load %class.cClassDescriptor* (%class.cClassDescriptor*)*, %class.cClassDescriptor* (%class.cClassDescriptor*)** %vfn, align 8, !dbg !1896
  %call = call %class.cClassDescriptor* %2(%class.cClassDescriptor* %0), !dbg !1896
  store %class.cClassDescriptor* %call, %class.cClassDescriptor** %basedesc, align 8, !dbg !1895
  %3 = load %class.cClassDescriptor*, %class.cClassDescriptor** %basedesc, align 8, !dbg !1897
  %tobool = icmp ne %class.cClassDescriptor* %3, null, !dbg !1897
  br i1 %tobool, label %if.then, label %if.end12, !dbg !1899

if.then:                                          ; preds = %entry
  %4 = load i32, i32* %field.addr, align 4, !dbg !1900
  %5 = load %class.cClassDescriptor*, %class.cClassDescriptor** %basedesc, align 8, !dbg !1903
  %6 = load i8*, i8** %object.addr, align 8, !dbg !1904
  %7 = bitcast %class.cClassDescriptor* %5 to i32 (%class.cClassDescriptor*, i8*)***, !dbg !1905
  %vtable2 = load i32 (%class.cClassDescriptor*, i8*)**, i32 (%class.cClassDescriptor*, i8*)*** %7, align 8, !dbg !1905
  %vfn3 = getelementptr inbounds i32 (%class.cClassDescriptor*, i8*)*, i32 (%class.cClassDescriptor*, i8*)** %vtable2, i64 27, !dbg !1905
  %8 = load i32 (%class.cClassDescriptor*, i8*)*, i32 (%class.cClassDescriptor*, i8*)** %vfn3, align 8, !dbg !1905
  %call4 = call i32 %8(%class.cClassDescriptor* %5, i8* %6), !dbg !1905
  %cmp = icmp slt i32 %4, %call4, !dbg !1906
  br i1 %cmp, label %if.then5, label %if.end, !dbg !1907

if.then5:                                         ; preds = %if.then
  %9 = load %class.cClassDescriptor*, %class.cClassDescriptor** %basedesc, align 8, !dbg !1908
  %10 = load i8*, i8** %object.addr, align 8, !dbg !1909
  %11 = load i32, i32* %field.addr, align 4, !dbg !1910
  %12 = load i32, i32* %i.addr, align 4, !dbg !1911
  %13 = load i8*, i8** %resultbuf.addr, align 8, !dbg !1912
  %14 = load i32, i32* %bufsize.addr, align 4, !dbg !1913
  %15 = bitcast %class.cClassDescriptor* %9 to i1 (%class.cClassDescriptor*, i8*, i32, i32, i8*, i32)***, !dbg !1914
  %vtable6 = load i1 (%class.cClassDescriptor*, i8*, i32, i32, i8*, i32)**, i1 (%class.cClassDescriptor*, i8*, i32, i32, i8*, i32)*** %15, align 8, !dbg !1914
  %vfn7 = getelementptr inbounds i1 (%class.cClassDescriptor*, i8*, i32, i32, i8*, i32)*, i1 (%class.cClassDescriptor*, i8*, i32, i32, i8*, i32)** %vtable6, i64 34, !dbg !1914
  %16 = load i1 (%class.cClassDescriptor*, i8*, i32, i32, i8*, i32)*, i1 (%class.cClassDescriptor*, i8*, i32, i32, i8*, i32)** %vfn7, align 8, !dbg !1914
  %call8 = call zeroext i1 %16(%class.cClassDescriptor* %9, i8* %10, i32 %11, i32 %12, i8* %13, i32 %14), !dbg !1914
  store i1 %call8, i1* %retval, align 1, !dbg !1915
  br label %return, !dbg !1915

if.end:                                           ; preds = %if.then
  %17 = load %class.cClassDescriptor*, %class.cClassDescriptor** %basedesc, align 8, !dbg !1916
  %18 = load i8*, i8** %object.addr, align 8, !dbg !1917
  %19 = bitcast %class.cClassDescriptor* %17 to i32 (%class.cClassDescriptor*, i8*)***, !dbg !1918
  %vtable9 = load i32 (%class.cClassDescriptor*, i8*)**, i32 (%class.cClassDescriptor*, i8*)*** %19, align 8, !dbg !1918
  %vfn10 = getelementptr inbounds i32 (%class.cClassDescriptor*, i8*)*, i32 (%class.cClassDescriptor*, i8*)** %vtable9, i64 27, !dbg !1918
  %20 = load i32 (%class.cClassDescriptor*, i8*)*, i32 (%class.cClassDescriptor*, i8*)** %vfn10, align 8, !dbg !1918
  %call11 = call i32 %20(%class.cClassDescriptor* %17, i8* %18), !dbg !1918
  %21 = load i32, i32* %field.addr, align 4, !dbg !1919
  %sub = sub nsw i32 %21, %call11, !dbg !1919
  store i32 %sub, i32* %field.addr, align 4, !dbg !1919
  br label %if.end12, !dbg !1920

if.end12:                                         ; preds = %if.end, %entry
  call void @llvm.dbg.declare(metadata %class.EtherAppReq** %pp, metadata !1921, metadata !DIExpression()), !dbg !1922
  %22 = load i8*, i8** %object.addr, align 8, !dbg !1923
  %23 = bitcast i8* %22 to %class.EtherAppReq*, !dbg !1924
  store %class.EtherAppReq* %23, %class.EtherAppReq** %pp, align 8, !dbg !1922
  %24 = load i32, i32* %field.addr, align 4, !dbg !1925
  switch i32 %24, label %sw.default [
    i32 0, label %sw.bb
    i32 1, label %sw.bb16
  ], !dbg !1926

sw.bb:                                            ; preds = %if.end12
  %25 = load %class.EtherAppReq*, %class.EtherAppReq** %pp, align 8, !dbg !1927
  %26 = bitcast %class.EtherAppReq* %25 to i64 (%class.EtherAppReq*)***, !dbg !1929
  %vtable13 = load i64 (%class.EtherAppReq*)**, i64 (%class.EtherAppReq*)*** %26, align 8, !dbg !1929
  %vfn14 = getelementptr inbounds i64 (%class.EtherAppReq*)*, i64 (%class.EtherAppReq*)** %vtable13, i64 26, !dbg !1929
  %27 = load i64 (%class.EtherAppReq*)*, i64 (%class.EtherAppReq*)** %vfn14, align 8, !dbg !1929
  %call15 = call i64 %27(%class.EtherAppReq* %25), !dbg !1929
  %28 = load i8*, i8** %resultbuf.addr, align 8, !dbg !1930
  %29 = load i32, i32* %bufsize.addr, align 4, !dbg !1931
  call void @_ZN16cClassDescriptor11long2stringElPci(i64 %call15, i8* %28, i32 %29), !dbg !1932
  store i1 true, i1* %retval, align 1, !dbg !1933
  br label %return, !dbg !1933

sw.bb16:                                          ; preds = %if.end12
  %30 = load %class.EtherAppReq*, %class.EtherAppReq** %pp, align 8, !dbg !1934
  %31 = bitcast %class.EtherAppReq* %30 to i64 (%class.EtherAppReq*)***, !dbg !1935
  %vtable17 = load i64 (%class.EtherAppReq*)**, i64 (%class.EtherAppReq*)*** %31, align 8, !dbg !1935
  %vfn18 = getelementptr inbounds i64 (%class.EtherAppReq*)*, i64 (%class.EtherAppReq*)** %vtable17, i64 28, !dbg !1935
  %32 = load i64 (%class.EtherAppReq*)*, i64 (%class.EtherAppReq*)** %vfn18, align 8, !dbg !1935
  %call19 = call i64 %32(%class.EtherAppReq* %30), !dbg !1935
  %33 = load i8*, i8** %resultbuf.addr, align 8, !dbg !1936
  %34 = load i32, i32* %bufsize.addr, align 4, !dbg !1937
  call void @_ZN16cClassDescriptor11long2stringElPci(i64 %call19, i8* %33, i32 %34), !dbg !1938
  store i1 true, i1* %retval, align 1, !dbg !1939
  br label %return, !dbg !1939

sw.default:                                       ; preds = %if.end12
  store i1 false, i1* %retval, align 1, !dbg !1940
  br label %return, !dbg !1940

return:                                           ; preds = %sw.default, %sw.bb16, %sw.bb, %if.then5
  %35 = load i1, i1* %retval, align 1, !dbg !1941
  ret i1 %35, !dbg !1941
}

declare dso_local void @_ZN16cClassDescriptor11long2stringElPci(i64, i8*, i32) #1

; Function Attrs: noinline uwtable
define dso_local zeroext i1 @_ZNK21EtherAppReqDescriptor16setFieldAsStringEPviiPKc(%class.EtherAppReqDescriptor* %this, i8* %object, i32 %field, i32 %i, i8* %value) unnamed_addr #0 align 2 !dbg !1942 {
entry:
  %retval = alloca i1, align 1
  %this.addr = alloca %class.EtherAppReqDescriptor*, align 8
  %object.addr = alloca i8*, align 8
  %field.addr = alloca i32, align 4
  %i.addr = alloca i32, align 4
  %value.addr = alloca i8*, align 8
  %basedesc = alloca %class.cClassDescriptor*, align 8
  %pp = alloca %class.EtherAppReq*, align 8
  store %class.EtherAppReqDescriptor* %this, %class.EtherAppReqDescriptor** %this.addr, align 8
  call void @llvm.dbg.declare(metadata %class.EtherAppReqDescriptor** %this.addr, metadata !1943, metadata !DIExpression()), !dbg !1944
  store i8* %object, i8** %object.addr, align 8
  call void @llvm.dbg.declare(metadata i8** %object.addr, metadata !1945, metadata !DIExpression()), !dbg !1946
  store i32 %field, i32* %field.addr, align 4
  call void @llvm.dbg.declare(metadata i32* %field.addr, metadata !1947, metadata !DIExpression()), !dbg !1948
  store i32 %i, i32* %i.addr, align 4
  call void @llvm.dbg.declare(metadata i32* %i.addr, metadata !1949, metadata !DIExpression()), !dbg !1950
  store i8* %value, i8** %value.addr, align 8
  call void @llvm.dbg.declare(metadata i8** %value.addr, metadata !1951, metadata !DIExpression()), !dbg !1952
  %this1 = load %class.EtherAppReqDescriptor*, %class.EtherAppReqDescriptor** %this.addr, align 8
  call void @llvm.dbg.declare(metadata %class.cClassDescriptor** %basedesc, metadata !1953, metadata !DIExpression()), !dbg !1954
  %0 = bitcast %class.EtherAppReqDescriptor* %this1 to %class.cClassDescriptor*, !dbg !1955
  %1 = bitcast %class.cClassDescriptor* %0 to %class.cClassDescriptor* (%class.cClassDescriptor*)***, !dbg !1955
  %vtable = load %class.cClassDescriptor* (%class.cClassDescriptor*)**, %class.cClassDescriptor* (%class.cClassDescriptor*)*** %1, align 8, !dbg !1955
  %vfn = getelementptr inbounds %class.cClassDescriptor* (%class.cClassDescriptor*)*, %class.cClassDescriptor* (%class.cClassDescriptor*)** %vtable, i64 25, !dbg !1955
  %2 = load %class.cClassDescriptor* (%class.cClassDescriptor*)*, %class.cClassDescriptor* (%class.cClassDescriptor*)** %vfn, align 8, !dbg !1955
  %call = call %class.cClassDescriptor* %2(%class.cClassDescriptor* %0), !dbg !1955
  store %class.cClassDescriptor* %call, %class.cClassDescriptor** %basedesc, align 8, !dbg !1954
  %3 = load %class.cClassDescriptor*, %class.cClassDescriptor** %basedesc, align 8, !dbg !1956
  %tobool = icmp ne %class.cClassDescriptor* %3, null, !dbg !1956
  br i1 %tobool, label %if.then, label %if.end12, !dbg !1958

if.then:                                          ; preds = %entry
  %4 = load i32, i32* %field.addr, align 4, !dbg !1959
  %5 = load %class.cClassDescriptor*, %class.cClassDescriptor** %basedesc, align 8, !dbg !1962
  %6 = load i8*, i8** %object.addr, align 8, !dbg !1963
  %7 = bitcast %class.cClassDescriptor* %5 to i32 (%class.cClassDescriptor*, i8*)***, !dbg !1964
  %vtable2 = load i32 (%class.cClassDescriptor*, i8*)**, i32 (%class.cClassDescriptor*, i8*)*** %7, align 8, !dbg !1964
  %vfn3 = getelementptr inbounds i32 (%class.cClassDescriptor*, i8*)*, i32 (%class.cClassDescriptor*, i8*)** %vtable2, i64 27, !dbg !1964
  %8 = load i32 (%class.cClassDescriptor*, i8*)*, i32 (%class.cClassDescriptor*, i8*)** %vfn3, align 8, !dbg !1964
  %call4 = call i32 %8(%class.cClassDescriptor* %5, i8* %6), !dbg !1964
  %cmp = icmp slt i32 %4, %call4, !dbg !1965
  br i1 %cmp, label %if.then5, label %if.end, !dbg !1966

if.then5:                                         ; preds = %if.then
  %9 = load %class.cClassDescriptor*, %class.cClassDescriptor** %basedesc, align 8, !dbg !1967
  %10 = load i8*, i8** %object.addr, align 8, !dbg !1968
  %11 = load i32, i32* %field.addr, align 4, !dbg !1969
  %12 = load i32, i32* %i.addr, align 4, !dbg !1970
  %13 = load i8*, i8** %value.addr, align 8, !dbg !1971
  %14 = bitcast %class.cClassDescriptor* %9 to i1 (%class.cClassDescriptor*, i8*, i32, i32, i8*)***, !dbg !1972
  %vtable6 = load i1 (%class.cClassDescriptor*, i8*, i32, i32, i8*)**, i1 (%class.cClassDescriptor*, i8*, i32, i32, i8*)*** %14, align 8, !dbg !1972
  %vfn7 = getelementptr inbounds i1 (%class.cClassDescriptor*, i8*, i32, i32, i8*)*, i1 (%class.cClassDescriptor*, i8*, i32, i32, i8*)** %vtable6, i64 35, !dbg !1972
  %15 = load i1 (%class.cClassDescriptor*, i8*, i32, i32, i8*)*, i1 (%class.cClassDescriptor*, i8*, i32, i32, i8*)** %vfn7, align 8, !dbg !1972
  %call8 = call zeroext i1 %15(%class.cClassDescriptor* %9, i8* %10, i32 %11, i32 %12, i8* %13), !dbg !1972
  store i1 %call8, i1* %retval, align 1, !dbg !1973
  br label %return, !dbg !1973

if.end:                                           ; preds = %if.then
  %16 = load %class.cClassDescriptor*, %class.cClassDescriptor** %basedesc, align 8, !dbg !1974
  %17 = load i8*, i8** %object.addr, align 8, !dbg !1975
  %18 = bitcast %class.cClassDescriptor* %16 to i32 (%class.cClassDescriptor*, i8*)***, !dbg !1976
  %vtable9 = load i32 (%class.cClassDescriptor*, i8*)**, i32 (%class.cClassDescriptor*, i8*)*** %18, align 8, !dbg !1976
  %vfn10 = getelementptr inbounds i32 (%class.cClassDescriptor*, i8*)*, i32 (%class.cClassDescriptor*, i8*)** %vtable9, i64 27, !dbg !1976
  %19 = load i32 (%class.cClassDescriptor*, i8*)*, i32 (%class.cClassDescriptor*, i8*)** %vfn10, align 8, !dbg !1976
  %call11 = call i32 %19(%class.cClassDescriptor* %16, i8* %17), !dbg !1976
  %20 = load i32, i32* %field.addr, align 4, !dbg !1977
  %sub = sub nsw i32 %20, %call11, !dbg !1977
  store i32 %sub, i32* %field.addr, align 4, !dbg !1977
  br label %if.end12, !dbg !1978

if.end12:                                         ; preds = %if.end, %entry
  call void @llvm.dbg.declare(metadata %class.EtherAppReq** %pp, metadata !1979, metadata !DIExpression()), !dbg !1980
  %21 = load i8*, i8** %object.addr, align 8, !dbg !1981
  %22 = bitcast i8* %21 to %class.EtherAppReq*, !dbg !1982
  store %class.EtherAppReq* %22, %class.EtherAppReq** %pp, align 8, !dbg !1980
  %23 = load i32, i32* %field.addr, align 4, !dbg !1983
  switch i32 %23, label %sw.default [
    i32 0, label %sw.bb
    i32 1, label %sw.bb16
  ], !dbg !1984

sw.bb:                                            ; preds = %if.end12
  %24 = load %class.EtherAppReq*, %class.EtherAppReq** %pp, align 8, !dbg !1985
  %25 = load i8*, i8** %value.addr, align 8, !dbg !1987
  %call13 = call i64 @_ZN16cClassDescriptor11string2longEPKc(i8* %25), !dbg !1988
  %26 = bitcast %class.EtherAppReq* %24 to void (%class.EtherAppReq*, i64)***, !dbg !1989
  %vtable14 = load void (%class.EtherAppReq*, i64)**, void (%class.EtherAppReq*, i64)*** %26, align 8, !dbg !1989
  %vfn15 = getelementptr inbounds void (%class.EtherAppReq*, i64)*, void (%class.EtherAppReq*, i64)** %vtable14, i64 27, !dbg !1989
  %27 = load void (%class.EtherAppReq*, i64)*, void (%class.EtherAppReq*, i64)** %vfn15, align 8, !dbg !1989
  call void %27(%class.EtherAppReq* %24, i64 %call13), !dbg !1989
  store i1 true, i1* %retval, align 1, !dbg !1990
  br label %return, !dbg !1990

sw.bb16:                                          ; preds = %if.end12
  %28 = load %class.EtherAppReq*, %class.EtherAppReq** %pp, align 8, !dbg !1991
  %29 = load i8*, i8** %value.addr, align 8, !dbg !1992
  %call17 = call i64 @_ZN16cClassDescriptor11string2longEPKc(i8* %29), !dbg !1993
  %30 = bitcast %class.EtherAppReq* %28 to void (%class.EtherAppReq*, i64)***, !dbg !1994
  %vtable18 = load void (%class.EtherAppReq*, i64)**, void (%class.EtherAppReq*, i64)*** %30, align 8, !dbg !1994
  %vfn19 = getelementptr inbounds void (%class.EtherAppReq*, i64)*, void (%class.EtherAppReq*, i64)** %vtable18, i64 29, !dbg !1994
  %31 = load void (%class.EtherAppReq*, i64)*, void (%class.EtherAppReq*, i64)** %vfn19, align 8, !dbg !1994
  call void %31(%class.EtherAppReq* %28, i64 %call17), !dbg !1994
  store i1 true, i1* %retval, align 1, !dbg !1995
  br label %return, !dbg !1995

sw.default:                                       ; preds = %if.end12
  store i1 false, i1* %retval, align 1, !dbg !1996
  br label %return, !dbg !1996

return:                                           ; preds = %sw.default, %sw.bb16, %sw.bb, %if.then5
  %32 = load i1, i1* %retval, align 1, !dbg !1997
  ret i1 %32, !dbg !1997
}

declare dso_local i64 @_ZN16cClassDescriptor11string2longEPKc(i8*) #1

; Function Attrs: noinline uwtable
define dso_local i8* @_ZNK21EtherAppReqDescriptor18getFieldStructNameEPvi(%class.EtherAppReqDescriptor* %this, i8* %object, i32 %field) unnamed_addr #0 align 2 !dbg !1998 {
entry:
  %retval = alloca i8*, align 8
  %this.addr = alloca %class.EtherAppReqDescriptor*, align 8
  %object.addr = alloca i8*, align 8
  %field.addr = alloca i32, align 4
  %basedesc = alloca %class.cClassDescriptor*, align 8
  store %class.EtherAppReqDescriptor* %this, %class.EtherAppReqDescriptor** %this.addr, align 8
  call void @llvm.dbg.declare(metadata %class.EtherAppReqDescriptor** %this.addr, metadata !1999, metadata !DIExpression()), !dbg !2000
  store i8* %object, i8** %object.addr, align 8
  call void @llvm.dbg.declare(metadata i8** %object.addr, metadata !2001, metadata !DIExpression()), !dbg !2002
  store i32 %field, i32* %field.addr, align 4
  call void @llvm.dbg.declare(metadata i32* %field.addr, metadata !2003, metadata !DIExpression()), !dbg !2004
  %this1 = load %class.EtherAppReqDescriptor*, %class.EtherAppReqDescriptor** %this.addr, align 8
  call void @llvm.dbg.declare(metadata %class.cClassDescriptor** %basedesc, metadata !2005, metadata !DIExpression()), !dbg !2006
  %0 = bitcast %class.EtherAppReqDescriptor* %this1 to %class.cClassDescriptor*, !dbg !2007
  %1 = bitcast %class.cClassDescriptor* %0 to %class.cClassDescriptor* (%class.cClassDescriptor*)***, !dbg !2007
  %vtable = load %class.cClassDescriptor* (%class.cClassDescriptor*)**, %class.cClassDescriptor* (%class.cClassDescriptor*)*** %1, align 8, !dbg !2007
  %vfn = getelementptr inbounds %class.cClassDescriptor* (%class.cClassDescriptor*)*, %class.cClassDescriptor* (%class.cClassDescriptor*)** %vtable, i64 25, !dbg !2007
  %2 = load %class.cClassDescriptor* (%class.cClassDescriptor*)*, %class.cClassDescriptor* (%class.cClassDescriptor*)** %vfn, align 8, !dbg !2007
  %call = call %class.cClassDescriptor* %2(%class.cClassDescriptor* %0), !dbg !2007
  store %class.cClassDescriptor* %call, %class.cClassDescriptor** %basedesc, align 8, !dbg !2006
  %3 = load %class.cClassDescriptor*, %class.cClassDescriptor** %basedesc, align 8, !dbg !2008
  %tobool = icmp ne %class.cClassDescriptor* %3, null, !dbg !2008
  br i1 %tobool, label %if.then, label %if.end12, !dbg !2010

if.then:                                          ; preds = %entry
  %4 = load i32, i32* %field.addr, align 4, !dbg !2011
  %5 = load %class.cClassDescriptor*, %class.cClassDescriptor** %basedesc, align 8, !dbg !2014
  %6 = load i8*, i8** %object.addr, align 8, !dbg !2015
  %7 = bitcast %class.cClassDescriptor* %5 to i32 (%class.cClassDescriptor*, i8*)***, !dbg !2016
  %vtable2 = load i32 (%class.cClassDescriptor*, i8*)**, i32 (%class.cClassDescriptor*, i8*)*** %7, align 8, !dbg !2016
  %vfn3 = getelementptr inbounds i32 (%class.cClassDescriptor*, i8*)*, i32 (%class.cClassDescriptor*, i8*)** %vtable2, i64 27, !dbg !2016
  %8 = load i32 (%class.cClassDescriptor*, i8*)*, i32 (%class.cClassDescriptor*, i8*)** %vfn3, align 8, !dbg !2016
  %call4 = call i32 %8(%class.cClassDescriptor* %5, i8* %6), !dbg !2016
  %cmp = icmp slt i32 %4, %call4, !dbg !2017
  br i1 %cmp, label %if.then5, label %if.end, !dbg !2018

if.then5:                                         ; preds = %if.then
  %9 = load %class.cClassDescriptor*, %class.cClassDescriptor** %basedesc, align 8, !dbg !2019
  %10 = load i8*, i8** %object.addr, align 8, !dbg !2020
  %11 = load i32, i32* %field.addr, align 4, !dbg !2021
  %12 = bitcast %class.cClassDescriptor* %9 to i8* (%class.cClassDescriptor*, i8*, i32)***, !dbg !2022
  %vtable6 = load i8* (%class.cClassDescriptor*, i8*, i32)**, i8* (%class.cClassDescriptor*, i8*, i32)*** %12, align 8, !dbg !2022
  %vfn7 = getelementptr inbounds i8* (%class.cClassDescriptor*, i8*, i32)*, i8* (%class.cClassDescriptor*, i8*, i32)** %vtable6, i64 36, !dbg !2022
  %13 = load i8* (%class.cClassDescriptor*, i8*, i32)*, i8* (%class.cClassDescriptor*, i8*, i32)** %vfn7, align 8, !dbg !2022
  %call8 = call i8* %13(%class.cClassDescriptor* %9, i8* %10, i32 %11), !dbg !2022
  store i8* %call8, i8** %retval, align 8, !dbg !2023
  br label %return, !dbg !2023

if.end:                                           ; preds = %if.then
  %14 = load %class.cClassDescriptor*, %class.cClassDescriptor** %basedesc, align 8, !dbg !2024
  %15 = load i8*, i8** %object.addr, align 8, !dbg !2025
  %16 = bitcast %class.cClassDescriptor* %14 to i32 (%class.cClassDescriptor*, i8*)***, !dbg !2026
  %vtable9 = load i32 (%class.cClassDescriptor*, i8*)**, i32 (%class.cClassDescriptor*, i8*)*** %16, align 8, !dbg !2026
  %vfn10 = getelementptr inbounds i32 (%class.cClassDescriptor*, i8*)*, i32 (%class.cClassDescriptor*, i8*)** %vtable9, i64 27, !dbg !2026
  %17 = load i32 (%class.cClassDescriptor*, i8*)*, i32 (%class.cClassDescriptor*, i8*)** %vfn10, align 8, !dbg !2026
  %call11 = call i32 %17(%class.cClassDescriptor* %14, i8* %15), !dbg !2026
  %18 = load i32, i32* %field.addr, align 4, !dbg !2027
  %sub = sub nsw i32 %18, %call11, !dbg !2027
  store i32 %sub, i32* %field.addr, align 4, !dbg !2027
  br label %if.end12, !dbg !2028

if.end12:                                         ; preds = %if.end, %entry
  %19 = load i32, i32* %field.addr, align 4, !dbg !2029
  switch i32 %19, label %sw.default [
  ], !dbg !2030

sw.default:                                       ; preds = %if.end12
  store i8* null, i8** %retval, align 8, !dbg !2031
  br label %return, !dbg !2031

return:                                           ; preds = %sw.default, %if.then5
  %20 = load i8*, i8** %retval, align 8, !dbg !2033
  ret i8* %20, !dbg !2033
}

; Function Attrs: noinline uwtable
define dso_local i8* @_ZNK21EtherAppReqDescriptor21getFieldStructPointerEPvii(%class.EtherAppReqDescriptor* %this, i8* %object, i32 %field, i32 %i) unnamed_addr #0 align 2 !dbg !2034 {
entry:
  %retval = alloca i8*, align 8
  %this.addr = alloca %class.EtherAppReqDescriptor*, align 8
  %object.addr = alloca i8*, align 8
  %field.addr = alloca i32, align 4
  %i.addr = alloca i32, align 4
  %basedesc = alloca %class.cClassDescriptor*, align 8
  %pp = alloca %class.EtherAppReq*, align 8
  store %class.EtherAppReqDescriptor* %this, %class.EtherAppReqDescriptor** %this.addr, align 8
  call void @llvm.dbg.declare(metadata %class.EtherAppReqDescriptor** %this.addr, metadata !2035, metadata !DIExpression()), !dbg !2036
  store i8* %object, i8** %object.addr, align 8
  call void @llvm.dbg.declare(metadata i8** %object.addr, metadata !2037, metadata !DIExpression()), !dbg !2038
  store i32 %field, i32* %field.addr, align 4
  call void @llvm.dbg.declare(metadata i32* %field.addr, metadata !2039, metadata !DIExpression()), !dbg !2040
  store i32 %i, i32* %i.addr, align 4
  call void @llvm.dbg.declare(metadata i32* %i.addr, metadata !2041, metadata !DIExpression()), !dbg !2042
  %this1 = load %class.EtherAppReqDescriptor*, %class.EtherAppReqDescriptor** %this.addr, align 8
  call void @llvm.dbg.declare(metadata %class.cClassDescriptor** %basedesc, metadata !2043, metadata !DIExpression()), !dbg !2044
  %0 = bitcast %class.EtherAppReqDescriptor* %this1 to %class.cClassDescriptor*, !dbg !2045
  %1 = bitcast %class.cClassDescriptor* %0 to %class.cClassDescriptor* (%class.cClassDescriptor*)***, !dbg !2045
  %vtable = load %class.cClassDescriptor* (%class.cClassDescriptor*)**, %class.cClassDescriptor* (%class.cClassDescriptor*)*** %1, align 8, !dbg !2045
  %vfn = getelementptr inbounds %class.cClassDescriptor* (%class.cClassDescriptor*)*, %class.cClassDescriptor* (%class.cClassDescriptor*)** %vtable, i64 25, !dbg !2045
  %2 = load %class.cClassDescriptor* (%class.cClassDescriptor*)*, %class.cClassDescriptor* (%class.cClassDescriptor*)** %vfn, align 8, !dbg !2045
  %call = call %class.cClassDescriptor* %2(%class.cClassDescriptor* %0), !dbg !2045
  store %class.cClassDescriptor* %call, %class.cClassDescriptor** %basedesc, align 8, !dbg !2044
  %3 = load %class.cClassDescriptor*, %class.cClassDescriptor** %basedesc, align 8, !dbg !2046
  %tobool = icmp ne %class.cClassDescriptor* %3, null, !dbg !2046
  br i1 %tobool, label %if.then, label %if.end12, !dbg !2048

if.then:                                          ; preds = %entry
  %4 = load i32, i32* %field.addr, align 4, !dbg !2049
  %5 = load %class.cClassDescriptor*, %class.cClassDescriptor** %basedesc, align 8, !dbg !2052
  %6 = load i8*, i8** %object.addr, align 8, !dbg !2053
  %7 = bitcast %class.cClassDescriptor* %5 to i32 (%class.cClassDescriptor*, i8*)***, !dbg !2054
  %vtable2 = load i32 (%class.cClassDescriptor*, i8*)**, i32 (%class.cClassDescriptor*, i8*)*** %7, align 8, !dbg !2054
  %vfn3 = getelementptr inbounds i32 (%class.cClassDescriptor*, i8*)*, i32 (%class.cClassDescriptor*, i8*)** %vtable2, i64 27, !dbg !2054
  %8 = load i32 (%class.cClassDescriptor*, i8*)*, i32 (%class.cClassDescriptor*, i8*)** %vfn3, align 8, !dbg !2054
  %call4 = call i32 %8(%class.cClassDescriptor* %5, i8* %6), !dbg !2054
  %cmp = icmp slt i32 %4, %call4, !dbg !2055
  br i1 %cmp, label %if.then5, label %if.end, !dbg !2056

if.then5:                                         ; preds = %if.then
  %9 = load %class.cClassDescriptor*, %class.cClassDescriptor** %basedesc, align 8, !dbg !2057
  %10 = load i8*, i8** %object.addr, align 8, !dbg !2058
  %11 = load i32, i32* %field.addr, align 4, !dbg !2059
  %12 = load i32, i32* %i.addr, align 4, !dbg !2060
  %13 = bitcast %class.cClassDescriptor* %9 to i8* (%class.cClassDescriptor*, i8*, i32, i32)***, !dbg !2061
  %vtable6 = load i8* (%class.cClassDescriptor*, i8*, i32, i32)**, i8* (%class.cClassDescriptor*, i8*, i32, i32)*** %13, align 8, !dbg !2061
  %vfn7 = getelementptr inbounds i8* (%class.cClassDescriptor*, i8*, i32, i32)*, i8* (%class.cClassDescriptor*, i8*, i32, i32)** %vtable6, i64 37, !dbg !2061
  %14 = load i8* (%class.cClassDescriptor*, i8*, i32, i32)*, i8* (%class.cClassDescriptor*, i8*, i32, i32)** %vfn7, align 8, !dbg !2061
  %call8 = call i8* %14(%class.cClassDescriptor* %9, i8* %10, i32 %11, i32 %12), !dbg !2061
  store i8* %call8, i8** %retval, align 8, !dbg !2062
  br label %return, !dbg !2062

if.end:                                           ; preds = %if.then
  %15 = load %class.cClassDescriptor*, %class.cClassDescriptor** %basedesc, align 8, !dbg !2063
  %16 = load i8*, i8** %object.addr, align 8, !dbg !2064
  %17 = bitcast %class.cClassDescriptor* %15 to i32 (%class.cClassDescriptor*, i8*)***, !dbg !2065
  %vtable9 = load i32 (%class.cClassDescriptor*, i8*)**, i32 (%class.cClassDescriptor*, i8*)*** %17, align 8, !dbg !2065
  %vfn10 = getelementptr inbounds i32 (%class.cClassDescriptor*, i8*)*, i32 (%class.cClassDescriptor*, i8*)** %vtable9, i64 27, !dbg !2065
  %18 = load i32 (%class.cClassDescriptor*, i8*)*, i32 (%class.cClassDescriptor*, i8*)** %vfn10, align 8, !dbg !2065
  %call11 = call i32 %18(%class.cClassDescriptor* %15, i8* %16), !dbg !2065
  %19 = load i32, i32* %field.addr, align 4, !dbg !2066
  %sub = sub nsw i32 %19, %call11, !dbg !2066
  store i32 %sub, i32* %field.addr, align 4, !dbg !2066
  br label %if.end12, !dbg !2067

if.end12:                                         ; preds = %if.end, %entry
  call void @llvm.dbg.declare(metadata %class.EtherAppReq** %pp, metadata !2068, metadata !DIExpression()), !dbg !2069
  %20 = load i8*, i8** %object.addr, align 8, !dbg !2070
  %21 = bitcast i8* %20 to %class.EtherAppReq*, !dbg !2071
  store %class.EtherAppReq* %21, %class.EtherAppReq** %pp, align 8, !dbg !2069
  %22 = load i32, i32* %field.addr, align 4, !dbg !2072
  switch i32 %22, label %sw.default [
  ], !dbg !2073

sw.default:                                       ; preds = %if.end12
  store i8* null, i8** %retval, align 8, !dbg !2074
  br label %return, !dbg !2074

return:                                           ; preds = %sw.default, %if.then5
  %23 = load i8*, i8** %retval, align 8, !dbg !2076
  ret i8* %23, !dbg !2076
}

; Function Attrs: noinline uwtable
define internal void @__cxx_global_var_init.7() #0 section ".text.startup" !dbg !2077 {
entry:
  call void @_ZN16ExecuteOnStartupC1EPFvvE(%class.ExecuteOnStartup* @_ZN12_GLOBAL__N_119__onstartup_obj_274E, void ()* @_ZN12_GLOBAL__N_120__onstartup_func_274Ev), !dbg !2078
  %0 = call i32 @__cxa_atexit(void (i8*)* bitcast (void (%class.ExecuteOnStartup*)* @_ZN16ExecuteOnStartupD1Ev to void (i8*)*), i8* bitcast (%class.ExecuteOnStartup* @_ZN12_GLOBAL__N_119__onstartup_obj_274E to i8*), i8* @__dso_handle) #3, !dbg !2078
  ret void, !dbg !2078
}

; Function Attrs: noinline uwtable
define internal void @_ZN12_GLOBAL__N_120__onstartup_func_274Ev() #0 personality i8* bitcast (i32 (...)* @__gxx_personality_v0 to i8*) !dbg !2079 {
entry:
  %exn.slot = alloca i8*
  %ehselector.slot = alloca i32
  %call = call %class.cRegistrationList* @_ZN23cGlobalRegistrationList11getInstanceEv(%class.cGlobalRegistrationList* @classes), !dbg !2080
  %call1 = call i8* @_Znwm(i64 80) #9, !dbg !2080
  %0 = bitcast i8* %call1 to %class.cClassFactory*, !dbg !2080
  %call2 = invoke i8* @_Z12opp_typenameRKSt9type_info(%"class.std::type_info"* dereferenceable(16) bitcast ({ i8*, i8*, i8* }* @_ZTI12EtherAppResp to %"class.std::type_info"*))
          to label %invoke.cont unwind label %lpad, !dbg !2080

invoke.cont:                                      ; preds = %entry
  invoke void @_ZN13cClassFactoryC1EPKcPFP7cObjectvES1_(%class.cClassFactory* %0, i8* %call2, %class.cObject* ()* @_ZL16__uniquename_274v, i8* null)
          to label %invoke.cont3 unwind label %lpad, !dbg !2080

invoke.cont3:                                     ; preds = %invoke.cont
  %1 = bitcast %class.cClassFactory* %0 to %class.cOwnedObject*, !dbg !2080
  %2 = bitcast %class.cRegistrationList* %call to void (%class.cRegistrationList*, %class.cOwnedObject*)***, !dbg !2080
  %vtable = load void (%class.cRegistrationList*, %class.cOwnedObject*)**, void (%class.cRegistrationList*, %class.cOwnedObject*)*** %2, align 8, !dbg !2080
  %vfn = getelementptr inbounds void (%class.cRegistrationList*, %class.cOwnedObject*)*, void (%class.cRegistrationList*, %class.cOwnedObject*)** %vtable, i64 22, !dbg !2080
  %3 = load void (%class.cRegistrationList*, %class.cOwnedObject*)*, void (%class.cRegistrationList*, %class.cOwnedObject*)** %vfn, align 8, !dbg !2080
  call void %3(%class.cRegistrationList* %call, %class.cOwnedObject* %1), !dbg !2080
  ret void, !dbg !2080

lpad:                                             ; preds = %invoke.cont, %entry
  %4 = landingpad { i8*, i32 }
          cleanup, !dbg !2080
  %5 = extractvalue { i8*, i32 } %4, 0, !dbg !2080
  store i8* %5, i8** %exn.slot, align 8, !dbg !2080
  %6 = extractvalue { i8*, i32 } %4, 1, !dbg !2080
  store i32 %6, i32* %ehselector.slot, align 4, !dbg !2080
  call void @_ZdlPv(i8* %call1) #10, !dbg !2080
  br label %eh.resume, !dbg !2080

eh.resume:                                        ; preds = %lpad
  %exn = load i8*, i8** %exn.slot, align 8, !dbg !2080
  %sel = load i32, i32* %ehselector.slot, align 4, !dbg !2080
  %lpad.val = insertvalue { i8*, i32 } undef, i8* %exn, 0, !dbg !2080
  %lpad.val4 = insertvalue { i8*, i32 } %lpad.val, i32 %sel, 1, !dbg !2080
  resume { i8*, i32 } %lpad.val4, !dbg !2080
}

; Function Attrs: noinline uwtable
define dso_local void @_ZN12EtherAppRespC2EPKci(%class.EtherAppResp* %this, i8* %name, i32 %kind) unnamed_addr #0 align 2 !dbg !2081 {
entry:
  %this.addr = alloca %class.EtherAppResp*, align 8
  %name.addr = alloca i8*, align 8
  %kind.addr = alloca i32, align 4
  store %class.EtherAppResp* %this, %class.EtherAppResp** %this.addr, align 8
  call void @llvm.dbg.declare(metadata %class.EtherAppResp** %this.addr, metadata !2082, metadata !DIExpression()), !dbg !2083
  store i8* %name, i8** %name.addr, align 8
  call void @llvm.dbg.declare(metadata i8** %name.addr, metadata !2084, metadata !DIExpression()), !dbg !2085
  store i32 %kind, i32* %kind.addr, align 4
  call void @llvm.dbg.declare(metadata i32* %kind.addr, metadata !2086, metadata !DIExpression()), !dbg !2087
  %this1 = load %class.EtherAppResp*, %class.EtherAppResp** %this.addr, align 8
  %0 = bitcast %class.EtherAppResp* %this1 to %class.cPacket*, !dbg !2088
  %1 = load i8*, i8** %name.addr, align 8, !dbg !2089
  %2 = load i32, i32* %kind.addr, align 4, !dbg !2090
  %conv = trunc i32 %2 to i16, !dbg !2090
  call void @_ZN7cPacketC2EPKcsl(%class.cPacket* %0, i8* %1, i16 signext %conv, i64 0), !dbg !2091
  %3 = bitcast %class.EtherAppResp* %this1 to i32 (...)***, !dbg !2088
  store i32 (...)** bitcast (i8** getelementptr inbounds ({ [32 x i8*] }, { [32 x i8*] }* @_ZTV12EtherAppResp, i32 0, inrange i32 0, i32 2) to i32 (...)**), i32 (...)*** %3, align 8, !dbg !2088
  %requestId_var = getelementptr inbounds %class.EtherAppResp, %class.EtherAppResp* %this1, i32 0, i32 1, !dbg !2092
  store i32 0, i32* %requestId_var, align 4, !dbg !2094
  %numFrames_var = getelementptr inbounds %class.EtherAppResp, %class.EtherAppResp* %this1, i32 0, i32 2, !dbg !2095
  store i32 0, i32* %numFrames_var, align 8, !dbg !2096
  ret void, !dbg !2097
}

; Function Attrs: noinline uwtable
define dso_local void @_ZN12EtherAppRespC2ERKS_(%class.EtherAppResp* %this, %class.EtherAppResp* dereferenceable(200) %other) unnamed_addr #0 align 2 personality i8* bitcast (i32 (...)* @__gxx_personality_v0 to i8*) !dbg !2098 {
entry:
  %this.addr = alloca %class.EtherAppResp*, align 8
  %other.addr = alloca %class.EtherAppResp*, align 8
  %exn.slot = alloca i8*
  %ehselector.slot = alloca i32
  store %class.EtherAppResp* %this, %class.EtherAppResp** %this.addr, align 8
  call void @llvm.dbg.declare(metadata %class.EtherAppResp** %this.addr, metadata !2099, metadata !DIExpression()), !dbg !2100
  store %class.EtherAppResp* %other, %class.EtherAppResp** %other.addr, align 8
  call void @llvm.dbg.declare(metadata %class.EtherAppResp** %other.addr, metadata !2101, metadata !DIExpression()), !dbg !2102
  %this1 = load %class.EtherAppResp*, %class.EtherAppResp** %this.addr, align 8
  %0 = bitcast %class.EtherAppResp* %this1 to %class.cPacket*, !dbg !2103
  call void @_ZN7cPacketC2EPKcsl(%class.cPacket* %0, i8* null, i16 signext 0, i64 0), !dbg !2104
  %1 = bitcast %class.EtherAppResp* %this1 to i32 (...)***, !dbg !2103
  store i32 (...)** bitcast (i8** getelementptr inbounds ({ [32 x i8*] }, { [32 x i8*] }* @_ZTV12EtherAppResp, i32 0, inrange i32 0, i32 2) to i32 (...)**), i32 (...)*** %1, align 8, !dbg !2103
  %2 = bitcast %class.EtherAppResp* %this1 to %class.cNamedObject*, !dbg !2105
  %3 = load %class.EtherAppResp*, %class.EtherAppResp** %other.addr, align 8, !dbg !2107
  %4 = bitcast %class.EtherAppResp* %3 to %class.cNamedObject*, !dbg !2107
  %5 = bitcast %class.cNamedObject* %4 to i8* (%class.cNamedObject*)***, !dbg !2108
  %vtable = load i8* (%class.cNamedObject*)**, i8* (%class.cNamedObject*)*** %5, align 8, !dbg !2108
  %vfn = getelementptr inbounds i8* (%class.cNamedObject*)*, i8* (%class.cNamedObject*)** %vtable, i64 6, !dbg !2108
  %6 = load i8* (%class.cNamedObject*)*, i8* (%class.cNamedObject*)** %vfn, align 8, !dbg !2108
  %call = invoke i8* %6(%class.cNamedObject* %4)
          to label %invoke.cont unwind label %lpad, !dbg !2108

invoke.cont:                                      ; preds = %entry
  %7 = bitcast %class.cNamedObject* %2 to void (%class.cNamedObject*, i8*)***, !dbg !2105
  %vtable2 = load void (%class.cNamedObject*, i8*)**, void (%class.cNamedObject*, i8*)*** %7, align 8, !dbg !2105
  %vfn3 = getelementptr inbounds void (%class.cNamedObject*, i8*)*, void (%class.cNamedObject*, i8*)** %vtable2, i64 19, !dbg !2105
  %8 = load void (%class.cNamedObject*, i8*)*, void (%class.cNamedObject*, i8*)** %vfn3, align 8, !dbg !2105
  invoke void %8(%class.cNamedObject* %2, i8* %call)
          to label %invoke.cont4 unwind label %lpad, !dbg !2105

invoke.cont4:                                     ; preds = %invoke.cont
  %9 = load %class.EtherAppResp*, %class.EtherAppResp** %other.addr, align 8, !dbg !2109
  %call6 = invoke dereferenceable(200) %class.EtherAppResp* @_ZN12EtherAppRespaSERKS_(%class.EtherAppResp* %this1, %class.EtherAppResp* dereferenceable(200) %9)
          to label %invoke.cont5 unwind label %lpad, !dbg !2110

invoke.cont5:                                     ; preds = %invoke.cont4
  ret void, !dbg !2111

lpad:                                             ; preds = %invoke.cont4, %invoke.cont, %entry
  %10 = landingpad { i8*, i32 }
          cleanup, !dbg !2112
  %11 = extractvalue { i8*, i32 } %10, 0, !dbg !2112
  store i8* %11, i8** %exn.slot, align 8, !dbg !2112
  %12 = extractvalue { i8*, i32 } %10, 1, !dbg !2112
  store i32 %12, i32* %ehselector.slot, align 4, !dbg !2112
  %13 = bitcast %class.EtherAppResp* %this1 to %class.cPacket*, !dbg !2112
  call void @_ZN7cPacketD2Ev(%class.cPacket* %13) #3, !dbg !2112
  br label %eh.resume, !dbg !2112

eh.resume:                                        ; preds = %lpad
  %exn = load i8*, i8** %exn.slot, align 8, !dbg !2112
  %sel = load i32, i32* %ehselector.slot, align 4, !dbg !2112
  %lpad.val = insertvalue { i8*, i32 } undef, i8* %exn, 0, !dbg !2112
  %lpad.val7 = insertvalue { i8*, i32 } %lpad.val, i32 %sel, 1, !dbg !2112
  resume { i8*, i32 } %lpad.val7, !dbg !2112
}

; Function Attrs: noinline uwtable
define dso_local dereferenceable(200) %class.EtherAppResp* @_ZN12EtherAppRespaSERKS_(%class.EtherAppResp* %this, %class.EtherAppResp* dereferenceable(200) %other) #0 align 2 !dbg !2113 {
entry:
  %retval = alloca %class.EtherAppResp*, align 8
  %this.addr = alloca %class.EtherAppResp*, align 8
  %other.addr = alloca %class.EtherAppResp*, align 8
  store %class.EtherAppResp* %this, %class.EtherAppResp** %this.addr, align 8
  call void @llvm.dbg.declare(metadata %class.EtherAppResp** %this.addr, metadata !2114, metadata !DIExpression()), !dbg !2115
  store %class.EtherAppResp* %other, %class.EtherAppResp** %other.addr, align 8
  call void @llvm.dbg.declare(metadata %class.EtherAppResp** %other.addr, metadata !2116, metadata !DIExpression()), !dbg !2117
  %this1 = load %class.EtherAppResp*, %class.EtherAppResp** %this.addr, align 8
  %0 = load %class.EtherAppResp*, %class.EtherAppResp** %other.addr, align 8, !dbg !2118
  %cmp = icmp eq %class.EtherAppResp* %this1, %0, !dbg !2120
  br i1 %cmp, label %if.then, label %if.end, !dbg !2121

if.then:                                          ; preds = %entry
  store %class.EtherAppResp* %this1, %class.EtherAppResp** %retval, align 8, !dbg !2122
  br label %return, !dbg !2122

if.end:                                           ; preds = %entry
  %1 = bitcast %class.EtherAppResp* %this1 to %class.cPacket*, !dbg !2123
  %2 = load %class.EtherAppResp*, %class.EtherAppResp** %other.addr, align 8, !dbg !2124
  %3 = bitcast %class.EtherAppResp* %2 to %class.cPacket*, !dbg !2124
  %call = call dereferenceable(192) %class.cPacket* @_ZN7cPacketaSERKS_(%class.cPacket* %1, %class.cPacket* dereferenceable(192) %3), !dbg !2123
  %4 = load %class.EtherAppResp*, %class.EtherAppResp** %other.addr, align 8, !dbg !2125
  %requestId_var = getelementptr inbounds %class.EtherAppResp, %class.EtherAppResp* %4, i32 0, i32 1, !dbg !2126
  %5 = load i32, i32* %requestId_var, align 4, !dbg !2126
  %requestId_var2 = getelementptr inbounds %class.EtherAppResp, %class.EtherAppResp* %this1, i32 0, i32 1, !dbg !2127
  store i32 %5, i32* %requestId_var2, align 4, !dbg !2128
  %6 = load %class.EtherAppResp*, %class.EtherAppResp** %other.addr, align 8, !dbg !2129
  %numFrames_var = getelementptr inbounds %class.EtherAppResp, %class.EtherAppResp* %6, i32 0, i32 2, !dbg !2130
  %7 = load i32, i32* %numFrames_var, align 8, !dbg !2130
  %numFrames_var3 = getelementptr inbounds %class.EtherAppResp, %class.EtherAppResp* %this1, i32 0, i32 2, !dbg !2131
  store i32 %7, i32* %numFrames_var3, align 8, !dbg !2132
  store %class.EtherAppResp* %this1, %class.EtherAppResp** %retval, align 8, !dbg !2133
  br label %return, !dbg !2133

return:                                           ; preds = %if.end, %if.then
  %8 = load %class.EtherAppResp*, %class.EtherAppResp** %retval, align 8, !dbg !2134
  ret %class.EtherAppResp* %8, !dbg !2134
}

; Function Attrs: noinline nounwind uwtable
define dso_local void @_ZN12EtherAppRespD2Ev(%class.EtherAppResp* %this) unnamed_addr #5 align 2 !dbg !2135 {
entry:
  %this.addr = alloca %class.EtherAppResp*, align 8
  store %class.EtherAppResp* %this, %class.EtherAppResp** %this.addr, align 8
  call void @llvm.dbg.declare(metadata %class.EtherAppResp** %this.addr, metadata !2136, metadata !DIExpression()), !dbg !2137
  %this1 = load %class.EtherAppResp*, %class.EtherAppResp** %this.addr, align 8
  %0 = bitcast %class.EtherAppResp* %this1 to %class.cPacket*, !dbg !2138
  call void @_ZN7cPacketD2Ev(%class.cPacket* %0) #3, !dbg !2138
  ret void, !dbg !2140
}

; Function Attrs: noinline nounwind uwtable
define dso_local void @_ZN12EtherAppRespD0Ev(%class.EtherAppResp* %this) unnamed_addr #5 align 2 !dbg !2141 {
entry:
  %this.addr = alloca %class.EtherAppResp*, align 8
  store %class.EtherAppResp* %this, %class.EtherAppResp** %this.addr, align 8
  call void @llvm.dbg.declare(metadata %class.EtherAppResp** %this.addr, metadata !2142, metadata !DIExpression()), !dbg !2143
  %this1 = load %class.EtherAppResp*, %class.EtherAppResp** %this.addr, align 8
  call void @_ZN12EtherAppRespD1Ev(%class.EtherAppResp* %this1) #3, !dbg !2144
  %0 = bitcast %class.EtherAppResp* %this1 to i8*, !dbg !2144
  call void @_ZdlPv(i8* %0) #10, !dbg !2144
  ret void, !dbg !2145
}

; Function Attrs: noinline uwtable
define dso_local void @_ZN12EtherAppResp10parsimPackEP11cCommBuffer(%class.EtherAppResp* %this, %class.cCommBuffer* %b) unnamed_addr #0 align 2 !dbg !2146 {
entry:
  %this.addr = alloca %class.EtherAppResp*, align 8
  %b.addr = alloca %class.cCommBuffer*, align 8
  store %class.EtherAppResp* %this, %class.EtherAppResp** %this.addr, align 8
  call void @llvm.dbg.declare(metadata %class.EtherAppResp** %this.addr, metadata !2147, metadata !DIExpression()), !dbg !2148
  store %class.cCommBuffer* %b, %class.cCommBuffer** %b.addr, align 8
  call void @llvm.dbg.declare(metadata %class.cCommBuffer** %b.addr, metadata !2149, metadata !DIExpression()), !dbg !2150
  %this1 = load %class.EtherAppResp*, %class.EtherAppResp** %this.addr, align 8
  %0 = bitcast %class.EtherAppResp* %this1 to %class.cPacket*, !dbg !2151
  %1 = load %class.cCommBuffer*, %class.cCommBuffer** %b.addr, align 8, !dbg !2152
  call void @_ZN7cPacket10parsimPackEP11cCommBuffer(%class.cPacket* %0, %class.cCommBuffer* %1), !dbg !2151
  %2 = load %class.cCommBuffer*, %class.cCommBuffer** %b.addr, align 8, !dbg !2153
  %requestId_var = getelementptr inbounds %class.EtherAppResp, %class.EtherAppResp* %this1, i32 0, i32 1, !dbg !2154
  %3 = load i32, i32* %requestId_var, align 4, !dbg !2154
  call void @_Z9doPackingP11cCommBufferi(%class.cCommBuffer* %2, i32 %3), !dbg !2155
  %4 = load %class.cCommBuffer*, %class.cCommBuffer** %b.addr, align 8, !dbg !2156
  %numFrames_var = getelementptr inbounds %class.EtherAppResp, %class.EtherAppResp* %this1, i32 0, i32 2, !dbg !2157
  %5 = load i32, i32* %numFrames_var, align 8, !dbg !2157
  call void @_Z9doPackingP11cCommBufferi(%class.cCommBuffer* %4, i32 %5), !dbg !2158
  ret void, !dbg !2159
}

; Function Attrs: noinline uwtable
define linkonce_odr dso_local void @_Z9doPackingP11cCommBufferi(%class.cCommBuffer* %b, i32 %a) #0 comdat !dbg !2160 {
entry:
  %b.addr = alloca %class.cCommBuffer*, align 8
  %a.addr = alloca i32, align 4
  store %class.cCommBuffer* %b, %class.cCommBuffer** %b.addr, align 8
  call void @llvm.dbg.declare(metadata %class.cCommBuffer** %b.addr, metadata !2163, metadata !DIExpression()), !dbg !2164
  store i32 %a, i32* %a.addr, align 4
  call void @llvm.dbg.declare(metadata i32* %a.addr, metadata !2165, metadata !DIExpression()), !dbg !2164
  %0 = load %class.cCommBuffer*, %class.cCommBuffer** %b.addr, align 8, !dbg !2164
  %1 = load i32, i32* %a.addr, align 4, !dbg !2164
  %2 = bitcast %class.cCommBuffer* %0 to void (%class.cCommBuffer*, i32)***, !dbg !2164
  %vtable = load void (%class.cCommBuffer*, i32)**, void (%class.cCommBuffer*, i32)*** %2, align 8, !dbg !2164
  %vfn = getelementptr inbounds void (%class.cCommBuffer*, i32)*, void (%class.cCommBuffer*, i32)** %vtable, i64 26, !dbg !2164
  %3 = load void (%class.cCommBuffer*, i32)*, void (%class.cCommBuffer*, i32)** %vfn, align 8, !dbg !2164
  call void %3(%class.cCommBuffer* %0, i32 %1), !dbg !2164
  ret void, !dbg !2164
}

; Function Attrs: noinline uwtable
define dso_local void @_ZN12EtherAppResp12parsimUnpackEP11cCommBuffer(%class.EtherAppResp* %this, %class.cCommBuffer* %b) unnamed_addr #0 align 2 !dbg !2166 {
entry:
  %this.addr = alloca %class.EtherAppResp*, align 8
  %b.addr = alloca %class.cCommBuffer*, align 8
  store %class.EtherAppResp* %this, %class.EtherAppResp** %this.addr, align 8
  call void @llvm.dbg.declare(metadata %class.EtherAppResp** %this.addr, metadata !2167, metadata !DIExpression()), !dbg !2168
  store %class.cCommBuffer* %b, %class.cCommBuffer** %b.addr, align 8
  call void @llvm.dbg.declare(metadata %class.cCommBuffer** %b.addr, metadata !2169, metadata !DIExpression()), !dbg !2170
  %this1 = load %class.EtherAppResp*, %class.EtherAppResp** %this.addr, align 8
  %0 = bitcast %class.EtherAppResp* %this1 to %class.cPacket*, !dbg !2171
  %1 = load %class.cCommBuffer*, %class.cCommBuffer** %b.addr, align 8, !dbg !2172
  call void @_ZN7cPacket12parsimUnpackEP11cCommBuffer(%class.cPacket* %0, %class.cCommBuffer* %1), !dbg !2171
  %2 = load %class.cCommBuffer*, %class.cCommBuffer** %b.addr, align 8, !dbg !2173
  %requestId_var = getelementptr inbounds %class.EtherAppResp, %class.EtherAppResp* %this1, i32 0, i32 1, !dbg !2174
  call void @_Z11doUnpackingP11cCommBufferRi(%class.cCommBuffer* %2, i32* dereferenceable(4) %requestId_var), !dbg !2175
  %3 = load %class.cCommBuffer*, %class.cCommBuffer** %b.addr, align 8, !dbg !2176
  %numFrames_var = getelementptr inbounds %class.EtherAppResp, %class.EtherAppResp* %this1, i32 0, i32 2, !dbg !2177
  call void @_Z11doUnpackingP11cCommBufferRi(%class.cCommBuffer* %3, i32* dereferenceable(4) %numFrames_var), !dbg !2178
  ret void, !dbg !2179
}

; Function Attrs: noinline uwtable
define linkonce_odr dso_local void @_Z11doUnpackingP11cCommBufferRi(%class.cCommBuffer* %b, i32* dereferenceable(4) %a) #0 comdat !dbg !2180 {
entry:
  %b.addr = alloca %class.cCommBuffer*, align 8
  %a.addr = alloca i32*, align 8
  store %class.cCommBuffer* %b, %class.cCommBuffer** %b.addr, align 8
  call void @llvm.dbg.declare(metadata %class.cCommBuffer** %b.addr, metadata !2184, metadata !DIExpression()), !dbg !2185
  store i32* %a, i32** %a.addr, align 8
  call void @llvm.dbg.declare(metadata i32** %a.addr, metadata !2186, metadata !DIExpression()), !dbg !2185
  %0 = load %class.cCommBuffer*, %class.cCommBuffer** %b.addr, align 8, !dbg !2185
  %1 = load i32*, i32** %a.addr, align 8, !dbg !2185
  %2 = bitcast %class.cCommBuffer* %0 to void (%class.cCommBuffer*, i32*)***, !dbg !2185
  %vtable = load void (%class.cCommBuffer*, i32*)**, void (%class.cCommBuffer*, i32*)*** %2, align 8, !dbg !2185
  %vfn = getelementptr inbounds void (%class.cCommBuffer*, i32*)*, void (%class.cCommBuffer*, i32*)** %vtable, i64 60, !dbg !2185
  %3 = load void (%class.cCommBuffer*, i32*)*, void (%class.cCommBuffer*, i32*)** %vfn, align 8, !dbg !2185
  call void %3(%class.cCommBuffer* %0, i32* dereferenceable(4) %1), !dbg !2185
  ret void, !dbg !2185
}

; Function Attrs: noinline nounwind uwtable
define dso_local i32 @_ZNK12EtherAppResp12getRequestIdEv(%class.EtherAppResp* %this) unnamed_addr #5 align 2 !dbg !2187 {
entry:
  %this.addr = alloca %class.EtherAppResp*, align 8
  store %class.EtherAppResp* %this, %class.EtherAppResp** %this.addr, align 8
  call void @llvm.dbg.declare(metadata %class.EtherAppResp** %this.addr, metadata !2188, metadata !DIExpression()), !dbg !2190
  %this1 = load %class.EtherAppResp*, %class.EtherAppResp** %this.addr, align 8
  %requestId_var = getelementptr inbounds %class.EtherAppResp, %class.EtherAppResp* %this1, i32 0, i32 1, !dbg !2191
  %0 = load i32, i32* %requestId_var, align 4, !dbg !2191
  ret i32 %0, !dbg !2192
}

; Function Attrs: noinline nounwind uwtable
define dso_local void @_ZN12EtherAppResp12setRequestIdEi(%class.EtherAppResp* %this, i32 %requestId_var) unnamed_addr #5 align 2 !dbg !2193 {
entry:
  %this.addr = alloca %class.EtherAppResp*, align 8
  %requestId_var.addr = alloca i32, align 4
  store %class.EtherAppResp* %this, %class.EtherAppResp** %this.addr, align 8
  call void @llvm.dbg.declare(metadata %class.EtherAppResp** %this.addr, metadata !2194, metadata !DIExpression()), !dbg !2195
  store i32 %requestId_var, i32* %requestId_var.addr, align 4
  call void @llvm.dbg.declare(metadata i32* %requestId_var.addr, metadata !2196, metadata !DIExpression()), !dbg !2197
  %this1 = load %class.EtherAppResp*, %class.EtherAppResp** %this.addr, align 8
  %0 = load i32, i32* %requestId_var.addr, align 4, !dbg !2198
  %requestId_var2 = getelementptr inbounds %class.EtherAppResp, %class.EtherAppResp* %this1, i32 0, i32 1, !dbg !2199
  store i32 %0, i32* %requestId_var2, align 4, !dbg !2200
  ret void, !dbg !2201
}

; Function Attrs: noinline nounwind uwtable
define dso_local i32 @_ZNK12EtherAppResp12getNumFramesEv(%class.EtherAppResp* %this) unnamed_addr #5 align 2 !dbg !2202 {
entry:
  %this.addr = alloca %class.EtherAppResp*, align 8
  store %class.EtherAppResp* %this, %class.EtherAppResp** %this.addr, align 8
  call void @llvm.dbg.declare(metadata %class.EtherAppResp** %this.addr, metadata !2203, metadata !DIExpression()), !dbg !2204
  %this1 = load %class.EtherAppResp*, %class.EtherAppResp** %this.addr, align 8
  %numFrames_var = getelementptr inbounds %class.EtherAppResp, %class.EtherAppResp* %this1, i32 0, i32 2, !dbg !2205
  %0 = load i32, i32* %numFrames_var, align 8, !dbg !2205
  ret i32 %0, !dbg !2206
}

; Function Attrs: noinline nounwind uwtable
define dso_local void @_ZN12EtherAppResp12setNumFramesEi(%class.EtherAppResp* %this, i32 %numFrames_var) unnamed_addr #5 align 2 !dbg !2207 {
entry:
  %this.addr = alloca %class.EtherAppResp*, align 8
  %numFrames_var.addr = alloca i32, align 4
  store %class.EtherAppResp* %this, %class.EtherAppResp** %this.addr, align 8
  call void @llvm.dbg.declare(metadata %class.EtherAppResp** %this.addr, metadata !2208, metadata !DIExpression()), !dbg !2209
  store i32 %numFrames_var, i32* %numFrames_var.addr, align 4
  call void @llvm.dbg.declare(metadata i32* %numFrames_var.addr, metadata !2210, metadata !DIExpression()), !dbg !2211
  %this1 = load %class.EtherAppResp*, %class.EtherAppResp** %this.addr, align 8
  %0 = load i32, i32* %numFrames_var.addr, align 4, !dbg !2212
  %numFrames_var2 = getelementptr inbounds %class.EtherAppResp, %class.EtherAppResp* %this1, i32 0, i32 2, !dbg !2213
  store i32 %0, i32* %numFrames_var2, align 8, !dbg !2214
  ret void, !dbg !2215
}

; Function Attrs: noinline uwtable
define internal void @__cxx_global_var_init.8() #0 section ".text.startup" !dbg !2216 {
entry:
  call void @_ZN16ExecuteOnStartupC1EPFvvE(%class.ExecuteOnStartup* @_ZN12_GLOBAL__N_119__onstartup_obj_357E, void ()* @_ZN12_GLOBAL__N_120__onstartup_func_357Ev), !dbg !2217
  %0 = call i32 @__cxa_atexit(void (i8*)* bitcast (void (%class.ExecuteOnStartup*)* @_ZN16ExecuteOnStartupD1Ev to void (i8*)*), i8* bitcast (%class.ExecuteOnStartup* @_ZN12_GLOBAL__N_119__onstartup_obj_357E to i8*), i8* @__dso_handle) #3, !dbg !2217
  ret void, !dbg !2217
}

; Function Attrs: noinline uwtable
define internal void @_ZN12_GLOBAL__N_120__onstartup_func_357Ev() #0 personality i8* bitcast (i32 (...)* @__gxx_personality_v0 to i8*) !dbg !2218 {
entry:
  %exn.slot = alloca i8*
  %ehselector.slot = alloca i32
  %call = call %class.cRegistrationList* @_ZN23cGlobalRegistrationList11getInstanceEv(%class.cGlobalRegistrationList* @classDescriptors), !dbg !2219
  %call1 = call i8* @_Znwm(i64 88) #9, !dbg !2219
  %0 = bitcast i8* %call1 to %class.EtherAppRespDescriptor*, !dbg !2219
  invoke void @_ZN22EtherAppRespDescriptorC1Ev(%class.EtherAppRespDescriptor* %0)
          to label %invoke.cont unwind label %lpad, !dbg !2219

invoke.cont:                                      ; preds = %entry
  %1 = bitcast %class.EtherAppRespDescriptor* %0 to %class.cOwnedObject*, !dbg !2219
  %2 = bitcast %class.cRegistrationList* %call to void (%class.cRegistrationList*, %class.cOwnedObject*)***, !dbg !2219
  %vtable = load void (%class.cRegistrationList*, %class.cOwnedObject*)**, void (%class.cRegistrationList*, %class.cOwnedObject*)*** %2, align 8, !dbg !2219
  %vfn = getelementptr inbounds void (%class.cRegistrationList*, %class.cOwnedObject*)*, void (%class.cRegistrationList*, %class.cOwnedObject*)** %vtable, i64 22, !dbg !2219
  %3 = load void (%class.cRegistrationList*, %class.cOwnedObject*)*, void (%class.cRegistrationList*, %class.cOwnedObject*)** %vfn, align 8, !dbg !2219
  call void %3(%class.cRegistrationList* %call, %class.cOwnedObject* %1), !dbg !2219
  ret void, !dbg !2219

lpad:                                             ; preds = %entry
  %4 = landingpad { i8*, i32 }
          cleanup, !dbg !2219
  %5 = extractvalue { i8*, i32 } %4, 0, !dbg !2219
  store i8* %5, i8** %exn.slot, align 8, !dbg !2219
  %6 = extractvalue { i8*, i32 } %4, 1, !dbg !2219
  store i32 %6, i32* %ehselector.slot, align 4, !dbg !2219
  call void @_ZdlPv(i8* %call1) #10, !dbg !2219
  br label %eh.resume, !dbg !2219

eh.resume:                                        ; preds = %lpad
  %exn = load i8*, i8** %exn.slot, align 8, !dbg !2219
  %sel = load i32, i32* %ehselector.slot, align 4, !dbg !2219
  %lpad.val = insertvalue { i8*, i32 } undef, i8* %exn, 0, !dbg !2219
  %lpad.val2 = insertvalue { i8*, i32 } %lpad.val, i32 %sel, 1, !dbg !2219
  resume { i8*, i32 } %lpad.val2, !dbg !2219
}

; Function Attrs: noinline uwtable
define dso_local void @_ZN22EtherAppRespDescriptorC2Ev(%class.EtherAppRespDescriptor* %this) unnamed_addr #0 align 2 !dbg !2220 {
entry:
  %this.addr = alloca %class.EtherAppRespDescriptor*, align 8
  store %class.EtherAppRespDescriptor* %this, %class.EtherAppRespDescriptor** %this.addr, align 8
  call void @llvm.dbg.declare(metadata %class.EtherAppRespDescriptor** %this.addr, metadata !2263, metadata !DIExpression()), !dbg !2265
  %this1 = load %class.EtherAppRespDescriptor*, %class.EtherAppRespDescriptor** %this.addr, align 8
  %0 = bitcast %class.EtherAppRespDescriptor* %this1 to %class.cClassDescriptor*, !dbg !2266
  call void @_ZN16cClassDescriptorC2EPKcS1_(%class.cClassDescriptor* %0, i8* getelementptr inbounds ([13 x i8], [13 x i8]* @.str.9, i64 0, i64 0), i8* getelementptr inbounds ([8 x i8], [8 x i8]* @.str.3, i64 0, i64 0)), !dbg !2267
  %1 = bitcast %class.EtherAppRespDescriptor* %this1 to i32 (...)***, !dbg !2266
  store i32 (...)** bitcast (i8** getelementptr inbounds ({ [40 x i8*] }, { [40 x i8*] }* @_ZTV22EtherAppRespDescriptor, i32 0, inrange i32 0, i32 2) to i32 (...)**), i32 (...)*** %1, align 8, !dbg !2266
  ret void, !dbg !2268
}

; Function Attrs: noinline nounwind uwtable
define dso_local void @_ZN22EtherAppRespDescriptorD2Ev(%class.EtherAppRespDescriptor* %this) unnamed_addr #5 align 2 !dbg !2269 {
entry:
  %this.addr = alloca %class.EtherAppRespDescriptor*, align 8
  store %class.EtherAppRespDescriptor* %this, %class.EtherAppRespDescriptor** %this.addr, align 8
  call void @llvm.dbg.declare(metadata %class.EtherAppRespDescriptor** %this.addr, metadata !2270, metadata !DIExpression()), !dbg !2271
  %this1 = load %class.EtherAppRespDescriptor*, %class.EtherAppRespDescriptor** %this.addr, align 8
  %0 = bitcast %class.EtherAppRespDescriptor* %this1 to %class.cClassDescriptor*, !dbg !2272
  call void @_ZN16cClassDescriptorD2Ev(%class.cClassDescriptor* %0) #3, !dbg !2272
  ret void, !dbg !2274
}

; Function Attrs: noinline nounwind uwtable
define dso_local void @_ZN22EtherAppRespDescriptorD0Ev(%class.EtherAppRespDescriptor* %this) unnamed_addr #5 align 2 !dbg !2275 {
entry:
  %this.addr = alloca %class.EtherAppRespDescriptor*, align 8
  store %class.EtherAppRespDescriptor* %this, %class.EtherAppRespDescriptor** %this.addr, align 8
  call void @llvm.dbg.declare(metadata %class.EtherAppRespDescriptor** %this.addr, metadata !2276, metadata !DIExpression()), !dbg !2277
  %this1 = load %class.EtherAppRespDescriptor*, %class.EtherAppRespDescriptor** %this.addr, align 8
  call void @_ZN22EtherAppRespDescriptorD1Ev(%class.EtherAppRespDescriptor* %this1) #3, !dbg !2278
  %0 = bitcast %class.EtherAppRespDescriptor* %this1 to i8*, !dbg !2278
  call void @_ZdlPv(i8* %0) #10, !dbg !2278
  ret void, !dbg !2279
}

; Function Attrs: noinline nounwind uwtable
define dso_local zeroext i1 @_ZNK22EtherAppRespDescriptor11doesSupportEP7cObject(%class.EtherAppRespDescriptor* %this, %class.cObject* %obj) unnamed_addr #5 align 2 !dbg !2280 {
entry:
  %this.addr = alloca %class.EtherAppRespDescriptor*, align 8
  %obj.addr = alloca %class.cObject*, align 8
  store %class.EtherAppRespDescriptor* %this, %class.EtherAppRespDescriptor** %this.addr, align 8
  call void @llvm.dbg.declare(metadata %class.EtherAppRespDescriptor** %this.addr, metadata !2281, metadata !DIExpression()), !dbg !2283
  store %class.cObject* %obj, %class.cObject** %obj.addr, align 8
  call void @llvm.dbg.declare(metadata %class.cObject** %obj.addr, metadata !2284, metadata !DIExpression()), !dbg !2285
  %this1 = load %class.EtherAppRespDescriptor*, %class.EtherAppRespDescriptor** %this.addr, align 8
  %0 = load %class.cObject*, %class.cObject** %obj.addr, align 8, !dbg !2286
  %1 = icmp eq %class.cObject* %0, null, !dbg !2287
  br i1 %1, label %dynamic_cast.null, label %dynamic_cast.notnull, !dbg !2287

dynamic_cast.notnull:                             ; preds = %entry
  %2 = bitcast %class.cObject* %0 to i8*, !dbg !2287
  %3 = call i8* @__dynamic_cast(i8* %2, i8* bitcast (i8** @_ZTI7cObject to i8*), i8* bitcast ({ i8*, i8*, i8* }* @_ZTI12EtherAppResp to i8*), i64 0) #3, !dbg !2287
  %4 = bitcast i8* %3 to %class.EtherAppResp*, !dbg !2287
  br label %dynamic_cast.end, !dbg !2287

dynamic_cast.null:                                ; preds = %entry
  br label %dynamic_cast.end, !dbg !2287

dynamic_cast.end:                                 ; preds = %dynamic_cast.null, %dynamic_cast.notnull
  %5 = phi %class.EtherAppResp* [ %4, %dynamic_cast.notnull ], [ null, %dynamic_cast.null ], !dbg !2287
  %cmp = icmp ne %class.EtherAppResp* %5, null, !dbg !2288
  ret i1 %cmp, !dbg !2289
}

; Function Attrs: noinline uwtable
define dso_local i8* @_ZNK22EtherAppRespDescriptor11getPropertyEPKc(%class.EtherAppRespDescriptor* %this, i8* %propertyname) unnamed_addr #0 align 2 !dbg !2290 {
entry:
  %this.addr = alloca %class.EtherAppRespDescriptor*, align 8
  %propertyname.addr = alloca i8*, align 8
  %basedesc = alloca %class.cClassDescriptor*, align 8
  store %class.EtherAppRespDescriptor* %this, %class.EtherAppRespDescriptor** %this.addr, align 8
  call void @llvm.dbg.declare(metadata %class.EtherAppRespDescriptor** %this.addr, metadata !2291, metadata !DIExpression()), !dbg !2292
  store i8* %propertyname, i8** %propertyname.addr, align 8
  call void @llvm.dbg.declare(metadata i8** %propertyname.addr, metadata !2293, metadata !DIExpression()), !dbg !2294
  %this1 = load %class.EtherAppRespDescriptor*, %class.EtherAppRespDescriptor** %this.addr, align 8
  call void @llvm.dbg.declare(metadata %class.cClassDescriptor** %basedesc, metadata !2295, metadata !DIExpression()), !dbg !2296
  %0 = bitcast %class.EtherAppRespDescriptor* %this1 to %class.cClassDescriptor*, !dbg !2297
  %1 = bitcast %class.cClassDescriptor* %0 to %class.cClassDescriptor* (%class.cClassDescriptor*)***, !dbg !2297
  %vtable = load %class.cClassDescriptor* (%class.cClassDescriptor*)**, %class.cClassDescriptor* (%class.cClassDescriptor*)*** %1, align 8, !dbg !2297
  %vfn = getelementptr inbounds %class.cClassDescriptor* (%class.cClassDescriptor*)*, %class.cClassDescriptor* (%class.cClassDescriptor*)** %vtable, i64 25, !dbg !2297
  %2 = load %class.cClassDescriptor* (%class.cClassDescriptor*)*, %class.cClassDescriptor* (%class.cClassDescriptor*)** %vfn, align 8, !dbg !2297
  %call = call %class.cClassDescriptor* %2(%class.cClassDescriptor* %0), !dbg !2297
  store %class.cClassDescriptor* %call, %class.cClassDescriptor** %basedesc, align 8, !dbg !2296
  %3 = load %class.cClassDescriptor*, %class.cClassDescriptor** %basedesc, align 8, !dbg !2298
  %tobool = icmp ne %class.cClassDescriptor* %3, null, !dbg !2298
  br i1 %tobool, label %cond.true, label %cond.false, !dbg !2298

cond.true:                                        ; preds = %entry
  %4 = load %class.cClassDescriptor*, %class.cClassDescriptor** %basedesc, align 8, !dbg !2299
  %5 = load i8*, i8** %propertyname.addr, align 8, !dbg !2300
  %6 = bitcast %class.cClassDescriptor* %4 to i8* (%class.cClassDescriptor*, i8*)***, !dbg !2301
  %vtable2 = load i8* (%class.cClassDescriptor*, i8*)**, i8* (%class.cClassDescriptor*, i8*)*** %6, align 8, !dbg !2301
  %vfn3 = getelementptr inbounds i8* (%class.cClassDescriptor*, i8*)*, i8* (%class.cClassDescriptor*, i8*)** %vtable2, i64 26, !dbg !2301
  %7 = load i8* (%class.cClassDescriptor*, i8*)*, i8* (%class.cClassDescriptor*, i8*)** %vfn3, align 8, !dbg !2301
  %call4 = call i8* %7(%class.cClassDescriptor* %4, i8* %5), !dbg !2301
  br label %cond.end, !dbg !2298

cond.false:                                       ; preds = %entry
  br label %cond.end, !dbg !2298

cond.end:                                         ; preds = %cond.false, %cond.true
  %cond = phi i8* [ %call4, %cond.true ], [ null, %cond.false ], !dbg !2298
  ret i8* %cond, !dbg !2302
}

; Function Attrs: noinline uwtable
define dso_local i32 @_ZNK22EtherAppRespDescriptor13getFieldCountEPv(%class.EtherAppRespDescriptor* %this, i8* %object) unnamed_addr #0 align 2 !dbg !2303 {
entry:
  %this.addr = alloca %class.EtherAppRespDescriptor*, align 8
  %object.addr = alloca i8*, align 8
  %basedesc = alloca %class.cClassDescriptor*, align 8
  store %class.EtherAppRespDescriptor* %this, %class.EtherAppRespDescriptor** %this.addr, align 8
  call void @llvm.dbg.declare(metadata %class.EtherAppRespDescriptor** %this.addr, metadata !2304, metadata !DIExpression()), !dbg !2305
  store i8* %object, i8** %object.addr, align 8
  call void @llvm.dbg.declare(metadata i8** %object.addr, metadata !2306, metadata !DIExpression()), !dbg !2307
  %this1 = load %class.EtherAppRespDescriptor*, %class.EtherAppRespDescriptor** %this.addr, align 8
  call void @llvm.dbg.declare(metadata %class.cClassDescriptor** %basedesc, metadata !2308, metadata !DIExpression()), !dbg !2309
  %0 = bitcast %class.EtherAppRespDescriptor* %this1 to %class.cClassDescriptor*, !dbg !2310
  %1 = bitcast %class.cClassDescriptor* %0 to %class.cClassDescriptor* (%class.cClassDescriptor*)***, !dbg !2310
  %vtable = load %class.cClassDescriptor* (%class.cClassDescriptor*)**, %class.cClassDescriptor* (%class.cClassDescriptor*)*** %1, align 8, !dbg !2310
  %vfn = getelementptr inbounds %class.cClassDescriptor* (%class.cClassDescriptor*)*, %class.cClassDescriptor* (%class.cClassDescriptor*)** %vtable, i64 25, !dbg !2310
  %2 = load %class.cClassDescriptor* (%class.cClassDescriptor*)*, %class.cClassDescriptor* (%class.cClassDescriptor*)** %vfn, align 8, !dbg !2310
  %call = call %class.cClassDescriptor* %2(%class.cClassDescriptor* %0), !dbg !2310
  store %class.cClassDescriptor* %call, %class.cClassDescriptor** %basedesc, align 8, !dbg !2309
  %3 = load %class.cClassDescriptor*, %class.cClassDescriptor** %basedesc, align 8, !dbg !2311
  %tobool = icmp ne %class.cClassDescriptor* %3, null, !dbg !2311
  br i1 %tobool, label %cond.true, label %cond.false, !dbg !2311

cond.true:                                        ; preds = %entry
  %4 = load %class.cClassDescriptor*, %class.cClassDescriptor** %basedesc, align 8, !dbg !2312
  %5 = load i8*, i8** %object.addr, align 8, !dbg !2313
  %6 = bitcast %class.cClassDescriptor* %4 to i32 (%class.cClassDescriptor*, i8*)***, !dbg !2314
  %vtable2 = load i32 (%class.cClassDescriptor*, i8*)**, i32 (%class.cClassDescriptor*, i8*)*** %6, align 8, !dbg !2314
  %vfn3 = getelementptr inbounds i32 (%class.cClassDescriptor*, i8*)*, i32 (%class.cClassDescriptor*, i8*)** %vtable2, i64 27, !dbg !2314
  %7 = load i32 (%class.cClassDescriptor*, i8*)*, i32 (%class.cClassDescriptor*, i8*)** %vfn3, align 8, !dbg !2314
  %call4 = call i32 %7(%class.cClassDescriptor* %4, i8* %5), !dbg !2314
  %add = add nsw i32 2, %call4, !dbg !2315
  br label %cond.end, !dbg !2311

cond.false:                                       ; preds = %entry
  br label %cond.end, !dbg !2311

cond.end:                                         ; preds = %cond.false, %cond.true
  %cond = phi i32 [ %add, %cond.true ], [ 2, %cond.false ], !dbg !2311
  ret i32 %cond, !dbg !2316
}

; Function Attrs: noinline uwtable
define dso_local i32 @_ZNK22EtherAppRespDescriptor17getFieldTypeFlagsEPvi(%class.EtherAppRespDescriptor* %this, i8* %object, i32 %field) unnamed_addr #0 align 2 !dbg !2317 {
entry:
  %retval = alloca i32, align 4
  %this.addr = alloca %class.EtherAppRespDescriptor*, align 8
  %object.addr = alloca i8*, align 8
  %field.addr = alloca i32, align 4
  %basedesc = alloca %class.cClassDescriptor*, align 8
  store %class.EtherAppRespDescriptor* %this, %class.EtherAppRespDescriptor** %this.addr, align 8
  call void @llvm.dbg.declare(metadata %class.EtherAppRespDescriptor** %this.addr, metadata !2318, metadata !DIExpression()), !dbg !2319
  store i8* %object, i8** %object.addr, align 8
  call void @llvm.dbg.declare(metadata i8** %object.addr, metadata !2320, metadata !DIExpression()), !dbg !2321
  store i32 %field, i32* %field.addr, align 4
  call void @llvm.dbg.declare(metadata i32* %field.addr, metadata !2322, metadata !DIExpression()), !dbg !2323
  %this1 = load %class.EtherAppRespDescriptor*, %class.EtherAppRespDescriptor** %this.addr, align 8
  call void @llvm.dbg.declare(metadata %class.cClassDescriptor** %basedesc, metadata !2324, metadata !DIExpression()), !dbg !2325
  %0 = bitcast %class.EtherAppRespDescriptor* %this1 to %class.cClassDescriptor*, !dbg !2326
  %1 = bitcast %class.cClassDescriptor* %0 to %class.cClassDescriptor* (%class.cClassDescriptor*)***, !dbg !2326
  %vtable = load %class.cClassDescriptor* (%class.cClassDescriptor*)**, %class.cClassDescriptor* (%class.cClassDescriptor*)*** %1, align 8, !dbg !2326
  %vfn = getelementptr inbounds %class.cClassDescriptor* (%class.cClassDescriptor*)*, %class.cClassDescriptor* (%class.cClassDescriptor*)** %vtable, i64 25, !dbg !2326
  %2 = load %class.cClassDescriptor* (%class.cClassDescriptor*)*, %class.cClassDescriptor* (%class.cClassDescriptor*)** %vfn, align 8, !dbg !2326
  %call = call %class.cClassDescriptor* %2(%class.cClassDescriptor* %0), !dbg !2326
  store %class.cClassDescriptor* %call, %class.cClassDescriptor** %basedesc, align 8, !dbg !2325
  %3 = load %class.cClassDescriptor*, %class.cClassDescriptor** %basedesc, align 8, !dbg !2327
  %tobool = icmp ne %class.cClassDescriptor* %3, null, !dbg !2327
  br i1 %tobool, label %if.then, label %if.end12, !dbg !2329

if.then:                                          ; preds = %entry
  %4 = load i32, i32* %field.addr, align 4, !dbg !2330
  %5 = load %class.cClassDescriptor*, %class.cClassDescriptor** %basedesc, align 8, !dbg !2333
  %6 = load i8*, i8** %object.addr, align 8, !dbg !2334
  %7 = bitcast %class.cClassDescriptor* %5 to i32 (%class.cClassDescriptor*, i8*)***, !dbg !2335
  %vtable2 = load i32 (%class.cClassDescriptor*, i8*)**, i32 (%class.cClassDescriptor*, i8*)*** %7, align 8, !dbg !2335
  %vfn3 = getelementptr inbounds i32 (%class.cClassDescriptor*, i8*)*, i32 (%class.cClassDescriptor*, i8*)** %vtable2, i64 27, !dbg !2335
  %8 = load i32 (%class.cClassDescriptor*, i8*)*, i32 (%class.cClassDescriptor*, i8*)** %vfn3, align 8, !dbg !2335
  %call4 = call i32 %8(%class.cClassDescriptor* %5, i8* %6), !dbg !2335
  %cmp = icmp slt i32 %4, %call4, !dbg !2336
  br i1 %cmp, label %if.then5, label %if.end, !dbg !2337

if.then5:                                         ; preds = %if.then
  %9 = load %class.cClassDescriptor*, %class.cClassDescriptor** %basedesc, align 8, !dbg !2338
  %10 = load i8*, i8** %object.addr, align 8, !dbg !2339
  %11 = load i32, i32* %field.addr, align 4, !dbg !2340
  %12 = bitcast %class.cClassDescriptor* %9 to i32 (%class.cClassDescriptor*, i8*, i32)***, !dbg !2341
  %vtable6 = load i32 (%class.cClassDescriptor*, i8*, i32)**, i32 (%class.cClassDescriptor*, i8*, i32)*** %12, align 8, !dbg !2341
  %vfn7 = getelementptr inbounds i32 (%class.cClassDescriptor*, i8*, i32)*, i32 (%class.cClassDescriptor*, i8*, i32)** %vtable6, i64 29, !dbg !2341
  %13 = load i32 (%class.cClassDescriptor*, i8*, i32)*, i32 (%class.cClassDescriptor*, i8*, i32)** %vfn7, align 8, !dbg !2341
  %call8 = call i32 %13(%class.cClassDescriptor* %9, i8* %10, i32 %11), !dbg !2341
  store i32 %call8, i32* %retval, align 4, !dbg !2342
  br label %return, !dbg !2342

if.end:                                           ; preds = %if.then
  %14 = load %class.cClassDescriptor*, %class.cClassDescriptor** %basedesc, align 8, !dbg !2343
  %15 = load i8*, i8** %object.addr, align 8, !dbg !2344
  %16 = bitcast %class.cClassDescriptor* %14 to i32 (%class.cClassDescriptor*, i8*)***, !dbg !2345
  %vtable9 = load i32 (%class.cClassDescriptor*, i8*)**, i32 (%class.cClassDescriptor*, i8*)*** %16, align 8, !dbg !2345
  %vfn10 = getelementptr inbounds i32 (%class.cClassDescriptor*, i8*)*, i32 (%class.cClassDescriptor*, i8*)** %vtable9, i64 27, !dbg !2345
  %17 = load i32 (%class.cClassDescriptor*, i8*)*, i32 (%class.cClassDescriptor*, i8*)** %vfn10, align 8, !dbg !2345
  %call11 = call i32 %17(%class.cClassDescriptor* %14, i8* %15), !dbg !2345
  %18 = load i32, i32* %field.addr, align 4, !dbg !2346
  %sub = sub nsw i32 %18, %call11, !dbg !2346
  store i32 %sub, i32* %field.addr, align 4, !dbg !2346
  br label %if.end12, !dbg !2347

if.end12:                                         ; preds = %if.end, %entry
  %19 = load i32, i32* %field.addr, align 4, !dbg !2348
  switch i32 %19, label %sw.default [
    i32 0, label %sw.bb
    i32 1, label %sw.bb13
  ], !dbg !2349

sw.bb:                                            ; preds = %if.end12
  store i32 32, i32* %retval, align 4, !dbg !2350
  br label %return, !dbg !2350

sw.bb13:                                          ; preds = %if.end12
  store i32 32, i32* %retval, align 4, !dbg !2352
  br label %return, !dbg !2352

sw.default:                                       ; preds = %if.end12
  store i32 0, i32* %retval, align 4, !dbg !2353
  br label %return, !dbg !2353

return:                                           ; preds = %sw.default, %sw.bb13, %sw.bb, %if.then5
  %20 = load i32, i32* %retval, align 4, !dbg !2354
  ret i32 %20, !dbg !2354
}

; Function Attrs: noinline uwtable
define dso_local i8* @_ZNK22EtherAppRespDescriptor12getFieldNameEPvi(%class.EtherAppRespDescriptor* %this, i8* %object, i32 %field) unnamed_addr #0 align 2 !dbg !2355 {
entry:
  %retval = alloca i8*, align 8
  %this.addr = alloca %class.EtherAppRespDescriptor*, align 8
  %object.addr = alloca i8*, align 8
  %field.addr = alloca i32, align 4
  %basedesc = alloca %class.cClassDescriptor*, align 8
  store %class.EtherAppRespDescriptor* %this, %class.EtherAppRespDescriptor** %this.addr, align 8
  call void @llvm.dbg.declare(metadata %class.EtherAppRespDescriptor** %this.addr, metadata !2356, metadata !DIExpression()), !dbg !2357
  store i8* %object, i8** %object.addr, align 8
  call void @llvm.dbg.declare(metadata i8** %object.addr, metadata !2358, metadata !DIExpression()), !dbg !2359
  store i32 %field, i32* %field.addr, align 4
  call void @llvm.dbg.declare(metadata i32* %field.addr, metadata !2360, metadata !DIExpression()), !dbg !2361
  %this1 = load %class.EtherAppRespDescriptor*, %class.EtherAppRespDescriptor** %this.addr, align 8
  call void @llvm.dbg.declare(metadata %class.cClassDescriptor** %basedesc, metadata !2362, metadata !DIExpression()), !dbg !2363
  %0 = bitcast %class.EtherAppRespDescriptor* %this1 to %class.cClassDescriptor*, !dbg !2364
  %1 = bitcast %class.cClassDescriptor* %0 to %class.cClassDescriptor* (%class.cClassDescriptor*)***, !dbg !2364
  %vtable = load %class.cClassDescriptor* (%class.cClassDescriptor*)**, %class.cClassDescriptor* (%class.cClassDescriptor*)*** %1, align 8, !dbg !2364
  %vfn = getelementptr inbounds %class.cClassDescriptor* (%class.cClassDescriptor*)*, %class.cClassDescriptor* (%class.cClassDescriptor*)** %vtable, i64 25, !dbg !2364
  %2 = load %class.cClassDescriptor* (%class.cClassDescriptor*)*, %class.cClassDescriptor* (%class.cClassDescriptor*)** %vfn, align 8, !dbg !2364
  %call = call %class.cClassDescriptor* %2(%class.cClassDescriptor* %0), !dbg !2364
  store %class.cClassDescriptor* %call, %class.cClassDescriptor** %basedesc, align 8, !dbg !2363
  %3 = load %class.cClassDescriptor*, %class.cClassDescriptor** %basedesc, align 8, !dbg !2365
  %tobool = icmp ne %class.cClassDescriptor* %3, null, !dbg !2365
  br i1 %tobool, label %if.then, label %if.end12, !dbg !2367

if.then:                                          ; preds = %entry
  %4 = load i32, i32* %field.addr, align 4, !dbg !2368
  %5 = load %class.cClassDescriptor*, %class.cClassDescriptor** %basedesc, align 8, !dbg !2371
  %6 = load i8*, i8** %object.addr, align 8, !dbg !2372
  %7 = bitcast %class.cClassDescriptor* %5 to i32 (%class.cClassDescriptor*, i8*)***, !dbg !2373
  %vtable2 = load i32 (%class.cClassDescriptor*, i8*)**, i32 (%class.cClassDescriptor*, i8*)*** %7, align 8, !dbg !2373
  %vfn3 = getelementptr inbounds i32 (%class.cClassDescriptor*, i8*)*, i32 (%class.cClassDescriptor*, i8*)** %vtable2, i64 27, !dbg !2373
  %8 = load i32 (%class.cClassDescriptor*, i8*)*, i32 (%class.cClassDescriptor*, i8*)** %vfn3, align 8, !dbg !2373
  %call4 = call i32 %8(%class.cClassDescriptor* %5, i8* %6), !dbg !2373
  %cmp = icmp slt i32 %4, %call4, !dbg !2374
  br i1 %cmp, label %if.then5, label %if.end, !dbg !2375

if.then5:                                         ; preds = %if.then
  %9 = load %class.cClassDescriptor*, %class.cClassDescriptor** %basedesc, align 8, !dbg !2376
  %10 = load i8*, i8** %object.addr, align 8, !dbg !2377
  %11 = load i32, i32* %field.addr, align 4, !dbg !2378
  %12 = bitcast %class.cClassDescriptor* %9 to i8* (%class.cClassDescriptor*, i8*, i32)***, !dbg !2379
  %vtable6 = load i8* (%class.cClassDescriptor*, i8*, i32)**, i8* (%class.cClassDescriptor*, i8*, i32)*** %12, align 8, !dbg !2379
  %vfn7 = getelementptr inbounds i8* (%class.cClassDescriptor*, i8*, i32)*, i8* (%class.cClassDescriptor*, i8*, i32)** %vtable6, i64 28, !dbg !2379
  %13 = load i8* (%class.cClassDescriptor*, i8*, i32)*, i8* (%class.cClassDescriptor*, i8*, i32)** %vfn7, align 8, !dbg !2379
  %call8 = call i8* %13(%class.cClassDescriptor* %9, i8* %10, i32 %11), !dbg !2379
  store i8* %call8, i8** %retval, align 8, !dbg !2380
  br label %return, !dbg !2380

if.end:                                           ; preds = %if.then
  %14 = load %class.cClassDescriptor*, %class.cClassDescriptor** %basedesc, align 8, !dbg !2381
  %15 = load i8*, i8** %object.addr, align 8, !dbg !2382
  %16 = bitcast %class.cClassDescriptor* %14 to i32 (%class.cClassDescriptor*, i8*)***, !dbg !2383
  %vtable9 = load i32 (%class.cClassDescriptor*, i8*)**, i32 (%class.cClassDescriptor*, i8*)*** %16, align 8, !dbg !2383
  %vfn10 = getelementptr inbounds i32 (%class.cClassDescriptor*, i8*)*, i32 (%class.cClassDescriptor*, i8*)** %vtable9, i64 27, !dbg !2383
  %17 = load i32 (%class.cClassDescriptor*, i8*)*, i32 (%class.cClassDescriptor*, i8*)** %vfn10, align 8, !dbg !2383
  %call11 = call i32 %17(%class.cClassDescriptor* %14, i8* %15), !dbg !2383
  %18 = load i32, i32* %field.addr, align 4, !dbg !2384
  %sub = sub nsw i32 %18, %call11, !dbg !2384
  store i32 %sub, i32* %field.addr, align 4, !dbg !2384
  br label %if.end12, !dbg !2385

if.end12:                                         ; preds = %if.end, %entry
  %19 = load i32, i32* %field.addr, align 4, !dbg !2386
  switch i32 %19, label %sw.default [
    i32 0, label %sw.bb
    i32 1, label %sw.bb13
  ], !dbg !2387

sw.bb:                                            ; preds = %if.end12
  store i8* getelementptr inbounds ([10 x i8], [10 x i8]* @.str.4, i64 0, i64 0), i8** %retval, align 8, !dbg !2388
  br label %return, !dbg !2388

sw.bb13:                                          ; preds = %if.end12
  store i8* getelementptr inbounds ([10 x i8], [10 x i8]* @.str.10, i64 0, i64 0), i8** %retval, align 8, !dbg !2390
  br label %return, !dbg !2390

sw.default:                                       ; preds = %if.end12
  store i8* null, i8** %retval, align 8, !dbg !2391
  br label %return, !dbg !2391

return:                                           ; preds = %sw.default, %sw.bb13, %sw.bb, %if.then5
  %20 = load i8*, i8** %retval, align 8, !dbg !2392
  ret i8* %20, !dbg !2392
}

; Function Attrs: noinline uwtable
define dso_local i8* @_ZNK22EtherAppRespDescriptor18getFieldTypeStringEPvi(%class.EtherAppRespDescriptor* %this, i8* %object, i32 %field) unnamed_addr #0 align 2 !dbg !2393 {
entry:
  %retval = alloca i8*, align 8
  %this.addr = alloca %class.EtherAppRespDescriptor*, align 8
  %object.addr = alloca i8*, align 8
  %field.addr = alloca i32, align 4
  %basedesc = alloca %class.cClassDescriptor*, align 8
  store %class.EtherAppRespDescriptor* %this, %class.EtherAppRespDescriptor** %this.addr, align 8
  call void @llvm.dbg.declare(metadata %class.EtherAppRespDescriptor** %this.addr, metadata !2394, metadata !DIExpression()), !dbg !2395
  store i8* %object, i8** %object.addr, align 8
  call void @llvm.dbg.declare(metadata i8** %object.addr, metadata !2396, metadata !DIExpression()), !dbg !2397
  store i32 %field, i32* %field.addr, align 4
  call void @llvm.dbg.declare(metadata i32* %field.addr, metadata !2398, metadata !DIExpression()), !dbg !2399
  %this1 = load %class.EtherAppRespDescriptor*, %class.EtherAppRespDescriptor** %this.addr, align 8
  call void @llvm.dbg.declare(metadata %class.cClassDescriptor** %basedesc, metadata !2400, metadata !DIExpression()), !dbg !2401
  %0 = bitcast %class.EtherAppRespDescriptor* %this1 to %class.cClassDescriptor*, !dbg !2402
  %1 = bitcast %class.cClassDescriptor* %0 to %class.cClassDescriptor* (%class.cClassDescriptor*)***, !dbg !2402
  %vtable = load %class.cClassDescriptor* (%class.cClassDescriptor*)**, %class.cClassDescriptor* (%class.cClassDescriptor*)*** %1, align 8, !dbg !2402
  %vfn = getelementptr inbounds %class.cClassDescriptor* (%class.cClassDescriptor*)*, %class.cClassDescriptor* (%class.cClassDescriptor*)** %vtable, i64 25, !dbg !2402
  %2 = load %class.cClassDescriptor* (%class.cClassDescriptor*)*, %class.cClassDescriptor* (%class.cClassDescriptor*)** %vfn, align 8, !dbg !2402
  %call = call %class.cClassDescriptor* %2(%class.cClassDescriptor* %0), !dbg !2402
  store %class.cClassDescriptor* %call, %class.cClassDescriptor** %basedesc, align 8, !dbg !2401
  %3 = load %class.cClassDescriptor*, %class.cClassDescriptor** %basedesc, align 8, !dbg !2403
  %tobool = icmp ne %class.cClassDescriptor* %3, null, !dbg !2403
  br i1 %tobool, label %if.then, label %if.end12, !dbg !2405

if.then:                                          ; preds = %entry
  %4 = load i32, i32* %field.addr, align 4, !dbg !2406
  %5 = load %class.cClassDescriptor*, %class.cClassDescriptor** %basedesc, align 8, !dbg !2409
  %6 = load i8*, i8** %object.addr, align 8, !dbg !2410
  %7 = bitcast %class.cClassDescriptor* %5 to i32 (%class.cClassDescriptor*, i8*)***, !dbg !2411
  %vtable2 = load i32 (%class.cClassDescriptor*, i8*)**, i32 (%class.cClassDescriptor*, i8*)*** %7, align 8, !dbg !2411
  %vfn3 = getelementptr inbounds i32 (%class.cClassDescriptor*, i8*)*, i32 (%class.cClassDescriptor*, i8*)** %vtable2, i64 27, !dbg !2411
  %8 = load i32 (%class.cClassDescriptor*, i8*)*, i32 (%class.cClassDescriptor*, i8*)** %vfn3, align 8, !dbg !2411
  %call4 = call i32 %8(%class.cClassDescriptor* %5, i8* %6), !dbg !2411
  %cmp = icmp slt i32 %4, %call4, !dbg !2412
  br i1 %cmp, label %if.then5, label %if.end, !dbg !2413

if.then5:                                         ; preds = %if.then
  %9 = load %class.cClassDescriptor*, %class.cClassDescriptor** %basedesc, align 8, !dbg !2414
  %10 = load i8*, i8** %object.addr, align 8, !dbg !2415
  %11 = load i32, i32* %field.addr, align 4, !dbg !2416
  %12 = bitcast %class.cClassDescriptor* %9 to i8* (%class.cClassDescriptor*, i8*, i32)***, !dbg !2417
  %vtable6 = load i8* (%class.cClassDescriptor*, i8*, i32)**, i8* (%class.cClassDescriptor*, i8*, i32)*** %12, align 8, !dbg !2417
  %vfn7 = getelementptr inbounds i8* (%class.cClassDescriptor*, i8*, i32)*, i8* (%class.cClassDescriptor*, i8*, i32)** %vtable6, i64 31, !dbg !2417
  %13 = load i8* (%class.cClassDescriptor*, i8*, i32)*, i8* (%class.cClassDescriptor*, i8*, i32)** %vfn7, align 8, !dbg !2417
  %call8 = call i8* %13(%class.cClassDescriptor* %9, i8* %10, i32 %11), !dbg !2417
  store i8* %call8, i8** %retval, align 8, !dbg !2418
  br label %return, !dbg !2418

if.end:                                           ; preds = %if.then
  %14 = load %class.cClassDescriptor*, %class.cClassDescriptor** %basedesc, align 8, !dbg !2419
  %15 = load i8*, i8** %object.addr, align 8, !dbg !2420
  %16 = bitcast %class.cClassDescriptor* %14 to i32 (%class.cClassDescriptor*, i8*)***, !dbg !2421
  %vtable9 = load i32 (%class.cClassDescriptor*, i8*)**, i32 (%class.cClassDescriptor*, i8*)*** %16, align 8, !dbg !2421
  %vfn10 = getelementptr inbounds i32 (%class.cClassDescriptor*, i8*)*, i32 (%class.cClassDescriptor*, i8*)** %vtable9, i64 27, !dbg !2421
  %17 = load i32 (%class.cClassDescriptor*, i8*)*, i32 (%class.cClassDescriptor*, i8*)** %vfn10, align 8, !dbg !2421
  %call11 = call i32 %17(%class.cClassDescriptor* %14, i8* %15), !dbg !2421
  %18 = load i32, i32* %field.addr, align 4, !dbg !2422
  %sub = sub nsw i32 %18, %call11, !dbg !2422
  store i32 %sub, i32* %field.addr, align 4, !dbg !2422
  br label %if.end12, !dbg !2423

if.end12:                                         ; preds = %if.end, %entry
  %19 = load i32, i32* %field.addr, align 4, !dbg !2424
  switch i32 %19, label %sw.default [
    i32 0, label %sw.bb
    i32 1, label %sw.bb13
  ], !dbg !2425

sw.bb:                                            ; preds = %if.end12
  store i8* getelementptr inbounds ([4 x i8], [4 x i8]* @.str.11, i64 0, i64 0), i8** %retval, align 8, !dbg !2426
  br label %return, !dbg !2426

sw.bb13:                                          ; preds = %if.end12
  store i8* getelementptr inbounds ([4 x i8], [4 x i8]* @.str.11, i64 0, i64 0), i8** %retval, align 8, !dbg !2428
  br label %return, !dbg !2428

sw.default:                                       ; preds = %if.end12
  store i8* null, i8** %retval, align 8, !dbg !2429
  br label %return, !dbg !2429

return:                                           ; preds = %sw.default, %sw.bb13, %sw.bb, %if.then5
  %20 = load i8*, i8** %retval, align 8, !dbg !2430
  ret i8* %20, !dbg !2430
}

; Function Attrs: noinline uwtable
define dso_local i8* @_ZNK22EtherAppRespDescriptor16getFieldPropertyEPviPKc(%class.EtherAppRespDescriptor* %this, i8* %object, i32 %field, i8* %propertyname) unnamed_addr #0 align 2 !dbg !2431 {
entry:
  %retval = alloca i8*, align 8
  %this.addr = alloca %class.EtherAppRespDescriptor*, align 8
  %object.addr = alloca i8*, align 8
  %field.addr = alloca i32, align 4
  %propertyname.addr = alloca i8*, align 8
  %basedesc = alloca %class.cClassDescriptor*, align 8
  store %class.EtherAppRespDescriptor* %this, %class.EtherAppRespDescriptor** %this.addr, align 8
  call void @llvm.dbg.declare(metadata %class.EtherAppRespDescriptor** %this.addr, metadata !2432, metadata !DIExpression()), !dbg !2433
  store i8* %object, i8** %object.addr, align 8
  call void @llvm.dbg.declare(metadata i8** %object.addr, metadata !2434, metadata !DIExpression()), !dbg !2435
  store i32 %field, i32* %field.addr, align 4
  call void @llvm.dbg.declare(metadata i32* %field.addr, metadata !2436, metadata !DIExpression()), !dbg !2437
  store i8* %propertyname, i8** %propertyname.addr, align 8
  call void @llvm.dbg.declare(metadata i8** %propertyname.addr, metadata !2438, metadata !DIExpression()), !dbg !2439
  %this1 = load %class.EtherAppRespDescriptor*, %class.EtherAppRespDescriptor** %this.addr, align 8
  call void @llvm.dbg.declare(metadata %class.cClassDescriptor** %basedesc, metadata !2440, metadata !DIExpression()), !dbg !2441
  %0 = bitcast %class.EtherAppRespDescriptor* %this1 to %class.cClassDescriptor*, !dbg !2442
  %1 = bitcast %class.cClassDescriptor* %0 to %class.cClassDescriptor* (%class.cClassDescriptor*)***, !dbg !2442
  %vtable = load %class.cClassDescriptor* (%class.cClassDescriptor*)**, %class.cClassDescriptor* (%class.cClassDescriptor*)*** %1, align 8, !dbg !2442
  %vfn = getelementptr inbounds %class.cClassDescriptor* (%class.cClassDescriptor*)*, %class.cClassDescriptor* (%class.cClassDescriptor*)** %vtable, i64 25, !dbg !2442
  %2 = load %class.cClassDescriptor* (%class.cClassDescriptor*)*, %class.cClassDescriptor* (%class.cClassDescriptor*)** %vfn, align 8, !dbg !2442
  %call = call %class.cClassDescriptor* %2(%class.cClassDescriptor* %0), !dbg !2442
  store %class.cClassDescriptor* %call, %class.cClassDescriptor** %basedesc, align 8, !dbg !2441
  %3 = load %class.cClassDescriptor*, %class.cClassDescriptor** %basedesc, align 8, !dbg !2443
  %tobool = icmp ne %class.cClassDescriptor* %3, null, !dbg !2443
  br i1 %tobool, label %if.then, label %if.end12, !dbg !2445

if.then:                                          ; preds = %entry
  %4 = load i32, i32* %field.addr, align 4, !dbg !2446
  %5 = load %class.cClassDescriptor*, %class.cClassDescriptor** %basedesc, align 8, !dbg !2449
  %6 = load i8*, i8** %object.addr, align 8, !dbg !2450
  %7 = bitcast %class.cClassDescriptor* %5 to i32 (%class.cClassDescriptor*, i8*)***, !dbg !2451
  %vtable2 = load i32 (%class.cClassDescriptor*, i8*)**, i32 (%class.cClassDescriptor*, i8*)*** %7, align 8, !dbg !2451
  %vfn3 = getelementptr inbounds i32 (%class.cClassDescriptor*, i8*)*, i32 (%class.cClassDescriptor*, i8*)** %vtable2, i64 27, !dbg !2451
  %8 = load i32 (%class.cClassDescriptor*, i8*)*, i32 (%class.cClassDescriptor*, i8*)** %vfn3, align 8, !dbg !2451
  %call4 = call i32 %8(%class.cClassDescriptor* %5, i8* %6), !dbg !2451
  %cmp = icmp slt i32 %4, %call4, !dbg !2452
  br i1 %cmp, label %if.then5, label %if.end, !dbg !2453

if.then5:                                         ; preds = %if.then
  %9 = load %class.cClassDescriptor*, %class.cClassDescriptor** %basedesc, align 8, !dbg !2454
  %10 = load i8*, i8** %object.addr, align 8, !dbg !2455
  %11 = load i32, i32* %field.addr, align 4, !dbg !2456
  %12 = load i8*, i8** %propertyname.addr, align 8, !dbg !2457
  %13 = bitcast %class.cClassDescriptor* %9 to i8* (%class.cClassDescriptor*, i8*, i32, i8*)***, !dbg !2458
  %vtable6 = load i8* (%class.cClassDescriptor*, i8*, i32, i8*)**, i8* (%class.cClassDescriptor*, i8*, i32, i8*)*** %13, align 8, !dbg !2458
  %vfn7 = getelementptr inbounds i8* (%class.cClassDescriptor*, i8*, i32, i8*)*, i8* (%class.cClassDescriptor*, i8*, i32, i8*)** %vtable6, i64 32, !dbg !2458
  %14 = load i8* (%class.cClassDescriptor*, i8*, i32, i8*)*, i8* (%class.cClassDescriptor*, i8*, i32, i8*)** %vfn7, align 8, !dbg !2458
  %call8 = call i8* %14(%class.cClassDescriptor* %9, i8* %10, i32 %11, i8* %12), !dbg !2458
  store i8* %call8, i8** %retval, align 8, !dbg !2459
  br label %return, !dbg !2459

if.end:                                           ; preds = %if.then
  %15 = load %class.cClassDescriptor*, %class.cClassDescriptor** %basedesc, align 8, !dbg !2460
  %16 = load i8*, i8** %object.addr, align 8, !dbg !2461
  %17 = bitcast %class.cClassDescriptor* %15 to i32 (%class.cClassDescriptor*, i8*)***, !dbg !2462
  %vtable9 = load i32 (%class.cClassDescriptor*, i8*)**, i32 (%class.cClassDescriptor*, i8*)*** %17, align 8, !dbg !2462
  %vfn10 = getelementptr inbounds i32 (%class.cClassDescriptor*, i8*)*, i32 (%class.cClassDescriptor*, i8*)** %vtable9, i64 27, !dbg !2462
  %18 = load i32 (%class.cClassDescriptor*, i8*)*, i32 (%class.cClassDescriptor*, i8*)** %vfn10, align 8, !dbg !2462
  %call11 = call i32 %18(%class.cClassDescriptor* %15, i8* %16), !dbg !2462
  %19 = load i32, i32* %field.addr, align 4, !dbg !2463
  %sub = sub nsw i32 %19, %call11, !dbg !2463
  store i32 %sub, i32* %field.addr, align 4, !dbg !2463
  br label %if.end12, !dbg !2464

if.end12:                                         ; preds = %if.end, %entry
  %20 = load i32, i32* %field.addr, align 4, !dbg !2465
  switch i32 %20, label %sw.default [
  ], !dbg !2466

sw.default:                                       ; preds = %if.end12
  store i8* null, i8** %retval, align 8, !dbg !2467
  br label %return, !dbg !2467

return:                                           ; preds = %sw.default, %if.then5
  %21 = load i8*, i8** %retval, align 8, !dbg !2469
  ret i8* %21, !dbg !2469
}

; Function Attrs: noinline uwtable
define dso_local i32 @_ZNK22EtherAppRespDescriptor12getArraySizeEPvi(%class.EtherAppRespDescriptor* %this, i8* %object, i32 %field) unnamed_addr #0 align 2 !dbg !2470 {
entry:
  %retval = alloca i32, align 4
  %this.addr = alloca %class.EtherAppRespDescriptor*, align 8
  %object.addr = alloca i8*, align 8
  %field.addr = alloca i32, align 4
  %basedesc = alloca %class.cClassDescriptor*, align 8
  %pp = alloca %class.EtherAppResp*, align 8
  store %class.EtherAppRespDescriptor* %this, %class.EtherAppRespDescriptor** %this.addr, align 8
  call void @llvm.dbg.declare(metadata %class.EtherAppRespDescriptor** %this.addr, metadata !2471, metadata !DIExpression()), !dbg !2472
  store i8* %object, i8** %object.addr, align 8
  call void @llvm.dbg.declare(metadata i8** %object.addr, metadata !2473, metadata !DIExpression()), !dbg !2474
  store i32 %field, i32* %field.addr, align 4
  call void @llvm.dbg.declare(metadata i32* %field.addr, metadata !2475, metadata !DIExpression()), !dbg !2476
  %this1 = load %class.EtherAppRespDescriptor*, %class.EtherAppRespDescriptor** %this.addr, align 8
  call void @llvm.dbg.declare(metadata %class.cClassDescriptor** %basedesc, metadata !2477, metadata !DIExpression()), !dbg !2478
  %0 = bitcast %class.EtherAppRespDescriptor* %this1 to %class.cClassDescriptor*, !dbg !2479
  %1 = bitcast %class.cClassDescriptor* %0 to %class.cClassDescriptor* (%class.cClassDescriptor*)***, !dbg !2479
  %vtable = load %class.cClassDescriptor* (%class.cClassDescriptor*)**, %class.cClassDescriptor* (%class.cClassDescriptor*)*** %1, align 8, !dbg !2479
  %vfn = getelementptr inbounds %class.cClassDescriptor* (%class.cClassDescriptor*)*, %class.cClassDescriptor* (%class.cClassDescriptor*)** %vtable, i64 25, !dbg !2479
  %2 = load %class.cClassDescriptor* (%class.cClassDescriptor*)*, %class.cClassDescriptor* (%class.cClassDescriptor*)** %vfn, align 8, !dbg !2479
  %call = call %class.cClassDescriptor* %2(%class.cClassDescriptor* %0), !dbg !2479
  store %class.cClassDescriptor* %call, %class.cClassDescriptor** %basedesc, align 8, !dbg !2478
  %3 = load %class.cClassDescriptor*, %class.cClassDescriptor** %basedesc, align 8, !dbg !2480
  %tobool = icmp ne %class.cClassDescriptor* %3, null, !dbg !2480
  br i1 %tobool, label %if.then, label %if.end12, !dbg !2482

if.then:                                          ; preds = %entry
  %4 = load i32, i32* %field.addr, align 4, !dbg !2483
  %5 = load %class.cClassDescriptor*, %class.cClassDescriptor** %basedesc, align 8, !dbg !2486
  %6 = load i8*, i8** %object.addr, align 8, !dbg !2487
  %7 = bitcast %class.cClassDescriptor* %5 to i32 (%class.cClassDescriptor*, i8*)***, !dbg !2488
  %vtable2 = load i32 (%class.cClassDescriptor*, i8*)**, i32 (%class.cClassDescriptor*, i8*)*** %7, align 8, !dbg !2488
  %vfn3 = getelementptr inbounds i32 (%class.cClassDescriptor*, i8*)*, i32 (%class.cClassDescriptor*, i8*)** %vtable2, i64 27, !dbg !2488
  %8 = load i32 (%class.cClassDescriptor*, i8*)*, i32 (%class.cClassDescriptor*, i8*)** %vfn3, align 8, !dbg !2488
  %call4 = call i32 %8(%class.cClassDescriptor* %5, i8* %6), !dbg !2488
  %cmp = icmp slt i32 %4, %call4, !dbg !2489
  br i1 %cmp, label %if.then5, label %if.end, !dbg !2490

if.then5:                                         ; preds = %if.then
  %9 = load %class.cClassDescriptor*, %class.cClassDescriptor** %basedesc, align 8, !dbg !2491
  %10 = load i8*, i8** %object.addr, align 8, !dbg !2492
  %11 = load i32, i32* %field.addr, align 4, !dbg !2493
  %12 = bitcast %class.cClassDescriptor* %9 to i32 (%class.cClassDescriptor*, i8*, i32)***, !dbg !2494
  %vtable6 = load i32 (%class.cClassDescriptor*, i8*, i32)**, i32 (%class.cClassDescriptor*, i8*, i32)*** %12, align 8, !dbg !2494
  %vfn7 = getelementptr inbounds i32 (%class.cClassDescriptor*, i8*, i32)*, i32 (%class.cClassDescriptor*, i8*, i32)** %vtable6, i64 33, !dbg !2494
  %13 = load i32 (%class.cClassDescriptor*, i8*, i32)*, i32 (%class.cClassDescriptor*, i8*, i32)** %vfn7, align 8, !dbg !2494
  %call8 = call i32 %13(%class.cClassDescriptor* %9, i8* %10, i32 %11), !dbg !2494
  store i32 %call8, i32* %retval, align 4, !dbg !2495
  br label %return, !dbg !2495

if.end:                                           ; preds = %if.then
  %14 = load %class.cClassDescriptor*, %class.cClassDescriptor** %basedesc, align 8, !dbg !2496
  %15 = load i8*, i8** %object.addr, align 8, !dbg !2497
  %16 = bitcast %class.cClassDescriptor* %14 to i32 (%class.cClassDescriptor*, i8*)***, !dbg !2498
  %vtable9 = load i32 (%class.cClassDescriptor*, i8*)**, i32 (%class.cClassDescriptor*, i8*)*** %16, align 8, !dbg !2498
  %vfn10 = getelementptr inbounds i32 (%class.cClassDescriptor*, i8*)*, i32 (%class.cClassDescriptor*, i8*)** %vtable9, i64 27, !dbg !2498
  %17 = load i32 (%class.cClassDescriptor*, i8*)*, i32 (%class.cClassDescriptor*, i8*)** %vfn10, align 8, !dbg !2498
  %call11 = call i32 %17(%class.cClassDescriptor* %14, i8* %15), !dbg !2498
  %18 = load i32, i32* %field.addr, align 4, !dbg !2499
  %sub = sub nsw i32 %18, %call11, !dbg !2499
  store i32 %sub, i32* %field.addr, align 4, !dbg !2499
  br label %if.end12, !dbg !2500

if.end12:                                         ; preds = %if.end, %entry
  call void @llvm.dbg.declare(metadata %class.EtherAppResp** %pp, metadata !2501, metadata !DIExpression()), !dbg !2502
  %19 = load i8*, i8** %object.addr, align 8, !dbg !2503
  %20 = bitcast i8* %19 to %class.EtherAppResp*, !dbg !2504
  store %class.EtherAppResp* %20, %class.EtherAppResp** %pp, align 8, !dbg !2502
  %21 = load i32, i32* %field.addr, align 4, !dbg !2505
  switch i32 %21, label %sw.default [
  ], !dbg !2506

sw.default:                                       ; preds = %if.end12
  store i32 0, i32* %retval, align 4, !dbg !2507
  br label %return, !dbg !2507

return:                                           ; preds = %sw.default, %if.then5
  %22 = load i32, i32* %retval, align 4, !dbg !2509
  ret i32 %22, !dbg !2509
}

; Function Attrs: noinline uwtable
define dso_local zeroext i1 @_ZNK22EtherAppRespDescriptor16getFieldAsStringEPviiPci(%class.EtherAppRespDescriptor* %this, i8* %object, i32 %field, i32 %i, i8* %resultbuf, i32 %bufsize) unnamed_addr #0 align 2 !dbg !2510 {
entry:
  %retval = alloca i1, align 1
  %this.addr = alloca %class.EtherAppRespDescriptor*, align 8
  %object.addr = alloca i8*, align 8
  %field.addr = alloca i32, align 4
  %i.addr = alloca i32, align 4
  %resultbuf.addr = alloca i8*, align 8
  %bufsize.addr = alloca i32, align 4
  %basedesc = alloca %class.cClassDescriptor*, align 8
  %pp = alloca %class.EtherAppResp*, align 8
  store %class.EtherAppRespDescriptor* %this, %class.EtherAppRespDescriptor** %this.addr, align 8
  call void @llvm.dbg.declare(metadata %class.EtherAppRespDescriptor** %this.addr, metadata !2511, metadata !DIExpression()), !dbg !2512
  store i8* %object, i8** %object.addr, align 8
  call void @llvm.dbg.declare(metadata i8** %object.addr, metadata !2513, metadata !DIExpression()), !dbg !2514
  store i32 %field, i32* %field.addr, align 4
  call void @llvm.dbg.declare(metadata i32* %field.addr, metadata !2515, metadata !DIExpression()), !dbg !2516
  store i32 %i, i32* %i.addr, align 4
  call void @llvm.dbg.declare(metadata i32* %i.addr, metadata !2517, metadata !DIExpression()), !dbg !2518
  store i8* %resultbuf, i8** %resultbuf.addr, align 8
  call void @llvm.dbg.declare(metadata i8** %resultbuf.addr, metadata !2519, metadata !DIExpression()), !dbg !2520
  store i32 %bufsize, i32* %bufsize.addr, align 4
  call void @llvm.dbg.declare(metadata i32* %bufsize.addr, metadata !2521, metadata !DIExpression()), !dbg !2522
  %this1 = load %class.EtherAppRespDescriptor*, %class.EtherAppRespDescriptor** %this.addr, align 8
  call void @llvm.dbg.declare(metadata %class.cClassDescriptor** %basedesc, metadata !2523, metadata !DIExpression()), !dbg !2524
  %0 = bitcast %class.EtherAppRespDescriptor* %this1 to %class.cClassDescriptor*, !dbg !2525
  %1 = bitcast %class.cClassDescriptor* %0 to %class.cClassDescriptor* (%class.cClassDescriptor*)***, !dbg !2525
  %vtable = load %class.cClassDescriptor* (%class.cClassDescriptor*)**, %class.cClassDescriptor* (%class.cClassDescriptor*)*** %1, align 8, !dbg !2525
  %vfn = getelementptr inbounds %class.cClassDescriptor* (%class.cClassDescriptor*)*, %class.cClassDescriptor* (%class.cClassDescriptor*)** %vtable, i64 25, !dbg !2525
  %2 = load %class.cClassDescriptor* (%class.cClassDescriptor*)*, %class.cClassDescriptor* (%class.cClassDescriptor*)** %vfn, align 8, !dbg !2525
  %call = call %class.cClassDescriptor* %2(%class.cClassDescriptor* %0), !dbg !2525
  store %class.cClassDescriptor* %call, %class.cClassDescriptor** %basedesc, align 8, !dbg !2524
  %3 = load %class.cClassDescriptor*, %class.cClassDescriptor** %basedesc, align 8, !dbg !2526
  %tobool = icmp ne %class.cClassDescriptor* %3, null, !dbg !2526
  br i1 %tobool, label %if.then, label %if.end12, !dbg !2528

if.then:                                          ; preds = %entry
  %4 = load i32, i32* %field.addr, align 4, !dbg !2529
  %5 = load %class.cClassDescriptor*, %class.cClassDescriptor** %basedesc, align 8, !dbg !2532
  %6 = load i8*, i8** %object.addr, align 8, !dbg !2533
  %7 = bitcast %class.cClassDescriptor* %5 to i32 (%class.cClassDescriptor*, i8*)***, !dbg !2534
  %vtable2 = load i32 (%class.cClassDescriptor*, i8*)**, i32 (%class.cClassDescriptor*, i8*)*** %7, align 8, !dbg !2534
  %vfn3 = getelementptr inbounds i32 (%class.cClassDescriptor*, i8*)*, i32 (%class.cClassDescriptor*, i8*)** %vtable2, i64 27, !dbg !2534
  %8 = load i32 (%class.cClassDescriptor*, i8*)*, i32 (%class.cClassDescriptor*, i8*)** %vfn3, align 8, !dbg !2534
  %call4 = call i32 %8(%class.cClassDescriptor* %5, i8* %6), !dbg !2534
  %cmp = icmp slt i32 %4, %call4, !dbg !2535
  br i1 %cmp, label %if.then5, label %if.end, !dbg !2536

if.then5:                                         ; preds = %if.then
  %9 = load %class.cClassDescriptor*, %class.cClassDescriptor** %basedesc, align 8, !dbg !2537
  %10 = load i8*, i8** %object.addr, align 8, !dbg !2538
  %11 = load i32, i32* %field.addr, align 4, !dbg !2539
  %12 = load i32, i32* %i.addr, align 4, !dbg !2540
  %13 = load i8*, i8** %resultbuf.addr, align 8, !dbg !2541
  %14 = load i32, i32* %bufsize.addr, align 4, !dbg !2542
  %15 = bitcast %class.cClassDescriptor* %9 to i1 (%class.cClassDescriptor*, i8*, i32, i32, i8*, i32)***, !dbg !2543
  %vtable6 = load i1 (%class.cClassDescriptor*, i8*, i32, i32, i8*, i32)**, i1 (%class.cClassDescriptor*, i8*, i32, i32, i8*, i32)*** %15, align 8, !dbg !2543
  %vfn7 = getelementptr inbounds i1 (%class.cClassDescriptor*, i8*, i32, i32, i8*, i32)*, i1 (%class.cClassDescriptor*, i8*, i32, i32, i8*, i32)** %vtable6, i64 34, !dbg !2543
  %16 = load i1 (%class.cClassDescriptor*, i8*, i32, i32, i8*, i32)*, i1 (%class.cClassDescriptor*, i8*, i32, i32, i8*, i32)** %vfn7, align 8, !dbg !2543
  %call8 = call zeroext i1 %16(%class.cClassDescriptor* %9, i8* %10, i32 %11, i32 %12, i8* %13, i32 %14), !dbg !2543
  store i1 %call8, i1* %retval, align 1, !dbg !2544
  br label %return, !dbg !2544

if.end:                                           ; preds = %if.then
  %17 = load %class.cClassDescriptor*, %class.cClassDescriptor** %basedesc, align 8, !dbg !2545
  %18 = load i8*, i8** %object.addr, align 8, !dbg !2546
  %19 = bitcast %class.cClassDescriptor* %17 to i32 (%class.cClassDescriptor*, i8*)***, !dbg !2547
  %vtable9 = load i32 (%class.cClassDescriptor*, i8*)**, i32 (%class.cClassDescriptor*, i8*)*** %19, align 8, !dbg !2547
  %vfn10 = getelementptr inbounds i32 (%class.cClassDescriptor*, i8*)*, i32 (%class.cClassDescriptor*, i8*)** %vtable9, i64 27, !dbg !2547
  %20 = load i32 (%class.cClassDescriptor*, i8*)*, i32 (%class.cClassDescriptor*, i8*)** %vfn10, align 8, !dbg !2547
  %call11 = call i32 %20(%class.cClassDescriptor* %17, i8* %18), !dbg !2547
  %21 = load i32, i32* %field.addr, align 4, !dbg !2548
  %sub = sub nsw i32 %21, %call11, !dbg !2548
  store i32 %sub, i32* %field.addr, align 4, !dbg !2548
  br label %if.end12, !dbg !2549

if.end12:                                         ; preds = %if.end, %entry
  call void @llvm.dbg.declare(metadata %class.EtherAppResp** %pp, metadata !2550, metadata !DIExpression()), !dbg !2551
  %22 = load i8*, i8** %object.addr, align 8, !dbg !2552
  %23 = bitcast i8* %22 to %class.EtherAppResp*, !dbg !2553
  store %class.EtherAppResp* %23, %class.EtherAppResp** %pp, align 8, !dbg !2551
  %24 = load i32, i32* %field.addr, align 4, !dbg !2554
  switch i32 %24, label %sw.default [
    i32 0, label %sw.bb
    i32 1, label %sw.bb16
  ], !dbg !2555

sw.bb:                                            ; preds = %if.end12
  %25 = load %class.EtherAppResp*, %class.EtherAppResp** %pp, align 8, !dbg !2556
  %26 = bitcast %class.EtherAppResp* %25 to i32 (%class.EtherAppResp*)***, !dbg !2558
  %vtable13 = load i32 (%class.EtherAppResp*)**, i32 (%class.EtherAppResp*)*** %26, align 8, !dbg !2558
  %vfn14 = getelementptr inbounds i32 (%class.EtherAppResp*)*, i32 (%class.EtherAppResp*)** %vtable13, i64 26, !dbg !2558
  %27 = load i32 (%class.EtherAppResp*)*, i32 (%class.EtherAppResp*)** %vfn14, align 8, !dbg !2558
  %call15 = call i32 %27(%class.EtherAppResp* %25), !dbg !2558
  %conv = sext i32 %call15 to i64, !dbg !2556
  %28 = load i8*, i8** %resultbuf.addr, align 8, !dbg !2559
  %29 = load i32, i32* %bufsize.addr, align 4, !dbg !2560
  call void @_ZN16cClassDescriptor11long2stringElPci(i64 %conv, i8* %28, i32 %29), !dbg !2561
  store i1 true, i1* %retval, align 1, !dbg !2562
  br label %return, !dbg !2562

sw.bb16:                                          ; preds = %if.end12
  %30 = load %class.EtherAppResp*, %class.EtherAppResp** %pp, align 8, !dbg !2563
  %31 = bitcast %class.EtherAppResp* %30 to i32 (%class.EtherAppResp*)***, !dbg !2564
  %vtable17 = load i32 (%class.EtherAppResp*)**, i32 (%class.EtherAppResp*)*** %31, align 8, !dbg !2564
  %vfn18 = getelementptr inbounds i32 (%class.EtherAppResp*)*, i32 (%class.EtherAppResp*)** %vtable17, i64 28, !dbg !2564
  %32 = load i32 (%class.EtherAppResp*)*, i32 (%class.EtherAppResp*)** %vfn18, align 8, !dbg !2564
  %call19 = call i32 %32(%class.EtherAppResp* %30), !dbg !2564
  %conv20 = sext i32 %call19 to i64, !dbg !2563
  %33 = load i8*, i8** %resultbuf.addr, align 8, !dbg !2565
  %34 = load i32, i32* %bufsize.addr, align 4, !dbg !2566
  call void @_ZN16cClassDescriptor11long2stringElPci(i64 %conv20, i8* %33, i32 %34), !dbg !2567
  store i1 true, i1* %retval, align 1, !dbg !2568
  br label %return, !dbg !2568

sw.default:                                       ; preds = %if.end12
  store i1 false, i1* %retval, align 1, !dbg !2569
  br label %return, !dbg !2569

return:                                           ; preds = %sw.default, %sw.bb16, %sw.bb, %if.then5
  %35 = load i1, i1* %retval, align 1, !dbg !2570
  ret i1 %35, !dbg !2570
}

; Function Attrs: noinline uwtable
define dso_local zeroext i1 @_ZNK22EtherAppRespDescriptor16setFieldAsStringEPviiPKc(%class.EtherAppRespDescriptor* %this, i8* %object, i32 %field, i32 %i, i8* %value) unnamed_addr #0 align 2 !dbg !2571 {
entry:
  %retval = alloca i1, align 1
  %this.addr = alloca %class.EtherAppRespDescriptor*, align 8
  %object.addr = alloca i8*, align 8
  %field.addr = alloca i32, align 4
  %i.addr = alloca i32, align 4
  %value.addr = alloca i8*, align 8
  %basedesc = alloca %class.cClassDescriptor*, align 8
  %pp = alloca %class.EtherAppResp*, align 8
  store %class.EtherAppRespDescriptor* %this, %class.EtherAppRespDescriptor** %this.addr, align 8
  call void @llvm.dbg.declare(metadata %class.EtherAppRespDescriptor** %this.addr, metadata !2572, metadata !DIExpression()), !dbg !2573
  store i8* %object, i8** %object.addr, align 8
  call void @llvm.dbg.declare(metadata i8** %object.addr, metadata !2574, metadata !DIExpression()), !dbg !2575
  store i32 %field, i32* %field.addr, align 4
  call void @llvm.dbg.declare(metadata i32* %field.addr, metadata !2576, metadata !DIExpression()), !dbg !2577
  store i32 %i, i32* %i.addr, align 4
  call void @llvm.dbg.declare(metadata i32* %i.addr, metadata !2578, metadata !DIExpression()), !dbg !2579
  store i8* %value, i8** %value.addr, align 8
  call void @llvm.dbg.declare(metadata i8** %value.addr, metadata !2580, metadata !DIExpression()), !dbg !2581
  %this1 = load %class.EtherAppRespDescriptor*, %class.EtherAppRespDescriptor** %this.addr, align 8
  call void @llvm.dbg.declare(metadata %class.cClassDescriptor** %basedesc, metadata !2582, metadata !DIExpression()), !dbg !2583
  %0 = bitcast %class.EtherAppRespDescriptor* %this1 to %class.cClassDescriptor*, !dbg !2584
  %1 = bitcast %class.cClassDescriptor* %0 to %class.cClassDescriptor* (%class.cClassDescriptor*)***, !dbg !2584
  %vtable = load %class.cClassDescriptor* (%class.cClassDescriptor*)**, %class.cClassDescriptor* (%class.cClassDescriptor*)*** %1, align 8, !dbg !2584
  %vfn = getelementptr inbounds %class.cClassDescriptor* (%class.cClassDescriptor*)*, %class.cClassDescriptor* (%class.cClassDescriptor*)** %vtable, i64 25, !dbg !2584
  %2 = load %class.cClassDescriptor* (%class.cClassDescriptor*)*, %class.cClassDescriptor* (%class.cClassDescriptor*)** %vfn, align 8, !dbg !2584
  %call = call %class.cClassDescriptor* %2(%class.cClassDescriptor* %0), !dbg !2584
  store %class.cClassDescriptor* %call, %class.cClassDescriptor** %basedesc, align 8, !dbg !2583
  %3 = load %class.cClassDescriptor*, %class.cClassDescriptor** %basedesc, align 8, !dbg !2585
  %tobool = icmp ne %class.cClassDescriptor* %3, null, !dbg !2585
  br i1 %tobool, label %if.then, label %if.end12, !dbg !2587

if.then:                                          ; preds = %entry
  %4 = load i32, i32* %field.addr, align 4, !dbg !2588
  %5 = load %class.cClassDescriptor*, %class.cClassDescriptor** %basedesc, align 8, !dbg !2591
  %6 = load i8*, i8** %object.addr, align 8, !dbg !2592
  %7 = bitcast %class.cClassDescriptor* %5 to i32 (%class.cClassDescriptor*, i8*)***, !dbg !2593
  %vtable2 = load i32 (%class.cClassDescriptor*, i8*)**, i32 (%class.cClassDescriptor*, i8*)*** %7, align 8, !dbg !2593
  %vfn3 = getelementptr inbounds i32 (%class.cClassDescriptor*, i8*)*, i32 (%class.cClassDescriptor*, i8*)** %vtable2, i64 27, !dbg !2593
  %8 = load i32 (%class.cClassDescriptor*, i8*)*, i32 (%class.cClassDescriptor*, i8*)** %vfn3, align 8, !dbg !2593
  %call4 = call i32 %8(%class.cClassDescriptor* %5, i8* %6), !dbg !2593
  %cmp = icmp slt i32 %4, %call4, !dbg !2594
  br i1 %cmp, label %if.then5, label %if.end, !dbg !2595

if.then5:                                         ; preds = %if.then
  %9 = load %class.cClassDescriptor*, %class.cClassDescriptor** %basedesc, align 8, !dbg !2596
  %10 = load i8*, i8** %object.addr, align 8, !dbg !2597
  %11 = load i32, i32* %field.addr, align 4, !dbg !2598
  %12 = load i32, i32* %i.addr, align 4, !dbg !2599
  %13 = load i8*, i8** %value.addr, align 8, !dbg !2600
  %14 = bitcast %class.cClassDescriptor* %9 to i1 (%class.cClassDescriptor*, i8*, i32, i32, i8*)***, !dbg !2601
  %vtable6 = load i1 (%class.cClassDescriptor*, i8*, i32, i32, i8*)**, i1 (%class.cClassDescriptor*, i8*, i32, i32, i8*)*** %14, align 8, !dbg !2601
  %vfn7 = getelementptr inbounds i1 (%class.cClassDescriptor*, i8*, i32, i32, i8*)*, i1 (%class.cClassDescriptor*, i8*, i32, i32, i8*)** %vtable6, i64 35, !dbg !2601
  %15 = load i1 (%class.cClassDescriptor*, i8*, i32, i32, i8*)*, i1 (%class.cClassDescriptor*, i8*, i32, i32, i8*)** %vfn7, align 8, !dbg !2601
  %call8 = call zeroext i1 %15(%class.cClassDescriptor* %9, i8* %10, i32 %11, i32 %12, i8* %13), !dbg !2601
  store i1 %call8, i1* %retval, align 1, !dbg !2602
  br label %return, !dbg !2602

if.end:                                           ; preds = %if.then
  %16 = load %class.cClassDescriptor*, %class.cClassDescriptor** %basedesc, align 8, !dbg !2603
  %17 = load i8*, i8** %object.addr, align 8, !dbg !2604
  %18 = bitcast %class.cClassDescriptor* %16 to i32 (%class.cClassDescriptor*, i8*)***, !dbg !2605
  %vtable9 = load i32 (%class.cClassDescriptor*, i8*)**, i32 (%class.cClassDescriptor*, i8*)*** %18, align 8, !dbg !2605
  %vfn10 = getelementptr inbounds i32 (%class.cClassDescriptor*, i8*)*, i32 (%class.cClassDescriptor*, i8*)** %vtable9, i64 27, !dbg !2605
  %19 = load i32 (%class.cClassDescriptor*, i8*)*, i32 (%class.cClassDescriptor*, i8*)** %vfn10, align 8, !dbg !2605
  %call11 = call i32 %19(%class.cClassDescriptor* %16, i8* %17), !dbg !2605
  %20 = load i32, i32* %field.addr, align 4, !dbg !2606
  %sub = sub nsw i32 %20, %call11, !dbg !2606
  store i32 %sub, i32* %field.addr, align 4, !dbg !2606
  br label %if.end12, !dbg !2607

if.end12:                                         ; preds = %if.end, %entry
  call void @llvm.dbg.declare(metadata %class.EtherAppResp** %pp, metadata !2608, metadata !DIExpression()), !dbg !2609
  %21 = load i8*, i8** %object.addr, align 8, !dbg !2610
  %22 = bitcast i8* %21 to %class.EtherAppResp*, !dbg !2611
  store %class.EtherAppResp* %22, %class.EtherAppResp** %pp, align 8, !dbg !2609
  %23 = load i32, i32* %field.addr, align 4, !dbg !2612
  switch i32 %23, label %sw.default [
    i32 0, label %sw.bb
    i32 1, label %sw.bb16
  ], !dbg !2613

sw.bb:                                            ; preds = %if.end12
  %24 = load %class.EtherAppResp*, %class.EtherAppResp** %pp, align 8, !dbg !2614
  %25 = load i8*, i8** %value.addr, align 8, !dbg !2616
  %call13 = call i64 @_ZN16cClassDescriptor11string2longEPKc(i8* %25), !dbg !2617
  %conv = trunc i64 %call13 to i32, !dbg !2617
  %26 = bitcast %class.EtherAppResp* %24 to void (%class.EtherAppResp*, i32)***, !dbg !2618
  %vtable14 = load void (%class.EtherAppResp*, i32)**, void (%class.EtherAppResp*, i32)*** %26, align 8, !dbg !2618
  %vfn15 = getelementptr inbounds void (%class.EtherAppResp*, i32)*, void (%class.EtherAppResp*, i32)** %vtable14, i64 27, !dbg !2618
  %27 = load void (%class.EtherAppResp*, i32)*, void (%class.EtherAppResp*, i32)** %vfn15, align 8, !dbg !2618
  call void %27(%class.EtherAppResp* %24, i32 %conv), !dbg !2618
  store i1 true, i1* %retval, align 1, !dbg !2619
  br label %return, !dbg !2619

sw.bb16:                                          ; preds = %if.end12
  %28 = load %class.EtherAppResp*, %class.EtherAppResp** %pp, align 8, !dbg !2620
  %29 = load i8*, i8** %value.addr, align 8, !dbg !2621
  %call17 = call i64 @_ZN16cClassDescriptor11string2longEPKc(i8* %29), !dbg !2622
  %conv18 = trunc i64 %call17 to i32, !dbg !2622
  %30 = bitcast %class.EtherAppResp* %28 to void (%class.EtherAppResp*, i32)***, !dbg !2623
  %vtable19 = load void (%class.EtherAppResp*, i32)**, void (%class.EtherAppResp*, i32)*** %30, align 8, !dbg !2623
  %vfn20 = getelementptr inbounds void (%class.EtherAppResp*, i32)*, void (%class.EtherAppResp*, i32)** %vtable19, i64 29, !dbg !2623
  %31 = load void (%class.EtherAppResp*, i32)*, void (%class.EtherAppResp*, i32)** %vfn20, align 8, !dbg !2623
  call void %31(%class.EtherAppResp* %28, i32 %conv18), !dbg !2623
  store i1 true, i1* %retval, align 1, !dbg !2624
  br label %return, !dbg !2624

sw.default:                                       ; preds = %if.end12
  store i1 false, i1* %retval, align 1, !dbg !2625
  br label %return, !dbg !2625

return:                                           ; preds = %sw.default, %sw.bb16, %sw.bb, %if.then5
  %32 = load i1, i1* %retval, align 1, !dbg !2626
  ret i1 %32, !dbg !2626
}

; Function Attrs: noinline uwtable
define dso_local i8* @_ZNK22EtherAppRespDescriptor18getFieldStructNameEPvi(%class.EtherAppRespDescriptor* %this, i8* %object, i32 %field) unnamed_addr #0 align 2 !dbg !2627 {
entry:
  %retval = alloca i8*, align 8
  %this.addr = alloca %class.EtherAppRespDescriptor*, align 8
  %object.addr = alloca i8*, align 8
  %field.addr = alloca i32, align 4
  %basedesc = alloca %class.cClassDescriptor*, align 8
  store %class.EtherAppRespDescriptor* %this, %class.EtherAppRespDescriptor** %this.addr, align 8
  call void @llvm.dbg.declare(metadata %class.EtherAppRespDescriptor** %this.addr, metadata !2628, metadata !DIExpression()), !dbg !2629
  store i8* %object, i8** %object.addr, align 8
  call void @llvm.dbg.declare(metadata i8** %object.addr, metadata !2630, metadata !DIExpression()), !dbg !2631
  store i32 %field, i32* %field.addr, align 4
  call void @llvm.dbg.declare(metadata i32* %field.addr, metadata !2632, metadata !DIExpression()), !dbg !2633
  %this1 = load %class.EtherAppRespDescriptor*, %class.EtherAppRespDescriptor** %this.addr, align 8
  call void @llvm.dbg.declare(metadata %class.cClassDescriptor** %basedesc, metadata !2634, metadata !DIExpression()), !dbg !2635
  %0 = bitcast %class.EtherAppRespDescriptor* %this1 to %class.cClassDescriptor*, !dbg !2636
  %1 = bitcast %class.cClassDescriptor* %0 to %class.cClassDescriptor* (%class.cClassDescriptor*)***, !dbg !2636
  %vtable = load %class.cClassDescriptor* (%class.cClassDescriptor*)**, %class.cClassDescriptor* (%class.cClassDescriptor*)*** %1, align 8, !dbg !2636
  %vfn = getelementptr inbounds %class.cClassDescriptor* (%class.cClassDescriptor*)*, %class.cClassDescriptor* (%class.cClassDescriptor*)** %vtable, i64 25, !dbg !2636
  %2 = load %class.cClassDescriptor* (%class.cClassDescriptor*)*, %class.cClassDescriptor* (%class.cClassDescriptor*)** %vfn, align 8, !dbg !2636
  %call = call %class.cClassDescriptor* %2(%class.cClassDescriptor* %0), !dbg !2636
  store %class.cClassDescriptor* %call, %class.cClassDescriptor** %basedesc, align 8, !dbg !2635
  %3 = load %class.cClassDescriptor*, %class.cClassDescriptor** %basedesc, align 8, !dbg !2637
  %tobool = icmp ne %class.cClassDescriptor* %3, null, !dbg !2637
  br i1 %tobool, label %if.then, label %if.end12, !dbg !2639

if.then:                                          ; preds = %entry
  %4 = load i32, i32* %field.addr, align 4, !dbg !2640
  %5 = load %class.cClassDescriptor*, %class.cClassDescriptor** %basedesc, align 8, !dbg !2643
  %6 = load i8*, i8** %object.addr, align 8, !dbg !2644
  %7 = bitcast %class.cClassDescriptor* %5 to i32 (%class.cClassDescriptor*, i8*)***, !dbg !2645
  %vtable2 = load i32 (%class.cClassDescriptor*, i8*)**, i32 (%class.cClassDescriptor*, i8*)*** %7, align 8, !dbg !2645
  %vfn3 = getelementptr inbounds i32 (%class.cClassDescriptor*, i8*)*, i32 (%class.cClassDescriptor*, i8*)** %vtable2, i64 27, !dbg !2645
  %8 = load i32 (%class.cClassDescriptor*, i8*)*, i32 (%class.cClassDescriptor*, i8*)** %vfn3, align 8, !dbg !2645
  %call4 = call i32 %8(%class.cClassDescriptor* %5, i8* %6), !dbg !2645
  %cmp = icmp slt i32 %4, %call4, !dbg !2646
  br i1 %cmp, label %if.then5, label %if.end, !dbg !2647

if.then5:                                         ; preds = %if.then
  %9 = load %class.cClassDescriptor*, %class.cClassDescriptor** %basedesc, align 8, !dbg !2648
  %10 = load i8*, i8** %object.addr, align 8, !dbg !2649
  %11 = load i32, i32* %field.addr, align 4, !dbg !2650
  %12 = bitcast %class.cClassDescriptor* %9 to i8* (%class.cClassDescriptor*, i8*, i32)***, !dbg !2651
  %vtable6 = load i8* (%class.cClassDescriptor*, i8*, i32)**, i8* (%class.cClassDescriptor*, i8*, i32)*** %12, align 8, !dbg !2651
  %vfn7 = getelementptr inbounds i8* (%class.cClassDescriptor*, i8*, i32)*, i8* (%class.cClassDescriptor*, i8*, i32)** %vtable6, i64 36, !dbg !2651
  %13 = load i8* (%class.cClassDescriptor*, i8*, i32)*, i8* (%class.cClassDescriptor*, i8*, i32)** %vfn7, align 8, !dbg !2651
  %call8 = call i8* %13(%class.cClassDescriptor* %9, i8* %10, i32 %11), !dbg !2651
  store i8* %call8, i8** %retval, align 8, !dbg !2652
  br label %return, !dbg !2652

if.end:                                           ; preds = %if.then
  %14 = load %class.cClassDescriptor*, %class.cClassDescriptor** %basedesc, align 8, !dbg !2653
  %15 = load i8*, i8** %object.addr, align 8, !dbg !2654
  %16 = bitcast %class.cClassDescriptor* %14 to i32 (%class.cClassDescriptor*, i8*)***, !dbg !2655
  %vtable9 = load i32 (%class.cClassDescriptor*, i8*)**, i32 (%class.cClassDescriptor*, i8*)*** %16, align 8, !dbg !2655
  %vfn10 = getelementptr inbounds i32 (%class.cClassDescriptor*, i8*)*, i32 (%class.cClassDescriptor*, i8*)** %vtable9, i64 27, !dbg !2655
  %17 = load i32 (%class.cClassDescriptor*, i8*)*, i32 (%class.cClassDescriptor*, i8*)** %vfn10, align 8, !dbg !2655
  %call11 = call i32 %17(%class.cClassDescriptor* %14, i8* %15), !dbg !2655
  %18 = load i32, i32* %field.addr, align 4, !dbg !2656
  %sub = sub nsw i32 %18, %call11, !dbg !2656
  store i32 %sub, i32* %field.addr, align 4, !dbg !2656
  br label %if.end12, !dbg !2657

if.end12:                                         ; preds = %if.end, %entry
  %19 = load i32, i32* %field.addr, align 4, !dbg !2658
  switch i32 %19, label %sw.default [
  ], !dbg !2659

sw.default:                                       ; preds = %if.end12
  store i8* null, i8** %retval, align 8, !dbg !2660
  br label %return, !dbg !2660

return:                                           ; preds = %sw.default, %if.then5
  %20 = load i8*, i8** %retval, align 8, !dbg !2662
  ret i8* %20, !dbg !2662
}

; Function Attrs: noinline uwtable
define dso_local i8* @_ZNK22EtherAppRespDescriptor21getFieldStructPointerEPvii(%class.EtherAppRespDescriptor* %this, i8* %object, i32 %field, i32 %i) unnamed_addr #0 align 2 !dbg !2663 {
entry:
  %retval = alloca i8*, align 8
  %this.addr = alloca %class.EtherAppRespDescriptor*, align 8
  %object.addr = alloca i8*, align 8
  %field.addr = alloca i32, align 4
  %i.addr = alloca i32, align 4
  %basedesc = alloca %class.cClassDescriptor*, align 8
  %pp = alloca %class.EtherAppResp*, align 8
  store %class.EtherAppRespDescriptor* %this, %class.EtherAppRespDescriptor** %this.addr, align 8
  call void @llvm.dbg.declare(metadata %class.EtherAppRespDescriptor** %this.addr, metadata !2664, metadata !DIExpression()), !dbg !2665
  store i8* %object, i8** %object.addr, align 8
  call void @llvm.dbg.declare(metadata i8** %object.addr, metadata !2666, metadata !DIExpression()), !dbg !2667
  store i32 %field, i32* %field.addr, align 4
  call void @llvm.dbg.declare(metadata i32* %field.addr, metadata !2668, metadata !DIExpression()), !dbg !2669
  store i32 %i, i32* %i.addr, align 4
  call void @llvm.dbg.declare(metadata i32* %i.addr, metadata !2670, metadata !DIExpression()), !dbg !2671
  %this1 = load %class.EtherAppRespDescriptor*, %class.EtherAppRespDescriptor** %this.addr, align 8
  call void @llvm.dbg.declare(metadata %class.cClassDescriptor** %basedesc, metadata !2672, metadata !DIExpression()), !dbg !2673
  %0 = bitcast %class.EtherAppRespDescriptor* %this1 to %class.cClassDescriptor*, !dbg !2674
  %1 = bitcast %class.cClassDescriptor* %0 to %class.cClassDescriptor* (%class.cClassDescriptor*)***, !dbg !2674
  %vtable = load %class.cClassDescriptor* (%class.cClassDescriptor*)**, %class.cClassDescriptor* (%class.cClassDescriptor*)*** %1, align 8, !dbg !2674
  %vfn = getelementptr inbounds %class.cClassDescriptor* (%class.cClassDescriptor*)*, %class.cClassDescriptor* (%class.cClassDescriptor*)** %vtable, i64 25, !dbg !2674
  %2 = load %class.cClassDescriptor* (%class.cClassDescriptor*)*, %class.cClassDescriptor* (%class.cClassDescriptor*)** %vfn, align 8, !dbg !2674
  %call = call %class.cClassDescriptor* %2(%class.cClassDescriptor* %0), !dbg !2674
  store %class.cClassDescriptor* %call, %class.cClassDescriptor** %basedesc, align 8, !dbg !2673
  %3 = load %class.cClassDescriptor*, %class.cClassDescriptor** %basedesc, align 8, !dbg !2675
  %tobool = icmp ne %class.cClassDescriptor* %3, null, !dbg !2675
  br i1 %tobool, label %if.then, label %if.end12, !dbg !2677

if.then:                                          ; preds = %entry
  %4 = load i32, i32* %field.addr, align 4, !dbg !2678
  %5 = load %class.cClassDescriptor*, %class.cClassDescriptor** %basedesc, align 8, !dbg !2681
  %6 = load i8*, i8** %object.addr, align 8, !dbg !2682
  %7 = bitcast %class.cClassDescriptor* %5 to i32 (%class.cClassDescriptor*, i8*)***, !dbg !2683
  %vtable2 = load i32 (%class.cClassDescriptor*, i8*)**, i32 (%class.cClassDescriptor*, i8*)*** %7, align 8, !dbg !2683
  %vfn3 = getelementptr inbounds i32 (%class.cClassDescriptor*, i8*)*, i32 (%class.cClassDescriptor*, i8*)** %vtable2, i64 27, !dbg !2683
  %8 = load i32 (%class.cClassDescriptor*, i8*)*, i32 (%class.cClassDescriptor*, i8*)** %vfn3, align 8, !dbg !2683
  %call4 = call i32 %8(%class.cClassDescriptor* %5, i8* %6), !dbg !2683
  %cmp = icmp slt i32 %4, %call4, !dbg !2684
  br i1 %cmp, label %if.then5, label %if.end, !dbg !2685

if.then5:                                         ; preds = %if.then
  %9 = load %class.cClassDescriptor*, %class.cClassDescriptor** %basedesc, align 8, !dbg !2686
  %10 = load i8*, i8** %object.addr, align 8, !dbg !2687
  %11 = load i32, i32* %field.addr, align 4, !dbg !2688
  %12 = load i32, i32* %i.addr, align 4, !dbg !2689
  %13 = bitcast %class.cClassDescriptor* %9 to i8* (%class.cClassDescriptor*, i8*, i32, i32)***, !dbg !2690
  %vtable6 = load i8* (%class.cClassDescriptor*, i8*, i32, i32)**, i8* (%class.cClassDescriptor*, i8*, i32, i32)*** %13, align 8, !dbg !2690
  %vfn7 = getelementptr inbounds i8* (%class.cClassDescriptor*, i8*, i32, i32)*, i8* (%class.cClassDescriptor*, i8*, i32, i32)** %vtable6, i64 37, !dbg !2690
  %14 = load i8* (%class.cClassDescriptor*, i8*, i32, i32)*, i8* (%class.cClassDescriptor*, i8*, i32, i32)** %vfn7, align 8, !dbg !2690
  %call8 = call i8* %14(%class.cClassDescriptor* %9, i8* %10, i32 %11, i32 %12), !dbg !2690
  store i8* %call8, i8** %retval, align 8, !dbg !2691
  br label %return, !dbg !2691

if.end:                                           ; preds = %if.then
  %15 = load %class.cClassDescriptor*, %class.cClassDescriptor** %basedesc, align 8, !dbg !2692
  %16 = load i8*, i8** %object.addr, align 8, !dbg !2693
  %17 = bitcast %class.cClassDescriptor* %15 to i32 (%class.cClassDescriptor*, i8*)***, !dbg !2694
  %vtable9 = load i32 (%class.cClassDescriptor*, i8*)**, i32 (%class.cClassDescriptor*, i8*)*** %17, align 8, !dbg !2694
  %vfn10 = getelementptr inbounds i32 (%class.cClassDescriptor*, i8*)*, i32 (%class.cClassDescriptor*, i8*)** %vtable9, i64 27, !dbg !2694
  %18 = load i32 (%class.cClassDescriptor*, i8*)*, i32 (%class.cClassDescriptor*, i8*)** %vfn10, align 8, !dbg !2694
  %call11 = call i32 %18(%class.cClassDescriptor* %15, i8* %16), !dbg !2694
  %19 = load i32, i32* %field.addr, align 4, !dbg !2695
  %sub = sub nsw i32 %19, %call11, !dbg !2695
  store i32 %sub, i32* %field.addr, align 4, !dbg !2695
  br label %if.end12, !dbg !2696

if.end12:                                         ; preds = %if.end, %entry
  call void @llvm.dbg.declare(metadata %class.EtherAppResp** %pp, metadata !2697, metadata !DIExpression()), !dbg !2698
  %20 = load i8*, i8** %object.addr, align 8, !dbg !2699
  %21 = bitcast i8* %20 to %class.EtherAppResp*, !dbg !2700
  store %class.EtherAppResp* %21, %class.EtherAppResp** %pp, align 8, !dbg !2698
  %22 = load i32, i32* %field.addr, align 4, !dbg !2701
  switch i32 %22, label %sw.default [
  ], !dbg !2702

sw.default:                                       ; preds = %if.end12
  store i8* null, i8** %retval, align 8, !dbg !2703
  br label %return, !dbg !2703

return:                                           ; preds = %sw.default, %if.then5
  %23 = load i8*, i8** %retval, align 8, !dbg !2705
  ret i8* %23, !dbg !2705
}

declare dso_local %class.cClassDescriptor* @_ZN7cObject13getDescriptorEv(%class.cObject*) unnamed_addr #1

declare dso_local void @_ZN7cObject18ownedObjectDeletedEP12cOwnedObject(%class.cObject*, %class.cOwnedObject*) unnamed_addr #1

declare dso_local void @_ZN7cObject14yieldOwnershipEP12cOwnedObjectPS_(%class.cObject*, %class.cOwnedObject*, %class.cObject*) unnamed_addr #1

declare dso_local i8* @_ZNK7cObject12getClassNameEv(%class.cObject*) unnamed_addr #1

; Function Attrs: noinline nounwind uwtable
define linkonce_odr dso_local i8* @_ZNK12cNamedObject7getNameEv(%class.cNamedObject* %this) unnamed_addr #5 comdat align 2 !dbg !2706 {
entry:
  %this.addr = alloca %class.cNamedObject*, align 8
  store %class.cNamedObject* %this, %class.cNamedObject** %this.addr, align 8
  call void @llvm.dbg.declare(metadata %class.cNamedObject** %this.addr, metadata !2712, metadata !DIExpression()), !dbg !2714
  %this1 = load %class.cNamedObject*, %class.cNamedObject** %this.addr, align 8
  %namep = getelementptr inbounds %class.cNamedObject, %class.cNamedObject* %this1, i32 0, i32 1, !dbg !2715
  %0 = load i8*, i8** %namep, align 8, !dbg !2715
  %tobool = icmp ne i8* %0, null, !dbg !2715
  br i1 %tobool, label %cond.true, label %cond.false, !dbg !2715

cond.true:                                        ; preds = %entry
  %namep2 = getelementptr inbounds %class.cNamedObject, %class.cNamedObject* %this1, i32 0, i32 1, !dbg !2716
  %1 = load i8*, i8** %namep2, align 8, !dbg !2716
  br label %cond.end, !dbg !2715

cond.false:                                       ; preds = %entry
  br label %cond.end, !dbg !2715

cond.end:                                         ; preds = %cond.false, %cond.true
  %cond = phi i8* [ %1, %cond.true ], [ getelementptr inbounds ([1 x i8], [1 x i8]* @.str.12, i64 0, i64 0), %cond.false ], !dbg !2715
  ret i8* %cond, !dbg !2717
}

; Function Attrs: noinline uwtable
define linkonce_odr dso_local i8* @_ZNK7cObject11getFullNameEv(%class.cObject* %this) unnamed_addr #0 comdat align 2 !dbg !2718 {
entry:
  %this.addr = alloca %class.cObject*, align 8
  store %class.cObject* %this, %class.cObject** %this.addr, align 8
  call void @llvm.dbg.declare(metadata %class.cObject** %this.addr, metadata !2724, metadata !DIExpression()), !dbg !2726
  %this1 = load %class.cObject*, %class.cObject** %this.addr, align 8
  %0 = bitcast %class.cObject* %this1 to i8* (%class.cObject*)***, !dbg !2727
  %vtable = load i8* (%class.cObject*)**, i8* (%class.cObject*)*** %0, align 8, !dbg !2727
  %vfn = getelementptr inbounds i8* (%class.cObject*)*, i8* (%class.cObject*)** %vtable, i64 6, !dbg !2727
  %1 = load i8* (%class.cObject*)*, i8* (%class.cObject*)** %vfn, align 8, !dbg !2727
  %call = call i8* %1(%class.cObject* %this1), !dbg !2727
  ret i8* %call, !dbg !2728
}

declare dso_local void @_ZNK7cObject11getFullPathB5cxx11Ev(%"class.std::__cxx11::basic_string"* sret, %class.cObject*) unnamed_addr #1

declare dso_local void @_ZNK7cPacket4infoB5cxx11Ev(%"class.std::__cxx11::basic_string"* sret, %class.cPacket*) unnamed_addr #1

declare dso_local void @_ZNK7cPacket12detailedInfoB5cxx11Ev(%"class.std::__cxx11::basic_string"* sret, %class.cPacket*) unnamed_addr #1

; Function Attrs: noinline uwtable
define linkonce_odr dso_local %class.EtherAppReq* @_ZNK11EtherAppReq3dupEv(%class.EtherAppReq* %this) unnamed_addr #0 comdat align 2 personality i8* bitcast (i32 (...)* @__gxx_personality_v0 to i8*) !dbg !2729 {
entry:
  %this.addr = alloca %class.EtherAppReq*, align 8
  %exn.slot = alloca i8*
  %ehselector.slot = alloca i32
  store %class.EtherAppReq* %this, %class.EtherAppReq** %this.addr, align 8
  call void @llvm.dbg.declare(metadata %class.EtherAppReq** %this.addr, metadata !2730, metadata !DIExpression()), !dbg !2731
  %this1 = load %class.EtherAppReq*, %class.EtherAppReq** %this.addr, align 8
  %call = call i8* @_Znwm(i64 208) #9, !dbg !2732
  %0 = bitcast i8* %call to %class.EtherAppReq*, !dbg !2732
  invoke void @_ZN11EtherAppReqC1ERKS_(%class.EtherAppReq* %0, %class.EtherAppReq* dereferenceable(208) %this1)
          to label %invoke.cont unwind label %lpad, !dbg !2733

invoke.cont:                                      ; preds = %entry
  ret %class.EtherAppReq* %0, !dbg !2734

lpad:                                             ; preds = %entry
  %1 = landingpad { i8*, i32 }
          cleanup, !dbg !2735
  %2 = extractvalue { i8*, i32 } %1, 0, !dbg !2735
  store i8* %2, i8** %exn.slot, align 8, !dbg !2735
  %3 = extractvalue { i8*, i32 } %1, 1, !dbg !2735
  store i32 %3, i32* %ehselector.slot, align 4, !dbg !2735
  call void @_ZdlPv(i8* %call) #10, !dbg !2732
  br label %eh.resume, !dbg !2732

eh.resume:                                        ; preds = %lpad
  %exn = load i8*, i8** %exn.slot, align 8, !dbg !2732
  %sel = load i32, i32* %ehselector.slot, align 4, !dbg !2732
  %lpad.val = insertvalue { i8*, i32 } undef, i8* %exn, 0, !dbg !2732
  %lpad.val2 = insertvalue { i8*, i32 } %lpad.val, i32 %sel, 1, !dbg !2732
  resume { i8*, i32 } %lpad.val2, !dbg !2732
}

declare dso_local void @_ZN7cObject4takeEP12cOwnedObject(%class.cObject*, %class.cOwnedObject*) unnamed_addr #1

declare dso_local void @_ZN7cObject4dropEP12cOwnedObject(%class.cObject*, %class.cOwnedObject*) unnamed_addr #1

; Function Attrs: noinline nounwind uwtable
define linkonce_odr dso_local %class.cObject* @_ZNK12cOwnedObject8getOwnerEv(%class.cOwnedObject* %this) unnamed_addr #5 comdat align 2 !dbg !2736 {
entry:
  %this.addr = alloca %class.cOwnedObject*, align 8
  store %class.cOwnedObject* %this, %class.cOwnedObject** %this.addr, align 8
  call void @llvm.dbg.declare(metadata %class.cOwnedObject** %this.addr, metadata !2744, metadata !DIExpression()), !dbg !2746
  %this1 = load %class.cOwnedObject*, %class.cOwnedObject** %this.addr, align 8
  %ownerp = getelementptr inbounds %class.cOwnedObject, %class.cOwnedObject* %this1, i32 0, i32 2, !dbg !2747
  %0 = load %class.cObject*, %class.cObject** %ownerp, align 8, !dbg !2747
  ret %class.cObject* %0, !dbg !2748
}

; Function Attrs: noinline nounwind uwtable
define linkonce_odr dso_local zeroext i1 @_ZNK12cOwnedObject13isOwnedObjectEv(%class.cOwnedObject* %this) unnamed_addr #5 comdat align 2 !dbg !2749 {
entry:
  %this.addr = alloca %class.cOwnedObject*, align 8
  store %class.cOwnedObject* %this, %class.cOwnedObject** %this.addr, align 8
  call void @llvm.dbg.declare(metadata %class.cOwnedObject** %this.addr, metadata !2753, metadata !DIExpression()), !dbg !2754
  %this1 = load %class.cOwnedObject*, %class.cOwnedObject** %this.addr, align 8
  ret i1 true, !dbg !2755
}

declare dso_local void @_ZN7cPacket12forEachChildEP8cVisitor(%class.cPacket*, %class.cVisitor*) unnamed_addr #1

declare dso_local void @_ZN12cNamedObject7setNameEPKc(%class.cNamedObject*, i8*) unnamed_addr #1

declare dso_local void @_ZN12cNamedObject14setNamePoolingEb(%class.cNamedObject*, i1 zeroext) unnamed_addr #1

; Function Attrs: noinline nounwind uwtable
define linkonce_odr dso_local zeroext i1 @_ZN12cNamedObject14getNamePoolingEv(%class.cNamedObject* %this) unnamed_addr #5 comdat align 2 !dbg !2756 {
entry:
  %this.addr = alloca %class.cNamedObject*, align 8
  store %class.cNamedObject* %this, %class.cNamedObject** %this.addr, align 8
  call void @llvm.dbg.declare(metadata %class.cNamedObject** %this.addr, metadata !2761, metadata !DIExpression()), !dbg !2763
  %this1 = load %class.cNamedObject*, %class.cNamedObject** %this.addr, align 8
  %flags = getelementptr inbounds %class.cNamedObject, %class.cNamedObject* %this1, i32 0, i32 2, !dbg !2764
  %0 = load i16, i16* %flags, align 8, !dbg !2764
  %conv = zext i16 %0 to i32, !dbg !2764
  %and = and i32 %conv, 1, !dbg !2765
  %tobool = icmp ne i32 %and, 0, !dbg !2764
  ret i1 %tobool, !dbg !2766
}

declare dso_local void @_ZN12cOwnedObject23removeFromOwnershipTreeEv(%class.cOwnedObject*) unnamed_addr #1

; Function Attrs: noinline nounwind uwtable
define linkonce_odr dso_local zeroext i1 @_ZNK12cOwnedObject11isSoftOwnerEv(%class.cOwnedObject* %this) unnamed_addr #5 comdat align 2 !dbg !2767 {
entry:
  %this.addr = alloca %class.cOwnedObject*, align 8
  store %class.cOwnedObject* %this, %class.cOwnedObject** %this.addr, align 8
  call void @llvm.dbg.declare(metadata %class.cOwnedObject** %this.addr, metadata !2769, metadata !DIExpression()), !dbg !2770
  %this1 = load %class.cOwnedObject*, %class.cOwnedObject** %this.addr, align 8
  ret i1 false, !dbg !2771
}

; Function Attrs: noinline nounwind uwtable
define linkonce_odr dso_local zeroext i1 @_ZNK7cPacket8isPacketEv(%class.cPacket* %this) unnamed_addr #5 comdat align 2 !dbg !2772 {
entry:
  %this.addr = alloca %class.cPacket*, align 8
  store %class.cPacket* %this, %class.cPacket** %this.addr, align 8
  call void @llvm.dbg.declare(metadata %class.cPacket** %this.addr, metadata !2778, metadata !DIExpression()), !dbg !2780
  %this1 = load %class.cPacket*, %class.cPacket** %this.addr, align 8
  ret i1 true, !dbg !2781
}

declare dso_local i8* @_ZNK8cMessage16getDisplayStringEv(%class.cMessage*) unnamed_addr #1

declare dso_local void @_ZNK7cObject4infoB5cxx11Ev(%"class.std::__cxx11::basic_string"* sret, %class.cObject*) unnamed_addr #1

declare dso_local void @_ZNK7cObject12detailedInfoB5cxx11Ev(%"class.std::__cxx11::basic_string"* sret, %class.cObject*) unnamed_addr #1

declare dso_local %class.cNoncopyableOwnedObject* @_ZNK23cNoncopyableOwnedObject3dupEv(%class.cNoncopyableOwnedObject*) unnamed_addr #1

declare dso_local void @_ZN23cNoncopyableOwnedObject10parsimPackEP11cCommBuffer(%class.cNoncopyableOwnedObject*, %class.cCommBuffer*) unnamed_addr #1

declare dso_local void @_ZN23cNoncopyableOwnedObject12parsimUnpackEP11cCommBuffer(%class.cNoncopyableOwnedObject*, %class.cCommBuffer*) unnamed_addr #1

declare dso_local void @_ZN7cObject12forEachChildEP8cVisitor(%class.cObject*, %class.cVisitor*) unnamed_addr #1

declare dso_local %class.cClassDescriptor* @_ZNK16cClassDescriptor22getBaseClassDescriptorEv(%class.cClassDescriptor*) unnamed_addr #1

declare dso_local i8* @_ZNK16cClassDescriptor18getFieldDeclaredOnEPvi(%class.cClassDescriptor*, i8*, i32) unnamed_addr #1

; Function Attrs: noinline uwtable
define linkonce_odr dso_local %class.EtherAppResp* @_ZNK12EtherAppResp3dupEv(%class.EtherAppResp* %this) unnamed_addr #0 comdat align 2 personality i8* bitcast (i32 (...)* @__gxx_personality_v0 to i8*) !dbg !2782 {
entry:
  %this.addr = alloca %class.EtherAppResp*, align 8
  %exn.slot = alloca i8*
  %ehselector.slot = alloca i32
  store %class.EtherAppResp* %this, %class.EtherAppResp** %this.addr, align 8
  call void @llvm.dbg.declare(metadata %class.EtherAppResp** %this.addr, metadata !2783, metadata !DIExpression()), !dbg !2784
  %this1 = load %class.EtherAppResp*, %class.EtherAppResp** %this.addr, align 8
  %call = call i8* @_Znwm(i64 200) #9, !dbg !2785
  %0 = bitcast i8* %call to %class.EtherAppResp*, !dbg !2785
  invoke void @_ZN12EtherAppRespC1ERKS_(%class.EtherAppResp* %0, %class.EtherAppResp* dereferenceable(200) %this1)
          to label %invoke.cont unwind label %lpad, !dbg !2786

invoke.cont:                                      ; preds = %entry
  ret %class.EtherAppResp* %0, !dbg !2787

lpad:                                             ; preds = %entry
  %1 = landingpad { i8*, i32 }
          cleanup, !dbg !2788
  %2 = extractvalue { i8*, i32 } %1, 0, !dbg !2788
  store i8* %2, i8** %exn.slot, align 8, !dbg !2788
  %3 = extractvalue { i8*, i32 } %1, 1, !dbg !2788
  store i32 %3, i32* %ehselector.slot, align 4, !dbg !2788
  call void @_ZdlPv(i8* %call) #10, !dbg !2785
  br label %eh.resume, !dbg !2785

eh.resume:                                        ; preds = %lpad
  %exn = load i8*, i8** %exn.slot, align 8, !dbg !2785
  %sel = load i32, i32* %ehselector.slot, align 4, !dbg !2785
  %lpad.val = insertvalue { i8*, i32 } undef, i8* %exn, 0, !dbg !2785
  %lpad.val2 = insertvalue { i8*, i32 } %lpad.val, i32 %sel, 1, !dbg !2785
  resume { i8*, i32 } %lpad.val2, !dbg !2785
}

declare dso_local %class.cRegistrationList* @_ZN23cGlobalRegistrationList11getInstanceEv(%class.cGlobalRegistrationList*) #1

; Function Attrs: nobuiltin
declare dso_local noalias i8* @_Znwm(i64) #8

declare dso_local i8* @_Z12opp_typenameRKSt9type_info(%"class.std::type_info"* dereferenceable(16)) #1

; Function Attrs: noinline uwtable
define internal %class.cObject* @_ZL15__uniquename_33v() #0 personality i8* bitcast (i32 (...)* @__gxx_personality_v0 to i8*) !dbg !2789 {
entry:
  %exn.slot = alloca i8*
  %ehselector.slot = alloca i32
  %call = call i8* @_Znwm(i64 208) #9, !dbg !2792
  %0 = bitcast i8* %call to %class.EtherAppReq*, !dbg !2792
  invoke void @_ZN11EtherAppReqC1EPKci(%class.EtherAppReq* %0, i8* null, i32 0)
          to label %invoke.cont unwind label %lpad, !dbg !2792

invoke.cont:                                      ; preds = %entry
  %1 = bitcast %class.EtherAppReq* %0 to %class.cObject*, !dbg !2792
  ret %class.cObject* %1, !dbg !2792

lpad:                                             ; preds = %entry
  %2 = landingpad { i8*, i32 }
          cleanup, !dbg !2792
  %3 = extractvalue { i8*, i32 } %2, 0, !dbg !2792
  store i8* %3, i8** %exn.slot, align 8, !dbg !2792
  %4 = extractvalue { i8*, i32 } %2, 1, !dbg !2792
  store i32 %4, i32* %ehselector.slot, align 4, !dbg !2792
  call void @_ZdlPv(i8* %call) #10, !dbg !2792
  br label %eh.resume, !dbg !2792

eh.resume:                                        ; preds = %lpad
  %exn = load i8*, i8** %exn.slot, align 8, !dbg !2792
  %sel = load i32, i32* %ehselector.slot, align 4, !dbg !2792
  %lpad.val = insertvalue { i8*, i32 } undef, i8* %exn, 0, !dbg !2792
  %lpad.val1 = insertvalue { i8*, i32 } %lpad.val, i32 %sel, 1, !dbg !2792
  resume { i8*, i32 } %lpad.val1, !dbg !2792
}

declare dso_local void @_ZN13cClassFactoryC1EPKcPFP7cObjectvES1_(%class.cClassFactory*, i8*, %class.cObject* ()*, i8*) unnamed_addr #1

; Function Attrs: noinline uwtable
define internal %class.cObject* @_ZL16__uniquename_274v() #0 personality i8* bitcast (i32 (...)* @__gxx_personality_v0 to i8*) !dbg !2793 {
entry:
  %exn.slot = alloca i8*
  %ehselector.slot = alloca i32
  %call = call i8* @_Znwm(i64 200) #9, !dbg !2794
  %0 = bitcast i8* %call to %class.EtherAppResp*, !dbg !2794
  invoke void @_ZN12EtherAppRespC1EPKci(%class.EtherAppResp* %0, i8* null, i32 0)
          to label %invoke.cont unwind label %lpad, !dbg !2794

invoke.cont:                                      ; preds = %entry
  %1 = bitcast %class.EtherAppResp* %0 to %class.cObject*, !dbg !2794
  ret %class.cObject* %1, !dbg !2794

lpad:                                             ; preds = %entry
  %2 = landingpad { i8*, i32 }
          cleanup, !dbg !2794
  %3 = extractvalue { i8*, i32 } %2, 0, !dbg !2794
  store i8* %3, i8** %exn.slot, align 8, !dbg !2794
  %4 = extractvalue { i8*, i32 } %2, 1, !dbg !2794
  store i32 %4, i32* %ehselector.slot, align 4, !dbg !2794
  call void @_ZdlPv(i8* %call) #10, !dbg !2794
  br label %eh.resume, !dbg !2794

eh.resume:                                        ; preds = %lpad
  %exn = load i8*, i8** %exn.slot, align 8, !dbg !2794
  %sel = load i32, i32* %ehselector.slot, align 4, !dbg !2794
  %lpad.val = insertvalue { i8*, i32 } undef, i8* %exn, 0, !dbg !2794
  %lpad.val1 = insertvalue { i8*, i32 } %lpad.val, i32 %sel, 1, !dbg !2794
  resume { i8*, i32 } %lpad.val1, !dbg !2794
}

; Function Attrs: noinline uwtable
define internal void @_GLOBAL__sub_I_EtherApp_m.cc() #0 section ".text.startup" !dbg !2795 {
entry:
  call void @__cxx_global_var_init(), !dbg !2797
  call void @__cxx_global_var_init.1(), !dbg !2797
  call void @__cxx_global_var_init.2(), !dbg !2797
  call void @__cxx_global_var_init.7(), !dbg !2797
  call void @__cxx_global_var_init.8(), !dbg !2797
  ret void
}

attributes #0 = { noinline uwtable "correctly-rounded-divide-sqrt-fp-math"="false" "disable-tail-calls"="false" "frame-pointer"="all" "less-precise-fpmad"="false" "min-legal-vector-width"="0" "no-infs-fp-math"="false" "no-jump-tables"="false" "no-nans-fp-math"="false" "no-signed-zeros-fp-math"="false" "no-trapping-math"="false" "stack-protector-buffer-size"="8" "target-cpu"="x86-64" "target-features"="+cx8,+fxsr,+mmx,+sse,+sse2,+x87" "unsafe-fp-math"="false" "use-soft-float"="false" }
attributes #1 = { "correctly-rounded-divide-sqrt-fp-math"="false" "disable-tail-calls"="false" "frame-pointer"="all" "less-precise-fpmad"="false" "no-infs-fp-math"="false" "no-nans-fp-math"="false" "no-signed-zeros-fp-math"="false" "no-trapping-math"="false" "stack-protector-buffer-size"="8" "target-cpu"="x86-64" "target-features"="+cx8,+fxsr,+mmx,+sse,+sse2,+x87" "unsafe-fp-math"="false" "use-soft-float"="false" }
attributes #2 = { nounwind "correctly-rounded-divide-sqrt-fp-math"="false" "disable-tail-calls"="false" "frame-pointer"="all" "less-precise-fpmad"="false" "no-infs-fp-math"="false" "no-nans-fp-math"="false" "no-signed-zeros-fp-math"="false" "no-trapping-math"="false" "stack-protector-buffer-size"="8" "target-cpu"="x86-64" "target-features"="+cx8,+fxsr,+mmx,+sse,+sse2,+x87" "unsafe-fp-math"="false" "use-soft-float"="false" }
attributes #3 = { nounwind }
attributes #4 = { nounwind readnone speculatable willreturn }
attributes #5 = { noinline nounwind uwtable "correctly-rounded-divide-sqrt-fp-math"="false" "disable-tail-calls"="false" "frame-pointer"="all" "less-precise-fpmad"="false" "min-legal-vector-width"="0" "no-infs-fp-math"="false" "no-jump-tables"="false" "no-nans-fp-math"="false" "no-signed-zeros-fp-math"="false" "no-trapping-math"="false" "stack-protector-buffer-size"="8" "target-cpu"="x86-64" "target-features"="+cx8,+fxsr,+mmx,+sse,+sse2,+x87" "unsafe-fp-math"="false" "use-soft-float"="false" }
attributes #6 = { nobuiltin nounwind "correctly-rounded-divide-sqrt-fp-math"="false" "disable-tail-calls"="false" "frame-pointer"="all" "less-precise-fpmad"="false" "no-infs-fp-math"="false" "no-nans-fp-math"="false" "no-signed-zeros-fp-math"="false" "no-trapping-math"="false" "stack-protector-buffer-size"="8" "target-cpu"="x86-64" "target-features"="+cx8,+fxsr,+mmx,+sse,+sse2,+x87" "unsafe-fp-math"="false" "use-soft-float"="false" }
attributes #7 = { nounwind readonly }
attributes #8 = { nobuiltin "correctly-rounded-divide-sqrt-fp-math"="false" "disable-tail-calls"="false" "frame-pointer"="all" "less-precise-fpmad"="false" "no-infs-fp-math"="false" "no-nans-fp-math"="false" "no-signed-zeros-fp-math"="false" "no-trapping-math"="false" "stack-protector-buffer-size"="8" "target-cpu"="x86-64" "target-features"="+cx8,+fxsr,+mmx,+sse,+sse2,+x87" "unsafe-fp-math"="false" "use-soft-float"="false" }
attributes #9 = { builtin }
attributes #10 = { builtin nounwind }

!llvm.dbg.cu = !{!57}
!llvm.module.flags = !{!1438, !1439, !1440}
!llvm.ident = !{!1441}

!0 = !DIGlobalVariableExpression(var: !1, expr: !DIExpression())
!1 = distinct !DIGlobalVariable(name: "__ioinit", linkageName: "_ZStL8__ioinit", scope: !2, file: !3, line: 74, type: !4, isLocal: true, isDefinition: true)
!2 = !DINamespace(name: "std", scope: null)
!3 = !DIFile(filename: "/usr/lib/gcc/x86_64-linux-gnu/10/../../../../include/c++/10/iostream", directory: "")
!4 = distinct !DICompositeType(tag: DW_TAG_class_type, name: "Init", scope: !6, file: !5, line: 603, size: 8, flags: DIFlagTypePassByReference | DIFlagNonTrivial, elements: !7, identifier: "_ZTSNSt8ios_base4InitE")
!5 = !DIFile(filename: "/usr/lib/gcc/x86_64-linux-gnu/10/../../../../include/c++/10/bits/ios_base.h", directory: "")
!6 = !DICompositeType(tag: DW_TAG_class_type, name: "ios_base", scope: !2, file: !5, line: 228, flags: DIFlagFwdDecl)
!7 = !{!8, !12, !14, !18, !19, !24}
!8 = !DIDerivedType(tag: DW_TAG_member, name: "_S_refcount", scope: !4, file: !5, line: 616, baseType: !9, flags: DIFlagStaticMember)
!9 = !DIDerivedType(tag: DW_TAG_typedef, name: "_Atomic_word", file: !10, line: 32, baseType: !11)
!10 = !DIFile(filename: "/usr/lib/gcc/x86_64-linux-gnu/10/../../../../include/x86_64-linux-gnu/c++/10/bits/atomic_word.h", directory: "")
!11 = !DIBasicType(name: "int", size: 32, encoding: DW_ATE_signed)
!12 = !DIDerivedType(tag: DW_TAG_member, name: "_S_synced_with_stdio", scope: !4, file: !5, line: 617, baseType: !13, flags: DIFlagStaticMember)
!13 = !DIBasicType(name: "bool", size: 8, encoding: DW_ATE_boolean)
!14 = !DISubprogram(name: "Init", scope: !4, file: !5, line: 607, type: !15, scopeLine: 607, flags: DIFlagPublic | DIFlagPrototyped, spFlags: 0)
!15 = !DISubroutineType(types: !16)
!16 = !{null, !17}
!17 = !DIDerivedType(tag: DW_TAG_pointer_type, baseType: !4, size: 64, flags: DIFlagArtificial | DIFlagObjectPointer)
!18 = !DISubprogram(name: "~Init", scope: !4, file: !5, line: 608, type: !15, scopeLine: 608, flags: DIFlagPublic | DIFlagPrototyped, spFlags: 0)
!19 = !DISubprogram(name: "Init", scope: !4, file: !5, line: 611, type: !20, scopeLine: 611, flags: DIFlagPublic | DIFlagPrototyped, spFlags: 0)
!20 = !DISubroutineType(types: !21)
!21 = !{null, !17, !22}
!22 = !DIDerivedType(tag: DW_TAG_reference_type, baseType: !23, size: 64)
!23 = !DIDerivedType(tag: DW_TAG_const_type, baseType: !4)
!24 = !DISubprogram(name: "operator=", linkageName: "_ZNSt8ios_base4InitaSERKS0_", scope: !4, file: !5, line: 612, type: !25, scopeLine: 612, flags: DIFlagPublic | DIFlagPrototyped, spFlags: 0)
!25 = !DISubroutineType(types: !26)
!26 = !{!27, !17, !22}
!27 = !DIDerivedType(tag: DW_TAG_reference_type, baseType: !4, size: 64)
!28 = !DIGlobalVariableExpression(var: !29, expr: !DIExpression())
!29 = distinct !DIGlobalVariable(name: "__onstartup_obj_33", linkageName: "_ZN12_GLOBAL__N_118__onstartup_obj_33E", scope: !30, file: !31, line: 33, type: !32, isLocal: true, isDefinition: true)
!30 = !DINamespace(scope: null)
!31 = !DIFile(filename: "model/EtherApp_m.cc", directory: "/home/venkat/IF-DV/spec_build_release/CPU_2017/benchspec/CPU/520.omnetpp_r/build/build_base_ld-loop-ext-m64.0000")
!32 = distinct !DICompositeType(tag: DW_TAG_class_type, name: "ExecuteOnStartup", file: !33, line: 65, size: 128, flags: DIFlagTypePassByReference | DIFlagNonTrivial, elements: !34, identifier: "_ZTS16ExecuteOnStartup")
!33 = !DIFile(filename: "simulator/onstartup.h", directory: "/home/venkat/IF-DV/spec_build_release/CPU_2017/benchspec/CPU/520.omnetpp_r/build/build_base_ld-loop-ext-m64.0000")
!34 = !{!35, !39, !41, !42, !46, !49, !50}
!35 = !DIDerivedType(tag: DW_TAG_member, name: "code_to_exec", scope: !32, file: !33, line: 68, baseType: !36, size: 64)
!36 = !DIDerivedType(tag: DW_TAG_pointer_type, baseType: !37, size: 64)
!37 = !DISubroutineType(types: !38)
!38 = !{null}
!39 = !DIDerivedType(tag: DW_TAG_member, name: "next", scope: !32, file: !33, line: 69, baseType: !40, size: 64, offset: 64)
!40 = !DIDerivedType(tag: DW_TAG_pointer_type, baseType: !32, size: 64)
!41 = !DIDerivedType(tag: DW_TAG_member, name: "head", scope: !32, file: !33, line: 70, baseType: !40, flags: DIFlagStaticMember)
!42 = !DISubprogram(name: "ExecuteOnStartup", scope: !32, file: !33, line: 72, type: !43, scopeLine: 72, flags: DIFlagPublic | DIFlagPrototyped, spFlags: 0)
!43 = !DISubroutineType(types: !44)
!44 = !{null, !45, !36}
!45 = !DIDerivedType(tag: DW_TAG_pointer_type, baseType: !32, size: 64, flags: DIFlagArtificial | DIFlagObjectPointer)
!46 = !DISubprogram(name: "~ExecuteOnStartup", scope: !32, file: !33, line: 73, type: !47, scopeLine: 73, flags: DIFlagPublic | DIFlagPrototyped, spFlags: 0)
!47 = !DISubroutineType(types: !48)
!48 = !{null, !45}
!49 = !DISubprogram(name: "execute", linkageName: "_ZN16ExecuteOnStartup7executeEv", scope: !32, file: !33, line: 74, type: !47, scopeLine: 74, flags: DIFlagPublic | DIFlagPrototyped, spFlags: 0)
!50 = !DISubprogram(name: "executeAll", linkageName: "_ZN16ExecuteOnStartup10executeAllEv", scope: !32, file: !33, line: 75, type: !37, scopeLine: 75, flags: DIFlagPublic | DIFlagPrototyped | DIFlagStaticMember, spFlags: 0)
!51 = !DIGlobalVariableExpression(var: !52, expr: !DIExpression())
!52 = distinct !DIGlobalVariable(name: "__onstartup_obj_116", linkageName: "_ZN12_GLOBAL__N_119__onstartup_obj_116E", scope: !30, file: !31, line: 116, type: !32, isLocal: true, isDefinition: true)
!53 = !DIGlobalVariableExpression(var: !54, expr: !DIExpression())
!54 = distinct !DIGlobalVariable(name: "__onstartup_obj_274", linkageName: "_ZN12_GLOBAL__N_119__onstartup_obj_274E", scope: !30, file: !31, line: 274, type: !32, isLocal: true, isDefinition: true)
!55 = !DIGlobalVariableExpression(var: !56, expr: !DIExpression())
!56 = distinct !DIGlobalVariable(name: "__onstartup_obj_357", linkageName: "_ZN12_GLOBAL__N_119__onstartup_obj_357E", scope: !30, file: !31, line: 357, type: !32, isLocal: true, isDefinition: true)
!57 = distinct !DICompileUnit(language: DW_LANG_C_plus_plus_14, file: !31, producer: "clang version 10.0.1 (https://github.com/svkeerthy/IR2Vec-LoopOptimizationFramework.git 561ac470e63b728263a0ac06ef987886ac648486)", isOptimized: false, runtimeVersion: 0, emissionKind: FullDebug, enums: !58, retainedTypes: !76, globals: !171, imports: !172, splitDebugInlining: false, nameTableKind: None)
!58 = !{!59, !71}
!59 = !DICompositeType(tag: DW_TAG_enumeration_type, scope: !61, file: !60, line: 51, baseType: !62, size: 32, elements: !63, identifier: "_ZTSN16cClassDescriptorUt_E")
!60 = !DIFile(filename: "simulator/cclassdescriptor.h", directory: "/home/venkat/IF-DV/spec_build_release/CPU_2017/benchspec/CPU/520.omnetpp_r/build/build_base_ld-loop-ext-m64.0000")
!61 = !DICompositeType(tag: DW_TAG_class_type, name: "cClassDescriptor", file: !60, line: 47, flags: DIFlagFwdDecl)
!62 = !DIBasicType(name: "unsigned int", size: 32, encoding: DW_ATE_unsigned)
!63 = !{!64, !65, !66, !67, !68, !69, !70}
!64 = !DIEnumerator(name: "FD_ISARRAY", value: 1, isUnsigned: true)
!65 = !DIEnumerator(name: "FD_ISCOMPOUND", value: 2, isUnsigned: true)
!66 = !DIEnumerator(name: "FD_ISPOINTER", value: 4, isUnsigned: true)
!67 = !DIEnumerator(name: "FD_ISCPOLYMORPHIC", value: 8, isUnsigned: true)
!68 = !DIEnumerator(name: "FD_ISCOBJECT", value: 16, isUnsigned: true)
!69 = !DIEnumerator(name: "FD_ISEDITABLE", value: 32, isUnsigned: true)
!70 = !DIEnumerator(name: "FD_NONE", value: 0, isUnsigned: true)
!71 = !DICompositeType(tag: DW_TAG_enumeration_type, scope: !73, file: !72, line: 46, baseType: !62, size: 32, elements: !74, identifier: "_ZTSN12cNamedObjectUt_E")
!72 = !DIFile(filename: "simulator/cnamedobject.h", directory: "/home/venkat/IF-DV/spec_build_release/CPU_2017/benchspec/CPU/520.omnetpp_r/build/build_base_ld-loop-ext-m64.0000")
!73 = !DICompositeType(tag: DW_TAG_class_type, name: "cNamedObject", file: !72, line: 38, flags: DIFlagFwdDecl)
!74 = !{!75}
!75 = !DIEnumerator(name: "FL_NAMEPOOLING", value: 1, isUnsigned: true)
!76 = !{!77, !130}
!77 = !DIDerivedType(tag: DW_TAG_pointer_type, baseType: !78, size: 64)
!78 = distinct !DICompositeType(tag: DW_TAG_class_type, name: "EtherAppReq", file: !79, line: 35, size: 1664, flags: DIFlagTypePassByReference | DIFlagNonTrivial, elements: !80, vtableHolder: !128)
!79 = !DIFile(filename: "model/EtherApp_m.h", directory: "/home/venkat/IF-DV/spec_build_release/CPU_2017/benchspec/CPU/520.omnetpp_r/build/build_base_ld-loop-ext-m64.0000")
!80 = !{!81, !84, !86, !87, !93, !99, !102, !105, !109, !113, !119, !120, !123, !126, !127}
!81 = !DIDerivedType(tag: DW_TAG_inheritance, scope: !78, baseType: !82, flags: DIFlagPublic, extraData: i32 0)
!82 = !DICompositeType(tag: DW_TAG_class_type, name: "cPacket", file: !83, line: 688, flags: DIFlagFwdDecl)
!83 = !DIFile(filename: "simulator/cmessage.h", directory: "/home/venkat/IF-DV/spec_build_release/CPU_2017/benchspec/CPU/520.omnetpp_r/build/build_base_ld-loop-ext-m64.0000")
!84 = !DIDerivedType(tag: DW_TAG_member, name: "requestId_var", scope: !78, file: !79, line: 38, baseType: !85, size: 64, offset: 1536, flags: DIFlagProtected)
!85 = !DIBasicType(name: "long int", size: 64, encoding: DW_ATE_signed)
!86 = !DIDerivedType(tag: DW_TAG_member, name: "responseBytes_var", scope: !78, file: !79, line: 39, baseType: !85, size: 64, offset: 1600, flags: DIFlagProtected)
!87 = !DISubprogram(name: "operator==", linkageName: "_ZN11EtherAppReqeqERKS_", scope: !78, file: !79, line: 42, type: !88, scopeLine: 42, flags: DIFlagProtected | DIFlagPrototyped, spFlags: 0)
!88 = !DISubroutineType(types: !89)
!89 = !{!13, !90, !91}
!90 = !DIDerivedType(tag: DW_TAG_pointer_type, baseType: !78, size: 64, flags: DIFlagArtificial | DIFlagObjectPointer)
!91 = !DIDerivedType(tag: DW_TAG_reference_type, baseType: !92, size: 64)
!92 = !DIDerivedType(tag: DW_TAG_const_type, baseType: !78)
!93 = !DISubprogram(name: "EtherAppReq", scope: !78, file: !79, line: 45, type: !94, scopeLine: 45, flags: DIFlagPublic | DIFlagPrototyped, spFlags: 0)
!94 = !DISubroutineType(types: !95)
!95 = !{null, !90, !96, !11}
!96 = !DIDerivedType(tag: DW_TAG_pointer_type, baseType: !97, size: 64)
!97 = !DIDerivedType(tag: DW_TAG_const_type, baseType: !98)
!98 = !DIBasicType(name: "char", size: 8, encoding: DW_ATE_signed_char)
!99 = !DISubprogram(name: "EtherAppReq", scope: !78, file: !79, line: 46, type: !100, scopeLine: 46, flags: DIFlagPublic | DIFlagPrototyped, spFlags: 0)
!100 = !DISubroutineType(types: !101)
!101 = !{null, !90, !91}
!102 = !DISubprogram(name: "~EtherAppReq", scope: !78, file: !79, line: 47, type: !103, scopeLine: 47, containingType: !78, virtualIndex: 0, flags: DIFlagPublic | DIFlagPrototyped, spFlags: DISPFlagVirtual)
!103 = !DISubroutineType(types: !104)
!104 = !{null, !90}
!105 = !DISubprogram(name: "operator=", linkageName: "_ZN11EtherAppReqaSERKS_", scope: !78, file: !79, line: 48, type: !106, scopeLine: 48, flags: DIFlagPublic | DIFlagPrototyped, spFlags: 0)
!106 = !DISubroutineType(types: !107)
!107 = !{!108, !90, !91}
!108 = !DIDerivedType(tag: DW_TAG_reference_type, baseType: !78, size: 64)
!109 = !DISubprogram(name: "dup", linkageName: "_ZNK11EtherAppReq3dupEv", scope: !78, file: !79, line: 49, type: !110, scopeLine: 49, containingType: !78, virtualIndex: 11, flags: DIFlagPublic | DIFlagPrototyped, spFlags: DISPFlagVirtual)
!110 = !DISubroutineType(types: !111)
!111 = !{!77, !112}
