; ModuleID = 'simulator/cparimpl.cc'
source_filename = "simulator/cparimpl.cc"
target datalayout = "e-m:e-p270:32:32-p271:32:32-p272:64:64-i64:64-f80:128-n8:16:32:64-S128"
target triple = "x86_64-unknown-linux-gnu"

%"class.std::ios_base::Init" = type { i8 }
%class.cStringPool = type <{ %"class.std::__cxx11::basic_string", %"class.std::map", i8, [7 x i8] }>
%"class.std::__cxx11::basic_string" = type { %"struct.std::__cxx11::basic_string<char, std::char_traits<char>, std::allocator<char> >::_Alloc_hider", i64, %union.anon }
%"struct.std::__cxx11::basic_string<char, std::char_traits<char>, std::allocator<char> >::_Alloc_hider" = type { i8* }
%union.anon = type { i64, [8 x i8] }
%"class.std::map" = type { %"class.std::_Rb_tree" }
%"class.std::_Rb_tree" = type { %"struct.std::_Rb_tree<char *, std::pair<char *const, int>, std::_Select1st<std::pair<char *const, int> >, cStringPool::strless, std::allocator<std::pair<char *const, int> > >::_Rb_tree_impl" }
%"struct.std::_Rb_tree<char *, std::pair<char *const, int>, std::_Select1st<std::pair<char *const, int> >, cStringPool::strless, std::allocator<std::pair<char *const, int> > >::_Rb_tree_impl" = type { %"struct.std::_Rb_tree_key_compare", %"struct.std::_Rb_tree_header" }
%"struct.std::_Rb_tree_key_compare" = type { %"struct.cStringPool::strless" }
%"struct.cStringPool::strless" = type { i8 }
%"struct.std::_Rb_tree_header" = type { %"struct.std::_Rb_tree_node_base", i64 }
%"struct.std::_Rb_tree_node_base" = type { i32, %"struct.std::_Rb_tree_node_base"*, %"struct.std::_Rb_tree_node_base"*, %"struct.std::_Rb_tree_node_base"* }
%class.cParImpl = type { %class.cNamedObject.base, i8* }
%class.cNamedObject.base = type <{ %class.cObject, i8*, i16, i16 }>
%class.cObject = type { i32 (...)** }
%class.cNamedObject = type <{ %class.cObject, i8*, i16, i16, [4 x i8] }>
%class.cCommBuffer = type opaque
%"class.std::__cxx11::basic_stringstream" = type { %"class.std::basic_iostream.base", %"class.std::__cxx11::basic_stringbuf", %"class.std::basic_ios" }
%"class.std::basic_iostream.base" = type { %"class.std::basic_istream.base", %"class.std::basic_ostream.base" }
%"class.std::basic_istream.base" = type { i32 (...)**, i64 }
%"class.std::basic_ostream.base" = type { i32 (...)** }
%"class.std::__cxx11::basic_stringbuf" = type { %"class.std::basic_streambuf", i32, %"class.std::__cxx11::basic_string" }
%"class.std::basic_streambuf" = type { i32 (...)**, i8*, i8*, i8*, i8*, i8*, i8*, %"class.std::locale" }
%"class.std::locale" = type { %"class.std::locale::_Impl"* }
%"class.std::locale::_Impl" = type { i32, %"class.std::locale::facet"**, i64, %"class.std::locale::facet"**, i8** }
%"class.std::locale::facet" = type <{ i32 (...)**, i32, [4 x i8] }>
%"class.std::basic_ios" = type { %"class.std::ios_base", %"class.std::basic_ostream"*, i8, i8, %"class.std::basic_streambuf"*, %"class.std::ctype"*, %"class.std::num_put"*, %"class.std::num_get"* }
%"class.std::ios_base" = type { i32 (...)**, i64, i64, i32, i32, i32, %"struct.std::ios_base::_Callback_list"*, %"struct.std::ios_base::_Words", [8 x %"struct.std::ios_base::_Words"], i32, %"struct.std::ios_base::_Words"*, %"class.std::locale" }
%"struct.std::ios_base::_Callback_list" = type { %"struct.std::ios_base::_Callback_list"*, void (i32, %"class.std::ios_base"*, i32)*, i32, i32 }
%"struct.std::ios_base::_Words" = type { i8*, i64 }
%"class.std::basic_ostream" = type { i32 (...)**, %"class.std::basic_ios" }
%"class.std::ctype" = type <{ %"class.std::locale::facet.base", [4 x i8], %struct.__locale_struct*, i8, [7 x i8], i32*, i32*, i16*, i8, [256 x i8], [256 x i8], i8, [6 x i8] }>
%"class.std::locale::facet.base" = type <{ i32 (...)**, i32 }>
%struct.__locale_struct = type { [13 x %struct.__locale_data*], i16*, i32*, i32*, [13 x i8*] }
%struct.__locale_data = type opaque
%"class.std::num_put" = type { %"class.std::locale::facet.base", [4 x i8] }
%"class.std::num_get" = type { %"class.std::locale::facet.base", [4 x i8] }
%class.cRuntimeError = type { %class.cException.base, [4 x i8] }
%class.cException.base = type <{ %"class.std::exception", i32, [4 x i8], %"class.std::__cxx11::basic_string", i8, [7 x i8], %"class.std::__cxx11::basic_string", %"class.std::__cxx11::basic_string", i32 }>
%"class.std::exception" = type { i32 (...)** }
%class.cException = type <{ %"class.std::exception", i32, [4 x i8], %"class.std::__cxx11::basic_string", i8, [7 x i8], %"class.std::__cxx11::basic_string", %"class.std::__cxx11::basic_string", i32, [4 x i8] }>
%class.cExpression = type { %class.cObject }
%class.cComponent = type { %class.cDefaultList, %class.cComponentType*, i16, i32*, i16, i16, %class.cPar*, %class.cDisplayString* }
%class.cDefaultList = type { %class.cNoncopyableOwnedObject.base, %class.cOwnedObject**, i32, i32 }
%class.cNoncopyableOwnedObject.base = type { %class.cOwnedObject.base }
%class.cOwnedObject.base = type <{ %class.cNamedObject.base, [4 x i8], %class.cObject*, i32 }>
%class.cOwnedObject = type <{ %class.cNamedObject.base, [4 x i8], %class.cObject*, i32, [4 x i8] }>
%class.cComponentType = type opaque
%class.cPar = type { %class.cObject, %class.cComponent*, %class.cParImpl* }
%class.cDisplayString = type opaque
%class.cBoolParImpl = type { %class.cParImpl, %union.anon.3 }
%union.anon.3 = type { %class.cExpression* }
%class.cDoubleParImpl = type { %class.cParImpl, %union.anon.4 }
%union.anon.4 = type { %class.cExpression* }
%class.cLongParImpl = type { %class.cParImpl, %union.anon.5 }
%union.anon.5 = type { %class.cExpression* }
%class.cStringParImpl = type { %class.cParImpl, %class.cExpression*, %"class.std::__cxx11::basic_string" }
%class.cXMLParImpl = type { %class.cParImpl, %class.cExpression*, %class.cXMLElement* }
%class.cXMLElement = type opaque
%class.cClassDescriptor = type opaque
%class.cVisitor = type { i32 (...)** }
%"class.std::allocator" = type { i8 }

$__clang_call_terminate = comdat any

$_ZN13cRuntimeErrorD2Ev = comdat any

$_Z10opp_strcmpPKcS0_ = comdat any

$_ZNK12cNamedObject7getNameEv = comdat any

$_ZNK7cObject11getFullNameEv = comdat any

$_ZNK7cObject8getOwnerEv = comdat any

$_ZNK7cObject13isOwnedObjectEv = comdat any

$_ZN12cNamedObject14getNamePoolingEv = comdat any

$_ZNK8cParImpl10isVolatileEv = comdat any

$_ZNK8cParImpl12isExpressionEv = comdat any

$_ZNK8cParImpl8isSharedEv = comdat any

$_ZNK8cParImpl13containsValueEv = comdat any

$_ZNK8cParImpl5isSetEv = comdat any

$_ZN8cParImpl13setIsVolatileEb = comdat any

$_ZN8cParImpl11setIsSharedEb = comdat any

$_ZN8cParImpl8setIsSetEb = comdat any

$_ZN8cParImpl14setStringValueERKNSt7__cxx1112basic_stringIcSt11char_traitsIcESaIcEEE = comdat any

$_ZN10cExceptionD2Ev = comdat any

$_ZN10cExceptionD0Ev = comdat any

$_ZNK10cException4whatEv = comdat any

$_ZNK10cException3dupEv = comdat any

$_ZNK10cException12getErrorCodeEv = comdat any

$_ZN10cException10setMessageEPKc = comdat any

$_ZN10cException14prependMessageEPKc = comdat any

$_ZNK10cException10hasContextEv = comdat any

$_ZNK10cException19getContextClassNameEv = comdat any

$_ZNK10cException18getContextFullPathEv = comdat any

$_ZNK10cException11getModuleIDEv = comdat any

$_ZStplIcSt11char_traitsIcESaIcEENSt7__cxx1112basic_stringIT_T0_T1_EEOS8_RKS8_ = comdat any

$_ZStplIcSt11char_traitsIcESaIcEENSt7__cxx1112basic_stringIT_T0_T1_EEOS8_PKS5_ = comdat any

$_ZSt4moveIRNSt7__cxx1112basic_stringIcSt11char_traitsIcESaIcEEEEONSt16remove_referenceIT_E4typeEOS8_ = comdat any

$_ZN12cNamedObject7setFlagEib = comdat any

$_ZTS13cRuntimeError = comdat any

$_ZTS10cException = comdat any

$_ZTI10cException = comdat any

$_ZTI13cRuntimeError = comdat any

$_ZTV10cException = comdat any

@_ZStL8__ioinit = internal global %"class.std::ios_base::Init" zeroinitializer, align 1, !dbg !0
@__dso_handle = external hidden global i8
@_ZN8cParImpl18total_parimpl_objsE = dso_local global i64 0, align 8, !dbg !28
@_ZN8cParImpl17live_parimpl_objsE = dso_local global i64 0, align 8, !dbg !1059
@_ZN8cParImpl14unitStringPoolE = dso_local global %class.cStringPool zeroinitializer, align 8, !dbg !1061
@.str = private unnamed_addr constant [25 x i8] c"cParImpl::unitStringPool\00", align 1
@_ZTV8cParImpl = dso_local unnamed_addr constant { [56 x i8*] } { [56 x i8*] [i8* null, i8* bitcast ({ i8*, i8*, i8* }* @_ZTI8cParImpl to i8*), i8* bitcast (%class.cClassDescriptor* (%class.cObject*)* @_ZN7cObject13getDescriptorEv to i8*), i8* bitcast (void (%class.cObject*, %class.cOwnedObject*)* @_ZN7cObject18ownedObjectDeletedEP12cOwnedObject to i8*), i8* bitcast (void (%class.cObject*, %class.cOwnedObject*, %class.cObject*)* @_ZN7cObject14yieldOwnershipEP12cOwnedObjectPS_ to i8*), i8* bitcast (void (%class.cParImpl*)* @_ZN8cParImplD1Ev to i8*), i8* bitcast (void (%class.cParImpl*)* @_ZN8cParImplD0Ev to i8*), i8* bitcast (i8* (%class.cObject*)* @_ZNK7cObject12getClassNameEv to i8*), i8* bitcast (i8* (%class.cNamedObject*)* @_ZNK12cNamedObject7getNameEv to i8*), i8* bitcast (i8* (%class.cObject*)* @_ZNK7cObject11getFullNameEv to i8*), i8* bitcast (void (%"class.std::__cxx11::basic_string"*, %class.cObject*)* @_ZNK7cObject11getFullPathB5cxx11Ev to i8*), i8* bitcast (void (%"class.std::__cxx11::basic_string"*, %class.cParImpl*)* @_ZNK8cParImpl4infoB5cxx11Ev to i8*), i8* bitcast (void (%"class.std::__cxx11::basic_string"*, %class.cParImpl*)* @_ZNK8cParImpl12detailedInfoB5cxx11Ev to i8*), i8* bitcast (%class.cParImpl* (%class.cParImpl*)* @_ZNK8cParImpl3dupEv to i8*), i8* bitcast (void (%class.cObject*, %class.cOwnedObject*)* @_ZN7cObject4takeEP12cOwnedObject to i8*), i8* bitcast (void (%class.cObject*, %class.cOwnedObject*)* @_ZN7cObject4dropEP12cOwnedObject to i8*), i8* bitcast (void (%class.cParImpl*, %class.cCommBuffer*)* @_ZN8cParImpl10parsimPackEP11cCommBuffer to i8*), i8* bitcast (void (%class.cParImpl*, %class.cCommBuffer*)* @_ZN8cParImpl12parsimUnpackEP11cCommBuffer to i8*), i8* bitcast (%class.cObject* (%class.cObject*)* @_ZNK7cObject8getOwnerEv to i8*), i8* bitcast (i1 (%class.cObject*)* @_ZNK7cObject13isOwnedObjectEv to i8*), i8* bitcast (void (%class.cObject*, %class.cVisitor*)* @_ZN7cObject12forEachChildEP8cVisitor to i8*), i8* bitcast (void (%class.cNamedObject*, i8*)* @_ZN12cNamedObject7setNameEPKc to i8*), i8* bitcast (void (%class.cNamedObject*, i1)* @_ZN12cNamedObject14setNamePoolingEb to i8*), i8* bitcast (i1 (%class.cNamedObject*)* @_ZN12cNamedObject14getNamePoolingEv to i8*), i8* bitcast (void ()* @__cxa_pure_virtual to i8*), i8* bitcast (void ()* @__cxa_pure_virtual to i8*), i8* bitcast (i1 (%class.cParImpl*)* @_ZNK8cParImpl10isVolatileEv to i8*), i8* bitcast (i1 (%class.cParImpl*)* @_ZNK8cParImpl12isExpressionEv to i8*), i8* bitcast (i1 (%class.cParImpl*)* @_ZNK8cParImpl8isSharedEv to i8*), i8* bitcast (i1 (%class.cParImpl*)* @_ZNK8cParImpl13containsValueEv to i8*), i8* bitcast (i1 (%class.cParImpl*)* @_ZNK8cParImpl5isSetEv to i8*), i8* bitcast (void (%class.cParImpl*, i1)* @_ZN8cParImpl13setIsVolatileEb to i8*), i8* bitcast (void (%class.cParImpl*, i1)* @_ZN8cParImpl11setIsSharedEb to i8*), i8* bitcast (void (%class.cParImpl*, i1)* @_ZN8cParImpl8setIsSetEb to i8*), i8* bitcast (i8* (%class.cParImpl*)* @_ZNK8cParImpl7getUnitEv to i8*), i8* bitcast (void (%class.cParImpl*, i8*)* @_ZN8cParImpl7setUnitEPKc to i8*), i8* bitcast (void ()* @__cxa_pure_virtual to i8*), i8* bitcast (void ()* @__cxa_pure_virtual to i8*), i8* bitcast (void ()* @__cxa_pure_virtual to i8*), i8* bitcast (void ()* @__cxa_pure_virtual to i8*), i8* bitcast (void (%class.cParImpl*, %"class.std::__cxx11::basic_string"*)* @_ZN8cParImpl14setStringValueERKNSt7__cxx1112basic_stringIcSt11char_traitsIcESaIcEEE to i8*), i8* bitcast (void ()* @__cxa_pure_virtual to i8*), i8* bitcast (void ()* @__cxa_pure_virtual to i8*), i8* bitcast (void ()* @__cxa_pure_virtual to i8*), i8* bitcast (void ()* @__cxa_pure_virtual to i8*), i8* bitcast (void ()* @__cxa_pure_virtual to i8*), i8* bitcast (void ()* @__cxa_pure_virtual to i8*), i8* bitcast (void ()* @__cxa_pure_virtual to i8*), i8* bitcast (void ()* @__cxa_pure_virtual to i8*), i8* bitcast (void ()* @__cxa_pure_virtual to i8*), i8* bitcast (void ()* @__cxa_pure_virtual to i8*), i8* bitcast (i1 (%class.cParImpl*)* @_ZNK8cParImpl27containsConstSubexpressionsEv to i8*), i8* bitcast (void (%class.cParImpl*, %class.cComponent*)* @_ZN8cParImpl27evaluateConstSubexpressionsEP10cComponent to i8*), i8* bitcast (void ()* @__cxa_pure_virtual to i8*), i8* bitcast (void ()* @__cxa_pure_virtual to i8*), i8* bitcast (i32 (%class.cParImpl*, %class.cParImpl*)* @_ZNK8cParImpl7compareEPKS_ to i8*)] }, align 8
@.str.2 = private unnamed_addr constant [2 x i8] c" \00", align 1
@.str.3 = private unnamed_addr constant [4 x i8] c" = \00", align 1
@.str.4 = private unnamed_addr constant [12 x i8] c" = default(\00", align 1
@.str.5 = private unnamed_addr constant [2 x i8] c")\00", align 1
@.str.6 = private unnamed_addr constant [15 x i8] c" isExpression=\00", align 1
@.str.7 = private unnamed_addr constant [5 x i8] c"true\00", align 1
@.str.8 = private unnamed_addr constant [6 x i8] c"false\00", align 1
@.str.9 = private unnamed_addr constant [14 x i8] c" (unassigned)\00", align 1
@_ZTVN10__cxxabiv120__si_class_type_infoE = external dso_local global i8*
@_ZTS13cRuntimeError = linkonce_odr dso_local constant [16 x i8] c"13cRuntimeError\00", comdat, align 1
@_ZTS10cException = linkonce_odr dso_local constant [13 x i8] c"10cException\00", comdat, align 1
@_ZTISt9exception = external dso_local constant i8*
@_ZTI10cException = linkonce_odr dso_local constant { i8*, i8*, i8* } { i8* bitcast (i8** getelementptr inbounds (i8*, i8** @_ZTVN10__cxxabiv120__si_class_type_infoE, i64 2) to i8*), i8* getelementptr inbounds ([13 x i8], [13 x i8]* @_ZTS10cException, i32 0, i32 0), i8* bitcast (i8** @_ZTISt9exception to i8*) }, comdat, align 8
@_ZTI13cRuntimeError = linkonce_odr dso_local constant { i8*, i8*, i8* } { i8* bitcast (i8** getelementptr inbounds (i8*, i8** @_ZTVN10__cxxabiv120__si_class_type_infoE, i64 2) to i8*), i8* getelementptr inbounds ([16 x i8], [16 x i8]* @_ZTS13cRuntimeError, i32 0, i32 0), i8* bitcast ({ i8*, i8*, i8* }* @_ZTI10cException to i8*) }, comdat, align 8
@.str.10 = private unnamed_addr constant [45 x i8] c"cParImpl::createWithType(): no such type: %d\00", align 1
@_ZTS8cParImpl = dso_local constant [10 x i8] c"8cParImpl\00", align 1
@_ZTI12cNamedObject = external dso_local constant i8*
@_ZTI8cParImpl = dso_local constant { i8*, i8*, i8* } { i8* bitcast (i8** getelementptr inbounds (i8*, i8** @_ZTVN10__cxxabiv120__si_class_type_infoE, i64 2) to i8*), i8* getelementptr inbounds ([10 x i8], [10 x i8]* @_ZTS8cParImpl, i32 0, i32 0), i8* bitcast (i8** @_ZTI12cNamedObject to i8*) }, align 8
@_ZTV10cException = linkonce_odr dso_local unnamed_addr constant { [13 x i8*] } { [13 x i8*] [i8* null, i8* bitcast ({ i8*, i8*, i8* }* @_ZTI10cException to i8*), i8* bitcast (void (%class.cException*)* @_ZN10cExceptionD2Ev to i8*), i8* bitcast (void (%class.cException*)* @_ZN10cExceptionD0Ev to i8*), i8* bitcast (i8* (%class.cException*)* @_ZNK10cException4whatEv to i8*), i8* bitcast (%class.cException* (%class.cException*)* @_ZNK10cException3dupEv to i8*), i8* bitcast (i32 (%class.cException*)* @_ZNK10cException12getErrorCodeEv to i8*), i8* bitcast (void (%class.cException*, i8*)* @_ZN10cException10setMessageEPKc to i8*), i8* bitcast (void (%class.cException*, i8*)* @_ZN10cException14prependMessageEPKc to i8*), i8* bitcast (i1 (%class.cException*)* @_ZNK10cException10hasContextEv to i8*), i8* bitcast (i8* (%class.cException*)* @_ZNK10cException19getContextClassNameEv to i8*), i8* bitcast (i8* (%class.cException*)* @_ZNK10cException18getContextFullPathEv to i8*), i8* bitcast (i32 (%class.cException*)* @_ZNK10cException11getModuleIDEv to i8*)] }, comdat, align 8
@.str.11 = private unnamed_addr constant [3 x i8] c": \00", align 1
@.str.12 = private unnamed_addr constant [1 x i8] zeroinitializer, align 1
@llvm.global_ctors = appending global [1 x { i32, void ()*, i8* }] [{ i32, void ()*, i8* } { i32 65535, void ()* @_GLOBAL__sub_I_cparimpl.cc, i8* null }]

@_ZN8cParImplD1Ev = dso_local unnamed_addr alias void (%class.cParImpl*), void (%class.cParImpl*)* @_ZN8cParImplD2Ev

; Function Attrs: noinline uwtable
define internal void @__cxx_global_var_init() #0 section ".text.startup" !dbg !2314 {
entry:
  call void @_ZNSt8ios_base4InitC1Ev(%"class.std::ios_base::Init"* @_ZStL8__ioinit), !dbg !2315
  %0 = call i32 @__cxa_atexit(void (i8*)* bitcast (void (%"class.std::ios_base::Init"*)* @_ZNSt8ios_base4InitD1Ev to void (i8*)*), i8* getelementptr inbounds (%"class.std::ios_base::Init", %"class.std::ios_base::Init"* @_ZStL8__ioinit, i32 0, i32 0), i8* @__dso_handle) #3, !dbg !2315
  ret void, !dbg !2315
}

declare dso_local void @_ZNSt8ios_base4InitC1Ev(%"class.std::ios_base::Init"*) unnamed_addr #1

; Function Attrs: nounwind
declare dso_local void @_ZNSt8ios_base4InitD1Ev(%"class.std::ios_base::Init"*) unnamed_addr #2

; Function Attrs: nounwind
declare dso_local i32 @__cxa_atexit(void (i8*)*, i8*, i8*) #3

; Function Attrs: noinline uwtable
define internal void @__cxx_global_var_init.1() #0 section ".text.startup" !dbg !2316 {
entry:
  call void @_ZN11cStringPoolC1EPKc(%class.cStringPool* @_ZN8cParImpl14unitStringPoolE, i8* getelementptr inbounds ([25 x i8], [25 x i8]* @.str, i64 0, i64 0)), !dbg !2317
  %0 = call i32 @__cxa_atexit(void (i8*)* bitcast (void (%class.cStringPool*)* @_ZN11cStringPoolD1Ev to void (i8*)*), i8* bitcast (%class.cStringPool* @_ZN8cParImpl14unitStringPoolE to i8*), i8* @__dso_handle) #3, !dbg !2317
  ret void, !dbg !2318
}

declare dso_local void @_ZN11cStringPoolC1EPKc(%class.cStringPool*, i8*) unnamed_addr #1

; Function Attrs: nounwind
declare dso_local void @_ZN11cStringPoolD1Ev(%class.cStringPool*) unnamed_addr #2

; Function Attrs: noinline uwtable
define dso_local void @_ZN8cParImplC2Ev(%class.cParImpl* %this) unnamed_addr #0 align 2 !dbg !2319 {
entry:
  %this.addr = alloca %class.cParImpl*, align 8
  store %class.cParImpl* %this, %class.cParImpl** %this.addr, align 8
  call void @llvm.dbg.declare(metadata %class.cParImpl** %this.addr, metadata !2320, metadata !DIExpression()), !dbg !2321
  %this1 = load %class.cParImpl*, %class.cParImpl** %this.addr, align 8
  %0 = bitcast %class.cParImpl* %this1 to %class.cNamedObject*, !dbg !2322
  call void @_ZN12cNamedObjectC2Ev(%class.cNamedObject* %0), !dbg !2323
  %1 = bitcast %class.cParImpl* %this1 to i32 (...)***, !dbg !2322
  store i32 (...)** bitcast (i8** getelementptr inbounds ({ [56 x i8*] }, { [56 x i8*] }* @_ZTV8cParImpl, i32 0, inrange i32 0, i32 2) to i32 (...)**), i32 (...)*** %1, align 8, !dbg !2322
  %unitp = getelementptr inbounds %class.cParImpl, %class.cParImpl* %this1, i32 0, i32 1, !dbg !2324
  store i8* null, i8** %unitp, align 8, !dbg !2326
  %2 = load i64, i64* @_ZN8cParImpl18total_parimpl_objsE, align 8, !dbg !2327
  %inc = add nsw i64 %2, 1, !dbg !2327
  store i64 %inc, i64* @_ZN8cParImpl18total_parimpl_objsE, align 8, !dbg !2327
  %3 = load i64, i64* @_ZN8cParImpl17live_parimpl_objsE, align 8, !dbg !2328
  %inc2 = add nsw i64 %3, 1, !dbg !2328
  store i64 %inc2, i64* @_ZN8cParImpl17live_parimpl_objsE, align 8, !dbg !2328
  ret void, !dbg !2329
}

; Function Attrs: nounwind readnone speculatable willreturn
declare void @llvm.dbg.declare(metadata, metadata, metadata) #4

declare dso_local void @_ZN12cNamedObjectC2Ev(%class.cNamedObject*) unnamed_addr #1

; Function Attrs: noinline nounwind uwtable
define dso_local void @_ZN8cParImplD2Ev(%class.cParImpl* %this) unnamed_addr #5 align 2 personality i8* bitcast (i32 (...)* @__gxx_personality_v0 to i8*) !dbg !2330 {
entry:
  %this.addr = alloca %class.cParImpl*, align 8
  %exn.slot = alloca i8*
  %ehselector.slot = alloca i32
  store %class.cParImpl* %this, %class.cParImpl** %this.addr, align 8
  call void @llvm.dbg.declare(metadata %class.cParImpl** %this.addr, metadata !2331, metadata !DIExpression()), !dbg !2332
  %this1 = load %class.cParImpl*, %class.cParImpl** %this.addr, align 8
  %0 = bitcast %class.cParImpl* %this1 to i32 (...)***, !dbg !2333
  store i32 (...)** bitcast (i8** getelementptr inbounds ({ [56 x i8*] }, { [56 x i8*] }* @_ZTV8cParImpl, i32 0, inrange i32 0, i32 2) to i32 (...)**), i32 (...)*** %0, align 8, !dbg !2333
  %unitp = getelementptr inbounds %class.cParImpl, %class.cParImpl* %this1, i32 0, i32 1, !dbg !2334
  %1 = load i8*, i8** %unitp, align 8, !dbg !2334
  invoke void @_ZN11cStringPool7releaseEPKc(%class.cStringPool* @_ZN8cParImpl14unitStringPoolE, i8* %1)
          to label %invoke.cont unwind label %lpad, !dbg !2336

invoke.cont:                                      ; preds = %entry
  %2 = load i64, i64* @_ZN8cParImpl17live_parimpl_objsE, align 8, !dbg !2337
  %dec = add nsw i64 %2, -1, !dbg !2337
  store i64 %dec, i64* @_ZN8cParImpl17live_parimpl_objsE, align 8, !dbg !2337
  %3 = bitcast %class.cParImpl* %this1 to %class.cNamedObject*, !dbg !2338
  call void @_ZN12cNamedObjectD2Ev(%class.cNamedObject* %3) #3, !dbg !2338
  ret void, !dbg !2339

lpad:                                             ; preds = %entry
  %4 = landingpad { i8*, i32 }
          catch i8* null, !dbg !2338
  %5 = extractvalue { i8*, i32 } %4, 0, !dbg !2338
  store i8* %5, i8** %exn.slot, align 8, !dbg !2338
  %6 = extractvalue { i8*, i32 } %4, 1, !dbg !2338
  store i32 %6, i32* %ehselector.slot, align 4, !dbg !2338
  %7 = bitcast %class.cParImpl* %this1 to %class.cNamedObject*, !dbg !2338
  call void @_ZN12cNamedObjectD2Ev(%class.cNamedObject* %7) #3, !dbg !2338
  br label %terminate.handler, !dbg !2338

terminate.handler:                                ; preds = %lpad
  %exn = load i8*, i8** %exn.slot, align 8, !dbg !2338
  call void @__clang_call_terminate(i8* %exn) #11, !dbg !2338
  unreachable, !dbg !2338
}

declare dso_local void @_ZN11cStringPool7releaseEPKc(%class.cStringPool*, i8*) #1

declare dso_local i32 @__gxx_personality_v0(...)

; Function Attrs: nounwind
declare dso_local void @_ZN12cNamedObjectD2Ev(%class.cNamedObject*) unnamed_addr #2

; Function Attrs: noinline noreturn nounwind
define linkonce_odr hidden void @__clang_call_terminate(i8* %0) #6 comdat {
  %2 = call i8* @__cxa_begin_catch(i8* %0) #3
  call void @_ZSt9terminatev() #11
  unreachable
}

declare dso_local i8* @__cxa_begin_catch(i8*)

declare dso_local void @_ZSt9terminatev()

; Function Attrs: noinline nounwind uwtable
define dso_local void @_ZN8cParImplD0Ev(%class.cParImpl* %this) unnamed_addr #5 align 2 !dbg !2340 {
entry:
  %this.addr = alloca %class.cParImpl*, align 8
  store %class.cParImpl* %this, %class.cParImpl** %this.addr, align 8
  call void @llvm.dbg.declare(metadata %class.cParImpl** %this.addr, metadata !2341, metadata !DIExpression()), !dbg !2342
  %this1 = load %class.cParImpl*, %class.cParImpl** %this.addr, align 8
  call void @llvm.trap() #11, !dbg !2343
  unreachable, !dbg !2343
}

; Function Attrs: cold noreturn nounwind
declare void @llvm.trap() #7

; Function Attrs: noinline uwtable
define dso_local dereferenceable(32) %class.cParImpl* @_ZN8cParImplaSERKS_(%class.cParImpl* %this, %class.cParImpl* dereferenceable(32) %other) #0 align 2 !dbg !2344 {
entry:
  %this.addr = alloca %class.cParImpl*, align 8
  %other.addr = alloca %class.cParImpl*, align 8
  %shared = alloca i8, align 1
  store %class.cParImpl* %this, %class.cParImpl** %this.addr, align 8
  call void @llvm.dbg.declare(metadata %class.cParImpl** %this.addr, metadata !2345, metadata !DIExpression()), !dbg !2346
  store %class.cParImpl* %other, %class.cParImpl** %other.addr, align 8
  call void @llvm.dbg.declare(metadata %class.cParImpl** %other.addr, metadata !2347, metadata !DIExpression()), !dbg !2348
  %this1 = load %class.cParImpl*, %class.cParImpl** %this.addr, align 8
  call void @llvm.dbg.declare(metadata i8* %shared, metadata !2349, metadata !DIExpression()), !dbg !2350
  %0 = bitcast %class.cParImpl* %this1 to i1 (%class.cParImpl*)***, !dbg !2351
  %vtable = load i1 (%class.cParImpl*)**, i1 (%class.cParImpl*)*** %0, align 8, !dbg !2351
  %vfn = getelementptr inbounds i1 (%class.cParImpl*)*, i1 (%class.cParImpl*)** %vtable, i64 26, !dbg !2351
  %1 = load i1 (%class.cParImpl*)*, i1 (%class.cParImpl*)** %vfn, align 8, !dbg !2351
  %call = call zeroext i1 %1(%class.cParImpl* %this1), !dbg !2351
  %frombool = zext i1 %call to i8, !dbg !2350
  store i8 %frombool, i8* %shared, align 1, !dbg !2350
  %2 = bitcast %class.cParImpl* %this1 to %class.cNamedObject*, !dbg !2352
  %3 = load %class.cParImpl*, %class.cParImpl** %other.addr, align 8, !dbg !2353
  %4 = bitcast %class.cParImpl* %3 to %class.cNamedObject*, !dbg !2353
  %call2 = call dereferenceable(24) %class.cNamedObject* @_ZN12cNamedObjectaSERKS_(%class.cNamedObject* %2, %class.cNamedObject* dereferenceable(24) %4), !dbg !2352
  %5 = load i8, i8* %shared, align 1, !dbg !2354
  %tobool = trunc i8 %5 to i1, !dbg !2354
  %6 = bitcast %class.cParImpl* %this1 to void (%class.cParImpl*, i1)***, !dbg !2355
  %vtable3 = load void (%class.cParImpl*, i1)**, void (%class.cParImpl*, i1)*** %6, align 8, !dbg !2355
  %vfn4 = getelementptr inbounds void (%class.cParImpl*, i1)*, void (%class.cParImpl*, i1)** %vtable3, i64 30, !dbg !2355
  %7 = load void (%class.cParImpl*, i1)*, void (%class.cParImpl*, i1)** %vfn4, align 8, !dbg !2355
  call void %7(%class.cParImpl* %this1, i1 zeroext %tobool), !dbg !2355
  %8 = load %class.cParImpl*, %class.cParImpl** %other.addr, align 8, !dbg !2356
  %9 = bitcast %class.cParImpl* %8 to i8* (%class.cParImpl*)***, !dbg !2357
  %vtable5 = load i8* (%class.cParImpl*)**, i8* (%class.cParImpl*)*** %9, align 8, !dbg !2357
  %vfn6 = getelementptr inbounds i8* (%class.cParImpl*)*, i8* (%class.cParImpl*)** %vtable5, i64 32, !dbg !2357
  %10 = load i8* (%class.cParImpl*)*, i8* (%class.cParImpl*)** %vfn6, align 8, !dbg !2357
  %call7 = call i8* %10(%class.cParImpl* %8), !dbg !2357
  %11 = bitcast %class.cParImpl* %this1 to void (%class.cParImpl*, i8*)***, !dbg !2358
  %vtable8 = load void (%class.cParImpl*, i8*)**, void (%class.cParImpl*, i8*)*** %11, align 8, !dbg !2358
  %vfn9 = getelementptr inbounds void (%class.cParImpl*, i8*)*, void (%class.cParImpl*, i8*)** %vtable8, i64 33, !dbg !2358
  %12 = load void (%class.cParImpl*, i8*)*, void (%class.cParImpl*, i8*)** %vfn9, align 8, !dbg !2358
  call void %12(%class.cParImpl* %this1, i8* %call7), !dbg !2358
  ret %class.cParImpl* %this1, !dbg !2359
}

declare dso_local dereferenceable(24) %class.cNamedObject* @_ZN12cNamedObjectaSERKS_(%class.cNamedObject*, %class.cNamedObject* dereferenceable(24)) #1

; Function Attrs: noinline nounwind uwtable
define dso_local void @_ZN8cParImpl10parsimPackEP11cCommBuffer(%class.cParImpl* %this, %class.cCommBuffer* %buffer) unnamed_addr #5 align 2 !dbg !2360 {
entry:
  %this.addr = alloca %class.cParImpl*, align 8
  %buffer.addr = alloca %class.cCommBuffer*, align 8
  store %class.cParImpl* %this, %class.cParImpl** %this.addr, align 8
  call void @llvm.dbg.declare(metadata %class.cParImpl** %this.addr, metadata !2361, metadata !DIExpression()), !dbg !2362
  store %class.cCommBuffer* %buffer, %class.cCommBuffer** %buffer.addr, align 8
  call void @llvm.dbg.declare(metadata %class.cCommBuffer** %buffer.addr, metadata !2363, metadata !DIExpression()), !dbg !2364
  %this1 = load %class.cParImpl*, %class.cParImpl** %this.addr, align 8
  ret void, !dbg !2365
}

; Function Attrs: noinline nounwind uwtable
define dso_local void @_ZN8cParImpl12parsimUnpackEP11cCommBuffer(%class.cParImpl* %this, %class.cCommBuffer* %buffer) unnamed_addr #5 align 2 !dbg !2366 {
entry:
  %this.addr = alloca %class.cParImpl*, align 8
  %buffer.addr = alloca %class.cCommBuffer*, align 8
  store %class.cParImpl* %this, %class.cParImpl** %this.addr, align 8
  call void @llvm.dbg.declare(metadata %class.cParImpl** %this.addr, metadata !2367, metadata !DIExpression()), !dbg !2368
  store %class.cCommBuffer* %buffer, %class.cCommBuffer** %buffer.addr, align 8
  call void @llvm.dbg.declare(metadata %class.cCommBuffer** %buffer.addr, metadata !2369, metadata !DIExpression()), !dbg !2370
  %this1 = load %class.cParImpl*, %class.cParImpl** %this.addr, align 8
  ret void, !dbg !2371
}

; Function Attrs: noinline uwtable
define dso_local void @_ZNK8cParImpl4infoB5cxx11Ev(%"class.std::__cxx11::basic_string"* noalias sret %agg.result, %class.cParImpl* %this) unnamed_addr #0 align 2 !dbg !2372 {
entry:
  %result.ptr = alloca i8*, align 8
  %this.addr = alloca %class.cParImpl*, align 8
  %0 = bitcast %"class.std::__cxx11::basic_string"* %agg.result to i8*
  store i8* %0, i8** %result.ptr, align 8
  store %class.cParImpl* %this, %class.cParImpl** %this.addr, align 8
  call void @llvm.dbg.declare(metadata %class.cParImpl** %this.addr, metadata !2373, metadata !DIExpression()), !dbg !2374
  %this1 = load %class.cParImpl*, %class.cParImpl** %this.addr, align 8
  %1 = bitcast %class.cParImpl* %this1 to void (%"class.std::__cxx11::basic_string"*, %class.cParImpl*)***, !dbg !2375
  %vtable = load void (%"class.std::__cxx11::basic_string"*, %class.cParImpl*)**, void (%"class.std::__cxx11::basic_string"*, %class.cParImpl*)*** %1, align 8, !dbg !2375
  %vfn = getelementptr inbounds void (%"class.std::__cxx11::basic_string"*, %class.cParImpl*)*, void (%"class.std::__cxx11::basic_string"*, %class.cParImpl*)** %vtable, i64 51, !dbg !2375
  %2 = load void (%"class.std::__cxx11::basic_string"*, %class.cParImpl*)*, void (%"class.std::__cxx11::basic_string"*, %class.cParImpl*)** %vfn, align 8, !dbg !2375
  call void %2(%"class.std::__cxx11::basic_string"* sret %agg.result, %class.cParImpl* %this1), !dbg !2375
  ret void, !dbg !2376
}

; Function Attrs: noinline uwtable
define dso_local void @_ZNK8cParImpl12detailedInfoB5cxx11Ev(%"class.std::__cxx11::basic_string"* noalias sret %agg.result, %class.cParImpl* %this) unnamed_addr #0 align 2 personality i8* bitcast (i32 (...)* @__gxx_personality_v0 to i8*) !dbg !2377 {
entry:
  %result.ptr = alloca i8*, align 8
  %this.addr = alloca %class.cParImpl*, align 8
  %out = alloca %"class.std::__cxx11::basic_stringstream", align 8
  %exn.slot = alloca i8*
  %ehselector.slot = alloca i32
  %ref.tmp = alloca %"class.std::__cxx11::basic_string", align 8
  %ref.tmp35 = alloca %"class.std::__cxx11::basic_string", align 8
  %0 = bitcast %"class.std::__cxx11::basic_string"* %agg.result to i8*
  store i8* %0, i8** %result.ptr, align 8
  store %class.cParImpl* %this, %class.cParImpl** %this.addr, align 8
  call void @llvm.dbg.declare(metadata %class.cParImpl** %this.addr, metadata !2378, metadata !DIExpression()), !dbg !2379
  %this1 = load %class.cParImpl*, %class.cParImpl** %this.addr, align 8
  call void @llvm.dbg.declare(metadata %"class.std::__cxx11::basic_stringstream"* %out, metadata !2380, metadata !DIExpression()), !dbg !2385
  call void @_ZNSt7__cxx1118basic_stringstreamIcSt11char_traitsIcESaIcEEC1Ev(%"class.std::__cxx11::basic_stringstream"* %out), !dbg !2385
  %1 = bitcast %"class.std::__cxx11::basic_stringstream"* %out to i8*, !dbg !2386
  %add.ptr = getelementptr inbounds i8, i8* %1, i64 16, !dbg !2386
  %2 = bitcast i8* %add.ptr to %"class.std::basic_ostream"*, !dbg !2386
  %3 = bitcast %class.cParImpl* %this1 to i32 (%class.cParImpl*)***, !dbg !2387
  %vtable = load i32 (%class.cParImpl*)**, i32 (%class.cParImpl*)*** %3, align 8, !dbg !2387
  %vfn = getelementptr inbounds i32 (%class.cParImpl*)*, i32 (%class.cParImpl*)** %vtable, i64 22, !dbg !2387
  %4 = load i32 (%class.cParImpl*)*, i32 (%class.cParImpl*)** %vfn, align 8, !dbg !2387
  %call = invoke i32 %4(%class.cParImpl* %this1)
          to label %invoke.cont unwind label %lpad, !dbg !2387

invoke.cont:                                      ; preds = %entry
  %call3 = invoke i8* @_ZN4cPar11getTypeNameENS_4TypeE(i32 %call)
          to label %invoke.cont2 unwind label %lpad, !dbg !2388

invoke.cont2:                                     ; preds = %invoke.cont
  %call5 = invoke dereferenceable(272) %"class.std::basic_ostream"* @_ZStlsISt11char_traitsIcEERSt13basic_ostreamIcT_ES5_PKc(%"class.std::basic_ostream"* dereferenceable(272) %2, i8* %call3)
          to label %invoke.cont4 unwind label %lpad, !dbg !2389

invoke.cont4:                                     ; preds = %invoke.cont2
  %call7 = invoke dereferenceable(272) %"class.std::basic_ostream"* @_ZStlsISt11char_traitsIcEERSt13basic_ostreamIcT_ES5_PKc(%"class.std::basic_ostream"* dereferenceable(272) %call5, i8* getelementptr inbounds ([2 x i8], [2 x i8]* @.str.2, i64 0, i64 0))
          to label %invoke.cont6 unwind label %lpad, !dbg !2390

invoke.cont6:                                     ; preds = %invoke.cont4
  %5 = bitcast %class.cParImpl* %this1 to %class.cNamedObject*, !dbg !2391
  %6 = bitcast %class.cNamedObject* %5 to i8* (%class.cNamedObject*)***, !dbg !2391
  %vtable8 = load i8* (%class.cNamedObject*)**, i8* (%class.cNamedObject*)*** %6, align 8, !dbg !2391
  %vfn9 = getelementptr inbounds i8* (%class.cNamedObject*)*, i8* (%class.cNamedObject*)** %vtable8, i64 6, !dbg !2391
  %7 = load i8* (%class.cNamedObject*)*, i8* (%class.cNamedObject*)** %vfn9, align 8, !dbg !2391
  %call11 = invoke i8* %7(%class.cNamedObject* %5)
          to label %invoke.cont10 unwind label %lpad, !dbg !2391

invoke.cont10:                                    ; preds = %invoke.cont6
  %call13 = invoke dereferenceable(272) %"class.std::basic_ostream"* @_ZStlsISt11char_traitsIcEERSt13basic_ostreamIcT_ES5_PKc(%"class.std::basic_ostream"* dereferenceable(272) %call7, i8* %call11)
          to label %invoke.cont12 unwind label %lpad, !dbg !2392

invoke.cont12:                                    ; preds = %invoke.cont10
  %8 = bitcast %class.cParImpl* %this1 to i1 (%class.cParImpl*)***, !dbg !2393
  %vtable14 = load i1 (%class.cParImpl*)**, i1 (%class.cParImpl*)*** %8, align 8, !dbg !2393
  %vfn15 = getelementptr inbounds i1 (%class.cParImpl*)*, i1 (%class.cParImpl*)** %vtable14, i64 27, !dbg !2393
  %9 = load i1 (%class.cParImpl*)*, i1 (%class.cParImpl*)** %vfn15, align 8, !dbg !2393
  %call17 = invoke zeroext i1 %9(%class.cParImpl* %this1)
          to label %invoke.cont16 unwind label %lpad, !dbg !2393

invoke.cont16:                                    ; preds = %invoke.cont12
  br i1 %call17, label %if.then, label %if.else53, !dbg !2395

if.then:                                          ; preds = %invoke.cont16
  %10 = bitcast %class.cParImpl* %this1 to i1 (%class.cParImpl*)***, !dbg !2396
  %vtable18 = load i1 (%class.cParImpl*)**, i1 (%class.cParImpl*)*** %10, align 8, !dbg !2396
  %vfn19 = getelementptr inbounds i1 (%class.cParImpl*)*, i1 (%class.cParImpl*)** %vtable18, i64 28, !dbg !2396
  %11 = load i1 (%class.cParImpl*)*, i1 (%class.cParImpl*)** %vfn19, align 8, !dbg !2396
  %call21 = invoke zeroext i1 %11(%class.cParImpl* %this1)
          to label %invoke.cont20 unwind label %lpad, !dbg !2396

invoke.cont20:                                    ; preds = %if.then
  br i1 %call21, label %if.then22, label %if.else, !dbg !2399

if.then22:                                        ; preds = %invoke.cont20
  %12 = bitcast %"class.std::__cxx11::basic_stringstream"* %out to i8*, !dbg !2400
  %add.ptr23 = getelementptr inbounds i8, i8* %12, i64 16, !dbg !2400
  %13 = bitcast i8* %add.ptr23 to %"class.std::basic_ostream"*, !dbg !2400
  %call25 = invoke dereferenceable(272) %"class.std::basic_ostream"* @_ZStlsISt11char_traitsIcEERSt13basic_ostreamIcT_ES5_PKc(%"class.std::basic_ostream"* dereferenceable(272) %13, i8* getelementptr inbounds ([4 x i8], [4 x i8]* @.str.3, i64 0, i64 0))
          to label %invoke.cont24 unwind label %lpad, !dbg !2401

invoke.cont24:                                    ; preds = %if.then22
  %14 = bitcast %class.cParImpl* %this1 to void (%"class.std::__cxx11::basic_string"*, %class.cParImpl*)***, !dbg !2402
  %vtable26 = load void (%"class.std::__cxx11::basic_string"*, %class.cParImpl*)**, void (%"class.std::__cxx11::basic_string"*, %class.cParImpl*)*** %14, align 8, !dbg !2402
  %vfn27 = getelementptr inbounds void (%"class.std::__cxx11::basic_string"*, %class.cParImpl*)*, void (%"class.std::__cxx11::basic_string"*, %class.cParImpl*)** %vtable26, i64 51, !dbg !2402
  %15 = load void (%"class.std::__cxx11::basic_string"*, %class.cParImpl*)*, void (%"class.std::__cxx11::basic_string"*, %class.cParImpl*)** %vfn27, align 8, !dbg !2402
  invoke void %15(%"class.std::__cxx11::basic_string"* sret %ref.tmp, %class.cParImpl* %this1)
          to label %invoke.cont28 unwind label %lpad, !dbg !2402

invoke.cont28:                                    ; preds = %invoke.cont24
  %call31 = invoke dereferenceable(272) %"class.std::basic_ostream"* @_ZStlsIcSt11char_traitsIcESaIcEERSt13basic_ostreamIT_T0_ES7_RKNSt7__cxx1112basic_stringIS4_S5_T1_EE(%"class.std::basic_ostream"* dereferenceable(272) %call25, %"class.std::__cxx11::basic_string"* dereferenceable(32) %ref.tmp)
          to label %invoke.cont30 unwind label %lpad29, !dbg !2403

invoke.cont30:                                    ; preds = %invoke.cont28
  call void @_ZNSt7__cxx1112basic_stringIcSt11char_traitsIcESaIcEED1Ev(%"class.std::__cxx11::basic_string"* %ref.tmp) #3, !dbg !2400
  br label %if.end, !dbg !2400

lpad:                                             ; preds = %if.end57, %if.else53, %invoke.cont49, %invoke.cont45, %if.end, %invoke.cont33, %if.else, %invoke.cont24, %if.then22, %if.then, %invoke.cont12, %invoke.cont10, %invoke.cont6, %invoke.cont4, %invoke.cont2, %invoke.cont, %entry
  %16 = landingpad { i8*, i32 }
          cleanup, !dbg !2404
  %17 = extractvalue { i8*, i32 } %16, 0, !dbg !2404
  store i8* %17, i8** %exn.slot, align 8, !dbg !2404
  %18 = extractvalue { i8*, i32 } %16, 1, !dbg !2404
  store i32 %18, i32* %ehselector.slot, align 4, !dbg !2404
  br label %ehcleanup, !dbg !2404

lpad29:                                           ; preds = %invoke.cont28
  %19 = landingpad { i8*, i32 }
          cleanup, !dbg !2405
  %20 = extractvalue { i8*, i32 } %19, 0, !dbg !2405
  store i8* %20, i8** %exn.slot, align 8, !dbg !2405
  %21 = extractvalue { i8*, i32 } %19, 1, !dbg !2405
  store i32 %21, i32* %ehselector.slot, align 4, !dbg !2405
  call void @_ZNSt7__cxx1112basic_stringIcSt11char_traitsIcESaIcEED1Ev(%"class.std::__cxx11::basic_string"* %ref.tmp) #3, !dbg !2400
  br label %ehcleanup, !dbg !2400

if.else:                                          ; preds = %invoke.cont20
  %22 = bitcast %"class.std::__cxx11::basic_stringstream"* %out to i8*, !dbg !2406
  %add.ptr32 = getelementptr inbounds i8, i8* %22, i64 16, !dbg !2406
  %23 = bitcast i8* %add.ptr32 to %"class.std::basic_ostream"*, !dbg !2406
  %call34 = invoke dereferenceable(272) %"class.std::basic_ostream"* @_ZStlsISt11char_traitsIcEERSt13basic_ostreamIcT_ES5_PKc(%"class.std::basic_ostream"* dereferenceable(272) %23, i8* getelementptr inbounds ([12 x i8], [12 x i8]* @.str.4, i64 0, i64 0))
          to label %invoke.cont33 unwind label %lpad, !dbg !2407

invoke.cont33:                                    ; preds = %if.else
  %24 = bitcast %class.cParImpl* %this1 to void (%"class.std::__cxx11::basic_string"*, %class.cParImpl*)***, !dbg !2408
  %vtable36 = load void (%"class.std::__cxx11::basic_string"*, %class.cParImpl*)**, void (%"class.std::__cxx11::basic_string"*, %class.cParImpl*)*** %24, align 8, !dbg !2408
  %vfn37 = getelementptr inbounds void (%"class.std::__cxx11::basic_string"*, %class.cParImpl*)*, void (%"class.std::__cxx11::basic_string"*, %class.cParImpl*)** %vtable36, i64 51, !dbg !2408
  %25 = load void (%"class.std::__cxx11::basic_string"*, %class.cParImpl*)*, void (%"class.std::__cxx11::basic_string"*, %class.cParImpl*)** %vfn37, align 8, !dbg !2408
  invoke void %25(%"class.std::__cxx11::basic_string"* sret %ref.tmp35, %class.cParImpl* %this1)
          to label %invoke.cont38 unwind label %lpad, !dbg !2408

invoke.cont38:                                    ; preds = %invoke.cont33
  %call41 = invoke dereferenceable(272) %"class.std::basic_ostream"* @_ZStlsIcSt11char_traitsIcESaIcEERSt13basic_ostreamIT_T0_ES7_RKNSt7__cxx1112basic_stringIS4_S5_T1_EE(%"class.std::basic_ostream"* dereferenceable(272) %call34, %"class.std::__cxx11::basic_string"* dereferenceable(32) %ref.tmp35)
          to label %invoke.cont40 unwind label %lpad39, !dbg !2409

invoke.cont40:                                    ; preds = %invoke.cont38
  %call43 = invoke dereferenceable(272) %"class.std::basic_ostream"* @_ZStlsISt11char_traitsIcEERSt13basic_ostreamIcT_ES5_PKc(%"class.std::basic_ostream"* dereferenceable(272) %call41, i8* getelementptr inbounds ([2 x i8], [2 x i8]* @.str.5, i64 0, i64 0))
          to label %invoke.cont42 unwind label %lpad39, !dbg !2410

invoke.cont42:                                    ; preds = %invoke.cont40
  call void @_ZNSt7__cxx1112basic_stringIcSt11char_traitsIcESaIcEED1Ev(%"class.std::__cxx11::basic_string"* %ref.tmp35) #3, !dbg !2406
  br label %if.end

lpad39:                                           ; preds = %invoke.cont40, %invoke.cont38
  %26 = landingpad { i8*, i32 }
          cleanup, !dbg !2405
  %27 = extractvalue { i8*, i32 } %26, 0, !dbg !2405
  store i8* %27, i8** %exn.slot, align 8, !dbg !2405
  %28 = extractvalue { i8*, i32 } %26, 1, !dbg !2405
  store i32 %28, i32* %ehselector.slot, align 4, !dbg !2405
  call void @_ZNSt7__cxx1112basic_stringIcSt11char_traitsIcESaIcEED1Ev(%"class.std::__cxx11::basic_string"* %ref.tmp35) #3, !dbg !2406
  br label %ehcleanup, !dbg !2406

if.end:                                           ; preds = %invoke.cont42, %invoke.cont30
  %29 = bitcast %"class.std::__cxx11::basic_stringstream"* %out to i8*, !dbg !2411
  %add.ptr44 = getelementptr inbounds i8, i8* %29, i64 16, !dbg !2411
  %30 = bitcast i8* %add.ptr44 to %"class.std::basic_ostream"*, !dbg !2411
  %call46 = invoke dereferenceable(272) %"class.std::basic_ostream"* @_ZStlsISt11char_traitsIcEERSt13basic_ostreamIcT_ES5_PKc(%"class.std::basic_ostream"* dereferenceable(272) %30, i8* getelementptr inbounds ([15 x i8], [15 x i8]* @.str.6, i64 0, i64 0))
          to label %invoke.cont45 unwind label %lpad, !dbg !2412

invoke.cont45:                                    ; preds = %if.end
  %31 = bitcast %class.cParImpl* %this1 to i1 (%class.cParImpl*)***, !dbg !2413
  %vtable47 = load i1 (%class.cParImpl*)**, i1 (%class.cParImpl*)*** %31, align 8, !dbg !2413
  %vfn48 = getelementptr inbounds i1 (%class.cParImpl*)*, i1 (%class.cParImpl*)** %vtable47, i64 25, !dbg !2413
  %32 = load i1 (%class.cParImpl*)*, i1 (%class.cParImpl*)** %vfn48, align 8, !dbg !2413
  %call50 = invoke zeroext i1 %32(%class.cParImpl* %this1)
          to label %invoke.cont49 unwind label %lpad, !dbg !2413

invoke.cont49:                                    ; preds = %invoke.cont45
  %33 = zext i1 %call50 to i64, !dbg !2413
  %cond = select i1 %call50, i8* getelementptr inbounds ([5 x i8], [5 x i8]* @.str.7, i64 0, i64 0), i8* getelementptr inbounds ([6 x i8], [6 x i8]* @.str.8, i64 0, i64 0), !dbg !2413
  %call52 = invoke dereferenceable(272) %"class.std::basic_ostream"* @_ZStlsISt11char_traitsIcEERSt13basic_ostreamIcT_ES5_PKc(%"class.std::basic_ostream"* dereferenceable(272) %call46, i8* %cond)
          to label %invoke.cont51 unwind label %lpad, !dbg !2414

invoke.cont51:                                    ; preds = %invoke.cont49
  br label %if.end57, !dbg !2415

if.else53:                                        ; preds = %invoke.cont16
  %34 = bitcast %"class.std::__cxx11::basic_stringstream"* %out to i8*, !dbg !2416
  %add.ptr54 = getelementptr inbounds i8, i8* %34, i64 16, !dbg !2416
  %35 = bitcast i8* %add.ptr54 to %"class.std::basic_ostream"*, !dbg !2416
  %call56 = invoke dereferenceable(272) %"class.std::basic_ostream"* @_ZStlsISt11char_traitsIcEERSt13basic_ostreamIcT_ES5_PKc(%"class.std::basic_ostream"* dereferenceable(272) %35, i8* getelementptr inbounds ([14 x i8], [14 x i8]* @.str.9, i64 0, i64 0))
          to label %invoke.cont55 unwind label %lpad, !dbg !2418

invoke.cont55:                                    ; preds = %if.else53
  br label %if.end57

if.end57:                                         ; preds = %invoke.cont55, %invoke.cont51
  invoke void @_ZNKSt7__cxx1118basic_stringstreamIcSt11char_traitsIcESaIcEE3strEv(%"class.std::__cxx11::basic_string"* sret %agg.result, %"class.std::__cxx11::basic_stringstream"* %out)
          to label %invoke.cont58 unwind label %lpad, !dbg !2419

invoke.cont58:                                    ; preds = %if.end57
  call void @_ZNSt7__cxx1118basic_stringstreamIcSt11char_traitsIcESaIcEED1Ev(%"class.std::__cxx11::basic_stringstream"* %out) #3, !dbg !2404
  ret void, !dbg !2404

ehcleanup:                                        ; preds = %lpad39, %lpad29, %lpad
  call void @_ZNSt7__cxx1118basic_stringstreamIcSt11char_traitsIcESaIcEED1Ev(%"class.std::__cxx11::basic_stringstream"* %out) #3, !dbg !2404
  br label %eh.resume, !dbg !2404

eh.resume:                                        ; preds = %ehcleanup
  %exn = load i8*, i8** %exn.slot, align 8, !dbg !2404
  %sel = load i32, i32* %ehselector.slot, align 4, !dbg !2404
  %lpad.val = insertvalue { i8*, i32 } undef, i8* %exn, 0, !dbg !2404
  %lpad.val59 = insertvalue { i8*, i32 } %lpad.val, i32 %sel, 1, !dbg !2404
  resume { i8*, i32 } %lpad.val59, !dbg !2404
}

declare dso_local void @_ZNSt7__cxx1118basic_stringstreamIcSt11char_traitsIcESaIcEEC1Ev(%"class.std::__cxx11::basic_stringstream"*) unnamed_addr #1

declare dso_local dereferenceable(272) %"class.std::basic_ostream"* @_ZStlsISt11char_traitsIcEERSt13basic_ostreamIcT_ES5_PKc(%"class.std::basic_ostream"* dereferenceable(272), i8*) #1

declare dso_local i8* @_ZN4cPar11getTypeNameENS_4TypeE(i32) #1

declare dso_local dereferenceable(272) %"class.std::basic_ostream"* @_ZStlsIcSt11char_traitsIcESaIcEERSt13basic_ostreamIT_T0_ES7_RKNSt7__cxx1112basic_stringIS4_S5_T1_EE(%"class.std::basic_ostream"* dereferenceable(272), %"class.std::__cxx11::basic_string"* dereferenceable(32)) #1

; Function Attrs: nounwind
declare dso_local void @_ZNSt7__cxx1112basic_stringIcSt11char_traitsIcESaIcEED1Ev(%"class.std::__cxx11::basic_string"*) unnamed_addr #2

declare dso_local void @_ZNKSt7__cxx1118basic_stringstreamIcSt11char_traitsIcESaIcEE3strEv(%"class.std::__cxx11::basic_string"* sret, %"class.std::__cxx11::basic_stringstream"*) #1

; Function Attrs: nounwind
declare dso_local void @_ZNSt7__cxx1118basic_stringstreamIcSt11char_traitsIcESaIcEED1Ev(%"class.std::__cxx11::basic_stringstream"*) unnamed_addr #2

; Function Attrs: noinline uwtable
define dso_local %class.cParImpl* @_ZNK8cParImpl3dupEv(%class.cParImpl* %this) unnamed_addr #0 align 2 personality i8* bitcast (i32 (...)* @__gxx_personality_v0 to i8*) !dbg !2420 {
entry:
  %this.addr = alloca %class.cParImpl*, align 8
  %exn.slot = alloca i8*
  %ehselector.slot = alloca i32
  store %class.cParImpl* %this, %class.cParImpl** %this.addr, align 8
  call void @llvm.dbg.declare(metadata %class.cParImpl** %this.addr, metadata !2421, metadata !DIExpression()), !dbg !2422
  %this1 = load %class.cParImpl*, %class.cParImpl** %this.addr, align 8
  %exception = call i8* @__cxa_allocate_exception(i64 128) #3, !dbg !2423
  %0 = bitcast i8* %exception to %class.cRuntimeError*, !dbg !2423
  %1 = bitcast %class.cParImpl* %this1 to %class.cObject*, !dbg !2424
  invoke void (%class.cRuntimeError*, %class.cObject*, i32, ...) @_ZN13cRuntimeErrorC1EPK7cObject12OppErrorCodez(%class.cRuntimeError* %0, %class.cObject* %1, i32 7)
          to label %invoke.cont unwind label %lpad, !dbg !2425

invoke.cont:                                      ; preds = %entry
  call void @__cxa_throw(i8* %exception, i8* bitcast ({ i8*, i8*, i8* }* @_ZTI13cRuntimeError to i8*), i8* bitcast (void (%class.cRuntimeError*)* @_ZN13cRuntimeErrorD2Ev to i8*)) #12, !dbg !2423
  unreachable, !dbg !2423

lpad:                                             ; preds = %entry
  %2 = landingpad { i8*, i32 }
          cleanup, !dbg !2426
  %3 = extractvalue { i8*, i32 } %2, 0, !dbg !2426
  store i8* %3, i8** %exn.slot, align 8, !dbg !2426
  %4 = extractvalue { i8*, i32 } %2, 1, !dbg !2426
  store i32 %4, i32* %ehselector.slot, align 4, !dbg !2426
  call void @__cxa_free_exception(i8* %exception) #3, !dbg !2423
  br label %eh.resume, !dbg !2423

eh.resume:                                        ; preds = %lpad
  %exn = load i8*, i8** %exn.slot, align 8, !dbg !2423
  %sel = load i32, i32* %ehselector.slot, align 4, !dbg !2423
  %lpad.val = insertvalue { i8*, i32 } undef, i8* %exn, 0, !dbg !2423
  %lpad.val2 = insertvalue { i8*, i32 } %lpad.val, i32 %sel, 1, !dbg !2423
  resume { i8*, i32 } %lpad.val2, !dbg !2423
}

declare dso_local i8* @__cxa_allocate_exception(i64)

declare dso_local void @_ZN13cRuntimeErrorC1EPK7cObject12OppErrorCodez(%class.cRuntimeError*, %class.cObject*, i32, ...) unnamed_addr #1

declare dso_local void @__cxa_free_exception(i8*)

; Function Attrs: noinline nounwind uwtable
define linkonce_odr dso_local void @_ZN13cRuntimeErrorD2Ev(%class.cRuntimeError* %this) unnamed_addr #5 comdat align 2 !dbg !2427 {
entry:
  %this.addr = alloca %class.cRuntimeError*, align 8
  store %class.cRuntimeError* %this, %class.cRuntimeError** %this.addr, align 8
  call void @llvm.dbg.declare(metadata %class.cRuntimeError** %this.addr, metadata !2434, metadata !DIExpression()), !dbg !2436
  %this1 = load %class.cRuntimeError*, %class.cRuntimeError** %this.addr, align 8
  %0 = bitcast %class.cRuntimeError* %this1 to %class.cException*, !dbg !2437
  call void @_ZN10cExceptionD2Ev(%class.cException* %0) #3, !dbg !2437
  ret void, !dbg !2439
}

declare dso_local void @__cxa_throw(i8*, i8*, i8*)

; Function Attrs: noinline nounwind uwtable
define dso_local i8* @_ZNK8cParImpl7getUnitEv(%class.cParImpl* %this) unnamed_addr #5 align 2 !dbg !2440 {
entry:
  %this.addr = alloca %class.cParImpl*, align 8
  store %class.cParImpl* %this, %class.cParImpl** %this.addr, align 8
  call void @llvm.dbg.declare(metadata %class.cParImpl** %this.addr, metadata !2441, metadata !DIExpression()), !dbg !2442
  %this1 = load %class.cParImpl*, %class.cParImpl** %this.addr, align 8
  %unitp = getelementptr inbounds %class.cParImpl, %class.cParImpl* %this1, i32 0, i32 1, !dbg !2443
  %0 = load i8*, i8** %unitp, align 8, !dbg !2443
  ret i8* %0, !dbg !2444
}

; Function Attrs: noinline uwtable
define dso_local void @_ZN8cParImpl7setUnitEPKc(%class.cParImpl* %this, i8* %s) unnamed_addr #0 align 2 !dbg !2445 {
entry:
  %this.addr = alloca %class.cParImpl*, align 8
  %s.addr = alloca i8*, align 8
  store %class.cParImpl* %this, %class.cParImpl** %this.addr, align 8
  call void @llvm.dbg.declare(metadata %class.cParImpl** %this.addr, metadata !2446, metadata !DIExpression()), !dbg !2447
  store i8* %s, i8** %s.addr, align 8
  call void @llvm.dbg.declare(metadata i8** %s.addr, metadata !2448, metadata !DIExpression()), !dbg !2449
  %this1 = load %class.cParImpl*, %class.cParImpl** %this.addr, align 8
  %unitp = getelementptr inbounds %class.cParImpl, %class.cParImpl* %this1, i32 0, i32 1, !dbg !2450
  %0 = load i8*, i8** %unitp, align 8, !dbg !2450
  call void @_ZN11cStringPool7releaseEPKc(%class.cStringPool* @_ZN8cParImpl14unitStringPoolE, i8* %0), !dbg !2451
  %1 = load i8*, i8** %s.addr, align 8, !dbg !2452
  %call = call i8* @_ZN11cStringPool3getEPKc(%class.cStringPool* @_ZN8cParImpl14unitStringPoolE, i8* %1), !dbg !2453
  %unitp2 = getelementptr inbounds %class.cParImpl, %class.cParImpl* %this1, i32 0, i32 1, !dbg !2454
  store i8* %call, i8** %unitp2, align 8, !dbg !2455
  ret void, !dbg !2456
}

declare dso_local i8* @_ZN11cStringPool3getEPKc(%class.cStringPool*, i8*) #1

; Function Attrs: noinline uwtable
define dso_local zeroext i1 @_ZNK8cParImpl27containsConstSubexpressionsEv(%class.cParImpl* %this) unnamed_addr #0 align 2 !dbg !2457 {
entry:
  %this.addr = alloca %class.cParImpl*, align 8
  %expr = alloca %class.cExpression*, align 8
  store %class.cParImpl* %this, %class.cParImpl** %this.addr, align 8
  call void @llvm.dbg.declare(metadata %class.cParImpl** %this.addr, metadata !2458, metadata !DIExpression()), !dbg !2459
  %this1 = load %class.cParImpl*, %class.cParImpl** %this.addr, align 8
  call void @llvm.dbg.declare(metadata %class.cExpression** %expr, metadata !2460, metadata !DIExpression()), !dbg !2461
  %0 = bitcast %class.cParImpl* %this1 to %class.cExpression* (%class.cParImpl*)***, !dbg !2462
  %vtable = load %class.cExpression* (%class.cParImpl*)**, %class.cExpression* (%class.cParImpl*)*** %0, align 8, !dbg !2462
  %vfn = getelementptr inbounds %class.cExpression* (%class.cParImpl*)*, %class.cExpression* (%class.cParImpl*)** %vtable, i64 47, !dbg !2462
  %1 = load %class.cExpression* (%class.cParImpl*)*, %class.cExpression* (%class.cParImpl*)** %vfn, align 8, !dbg !2462
  %call = call %class.cExpression* %1(%class.cParImpl* %this1), !dbg !2462
  store %class.cExpression* %call, %class.cExpression** %expr, align 8, !dbg !2461
  %2 = load %class.cExpression*, %class.cExpression** %expr, align 8, !dbg !2463
  %cmp = icmp eq %class.cExpression* %2, null, !dbg !2464
  br i1 %cmp, label %cond.true, label %cond.false, !dbg !2463

cond.true:                                        ; preds = %entry
  br label %cond.end, !dbg !2463

cond.false:                                       ; preds = %entry
  %3 = load %class.cExpression*, %class.cExpression** %expr, align 8, !dbg !2465
  %4 = bitcast %class.cExpression* %3 to i1 (%class.cExpression*)***, !dbg !2466
  %vtable2 = load i1 (%class.cExpression*)**, i1 (%class.cExpression*)*** %4, align 8, !dbg !2466
  %vfn3 = getelementptr inbounds i1 (%class.cExpression*)*, i1 (%class.cExpression*)** %vtable2, i64 27, !dbg !2466
  %5 = load i1 (%class.cExpression*)*, i1 (%class.cExpression*)** %vfn3, align 8, !dbg !2466
  %call4 = call zeroext i1 %5(%class.cExpression* %3), !dbg !2466
  br label %cond.end, !dbg !2463

cond.end:                                         ; preds = %cond.false, %cond.true
  %cond = phi i1 [ false, %cond.true ], [ %call4, %cond.false ], !dbg !2463
  ret i1 %cond, !dbg !2467
}

; Function Attrs: noinline uwtable
define dso_local void @_ZN8cParImpl27evaluateConstSubexpressionsEP10cComponent(%class.cParImpl* %this, %class.cComponent* %context) unnamed_addr #0 align 2 !dbg !2468 {
entry:
  %this.addr = alloca %class.cParImpl*, align 8
  %context.addr = alloca %class.cComponent*, align 8
  %expr = alloca %class.cExpression*, align 8
  store %class.cParImpl* %this, %class.cParImpl** %this.addr, align 8
  call void @llvm.dbg.declare(metadata %class.cParImpl** %this.addr, metadata !2469, metadata !DIExpression()), !dbg !2470
  store %class.cComponent* %context, %class.cComponent** %context.addr, align 8
  call void @llvm.dbg.declare(metadata %class.cComponent** %context.addr, metadata !2471, metadata !DIExpression()), !dbg !2472
  %this1 = load %class.cParImpl*, %class.cParImpl** %this.addr, align 8
  call void @llvm.dbg.declare(metadata %class.cExpression** %expr, metadata !2473, metadata !DIExpression()), !dbg !2474
  %0 = bitcast %class.cParImpl* %this1 to %class.cExpression* (%class.cParImpl*)***, !dbg !2475
  %vtable = load %class.cExpression* (%class.cParImpl*)**, %class.cExpression* (%class.cParImpl*)*** %0, align 8, !dbg !2475
  %vfn = getelementptr inbounds %class.cExpression* (%class.cParImpl*)*, %class.cExpression* (%class.cParImpl*)** %vtable, i64 47, !dbg !2475
  %1 = load %class.cExpression* (%class.cParImpl*)*, %class.cExpression* (%class.cParImpl*)** %vfn, align 8, !dbg !2475
  %call = call %class.cExpression* %1(%class.cParImpl* %this1), !dbg !2475
  store %class.cExpression* %call, %class.cExpression** %expr, align 8, !dbg !2474
  %2 = load %class.cExpression*, %class.cExpression** %expr, align 8, !dbg !2476
  %tobool = icmp ne %class.cExpression* %2, null, !dbg !2476
  br i1 %tobool, label %if.then, label %if.end, !dbg !2478

if.then:                                          ; preds = %entry
  %3 = load %class.cExpression*, %class.cExpression** %expr, align 8, !dbg !2479
  %4 = load %class.cComponent*, %class.cComponent** %context.addr, align 8, !dbg !2480
  %5 = bitcast %class.cExpression* %3 to void (%class.cExpression*, %class.cComponent*)***, !dbg !2481
  %vtable2 = load void (%class.cExpression*, %class.cComponent*)**, void (%class.cExpression*, %class.cComponent*)*** %5, align 8, !dbg !2481
  %vfn3 = getelementptr inbounds void (%class.cExpression*, %class.cComponent*)*, void (%class.cExpression*, %class.cComponent*)** %vtable2, i64 28, !dbg !2481
  %6 = load void (%class.cExpression*, %class.cComponent*)*, void (%class.cExpression*, %class.cComponent*)** %vfn3, align 8, !dbg !2481
  call void %6(%class.cExpression* %3, %class.cComponent* %4), !dbg !2481
  br label %if.end, !dbg !2479

if.end:                                           ; preds = %if.then, %entry
  ret void, !dbg !2482
}

; Function Attrs: noinline uwtable
define dso_local i32 @_ZNK8cParImpl7compareEPKS_(%class.cParImpl* %this, %class.cParImpl* %other) unnamed_addr #0 align 2 !dbg !2483 {
entry:
  %retval = alloca i32, align 4
  %this.addr = alloca %class.cParImpl*, align 8
  %other.addr = alloca %class.cParImpl*, align 8
  %res = alloca i32, align 4
  %flags2 = alloca i16, align 2
  %otherflags2 = alloca i16, align 2
  store %class.cParImpl* %this, %class.cParImpl** %this.addr, align 8
  call void @llvm.dbg.declare(metadata %class.cParImpl** %this.addr, metadata !2484, metadata !DIExpression()), !dbg !2485
  store %class.cParImpl* %other, %class.cParImpl** %other.addr, align 8
  call void @llvm.dbg.declare(metadata %class.cParImpl** %other.addr, metadata !2486, metadata !DIExpression()), !dbg !2487
  %this1 = load %class.cParImpl*, %class.cParImpl** %this.addr, align 8
  call void @llvm.dbg.declare(metadata i32* %res, metadata !2488, metadata !DIExpression()), !dbg !2489
  %0 = bitcast %class.cParImpl* %this1 to %class.cNamedObject*, !dbg !2490
  %1 = bitcast %class.cNamedObject* %0 to i8* (%class.cNamedObject*)***, !dbg !2490
  %vtable = load i8* (%class.cNamedObject*)**, i8* (%class.cNamedObject*)*** %1, align 8, !dbg !2490
  %vfn = getelementptr inbounds i8* (%class.cNamedObject*)*, i8* (%class.cNamedObject*)** %vtable, i64 6, !dbg !2490
  %2 = load i8* (%class.cNamedObject*)*, i8* (%class.cNamedObject*)** %vfn, align 8, !dbg !2490
  %call = call i8* %2(%class.cNamedObject* %0), !dbg !2490
  %3 = load %class.cParImpl*, %class.cParImpl** %other.addr, align 8, !dbg !2491
  %4 = bitcast %class.cParImpl* %3 to %class.cNamedObject*, !dbg !2492
  %5 = bitcast %class.cNamedObject* %4 to i8* (%class.cNamedObject*)***, !dbg !2492
  %vtable2 = load i8* (%class.cNamedObject*)**, i8* (%class.cNamedObject*)*** %5, align 8, !dbg !2492
  %vfn3 = getelementptr inbounds i8* (%class.cNamedObject*)*, i8* (%class.cNamedObject*)** %vtable2, i64 6, !dbg !2492
  %6 = load i8* (%class.cNamedObject*)*, i8* (%class.cNamedObject*)** %vfn3, align 8, !dbg !2492
  %call4 = call i8* %6(%class.cNamedObject* %4), !dbg !2492
  %call5 = call i32 @strcmp(i8* %call, i8* %call4) #13, !dbg !2493
  store i32 %call5, i32* %res, align 4, !dbg !2489
  %7 = load i32, i32* %res, align 4, !dbg !2494
  %cmp = icmp ne i32 %7, 0, !dbg !2496
  br i1 %cmp, label %if.then, label %if.end, !dbg !2497

if.then:                                          ; preds = %entry
  %8 = load i32, i32* %res, align 4, !dbg !2498
  store i32 %8, i32* %retval, align 4, !dbg !2499
  br label %return, !dbg !2499

if.end:                                           ; preds = %entry
  call void @llvm.dbg.declare(metadata i16* %flags2, metadata !2500, metadata !DIExpression()), !dbg !2501
  %9 = bitcast %class.cParImpl* %this1 to %class.cNamedObject*, !dbg !2502
  %flags = getelementptr inbounds %class.cNamedObject, %class.cNamedObject* %9, i32 0, i32 2, !dbg !2502
  %10 = load i16, i16* %flags, align 8, !dbg !2502
  %conv = zext i16 %10 to i32, !dbg !2502
  %and = and i32 %conv, -17, !dbg !2503
  %conv6 = trunc i32 %and to i16, !dbg !2502
  store i16 %conv6, i16* %flags2, align 2, !dbg !2501
  call void @llvm.dbg.declare(metadata i16* %otherflags2, metadata !2504, metadata !DIExpression()), !dbg !2505
  %11 = load %class.cParImpl*, %class.cParImpl** %other.addr, align 8, !dbg !2506
  %12 = bitcast %class.cParImpl* %11 to %class.cNamedObject*, !dbg !2507
  %flags7 = getelementptr inbounds %class.cNamedObject, %class.cNamedObject* %12, i32 0, i32 2, !dbg !2507
  %13 = load i16, i16* %flags7, align 8, !dbg !2507
  %conv8 = zext i16 %13 to i32, !dbg !2506
  %and9 = and i32 %conv8, -17, !dbg !2508
  %conv10 = trunc i32 %and9 to i16, !dbg !2506
  store i16 %conv10, i16* %otherflags2, align 2, !dbg !2505
  %14 = load i16, i16* %flags2, align 2, !dbg !2509
  %conv11 = zext i16 %14 to i32, !dbg !2509
  %15 = load i16, i16* %otherflags2, align 2, !dbg !2511
  %conv12 = zext i16 %15 to i32, !dbg !2511
  %cmp13 = icmp ne i32 %conv11, %conv12, !dbg !2512
  br i1 %cmp13, label %if.then14, label %if.end18, !dbg !2513

if.then14:                                        ; preds = %if.end
  %16 = load i16, i16* %flags2, align 2, !dbg !2514
  %conv15 = zext i16 %16 to i32, !dbg !2514
  %17 = load i16, i16* %otherflags2, align 2, !dbg !2515
  %conv16 = zext i16 %17 to i32, !dbg !2515
  %cmp17 = icmp slt i32 %conv15, %conv16, !dbg !2516
  %18 = zext i1 %cmp17 to i64, !dbg !2514
  %cond = select i1 %cmp17, i32 -1, i32 1, !dbg !2514
  store i32 %cond, i32* %retval, align 4, !dbg !2517
  br label %return, !dbg !2517

if.end18:                                         ; preds = %if.end
  %19 = bitcast %class.cParImpl* %this1 to i32 (%class.cParImpl*)***, !dbg !2518
  %vtable19 = load i32 (%class.cParImpl*)**, i32 (%class.cParImpl*)*** %19, align 8, !dbg !2518
  %vfn20 = getelementptr inbounds i32 (%class.cParImpl*)*, i32 (%class.cParImpl*)** %vtable19, i64 22, !dbg !2518
  %20 = load i32 (%class.cParImpl*)*, i32 (%class.cParImpl*)** %vfn20, align 8, !dbg !2518
  %call21 = call i32 %20(%class.cParImpl* %this1), !dbg !2518
  %21 = load %class.cParImpl*, %class.cParImpl** %other.addr, align 8, !dbg !2520
  %22 = bitcast %class.cParImpl* %21 to i32 (%class.cParImpl*)***, !dbg !2521
  %vtable22 = load i32 (%class.cParImpl*)**, i32 (%class.cParImpl*)*** %22, align 8, !dbg !2521
  %vfn23 = getelementptr inbounds i32 (%class.cParImpl*)*, i32 (%class.cParImpl*)** %vtable22, i64 22, !dbg !2521
  %23 = load i32 (%class.cParImpl*)*, i32 (%class.cParImpl*)** %vfn23, align 8, !dbg !2521
  %call24 = call i32 %23(%class.cParImpl* %21), !dbg !2521
  %cmp25 = icmp ne i32 %call21, %call24, !dbg !2522
  br i1 %cmp25, label %if.then26, label %if.end35, !dbg !2523

if.then26:                                        ; preds = %if.end18
  %24 = bitcast %class.cParImpl* %this1 to i32 (%class.cParImpl*)***, !dbg !2524
  %vtable27 = load i32 (%class.cParImpl*)**, i32 (%class.cParImpl*)*** %24, align 8, !dbg !2524
  %vfn28 = getelementptr inbounds i32 (%class.cParImpl*)*, i32 (%class.cParImpl*)** %vtable27, i64 22, !dbg !2524
  %25 = load i32 (%class.cParImpl*)*, i32 (%class.cParImpl*)** %vfn28, align 8, !dbg !2524
  %call29 = call i32 %25(%class.cParImpl* %this1), !dbg !2524
  %26 = load %class.cParImpl*, %class.cParImpl** %other.addr, align 8, !dbg !2525
  %27 = bitcast %class.cParImpl* %26 to i32 (%class.cParImpl*)***, !dbg !2526
  %vtable30 = load i32 (%class.cParImpl*)**, i32 (%class.cParImpl*)*** %27, align 8, !dbg !2526
  %vfn31 = getelementptr inbounds i32 (%class.cParImpl*)*, i32 (%class.cParImpl*)** %vtable30, i64 22, !dbg !2526
  %28 = load i32 (%class.cParImpl*)*, i32 (%class.cParImpl*)** %vfn31, align 8, !dbg !2526
  %call32 = call i32 %28(%class.cParImpl* %26), !dbg !2526
  %cmp33 = icmp slt i32 %call29, %call32, !dbg !2527
  %29 = zext i1 %cmp33 to i64, !dbg !2524
  %cond34 = select i1 %cmp33, i32 -1, i32 1, !dbg !2524
  store i32 %cond34, i32* %retval, align 4, !dbg !2528
  br label %return, !dbg !2528

if.end35:                                         ; preds = %if.end18
  %unitp = getelementptr inbounds %class.cParImpl, %class.cParImpl* %this1, i32 0, i32 1, !dbg !2529
  %30 = load i8*, i8** %unitp, align 8, !dbg !2529
  %31 = load %class.cParImpl*, %class.cParImpl** %other.addr, align 8, !dbg !2530
  %unitp36 = getelementptr inbounds %class.cParImpl, %class.cParImpl* %31, i32 0, i32 1, !dbg !2531
  %32 = load i8*, i8** %unitp36, align 8, !dbg !2531
  %call37 = call i32 @_Z10opp_strcmpPKcS0_(i8* %30, i8* %32), !dbg !2532
  store i32 %call37, i32* %retval, align 4, !dbg !2533
  br label %return, !dbg !2533

return:                                           ; preds = %if.end35, %if.then26, %if.then14, %if.then
  %33 = load i32, i32* %retval, align 4, !dbg !2534
  ret i32 %33, !dbg !2534
}

; Function Attrs: nounwind readonly
declare dso_local i32 @strcmp(i8*, i8*) #8

; Function Attrs: noinline nounwind uwtable
define linkonce_odr dso_local i32 @_Z10opp_strcmpPKcS0_(i8* %s1, i8* %s2) #5 comdat !dbg !2535 {
entry:
  %retval = alloca i32, align 4
  %s1.addr = alloca i8*, align 8
  %s2.addr = alloca i8*, align 8
  store i8* %s1, i8** %s1.addr, align 8
  call void @llvm.dbg.declare(metadata i8** %s1.addr, metadata !2537, metadata !DIExpression()), !dbg !2538
  store i8* %s2, i8** %s2.addr, align 8
  call void @llvm.dbg.declare(metadata i8** %s2.addr, metadata !2539, metadata !DIExpression()), !dbg !2540
  %0 = load i8*, i8** %s1.addr, align 8, !dbg !2541
  %tobool = icmp ne i8* %0, null, !dbg !2541
  br i1 %tobool, label %if.then, label %if.else, !dbg !2543

if.then:                                          ; preds = %entry
  %1 = load i8*, i8** %s2.addr, align 8, !dbg !2544
  %tobool1 = icmp ne i8* %1, null, !dbg !2544
  br i1 %tobool1, label %cond.true, label %cond.false, !dbg !2544

cond.true:                                        ; preds = %if.then
  %2 = load i8*, i8** %s1.addr, align 8, !dbg !2545
  %3 = load i8*, i8** %s2.addr, align 8, !dbg !2546
  %call = call i32 @strcmp(i8* %2, i8* %3) #13, !dbg !2547
  br label %cond.end, !dbg !2544

cond.false:                                       ; preds = %if.then
  %4 = load i8*, i8** %s1.addr, align 8, !dbg !2548
  %5 = load i8, i8* %4, align 1, !dbg !2549
  %tobool2 = icmp ne i8 %5, 0, !dbg !2549
  %6 = zext i1 %tobool2 to i64, !dbg !2549
  %cond = select i1 %tobool2, i32 1, i32 0, !dbg !2549
  br label %cond.end, !dbg !2544

cond.end:                                         ; preds = %cond.false, %cond.true
  %cond3 = phi i32 [ %call, %cond.true ], [ %cond, %cond.false ], !dbg !2544
  store i32 %cond3, i32* %retval, align 4, !dbg !2550
  br label %return, !dbg !2550

if.else:                                          ; preds = %entry
  %7 = load i8*, i8** %s2.addr, align 8, !dbg !2551
  %tobool4 = icmp ne i8* %7, null, !dbg !2551
  br i1 %tobool4, label %land.rhs, label %land.end, !dbg !2552

land.rhs:                                         ; preds = %if.else
  %8 = load i8*, i8** %s2.addr, align 8, !dbg !2553
  %9 = load i8, i8* %8, align 1, !dbg !2554
  %tobool5 = icmp ne i8 %9, 0, !dbg !2554
  br label %land.end

land.end:                                         ; preds = %land.rhs, %if.else
  %10 = phi i1 [ false, %if.else ], [ %tobool5, %land.rhs ], !dbg !2555
  %11 = zext i1 %10 to i64, !dbg !2556
  %cond6 = select i1 %10, i32 -1, i32 0, !dbg !2556
  store i32 %cond6, i32* %retval, align 4, !dbg !2557
  br label %return, !dbg !2557

return:                                           ; preds = %land.end, %cond.end
  %12 = load i32, i32* %retval, align 4, !dbg !2558
  ret i32 %12, !dbg !2558
}

; Function Attrs: noinline uwtable
define dso_local %class.cParImpl* @_ZN8cParImpl14createWithTypeEN4cPar4TypeE(i32 %type) #0 align 2 personality i8* bitcast (i32 (...)* @__gxx_personality_v0 to i8*) !dbg !2559 {
entry:
  %retval = alloca %class.cParImpl*, align 8
  %type.addr = alloca i32, align 4
  %exn.slot = alloca i8*
  %ehselector.slot = alloca i32
  store i32 %type, i32* %type.addr, align 4
  call void @llvm.dbg.declare(metadata i32* %type.addr, metadata !2560, metadata !DIExpression()), !dbg !2561
  %0 = load i32, i32* %type.addr, align 4, !dbg !2562
  switch i32 %0, label %sw.default [
    i32 66, label %sw.bb
    i32 68, label %sw.bb1
    i32 76, label %sw.bb5
    i32 83, label %sw.bb9
    i32 88, label %sw.bb13
  ], !dbg !2563

sw.bb:                                            ; preds = %entry
  %call = call i8* @_Znwm(i64 40) #14, !dbg !2564
  %1 = bitcast i8* %call to %class.cBoolParImpl*, !dbg !2564
  invoke void @_ZN12cBoolParImplC1Ev(%class.cBoolParImpl* %1)
          to label %invoke.cont unwind label %lpad, !dbg !2566

invoke.cont:                                      ; preds = %sw.bb
  %2 = bitcast %class.cBoolParImpl* %1 to %class.cParImpl*, !dbg !2564
  store %class.cParImpl* %2, %class.cParImpl** %retval, align 8, !dbg !2567
  br label %return, !dbg !2567

lpad:                                             ; preds = %sw.bb
  %3 = landingpad { i8*, i32 }
          cleanup, !dbg !2568
  %4 = extractvalue { i8*, i32 } %3, 0, !dbg !2568
  store i8* %4, i8** %exn.slot, align 8, !dbg !2568
  %5 = extractvalue { i8*, i32 } %3, 1, !dbg !2568
  store i32 %5, i32* %ehselector.slot, align 4, !dbg !2568
  call void @_ZdlPv(i8* %call) #15, !dbg !2564
  br label %eh.resume, !dbg !2564

sw.bb1:                                           ; preds = %entry
  %call2 = call i8* @_Znwm(i64 40) #14, !dbg !2569
  %6 = bitcast i8* %call2 to %class.cDoubleParImpl*, !dbg !2569
  invoke void @_ZN14cDoubleParImplC1Ev(%class.cDoubleParImpl* %6)
          to label %invoke.cont4 unwind label %lpad3, !dbg !2570

invoke.cont4:                                     ; preds = %sw.bb1
  %7 = bitcast %class.cDoubleParImpl* %6 to %class.cParImpl*, !dbg !2569
  store %class.cParImpl* %7, %class.cParImpl** %retval, align 8, !dbg !2571
  br label %return, !dbg !2571

lpad3:                                            ; preds = %sw.bb1
  %8 = landingpad { i8*, i32 }
          cleanup, !dbg !2568
  %9 = extractvalue { i8*, i32 } %8, 0, !dbg !2568
  store i8* %9, i8** %exn.slot, align 8, !dbg !2568
  %10 = extractvalue { i8*, i32 } %8, 1, !dbg !2568
  store i32 %10, i32* %ehselector.slot, align 4, !dbg !2568
  call void @_ZdlPv(i8* %call2) #15, !dbg !2569
  br label %eh.resume, !dbg !2569

sw.bb5:                                           ; preds = %entry
  %call6 = call i8* @_Znwm(i64 40) #14, !dbg !2572
  %11 = bitcast i8* %call6 to %class.cLongParImpl*, !dbg !2572
  invoke void @_ZN12cLongParImplC1Ev(%class.cLongParImpl* %11)
          to label %invoke.cont8 unwind label %lpad7, !dbg !2573

invoke.cont8:                                     ; preds = %sw.bb5
  %12 = bitcast %class.cLongParImpl* %11 to %class.cParImpl*, !dbg !2572
  store %class.cParImpl* %12, %class.cParImpl** %retval, align 8, !dbg !2574
  br label %return, !dbg !2574

lpad7:                                            ; preds = %sw.bb5
  %13 = landingpad { i8*, i32 }
          cleanup, !dbg !2568
  %14 = extractvalue { i8*, i32 } %13, 0, !dbg !2568
  store i8* %14, i8** %exn.slot, align 8, !dbg !2568
  %15 = extractvalue { i8*, i32 } %13, 1, !dbg !2568
  store i32 %15, i32* %ehselector.slot, align 4, !dbg !2568
  call void @_ZdlPv(i8* %call6) #15, !dbg !2572
  br label %eh.resume, !dbg !2572

sw.bb9:                                           ; preds = %entry
  %call10 = call i8* @_Znwm(i64 72) #14, !dbg !2575
  %16 = bitcast i8* %call10 to %class.cStringParImpl*, !dbg !2575
  invoke void @_ZN14cStringParImplC1Ev(%class.cStringParImpl* %16)
          to label %invoke.cont12 unwind label %lpad11, !dbg !2576

invoke.cont12:                                    ; preds = %sw.bb9
  %17 = bitcast %class.cStringParImpl* %16 to %class.cParImpl*, !dbg !2575
  store %class.cParImpl* %17, %class.cParImpl** %retval, align 8, !dbg !2577
  br label %return, !dbg !2577

lpad11:                                           ; preds = %sw.bb9
  %18 = landingpad { i8*, i32 }
          cleanup, !dbg !2568
  %19 = extractvalue { i8*, i32 } %18, 0, !dbg !2568
  store i8* %19, i8** %exn.slot, align 8, !dbg !2568
  %20 = extractvalue { i8*, i32 } %18, 1, !dbg !2568
  store i32 %20, i32* %ehselector.slot, align 4, !dbg !2568
  call void @_ZdlPv(i8* %call10) #15, !dbg !2575
  br label %eh.resume, !dbg !2575

sw.bb13:                                          ; preds = %entry
  %call14 = call i8* @_Znwm(i64 48) #14, !dbg !2578
  %21 = bitcast i8* %call14 to %class.cXMLParImpl*, !dbg !2578
  invoke void @_ZN11cXMLParImplC1Ev(%class.cXMLParImpl* %21)
          to label %invoke.cont16 unwind label %lpad15, !dbg !2579

invoke.cont16:                                    ; preds = %sw.bb13
  %22 = bitcast %class.cXMLParImpl* %21 to %class.cParImpl*, !dbg !2578
  store %class.cParImpl* %22, %class.cParImpl** %retval, align 8, !dbg !2580
  br label %return, !dbg !2580

lpad15:                                           ; preds = %sw.bb13
  %23 = landingpad { i8*, i32 }
          cleanup, !dbg !2568
  %24 = extractvalue { i8*, i32 } %23, 0, !dbg !2568
  store i8* %24, i8** %exn.slot, align 8, !dbg !2568
  %25 = extractvalue { i8*, i32 } %23, 1, !dbg !2568
  store i32 %25, i32* %ehselector.slot, align 4, !dbg !2568
  call void @_ZdlPv(i8* %call14) #15, !dbg !2578
  br label %eh.resume, !dbg !2578

sw.default:                                       ; preds = %entry
  %exception = call i8* @__cxa_allocate_exception(i64 128) #3, !dbg !2581
  %26 = bitcast i8* %exception to %class.cRuntimeError*, !dbg !2581
  %27 = load i32, i32* %type.addr, align 4, !dbg !2582
  invoke void (%class.cRuntimeError*, i8*, ...) @_ZN13cRuntimeErrorC1EPKcz(%class.cRuntimeError* %26, i8* getelementptr inbounds ([45 x i8], [45 x i8]* @.str.10, i64 0, i64 0), i32 %27)
          to label %invoke.cont18 unwind label %lpad17, !dbg !2583

invoke.cont18:                                    ; preds = %sw.default
  call void @__cxa_throw(i8* %exception, i8* bitcast ({ i8*, i8*, i8* }* @_ZTI13cRuntimeError to i8*), i8* bitcast (void (%class.cRuntimeError*)* @_ZN13cRuntimeErrorD2Ev to i8*)) #12, !dbg !2581
  unreachable, !dbg !2581

lpad17:                                           ; preds = %sw.default
  %28 = landingpad { i8*, i32 }
          cleanup, !dbg !2568
  %29 = extractvalue { i8*, i32 } %28, 0, !dbg !2568
  store i8* %29, i8** %exn.slot, align 8, !dbg !2568
  %30 = extractvalue { i8*, i32 } %28, 1, !dbg !2568
  store i32 %30, i32* %ehselector.slot, align 4, !dbg !2568
  call void @__cxa_free_exception(i8* %exception) #3, !dbg !2581
  br label %eh.resume, !dbg !2581

return:                                           ; preds = %invoke.cont16, %invoke.cont12, %invoke.cont8, %invoke.cont4, %invoke.cont
  %31 = load %class.cParImpl*, %class.cParImpl** %retval, align 8, !dbg !2584
  ret %class.cParImpl* %31, !dbg !2584

eh.resume:                                        ; preds = %lpad17, %lpad15, %lpad11, %lpad7, %lpad3, %lpad
  %exn = load i8*, i8** %exn.slot, align 8, !dbg !2564
  %sel = load i32, i32* %ehselector.slot, align 4, !dbg !2564
  %lpad.val = insertvalue { i8*, i32 } undef, i8* %exn, 0, !dbg !2564
  %lpad.val19 = insertvalue { i8*, i32 } %lpad.val, i32 %sel, 1, !dbg !2564
  resume { i8*, i32 } %lpad.val19, !dbg !2564
}

; Function Attrs: nobuiltin
declare dso_local noalias i8* @_Znwm(i64) #9

declare dso_local void @_ZN12cBoolParImplC1Ev(%class.cBoolParImpl*) unnamed_addr #1

; Function Attrs: nobuiltin nounwind
declare dso_local void @_ZdlPv(i8*) #10

declare dso_local void @_ZN14cDoubleParImplC1Ev(%class.cDoubleParImpl*) unnamed_addr #1

declare dso_local void @_ZN12cLongParImplC1Ev(%class.cLongParImpl*) unnamed_addr #1

declare dso_local void @_ZN14cStringParImplC1Ev(%class.cStringParImpl*) unnamed_addr #1

declare dso_local void @_ZN11cXMLParImplC1Ev(%class.cXMLParImpl*) unnamed_addr #1

declare dso_local void @_ZN13cRuntimeErrorC1EPKcz(%class.cRuntimeError*, i8*, ...) unnamed_addr #1

declare dso_local %class.cClassDescriptor* @_ZN7cObject13getDescriptorEv(%class.cObject*) unnamed_addr #1

declare dso_local void @_ZN7cObject18ownedObjectDeletedEP12cOwnedObject(%class.cObject*, %class.cOwnedObject*) unnamed_addr #1

declare dso_local void @_ZN7cObject14yieldOwnershipEP12cOwnedObjectPS_(%class.cObject*, %class.cOwnedObject*, %class.cObject*) unnamed_addr #1

declare dso_local i8* @_ZNK7cObject12getClassNameEv(%class.cObject*) unnamed_addr #1

; Function Attrs: noinline nounwind uwtable
define linkonce_odr dso_local i8* @_ZNK12cNamedObject7getNameEv(%class.cNamedObject* %this) unnamed_addr #5 comdat align 2 !dbg !2585 {
entry:
  %this.addr = alloca %class.cNamedObject*, align 8
  store %class.cNamedObject* %this, %class.cNamedObject** %this.addr, align 8
  call void @llvm.dbg.declare(metadata %class.cNamedObject** %this.addr, metadata !2591, metadata !DIExpression()), !dbg !2593
  %this1 = load %class.cNamedObject*, %class.cNamedObject** %this.addr, align 8
  %namep = getelementptr inbounds %class.cNamedObject, %class.cNamedObject* %this1, i32 0, i32 1, !dbg !2594
  %0 = load i8*, i8** %namep, align 8, !dbg !2594
  %tobool = icmp ne i8* %0, null, !dbg !2594
  br i1 %tobool, label %cond.true, label %cond.false, !dbg !2594

cond.true:                                        ; preds = %entry
  %namep2 = getelementptr inbounds %class.cNamedObject, %class.cNamedObject* %this1, i32 0, i32 1, !dbg !2595
  %1 = load i8*, i8** %namep2, align 8, !dbg !2595
  br label %cond.end, !dbg !2594

cond.false:                                       ; preds = %entry
  br label %cond.end, !dbg !2594

cond.end:                                         ; preds = %cond.false, %cond.true
  %cond = phi i8* [ %1, %cond.true ], [ getelementptr inbounds ([1 x i8], [1 x i8]* @.str.12, i64 0, i64 0), %cond.false ], !dbg !2594
  ret i8* %cond, !dbg !2596
}

; Function Attrs: noinline uwtable
define linkonce_odr dso_local i8* @_ZNK7cObject11getFullNameEv(%class.cObject* %this) unnamed_addr #0 comdat align 2 !dbg !2597 {
entry:
  %this.addr = alloca %class.cObject*, align 8
  store %class.cObject* %this, %class.cObject** %this.addr, align 8
  call void @llvm.dbg.declare(metadata %class.cObject** %this.addr, metadata !2603, metadata !DIExpression()), !dbg !2605
  %this1 = load %class.cObject*, %class.cObject** %this.addr, align 8
  %0 = bitcast %class.cObject* %this1 to i8* (%class.cObject*)***, !dbg !2606
  %vtable = load i8* (%class.cObject*)**, i8* (%class.cObject*)*** %0, align 8, !dbg !2606
  %vfn = getelementptr inbounds i8* (%class.cObject*)*, i8* (%class.cObject*)** %vtable, i64 6, !dbg !2606
  %1 = load i8* (%class.cObject*)*, i8* (%class.cObject*)** %vfn, align 8, !dbg !2606
  %call = call i8* %1(%class.cObject* %this1), !dbg !2606
  ret i8* %call, !dbg !2607
}

declare dso_local void @_ZNK7cObject11getFullPathB5cxx11Ev(%"class.std::__cxx11::basic_string"* sret, %class.cObject*) unnamed_addr #1

declare dso_local void @_ZN7cObject4takeEP12cOwnedObject(%class.cObject*, %class.cOwnedObject*) unnamed_addr #1

declare dso_local void @_ZN7cObject4dropEP12cOwnedObject(%class.cObject*, %class.cOwnedObject*) unnamed_addr #1

; Function Attrs: noinline nounwind uwtable
define linkonce_odr dso_local %class.cObject* @_ZNK7cObject8getOwnerEv(%class.cObject* %this) unnamed_addr #5 comdat align 2 !dbg !2608 {
entry:
  %this.addr = alloca %class.cObject*, align 8
  store %class.cObject* %this, %class.cObject** %this.addr, align 8
  call void @llvm.dbg.declare(metadata %class.cObject** %this.addr, metadata !2613, metadata !DIExpression()), !dbg !2614
  %this1 = load %class.cObject*, %class.cObject** %this.addr, align 8
  ret %class.cObject* null, !dbg !2615
}

; Function Attrs: noinline nounwind uwtable
define linkonce_odr dso_local zeroext i1 @_ZNK7cObject13isOwnedObjectEv(%class.cObject* %this) unnamed_addr #5 comdat align 2 !dbg !2616 {
entry:
  %this.addr = alloca %class.cObject*, align 8
  store %class.cObject* %this, %class.cObject** %this.addr, align 8
  call void @llvm.dbg.declare(metadata %class.cObject** %this.addr, metadata !2620, metadata !DIExpression()), !dbg !2621
  %this1 = load %class.cObject*, %class.cObject** %this.addr, align 8
  ret i1 false, !dbg !2622
}

declare dso_local void @_ZN7cObject12forEachChildEP8cVisitor(%class.cObject*, %class.cVisitor*) unnamed_addr #1

declare dso_local void @_ZN12cNamedObject7setNameEPKc(%class.cNamedObject*, i8*) unnamed_addr #1

declare dso_local void @_ZN12cNamedObject14setNamePoolingEb(%class.cNamedObject*, i1 zeroext) unnamed_addr #1

; Function Attrs: noinline nounwind uwtable
define linkonce_odr dso_local zeroext i1 @_ZN12cNamedObject14getNamePoolingEv(%class.cNamedObject* %this) unnamed_addr #5 comdat align 2 !dbg !2623 {
entry:
  %this.addr = alloca %class.cNamedObject*, align 8
  store %class.cNamedObject* %this, %class.cNamedObject** %this.addr, align 8
  call void @llvm.dbg.declare(metadata %class.cNamedObject** %this.addr, metadata !2628, metadata !DIExpression()), !dbg !2630
  %this1 = load %class.cNamedObject*, %class.cNamedObject** %this.addr, align 8
  %flags = getelementptr inbounds %class.cNamedObject, %class.cNamedObject* %this1, i32 0, i32 2, !dbg !2631
  %0 = load i16, i16* %flags, align 8, !dbg !2631
  %conv = zext i16 %0 to i32, !dbg !2631
  %and = and i32 %conv, 1, !dbg !2632
  %tobool = icmp ne i32 %and, 0, !dbg !2631
  ret i1 %tobool, !dbg !2633
}

declare dso_local void @__cxa_pure_virtual() unnamed_addr

; Function Attrs: noinline nounwind uwtable
define linkonce_odr dso_local zeroext i1 @_ZNK8cParImpl10isVolatileEv(%class.cParImpl* %this) unnamed_addr #5 comdat align 2 !dbg !2634 {
entry:
  %this.addr = alloca %class.cParImpl*, align 8
  store %class.cParImpl* %this, %class.cParImpl** %this.addr, align 8
  call void @llvm.dbg.declare(metadata %class.cParImpl** %this.addr, metadata !2635, metadata !DIExpression()), !dbg !2636
  %this1 = load %class.cParImpl*, %class.cParImpl** %this.addr, align 8
  %0 = bitcast %class.cParImpl* %this1 to %class.cNamedObject*, !dbg !2637
  %flags = getelementptr inbounds %class.cNamedObject, %class.cNamedObject* %0, i32 0, i32 2, !dbg !2637
  %1 = load i16, i16* %flags, align 8, !dbg !2637
  %conv = zext i16 %1 to i32, !dbg !2637
  %and = and i32 %conv, 4, !dbg !2638
  %tobool = icmp ne i32 %and, 0, !dbg !2637
  ret i1 %tobool, !dbg !2639
}

; Function Attrs: noinline nounwind uwtable
define linkonce_odr dso_local zeroext i1 @_ZNK8cParImpl12isExpressionEv(%class.cParImpl* %this) unnamed_addr #5 comdat align 2 !dbg !2640 {
entry:
  %this.addr = alloca %class.cParImpl*, align 8
  store %class.cParImpl* %this, %class.cParImpl** %this.addr, align 8
  call void @llvm.dbg.declare(metadata %class.cParImpl** %this.addr, metadata !2641, metadata !DIExpression()), !dbg !2642
  %this1 = load %class.cParImpl*, %class.cParImpl** %this.addr, align 8
  %0 = bitcast %class.cParImpl* %this1 to %class.cNamedObject*, !dbg !2643
  %flags = getelementptr inbounds %class.cNamedObject, %class.cNamedObject* %0, i32 0, i32 2, !dbg !2643
  %1 = load i16, i16* %flags, align 8, !dbg !2643
  %conv = zext i16 %1 to i32, !dbg !2643
  %and = and i32 %conv, 8, !dbg !2644
  %tobool = icmp ne i32 %and, 0, !dbg !2643
  ret i1 %tobool, !dbg !2645
}

; Function Attrs: noinline nounwind uwtable
define linkonce_odr dso_local zeroext i1 @_ZNK8cParImpl8isSharedEv(%class.cParImpl* %this) unnamed_addr #5 comdat align 2 !dbg !2646 {
entry:
  %this.addr = alloca %class.cParImpl*, align 8
  store %class.cParImpl* %this, %class.cParImpl** %this.addr, align 8
  call void @llvm.dbg.declare(metadata %class.cParImpl** %this.addr, metadata !2647, metadata !DIExpression()), !dbg !2648
  %this1 = load %class.cParImpl*, %class.cParImpl** %this.addr, align 8
  %0 = bitcast %class.cParImpl* %this1 to %class.cNamedObject*, !dbg !2649
  %flags = getelementptr inbounds %class.cNamedObject, %class.cNamedObject* %0, i32 0, i32 2, !dbg !2649
  %1 = load i16, i16* %flags, align 8, !dbg !2649
  %conv = zext i16 %1 to i32, !dbg !2649
  %and = and i32 %conv, 16, !dbg !2650
  %tobool = icmp ne i32 %and, 0, !dbg !2649
  ret i1 %tobool, !dbg !2651
}

; Function Attrs: noinline nounwind uwtable
define linkonce_odr dso_local zeroext i1 @_ZNK8cParImpl13containsValueEv(%class.cParImpl* %this) unnamed_addr #5 comdat align 2 !dbg !2652 {
entry:
  %this.addr = alloca %class.cParImpl*, align 8
  store %class.cParImpl* %this, %class.cParImpl** %this.addr, align 8
  call void @llvm.dbg.declare(metadata %class.cParImpl** %this.addr, metadata !2653, metadata !DIExpression()), !dbg !2654
  %this1 = load %class.cParImpl*, %class.cParImpl** %this.addr, align 8
  %0 = bitcast %class.cParImpl* %this1 to %class.cNamedObject*, !dbg !2655
  %flags = getelementptr inbounds %class.cNamedObject, %class.cNamedObject* %0, i32 0, i32 2, !dbg !2655
  %1 = load i16, i16* %flags, align 8, !dbg !2655
  %conv = zext i16 %1 to i32, !dbg !2655
  %and = and i32 %conv, 32, !dbg !2656
  %tobool = icmp ne i32 %and, 0, !dbg !2655
  ret i1 %tobool, !dbg !2657
}

; Function Attrs: noinline nounwind uwtable
define linkonce_odr dso_local zeroext i1 @_ZNK8cParImpl5isSetEv(%class.cParImpl* %this) unnamed_addr #5 comdat align 2 !dbg !2658 {
entry:
  %this.addr = alloca %class.cParImpl*, align 8
  store %class.cParImpl* %this, %class.cParImpl** %this.addr, align 8
  call void @llvm.dbg.declare(metadata %class.cParImpl** %this.addr, metadata !2659, metadata !DIExpression()), !dbg !2660
  %this1 = load %class.cParImpl*, %class.cParImpl** %this.addr, align 8
  %0 = bitcast %class.cParImpl* %this1 to %class.cNamedObject*, !dbg !2661
  %flags = getelementptr inbounds %class.cNamedObject, %class.cNamedObject* %0, i32 0, i32 2, !dbg !2661
  %1 = load i16, i16* %flags, align 8, !dbg !2661
  %conv = zext i16 %1 to i32, !dbg !2661
  %and = and i32 %conv, 64, !dbg !2662
  %tobool = icmp ne i32 %and, 0, !dbg !2661
  ret i1 %tobool, !dbg !2663
}

; Function Attrs: noinline uwtable
define linkonce_odr dso_local void @_ZN8cParImpl13setIsVolatileEb(%class.cParImpl* %this, i1 zeroext %f) unnamed_addr #0 comdat align 2 !dbg !2664 {
entry:
  %this.addr = alloca %class.cParImpl*, align 8
  %f.addr = alloca i8, align 1
  store %class.cParImpl* %this, %class.cParImpl** %this.addr, align 8
  call void @llvm.dbg.declare(metadata %class.cParImpl** %this.addr, metadata !2665, metadata !DIExpression()), !dbg !2666
  %frombool = zext i1 %f to i8
  store i8 %frombool, i8* %f.addr, align 1
  call void @llvm.dbg.declare(metadata i8* %f.addr, metadata !2667, metadata !DIExpression()), !dbg !2668
  %this1 = load %class.cParImpl*, %class.cParImpl** %this.addr, align 8
  %0 = bitcast %class.cParImpl* %this1 to %class.cNamedObject*, !dbg !2669
  %1 = load i8, i8* %f.addr, align 1, !dbg !2670
  %tobool = trunc i8 %1 to i1, !dbg !2670
  call void @_ZN12cNamedObject7setFlagEib(%class.cNamedObject* %0, i32 4, i1 zeroext %tobool), !dbg !2669
  ret void, !dbg !2671
}

; Function Attrs: noinline nounwind uwtable
define linkonce_odr dso_local void @_ZN8cParImpl11setIsSharedEb(%class.cParImpl* %this, i1 zeroext %f) unnamed_addr #5 comdat align 2 !dbg !2672 {
entry:
  %this.addr = alloca %class.cParImpl*, align 8
  %f.addr = alloca i8, align 1
  store %class.cParImpl* %this, %class.cParImpl** %this.addr, align 8
  call void @llvm.dbg.declare(metadata %class.cParImpl** %this.addr, metadata !2673, metadata !DIExpression()), !dbg !2674
  %frombool = zext i1 %f to i8
  store i8 %frombool, i8* %f.addr, align 1
  call void @llvm.dbg.declare(metadata i8* %f.addr, metadata !2675, metadata !DIExpression()), !dbg !2676
  %this1 = load %class.cParImpl*, %class.cParImpl** %this.addr, align 8
  %0 = bitcast %class.cParImpl* %this1 to %class.cNamedObject*, !dbg !2677
  %1 = load i8, i8* %f.addr, align 1, !dbg !2678
  %tobool = trunc i8 %1 to i1, !dbg !2678
  call void @_ZN12cNamedObject7setFlagEib(%class.cNamedObject* %0, i32 16, i1 zeroext %tobool), !dbg !2677
  ret void, !dbg !2679
}

; Function Attrs: noinline nounwind uwtable
define linkonce_odr dso_local void @_ZN8cParImpl8setIsSetEb(%class.cParImpl* %this, i1 zeroext %f) unnamed_addr #5 comdat align 2 !dbg !2680 {
entry:
  %this.addr = alloca %class.cParImpl*, align 8
  %f.addr = alloca i8, align 1
  store %class.cParImpl* %this, %class.cParImpl** %this.addr, align 8
  call void @llvm.dbg.declare(metadata %class.cParImpl** %this.addr, metadata !2681, metadata !DIExpression()), !dbg !2682
  %frombool = zext i1 %f to i8
  store i8 %frombool, i8* %f.addr, align 1
  call void @llvm.dbg.declare(metadata i8* %f.addr, metadata !2683, metadata !DIExpression()), !dbg !2684
  %this1 = load %class.cParImpl*, %class.cParImpl** %this.addr, align 8
  %0 = bitcast %class.cParImpl* %this1 to %class.cNamedObject*, !dbg !2685
  %1 = load i8, i8* %f.addr, align 1, !dbg !2686
  %tobool = trunc i8 %1 to i1, !dbg !2686
  call void @_ZN12cNamedObject7setFlagEib(%class.cNamedObject* %0, i32 64, i1 zeroext %tobool), !dbg !2685
  ret void, !dbg !2687
}

; Function Attrs: noinline uwtable
define linkonce_odr dso_local void @_ZN8cParImpl14setStringValueERKNSt7__cxx1112basic_stringIcSt11char_traitsIcESaIcEEE(%class.cParImpl* %this, %"class.std::__cxx11::basic_string"* dereferenceable(32) %s) unnamed_addr #0 comdat align 2 !dbg !2688 {
entry:
  %this.addr = alloca %class.cParImpl*, align 8
  %s.addr = alloca %"class.std::__cxx11::basic_string"*, align 8
  store %class.cParImpl* %this, %class.cParImpl** %this.addr, align 8
  call void @llvm.dbg.declare(metadata %class.cParImpl** %this.addr, metadata !2689, metadata !DIExpression()), !dbg !2690
  store %"class.std::__cxx11::basic_string"* %s, %"class.std::__cxx11::basic_string"** %s.addr, align 8
  call void @llvm.dbg.declare(metadata %"class.std::__cxx11::basic_string"** %s.addr, metadata !2691, metadata !DIExpression()), !dbg !2692
  %this1 = load %class.cParImpl*, %class.cParImpl** %this.addr, align 8
  %0 = load %"class.std::__cxx11::basic_string"*, %"class.std::__cxx11::basic_string"** %s.addr, align 8, !dbg !2693
  %call = call i8* @_ZNKSt7__cxx1112basic_stringIcSt11char_traitsIcESaIcEE5c_strEv(%"class.std::__cxx11::basic_string"* %0) #3, !dbg !2694
  %1 = bitcast %class.cParImpl* %this1 to void (%class.cParImpl*, i8*)***, !dbg !2695
  %vtable = load void (%class.cParImpl*, i8*)**, void (%class.cParImpl*, i8*)*** %1, align 8, !dbg !2695
  %vfn = getelementptr inbounds void (%class.cParImpl*, i8*)*, void (%class.cParImpl*, i8*)** %vtable, i64 37, !dbg !2695
  %2 = load void (%class.cParImpl*, i8*)*, void (%class.cParImpl*, i8*)** %vfn, align 8, !dbg !2695
  call void %2(%class.cParImpl* %this1, i8* %call), !dbg !2695
  ret void, !dbg !2696
}

; Function Attrs: nounwind
declare dso_local void @_ZNSt9exceptionD2Ev(%"class.std::exception"*) unnamed_addr #2

; Function Attrs: noinline nounwind uwtable
define linkonce_odr dso_local void @_ZN10cExceptionD2Ev(%class.cException* %this) unnamed_addr #5 comdat align 2 !dbg !2697 {
entry:
  %this.addr = alloca %class.cException*, align 8
  store %class.cException* %this, %class.cException** %this.addr, align 8
  call void @llvm.dbg.declare(metadata %class.cException** %this.addr, metadata !2757, metadata !DIExpression()), !dbg !2758
  %this1 = load %class.cException*, %class.cException** %this.addr, align 8
  %0 = bitcast %class.cException* %this1 to i32 (...)***, !dbg !2759
  store i32 (...)** bitcast (i8** getelementptr inbounds ({ [13 x i8*] }, { [13 x i8*] }* @_ZTV10cException, i32 0, inrange i32 0, i32 2) to i32 (...)**), i32 (...)*** %0, align 8, !dbg !2759
  %contextfullpath = getelementptr inbounds %class.cException, %class.cException* %this1, i32 0, i32 7, !dbg !2760
  call void @_ZNSt7__cxx1112basic_stringIcSt11char_traitsIcESaIcEED1Ev(%"class.std::__cxx11::basic_string"* %contextfullpath) #3, !dbg !2760
  %contextclassname = getelementptr inbounds %class.cException, %class.cException* %this1, i32 0, i32 6, !dbg !2760
  call void @_ZNSt7__cxx1112basic_stringIcSt11char_traitsIcESaIcEED1Ev(%"class.std::__cxx11::basic_string"* %contextclassname) #3, !dbg !2760
  %msg = getelementptr inbounds %class.cException, %class.cException* %this1, i32 0, i32 3, !dbg !2760
  call void @_ZNSt7__cxx1112basic_stringIcSt11char_traitsIcESaIcEED1Ev(%"class.std::__cxx11::basic_string"* %msg) #3, !dbg !2760
  %1 = bitcast %class.cException* %this1 to %"class.std::exception"*, !dbg !2760
  call void @_ZNSt9exceptionD2Ev(%"class.std::exception"* %1) #3, !dbg !2760
  ret void, !dbg !2762
}

; Function Attrs: noinline nounwind uwtable
define linkonce_odr dso_local void @_ZN10cExceptionD0Ev(%class.cException* %this) unnamed_addr #5 comdat align 2 !dbg !2763 {
entry:
  %this.addr = alloca %class.cException*, align 8
  store %class.cException* %this, %class.cException** %this.addr, align 8
  call void @llvm.dbg.declare(metadata %class.cException** %this.addr, metadata !2764, metadata !DIExpression()), !dbg !2765
  %this1 = load %class.cException*, %class.cException** %this.addr, align 8
  call void @_ZN10cExceptionD2Ev(%class.cException* %this1) #3, !dbg !2766
  %0 = bitcast %class.cException* %this1 to i8*, !dbg !2766
  call void @_ZdlPv(i8* %0) #15, !dbg !2766
  ret void, !dbg !2767
}

; Function Attrs: noinline nounwind uwtable
define linkonce_odr dso_local i8* @_ZNK10cException4whatEv(%class.cException* %this) unnamed_addr #5 comdat align 2 !dbg !2768 {
entry:
  %this.addr = alloca %class.cException*, align 8
  store %class.cException* %this, %class.cException** %this.addr, align 8
  call void @llvm.dbg.declare(metadata %class.cException** %this.addr, metadata !2769, metadata !DIExpression()), !dbg !2771
  %this1 = load %class.cException*, %class.cException** %this.addr, align 8
  %msg = getelementptr inbounds %class.cException, %class.cException* %this1, i32 0, i32 3, !dbg !2772
  %call = call i8* @_ZNKSt7__cxx1112basic_stringIcSt11char_traitsIcESaIcEE5c_strEv(%"class.std::__cxx11::basic_string"* %msg) #3, !dbg !2773
  ret i8* %call, !dbg !2774
}

; Function Attrs: noinline uwtable
define linkonce_odr dso_local %class.cException* @_ZNK10cException3dupEv(%class.cException* %this) unnamed_addr #0 comdat align 2 personality i8* bitcast (i32 (...)* @__gxx_personality_v0 to i8*) !dbg !2775 {
entry:
  %this.addr = alloca %class.cException*, align 8
  %exn.slot = alloca i8*
  %ehselector.slot = alloca i32
  store %class.cException* %this, %class.cException** %this.addr, align 8
  call void @llvm.dbg.declare(metadata %class.cException** %this.addr, metadata !2776, metadata !DIExpression()), !dbg !2777
  %this1 = load %class.cException*, %class.cException** %this.addr, align 8
  %call = call i8* @_Znwm(i64 128) #14, !dbg !2778
  %0 = bitcast i8* %call to %class.cException*, !dbg !2778
  invoke void @_ZN10cExceptionC1ERKS_(%class.cException* %0, %class.cException* dereferenceable(128) %this1)
          to label %invoke.cont unwind label %lpad, !dbg !2779

invoke.cont:                                      ; preds = %entry
  ret %class.cException* %0, !dbg !2780

lpad:                                             ; preds = %entry
  %1 = landingpad { i8*, i32 }
          cleanup, !dbg !2781
  %2 = extractvalue { i8*, i32 } %1, 0, !dbg !2781
  store i8* %2, i8** %exn.slot, align 8, !dbg !2781
  %3 = extractvalue { i8*, i32 } %1, 1, !dbg !2781
  store i32 %3, i32* %ehselector.slot, align 4, !dbg !2781
  call void @_ZdlPv(i8* %call) #15, !dbg !2778
  br label %eh.resume, !dbg !2778

eh.resume:                                        ; preds = %lpad
  %exn = load i8*, i8** %exn.slot, align 8, !dbg !2778
  %sel = load i32, i32* %ehselector.slot, align 4, !dbg !2778
  %lpad.val = insertvalue { i8*, i32 } undef, i8* %exn, 0, !dbg !2778
  %lpad.val2 = insertvalue { i8*, i32 } %lpad.val, i32 %sel, 1, !dbg !2778
  resume { i8*, i32 } %lpad.val2, !dbg !2778
}

; Function Attrs: noinline nounwind uwtable
define linkonce_odr dso_local i32 @_ZNK10cException12getErrorCodeEv(%class.cException* %this) unnamed_addr #5 comdat align 2 !dbg !2782 {
entry:
  %this.addr = alloca %class.cException*, align 8
  store %class.cException* %this, %class.cException** %this.addr, align 8
  call void @llvm.dbg.declare(metadata %class.cException** %this.addr, metadata !2783, metadata !DIExpression()), !dbg !2784
  %this1 = load %class.cException*, %class.cException** %this.addr, align 8
  %errorcode = getelementptr inbounds %class.cException, %class.cException* %this1, i32 0, i32 1, !dbg !2785
  %0 = load i32, i32* %errorcode, align 8, !dbg !2785
  ret i32 %0, !dbg !2786
}

; Function Attrs: noinline uwtable
define linkonce_odr dso_local void @_ZN10cException10setMessageEPKc(%class.cException* %this, i8* %txt) unnamed_addr #0 comdat align 2 !dbg !2787 {
entry:
  %this.addr = alloca %class.cException*, align 8
  %txt.addr = alloca i8*, align 8
  store %class.cException* %this, %class.cException** %this.addr, align 8
  call void @llvm.dbg.declare(metadata %class.cException** %this.addr, metadata !2788, metadata !DIExpression()), !dbg !2789
  store i8* %txt, i8** %txt.addr, align 8
  call void @llvm.dbg.declare(metadata i8** %txt.addr, metadata !2790, metadata !DIExpression()), !dbg !2791
  %this1 = load %class.cException*, %class.cException** %this.addr, align 8
  %0 = load i8*, i8** %txt.addr, align 8, !dbg !2792
  %msg = getelementptr inbounds %class.cException, %class.cException* %this1, i32 0, i32 3, !dbg !2793
  %call = call dereferenceable(32) %"class.std::__cxx11::basic_string"* @_ZNSt7__cxx1112basic_stringIcSt11char_traitsIcESaIcEEaSEPKc(%"class.std::__cxx11::basic_string"* %msg, i8* %0), !dbg !2794
  ret void, !dbg !2795
}

; Function Attrs: noinline uwtable
define linkonce_odr dso_local void @_ZN10cException14prependMessageEPKc(%class.cException* %this, i8* %txt) unnamed_addr #0 comdat align 2 personality i8* bitcast (i32 (...)* @__gxx_personality_v0 to i8*) !dbg !2796 {
entry:
  %this.addr = alloca %class.cException*, align 8
  %txt.addr = alloca i8*, align 8
  %ref.tmp = alloca %"class.std::__cxx11::basic_string", align 8
  %ref.tmp2 = alloca %"class.std::__cxx11::basic_string", align 8
  %ref.tmp3 = alloca %"class.std::__cxx11::basic_string", align 8
  %ref.tmp4 = alloca %"class.std::allocator", align 1
  %exn.slot = alloca i8*
  %ehselector.slot = alloca i32
  store %class.cException* %this, %class.cException** %this.addr, align 8
  call void @llvm.dbg.declare(metadata %class.cException** %this.addr, metadata !2797, metadata !DIExpression()), !dbg !2798
  store i8* %txt, i8** %txt.addr, align 8
  call void @llvm.dbg.declare(metadata i8** %txt.addr, metadata !2799, metadata !DIExpression()), !dbg !2800
  %this1 = load %class.cException*, %class.cException** %this.addr, align 8
  %0 = load i8*, i8** %txt.addr, align 8, !dbg !2801
  call void @_ZNSaIcEC1Ev(%"class.std::allocator"* %ref.tmp4) #3, !dbg !2802
  invoke void @_ZNSt7__cxx1112basic_stringIcSt11char_traitsIcESaIcEEC1EPKcRKS3_(%"class.std::__cxx11::basic_string"* %ref.tmp3, i8* %0, %"class.std::allocator"* dereferenceable(1) %ref.tmp4)
          to label %invoke.cont unwind label %lpad, !dbg !2802

invoke.cont:                                      ; preds = %entry
  invoke void @_ZStplIcSt11char_traitsIcESaIcEENSt7__cxx1112basic_stringIT_T0_T1_EEOS8_PKS5_(%"class.std::__cxx11::basic_string"* sret %ref.tmp2, %"class.std::__cxx11::basic_string"* dereferenceable(32) %ref.tmp3, i8* getelementptr inbounds ([3 x i8], [3 x i8]* @.str.11, i64 0, i64 0))
          to label %invoke.cont6 unwind label %lpad5, !dbg !2803

invoke.cont6:                                     ; preds = %invoke.cont
  %msg = getelementptr inbounds %class.cException, %class.cException* %this1, i32 0, i32 3, !dbg !2804
  invoke void @_ZStplIcSt11char_traitsIcESaIcEENSt7__cxx1112basic_stringIT_T0_T1_EEOS8_RKS8_(%"class.std::__cxx11::basic_string"* sret %ref.tmp, %"class.std::__cxx11::basic_string"* dereferenceable(32) %ref.tmp2, %"class.std::__cxx11::basic_string"* dereferenceable(32) %msg)
          to label %invoke.cont8 unwind label %lpad7, !dbg !2805

invoke.cont8:                                     ; preds = %invoke.cont6
  %msg9 = getelementptr inbounds %class.cException, %class.cException* %this1, i32 0, i32 3, !dbg !2806
  %call = call dereferenceable(32) %"class.std::__cxx11::basic_string"* @_ZNSt7__cxx1112basic_stringIcSt11char_traitsIcESaIcEEaSEOS4_(%"class.std::__cxx11::basic_string"* %msg9, %"class.std::__cxx11::basic_string"* dereferenceable(32) %ref.tmp) #3, !dbg !2807
  call void @_ZNSt7__cxx1112basic_stringIcSt11char_traitsIcESaIcEED1Ev(%"class.std::__cxx11::basic_string"* %ref.tmp) #3, !dbg !2806
  call void @_ZNSt7__cxx1112basic_stringIcSt11char_traitsIcESaIcEED1Ev(%"class.std::__cxx11::basic_string"* %ref.tmp2) #3, !dbg !2806
  call void @_ZNSt7__cxx1112basic_stringIcSt11char_traitsIcESaIcEED1Ev(%"class.std::__cxx11::basic_string"* %ref.tmp3) #3, !dbg !2806
  call void @_ZNSaIcED1Ev(%"class.std::allocator"* %ref.tmp4) #3, !dbg !2806
  ret void, !dbg !2808

lpad:                                             ; preds = %entry
  %1 = landingpad { i8*, i32 }
          cleanup, !dbg !2808
  %2 = extractvalue { i8*, i32 } %1, 0, !dbg !2808
  store i8* %2, i8** %exn.slot, align 8, !dbg !2808
  %3 = extractvalue { i8*, i32 } %1, 1, !dbg !2808
  store i32 %3, i32* %ehselector.slot, align 4, !dbg !2808
  br label %ehcleanup10, !dbg !2808

lpad5:                                            ; preds = %invoke.cont
  %4 = landingpad { i8*, i32 }
          cleanup, !dbg !2808
  %5 = extractvalue { i8*, i32 } %4, 0, !dbg !2808
  store i8* %5, i8** %exn.slot, align 8, !dbg !2808
  %6 = extractvalue { i8*, i32 } %4, 1, !dbg !2808
  store i32 %6, i32* %ehselector.slot, align 4, !dbg !2808
  br label %ehcleanup, !dbg !2808

lpad7:                                            ; preds = %invoke.cont6
  %7 = landingpad { i8*, i32 }
          cleanup, !dbg !2808
  %8 = extractvalue { i8*, i32 } %7, 0, !dbg !2808
  store i8* %8, i8** %exn.slot, align 8, !dbg !2808
  %9 = extractvalue { i8*, i32 } %7, 1, !dbg !2808
  store i32 %9, i32* %ehselector.slot, align 4, !dbg !2808
  call void @_ZNSt7__cxx1112basic_stringIcSt11char_traitsIcESaIcEED1Ev(%"class.std::__cxx11::basic_string"* %ref.tmp2) #3, !dbg !2806
  br label %ehcleanup, !dbg !2806

ehcleanup:                                        ; preds = %lpad7, %lpad5
  call void @_ZNSt7__cxx1112basic_stringIcSt11char_traitsIcESaIcEED1Ev(%"class.std::__cxx11::basic_string"* %ref.tmp3) #3, !dbg !2806
  br label %ehcleanup10, !dbg !2806

ehcleanup10:                                      ; preds = %ehcleanup, %lpad
  call void @_ZNSaIcED1Ev(%"class.std::allocator"* %ref.tmp4) #3, !dbg !2806
  br label %eh.resume, !dbg !2806

eh.resume:                                        ; preds = %ehcleanup10
  %exn = load i8*, i8** %exn.slot, align 8, !dbg !2806
  %sel = load i32, i32* %ehselector.slot, align 4, !dbg !2806
  %lpad.val = insertvalue { i8*, i32 } undef, i8* %exn, 0, !dbg !2806
  %lpad.val11 = insertvalue { i8*, i32 } %lpad.val, i32 %sel, 1, !dbg !2806
  resume { i8*, i32 } %lpad.val11, !dbg !2806
}

; Function Attrs: noinline nounwind uwtable
define linkonce_odr dso_local zeroext i1 @_ZNK10cException10hasContextEv(%class.cException* %this) unnamed_addr #5 comdat align 2 !dbg !2809 {
entry:
  %this.addr = alloca %class.cException*, align 8
  store %class.cException* %this, %class.cException** %this.addr, align 8
  call void @llvm.dbg.declare(metadata %class.cException** %this.addr, metadata !2810, metadata !DIExpression()), !dbg !2811
  %this1 = load %class.cException*, %class.cException** %this.addr, align 8
  %hascontext = getelementptr inbounds %class.cException, %class.cException* %this1, i32 0, i32 4, !dbg !2812
  %0 = load i8, i8* %hascontext, align 8, !dbg !2812
  %tobool = trunc i8 %0 to i1, !dbg !2812
  ret i1 %tobool, !dbg !2813
}

; Function Attrs: noinline nounwind uwtable
define linkonce_odr dso_local i8* @_ZNK10cException19getContextClassNameEv(%class.cException* %this) unnamed_addr #5 comdat align 2 !dbg !2814 {
entry:
  %this.addr = alloca %class.cException*, align 8
  store %class.cException* %this, %class.cException** %this.addr, align 8
  call void @llvm.dbg.declare(metadata %class.cException** %this.addr, metadata !2815, metadata !DIExpression()), !dbg !2816
  %this1 = load %class.cException*, %class.cException** %this.addr, align 8
  %contextclassname = getelementptr inbounds %class.cException, %class.cException* %this1, i32 0, i32 6, !dbg !2817
  %call = call i8* @_ZNKSt7__cxx1112basic_stringIcSt11char_traitsIcESaIcEE5c_strEv(%"class.std::__cxx11::basic_string"* %contextclassname) #3, !dbg !2818
  ret i8* %call, !dbg !2819
}

; Function Attrs: noinline nounwind uwtable
define linkonce_odr dso_local i8* @_ZNK10cException18getContextFullPathEv(%class.cException* %this) unnamed_addr #5 comdat align 2 !dbg !2820 {
entry:
  %this.addr = alloca %class.cException*, align 8
  store %class.cException* %this, %class.cException** %this.addr, align 8
  call void @llvm.dbg.declare(metadata %class.cException** %this.addr, metadata !2821, metadata !DIExpression()), !dbg !2822
  %this1 = load %class.cException*, %class.cException** %this.addr, align 8
  %contextfullpath = getelementptr inbounds %class.cException, %class.cException* %this1, i32 0, i32 7, !dbg !2823
  %call = call i8* @_ZNKSt7__cxx1112basic_stringIcSt11char_traitsIcESaIcEE5c_strEv(%"class.std::__cxx11::basic_string"* %contextfullpath) #3, !dbg !2824
  ret i8* %call, !dbg !2825
}

; Function Attrs: noinline nounwind uwtable
define linkonce_odr dso_local i32 @_ZNK10cException11getModuleIDEv(%class.cException* %this) unnamed_addr #5 comdat align 2 !dbg !2826 {
entry:
  %this.addr = alloca %class.cException*, align 8
  store %class.cException* %this, %class.cException** %this.addr, align 8
  call void @llvm.dbg.declare(metadata %class.cException** %this.addr, metadata !2827, metadata !DIExpression()), !dbg !2828
  %this1 = load %class.cException*, %class.cException** %this.addr, align 8
  %moduleid = getelementptr inbounds %class.cException, %class.cException* %this1, i32 0, i32 8, !dbg !2829
  %0 = load i32, i32* %moduleid, align 8, !dbg !2829
  ret i32 %0, !dbg !2830
}

; Function Attrs: nounwind
declare dso_local i8* @_ZNKSt7__cxx1112basic_stringIcSt11char_traitsIcESaIcEE5c_strEv(%"class.std::__cxx11::basic_string"*) #2

declare dso_local void @_ZN10cExceptionC1ERKS_(%class.cException*, %class.cException* dereferenceable(128)) unnamed_addr #1

declare dso_local dereferenceable(32) %"class.std::__cxx11::basic_string"* @_ZNSt7__cxx1112basic_stringIcSt11char_traitsIcESaIcEEaSEPKc(%"class.std::__cxx11::basic_string"*, i8*) #1

; Function Attrs: noinline uwtable
define linkonce_odr dso_local void @_ZStplIcSt11char_traitsIcESaIcEENSt7__cxx1112basic_stringIT_T0_T1_EEOS8_RKS8_(%"class.std::__cxx11::basic_string"* noalias sret %agg.result, %"class.std::__cxx11::basic_string"* dereferenceable(32) %__lhs, %"class.std::__cxx11::basic_string"* dereferenceable(32) %__rhs) #0 comdat !dbg !2831 {
entry:
  %result.ptr = alloca i8*, align 8
  %__lhs.addr = alloca %"class.std::__cxx11::basic_string"*, align 8
  %__rhs.addr = alloca %"class.std::__cxx11::basic_string"*, align 8
  %0 = bitcast %"class.std::__cxx11::basic_string"* %agg.result to i8*
  store i8* %0, i8** %result.ptr, align 8
  store %"class.std::__cxx11::basic_string"* %__lhs, %"class.std::__cxx11::basic_string"** %__lhs.addr, align 8
  call void @llvm.dbg.declare(metadata %"class.std::__cxx11::basic_string"** %__lhs.addr, metadata !2894, metadata !DIExpression()), !dbg !2895
  store %"class.std::__cxx11::basic_string"* %__rhs, %"class.std::__cxx11::basic_string"** %__rhs.addr, align 8
  call void @llvm.dbg.declare(metadata %"class.std::__cxx11::basic_string"** %__rhs.addr, metadata !2896, metadata !DIExpression()), !dbg !2897
  %1 = load %"class.std::__cxx11::basic_string"*, %"class.std::__cxx11::basic_string"** %__lhs.addr, align 8, !dbg !2898
  %2 = load %"class.std::__cxx11::basic_string"*, %"class.std::__cxx11::basic_string"** %__rhs.addr, align 8, !dbg !2899
  %call = call dereferenceable(32) %"class.std::__cxx11::basic_string"* @_ZNSt7__cxx1112basic_stringIcSt11char_traitsIcESaIcEE6appendERKS4_(%"class.std::__cxx11::basic_string"* %1, %"class.std::__cxx11::basic_string"* dereferenceable(32) %2), !dbg !2900
  %call1 = call dereferenceable(32) %"class.std::__cxx11::basic_string"* @_ZSt4moveIRNSt7__cxx1112basic_stringIcSt11char_traitsIcESaIcEEEEONSt16remove_referenceIT_E4typeEOS8_(%"class.std::__cxx11::basic_string"* dereferenceable(32) %call) #3, !dbg !2901
  call void @_ZNSt7__cxx1112basic_stringIcSt11char_traitsIcESaIcEEC1EOS4_(%"class.std::__cxx11::basic_string"* %agg.result, %"class.std::__cxx11::basic_string"* dereferenceable(32) %call1) #3, !dbg !2901
  ret void, !dbg !2902
}

; Function Attrs: noinline uwtable
define linkonce_odr dso_local void @_ZStplIcSt11char_traitsIcESaIcEENSt7__cxx1112basic_stringIT_T0_T1_EEOS8_PKS5_(%"class.std::__cxx11::basic_string"* noalias sret %agg.result, %"class.std::__cxx11::basic_string"* dereferenceable(32) %__lhs, i8* %__rhs) #0 comdat !dbg !2903 {
entry:
  %result.ptr = alloca i8*, align 8
  %__lhs.addr = alloca %"class.std::__cxx11::basic_string"*, align 8
  %__rhs.addr = alloca i8*, align 8
  %0 = bitcast %"class.std::__cxx11::basic_string"* %agg.result to i8*
  store i8* %0, i8** %result.ptr, align 8
  store %"class.std::__cxx11::basic_string"* %__lhs, %"class.std::__cxx11::basic_string"** %__lhs.addr, align 8
  call void @llvm.dbg.declare(metadata %"class.std::__cxx11::basic_string"** %__lhs.addr, metadata !2906, metadata !DIExpression()), !dbg !2907
  store i8* %__rhs, i8** %__rhs.addr, align 8
  call void @llvm.dbg.declare(metadata i8** %__rhs.addr, metadata !2908, metadata !DIExpression()), !dbg !2909
  %1 = load %"class.std::__cxx11::basic_string"*, %"class.std::__cxx11::basic_string"** %__lhs.addr, align 8, !dbg !2910
  %2 = load i8*, i8** %__rhs.addr, align 8, !dbg !2911
  %call = call dereferenceable(32) %"class.std::__cxx11::basic_string"* @_ZNSt7__cxx1112basic_stringIcSt11char_traitsIcESaIcEE6appendEPKc(%"class.std::__cxx11::basic_string"* %1, i8* %2), !dbg !2912
  %call1 = call dereferenceable(32) %"class.std::__cxx11::basic_string"* @_ZSt4moveIRNSt7__cxx1112basic_stringIcSt11char_traitsIcESaIcEEEEONSt16remove_referenceIT_E4typeEOS8_(%"class.std::__cxx11::basic_string"* dereferenceable(32) %call) #3, !dbg !2913
  call void @_ZNSt7__cxx1112basic_stringIcSt11char_traitsIcESaIcEEC1EOS4_(%"class.std::__cxx11::basic_string"* %agg.result, %"class.std::__cxx11::basic_string"* dereferenceable(32) %call1) #3, !dbg !2913
  ret void, !dbg !2914
}

; Function Attrs: nounwind
declare dso_local void @_ZNSaIcEC1Ev(%"class.std::allocator"*) unnamed_addr #2

declare dso_local void @_ZNSt7__cxx1112basic_stringIcSt11char_traitsIcESaIcEEC1EPKcRKS3_(%"class.std::__cxx11::basic_string"*, i8*, %"class.std::allocator"* dereferenceable(1)) unnamed_addr #1

; Function Attrs: nounwind
declare dso_local dereferenceable(32) %"class.std::__cxx11::basic_string"* @_ZNSt7__cxx1112basic_stringIcSt11char_traitsIcESaIcEEaSEOS4_(%"class.std::__cxx11::basic_string"*, %"class.std::__cxx11::basic_string"* dereferenceable(32)) #2

; Function Attrs: nounwind
declare dso_local void @_ZNSaIcED1Ev(%"class.std::allocator"*) unnamed_addr #2

; Function Attrs: noinline nounwind uwtable
define linkonce_odr dso_local dereferenceable(32) %"class.std::__cxx11::basic_string"* @_ZSt4moveIRNSt7__cxx1112basic_stringIcSt11char_traitsIcESaIcEEEEONSt16remove_referenceIT_E4typeEOS8_(%"class.std::__cxx11::basic_string"* dereferenceable(32) %__t) #5 comdat !dbg !2915 {
entry:
  %__t.addr = alloca %"class.std::__cxx11::basic_string"*, align 8
  store %"class.std::__cxx11::basic_string"* %__t, %"class.std::__cxx11::basic_string"** %__t.addr, align 8
  call void @llvm.dbg.declare(metadata %"class.std::__cxx11::basic_string"** %__t.addr, metadata !2925, metadata !DIExpression()), !dbg !2926
  %0 = load %"class.std::__cxx11::basic_string"*, %"class.std::__cxx11::basic_string"** %__t.addr, align 8, !dbg !2927
  ret %"class.std::__cxx11::basic_string"* %0, !dbg !2928
}

declare dso_local dereferenceable(32) %"class.std::__cxx11::basic_string"* @_ZNSt7__cxx1112basic_stringIcSt11char_traitsIcESaIcEE6appendERKS4_(%"class.std::__cxx11::basic_string"*, %"class.std::__cxx11::basic_string"* dereferenceable(32)) #1

; Function Attrs: nounwind
declare dso_local void @_ZNSt7__cxx1112basic_stringIcSt11char_traitsIcESaIcEEC1EOS4_(%"class.std::__cxx11::basic_string"*, %"class.std::__cxx11::basic_string"* dereferenceable(32)) unnamed_addr #2

declare dso_local dereferenceable(32) %"class.std::__cxx11::basic_string"* @_ZNSt7__cxx1112basic_stringIcSt11char_traitsIcESaIcEE6appendEPKc(%"class.std::__cxx11::basic_string"*, i8*) #1

; Function Attrs: noinline nounwind uwtable
define linkonce_odr dso_local void @_ZN12cNamedObject7setFlagEib(%class.cNamedObject* %this, i32 %flag, i1 zeroext %value) #5 comdat align 2 !dbg !2929 {
entry:
  %this.addr = alloca %class.cNamedObject*, align 8
  %flag.addr = alloca i32, align 4
  %value.addr = alloca i8, align 1
  store %class.cNamedObject* %this, %class.cNamedObject** %this.addr, align 8
  call void @llvm.dbg.declare(metadata %class.cNamedObject** %this.addr, metadata !2933, metadata !DIExpression()), !dbg !2934
  store i32 %flag, i32* %flag.addr, align 4
  call void @llvm.dbg.declare(metadata i32* %flag.addr, metadata !2935, metadata !DIExpression()), !dbg !2936
  %frombool = zext i1 %value to i8
  store i8 %frombool, i8* %value.addr, align 1
  call void @llvm.dbg.declare(metadata i8* %value.addr, metadata !2937, metadata !DIExpression()), !dbg !2938
  %this1 = load %class.cNamedObject*, %class.cNamedObject** %this.addr, align 8
  %0 = load i8, i8* %value.addr, align 1, !dbg !2939
  %tobool = trunc i8 %0 to i1, !dbg !2939
  br i1 %tobool, label %if.then, label %if.else, !dbg !2941

if.then:                                          ; preds = %entry
  %1 = load i32, i32* %flag.addr, align 4, !dbg !2942
  %flags = getelementptr inbounds %class.cNamedObject, %class.cNamedObject* %this1, i32 0, i32 2, !dbg !2943
  %2 = load i16, i16* %flags, align 8, !dbg !2944
  %conv = zext i16 %2 to i32, !dbg !2944
  %or = or i32 %conv, %1, !dbg !2944
  %conv2 = trunc i32 %or to i16, !dbg !2944
  store i16 %conv2, i16* %flags, align 8, !dbg !2944
  br label %if.end, !dbg !2943

if.else:                                          ; preds = %entry
  %3 = load i32, i32* %flag.addr, align 4, !dbg !2945
  %neg = xor i32 %3, -1, !dbg !2946
  %flags3 = getelementptr inbounds %class.cNamedObject, %class.cNamedObject* %this1, i32 0, i32 2, !dbg !2947
  %4 = load i16, i16* %flags3, align 8, !dbg !2948
  %conv4 = zext i16 %4 to i32, !dbg !2948
  %and = and i32 %conv4, %neg, !dbg !2948
  %conv5 = trunc i32 %and to i16, !dbg !2948
  store i16 %conv5, i16* %flags3, align 8, !dbg !2948
  br label %if.end

if.end:                                           ; preds = %if.else, %if.then
  ret void, !dbg !2949
}

; Function Attrs: noinline uwtable
define internal void @_GLOBAL__sub_I_cparimpl.cc() #0 section ".text.startup" !dbg !2950 {
entry:
  call void @__cxx_global_var_init(), !dbg !2952
  call void @__cxx_global_var_init.1(), !dbg !2952
  ret void
}

attributes #0 = { noinline uwtable "correctly-rounded-divide-sqrt-fp-math"="false" "disable-tail-calls"="false" "frame-pointer"="all" "less-precise-fpmad"="false" "min-legal-vector-width"="0" "no-infs-fp-math"="false" "no-jump-tables"="false" "no-nans-fp-math"="false" "no-signed-zeros-fp-math"="false" "no-trapping-math"="false" "stack-protector-buffer-size"="8" "target-cpu"="x86-64" "target-features"="+cx8,+fxsr,+mmx,+sse,+sse2,+x87" "unsafe-fp-math"="false" "use-soft-float"="false" }
attributes #1 = { "correctly-rounded-divide-sqrt-fp-math"="false" "disable-tail-calls"="false" "frame-pointer"="all" "less-precise-fpmad"="false" "no-infs-fp-math"="false" "no-nans-fp-math"="false" "no-signed-zeros-fp-math"="false" "no-trapping-math"="false" "stack-protector-buffer-size"="8" "target-cpu"="x86-64" "target-features"="+cx8,+fxsr,+mmx,+sse,+sse2,+x87" "unsafe-fp-math"="false" "use-soft-float"="false" }
attributes #2 = { nounwind "correctly-rounded-divide-sqrt-fp-math"="false" "disable-tail-calls"="false" "frame-pointer"="all" "less-precise-fpmad"="false" "no-infs-fp-math"="false" "no-nans-fp-math"="false" "no-signed-zeros-fp-math"="false" "no-trapping-math"="false" "stack-protector-buffer-size"="8" "target-cpu"="x86-64" "target-features"="+cx8,+fxsr,+mmx,+sse,+sse2,+x87" "unsafe-fp-math"="false" "use-soft-float"="false" }
attributes #3 = { nounwind }
attributes #4 = { nounwind readnone speculatable willreturn }
attributes #5 = { noinline nounwind uwtable "correctly-rounded-divide-sqrt-fp-math"="false" "disable-tail-calls"="false" "frame-pointer"="all" "less-precise-fpmad"="false" "min-legal-vector-width"="0" "no-infs-fp-math"="false" "no-jump-tables"="false" "no-nans-fp-math"="false" "no-signed-zeros-fp-math"="false" "no-trapping-math"="false" "stack-protector-buffer-size"="8" "target-cpu"="x86-64" "target-features"="+cx8,+fxsr,+mmx,+sse,+sse2,+x87" "unsafe-fp-math"="false" "use-soft-float"="false" }
attributes #6 = { noinline noreturn nounwind }
attributes #7 = { cold noreturn nounwind }
attributes #8 = { nounwind readonly "correctly-rounded-divide-sqrt-fp-math"="false" "disable-tail-calls"="false" "frame-pointer"="all" "less-precise-fpmad"="false" "no-infs-fp-math"="false" "no-nans-fp-math"="false" "no-signed-zeros-fp-math"="false" "no-trapping-math"="false" "stack-protector-buffer-size"="8" "target-cpu"="x86-64" "target-features"="+cx8,+fxsr,+mmx,+sse,+sse2,+x87" "unsafe-fp-math"="false" "use-soft-float"="false" }
attributes #9 = { nobuiltin "correctly-rounded-divide-sqrt-fp-math"="false" "disable-tail-calls"="false" "frame-pointer"="all" "less-precise-fpmad"="false" "no-infs-fp-math"="false" "no-nans-fp-math"="false" "no-signed-zeros-fp-math"="false" "no-trapping-math"="false" "stack-protector-buffer-size"="8" "target-cpu"="x86-64" "target-features"="+cx8,+fxsr,+mmx,+sse,+sse2,+x87" "unsafe-fp-math"="false" "use-soft-float"="false" }
attributes #10 = { nobuiltin nounwind "correctly-rounded-divide-sqrt-fp-math"="false" "disable-tail-calls"="false" "frame-pointer"="all" "less-precise-fpmad"="false" "no-infs-fp-math"="false" "no-nans-fp-math"="false" "no-signed-zeros-fp-math"="false" "no-trapping-math"="false" "stack-protector-buffer-size"="8" "target-cpu"="x86-64" "target-features"="+cx8,+fxsr,+mmx,+sse,+sse2,+x87" "unsafe-fp-math"="false" "use-soft-float"="false" }
attributes #11 = { noreturn nounwind }
attributes #12 = { noreturn }
attributes #13 = { nounwind readonly }
attributes #14 = { builtin }
attributes #15 = { builtin nounwind }

!llvm.dbg.cu = !{!30}
!llvm.module.flags = !{!2310, !2311, !2312}
!llvm.ident = !{!2313}

!0 = !DIGlobalVariableExpression(var: !1, expr: !DIExpression())
!1 = distinct !DIGlobalVariable(name: "__ioinit", linkageName: "_ZStL8__ioinit", scope: !2, file: !3, line: 74, type: !4, isLocal: true, isDefinition: true)
!2 = !DINamespace(name: "std", scope: null)
!3 = !DIFile(filename: "/usr/lib/gcc/x86_64-linux-gnu/10/../../../../include/c++/10/iostream", directory: "")
!4 = distinct !DICompositeType(tag: DW_TAG_class_type, name: "Init", scope: !6, file: !5, line: 603, size: 8, flags: DIFlagTypePassByReference | DIFlagNonTrivial, elements: !7, identifier: "_ZTSNSt8ios_base4InitE")
!5 = !DIFile(filename: "/usr/lib/gcc/x86_64-linux-gnu/10/../../../../include/c++/10/bits/ios_base.h", directory: "")
!6 = !DICompositeType(tag: DW_TAG_class_type, name: "ios_base", scope: !2, file: !5, line: 228, flags: DIFlagFwdDecl)
!7 = !{!8, !12, !14, !18, !19, !24}
!8 = !DIDerivedType(tag: DW_TAG_member, name: "_S_refcount", scope: !4, file: !5, line: 616, baseType: !9, flags: DIFlagStaticMember)
!9 = !DIDerivedType(tag: DW_TAG_typedef, name: "_Atomic_word", file: !10, line: 32, baseType: !11)
!10 = !DIFile(filename: "/usr/lib/gcc/x86_64-linux-gnu/10/../../../../include/x86_64-linux-gnu/c++/10/bits/atomic_word.h", directory: "")
!11 = !DIBasicType(name: "int", size: 32, encoding: DW_ATE_signed)
!12 = !DIDerivedType(tag: DW_TAG_member, name: "_S_synced_with_stdio", scope: !4, file: !5, line: 617, baseType: !13, flags: DIFlagStaticMember)
!13 = !DIBasicType(name: "bool", size: 8, encoding: DW_ATE_boolean)
!14 = !DISubprogram(name: "Init", scope: !4, file: !5, line: 607, type: !15, scopeLine: 607, flags: DIFlagPublic | DIFlagPrototyped, spFlags: 0)
!15 = !DISubroutineType(types: !16)
!16 = !{null, !17}
!17 = !DIDerivedType(tag: DW_TAG_pointer_type, baseType: !4, size: 64, flags: DIFlagArtificial | DIFlagObjectPointer)
!18 = !DISubprogram(name: "~Init", scope: !4, file: !5, line: 608, type: !15, scopeLine: 608, flags: DIFlagPublic | DIFlagPrototyped, spFlags: 0)
!19 = !DISubprogram(name: "Init", scope: !4, file: !5, line: 611, type: !20, scopeLine: 611, flags: DIFlagPublic | DIFlagPrototyped, spFlags: 0)
!20 = !DISubroutineType(types: !21)
!21 = !{null, !17, !22}
!22 = !DIDerivedType(tag: DW_TAG_reference_type, baseType: !23, size: 64)
!23 = !DIDerivedType(tag: DW_TAG_const_type, baseType: !4)
!24 = !DISubprogram(name: "operator=", linkageName: "_ZNSt8ios_base4InitaSERKS0_", scope: !4, file: !5, line: 612, type: !25, scopeLine: 612, flags: DIFlagPublic | DIFlagPrototyped, spFlags: 0)
!25 = !DISubroutineType(types: !26)
!26 = !{!27, !17, !22}
!27 = !DIDerivedType(tag: DW_TAG_reference_type, baseType: !4, size: 64)
!28 = !DIGlobalVariableExpression(var: !29, expr: !DIExpression())
!29 = distinct !DIGlobalVariable(name: "total_parimpl_objs", linkageName: "_ZN8cParImpl18total_parimpl_objsE", scope: !30, file: !31, line: 31, type: !96, isLocal: false, isDefinition: true, declaration: !95)
!30 = distinct !DICompileUnit(language: DW_LANG_C_plus_plus_14, file: !31, producer: "clang version 10.0.1 (https://github.com/svkeerthy/IR2Vec-LoopOptimizationFramework.git 561ac470e63b728263a0ac06ef987886ac648486)", isOptimized: false, runtimeVersion: 0, emissionKind: FullDebug, enums: !32, retainedTypes: !1057, globals: !1058, imports: !1063, splitDebugInlining: false, nameTableKind: None)
!31 = !DIFile(filename: "simulator/cparimpl.cc", directory: "/home/venkat/IF-DV/spec_build_release/CPU_2017/benchspec/CPU/520.omnetpp_r/build/build_base_ld-loop-ext-m64.0000")
!32 = !{!33, !39, !84, !949, !1054}
!33 = !DICompositeType(tag: DW_TAG_enumeration_type, name: "_Rb_tree_color", scope: !2, file: !34, line: 99, baseType: !35, size: 32, elements: !36, identifier: "_ZTSSt14_Rb_tree_color")
!34 = !DIFile(filename: "/usr/lib/gcc/x86_64-linux-gnu/10/../../../../include/c++/10/bits/stl_tree.h", directory: "")
!35 = !DIBasicType(name: "unsigned int", size: 32, encoding: DW_ATE_unsigned)
!36 = !{!37, !38}
!37 = !DIEnumerator(name: "_S_red", value: 0, isUnsigned: true)
!38 = !DIEnumerator(name: "_S_black", value: 1, isUnsigned: true)
!39 = !DICompositeType(tag: DW_TAG_enumeration_type, name: "OppErrorCode", file: !40, line: 28, baseType: !35, size: 32, elements: !41, identifier: "_ZTS12OppErrorCode")
!40 = !DIFile(filename: "simulator/errmsg.h", directory: "/home/venkat/IF-DV/spec_build_release/CPU_2017/benchspec/CPU/520.omnetpp_r/build/build_base_ld-loop-ext-m64.0000")
!41 = !{!42, !43, !44, !45, !46, !47, !48, !49, !50, !51, !52, !53, !54, !55, !56, !57, !58, !59, !60, !61, !62, !63, !64, !65, !66, !67, !68, !69, !70, !71, !72, !73, !74, !75, !76, !77, !78, !79, !80, !81, !82, !83}
!42 = !DIEnumerator(name: "eOK", value: 0, isUnsigned: true)
!43 = !DIEnumerator(name: "eBACKSCHED", value: 1, isUnsigned: true)
!44 = !DIEnumerator(name: "eBADCAST", value: 2, isUnsigned: true)
!45 = !DIEnumerator(name: "eBADEXP", value: 3, isUnsigned: true)
!46 = !DIEnumerator(name: "eBADINIT", value: 4, isUnsigned: true)
!47 = !DIEnumerator(name: "eCANCEL", value: 5, isUnsigned: true)
!48 = !DIEnumerator(name: "eCANTCOPY", value: 6, isUnsigned: true)
!49 = !DIEnumerator(name: "eCANTDUP", value: 7, isUnsigned: true)
!50 = !DIEnumerator(name: "eCANTPACK", value: 8, isUnsigned: true)
!51 = !DIEnumerator(name: "eCUSTOM", value: 9, isUnsigned: true)
!52 = !DIEnumerator(name: "eDIMLESS", value: 10, isUnsigned: true)
!53 = !DIEnumerator(name: "eEBADARGS", value: 11, isUnsigned: true)
!54 = !DIEnumerator(name: "eECANTCAST", value: 12, isUnsigned: true)
!55 = !DIEnumerator(name: "eENDEDOK", value: 13, isUnsigned: true)
!56 = !DIEnumerator(name: "eENDSIM", value: 14, isUnsigned: true)
!57 = !DIEnumerator(name: "eENOPARENT", value: 15, isUnsigned: true)
!58 = !DIEnumerator(name: "eESTKOFLOW", value: 16, isUnsigned: true)
!59 = !DIEnumerator(name: "eESTKUFLOW", value: 17, isUnsigned: true)
!60 = !DIEnumerator(name: "eFINISH", value: 18, isUnsigned: true)
!61 = !DIEnumerator(name: "eGATEID", value: 19, isUnsigned: true)
!62 = !DIEnumerator(name: "eINFLOOP", value: 20, isUnsigned: true)
!63 = !DIEnumerator(name: "eLOCKED", value: 21, isUnsigned: true)
!64 = !DIEnumerator(name: "eMODFIN", value: 22, isUnsigned: true)
!65 = !DIEnumerator(name: "eMODINI", value: 23, isUnsigned: true)
!66 = !DIEnumerator(name: "eNEGTIME", value: 24, isUnsigned: true)
!67 = !DIEnumerator(name: "eNEGTOUT", value: 25, isUnsigned: true)
!68 = !DIEnumerator(name: "eNOCHANDEF", value: 26, isUnsigned: true)
!69 = !DIEnumerator(name: "eNONET", value: 27, isUnsigned: true)
!70 = !DIEnumerator(name: "eNOPARENTMOD", value: 28, isUnsigned: true)
!71 = !DIEnumerator(name: "eNOPARSIM", value: 29, isUnsigned: true)
!72 = !DIEnumerator(name: "eNORECV", value: 30, isUnsigned: true)
!73 = !DIEnumerator(name: "eNOSUCHNET", value: 31, isUnsigned: true)
!74 = !DIEnumerator(name: "eNUMARGS", value: 32, isUnsigned: true)
!75 = !DIEnumerator(name: "ePARAM", value: 33, isUnsigned: true)
!76 = !DIEnumerator(name: "ePARAMSNOTREADY", value: 34, isUnsigned: true)
!77 = !DIEnumerator(name: "eREALTIME", value: 35, isUnsigned: true)
!78 = !DIEnumerator(name: "eSIMTIME", value: 36, isUnsigned: true)
!79 = !DIEnumerator(name: "eSTATECHG", value: 37, isUnsigned: true)
!80 = !DIEnumerator(name: "eSTKLOW", value: 38, isUnsigned: true)
!81 = !DIEnumerator(name: "eSTOPSIMRCVD", value: 39, isUnsigned: true)
!82 = !DIEnumerator(name: "eUSER", value: 40, isUnsigned: true)
!83 = !DIEnumerator(name: "eWRONGSIM", value: 41, isUnsigned: true)
!84 = !DICompositeType(tag: DW_TAG_enumeration_type, scope: !86, file: !85, line: 49, baseType: !35, size: 32, elements: !1048, identifier: "_ZTSN8cParImplUt_E")
!85 = !DIFile(filename: "simulator/cparimpl.h", directory: "/home/venkat/IF-DV/spec_build_release/CPU_2017/benchspec/CPU/520.omnetpp_r/build/build_base_ld-loop-ext-m64.0000")
!86 = distinct !DICompositeType(tag: DW_TAG_class_type, name: "cParImpl", file: !85, line: 45, size: 256, flags: DIFlagTypePassByReference | DIFlagNonTrivial, elements: !87, vtableHolder: !1047)
!87 = !{!88, !91, !95, !97, !98, !915, !919, !924, !925, !929, !933, !934, !938, !944, !945, !958, !961, !962, !963, !964, !965, !966, !969, !970, !971, !974, !977, !978, !981, !985, !986, !991, !997, !1002, !1008, !1011, !1014, !1017, !1020, !1023, !1026, !1029, !1030, !1031, !1032, !1033, !1036, !1040, !1043, !1044}
!88 = !DIDerivedType(tag: DW_TAG_inheritance, scope: !86, baseType: !89, flags: DIFlagPublic, extraData: i32 0)
!89 = !DICompositeType(tag: DW_TAG_class_type, name: "cNamedObject", file: !90, line: 38, flags: DIFlagFwdDecl)
!90 = !DIFile(filename: "simulator/cnamedobject.h", directory: "/home/venkat/IF-DV/spec_build_release/CPU_2017/benchspec/CPU/520.omnetpp_r/build/build_base_ld-loop-ext-m64.0000")
!91 = !DIDerivedType(tag: DW_TAG_member, name: "unitp", scope: !86, file: !85, line: 59, baseType: !92, size: 64, offset: 192)
!92 = !DIDerivedType(tag: DW_TAG_pointer_type, baseType: !93, size: 64)
!93 = !DIDerivedType(tag: DW_TAG_const_type, baseType: !94)
!94 = !DIBasicType(name: "char", size: 8, encoding: DW_ATE_signed_char)
!95 = !DIDerivedType(tag: DW_TAG_member, name: "total_parimpl_objs", scope: !86, file: !85, line: 62, baseType: !96, flags: DIFlagStaticMember)
!96 = !DIBasicType(name: "long int", size: 64, encoding: DW_ATE_signed)
!97 = !DIDerivedType(tag: DW_TAG_member, name: "live_parimpl_objs", scope: !86, file: !85, line: 63, baseType: !96, flags: DIFlagStaticMember)
!98 = !DIDerivedType(tag: DW_TAG_member, name: "unitStringPool", scope: !86, file: !85, line: 64, baseType: !99, flags: DIFlagStaticMember)
!99 = distinct !DICompositeType(tag: DW_TAG_class_type, name: "cStringPool", file: !100, line: 35, size: 704, flags: DIFlagTypePassByReference | DIFlagNonTrivial, elements: !101, identifier: "_ZTS11cStringPool")
!100 = !DIFile(filename: "simulator/cstringpool.h", directory: "/home/venkat/IF-DV/spec_build_release/CPU_2017/benchspec/CPU/520.omnetpp_r/build/build_base_ld-loop-ext-m64.0000")
!101 = !{!102, !108, !895, !896, !900, !903, !906, !911, !912}
!102 = !DIDerivedType(tag: DW_TAG_member, name: "name", scope: !99, file: !100, line: 45, baseType: !103, size: 256, flags: DIFlagProtected)
!103 = !DIDerivedType(tag: DW_TAG_typedef, name: "string", scope: !2, file: !104, line: 79, baseType: !105)
!104 = !DIFile(filename: "/usr/lib/gcc/x86_64-linux-gnu/10/../../../../include/c++/10/bits/stringfwd.h", directory: "")
!105 = !DICompositeType(tag: DW_TAG_class_type, name: "basic_string<char, std::char_traits<char>, std::allocator<char> >", scope: !107, file: !106, line: 1618, flags: DIFlagFwdDecl, identifier: "_ZTSNSt7__cxx1112basic_stringIcSt11char_traitsIcESaIcEEE")
!106 = !DIFile(filename: "/usr/lib/gcc/x86_64-linux-gnu/10/../../../../include/c++/10/bits/basic_string.tcc", directory: "")
!107 = !DINamespace(name: "__cxx11", scope: !2, exportSymbols: true)
!108 = !DIDerivedType(tag: DW_TAG_member, name: "pool", scope: !99, file: !100, line: 47, baseType: !109, size: 384, offset: 256, flags: DIFlagProtected)
!109 = !DIDerivedType(tag: DW_TAG_typedef, name: "StringIntMap", scope: !99, file: !100, line: 46, baseType: !110)
!110 = distinct !DICompositeType(tag: DW_TAG_class_type, name: "map<char *, int, cStringPool::strless, std::allocator<std::pair<char *const, int> > >", scope: !2, file: !111, line: 100, size: 384, flags: DIFlagTypePassByReference | DIFlagNonTrivial, elements: !112, templateParams: !893, identifier: "_ZTSSt3mapIPciN11cStringPool7strlessESaISt4pairIKS0_iEEE")
!111 = !DIFile(filename: "/usr/lib/gcc/x86_64-linux-gnu/10/../../../../include/c++/10/bits/stl_map.h", directory: "")
!112 = !{!113, !729, !733, !739, !744, !748, !753, !756, !759, !762, !765, !766, !770, !773, !776, !780, !784, !788, !789, !790, !794, !798, !799, !800, !801, !802, !803, !804, !807, !811, !812, !820, !824, !825, !830, !837, !841, !844, !847, !850, !853, !856, !859, !862, !865, !866, !870, !874, !877, !880, !883, !884, !885, !886, !887, !890}
!113 = !DIDerivedType(tag: DW_TAG_member, name: "_M_t", scope: !110, file: !111, line: 153, baseType: !114, size: 384)
!114 = !DIDerivedType(tag: DW_TAG_typedef, name: "_Rep_type", scope: !110, file: !111, line: 150, baseType: !115)
!115 = distinct !DICompositeType(tag: DW_TAG_class_type, name: "_Rb_tree<char *, std::pair<char *const, int>, std::_Select1st<std::pair<char *const, int> >, cStringPool::strless, std::allocator<std::pair<char *const, int> > >", scope: !2, file: !34, line: 440, size: 384, flags: DIFlagTypePassByReference | DIFlagNonTrivial, elements: !116, templateParams: !722, identifier: "_ZTSSt8_Rb_treeIPcSt4pairIKS0_iESt10_Select1stIS3_EN11cStringPool7strlessESaIS3_EE")
!116 = !{!117, !394, !399, !406, !410, !414, !417, !418, !419, !424, !428, !429, !430, !431, !432, !433, !437, !440, !441, !447, !450, !453, !454, !455, !458, !462, !466, !467, !468, !537, !538, !543, !544, !549, !552, !555, !559, !560, !563, !566, !567, !568, !571, !576, !579, !582, !585, !589, !592, !610, !626, !629, !630, !634, !637, !640, !643, !644, !645, !651, !656, !657, !658, !661, !665, !666, !669, !672, !675, !678, !681, !685, !688, !689, !692, !695, !698, !699, !700, !701, !702, !706, !710, !711, !714, !717, !720, !721}
!117 = !DIDerivedType(tag: DW_TAG_member, name: "_M_impl", scope: !115, file: !34, line: 720, baseType: !118, size: 384, flags: DIFlagProtected)
!118 = distinct !DICompositeType(tag: DW_TAG_structure_type, name: "_Rb_tree_impl<cStringPool::strless, true>", scope: !115, file: !34, line: 677, size: 384, flags: DIFlagTypePassByReference | DIFlagNonTrivial, elements: !119, templateParams: !392, identifier: "_ZTSNSt8_Rb_treeIPcSt4pairIKS0_iESt10_Select1stIS3_EN11cStringPool7strlessESaIS3_EE13_Rb_tree_implIS7_Lb1EEE")
!119 = !{!120, !302, !332, !369, !373, !378, !382, !386, !389}
!120 = !DIDerivedType(tag: DW_TAG_inheritance, scope: !118, baseType: !121, extraData: i32 0)
!121 = !DIDerivedType(tag: DW_TAG_typedef, name: "_Node_allocator", scope: !115, file: !34, line: 443, baseType: !122)
!122 = !DIDerivedType(tag: DW_TAG_typedef, name: "other", scope: !124, file: !123, line: 120, baseType: !245)
!123 = !DIFile(filename: "/usr/lib/gcc/x86_64-linux-gnu/10/../../../../include/c++/10/ext/alloc_traits.h", directory: "")
!124 = distinct !DICompositeType(tag: DW_TAG_structure_type, name: "rebind<std::_Rb_tree_node<std::pair<char *const, int> > >", scope: !125, file: !123, line: 119, size: 8, flags: DIFlagTypePassByValue, elements: !241, templateParams: !242, identifier: "_ZTSN9__gnu_cxx14__alloc_traitsISaISt4pairIKPciEES4_E6rebindISt13_Rb_tree_nodeIS4_EEE")
!125 = distinct !DICompositeType(tag: DW_TAG_structure_type, name: "__alloc_traits<std::allocator<std::pair<char *const, int> >, std::pair<char *const, int> >", scope: !126, file: !123, line: 48, size: 8, flags: DIFlagTypePassByValue, elements: !127, templateParams: !239, identifier: "_ZTSN9__gnu_cxx14__alloc_traitsISaISt4pairIKPciEES4_EE")
!126 = !DINamespace(name: "__gnu_cxx", scope: null)
!127 = !{!128, !226, !229, !232, !235, !236, !237, !238}
!128 = !DIDerivedType(tag: DW_TAG_inheritance, scope: !125, baseType: !129, extraData: i32 0)
!129 = distinct !DICompositeType(tag: DW_TAG_structure_type, name: "allocator_traits<std::allocator<std::pair<char *const, int> > >", scope: !2, file: !130, line: 407, size: 8, flags: DIFlagTypePassByValue, elements: !131, templateParams: !224, identifier: "_ZTSSt16allocator_traitsISaISt4pairIKPciEEE")
!130 = !DIFile(filename: "/usr/lib/gcc/x86_64-linux-gnu/10/../../../../include/c++/10/bits/alloc_traits.h", directory: "")
!131 = !{!132, !208, !212, !215, !221}
!132 = !DISubprogram(name: "allocate", linkageName: "_ZNSt16allocator_traitsISaISt4pairIKPciEEE8allocateERS4_m", scope: !129, file: !130, line: 459, type: !133, scopeLine: 459, flags: DIFlagPrototyped | DIFlagStaticMember, spFlags: 0)
!133 = !DISubroutineType(types: !134)
!134 = !{!135, !139, !207}
!135 = !DIDerivedType(tag: DW_TAG_typedef, name: "pointer", scope: !129, file: !130, line: 416, baseType: !136)
!136 = !DIDerivedType(tag: DW_TAG_pointer_type, baseType: !137, size: 64)
!137 = !DICompositeType(tag: DW_TAG_structure_type, name: "pair<char *const, int>", scope: !2, file: !138, line: 211, flags: DIFlagFwdDecl, identifier: "_ZTSSt4pairIKPciE")
!138 = !DIFile(filename: "/usr/lib/gcc/x86_64-linux-gnu/10/../../../../include/c++/10/bits/stl_pair.h", directory: "")
!139 = !DIDerivedType(tag: DW_TAG_reference_type, baseType: !140, size: 64)
!140 = !DIDerivedType(tag: DW_TAG_typedef, name: "allocator_type", scope: !129, file: !130, line: 410, baseType: !141)
!141 = distinct !DICompositeType(tag: DW_TAG_class_type, name: "allocator<std::pair<char *const, int> >", scope: !2, file: !142, line: 116, size: 8, flags: DIFlagTypePassByReference | DIFlagNonTrivial, elements: !143, templateParams: !191, identifier: "_ZTSSaISt4pairIKPciEE")
!142 = !DIFile(filename: "/usr/lib/gcc/x86_64-linux-gnu/10/../../../../include/c++/10/bits/allocator.h", directory: "")
!143 = !{!144, !193, !197, !202, !206}
!144 = !DIDerivedType(tag: DW_TAG_inheritance, scope: !141, baseType: !145, flags: DIFlagPublic, extraData: i32 0)
!145 = !DIDerivedType(tag: DW_TAG_typedef, name: "__allocator_base<std::pair<char *const, int> >", scope: !2, file: !146, line: 48, baseType: !147)
!146 = !DIFile(filename: "/usr/lib/gcc/x86_64-linux-gnu/10/../../../../include/x86_64-linux-gnu/c++/10/bits/c++allocator.h", directory: "")
!147 = distinct !DICompositeType(tag: DW_TAG_class_type, name: "new_allocator<std::pair<char *const, int> >", scope: !126, file: !148, line: 55, size: 8, flags: DIFlagTypePassByReference | DIFlagNonTrivial, elements: !149, templateParams: !191, identifier: "_ZTSN9__gnu_cxx13new_allocatorISt4pairIKPciEEE")
!148 = !DIFile(filename: "/usr/lib/gcc/x86_64-linux-gnu/10/../../../../include/c++/10/ext/new_allocator.h", directory: "")
!149 = !{!150, !154, !159, !160, !167, !175, !184, !187, !190}
!150 = !DISubprogram(name: "new_allocator", scope: !147, file: !148, line: 79, type: !151, scopeLine: 79, flags: DIFlagPublic | DIFlagPrototyped, spFlags: 0)
!151 = !DISubroutineType(types: !152)
!152 = !{null, !153}
!153 = !DIDerivedType(tag: DW_TAG_pointer_type, baseType: !147, size: 64, flags: DIFlagArtificial | DIFlagObjectPointer)
!154 = !DISubprogram(name: "new_allocator", scope: !147, file: !148, line: 82, type: !155, scopeLine: 82, flags: DIFlagPublic | DIFlagPrototyped, spFlags: 0)
!155 = !DISubroutineType(types: !156)
!156 = !{null, !153, !157}
!157 = !DIDerivedType(tag: DW_TAG_reference_type, baseType: !158, size: 64)
!158 = !DIDerivedType(tag: DW_TAG_const_type, baseType: !147)
!159 = !DISubprogram(name: "~new_allocator", scope: !147, file: !148, line: 89, type: !151, scopeLine: 89, flags: DIFlagPublic | DIFlagPrototyped, spFlags: 0)
!160 = !DISubprogram(name: "address", linkageName: "_ZNK9__gnu_cxx13new_allocatorISt4pairIKPciEE7addressERS4_", scope: !147, file: !148, line: 92, type: !161, scopeLine: 92, flags: DIFlagPublic | DIFlagPrototyped, spFlags: 0)
!161 = !DISubroutineType(types: !162)
!162 = !{!163, !164, !165}
!163 = !DIDerivedType(tag: DW_TAG_typedef, name: "pointer", scope: !147, file: !148, line: 62, baseType: !136)
!164 = !DIDerivedType(tag: DW_TAG_pointer_type, baseType: !158, size: 64, flags: DIFlagArtificial | DIFlagObjectPointer)
!165 = !DIDerivedType(tag: DW_TAG_typedef, name: "reference", scope: !147, file: !148, line: 64, baseType: !166)
!166 = !DIDerivedType(tag: DW_TAG_reference_type, baseType: !137, size: 64)
!167 = !DISubprogram(name: "address", linkageName: "_ZNK9__gnu_cxx13new_allocatorISt4pairIKPciEE7addressERKS4_", scope: !147, file: !148, line: 96, type: !168, scopeLine: 96, flags: DIFlagPublic | DIFlagPrototyped, spFlags: 0)
!168 = !DISubroutineType(types: !169)
!169 = !{!170, !164, !173}
!170 = !DIDerivedType(tag: DW_TAG_typedef, name: "const_pointer", scope: !147, file: !148, line: 63, baseType: !171)
!171 = !DIDerivedType(tag: DW_TAG_pointer_type, baseType: !172, size: 64)
!172 = !DIDerivedType(tag: DW_TAG_const_type, baseType: !137)
!173 = !DIDerivedType(tag: DW_TAG_typedef, name: "const_reference", scope: !147, file: !148, line: 65, baseType: !174)
!174 = !DIDerivedType(tag: DW_TAG_reference_type, baseType: !172, size: 64)
!175 = !DISubprogram(name: "allocate", linkageName: "_ZN9__gnu_cxx13new_allocatorISt4pairIKPciEE8allocateEmPKv", scope: !147, file: !148, line: 103, type: !176, scopeLine: 103, flags: DIFlagPublic | DIFlagPrototyped, spFlags: 0)
!176 = !DISubroutineType(types: !177)
!177 = !{!136, !153, !178, !182}
!178 = !DIDerivedType(tag: DW_TAG_typedef, name: "size_type", file: !148, line: 59, baseType: !179)
!179 = !DIDerivedType(tag: DW_TAG_typedef, name: "size_t", scope: !2, file: !180, line: 260, baseType: !181)
!180 = !DIFile(filename: "/usr/lib/gcc/x86_64-linux-gnu/10/../../../../include/x86_64-linux-gnu/c++/10/bits/c++config.h", directory: "")
!181 = !DIBasicType(name: "long unsigned int", size: 64, encoding: DW_ATE_unsigned)
!182 = !DIDerivedType(tag: DW_TAG_pointer_type, baseType: !183, size: 64)
!183 = !DIDerivedType(tag: DW_TAG_const_type, baseType: null)
!184 = !DISubprogram(name: "deallocate", linkageName: "_ZN9__gnu_cxx13new_allocatorISt4pairIKPciEE10deallocateEPS4_m", scope: !147, file: !148, line: 120, type: !185, scopeLine: 120, flags: DIFlagPublic | DIFlagPrototyped, spFlags: 0)
!185 = !DISubroutineType(types: !186)
!186 = !{null, !153, !136, !178}
!187 = !DISubprogram(name: "max_size", linkageName: "_ZNK9__gnu_cxx13new_allocatorISt4pairIKPciEE8max_sizeEv", scope: !147, file: !148, line: 142, type: !188, scopeLine: 142, flags: DIFlagPublic | DIFlagPrototyped, spFlags: 0)
!188 = !DISubroutineType(types: !189)
!189 = !{!178, !164}
!190 = !DISubprogram(name: "_M_max_size", linkageName: "_ZNK9__gnu_cxx13new_allocatorISt4pairIKPciEE11_M_max_sizeEv", scope: !147, file: !148, line: 185, type: !188, scopeLine: 185, flags: DIFlagPrototyped, spFlags: 0)
!191 = !{!192}
!192 = !DITemplateTypeParameter(name: "_Tp", type: !137)
!193 = !DISubprogram(name: "allocator", scope: !141, file: !142, line: 144, type: !194, scopeLine: 144, flags: DIFlagPublic | DIFlagPrototyped, spFlags: 0)
!194 = !DISubroutineType(types: !195)
!195 = !{null, !196}
!196 = !DIDerivedType(tag: DW_TAG_pointer_type, baseType: !141, size: 64, flags: DIFlagArtificial | DIFlagObjectPointer)
!197 = !DISubprogram(name: "allocator", scope: !141, file: !142, line: 147, type: !198, scopeLine: 147, flags: DIFlagPublic | DIFlagPrototyped, spFlags: 0)
!198 = !DISubroutineType(types: !199)
!199 = !{null, !196, !200}
!200 = !DIDerivedType(tag: DW_TAG_reference_type, baseType: !201, size: 64)
!201 = !DIDerivedType(tag: DW_TAG_const_type, baseType: !141)
!202 = !DISubprogram(name: "operator=", linkageName: "_ZNSaISt4pairIKPciEEaSERKS3_", scope: !141, file: !142, line: 152, type: !203, scopeLine: 152, flags: DIFlagPublic | DIFlagPrototyped, spFlags: 0)
!203 = !DISubroutineType(types: !204)
!204 = !{!205, !196, !200}
!205 = !DIDerivedType(tag: DW_TAG_reference_type, baseType: !141, size: 64)
!206 = !DISubprogram(name: "~allocator", scope: !141, file: !142, line: 162, type: !194, scopeLine: 162, flags: DIFlagPublic | DIFlagPrototyped, spFlags: 0)
!207 = !DIDerivedType(tag: DW_TAG_typedef, name: "size_type", file: !130, line: 431, baseType: !179)
!208 = !DISubprogram(name: "allocate", linkageName: "_ZNSt16allocator_traitsISaISt4pairIKPciEEE8allocateERS4_mPKv", scope: !129, file: !130, line: 473, type: !209, scopeLine: 473, flags: DIFlagPrototyped | DIFlagStaticMember, spFlags: 0)
!209 = !DISubroutineType(types: !210)
!210 = !{!135, !139, !207, !211}
!211 = !DIDerivedType(tag: DW_TAG_typedef, name: "const_void_pointer", file: !130, line: 425, baseType: !182)
!212 = !DISubprogram(name: "deallocate", linkageName: "_ZNSt16allocator_traitsISaISt4pairIKPciEEE10deallocateERS4_PS3_m", scope: !129, file: !130, line: 491, type: !213, scopeLine: 491, flags: DIFlagPrototyped | DIFlagStaticMember, spFlags: 0)
!213 = !DISubroutineType(types: !214)
!214 = !{null, !139, !135, !207}
!215 = !DISubprogram(name: "max_size", linkageName: "_ZNSt16allocator_traitsISaISt4pairIKPciEEE8max_sizeERKS4_", scope: !129, file: !130, line: 543, type: !216, scopeLine: 543, flags: DIFlagPrototyped | DIFlagStaticMember, spFlags: 0)
!216 = !DISubroutineType(types: !217)
!217 = !{!218, !219}
!218 = !DIDerivedType(tag: DW_TAG_typedef, name: "size_type", scope: !129, file: !130, line: 431, baseType: !179)
!219 = !DIDerivedType(tag: DW_TAG_reference_type, baseType: !220, size: 64)
!220 = !DIDerivedType(tag: DW_TAG_const_type, baseType: !140)
!221 = !DISubprogram(name: "select_on_container_copy_construction", linkageName: "_ZNSt16allocator_traitsISaISt4pairIKPciEEE37select_on_container_copy_constructionERKS4_", scope: !129, file: !130, line: 558, type: !222, scopeLine: 558, flags: DIFlagPrototyped | DIFlagStaticMember, spFlags: 0)
!222 = !DISubroutineType(types: !223)
!223 = !{!140, !219}
!224 = !{!225}
!225 = !DITemplateTypeParameter(name: "_Alloc", type: !141)
!226 = !DISubprogram(name: "_S_select_on_copy", linkageName: "_ZN9__gnu_cxx14__alloc_traitsISaISt4pairIKPciEES4_E17_S_select_on_copyERKS5_", scope: !125, file: !123, line: 97, type: !227, scopeLine: 97, flags: DIFlagPrototyped | DIFlagStaticMember, spFlags: 0)
!227 = !DISubroutineType(types: !228)
!228 = !{!141, !200}
!229 = !DISubprogram(name: "_S_on_swap", linkageName: "_ZN9__gnu_cxx14__alloc_traitsISaISt4pairIKPciEES4_E10_S_on_swapERS5_S7_", scope: !125, file: !123, line: 100, type: !230, scopeLine: 100, flags: DIFlagPrototyped | DIFlagStaticMember, spFlags: 0)
!230 = !DISubroutineType(types: !231)
!231 = !{null, !205, !205}
!232 = !DISubprogram(name: "_S_propagate_on_copy_assign", linkageName: "_ZN9__gnu_cxx14__alloc_traitsISaISt4pairIKPciEES4_E27_S_propagate_on_copy_assignEv", scope: !125, file: !123, line: 103, type: !233, scopeLine: 103, flags: DIFlagPrototyped | DIFlagStaticMember, spFlags: 0)
!233 = !DISubroutineType(types: !234)
!234 = !{!13}
!235 = !DISubprogram(name: "_S_propagate_on_move_assign", linkageName: "_ZN9__gnu_cxx14__alloc_traitsISaISt4pairIKPciEES4_E27_S_propagate_on_move_assignEv", scope: !125, file: !123, line: 106, type: !233, scopeLine: 106, flags: DIFlagPrototyped | DIFlagStaticMember, spFlags: 0)
!236 = !DISubprogram(name: "_S_propagate_on_swap", linkageName: "_ZN9__gnu_cxx14__alloc_traitsISaISt4pairIKPciEES4_E20_S_propagate_on_swapEv", scope: !125, file: !123, line: 109, type: !233, scopeLine: 109, flags: DIFlagPrototyped | DIFlagStaticMember, spFlags: 0)
!237 = !DISubprogram(name: "_S_always_equal", linkageName: "_ZN9__gnu_cxx14__alloc_traitsISaISt4pairIKPciEES4_E15_S_always_equalEv", scope: !125, file: !123, line: 112, type: !233, scopeLine: 112, flags: DIFlagPrototyped | DIFlagStaticMember, spFlags: 0)
!238 = !DISubprogram(name: "_S_nothrow_move", linkageName: "_ZN9__gnu_cxx14__alloc_traitsISaISt4pairIKPciEES4_E15_S_nothrow_moveEv", scope: !125, file: !123, line: 115, type: !233, scopeLine: 115, flags: DIFlagPrototyped | DIFlagStaticMember, spFlags: 0)
!239 = !{!225, !240}
!240 = !DITemplateTypeParameter(type: !137)
!241 = !{}
!242 = !{!243}
!243 = !DITemplateTypeParameter(name: "_Tp", type: !244)
!244 = !DICompositeType(tag: DW_TAG_structure_type, name: "_Rb_tree_node<std::pair<char *const, int> >", scope: !2, file: !34, line: 216, flags: DIFlagFwdDecl, identifier: "_ZTSSt13_Rb_tree_nodeISt4pairIKPciEE")
!245 = !DIDerivedType(tag: DW_TAG_typedef, name: "rebind_alloc<std::_Rb_tree_node<std::pair<char *const, int> > >", scope: !129, file: !130, line: 446, baseType: !246)
!246 = distinct !DICompositeType(tag: DW_TAG_class_type, name: "allocator<std::_Rb_tree_node<std::pair<char *const, int> > >", scope: !2, file: !142, line: 116, size: 8, flags: DIFlagTypePassByReference | DIFlagNonTrivial, elements: !247, templateParams: !242, identifier: "_ZTSSaISt13_Rb_tree_nodeISt4pairIKPciEEE")
!247 = !{!248, !288, !292, !297, !301}
!248 = !DIDerivedType(tag: DW_TAG_inheritance, scope: !246, baseType: !249, flags: DIFlagPublic, extraData: i32 0)
!249 = !DIDerivedType(tag: DW_TAG_typedef, name: "__allocator_base<std::_Rb_tree_node<std::pair<char *const, int> > >", scope: !2, file: !146, line: 48, baseType: !250)
!250 = distinct !DICompositeType(tag: DW_TAG_class_type, name: "new_allocator<std::_Rb_tree_node<std::pair<char *const, int> > >", scope: !126, file: !148, line: 55, size: 8, flags: DIFlagTypePassByReference | DIFlagNonTrivial, elements: !251, templateParams: !242, identifier: "_ZTSN9__gnu_cxx13new_allocatorISt13_Rb_tree_nodeISt4pairIKPciEEEE")
!251 = !{!252, !256, !261, !262, !270, !278, !281, !284, !287}
!252 = !DISubprogram(name: "new_allocator", scope: !250, file: !148, line: 79, type: !253, scopeLine: 79, flags: DIFlagPublic | DIFlagPrototyped, spFlags: 0)
!253 = !DISubroutineType(types: !254)
!254 = !{null, !255}
!255 = !DIDerivedType(tag: DW_TAG_pointer_type, baseType: !250, size: 64, flags: DIFlagArtificial | DIFlagObjectPointer)
!256 = !DISubprogram(name: "new_allocator", scope: !250, file: !148, line: 82, type: !257, scopeLine: 82, flags: DIFlagPublic | DIFlagPrototyped, spFlags: 0)
!257 = !DISubroutineType(types: !258)
!258 = !{null, !255, !259}
!259 = !DIDerivedType(tag: DW_TAG_reference_type, baseType: !260, size: 64)
!260 = !DIDerivedType(tag: DW_TAG_const_type, baseType: !250)
!261 = !DISubprogram(name: "~new_allocator", scope: !250, file: !148, line: 89, type: !253, scopeLine: 89, flags: DIFlagPublic | DIFlagPrototyped, spFlags: 0)
!262 = !DISubprogram(name: "address", linkageName: "_ZNK9__gnu_cxx13new_allocatorISt13_Rb_tree_nodeISt4pairIKPciEEE7addressERS6_", scope: !250, file: !148, line: 92, type: !263, scopeLine: 92, flags: DIFlagPublic | DIFlagPrototyped, spFlags: 0)
!263 = !DISubroutineType(types: !264)
!264 = !{!265, !267, !268}
!265 = !DIDerivedType(tag: DW_TAG_typedef, name: "pointer", scope: !250, file: !148, line: 62, baseType: !266)
!266 = !DIDerivedType(tag: DW_TAG_pointer_type, baseType: !244, size: 64)
!267 = !DIDerivedType(tag: DW_TAG_pointer_type, baseType: !260, size: 64, flags: DIFlagArtificial | DIFlagObjectPointer)
!268 = !DIDerivedType(tag: DW_TAG_typedef, name: "reference", scope: !250, file: !148, line: 64, baseType: !269)
!269 = !DIDerivedType(tag: DW_TAG_reference_type, baseType: !244, size: 64)
!270 = !DISubprogram(name: "address", linkageName: "_ZNK9__gnu_cxx13new_allocatorISt13_Rb_tree_nodeISt4pairIKPciEEE7addressERKS6_", scope: !250, file: !148, line: 96, type: !271, scopeLine: 96, flags: DIFlagPublic | DIFlagPrototyped, spFlags: 0)
!271 = !DISubroutineType(types: !272)
!272 = !{!273, !267, !276}
!273 = !DIDerivedType(tag: DW_TAG_typedef, name: "const_pointer", scope: !250, file: !148, line: 63, baseType: !274)
!274 = !DIDerivedType(tag: DW_TAG_pointer_type, baseType: !275, size: 64)
!275 = !DIDerivedType(tag: DW_TAG_const_type, baseType: !244)
!276 = !DIDerivedType(tag: DW_TAG_typedef, name: "const_reference", scope: !250, file: !148, line: 65, baseType: !277)
!277 = !DIDerivedType(tag: DW_TAG_reference_type, baseType: !275, size: 64)
!278 = !DISubprogram(name: "allocate", linkageName: "_ZN9__gnu_cxx13new_allocatorISt13_Rb_tree_nodeISt4pairIKPciEEE8allocateEmPKv", scope: !250, file: !148, line: 103, type: !279, scopeLine: 103, flags: DIFlagPublic | DIFlagPrototyped, spFlags: 0)
!279 = !DISubroutineType(types: !280)
!280 = !{!266, !255, !178, !182}
!281 = !DISubprogram(name: "deallocate", linkageName: "_ZN9__gnu_cxx13new_allocatorISt13_Rb_tree_nodeISt4pairIKPciEEE10deallocateEPS6_m", scope: !250, file: !148, line: 120, type: !282, scopeLine: 120, flags: DIFlagPublic | DIFlagPrototyped, spFlags: 0)
!282 = !DISubroutineType(types: !283)
!283 = !{null, !255, !266, !178}
!284 = !DISubprogram(name: "max_size", linkageName: "_ZNK9__gnu_cxx13new_allocatorISt13_Rb_tree_nodeISt4pairIKPciEEE8max_sizeEv", scope: !250, file: !148, line: 142, type: !285, scopeLine: 142, flags: DIFlagPublic | DIFlagPrototyped, spFlags: 0)
!285 = !DISubroutineType(types: !286)
!286 = !{!178, !267}
!287 = !DISubprogram(name: "_M_max_size", linkageName: "_ZNK9__gnu_cxx13new_allocatorISt13_Rb_tree_nodeISt4pairIKPciEEE11_M_max_sizeEv", scope: !250, file: !148, line: 185, type: !285, scopeLine: 185, flags: DIFlagPrototyped, spFlags: 0)
!288 = !DISubprogram(name: "allocator", scope: !246, file: !142, line: 144, type: !289, scopeLine: 144, flags: DIFlagPublic | DIFlagPrototyped, spFlags: 0)
!289 = !DISubroutineType(types: !290)
!290 = !{null, !291}
!291 = !DIDerivedType(tag: DW_TAG_pointer_type, baseType: !246, size: 64, flags: DIFlagArtificial | DIFlagObjectPointer)
!292 = !DISubprogram(name: "allocator", scope: !246, file: !142, line: 147, type: !293, scopeLine: 147, flags: DIFlagPublic | DIFlagPrototyped, spFlags: 0)
!293 = !DISubroutineType(types: !294)
!294 = !{null, !291, !295}
!295 = !DIDerivedType(tag: DW_TAG_reference_type, baseType: !296, size: 64)
!296 = !DIDerivedType(tag: DW_TAG_const_type, baseType: !246)
!297 = !DISubprogram(name: "operator=", linkageName: "_ZNSaISt13_Rb_tree_nodeISt4pairIKPciEEEaSERKS5_", scope: !246, file: !142, line: 152, type: !298, scopeLine: 152, flags: DIFlagPublic | DIFlagPrototyped, spFlags: 0)
!298 = !DISubroutineType(types: !299)
!299 = !{!300, !291, !295}
!300 = !DIDerivedType(tag: DW_TAG_reference_type, baseType: !246, size: 64)
!301 = !DISubprogram(name: "~allocator", scope: !246, file: !142, line: 162, type: !289, scopeLine: 162, flags: DIFlagPublic | DIFlagPrototyped, spFlags: 0)
!302 = !DIDerivedType(tag: DW_TAG_inheritance, scope: !118, baseType: !303, extraData: i32 0)
!303 = distinct !DICompositeType(tag: DW_TAG_structure_type, name: "_Rb_tree_key_compare<cStringPool::strless>", scope: !2, file: !34, line: 142, size: 8, flags: DIFlagTypePassByReference | DIFlagNonTrivial, elements: !304, templateParams: !330, identifier: "_ZTSSt20_Rb_tree_key_compareIN11cStringPool7strlessEE")
!304 = !{!305, !313, !317, !321, !326}
!305 = !DIDerivedType(tag: DW_TAG_member, name: "_M_key_compare", scope: !303, file: !34, line: 144, baseType: !306, size: 8)
!306 = distinct !DICompositeType(tag: DW_TAG_structure_type, name: "strless", scope: !99, file: !100, line: 38, size: 8, flags: DIFlagTypePassByValue, elements: !307, identifier: "_ZTSN11cStringPool7strlessE")
!307 = !{!308}
!308 = !DISubprogram(name: "operator()", linkageName: "_ZNK11cStringPool7strlessclEPKcS2_", scope: !306, file: !100, line: 39, type: !309, scopeLine: 39, flags: DIFlagPrototyped, spFlags: 0)
!309 = !DISubroutineType(types: !310)
!310 = !{!13, !311, !92, !92}
!311 = !DIDerivedType(tag: DW_TAG_pointer_type, baseType: !312, size: 64, flags: DIFlagArtificial | DIFlagObjectPointer)
!312 = !DIDerivedType(tag: DW_TAG_const_type, baseType: !306)
!313 = !DISubprogram(name: "_Rb_tree_key_compare", scope: !303, file: !34, line: 146, type: !314, scopeLine: 146, flags: DIFlagPrototyped, spFlags: 0)
!314 = !DISubroutineType(types: !315)
!315 = !{null, !316}
!316 = !DIDerivedType(tag: DW_TAG_pointer_type, baseType: !303, size: 64, flags: DIFlagArtificial | DIFlagObjectPointer)
!317 = !DISubprogram(name: "_Rb_tree_key_compare", scope: !303, file: !34, line: 152, type: !318, scopeLine: 152, flags: DIFlagPrototyped, spFlags: 0)
!318 = !DISubroutineType(types: !319)
!319 = !{null, !316, !320}
!320 = !DIDerivedType(tag: DW_TAG_reference_type, baseType: !312, size: 64)
!321 = !DISubprogram(name: "_Rb_tree_key_compare", scope: !303, file: !34, line: 158, type: !322, scopeLine: 158, flags: DIFlagPrototyped, spFlags: 0)
!322 = !DISubroutineType(types: !323)
!323 = !{null, !316, !324}
!324 = !DIDerivedType(tag: DW_TAG_reference_type, baseType: !325, size: 64)
!325 = !DIDerivedType(tag: DW_TAG_const_type, baseType: !303)
!326 = !DISubprogram(name: "_Rb_tree_key_compare", scope: !303, file: !34, line: 160, type: !327, scopeLine: 160, flags: DIFlagPrototyped, spFlags: 0)
!327 = !DISubroutineType(types: !328)
!328 = !{null, !316, !329}
!329 = !DIDerivedType(tag: DW_TAG_rvalue_reference_type, baseType: !303, size: 64)
!330 = !{!331}
!331 = !DITemplateTypeParameter(name: "_Key_compare", type: !306)
!332 = !DIDerivedType(tag: DW_TAG_inheritance, scope: !118, baseType: !333, offset: 64, extraData: i32 0)
!333 = distinct !DICompositeType(tag: DW_TAG_structure_type, name: "_Rb_tree_header", scope: !2, file: !34, line: 168, size: 320, flags: DIFlagTypePassByReference | DIFlagNonTrivial, elements: !334, identifier: "_ZTSSt15_Rb_tree_header")
!334 = !{!335, !355, !356, !360, !364, !368}
!335 = !DIDerivedType(tag: DW_TAG_member, name: "_M_header", scope: !333, file: !34, line: 170, baseType: !336, size: 256)
!336 = distinct !DICompositeType(tag: DW_TAG_structure_type, name: "_Rb_tree_node_base", scope: !2, file: !34, line: 101, size: 256, flags: DIFlagTypePassByValue, elements: !337, identifier: "_ZTSSt18_Rb_tree_node_base")
!337 = !{!338, !339, !342, !343, !344, !347, !353, !354}
!338 = !DIDerivedType(tag: DW_TAG_member, name: "_M_color", scope: !336, file: !34, line: 106, baseType: !33, size: 32)
!339 = !DIDerivedType(tag: DW_TAG_member, name: "_M_parent", scope: !336, file: !34, line: 107, baseType: !340, size: 64, offset: 64)
!340 = !DIDerivedType(tag: DW_TAG_typedef, name: "_Base_ptr", scope: !336, file: !34, line: 103, baseType: !341)
!341 = !DIDerivedType(tag: DW_TAG_pointer_type, baseType: !336, size: 64)
!342 = !DIDerivedType(tag: DW_TAG_member, name: "_M_left", scope: !336, file: !34, line: 108, baseType: !340, size: 64, offset: 128)
!343 = !DIDerivedType(tag: DW_TAG_member, name: "_M_right", scope: !336, file: !34, line: 109, baseType: !340, size: 64, offset: 192)
!344 = !DISubprogram(name: "_S_minimum", linkageName: "_ZNSt18_Rb_tree_node_base10_S_minimumEPS_", scope: !336, file: !34, line: 112, type: !345, scopeLine: 112, flags: DIFlagPrototyped | DIFlagStaticMember, spFlags: 0)
!345 = !DISubroutineType(types: !346)
!346 = !{!340, !340}
!347 = !DISubprogram(name: "_S_minimum", linkageName: "_ZNSt18_Rb_tree_node_base10_S_minimumEPKS_", scope: !336, file: !34, line: 119, type: !348, scopeLine: 119, flags: DIFlagPrototyped | DIFlagStaticMember, spFlags: 0)
!348 = !DISubroutineType(types: !349)
!349 = !{!350, !350}
!350 = !DIDerivedType(tag: DW_TAG_typedef, name: "_Const_Base_ptr", scope: !336, file: !34, line: 104, baseType: !351)
!351 = !DIDerivedType(tag: DW_TAG_pointer_type, baseType: !352, size: 64)
!352 = !DIDerivedType(tag: DW_TAG_const_type, baseType: !336)
!353 = !DISubprogram(name: "_S_maximum", linkageName: "_ZNSt18_Rb_tree_node_base10_S_maximumEPS_", scope: !336, file: !34, line: 126, type: !345, scopeLine: 126, flags: DIFlagPrototyped | DIFlagStaticMember, spFlags: 0)
!354 = !DISubprogram(name: "_S_maximum", linkageName: "_ZNSt18_Rb_tree_node_base10_S_maximumEPKS_", scope: !336, file: !34, line: 133, type: !348, scopeLine: 133, flags: DIFlagPrototyped | DIFlagStaticMember, spFlags: 0)
!355 = !DIDerivedType(tag: DW_TAG_member, name: "_M_node_count", scope: !333, file: !34, line: 171, baseType: !179, size: 64, offset: 256)
!356 = !DISubprogram(name: "_Rb_tree_header", scope: !333, file: !34, line: 173, type: !357, scopeLine: 173, flags: DIFlagPrototyped, spFlags: 0)
!357 = !DISubroutineType(types: !358)
!358 = !{null, !359}
!359 = !DIDerivedType(tag: DW_TAG_pointer_type, baseType: !333, size: 64, flags: DIFlagArtificial | DIFlagObjectPointer)
!360 = !DISubprogram(name: "_Rb_tree_header", scope: !333, file: !34, line: 180, type: !361, scopeLine: 180, flags: DIFlagPrototyped, spFlags: 0)
!361 = !DISubroutineType(types: !362)
!362 = !{null, !359, !363}
!363 = !DIDerivedType(tag: DW_TAG_rvalue_reference_type, baseType: !333, size: 64)
!364 = !DISubprogram(name: "_M_move_data", linkageName: "_ZNSt15_Rb_tree_header12_M_move_dataERS_", scope: !333, file: !34, line: 193, type: !365, scopeLine: 193, flags: DIFlagPrototyped, spFlags: 0)
!365 = !DISubroutineType(types: !366)
!366 = !{null, !359, !367}
!367 = !DIDerivedType(tag: DW_TAG_reference_type, baseType: !333, size: 64)
!368 = !DISubprogram(name: "_M_reset", linkageName: "_ZNSt15_Rb_tree_header8_M_resetEv", scope: !333, file: !34, line: 206, type: !357, scopeLine: 206, flags: DIFlagPrototyped, spFlags: 0)
!369 = !DISubprogram(name: "_Rb_tree_impl", scope: !118, file: !34, line: 684, type: !370, scopeLine: 684, flags: DIFlagPrototyped, spFlags: 0)
!370 = !DISubroutineType(types: !371)
!371 = !{null, !372}
!372 = !DIDerivedType(tag: DW_TAG_pointer_type, baseType: !118, size: 64, flags: DIFlagArtificial | DIFlagObjectPointer)
!373 = !DISubprogram(name: "_Rb_tree_impl", scope: !118, file: !34, line: 691, type: !374, scopeLine: 691, flags: DIFlagPrototyped, spFlags: 0)
!374 = !DISubroutineType(types: !375)
!375 = !{null, !372, !376}
!376 = !DIDerivedType(tag: DW_TAG_reference_type, baseType: !377, size: 64)
!377 = !DIDerivedType(tag: DW_TAG_const_type, baseType: !118)
!378 = !DISubprogram(name: "_Rb_tree_impl", scope: !118, file: !34, line: 701, type: !379, scopeLine: 701, flags: DIFlagPrototyped, spFlags: 0)
!379 = !DISubroutineType(types: !380)
!380 = !{null, !372, !381}
!381 = !DIDerivedType(tag: DW_TAG_rvalue_reference_type, baseType: !118, size: 64)
!382 = !DISubprogram(name: "_Rb_tree_impl", scope: !118, file: !34, line: 704, type: !383, scopeLine: 704, flags: DIFlagExplicit | DIFlagPrototyped, spFlags: 0)
!383 = !DISubroutineType(types: !384)
!384 = !{null, !372, !385}
!385 = !DIDerivedType(tag: DW_TAG_rvalue_reference_type, baseType: !121, size: 64)
!386 = !DISubprogram(name: "_Rb_tree_impl", scope: !118, file: !34, line: 708, type: !387, scopeLine: 708, flags: DIFlagPrototyped, spFlags: 0)
!387 = !DISubroutineType(types: !388)
!388 = !{null, !372, !381, !385}
!389 = !DISubprogram(name: "_Rb_tree_impl", scope: !118, file: !34, line: 714, type: !390, scopeLine: 714, flags: DIFlagPrototyped, spFlags: 0)
!390 = !DISubroutineType(types: !391)
!391 = !{null, !372, !320, !385}
!392 = !{!331, !393}
!393 = !DITemplateValueParameter(type: !13, value: i8 1)
!394 = !DISubprogram(name: "_M_get_Node_allocator", linkageName: "_ZNSt8_Rb_treeIPcSt4pairIKS0_iESt10_Select1stIS3_EN11cStringPool7strlessESaIS3_EE21_M_get_Node_allocatorEv", scope: !115, file: !34, line: 570, type: !395, scopeLine: 570, flags: DIFlagPublic | DIFlagPrototyped, spFlags: 0)
!395 = !DISubroutineType(types: !396)
!396 = !{!397, !398}
!397 = !DIDerivedType(tag: DW_TAG_reference_type, baseType: !121, size: 64)
!398 = !DIDerivedType(tag: DW_TAG_pointer_type, baseType: !115, size: 64, flags: DIFlagArtificial | DIFlagObjectPointer)
!399 = !DISubprogram(name: "_M_get_Node_allocator", linkageName: "_ZNKSt8_Rb_treeIPcSt4pairIKS0_iESt10_Select1stIS3_EN11cStringPool7strlessESaIS3_EE21_M_get_Node_allocatorEv", scope: !115, file: !34, line: 574, type: !400, scopeLine: 574, flags: DIFlagPublic | DIFlagPrototyped, spFlags: 0)
!400 = !DISubroutineType(types: !401)
!401 = !{!402, !404}
!402 = !DIDerivedType(tag: DW_TAG_reference_type, baseType: !403, size: 64)
!403 = !DIDerivedType(tag: DW_TAG_const_type, baseType: !121)
!404 = !DIDerivedType(tag: DW_TAG_pointer_type, baseType: !405, size: 64, flags: DIFlagArtificial | DIFlagObjectPointer)
!405 = !DIDerivedType(tag: DW_TAG_const_type, baseType: !115)
!406 = !DISubprogram(name: "get_allocator", linkageName: "_ZNKSt8_Rb_treeIPcSt4pairIKS0_iESt10_Select1stIS3_EN11cStringPool7strlessESaIS3_EE13get_allocatorEv", scope: !115, file: !34, line: 578, type: !407, scopeLine: 578, flags: DIFlagPublic | DIFlagPrototyped, spFlags: 0)
!407 = !DISubroutineType(types: !408)
!408 = !{!409, !404}
!409 = !DIDerivedType(tag: DW_TAG_typedef, name: "allocator_type", scope: !115, file: !34, line: 567, baseType: !141)
!410 = !DISubprogram(name: "_M_get_node", linkageName: "_ZNSt8_Rb_treeIPcSt4pairIKS0_iESt10_Select1stIS3_EN11cStringPool7strlessESaIS3_EE11_M_get_nodeEv", scope: !115, file: !34, line: 583, type: !411, scopeLine: 583, flags: DIFlagProtected | DIFlagPrototyped, spFlags: 0)
!411 = !DISubroutineType(types: !412)
!412 = !{!413, !398}
!413 = !DIDerivedType(tag: DW_TAG_typedef, name: "_Link_type", scope: !115, file: !34, line: 450, baseType: !266)
!414 = !DISubprogram(name: "_M_put_node", linkageName: "_ZNSt8_Rb_treeIPcSt4pairIKS0_iESt10_Select1stIS3_EN11cStringPool7strlessESaIS3_EE11_M_put_nodeEPSt13_Rb_tree_nodeIS3_E", scope: !115, file: !34, line: 587, type: !415, scopeLine: 587, flags: DIFlagProtected | DIFlagPrototyped, spFlags: 0)
!415 = !DISubroutineType(types: !416)
!416 = !{null, !398, !413}
!417 = !DISubprogram(name: "_M_destroy_node", linkageName: "_ZNSt8_Rb_treeIPcSt4pairIKS0_iESt10_Select1stIS3_EN11cStringPool7strlessESaIS3_EE15_M_destroy_nodeEPSt13_Rb_tree_nodeIS3_E", scope: !115, file: !34, line: 641, type: !415, scopeLine: 641, flags: DIFlagProtected | DIFlagPrototyped, spFlags: 0)
!418 = !DISubprogram(name: "_M_drop_node", linkageName: "_ZNSt8_Rb_treeIPcSt4pairIKS0_iESt10_Select1stIS3_EN11cStringPool7strlessESaIS3_EE12_M_drop_nodeEPSt13_Rb_tree_nodeIS3_E", scope: !115, file: !34, line: 652, type: !415, scopeLine: 652, flags: DIFlagProtected | DIFlagPrototyped, spFlags: 0)
!419 = !DISubprogram(name: "_M_root", linkageName: "_ZNSt8_Rb_treeIPcSt4pairIKS0_iESt10_Select1stIS3_EN11cStringPool7strlessESaIS3_EE7_M_rootEv", scope: !115, file: !34, line: 724, type: !420, scopeLine: 724, flags: DIFlagProtected | DIFlagPrototyped, spFlags: 0)
!420 = !DISubroutineType(types: !421)
!421 = !{!422, !398}
!422 = !DIDerivedType(tag: DW_TAG_reference_type, baseType: !423, size: 64)
!423 = !DIDerivedType(tag: DW_TAG_typedef, name: "_Base_ptr", file: !34, line: 448, baseType: !341)
!424 = !DISubprogram(name: "_M_root", linkageName: "_ZNKSt8_Rb_treeIPcSt4pairIKS0_iESt10_Select1stIS3_EN11cStringPool7strlessESaIS3_EE7_M_rootEv", scope: !115, file: !34, line: 728, type: !425, scopeLine: 728, flags: DIFlagProtected | DIFlagPrototyped, spFlags: 0)
!425 = !DISubroutineType(types: !426)
!426 = !{!427, !404}
!427 = !DIDerivedType(tag: DW_TAG_typedef, name: "_Const_Base_ptr", file: !34, line: 449, baseType: !351)
!428 = !DISubprogram(name: "_M_leftmost", linkageName: "_ZNSt8_Rb_treeIPcSt4pairIKS0_iESt10_Select1stIS3_EN11cStringPool7strlessESaIS3_EE11_M_leftmostEv", scope: !115, file: !34, line: 732, type: !420, scopeLine: 732, flags: DIFlagProtected | DIFlagPrototyped, spFlags: 0)
!429 = !DISubprogram(name: "_M_leftmost", linkageName: "_ZNKSt8_Rb_treeIPcSt4pairIKS0_iESt10_Select1stIS3_EN11cStringPool7strlessESaIS3_EE11_M_leftmostEv", scope: !115, file: !34, line: 736, type: !425, scopeLine: 736, flags: DIFlagProtected | DIFlagPrototyped, spFlags: 0)
!430 = !DISubprogram(name: "_M_rightmost", linkageName: "_ZNSt8_Rb_treeIPcSt4pairIKS0_iESt10_Select1stIS3_EN11cStringPool7strlessESaIS3_EE12_M_rightmostEv", scope: !115, file: !34, line: 740, type: !420, scopeLine: 740, flags: DIFlagProtected | DIFlagPrototyped, spFlags: 0)
!431 = !DISubprogram(name: "_M_rightmost", linkageName: "_ZNKSt8_Rb_treeIPcSt4pairIKS0_iESt10_Select1stIS3_EN11cStringPool7strlessESaIS3_EE12_M_rightmostEv", scope: !115, file: !34, line: 744, type: !425, scopeLine: 744, flags: DIFlagProtected | DIFlagPrototyped, spFlags: 0)
!432 = !DISubprogram(name: "_M_begin", linkageName: "_ZNSt8_Rb_treeIPcSt4pairIKS0_iESt10_Select1stIS3_EN11cStringPool7strlessESaIS3_EE8_M_beginEv", scope: !115, file: !34, line: 748, type: !411, scopeLine: 748, flags: DIFlagProtected | DIFlagPrototyped, spFlags: 0)
!433 = !DISubprogram(name: "_M_begin", linkageName: "_ZNKSt8_Rb_treeIPcSt4pairIKS0_iESt10_Select1stIS3_EN11cStringPool7strlessESaIS3_EE8_M_beginEv", scope: !115, file: !34, line: 752, type: !434, scopeLine: 752, flags: DIFlagProtected | DIFlagPrototyped, spFlags: 0)
!434 = !DISubroutineType(types: !435)
!435 = !{!436, !404}
!436 = !DIDerivedType(tag: DW_TAG_typedef, name: "_Const_Link_type", scope: !115, file: !34, line: 451, baseType: !274)
!437 = !DISubprogram(name: "_M_end", linkageName: "_ZNSt8_Rb_treeIPcSt4pairIKS0_iESt10_Select1stIS3_EN11cStringPool7strlessESaIS3_EE6_M_endEv", scope: !115, file: !34, line: 759, type: !438, scopeLine: 759, flags: DIFlagProtected | DIFlagPrototyped, spFlags: 0)
!438 = !DISubroutineType(types: !439)
!439 = !{!423, !398}
!440 = !DISubprogram(name: "_M_end", linkageName: "_ZNKSt8_Rb_treeIPcSt4pairIKS0_iESt10_Select1stIS3_EN11cStringPool7strlessESaIS3_EE6_M_endEv", scope: !115, file: !34, line: 763, type: !425, scopeLine: 763, flags: DIFlagProtected | DIFlagPrototyped, spFlags: 0)
!441 = !DISubprogram(name: "_S_key", linkageName: "_ZNSt8_Rb_treeIPcSt4pairIKS0_iESt10_Select1stIS3_EN11cStringPool7strlessESaIS3_EE6_S_keyEPKSt13_Rb_tree_nodeIS3_E", scope: !115, file: !34, line: 767, type: !442, scopeLine: 767, flags: DIFlagProtected | DIFlagPrototyped | DIFlagStaticMember, spFlags: 0)
!442 = !DISubroutineType(types: !443)
!443 = !{!444, !436}
!444 = !DIDerivedType(tag: DW_TAG_reference_type, baseType: !445, size: 64)
!445 = !DIDerivedType(tag: DW_TAG_const_type, baseType: !446)
!446 = !DIDerivedType(tag: DW_TAG_pointer_type, baseType: !94, size: 64)
!447 = !DISubprogram(name: "_S_left", linkageName: "_ZNSt8_Rb_treeIPcSt4pairIKS0_iESt10_Select1stIS3_EN11cStringPool7strlessESaIS3_EE7_S_leftEPSt18_Rb_tree_node_base", scope: !115, file: !34, line: 789, type: !448, scopeLine: 789, flags: DIFlagProtected | DIFlagPrototyped | DIFlagStaticMember, spFlags: 0)
!448 = !DISubroutineType(types: !449)
!449 = !{!413, !423}
!450 = !DISubprogram(name: "_S_left", linkageName: "_ZNSt8_Rb_treeIPcSt4pairIKS0_iESt10_Select1stIS3_EN11cStringPool7strlessESaIS3_EE7_S_leftEPKSt18_Rb_tree_node_base", scope: !115, file: !34, line: 793, type: !451, scopeLine: 793, flags: DIFlagProtected | DIFlagPrototyped | DIFlagStaticMember, spFlags: 0)
!451 = !DISubroutineType(types: !452)
!452 = !{!436, !427}
!453 = !DISubprogram(name: "_S_right", linkageName: "_ZNSt8_Rb_treeIPcSt4pairIKS0_iESt10_Select1stIS3_EN11cStringPool7strlessESaIS3_EE8_S_rightEPSt18_Rb_tree_node_base", scope: !115, file: !34, line: 797, type: !448, scopeLine: 797, flags: DIFlagProtected | DIFlagPrototyped | DIFlagStaticMember, spFlags: 0)
!454 = !DISubprogram(name: "_S_right", linkageName: "_ZNSt8_Rb_treeIPcSt4pairIKS0_iESt10_Select1stIS3_EN11cStringPool7strlessESaIS3_EE8_S_rightEPKSt18_Rb_tree_node_base", scope: !115, file: !34, line: 801, type: !451, scopeLine: 801, flags: DIFlagProtected | DIFlagPrototyped | DIFlagStaticMember, spFlags: 0)
!455 = !DISubprogram(name: "_S_key", linkageName: "_ZNSt8_Rb_treeIPcSt4pairIKS0_iESt10_Select1stIS3_EN11cStringPool7strlessESaIS3_EE6_S_keyEPKSt18_Rb_tree_node_base", scope: !115, file: !34, line: 805, type: !456, scopeLine: 805, flags: DIFlagProtected | DIFlagPrototyped | DIFlagStaticMember, spFlags: 0)
!456 = !DISubroutineType(types: !457)
!457 = !{!444, !427}
!458 = !DISubprogram(name: "_S_minimum", linkageName: "_ZNSt8_Rb_treeIPcSt4pairIKS0_iESt10_Select1stIS3_EN11cStringPool7strlessESaIS3_EE10_S_minimumEPSt18_Rb_tree_node_base", scope: !115, file: !34, line: 809, type: !459, scopeLine: 809, flags: DIFlagProtected | DIFlagPrototyped | DIFlagStaticMember, spFlags: 0)
!459 = !DISubroutineType(types: !460)
!460 = !{!461, !423}
!461 = !DIDerivedType(tag: DW_TAG_typedef, name: "_Base_ptr", scope: !115, file: !34, line: 448, baseType: !341)
!462 = !DISubprogram(name: "_S_minimum", linkageName: "_ZNSt8_Rb_treeIPcSt4pairIKS0_iESt10_Select1stIS3_EN11cStringPool7strlessESaIS3_EE10_S_minimumEPKSt18_Rb_tree_node_base", scope: !115, file: !34, line: 813, type: !463, scopeLine: 813, flags: DIFlagProtected | DIFlagPrototyped | DIFlagStaticMember, spFlags: 0)
!463 = !DISubroutineType(types: !464)
!464 = !{!465, !427}
!465 = !DIDerivedType(tag: DW_TAG_typedef, name: "_Const_Base_ptr", scope: !115, file: !34, line: 449, baseType: !351)
!466 = !DISubprogram(name: "_S_maximum", linkageName: "_ZNSt8_Rb_treeIPcSt4pairIKS0_iESt10_Select1stIS3_EN11cStringPool7strlessESaIS3_EE10_S_maximumEPSt18_Rb_tree_node_base", scope: !115, file: !34, line: 817, type: !459, scopeLine: 817, flags: DIFlagProtected | DIFlagPrototyped | DIFlagStaticMember, spFlags: 0)
!467 = !DISubprogram(name: "_S_maximum", linkageName: "_ZNSt8_Rb_treeIPcSt4pairIKS0_iESt10_Select1stIS3_EN11cStringPool7strlessESaIS3_EE10_S_maximumEPKSt18_Rb_tree_node_base", scope: !115, file: !34, line: 821, type: !463, scopeLine: 821, flags: DIFlagProtected | DIFlagPrototyped | DIFlagStaticMember, spFlags: 0)
!468 = !DISubprogram(name: "_M_get_insert_unique_pos", linkageName: "_ZNSt8_Rb_treeIPcSt4pairIKS0_iESt10_Select1stIS3_EN11cStringPool7strlessESaIS3_EE24_M_get_insert_unique_posERS2_", scope: !115, file: !34, line: 839, type: !469, scopeLine: 839, flags: DIFlagPublic | DIFlagPrototyped, spFlags: 0)
!469 = !DISubroutineType(types: !470)
!470 = !{!471, !398, !534}
!471 = distinct !DICompositeType(tag: DW_TAG_structure_type, name: "pair<std::_Rb_tree_node_base *, std::_Rb_tree_node_base *>", scope: !2, file: !138, line: 211, size: 128, flags: DIFlagTypePassByValue | DIFlagNonTrivial, elements: !472, templateParams: !531, identifier: "_ZTSSt4pairIPSt18_Rb_tree_node_baseS1_E")
!472 = !{!473, !493, !494, !495, !501, !505, !519, !528}
!473 = !DIDerivedType(tag: DW_TAG_inheritance, scope: !471, baseType: !474, flags: DIFlagPrivate, extraData: i32 0)
!474 = distinct !DICompositeType(tag: DW_TAG_class_type, name: "__pair_base<std::_Rb_tree_node_base *, std::_Rb_tree_node_base *>", scope: !2, file: !138, line: 189, size: 8, flags: DIFlagTypePassByValue, elements: !475, templateParams: !490, identifier: "_ZTSSt11__pair_baseIPSt18_Rb_tree_node_baseS1_E")
!475 = !{!476, !480, !481, !486}
!476 = !DISubprogram(name: "__pair_base", scope: !474, file: !138, line: 193, type: !477, scopeLine: 193, flags: DIFlagPrototyped, spFlags: 0)
!477 = !DISubroutineType(types: !478)
!478 = !{null, !479}
!479 = !DIDerivedType(tag: DW_TAG_pointer_type, baseType: !474, size: 64, flags: DIFlagArtificial | DIFlagObjectPointer)
!480 = !DISubprogram(name: "~__pair_base", scope: !474, file: !138, line: 194, type: !477, scopeLine: 194, flags: DIFlagPrototyped, spFlags: 0)
!481 = !DISubprogram(name: "__pair_base", scope: !474, file: !138, line: 195, type: !482, scopeLine: 195, flags: DIFlagPrototyped, spFlags: 0)
!482 = !DISubroutineType(types: !483)
!483 = !{null, !479, !484}
!484 = !DIDerivedType(tag: DW_TAG_reference_type, baseType: !485, size: 64)
!485 = !DIDerivedType(tag: DW_TAG_const_type, baseType: !474)
!486 = !DISubprogram(name: "operator=", linkageName: "_ZNSt11__pair_baseIPSt18_Rb_tree_node_baseS1_EaSERKS2_", scope: !474, file: !138, line: 196, type: !487, scopeLine: 196, flags: DIFlagPrototyped, spFlags: DISPFlagDeleted)
!487 = !DISubroutineType(types: !488)
!488 = !{!489, !479, !484}
!489 = !DIDerivedType(tag: DW_TAG_reference_type, baseType: !474, size: 64)
!490 = !{!491, !492}
!491 = !DITemplateTypeParameter(name: "_U1", type: !341)
!492 = !DITemplateTypeParameter(name: "_U2", type: !341)
!493 = !DIDerivedType(tag: DW_TAG_member, name: "first", scope: !471, file: !138, line: 217, baseType: !341, size: 64)
!494 = !DIDerivedType(tag: DW_TAG_member, name: "second", scope: !471, file: !138, line: 218, baseType: !341, size: 64, offset: 64)
!495 = !DISubprogram(name: "pair", scope: !471, file: !138, line: 314, type: !496, scopeLine: 314, flags: DIFlagPrototyped, spFlags: 0)
!496 = !DISubroutineType(types: !497)
!497 = !{null, !498, !499}
!498 = !DIDerivedType(tag: DW_TAG_pointer_type, baseType: !471, size: 64, flags: DIFlagArtificial | DIFlagObjectPointer)
!499 = !DIDerivedType(tag: DW_TAG_reference_type, baseType: !500, size: 64)
!500 = !DIDerivedType(tag: DW_TAG_const_type, baseType: !471)
!501 = !DISubprogram(name: "pair", scope: !471, file: !138, line: 315, type: !502, scopeLine: 315, flags: DIFlagPrototyped, spFlags: 0)
!502 = !DISubroutineType(types: !503)
!503 = !{null, !498, !504}
!504 = !DIDerivedType(tag: DW_TAG_rvalue_reference_type, baseType: !471, size: 64)
!505 = !DISubprogram(name: "operator=", linkageName: "_ZNSt4pairIPSt18_Rb_tree_node_baseS1_EaSERKS2_", scope: !471, file: !138, line: 390, type: !506, scopeLine: 390, flags: DIFlagPrototyped, spFlags: 0)
!506 = !DISubroutineType(types: !507)
!507 = !{!508, !498, !509}
!508 = !DIDerivedType(tag: DW_TAG_reference_type, baseType: !471, size: 64)
!509 = !DIDerivedType(tag: DW_TAG_typedef, name: "type", scope: !511, file: !510, line: 2201, baseType: !499)
!510 = !DIFile(filename: "/usr/lib/gcc/x86_64-linux-gnu/10/../../../../include/c++/10/type_traits", directory: "")
!511 = distinct !DICompositeType(tag: DW_TAG_structure_type, name: "conditional<true, const std::pair<std::_Rb_tree_node_base *, std::_Rb_tree_node_base *> &, const std::__nonesuch &>", scope: !2, file: !510, line: 2200, size: 8, flags: DIFlagTypePassByValue, elements: !241, templateParams: !512, identifier: "_ZTSSt11conditionalILb1ERKSt4pairIPSt18_Rb_tree_node_baseS2_ERKSt10__nonesuchE")
!512 = !{!513, !514, !515}
!513 = !DITemplateValueParameter(name: "_Cond", type: !13, value: i8 1)
!514 = !DITemplateTypeParameter(name: "_Iftrue", type: !499)
!515 = !DITemplateTypeParameter(name: "_Iffalse", type: !516)
!516 = !DIDerivedType(tag: DW_TAG_reference_type, baseType: !517, size: 64)
!517 = !DIDerivedType(tag: DW_TAG_const_type, baseType: !518)
!518 = !DICompositeType(tag: DW_TAG_structure_type, name: "__nonesuch", scope: !2, file: !510, line: 2939, flags: DIFlagFwdDecl, identifier: "_ZTSSt10__nonesuch")
!519 = !DISubprogram(name: "operator=", linkageName: "_ZNSt4pairIPSt18_Rb_tree_node_baseS1_EaSEOS2_", scope: !471, file: !138, line: 401, type: !520, scopeLine: 401, flags: DIFlagPrototyped, spFlags: 0)
!520 = !DISubroutineType(types: !521)
!521 = !{!508, !498, !522}
!522 = !DIDerivedType(tag: DW_TAG_typedef, name: "type", scope: !523, file: !510, line: 2201, baseType: !504)
!523 = distinct !DICompositeType(tag: DW_TAG_structure_type, name: "conditional<true, std::pair<std::_Rb_tree_node_base *, std::_Rb_tree_node_base *> &&, std::__nonesuch &&>", scope: !2, file: !510, line: 2200, size: 8, flags: DIFlagTypePassByValue, elements: !241, templateParams: !524, identifier: "_ZTSSt11conditionalILb1EOSt4pairIPSt18_Rb_tree_node_baseS2_EOSt10__nonesuchE")
!524 = !{!513, !525, !526}
!525 = !DITemplateTypeParameter(name: "_Iftrue", type: !504)
!526 = !DITemplateTypeParameter(name: "_Iffalse", type: !527)
!527 = !DIDerivedType(tag: DW_TAG_rvalue_reference_type, baseType: !518, size: 64)
!528 = !DISubprogram(name: "swap", linkageName: "_ZNSt4pairIPSt18_Rb_tree_node_baseS1_E4swapERS2_", scope: !471, file: !138, line: 439, type: !529, scopeLine: 439, flags: DIFlagPrototyped, spFlags: 0)
!529 = !DISubroutineType(types: !530)
!530 = !{null, !498, !508}
!531 = !{!532, !533}
!532 = !DITemplateTypeParameter(name: "_T1", type: !341)
!533 = !DITemplateTypeParameter(name: "_T2", type: !341)
!534 = !DIDerivedType(tag: DW_TAG_reference_type, baseType: !535, size: 64)
!535 = !DIDerivedType(tag: DW_TAG_const_type, baseType: !536)
!536 = !DIDerivedType(tag: DW_TAG_typedef, name: "key_type", scope: !115, file: !34, line: 559, baseType: !446)
!537 = !DISubprogram(name: "_M_get_insert_equal_pos", linkageName: "_ZNSt8_Rb_treeIPcSt4pairIKS0_iESt10_Select1stIS3_EN11cStringPool7strlessESaIS3_EE23_M_get_insert_equal_posERS2_", scope: !115, file: !34, line: 842, type: !469, scopeLine: 842, flags: DIFlagPublic | DIFlagPrototyped, spFlags: 0)
!538 = !DISubprogram(name: "_M_get_insert_hint_unique_pos", linkageName: "_ZNSt8_Rb_treeIPcSt4pairIKS0_iESt10_Select1stIS3_EN11cStringPool7strlessESaIS3_EE29_M_get_insert_hint_unique_posESt23_Rb_tree_const_iteratorIS3_ERS2_", scope: !115, file: !34, line: 845, type: !539, scopeLine: 845, flags: DIFlagPublic | DIFlagPrototyped, spFlags: 0)
!539 = !DISubroutineType(types: !540)
!540 = !{!471, !398, !541, !534}
!541 = !DIDerivedType(tag: DW_TAG_typedef, name: "const_iterator", scope: !115, file: !34, line: 826, baseType: !542)
!542 = !DICompositeType(tag: DW_TAG_structure_type, name: "_Rb_tree_const_iterator<std::pair<char *const, int> >", scope: !2, file: !34, line: 328, flags: DIFlagFwdDecl, identifier: "_ZTSSt23_Rb_tree_const_iteratorISt4pairIKPciEE")
!543 = !DISubprogram(name: "_M_get_insert_hint_equal_pos", linkageName: "_ZNSt8_Rb_treeIPcSt4pairIKS0_iESt10_Select1stIS3_EN11cStringPool7strlessESaIS3_EE28_M_get_insert_hint_equal_posESt23_Rb_tree_const_iteratorIS3_ERS2_", scope: !115, file: !34, line: 849, type: !539, scopeLine: 849, flags: DIFlagPublic | DIFlagPrototyped, spFlags: 0)
!544 = !DISubprogram(name: "_M_insert_node", linkageName: "_ZNSt8_Rb_treeIPcSt4pairIKS0_iESt10_Select1stIS3_EN11cStringPool7strlessESaIS3_EE14_M_insert_nodeEPSt18_Rb_tree_node_baseSB_PSt13_Rb_tree_nodeIS3_E", scope: !115, file: !34, line: 859, type: !545, scopeLine: 859, flags: DIFlagPrototyped, spFlags: 0)
!545 = !DISubroutineType(types: !546)
!546 = !{!547, !398, !423, !423, !413}
!547 = !DIDerivedType(tag: DW_TAG_typedef, name: "iterator", scope: !115, file: !34, line: 825, baseType: !548)
!548 = !DICompositeType(tag: DW_TAG_structure_type, name: "_Rb_tree_iterator<std::pair<char *const, int> >", scope: !2, file: !34, line: 256, flags: DIFlagFwdDecl, identifier: "_ZTSSt17_Rb_tree_iteratorISt4pairIKPciEE")
!549 = !DISubprogram(name: "_M_insert_lower_node", linkageName: "_ZNSt8_Rb_treeIPcSt4pairIKS0_iESt10_Select1stIS3_EN11cStringPool7strlessESaIS3_EE20_M_insert_lower_nodeEPSt18_Rb_tree_node_basePSt13_Rb_tree_nodeIS3_E", scope: !115, file: !34, line: 870, type: !550, scopeLine: 870, flags: DIFlagPrototyped, spFlags: 0)
!550 = !DISubroutineType(types: !551)
!551 = !{!547, !398, !423, !413}
!552 = !DISubprogram(name: "_M_insert_equal_lower_node", linkageName: "_ZNSt8_Rb_treeIPcSt4pairIKS0_iESt10_Select1stIS3_EN11cStringPool7strlessESaIS3_EE26_M_insert_equal_lower_nodeEPSt13_Rb_tree_nodeIS3_E", scope: !115, file: !34, line: 873, type: !553, scopeLine: 873, flags: DIFlagPrototyped, spFlags: 0)
!553 = !DISubroutineType(types: !554)
!554 = !{!547, !398, !413}
!555 = !DISubprogram(name: "_M_copy", linkageName: "_ZNSt8_Rb_treeIPcSt4pairIKS0_iESt10_Select1stIS3_EN11cStringPool7strlessESaIS3_EE7_M_copyERKS9_", scope: !115, file: !34, line: 905, type: !556, scopeLine: 905, flags: DIFlagPrototyped, spFlags: 0)
!556 = !DISubroutineType(types: !557)
!557 = !{!413, !398, !558}
!558 = !DIDerivedType(tag: DW_TAG_reference_type, baseType: !405, size: 64)
!559 = !DISubprogram(name: "_M_erase", linkageName: "_ZNSt8_Rb_treeIPcSt4pairIKS0_iESt10_Select1stIS3_EN11cStringPool7strlessESaIS3_EE8_M_eraseEPSt13_Rb_tree_nodeIS3_E", scope: !115, file: !34, line: 912, type: !415, scopeLine: 912, flags: DIFlagPrototyped, spFlags: 0)
!560 = !DISubprogram(name: "_M_lower_bound", linkageName: "_ZNSt8_Rb_treeIPcSt4pairIKS0_iESt10_Select1stIS3_EN11cStringPool7strlessESaIS3_EE14_M_lower_boundEPSt13_Rb_tree_nodeIS3_EPSt18_Rb_tree_node_baseRS2_", scope: !115, file: !34, line: 915, type: !561, scopeLine: 915, flags: DIFlagPrototyped, spFlags: 0)
!561 = !DISubroutineType(types: !562)
!562 = !{!547, !398, !413, !423, !444}
!563 = !DISubprogram(name: "_M_lower_bound", linkageName: "_ZNKSt8_Rb_treeIPcSt4pairIKS0_iESt10_Select1stIS3_EN11cStringPool7strlessESaIS3_EE14_M_lower_boundEPKSt13_Rb_tree_nodeIS3_EPKSt18_Rb_tree_node_baseRS2_", scope: !115, file: !34, line: 919, type: !564, scopeLine: 919, flags: DIFlagPrototyped, spFlags: 0)
!564 = !DISubroutineType(types: !565)
!565 = !{!541, !404, !436, !427, !444}
!566 = !DISubprogram(name: "_M_upper_bound", linkageName: "_ZNSt8_Rb_treeIPcSt4pairIKS0_iESt10_Select1stIS3_EN11cStringPool7strlessESaIS3_EE14_M_upper_boundEPSt13_Rb_tree_nodeIS3_EPSt18_Rb_tree_node_baseRS2_", scope: !115, file: !34, line: 923, type: !561, scopeLine: 923, flags: DIFlagPrototyped, spFlags: 0)
!567 = !DISubprogram(name: "_M_upper_bound", linkageName: "_ZNKSt8_Rb_treeIPcSt4pairIKS0_iESt10_Select1stIS3_EN11cStringPool7strlessESaIS3_EE14_M_upper_boundEPKSt13_Rb_tree_nodeIS3_EPKSt18_Rb_tree_node_baseRS2_", scope: !115, file: !34, line: 927, type: !564, scopeLine: 927, flags: DIFlagPrototyped, spFlags: 0)
!568 = !DISubprogram(name: "_Rb_tree", scope: !115, file: !34, line: 935, type: !569, scopeLine: 935, flags: DIFlagPublic | DIFlagPrototyped, spFlags: 0)
!569 = !DISubroutineType(types: !570)
!570 = !{null, !398}
!571 = !DISubprogram(name: "_Rb_tree", scope: !115, file: !34, line: 938, type: !572, scopeLine: 938, flags: DIFlagPublic | DIFlagPrototyped, spFlags: 0)
!572 = !DISubroutineType(types: !573)
!573 = !{null, !398, !320, !574}
!574 = !DIDerivedType(tag: DW_TAG_reference_type, baseType: !575, size: 64)
!575 = !DIDerivedType(tag: DW_TAG_const_type, baseType: !409)
!576 = !DISubprogram(name: "_Rb_tree", scope: !115, file: !34, line: 942, type: !577, scopeLine: 942, flags: DIFlagPublic | DIFlagPrototyped, spFlags: 0)
!577 = !DISubroutineType(types: !578)
!578 = !{null, !398, !558}
!579 = !DISubprogram(name: "_Rb_tree", scope: !115, file: !34, line: 950, type: !580, scopeLine: 950, flags: DIFlagPublic | DIFlagPrototyped, spFlags: 0)
!580 = !DISubroutineType(types: !581)
!581 = !{null, !398, !574}
!582 = !DISubprogram(name: "_Rb_tree", scope: !115, file: !34, line: 954, type: !583, scopeLine: 954, flags: DIFlagPublic | DIFlagPrototyped, spFlags: 0)
!583 = !DISubroutineType(types: !584)
!584 = !{null, !398, !558, !574}
!585 = !DISubprogram(name: "_Rb_tree", scope: !115, file: !34, line: 961, type: !586, scopeLine: 961, flags: DIFlagPublic | DIFlagPrototyped, spFlags: 0)
!586 = !DISubroutineType(types: !587)
!587 = !{null, !398, !588}
!588 = !DIDerivedType(tag: DW_TAG_rvalue_reference_type, baseType: !115, size: 64)
!589 = !DISubprogram(name: "_Rb_tree", scope: !115, file: !34, line: 963, type: !590, scopeLine: 963, flags: DIFlagPublic | DIFlagPrototyped, spFlags: 0)
!590 = !DISubroutineType(types: !591)
!591 = !{null, !398, !588, !574}
!592 = !DISubprogram(name: "_Rb_tree", scope: !115, file: !34, line: 968, type: !593, scopeLine: 968, flags: DIFlagPrototyped, spFlags: 0)
!593 = !DISubroutineType(types: !594)
!594 = !{null, !398, !588, !385, !595}
!595 = !DIDerivedType(tag: DW_TAG_typedef, name: "true_type", scope: !2, file: !510, line: 75, baseType: !596)
!596 = distinct !DICompositeType(tag: DW_TAG_structure_type, name: "integral_constant<bool, true>", scope: !2, file: !510, line: 57, size: 8, flags: DIFlagTypePassByValue, elements: !597, templateParams: !607, identifier: "_ZTSSt17integral_constantIbLb1EE")
!597 = !{!598, !600, !606}
!598 = !DIDerivedType(tag: DW_TAG_member, name: "value", scope: !596, file: !510, line: 59, baseType: !599, flags: DIFlagStaticMember, extraData: i1 true)
!599 = !DIDerivedType(tag: DW_TAG_const_type, baseType: !13)
!600 = !DISubprogram(name: "operator bool", linkageName: "_ZNKSt17integral_constantIbLb1EEcvbEv", scope: !596, file: !510, line: 62, type: !601, scopeLine: 62, flags: DIFlagPrototyped, spFlags: 0)
!601 = !DISubroutineType(types: !602)
!602 = !{!603, !604}
!603 = !DIDerivedType(tag: DW_TAG_typedef, name: "value_type", scope: !596, file: !510, line: 60, baseType: !13)
!604 = !DIDerivedType(tag: DW_TAG_pointer_type, baseType: !605, size: 64, flags: DIFlagArtificial | DIFlagObjectPointer)
!605 = !DIDerivedType(tag: DW_TAG_const_type, baseType: !596)
!606 = !DISubprogram(name: "operator()", linkageName: "_ZNKSt17integral_constantIbLb1EEclEv", scope: !596, file: !510, line: 67, type: !601, scopeLine: 67, flags: DIFlagPrototyped, spFlags: 0)
!607 = !{!608, !609}
!608 = !DITemplateTypeParameter(name: "_Tp", type: !13)
!609 = !DITemplateValueParameter(name: "__v", type: !13, value: i8 1)
!610 = !DISubprogram(name: "_Rb_tree", scope: !115, file: !34, line: 973, type: !611, scopeLine: 973, flags: DIFlagPrototyped, spFlags: 0)
!611 = !DISubroutineType(types: !612)
!612 = !{null, !398, !588, !385, !613}
!613 = !DIDerivedType(tag: DW_TAG_typedef, name: "false_type", scope: !2, file: !510, line: 78, baseType: !614)
!614 = distinct !DICompositeType(tag: DW_TAG_structure_type, name: "integral_constant<bool, false>", scope: !2, file: !510, line: 57, size: 8, flags: DIFlagTypePassByValue, elements: !615, templateParams: !624, identifier: "_ZTSSt17integral_constantIbLb0EE")
!615 = !{!616, !617, !623}
!616 = !DIDerivedType(tag: DW_TAG_member, name: "value", scope: !614, file: !510, line: 59, baseType: !599, flags: DIFlagStaticMember, extraData: i1 false)
!617 = !DISubprogram(name: "operator bool", linkageName: "_ZNKSt17integral_constantIbLb0EEcvbEv", scope: !614, file: !510, line: 62, type: !618, scopeLine: 62, flags: DIFlagPrototyped, spFlags: 0)
!618 = !DISubroutineType(types: !619)
!619 = !{!620, !621}
!620 = !DIDerivedType(tag: DW_TAG_typedef, name: "value_type", scope: !614, file: !510, line: 60, baseType: !13)
!621 = !DIDerivedType(tag: DW_TAG_pointer_type, baseType: !622, size: 64, flags: DIFlagArtificial | DIFlagObjectPointer)
!622 = !DIDerivedType(tag: DW_TAG_const_type, baseType: !614)
!623 = !DISubprogram(name: "operator()", linkageName: "_ZNKSt17integral_constantIbLb0EEclEv", scope: !614, file: !510, line: 67, type: !618, scopeLine: 67, flags: DIFlagPrototyped, spFlags: 0)
!624 = !{!608, !625}
!625 = !DITemplateValueParameter(name: "__v", type: !13, value: i8 0)
!626 = !DISubprogram(name: "_Rb_tree", scope: !115, file: !34, line: 981, type: !627, scopeLine: 981, flags: DIFlagPublic | DIFlagPrototyped, spFlags: 0)
!627 = !DISubroutineType(types: !628)
!628 = !{null, !398, !588, !385}
!629 = !DISubprogram(name: "~_Rb_tree", scope: !115, file: !34, line: 990, type: !569, scopeLine: 990, flags: DIFlagPublic | DIFlagPrototyped, spFlags: 0)
!630 = !DISubprogram(name: "operator=", linkageName: "_ZNSt8_Rb_treeIPcSt4pairIKS0_iESt10_Select1stIS3_EN11cStringPool7strlessESaIS3_EEaSERKS9_", scope: !115, file: !34, line: 994, type: !631, scopeLine: 994, flags: DIFlagPublic | DIFlagPrototyped, spFlags: 0)
!631 = !DISubroutineType(types: !632)
!632 = !{!633, !398, !558}
!633 = !DIDerivedType(tag: DW_TAG_reference_type, baseType: !115, size: 64)
!634 = !DISubprogram(name: "key_comp", linkageName: "_ZNKSt8_Rb_treeIPcSt4pairIKS0_iESt10_Select1stIS3_EN11cStringPool7strlessESaIS3_EE8key_compEv", scope: !115, file: !34, line: 998, type: !635, scopeLine: 998, flags: DIFlagPublic | DIFlagPrototyped, spFlags: 0)
!635 = !DISubroutineType(types: !636)
!636 = !{!306, !404}
!637 = !DISubprogram(name: "begin", linkageName: "_ZNSt8_Rb_treeIPcSt4pairIKS0_iESt10_Select1stIS3_EN11cStringPool7strlessESaIS3_EE5beginEv", scope: !115, file: !34, line: 1002, type: !638, scopeLine: 1002, flags: DIFlagPublic | DIFlagPrototyped, spFlags: 0)
!638 = !DISubroutineType(types: !639)
!639 = !{!547, !398}
!640 = !DISubprogram(name: "begin", linkageName: "_ZNKSt8_Rb_treeIPcSt4pairIKS0_iESt10_Select1stIS3_EN11cStringPool7strlessESaIS3_EE5beginEv", scope: !115, file: !34, line: 1006, type: !641, scopeLine: 1006, flags: DIFlagPublic | DIFlagPrototyped, spFlags: 0)
!641 = !DISubroutineType(types: !642)
!642 = !{!541, !404}
!643 = !DISubprogram(name: "end", linkageName: "_ZNSt8_Rb_treeIPcSt4pairIKS0_iESt10_Select1stIS3_EN11cStringPool7strlessESaIS3_EE3endEv", scope: !115, file: !34, line: 1010, type: !638, scopeLine: 1010, flags: DIFlagPublic | DIFlagPrototyped, spFlags: 0)
!644 = !DISubprogram(name: "end", linkageName: "_ZNKSt8_Rb_treeIPcSt4pairIKS0_iESt10_Select1stIS3_EN11cStringPool7strlessESaIS3_EE3endEv", scope: !115, file: !34, line: 1014, type: !641, scopeLine: 1014, flags: DIFlagPublic | DIFlagPrototyped, spFlags: 0)
!645 = !DISubprogram(name: "rbegin", linkageName: "_ZNSt8_Rb_treeIPcSt4pairIKS0_iESt10_Select1stIS3_EN11cStringPool7strlessESaIS3_EE6rbeginEv", scope: !115, file: !34, line: 1018, type: !646, scopeLine: 1018, flags: DIFlagPublic | DIFlagPrototyped, spFlags: 0)
!646 = !DISubroutineType(types: !647)
!647 = !{!648, !398}
!648 = !DIDerivedType(tag: DW_TAG_typedef, name: "reverse_iterator", scope: !115, file: !34, line: 828, baseType: !649)
!649 = !DICompositeType(tag: DW_TAG_class_type, name: "reverse_iterator<std::_Rb_tree_iterator<std::pair<char *const, int> > >", scope: !2, file: !650, line: 125, flags: DIFlagFwdDecl, identifier: "_ZTSSt16reverse_iteratorISt17_Rb_tree_iteratorISt4pairIKPciEEE")
!650 = !DIFile(filename: "/usr/lib/gcc/x86_64-linux-gnu/10/../../../../include/c++/10/bits/stl_iterator.h", directory: "")
!651 = !DISubprogram(name: "rbegin", linkageName: "_ZNKSt8_Rb_treeIPcSt4pairIKS0_iESt10_Select1stIS3_EN11cStringPool7strlessESaIS3_EE6rbeginEv", scope: !115, file: !34, line: 1022, type: !652, scopeLine: 1022, flags: DIFlagPublic | DIFlagPrototyped, spFlags: 0)
!652 = !DISubroutineType(types: !653)
!653 = !{!654, !404}
!654 = !DIDerivedType(tag: DW_TAG_typedef, name: "const_reverse_iterator", scope: !115, file: !34, line: 829, baseType: !655)
!655 = !DICompositeType(tag: DW_TAG_class_type, name: "reverse_iterator<std::_Rb_tree_const_iterator<std::pair<char *const, int> > >", scope: !2, file: !650, line: 125, flags: DIFlagFwdDecl, identifier: "_ZTSSt16reverse_iteratorISt23_Rb_tree_const_iteratorISt4pairIKPciEEE")
!656 = !DISubprogram(name: "rend", linkageName: "_ZNSt8_Rb_treeIPcSt4pairIKS0_iESt10_Select1stIS3_EN11cStringPool7strlessESaIS3_EE4rendEv", scope: !115, file: !34, line: 1026, type: !646, scopeLine: 1026, flags: DIFlagPublic | DIFlagPrototyped, spFlags: 0)
!657 = !DISubprogram(name: "rend", linkageName: "_ZNKSt8_Rb_treeIPcSt4pairIKS0_iESt10_Select1stIS3_EN11cStringPool7strlessESaIS3_EE4rendEv", scope: !115, file: !34, line: 1030, type: !652, scopeLine: 1030, flags: DIFlagPublic | DIFlagPrototyped, spFlags: 0)
!658 = !DISubprogram(name: "empty", linkageName: "_ZNKSt8_Rb_treeIPcSt4pairIKS0_iESt10_Select1stIS3_EN11cStringPool7strlessESaIS3_EE5emptyEv", scope: !115, file: !34, line: 1034, type: !659, scopeLine: 1034, flags: DIFlagPublic | DIFlagPrototyped, spFlags: 0)
!659 = !DISubroutineType(types: !660)
!660 = !{!13, !404}
!661 = !DISubprogram(name: "size", linkageName: "_ZNKSt8_Rb_treeIPcSt4pairIKS0_iESt10_Select1stIS3_EN11cStringPool7strlessESaIS3_EE4sizeEv", scope: !115, file: !34, line: 1038, type: !662, scopeLine: 1038, flags: DIFlagPublic | DIFlagPrototyped, spFlags: 0)
!662 = !DISubroutineType(types: !663)
!663 = !{!664, !404}
!664 = !DIDerivedType(tag: DW_TAG_typedef, name: "size_type", file: !34, line: 565, baseType: !179)
!665 = !DISubprogram(name: "max_size", linkageName: "_ZNKSt8_Rb_treeIPcSt4pairIKS0_iESt10_Select1stIS3_EN11cStringPool7strlessESaIS3_EE8max_sizeEv", scope: !115, file: !34, line: 1042, type: !662, scopeLine: 1042, flags: DIFlagPublic | DIFlagPrototyped, spFlags: 0)
!666 = !DISubprogram(name: "swap", linkageName: "_ZNSt8_Rb_treeIPcSt4pairIKS0_iESt10_Select1stIS3_EN11cStringPool7strlessESaIS3_EE4swapERS9_", scope: !115, file: !34, line: 1046, type: !667, scopeLine: 1046, flags: DIFlagPublic | DIFlagPrototyped, spFlags: 0)
!667 = !DISubroutineType(types: !668)
!668 = !{null, !398, !633}
!669 = !DISubprogram(name: "_M_erase_aux", linkageName: "_ZNSt8_Rb_treeIPcSt4pairIKS0_iESt10_Select1stIS3_EN11cStringPool7strlessESaIS3_EE12_M_erase_auxESt23_Rb_tree_const_iteratorIS3_E", scope: !115, file: !34, line: 1188, type: !670, scopeLine: 1188, flags: DIFlagPrototyped, spFlags: 0)
!670 = !DISubroutineType(types: !671)
!671 = !{null, !398, !541}
!672 = !DISubprogram(name: "_M_erase_aux", linkageName: "_ZNSt8_Rb_treeIPcSt4pairIKS0_iESt10_Select1stIS3_EN11cStringPool7strlessESaIS3_EE12_M_erase_auxESt23_Rb_tree_const_iteratorIS3_ESB_", scope: !115, file: !34, line: 1191, type: !673, scopeLine: 1191, flags: DIFlagPrototyped, spFlags: 0)
!673 = !DISubroutineType(types: !674)
!674 = !{null, !398, !541, !541}
!675 = !DISubprogram(name: "erase", linkageName: "_ZNSt8_Rb_treeIPcSt4pairIKS0_iESt10_Select1stIS3_EN11cStringPool7strlessESaIS3_EE5eraseB5cxx11ESt23_Rb_tree_const_iteratorIS3_E", scope: !115, file: !34, line: 1199, type: !676, scopeLine: 1199, flags: DIFlagPublic | DIFlagPrototyped, spFlags: 0)
!676 = !DISubroutineType(types: !677)
!677 = !{!547, !398, !541}
!678 = !DISubprogram(name: "erase", linkageName: "_ZNSt8_Rb_treeIPcSt4pairIKS0_iESt10_Select1stIS3_EN11cStringPool7strlessESaIS3_EE5eraseB5cxx11ESt17_Rb_tree_iteratorIS3_E", scope: !115, file: !34, line: 1211, type: !679, scopeLine: 1211, flags: DIFlagPublic | DIFlagPrototyped, spFlags: 0)
!679 = !DISubroutineType(types: !680)
!680 = !{!547, !398, !547}
!681 = !DISubprogram(name: "erase", linkageName: "_ZNSt8_Rb_treeIPcSt4pairIKS0_iESt10_Select1stIS3_EN11cStringPool7strlessESaIS3_EE5eraseERS2_", scope: !115, file: !34, line: 1236, type: !682, scopeLine: 1236, flags: DIFlagPublic | DIFlagPrototyped, spFlags: 0)
!682 = !DISubroutineType(types: !683)
!683 = !{!684, !398, !534}
!684 = !DIDerivedType(tag: DW_TAG_typedef, name: "size_type", scope: !115, file: !34, line: 565, baseType: !179)
!685 = !DISubprogram(name: "erase", linkageName: "_ZNSt8_Rb_treeIPcSt4pairIKS0_iESt10_Select1stIS3_EN11cStringPool7strlessESaIS3_EE5eraseB5cxx11ESt23_Rb_tree_const_iteratorIS3_ESB_", scope: !115, file: !34, line: 1243, type: !686, scopeLine: 1243, flags: DIFlagPublic | DIFlagPrototyped, spFlags: 0)
!686 = !DISubroutineType(types: !687)
!687 = !{!547, !398, !541, !541}
!688 = !DISubprogram(name: "clear", linkageName: "_ZNSt8_Rb_treeIPcSt4pairIKS0_iESt10_Select1stIS3_EN11cStringPool7strlessESaIS3_EE5clearEv", scope: !115, file: !34, line: 1259, type: !569, scopeLine: 1259, flags: DIFlagPublic | DIFlagPrototyped, spFlags: 0)
!689 = !DISubprogram(name: "find", linkageName: "_ZNSt8_Rb_treeIPcSt4pairIKS0_iESt10_Select1stIS3_EN11cStringPool7strlessESaIS3_EE4findERS2_", scope: !115, file: !34, line: 1267, type: !690, scopeLine: 1267, flags: DIFlagPublic | DIFlagPrototyped, spFlags: 0)
!690 = !DISubroutineType(types: !691)
!691 = !{!547, !398, !534}
!692 = !DISubprogram(name: "find", linkageName: "_ZNKSt8_Rb_treeIPcSt4pairIKS0_iESt10_Select1stIS3_EN11cStringPool7strlessESaIS3_EE4findERS2_", scope: !115, file: !34, line: 1270, type: !693, scopeLine: 1270, flags: DIFlagPublic | DIFlagPrototyped, spFlags: 0)
!693 = !DISubroutineType(types: !694)
!694 = !{!541, !404, !534}
!695 = !DISubprogram(name: "count", linkageName: "_ZNKSt8_Rb_treeIPcSt4pairIKS0_iESt10_Select1stIS3_EN11cStringPool7strlessESaIS3_EE5countERS2_", scope: !115, file: !34, line: 1273, type: !696, scopeLine: 1273, flags: DIFlagPublic | DIFlagPrototyped, spFlags: 0)
!696 = !DISubroutineType(types: !697)
!697 = !{!684, !404, !534}
!698 = !DISubprogram(name: "lower_bound", linkageName: "_ZNSt8_Rb_treeIPcSt4pairIKS0_iESt10_Select1stIS3_EN11cStringPool7strlessESaIS3_EE11lower_boundERS2_", scope: !115, file: !34, line: 1276, type: !690, scopeLine: 1276, flags: DIFlagPublic | DIFlagPrototyped, spFlags: 0)
!699 = !DISubprogram(name: "lower_bound", linkageName: "_ZNKSt8_Rb_treeIPcSt4pairIKS0_iESt10_Select1stIS3_EN11cStringPool7strlessESaIS3_EE11lower_boundERS2_", scope: !115, file: !34, line: 1280, type: !693, scopeLine: 1280, flags: DIFlagPublic | DIFlagPrototyped, spFlags: 0)
!700 = !DISubprogram(name: "upper_bound", linkageName: "_ZNSt8_Rb_treeIPcSt4pairIKS0_iESt10_Select1stIS3_EN11cStringPool7strlessESaIS3_EE11upper_boundERS2_", scope: !115, file: !34, line: 1284, type: !690, scopeLine: 1284, flags: DIFlagPublic | DIFlagPrototyped, spFlags: 0)
!701 = !DISubprogram(name: "upper_bound", linkageName: "_ZNKSt8_Rb_treeIPcSt4pairIKS0_iESt10_Select1stIS3_EN11cStringPool7strlessESaIS3_EE11upper_boundERS2_", scope: !115, file: !34, line: 1288, type: !693, scopeLine: 1288, flags: DIFlagPublic | DIFlagPrototyped, spFlags: 0)
!702 = !DISubprogram(name: "equal_range", linkageName: "_ZNSt8_Rb_treeIPcSt4pairIKS0_iESt10_Select1stIS3_EN11cStringPool7strlessESaIS3_EE11equal_rangeERS2_", scope: !115, file: !34, line: 1292, type: !703, scopeLine: 1292, flags: DIFlagPublic | DIFlagPrototyped, spFlags: 0)
!703 = !DISubroutineType(types: !704)
!704 = !{!705, !398, !534}
!705 = !DICompositeType(tag: DW_TAG_structure_type, name: "pair<std::_Rb_tree_iterator<std::pair<char *const, int> >, std::_Rb_tree_iterator<std::pair<char *const, int> > >", scope: !2, file: !138, line: 211, flags: DIFlagFwdDecl, identifier: "_ZTSSt4pairISt17_Rb_tree_iteratorIS_IKPciEES4_E")
!706 = !DISubprogram(name: "equal_range", linkageName: "_ZNKSt8_Rb_treeIPcSt4pairIKS0_iESt10_Select1stIS3_EN11cStringPool7strlessESaIS3_EE11equal_rangeERS2_", scope: !115, file: !34, line: 1295, type: !707, scopeLine: 1295, flags: DIFlagPublic | DIFlagPrototyped, spFlags: 0)
!707 = !DISubroutineType(types: !708)
!708 = !{!709, !404, !534}
!709 = !DICompositeType(tag: DW_TAG_structure_type, name: "pair<std::_Rb_tree_const_iterator<std::pair<char *const, int> >, std::_Rb_tree_const_iterator<std::pair<char *const, int> > >", scope: !2, file: !138, line: 211, flags: DIFlagFwdDecl, identifier: "_ZTSSt4pairISt23_Rb_tree_const_iteratorIS_IKPciEES4_E")
!710 = !DISubprogram(name: "__rb_verify", linkageName: "_ZNKSt8_Rb_treeIPcSt4pairIKS0_iESt10_Select1stIS3_EN11cStringPool7strlessESaIS3_EE11__rb_verifyEv", scope: !115, file: !34, line: 1407, type: !659, scopeLine: 1407, flags: DIFlagPublic | DIFlagPrototyped, spFlags: 0)
!711 = !DISubprogram(name: "operator=", linkageName: "_ZNSt8_Rb_treeIPcSt4pairIKS0_iESt10_Select1stIS3_EN11cStringPool7strlessESaIS3_EEaSEOS9_", scope: !115, file: !34, line: 1411, type: !712, scopeLine: 1411, flags: DIFlagPublic | DIFlagPrototyped, spFlags: 0)
!712 = !DISubroutineType(types: !713)
!713 = !{!633, !398, !588}
!714 = !DISubprogram(name: "_M_move_data", linkageName: "_ZNSt8_Rb_treeIPcSt4pairIKS0_iESt10_Select1stIS3_EN11cStringPool7strlessESaIS3_EE12_M_move_dataERS9_St17integral_constantIbLb1EE", scope: !115, file: !34, line: 1426, type: !715, scopeLine: 1426, flags: DIFlagPrototyped, spFlags: 0)
!715 = !DISubroutineType(types: !716)
!716 = !{null, !398, !633, !595}
!717 = !DISubprogram(name: "_M_move_data", linkageName: "_ZNSt8_Rb_treeIPcSt4pairIKS0_iESt10_Select1stIS3_EN11cStringPool7strlessESaIS3_EE12_M_move_dataERS9_St17integral_constantIbLb0EE", scope: !115, file: !34, line: 1432, type: !718, scopeLine: 1432, flags: DIFlagPrototyped, spFlags: 0)
!718 = !DISubroutineType(types: !719)
!719 = !{null, !398, !633, !613}
!720 = !DISubprogram(name: "_M_move_assign", linkageName: "_ZNSt8_Rb_treeIPcSt4pairIKS0_iESt10_Select1stIS3_EN11cStringPool7strlessESaIS3_EE14_M_move_assignERS9_St17integral_constantIbLb1EE", scope: !115, file: !34, line: 1436, type: !715, scopeLine: 1436, flags: DIFlagPrototyped, spFlags: 0)
!721 = !DISubprogram(name: "_M_move_assign", linkageName: "_ZNSt8_Rb_treeIPcSt4pairIKS0_iESt10_Select1stIS3_EN11cStringPool7strlessESaIS3_EE14_M_move_assignERS9_St17integral_constantIbLb0EE", scope: !115, file: !34, line: 1441, type: !718, scopeLine: 1441, flags: DIFlagPrototyped, spFlags: 0)
!722 = !{!723, !724, !725, !728, !225}
!723 = !DITemplateTypeParameter(name: "_Key", type: !446)
!724 = !DITemplateTypeParameter(name: "_Val", type: !137)
!725 = !DITemplateTypeParameter(name: "_KeyOfValue", type: !726)
!726 = !DICompositeType(tag: DW_TAG_structure_type, name: "_Select1st<std::pair<char *const, int> >", scope: !2, file: !727, line: 1147, flags: DIFlagFwdDecl, identifier: "_ZTSSt10_Select1stISt4pairIKPciEE")
!727 = !DIFile(filename: "/usr/lib/gcc/x86_64-linux-gnu/10/../../../../include/c++/10/bits/stl_function.h", directory: "")
!728 = !DITemplateTypeParameter(name: "_Compare", type: !306)
!729 = !DISubprogram(name: "map", scope: !110, file: !111, line: 185, type: !730, scopeLine: 185, flags: DIFlagPublic | DIFlagPrototyped, spFlags: 0)
!730 = !DISubroutineType(types: !731)
!731 = !{null, !732}
!732 = !DIDerivedType(tag: DW_TAG_pointer_type, baseType: !110, size: 64, flags: DIFlagArtificial | DIFlagObjectPointer)
!733 = !DISubprogram(name: "map", scope: !110, file: !111, line: 194, type: !734, scopeLine: 194, flags: DIFlagPublic | DIFlagExplicit | DIFlagPrototyped, spFlags: 0)
!734 = !DISubroutineType(types: !735)
!735 = !{null, !732, !320, !736}
!736 = !DIDerivedType(tag: DW_TAG_reference_type, baseType: !737, size: 64)
!737 = !DIDerivedType(tag: DW_TAG_const_type, baseType: !738)
!738 = !DIDerivedType(tag: DW_TAG_typedef, name: "allocator_type", scope: !110, file: !111, line: 107, baseType: !141)
!739 = !DISubprogram(name: "map", scope: !110, file: !111, line: 207, type: !740, scopeLine: 207, flags: DIFlagPublic | DIFlagPrototyped, spFlags: 0)
!740 = !DISubroutineType(types: !741)
!741 = !{null, !732, !742}
!742 = !DIDerivedType(tag: DW_TAG_reference_type, baseType: !743, size: 64)
!743 = !DIDerivedType(tag: DW_TAG_const_type, baseType: !110)
!744 = !DISubprogram(name: "map", scope: !110, file: !111, line: 215, type: !745, scopeLine: 215, flags: DIFlagPublic | DIFlagPrototyped, spFlags: 0)
!745 = !DISubroutineType(types: !746)
!746 = !{null, !732, !747}
!747 = !DIDerivedType(tag: DW_TAG_rvalue_reference_type, baseType: !110, size: 64)
!748 = !DISubprogram(name: "map", scope: !110, file: !111, line: 228, type: !749, scopeLine: 228, flags: DIFlagPublic | DIFlagPrototyped, spFlags: 0)
!749 = !DISubroutineType(types: !750)
!750 = !{null, !732, !751, !320, !736}
!751 = !DICompositeType(tag: DW_TAG_class_type, name: "initializer_list<std::pair<char *const, int> >", scope: !2, file: !752, line: 47, flags: DIFlagFwdDecl, identifier: "_ZTSSt16initializer_listISt4pairIKPciEE")
!752 = !DIFile(filename: "/usr/lib/gcc/x86_64-linux-gnu/10/../../../../include/c++/10/initializer_list", directory: "")
!753 = !DISubprogram(name: "map", scope: !110, file: !111, line: 236, type: !754, scopeLine: 236, flags: DIFlagPublic | DIFlagExplicit | DIFlagPrototyped, spFlags: 0)
!754 = !DISubroutineType(types: !755)
!755 = !{null, !732, !736}
!756 = !DISubprogram(name: "map", scope: !110, file: !111, line: 240, type: !757, scopeLine: 240, flags: DIFlagPublic | DIFlagPrototyped, spFlags: 0)
!757 = !DISubroutineType(types: !758)
!758 = !{null, !732, !742, !736}
!759 = !DISubprogram(name: "map", scope: !110, file: !111, line: 244, type: !760, scopeLine: 244, flags: DIFlagPublic | DIFlagPrototyped, spFlags: 0)
!760 = !DISubroutineType(types: !761)
!761 = !{null, !732, !747, !736}
!762 = !DISubprogram(name: "map", scope: !110, file: !111, line: 250, type: !763, scopeLine: 250, flags: DIFlagPublic | DIFlagPrototyped, spFlags: 0)
!763 = !DISubroutineType(types: !764)
!764 = !{null, !732, !751, !736}
!765 = !DISubprogram(name: "~map", scope: !110, file: !111, line: 302, type: !730, scopeLine: 302, flags: DIFlagPublic | DIFlagPrototyped, spFlags: 0)
!766 = !DISubprogram(name: "operator=", linkageName: "_ZNSt3mapIPciN11cStringPool7strlessESaISt4pairIKS0_iEEEaSERKS7_", scope: !110, file: !111, line: 319, type: !767, scopeLine: 319, flags: DIFlagPublic | DIFlagPrototyped, spFlags: 0)
!767 = !DISubroutineType(types: !768)
!768 = !{!769, !732, !742}
!769 = !DIDerivedType(tag: DW_TAG_reference_type, baseType: !110, size: 64)
!770 = !DISubprogram(name: "operator=", linkageName: "_ZNSt3mapIPciN11cStringPool7strlessESaISt4pairIKS0_iEEEaSEOS7_", scope: !110, file: !111, line: 323, type: !771, scopeLine: 323, flags: DIFlagPublic | DIFlagPrototyped, spFlags: 0)
!771 = !DISubroutineType(types: !772)
!772 = !{!769, !732, !747}
!773 = !DISubprogram(name: "operator=", linkageName: "_ZNSt3mapIPciN11cStringPool7strlessESaISt4pairIKS0_iEEEaSESt16initializer_listIS5_E", scope: !110, file: !111, line: 337, type: !774, scopeLine: 337, flags: DIFlagPublic | DIFlagPrototyped, spFlags: 0)
!774 = !DISubroutineType(types: !775)
!775 = !{!769, !732, !751}
!776 = !DISubprogram(name: "get_allocator", linkageName: "_ZNKSt3mapIPciN11cStringPool7strlessESaISt4pairIKS0_iEEE13get_allocatorEv", scope: !110, file: !111, line: 346, type: !777, scopeLine: 346, flags: DIFlagPublic | DIFlagPrototyped, spFlags: 0)
!777 = !DISubroutineType(types: !778)
!778 = !{!738, !779}
!779 = !DIDerivedType(tag: DW_TAG_pointer_type, baseType: !743, size: 64, flags: DIFlagArtificial | DIFlagObjectPointer)
!780 = !DISubprogram(name: "begin", linkageName: "_ZNSt3mapIPciN11cStringPool7strlessESaISt4pairIKS0_iEEE5beginEv", scope: !110, file: !111, line: 356, type: !781, scopeLine: 356, flags: DIFlagPublic | DIFlagPrototyped, spFlags: 0)
!781 = !DISubroutineType(types: !782)
!782 = !{!783, !732}
!783 = !DIDerivedType(tag: DW_TAG_typedef, name: "iterator", scope: !110, file: !111, line: 164, baseType: !547)
!784 = !DISubprogram(name: "begin", linkageName: "_ZNKSt3mapIPciN11cStringPool7strlessESaISt4pairIKS0_iEEE5beginEv", scope: !110, file: !111, line: 365, type: !785, scopeLine: 365, flags: DIFlagPublic | DIFlagPrototyped, spFlags: 0)
!785 = !DISubroutineType(types: !786)
!786 = !{!787, !779}
!787 = !DIDerivedType(tag: DW_TAG_typedef, name: "const_iterator", scope: !110, file: !111, line: 165, baseType: !541)
!788 = !DISubprogram(name: "end", linkageName: "_ZNSt3mapIPciN11cStringPool7strlessESaISt4pairIKS0_iEEE3endEv", scope: !110, file: !111, line: 374, type: !781, scopeLine: 374, flags: DIFlagPublic | DIFlagPrototyped, spFlags: 0)
!789 = !DISubprogram(name: "end", linkageName: "_ZNKSt3mapIPciN11cStringPool7strlessESaISt4pairIKS0_iEEE3endEv", scope: !110, file: !111, line: 383, type: !785, scopeLine: 383, flags: DIFlagPublic | DIFlagPrototyped, spFlags: 0)
!790 = !DISubprogram(name: "rbegin", linkageName: "_ZNSt3mapIPciN11cStringPool7strlessESaISt4pairIKS0_iEEE6rbeginEv", scope: !110, file: !111, line: 392, type: !791, scopeLine: 392, flags: DIFlagPublic | DIFlagPrototyped, spFlags: 0)
!791 = !DISubroutineType(types: !792)
!792 = !{!793, !732}
!793 = !DIDerivedType(tag: DW_TAG_typedef, name: "reverse_iterator", scope: !110, file: !111, line: 168, baseType: !648)
!794 = !DISubprogram(name: "rbegin", linkageName: "_ZNKSt3mapIPciN11cStringPool7strlessESaISt4pairIKS0_iEEE6rbeginEv", scope: !110, file: !111, line: 401, type: !795, scopeLine: 401, flags: DIFlagPublic | DIFlagPrototyped, spFlags: 0)
!795 = !DISubroutineType(types: !796)
!796 = !{!797, !779}
!797 = !DIDerivedType(tag: DW_TAG_typedef, name: "const_reverse_iterator", scope: !110, file: !111, line: 169, baseType: !654)
!798 = !DISubprogram(name: "rend", linkageName: "_ZNSt3mapIPciN11cStringPool7strlessESaISt4pairIKS0_iEEE4rendEv", scope: !110, file: !111, line: 410, type: !791, scopeLine: 410, flags: DIFlagPublic | DIFlagPrototyped, spFlags: 0)
!799 = !DISubprogram(name: "rend", linkageName: "_ZNKSt3mapIPciN11cStringPool7strlessESaISt4pairIKS0_iEEE4rendEv", scope: !110, file: !111, line: 419, type: !795, scopeLine: 419, flags: DIFlagPublic | DIFlagPrototyped, spFlags: 0)
!800 = !DISubprogram(name: "cbegin", linkageName: "_ZNKSt3mapIPciN11cStringPool7strlessESaISt4pairIKS0_iEEE6cbeginEv", scope: !110, file: !111, line: 429, type: !785, scopeLine: 429, flags: DIFlagPublic | DIFlagPrototyped, spFlags: 0)
!801 = !DISubprogram(name: "cend", linkageName: "_ZNKSt3mapIPciN11cStringPool7strlessESaISt4pairIKS0_iEEE4cendEv", scope: !110, file: !111, line: 438, type: !785, scopeLine: 438, flags: DIFlagPublic | DIFlagPrototyped, spFlags: 0)
!802 = !DISubprogram(name: "crbegin", linkageName: "_ZNKSt3mapIPciN11cStringPool7strlessESaISt4pairIKS0_iEEE7crbeginEv", scope: !110, file: !111, line: 447, type: !795, scopeLine: 447, flags: DIFlagPublic | DIFlagPrototyped, spFlags: 0)
!803 = !DISubprogram(name: "crend", linkageName: "_ZNKSt3mapIPciN11cStringPool7strlessESaISt4pairIKS0_iEEE5crendEv", scope: !110, file: !111, line: 456, type: !795, scopeLine: 456, flags: DIFlagPublic | DIFlagPrototyped, spFlags: 0)
!804 = !DISubprogram(name: "empty", linkageName: "_ZNKSt3mapIPciN11cStringPool7strlessESaISt4pairIKS0_iEEE5emptyEv", scope: !110, file: !111, line: 465, type: !805, scopeLine: 465, flags: DIFlagPublic | DIFlagPrototyped, spFlags: 0)
!805 = !DISubroutineType(types: !806)
!806 = !{!13, !779}
!807 = !DISubprogram(name: "size", linkageName: "_ZNKSt3mapIPciN11cStringPool7strlessESaISt4pairIKS0_iEEE4sizeEv", scope: !110, file: !111, line: 470, type: !808, scopeLine: 470, flags: DIFlagPublic | DIFlagPrototyped, spFlags: 0)
!808 = !DISubroutineType(types: !809)
!809 = !{!810, !779}
!810 = !DIDerivedType(tag: DW_TAG_typedef, name: "size_type", scope: !110, file: !111, line: 166, baseType: !684)
!811 = !DISubprogram(name: "max_size", linkageName: "_ZNKSt3mapIPciN11cStringPool7strlessESaISt4pairIKS0_iEEE8max_sizeEv", scope: !110, file: !111, line: 475, type: !808, scopeLine: 475, flags: DIFlagPublic | DIFlagPrototyped, spFlags: 0)
!812 = !DISubprogram(name: "operator[]", linkageName: "_ZNSt3mapIPciN11cStringPool7strlessESaISt4pairIKS0_iEEEixERS4_", scope: !110, file: !111, line: 492, type: !813, scopeLine: 492, flags: DIFlagPublic | DIFlagPrototyped, spFlags: 0)
!813 = !DISubroutineType(types: !814)
!814 = !{!815, !732, !817}
!815 = !DIDerivedType(tag: DW_TAG_reference_type, baseType: !816, size: 64)
!816 = !DIDerivedType(tag: DW_TAG_typedef, name: "mapped_type", scope: !110, file: !111, line: 104, baseType: !11)
!817 = !DIDerivedType(tag: DW_TAG_reference_type, baseType: !818, size: 64)
!818 = !DIDerivedType(tag: DW_TAG_const_type, baseType: !819)
!819 = !DIDerivedType(tag: DW_TAG_typedef, name: "key_type", scope: !110, file: !111, line: 103, baseType: !446)
!820 = !DISubprogram(name: "operator[]", linkageName: "_ZNSt3mapIPciN11cStringPool7strlessESaISt4pairIKS0_iEEEixEOS0_", scope: !110, file: !111, line: 512, type: !821, scopeLine: 512, flags: DIFlagPublic | DIFlagPrototyped, spFlags: 0)
!821 = !DISubroutineType(types: !822)
!822 = !{!815, !732, !823}
!823 = !DIDerivedType(tag: DW_TAG_rvalue_reference_type, baseType: !819, size: 64)
!824 = !DISubprogram(name: "at", linkageName: "_ZNSt3mapIPciN11cStringPool7strlessESaISt4pairIKS0_iEEE2atERS4_", scope: !110, file: !111, line: 537, type: !813, scopeLine: 537, flags: DIFlagPublic | DIFlagPrototyped, spFlags: 0)
!825 = !DISubprogram(name: "at", linkageName: "_ZNKSt3mapIPciN11cStringPool7strlessESaISt4pairIKS0_iEEE2atERS4_", scope: !110, file: !111, line: 546, type: !826, scopeLine: 546, flags: DIFlagPublic | DIFlagPrototyped, spFlags: 0)
!826 = !DISubroutineType(types: !827)
!827 = !{!828, !779, !817}
!828 = !DIDerivedType(tag: DW_TAG_reference_type, baseType: !829, size: 64)
!829 = !DIDerivedType(tag: DW_TAG_const_type, baseType: !816)
!830 = !DISubprogram(name: "insert", linkageName: "_ZNSt3mapIPciN11cStringPool7strlessESaISt4pairIKS0_iEEE6insertERKS5_", scope: !110, file: !111, line: 803, type: !831, scopeLine: 803, flags: DIFlagPublic | DIFlagPrototyped, spFlags: 0)
!831 = !DISubroutineType(types: !832)
!832 = !{!833, !732, !834}
!833 = !DICompositeType(tag: DW_TAG_structure_type, name: "pair<std::_Rb_tree_iterator<std::pair<char *const, int> >, bool>", scope: !2, file: !138, line: 211, flags: DIFlagFwdDecl, identifier: "_ZTSSt4pairISt17_Rb_tree_iteratorIS_IKPciEEbE")
!834 = !DIDerivedType(tag: DW_TAG_reference_type, baseType: !835, size: 64)
!835 = !DIDerivedType(tag: DW_TAG_const_type, baseType: !836)
!836 = !DIDerivedType(tag: DW_TAG_typedef, name: "value_type", scope: !110, file: !111, line: 105, baseType: !137)
!837 = !DISubprogram(name: "insert", linkageName: "_ZNSt3mapIPciN11cStringPool7strlessESaISt4pairIKS0_iEEE6insertEOS5_", scope: !110, file: !111, line: 810, type: !838, scopeLine: 810, flags: DIFlagPublic | DIFlagPrototyped, spFlags: 0)
!838 = !DISubroutineType(types: !839)
!839 = !{!833, !732, !840}
!840 = !DIDerivedType(tag: DW_TAG_rvalue_reference_type, baseType: !836, size: 64)
!841 = !DISubprogram(name: "insert", linkageName: "_ZNSt3mapIPciN11cStringPool7strlessESaISt4pairIKS0_iEEE6insertESt16initializer_listIS5_E", scope: !110, file: !111, line: 830, type: !842, scopeLine: 830, flags: DIFlagPublic | DIFlagPrototyped, spFlags: 0)
!842 = !DISubroutineType(types: !843)
!843 = !{null, !732, !751}
!844 = !DISubprogram(name: "insert", linkageName: "_ZNSt3mapIPciN11cStringPool7strlessESaISt4pairIKS0_iEEE6insertESt23_Rb_tree_const_iteratorIS5_ERKS5_", scope: !110, file: !111, line: 860, type: !845, scopeLine: 860, flags: DIFlagPublic | DIFlagPrototyped, spFlags: 0)
!845 = !DISubroutineType(types: !846)
!846 = !{!783, !732, !787, !834}
!847 = !DISubprogram(name: "insert", linkageName: "_ZNSt3mapIPciN11cStringPool7strlessESaISt4pairIKS0_iEEE6insertESt23_Rb_tree_const_iteratorIS5_EOS5_", scope: !110, file: !111, line: 870, type: !848, scopeLine: 870, flags: DIFlagPublic | DIFlagPrototyped, spFlags: 0)
!848 = !DISubroutineType(types: !849)
!849 = !{!783, !732, !787, !840}
!850 = !DISubprogram(name: "erase", linkageName: "_ZNSt3mapIPciN11cStringPool7strlessESaISt4pairIKS0_iEEE5eraseESt23_Rb_tree_const_iteratorIS5_E", scope: !110, file: !111, line: 1031, type: !851, scopeLine: 1031, flags: DIFlagPublic | DIFlagPrototyped, spFlags: 0)
!851 = !DISubroutineType(types: !852)
!852 = !{!783, !732, !787}
!853 = !DISubprogram(name: "erase", linkageName: "_ZNSt3mapIPciN11cStringPool7strlessESaISt4pairIKS0_iEEE5eraseB5cxx11ESt17_Rb_tree_iteratorIS5_E", scope: !110, file: !111, line: 1037, type: !854, scopeLine: 1037, flags: DIFlagPublic | DIFlagPrototyped, spFlags: 0)
!854 = !DISubroutineType(types: !855)
!855 = !{!783, !732, !783}
!856 = !DISubprogram(name: "erase", linkageName: "_ZNSt3mapIPciN11cStringPool7strlessESaISt4pairIKS0_iEEE5eraseERS4_", scope: !110, file: !111, line: 1068, type: !857, scopeLine: 1068, flags: DIFlagPublic | DIFlagPrototyped, spFlags: 0)
!857 = !DISubroutineType(types: !858)
!858 = !{!810, !732, !817}
!859 = !DISubprogram(name: "erase", linkageName: "_ZNSt3mapIPciN11cStringPool7strlessESaISt4pairIKS0_iEEE5eraseESt23_Rb_tree_const_iteratorIS5_ES9_", scope: !110, file: !111, line: 1088, type: !860, scopeLine: 1088, flags: DIFlagPublic | DIFlagPrototyped, spFlags: 0)
!860 = !DISubroutineType(types: !861)
!861 = !{!783, !732, !787, !787}
!862 = !DISubprogram(name: "swap", linkageName: "_ZNSt3mapIPciN11cStringPool7strlessESaISt4pairIKS0_iEEE4swapERS7_", scope: !110, file: !111, line: 1122, type: !863, scopeLine: 1122, flags: DIFlagPublic | DIFlagPrototyped, spFlags: 0)
!863 = !DISubroutineType(types: !864)
!864 = !{null, !732, !769}
!865 = !DISubprogram(name: "clear", linkageName: "_ZNSt3mapIPciN11cStringPool7strlessESaISt4pairIKS0_iEEE5clearEv", scope: !110, file: !111, line: 1133, type: !730, scopeLine: 1133, flags: DIFlagPublic | DIFlagPrototyped, spFlags: 0)
!866 = !DISubprogram(name: "key_comp", linkageName: "_ZNKSt3mapIPciN11cStringPool7strlessESaISt4pairIKS0_iEEE8key_compEv", scope: !110, file: !111, line: 1142, type: !867, scopeLine: 1142, flags: DIFlagPublic | DIFlagPrototyped, spFlags: 0)
!867 = !DISubroutineType(types: !868)
!868 = !{!869, !779}
!869 = !DIDerivedType(tag: DW_TAG_typedef, name: "key_compare", scope: !110, file: !111, line: 106, baseType: !306)
!870 = !DISubprogram(name: "value_comp", linkageName: "_ZNKSt3mapIPciN11cStringPool7strlessESaISt4pairIKS0_iEEE10value_compEv", scope: !110, file: !111, line: 1150, type: !871, scopeLine: 1150, flags: DIFlagPublic | DIFlagPrototyped, spFlags: 0)
!871 = !DISubroutineType(types: !872)
!872 = !{!873, !779}
!873 = !DICompositeType(tag: DW_TAG_class_type, name: "value_compare", scope: !110, file: !111, line: 129, flags: DIFlagFwdDecl, identifier: "_ZTSNSt3mapIPciN11cStringPool7strlessESaISt4pairIKS0_iEEE13value_compareE")
!874 = !DISubprogram(name: "find", linkageName: "_ZNSt3mapIPciN11cStringPool7strlessESaISt4pairIKS0_iEEE4findERS4_", scope: !110, file: !111, line: 1169, type: !875, scopeLine: 1169, flags: DIFlagPublic | DIFlagPrototyped, spFlags: 0)
!875 = !DISubroutineType(types: !876)
!876 = !{!783, !732, !817}
!877 = !DISubprogram(name: "find", linkageName: "_ZNKSt3mapIPciN11cStringPool7strlessESaISt4pairIKS0_iEEE4findERS4_", scope: !110, file: !111, line: 1194, type: !878, scopeLine: 1194, flags: DIFlagPublic | DIFlagPrototyped, spFlags: 0)
!878 = !DISubroutineType(types: !879)
!879 = !{!787, !779, !817}
!880 = !DISubprogram(name: "count", linkageName: "_ZNKSt3mapIPciN11cStringPool7strlessESaISt4pairIKS0_iEEE5countERS4_", scope: !110, file: !111, line: 1215, type: !881, scopeLine: 1215, flags: DIFlagPublic | DIFlagPrototyped, spFlags: 0)
!881 = !DISubroutineType(types: !882)
!882 = !{!810, !779, !817}
!883 = !DISubprogram(name: "lower_bound", linkageName: "_ZNSt3mapIPciN11cStringPool7strlessESaISt4pairIKS0_iEEE11lower_boundERS4_", scope: !110, file: !111, line: 1258, type: !875, scopeLine: 1258, flags: DIFlagPublic | DIFlagPrototyped, spFlags: 0)
!884 = !DISubprogram(name: "lower_bound", linkageName: "_ZNKSt3mapIPciN11cStringPool7strlessESaISt4pairIKS0_iEEE11lower_boundERS4_", scope: !110, file: !111, line: 1283, type: !878, scopeLine: 1283, flags: DIFlagPublic | DIFlagPrototyped, spFlags: 0)
!885 = !DISubprogram(name: "upper_bound", linkageName: "_ZNSt3mapIPciN11cStringPool7strlessESaISt4pairIKS0_iEEE11upper_boundERS4_", scope: !110, file: !111, line: 1303, type: !875, scopeLine: 1303, flags: DIFlagPublic | DIFlagPrototyped, spFlags: 0)
!886 = !DISubprogram(name: "upper_bound", linkageName: "_ZNKSt3mapIPciN11cStringPool7strlessESaISt4pairIKS0_iEEE11upper_boundERS4_", scope: !110, file: !111, line: 1323, type: !878, scopeLine: 1323, flags: DIFlagPublic | DIFlagPrototyped, spFlags: 0)
!887 = !DISubprogram(name: "equal_range", linkageName: "_ZNSt3mapIPciN11cStringPool7strlessESaISt4pairIKS0_iEEE11equal_rangeERS4_", scope: !110, file: !111, line: 1352, type: !888, scopeLine: 1352, flags: DIFlagPublic | DIFlagPrototyped, spFlags: 0)
!888 = !DISubroutineType(types: !889)
!889 = !{!705, !732, !817}
!890 = !DISubprogram(name: "equal_range", linkageName: "_ZNKSt3mapIPciN11cStringPool7strlessESaISt4pairIKS0_iEEE11equal_rangeERS4_", scope: !110, file: !111, line: 1381, type: !891, scopeLine: 1381, flags: DIFlagPublic | DIFlagPrototyped, spFlags: 0)
!891 = !DISubroutineType(types: !892)
!892 = !{!709, !779, !817}
!893 = !{!723, !894, !728, !225}
!894 = !DITemplateTypeParameter(name: "_Tp", type: !11)
!895 = !DIDerivedType(tag: DW_TAG_member, name: "alive", scope: !99, file: !100, line: 48, baseType: !13, size: 8, offset: 640, flags: DIFlagProtected)
!896 = !DISubprogram(name: "cStringPool", scope: !99, file: !100, line: 51, type: !897, scopeLine: 51, flags: DIFlagPublic | DIFlagPrototyped, spFlags: 0)
!897 = !DISubroutineType(types: !898)
!898 = !{null, !899, !92}
!899 = !DIDerivedType(tag: DW_TAG_pointer_type, baseType: !99, size: 64, flags: DIFlagArtificial | DIFlagObjectPointer)
!900 = !DISubprogram(name: "~cStringPool", scope: !99, file: !100, line: 52, type: !901, scopeLine: 52, flags: DIFlagPublic | DIFlagPrototyped, spFlags: 0)
!901 = !DISubroutineType(types: !902)
!902 = !{null, !899}
!903 = !DISubprogram(name: "get", linkageName: "_ZN11cStringPool3getEPKc", scope: !99, file: !100, line: 59, type: !904, scopeLine: 59, flags: DIFlagPublic | DIFlagPrototyped, spFlags: 0)
!904 = !DISubroutineType(types: !905)
!905 = !{!92, !899, !92}
!906 = !DISubprogram(name: "peek", linkageName: "_ZNK11cStringPool4peekEPKc", scope: !99, file: !100, line: 65, type: !907, scopeLine: 65, flags: DIFlagPublic | DIFlagPrototyped, spFlags: 0)
!907 = !DISubroutineType(types: !908)
!908 = !{!92, !909, !92}
!909 = !DIDerivedType(tag: DW_TAG_pointer_type, baseType: !910, size: 64, flags: DIFlagArtificial | DIFlagObjectPointer)
!910 = !DIDerivedType(tag: DW_TAG_const_type, baseType: !99)
!911 = !DISubprogram(name: "release", linkageName: "_ZN11cStringPool7releaseEPKc", scope: !99, file: !100, line: 72, type: !897, scopeLine: 72, flags: DIFlagPublic | DIFlagPrototyped, spFlags: 0)
!912 = !DISubprogram(name: "dump", linkageName: "_ZNK11cStringPool4dumpEv", scope: !99, file: !100, line: 77, type: !913, scopeLine: 77, flags: DIFlagPublic | DIFlagPrototyped, spFlags: 0)
!913 = !DISubroutineType(types: !914)
!914 = !{null, !909}
!915 = !DISubprogram(name: "cParImpl", scope: !86, file: !85, line: 76, type: !916, scopeLine: 76, flags: DIFlagPublic | DIFlagExplicit | DIFlagPrototyped, spFlags: 0)
!916 = !DISubroutineType(types: !917)
!917 = !{null, !918}
!918 = !DIDerivedType(tag: DW_TAG_pointer_type, baseType: !86, size: 64, flags: DIFlagArtificial | DIFlagObjectPointer)
!919 = !DISubprogram(name: "cParImpl", scope: !86, file: !85, line: 81, type: !920, scopeLine: 81, flags: DIFlagPublic | DIFlagPrototyped, spFlags: 0)
!920 = !DISubroutineType(types: !921)
!921 = !{null, !918, !922}
!922 = !DIDerivedType(tag: DW_TAG_reference_type, baseType: !923, size: 64)
!923 = !DIDerivedType(tag: DW_TAG_const_type, baseType: !86)
!924 = !DISubprogram(name: "~cParImpl", scope: !86, file: !85, line: 86, type: !916, scopeLine: 86, containingType: !86, virtualIndex: 0, flags: DIFlagPublic | DIFlagPrototyped, spFlags: DISPFlagVirtual)
!925 = !DISubprogram(name: "operator=", linkageName: "_ZN8cParImplaSERKS_", scope: !86, file: !85, line: 91, type: !926, scopeLine: 91, flags: DIFlagPublic | DIFlagPrototyped, spFlags: 0)
!926 = !DISubroutineType(types: !927)
!927 = !{!928, !918, !922}
!928 = !DIDerivedType(tag: DW_TAG_reference_type, baseType: !86, size: 64)
!929 = !DISubprogram(name: "info", linkageName: "_ZNK8cParImpl4infoB5cxx11Ev", scope: !86, file: !85, line: 100, type: !930, scopeLine: 100, containingType: !86, virtualIndex: 9, flags: DIFlagPublic | DIFlagPrototyped, spFlags: DISPFlagVirtual)
!930 = !DISubroutineType(types: !931)
!931 = !{!103, !932}
!932 = !DIDerivedType(tag: DW_TAG_pointer_type, baseType: !923, size: 64, flags: DIFlagArtificial | DIFlagObjectPointer)
!933 = !DISubprogram(name: "detailedInfo", linkageName: "_ZNK8cParImpl12detailedInfoB5cxx11Ev", scope: !86, file: !85, line: 105, type: !930, scopeLine: 105, containingType: !86, virtualIndex: 10, flags: DIFlagPublic | DIFlagPrototyped, spFlags: DISPFlagVirtual)
!934 = !DISubprogram(name: "dup", linkageName: "_ZNK8cParImpl3dupEv", scope: !86, file: !85, line: 110, type: !935, scopeLine: 110, containingType: !86, virtualIndex: 11, flags: DIFlagPublic | DIFlagPrototyped, spFlags: DISPFlagVirtual)
!935 = !DISubroutineType(types: !936)
!936 = !{!937, !932}
!937 = !DIDerivedType(tag: DW_TAG_pointer_type, baseType: !86, size: 64)
!938 = !DISubprogram(name: "parsimPack", linkageName: "_ZN8cParImpl10parsimPackEP11cCommBuffer", scope: !86, file: !85, line: 115, type: !939, scopeLine: 115, containingType: !86, virtualIndex: 14, flags: DIFlagPublic | DIFlagPrototyped, spFlags: DISPFlagVirtual)
!939 = !DISubroutineType(types: !940)
!940 = !{null, !918, !941}
!941 = !DIDerivedType(tag: DW_TAG_pointer_type, baseType: !942, size: 64)
!942 = !DICompositeType(tag: DW_TAG_class_type, name: "cCommBuffer", file: !943, line: 33, flags: DIFlagFwdDecl, identifier: "_ZTS11cCommBuffer")
!943 = !DIFile(filename: "simulator/cobject.h", directory: "/home/venkat/IF-DV/spec_build_release/CPU_2017/benchspec/CPU/520.omnetpp_r/build/build_base_ld-loop-ext-m64.0000")
!944 = !DISubprogram(name: "parsimUnpack", linkageName: "_ZN8cParImpl12parsimUnpackEP11cCommBuffer", scope: !86, file: !85, line: 120, type: !939, scopeLine: 120, containingType: !86, virtualIndex: 15, flags: DIFlagPublic | DIFlagPrototyped, spFlags: DISPFlagVirtual)
!945 = !DISubprogram(name: "getType", linkageName: "_ZNK8cParImpl7getTypeEv", scope: !86, file: !85, line: 128, type: !946, scopeLine: 128, containingType: !86, virtualIndex: 22, flags: DIFlagPublic | DIFlagPrototyped, spFlags: DISPFlagPureVirtual)
!946 = !DISubroutineType(types: !947)
!947 = !{!948, !932}
!948 = !DIDerivedType(tag: DW_TAG_typedef, name: "Type", scope: !86, file: !85, line: 67, baseType: !949)
!949 = !DICompositeType(tag: DW_TAG_enumeration_type, name: "Type", scope: !951, file: !950, line: 73, baseType: !35, size: 32, elements: !952, identifier: "_ZTSN4cPar4TypeE")
!950 = !DIFile(filename: "simulator/cpar.h", directory: "/home/venkat/IF-DV/spec_build_release/CPU_2017/benchspec/CPU/520.omnetpp_r/build/build_base_ld-loop-ext-m64.0000")
!951 = !DICompositeType(tag: DW_TAG_class_type, name: "cPar", file: !950, line: 69, flags: DIFlagFwdDecl)
!952 = !{!953, !954, !955, !956, !957}
!953 = !DIEnumerator(name: "BOOL", value: 66, isUnsigned: true)
!954 = !DIEnumerator(name: "DOUBLE", value: 68, isUnsigned: true)
!955 = !DIEnumerator(name: "LONG", value: 76, isUnsigned: true)
!956 = !DIEnumerator(name: "STRING", value: 83, isUnsigned: true)
!957 = !DIEnumerator(name: "XML", value: 88, isUnsigned: true)
!958 = !DISubprogram(name: "isNumeric", linkageName: "_ZNK8cParImpl9isNumericEv", scope: !86, file: !85, line: 133, type: !959, scopeLine: 133, containingType: !86, virtualIndex: 23, flags: DIFlagPublic | DIFlagPrototyped, spFlags: DISPFlagPureVirtual)
!959 = !DISubroutineType(types: !960)
!960 = !{!13, !932}
!961 = !DISubprogram(name: "isVolatile", linkageName: "_ZNK8cParImpl10isVolatileEv", scope: !86, file: !85, line: 138, type: !959, scopeLine: 138, containingType: !86, virtualIndex: 24, flags: DIFlagPublic | DIFlagPrototyped, spFlags: DISPFlagVirtual)
!962 = !DISubprogram(name: "isExpression", linkageName: "_ZNK8cParImpl12isExpressionEv", scope: !86, file: !85, line: 145, type: !959, scopeLine: 145, containingType: !86, virtualIndex: 25, flags: DIFlagPublic | DIFlagPrototyped, spFlags: DISPFlagVirtual)
!963 = !DISubprogram(name: "isShared", linkageName: "_ZNK8cParImpl8isSharedEv", scope: !86, file: !85, line: 150, type: !959, scopeLine: 150, containingType: !86, virtualIndex: 26, flags: DIFlagPublic | DIFlagPrototyped, spFlags: DISPFlagVirtual)
!964 = !DISubprogram(name: "containsValue", linkageName: "_ZNK8cParImpl13containsValueEv", scope: !86, file: !85, line: 156, type: !959, scopeLine: 156, containingType: !86, virtualIndex: 27, flags: DIFlagPublic | DIFlagPrototyped, spFlags: DISPFlagVirtual)
!965 = !DISubprogram(name: "isSet", linkageName: "_ZNK8cParImpl5isSetEv", scope: !86, file: !85, line: 163, type: !959, scopeLine: 163, containingType: !86, virtualIndex: 28, flags: DIFlagPublic | DIFlagPrototyped, spFlags: DISPFlagVirtual)
!966 = !DISubprogram(name: "setIsVolatile", linkageName: "_ZN8cParImpl13setIsVolatileEb", scope: !86, file: !85, line: 169, type: !967, scopeLine: 169, containingType: !86, virtualIndex: 29, flags: DIFlagPublic | DIFlagPrototyped, spFlags: DISPFlagVirtual)
!967 = !DISubroutineType(types: !968)
!968 = !{null, !918, !13}
!969 = !DISubprogram(name: "setIsShared", linkageName: "_ZN8cParImpl11setIsSharedEb", scope: !86, file: !85, line: 174, type: !967, scopeLine: 174, containingType: !86, virtualIndex: 30, flags: DIFlagPublic | DIFlagPrototyped, spFlags: DISPFlagVirtual)
!970 = !DISubprogram(name: "setIsSet", linkageName: "_ZN8cParImpl8setIsSetEb", scope: !86, file: !85, line: 179, type: !967, scopeLine: 179, containingType: !86, virtualIndex: 31, flags: DIFlagPublic | DIFlagPrototyped, spFlags: DISPFlagVirtual)
!971 = !DISubprogram(name: "getUnit", linkageName: "_ZNK8cParImpl7getUnitEv", scope: !86, file: !85, line: 186, type: !972, scopeLine: 186, containingType: !86, virtualIndex: 32, flags: DIFlagPublic | DIFlagPrototyped, spFlags: DISPFlagVirtual)
!972 = !DISubroutineType(types: !973)
!973 = !{!92, !932}
!974 = !DISubprogram(name: "setUnit", linkageName: "_ZN8cParImpl7setUnitEPKc", scope: !86, file: !85, line: 191, type: !975, scopeLine: 191, containingType: !86, virtualIndex: 33, flags: DIFlagPublic | DIFlagPrototyped, spFlags: DISPFlagVirtual)
!975 = !DISubroutineType(types: !976)
!976 = !{null, !918, !92}
!977 = !DISubprogram(name: "setBoolValue", linkageName: "_ZN8cParImpl12setBoolValueEb", scope: !86, file: !85, line: 200, type: !967, scopeLine: 200, containingType: !86, virtualIndex: 34, flags: DIFlagPublic | DIFlagPrototyped, spFlags: DISPFlagPureVirtual)
!978 = !DISubprogram(name: "setLongValue", linkageName: "_ZN8cParImpl12setLongValueEl", scope: !86, file: !85, line: 205, type: !979, scopeLine: 205, containingType: !86, virtualIndex: 35, flags: DIFlagPublic | DIFlagPrototyped, spFlags: DISPFlagPureVirtual)
!979 = !DISubroutineType(types: !980)
!980 = !{null, !918, !96}
!981 = !DISubprogram(name: "setDoubleValue", linkageName: "_ZN8cParImpl14setDoubleValueEd", scope: !86, file: !85, line: 210, type: !982, scopeLine: 210, containingType: !86, virtualIndex: 36, flags: DIFlagPublic | DIFlagPrototyped, spFlags: DISPFlagPureVirtual)
!982 = !DISubroutineType(types: !983)
!983 = !{null, !918, !984}
!984 = !DIBasicType(name: "double", size: 64, encoding: DW_ATE_float)
!985 = !DISubprogram(name: "setStringValue", linkageName: "_ZN8cParImpl14setStringValueEPKc", scope: !86, file: !85, line: 217, type: !975, scopeLine: 217, containingType: !86, virtualIndex: 37, flags: DIFlagPublic | DIFlagPrototyped, spFlags: DISPFlagPureVirtual)
!986 = !DISubprogram(name: "setStringValue", linkageName: "_ZN8cParImpl14setStringValueERKNSt7__cxx1112basic_stringIcSt11char_traitsIcESaIcEEE", scope: !86, file: !85, line: 222, type: !987, scopeLine: 222, containingType: !86, virtualIndex: 38, flags: DIFlagPublic | DIFlagPrototyped, spFlags: DISPFlagVirtual)
!987 = !DISubroutineType(types: !988)
!988 = !{null, !918, !989}
!989 = !DIDerivedType(tag: DW_TAG_reference_type, baseType: !990, size: 64)
!990 = !DIDerivedType(tag: DW_TAG_const_type, baseType: !103)
!991 = !DISubprogram(name: "setXMLValue", linkageName: "_ZN8cParImpl11setXMLValueEP11cXMLElement", scope: !86, file: !85, line: 227, type: !992, scopeLine: 227, containingType: !86, virtualIndex: 39, flags: DIFlagPublic | DIFlagPrototyped, spFlags: DISPFlagPureVirtual)
!992 = !DISubroutineType(types: !993)
!993 = !{null, !918, !994}
!994 = !DIDerivedType(tag: DW_TAG_pointer_type, baseType: !995, size: 64)
!995 = !DICompositeType(tag: DW_TAG_class_type, name: "cXMLElement", file: !996, line: 26, flags: DIFlagFwdDecl, identifier: "_ZTS11cXMLElement")
!996 = !DIFile(filename: "simulator/cexpression.h", directory: "/home/venkat/IF-DV/spec_build_release/CPU_2017/benchspec/CPU/520.omnetpp_r/build/build_base_ld-loop-ext-m64.0000")
!997 = !DISubprogram(name: "setExpression", linkageName: "_ZN8cParImpl13setExpressionEP11cExpression", scope: !86, file: !85, line: 237, type: !998, scopeLine: 237, containingType: !86, virtualIndex: 40, flags: DIFlagPublic | DIFlagPrototyped, spFlags: DISPFlagPureVirtual)
!998 = !DISubroutineType(types: !999)
!999 = !{null, !918, !1000}
!1000 = !DIDerivedType(tag: DW_TAG_pointer_type, baseType: !1001, size: 64)
!1001 = !DICompositeType(tag: DW_TAG_class_type, name: "cExpression", file: !996, line: 34, flags: DIFlagFwdDecl, identifier: "_ZTS11cExpression")
!1002 = !DISubprogram(name: "boolValue", linkageName: "_ZNK8cParImpl9boolValueEP10cComponent", scope: !86, file: !85, line: 246, type: !1003, scopeLine: 246, containingType: !86, virtualIndex: 41, flags: DIFlagPublic | DIFlagPrototyped, spFlags: DISPFlagPureVirtual)
!1003 = !DISubroutineType(types: !1004)
!1004 = !{!13, !932, !1005}
!1005 = !DIDerivedType(tag: DW_TAG_pointer_type, baseType: !1006, size: 64)
!1006 = !DICompositeType(tag: DW_TAG_class_type, name: "cComponent", file: !1007, line: 41, flags: DIFlagFwdDecl)
!1007 = !DIFile(filename: "simulator/ccomponent.h", directory: "/home/venkat/IF-DV/spec_build_release/CPU_2017/benchspec/CPU/520.omnetpp_r/build/build_base_ld-loop-ext-m64.0000")
!1008 = !DISubprogram(name: "longValue", linkageName: "_ZNK8cParImpl9longValueEP10cComponent", scope: !86, file: !85, line: 251, type: !1009, scopeLine: 251, containingType: !86, virtualIndex: 42, flags: DIFlagPublic | DIFlagPrototyped, spFlags: DISPFlagPureVirtual)
!1009 = !DISubroutineType(types: !1010)
!1010 = !{!96, !932, !1005}
!1011 = !DISubprogram(name: "doubleValue", linkageName: "_ZNK8cParImpl11doubleValueEP10cComponent", scope: !86, file: !85, line: 256, type: !1012, scopeLine: 256, containingType: !86, virtualIndex: 43, flags: DIFlagPublic | DIFlagPrototyped, spFlags: DISPFlagPureVirtual)
!1012 = !DISubroutineType(types: !1013)
!1013 = !{!984, !932, !1005}
!1014 = !DISubprogram(name: "stringValue", linkageName: "_ZNK8cParImpl11stringValueEP10cComponent", scope: !86, file: !85, line: 266, type: !1015, scopeLine: 266, containingType: !86, virtualIndex: 44, flags: DIFlagPublic | DIFlagPrototyped, spFlags: DISPFlagPureVirtual)
!1015 = !DISubroutineType(types: !1016)
!1016 = !{!92, !932, !1005}
!1017 = !DISubprogram(name: "stdstringValue", linkageName: "_ZNK8cParImpl14stdstringValueB5cxx11EP10cComponent", scope: !86, file: !85, line: 271, type: !1018, scopeLine: 271, containingType: !86, virtualIndex: 45, flags: DIFlagPublic | DIFlagPrototyped, spFlags: DISPFlagPureVirtual)
!1018 = !DISubroutineType(types: !1019)
!1019 = !{!103, !932, !1005}
!1020 = !DISubprogram(name: "xmlValue", linkageName: "_ZNK8cParImpl8xmlValueEP10cComponent", scope: !86, file: !85, line: 276, type: !1021, scopeLine: 276, containingType: !86, virtualIndex: 46, flags: DIFlagPublic | DIFlagPrototyped, spFlags: DISPFlagPureVirtual)
!1021 = !DISubroutineType(types: !1022)
!1022 = !{!994, !932, !1005}
!1023 = !DISubprogram(name: "getExpression", linkageName: "_ZNK8cParImpl13getExpressionEv", scope: !86, file: !85, line: 281, type: !1024, scopeLine: 281, containingType: !86, virtualIndex: 47, flags: DIFlagPublic | DIFlagPrototyped, spFlags: DISPFlagPureVirtual)
!1024 = !DISubroutineType(types: !1025)
!1025 = !{!1000, !932}
!1026 = !DISubprogram(name: "convertToConst", linkageName: "_ZN8cParImpl14convertToConstEP10cComponent", scope: !86, file: !85, line: 291, type: !1027, scopeLine: 291, containingType: !86, virtualIndex: 48, flags: DIFlagPublic | DIFlagPrototyped, spFlags: DISPFlagPureVirtual)
!1027 = !DISubroutineType(types: !1028)
!1028 = !{null, !918, !1005}
!1029 = !DISubprogram(name: "containsConstSubexpressions", linkageName: "_ZNK8cParImpl27containsConstSubexpressionsEv", scope: !86, file: !85, line: 296, type: !959, scopeLine: 296, containingType: !86, virtualIndex: 49, flags: DIFlagPublic | DIFlagPrototyped, spFlags: DISPFlagVirtual)
!1030 = !DISubprogram(name: "evaluateConstSubexpressions", linkageName: "_ZN8cParImpl27evaluateConstSubexpressionsEP10cComponent", scope: !86, file: !85, line: 302, type: !1027, scopeLine: 302, containingType: !86, virtualIndex: 50, flags: DIFlagPublic | DIFlagPrototyped, spFlags: DISPFlagVirtual)
!1031 = !DISubprogram(name: "str", linkageName: "_ZNK8cParImpl3strB5cxx11Ev", scope: !86, file: !85, line: 307, type: !930, scopeLine: 307, containingType: !86, virtualIndex: 51, flags: DIFlagPublic | DIFlagPrototyped, spFlags: DISPFlagPureVirtual)
!1032 = !DISubprogram(name: "parse", linkageName: "_ZN8cParImpl5parseEPKc", scope: !86, file: !85, line: 314, type: !975, scopeLine: 314, containingType: !86, virtualIndex: 52, flags: DIFlagPublic | DIFlagPrototyped, spFlags: DISPFlagPureVirtual)
!1033 = !DISubprogram(name: "createWithType", linkageName: "_ZN8cParImpl14createWithTypeEN4cPar4TypeE", scope: !86, file: !85, line: 319, type: !1034, scopeLine: 319, flags: DIFlagPublic | DIFlagPrototyped | DIFlagStaticMember, spFlags: 0)
!1034 = !DISubroutineType(types: !1035)
!1035 = !{!937, !948}
!1036 = !DISubprogram(name: "compare", linkageName: "_ZNK8cParImpl7compareEPKS_", scope: !86, file: !85, line: 329, type: !1037, scopeLine: 329, containingType: !86, virtualIndex: 53, flags: DIFlagPublic | DIFlagPrototyped, spFlags: DISPFlagVirtual)
!1037 = !DISubroutineType(types: !1038)
!1038 = !{!11, !932, !1039}
!1039 = !DIDerivedType(tag: DW_TAG_pointer_type, baseType: !923, size: 64)
!1040 = !DISubprogram(name: "getTotalParImplObjectCount", linkageName: "_ZN8cParImpl26getTotalParImplObjectCountEv", scope: !86, file: !85, line: 341, type: !1041, scopeLine: 341, flags: DIFlagPublic | DIFlagPrototyped | DIFlagStaticMember, spFlags: 0)
!1041 = !DISubroutineType(types: !1042)
!1042 = !{!96}
!1043 = !DISubprogram(name: "getLiveParImplObjectCount", linkageName: "_ZN8cParImpl25getLiveParImplObjectCountEv", scope: !86, file: !85, line: 349, type: !1041, scopeLine: 349, flags: DIFlagPublic | DIFlagPrototyped | DIFlagStaticMember, spFlags: 0)
!1044 = !DISubprogram(name: "resetParImplObjectCounters", linkageName: "_ZN8cParImpl26resetParImplObjectCountersEv", scope: !86, file: !85, line: 355, type: !1045, scopeLine: 355, flags: DIFlagPublic | DIFlagPrototyped | DIFlagStaticMember, spFlags: 0)
!1045 = !DISubroutineType(types: !1046)
!1046 = !{null}
!1047 = !DICompositeType(tag: DW_TAG_class_type, name: "cObject", file: !943, line: 70, flags: DIFlagFwdDecl)
!1048 = !{!1049, !1050, !1051, !1052, !1053}
!1049 = !DIEnumerator(name: "FL_ISVOLATILE", value: 4, isUnsigned: true)
!1050 = !DIEnumerator(name: "FL_ISEXPR", value: 8, isUnsigned: true)
!1051 = !DIEnumerator(name: "FL_ISSHARED", value: 16, isUnsigned: true)
!1052 = !DIEnumerator(name: "FL_CONTAINSVALUE", value: 32, isUnsigned: true)
!1053 = !DIEnumerator(name: "FL_ISSET", value: 64, isUnsigned: true)
!1054 = !DICompositeType(tag: DW_TAG_enumeration_type, scope: !89, file: !90, line: 46, baseType: !35, size: 32, elements: !1055, identifier: "_ZTSN12cNamedObjectUt_E")
!1055 = !{!1056}
!1056 = !DIEnumerator(name: "FL_NAMEPOOLING", value: 1, isUnsigned: true)
!1057 = !{!103}
!1058 = !{!0, !28, !1059, !1061}
!1059 = !DIGlobalVariableExpression(var: !1060, expr: !DIExpression())
!1060 = distinct !DIGlobalVariable(name: "live_parimpl_objs", linkageName: "_ZN8cParImpl17live_parimpl_objsE", scope: !30, file: !31, line: 32, type: !96, isLocal: false, isDefinition: true, declaration: !97)
!1061 = !DIGlobalVariableExpression(var: !1062, expr: !DIExpression())
!1062 = distinct !DIGlobalVariable(name: "unitStringPool", linkageName: "_ZN8cParImpl14unitStringPoolE", scope: !30, file: !31, line: 33, type: !99, isLocal: false, isDefinition: true, declaration: !98)
!1063 = !{!1064, !1081, !1084, !1089, !1097, !1105, !1109, !1116, !1120, !1124, !1126, !1128, !1132, !1141, !1145, !1151, !1157, !1159, !1163, !1167, !1171, !1175, !1187, !1189, !1193, !1197, !1201, !1203, !1208, !1212, !1216, !1218, !1220, !1224, !1232, !1236, !1240, !1244, !1246, !1252, !1254, !1260, !1265, !1269, !1273, !1277, !1281, !1285, !1287, !1289, !1293, !1297, !1301, !1303, !1307, !1311, !1313, !1315, !1319, !1324, !1329, !1334, !1335, !1336, !1337, !1338, !1339, !1340, !1341, !1342, !1343, !1344, !1398, !1402, !1406, !1413, !1417, !1420, !1423, !1426, !1428, !1430, !1432, !1435, !1438, !1441, !1444, !1447, !1449, !1454, !1458, !1461, !1464, !1466, !1468, !1470, !1472, !1475, !1478, !1481, !1484, !1487, !1489, !1493, !1497, !1502, !1508, !1510, !1512, !1514, !1516, !1518, !1520, !1522, !1524, !1526, !1528, !1530, !1532, !1534, !1538, !1542, !1548, !1550, !1555, !1557, !1561, !1565, !1569, !1577, !1581, !1585, !1589, !1593, !1597, !1601, !1605, !1609, !1613, !1617, !1621, !1625, !1627, !1631, !1635, !1639, !1645, !1649, !1653, !1655, !1659, !1663, !1669, !1671, !1675, !1679, !1683, !1687, !1691, !1695, !1699, !1700, !1701, !1702, !1704, !1705, !1706, !1707, !1708, !1709, !1710, !1714, !1720, !1725, !1729, !1731, !1733, !1735, !1737, !1744, !1748, !1752, !1756, !1760, !1764, !1769, !1773, !1775, !1779, !1785, !1789, !1794, !1796, !1798, !1802, !1806, !1808, !1810, !1812, !1814, !1818, !1820, !1822, !1826, !1830, !1834, !1838, !1842, !1846, !1848, !1852, !1856, !1860, !1864, !1866, !1868, !1872, !1876, !1877, !1878, !1879, !1880, !1881, !1887, !1890, !1891, !1893, !1895, !1897, !1899, !1903, !1905, !1907, !1909, !1911, !1913, !1915, !1917, !1919, !1923, !1927, !1929, !1933, !1937, !1943, !1945, !1947, !1951, !1953, !1955, !1957, !1959, !1961, !1963, !1965, !1970, !1974, !1976, !1978, !1983, !1985, !1987, !1989, !1991, !1993, !1995, !1998, !2000, !2002, !2006, !2010, !2012, !2014, !2016, !2018, !2020, !2022, !2024, !2026, !2028, !2030, !2034, !2038, !2040, !2042, !2044, !2046, !2048, !2050, !2052, !2054, !2056, !2058, !2060, !2062, !2064, !2066, !2068, !2072, !2076, !2080, !2082, !2084, !2086, !2088, !2090, !2092, !2094, !2096, !2098, !2102, !2106, !2110, !2112, !2114, !2116, !2120, !2124, !2128, !2130, !2132, !2134, !2136, !2138, !2140, !2142, !2144, !2146, !2148, !2150, !2152, !2156, !2160, !2164, !2166, !2168, !2170, !2172, !2176, !2180, !2182, !2184, !2186, !2188, !2190, !2192, !2196, !2200, !2202, !2204, !2206, !2208, !2212, !2216, !2220, !2222, !2224, !2226, !2228, !2230, !2232, !2236, !2240, !2244, !2246, !2250, !2254, !2256, !2258, !2260, !2262, !2264, !2266, !2272, !2277, !2279, !2280, !2281, !2282, !2283, !2284, !2285, !2286, !2287, !2288, !2289, !2290, !2291, !2292, !2293, !2294, !2295, !2296, !2297, !2298, !2299, !2300, !2301, !2302, !2303, !2304, !2305, !2306, !2307, !2308, !2309}
!1064 = !DIImportedEntity(tag: DW_TAG_imported_declaration, scope: !2, entity: !1065, file: !1080, line: 64)
!1065 = !DIDerivedType(tag: DW_TAG_typedef, name: "mbstate_t", file: !1066, line: 6, baseType: !1067)
!1066 = !DIFile(filename: "/usr/include/x86_64-linux-gnu/bits/types/mbstate_t.h", directory: "")
!1067 = !DIDerivedType(tag: DW_TAG_typedef, name: "__mbstate_t", file: !1068, line: 21, baseType: !1069)
!1068 = !DIFile(filename: "/usr/include/x86_64-linux-gnu/bits/types/__mbstate_t.h", directory: "")
!1069 = distinct !DICompositeType(tag: DW_TAG_structure_type, file: !1068, line: 13, size: 64, flags: DIFlagTypePassByValue, elements: !1070, identifier: "_ZTS11__mbstate_t")
!1070 = !{!1071, !1072}
!1071 = !DIDerivedType(tag: DW_TAG_member, name: "__count", scope: !1069, file: !1068, line: 15, baseType: !11, size: 32)
!1072 = !DIDerivedType(tag: DW_TAG_member, name: "__value", scope: !1069, file: !1068, line: 20, baseType: !1073, size: 32, offset: 32)
!1073 = distinct !DICompositeType(tag: DW_TAG_union_type, scope: !1069, file: !1068, line: 16, size: 32, flags: DIFlagTypePassByValue, elements: !1074, identifier: "_ZTSN11__mbstate_tUt_E")
!1074 = !{!1075, !1076}
!1075 = !DIDerivedType(tag: DW_TAG_member, name: "__wch", scope: !1073, file: !1068, line: 18, baseType: !35, size: 32)
!1076 = !DIDerivedType(tag: DW_TAG_member, name: "__wchb", scope: !1073, file: !1068, line: 19, baseType: !1077, size: 32)
!1077 = !DICompositeType(tag: DW_TAG_array_type, baseType: !94, size: 32, elements: !1078)
!1078 = !{!1079}
!1079 = !DISubrange(count: 4)
!1080 = !DIFile(filename: "/usr/lib/gcc/x86_64-linux-gnu/10/../../../../include/c++/10/cwchar", directory: "")
!1081 = !DIImportedEntity(tag: DW_TAG_imported_declaration, scope: !2, entity: !1082, file: !1080, line: 141)
!1082 = !DIDerivedType(tag: DW_TAG_typedef, name: "wint_t", file: !1083, line: 20, baseType: !35)
!1083 = !DIFile(filename: "/usr/include/x86_64-linux-gnu/bits/types/wint_t.h", directory: "")
!1084 = !DIImportedEntity(tag: DW_TAG_imported_declaration, scope: !2, entity: !1085, file: !1080, line: 143)
!1085 = !DISubprogram(name: "btowc", scope: !1086, file: !1086, line: 284, type: !1087, flags: DIFlagPrototyped, spFlags: 0)
!1086 = !DIFile(filename: "/usr/include/wchar.h", directory: "")
!1087 = !DISubroutineType(types: !1088)
!1088 = !{!1082, !11}
!1089 = !DIImportedEntity(tag: DW_TAG_imported_declaration, scope: !2, entity: !1090, file: !1080, line: 144)
!1090 = !DISubprogram(name: "fgetwc", scope: !1086, file: !1086, line: 726, type: !1091, flags: DIFlagPrototyped, spFlags: 0)
!1091 = !DISubroutineType(types: !1092)
!1092 = !{!1082, !1093}
!1093 = !DIDerivedType(tag: DW_TAG_pointer_type, baseType: !1094, size: 64)
!1094 = !DIDerivedType(tag: DW_TAG_typedef, name: "__FILE", file: !1095, line: 5, baseType: !1096)
!1095 = !DIFile(filename: "/usr/include/x86_64-linux-gnu/bits/types/__FILE.h", directory: "")
!1096 = !DICompositeType(tag: DW_TAG_structure_type, name: "_IO_FILE", file: !1095, line: 4, flags: DIFlagFwdDecl, identifier: "_ZTS8_IO_FILE")
!1097 = !DIImportedEntity(tag: DW_TAG_imported_declaration, scope: !2, entity: !1098, file: !1080, line: 145)
!1098 = !DISubprogram(name: "fgetws", scope: !1086, file: !1086, line: 755, type: !1099, flags: DIFlagPrototyped, spFlags: 0)
!1099 = !DISubroutineType(types: !1100)
!1100 = !{!1101, !1103, !11, !1104}
!1101 = !DIDerivedType(tag: DW_TAG_pointer_type, baseType: !1102, size: 64)
!1102 = !DIBasicType(name: "wchar_t", size: 32, encoding: DW_ATE_signed)
!1103 = !DIDerivedType(tag: DW_TAG_restrict_type, baseType: !1101)
!1104 = !DIDerivedType(tag: DW_TAG_restrict_type, baseType: !1093)
!1105 = !DIImportedEntity(tag: DW_TAG_imported_declaration, scope: !2, entity: !1106, file: !1080, line: 146)
!1106 = !DISubprogram(name: "fputwc", scope: !1086, file: !1086, line: 740, type: !1107, flags: DIFlagPrototyped, spFlags: 0)
!1107 = !DISubroutineType(types: !1108)
!1108 = !{!1082, !1102, !1093}
!1109 = !DIImportedEntity(tag: DW_TAG_imported_declaration, scope: !2, entity: !1110, file: !1080, line: 147)
!1110 = !DISubprogram(name: "fputws", scope: !1086, file: !1086, line: 762, type: !1111, flags: DIFlagPrototyped, spFlags: 0)
!1111 = !DISubroutineType(types: !1112)
!1112 = !{!11, !1113, !1104}
!1113 = !DIDerivedType(tag: DW_TAG_restrict_type, baseType: !1114)
!1114 = !DIDerivedType(tag: DW_TAG_pointer_type, baseType: !1115, size: 64)
!1115 = !DIDerivedType(tag: DW_TAG_const_type, baseType: !1102)
!1116 = !DIImportedEntity(tag: DW_TAG_imported_declaration, scope: !2, entity: !1117, file: !1080, line: 148)
!1117 = !DISubprogram(name: "fwide", scope: !1086, file: !1086, line: 573, type: !1118, flags: DIFlagPrototyped, spFlags: 0)
!1118 = !DISubroutineType(types: !1119)
!1119 = !{!11, !1093, !11}
!1120 = !DIImportedEntity(tag: DW_TAG_imported_declaration, scope: !2, entity: !1121, file: !1080, line: 149)
!1121 = !DISubprogram(name: "fwprintf", scope: !1086, file: !1086, line: 580, type: !1122, flags: DIFlagPrototyped, spFlags: 0)
!1122 = !DISubroutineType(types: !1123)
!1123 = !{!11, !1104, !1113, null}
!1124 = !DIImportedEntity(tag: DW_TAG_imported_declaration, scope: !2, entity: !1125, file: !1080, line: 150)
!1125 = !DISubprogram(name: "fwscanf", linkageName: "__isoc99_fwscanf", scope: !1086, file: !1086, line: 640, type: !1122, flags: DIFlagPrototyped, spFlags: 0)
!1126 = !DIImportedEntity(tag: DW_TAG_imported_declaration, scope: !2, entity: !1127, file: !1080, line: 151)
!1127 = !DISubprogram(name: "getwc", scope: !1086, file: !1086, line: 727, type: !1091, flags: DIFlagPrototyped, spFlags: 0)
!1128 = !DIImportedEntity(tag: DW_TAG_imported_declaration, scope: !2, entity: !1129, file: !1080, line: 152)
!1129 = !DISubprogram(name: "getwchar", scope: !1086, file: !1086, line: 733, type: !1130, flags: DIFlagPrototyped, spFlags: 0)
!1130 = !DISubroutineType(types: !1131)
!1131 = !{!1082}
!1132 = !DIImportedEntity(tag: DW_TAG_imported_declaration, scope: !2, entity: !1133, file: !1080, line: 153)
!1133 = !DISubprogram(name: "mbrlen", scope: !1086, file: !1086, line: 307, type: !1134, flags: DIFlagPrototyped, spFlags: 0)
!1134 = !DISubroutineType(types: !1135)
!1135 = !{!1136, !1138, !1136, !1139}
!1136 = !DIDerivedType(tag: DW_TAG_typedef, name: "size_t", file: !1137, line: 46, baseType: !181)
!1137 = !DIFile(filename: "Rohit/IR2Vec-LoopOptimizationFramework/build_REL_AsrtON/lib/clang/10.0.1/include/stddef.h", directory: "/home/venkat/IF-DV")
!1138 = !DIDerivedType(tag: DW_TAG_restrict_type, baseType: !92)
!1139 = !DIDerivedType(tag: DW_TAG_restrict_type, baseType: !1140)
!1140 = !DIDerivedType(tag: DW_TAG_pointer_type, baseType: !1065, size: 64)
!1141 = !DIImportedEntity(tag: DW_TAG_imported_declaration, scope: !2, entity: !1142, file: !1080, line: 154)
!1142 = !DISubprogram(name: "mbrtowc", scope: !1086, file: !1086, line: 296, type: !1143, flags: DIFlagPrototyped, spFlags: 0)
!1143 = !DISubroutineType(types: !1144)
!1144 = !{!1136, !1103, !1138, !1136, !1139}
!1145 = !DIImportedEntity(tag: DW_TAG_imported_declaration, scope: !2, entity: !1146, file: !1080, line: 155)
!1146 = !DISubprogram(name: "mbsinit", scope: !1086, file: !1086, line: 292, type: !1147, flags: DIFlagPrototyped, spFlags: 0)
!1147 = !DISubroutineType(types: !1148)
!1148 = !{!11, !1149}
!1149 = !DIDerivedType(tag: DW_TAG_pointer_type, baseType: !1150, size: 64)
!1150 = !DIDerivedType(tag: DW_TAG_const_type, baseType: !1065)
!1151 = !DIImportedEntity(tag: DW_TAG_imported_declaration, scope: !2, entity: !1152, file: !1080, line: 156)
!1152 = !DISubprogram(name: "mbsrtowcs", scope: !1086, file: !1086, line: 337, type: !1153, flags: DIFlagPrototyped, spFlags: 0)
!1153 = !DISubroutineType(types: !1154)
!1154 = !{!1136, !1103, !1155, !1136, !1139}
!1155 = !DIDerivedType(tag: DW_TAG_restrict_type, baseType: !1156)
!1156 = !DIDerivedType(tag: DW_TAG_pointer_type, baseType: !92, size: 64)
!1157 = !DIImportedEntity(tag: DW_TAG_imported_declaration, scope: !2, entity: !1158, file: !1080, line: 157)
!1158 = !DISubprogram(name: "putwc", scope: !1086, file: !1086, line: 741, type: !1107, flags: DIFlagPrototyped, spFlags: 0)
!1159 = !DIImportedEntity(tag: DW_TAG_imported_declaration, scope: !2, entity: !1160, file: !1080, line: 158)
