; ModuleID = 'simulator/indexedfileoutvectormgr.cc'
source_filename = "simulator/indexedfileoutvectormgr.cc"
target datalayout = "e-m:e-p270:32:32-p271:32:32-p272:64:64-i64:64-f80:128-n8:16:32:64-S128"
target triple = "x86_64-unknown-linux-gnu"

%"class.std::ios_base::Init" = type { i8 }
%class.cConfigOption = type { %class.cNoncopyableOwnedObject.base, i8, i8, i32, %"class.std::__cxx11::basic_string", %"class.std::__cxx11::basic_string", %"class.std::__cxx11::basic_string" }
%class.cNoncopyableOwnedObject.base = type { %class.cOwnedObject.base }
%class.cOwnedObject.base = type <{ %class.cNamedObject.base, [4 x i8], %class.cObject*, i32 }>
%class.cNamedObject.base = type <{ %class.cObject, i8*, i16, i16 }>
%class.cObject = type { i32 (...)** }
%"class.std::__cxx11::basic_string" = type { %"struct.std::__cxx11::basic_string<char, std::char_traits<char>, std::allocator<char> >::_Alloc_hider", i64, %union.anon }
%"struct.std::__cxx11::basic_string<char, std::char_traits<char>, std::allocator<char> >::_Alloc_hider" = type { i8* }
%union.anon = type { i64, [8 x i8] }
%class.ExecuteOnStartup = type { void ()*, %class.ExecuteOnStartup* }
%class.cGlobalRegistrationList = type { %class.cRegistrationList*, i8* }
%class.cRegistrationList = type { %class.cNamedObject.base, %"class.std::vector.15", %"class.std::map.20", %"class.std::map.20" }
%"class.std::vector.15" = type { %"struct.std::_Vector_base.16" }
%"struct.std::_Vector_base.16" = type { %"struct.std::_Vector_base<cOwnedObject *, std::allocator<cOwnedObject *> >::_Vector_impl" }
%"struct.std::_Vector_base<cOwnedObject *, std::allocator<cOwnedObject *> >::_Vector_impl" = type { %"struct.std::_Vector_base<cOwnedObject *, std::allocator<cOwnedObject *> >::_Vector_impl_data" }
%"struct.std::_Vector_base<cOwnedObject *, std::allocator<cOwnedObject *> >::_Vector_impl_data" = type { %class.cOwnedObject**, %class.cOwnedObject**, %class.cOwnedObject** }
%class.cOwnedObject = type <{ %class.cNamedObject.base, [4 x i8], %class.cObject*, i32, [4 x i8] }>
%"class.std::map.20" = type { %"class.std::_Rb_tree.21" }
%"class.std::_Rb_tree.21" = type { %"struct.std::_Rb_tree<std::__cxx11::basic_string<char>, std::pair<const std::__cxx11::basic_string<char>, cOwnedObject *>, std::_Select1st<std::pair<const std::__cxx11::basic_string<char>, cOwnedObject *> >, std::less<std::__cxx11::basic_string<char> >, std::allocator<std::pair<const std::__cxx11::basic_string<char>, cOwnedObject *> > >::_Rb_tree_impl" }
%"struct.std::_Rb_tree<std::__cxx11::basic_string<char>, std::pair<const std::__cxx11::basic_string<char>, cOwnedObject *>, std::_Select1st<std::pair<const std::__cxx11::basic_string<char>, cOwnedObject *> >, std::less<std::__cxx11::basic_string<char> >, std::allocator<std::pair<const std::__cxx11::basic_string<char>, cOwnedObject *> > >::_Rb_tree_impl" = type { %"struct.std::_Rb_tree_key_compare.25", %"struct.std::_Rb_tree_header" }
%"struct.std::_Rb_tree_key_compare.25" = type { %"struct.std::less.26" }
%"struct.std::less.26" = type { i8 }
%"struct.std::_Rb_tree_header" = type { %"struct.std::_Rb_tree_node_base", i64 }
%"struct.std::_Rb_tree_node_base" = type { i32, %"struct.std::_Rb_tree_node_base"*, %"struct.std::_Rb_tree_node_base"*, %"struct.std::_Rb_tree_node_base"* }
%class.cEnvir = type { i32 (...)**, i8, i8, i8, %"class.std::basic_ostream" }
%"class.std::basic_ostream" = type { i32 (...)**, %"class.std::basic_ios" }
%"class.std::basic_ios" = type { %"class.std::ios_base", %"class.std::basic_ostream"*, i8, i8, %"class.std::basic_streambuf"*, %"class.std::ctype"*, %"class.std::num_put"*, %"class.std::num_get"* }
%"class.std::ios_base" = type { i32 (...)**, i64, i64, i32, i32, i32, %"struct.std::ios_base::_Callback_list"*, %"struct.std::ios_base::_Words", [8 x %"struct.std::ios_base::_Words"], i32, %"struct.std::ios_base::_Words"*, %"class.std::locale" }
%"struct.std::ios_base::_Callback_list" = type { %"struct.std::ios_base::_Callback_list"*, void (i32, %"class.std::ios_base"*, i32)*, i32, i32 }
%"struct.std::ios_base::_Words" = type { i8*, i64 }
%"class.std::locale" = type { %"class.std::locale::_Impl"* }
%"class.std::locale::_Impl" = type { i32, %"class.std::locale::facet"**, i64, %"class.std::locale::facet"**, i8** }
%"class.std::locale::facet" = type <{ i32 (...)**, i32, [4 x i8] }>
%"class.std::basic_streambuf" = type { i32 (...)**, i8*, i8*, i8*, i8*, i8*, i8*, %"class.std::locale" }
%"class.std::ctype" = type <{ %"class.std::locale::facet.base", [4 x i8], %struct.__locale_struct*, i8, [7 x i8], i32*, i32*, i16*, i8, [256 x i8], [256 x i8], i8, [6 x i8] }>
%"class.std::locale::facet.base" = type <{ i32 (...)**, i32 }>
%struct.__locale_struct = type { [13 x %struct.__locale_data*], i16*, i32*, i32*, [13 x i8*] }
%struct.__locale_data = type opaque
%"class.std::num_put" = type { %"class.std::locale::facet.base", [4 x i8] }
%"class.std::num_get" = type { %"class.std::locale::facet.base", [4 x i8] }
%class.cSimulation = type { %class.cNoncopyableOwnedObject.base, i32, i32, %class.cModule**, i32, %class.cEnvir*, %class.cModule*, %class.cSimpleModule*, %class.cComponent*, i32, %class.cModuleType*, %class.cScheduler*, %class.SimTime, i64, %class.cMessage*, %class.cException*, %class.cHasher*, %class.cMessageHeap }
%class.cModule = type { %class.cComponent, i8*, i32, %class.cModule*, %class.cModule*, %class.cModule*, %class.cModule*, i32, %"struct.cGate::Desc"*, i32, i32 }
%class.cComponent = type { %class.cDefaultList, %class.cComponentType*, i16, i32*, i16, i16, %class.cPar*, %class.cDisplayString* }
%class.cDefaultList = type { %class.cNoncopyableOwnedObject.base, %class.cOwnedObject**, i32, i32 }
%class.cComponentType = type opaque
%class.cPar = type { %class.cObject, %class.cComponent*, %class.cParImpl* }
%class.cParImpl = type opaque
%class.cDisplayString = type opaque
%"struct.cGate::Desc" = type { %class.cModule*, %"struct.cGate::Name"*, i32, %union.anon.12, %union.anon.13 }
%"struct.cGate::Name" = type <{ %class.opp_string, %class.opp_string, %class.opp_string, i32, [4 x i8] }>
%class.opp_string = type { i8* }
%union.anon.12 = type { %class.cGate* }
%class.cGate = type { %class.cObject, %"struct.cGate::Desc"*, i32, %class.cChannel*, %class.cGate*, %class.cGate* }
%class.cChannel = type opaque
%union.anon.13 = type { %class.cGate* }
%class.cSimpleModule = type opaque
%class.cModuleType = type opaque
%class.cScheduler = type opaque
%class.SimTime = type { i64 }
%class.cMessage = type opaque
%class.cException = type <{ %"class.std::exception", i32, [4 x i8], %"class.std::__cxx11::basic_string", i8, [7 x i8], %"class.std::__cxx11::basic_string", %"class.std::__cxx11::basic_string", i32, [4 x i8] }>
%"class.std::exception" = type { i32 (...)** }
%class.cHasher = type opaque
%class.cMessageHeap = type { %class.cOwnedObject.base, %class.cMessage**, i32, i32, i64 }
%class.cIndexedFileOutputVectorManager = type { %class.cFileOutputVectorManager.base, %class.opp_string, %struct._IO_FILE*, i64, i64, %"class.std::vector" }
%class.cFileOutputVectorManager.base = type <{ %class.cOutputVectorManager, %struct.sRunData, i32, [4 x i8], %class.opp_string, %struct._IO_FILE*, i32 }>
%class.cOutputVectorManager = type { %class.cObject }
%struct.sRunData = type { i8, %class.opp_string, %class.opp_string_map, %class.opp_string_map }
%class.opp_string_map = type { %"class.std::map" }
%"class.std::map" = type { %"class.std::_Rb_tree" }
%"class.std::_Rb_tree" = type { %"struct.std::_Rb_tree<opp_string, std::pair<const opp_string, opp_string>, std::_Select1st<std::pair<const opp_string, opp_string> >, std::less<opp_string>, std::allocator<std::pair<const opp_string, opp_string> > >::_Rb_tree_impl" }
%"struct.std::_Rb_tree<opp_string, std::pair<const opp_string, opp_string>, std::_Select1st<std::pair<const opp_string, opp_string> >, std::less<opp_string>, std::allocator<std::pair<const opp_string, opp_string> > >::_Rb_tree_impl" = type { %"struct.std::_Rb_tree_key_compare", %"struct.std::_Rb_tree_header" }
%"struct.std::_Rb_tree_key_compare" = type { %"struct.std::less" }
%"struct.std::less" = type { i8 }
%struct._IO_FILE = type { i32, i8*, i8*, i8*, i8*, i8*, i8*, i8*, i8*, i8*, i8*, i8*, %struct._IO_marker*, %struct._IO_FILE*, i32, i32, i64, i16, i8, [1 x i8], i8*, i64, %struct._IO_codecvt*, %struct._IO_wide_data*, %struct._IO_FILE*, i8*, i64, i32, [20 x i8] }
%struct._IO_marker = type opaque
%struct._IO_codecvt = type opaque
%struct._IO_wide_data = type opaque
%"class.std::vector" = type { %"struct.std::_Vector_base" }
%"struct.std::_Vector_base" = type { %"struct.std::_Vector_base<cIndexedFileOutputVectorManager::sVector *, std::allocator<cIndexedFileOutputVectorManager::sVector *> >::_Vector_impl" }
%"struct.std::_Vector_base<cIndexedFileOutputVectorManager::sVector *, std::allocator<cIndexedFileOutputVectorManager::sVector *> >::_Vector_impl" = type { %"struct.std::_Vector_base<cIndexedFileOutputVectorManager::sVector *, std::allocator<cIndexedFileOutputVectorManager::sVector *> >::_Vector_impl_data" }
%"struct.std::_Vector_base<cIndexedFileOutputVectorManager::sVector *, std::allocator<cIndexedFileOutputVectorManager::sVector *> >::_Vector_impl_data" = type { %"struct.cIndexedFileOutputVectorManager::sVector"**, %"struct.cIndexedFileOutputVectorManager::sVector"**, %"struct.cIndexedFileOutputVectorManager::sVector"** }
%"struct.cIndexedFileOutputVectorManager::sVector" = type { %"struct.cFileOutputVectorManager::sVectorData", %"class.std::vector.6", i64, %"struct.cIndexedFileOutputVectorManager::sBlock" }
%"struct.cFileOutputVectorManager::sVectorData" = type { i32, %class.opp_string, %class.opp_string, %class.opp_string_map, i8, i8, i8, %class.Intervals }
%class.Intervals = type { %"struct.Intervals::Interval"* }
%"struct.Intervals::Interval" = type { %class.SimTime, %class.SimTime }
%"class.std::vector.6" = type { %"struct.std::_Vector_base.7" }
%"struct.std::_Vector_base.7" = type { %"struct.std::_Vector_base<cIndexedFileOutputVectorManager::sSample, std::allocator<cIndexedFileOutputVectorManager::sSample> >::_Vector_impl" }
%"struct.std::_Vector_base<cIndexedFileOutputVectorManager::sSample, std::allocator<cIndexedFileOutputVectorManager::sSample> >::_Vector_impl" = type { %"struct.std::_Vector_base<cIndexedFileOutputVectorManager::sSample, std::allocator<cIndexedFileOutputVectorManager::sSample> >::_Vector_impl_data" }
%"struct.std::_Vector_base<cIndexedFileOutputVectorManager::sSample, std::allocator<cIndexedFileOutputVectorManager::sSample> >::_Vector_impl_data" = type { %"struct.cIndexedFileOutputVectorManager::sSample"*, %"struct.cIndexedFileOutputVectorManager::sSample"*, %"struct.cIndexedFileOutputVectorManager::sSample"* }
%"struct.cIndexedFileOutputVectorManager::sSample" = type { %class.SimTime, i64, double }
%"struct.cIndexedFileOutputVectorManager::sBlock" = type { i64, i64, i64, i64, %class.SimTime, %class.SimTime, i64, double, double, double, double }
%class.cClassFactory = type { %class.cNoncopyableOwnedObject.base, %class.cObject* ()*, %"class.std::__cxx11::basic_string" }
%"class.std::type_info" = type { i32 (...)**, i8* }
%class.cFileOutputVectorManager = type <{ %class.cOutputVectorManager, %struct.sRunData, i32, [4 x i8], %class.opp_string, %struct._IO_FILE*, i32, [4 x i8] }>
%class.cConfiguration = type { %class.cObject }
%"class.std::allocator.3" = type { i8 }
%class.cRuntimeError = type { %class.cException.base, [4 x i8] }
%class.cException.base = type <{ %"class.std::exception", i32, [4 x i8], %"class.std::__cxx11::basic_string", i8, [7 x i8], %"class.std::__cxx11::basic_string", %"class.std::__cxx11::basic_string", i32 }>
%struct.stat64 = type { i64, i64, i64, i32, i32, i32, i32, i64, i64, i64, i64, %struct.timespec, %struct.timespec, %struct.timespec, [3 x i64] }
%struct.timespec = type { i64, i64 }
%"class.__gnu_cxx::__normal_iterator" = type { %"struct.cIndexedFileOutputVectorManager::sVector"** }
%"class.__gnu_cxx::__normal_iterator.11" = type { %"struct.cIndexedFileOutputVectorManager::sVector"** }
%"struct.__gnu_cxx::__ops::_Iter_equals_val" = type { %"struct.cIndexedFileOutputVectorManager::sVector"** }
%"struct.std::_Rb_tree_iterator" = type { %"struct.std::_Rb_tree_node_base"* }
%"struct.std::pair" = type { %class.opp_string, %class.opp_string }
%"struct.std::_Rb_tree_node" = type { %"struct.std::_Rb_tree_node_base", %"struct.__gnu_cxx::__aligned_membuf" }
%"struct.__gnu_cxx::__aligned_membuf" = type { [16 x i8] }
%"class.__gnu_cxx::__normal_iterator.28" = type { %"struct.cIndexedFileOutputVectorManager::sSample"* }
%"class.__gnu_cxx::__normal_iterator.14" = type { %"struct.cIndexedFileOutputVectorManager::sSample"* }
%class.cClassDescriptor = type opaque
%class.cCommBuffer = type opaque
%class.cVisitor = type { i32 (...)** }
%"class.__gnu_cxx::new_allocator.4" = type { i8 }
%"class.std::allocator" = type { i8 }
%"class.std::allocator.8" = type { i8 }
%"class.__gnu_cxx::new_allocator.9" = type { i8 }
%"class.std::allocator.0" = type { i8 }
%"class.__gnu_cxx::new_allocator.1" = type { i8 }
%"struct.std::integral_constant" = type { i8 }
%"struct.std::random_access_iterator_tag" = type { i8 }

$_ZN10opp_stringC2Ev = comdat any

$_ZNSt6vectorIPN31cIndexedFileOutputVectorManager7sVectorESaIS2_EEC2Ev = comdat any

$_ZN11cSimulation14getActiveEnvirEv = comdat any

$_ZSt3maxIlERKT_S2_S2_ = comdat any

$_ZNSt6vectorIPN31cIndexedFileOutputVectorManager7sVectorESaIS2_EED2Ev = comdat any

$_ZN10opp_stringD2Ev = comdat any

$_ZNK10opp_string5c_strEv = comdat any

$_ZN13cRuntimeErrorD2Ev = comdat any

$_ZN10opp_stringC2ERKS_ = comdat any

$_ZN10opp_stringaSERKS_ = comdat any

$_ZNSt6vectorIPN31cIndexedFileOutputVectorManager7sVectorESaIS2_EE5beginEv = comdat any

$_ZN9__gnu_cxxneIPPN31cIndexedFileOutputVectorManager7sVectorESt6vectorIS3_SaIS3_EEEEbRKNS_17__normal_iteratorIT_T0_EESD_ = comdat any

$_ZNSt6vectorIPN31cIndexedFileOutputVectorManager7sVectorESaIS2_EE3endEv = comdat any

$_ZNK9__gnu_cxx17__normal_iteratorIPPN31cIndexedFileOutputVectorManager7sVectorESt6vectorIS3_SaIS3_EEEdeEv = comdat any

$_ZN9__gnu_cxx17__normal_iteratorIPPN31cIndexedFileOutputVectorManager7sVectorESt6vectorIS3_SaIS3_EEEppEv = comdat any

$_ZNSt6vectorIPN31cIndexedFileOutputVectorManager7sVectorESaIS2_EE5clearEv = comdat any

$_ZN31cIndexedFileOutputVectorManager7sVector14allocateBufferEl = comdat any

$_ZNSt6vectorIPN31cIndexedFileOutputVectorManager7sVectorESaIS2_EE9push_backERKS2_ = comdat any

$_ZN31cIndexedFileOutputVectorManager7sVectorC2Ev = comdat any

$_ZSt6removeIN9__gnu_cxx17__normal_iteratorIPPN31cIndexedFileOutputVectorManager7sVectorESt6vectorIS4_SaIS4_EEEES4_ET_SA_SA_RKT0_ = comdat any

$_ZNSt6vectorIPN31cIndexedFileOutputVectorManager7sVectorESaIS2_EE5eraseEN9__gnu_cxx17__normal_iteratorIPKS2_S4_EES9_ = comdat any

$_ZN9__gnu_cxx17__normal_iteratorIPKPN31cIndexedFileOutputVectorManager7sVectorESt6vectorIS3_SaIS3_EEEC2IPS3_EERKNS0_IT_NS_11__enable_ifIXsr3std10__are_sameISC_SB_EE7__valueES8_E6__typeEEE = comdat any

$_ZN24cFileOutputVectorManager11sVectorData10getColumnsEv = comdat any

$_ZNSt3mapI10opp_stringS0_St4lessIS0_ESaISt4pairIKS0_S0_EEE5beginEv = comdat any

$_ZStneRKSt17_Rb_tree_iteratorISt4pairIK10opp_stringS1_EES6_ = comdat any

$_ZNSt3mapI10opp_stringS0_St4lessIS0_ESaISt4pairIKS0_S0_EEE3endEv = comdat any

$_ZNKSt17_Rb_tree_iteratorISt4pairIK10opp_stringS1_EEptEv = comdat any

$_ZNSt17_Rb_tree_iteratorISt4pairIK10opp_stringS1_EEppEi = comdat any

$_ZNKSt6vectorIN31cIndexedFileOutputVectorManager7sSampleESaIS1_EE5emptyEv = comdat any

$_ZN7SimTimeC2ERKS_ = comdat any

$_ZN11cSimulation19getActiveSimulationEv = comdat any

$_ZNK11cSimulation14getEventNumberEv = comdat any

$_ZN7SimTimeaSERKS_ = comdat any

$_ZSt3minIdERKT_S2_S2_ = comdat any

$_ZSt3maxIdERKT_S2_S2_ = comdat any

$_ZNSt6vectorIN31cIndexedFileOutputVectorManager7sSampleESaIS1_EE9push_backEOS1_ = comdat any

$_ZN31cIndexedFileOutputVectorManager7sSampleC2E7SimTimeld = comdat any

$_ZNKSt6vectorIN31cIndexedFileOutputVectorManager7sSampleESaIS1_EE4sizeEv = comdat any

$_ZNSt6vectorIN31cIndexedFileOutputVectorManager7sSampleESaIS1_EE5beginEv = comdat any

$_ZN9__gnu_cxxneIPN31cIndexedFileOutputVectorManager7sSampleESt6vectorIS2_SaIS2_EEEEbRKNS_17__normal_iteratorIT_T0_EESC_ = comdat any

$_ZNSt6vectorIN31cIndexedFileOutputVectorManager7sSampleESaIS1_EE3endEv = comdat any

$_ZNK9__gnu_cxx17__normal_iteratorIPN31cIndexedFileOutputVectorManager7sSampleESt6vectorIS2_SaIS2_EEEptEv = comdat any

$_ZNK7SimTime3strEPc = comdat any

$_ZN9__gnu_cxx17__normal_iteratorIPN31cIndexedFileOutputVectorManager7sSampleESt6vectorIS2_SaIS2_EEEppEv = comdat any

$_ZNSt6vectorIN31cIndexedFileOutputVectorManager7sSampleESaIS1_EE5clearEv = comdat any

$_ZN31cIndexedFileOutputVectorManager6sBlock5resetEv = comdat any

$_ZN31cIndexedFileOutputVectorManagerD2Ev = comdat any

$_ZN31cIndexedFileOutputVectorManagerD0Ev = comdat any

$_ZNK7cObject7getNameEv = comdat any

$_ZNK7cObject11getFullNameEv = comdat any

$_ZNK7cObject8getOwnerEv = comdat any

$_ZNK7cObject13isOwnedObjectEv = comdat any

$_ZNSt12_Vector_baseIPN31cIndexedFileOutputVectorManager7sVectorESaIS2_EEC2Ev = comdat any

$_ZNSt12_Vector_baseIPN31cIndexedFileOutputVectorManager7sVectorESaIS2_EE12_Vector_implC2Ev = comdat any

$_ZNSaIPN31cIndexedFileOutputVectorManager7sVectorEEC2Ev = comdat any

$_ZNSt12_Vector_baseIPN31cIndexedFileOutputVectorManager7sVectorESaIS2_EE17_Vector_impl_dataC2Ev = comdat any

$_ZN9__gnu_cxx13new_allocatorIPN31cIndexedFileOutputVectorManager7sVectorEEC2Ev = comdat any

$_ZN10cExceptionD2Ev = comdat any

$_ZN10cExceptionD0Ev = comdat any

$_ZNK10cException4whatEv = comdat any

$_ZNK10cException3dupEv = comdat any

$_ZNK10cException12getErrorCodeEv = comdat any

$_ZN10cException10setMessageEPKc = comdat any

$_ZN10cException14prependMessageEPKc = comdat any

$_ZNK10cException10hasContextEv = comdat any

$_ZNK10cException19getContextClassNameEv = comdat any

$_ZNK10cException18getContextFullPathEv = comdat any

$_ZNK10cException11getModuleIDEv = comdat any

$_ZStplIcSt11char_traitsIcESaIcEENSt7__cxx1112basic_stringIT_T0_T1_EEOS8_RKS8_ = comdat any

$_ZStplIcSt11char_traitsIcESaIcEENSt7__cxx1112basic_stringIT_T0_T1_EEOS8_PKS5_ = comdat any

$_ZSt4moveIRNSt7__cxx1112basic_stringIcSt11char_traitsIcESaIcEEEEONSt16remove_referenceIT_E4typeEOS8_ = comdat any

$_ZN10opp_string7reserveEj = comdat any

$_ZN10opp_string6bufferEv = comdat any

$_Z10opp_strdupPKc = comdat any

$_ZN10opp_stringaSEPKc = comdat any

$_ZNSt6vectorIN31cIndexedFileOutputVectorManager7sSampleESaIS1_EE7reserveEm = comdat any

$_ZNKSt6vectorIN31cIndexedFileOutputVectorManager7sSampleESaIS1_EE8max_sizeEv = comdat any

$_ZNKSt6vectorIN31cIndexedFileOutputVectorManager7sSampleESaIS1_EE8capacityEv = comdat any

$_ZNSt6vectorIN31cIndexedFileOutputVectorManager7sSampleESaIS1_EE20_M_allocate_and_copyIPKS1_EEPS1_mT_S8_ = comdat any

$_ZSt32__make_move_if_noexcept_iteratorIN31cIndexedFileOutputVectorManager7sSampleEPKS1_ET0_PT_ = comdat any

$_ZSt8_DestroyIPN31cIndexedFileOutputVectorManager7sSampleES1_EvT_S3_RSaIT0_E = comdat any

$_ZNSt12_Vector_baseIN31cIndexedFileOutputVectorManager7sSampleESaIS1_EE19_M_get_Tp_allocatorEv = comdat any

$_ZNSt12_Vector_baseIN31cIndexedFileOutputVectorManager7sSampleESaIS1_EE13_M_deallocateEPS1_m = comdat any

$_ZNSt6vectorIN31cIndexedFileOutputVectorManager7sSampleESaIS1_EE11_S_max_sizeERKS2_ = comdat any

$_ZNKSt12_Vector_baseIN31cIndexedFileOutputVectorManager7sSampleESaIS1_EE19_M_get_Tp_allocatorEv = comdat any

$_ZNSt16allocator_traitsISaIN31cIndexedFileOutputVectorManager7sSampleEEE8max_sizeERKS2_ = comdat any

$_ZSt3minImERKT_S2_S2_ = comdat any

$__clang_call_terminate = comdat any

$_ZNK9__gnu_cxx13new_allocatorIN31cIndexedFileOutputVectorManager7sSampleEE8max_sizeEv = comdat any

$_ZNK9__gnu_cxx13new_allocatorIN31cIndexedFileOutputVectorManager7sSampleEE11_M_max_sizeEv = comdat any

$_ZNSt12_Vector_baseIN31cIndexedFileOutputVectorManager7sSampleESaIS1_EE11_M_allocateEm = comdat any

$_ZSt22__uninitialized_copy_aIPKN31cIndexedFileOutputVectorManager7sSampleEPS1_S1_ET0_T_S6_S5_RSaIT1_E = comdat any

$_ZNSt16allocator_traitsISaIN31cIndexedFileOutputVectorManager7sSampleEEE8allocateERS2_m = comdat any

$_ZN9__gnu_cxx13new_allocatorIN31cIndexedFileOutputVectorManager7sSampleEE8allocateEmPKv = comdat any

$_ZSt18uninitialized_copyIPKN31cIndexedFileOutputVectorManager7sSampleEPS1_ET0_T_S6_S5_ = comdat any

$_ZNSt20__uninitialized_copyILb0EE13__uninit_copyIPKN31cIndexedFileOutputVectorManager7sSampleEPS3_EET0_T_S8_S7_ = comdat any

$_ZSt10_ConstructIN31cIndexedFileOutputVectorManager7sSampleEJRKS1_EEvPT_DpOT0_ = comdat any

$_ZSt11__addressofIN31cIndexedFileOutputVectorManager7sSampleEEPT_RS2_ = comdat any

$_ZSt8_DestroyIPN31cIndexedFileOutputVectorManager7sSampleEEvT_S3_ = comdat any

$_ZSt7forwardIRKN31cIndexedFileOutputVectorManager7sSampleEEOT_RNSt16remove_referenceIS4_E4typeE = comdat any

$_ZN31cIndexedFileOutputVectorManager7sSampleC2ERKS0_ = comdat any

$_ZNSt12_Destroy_auxILb1EE9__destroyIPN31cIndexedFileOutputVectorManager7sSampleEEEvT_S5_ = comdat any

$_ZNSt16allocator_traitsISaIN31cIndexedFileOutputVectorManager7sSampleEEE10deallocateERS2_PS1_m = comdat any

$_ZN9__gnu_cxx13new_allocatorIN31cIndexedFileOutputVectorManager7sSampleEE10deallocateEPS2_m = comdat any

$_ZN24cFileOutputVectorManager11sVectorDataC2Ev = comdat any

$_ZNSt6vectorIN31cIndexedFileOutputVectorManager7sSampleESaIS1_EEC2Ev = comdat any

$_ZN31cIndexedFileOutputVectorManager6sBlockC2Ev = comdat any

$_ZNSt6vectorIN31cIndexedFileOutputVectorManager7sSampleESaIS1_EED2Ev = comdat any

$_ZN24cFileOutputVectorManager11sVectorDataD2Ev = comdat any

$_ZN14opp_string_mapC2Ev = comdat any

$_ZN14opp_string_mapD2Ev = comdat any

$_ZNSt3mapI10opp_stringS0_St4lessIS0_ESaISt4pairIKS0_S0_EEEC2Ev = comdat any

$_ZNSt8_Rb_treeI10opp_stringSt4pairIKS0_S0_ESt10_Select1stIS3_ESt4lessIS0_ESaIS3_EEC2Ev = comdat any

$_ZNSt8_Rb_treeI10opp_stringSt4pairIKS0_S0_ESt10_Select1stIS3_ESt4lessIS0_ESaIS3_EE13_Rb_tree_implIS7_Lb1EEC2Ev = comdat any

$_ZNSaISt13_Rb_tree_nodeISt4pairIK10opp_stringS1_EEEC2Ev = comdat any

$_ZNSt20_Rb_tree_key_compareISt4lessI10opp_stringEEC2Ev = comdat any

$_ZNSt15_Rb_tree_headerC2Ev = comdat any

$_ZN9__gnu_cxx13new_allocatorISt13_Rb_tree_nodeISt4pairIK10opp_stringS3_EEEC2Ev = comdat any

$_ZNSt15_Rb_tree_header8_M_resetEv = comdat any

$_ZNSt3mapI10opp_stringS0_St4lessIS0_ESaISt4pairIKS0_S0_EEED2Ev = comdat any

$_ZNSt8_Rb_treeI10opp_stringSt4pairIKS0_S0_ESt10_Select1stIS3_ESt4lessIS0_ESaIS3_EED2Ev = comdat any

$_ZNSt8_Rb_treeI10opp_stringSt4pairIKS0_S0_ESt10_Select1stIS3_ESt4lessIS0_ESaIS3_EE8_M_eraseEPSt13_Rb_tree_nodeIS3_E = comdat any

$_ZNSt8_Rb_treeI10opp_stringSt4pairIKS0_S0_ESt10_Select1stIS3_ESt4lessIS0_ESaIS3_EE8_M_beginEv = comdat any

$_ZNSt8_Rb_treeI10opp_stringSt4pairIKS0_S0_ESt10_Select1stIS3_ESt4lessIS0_ESaIS3_EE13_Rb_tree_implIS7_Lb1EED2Ev = comdat any

$_ZNSt8_Rb_treeI10opp_stringSt4pairIKS0_S0_ESt10_Select1stIS3_ESt4lessIS0_ESaIS3_EE8_S_rightEPSt18_Rb_tree_node_base = comdat any

$_ZNSt8_Rb_treeI10opp_stringSt4pairIKS0_S0_ESt10_Select1stIS3_ESt4lessIS0_ESaIS3_EE7_S_leftEPSt18_Rb_tree_node_base = comdat any

$_ZNSt8_Rb_treeI10opp_stringSt4pairIKS0_S0_ESt10_Select1stIS3_ESt4lessIS0_ESaIS3_EE12_M_drop_nodeEPSt13_Rb_tree_nodeIS3_E = comdat any

$_ZNSt8_Rb_treeI10opp_stringSt4pairIKS0_S0_ESt10_Select1stIS3_ESt4lessIS0_ESaIS3_EE15_M_destroy_nodeEPSt13_Rb_tree_nodeIS3_E = comdat any

$_ZNSt8_Rb_treeI10opp_stringSt4pairIKS0_S0_ESt10_Select1stIS3_ESt4lessIS0_ESaIS3_EE11_M_put_nodeEPSt13_Rb_tree_nodeIS3_E = comdat any

$_ZNSt16allocator_traitsISaISt13_Rb_tree_nodeISt4pairIK10opp_stringS2_EEEE7destroyIS4_EEvRS6_PT_ = comdat any

$_ZNSt8_Rb_treeI10opp_stringSt4pairIKS0_S0_ESt10_Select1stIS3_ESt4lessIS0_ESaIS3_EE21_M_get_Node_allocatorEv = comdat any

$_ZNSt13_Rb_tree_nodeISt4pairIK10opp_stringS1_EE9_M_valptrEv = comdat any

$_ZN9__gnu_cxx13new_allocatorISt13_Rb_tree_nodeISt4pairIK10opp_stringS3_EEE7destroyIS5_EEvPT_ = comdat any

$_ZNSt4pairIK10opp_stringS0_ED2Ev = comdat any

$_ZN9__gnu_cxx16__aligned_membufISt4pairIK10opp_stringS2_EE6_M_ptrEv = comdat any

$_ZN9__gnu_cxx16__aligned_membufISt4pairIK10opp_stringS2_EE7_M_addrEv = comdat any

$_ZNSt16allocator_traitsISaISt13_Rb_tree_nodeISt4pairIK10opp_stringS2_EEEE10deallocateERS6_PS5_m = comdat any

$_ZN9__gnu_cxx13new_allocatorISt13_Rb_tree_nodeISt4pairIK10opp_stringS3_EEE10deallocateEPS6_m = comdat any

$_ZNSaISt13_Rb_tree_nodeISt4pairIK10opp_stringS1_EEED2Ev = comdat any

$_ZN9__gnu_cxx13new_allocatorISt13_Rb_tree_nodeISt4pairIK10opp_stringS3_EEED2Ev = comdat any

$_ZNSt12_Vector_baseIN31cIndexedFileOutputVectorManager7sSampleESaIS1_EEC2Ev = comdat any

$_ZNSt12_Vector_baseIN31cIndexedFileOutputVectorManager7sSampleESaIS1_EE12_Vector_implC2Ev = comdat any

$_ZNSaIN31cIndexedFileOutputVectorManager7sSampleEEC2Ev = comdat any

$_ZNSt12_Vector_baseIN31cIndexedFileOutputVectorManager7sSampleESaIS1_EE17_Vector_impl_dataC2Ev = comdat any

$_ZN9__gnu_cxx13new_allocatorIN31cIndexedFileOutputVectorManager7sSampleEEC2Ev = comdat any

$_ZN7SimTimeC2Ev = comdat any

$_ZNSt12_Vector_baseIN31cIndexedFileOutputVectorManager7sSampleESaIS1_EED2Ev = comdat any

$_ZNSt12_Vector_baseIN31cIndexedFileOutputVectorManager7sSampleESaIS1_EE12_Vector_implD2Ev = comdat any

$_ZNSaIN31cIndexedFileOutputVectorManager7sSampleEED2Ev = comdat any

$_ZN9__gnu_cxx13new_allocatorIN31cIndexedFileOutputVectorManager7sSampleEED2Ev = comdat any

$_ZN7SimTime11getScaleExpEv = comdat any

$_ZSt8_DestroyIPPN31cIndexedFileOutputVectorManager7sVectorES2_EvT_S4_RSaIT0_E = comdat any

$_ZNSt12_Vector_baseIPN31cIndexedFileOutputVectorManager7sVectorESaIS2_EE19_M_get_Tp_allocatorEv = comdat any

$_ZNSt12_Vector_baseIPN31cIndexedFileOutputVectorManager7sVectorESaIS2_EED2Ev = comdat any

$_ZSt8_DestroyIPPN31cIndexedFileOutputVectorManager7sVectorEEvT_S4_ = comdat any

$_ZNSt12_Destroy_auxILb1EE9__destroyIPPN31cIndexedFileOutputVectorManager7sVectorEEEvT_S6_ = comdat any

$_ZNSt12_Vector_baseIPN31cIndexedFileOutputVectorManager7sVectorESaIS2_EE13_M_deallocateEPS2_m = comdat any

$_ZNSt12_Vector_baseIPN31cIndexedFileOutputVectorManager7sVectorESaIS2_EE12_Vector_implD2Ev = comdat any

$_ZNSt16allocator_traitsISaIPN31cIndexedFileOutputVectorManager7sVectorEEE10deallocateERS3_PS2_m = comdat any

$_ZN9__gnu_cxx13new_allocatorIPN31cIndexedFileOutputVectorManager7sVectorEE10deallocateEPS3_m = comdat any

$_ZNSaIPN31cIndexedFileOutputVectorManager7sVectorEED2Ev = comdat any

$_ZN9__gnu_cxx13new_allocatorIPN31cIndexedFileOutputVectorManager7sVectorEED2Ev = comdat any

$_ZN9__gnu_cxx17__normal_iteratorIPPN31cIndexedFileOutputVectorManager7sVectorESt6vectorIS3_SaIS3_EEEC2ERKS4_ = comdat any

$_ZNK9__gnu_cxx17__normal_iteratorIPPN31cIndexedFileOutputVectorManager7sVectorESt6vectorIS3_SaIS3_EEE4baseEv = comdat any

$_ZNSt6vectorIPN31cIndexedFileOutputVectorManager7sVectorESaIS2_EE15_M_erase_at_endEPS2_ = comdat any

$_ZNSt16allocator_traitsISaIPN31cIndexedFileOutputVectorManager7sVectorEEE9constructIS2_JRKS2_EEEvRS3_PT_DpOT0_ = comdat any

$_ZNSt6vectorIPN31cIndexedFileOutputVectorManager7sVectorESaIS2_EE17_M_realloc_insertIJRKS2_EEEvN9__gnu_cxx17__normal_iteratorIPS2_S4_EEDpOT_ = comdat any

$_ZN9__gnu_cxx13new_allocatorIPN31cIndexedFileOutputVectorManager7sVectorEE9constructIS3_JRKS3_EEEvPT_DpOT0_ = comdat any

$_ZSt7forwardIRKPN31cIndexedFileOutputVectorManager7sVectorEEOT_RNSt16remove_referenceIS5_E4typeE = comdat any

$_ZNKSt6vectorIPN31cIndexedFileOutputVectorManager7sVectorESaIS2_EE12_M_check_lenEmPKc = comdat any

$_ZN9__gnu_cxxmiIPPN31cIndexedFileOutputVectorManager7sVectorESt6vectorIS3_SaIS3_EEEENS_17__normal_iteratorIT_T0_E15difference_typeERKSB_SE_ = comdat any

$_ZNSt12_Vector_baseIPN31cIndexedFileOutputVectorManager7sVectorESaIS2_EE11_M_allocateEm = comdat any

$_ZNSt6vectorIPN31cIndexedFileOutputVectorManager7sVectorESaIS2_EE11_S_relocateEPS2_S5_S5_RS3_ = comdat any

$_ZNKSt6vectorIPN31cIndexedFileOutputVectorManager7sVectorESaIS2_EE8max_sizeEv = comdat any

$_ZNKSt6vectorIPN31cIndexedFileOutputVectorManager7sVectorESaIS2_EE4sizeEv = comdat any

$_ZSt3maxImERKT_S2_S2_ = comdat any

$_ZNSt6vectorIPN31cIndexedFileOutputVectorManager7sVectorESaIS2_EE11_S_max_sizeERKS3_ = comdat any

$_ZNKSt12_Vector_baseIPN31cIndexedFileOutputVectorManager7sVectorESaIS2_EE19_M_get_Tp_allocatorEv = comdat any

$_ZNSt16allocator_traitsISaIPN31cIndexedFileOutputVectorManager7sVectorEEE8max_sizeERKS3_ = comdat any

$_ZNK9__gnu_cxx13new_allocatorIPN31cIndexedFileOutputVectorManager7sVectorEE8max_sizeEv = comdat any

$_ZNK9__gnu_cxx13new_allocatorIPN31cIndexedFileOutputVectorManager7sVectorEE11_M_max_sizeEv = comdat any

$_ZNSt16allocator_traitsISaIPN31cIndexedFileOutputVectorManager7sVectorEEE8allocateERS3_m = comdat any

$_ZN9__gnu_cxx13new_allocatorIPN31cIndexedFileOutputVectorManager7sVectorEE8allocateEmPKv = comdat any

$_ZNSt6vectorIPN31cIndexedFileOutputVectorManager7sVectorESaIS2_EE14_S_do_relocateEPS2_S5_S5_RS3_St17integral_constantIbLb1EE = comdat any

$_ZSt12__relocate_aIPPN31cIndexedFileOutputVectorManager7sVectorES3_SaIS2_EET0_T_S6_S5_RT1_ = comdat any

$_ZSt14__relocate_a_1IPN31cIndexedFileOutputVectorManager7sVectorES2_ENSt9enable_ifIXsr3std24__is_bitwise_relocatableIT_EE5valueEPS4_E4typeES5_S5_S5_RSaIT0_E = comdat any

$_ZSt12__niter_baseIPPN31cIndexedFileOutputVectorManager7sVectorEET_S4_ = comdat any

$_ZSt11__remove_ifIN9__gnu_cxx17__normal_iteratorIPPN31cIndexedFileOutputVectorManager7sVectorESt6vectorIS4_SaIS4_EEEENS0_5__ops16_Iter_equals_valIKS4_EEET_SE_SE_T0_ = comdat any

$_ZN9__gnu_cxx5__ops17__iter_equals_valIKPN31cIndexedFileOutputVectorManager7sVectorEEENS0_16_Iter_equals_valIT_EERS7_ = comdat any

$_ZSt9__find_ifIN9__gnu_cxx17__normal_iteratorIPPN31cIndexedFileOutputVectorManager7sVectorESt6vectorIS4_SaIS4_EEEENS0_5__ops16_Iter_equals_valIKS4_EEET_SE_SE_T0_ = comdat any

$_ZN9__gnu_cxxeqIPPN31cIndexedFileOutputVectorManager7sVectorESt6vectorIS3_SaIS3_EEEEbRKNS_17__normal_iteratorIT_T0_EESD_ = comdat any

$_ZN9__gnu_cxx5__ops16_Iter_equals_valIKPN31cIndexedFileOutputVectorManager7sVectorEEclINS_17__normal_iteratorIPS4_St6vectorIS4_SaIS4_EEEEEEbT_ = comdat any

$_ZSt4moveIRPN31cIndexedFileOutputVectorManager7sVectorEEONSt16remove_referenceIT_E4typeEOS5_ = comdat any

$_ZSt9__find_ifIN9__gnu_cxx17__normal_iteratorIPPN31cIndexedFileOutputVectorManager7sVectorESt6vectorIS4_SaIS4_EEEENS0_5__ops16_Iter_equals_valIKS4_EEET_SE_SE_T0_St26random_access_iterator_tag = comdat any

$_ZSt19__iterator_categoryIN9__gnu_cxx17__normal_iteratorIPPN31cIndexedFileOutputVectorManager7sVectorESt6vectorIS4_SaIS4_EEEEENSt15iterator_traitsIT_E17iterator_categoryERKSB_ = comdat any

$_ZN9__gnu_cxx5__ops16_Iter_equals_valIKPN31cIndexedFileOutputVectorManager7sVectorEEC2ERS5_ = comdat any

$_ZNKSt6vectorIPN31cIndexedFileOutputVectorManager7sVectorESaIS2_EE6cbeginEv = comdat any

$_ZNSt6vectorIPN31cIndexedFileOutputVectorManager7sVectorESaIS2_EE8_M_eraseEN9__gnu_cxx17__normal_iteratorIPS2_S4_EES8_ = comdat any

$_ZNK9__gnu_cxx17__normal_iteratorIPPN31cIndexedFileOutputVectorManager7sVectorESt6vectorIS3_SaIS3_EEEplEl = comdat any

$_ZN9__gnu_cxxmiIPKPN31cIndexedFileOutputVectorManager7sVectorESt6vectorIS3_SaIS3_EEEENS_17__normal_iteratorIT_T0_E15difference_typeERKSC_SF_ = comdat any

$_ZN9__gnu_cxx17__normal_iteratorIPKPN31cIndexedFileOutputVectorManager7sVectorESt6vectorIS3_SaIS3_EEEC2ERKS5_ = comdat any

$_ZSt4moveIN9__gnu_cxx17__normal_iteratorIPPN31cIndexedFileOutputVectorManager7sVectorESt6vectorIS4_SaIS4_EEEES9_ET0_T_SB_SA_ = comdat any

$_ZSt13__copy_move_aILb1EN9__gnu_cxx17__normal_iteratorIPPN31cIndexedFileOutputVectorManager7sVectorESt6vectorIS4_SaIS4_EEEES9_ET1_T0_SB_SA_ = comdat any

$_ZSt12__miter_baseIN9__gnu_cxx17__normal_iteratorIPPN31cIndexedFileOutputVectorManager7sVectorESt6vectorIS4_SaIS4_EEEEET_SA_ = comdat any

$_ZSt12__niter_wrapIN9__gnu_cxx17__normal_iteratorIPPN31cIndexedFileOutputVectorManager7sVectorESt6vectorIS4_SaIS4_EEEES5_ET_SA_T0_ = comdat any

$_ZSt14__copy_move_a1ILb1EPPN31cIndexedFileOutputVectorManager7sVectorES3_ET1_T0_S5_S4_ = comdat any

$_ZSt12__niter_baseIPPN31cIndexedFileOutputVectorManager7sVectorESt6vectorIS2_SaIS2_EEET_N9__gnu_cxx17__normal_iteratorIS7_T0_EE = comdat any

$_ZSt14__copy_move_a2ILb1EPPN31cIndexedFileOutputVectorManager7sVectorES3_ET1_T0_S5_S4_ = comdat any

$_ZNSt11__copy_moveILb1ELb1ESt26random_access_iterator_tagE8__copy_mIPN31cIndexedFileOutputVectorManager7sVectorEEEPT_PKS6_S9_S7_ = comdat any

$_ZNK9__gnu_cxx17__normal_iteratorIPKPN31cIndexedFileOutputVectorManager7sVectorESt6vectorIS3_SaIS3_EEE4baseEv = comdat any

$_ZNSt8_Rb_treeI10opp_stringSt4pairIKS0_S0_ESt10_Select1stIS3_ESt4lessIS0_ESaIS3_EE5beginEv = comdat any

$_ZNSt17_Rb_tree_iteratorISt4pairIK10opp_stringS1_EEC2EPSt18_Rb_tree_node_base = comdat any

$_ZNSt8_Rb_treeI10opp_stringSt4pairIKS0_S0_ESt10_Select1stIS3_ESt4lessIS0_ESaIS3_EE3endEv = comdat any

$_ZN9__gnu_cxxeqIPKN31cIndexedFileOutputVectorManager7sSampleESt6vectorIS2_SaIS2_EEEEbRKNS_17__normal_iteratorIT_T0_EESD_ = comdat any

$_ZNKSt6vectorIN31cIndexedFileOutputVectorManager7sSampleESaIS1_EE5beginEv = comdat any

$_ZNKSt6vectorIN31cIndexedFileOutputVectorManager7sSampleESaIS1_EE3endEv = comdat any

$_ZNK9__gnu_cxx17__normal_iteratorIPKN31cIndexedFileOutputVectorManager7sSampleESt6vectorIS2_SaIS2_EEE4baseEv = comdat any

$_ZN9__gnu_cxx17__normal_iteratorIPKN31cIndexedFileOutputVectorManager7sSampleESt6vectorIS2_SaIS2_EEEC2ERKS4_ = comdat any

$_ZNSt6vectorIN31cIndexedFileOutputVectorManager7sSampleESaIS1_EE12emplace_backIJS1_EEEvDpOT_ = comdat any

$_ZSt4moveIRN31cIndexedFileOutputVectorManager7sSampleEEONSt16remove_referenceIT_E4typeEOS4_ = comdat any

$_ZNSt16allocator_traitsISaIN31cIndexedFileOutputVectorManager7sSampleEEE9constructIS1_JS1_EEEvRS2_PT_DpOT0_ = comdat any

$_ZSt7forwardIN31cIndexedFileOutputVectorManager7sSampleEEOT_RNSt16remove_referenceIS2_E4typeE = comdat any

$_ZNSt6vectorIN31cIndexedFileOutputVectorManager7sSampleESaIS1_EE17_M_realloc_insertIJS1_EEEvN9__gnu_cxx17__normal_iteratorIPS1_S3_EEDpOT_ = comdat any

$_ZN9__gnu_cxx13new_allocatorIN31cIndexedFileOutputVectorManager7sSampleEE9constructIS2_JS2_EEEvPT_DpOT0_ = comdat any

$_ZN31cIndexedFileOutputVectorManager7sSampleC2EOS0_ = comdat any

$_ZNKSt6vectorIN31cIndexedFileOutputVectorManager7sSampleESaIS1_EE12_M_check_lenEmPKc = comdat any

$_ZN9__gnu_cxxmiIPN31cIndexedFileOutputVectorManager7sSampleESt6vectorIS2_SaIS2_EEEENS_17__normal_iteratorIT_T0_E15difference_typeERKSA_SD_ = comdat any

$_ZSt34__uninitialized_move_if_noexcept_aIPN31cIndexedFileOutputVectorManager7sSampleES2_SaIS1_EET0_T_S5_S4_RT1_ = comdat any

$_ZNK9__gnu_cxx17__normal_iteratorIPN31cIndexedFileOutputVectorManager7sSampleESt6vectorIS2_SaIS2_EEE4baseEv = comdat any

$_ZNSt16allocator_traitsISaIN31cIndexedFileOutputVectorManager7sSampleEEE7destroyIS1_EEvRS2_PT_ = comdat any

$_ZN9__gnu_cxx13new_allocatorIN31cIndexedFileOutputVectorManager7sSampleEE7destroyIS2_EEvPT_ = comdat any

$_ZN9__gnu_cxx17__normal_iteratorIPN31cIndexedFileOutputVectorManager7sSampleESt6vectorIS2_SaIS2_EEEC2ERKS3_ = comdat any

$_ZNSt6vectorIN31cIndexedFileOutputVectorManager7sSampleESaIS1_EE15_M_erase_at_endEPS1_ = comdat any

$_ZTS13cRuntimeError = comdat any

$_ZTS10cException = comdat any

$_ZTI10cException = comdat any

$_ZTI13cRuntimeError = comdat any

$_ZTV10cException = comdat any

@_ZStL8__ioinit = internal global %"class.std::ios_base::Init" zeroinitializer, align 1, !dbg !0
@__dso_handle = external hidden global i8
@CFGID_OUTPUTVECTOR_MEMORY_LIMIT = dso_local global %class.cConfigOption* null, align 8, !dbg !28
@_ZN12_GLOBAL__N_118__onstartup_obj_52E = internal global %class.ExecuteOnStartup zeroinitializer, align 8, !dbg !2445
@CFGID_VECTOR_MAX_BUFFERED_VALUES = dso_local global %class.cConfigOption* null, align 8, !dbg !2465
@_ZN12_GLOBAL__N_118__onstartup_obj_53E = internal global %class.ExecuteOnStartup zeroinitializer, align 8, !dbg !2468
@_ZN12_GLOBAL__N_118__onstartup_obj_64E = internal global %class.ExecuteOnStartup zeroinitializer, align 8, !dbg !2470
@_ZTV31cIndexedFileOutputVectorManager = dso_local unnamed_addr constant { [36 x i8*] } { [36 x i8*] [i8* null, i8* bitcast ({ i8*, i8*, i8* }* @_ZTI31cIndexedFileOutputVectorManager to i8*), i8* bitcast (%class.cClassDescriptor* (%class.cObject*)* @_ZN7cObject13getDescriptorEv to i8*), i8* bitcast (void (%class.cObject*, %class.cOwnedObject*)* @_ZN7cObject18ownedObjectDeletedEP12cOwnedObject to i8*), i8* bitcast (void (%class.cObject*, %class.cOwnedObject*, %class.cObject*)* @_ZN7cObject14yieldOwnershipEP12cOwnedObjectPS_ to i8*), i8* bitcast (void (%class.cIndexedFileOutputVectorManager*)* @_ZN31cIndexedFileOutputVectorManagerD2Ev to i8*), i8* bitcast (void (%class.cIndexedFileOutputVectorManager*)* @_ZN31cIndexedFileOutputVectorManagerD0Ev to i8*), i8* bitcast (i8* (%class.cObject*)* @_ZNK7cObject12getClassNameEv to i8*), i8* bitcast (i8* (%class.cObject*)* @_ZNK7cObject7getNameEv to i8*), i8* bitcast (i8* (%class.cObject*)* @_ZNK7cObject11getFullNameEv to i8*), i8* bitcast (void (%"class.std::__cxx11::basic_string"*, %class.cObject*)* @_ZNK7cObject11getFullPathB5cxx11Ev to i8*), i8* bitcast (void (%"class.std::__cxx11::basic_string"*, %class.cObject*)* @_ZNK7cObject4infoB5cxx11Ev to i8*), i8* bitcast (void (%"class.std::__cxx11::basic_string"*, %class.cObject*)* @_ZNK7cObject12detailedInfoB5cxx11Ev to i8*), i8* bitcast (%class.cObject* (%class.cObject*)* @_ZNK7cObject3dupEv to i8*), i8* bitcast (void (%class.cObject*, %class.cOwnedObject*)* @_ZN7cObject4takeEP12cOwnedObject to i8*), i8* bitcast (void (%class.cObject*, %class.cOwnedObject*)* @_ZN7cObject4dropEP12cOwnedObject to i8*), i8* bitcast (void (%class.cObject*, %class.cCommBuffer*)* @_ZN7cObject10parsimPackEP11cCommBuffer to i8*), i8* bitcast (void (%class.cObject*, %class.cCommBuffer*)* @_ZN7cObject12parsimUnpackEP11cCommBuffer to i8*), i8* bitcast (%class.cObject* (%class.cObject*)* @_ZNK7cObject8getOwnerEv to i8*), i8* bitcast (i1 (%class.cObject*)* @_ZNK7cObject13isOwnedObjectEv to i8*), i8* bitcast (void (%class.cObject*, %class.cVisitor*)* @_ZN7cObject12forEachChildEP8cVisitor to i8*), i8* bitcast (void (%class.cIndexedFileOutputVectorManager*)* @_ZN31cIndexedFileOutputVectorManager8startRunEv to i8*), i8* bitcast (void (%class.cIndexedFileOutputVectorManager*)* @_ZN31cIndexedFileOutputVectorManager6endRunEv to i8*), i8* bitcast (i8* (%class.cIndexedFileOutputVectorManager*, i8*, i8*)* @_ZN31cIndexedFileOutputVectorManager14registerVectorEPKcS1_ to i8*), i8* bitcast (void (%class.cIndexedFileOutputVectorManager*, i8*)* @_ZN31cIndexedFileOutputVectorManager16deregisterVectorEPv to i8*), i8* bitcast (void (%class.cFileOutputVectorManager*, i8*, i8*, i8*)* @_ZN24cFileOutputVectorManager18setVectorAttributeEPvPKcS2_ to i8*), i8* bitcast (i1 (%class.cIndexedFileOutputVectorManager*, i8*, %class.SimTime*, double)* @_ZN31cIndexedFileOutputVectorManager6recordEPv7SimTimed to i8*), i8* bitcast (i8* (%class.cFileOutputVectorManager*)* @_ZNK24cFileOutputVectorManager11getFileNameEv to i8*), i8* bitcast (void (%class.cFileOutputVectorManager*)* @_ZN24cFileOutputVectorManager5flushEv to i8*), i8* bitcast (void (%class.cIndexedFileOutputVectorManager*, %"struct.cFileOutputVectorManager::sVectorData"*)* @_ZN31cIndexedFileOutputVectorManager10initVectorEPN24cFileOutputVectorManager11sVectorDataE to i8*), i8* bitcast (%"struct.cFileOutputVectorManager::sVectorData"* (%class.cIndexedFileOutputVectorManager*)* @_ZN31cIndexedFileOutputVectorManager16createVectorDataEv to i8*), i8* bitcast (void (%class.cIndexedFileOutputVectorManager*)* @_ZN31cIndexedFileOutputVectorManager12writeRunDataEv to i8*), i8* bitcast (void (%class.cIndexedFileOutputVectorManager*, %"struct.cIndexedFileOutputVectorManager::sVector"*)* @_ZN31cIndexedFileOutputVectorManager14finalizeVectorEPNS_7sVectorE to i8*), i8* bitcast (void (%class.cIndexedFileOutputVectorManager*)* @_ZN31cIndexedFileOutputVectorManager12writeRecordsEv to i8*), i8* bitcast (void (%class.cIndexedFileOutputVectorManager*, %"struct.cIndexedFileOutputVectorManager::sVector"*)* @_ZN31cIndexedFileOutputVectorManager10writeBlockEPNS_7sVectorE to i8*), i8* bitcast (void (%class.cIndexedFileOutputVectorManager*, %"struct.cIndexedFileOutputVectorManager::sVector"*)* @_ZN31cIndexedFileOutputVectorManager21writeBlockToIndexFileEPNS_7sVectorE to i8*)] }, align 8
@.str = private unnamed_addr constant [2 x i8] c"w\00", align 1
@.str.4 = private unnamed_addr constant [28 x i8] c"Cannot open index file `%s'\00", align 1
@_ZTVN10__cxxabiv120__si_class_type_infoE = external dso_local global i8*
@_ZTS13cRuntimeError = linkonce_odr dso_local constant [16 x i8] c"13cRuntimeError\00", comdat, align 1
@_ZTS10cException = linkonce_odr dso_local constant [13 x i8] c"10cException\00", comdat, align 1
@_ZTISt9exception = external dso_local constant i8*
@_ZTI10cException = linkonce_odr dso_local constant { i8*, i8*, i8* } { i8* bitcast (i8** getelementptr inbounds (i8*, i8** @_ZTVN10__cxxabiv120__si_class_type_infoE, i64 2) to i8*), i8* getelementptr inbounds ([13 x i8], [13 x i8]* @_ZTS10cException, i32 0, i32 0), i8* bitcast (i8** @_ZTISt9exception to i8*) }, comdat, align 8
@_ZTI13cRuntimeError = linkonce_odr dso_local constant { i8*, i8*, i8* } { i8* bitcast (i8** getelementptr inbounds (i8*, i8** @_ZTVN10__cxxabiv120__si_class_type_infoE, i64 2) to i8*), i8* getelementptr inbounds ([16 x i8], [16 x i8]* @_ZTS13cRuntimeError, i32 0, i32 0), i8* bitcast ({ i8*, i8*, i8* }* @_ZTI10cException to i8*) }, comdat, align 8
@.str.5 = private unnamed_addr constant [6 x i8] c"%64s\0A\00", align 1
@.str.6 = private unnamed_addr constant [1 x i8] zeroinitializer, align 1
@.str.7 = private unnamed_addr constant [13 x i8] c"file %ld %ld\00", align 1
@.str.8 = private unnamed_addr constant [15 x i8] c"old index file\00", align 1
@.str.9 = private unnamed_addr constant [23 x i8] c"vector %d  %s  %s  %s\0A\00", align 1
@.str.10 = private unnamed_addr constant [30 x i8] c"Cannot write output file `%s'\00", align 1
@.str.11 = private unnamed_addr constant [13 x i8] c"attr %s  %s\0A\00", align 1
@.str.12 = private unnamed_addr constant [12 x i8] c"version %d\0A\00", align 1
@_ZZN31cIndexedFileOutputVectorManager10writeBlockEPNS_7sVectorEE4buff = internal global [64 x i8] zeroinitializer, align 16, !dbg !2472
@.str.13 = private unnamed_addr constant [16 x i8] c"%d\09%ld\09%s\09%.*g\0A\00", align 1
@.str.14 = private unnamed_addr constant [12 x i8] c"%d\09%s\09%.*g\0A\00", align 1
@_ZZN31cIndexedFileOutputVectorManager21writeBlockToIndexFileEPNS_7sVectorEE5buff1 = internal global [64 x i8] zeroinitializer, align 16, !dbg !2478
@_ZZN31cIndexedFileOutputVectorManager21writeBlockToIndexFileEPNS_7sVectorEE5buff2 = internal global [64 x i8] zeroinitializer, align 16, !dbg !2481
@.str.15 = private unnamed_addr constant [50 x i8] c"%d\09%ld %ld %ld %ld %s %s %ld %.*g %.*g %.*g %.*g\0A\00", align 1
@.str.16 = private unnamed_addr constant [42 x i8] c"%d\09%ld %ld %s %s %ld %.*g %.*g %.*g %.*g\0A\00", align 1
@_ZTS31cIndexedFileOutputVectorManager = dso_local constant [34 x i8] c"31cIndexedFileOutputVectorManager\00", align 1
@_ZTI24cFileOutputVectorManager = external dso_local constant i8*
@_ZTI31cIndexedFileOutputVectorManager = dso_local constant { i8*, i8*, i8* } { i8* bitcast (i8** getelementptr inbounds (i8*, i8** @_ZTVN10__cxxabiv120__si_class_type_infoE, i64 2) to i8*), i8* getelementptr inbounds ([34 x i8], [34 x i8]* @_ZTS31cIndexedFileOutputVectorManager, i32 0, i32 0), i8* bitcast (i8** @_ZTI24cFileOutputVectorManager to i8*) }, align 8
@configOptions = external dso_local global %class.cGlobalRegistrationList, align 8
@.str.17 = private unnamed_addr constant [28 x i8] c"output-vectors-memory-limit\00", align 1
@.str.18 = private unnamed_addr constant [2 x i8] c"B\00", align 1
@.str.19 = private unnamed_addr constant [5 x i8] c"16MB\00", align 1
@.str.20 = private unnamed_addr constant [223 x i8] c"Total memory that can be used for buffering output vectors. Larger values produce less fragmented vector files (i.e. cause vector data to be grouped into larger chunks), and therefore allow more efficient processing later.\00", align 1
@.str.21 = private unnamed_addr constant [27 x i8] c"vector-max-buffered-values\00", align 1
@.str.22 = private unnamed_addr constant [210 x i8] c"For output vectors: the maximum number of values to buffer per vector, before writing out a block into the output vector file. The default is no per-vector limit (i.e. only the total memory limit is in effect)\00", align 1
@classes = external dso_local global %class.cGlobalRegistrationList, align 8
@_ZN11cSimulation5evPtrE = external dso_local global %class.cEnvir*, align 8
@_ZTV10cException = linkonce_odr dso_local unnamed_addr constant { [13 x i8*] } { [13 x i8*] [i8* null, i8* bitcast ({ i8*, i8*, i8* }* @_ZTI10cException to i8*), i8* bitcast (void (%class.cException*)* @_ZN10cExceptionD2Ev to i8*), i8* bitcast (void (%class.cException*)* @_ZN10cExceptionD0Ev to i8*), i8* bitcast (i8* (%class.cException*)* @_ZNK10cException4whatEv to i8*), i8* bitcast (%class.cException* (%class.cException*)* @_ZNK10cException3dupEv to i8*), i8* bitcast (i32 (%class.cException*)* @_ZNK10cException12getErrorCodeEv to i8*), i8* bitcast (void (%class.cException*, i8*)* @_ZN10cException10setMessageEPKc to i8*), i8* bitcast (void (%class.cException*, i8*)* @_ZN10cException14prependMessageEPKc to i8*), i8* bitcast (i1 (%class.cException*)* @_ZNK10cException10hasContextEv to i8*), i8* bitcast (i8* (%class.cException*)* @_ZNK10cException19getContextClassNameEv to i8*), i8* bitcast (i8* (%class.cException*)* @_ZNK10cException18getContextFullPathEv to i8*), i8* bitcast (i32 (%class.cException*)* @_ZNK10cException11getModuleIDEv to i8*)] }, comdat, align 8
@.str.23 = private unnamed_addr constant [3 x i8] c": \00", align 1
@.str.24 = private unnamed_addr constant [5 x i8] c".vci\00", align 1
@.str.25 = private unnamed_addr constant [16 x i8] c"vector::reserve\00", align 1
@.str.26 = private unnamed_addr constant [4 x i8] c"ETV\00", align 1
@.str.27 = private unnamed_addr constant [3 x i8] c"TV\00", align 1
@_ZN11cSimulation6simPtrE = external dso_local global %class.cSimulation*, align 8
@_ZN7SimTime8scaleexpE = external dso_local global i32, align 4
@.str.28 = private unnamed_addr constant [26 x i8] c"vector::_M_realloc_insert\00", align 1
@llvm.global_ctors = appending global [1 x { i32, void ()*, i8* }] [{ i32, void ()*, i8* } { i32 65535, void ()* @_GLOBAL__sub_I_indexedfileoutvectormgr.cc, i8* null }]

@_ZN31cIndexedFileOutputVectorManagerC1Ev = dso_local unnamed_addr alias void (%class.cIndexedFileOutputVectorManager*), void (%class.cIndexedFileOutputVectorManager*)* @_ZN31cIndexedFileOutputVectorManagerC2Ev

; Function Attrs: noinline uwtable
define internal void @__cxx_global_var_init() #0 section ".text.startup" !dbg !3740 {
entry:
  call void @_ZNSt8ios_base4InitC1Ev(%"class.std::ios_base::Init"* @_ZStL8__ioinit), !dbg !3741
  %0 = call i32 @__cxa_atexit(void (i8*)* bitcast (void (%"class.std::ios_base::Init"*)* @_ZNSt8ios_base4InitD1Ev to void (i8*)*), i8* getelementptr inbounds (%"class.std::ios_base::Init", %"class.std::ios_base::Init"* @_ZStL8__ioinit, i32 0, i32 0), i8* @__dso_handle) #3, !dbg !3741
  ret void, !dbg !3741
}

declare dso_local void @_ZNSt8ios_base4InitC1Ev(%"class.std::ios_base::Init"*) unnamed_addr #1

; Function Attrs: nounwind
declare dso_local void @_ZNSt8ios_base4InitD1Ev(%"class.std::ios_base::Init"*) unnamed_addr #2

; Function Attrs: nounwind
declare dso_local i32 @__cxa_atexit(void (i8*)*, i8*, i8*) #3

; Function Attrs: noinline uwtable
define internal void @__cxx_global_var_init.1() #0 section ".text.startup" !dbg !3742 {
entry:
  call void @_ZN16ExecuteOnStartupC1EPFvvE(%class.ExecuteOnStartup* @_ZN12_GLOBAL__N_118__onstartup_obj_52E, void ()* @_ZN12_GLOBAL__N_119__onstartup_func_52Ev), !dbg !3743
  %0 = call i32 @__cxa_atexit(void (i8*)* bitcast (void (%class.ExecuteOnStartup*)* @_ZN16ExecuteOnStartupD1Ev to void (i8*)*), i8* bitcast (%class.ExecuteOnStartup* @_ZN12_GLOBAL__N_118__onstartup_obj_52E to i8*), i8* @__dso_handle) #3, !dbg !3743
  ret void, !dbg !3743
}

; Function Attrs: noinline uwtable
define internal void @_ZN12_GLOBAL__N_119__onstartup_func_52Ev() #0 personality i8* bitcast (i32 (...)* @__gxx_personality_v0 to i8*) !dbg !3744 {
entry:
  %exn.slot = alloca i8*
  %ehselector.slot = alloca i32
  %call = call %class.cRegistrationList* @_ZN23cGlobalRegistrationList11getInstanceEv(%class.cGlobalRegistrationList* @configOptions), !dbg !3745
  %call1 = call i8* @_Znwm(i64 144) #13, !dbg !3745
  %0 = bitcast i8* %call1 to %class.cConfigOption*, !dbg !3745
  invoke void @_ZN13cConfigOptionC1EPKcbbNS_4TypeES1_S1_S1_(%class.cConfigOption* %0, i8* getelementptr inbounds ([28 x i8], [28 x i8]* @.str.17, i64 0, i64 0), i1 zeroext false, i1 zeroext false, i32 2, i8* getelementptr inbounds ([2 x i8], [2 x i8]* @.str.18, i64 0, i64 0), i8* getelementptr inbounds ([5 x i8], [5 x i8]* @.str.19, i64 0, i64 0), i8* getelementptr inbounds ([223 x i8], [223 x i8]* @.str.20, i64 0, i64 0))
          to label %invoke.cont unwind label %lpad, !dbg !3745

invoke.cont:                                      ; preds = %entry
  store %class.cConfigOption* %0, %class.cConfigOption** @CFGID_OUTPUTVECTOR_MEMORY_LIMIT, align 8, !dbg !3745
  %1 = bitcast %class.cConfigOption* %0 to %class.cOwnedObject*, !dbg !3745
  %2 = bitcast %class.cRegistrationList* %call to void (%class.cRegistrationList*, %class.cOwnedObject*)***, !dbg !3745
  %vtable = load void (%class.cRegistrationList*, %class.cOwnedObject*)**, void (%class.cRegistrationList*, %class.cOwnedObject*)*** %2, align 8, !dbg !3745
  %vfn = getelementptr inbounds void (%class.cRegistrationList*, %class.cOwnedObject*)*, void (%class.cRegistrationList*, %class.cOwnedObject*)** %vtable, i64 22, !dbg !3745
  %3 = load void (%class.cRegistrationList*, %class.cOwnedObject*)*, void (%class.cRegistrationList*, %class.cOwnedObject*)** %vfn, align 8, !dbg !3745
  call void %3(%class.cRegistrationList* %call, %class.cOwnedObject* %1), !dbg !3745
  ret void, !dbg !3745

lpad:                                             ; preds = %entry
  %4 = landingpad { i8*, i32 }
          cleanup, !dbg !3745
  %5 = extractvalue { i8*, i32 } %4, 0, !dbg !3745
  store i8* %5, i8** %exn.slot, align 8, !dbg !3745
  %6 = extractvalue { i8*, i32 } %4, 1, !dbg !3745
  store i32 %6, i32* %ehselector.slot, align 4, !dbg !3745
  call void @_ZdlPv(i8* %call1) #14, !dbg !3745
  br label %eh.resume, !dbg !3745

eh.resume:                                        ; preds = %lpad
  %exn = load i8*, i8** %exn.slot, align 8, !dbg !3745
  %sel = load i32, i32* %ehselector.slot, align 4, !dbg !3745
  %lpad.val = insertvalue { i8*, i32 } undef, i8* %exn, 0, !dbg !3745
  %lpad.val2 = insertvalue { i8*, i32 } %lpad.val, i32 %sel, 1, !dbg !3745
  resume { i8*, i32 } %lpad.val2, !dbg !3745
}

declare dso_local void @_ZN16ExecuteOnStartupC1EPFvvE(%class.ExecuteOnStartup*, void ()*) unnamed_addr #1

; Function Attrs: nounwind
declare dso_local void @_ZN16ExecuteOnStartupD1Ev(%class.ExecuteOnStartup*) unnamed_addr #2

; Function Attrs: noinline uwtable
define internal void @__cxx_global_var_init.2() #0 section ".text.startup" !dbg !3746 {
entry:
  call void @_ZN16ExecuteOnStartupC1EPFvvE(%class.ExecuteOnStartup* @_ZN12_GLOBAL__N_118__onstartup_obj_53E, void ()* @_ZN12_GLOBAL__N_119__onstartup_func_53Ev), !dbg !3747
  %0 = call i32 @__cxa_atexit(void (i8*)* bitcast (void (%class.ExecuteOnStartup*)* @_ZN16ExecuteOnStartupD1Ev to void (i8*)*), i8* bitcast (%class.ExecuteOnStartup* @_ZN12_GLOBAL__N_118__onstartup_obj_53E to i8*), i8* @__dso_handle) #3, !dbg !3747
  ret void, !dbg !3747
}

; Function Attrs: noinline uwtable
define internal void @_ZN12_GLOBAL__N_119__onstartup_func_53Ev() #0 personality i8* bitcast (i32 (...)* @__gxx_personality_v0 to i8*) !dbg !3748 {
entry:
  %exn.slot = alloca i8*
  %ehselector.slot = alloca i32
  %call = call %class.cRegistrationList* @_ZN23cGlobalRegistrationList11getInstanceEv(%class.cGlobalRegistrationList* @configOptions), !dbg !3749
  %call1 = call i8* @_Znwm(i64 144) #13, !dbg !3749
  %0 = bitcast i8* %call1 to %class.cConfigOption*, !dbg !3749
  invoke void @_ZN13cConfigOptionC1EPKcbbNS_4TypeES1_S1_S1_(%class.cConfigOption* %0, i8* getelementptr inbounds ([27 x i8], [27 x i8]* @.str.21, i64 0, i64 0), i1 zeroext true, i1 zeroext false, i32 1, i8* null, i8* null, i8* getelementptr inbounds ([210 x i8], [210 x i8]* @.str.22, i64 0, i64 0))
          to label %invoke.cont unwind label %lpad, !dbg !3749

invoke.cont:                                      ; preds = %entry
  store %class.cConfigOption* %0, %class.cConfigOption** @CFGID_VECTOR_MAX_BUFFERED_VALUES, align 8, !dbg !3749
  %1 = bitcast %class.cConfigOption* %0 to %class.cOwnedObject*, !dbg !3749
  %2 = bitcast %class.cRegistrationList* %call to void (%class.cRegistrationList*, %class.cOwnedObject*)***, !dbg !3749
  %vtable = load void (%class.cRegistrationList*, %class.cOwnedObject*)**, void (%class.cRegistrationList*, %class.cOwnedObject*)*** %2, align 8, !dbg !3749
  %vfn = getelementptr inbounds void (%class.cRegistrationList*, %class.cOwnedObject*)*, void (%class.cRegistrationList*, %class.cOwnedObject*)** %vtable, i64 22, !dbg !3749
  %3 = load void (%class.cRegistrationList*, %class.cOwnedObject*)*, void (%class.cRegistrationList*, %class.cOwnedObject*)** %vfn, align 8, !dbg !3749
  call void %3(%class.cRegistrationList* %call, %class.cOwnedObject* %1), !dbg !3749
  ret void, !dbg !3749

lpad:                                             ; preds = %entry
  %4 = landingpad { i8*, i32 }
          cleanup, !dbg !3749
  %5 = extractvalue { i8*, i32 } %4, 0, !dbg !3749
  store i8* %5, i8** %exn.slot, align 8, !dbg !3749
  %6 = extractvalue { i8*, i32 } %4, 1, !dbg !3749
  store i32 %6, i32* %ehselector.slot, align 4, !dbg !3749
  call void @_ZdlPv(i8* %call1) #14, !dbg !3749
  br label %eh.resume, !dbg !3749

eh.resume:                                        ; preds = %lpad
  %exn = load i8*, i8** %exn.slot, align 8, !dbg !3749
  %sel = load i32, i32* %ehselector.slot, align 4, !dbg !3749
  %lpad.val = insertvalue { i8*, i32 } undef, i8* %exn, 0, !dbg !3749
  %lpad.val2 = insertvalue { i8*, i32 } %lpad.val, i32 %sel, 1, !dbg !3749
  resume { i8*, i32 } %lpad.val2, !dbg !3749
}

; Function Attrs: noinline uwtable
define internal void @__cxx_global_var_init.3() #0 section ".text.startup" !dbg !3750 {
entry:
  call void @_ZN16ExecuteOnStartupC1EPFvvE(%class.ExecuteOnStartup* @_ZN12_GLOBAL__N_118__onstartup_obj_64E, void ()* @_ZN12_GLOBAL__N_119__onstartup_func_64Ev), !dbg !3751
  %0 = call i32 @__cxa_atexit(void (i8*)* bitcast (void (%class.ExecuteOnStartup*)* @_ZN16ExecuteOnStartupD1Ev to void (i8*)*), i8* bitcast (%class.ExecuteOnStartup* @_ZN12_GLOBAL__N_118__onstartup_obj_64E to i8*), i8* @__dso_handle) #3, !dbg !3751
  ret void, !dbg !3751
}

; Function Attrs: noinline uwtable
define internal void @_ZN12_GLOBAL__N_119__onstartup_func_64Ev() #0 personality i8* bitcast (i32 (...)* @__gxx_personality_v0 to i8*) !dbg !3752 {
entry:
  %exn.slot = alloca i8*
  %ehselector.slot = alloca i32
  %call = call %class.cRegistrationList* @_ZN23cGlobalRegistrationList11getInstanceEv(%class.cGlobalRegistrationList* @classes), !dbg !3753
  %call1 = call i8* @_Znwm(i64 80) #13, !dbg !3753
  %0 = bitcast i8* %call1 to %class.cClassFactory*, !dbg !3753
  %call2 = invoke i8* @_Z12opp_typenameRKSt9type_info(%"class.std::type_info"* dereferenceable(16) bitcast ({ i8*, i8*, i8* }* @_ZTI31cIndexedFileOutputVectorManager to %"class.std::type_info"*))
          to label %invoke.cont unwind label %lpad, !dbg !3753

invoke.cont:                                      ; preds = %entry
  invoke void @_ZN13cClassFactoryC1EPKcPFP7cObjectvES1_(%class.cClassFactory* %0, i8* %call2, %class.cObject* ()* @_ZL15__uniquename_64v, i8* null)
          to label %invoke.cont3 unwind label %lpad, !dbg !3753

invoke.cont3:                                     ; preds = %invoke.cont
  %1 = bitcast %class.cClassFactory* %0 to %class.cOwnedObject*, !dbg !3753
  %2 = bitcast %class.cRegistrationList* %call to void (%class.cRegistrationList*, %class.cOwnedObject*)***, !dbg !3753
  %vtable = load void (%class.cRegistrationList*, %class.cOwnedObject*)**, void (%class.cRegistrationList*, %class.cOwnedObject*)*** %2, align 8, !dbg !3753
  %vfn = getelementptr inbounds void (%class.cRegistrationList*, %class.cOwnedObject*)*, void (%class.cRegistrationList*, %class.cOwnedObject*)** %vtable, i64 22, !dbg !3753
  %3 = load void (%class.cRegistrationList*, %class.cOwnedObject*)*, void (%class.cRegistrationList*, %class.cOwnedObject*)** %vfn, align 8, !dbg !3753
  call void %3(%class.cRegistrationList* %call, %class.cOwnedObject* %1), !dbg !3753
  ret void, !dbg !3753

lpad:                                             ; preds = %invoke.cont, %entry
  %4 = landingpad { i8*, i32 }
          cleanup, !dbg !3753
  %5 = extractvalue { i8*, i32 } %4, 0, !dbg !3753
  store i8* %5, i8** %exn.slot, align 8, !dbg !3753
  %6 = extractvalue { i8*, i32 } %4, 1, !dbg !3753
  store i32 %6, i32* %ehselector.slot, align 4, !dbg !3753
  call void @_ZdlPv(i8* %call1) #14, !dbg !3753
  br label %eh.resume, !dbg !3753

eh.resume:                                        ; preds = %lpad
  %exn = load i8*, i8** %exn.slot, align 8, !dbg !3753
  %sel = load i32, i32* %ehselector.slot, align 4, !dbg !3753
  %lpad.val = insertvalue { i8*, i32 } undef, i8* %exn, 0, !dbg !3753
  %lpad.val4 = insertvalue { i8*, i32 } %lpad.val, i32 %sel, 1, !dbg !3753
  resume { i8*, i32 } %lpad.val4, !dbg !3753
}

; Function Attrs: noinline uwtable
define dso_local void @_ZN31cIndexedFileOutputVectorManagerC2Ev(%class.cIndexedFileOutputVectorManager* %this) unnamed_addr #0 align 2 personality i8* bitcast (i32 (...)* @__gxx_personality_v0 to i8*) !dbg !3754 {
entry:
  %this.addr = alloca %class.cIndexedFileOutputVectorManager*, align 8
  %exn.slot = alloca i8*
  %ehselector.slot = alloca i32
  %d = alloca i64, align 8
  %ref.tmp = alloca i64, align 8
  store %class.cIndexedFileOutputVectorManager* %this, %class.cIndexedFileOutputVectorManager** %this.addr, align 8
  call void @llvm.dbg.declare(metadata %class.cIndexedFileOutputVectorManager** %this.addr, metadata !3755, metadata !DIExpression()), !dbg !3757
  %this1 = load %class.cIndexedFileOutputVectorManager*, %class.cIndexedFileOutputVectorManager** %this.addr, align 8
  %0 = bitcast %class.cIndexedFileOutputVectorManager* %this1 to %class.cFileOutputVectorManager*, !dbg !3758
  call void @_ZN24cFileOutputVectorManagerC2Ev(%class.cFileOutputVectorManager* %0), !dbg !3759
  %1 = bitcast %class.cIndexedFileOutputVectorManager* %this1 to i32 (...)***, !dbg !3758
  store i32 (...)** bitcast (i8** getelementptr inbounds ({ [36 x i8*] }, { [36 x i8*] }* @_ZTV31cIndexedFileOutputVectorManager, i32 0, inrange i32 0, i32 2) to i32 (...)**), i32 (...)*** %1, align 8, !dbg !3758
  %ifname = getelementptr inbounds %class.cIndexedFileOutputVectorManager, %class.cIndexedFileOutputVectorManager* %this1, i32 0, i32 1, !dbg !3760
  invoke void @_ZN10opp_stringC2Ev(%class.opp_string* %ifname)
          to label %invoke.cont unwind label %lpad, !dbg !3760

invoke.cont:                                      ; preds = %entry
  %vectors = getelementptr inbounds %class.cIndexedFileOutputVectorManager, %class.cIndexedFileOutputVectorManager* %this1, i32 0, i32 5, !dbg !3760
  call void @_ZNSt6vectorIPN31cIndexedFileOutputVectorManager7sVectorESaIS2_EEC2Ev(%"class.std::vector"* %vectors) #3, !dbg !3760
  %fi = getelementptr inbounds %class.cIndexedFileOutputVectorManager, %class.cIndexedFileOutputVectorManager* %this1, i32 0, i32 2, !dbg !3761
  store %struct._IO_FILE* null, %struct._IO_FILE** %fi, align 8, !dbg !3763
  %memoryUsed = getelementptr inbounds %class.cIndexedFileOutputVectorManager, %class.cIndexedFileOutputVectorManager* %this1, i32 0, i32 4, !dbg !3764
  store i64 0, i64* %memoryUsed, align 8, !dbg !3765
  call void @llvm.dbg.declare(metadata i64* %d, metadata !3766, metadata !DIExpression()), !dbg !3767
  %call = invoke %class.cEnvir* @_ZN11cSimulation14getActiveEnvirEv()
          to label %invoke.cont3 unwind label %lpad2, !dbg !3768

invoke.cont3:                                     ; preds = %invoke.cont
  %2 = bitcast %class.cEnvir* %call to %class.cConfiguration* (%class.cEnvir*)***, !dbg !3769
  %vtable = load %class.cConfiguration* (%class.cEnvir*)**, %class.cConfiguration* (%class.cEnvir*)*** %2, align 8, !dbg !3769
  %vfn = getelementptr inbounds %class.cConfiguration* (%class.cEnvir*)*, %class.cConfiguration* (%class.cEnvir*)** %vtable, i64 31, !dbg !3769
  %3 = load %class.cConfiguration* (%class.cEnvir*)*, %class.cConfiguration* (%class.cEnvir*)** %vfn, align 8, !dbg !3769
  %call5 = invoke %class.cConfiguration* %3(%class.cEnvir* %call)
          to label %invoke.cont4 unwind label %lpad2, !dbg !3769

invoke.cont4:                                     ; preds = %invoke.cont3
  %4 = load %class.cConfigOption*, %class.cConfigOption** @CFGID_OUTPUTVECTOR_MEMORY_LIMIT, align 8, !dbg !3770
  %5 = bitcast %class.cConfiguration* %call5 to double (%class.cConfiguration*, %class.cConfigOption*, double)***, !dbg !3771
  %vtable6 = load double (%class.cConfiguration*, %class.cConfigOption*, double)**, double (%class.cConfiguration*, %class.cConfigOption*, double)*** %5, align 8, !dbg !3771
  %vfn7 = getelementptr inbounds double (%class.cConfiguration*, %class.cConfigOption*, double)*, double (%class.cConfiguration*, %class.cConfigOption*, double)** %vtable6, i64 27, !dbg !3771
  %6 = load double (%class.cConfiguration*, %class.cConfigOption*, double)*, double (%class.cConfiguration*, %class.cConfigOption*, double)** %vfn7, align 8, !dbg !3771
  %call9 = invoke double %6(%class.cConfiguration* %call5, %class.cConfigOption* %4, double 0.000000e+00)
          to label %invoke.cont8 unwind label %lpad2, !dbg !3771

invoke.cont8:                                     ; preds = %invoke.cont4
  %conv = fptosi double %call9 to i64, !dbg !3768
  store i64 %conv, i64* %d, align 8, !dbg !3767
  store i64 1048576, i64* %ref.tmp, align 8, !dbg !3772
  %call11 = invoke dereferenceable(8) i64* @_ZSt3maxIlERKT_S2_S2_(i64* dereferenceable(8) %d, i64* dereferenceable(8) %ref.tmp)
          to label %invoke.cont10 unwind label %lpad2, !dbg !3773

invoke.cont10:                                    ; preds = %invoke.cont8
  %7 = load i64, i64* %call11, align 8, !dbg !3773
  %maxMemoryUsed = getelementptr inbounds %class.cIndexedFileOutputVectorManager, %class.cIndexedFileOutputVectorManager* %this1, i32 0, i32 3, !dbg !3774
  store i64 %7, i64* %maxMemoryUsed, align 8, !dbg !3775
  ret void, !dbg !3776

lpad:                                             ; preds = %entry
  %8 = landingpad { i8*, i32 }
          cleanup, !dbg !3776
  %9 = extractvalue { i8*, i32 } %8, 0, !dbg !3776
  store i8* %9, i8** %exn.slot, align 8, !dbg !3776
  %10 = extractvalue { i8*, i32 } %8, 1, !dbg !3776
  store i32 %10, i32* %ehselector.slot, align 4, !dbg !3776
  br label %ehcleanup, !dbg !3776

lpad2:                                            ; preds = %invoke.cont8, %invoke.cont4, %invoke.cont3, %invoke.cont
  %11 = landingpad { i8*, i32 }
          cleanup, !dbg !3777
  %12 = extractvalue { i8*, i32 } %11, 0, !dbg !3777
  store i8* %12, i8** %exn.slot, align 8, !dbg !3777
  %13 = extractvalue { i8*, i32 } %11, 1, !dbg !3777
  store i32 %13, i32* %ehselector.slot, align 4, !dbg !3777
  call void @_ZNSt6vectorIPN31cIndexedFileOutputVectorManager7sVectorESaIS2_EED2Ev(%"class.std::vector"* %vectors) #3, !dbg !3777
  call void @_ZN10opp_stringD2Ev(%class.opp_string* %ifname) #3, !dbg !3777
  br label %ehcleanup, !dbg !3777

ehcleanup:                                        ; preds = %lpad2, %lpad
  %14 = bitcast %class.cIndexedFileOutputVectorManager* %this1 to %class.cFileOutputVectorManager*, !dbg !3777
  call void @_ZN24cFileOutputVectorManagerD2Ev(%class.cFileOutputVectorManager* %14) #3, !dbg !3777
  br label %eh.resume, !dbg !3777

eh.resume:                                        ; preds = %ehcleanup
  %exn = load i8*, i8** %exn.slot, align 8, !dbg !3777
  %sel = load i32, i32* %ehselector.slot, align 4, !dbg !3777
  %lpad.val = insertvalue { i8*, i32 } undef, i8* %exn, 0, !dbg !3777
  %lpad.val12 = insertvalue { i8*, i32 } %lpad.val, i32 %sel, 1, !dbg !3777
  resume { i8*, i32 } %lpad.val12, !dbg !3777
}

; Function Attrs: nounwind readnone speculatable willreturn
declare void @llvm.dbg.declare(metadata, metadata, metadata) #4

declare dso_local void @_ZN24cFileOutputVectorManagerC2Ev(%class.cFileOutputVectorManager*) unnamed_addr #1

; Function Attrs: noinline nounwind uwtable
define linkonce_odr dso_local void @_ZN10opp_stringC2Ev(%class.opp_string* %this) unnamed_addr #5 comdat align 2 !dbg !3778 {
entry:
  %this.addr = alloca %class.opp_string*, align 8
  store %class.opp_string* %this, %class.opp_string** %this.addr, align 8
  call void @llvm.dbg.declare(metadata %class.opp_string** %this.addr, metadata !3779, metadata !DIExpression()), !dbg !3781
  %this1 = load %class.opp_string*, %class.opp_string** %this.addr, align 8
  %str = getelementptr inbounds %class.opp_string, %class.opp_string* %this1, i32 0, i32 0, !dbg !3782
  store i8* null, i8** %str, align 8, !dbg !3784
  ret void, !dbg !3785
}

declare dso_local i32 @__gxx_personality_v0(...)

; Function Attrs: noinline nounwind uwtable
define linkonce_odr dso_local void @_ZNSt6vectorIPN31cIndexedFileOutputVectorManager7sVectorESaIS2_EEC2Ev(%"class.std::vector"* %this) unnamed_addr #5 comdat align 2 !dbg !3786 {
entry:
  %this.addr = alloca %"class.std::vector"*, align 8
  store %"class.std::vector"* %this, %"class.std::vector"** %this.addr, align 8
  call void @llvm.dbg.declare(metadata %"class.std::vector"** %this.addr, metadata !3787, metadata !DIExpression()), !dbg !3789
  %this1 = load %"class.std::vector"*, %"class.std::vector"** %this.addr, align 8
  %0 = bitcast %"class.std::vector"* %this1 to %"struct.std::_Vector_base"*, !dbg !3790
  call void @_ZNSt12_Vector_baseIPN31cIndexedFileOutputVectorManager7sVectorESaIS2_EEC2Ev(%"struct.std::_Vector_base"* %0) #3, !dbg !3791
  ret void, !dbg !3790
}

; Function Attrs: noinline nounwind uwtable
define linkonce_odr dso_local %class.cEnvir* @_ZN11cSimulation14getActiveEnvirEv() #5 comdat align 2 !dbg !3792 {
entry:
  %0 = load %class.cEnvir*, %class.cEnvir** @_ZN11cSimulation5evPtrE, align 8, !dbg !3801
  ret %class.cEnvir* %0, !dbg !3802
}

; Function Attrs: noinline nounwind uwtable
define linkonce_odr dso_local dereferenceable(8) i64* @_ZSt3maxIlERKT_S2_S2_(i64* dereferenceable(8) %__a, i64* dereferenceable(8) %__b) #5 comdat !dbg !3803 {
entry:
  %retval = alloca i64*, align 8
  %__a.addr = alloca i64*, align 8
  %__b.addr = alloca i64*, align 8
  store i64* %__a, i64** %__a.addr, align 8
  call void @llvm.dbg.declare(metadata i64** %__a.addr, metadata !3811, metadata !DIExpression()), !dbg !3813
  store i64* %__b, i64** %__b.addr, align 8
  call void @llvm.dbg.declare(metadata i64** %__b.addr, metadata !3814, metadata !DIExpression()), !dbg !3815
  %0 = load i64*, i64** %__a.addr, align 8, !dbg !3816
  %1 = load i64, i64* %0, align 8, !dbg !3816
  %2 = load i64*, i64** %__b.addr, align 8, !dbg !3818
  %3 = load i64, i64* %2, align 8, !dbg !3818
  %cmp = icmp slt i64 %1, %3, !dbg !3819
  br i1 %cmp, label %if.then, label %if.end, !dbg !3820

if.then:                                          ; preds = %entry
  %4 = load i64*, i64** %__b.addr, align 8, !dbg !3821
  store i64* %4, i64** %retval, align 8, !dbg !3822
  br label %return, !dbg !3822

if.end:                                           ; preds = %entry
  %5 = load i64*, i64** %__a.addr, align 8, !dbg !3823
  store i64* %5, i64** %retval, align 8, !dbg !3824
  br label %return, !dbg !3824

return:                                           ; preds = %if.end, %if.then
  %6 = load i64*, i64** %retval, align 8, !dbg !3825
  ret i64* %6, !dbg !3825
}

; Function Attrs: noinline nounwind uwtable
define linkonce_odr dso_local void @_ZNSt6vectorIPN31cIndexedFileOutputVectorManager7sVectorESaIS2_EED2Ev(%"class.std::vector"* %this) unnamed_addr #5 comdat align 2 personality i8* bitcast (i32 (...)* @__gxx_personality_v0 to i8*) !dbg !3826 {
entry:
  %this.addr = alloca %"class.std::vector"*, align 8
  %exn.slot = alloca i8*
  %ehselector.slot = alloca i32
  store %"class.std::vector"* %this, %"class.std::vector"** %this.addr, align 8
  call void @llvm.dbg.declare(metadata %"class.std::vector"** %this.addr, metadata !3827, metadata !DIExpression()), !dbg !3828
  %this1 = load %"class.std::vector"*, %"class.std::vector"** %this.addr, align 8
  %0 = bitcast %"class.std::vector"* %this1 to %"struct.std::_Vector_base"*, !dbg !3829
  %_M_impl = getelementptr inbounds %"struct.std::_Vector_base", %"struct.std::_Vector_base"* %0, i32 0, i32 0, !dbg !3829
  %1 = bitcast %"struct.std::_Vector_base<cIndexedFileOutputVectorManager::sVector *, std::allocator<cIndexedFileOutputVectorManager::sVector *> >::_Vector_impl"* %_M_impl to %"struct.std::_Vector_base<cIndexedFileOutputVectorManager::sVector *, std::allocator<cIndexedFileOutputVectorManager::sVector *> >::_Vector_impl_data"*, !dbg !3831
  %_M_start = getelementptr inbounds %"struct.std::_Vector_base<cIndexedFileOutputVectorManager::sVector *, std::allocator<cIndexedFileOutputVectorManager::sVector *> >::_Vector_impl_data", %"struct.std::_Vector_base<cIndexedFileOutputVectorManager::sVector *, std::allocator<cIndexedFileOutputVectorManager::sVector *> >::_Vector_impl_data"* %1, i32 0, i32 0, !dbg !3832
  %2 = load %"struct.cIndexedFileOutputVectorManager::sVector"**, %"struct.cIndexedFileOutputVectorManager::sVector"*** %_M_start, align 8, !dbg !3832
  %3 = bitcast %"class.std::vector"* %this1 to %"struct.std::_Vector_base"*, !dbg !3833
  %_M_impl2 = getelementptr inbounds %"struct.std::_Vector_base", %"struct.std::_Vector_base"* %3, i32 0, i32 0, !dbg !3833
  %4 = bitcast %"struct.std::_Vector_base<cIndexedFileOutputVectorManager::sVector *, std::allocator<cIndexedFileOutputVectorManager::sVector *> >::_Vector_impl"* %_M_impl2 to %"struct.std::_Vector_base<cIndexedFileOutputVectorManager::sVector *, std::allocator<cIndexedFileOutputVectorManager::sVector *> >::_Vector_impl_data"*, !dbg !3834
  %_M_finish = getelementptr inbounds %"struct.std::_Vector_base<cIndexedFileOutputVectorManager::sVector *, std::allocator<cIndexedFileOutputVectorManager::sVector *> >::_Vector_impl_data", %"struct.std::_Vector_base<cIndexedFileOutputVectorManager::sVector *, std::allocator<cIndexedFileOutputVectorManager::sVector *> >::_Vector_impl_data"* %4, i32 0, i32 1, !dbg !3835
  %5 = load %"struct.cIndexedFileOutputVectorManager::sVector"**, %"struct.cIndexedFileOutputVectorManager::sVector"*** %_M_finish, align 8, !dbg !3835
  %6 = bitcast %"class.std::vector"* %this1 to %"struct.std::_Vector_base"*, !dbg !3836
  %call = call dereferenceable(1) %"class.std::allocator.3"* @_ZNSt12_Vector_baseIPN31cIndexedFileOutputVectorManager7sVectorESaIS2_EE19_M_get_Tp_allocatorEv(%"struct.std::_Vector_base"* %6) #3, !dbg !3836
  invoke void @_ZSt8_DestroyIPPN31cIndexedFileOutputVectorManager7sVectorES2_EvT_S4_RSaIT0_E(%"struct.cIndexedFileOutputVectorManager::sVector"** %2, %"struct.cIndexedFileOutputVectorManager::sVector"** %5, %"class.std::allocator.3"* dereferenceable(1) %call)
          to label %invoke.cont unwind label %lpad, !dbg !3837

invoke.cont:                                      ; preds = %entry
  %7 = bitcast %"class.std::vector"* %this1 to %"struct.std::_Vector_base"*, !dbg !3838
  call void @_ZNSt12_Vector_baseIPN31cIndexedFileOutputVectorManager7sVectorESaIS2_EED2Ev(%"struct.std::_Vector_base"* %7) #3, !dbg !3838
  ret void, !dbg !3839

lpad:                                             ; preds = %entry
  %8 = landingpad { i8*, i32 }
          catch i8* null, !dbg !3838
  %9 = extractvalue { i8*, i32 } %8, 0, !dbg !3838
  store i8* %9, i8** %exn.slot, align 8, !dbg !3838
  %10 = extractvalue { i8*, i32 } %8, 1, !dbg !3838
  store i32 %10, i32* %ehselector.slot, align 4, !dbg !3838
  %11 = bitcast %"class.std::vector"* %this1 to %"struct.std::_Vector_base"*, !dbg !3838
  call void @_ZNSt12_Vector_baseIPN31cIndexedFileOutputVectorManager7sVectorESaIS2_EED2Ev(%"struct.std::_Vector_base"* %11) #3, !dbg !3838
  br label %terminate.handler, !dbg !3838

terminate.handler:                                ; preds = %lpad
  %exn = load i8*, i8** %exn.slot, align 8, !dbg !3838
  call void @__clang_call_terminate(i8* %exn) #15, !dbg !3838
  unreachable, !dbg !3838
}

; Function Attrs: noinline nounwind uwtable
define linkonce_odr dso_local void @_ZN10opp_stringD2Ev(%class.opp_string* %this) unnamed_addr #5 comdat align 2 !dbg !3840 {
entry:
  %this.addr = alloca %class.opp_string*, align 8
  store %class.opp_string* %this, %class.opp_string** %this.addr, align 8
  call void @llvm.dbg.declare(metadata %class.opp_string** %this.addr, metadata !3841, metadata !DIExpression()), !dbg !3842
  %this1 = load %class.opp_string*, %class.opp_string** %this.addr, align 8
  %str = getelementptr inbounds %class.opp_string, %class.opp_string* %this1, i32 0, i32 0, !dbg !3843
  %0 = load i8*, i8** %str, align 8, !dbg !3843
  %isnull = icmp eq i8* %0, null, !dbg !3845
  br i1 %isnull, label %delete.end, label %delete.notnull, !dbg !3845

delete.notnull:                                   ; preds = %entry
  call void @_ZdaPv(i8* %0) #14, !dbg !3845
  br label %delete.end, !dbg !3845

delete.end:                                       ; preds = %delete.notnull, %entry
  ret void, !dbg !3846
}

; Function Attrs: nounwind
declare dso_local void @_ZN24cFileOutputVectorManagerD2Ev(%class.cFileOutputVectorManager*) unnamed_addr #2

; Function Attrs: noinline uwtable
define dso_local void @_ZN31cIndexedFileOutputVectorManager13openIndexFileEv(%class.cIndexedFileOutputVectorManager* %this) #0 align 2 personality i8* bitcast (i32 (...)* @__gxx_personality_v0 to i8*) !dbg !3847 {
entry:
  %this.addr = alloca %class.cIndexedFileOutputVectorManager*, align 8
  %ref.tmp = alloca %"class.std::__cxx11::basic_string", align 8
  %exn.slot = alloca i8*
  %ehselector.slot = alloca i32
  store %class.cIndexedFileOutputVectorManager* %this, %class.cIndexedFileOutputVectorManager** %this.addr, align 8
  call void @llvm.dbg.declare(metadata %class.cIndexedFileOutputVectorManager** %this.addr, metadata !3848, metadata !DIExpression()), !dbg !3849
  %this1 = load %class.cIndexedFileOutputVectorManager*, %class.cIndexedFileOutputVectorManager** %this.addr, align 8
  %ifname = getelementptr inbounds %class.cIndexedFileOutputVectorManager, %class.cIndexedFileOutputVectorManager* %this1, i32 0, i32 1, !dbg !3850
  %call = call i8* @_ZNK10opp_string5c_strEv(%class.opp_string* %ifname), !dbg !3851
  call void @_Z11directoryOfB5cxx11PKc(%"class.std::__cxx11::basic_string"* sret %ref.tmp, i8* %call), !dbg !3852
  %call2 = call i8* @_ZNKSt7__cxx1112basic_stringIcSt11char_traitsIcESaIcEE5c_strEv(%"class.std::__cxx11::basic_string"* %ref.tmp) #3, !dbg !3853
  invoke void @_Z6mkPathPKc(i8* %call2)
          to label %invoke.cont unwind label %lpad, !dbg !3854

invoke.cont:                                      ; preds = %entry
  call void @_ZNSt7__cxx1112basic_stringIcSt11char_traitsIcESaIcEED1Ev(%"class.std::__cxx11::basic_string"* %ref.tmp) #3, !dbg !3854
  %ifname3 = getelementptr inbounds %class.cIndexedFileOutputVectorManager, %class.cIndexedFileOutputVectorManager* %this1, i32 0, i32 1, !dbg !3855
  %call4 = call i8* @_ZNK10opp_string5c_strEv(%class.opp_string* %ifname3), !dbg !3856
  %call5 = call %struct._IO_FILE* @fopen(i8* %call4, i8* getelementptr inbounds ([2 x i8], [2 x i8]* @.str, i64 0, i64 0)), !dbg !3857
  %fi = getelementptr inbounds %class.cIndexedFileOutputVectorManager, %class.cIndexedFileOutputVectorManager* %this1, i32 0, i32 2, !dbg !3858
  store %struct._IO_FILE* %call5, %struct._IO_FILE** %fi, align 8, !dbg !3859
  %fi6 = getelementptr inbounds %class.cIndexedFileOutputVectorManager, %class.cIndexedFileOutputVectorManager* %this1, i32 0, i32 2, !dbg !3860
  %0 = load %struct._IO_FILE*, %struct._IO_FILE** %fi6, align 8, !dbg !3860
  %cmp = icmp eq %struct._IO_FILE* %0, null, !dbg !3862
  br i1 %cmp, label %if.then, label %if.end, !dbg !3863

if.then:                                          ; preds = %invoke.cont
  %exception = call i8* @__cxa_allocate_exception(i64 128) #3, !dbg !3864
  %1 = bitcast i8* %exception to %class.cRuntimeError*, !dbg !3864
  %ifname7 = getelementptr inbounds %class.cIndexedFileOutputVectorManager, %class.cIndexedFileOutputVectorManager* %this1, i32 0, i32 1, !dbg !3865
  %call10 = invoke i8* @_ZNK10opp_string5c_strEv(%class.opp_string* %ifname7)
          to label %invoke.cont9 unwind label %lpad8, !dbg !3866

invoke.cont9:                                     ; preds = %if.then
  invoke void (%class.cRuntimeError*, i8*, ...) @_ZN13cRuntimeErrorC1EPKcz(%class.cRuntimeError* %1, i8* getelementptr inbounds ([28 x i8], [28 x i8]* @.str.4, i64 0, i64 0), i8* %call10)
          to label %invoke.cont11 unwind label %lpad8, !dbg !3867

invoke.cont11:                                    ; preds = %invoke.cont9
  call void @__cxa_throw(i8* %exception, i8* bitcast ({ i8*, i8*, i8* }* @_ZTI13cRuntimeError to i8*), i8* bitcast (void (%class.cRuntimeError*)* @_ZN13cRuntimeErrorD2Ev to i8*)) #16, !dbg !3864
  unreachable, !dbg !3864

lpad:                                             ; preds = %entry
  %2 = landingpad { i8*, i32 }
          cleanup, !dbg !3868
  %3 = extractvalue { i8*, i32 } %2, 0, !dbg !3868
  store i8* %3, i8** %exn.slot, align 8, !dbg !3868
  %4 = extractvalue { i8*, i32 } %2, 1, !dbg !3868
  store i32 %4, i32* %ehselector.slot, align 4, !dbg !3868
  call void @_ZNSt7__cxx1112basic_stringIcSt11char_traitsIcESaIcEED1Ev(%"class.std::__cxx11::basic_string"* %ref.tmp) #3, !dbg !3854
  br label %eh.resume, !dbg !3854

lpad8:                                            ; preds = %invoke.cont9, %if.then
  %5 = landingpad { i8*, i32 }
          cleanup, !dbg !3869
  %6 = extractvalue { i8*, i32 } %5, 0, !dbg !3869
  store i8* %6, i8** %exn.slot, align 8, !dbg !3869
  %7 = extractvalue { i8*, i32 } %5, 1, !dbg !3869
  store i32 %7, i32* %ehselector.slot, align 4, !dbg !3869
  call void @__cxa_free_exception(i8* %exception) #3, !dbg !3864
  br label %eh.resume, !dbg !3864

if.end:                                           ; preds = %invoke.cont
  %fi12 = getelementptr inbounds %class.cIndexedFileOutputVectorManager, %class.cIndexedFileOutputVectorManager* %this1, i32 0, i32 2, !dbg !3870
  %8 = load %struct._IO_FILE*, %struct._IO_FILE** %fi12, align 8, !dbg !3870
  %call13 = call i32 (%struct._IO_FILE*, i8*, ...) @fprintf(%struct._IO_FILE* %8, i8* getelementptr inbounds ([6 x i8], [6 x i8]* @.str.5, i64 0, i64 0), i8* getelementptr inbounds ([1 x i8], [1 x i8]* @.str.6, i64 0, i64 0)), !dbg !3871
  ret void, !dbg !3868

eh.resume:                                        ; preds = %lpad8, %lpad
  %exn = load i8*, i8** %exn.slot, align 8, !dbg !3854
  %sel = load i32, i32* %ehselector.slot, align 4, !dbg !3854
  %lpad.val = insertvalue { i8*, i32 } undef, i8* %exn, 0, !dbg !3854
  %lpad.val14 = insertvalue { i8*, i32 } %lpad.val, i32 %sel, 1, !dbg !3854
  resume { i8*, i32 } %lpad.val14, !dbg !3854
}

declare dso_local void @_Z6mkPathPKc(i8*) #1

declare dso_local void @_Z11directoryOfB5cxx11PKc(%"class.std::__cxx11::basic_string"* sret, i8*) #1

; Function Attrs: noinline nounwind uwtable
define linkonce_odr dso_local i8* @_ZNK10opp_string5c_strEv(%class.opp_string* %this) #5 comdat align 2 !dbg !3872 {
entry:
  %this.addr = alloca %class.opp_string*, align 8
  store %class.opp_string* %this, %class.opp_string** %this.addr, align 8
  call void @llvm.dbg.declare(metadata %class.opp_string** %this.addr, metadata !3873, metadata !DIExpression()), !dbg !3875
  %this1 = load %class.opp_string*, %class.opp_string** %this.addr, align 8
  %str = getelementptr inbounds %class.opp_string, %class.opp_string* %this1, i32 0, i32 0, !dbg !3876
  %0 = load i8*, i8** %str, align 8, !dbg !3876
  %tobool = icmp ne i8* %0, null, !dbg !3876
  br i1 %tobool, label %cond.true, label %cond.false, !dbg !3876

cond.true:                                        ; preds = %entry
  %str2 = getelementptr inbounds %class.opp_string, %class.opp_string* %this1, i32 0, i32 0, !dbg !3877
  %1 = load i8*, i8** %str2, align 8, !dbg !3877
  br label %cond.end, !dbg !3876

cond.false:                                       ; preds = %entry
  br label %cond.end, !dbg !3876

cond.end:                                         ; preds = %cond.false, %cond.true
  %cond = phi i8* [ %1, %cond.true ], [ getelementptr inbounds ([1 x i8], [1 x i8]* @.str.6, i64 0, i64 0), %cond.false ], !dbg !3876
  ret i8* %cond, !dbg !3878
}

; Function Attrs: nounwind
declare dso_local i8* @_ZNKSt7__cxx1112basic_stringIcSt11char_traitsIcESaIcEE5c_strEv(%"class.std::__cxx11::basic_string"*) #2

; Function Attrs: nounwind
declare dso_local void @_ZNSt7__cxx1112basic_stringIcSt11char_traitsIcESaIcEED1Ev(%"class.std::__cxx11::basic_string"*) unnamed_addr #2

declare dso_local %struct._IO_FILE* @fopen(i8*, i8*) #1

declare dso_local i8* @__cxa_allocate_exception(i64)

declare dso_local void @_ZN13cRuntimeErrorC1EPKcz(%class.cRuntimeError*, i8*, ...) unnamed_addr #1

declare dso_local void @__cxa_free_exception(i8*)

; Function Attrs: noinline nounwind uwtable
define linkonce_odr dso_local void @_ZN13cRuntimeErrorD2Ev(%class.cRuntimeError* %this) unnamed_addr #5 comdat align 2 !dbg !3879 {
entry:
  %this.addr = alloca %class.cRuntimeError*, align 8
  store %class.cRuntimeError* %this, %class.cRuntimeError** %this.addr, align 8
  call void @llvm.dbg.declare(metadata %class.cRuntimeError** %this.addr, metadata !3886, metadata !DIExpression()), !dbg !3888
  %this1 = load %class.cRuntimeError*, %class.cRuntimeError** %this.addr, align 8
  %0 = bitcast %class.cRuntimeError* %this1 to %class.cException*, !dbg !3889
  call void @_ZN10cExceptionD2Ev(%class.cException* %0) #3, !dbg !3889
  ret void, !dbg !3891
}

declare dso_local void @__cxa_throw(i8*, i8*, i8*)

declare dso_local i32 @fprintf(%struct._IO_FILE*, i8*, ...) #1

; Function Attrs: noinline uwtable
define dso_local void @_ZN31cIndexedFileOutputVectorManager14closeIndexFileEv(%class.cIndexedFileOutputVectorManager* %this) #0 align 2 !dbg !3892 {
entry:
  %this.addr = alloca %class.cIndexedFileOutputVectorManager*, align 8
  %s = alloca %struct.stat64, align 8
  store %class.cIndexedFileOutputVectorManager* %this, %class.cIndexedFileOutputVectorManager** %this.addr, align 8
  call void @llvm.dbg.declare(metadata %class.cIndexedFileOutputVectorManager** %this.addr, metadata !3893, metadata !DIExpression()), !dbg !3894
  %this1 = load %class.cIndexedFileOutputVectorManager*, %class.cIndexedFileOutputVectorManager** %this.addr, align 8
  %fi = getelementptr inbounds %class.cIndexedFileOutputVectorManager, %class.cIndexedFileOutputVectorManager* %this1, i32 0, i32 2, !dbg !3895
  %0 = load %struct._IO_FILE*, %struct._IO_FILE** %fi, align 8, !dbg !3895
  %tobool = icmp ne %struct._IO_FILE* %0, null, !dbg !3895
  br i1 %tobool, label %if.then, label %if.end11, !dbg !3897

if.then:                                          ; preds = %entry
  call void @llvm.dbg.declare(metadata %struct.stat64* %s, metadata !3898, metadata !DIExpression()), !dbg !3937
  %1 = bitcast %class.cIndexedFileOutputVectorManager* %this1 to %class.cFileOutputVectorManager*, !dbg !3938
  %fname = getelementptr inbounds %class.cFileOutputVectorManager, %class.cFileOutputVectorManager* %1, i32 0, i32 4, !dbg !3938
  %call = call i8* @_ZNK10opp_string5c_strEv(%class.opp_string* %fname), !dbg !3940
  %call2 = call i32 @stat64(i8* %call, %struct.stat64* %s) #3, !dbg !3941
  %cmp = icmp eq i32 %call2, 0, !dbg !3942
  br i1 %cmp, label %if.then3, label %if.end, !dbg !3943

if.then3:                                         ; preds = %if.then
  %fi4 = getelementptr inbounds %class.cIndexedFileOutputVectorManager, %class.cIndexedFileOutputVectorManager* %this1, i32 0, i32 2, !dbg !3944
  %2 = load %struct._IO_FILE*, %struct._IO_FILE** %fi4, align 8, !dbg !3944
  %call5 = call i32 @fseeko64(%struct._IO_FILE* %2, i64 0, i32 0), !dbg !3946
  %fi6 = getelementptr inbounds %class.cIndexedFileOutputVectorManager, %class.cIndexedFileOutputVectorManager* %this1, i32 0, i32 2, !dbg !3947
  %3 = load %struct._IO_FILE*, %struct._IO_FILE** %fi6, align 8, !dbg !3947
  %st_size = getelementptr inbounds %struct.stat64, %struct.stat64* %s, i32 0, i32 8, !dbg !3948
  %4 = load i64, i64* %st_size, align 8, !dbg !3948
  %st_mtim = getelementptr inbounds %struct.stat64, %struct.stat64* %s, i32 0, i32 12, !dbg !3949
  %tv_sec = getelementptr inbounds %struct.timespec, %struct.timespec* %st_mtim, i32 0, i32 0, !dbg !3949
  %5 = load i64, i64* %tv_sec, align 8, !dbg !3949
  %call7 = call i32 (%struct._IO_FILE*, i8*, ...) @fprintf(%struct._IO_FILE* %3, i8* getelementptr inbounds ([13 x i8], [13 x i8]* @.str.7, i64 0, i64 0), i64 %4, i64 %5), !dbg !3950
  br label %if.end, !dbg !3951

if.end:                                           ; preds = %if.then3, %if.then
  %fi8 = getelementptr inbounds %class.cIndexedFileOutputVectorManager, %class.cIndexedFileOutputVectorManager* %this1, i32 0, i32 2, !dbg !3952
  %6 = load %struct._IO_FILE*, %struct._IO_FILE** %fi8, align 8, !dbg !3952
  %call9 = call i32 @fclose(%struct._IO_FILE* %6), !dbg !3953
  %fi10 = getelementptr inbounds %class.cIndexedFileOutputVectorManager, %class.cIndexedFileOutputVectorManager* %this1, i32 0, i32 2, !dbg !3954
  store %struct._IO_FILE* null, %struct._IO_FILE** %fi10, align 8, !dbg !3955
  br label %if.end11, !dbg !3956

if.end11:                                         ; preds = %if.end, %entry
  ret void, !dbg !3957
}

; Function Attrs: nounwind
declare dso_local i32 @stat64(i8*, %struct.stat64*) #2

declare dso_local i32 @fseeko64(%struct._IO_FILE*, i64, i32) #1

declare dso_local i32 @fclose(%struct._IO_FILE*) #1

; Function Attrs: noinline uwtable
define dso_local void @_ZN31cIndexedFileOutputVectorManager8startRunEv(%class.cIndexedFileOutputVectorManager* %this) unnamed_addr #0 align 2 personality i8* bitcast (i32 (...)* @__gxx_personality_v0 to i8*) !dbg !3958 {
entry:
  %this.addr = alloca %class.cIndexedFileOutputVectorManager*, align 8
  %ref.tmp = alloca %class.opp_string, align 8
  %agg.tmp = alloca %class.opp_string, align 8
  %exn.slot = alloca i8*
  %ehselector.slot = alloca i32
  store %class.cIndexedFileOutputVectorManager* %this, %class.cIndexedFileOutputVectorManager** %this.addr, align 8
  call void @llvm.dbg.declare(metadata %class.cIndexedFileOutputVectorManager** %this.addr, metadata !3959, metadata !DIExpression()), !dbg !3960
  %this1 = load %class.cIndexedFileOutputVectorManager*, %class.cIndexedFileOutputVectorManager** %this.addr, align 8
  %0 = bitcast %class.cIndexedFileOutputVectorManager* %this1 to %class.cFileOutputVectorManager*, !dbg !3961
  call void @_ZN24cFileOutputVectorManager8startRunEv(%class.cFileOutputVectorManager* %0), !dbg !3961
  call void @_ZN31cIndexedFileOutputVectorManager14closeIndexFileEv(%class.cIndexedFileOutputVectorManager* %this1), !dbg !3962
  %1 = bitcast %class.cIndexedFileOutputVectorManager* %this1 to %class.cFileOutputVectorManager*, !dbg !3963
  %fname = getelementptr inbounds %class.cFileOutputVectorManager, %class.cFileOutputVectorManager* %1, i32 0, i32 4, !dbg !3963
  call void @_ZN10opp_stringC2ERKS_(%class.opp_string* %agg.tmp, %class.opp_string* dereferenceable(8) %fname), !dbg !3963
  invoke void @_ZL19createIndexFileName10opp_string(%class.opp_string* sret %ref.tmp, %class.opp_string* %agg.tmp)
          to label %invoke.cont unwind label %lpad, !dbg !3964

invoke.cont:                                      ; preds = %entry
  %ifname = getelementptr inbounds %class.cIndexedFileOutputVectorManager, %class.cIndexedFileOutputVectorManager* %this1, i32 0, i32 1, !dbg !3965
  %call = invoke dereferenceable(8) %class.opp_string* @_ZN10opp_stringaSERKS_(%class.opp_string* %ifname, %class.opp_string* dereferenceable(8) %ref.tmp)
          to label %invoke.cont3 unwind label %lpad2, !dbg !3966

invoke.cont3:                                     ; preds = %invoke.cont
  call void @_ZN10opp_stringD2Ev(%class.opp_string* %ref.tmp) #3, !dbg !3965
  call void @_ZN10opp_stringD2Ev(%class.opp_string* %agg.tmp) #3, !dbg !3965
  %ifname4 = getelementptr inbounds %class.cIndexedFileOutputVectorManager, %class.cIndexedFileOutputVectorManager* %this1, i32 0, i32 1, !dbg !3967
  %call5 = call i8* @_ZNK10opp_string5c_strEv(%class.opp_string* %ifname4), !dbg !3968
  call void @_Z10removeFilePKcS0_(i8* %call5, i8* getelementptr inbounds ([15 x i8], [15 x i8]* @.str.8, i64 0, i64 0)), !dbg !3969
  ret void, !dbg !3970

lpad:                                             ; preds = %entry
  %2 = landingpad { i8*, i32 }
          cleanup, !dbg !3970
  %3 = extractvalue { i8*, i32 } %2, 0, !dbg !3970
  store i8* %3, i8** %exn.slot, align 8, !dbg !3970
  %4 = extractvalue { i8*, i32 } %2, 1, !dbg !3970
  store i32 %4, i32* %ehselector.slot, align 4, !dbg !3970
  br label %ehcleanup, !dbg !3970

lpad2:                                            ; preds = %invoke.cont
  %5 = landingpad { i8*, i32 }
          cleanup, !dbg !3970
  %6 = extractvalue { i8*, i32 } %5, 0, !dbg !3970
  store i8* %6, i8** %exn.slot, align 8, !dbg !3970
  %7 = extractvalue { i8*, i32 } %5, 1, !dbg !3970
  store i32 %7, i32* %ehselector.slot, align 4, !dbg !3970
  call void @_ZN10opp_stringD2Ev(%class.opp_string* %ref.tmp) #3, !dbg !3965
  br label %ehcleanup, !dbg !3965

ehcleanup:                                        ; preds = %lpad2, %lpad
  call void @_ZN10opp_stringD2Ev(%class.opp_string* %agg.tmp) #3, !dbg !3965
  br label %eh.resume, !dbg !3965

eh.resume:                                        ; preds = %ehcleanup
  %exn = load i8*, i8** %exn.slot, align 8, !dbg !3965
  %sel = load i32, i32* %ehselector.slot, align 4, !dbg !3965
  %lpad.val = insertvalue { i8*, i32 } undef, i8* %exn, 0, !dbg !3965
  %lpad.val6 = insertvalue { i8*, i32 } %lpad.val, i32 %sel, 1, !dbg !3965
  resume { i8*, i32 } %lpad.val6, !dbg !3965
}

declare dso_local void @_ZN24cFileOutputVectorManager8startRunEv(%class.cFileOutputVectorManager*) unnamed_addr #1

; Function Attrs: noinline uwtable
define internal void @_ZL19createIndexFileName10opp_string(%class.opp_string* noalias sret %agg.result, %class.opp_string* %fname) #0 personality i8* bitcast (i32 (...)* @__gxx_personality_v0 to i8*) !dbg !3971 {
entry:
  %result.ptr = alloca i8*, align 8
  %len = alloca i32, align 4
  %nrvo = alloca i1, align 1
  %exn.slot = alloca i8*
  %ehselector.slot = alloca i32
  %extension = alloca i8*, align 8
  %0 = bitcast %class.opp_string* %agg.result to i8*
  store i8* %0, i8** %result.ptr, align 8
  call void @llvm.dbg.declare(metadata %class.opp_string* %fname, metadata !3974, metadata !DIExpression()), !dbg !3975
  call void @llvm.dbg.declare(metadata i32* %len, metadata !3976, metadata !DIExpression()), !dbg !3977
  %call = call i8* @_ZNK10opp_string5c_strEv(%class.opp_string* %fname), !dbg !3978
  %call1 = call i64 @strlen(i8* %call) #17, !dbg !3979
  %conv = trunc i64 %call1 to i32, !dbg !3979
  store i32 %conv, i32* %len, align 4, !dbg !3977
  store i1 false, i1* %nrvo, align 1, !dbg !3980
  call void @llvm.dbg.declare(metadata i8** %result.ptr, metadata !3981, metadata !DIExpression(DW_OP_deref)), !dbg !3982
  call void @_ZN10opp_stringC2Ev(%class.opp_string* %agg.result), !dbg !3982
  %1 = load i32, i32* %len, align 4, !dbg !3983
  %add = add nsw i32 %1, 4, !dbg !3984
  %call2 = invoke i8* @_ZN10opp_string7reserveEj(%class.opp_string* %agg.result, i32 %add)
          to label %invoke.cont unwind label %lpad, !dbg !3985

invoke.cont:                                      ; preds = %entry
  %call4 = invoke i8* @_ZN10opp_string6bufferEv(%class.opp_string* %agg.result)
          to label %invoke.cont3 unwind label %lpad, !dbg !3986

invoke.cont3:                                     ; preds = %invoke.cont
  %call6 = invoke i8* @_ZNK10opp_string5c_strEv(%class.opp_string* %fname)
          to label %invoke.cont5 unwind label %lpad, !dbg !3987

invoke.cont5:                                     ; preds = %invoke.cont3
  %call7 = call i8* @strcpy(i8* %call4, i8* %call6) #3, !dbg !3988
  call void @llvm.dbg.declare(metadata i8** %extension, metadata !3989, metadata !DIExpression()), !dbg !3990
  %call9 = invoke i8* @_ZN10opp_string6bufferEv(%class.opp_string* %agg.result)
          to label %invoke.cont8 unwind label %lpad, !dbg !3991

invoke.cont8:                                     ; preds = %invoke.cont5
  %call10 = call i8* @strrchr(i8* %call9, i32 46) #17, !dbg !3992
  store i8* %call10, i8** %extension, align 8, !dbg !3990
  %2 = load i8*, i8** %extension, align 8, !dbg !3993
  %tobool = icmp ne i8* %2, null, !dbg !3993
  br i1 %tobool, label %if.end, label %if.then, !dbg !3995

if.then:                                          ; preds = %invoke.cont8
  %call12 = invoke i8* @_ZN10opp_string6bufferEv(%class.opp_string* %agg.result)
          to label %invoke.cont11 unwind label %lpad, !dbg !3996

invoke.cont11:                                    ; preds = %if.then
  %3 = load i32, i32* %len, align 4, !dbg !3997
  %idx.ext = sext i32 %3 to i64, !dbg !3998
  %add.ptr = getelementptr inbounds i8, i8* %call12, i64 %idx.ext, !dbg !3998
  store i8* %add.ptr, i8** %extension, align 8, !dbg !3999
  br label %if.end, !dbg !4000

lpad:                                             ; preds = %if.then, %invoke.cont5, %invoke.cont3, %invoke.cont, %entry
  %4 = landingpad { i8*, i32 }
          cleanup, !dbg !4001
  %5 = extractvalue { i8*, i32 } %4, 0, !dbg !4001
  store i8* %5, i8** %exn.slot, align 8, !dbg !4001
  %6 = extractvalue { i8*, i32 } %4, 1, !dbg !4001
  store i32 %6, i32* %ehselector.slot, align 4, !dbg !4001
  call void @_ZN10opp_stringD2Ev(%class.opp_string* %agg.result) #3, !dbg !4001
  br label %eh.resume, !dbg !4001

if.end:                                           ; preds = %invoke.cont11, %invoke.cont8
  %7 = load i8*, i8** %extension, align 8, !dbg !4002
  %call13 = call i8* @strcpy(i8* %7, i8* getelementptr inbounds ([5 x i8], [5 x i8]* @.str.24, i64 0, i64 0)) #3, !dbg !4003
  store i1 true, i1* %nrvo, align 1, !dbg !4004
  %nrvo.val = load i1, i1* %nrvo, align 1, !dbg !4001
  br i1 %nrvo.val, label %nrvo.skipdtor, label %nrvo.unused, !dbg !4001

nrvo.unused:                                      ; preds = %if.end
  call void @_ZN10opp_stringD2Ev(%class.opp_string* %agg.result) #3, !dbg !4001
  br label %nrvo.skipdtor, !dbg !4001

nrvo.skipdtor:                                    ; preds = %nrvo.unused, %if.end
  ret void, !dbg !4001

eh.resume:                                        ; preds = %lpad
  %exn = load i8*, i8** %exn.slot, align 8, !dbg !4001
  %sel = load i32, i32* %ehselector.slot, align 4, !dbg !4001
  %lpad.val = insertvalue { i8*, i32 } undef, i8* %exn, 0, !dbg !4001
  %lpad.val14 = insertvalue { i8*, i32 } %lpad.val, i32 %sel, 1, !dbg !4001
  resume { i8*, i32 } %lpad.val14, !dbg !4001
}

; Function Attrs: noinline uwtable
define linkonce_odr dso_local void @_ZN10opp_stringC2ERKS_(%class.opp_string* %this, %class.opp_string* dereferenceable(8) %s) unnamed_addr #0 comdat align 2 !dbg !4005 {
entry:
  %this.addr = alloca %class.opp_string*, align 8
  %s.addr = alloca %class.opp_string*, align 8
  store %class.opp_string* %this, %class.opp_string** %this.addr, align 8
  call void @llvm.dbg.declare(metadata %class.opp_string** %this.addr, metadata !4006, metadata !DIExpression()), !dbg !4007
  store %class.opp_string* %s, %class.opp_string** %s.addr, align 8
  call void @llvm.dbg.declare(metadata %class.opp_string** %s.addr, metadata !4008, metadata !DIExpression()), !dbg !4009
  %this1 = load %class.opp_string*, %class.opp_string** %this.addr, align 8
  %0 = load %class.opp_string*, %class.opp_string** %s.addr, align 8, !dbg !4010
  %str = getelementptr inbounds %class.opp_string, %class.opp_string* %0, i32 0, i32 0, !dbg !4012
  %1 = load i8*, i8** %str, align 8, !dbg !4012
  %call = call i8* @_Z10opp_strdupPKc(i8* %1), !dbg !4013
  %str2 = getelementptr inbounds %class.opp_string, %class.opp_string* %this1, i32 0, i32 0, !dbg !4014
  store i8* %call, i8** %str2, align 8, !dbg !4015
  ret void, !dbg !4016
}

; Function Attrs: noinline uwtable
define linkonce_odr dso_local dereferenceable(8) %class.opp_string* @_ZN10opp_stringaSERKS_(%class.opp_string* %this, %class.opp_string* dereferenceable(8) %s) #0 comdat align 2 !dbg !4017 {
entry:
  %this.addr = alloca %class.opp_string*, align 8
  %s.addr = alloca %class.opp_string*, align 8
  store %class.opp_string* %this, %class.opp_string** %this.addr, align 8
  call void @llvm.dbg.declare(metadata %class.opp_string** %this.addr, metadata !4018, metadata !DIExpression()), !dbg !4019
  store %class.opp_string* %s, %class.opp_string** %s.addr, align 8
  call void @llvm.dbg.declare(metadata %class.opp_string** %s.addr, metadata !4020, metadata !DIExpression()), !dbg !4021
  %this1 = load %class.opp_string*, %class.opp_string** %this.addr, align 8
  %0 = load %class.opp_string*, %class.opp_string** %s.addr, align 8, !dbg !4022
  %str = getelementptr inbounds %class.opp_string, %class.opp_string* %0, i32 0, i32 0, !dbg !4023
  %1 = load i8*, i8** %str, align 8, !dbg !4023
  %call = call i8* @_ZN10opp_stringaSEPKc(%class.opp_string* %this1, i8* %1), !dbg !4024
  ret %class.opp_string* %this1, !dbg !4025
}

declare dso_local void @_Z10removeFilePKcS0_(i8*, i8*) #1

; Function Attrs: noinline uwtable
define dso_local void @_ZN31cIndexedFileOutputVectorManager6endRunEv(%class.cIndexedFileOutputVectorManager* %this) unnamed_addr #0 align 2 !dbg !4026 {
entry:
  %this.addr = alloca %class.cIndexedFileOutputVectorManager*, align 8
  %it = alloca %"class.__gnu_cxx::__normal_iterator", align 8
  %ref.tmp = alloca %"class.__gnu_cxx::__normal_iterator", align 8
  store %class.cIndexedFileOutputVectorManager* %this, %class.cIndexedFileOutputVectorManager** %this.addr, align 8
  call void @llvm.dbg.declare(metadata %class.cIndexedFileOutputVectorManager** %this.addr, metadata !4027, metadata !DIExpression()), !dbg !4028
  %this1 = load %class.cIndexedFileOutputVectorManager*, %class.cIndexedFileOutputVectorManager** %this.addr, align 8
  %0 = bitcast %class.cIndexedFileOutputVectorManager* %this1 to %class.cFileOutputVectorManager*, !dbg !4029
  %f = getelementptr inbounds %class.cFileOutputVectorManager, %class.cFileOutputVectorManager* %0, i32 0, i32 5, !dbg !4029
  %1 = load %struct._IO_FILE*, %struct._IO_FILE** %f, align 8, !dbg !4029
  %cmp = icmp ne %struct._IO_FILE* %1, null, !dbg !4031
  br i1 %cmp, label %if.then, label %if.end, !dbg !4032

if.then:                                          ; preds = %entry
  call void @llvm.dbg.declare(metadata %"class.__gnu_cxx::__normal_iterator"* %it, metadata !4033, metadata !DIExpression()), !dbg !4036
  %vectors = getelementptr inbounds %class.cIndexedFileOutputVectorManager, %class.cIndexedFileOutputVectorManager* %this1, i32 0, i32 5, !dbg !4037
  %call = call %"struct.cIndexedFileOutputVectorManager::sVector"** @_ZNSt6vectorIPN31cIndexedFileOutputVectorManager7sVectorESaIS2_EE5beginEv(%"class.std::vector"* %vectors) #3, !dbg !4038
  %coerce.dive = getelementptr inbounds %"class.__gnu_cxx::__normal_iterator", %"class.__gnu_cxx::__normal_iterator"* %it, i32 0, i32 0, !dbg !4038
  store %"struct.cIndexedFileOutputVectorManager::sVector"** %call, %"struct.cIndexedFileOutputVectorManager::sVector"*** %coerce.dive, align 8, !dbg !4038
  br label %for.cond, !dbg !4039

for.cond:                                         ; preds = %for.inc, %if.then
  %vectors2 = getelementptr inbounds %class.cIndexedFileOutputVectorManager, %class.cIndexedFileOutputVectorManager* %this1, i32 0, i32 5, !dbg !4040
  %call3 = call %"struct.cIndexedFileOutputVectorManager::sVector"** @_ZNSt6vectorIPN31cIndexedFileOutputVectorManager7sVectorESaIS2_EE3endEv(%"class.std::vector"* %vectors2) #3, !dbg !4042
  %coerce.dive4 = getelementptr inbounds %"class.__gnu_cxx::__normal_iterator", %"class.__gnu_cxx::__normal_iterator"* %ref.tmp, i32 0, i32 0, !dbg !4042
  store %"struct.cIndexedFileOutputVectorManager::sVector"** %call3, %"struct.cIndexedFileOutputVectorManager::sVector"*** %coerce.dive4, align 8, !dbg !4042
  %call5 = call zeroext i1 @_ZN9__gnu_cxxneIPPN31cIndexedFileOutputVectorManager7sVectorESt6vectorIS3_SaIS3_EEEEbRKNS_17__normal_iteratorIT_T0_EESD_(%"class.__gnu_cxx::__normal_iterator"* dereferenceable(8) %it, %"class.__gnu_cxx::__normal_iterator"* dereferenceable(8) %ref.tmp) #3, !dbg !4043
  br i1 %call5, label %for.body, label %for.end, !dbg !4044

for.body:                                         ; preds = %for.cond
  %call6 = call dereferenceable(8) %"struct.cIndexedFileOutputVectorManager::sVector"** @_ZNK9__gnu_cxx17__normal_iteratorIPPN31cIndexedFileOutputVectorManager7sVectorESt6vectorIS3_SaIS3_EEEdeEv(%"class.__gnu_cxx::__normal_iterator"* %it) #3, !dbg !4045
  %2 = load %"struct.cIndexedFileOutputVectorManager::sVector"*, %"struct.cIndexedFileOutputVectorManager::sVector"** %call6, align 8, !dbg !4045
  %3 = bitcast %class.cIndexedFileOutputVectorManager* %this1 to void (%class.cIndexedFileOutputVectorManager*, %"struct.cIndexedFileOutputVectorManager::sVector"*)***, !dbg !4046
  %vtable = load void (%class.cIndexedFileOutputVectorManager*, %"struct.cIndexedFileOutputVectorManager::sVector"*)**, void (%class.cIndexedFileOutputVectorManager*, %"struct.cIndexedFileOutputVectorManager::sVector"*)*** %3, align 8, !dbg !4046
  %vfn = getelementptr inbounds void (%class.cIndexedFileOutputVectorManager*, %"struct.cIndexedFileOutputVectorManager::sVector"*)*, void (%class.cIndexedFileOutputVectorManager*, %"struct.cIndexedFileOutputVectorManager::sVector"*)** %vtable, i64 30, !dbg !4046
  %4 = load void (%class.cIndexedFileOutputVectorManager*, %"struct.cIndexedFileOutputVectorManager::sVector"*)*, void (%class.cIndexedFileOutputVectorManager*, %"struct.cIndexedFileOutputVectorManager::sVector"*)** %vfn, align 8, !dbg !4046
  call void %4(%class.cIndexedFileOutputVectorManager* %this1, %"struct.cIndexedFileOutputVectorManager::sVector"* %2), !dbg !4046
  br label %for.inc, !dbg !4046

for.inc:                                          ; preds = %for.body
  %call7 = call dereferenceable(8) %"class.__gnu_cxx::__normal_iterator"* @_ZN9__gnu_cxx17__normal_iteratorIPPN31cIndexedFileOutputVectorManager7sVectorESt6vectorIS3_SaIS3_EEEppEv(%"class.__gnu_cxx::__normal_iterator"* %it) #3, !dbg !4047
  br label %for.cond, !dbg !4048, !llvm.loop !4049

for.end:                                          ; preds = %for.cond
  br label %if.end, !dbg !4051

if.end:                                           ; preds = %for.end, %entry
  %vectors8 = getelementptr inbounds %class.cIndexedFileOutputVectorManager, %class.cIndexedFileOutputVectorManager* %this1, i32 0, i32 5, !dbg !4052
  call void @_ZNSt6vectorIPN31cIndexedFileOutputVectorManager7sVectorESaIS2_EE5clearEv(%"class.std::vector"* %vectors8) #3, !dbg !4053
  %5 = bitcast %class.cIndexedFileOutputVectorManager* %this1 to %class.cFileOutputVectorManager*, !dbg !4054
  call void @_ZN24cFileOutputVectorManager6endRunEv(%class.cFileOutputVectorManager* %5), !dbg !4054
  call void @_ZN31cIndexedFileOutputVectorManager14closeIndexFileEv(%class.cIndexedFileOutputVectorManager* %this1), !dbg !4055
  ret void, !dbg !4056
}

; Function Attrs: noinline nounwind uwtable
define linkonce_odr dso_local %"struct.cIndexedFileOutputVectorManager::sVector"** @_ZNSt6vectorIPN31cIndexedFileOutputVectorManager7sVectorESaIS2_EE5beginEv(%"class.std::vector"* %this) #5 comdat align 2 !dbg !4057 {
entry:
  %retval = alloca %"class.__gnu_cxx::__normal_iterator", align 8
  %this.addr = alloca %"class.std::vector"*, align 8
  store %"class.std::vector"* %this, %"class.std::vector"** %this.addr, align 8
  call void @llvm.dbg.declare(metadata %"class.std::vector"** %this.addr, metadata !4058, metadata !DIExpression()), !dbg !4059
  %this1 = load %"class.std::vector"*, %"class.std::vector"** %this.addr, align 8
  %0 = bitcast %"class.std::vector"* %this1 to %"struct.std::_Vector_base"*, !dbg !4060
  %_M_impl = getelementptr inbounds %"struct.std::_Vector_base", %"struct.std::_Vector_base"* %0, i32 0, i32 0, !dbg !4060
  %1 = bitcast %"struct.std::_Vector_base<cIndexedFileOutputVectorManager::sVector *, std::allocator<cIndexedFileOutputVectorManager::sVector *> >::_Vector_impl"* %_M_impl to %"struct.std::_Vector_base<cIndexedFileOutputVectorManager::sVector *, std::allocator<cIndexedFileOutputVectorManager::sVector *> >::_Vector_impl_data"*, !dbg !4061
  %_M_start = getelementptr inbounds %"struct.std::_Vector_base<cIndexedFileOutputVectorManager::sVector *, std::allocator<cIndexedFileOutputVectorManager::sVector *> >::_Vector_impl_data", %"struct.std::_Vector_base<cIndexedFileOutputVectorManager::sVector *, std::allocator<cIndexedFileOutputVectorManager::sVector *> >::_Vector_impl_data"* %1, i32 0, i32 0, !dbg !4062
  call void @_ZN9__gnu_cxx17__normal_iteratorIPPN31cIndexedFileOutputVectorManager7sVectorESt6vectorIS3_SaIS3_EEEC2ERKS4_(%"class.__gnu_cxx::__normal_iterator"* %retval, %"struct.cIndexedFileOutputVectorManager::sVector"*** dereferenceable(8) %_M_start) #3, !dbg !4063
  %coerce.dive = getelementptr inbounds %"class.__gnu_cxx::__normal_iterator", %"class.__gnu_cxx::__normal_iterator"* %retval, i32 0, i32 0, !dbg !4064
  %2 = load %"struct.cIndexedFileOutputVectorManager::sVector"**, %"struct.cIndexedFileOutputVectorManager::sVector"*** %coerce.dive, align 8, !dbg !4064
  ret %"struct.cIndexedFileOutputVectorManager::sVector"** %2, !dbg !4064
}

; Function Attrs: noinline nounwind uwtable
define linkonce_odr dso_local zeroext i1 @_ZN9__gnu_cxxneIPPN31cIndexedFileOutputVectorManager7sVectorESt6vectorIS3_SaIS3_EEEEbRKNS_17__normal_iteratorIT_T0_EESD_(%"class.__gnu_cxx::__normal_iterator"* dereferenceable(8) %__lhs, %"class.__gnu_cxx::__normal_iterator"* dereferenceable(8) %__rhs) #5 comdat !dbg !4065 {
entry:
  %__lhs.addr = alloca %"class.__gnu_cxx::__normal_iterator"*, align 8
  %__rhs.addr = alloca %"class.__gnu_cxx::__normal_iterator"*, align 8
  store %"class.__gnu_cxx::__normal_iterator"* %__lhs, %"class.__gnu_cxx::__normal_iterator"** %__lhs.addr, align 8
  call void @llvm.dbg.declare(metadata %"class.__gnu_cxx::__normal_iterator"** %__lhs.addr, metadata !4069, metadata !DIExpression()), !dbg !4070
  store %"class.__gnu_cxx::__normal_iterator"* %__rhs, %"class.__gnu_cxx::__normal_iterator"** %__rhs.addr, align 8
  call void @llvm.dbg.declare(metadata %"class.__gnu_cxx::__normal_iterator"** %__rhs.addr, metadata !4071, metadata !DIExpression()), !dbg !4072
  %0 = load %"class.__gnu_cxx::__normal_iterator"*, %"class.__gnu_cxx::__normal_iterator"** %__lhs.addr, align 8, !dbg !4073
  %call = call dereferenceable(8) %"struct.cIndexedFileOutputVectorManager::sVector"*** @_ZNK9__gnu_cxx17__normal_iteratorIPPN31cIndexedFileOutputVectorManager7sVectorESt6vectorIS3_SaIS3_EEE4baseEv(%"class.__gnu_cxx::__normal_iterator"* %0) #3, !dbg !4074
  %1 = load %"struct.cIndexedFileOutputVectorManager::sVector"**, %"struct.cIndexedFileOutputVectorManager::sVector"*** %call, align 8, !dbg !4074
  %2 = load %"class.__gnu_cxx::__normal_iterator"*, %"class.__gnu_cxx::__normal_iterator"** %__rhs.addr, align 8, !dbg !4075
  %call1 = call dereferenceable(8) %"struct.cIndexedFileOutputVectorManager::sVector"*** @_ZNK9__gnu_cxx17__normal_iteratorIPPN31cIndexedFileOutputVectorManager7sVectorESt6vectorIS3_SaIS3_EEE4baseEv(%"class.__gnu_cxx::__normal_iterator"* %2) #3, !dbg !4076
  %3 = load %"struct.cIndexedFileOutputVectorManager::sVector"**, %"struct.cIndexedFileOutputVectorManager::sVector"*** %call1, align 8, !dbg !4076
  %cmp = icmp ne %"struct.cIndexedFileOutputVectorManager::sVector"** %1, %3, !dbg !4077
  ret i1 %cmp, !dbg !4078
}

; Function Attrs: noinline nounwind uwtable
define linkonce_odr dso_local %"struct.cIndexedFileOutputVectorManager::sVector"** @_ZNSt6vectorIPN31cIndexedFileOutputVectorManager7sVectorESaIS2_EE3endEv(%"class.std::vector"* %this) #5 comdat align 2 !dbg !4079 {
entry:
  %retval = alloca %"class.__gnu_cxx::__normal_iterator", align 8
  %this.addr = alloca %"class.std::vector"*, align 8
  store %"class.std::vector"* %this, %"class.std::vector"** %this.addr, align 8
  call void @llvm.dbg.declare(metadata %"class.std::vector"** %this.addr, metadata !4080, metadata !DIExpression()), !dbg !4081
  %this1 = load %"class.std::vector"*, %"class.std::vector"** %this.addr, align 8
  %0 = bitcast %"class.std::vector"* %this1 to %"struct.std::_Vector_base"*, !dbg !4082
  %_M_impl = getelementptr inbounds %"struct.std::_Vector_base", %"struct.std::_Vector_base"* %0, i32 0, i32 0, !dbg !4082
  %1 = bitcast %"struct.std::_Vector_base<cIndexedFileOutputVectorManager::sVector *, std::allocator<cIndexedFileOutputVectorManager::sVector *> >::_Vector_impl"* %_M_impl to %"struct.std::_Vector_base<cIndexedFileOutputVectorManager::sVector *, std::allocator<cIndexedFileOutputVectorManager::sVector *> >::_Vector_impl_data"*, !dbg !4083
  %_M_finish = getelementptr inbounds %"struct.std::_Vector_base<cIndexedFileOutputVectorManager::sVector *, std::allocator<cIndexedFileOutputVectorManager::sVector *> >::_Vector_impl_data", %"struct.std::_Vector_base<cIndexedFileOutputVectorManager::sVector *, std::allocator<cIndexedFileOutputVectorManager::sVector *> >::_Vector_impl_data"* %1, i32 0, i32 1, !dbg !4084
  call void @_ZN9__gnu_cxx17__normal_iteratorIPPN31cIndexedFileOutputVectorManager7sVectorESt6vectorIS3_SaIS3_EEEC2ERKS4_(%"class.__gnu_cxx::__normal_iterator"* %retval, %"struct.cIndexedFileOutputVectorManager::sVector"*** dereferenceable(8) %_M_finish) #3, !dbg !4085
  %coerce.dive = getelementptr inbounds %"class.__gnu_cxx::__normal_iterator", %"class.__gnu_cxx::__normal_iterator"* %retval, i32 0, i32 0, !dbg !4086
  %2 = load %"struct.cIndexedFileOutputVectorManager::sVector"**, %"struct.cIndexedFileOutputVectorManager::sVector"*** %coerce.dive, align 8, !dbg !4086
  ret %"struct.cIndexedFileOutputVectorManager::sVector"** %2, !dbg !4086
}

; Function Attrs: noinline nounwind uwtable
define linkonce_odr dso_local dereferenceable(8) %"struct.cIndexedFileOutputVectorManager::sVector"** @_ZNK9__gnu_cxx17__normal_iteratorIPPN31cIndexedFileOutputVectorManager7sVectorESt6vectorIS3_SaIS3_EEEdeEv(%"class.__gnu_cxx::__normal_iterator"* %this) #5 comdat align 2 !dbg !4087 {
entry:
  %this.addr = alloca %"class.__gnu_cxx::__normal_iterator"*, align 8
  store %"class.__gnu_cxx::__normal_iterator"* %this, %"class.__gnu_cxx::__normal_iterator"** %this.addr, align 8
  call void @llvm.dbg.declare(metadata %"class.__gnu_cxx::__normal_iterator"** %this.addr, metadata !4088, metadata !DIExpression()), !dbg !4090
  %this1 = load %"class.__gnu_cxx::__normal_iterator"*, %"class.__gnu_cxx::__normal_iterator"** %this.addr, align 8
  %_M_current = getelementptr inbounds %"class.__gnu_cxx::__normal_iterator", %"class.__gnu_cxx::__normal_iterator"* %this1, i32 0, i32 0, !dbg !4091
  %0 = load %"struct.cIndexedFileOutputVectorManager::sVector"**, %"struct.cIndexedFileOutputVectorManager::sVector"*** %_M_current, align 8, !dbg !4091
  ret %"struct.cIndexedFileOutputVectorManager::sVector"** %0, !dbg !4092
}

; Function Attrs: noinline nounwind uwtable
define linkonce_odr dso_local dereferenceable(8) %"class.__gnu_cxx::__normal_iterator"* @_ZN9__gnu_cxx17__normal_iteratorIPPN31cIndexedFileOutputVectorManager7sVectorESt6vectorIS3_SaIS3_EEEppEv(%"class.__gnu_cxx::__normal_iterator"* %this) #5 comdat align 2 !dbg !4093 {
entry:
  %this.addr = alloca %"class.__gnu_cxx::__normal_iterator"*, align 8
  store %"class.__gnu_cxx::__normal_iterator"* %this, %"class.__gnu_cxx::__normal_iterator"** %this.addr, align 8
  call void @llvm.dbg.declare(metadata %"class.__gnu_cxx::__normal_iterator"** %this.addr, metadata !4094, metadata !DIExpression()), !dbg !4096
  %this1 = load %"class.__gnu_cxx::__normal_iterator"*, %"class.__gnu_cxx::__normal_iterator"** %this.addr, align 8
  %_M_current = getelementptr inbounds %"class.__gnu_cxx::__normal_iterator", %"class.__gnu_cxx::__normal_iterator"* %this1, i32 0, i32 0, !dbg !4097
  %0 = load %"struct.cIndexedFileOutputVectorManager::sVector"**, %"struct.cIndexedFileOutputVectorManager::sVector"*** %_M_current, align 8, !dbg !4098
  %incdec.ptr = getelementptr inbounds %"struct.cIndexedFileOutputVectorManager::sVector"*, %"struct.cIndexedFileOutputVectorManager::sVector"** %0, i32 1, !dbg !4098
  store %"struct.cIndexedFileOutputVectorManager::sVector"** %incdec.ptr, %"struct.cIndexedFileOutputVectorManager::sVector"*** %_M_current, align 8, !dbg !4098
  ret %"class.__gnu_cxx::__normal_iterator"* %this1, !dbg !4099
}

; Function Attrs: noinline nounwind uwtable
define linkonce_odr dso_local void @_ZNSt6vectorIPN31cIndexedFileOutputVectorManager7sVectorESaIS2_EE5clearEv(%"class.std::vector"* %this) #5 comdat align 2 !dbg !4100 {
entry:
  %this.addr = alloca %"class.std::vector"*, align 8
  store %"class.std::vector"* %this, %"class.std::vector"** %this.addr, align 8
  call void @llvm.dbg.declare(metadata %"class.std::vector"** %this.addr, metadata !4101, metadata !DIExpression()), !dbg !4102
  %this1 = load %"class.std::vector"*, %"class.std::vector"** %this.addr, align 8
  %0 = bitcast %"class.std::vector"* %this1 to %"struct.std::_Vector_base"*, !dbg !4103
  %_M_impl = getelementptr inbounds %"struct.std::_Vector_base", %"struct.std::_Vector_base"* %0, i32 0, i32 0, !dbg !4103
  %1 = bitcast %"struct.std::_Vector_base<cIndexedFileOutputVectorManager::sVector *, std::allocator<cIndexedFileOutputVectorManager::sVector *> >::_Vector_impl"* %_M_impl to %"struct.std::_Vector_base<cIndexedFileOutputVectorManager::sVector *, std::allocator<cIndexedFileOutputVectorManager::sVector *> >::_Vector_impl_data"*, !dbg !4104
  %_M_start = getelementptr inbounds %"struct.std::_Vector_base<cIndexedFileOutputVectorManager::sVector *, std::allocator<cIndexedFileOutputVectorManager::sVector *> >::_Vector_impl_data", %"struct.std::_Vector_base<cIndexedFileOutputVectorManager::sVector *, std::allocator<cIndexedFileOutputVectorManager::sVector *> >::_Vector_impl_data"* %1, i32 0, i32 0, !dbg !4105
  %2 = load %"struct.cIndexedFileOutputVectorManager::sVector"**, %"struct.cIndexedFileOutputVectorManager::sVector"*** %_M_start, align 8, !dbg !4105
  call void @_ZNSt6vectorIPN31cIndexedFileOutputVectorManager7sVectorESaIS2_EE15_M_erase_at_endEPS2_(%"class.std::vector"* %this1, %"struct.cIndexedFileOutputVectorManager::sVector"** %2) #3, !dbg !4106
  ret void, !dbg !4107
}

declare dso_local void @_ZN24cFileOutputVectorManager6endRunEv(%class.cFileOutputVectorManager*) unnamed_addr #1

; Function Attrs: noinline uwtable
define dso_local i8* @_ZN31cIndexedFileOutputVectorManager14registerVectorEPKcS1_(%class.cIndexedFileOutputVectorManager* %this, i8* %modulename, i8* %vectorname) unnamed_addr #0 align 2 !dbg !4108 {
entry:
  %this.addr = alloca %class.cIndexedFileOutputVectorManager*, align 8
  %modulename.addr = alloca i8*, align 8
  %vectorname.addr = alloca i8*, align 8
  %vp = alloca %"struct.cIndexedFileOutputVectorManager::sVector"*, align 8
  store %class.cIndexedFileOutputVectorManager* %this, %class.cIndexedFileOutputVectorManager** %this.addr, align 8
  call void @llvm.dbg.declare(metadata %class.cIndexedFileOutputVectorManager** %this.addr, metadata !4109, metadata !DIExpression()), !dbg !4110
  store i8* %modulename, i8** %modulename.addr, align 8
  call void @llvm.dbg.declare(metadata i8** %modulename.addr, metadata !4111, metadata !DIExpression()), !dbg !4112
  store i8* %vectorname, i8** %vectorname.addr, align 8
  call void @llvm.dbg.declare(metadata i8** %vectorname.addr, metadata !4113, metadata !DIExpression()), !dbg !4114
  %this1 = load %class.cIndexedFileOutputVectorManager*, %class.cIndexedFileOutputVectorManager** %this.addr, align 8
  call void @llvm.dbg.declare(metadata %"struct.cIndexedFileOutputVectorManager::sVector"** %vp, metadata !4115, metadata !DIExpression()), !dbg !4116
  %0 = bitcast %class.cIndexedFileOutputVectorManager* %this1 to %class.cFileOutputVectorManager*, !dbg !4117
  %1 = load i8*, i8** %modulename.addr, align 8, !dbg !4118
  %2 = load i8*, i8** %vectorname.addr, align 8, !dbg !4119
  %call = call i8* @_ZN24cFileOutputVectorManager14registerVectorEPKcS1_(%class.cFileOutputVectorManager* %0, i8* %1, i8* %2), !dbg !4117
  %3 = bitcast i8* %call to %"struct.cIndexedFileOutputVectorManager::sVector"*, !dbg !4120
  store %"struct.cIndexedFileOutputVectorManager::sVector"* %3, %"struct.cIndexedFileOutputVectorManager::sVector"** %vp, align 8, !dbg !4116
  %call2 = call %class.cEnvir* @_ZN11cSimulation14getActiveEnvirEv(), !dbg !4121
  %4 = bitcast %class.cEnvir* %call2 to %class.cConfiguration* (%class.cEnvir*)***, !dbg !4122
  %vtable = load %class.cConfiguration* (%class.cEnvir*)**, %class.cConfiguration* (%class.cEnvir*)*** %4, align 8, !dbg !4122
  %vfn = getelementptr inbounds %class.cConfiguration* (%class.cEnvir*)*, %class.cConfiguration* (%class.cEnvir*)** %vtable, i64 31, !dbg !4122
  %5 = load %class.cConfiguration* (%class.cEnvir*)*, %class.cConfiguration* (%class.cEnvir*)** %vfn, align 8, !dbg !4122
  %call3 = call %class.cConfiguration* %5(%class.cEnvir* %call2), !dbg !4122
  %6 = load i8*, i8** %modulename.addr, align 8, !dbg !4123
  %7 = load %class.cConfigOption*, %class.cConfigOption** @CFGID_VECTOR_MAX_BUFFERED_VALUES, align 8, !dbg !4124
  %8 = bitcast %class.cConfiguration* %call3 to i64 (%class.cConfiguration*, i8*, %class.cConfigOption*, i64)***, !dbg !4125
  %vtable4 = load i64 (%class.cConfiguration*, i8*, %class.cConfigOption*, i64)**, i64 (%class.cConfiguration*, i8*, %class.cConfigOption*, i64)*** %8, align 8, !dbg !4125
  %vfn5 = getelementptr inbounds i64 (%class.cConfiguration*, i8*, %class.cConfigOption*, i64)*, i64 (%class.cConfiguration*, i8*, %class.cConfigOption*, i64)** %vtable4, i64 34, !dbg !4125
  %9 = load i64 (%class.cConfiguration*, i8*, %class.cConfigOption*, i64)*, i64 (%class.cConfiguration*, i8*, %class.cConfigOption*, i64)** %vfn5, align 8, !dbg !4125
  %call6 = call i64 %9(%class.cConfiguration* %call3, i8* %6, %class.cConfigOption* %7, i64 0), !dbg !4125
  %10 = load %"struct.cIndexedFileOutputVectorManager::sVector"*, %"struct.cIndexedFileOutputVectorManager::sVector"** %vp, align 8, !dbg !4126
  %maxBufferedSamples = getelementptr inbounds %"struct.cIndexedFileOutputVectorManager::sVector", %"struct.cIndexedFileOutputVectorManager::sVector"* %10, i32 0, i32 2, !dbg !4127
  store i64 %call6, i64* %maxBufferedSamples, align 8, !dbg !4128
  %11 = load %"struct.cIndexedFileOutputVectorManager::sVector"*, %"struct.cIndexedFileOutputVectorManager::sVector"** %vp, align 8, !dbg !4129
  %maxBufferedSamples7 = getelementptr inbounds %"struct.cIndexedFileOutputVectorManager::sVector", %"struct.cIndexedFileOutputVectorManager::sVector"* %11, i32 0, i32 2, !dbg !4131
  %12 = load i64, i64* %maxBufferedSamples7, align 8, !dbg !4131
  %cmp = icmp sgt i64 %12, 0, !dbg !4132
  br i1 %cmp, label %if.then, label %if.end, !dbg !4133

if.then:                                          ; preds = %entry
  %13 = load %"struct.cIndexedFileOutputVectorManager::sVector"*, %"struct.cIndexedFileOutputVectorManager::sVector"** %vp, align 8, !dbg !4134
  %14 = load %"struct.cIndexedFileOutputVectorManager::sVector"*, %"struct.cIndexedFileOutputVectorManager::sVector"** %vp, align 8, !dbg !4135
  %maxBufferedSamples8 = getelementptr inbounds %"struct.cIndexedFileOutputVectorManager::sVector", %"struct.cIndexedFileOutputVectorManager::sVector"* %14, i32 0, i32 2, !dbg !4136
  %15 = load i64, i64* %maxBufferedSamples8, align 8, !dbg !4136
  call void @_ZN31cIndexedFileOutputVectorManager7sVector14allocateBufferEl(%"struct.cIndexedFileOutputVectorManager::sVector"* %13, i64 %15), !dbg !4137
  br label %if.end, !dbg !4134

if.end:                                           ; preds = %if.then, %entry
  %vectors = getelementptr inbounds %class.cIndexedFileOutputVectorManager, %class.cIndexedFileOutputVectorManager* %this1, i32 0, i32 5, !dbg !4138
  call void @_ZNSt6vectorIPN31cIndexedFileOutputVectorManager7sVectorESaIS2_EE9push_backERKS2_(%"class.std::vector"* %vectors, %"struct.cIndexedFileOutputVectorManager::sVector"** dereferenceable(8) %vp), !dbg !4139
  %16 = load %"struct.cIndexedFileOutputVectorManager::sVector"*, %"struct.cIndexedFileOutputVectorManager::sVector"** %vp, align 8, !dbg !4140
  %17 = bitcast %"struct.cIndexedFileOutputVectorManager::sVector"* %16 to i8*, !dbg !4140
  ret i8* %17, !dbg !4141
}

declare dso_local i8* @_ZN24cFileOutputVectorManager14registerVectorEPKcS1_(%class.cFileOutputVectorManager*, i8*, i8*) unnamed_addr #1

; Function Attrs: noinline uwtable
define linkonce_odr dso_local void @_ZN31cIndexedFileOutputVectorManager7sVector14allocateBufferEl(%"struct.cIndexedFileOutputVectorManager::sVector"* %this, i64 %count) #0 comdat align 2 !dbg !4142 {
entry:
  %this.addr = alloca %"struct.cIndexedFileOutputVectorManager::sVector"*, align 8
  %count.addr = alloca i64, align 8
  store %"struct.cIndexedFileOutputVectorManager::sVector"* %this, %"struct.cIndexedFileOutputVectorManager::sVector"** %this.addr, align 8
  call void @llvm.dbg.declare(metadata %"struct.cIndexedFileOutputVectorManager::sVector"** %this.addr, metadata !4143, metadata !DIExpression()), !dbg !4144
  store i64 %count, i64* %count.addr, align 8
  call void @llvm.dbg.declare(metadata i64* %count.addr, metadata !4145, metadata !DIExpression()), !dbg !4146
  %this1 = load %"struct.cIndexedFileOutputVectorManager::sVector"*, %"struct.cIndexedFileOutputVectorManager::sVector"** %this.addr, align 8
  %buffer = getelementptr inbounds %"struct.cIndexedFileOutputVectorManager::sVector", %"struct.cIndexedFileOutputVectorManager::sVector"* %this1, i32 0, i32 1, !dbg !4147
  %0 = load i64, i64* %count.addr, align 8, !dbg !4148
  call void @_ZNSt6vectorIN31cIndexedFileOutputVectorManager7sSampleESaIS1_EE7reserveEm(%"class.std::vector.6"* %buffer, i64 %0), !dbg !4149
  ret void, !dbg !4150
}

; Function Attrs: noinline uwtable
define linkonce_odr dso_local void @_ZNSt6vectorIPN31cIndexedFileOutputVectorManager7sVectorESaIS2_EE9push_backERKS2_(%"class.std::vector"* %this, %"struct.cIndexedFileOutputVectorManager::sVector"** dereferenceable(8) %__x) #0 comdat align 2 !dbg !4151 {
entry:
  %this.addr = alloca %"class.std::vector"*, align 8
  %__x.addr = alloca %"struct.cIndexedFileOutputVectorManager::sVector"**, align 8
  %agg.tmp = alloca %"class.__gnu_cxx::__normal_iterator", align 8
  store %"class.std::vector"* %this, %"class.std::vector"** %this.addr, align 8
  call void @llvm.dbg.declare(metadata %"class.std::vector"** %this.addr, metadata !4152, metadata !DIExpression()), !dbg !4153
  store %"struct.cIndexedFileOutputVectorManager::sVector"** %__x, %"struct.cIndexedFileOutputVectorManager::sVector"*** %__x.addr, align 8
  call void @llvm.dbg.declare(metadata %"struct.cIndexedFileOutputVectorManager::sVector"*** %__x.addr, metadata !4154, metadata !DIExpression()), !dbg !4155
  %this1 = load %"class.std::vector"*, %"class.std::vector"** %this.addr, align 8
  %0 = bitcast %"class.std::vector"* %this1 to %"struct.std::_Vector_base"*, !dbg !4156
  %_M_impl = getelementptr inbounds %"struct.std::_Vector_base", %"struct.std::_Vector_base"* %0, i32 0, i32 0, !dbg !4156
  %1 = bitcast %"struct.std::_Vector_base<cIndexedFileOutputVectorManager::sVector *, std::allocator<cIndexedFileOutputVectorManager::sVector *> >::_Vector_impl"* %_M_impl to %"struct.std::_Vector_base<cIndexedFileOutputVectorManager::sVector *, std::allocator<cIndexedFileOutputVectorManager::sVector *> >::_Vector_impl_data"*, !dbg !4158
  %_M_finish = getelementptr inbounds %"struct.std::_Vector_base<cIndexedFileOutputVectorManager::sVector *, std::allocator<cIndexedFileOutputVectorManager::sVector *> >::_Vector_impl_data", %"struct.std::_Vector_base<cIndexedFileOutputVectorManager::sVector *, std::allocator<cIndexedFileOutputVectorManager::sVector *> >::_Vector_impl_data"* %1, i32 0, i32 1, !dbg !4159
  %2 = load %"struct.cIndexedFileOutputVectorManager::sVector"**, %"struct.cIndexedFileOutputVectorManager::sVector"*** %_M_finish, align 8, !dbg !4159
  %3 = bitcast %"class.std::vector"* %this1 to %"struct.std::_Vector_base"*, !dbg !4160
  %_M_impl2 = getelementptr inbounds %"struct.std::_Vector_base", %"struct.std::_Vector_base"* %3, i32 0, i32 0, !dbg !4160
  %4 = bitcast %"struct.std::_Vector_base<cIndexedFileOutputVectorManager::sVector *, std::allocator<cIndexedFileOutputVectorManager::sVector *> >::_Vector_impl"* %_M_impl2 to %"struct.std::_Vector_base<cIndexedFileOutputVectorManager::sVector *, std::allocator<cIndexedFileOutputVectorManager::sVector *> >::_Vector_impl_data"*, !dbg !4161
  %_M_end_of_storage = getelementptr inbounds %"struct.std::_Vector_base<cIndexedFileOutputVectorManager::sVector *, std::allocator<cIndexedFileOutputVectorManager::sVector *> >::_Vector_impl_data", %"struct.std::_Vector_base<cIndexedFileOutputVectorManager::sVector *, std::allocator<cIndexedFileOutputVectorManager::sVector *> >::_Vector_impl_data"* %4, i32 0, i32 2, !dbg !4162
  %5 = load %"struct.cIndexedFileOutputVectorManager::sVector"**, %"struct.cIndexedFileOutputVectorManager::sVector"*** %_M_end_of_storage, align 8, !dbg !4162
  %cmp = icmp ne %"struct.cIndexedFileOutputVectorManager::sVector"** %2, %5, !dbg !4163
  br i1 %cmp, label %if.then, label %if.else, !dbg !4164

if.then:                                          ; preds = %entry
  %6 = bitcast %"class.std::vector"* %this1 to %"struct.std::_Vector_base"*, !dbg !4165
  %_M_impl3 = getelementptr inbounds %"struct.std::_Vector_base", %"struct.std::_Vector_base"* %6, i32 0, i32 0, !dbg !4165
  %7 = bitcast %"struct.std::_Vector_base<cIndexedFileOutputVectorManager::sVector *, std::allocator<cIndexedFileOutputVectorManager::sVector *> >::_Vector_impl"* %_M_impl3 to %"class.std::allocator.3"*, !dbg !4167
  %8 = bitcast %"class.std::vector"* %this1 to %"struct.std::_Vector_base"*, !dbg !4168
  %_M_impl4 = getelementptr inbounds %"struct.std::_Vector_base", %"struct.std::_Vector_base"* %8, i32 0, i32 0, !dbg !4168
  %9 = bitcast %"struct.std::_Vector_base<cIndexedFileOutputVectorManager::sVector *, std::allocator<cIndexedFileOutputVectorManager::sVector *> >::_Vector_impl"* %_M_impl4 to %"struct.std::_Vector_base<cIndexedFileOutputVectorManager::sVector *, std::allocator<cIndexedFileOutputVectorManager::sVector *> >::_Vector_impl_data"*, !dbg !4169
  %_M_finish5 = getelementptr inbounds %"struct.std::_Vector_base<cIndexedFileOutputVectorManager::sVector *, std::allocator<cIndexedFileOutputVectorManager::sVector *> >::_Vector_impl_data", %"struct.std::_Vector_base<cIndexedFileOutputVectorManager::sVector *, std::allocator<cIndexedFileOutputVectorManager::sVector *> >::_Vector_impl_data"* %9, i32 0, i32 1, !dbg !4170
  %10 = load %"struct.cIndexedFileOutputVectorManager::sVector"**, %"struct.cIndexedFileOutputVectorManager::sVector"*** %_M_finish5, align 8, !dbg !4170
  %11 = load %"struct.cIndexedFileOutputVectorManager::sVector"**, %"struct.cIndexedFileOutputVectorManager::sVector"*** %__x.addr, align 8, !dbg !4171
  call void @_ZNSt16allocator_traitsISaIPN31cIndexedFileOutputVectorManager7sVectorEEE9constructIS2_JRKS2_EEEvRS3_PT_DpOT0_(%"class.std::allocator.3"* dereferenceable(1) %7, %"struct.cIndexedFileOutputVectorManager::sVector"** %10, %"struct.cIndexedFileOutputVectorManager::sVector"** dereferenceable(8) %11) #3, !dbg !4172
  %12 = bitcast %"class.std::vector"* %this1 to %"struct.std::_Vector_base"*, !dbg !4173
  %_M_impl6 = getelementptr inbounds %"struct.std::_Vector_base", %"struct.std::_Vector_base"* %12, i32 0, i32 0, !dbg !4173
  %13 = bitcast %"struct.std::_Vector_base<cIndexedFileOutputVectorManager::sVector *, std::allocator<cIndexedFileOutputVectorManager::sVector *> >::_Vector_impl"* %_M_impl6 to %"struct.std::_Vector_base<cIndexedFileOutputVectorManager::sVector *, std::allocator<cIndexedFileOutputVectorManager::sVector *> >::_Vector_impl_data"*, !dbg !4174
  %_M_finish7 = getelementptr inbounds %"struct.std::_Vector_base<cIndexedFileOutputVectorManager::sVector *, std::allocator<cIndexedFileOutputVectorManager::sVector *> >::_Vector_impl_data", %"struct.std::_Vector_base<cIndexedFileOutputVectorManager::sVector *, std::allocator<cIndexedFileOutputVectorManager::sVector *> >::_Vector_impl_data"* %13, i32 0, i32 1, !dbg !4175
  %14 = load %"struct.cIndexedFileOutputVectorManager::sVector"**, %"struct.cIndexedFileOutputVectorManager::sVector"*** %_M_finish7, align 8, !dbg !4176
  %incdec.ptr = getelementptr inbounds %"struct.cIndexedFileOutputVectorManager::sVector"*, %"struct.cIndexedFileOutputVectorManager::sVector"** %14, i32 1, !dbg !4176
  store %"struct.cIndexedFileOutputVectorManager::sVector"** %incdec.ptr, %"struct.cIndexedFileOutputVectorManager::sVector"*** %_M_finish7, align 8, !dbg !4176
  br label %if.end, !dbg !4177

if.else:                                          ; preds = %entry
  %call = call %"struct.cIndexedFileOutputVectorManager::sVector"** @_ZNSt6vectorIPN31cIndexedFileOutputVectorManager7sVectorESaIS2_EE3endEv(%"class.std::vector"* %this1) #3, !dbg !4178
  %coerce.dive = getelementptr inbounds %"class.__gnu_cxx::__normal_iterator", %"class.__gnu_cxx::__normal_iterator"* %agg.tmp, i32 0, i32 0, !dbg !4178
  store %"struct.cIndexedFileOutputVectorManager::sVector"** %call, %"struct.cIndexedFileOutputVectorManager::sVector"*** %coerce.dive, align 8, !dbg !4178
  %15 = load %"struct.cIndexedFileOutputVectorManager::sVector"**, %"struct.cIndexedFileOutputVectorManager::sVector"*** %__x.addr, align 8, !dbg !4179
  %coerce.dive8 = getelementptr inbounds %"class.__gnu_cxx::__normal_iterator", %"class.__gnu_cxx::__normal_iterator"* %agg.tmp, i32 0, i32 0, !dbg !4180
  %16 = load %"struct.cIndexedFileOutputVectorManager::sVector"**, %"struct.cIndexedFileOutputVectorManager::sVector"*** %coerce.dive8, align 8, !dbg !4180
  call void @_ZNSt6vectorIPN31cIndexedFileOutputVectorManager7sVectorESaIS2_EE17_M_realloc_insertIJRKS2_EEEvN9__gnu_cxx17__normal_iteratorIPS2_S4_EEDpOT_(%"class.std::vector"* %this1, %"struct.cIndexedFileOutputVectorManager::sVector"** %16, %"struct.cIndexedFileOutputVectorManager::sVector"** dereferenceable(8) %15), !dbg !4180
  br label %if.end

if.end:                                           ; preds = %if.else, %if.then
  ret void, !dbg !4181
}

; Function Attrs: noinline uwtable
define dso_local %"struct.cFileOutputVectorManager::sVectorData"* @_ZN31cIndexedFileOutputVectorManager16createVectorDataEv(%class.cIndexedFileOutputVectorManager* %this) unnamed_addr #0 align 2 personality i8* bitcast (i32 (...)* @__gxx_personality_v0 to i8*) !dbg !4182 {
entry:
  %this.addr = alloca %class.cIndexedFileOutputVectorManager*, align 8
  %exn.slot = alloca i8*
  %ehselector.slot = alloca i32
  store %class.cIndexedFileOutputVectorManager* %this, %class.cIndexedFileOutputVectorManager** %this.addr, align 8
  call void @llvm.dbg.declare(metadata %class.cIndexedFileOutputVectorManager** %this.addr, metadata !4183, metadata !DIExpression()), !dbg !4184
  %this1 = load %class.cIndexedFileOutputVectorManager*, %class.cIndexedFileOutputVectorManager** %this.addr, align 8
  %call = call i8* @_Znwm(i64 208) #13, !dbg !4185
  %0 = bitcast i8* %call to %"struct.cIndexedFileOutputVectorManager::sVector"*, !dbg !4185
  invoke void @_ZN31cIndexedFileOutputVectorManager7sVectorC2Ev(%"struct.cIndexedFileOutputVectorManager::sVector"* %0)
          to label %invoke.cont unwind label %lpad, !dbg !4186

invoke.cont:                                      ; preds = %entry
  %1 = bitcast %"struct.cIndexedFileOutputVectorManager::sVector"* %0 to %"struct.cFileOutputVectorManager::sVectorData"*, !dbg !4185
  ret %"struct.cFileOutputVectorManager::sVectorData"* %1, !dbg !4187

lpad:                                             ; preds = %entry
  %2 = landingpad { i8*, i32 }
          cleanup, !dbg !4188
  %3 = extractvalue { i8*, i32 } %2, 0, !dbg !4188
  store i8* %3, i8** %exn.slot, align 8, !dbg !4188
  %4 = extractvalue { i8*, i32 } %2, 1, !dbg !4188
  store i32 %4, i32* %ehselector.slot, align 4, !dbg !4188
  call void @_ZdlPv(i8* %call) #14, !dbg !4185
  br label %eh.resume, !dbg !4185

eh.resume:                                        ; preds = %lpad
  %exn = load i8*, i8** %exn.slot, align 8, !dbg !4185
  %sel = load i32, i32* %ehselector.slot, align 4, !dbg !4185
  %lpad.val = insertvalue { i8*, i32 } undef, i8* %exn, 0, !dbg !4185
  %lpad.val2 = insertvalue { i8*, i32 } %lpad.val, i32 %sel, 1, !dbg !4185
  resume { i8*, i32 } %lpad.val2, !dbg !4185
}

; Function Attrs: nobuiltin
declare dso_local noalias i8* @_Znwm(i64) #6

; Function Attrs: noinline uwtable
define linkonce_odr dso_local void @_ZN31cIndexedFileOutputVectorManager7sVectorC2Ev(%"struct.cIndexedFileOutputVectorManager::sVector"* %this) unnamed_addr #0 comdat align 2 personality i8* bitcast (i32 (...)* @__gxx_personality_v0 to i8*) !dbg !4189 {
entry:
  %this.addr = alloca %"struct.cIndexedFileOutputVectorManager::sVector"*, align 8
  %exn.slot = alloca i8*
  %ehselector.slot = alloca i32
  store %"struct.cIndexedFileOutputVectorManager::sVector"* %this, %"struct.cIndexedFileOutputVectorManager::sVector"** %this.addr, align 8
  call void @llvm.dbg.declare(metadata %"struct.cIndexedFileOutputVectorManager::sVector"** %this.addr, metadata !4190, metadata !DIExpression()), !dbg !4191
  %this1 = load %"struct.cIndexedFileOutputVectorManager::sVector"*, %"struct.cIndexedFileOutputVectorManager::sVector"** %this.addr, align 8
  %0 = bitcast %"struct.cIndexedFileOutputVectorManager::sVector"* %this1 to %"struct.cFileOutputVectorManager::sVectorData"*, !dbg !4192
  call void @_ZN24cFileOutputVectorManager11sVectorDataC2Ev(%"struct.cFileOutputVectorManager::sVectorData"* %0), !dbg !4193
  %buffer = getelementptr inbounds %"struct.cIndexedFileOutputVectorManager::sVector", %"struct.cIndexedFileOutputVectorManager::sVector"* %this1, i32 0, i32 1, !dbg !4194
  %1 = bitcast %"class.std::vector.6"* %buffer to i8*, !dbg !4194
  call void @llvm.memset.p0i8.i64(i8* align 8 %1, i8 0, i64 24, i1 false), !dbg !4194
  call void @_ZNSt6vectorIN31cIndexedFileOutputVectorManager7sSampleESaIS1_EEC2Ev(%"class.std::vector.6"* %buffer) #3, !dbg !4194
  %maxBufferedSamples = getelementptr inbounds %"struct.cIndexedFileOutputVectorManager::sVector", %"struct.cIndexedFileOutputVectorManager::sVector"* %this1, i32 0, i32 2, !dbg !4195
  store i64 0, i64* %maxBufferedSamples, align 8, !dbg !4195
  %currentBlock = getelementptr inbounds %"struct.cIndexedFileOutputVectorManager::sVector", %"struct.cIndexedFileOutputVectorManager::sVector"* %this1, i32 0, i32 3, !dbg !4193
  invoke void @_ZN31cIndexedFileOutputVectorManager6sBlockC2Ev(%"struct.cIndexedFileOutputVectorManager::sBlock"* %currentBlock)
          to label %invoke.cont unwind label %lpad, !dbg !4193

invoke.cont:                                      ; preds = %entry
  ret void, !dbg !4196

lpad:                                             ; preds = %entry
  %2 = landingpad { i8*, i32 }
          cleanup, !dbg !4196
  %3 = extractvalue { i8*, i32 } %2, 0, !dbg !4196
  store i8* %3, i8** %exn.slot, align 8, !dbg !4196
  %4 = extractvalue { i8*, i32 } %2, 1, !dbg !4196
  store i32 %4, i32* %ehselector.slot, align 4, !dbg !4196
  call void @_ZNSt6vectorIN31cIndexedFileOutputVectorManager7sSampleESaIS1_EED2Ev(%"class.std::vector.6"* %buffer) #3, !dbg !4197
  %5 = bitcast %"struct.cIndexedFileOutputVectorManager::sVector"* %this1 to %"struct.cFileOutputVectorManager::sVectorData"*, !dbg !4197
  call void @_ZN24cFileOutputVectorManager11sVectorDataD2Ev(%"struct.cFileOutputVectorManager::sVectorData"* %5) #3, !dbg !4197
  br label %eh.resume, !dbg !4197

eh.resume:                                        ; preds = %lpad
  %exn = load i8*, i8** %exn.slot, align 8, !dbg !4197
  %sel = load i32, i32* %ehselector.slot, align 4, !dbg !4197
  %lpad.val = insertvalue { i8*, i32 } undef, i8* %exn, 0, !dbg !4197
  %lpad.val2 = insertvalue { i8*, i32 } %lpad.val, i32 %sel, 1, !dbg !4197
  resume { i8*, i32 } %lpad.val2, !dbg !4197
}

; Function Attrs: nobuiltin nounwind
declare dso_local void @_ZdlPv(i8*) #7

; Function Attrs: noinline uwtable
define dso_local void @_ZN31cIndexedFileOutputVectorManager16deregisterVectorEPv(%class.cIndexedFileOutputVectorManager* %this, i8* %vectorhandle) unnamed_addr #0 align 2 !dbg !4199 {
entry:
  %this.addr = alloca %class.cIndexedFileOutputVectorManager*, align 8
  %vectorhandle.addr = alloca i8*, align 8
  %vp = alloca %"struct.cIndexedFileOutputVectorManager::sVector"*, align 8
  %newEnd = alloca %"class.__gnu_cxx::__normal_iterator", align 8
  %agg.tmp = alloca %"class.__gnu_cxx::__normal_iterator", align 8
  %agg.tmp2 = alloca %"class.__gnu_cxx::__normal_iterator", align 8
  %agg.tmp11 = alloca %"class.__gnu_cxx::__normal_iterator.11", align 8
  %agg.tmp12 = alloca %"class.__gnu_cxx::__normal_iterator.11", align 8
  %ref.tmp = alloca %"class.__gnu_cxx::__normal_iterator", align 8
  %coerce = alloca %"class.__gnu_cxx::__normal_iterator", align 8
  store %class.cIndexedFileOutputVectorManager* %this, %class.cIndexedFileOutputVectorManager** %this.addr, align 8
  call void @llvm.dbg.declare(metadata %class.cIndexedFileOutputVectorManager** %this.addr, metadata !4200, metadata !DIExpression()), !dbg !4201
  store i8* %vectorhandle, i8** %vectorhandle.addr, align 8
  call void @llvm.dbg.declare(metadata i8** %vectorhandle.addr, metadata !4202, metadata !DIExpression()), !dbg !4203
  %this1 = load %class.cIndexedFileOutputVectorManager*, %class.cIndexedFileOutputVectorManager** %this.addr, align 8
  call void @llvm.dbg.declare(metadata %"struct.cIndexedFileOutputVectorManager::sVector"** %vp, metadata !4204, metadata !DIExpression()), !dbg !4205
  %0 = load i8*, i8** %vectorhandle.addr, align 8, !dbg !4206
  %1 = bitcast i8* %0 to %"struct.cIndexedFileOutputVectorManager::sVector"*, !dbg !4207
  store %"struct.cIndexedFileOutputVectorManager::sVector"* %1, %"struct.cIndexedFileOutputVectorManager::sVector"** %vp, align 8, !dbg !4205
  call void @llvm.dbg.declare(metadata %"class.__gnu_cxx::__normal_iterator"* %newEnd, metadata !4208, metadata !DIExpression()), !dbg !4209
  %vectors = getelementptr inbounds %class.cIndexedFileOutputVectorManager, %class.cIndexedFileOutputVectorManager* %this1, i32 0, i32 5, !dbg !4210
  %call = call %"struct.cIndexedFileOutputVectorManager::sVector"** @_ZNSt6vectorIPN31cIndexedFileOutputVectorManager7sVectorESaIS2_EE5beginEv(%"class.std::vector"* %vectors) #3, !dbg !4211
  %coerce.dive = getelementptr inbounds %"class.__gnu_cxx::__normal_iterator", %"class.__gnu_cxx::__normal_iterator"* %agg.tmp, i32 0, i32 0, !dbg !4211
  store %"struct.cIndexedFileOutputVectorManager::sVector"** %call, %"struct.cIndexedFileOutputVectorManager::sVector"*** %coerce.dive, align 8, !dbg !4211
  %vectors3 = getelementptr inbounds %class.cIndexedFileOutputVectorManager, %class.cIndexedFileOutputVectorManager* %this1, i32 0, i32 5, !dbg !4212
  %call4 = call %"struct.cIndexedFileOutputVectorManager::sVector"** @_ZNSt6vectorIPN31cIndexedFileOutputVectorManager7sVectorESaIS2_EE3endEv(%"class.std::vector"* %vectors3) #3, !dbg !4213
  %coerce.dive5 = getelementptr inbounds %"class.__gnu_cxx::__normal_iterator", %"class.__gnu_cxx::__normal_iterator"* %agg.tmp2, i32 0, i32 0, !dbg !4213
  store %"struct.cIndexedFileOutputVectorManager::sVector"** %call4, %"struct.cIndexedFileOutputVectorManager::sVector"*** %coerce.dive5, align 8, !dbg !4213
  %coerce.dive6 = getelementptr inbounds %"class.__gnu_cxx::__normal_iterator", %"class.__gnu_cxx::__normal_iterator"* %agg.tmp, i32 0, i32 0, !dbg !4214
  %2 = load %"struct.cIndexedFileOutputVectorManager::sVector"**, %"struct.cIndexedFileOutputVectorManager::sVector"*** %coerce.dive6, align 8, !dbg !4214
  %coerce.dive7 = getelementptr inbounds %"class.__gnu_cxx::__normal_iterator", %"class.__gnu_cxx::__normal_iterator"* %agg.tmp2, i32 0, i32 0, !dbg !4214
  %3 = load %"struct.cIndexedFileOutputVectorManager::sVector"**, %"struct.cIndexedFileOutputVectorManager::sVector"*** %coerce.dive7, align 8, !dbg !4214
  %call8 = call %"struct.cIndexedFileOutputVectorManager::sVector"** @_ZSt6removeIN9__gnu_cxx17__normal_iteratorIPPN31cIndexedFileOutputVectorManager7sVectorESt6vectorIS4_SaIS4_EEEES4_ET_SA_SA_RKT0_(%"struct.cIndexedFileOutputVectorManager::sVector"** %2, %"struct.cIndexedFileOutputVectorManager::sVector"** %3, %"struct.cIndexedFileOutputVectorManager::sVector"** dereferenceable(8) %vp), !dbg !4214
  %coerce.dive9 = getelementptr inbounds %"class.__gnu_cxx::__normal_iterator", %"class.__gnu_cxx::__normal_iterator"* %newEnd, i32 0, i32 0, !dbg !4214
  store %"struct.cIndexedFileOutputVectorManager::sVector"** %call8, %"struct.cIndexedFileOutputVectorManager::sVector"*** %coerce.dive9, align 8, !dbg !4214
  %vectors10 = getelementptr inbounds %class.cIndexedFileOutputVectorManager, %class.cIndexedFileOutputVectorManager* %this1, i32 0, i32 5, !dbg !4215
  call void @_ZN9__gnu_cxx17__normal_iteratorIPKPN31cIndexedFileOutputVectorManager7sVectorESt6vectorIS3_SaIS3_EEEC2IPS3_EERKNS0_IT_NS_11__enable_ifIXsr3std10__are_sameISC_SB_EE7__valueES8_E6__typeEEE(%"class.__gnu_cxx::__normal_iterator.11"* %agg.tmp11, %"class.__gnu_cxx::__normal_iterator"* dereferenceable(8) %newEnd) #3, !dbg !4216
  %vectors13 = getelementptr inbounds %class.cIndexedFileOutputVectorManager, %class.cIndexedFileOutputVectorManager* %this1, i32 0, i32 5, !dbg !4217
  %call14 = call %"struct.cIndexedFileOutputVectorManager::sVector"** @_ZNSt6vectorIPN31cIndexedFileOutputVectorManager7sVectorESaIS2_EE3endEv(%"class.std::vector"* %vectors13) #3, !dbg !4218
  %coerce.dive15 = getelementptr inbounds %"class.__gnu_cxx::__normal_iterator", %"class.__gnu_cxx::__normal_iterator"* %ref.tmp, i32 0, i32 0, !dbg !4218
  store %"struct.cIndexedFileOutputVectorManager::sVector"** %call14, %"struct.cIndexedFileOutputVectorManager::sVector"*** %coerce.dive15, align 8, !dbg !4218
  call void @_ZN9__gnu_cxx17__normal_iteratorIPKPN31cIndexedFileOutputVectorManager7sVectorESt6vectorIS3_SaIS3_EEEC2IPS3_EERKNS0_IT_NS_11__enable_ifIXsr3std10__are_sameISC_SB_EE7__valueES8_E6__typeEEE(%"class.__gnu_cxx::__normal_iterator.11"* %agg.tmp12, %"class.__gnu_cxx::__normal_iterator"* dereferenceable(8) %ref.tmp) #3, !dbg !4217
  %coerce.dive16 = getelementptr inbounds %"class.__gnu_cxx::__normal_iterator.11", %"class.__gnu_cxx::__normal_iterator.11"* %agg.tmp11, i32 0, i32 0, !dbg !4219
  %4 = load %"struct.cIndexedFileOutputVectorManager::sVector"**, %"struct.cIndexedFileOutputVectorManager::sVector"*** %coerce.dive16, align 8, !dbg !4219
  %coerce.dive17 = getelementptr inbounds %"class.__gnu_cxx::__normal_iterator.11", %"class.__gnu_cxx::__normal_iterator.11"* %agg.tmp12, i32 0, i32 0, !dbg !4219
  %5 = load %"struct.cIndexedFileOutputVectorManager::sVector"**, %"struct.cIndexedFileOutputVectorManager::sVector"*** %coerce.dive17, align 8, !dbg !4219
  %call18 = call %"struct.cIndexedFileOutputVectorManager::sVector"** @_ZNSt6vectorIPN31cIndexedFileOutputVectorManager7sVectorESaIS2_EE5eraseEN9__gnu_cxx17__normal_iteratorIPKS2_S4_EES9_(%"class.std::vector"* %vectors10, %"struct.cIndexedFileOutputVectorManager::sVector"** %4, %"struct.cIndexedFileOutputVectorManager::sVector"** %5), !dbg !4219
  %coerce.dive19 = getelementptr inbounds %"class.__gnu_cxx::__normal_iterator", %"class.__gnu_cxx::__normal_iterator"* %coerce, i32 0, i32 0, !dbg !4219
  store %"struct.cIndexedFileOutputVectorManager::sVector"** %call18, %"struct.cIndexedFileOutputVectorManager::sVector"*** %coerce.dive19, align 8, !dbg !4219
  %6 = load %"struct.cIndexedFileOutputVectorManager::sVector"*, %"struct.cIndexedFileOutputVectorManager::sVector"** %vp, align 8, !dbg !4220
  %7 = bitcast %class.cIndexedFileOutputVectorManager* %this1 to void (%class.cIndexedFileOutputVectorManager*, %"struct.cIndexedFileOutputVectorManager::sVector"*)***, !dbg !4221
  %vtable = load void (%class.cIndexedFileOutputVectorManager*, %"struct.cIndexedFileOutputVectorManager::sVector"*)**, void (%class.cIndexedFileOutputVectorManager*, %"struct.cIndexedFileOutputVectorManager::sVector"*)*** %7, align 8, !dbg !4221
  %vfn = getelementptr inbounds void (%class.cIndexedFileOutputVectorManager*, %"struct.cIndexedFileOutputVectorManager::sVector"*)*, void (%class.cIndexedFileOutputVectorManager*, %"struct.cIndexedFileOutputVectorManager::sVector"*)** %vtable, i64 30, !dbg !4221
  %8 = load void (%class.cIndexedFileOutputVectorManager*, %"struct.cIndexedFileOutputVectorManager::sVector"*)*, void (%class.cIndexedFileOutputVectorManager*, %"struct.cIndexedFileOutputVectorManager::sVector"*)** %vfn, align 8, !dbg !4221
  call void %8(%class.cIndexedFileOutputVectorManager* %this1, %"struct.cIndexedFileOutputVectorManager::sVector"* %6), !dbg !4221
  %9 = bitcast %class.cIndexedFileOutputVectorManager* %this1 to %class.cFileOutputVectorManager*, !dbg !4222
  %10 = load i8*, i8** %vectorhandle.addr, align 8, !dbg !4223
  call void @_ZN24cFileOutputVectorManager16deregisterVectorEPv(%class.cFileOutputVectorManager* %9, i8* %10), !dbg !4222
  ret void, !dbg !4224
}

; Function Attrs: noinline uwtable
define linkonce_odr dso_local %"struct.cIndexedFileOutputVectorManager::sVector"** @_ZSt6removeIN9__gnu_cxx17__normal_iteratorIPPN31cIndexedFileOutputVectorManager7sVectorESt6vectorIS4_SaIS4_EEEES4_ET_SA_SA_RKT0_(%"struct.cIndexedFileOutputVectorManager::sVector"** %__first.coerce, %"struct.cIndexedFileOutputVectorManager::sVector"** %__last.coerce, %"struct.cIndexedFileOutputVectorManager::sVector"** dereferenceable(8) %__value) #0 comdat !dbg !4225 {
entry:
  %retval = alloca %"class.__gnu_cxx::__normal_iterator", align 8
  %__first = alloca %"class.__gnu_cxx::__normal_iterator", align 8
  %__last = alloca %"class.__gnu_cxx::__normal_iterator", align 8
  %__value.addr = alloca %"struct.cIndexedFileOutputVectorManager::sVector"**, align 8
  %agg.tmp = alloca %"class.__gnu_cxx::__normal_iterator", align 8
  %agg.tmp2 = alloca %"class.__gnu_cxx::__normal_iterator", align 8
  %agg.tmp3 = alloca %"struct.__gnu_cxx::__ops::_Iter_equals_val", align 8
  %coerce.dive = getelementptr inbounds %"class.__gnu_cxx::__normal_iterator", %"class.__gnu_cxx::__normal_iterator"* %__first, i32 0, i32 0
  store %"struct.cIndexedFileOutputVectorManager::sVector"** %__first.coerce, %"struct.cIndexedFileOutputVectorManager::sVector"*** %coerce.dive, align 8
  %coerce.dive1 = getelementptr inbounds %"class.__gnu_cxx::__normal_iterator", %"class.__gnu_cxx::__normal_iterator"* %__last, i32 0, i32 0
  store %"struct.cIndexedFileOutputVectorManager::sVector"** %__last.coerce, %"struct.cIndexedFileOutputVectorManager::sVector"*** %coerce.dive1, align 8
  call void @llvm.dbg.declare(metadata %"class.__gnu_cxx::__normal_iterator"* %__first, metadata !4231, metadata !DIExpression()), !dbg !4232
  call void @llvm.dbg.declare(metadata %"class.__gnu_cxx::__normal_iterator"* %__last, metadata !4233, metadata !DIExpression()), !dbg !4234
  store %"struct.cIndexedFileOutputVectorManager::sVector"** %__value, %"struct.cIndexedFileOutputVectorManager::sVector"*** %__value.addr, align 8
  call void @llvm.dbg.declare(metadata %"struct.cIndexedFileOutputVectorManager::sVector"*** %__value.addr, metadata !4235, metadata !DIExpression()), !dbg !4236
  %0 = bitcast %"class.__gnu_cxx::__normal_iterator"* %agg.tmp to i8*, !dbg !4237
  %1 = bitcast %"class.__gnu_cxx::__normal_iterator"* %__first to i8*, !dbg !4237
  call void @llvm.memcpy.p0i8.p0i8.i64(i8* align 8 %0, i8* align 8 %1, i64 8, i1 false), !dbg !4237
  %2 = bitcast %"class.__gnu_cxx::__normal_iterator"* %agg.tmp2 to i8*, !dbg !4238
  %3 = bitcast %"class.__gnu_cxx::__normal_iterator"* %__last to i8*, !dbg !4238
  call void @llvm.memcpy.p0i8.p0i8.i64(i8* align 8 %2, i8* align 8 %3, i64 8, i1 false), !dbg !4238
  %4 = load %"struct.cIndexedFileOutputVectorManager::sVector"**, %"struct.cIndexedFileOutputVectorManager::sVector"*** %__value.addr, align 8, !dbg !4239
  %call = call %"struct.cIndexedFileOutputVectorManager::sVector"** @_ZN9__gnu_cxx5__ops17__iter_equals_valIKPN31cIndexedFileOutputVectorManager7sVectorEEENS0_16_Iter_equals_valIT_EERS7_(%"struct.cIndexedFileOutputVectorManager::sVector"** dereferenceable(8) %4), !dbg !4240
  %coerce.dive4 = getelementptr inbounds %"struct.__gnu_cxx::__ops::_Iter_equals_val", %"struct.__gnu_cxx::__ops::_Iter_equals_val"* %agg.tmp3, i32 0, i32 0, !dbg !4240
  store %"struct.cIndexedFileOutputVectorManager::sVector"** %call, %"struct.cIndexedFileOutputVectorManager::sVector"*** %coerce.dive4, align 8, !dbg !4240
  %coerce.dive5 = getelementptr inbounds %"class.__gnu_cxx::__normal_iterator", %"class.__gnu_cxx::__normal_iterator"* %agg.tmp, i32 0, i32 0, !dbg !4241
  %5 = load %"struct.cIndexedFileOutputVectorManager::sVector"**, %"struct.cIndexedFileOutputVectorManager::sVector"*** %coerce.dive5, align 8, !dbg !4241
  %coerce.dive6 = getelementptr inbounds %"class.__gnu_cxx::__normal_iterator", %"class.__gnu_cxx::__normal_iterator"* %agg.tmp2, i32 0, i32 0, !dbg !4241
  %6 = load %"struct.cIndexedFileOutputVectorManager::sVector"**, %"struct.cIndexedFileOutputVectorManager::sVector"*** %coerce.dive6, align 8, !dbg !4241
  %coerce.dive7 = getelementptr inbounds %"struct.__gnu_cxx::__ops::_Iter_equals_val", %"struct.__gnu_cxx::__ops::_Iter_equals_val"* %agg.tmp3, i32 0, i32 0, !dbg !4241
  %7 = load %"struct.cIndexedFileOutputVectorManager::sVector"**, %"struct.cIndexedFileOutputVectorManager::sVector"*** %coerce.dive7, align 8, !dbg !4241
  %call8 = call %"struct.cIndexedFileOutputVectorManager::sVector"** @_ZSt11__remove_ifIN9__gnu_cxx17__normal_iteratorIPPN31cIndexedFileOutputVectorManager7sVectorESt6vectorIS4_SaIS4_EEEENS0_5__ops16_Iter_equals_valIKS4_EEET_SE_SE_T0_(%"struct.cIndexedFileOutputVectorManager::sVector"** %5, %"struct.cIndexedFileOutputVectorManager::sVector"** %6, %"struct.cIndexedFileOutputVectorManager::sVector"** %7), !dbg !4241
  %coerce.dive9 = getelementptr inbounds %"class.__gnu_cxx::__normal_iterator", %"class.__gnu_cxx::__normal_iterator"* %retval, i32 0, i32 0, !dbg !4241
  store %"struct.cIndexedFileOutputVectorManager::sVector"** %call8, %"struct.cIndexedFileOutputVectorManager::sVector"*** %coerce.dive9, align 8, !dbg !4241
  %coerce.dive10 = getelementptr inbounds %"class.__gnu_cxx::__normal_iterator", %"class.__gnu_cxx::__normal_iterator"* %retval, i32 0, i32 0, !dbg !4242
  %8 = load %"struct.cIndexedFileOutputVectorManager::sVector"**, %"struct.cIndexedFileOutputVectorManager::sVector"*** %coerce.dive10, align 8, !dbg !4242
  ret %"struct.cIndexedFileOutputVectorManager::sVector"** %8, !dbg !4242
}

; Function Attrs: noinline uwtable
define linkonce_odr dso_local %"struct.cIndexedFileOutputVectorManager::sVector"** @_ZNSt6vectorIPN31cIndexedFileOutputVectorManager7sVectorESaIS2_EE5eraseEN9__gnu_cxx17__normal_iteratorIPKS2_S4_EES9_(%"class.std::vector"* %this, %"struct.cIndexedFileOutputVectorManager::sVector"** %__first.coerce, %"struct.cIndexedFileOutputVectorManager::sVector"** %__last.coerce) #0 comdat align 2 !dbg !4243 {
entry:
  %retval = alloca %"class.__gnu_cxx::__normal_iterator", align 8
  %__first = alloca %"class.__gnu_cxx::__normal_iterator.11", align 8
  %__last = alloca %"class.__gnu_cxx::__normal_iterator.11", align 8
  %this.addr = alloca %"class.std::vector"*, align 8
  %__beg = alloca %"class.__gnu_cxx::__normal_iterator", align 8
  %__cbeg = alloca %"class.__gnu_cxx::__normal_iterator.11", align 8
  %agg.tmp = alloca %"class.__gnu_cxx::__normal_iterator", align 8
  %agg.tmp9 = alloca %"class.__gnu_cxx::__normal_iterator", align 8
  %coerce.dive = getelementptr inbounds %"class.__gnu_cxx::__normal_iterator.11", %"class.__gnu_cxx::__normal_iterator.11"* %__first, i32 0, i32 0
  store %"struct.cIndexedFileOutputVectorManager::sVector"** %__first.coerce, %"struct.cIndexedFileOutputVectorManager::sVector"*** %coerce.dive, align 8
  %coerce.dive1 = getelementptr inbounds %"class.__gnu_cxx::__normal_iterator.11", %"class.__gnu_cxx::__normal_iterator.11"* %__last, i32 0, i32 0
  store %"struct.cIndexedFileOutputVectorManager::sVector"** %__last.coerce, %"struct.cIndexedFileOutputVectorManager::sVector"*** %coerce.dive1, align 8
  store %"class.std::vector"* %this, %"class.std::vector"** %this.addr, align 8
  call void @llvm.dbg.declare(metadata %"class.std::vector"** %this.addr, metadata !4244, metadata !DIExpression()), !dbg !4245
  call void @llvm.dbg.declare(metadata %"class.__gnu_cxx::__normal_iterator.11"* %__first, metadata !4246, metadata !DIExpression()), !dbg !4247
  call void @llvm.dbg.declare(metadata %"class.__gnu_cxx::__normal_iterator.11"* %__last, metadata !4248, metadata !DIExpression()), !dbg !4249
  %this2 = load %"class.std::vector"*, %"class.std::vector"** %this.addr, align 8
  call void @llvm.dbg.declare(metadata %"class.__gnu_cxx::__normal_iterator"* %__beg, metadata !4250, metadata !DIExpression()), !dbg !4251
  %call = call %"struct.cIndexedFileOutputVectorManager::sVector"** @_ZNSt6vectorIPN31cIndexedFileOutputVectorManager7sVectorESaIS2_EE5beginEv(%"class.std::vector"* %this2) #3, !dbg !4252
  %coerce.dive3 = getelementptr inbounds %"class.__gnu_cxx::__normal_iterator", %"class.__gnu_cxx::__normal_iterator"* %__beg, i32 0, i32 0, !dbg !4252
  store %"struct.cIndexedFileOutputVectorManager::sVector"** %call, %"struct.cIndexedFileOutputVectorManager::sVector"*** %coerce.dive3, align 8, !dbg !4252
  call void @llvm.dbg.declare(metadata %"class.__gnu_cxx::__normal_iterator.11"* %__cbeg, metadata !4253, metadata !DIExpression()), !dbg !4254
  %call4 = call %"struct.cIndexedFileOutputVectorManager::sVector"** @_ZNKSt6vectorIPN31cIndexedFileOutputVectorManager7sVectorESaIS2_EE6cbeginEv(%"class.std::vector"* %this2) #3, !dbg !4255
  %coerce.dive5 = getelementptr inbounds %"class.__gnu_cxx::__normal_iterator.11", %"class.__gnu_cxx::__normal_iterator.11"* %__cbeg, i32 0, i32 0, !dbg !4255
  store %"struct.cIndexedFileOutputVectorManager::sVector"** %call4, %"struct.cIndexedFileOutputVectorManager::sVector"*** %coerce.dive5, align 8, !dbg !4255
  %call6 = call i64 @_ZN9__gnu_cxxmiIPKPN31cIndexedFileOutputVectorManager7sVectorESt6vectorIS3_SaIS3_EEEENS_17__normal_iteratorIT_T0_E15difference_typeERKSC_SF_(%"class.__gnu_cxx::__normal_iterator.11"* dereferenceable(8) %__first, %"class.__gnu_cxx::__normal_iterator.11"* dereferenceable(8) %__cbeg) #3, !dbg !4256
  %call7 = call %"struct.cIndexedFileOutputVectorManager::sVector"** @_ZNK9__gnu_cxx17__normal_iteratorIPPN31cIndexedFileOutputVectorManager7sVectorESt6vectorIS3_SaIS3_EEEplEl(%"class.__gnu_cxx::__normal_iterator"* %__beg, i64 %call6) #3, !dbg !4257
  %coerce.dive8 = getelementptr inbounds %"class.__gnu_cxx::__normal_iterator", %"class.__gnu_cxx::__normal_iterator"* %agg.tmp, i32 0, i32 0, !dbg !4257
  store %"struct.cIndexedFileOutputVectorManager::sVector"** %call7, %"struct.cIndexedFileOutputVectorManager::sVector"*** %coerce.dive8, align 8, !dbg !4257
  %call10 = call i64 @_ZN9__gnu_cxxmiIPKPN31cIndexedFileOutputVectorManager7sVectorESt6vectorIS3_SaIS3_EEEENS_17__normal_iteratorIT_T0_E15difference_typeERKSC_SF_(%"class.__gnu_cxx::__normal_iterator.11"* dereferenceable(8) %__last, %"class.__gnu_cxx::__normal_iterator.11"* dereferenceable(8) %__cbeg) #3, !dbg !4258
  %call11 = call %"struct.cIndexedFileOutputVectorManager::sVector"** @_ZNK9__gnu_cxx17__normal_iteratorIPPN31cIndexedFileOutputVectorManager7sVectorESt6vectorIS3_SaIS3_EEEplEl(%"class.__gnu_cxx::__normal_iterator"* %__beg, i64 %call10) #3, !dbg !4259
  %coerce.dive12 = getelementptr inbounds %"class.__gnu_cxx::__normal_iterator", %"class.__gnu_cxx::__normal_iterator"* %agg.tmp9, i32 0, i32 0, !dbg !4259
  store %"struct.cIndexedFileOutputVectorManager::sVector"** %call11, %"struct.cIndexedFileOutputVectorManager::sVector"*** %coerce.dive12, align 8, !dbg !4259
  %coerce.dive13 = getelementptr inbounds %"class.__gnu_cxx::__normal_iterator", %"class.__gnu_cxx::__normal_iterator"* %agg.tmp, i32 0, i32 0, !dbg !4260
  %0 = load %"struct.cIndexedFileOutputVectorManager::sVector"**, %"struct.cIndexedFileOutputVectorManager::sVector"*** %coerce.dive13, align 8, !dbg !4260
  %coerce.dive14 = getelementptr inbounds %"class.__gnu_cxx::__normal_iterator", %"class.__gnu_cxx::__normal_iterator"* %agg.tmp9, i32 0, i32 0, !dbg !4260
  %1 = load %"struct.cIndexedFileOutputVectorManager::sVector"**, %"struct.cIndexedFileOutputVectorManager::sVector"*** %coerce.dive14, align 8, !dbg !4260
  %call15 = call %"struct.cIndexedFileOutputVectorManager::sVector"** @_ZNSt6vectorIPN31cIndexedFileOutputVectorManager7sVectorESaIS2_EE8_M_eraseEN9__gnu_cxx17__normal_iteratorIPS2_S4_EES8_(%"class.std::vector"* %this2, %"struct.cIndexedFileOutputVectorManager::sVector"** %0, %"struct.cIndexedFileOutputVectorManager::sVector"** %1), !dbg !4260
  %coerce.dive16 = getelementptr inbounds %"class.__gnu_cxx::__normal_iterator", %"class.__gnu_cxx::__normal_iterator"* %retval, i32 0, i32 0, !dbg !4260
  store %"struct.cIndexedFileOutputVectorManager::sVector"** %call15, %"struct.cIndexedFileOutputVectorManager::sVector"*** %coerce.dive16, align 8, !dbg !4260
  %coerce.dive17 = getelementptr inbounds %"class.__gnu_cxx::__normal_iterator", %"class.__gnu_cxx::__normal_iterator"* %retval, i32 0, i32 0, !dbg !4261
  %2 = load %"struct.cIndexedFileOutputVectorManager::sVector"**, %"struct.cIndexedFileOutputVectorManager::sVector"*** %coerce.dive17, align 8, !dbg !4261
  ret %"struct.cIndexedFileOutputVectorManager::sVector"** %2, !dbg !4261
}

; Function Attrs: noinline nounwind uwtable
define linkonce_odr dso_local void @_ZN9__gnu_cxx17__normal_iteratorIPKPN31cIndexedFileOutputVectorManager7sVectorESt6vectorIS3_SaIS3_EEEC2IPS3_EERKNS0_IT_NS_11__enable_ifIXsr3std10__are_sameISC_SB_EE7__valueES8_E6__typeEEE(%"class.__gnu_cxx::__normal_iterator.11"* %this, %"class.__gnu_cxx::__normal_iterator"* dereferenceable(8) %__i) unnamed_addr #5 comdat align 2 !dbg !4262 {
entry:
  %this.addr = alloca %"class.__gnu_cxx::__normal_iterator.11"*, align 8
  %__i.addr = alloca %"class.__gnu_cxx::__normal_iterator"*, align 8
  store %"class.__gnu_cxx::__normal_iterator.11"* %this, %"class.__gnu_cxx::__normal_iterator.11"** %this.addr, align 8
  call void @llvm.dbg.declare(metadata %"class.__gnu_cxx::__normal_iterator.11"** %this.addr, metadata !4268, metadata !DIExpression()), !dbg !4270
  store %"class.__gnu_cxx::__normal_iterator"* %__i, %"class.__gnu_cxx::__normal_iterator"** %__i.addr, align 8
  call void @llvm.dbg.declare(metadata %"class.__gnu_cxx::__normal_iterator"** %__i.addr, metadata !4271, metadata !DIExpression()), !dbg !4272
  %this1 = load %"class.__gnu_cxx::__normal_iterator.11"*, %"class.__gnu_cxx::__normal_iterator.11"** %this.addr, align 8
  %_M_current = getelementptr inbounds %"class.__gnu_cxx::__normal_iterator.11", %"class.__gnu_cxx::__normal_iterator.11"* %this1, i32 0, i32 0, !dbg !4273
  %0 = load %"class.__gnu_cxx::__normal_iterator"*, %"class.__gnu_cxx::__normal_iterator"** %__i.addr, align 8, !dbg !4274
  %call = call dereferenceable(8) %"struct.cIndexedFileOutputVectorManager::sVector"*** @_ZNK9__gnu_cxx17__normal_iteratorIPPN31cIndexedFileOutputVectorManager7sVectorESt6vectorIS3_SaIS3_EEE4baseEv(%"class.__gnu_cxx::__normal_iterator"* %0) #3, !dbg !4275
  %1 = load %"struct.cIndexedFileOutputVectorManager::sVector"**, %"struct.cIndexedFileOutputVectorManager::sVector"*** %call, align 8, !dbg !4275
  store %"struct.cIndexedFileOutputVectorManager::sVector"** %1, %"struct.cIndexedFileOutputVectorManager::sVector"*** %_M_current, align 8, !dbg !4273
  ret void, !dbg !4276
}

declare dso_local void @_ZN24cFileOutputVectorManager16deregisterVectorEPv(%class.cFileOutputVectorManager*, i8*) unnamed_addr #1

; Function Attrs: noinline uwtable
define dso_local void @_ZN31cIndexedFileOutputVectorManager10initVectorEPN24cFileOutputVectorManager11sVectorDataE(%class.cIndexedFileOutputVectorManager* %this, %"struct.cFileOutputVectorManager::sVectorData"* %vp) unnamed_addr #0 align 2 personality i8* bitcast (i32 (...)* @__gxx_personality_v0 to i8*) !dbg !4277 {
entry:
  %this.addr = alloca %class.cIndexedFileOutputVectorManager*, align 8
  %vp.addr = alloca %"struct.cFileOutputVectorManager::sVectorData"*, align 8
  %ref.tmp = alloca %"class.std::__cxx11::basic_string", align 8
  %cleanup.cond = alloca i1, align 1
  %exn.slot = alloca i8*
  %ehselector.slot = alloca i32
  %ref.tmp13 = alloca %"class.std::__cxx11::basic_string", align 8
  %cleanup.cond18 = alloca i1, align 1
  %it = alloca %"struct.std::_Rb_tree_iterator", align 8
  %ref.tmp46 = alloca %"struct.std::_Rb_tree_iterator", align 8
  %ref.tmp56 = alloca %"class.std::__cxx11::basic_string", align 8
  %cleanup.cond60 = alloca i1, align 1
  %ref.tmp76 = alloca %"class.std::__cxx11::basic_string", align 8
  %cleanup.cond82 = alloca i1, align 1
  %coerce = alloca %"struct.std::_Rb_tree_iterator", align 8
  store %class.cIndexedFileOutputVectorManager* %this, %class.cIndexedFileOutputVectorManager** %this.addr, align 8
  call void @llvm.dbg.declare(metadata %class.cIndexedFileOutputVectorManager** %this.addr, metadata !4278, metadata !DIExpression()), !dbg !4279
  store %"struct.cFileOutputVectorManager::sVectorData"* %vp, %"struct.cFileOutputVectorManager::sVectorData"** %vp.addr, align 8
  call void @llvm.dbg.declare(metadata %"struct.cFileOutputVectorManager::sVectorData"** %vp.addr, metadata !4280, metadata !DIExpression()), !dbg !4281
  %this1 = load %class.cIndexedFileOutputVectorManager*, %class.cIndexedFileOutputVectorManager** %this.addr, align 8
  %0 = bitcast %class.cIndexedFileOutputVectorManager* %this1 to %class.cFileOutputVectorManager*, !dbg !4282
  %1 = load %"struct.cFileOutputVectorManager::sVectorData"*, %"struct.cFileOutputVectorManager::sVectorData"** %vp.addr, align 8, !dbg !4283
  call void @_ZN24cFileOutputVectorManager10initVectorEPNS_11sVectorDataE(%class.cFileOutputVectorManager* %0, %"struct.cFileOutputVectorManager::sVectorData"* %1), !dbg !4282
  %fi = getelementptr inbounds %class.cIndexedFileOutputVectorManager, %class.cIndexedFileOutputVectorManager* %this1, i32 0, i32 2, !dbg !4284
  %2 = load %struct._IO_FILE*, %struct._IO_FILE** %fi, align 8, !dbg !4284
  %3 = load %"struct.cFileOutputVectorManager::sVectorData"*, %"struct.cFileOutputVectorManager::sVectorData"** %vp.addr, align 8, !dbg !4284
  %id = getelementptr inbounds %"struct.cFileOutputVectorManager::sVectorData", %"struct.cFileOutputVectorManager::sVectorData"* %3, i32 0, i32 0, !dbg !4284
  %4 = load i32, i32* %id, align 8, !dbg !4284
  %5 = load %"struct.cFileOutputVectorManager::sVectorData"*, %"struct.cFileOutputVectorManager::sVectorData"** %vp.addr, align 8, !dbg !4284
  %modulename = getelementptr inbounds %"struct.cFileOutputVectorManager::sVectorData", %"struct.cFileOutputVectorManager::sVectorData"* %5, i32 0, i32 1, !dbg !4284
  %call = call i8* @_ZNK10opp_string5c_strEv(%class.opp_string* %modulename), !dbg !4284
  %call2 = call zeroext i1 @_Z15opp_needsquotesPKc(i8* %call), !dbg !4284
  store i1 false, i1* %cleanup.cond, align 1
  br i1 %call2, label %cond.true, label %cond.false, !dbg !4284

cond.true:                                        ; preds = %entry
  %6 = load %"struct.cFileOutputVectorManager::sVectorData"*, %"struct.cFileOutputVectorManager::sVectorData"** %vp.addr, align 8, !dbg !4284
  %modulename3 = getelementptr inbounds %"struct.cFileOutputVectorManager::sVectorData", %"struct.cFileOutputVectorManager::sVectorData"* %6, i32 0, i32 1, !dbg !4284
  %call4 = call i8* @_ZNK10opp_string5c_strEv(%class.opp_string* %modulename3), !dbg !4284
  call void @_Z12opp_quotestrB5cxx11PKc(%"class.std::__cxx11::basic_string"* sret %ref.tmp, i8* %call4), !dbg !4284
  store i1 true, i1* %cleanup.cond, align 1, !dbg !4284
  %call5 = call i8* @_ZNKSt7__cxx1112basic_stringIcSt11char_traitsIcESaIcEE5c_strEv(%"class.std::__cxx11::basic_string"* %ref.tmp) #3, !dbg !4284
  br label %cond.end, !dbg !4284

cond.false:                                       ; preds = %entry
  %7 = load %"struct.cFileOutputVectorManager::sVectorData"*, %"struct.cFileOutputVectorManager::sVectorData"** %vp.addr, align 8, !dbg !4284
  %modulename6 = getelementptr inbounds %"struct.cFileOutputVectorManager::sVectorData", %"struct.cFileOutputVectorManager::sVectorData"* %7, i32 0, i32 1, !dbg !4284
  %call7 = invoke i8* @_ZNK10opp_string5c_strEv(%class.opp_string* %modulename6)
          to label %invoke.cont unwind label %lpad, !dbg !4284

invoke.cont:                                      ; preds = %cond.false
  br label %cond.end, !dbg !4284

cond.end:                                         ; preds = %invoke.cont, %cond.true
  %cond = phi i8* [ %call5, %cond.true ], [ %call7, %invoke.cont ], !dbg !4284
  %8 = load %"struct.cFileOutputVectorManager::sVectorData"*, %"struct.cFileOutputVectorManager::sVectorData"** %vp.addr, align 8, !dbg !4284
  %vectorname = getelementptr inbounds %"struct.cFileOutputVectorManager::sVectorData", %"struct.cFileOutputVectorManager::sVectorData"* %8, i32 0, i32 2, !dbg !4284
  store i1 false, i1* %cleanup.cond18, align 1
  %call9 = invoke i8* @_ZNK10opp_string5c_strEv(%class.opp_string* %vectorname)
          to label %invoke.cont8 unwind label %lpad, !dbg !4284

invoke.cont8:                                     ; preds = %cond.end
  %call11 = invoke zeroext i1 @_Z15opp_needsquotesPKc(i8* %call9)
          to label %invoke.cont10 unwind label %lpad, !dbg !4284

invoke.cont10:                                    ; preds = %invoke.cont8
  br i1 %call11, label %cond.true12, label %cond.false20, !dbg !4284

cond.true12:                                      ; preds = %invoke.cont10
  %9 = load %"struct.cFileOutputVectorManager::sVectorData"*, %"struct.cFileOutputVectorManager::sVectorData"** %vp.addr, align 8, !dbg !4284
  %vectorname14 = getelementptr inbounds %"struct.cFileOutputVectorManager::sVectorData", %"struct.cFileOutputVectorManager::sVectorData"* %9, i32 0, i32 2, !dbg !4284
  %call16 = invoke i8* @_ZNK10opp_string5c_strEv(%class.opp_string* %vectorname14)
          to label %invoke.cont15 unwind label %lpad, !dbg !4284

invoke.cont15:                                    ; preds = %cond.true12
  invoke void @_Z12opp_quotestrB5cxx11PKc(%"class.std::__cxx11::basic_string"* sret %ref.tmp13, i8* %call16)
          to label %invoke.cont17 unwind label %lpad, !dbg !4284

invoke.cont17:                                    ; preds = %invoke.cont15
  store i1 true, i1* %cleanup.cond18, align 1, !dbg !4284
  %call19 = call i8* @_ZNKSt7__cxx1112basic_stringIcSt11char_traitsIcESaIcEE5c_strEv(%"class.std::__cxx11::basic_string"* %ref.tmp13) #3, !dbg !4284
  br label %cond.end25, !dbg !4284

cond.false20:                                     ; preds = %invoke.cont10
  %10 = load %"struct.cFileOutputVectorManager::sVectorData"*, %"struct.cFileOutputVectorManager::sVectorData"** %vp.addr, align 8, !dbg !4284
  %vectorname21 = getelementptr inbounds %"struct.cFileOutputVectorManager::sVectorData", %"struct.cFileOutputVectorManager::sVectorData"* %10, i32 0, i32 2, !dbg !4284
  %call24 = invoke i8* @_ZNK10opp_string5c_strEv(%class.opp_string* %vectorname21)
          to label %invoke.cont23 unwind label %lpad22, !dbg !4284

invoke.cont23:                                    ; preds = %cond.false20
  br label %cond.end25, !dbg !4284

cond.end25:                                       ; preds = %invoke.cont23, %invoke.cont17
  %cond26 = phi i8* [ %call19, %invoke.cont17 ], [ %call24, %invoke.cont23 ], !dbg !4284
  %11 = load %"struct.cFileOutputVectorManager::sVectorData"*, %"struct.cFileOutputVectorManager::sVectorData"** %vp.addr, align 8, !dbg !4284
  %call28 = invoke i8* @_ZN24cFileOutputVectorManager11sVectorData10getColumnsEv(%"struct.cFileOutputVectorManager::sVectorData"* %11)
          to label %invoke.cont27 unwind label %lpad22, !dbg !4284

invoke.cont27:                                    ; preds = %cond.end25
  %call30 = invoke i32 (%struct._IO_FILE*, i8*, ...) @fprintf(%struct._IO_FILE* %2, i8* getelementptr inbounds ([23 x i8], [23 x i8]* @.str.9, i64 0, i64 0), i32 %4, i8* %cond, i8* %cond26, i8* %call28)
          to label %invoke.cont29 unwind label %lpad22, !dbg !4284

invoke.cont29:                                    ; preds = %invoke.cont27
  %cmp = icmp slt i32 %call30, 0, !dbg !4284
  %cleanup.is_active = load i1, i1* %cleanup.cond18, align 1, !dbg !4284
  br i1 %cleanup.is_active, label %cleanup.action, label %cleanup.done, !dbg !4284

cleanup.action:                                   ; preds = %invoke.cont29
  call void @_ZNSt7__cxx1112basic_stringIcSt11char_traitsIcESaIcEED1Ev(%"class.std::__cxx11::basic_string"* %ref.tmp13) #3, !dbg !4284
  br label %cleanup.done, !dbg !4284

cleanup.done:                                     ; preds = %cleanup.action, %invoke.cont29
  %cleanup.is_active34 = load i1, i1* %cleanup.cond, align 1, !dbg !4284
  br i1 %cleanup.is_active34, label %cleanup.action35, label %cleanup.done36, !dbg !4284

cleanup.action35:                                 ; preds = %cleanup.done
  call void @_ZNSt7__cxx1112basic_stringIcSt11char_traitsIcESaIcEED1Ev(%"class.std::__cxx11::basic_string"* %ref.tmp) #3, !dbg !4284
  br label %cleanup.done36, !dbg !4284

cleanup.done36:                                   ; preds = %cleanup.action35, %cleanup.done
  br i1 %cmp, label %if.then, label %if.end, !dbg !4286

if.then:                                          ; preds = %cleanup.done36
  %exception = call i8* @__cxa_allocate_exception(i64 128) #3, !dbg !4284
  %12 = bitcast i8* %exception to %class.cRuntimeError*, !dbg !4284
  %ifname = getelementptr inbounds %class.cIndexedFileOutputVectorManager, %class.cIndexedFileOutputVectorManager* %this1, i32 0, i32 1, !dbg !4284
  %call42 = invoke i8* @_ZNK10opp_string5c_strEv(%class.opp_string* %ifname)
          to label %invoke.cont41 unwind label %lpad40, !dbg !4284

invoke.cont41:                                    ; preds = %if.then
  invoke void (%class.cRuntimeError*, i8*, ...) @_ZN13cRuntimeErrorC1EPKcz(%class.cRuntimeError* %12, i8* getelementptr inbounds ([30 x i8], [30 x i8]* @.str.10, i64 0, i64 0), i8* %call42)
          to label %invoke.cont43 unwind label %lpad40, !dbg !4284

invoke.cont43:                                    ; preds = %invoke.cont41
  call void @__cxa_throw(i8* %exception, i8* bitcast ({ i8*, i8*, i8* }* @_ZTI13cRuntimeError to i8*), i8* bitcast (void (%class.cRuntimeError*)* @_ZN13cRuntimeErrorD2Ev to i8*)) #16, !dbg !4284
  unreachable, !dbg !4284

lpad:                                             ; preds = %invoke.cont15, %cond.true12, %invoke.cont8, %cond.end, %cond.false
  %13 = landingpad { i8*, i32 }
          cleanup, !dbg !4287
  %14 = extractvalue { i8*, i32 } %13, 0, !dbg !4287
  store i8* %14, i8** %exn.slot, align 8, !dbg !4287
  %15 = extractvalue { i8*, i32 } %13, 1, !dbg !4287
  store i32 %15, i32* %ehselector.slot, align 4, !dbg !4287
  br label %ehcleanup, !dbg !4287

lpad22:                                           ; preds = %invoke.cont27, %cond.end25, %cond.false20
  %16 = landingpad { i8*, i32 }
          cleanup, !dbg !4287
  %17 = extractvalue { i8*, i32 } %16, 0, !dbg !4287
  store i8* %17, i8** %exn.slot, align 8, !dbg !4287
  %18 = extractvalue { i8*, i32 } %16, 1, !dbg !4287
  store i32 %18, i32* %ehselector.slot, align 4, !dbg !4287
  %cleanup.is_active31 = load i1, i1* %cleanup.cond18, align 1, !dbg !4284
  br i1 %cleanup.is_active31, label %cleanup.action32, label %cleanup.done33, !dbg !4284

cleanup.action32:                                 ; preds = %lpad22
  call void @_ZNSt7__cxx1112basic_stringIcSt11char_traitsIcESaIcEED1Ev(%"class.std::__cxx11::basic_string"* %ref.tmp13) #3, !dbg !4284
  br label %cleanup.done33, !dbg !4284

cleanup.done33:                                   ; preds = %cleanup.action32, %lpad22
  br label %ehcleanup, !dbg !4284

ehcleanup:                                        ; preds = %cleanup.done33, %lpad
  %cleanup.is_active37 = load i1, i1* %cleanup.cond, align 1, !dbg !4284
  br i1 %cleanup.is_active37, label %cleanup.action38, label %cleanup.done39, !dbg !4284

cleanup.action38:                                 ; preds = %ehcleanup
  call void @_ZNSt7__cxx1112basic_stringIcSt11char_traitsIcESaIcEED1Ev(%"class.std::__cxx11::basic_string"* %ref.tmp) #3, !dbg !4284
  br label %cleanup.done39, !dbg !4284

cleanup.done39:                                   ; preds = %cleanup.action38, %ehcleanup
  br label %eh.resume, !dbg !4284

lpad40:                                           ; preds = %invoke.cont41, %if.then
  %19 = landingpad { i8*, i32 }
          cleanup, !dbg !4287
  %20 = extractvalue { i8*, i32 } %19, 0, !dbg !4287
  store i8* %20, i8** %exn.slot, align 8, !dbg !4287
  %21 = extractvalue { i8*, i32 } %19, 1, !dbg !4287
  store i32 %21, i32* %ehselector.slot, align 4, !dbg !4287
  call void @__cxa_free_exception(i8* %exception) #3, !dbg !4284
  br label %eh.resume, !dbg !4284

if.end:                                           ; preds = %cleanup.done36
  call void @llvm.dbg.declare(metadata %"struct.std::_Rb_tree_iterator"* %it, metadata !4288, metadata !DIExpression()), !dbg !4290
  %22 = load %"struct.cFileOutputVectorManager::sVectorData"*, %"struct.cFileOutputVectorManager::sVectorData"** %vp.addr, align 8, !dbg !4291
  %attributes = getelementptr inbounds %"struct.cFileOutputVectorManager::sVectorData", %"struct.cFileOutputVectorManager::sVectorData"* %22, i32 0, i32 3, !dbg !4292
  %23 = bitcast %class.opp_string_map* %attributes to %"class.std::map"*, !dbg !4291
  %call45 = call %"struct.std::_Rb_tree_node_base"* @_ZNSt3mapI10opp_stringS0_St4lessIS0_ESaISt4pairIKS0_S0_EEE5beginEv(%"class.std::map"* %23) #3, !dbg !4293
  %coerce.dive = getelementptr inbounds %"struct.std::_Rb_tree_iterator", %"struct.std::_Rb_tree_iterator"* %it, i32 0, i32 0, !dbg !4293
  store %"struct.std::_Rb_tree_node_base"* %call45, %"struct.std::_Rb_tree_node_base"** %coerce.dive, align 8, !dbg !4293
  br label %for.cond, !dbg !4294

for.cond:                                         ; preds = %for.inc, %if.end
  %24 = load %"struct.cFileOutputVectorManager::sVectorData"*, %"struct.cFileOutputVectorManager::sVectorData"** %vp.addr, align 8, !dbg !4295
  %attributes47 = getelementptr inbounds %"struct.cFileOutputVectorManager::sVectorData", %"struct.cFileOutputVectorManager::sVectorData"* %24, i32 0, i32 3, !dbg !4297
  %25 = bitcast %class.opp_string_map* %attributes47 to %"class.std::map"*, !dbg !4295
  %call48 = call %"struct.std::_Rb_tree_node_base"* @_ZNSt3mapI10opp_stringS0_St4lessIS0_ESaISt4pairIKS0_S0_EEE3endEv(%"class.std::map"* %25) #3, !dbg !4298
  %coerce.dive49 = getelementptr inbounds %"struct.std::_Rb_tree_iterator", %"struct.std::_Rb_tree_iterator"* %ref.tmp46, i32 0, i32 0, !dbg !4298
  store %"struct.std::_Rb_tree_node_base"* %call48, %"struct.std::_Rb_tree_node_base"** %coerce.dive49, align 8, !dbg !4298
  %call50 = call zeroext i1 @_ZStneRKSt17_Rb_tree_iteratorISt4pairIK10opp_stringS1_EES6_(%"struct.std::_Rb_tree_iterator"* dereferenceable(8) %it, %"struct.std::_Rb_tree_iterator"* dereferenceable(8) %ref.tmp46) #3, !dbg !4299
  br i1 %call50, label %for.body, label %for.end, !dbg !4300

for.body:                                         ; preds = %for.cond
  %fi51 = getelementptr inbounds %class.cIndexedFileOutputVectorManager, %class.cIndexedFileOutputVectorManager* %this1, i32 0, i32 2, !dbg !4301
  %26 = load %struct._IO_FILE*, %struct._IO_FILE** %fi51, align 8, !dbg !4301
  %call52 = call %"struct.std::pair"* @_ZNKSt17_Rb_tree_iteratorISt4pairIK10opp_stringS1_EEptEv(%"struct.std::_Rb_tree_iterator"* %it) #3, !dbg !4301
  %first = getelementptr inbounds %"struct.std::pair", %"struct.std::pair"* %call52, i32 0, i32 0, !dbg !4301
  %call53 = call i8* @_ZNK10opp_string5c_strEv(%class.opp_string* %first), !dbg !4301
  %call54 = call zeroext i1 @_Z15opp_needsquotesPKc(i8* %call53), !dbg !4301
  store i1 false, i1* %cleanup.cond60, align 1
  br i1 %call54, label %cond.true55, label %cond.false62, !dbg !4301

cond.true55:                                      ; preds = %for.body
  %call57 = call %"struct.std::pair"* @_ZNKSt17_Rb_tree_iteratorISt4pairIK10opp_stringS1_EEptEv(%"struct.std::_Rb_tree_iterator"* %it) #3, !dbg !4301
  %first58 = getelementptr inbounds %"struct.std::pair", %"struct.std::pair"* %call57, i32 0, i32 0, !dbg !4301
  %call59 = call i8* @_ZNK10opp_string5c_strEv(%class.opp_string* %first58), !dbg !4301
  call void @_Z12opp_quotestrB5cxx11PKc(%"class.std::__cxx11::basic_string"* sret %ref.tmp56, i8* %call59), !dbg !4301
  store i1 true, i1* %cleanup.cond60, align 1, !dbg !4301
  %call61 = call i8* @_ZNKSt7__cxx1112basic_stringIcSt11char_traitsIcESaIcEE5c_strEv(%"class.std::__cxx11::basic_string"* %ref.tmp56) #3, !dbg !4301
  br label %cond.end68, !dbg !4301

cond.false62:                                     ; preds = %for.body
  %call63 = call %"struct.std::pair"* @_ZNKSt17_Rb_tree_iteratorISt4pairIK10opp_stringS1_EEptEv(%"struct.std::_Rb_tree_iterator"* %it) #3, !dbg !4301
  %first64 = getelementptr inbounds %"struct.std::pair", %"struct.std::pair"* %call63, i32 0, i32 0, !dbg !4301
  %call67 = invoke i8* @_ZNK10opp_string5c_strEv(%class.opp_string* %first64)
          to label %invoke.cont66 unwind label %lpad65, !dbg !4301

invoke.cont66:                                    ; preds = %cond.false62
  br label %cond.end68, !dbg !4301

cond.end68:                                       ; preds = %invoke.cont66, %cond.true55
  %cond69 = phi i8* [ %call61, %cond.true55 ], [ %call67, %invoke.cont66 ], !dbg !4301
  %call70 = call %"struct.std::pair"* @_ZNKSt17_Rb_tree_iteratorISt4pairIK10opp_stringS1_EEptEv(%"struct.std::_Rb_tree_iterator"* %it) #3, !dbg !4301
  %second = getelementptr inbounds %"struct.std::pair", %"struct.std::pair"* %call70, i32 0, i32 1, !dbg !4301
  store i1 false, i1* %cleanup.cond82, align 1
  %call72 = invoke i8* @_ZNK10opp_string5c_strEv(%class.opp_string* %second)
          to label %invoke.cont71 unwind label %lpad65, !dbg !4301

invoke.cont71:                                    ; preds = %cond.end68
  %call74 = invoke zeroext i1 @_Z15opp_needsquotesPKc(i8* %call72)
          to label %invoke.cont73 unwind label %lpad65, !dbg !4301

invoke.cont73:                                    ; preds = %invoke.cont71
  br i1 %call74, label %cond.true75, label %cond.false84, !dbg !4301

cond.true75:                                      ; preds = %invoke.cont73
  %call77 = call %"struct.std::pair"* @_ZNKSt17_Rb_tree_iteratorISt4pairIK10opp_stringS1_EEptEv(%"struct.std::_Rb_tree_iterator"* %it) #3, !dbg !4301
  %second78 = getelementptr inbounds %"struct.std::pair", %"struct.std::pair"* %call77, i32 0, i32 1, !dbg !4301
  %call80 = invoke i8* @_ZNK10opp_string5c_strEv(%class.opp_string* %second78)
          to label %invoke.cont79 unwind label %lpad65, !dbg !4301

invoke.cont79:                                    ; preds = %cond.true75
  invoke void @_Z12opp_quotestrB5cxx11PKc(%"class.std::__cxx11::basic_string"* sret %ref.tmp76, i8* %call80)
          to label %invoke.cont81 unwind label %lpad65, !dbg !4301

invoke.cont81:                                    ; preds = %invoke.cont79
  store i1 true, i1* %cleanup.cond82, align 1, !dbg !4301
  %call83 = call i8* @_ZNKSt7__cxx1112basic_stringIcSt11char_traitsIcESaIcEE5c_strEv(%"class.std::__cxx11::basic_string"* %ref.tmp76) #3, !dbg !4301
  br label %cond.end90, !dbg !4301

cond.false84:                                     ; preds = %invoke.cont73
  %call85 = call %"struct.std::pair"* @_ZNKSt17_Rb_tree_iteratorISt4pairIK10opp_stringS1_EEptEv(%"struct.std::_Rb_tree_iterator"* %it) #3, !dbg !4301
  %second86 = getelementptr inbounds %"struct.std::pair", %"struct.std::pair"* %call85, i32 0, i32 1, !dbg !4301
  %call89 = invoke i8* @_ZNK10opp_string5c_strEv(%class.opp_string* %second86)
          to label %invoke.cont88 unwind label %lpad87, !dbg !4301

invoke.cont88:                                    ; preds = %cond.false84
  br label %cond.end90, !dbg !4301

cond.end90:                                       ; preds = %invoke.cont88, %invoke.cont81
  %cond91 = phi i8* [ %call83, %invoke.cont81 ], [ %call89, %invoke.cont88 ], !dbg !4301
  %call93 = invoke i32 (%struct._IO_FILE*, i8*, ...) @fprintf(%struct._IO_FILE* %26, i8* getelementptr inbounds ([13 x i8], [13 x i8]* @.str.11, i64 0, i64 0), i8* %cond69, i8* %cond91)
          to label %invoke.cont92 unwind label %lpad87, !dbg !4301

invoke.cont92:                                    ; preds = %cond.end90
  %cmp94 = icmp slt i32 %call93, 0, !dbg !4301
  %cleanup.is_active95 = load i1, i1* %cleanup.cond82, align 1, !dbg !4301
  br i1 %cleanup.is_active95, label %cleanup.action96, label %cleanup.done97, !dbg !4301

cleanup.action96:                                 ; preds = %invoke.cont92
  call void @_ZNSt7__cxx1112basic_stringIcSt11char_traitsIcESaIcEED1Ev(%"class.std::__cxx11::basic_string"* %ref.tmp76) #3, !dbg !4301
  br label %cleanup.done97, !dbg !4301

cleanup.done97:                                   ; preds = %cleanup.action96, %invoke.cont92
  %cleanup.is_active102 = load i1, i1* %cleanup.cond60, align 1, !dbg !4301
  br i1 %cleanup.is_active102, label %cleanup.action103, label %cleanup.done104, !dbg !4301

cleanup.action103:                                ; preds = %cleanup.done97
  call void @_ZNSt7__cxx1112basic_stringIcSt11char_traitsIcESaIcEED1Ev(%"class.std::__cxx11::basic_string"* %ref.tmp56) #3, !dbg !4301
  br label %cleanup.done104, !dbg !4301

cleanup.done104:                                  ; preds = %cleanup.action103, %cleanup.done97
  br i1 %cmp94, label %if.then109, label %if.end117, !dbg !4303

if.then109:                                       ; preds = %cleanup.done104
  %exception110 = call i8* @__cxa_allocate_exception(i64 128) #3, !dbg !4301
  %27 = bitcast i8* %exception110 to %class.cRuntimeError*, !dbg !4301
  %ifname111 = getelementptr inbounds %class.cIndexedFileOutputVectorManager, %class.cIndexedFileOutputVectorManager* %this1, i32 0, i32 1, !dbg !4301
  %call114 = invoke i8* @_ZNK10opp_string5c_strEv(%class.opp_string* %ifname111)
          to label %invoke.cont113 unwind label %lpad112, !dbg !4301

invoke.cont113:                                   ; preds = %if.then109
  invoke void (%class.cRuntimeError*, i8*, ...) @_ZN13cRuntimeErrorC1EPKcz(%class.cRuntimeError* %27, i8* getelementptr inbounds ([30 x i8], [30 x i8]* @.str.10, i64 0, i64 0), i8* %call114)
          to label %invoke.cont115 unwind label %lpad112, !dbg !4301

invoke.cont115:                                   ; preds = %invoke.cont113
  call void @__cxa_throw(i8* %exception110, i8* bitcast ({ i8*, i8*, i8* }* @_ZTI13cRuntimeError to i8*), i8* bitcast (void (%class.cRuntimeError*)* @_ZN13cRuntimeErrorD2Ev to i8*)) #16, !dbg !4301
  unreachable, !dbg !4301

lpad65:                                           ; preds = %invoke.cont79, %cond.true75, %invoke.cont71, %cond.end68, %cond.false62
  %28 = landingpad { i8*, i32 }
          cleanup, !dbg !4304
  %29 = extractvalue { i8*, i32 } %28, 0, !dbg !4304
  store i8* %29, i8** %exn.slot, align 8, !dbg !4304
  %30 = extractvalue { i8*, i32 } %28, 1, !dbg !4304
  store i32 %30, i32* %ehselector.slot, align 4, !dbg !4304
  br label %ehcleanup105, !dbg !4304

lpad87:                                           ; preds = %cond.end90, %cond.false84
  %31 = landingpad { i8*, i32 }
          cleanup, !dbg !4304
  %32 = extractvalue { i8*, i32 } %31, 0, !dbg !4304
  store i8* %32, i8** %exn.slot, align 8, !dbg !4304
  %33 = extractvalue { i8*, i32 } %31, 1, !dbg !4304
  store i32 %33, i32* %ehselector.slot, align 4, !dbg !4304
  %cleanup.is_active99 = load i1, i1* %cleanup.cond82, align 1, !dbg !4301
  br i1 %cleanup.is_active99, label %cleanup.action100, label %cleanup.done101, !dbg !4301

cleanup.action100:                                ; preds = %lpad87
  call void @_ZNSt7__cxx1112basic_stringIcSt11char_traitsIcESaIcEED1Ev(%"class.std::__cxx11::basic_string"* %ref.tmp76) #3, !dbg !4301
  br label %cleanup.done101, !dbg !4301

cleanup.done101:                                  ; preds = %cleanup.action100, %lpad87
  br label %ehcleanup105, !dbg !4301

ehcleanup105:                                     ; preds = %cleanup.done101, %lpad65
  %cleanup.is_active106 = load i1, i1* %cleanup.cond60, align 1, !dbg !4301
  br i1 %cleanup.is_active106, label %cleanup.action107, label %cleanup.done108, !dbg !4301

cleanup.action107:                                ; preds = %ehcleanup105
  call void @_ZNSt7__cxx1112basic_stringIcSt11char_traitsIcESaIcEED1Ev(%"class.std::__cxx11::basic_string"* %ref.tmp56) #3, !dbg !4301
  br label %cleanup.done108, !dbg !4301

cleanup.done108:                                  ; preds = %cleanup.action107, %ehcleanup105
  br label %eh.resume, !dbg !4301

lpad112:                                          ; preds = %invoke.cont113, %if.then109
  %34 = landingpad { i8*, i32 }
          cleanup, !dbg !4304
  %35 = extractvalue { i8*, i32 } %34, 0, !dbg !4304
  store i8* %35, i8** %exn.slot, align 8, !dbg !4304
  %36 = extractvalue { i8*, i32 } %34, 1, !dbg !4304
  store i32 %36, i32* %ehselector.slot, align 4, !dbg !4304
  call void @__cxa_free_exception(i8* %exception110) #3, !dbg !4301
  br label %eh.resume, !dbg !4301

if.end117:                                        ; preds = %cleanup.done104
  br label %for.inc, !dbg !4301

for.inc:                                          ; preds = %if.end117
  %call118 = call %"struct.std::_Rb_tree_node_base"* @_ZNSt17_Rb_tree_iteratorISt4pairIK10opp_stringS1_EEppEi(%"struct.std::_Rb_tree_iterator"* %it, i32 0) #3, !dbg !4305
  %coerce.dive119 = getelementptr inbounds %"struct.std::_Rb_tree_iterator", %"struct.std::_Rb_tree_iterator"* %coerce, i32 0, i32 0, !dbg !4305
  store %"struct.std::_Rb_tree_node_base"* %call118, %"struct.std::_Rb_tree_node_base"** %coerce.dive119, align 8, !dbg !4305
  br label %for.cond, !dbg !4306, !llvm.loop !4307

for.end:                                          ; preds = %for.cond
  ret void, !dbg !4309

eh.resume:                                        ; preds = %lpad112, %cleanup.done108, %lpad40, %cleanup.done39
  %exn = load i8*, i8** %exn.slot, align 8, !dbg !4284
  %sel = load i32, i32* %ehselector.slot, align 4, !dbg !4284
  %lpad.val = insertvalue { i8*, i32 } undef, i8* %exn, 0, !dbg !4284
  %lpad.val120 = insertvalue { i8*, i32 } %lpad.val, i32 %sel, 1, !dbg !4284
  resume { i8*, i32 } %lpad.val120, !dbg !4284
}

declare dso_local void @_ZN24cFileOutputVectorManager10initVectorEPNS_11sVectorDataE(%class.cFileOutputVectorManager*, %"struct.cFileOutputVectorManager::sVectorData"*) unnamed_addr #1

declare dso_local zeroext i1 @_Z15opp_needsquotesPKc(i8*) #1

declare dso_local void @_Z12opp_quotestrB5cxx11PKc(%"class.std::__cxx11::basic_string"* sret, i8*) #1

; Function Attrs: noinline nounwind uwtable
define linkonce_odr dso_local i8* @_ZN24cFileOutputVectorManager11sVectorData10getColumnsEv(%"struct.cFileOutputVectorManager::sVectorData"* %this) #5 comdat align 2 !dbg !4310 {
entry:
  %this.addr = alloca %"struct.cFileOutputVectorManager::sVectorData"*, align 8
  store %"struct.cFileOutputVectorManager::sVectorData"* %this, %"struct.cFileOutputVectorManager::sVectorData"** %this.addr, align 8
  call void @llvm.dbg.declare(metadata %"struct.cFileOutputVectorManager::sVectorData"** %this.addr, metadata !4311, metadata !DIExpression()), !dbg !4312
  %this1 = load %"struct.cFileOutputVectorManager::sVectorData"*, %"struct.cFileOutputVectorManager::sVectorData"** %this.addr, align 8
  %recordEventNumbers = getelementptr inbounds %"struct.cFileOutputVectorManager::sVectorData", %"struct.cFileOutputVectorManager::sVectorData"* %this1, i32 0, i32 6, !dbg !4313
  %0 = load i8, i8* %recordEventNumbers, align 2, !dbg !4313
  %tobool = trunc i8 %0 to i1, !dbg !4313
  %1 = zext i1 %tobool to i64, !dbg !4313
  %cond = select i1 %tobool, i8* getelementptr inbounds ([4 x i8], [4 x i8]* @.str.26, i64 0, i64 0), i8* getelementptr inbounds ([3 x i8], [3 x i8]* @.str.27, i64 0, i64 0), !dbg !4313
  ret i8* %cond, !dbg !4314
}

; Function Attrs: noinline nounwind uwtable
define linkonce_odr dso_local %"struct.std::_Rb_tree_node_base"* @_ZNSt3mapI10opp_stringS0_St4lessIS0_ESaISt4pairIKS0_S0_EEE5beginEv(%"class.std::map"* %this) #5 comdat align 2 !dbg !4315 {
entry:
  %retval = alloca %"struct.std::_Rb_tree_iterator", align 8
  %this.addr = alloca %"class.std::map"*, align 8
  store %"class.std::map"* %this, %"class.std::map"** %this.addr, align 8
  call void @llvm.dbg.declare(metadata %"class.std::map"** %this.addr, metadata !4316, metadata !DIExpression()), !dbg !4318
  %this1 = load %"class.std::map"*, %"class.std::map"** %this.addr, align 8
  %_M_t = getelementptr inbounds %"class.std::map", %"class.std::map"* %this1, i32 0, i32 0, !dbg !4319
  %call = call %"struct.std::_Rb_tree_node_base"* @_ZNSt8_Rb_treeI10opp_stringSt4pairIKS0_S0_ESt10_Select1stIS3_ESt4lessIS0_ESaIS3_EE5beginEv(%"class.std::_Rb_tree"* %_M_t) #3, !dbg !4320
  %coerce.dive = getelementptr inbounds %"struct.std::_Rb_tree_iterator", %"struct.std::_Rb_tree_iterator"* %retval, i32 0, i32 0, !dbg !4320
  store %"struct.std::_Rb_tree_node_base"* %call, %"struct.std::_Rb_tree_node_base"** %coerce.dive, align 8, !dbg !4320
  %coerce.dive2 = getelementptr inbounds %"struct.std::_Rb_tree_iterator", %"struct.std::_Rb_tree_iterator"* %retval, i32 0, i32 0, !dbg !4321
  %0 = load %"struct.std::_Rb_tree_node_base"*, %"struct.std::_Rb_tree_node_base"** %coerce.dive2, align 8, !dbg !4321
  ret %"struct.std::_Rb_tree_node_base"* %0, !dbg !4321
}

; Function Attrs: noinline nounwind uwtable
define linkonce_odr dso_local zeroext i1 @_ZStneRKSt17_Rb_tree_iteratorISt4pairIK10opp_stringS1_EES6_(%"struct.std::_Rb_tree_iterator"* dereferenceable(8) %__x, %"struct.std::_Rb_tree_iterator"* dereferenceable(8) %__y) #5 comdat !dbg !4322 {
entry:
  %__x.addr = alloca %"struct.std::_Rb_tree_iterator"*, align 8
  %__y.addr = alloca %"struct.std::_Rb_tree_iterator"*, align 8
  store %"struct.std::_Rb_tree_iterator"* %__x, %"struct.std::_Rb_tree_iterator"** %__x.addr, align 8
  call void @llvm.dbg.declare(metadata %"struct.std::_Rb_tree_iterator"** %__x.addr, metadata !4327, metadata !DIExpression()), !dbg !4328
  store %"struct.std::_Rb_tree_iterator"* %__y, %"struct.std::_Rb_tree_iterator"** %__y.addr, align 8
  call void @llvm.dbg.declare(metadata %"struct.std::_Rb_tree_iterator"** %__y.addr, metadata !4329, metadata !DIExpression()), !dbg !4330
  %0 = load %"struct.std::_Rb_tree_iterator"*, %"struct.std::_Rb_tree_iterator"** %__x.addr, align 8, !dbg !4331
  %_M_node = getelementptr inbounds %"struct.std::_Rb_tree_iterator", %"struct.std::_Rb_tree_iterator"* %0, i32 0, i32 0, !dbg !4332
  %1 = load %"struct.std::_Rb_tree_node_base"*, %"struct.std::_Rb_tree_node_base"** %_M_node, align 8, !dbg !4332
  %2 = load %"struct.std::_Rb_tree_iterator"*, %"struct.std::_Rb_tree_iterator"** %__y.addr, align 8, !dbg !4333
  %_M_node1 = getelementptr inbounds %"struct.std::_Rb_tree_iterator", %"struct.std::_Rb_tree_iterator"* %2, i32 0, i32 0, !dbg !4334
  %3 = load %"struct.std::_Rb_tree_node_base"*, %"struct.std::_Rb_tree_node_base"** %_M_node1, align 8, !dbg !4334
  %cmp = icmp ne %"struct.std::_Rb_tree_node_base"* %1, %3, !dbg !4335
  ret i1 %cmp, !dbg !4336
}

; Function Attrs: noinline nounwind uwtable
define linkonce_odr dso_local %"struct.std::_Rb_tree_node_base"* @_ZNSt3mapI10opp_stringS0_St4lessIS0_ESaISt4pairIKS0_S0_EEE3endEv(%"class.std::map"* %this) #5 comdat align 2 !dbg !4337 {
entry:
  %retval = alloca %"struct.std::_Rb_tree_iterator", align 8
  %this.addr = alloca %"class.std::map"*, align 8
  store %"class.std::map"* %this, %"class.std::map"** %this.addr, align 8
  call void @llvm.dbg.declare(metadata %"class.std::map"** %this.addr, metadata !4338, metadata !DIExpression()), !dbg !4339
  %this1 = load %"class.std::map"*, %"class.std::map"** %this.addr, align 8
  %_M_t = getelementptr inbounds %"class.std::map", %"class.std::map"* %this1, i32 0, i32 0, !dbg !4340
  %call = call %"struct.std::_Rb_tree_node_base"* @_ZNSt8_Rb_treeI10opp_stringSt4pairIKS0_S0_ESt10_Select1stIS3_ESt4lessIS0_ESaIS3_EE3endEv(%"class.std::_Rb_tree"* %_M_t) #3, !dbg !4341
  %coerce.dive = getelementptr inbounds %"struct.std::_Rb_tree_iterator", %"struct.std::_Rb_tree_iterator"* %retval, i32 0, i32 0, !dbg !4341
  store %"struct.std::_Rb_tree_node_base"* %call, %"struct.std::_Rb_tree_node_base"** %coerce.dive, align 8, !dbg !4341
  %coerce.dive2 = getelementptr inbounds %"struct.std::_Rb_tree_iterator", %"struct.std::_Rb_tree_iterator"* %retval, i32 0, i32 0, !dbg !4342
  %0 = load %"struct.std::_Rb_tree_node_base"*, %"struct.std::_Rb_tree_node_base"** %coerce.dive2, align 8, !dbg !4342
  ret %"struct.std::_Rb_tree_node_base"* %0, !dbg !4342
}

; Function Attrs: noinline nounwind uwtable
define linkonce_odr dso_local %"struct.std::pair"* @_ZNKSt17_Rb_tree_iteratorISt4pairIK10opp_stringS1_EEptEv(%"struct.std::_Rb_tree_iterator"* %this) #5 comdat align 2 personality i8* bitcast (i32 (...)* @__gxx_personality_v0 to i8*) !dbg !4343 {
entry:
  %this.addr = alloca %"struct.std::_Rb_tree_iterator"*, align 8
  store %"struct.std::_Rb_tree_iterator"* %this, %"struct.std::_Rb_tree_iterator"** %this.addr, align 8
  call void @llvm.dbg.declare(metadata %"struct.std::_Rb_tree_iterator"** %this.addr, metadata !4344, metadata !DIExpression()), !dbg !4346
  %this1 = load %"struct.std::_Rb_tree_iterator"*, %"struct.std::_Rb_tree_iterator"** %this.addr, align 8
  %_M_node = getelementptr inbounds %"struct.std::_Rb_tree_iterator", %"struct.std::_Rb_tree_iterator"* %this1, i32 0, i32 0, !dbg !4347
  %0 = load %"struct.std::_Rb_tree_node_base"*, %"struct.std::_Rb_tree_node_base"** %_M_node, align 8, !dbg !4347
  %1 = bitcast %"struct.std::_Rb_tree_node_base"* %0 to %"struct.std::_Rb_tree_node"*, !dbg !4348
  %call = invoke %"struct.std::pair"* @_ZNSt13_Rb_tree_nodeISt4pairIK10opp_stringS1_EE9_M_valptrEv(%"struct.std::_Rb_tree_node"* %1)
          to label %invoke.cont unwind label %terminate.lpad, !dbg !4349

invoke.cont:                                      ; preds = %entry
  ret %"struct.std::pair"* %call, !dbg !4350

terminate.lpad:                                   ; preds = %entry
  %2 = landingpad { i8*, i32 }
          catch i8* null, !dbg !4349
  %3 = extractvalue { i8*, i32 } %2, 0, !dbg !4349
  call void @__clang_call_terminate(i8* %3) #15, !dbg !4349
  unreachable, !dbg !4349
}

; Function Attrs: noinline nounwind uwtable
define linkonce_odr dso_local %"struct.std::_Rb_tree_node_base"* @_ZNSt17_Rb_tree_iteratorISt4pairIK10opp_stringS1_EEppEi(%"struct.std::_Rb_tree_iterator"* %this, i32 %0) #5 comdat align 2 !dbg !4351 {
entry:
  %retval = alloca %"struct.std::_Rb_tree_iterator", align 8
  %this.addr = alloca %"struct.std::_Rb_tree_iterator"*, align 8
  %.addr = alloca i32, align 4
  store %"struct.std::_Rb_tree_iterator"* %this, %"struct.std::_Rb_tree_iterator"** %this.addr, align 8
  call void @llvm.dbg.declare(metadata %"struct.std::_Rb_tree_iterator"** %this.addr, metadata !4352, metadata !DIExpression()), !dbg !4354
  store i32 %0, i32* %.addr, align 4
  call void @llvm.dbg.declare(metadata i32* %.addr, metadata !4355, metadata !DIExpression()), !dbg !4356
  %this1 = load %"struct.std::_Rb_tree_iterator"*, %"struct.std::_Rb_tree_iterator"** %this.addr, align 8
  call void @llvm.dbg.declare(metadata %"struct.std::_Rb_tree_iterator"* %retval, metadata !4357, metadata !DIExpression()), !dbg !4358
  %1 = bitcast %"struct.std::_Rb_tree_iterator"* %retval to i8*, !dbg !4359
  %2 = bitcast %"struct.std::_Rb_tree_iterator"* %this1 to i8*, !dbg !4359
  call void @llvm.memcpy.p0i8.p0i8.i64(i8* align 8 %1, i8* align 8 %2, i64 8, i1 false), !dbg !4359
  %_M_node = getelementptr inbounds %"struct.std::_Rb_tree_iterator", %"struct.std::_Rb_tree_iterator"* %this1, i32 0, i32 0, !dbg !4360
  %3 = load %"struct.std::_Rb_tree_node_base"*, %"struct.std::_Rb_tree_node_base"** %_M_node, align 8, !dbg !4360
  %call = call %"struct.std::_Rb_tree_node_base"* @_ZSt18_Rb_tree_incrementPSt18_Rb_tree_node_base(%"struct.std::_Rb_tree_node_base"* %3) #17, !dbg !4361
  %_M_node2 = getelementptr inbounds %"struct.std::_Rb_tree_iterator", %"struct.std::_Rb_tree_iterator"* %this1, i32 0, i32 0, !dbg !4362
  store %"struct.std::_Rb_tree_node_base"* %call, %"struct.std::_Rb_tree_node_base"** %_M_node2, align 8, !dbg !4363
  %coerce.dive = getelementptr inbounds %"struct.std::_Rb_tree_iterator", %"struct.std::_Rb_tree_iterator"* %retval, i32 0, i32 0, !dbg !4364
  %4 = load %"struct.std::_Rb_tree_node_base"*, %"struct.std::_Rb_tree_node_base"** %coerce.dive, align 8, !dbg !4364
  ret %"struct.std::_Rb_tree_node_base"* %4, !dbg !4364
}

; Function Attrs: noinline uwtable
define dso_local void @_ZN31cIndexedFileOutputVectorManager14finalizeVectorEPNS_7sVectorE(%class.cIndexedFileOutputVectorManager* %this, %"struct.cIndexedFileOutputVectorManager::sVector"* %vp) unnamed_addr #0 align 2 !dbg !4365 {
entry:
  %this.addr = alloca %class.cIndexedFileOutputVectorManager*, align 8
  %vp.addr = alloca %"struct.cIndexedFileOutputVectorManager::sVector"*, align 8
  store %class.cIndexedFileOutputVectorManager* %this, %class.cIndexedFileOutputVectorManager** %this.addr, align 8
  call void @llvm.dbg.declare(metadata %class.cIndexedFileOutputVectorManager** %this.addr, metadata !4366, metadata !DIExpression()), !dbg !4367
  store %"struct.cIndexedFileOutputVectorManager::sVector"* %vp, %"struct.cIndexedFileOutputVectorManager::sVector"** %vp.addr, align 8
  call void @llvm.dbg.declare(metadata %"struct.cIndexedFileOutputVectorManager::sVector"** %vp.addr, metadata !4368, metadata !DIExpression()), !dbg !4369
  %this1 = load %class.cIndexedFileOutputVectorManager*, %class.cIndexedFileOutputVectorManager** %this.addr, align 8
  %0 = bitcast %class.cIndexedFileOutputVectorManager* %this1 to %class.cFileOutputVectorManager*, !dbg !4370
  %f = getelementptr inbounds %class.cFileOutputVectorManager, %class.cFileOutputVectorManager* %0, i32 0, i32 5, !dbg !4370
  %1 = load %struct._IO_FILE*, %struct._IO_FILE** %f, align 8, !dbg !4370
  %tobool = icmp ne %struct._IO_FILE* %1, null, !dbg !4370
  br i1 %tobool, label %if.then, label %if.end3, !dbg !4372

if.then:                                          ; preds = %entry
  %2 = load %"struct.cIndexedFileOutputVectorManager::sVector"*, %"struct.cIndexedFileOutputVectorManager::sVector"** %vp.addr, align 8, !dbg !4373
  %buffer = getelementptr inbounds %"struct.cIndexedFileOutputVectorManager::sVector", %"struct.cIndexedFileOutputVectorManager::sVector"* %2, i32 0, i32 1, !dbg !4376
  %call = call zeroext i1 @_ZNKSt6vectorIN31cIndexedFileOutputVectorManager7sSampleESaIS1_EE5emptyEv(%"class.std::vector.6"* %buffer) #3, !dbg !4377
  br i1 %call, label %if.end, label %if.then2, !dbg !4378

if.then2:                                         ; preds = %if.then
  %3 = load %"struct.cIndexedFileOutputVectorManager::sVector"*, %"struct.cIndexedFileOutputVectorManager::sVector"** %vp.addr, align 8, !dbg !4379
  %4 = bitcast %class.cIndexedFileOutputVectorManager* %this1 to void (%class.cIndexedFileOutputVectorManager*, %"struct.cIndexedFileOutputVectorManager::sVector"*)***, !dbg !4380
  %vtable = load void (%class.cIndexedFileOutputVectorManager*, %"struct.cIndexedFileOutputVectorManager::sVector"*)**, void (%class.cIndexedFileOutputVectorManager*, %"struct.cIndexedFileOutputVectorManager::sVector"*)*** %4, align 8, !dbg !4380
  %vfn = getelementptr inbounds void (%class.cIndexedFileOutputVectorManager*, %"struct.cIndexedFileOutputVectorManager::sVector"*)*, void (%class.cIndexedFileOutputVectorManager*, %"struct.cIndexedFileOutputVectorManager::sVector"*)** %vtable, i64 32, !dbg !4380
  %5 = load void (%class.cIndexedFileOutputVectorManager*, %"struct.cIndexedFileOutputVectorManager::sVector"*)*, void (%class.cIndexedFileOutputVectorManager*, %"struct.cIndexedFileOutputVectorManager::sVector"*)** %vfn, align 8, !dbg !4380
  call void %5(%class.cIndexedFileOutputVectorManager* %this1, %"struct.cIndexedFileOutputVectorManager::sVector"* %3), !dbg !4380
  br label %if.end, !dbg !4380

if.end:                                           ; preds = %if.then2, %if.then
  br label %if.end3, !dbg !4381

if.end3:                                          ; preds = %if.end, %entry
  ret void, !dbg !4382
}

; Function Attrs: noinline nounwind uwtable
define linkonce_odr dso_local zeroext i1 @_ZNKSt6vectorIN31cIndexedFileOutputVectorManager7sSampleESaIS1_EE5emptyEv(%"class.std::vector.6"* %this) #5 comdat align 2 !dbg !4383 {
entry:
  %this.addr = alloca %"class.std::vector.6"*, align 8
  %ref.tmp = alloca %"class.__gnu_cxx::__normal_iterator.28", align 8
  %ref.tmp2 = alloca %"class.__gnu_cxx::__normal_iterator.28", align 8
  store %"class.std::vector.6"* %this, %"class.std::vector.6"** %this.addr, align 8
  call void @llvm.dbg.declare(metadata %"class.std::vector.6"** %this.addr, metadata !4384, metadata !DIExpression()), !dbg !4386
  %this1 = load %"class.std::vector.6"*, %"class.std::vector.6"** %this.addr, align 8
  %call = call %"struct.cIndexedFileOutputVectorManager::sSample"* @_ZNKSt6vectorIN31cIndexedFileOutputVectorManager7sSampleESaIS1_EE5beginEv(%"class.std::vector.6"* %this1) #3, !dbg !4387
  %coerce.dive = getelementptr inbounds %"class.__gnu_cxx::__normal_iterator.28", %"class.__gnu_cxx::__normal_iterator.28"* %ref.tmp, i32 0, i32 0, !dbg !4387
  store %"struct.cIndexedFileOutputVectorManager::sSample"* %call, %"struct.cIndexedFileOutputVectorManager::sSample"** %coerce.dive, align 8, !dbg !4387
  %call3 = call %"struct.cIndexedFileOutputVectorManager::sSample"* @_ZNKSt6vectorIN31cIndexedFileOutputVectorManager7sSampleESaIS1_EE3endEv(%"class.std::vector.6"* %this1) #3, !dbg !4388
  %coerce.dive4 = getelementptr inbounds %"class.__gnu_cxx::__normal_iterator.28", %"class.__gnu_cxx::__normal_iterator.28"* %ref.tmp2, i32 0, i32 0, !dbg !4388
  store %"struct.cIndexedFileOutputVectorManager::sSample"* %call3, %"struct.cIndexedFileOutputVectorManager::sSample"** %coerce.dive4, align 8, !dbg !4388
  %call5 = call zeroext i1 @_ZN9__gnu_cxxeqIPKN31cIndexedFileOutputVectorManager7sSampleESt6vectorIS2_SaIS2_EEEEbRKNS_17__normal_iteratorIT_T0_EESD_(%"class.__gnu_cxx::__normal_iterator.28"* dereferenceable(8) %ref.tmp, %"class.__gnu_cxx::__normal_iterator.28"* dereferenceable(8) %ref.tmp2) #3, !dbg !4389
  ret i1 %call5, !dbg !4390
}

; Function Attrs: noinline uwtable
define dso_local zeroext i1 @_ZN31cIndexedFileOutputVectorManager6recordEPv7SimTimed(%class.cIndexedFileOutputVectorManager* %this, i8* %vectorhandle, %class.SimTime* %t, double %value) unnamed_addr #0 align 2 !dbg !4391 {
entry:
  %retval = alloca i1, align 1
  %this.addr = alloca %class.cIndexedFileOutputVectorManager*, align 8
  %vectorhandle.addr = alloca i8*, align 8
  %value.addr = alloca double, align 8
  %vp = alloca %"struct.cIndexedFileOutputVectorManager::sVector"*, align 8
  %agg.tmp = alloca %class.SimTime, align 8
  %currentBlock = alloca %"struct.cIndexedFileOutputVectorManager::sBlock"*, align 8
  %eventNumber = alloca i64, align 8
  %ref.tmp = alloca %"struct.cIndexedFileOutputVectorManager::sSample", align 8
  %agg.tmp19 = alloca %class.SimTime, align 8
  store %class.cIndexedFileOutputVectorManager* %this, %class.cIndexedFileOutputVectorManager** %this.addr, align 8
  call void @llvm.dbg.declare(metadata %class.cIndexedFileOutputVectorManager** %this.addr, metadata !4392, metadata !DIExpression()), !dbg !4393
  store i8* %vectorhandle, i8** %vectorhandle.addr, align 8
  call void @llvm.dbg.declare(metadata i8** %vectorhandle.addr, metadata !4394, metadata !DIExpression()), !dbg !4395
  call void @llvm.dbg.declare(metadata %class.SimTime* %t, metadata !4396, metadata !DIExpression()), !dbg !4397
  store double %value, double* %value.addr, align 8
  call void @llvm.dbg.declare(metadata double* %value.addr, metadata !4398, metadata !DIExpression()), !dbg !4399
  %this1 = load %class.cIndexedFileOutputVectorManager*, %class.cIndexedFileOutputVectorManager** %this.addr, align 8
  call void @llvm.dbg.declare(metadata %"struct.cIndexedFileOutputVectorManager::sVector"** %vp, metadata !4400, metadata !DIExpression()), !dbg !4401
  %0 = load i8*, i8** %vectorhandle.addr, align 8, !dbg !4402
  %1 = bitcast i8* %0 to %"struct.cIndexedFileOutputVectorManager::sVector"*, !dbg !4403
  store %"struct.cIndexedFileOutputVectorManager::sVector"* %1, %"struct.cIndexedFileOutputVectorManager::sVector"** %vp, align 8, !dbg !4401
  %2 = load %"struct.cIndexedFileOutputVectorManager::sVector"*, %"struct.cIndexedFileOutputVectorManager::sVector"** %vp, align 8, !dbg !4404
  %3 = bitcast %"struct.cIndexedFileOutputVectorManager::sVector"* %2 to %"struct.cFileOutputVectorManager::sVectorData"*, !dbg !4406
  %enabled = getelementptr inbounds %"struct.cFileOutputVectorManager::sVectorData", %"struct.cFileOutputVectorManager::sVectorData"* %3, i32 0, i32 5, !dbg !4406
  %4 = load i8, i8* %enabled, align 1, !dbg !4406
  %tobool = trunc i8 %4 to i1, !dbg !4406
  br i1 %tobool, label %if.end, label %if.then, !dbg !4407

if.then:                                          ; preds = %entry
  store i1 false, i1* %retval, align 1, !dbg !4408
  br label %return, !dbg !4408

if.end:                                           ; preds = %entry
  %5 = load %"struct.cIndexedFileOutputVectorManager::sVector"*, %"struct.cIndexedFileOutputVectorManager::sVector"** %vp, align 8, !dbg !4409
  %6 = bitcast %"struct.cIndexedFileOutputVectorManager::sVector"* %5 to %"struct.cFileOutputVectorManager::sVectorData"*, !dbg !4411
  %intervals = getelementptr inbounds %"struct.cFileOutputVectorManager::sVectorData", %"struct.cFileOutputVectorManager::sVectorData"* %6, i32 0, i32 7, !dbg !4411
  call void @_ZN7SimTimeC2ERKS_(%class.SimTime* %agg.tmp, %class.SimTime* dereferenceable(8) %t), !dbg !4412
  %call = call zeroext i1 @_ZN9Intervals8containsE7SimTime(%class.Intervals* %intervals, %class.SimTime* %agg.tmp), !dbg !4413
  br i1 %call, label %if.then2, label %if.end37, !dbg !4414

if.then2:                                         ; preds = %if.end
  %7 = load %"struct.cIndexedFileOutputVectorManager::sVector"*, %"struct.cIndexedFileOutputVectorManager::sVector"** %vp, align 8, !dbg !4415
  %8 = bitcast %"struct.cIndexedFileOutputVectorManager::sVector"* %7 to %"struct.cFileOutputVectorManager::sVectorData"*, !dbg !4418
  %initialized = getelementptr inbounds %"struct.cFileOutputVectorManager::sVectorData", %"struct.cFileOutputVectorManager::sVectorData"* %8, i32 0, i32 4, !dbg !4418
  %9 = load i8, i8* %initialized, align 8, !dbg !4418
  %tobool3 = trunc i8 %9 to i1, !dbg !4418
  br i1 %tobool3, label %if.end5, label %if.then4, !dbg !4419

if.then4:                                         ; preds = %if.then2
  %10 = load %"struct.cIndexedFileOutputVectorManager::sVector"*, %"struct.cIndexedFileOutputVectorManager::sVector"** %vp, align 8, !dbg !4420
  %11 = bitcast %"struct.cIndexedFileOutputVectorManager::sVector"* %10 to %"struct.cFileOutputVectorManager::sVectorData"*, !dbg !4420
  %12 = bitcast %class.cIndexedFileOutputVectorManager* %this1 to void (%class.cIndexedFileOutputVectorManager*, %"struct.cFileOutputVectorManager::sVectorData"*)***, !dbg !4421
  %vtable = load void (%class.cIndexedFileOutputVectorManager*, %"struct.cFileOutputVectorManager::sVectorData"*)**, void (%class.cIndexedFileOutputVectorManager*, %"struct.cFileOutputVectorManager::sVectorData"*)*** %12, align 8, !dbg !4421
  %vfn = getelementptr inbounds void (%class.cIndexedFileOutputVectorManager*, %"struct.cFileOutputVectorManager::sVectorData"*)*, void (%class.cIndexedFileOutputVectorManager*, %"struct.cFileOutputVectorManager::sVectorData"*)** %vtable, i64 27, !dbg !4421
  %13 = load void (%class.cIndexedFileOutputVectorManager*, %"struct.cFileOutputVectorManager::sVectorData"*)*, void (%class.cIndexedFileOutputVectorManager*, %"struct.cFileOutputVectorManager::sVectorData"*)** %vfn, align 8, !dbg !4421
  call void %13(%class.cIndexedFileOutputVectorManager* %this1, %"struct.cFileOutputVectorManager::sVectorData"* %11), !dbg !4421
  br label %if.end5, !dbg !4421

if.end5:                                          ; preds = %if.then4, %if.then2
  call void @llvm.dbg.declare(metadata %"struct.cIndexedFileOutputVectorManager::sBlock"** %currentBlock, metadata !4422, metadata !DIExpression()), !dbg !4424
  %14 = load %"struct.cIndexedFileOutputVectorManager::sVector"*, %"struct.cIndexedFileOutputVectorManager::sVector"** %vp, align 8, !dbg !4425
  %currentBlock6 = getelementptr inbounds %"struct.cIndexedFileOutputVectorManager::sVector", %"struct.cIndexedFileOutputVectorManager::sVector"* %14, i32 0, i32 3, !dbg !4426
  store %"struct.cIndexedFileOutputVectorManager::sBlock"* %currentBlock6, %"struct.cIndexedFileOutputVectorManager::sBlock"** %currentBlock, align 8, !dbg !4424
  call void @llvm.dbg.declare(metadata i64* %eventNumber, metadata !4427, metadata !DIExpression()), !dbg !4428
  %call7 = call %class.cSimulation* @_ZN11cSimulation19getActiveSimulationEv(), !dbg !4429
  %call8 = call i64 @_ZNK11cSimulation14getEventNumberEv(%class.cSimulation* %call7), !dbg !4430
  store i64 %call8, i64* %eventNumber, align 8, !dbg !4428
  %15 = load %"struct.cIndexedFileOutputVectorManager::sBlock"*, %"struct.cIndexedFileOutputVectorManager::sBlock"** %currentBlock, align 8, !dbg !4431
  %count = getelementptr inbounds %"struct.cIndexedFileOutputVectorManager::sBlock", %"struct.cIndexedFileOutputVectorManager::sBlock"* %15, i32 0, i32 6, !dbg !4433
  %16 = load i64, i64* %count, align 8, !dbg !4433
  %cmp = icmp eq i64 %16, 0, !dbg !4434
  br i1 %cmp, label %if.then9, label %if.end11, !dbg !4435

if.then9:                                         ; preds = %if.end5
  %17 = load %"struct.cIndexedFileOutputVectorManager::sBlock"*, %"struct.cIndexedFileOutputVectorManager::sBlock"** %currentBlock, align 8, !dbg !4436
  %startTime = getelementptr inbounds %"struct.cIndexedFileOutputVectorManager::sBlock", %"struct.cIndexedFileOutputVectorManager::sBlock"* %17, i32 0, i32 4, !dbg !4438
  %call10 = call dereferenceable(8) %class.SimTime* @_ZN7SimTimeaSERKS_(%class.SimTime* %startTime, %class.SimTime* dereferenceable(8) %t), !dbg !4439
  %18 = load i64, i64* %eventNumber, align 8, !dbg !4440
  %19 = load %"struct.cIndexedFileOutputVectorManager::sBlock"*, %"struct.cIndexedFileOutputVectorManager::sBlock"** %currentBlock, align 8, !dbg !4441
  %startEventNum = getelementptr inbounds %"struct.cIndexedFileOutputVectorManager::sBlock", %"struct.cIndexedFileOutputVectorManager::sBlock"* %19, i32 0, i32 2, !dbg !4442
  store i64 %18, i64* %startEventNum, align 8, !dbg !4443
  br label %if.end11, !dbg !4444

if.end11:                                         ; preds = %if.then9, %if.end5
  %20 = load %"struct.cIndexedFileOutputVectorManager::sBlock"*, %"struct.cIndexedFileOutputVectorManager::sBlock"** %currentBlock, align 8, !dbg !4445
  %endTime = getelementptr inbounds %"struct.cIndexedFileOutputVectorManager::sBlock", %"struct.cIndexedFileOutputVectorManager::sBlock"* %20, i32 0, i32 5, !dbg !4446
  %call12 = call dereferenceable(8) %class.SimTime* @_ZN7SimTimeaSERKS_(%class.SimTime* %endTime, %class.SimTime* dereferenceable(8) %t), !dbg !4447
  %21 = load i64, i64* %eventNumber, align 8, !dbg !4448
  %22 = load %"struct.cIndexedFileOutputVectorManager::sBlock"*, %"struct.cIndexedFileOutputVectorManager::sBlock"** %currentBlock, align 8, !dbg !4449
  %endEventNum = getelementptr inbounds %"struct.cIndexedFileOutputVectorManager::sBlock", %"struct.cIndexedFileOutputVectorManager::sBlock"* %22, i32 0, i32 3, !dbg !4450
  store i64 %21, i64* %endEventNum, align 8, !dbg !4451
  %23 = load %"struct.cIndexedFileOutputVectorManager::sBlock"*, %"struct.cIndexedFileOutputVectorManager::sBlock"** %currentBlock, align 8, !dbg !4452
  %count13 = getelementptr inbounds %"struct.cIndexedFileOutputVectorManager::sBlock", %"struct.cIndexedFileOutputVectorManager::sBlock"* %23, i32 0, i32 6, !dbg !4453
  %24 = load i64, i64* %count13, align 8, !dbg !4454
  %inc = add nsw i64 %24, 1, !dbg !4454
  store i64 %inc, i64* %count13, align 8, !dbg !4454
  %25 = load %"struct.cIndexedFileOutputVectorManager::sBlock"*, %"struct.cIndexedFileOutputVectorManager::sBlock"** %currentBlock, align 8, !dbg !4455
  %min = getelementptr inbounds %"struct.cIndexedFileOutputVectorManager::sBlock", %"struct.cIndexedFileOutputVectorManager::sBlock"* %25, i32 0, i32 7, !dbg !4456
  %call14 = call dereferenceable(8) double* @_ZSt3minIdERKT_S2_S2_(double* dereferenceable(8) %min, double* dereferenceable(8) %value.addr), !dbg !4457
  %26 = load double, double* %call14, align 8, !dbg !4457
  %27 = load %"struct.cIndexedFileOutputVectorManager::sBlock"*, %"struct.cIndexedFileOutputVectorManager::sBlock"** %currentBlock, align 8, !dbg !4458
  %min15 = getelementptr inbounds %"struct.cIndexedFileOutputVectorManager::sBlock", %"struct.cIndexedFileOutputVectorManager::sBlock"* %27, i32 0, i32 7, !dbg !4459
  store double %26, double* %min15, align 8, !dbg !4460
  %28 = load %"struct.cIndexedFileOutputVectorManager::sBlock"*, %"struct.cIndexedFileOutputVectorManager::sBlock"** %currentBlock, align 8, !dbg !4461
  %max = getelementptr inbounds %"struct.cIndexedFileOutputVectorManager::sBlock", %"struct.cIndexedFileOutputVectorManager::sBlock"* %28, i32 0, i32 8, !dbg !4462
  %call16 = call dereferenceable(8) double* @_ZSt3maxIdERKT_S2_S2_(double* dereferenceable(8) %max, double* dereferenceable(8) %value.addr), !dbg !4463
  %29 = load double, double* %call16, align 8, !dbg !4463
  %30 = load %"struct.cIndexedFileOutputVectorManager::sBlock"*, %"struct.cIndexedFileOutputVectorManager::sBlock"** %currentBlock, align 8, !dbg !4464
  %max17 = getelementptr inbounds %"struct.cIndexedFileOutputVectorManager::sBlock", %"struct.cIndexedFileOutputVectorManager::sBlock"* %30, i32 0, i32 8, !dbg !4465
  store double %29, double* %max17, align 8, !dbg !4466
  %31 = load double, double* %value.addr, align 8, !dbg !4467
  %32 = load %"struct.cIndexedFileOutputVectorManager::sBlock"*, %"struct.cIndexedFileOutputVectorManager::sBlock"** %currentBlock, align 8, !dbg !4468
  %sum = getelementptr inbounds %"struct.cIndexedFileOutputVectorManager::sBlock", %"struct.cIndexedFileOutputVectorManager::sBlock"* %32, i32 0, i32 9, !dbg !4469
  %33 = load double, double* %sum, align 8, !dbg !4470
  %add = fadd double %33, %31, !dbg !4470
  store double %add, double* %sum, align 8, !dbg !4470
  %34 = load double, double* %value.addr, align 8, !dbg !4471
  %35 = load double, double* %value.addr, align 8, !dbg !4472
  %mul = fmul double %34, %35, !dbg !4473
  %36 = load %"struct.cIndexedFileOutputVectorManager::sBlock"*, %"struct.cIndexedFileOutputVectorManager::sBlock"** %currentBlock, align 8, !dbg !4474
  %sumSqr = getelementptr inbounds %"struct.cIndexedFileOutputVectorManager::sBlock", %"struct.cIndexedFileOutputVectorManager::sBlock"* %36, i32 0, i32 10, !dbg !4475
  %37 = load double, double* %sumSqr, align 8, !dbg !4476
  %add18 = fadd double %37, %mul, !dbg !4476
  store double %add18, double* %sumSqr, align 8, !dbg !4476
  %38 = load %"struct.cIndexedFileOutputVectorManager::sVector"*, %"struct.cIndexedFileOutputVectorManager::sVector"** %vp, align 8, !dbg !4477
  %buffer = getelementptr inbounds %"struct.cIndexedFileOutputVectorManager::sVector", %"struct.cIndexedFileOutputVectorManager::sVector"* %38, i32 0, i32 1, !dbg !4478
  call void @_ZN7SimTimeC2ERKS_(%class.SimTime* %agg.tmp19, %class.SimTime* dereferenceable(8) %t), !dbg !4479
  %39 = load i64, i64* %eventNumber, align 8, !dbg !4480
  %40 = load double, double* %value.addr, align 8, !dbg !4481
  call void @_ZN31cIndexedFileOutputVectorManager7sSampleC2E7SimTimeld(%"struct.cIndexedFileOutputVectorManager::sSample"* %ref.tmp, %class.SimTime* %agg.tmp19, i64 %39, double %40), !dbg !4482
  call void @_ZNSt6vectorIN31cIndexedFileOutputVectorManager7sSampleESaIS1_EE9push_backEOS1_(%"class.std::vector.6"* %buffer, %"struct.cIndexedFileOutputVectorManager::sSample"* dereferenceable(24) %ref.tmp), !dbg !4483
  %memoryUsed = getelementptr inbounds %class.cIndexedFileOutputVectorManager, %class.cIndexedFileOutputVectorManager* %this1, i32 0, i32 4, !dbg !4484
  %41 = load i64, i64* %memoryUsed, align 8, !dbg !4485
  %add20 = add i64 %41, 24, !dbg !4485
  store i64 %add20, i64* %memoryUsed, align 8, !dbg !4485
  %42 = load %"struct.cIndexedFileOutputVectorManager::sVector"*, %"struct.cIndexedFileOutputVectorManager::sVector"** %vp, align 8, !dbg !4486
  %maxBufferedSamples = getelementptr inbounds %"struct.cIndexedFileOutputVectorManager::sVector", %"struct.cIndexedFileOutputVectorManager::sVector"* %42, i32 0, i32 2, !dbg !4488
  %43 = load i64, i64* %maxBufferedSamples, align 8, !dbg !4488
  %cmp21 = icmp sgt i64 %43, 0, !dbg !4489
  br i1 %cmp21, label %land.lhs.true, label %if.else, !dbg !4490

land.lhs.true:                                    ; preds = %if.end11
  %44 = load %"struct.cIndexedFileOutputVectorManager::sVector"*, %"struct.cIndexedFileOutputVectorManager::sVector"** %vp, align 8, !dbg !4491
  %buffer22 = getelementptr inbounds %"struct.cIndexedFileOutputVectorManager::sVector", %"struct.cIndexedFileOutputVectorManager::sVector"* %44, i32 0, i32 1, !dbg !4492
  %call23 = call i64 @_ZNKSt6vectorIN31cIndexedFileOutputVectorManager7sSampleESaIS1_EE4sizeEv(%"class.std::vector.6"* %buffer22) #3, !dbg !4493
  %conv = trunc i64 %call23 to i32, !dbg !4491
  %conv24 = sext i32 %conv to i64, !dbg !4494
  %45 = load %"struct.cIndexedFileOutputVectorManager::sVector"*, %"struct.cIndexedFileOutputVectorManager::sVector"** %vp, align 8, !dbg !4495
  %maxBufferedSamples25 = getelementptr inbounds %"struct.cIndexedFileOutputVectorManager::sVector", %"struct.cIndexedFileOutputVectorManager::sVector"* %45, i32 0, i32 2, !dbg !4496
  %46 = load i64, i64* %maxBufferedSamples25, align 8, !dbg !4496
  %cmp26 = icmp sge i64 %conv24, %46, !dbg !4497
  br i1 %cmp26, label %if.then27, label %if.else, !dbg !4498

if.then27:                                        ; preds = %land.lhs.true
  %47 = load %"struct.cIndexedFileOutputVectorManager::sVector"*, %"struct.cIndexedFileOutputVectorManager::sVector"** %vp, align 8, !dbg !4499
  %48 = bitcast %class.cIndexedFileOutputVectorManager* %this1 to void (%class.cIndexedFileOutputVectorManager*, %"struct.cIndexedFileOutputVectorManager::sVector"*)***, !dbg !4500
  %vtable28 = load void (%class.cIndexedFileOutputVectorManager*, %"struct.cIndexedFileOutputVectorManager::sVector"*)**, void (%class.cIndexedFileOutputVectorManager*, %"struct.cIndexedFileOutputVectorManager::sVector"*)*** %48, align 8, !dbg !4500
  %vfn29 = getelementptr inbounds void (%class.cIndexedFileOutputVectorManager*, %"struct.cIndexedFileOutputVectorManager::sVector"*)*, void (%class.cIndexedFileOutputVectorManager*, %"struct.cIndexedFileOutputVectorManager::sVector"*)** %vtable28, i64 32, !dbg !4500
  %49 = load void (%class.cIndexedFileOutputVectorManager*, %"struct.cIndexedFileOutputVectorManager::sVector"*)*, void (%class.cIndexedFileOutputVectorManager*, %"struct.cIndexedFileOutputVectorManager::sVector"*)** %vfn29, align 8, !dbg !4500
  call void %49(%class.cIndexedFileOutputVectorManager* %this1, %"struct.cIndexedFileOutputVectorManager::sVector"* %47), !dbg !4500
  br label %if.end36, !dbg !4500

if.else:                                          ; preds = %land.lhs.true, %if.end11
  %memoryUsed30 = getelementptr inbounds %class.cIndexedFileOutputVectorManager, %class.cIndexedFileOutputVectorManager* %this1, i32 0, i32 4, !dbg !4501
  %50 = load i64, i64* %memoryUsed30, align 8, !dbg !4501
  %maxMemoryUsed = getelementptr inbounds %class.cIndexedFileOutputVectorManager, %class.cIndexedFileOutputVectorManager* %this1, i32 0, i32 3, !dbg !4503
  %51 = load i64, i64* %maxMemoryUsed, align 8, !dbg !4503
  %cmp31 = icmp uge i64 %50, %51, !dbg !4504
  br i1 %cmp31, label %if.then32, label %if.end35, !dbg !4505

if.then32:                                        ; preds = %if.else
  %52 = bitcast %class.cIndexedFileOutputVectorManager* %this1 to void (%class.cIndexedFileOutputVectorManager*)***, !dbg !4506
  %vtable33 = load void (%class.cIndexedFileOutputVectorManager*)**, void (%class.cIndexedFileOutputVectorManager*)*** %52, align 8, !dbg !4506
  %vfn34 = getelementptr inbounds void (%class.cIndexedFileOutputVectorManager*)*, void (%class.cIndexedFileOutputVectorManager*)** %vtable33, i64 31, !dbg !4506
  %53 = load void (%class.cIndexedFileOutputVectorManager*)*, void (%class.cIndexedFileOutputVectorManager*)** %vfn34, align 8, !dbg !4506
  call void %53(%class.cIndexedFileOutputVectorManager* %this1), !dbg !4506
  br label %if.end35, !dbg !4506

if.end35:                                         ; preds = %if.then32, %if.else
  br label %if.end36

if.end36:                                         ; preds = %if.end35, %if.then27
  store i1 true, i1* %retval, align 1, !dbg !4507
  br label %return, !dbg !4507

if.end37:                                         ; preds = %if.end
  store i1 false, i1* %retval, align 1, !dbg !4508
  br label %return, !dbg !4508

return:                                           ; preds = %if.end37, %if.end36, %if.then
  %54 = load i1, i1* %retval, align 1, !dbg !4509
  ret i1 %54, !dbg !4509
}

declare dso_local zeroext i1 @_ZN9Intervals8containsE7SimTime(%class.Intervals*, %class.SimTime*) #1

; Function Attrs: noinline uwtable
define linkonce_odr dso_local void @_ZN7SimTimeC2ERKS_(%class.SimTime* %this, %class.SimTime* dereferenceable(8) %x) unnamed_addr #0 comdat align 2 !dbg !4510 {
entry:
  %this.addr = alloca %class.SimTime*, align 8
  %x.addr = alloca %class.SimTime*, align 8
  store %class.SimTime* %this, %class.SimTime** %this.addr, align 8
  call void @llvm.dbg.declare(metadata %class.SimTime** %this.addr, metadata !4511, metadata !DIExpression()), !dbg !4513
  store %class.SimTime* %x, %class.SimTime** %x.addr, align 8
  call void @llvm.dbg.declare(metadata %class.SimTime** %x.addr, metadata !4514, metadata !DIExpression()), !dbg !4515
  %this1 = load %class.SimTime*, %class.SimTime** %this.addr, align 8
  %0 = load %class.SimTime*, %class.SimTime** %x.addr, align 8, !dbg !4516
  %call = call dereferenceable(8) %class.SimTime* @_ZN7SimTimeaSERKS_(%class.SimTime* %this1, %class.SimTime* dereferenceable(8) %0), !dbg !4518
  ret void, !dbg !4519
}

; Function Attrs: noinline nounwind uwtable
define linkonce_odr dso_local %class.cSimulation* @_ZN11cSimulation19getActiveSimulationEv() #5 comdat align 2 !dbg !4520 {
entry:
  %0 = load %class.cSimulation*, %class.cSimulation** @_ZN11cSimulation6simPtrE, align 8, !dbg !4525
  ret %class.cSimulation* %0, !dbg !4526
}

; Function Attrs: noinline nounwind uwtable
define linkonce_odr dso_local i64 @_ZNK11cSimulation14getEventNumberEv(%class.cSimulation* %this) #5 comdat align 2 !dbg !4527 {
entry:
  %this.addr = alloca %class.cSimulation*, align 8
  store %class.cSimulation* %this, %class.cSimulation** %this.addr, align 8
  call void @llvm.dbg.declare(metadata %class.cSimulation** %this.addr, metadata !4533, metadata !DIExpression()), !dbg !4535
  %this1 = load %class.cSimulation*, %class.cSimulation** %this.addr, align 8
  %event_num = getelementptr inbounds %class.cSimulation, %class.cSimulation* %this1, i32 0, i32 13, !dbg !4536
  %0 = load i64, i64* %event_num, align 8, !dbg !4536
  ret i64 %0, !dbg !4537
}

; Function Attrs: noinline nounwind uwtable
define linkonce_odr dso_local dereferenceable(8) %class.SimTime* @_ZN7SimTimeaSERKS_(%class.SimTime* %this, %class.SimTime* dereferenceable(8) %x) #5 comdat align 2 !dbg !4538 {
entry:
  %this.addr = alloca %class.SimTime*, align 8
  %x.addr = alloca %class.SimTime*, align 8
  store %class.SimTime* %this, %class.SimTime** %this.addr, align 8
  call void @llvm.dbg.declare(metadata %class.SimTime** %this.addr, metadata !4539, metadata !DIExpression()), !dbg !4540
  store %class.SimTime* %x, %class.SimTime** %x.addr, align 8
  call void @llvm.dbg.declare(metadata %class.SimTime** %x.addr, metadata !4541, metadata !DIExpression()), !dbg !4542
  %this1 = load %class.SimTime*, %class.SimTime** %this.addr, align 8
  %0 = load %class.SimTime*, %class.SimTime** %x.addr, align 8, !dbg !4543
  %t = getelementptr inbounds %class.SimTime, %class.SimTime* %0, i32 0, i32 0, !dbg !4544
  %1 = load i64, i64* %t, align 8, !dbg !4544
  %t2 = getelementptr inbounds %class.SimTime, %class.SimTime* %this1, i32 0, i32 0, !dbg !4545
  store i64 %1, i64* %t2, align 8, !dbg !4546
  ret %class.SimTime* %this1, !dbg !4547
}

; Function Attrs: noinline nounwind uwtable
define linkonce_odr dso_local dereferenceable(8) double* @_ZSt3minIdERKT_S2_S2_(double* dereferenceable(8) %__a, double* dereferenceable(8) %__b) #5 comdat !dbg !4548 {
entry:
  %retval = alloca double*, align 8
  %__a.addr = alloca double*, align 8
  %__b.addr = alloca double*, align 8
  store double* %__a, double** %__a.addr, align 8
  call void @llvm.dbg.declare(metadata double** %__a.addr, metadata !4555, metadata !DIExpression()), !dbg !4556
  store double* %__b, double** %__b.addr, align 8
  call void @llvm.dbg.declare(metadata double** %__b.addr, metadata !4557, metadata !DIExpression()), !dbg !4558
  %0 = load double*, double** %__b.addr, align 8, !dbg !4559
  %1 = load double, double* %0, align 8, !dbg !4559
  %2 = load double*, double** %__a.addr, align 8, !dbg !4561
  %3 = load double, double* %2, align 8, !dbg !4561
  %cmp = fcmp olt double %1, %3, !dbg !4562
  br i1 %cmp, label %if.then, label %if.end, !dbg !4563

if.then:                                          ; preds = %entry
  %4 = load double*, double** %__b.addr, align 8, !dbg !4564
  store double* %4, double** %retval, align 8, !dbg !4565
  br label %return, !dbg !4565

if.end:                                           ; preds = %entry
  %5 = load double*, double** %__a.addr, align 8, !dbg !4566
  store double* %5, double** %retval, align 8, !dbg !4567
  br label %return, !dbg !4567

return:                                           ; preds = %if.end, %if.then
  %6 = load double*, double** %retval, align 8, !dbg !4568
  ret double* %6, !dbg !4568
}

; Function Attrs: noinline nounwind uwtable
define linkonce_odr dso_local dereferenceable(8) double* @_ZSt3maxIdERKT_S2_S2_(double* dereferenceable(8) %__a, double* dereferenceable(8) %__b) #5 comdat !dbg !4569 {
entry:
  %retval = alloca double*, align 8
  %__a.addr = alloca double*, align 8
  %__b.addr = alloca double*, align 8
  store double* %__a, double** %__a.addr, align 8
  call void @llvm.dbg.declare(metadata double** %__a.addr, metadata !4570, metadata !DIExpression()), !dbg !4571
  store double* %__b, double** %__b.addr, align 8
  call void @llvm.dbg.declare(metadata double** %__b.addr, metadata !4572, metadata !DIExpression()), !dbg !4573
  %0 = load double*, double** %__a.addr, align 8, !dbg !4574
  %1 = load double, double* %0, align 8, !dbg !4574
  %2 = load double*, double** %__b.addr, align 8, !dbg !4576
  %3 = load double, double* %2, align 8, !dbg !4576
  %cmp = fcmp olt double %1, %3, !dbg !4577
  br i1 %cmp, label %if.then, label %if.end, !dbg !4578

if.then:                                          ; preds = %entry
  %4 = load double*, double** %__b.addr, align 8, !dbg !4579
  store double* %4, double** %retval, align 8, !dbg !4580
  br label %return, !dbg !4580

if.end:                                           ; preds = %entry
  %5 = load double*, double** %__a.addr, align 8, !dbg !4581
  store double* %5, double** %retval, align 8, !dbg !4582
  br label %return, !dbg !4582

return:                                           ; preds = %if.end, %if.then
  %6 = load double*, double** %retval, align 8, !dbg !4583
  ret double* %6, !dbg !4583
}

; Function Attrs: noinline uwtable
define linkonce_odr dso_local void @_ZNSt6vectorIN31cIndexedFileOutputVectorManager7sSampleESaIS1_EE9push_backEOS1_(%"class.std::vector.6"* %this, %"struct.cIndexedFileOutputVectorManager::sSample"* dereferenceable(24) %__x) #0 comdat align 2 !dbg !4584 {
entry:
  %this.addr = alloca %"class.std::vector.6"*, align 8
  %__x.addr = alloca %"struct.cIndexedFileOutputVectorManager::sSample"*, align 8
  store %"class.std::vector.6"* %this, %"class.std::vector.6"** %this.addr, align 8
  call void @llvm.dbg.declare(metadata %"class.std::vector.6"** %this.addr, metadata !4585, metadata !DIExpression()), !dbg !4587
  store %"struct.cIndexedFileOutputVectorManager::sSample"* %__x, %"struct.cIndexedFileOutputVectorManager::sSample"** %__x.addr, align 8
  call void @llvm.dbg.declare(metadata %"struct.cIndexedFileOutputVectorManager::sSample"** %__x.addr, metadata !4588, metadata !DIExpression()), !dbg !4589
  %this1 = load %"class.std::vector.6"*, %"class.std::vector.6"** %this.addr, align 8
  %0 = load %"struct.cIndexedFileOutputVectorManager::sSample"*, %"struct.cIndexedFileOutputVectorManager::sSample"** %__x.addr, align 8, !dbg !4590
  %call = call dereferenceable(24) %"struct.cIndexedFileOutputVectorManager::sSample"* @_ZSt4moveIRN31cIndexedFileOutputVectorManager7sSampleEEONSt16remove_referenceIT_E4typeEOS4_(%"struct.cIndexedFileOutputVectorManager::sSample"* dereferenceable(24) %0) #3, !dbg !4591
  call void @_ZNSt6vectorIN31cIndexedFileOutputVectorManager7sSampleESaIS1_EE12emplace_backIJS1_EEEvDpOT_(%"class.std::vector.6"* %this1, %"struct.cIndexedFileOutputVectorManager::sSample"* dereferenceable(24) %call), !dbg !4592
  ret void, !dbg !4593
}

; Function Attrs: noinline uwtable
define linkonce_odr dso_local void @_ZN31cIndexedFileOutputVectorManager7sSampleC2E7SimTimeld(%"struct.cIndexedFileOutputVectorManager::sSample"* %this, %class.SimTime* %t, i64 %eventNumber, double %val) unnamed_addr #0 comdat align 2 !dbg !4594 {
entry:
  %this.addr = alloca %"struct.cIndexedFileOutputVectorManager::sSample"*, align 8
  %eventNumber.addr = alloca i64, align 8
  %val.addr = alloca double, align 8
  store %"struct.cIndexedFileOutputVectorManager::sSample"* %this, %"struct.cIndexedFileOutputVectorManager::sSample"** %this.addr, align 8
  call void @llvm.dbg.declare(metadata %"struct.cIndexedFileOutputVectorManager::sSample"** %this.addr, metadata !4595, metadata !DIExpression()), !dbg !4596
  call void @llvm.dbg.declare(metadata %class.SimTime* %t, metadata !4597, metadata !DIExpression()), !dbg !4598
  store i64 %eventNumber, i64* %eventNumber.addr, align 8
  call void @llvm.dbg.declare(metadata i64* %eventNumber.addr, metadata !4599, metadata !DIExpression()), !dbg !4600
  store double %val, double* %val.addr, align 8
  call void @llvm.dbg.declare(metadata double* %val.addr, metadata !4601, metadata !DIExpression()), !dbg !4602
  %this1 = load %"struct.cIndexedFileOutputVectorManager::sSample"*, %"struct.cIndexedFileOutputVectorManager::sSample"** %this.addr, align 8
  %simtime = getelementptr inbounds %"struct.cIndexedFileOutputVectorManager::sSample", %"struct.cIndexedFileOutputVectorManager::sSample"* %this1, i32 0, i32 0, !dbg !4603
  call void @_ZN7SimTimeC2ERKS_(%class.SimTime* %simtime, %class.SimTime* dereferenceable(8) %t), !dbg !4603
  %eventNumber2 = getelementptr inbounds %"struct.cIndexedFileOutputVectorManager::sSample", %"struct.cIndexedFileOutputVectorManager::sSample"* %this1, i32 0, i32 1, !dbg !4604
  %0 = load i64, i64* %eventNumber.addr, align 8, !dbg !4605
  store i64 %0, i64* %eventNumber2, align 8, !dbg !4604
  %value = getelementptr inbounds %"struct.cIndexedFileOutputVectorManager::sSample", %"struct.cIndexedFileOutputVectorManager::sSample"* %this1, i32 0, i32 2, !dbg !4606
  %1 = load double, double* %val.addr, align 8, !dbg !4607
  store double %1, double* %value, align 8, !dbg !4606
  ret void, !dbg !4608
}

; Function Attrs: noinline nounwind uwtable
define linkonce_odr dso_local i64 @_ZNKSt6vectorIN31cIndexedFileOutputVectorManager7sSampleESaIS1_EE4sizeEv(%"class.std::vector.6"* %this) #5 comdat align 2 !dbg !4609 {
entry:
  %this.addr = alloca %"class.std::vector.6"*, align 8
  store %"class.std::vector.6"* %this, %"class.std::vector.6"** %this.addr, align 8
  call void @llvm.dbg.declare(metadata %"class.std::vector.6"** %this.addr, metadata !4610, metadata !DIExpression()), !dbg !4611
  %this1 = load %"class.std::vector.6"*, %"class.std::vector.6"** %this.addr, align 8
  %0 = bitcast %"class.std::vector.6"* %this1 to %"struct.std::_Vector_base.7"*, !dbg !4612
  %_M_impl = getelementptr inbounds %"struct.std::_Vector_base.7", %"struct.std::_Vector_base.7"* %0, i32 0, i32 0, !dbg !4612
  %1 = bitcast %"struct.std::_Vector_base<cIndexedFileOutputVectorManager::sSample, std::allocator<cIndexedFileOutputVectorManager::sSample> >::_Vector_impl"* %_M_impl to %"struct.std::_Vector_base<cIndexedFileOutputVectorManager::sSample, std::allocator<cIndexedFileOutputVectorManager::sSample> >::_Vector_impl_data"*, !dbg !4613
  %_M_finish = getelementptr inbounds %"struct.std::_Vector_base<cIndexedFileOutputVectorManager::sSample, std::allocator<cIndexedFileOutputVectorManager::sSample> >::_Vector_impl_data", %"struct.std::_Vector_base<cIndexedFileOutputVectorManager::sSample, std::allocator<cIndexedFileOutputVectorManager::sSample> >::_Vector_impl_data"* %1, i32 0, i32 1, !dbg !4614
  %2 = load %"struct.cIndexedFileOutputVectorManager::sSample"*, %"struct.cIndexedFileOutputVectorManager::sSample"** %_M_finish, align 8, !dbg !4614
  %3 = bitcast %"class.std::vector.6"* %this1 to %"struct.std::_Vector_base.7"*, !dbg !4615
  %_M_impl2 = getelementptr inbounds %"struct.std::_Vector_base.7", %"struct.std::_Vector_base.7"* %3, i32 0, i32 0, !dbg !4615
  %4 = bitcast %"struct.std::_Vector_base<cIndexedFileOutputVectorManager::sSample, std::allocator<cIndexedFileOutputVectorManager::sSample> >::_Vector_impl"* %_M_impl2 to %"struct.std::_Vector_base<cIndexedFileOutputVectorManager::sSample, std::allocator<cIndexedFileOutputVectorManager::sSample> >::_Vector_impl_data"*, !dbg !4616
  %_M_start = getelementptr inbounds %"struct.std::_Vector_base<cIndexedFileOutputVectorManager::sSample, std::allocator<cIndexedFileOutputVectorManager::sSample> >::_Vector_impl_data", %"struct.std::_Vector_base<cIndexedFileOutputVectorManager::sSample, std::allocator<cIndexedFileOutputVectorManager::sSample> >::_Vector_impl_data"* %4, i32 0, i32 0, !dbg !4617
  %5 = load %"struct.cIndexedFileOutputVectorManager::sSample"*, %"struct.cIndexedFileOutputVectorManager::sSample"** %_M_start, align 8, !dbg !4617
  %sub.ptr.lhs.cast = ptrtoint %"struct.cIndexedFileOutputVectorManager::sSample"* %2 to i64, !dbg !4618
  %sub.ptr.rhs.cast = ptrtoint %"struct.cIndexedFileOutputVectorManager::sSample"* %5 to i64, !dbg !4618
  %sub.ptr.sub = sub i64 %sub.ptr.lhs.cast, %sub.ptr.rhs.cast, !dbg !4618
  %sub.ptr.div = sdiv exact i64 %sub.ptr.sub, 24, !dbg !4618
  ret i64 %sub.ptr.div, !dbg !4619
}

; Function Attrs: noinline uwtable
define dso_local void @_ZN31cIndexedFileOutputVectorManager12writeRunDataEv(%class.cIndexedFileOutputVectorManager* %this) unnamed_addr #0 align 2 personality i8* bitcast (i32 (...)* @__gxx_personality_v0 to i8*) !dbg !4620 {
entry:
  %this.addr = alloca %class.cIndexedFileOutputVectorManager*, align 8
  %exn.slot = alloca i8*
  %ehselector.slot = alloca i32
  %agg.tmp = alloca %class.opp_string, align 8
  store %class.cIndexedFileOutputVectorManager* %this, %class.cIndexedFileOutputVectorManager** %this.addr, align 8
  call void @llvm.dbg.declare(metadata %class.cIndexedFileOutputVectorManager** %this.addr, metadata !4621, metadata !DIExpression()), !dbg !4622
  %this1 = load %class.cIndexedFileOutputVectorManager*, %class.cIndexedFileOutputVectorManager** %this.addr, align 8
  %0 = bitcast %class.cIndexedFileOutputVectorManager* %this1 to %class.cFileOutputVectorManager*, !dbg !4623
  call void @_ZN24cFileOutputVectorManager12writeRunDataEv(%class.cFileOutputVectorManager* %0), !dbg !4623
  %fi = getelementptr inbounds %class.cIndexedFileOutputVectorManager, %class.cIndexedFileOutputVectorManager* %this1, i32 0, i32 2, !dbg !4624
  %1 = load %struct._IO_FILE*, %struct._IO_FILE** %fi, align 8, !dbg !4624
  %tobool = icmp ne %struct._IO_FILE* %1, null, !dbg !4624
  br i1 %tobool, label %if.end6, label %if.then, !dbg !4626

if.then:                                          ; preds = %entry
  call void @_ZN31cIndexedFileOutputVectorManager13openIndexFileEv(%class.cIndexedFileOutputVectorManager* %this1), !dbg !4627
  %fi2 = getelementptr inbounds %class.cIndexedFileOutputVectorManager, %class.cIndexedFileOutputVectorManager* %this1, i32 0, i32 2, !dbg !4629
  %2 = load %struct._IO_FILE*, %struct._IO_FILE** %fi2, align 8, !dbg !4629
  %call = call i32 (%struct._IO_FILE*, i8*, ...) @fprintf(%struct._IO_FILE* %2, i8* getelementptr inbounds ([12 x i8], [12 x i8]* @.str.12, i64 0, i64 0), i32 2), !dbg !4629
  %cmp = icmp slt i32 %call, 0, !dbg !4629
  br i1 %cmp, label %if.then3, label %if.end, !dbg !4631

if.then3:                                         ; preds = %if.then
  %exception = call i8* @__cxa_allocate_exception(i64 128) #3, !dbg !4629
  %3 = bitcast i8* %exception to %class.cRuntimeError*, !dbg !4629
  %ifname = getelementptr inbounds %class.cIndexedFileOutputVectorManager, %class.cIndexedFileOutputVectorManager* %this1, i32 0, i32 1, !dbg !4629
  %call4 = invoke i8* @_ZNK10opp_string5c_strEv(%class.opp_string* %ifname)
          to label %invoke.cont unwind label %lpad, !dbg !4629

invoke.cont:                                      ; preds = %if.then3
  invoke void (%class.cRuntimeError*, i8*, ...) @_ZN13cRuntimeErrorC1EPKcz(%class.cRuntimeError* %3, i8* getelementptr inbounds ([30 x i8], [30 x i8]* @.str.10, i64 0, i64 0), i8* %call4)
          to label %invoke.cont5 unwind label %lpad, !dbg !4629

invoke.cont5:                                     ; preds = %invoke.cont
  call void @__cxa_throw(i8* %exception, i8* bitcast ({ i8*, i8*, i8* }* @_ZTI13cRuntimeError to i8*), i8* bitcast (void (%class.cRuntimeError*)* @_ZN13cRuntimeErrorD2Ev to i8*)) #16, !dbg !4629
  unreachable, !dbg !4629

lpad:                                             ; preds = %invoke.cont, %if.then3
  %4 = landingpad { i8*, i32 }
          cleanup, !dbg !4632
  %5 = extractvalue { i8*, i32 } %4, 0, !dbg !4632
  store i8* %5, i8** %exn.slot, align 8, !dbg !4632
  %6 = extractvalue { i8*, i32 } %4, 1, !dbg !4632
  store i32 %6, i32* %ehselector.slot, align 4, !dbg !4632
  call void @__cxa_free_exception(i8* %exception) #3, !dbg !4629
  br label %eh.resume, !dbg !4629

if.end:                                           ; preds = %if.then
  br label %if.end6, !dbg !4633

if.end6:                                          ; preds = %if.end, %entry
  %7 = bitcast %class.cIndexedFileOutputVectorManager* %this1 to %class.cFileOutputVectorManager*, !dbg !4634
  %run = getelementptr inbounds %class.cFileOutputVectorManager, %class.cFileOutputVectorManager* %7, i32 0, i32 1, !dbg !4634
  %fi7 = getelementptr inbounds %class.cIndexedFileOutputVectorManager, %class.cIndexedFileOutputVectorManager* %this1, i32 0, i32 2, !dbg !4635
  %8 = load %struct._IO_FILE*, %struct._IO_FILE** %fi7, align 8, !dbg !4635
  %ifname8 = getelementptr inbounds %class.cIndexedFileOutputVectorManager, %class.cIndexedFileOutputVectorManager* %this1, i32 0, i32 1, !dbg !4636
  call void @_ZN10opp_stringC2ERKS_(%class.opp_string* %agg.tmp, %class.opp_string* dereferenceable(8) %ifname8), !dbg !4636
  invoke void @_ZN8sRunData12writeRunDataEP8_IO_FILE10opp_string(%struct.sRunData* %run, %struct._IO_FILE* %8, %class.opp_string* %agg.tmp)
          to label %invoke.cont10 unwind label %lpad9, !dbg !4637

invoke.cont10:                                    ; preds = %if.end6
  call void @_ZN10opp_stringD2Ev(%class.opp_string* %agg.tmp) #3, !dbg !4634
  ret void, !dbg !4638

lpad9:                                            ; preds = %if.end6
  %9 = landingpad { i8*, i32 }
          cleanup, !dbg !4638
  %10 = extractvalue { i8*, i32 } %9, 0, !dbg !4638
  store i8* %10, i8** %exn.slot, align 8, !dbg !4638
  %11 = extractvalue { i8*, i32 } %9, 1, !dbg !4638
  store i32 %11, i32* %ehselector.slot, align 4, !dbg !4638
  call void @_ZN10opp_stringD2Ev(%class.opp_string* %agg.tmp) #3, !dbg !4634
  br label %eh.resume, !dbg !4634

eh.resume:                                        ; preds = %lpad9, %lpad
  %exn = load i8*, i8** %exn.slot, align 8, !dbg !4629
  %sel = load i32, i32* %ehselector.slot, align 4, !dbg !4629
  %lpad.val = insertvalue { i8*, i32 } undef, i8* %exn, 0, !dbg !4629
  %lpad.val11 = insertvalue { i8*, i32 } %lpad.val, i32 %sel, 1, !dbg !4629
  resume { i8*, i32 } %lpad.val11, !dbg !4629
}

declare dso_local void @_ZN24cFileOutputVectorManager12writeRunDataEv(%class.cFileOutputVectorManager*) unnamed_addr #1

declare dso_local void @_ZN8sRunData12writeRunDataEP8_IO_FILE10opp_string(%struct.sRunData*, %struct._IO_FILE*, %class.opp_string*) #1

; Function Attrs: noinline uwtable
define dso_local void @_ZN31cIndexedFileOutputVectorManager12writeRecordsEv(%class.cIndexedFileOutputVectorManager* %this) unnamed_addr #0 align 2 !dbg !4639 {
entry:
  %this.addr = alloca %class.cIndexedFileOutputVectorManager*, align 8
  %it = alloca %"class.__gnu_cxx::__normal_iterator", align 8
  %ref.tmp = alloca %"class.__gnu_cxx::__normal_iterator", align 8
  store %class.cIndexedFileOutputVectorManager* %this, %class.cIndexedFileOutputVectorManager** %this.addr, align 8
  call void @llvm.dbg.declare(metadata %class.cIndexedFileOutputVectorManager** %this.addr, metadata !4640, metadata !DIExpression()), !dbg !4641
  %this1 = load %class.cIndexedFileOutputVectorManager*, %class.cIndexedFileOutputVectorManager** %this.addr, align 8
  call void @llvm.dbg.declare(metadata %"class.__gnu_cxx::__normal_iterator"* %it, metadata !4642, metadata !DIExpression()), !dbg !4644
  %vectors = getelementptr inbounds %class.cIndexedFileOutputVectorManager, %class.cIndexedFileOutputVectorManager* %this1, i32 0, i32 5, !dbg !4645
  %call = call %"struct.cIndexedFileOutputVectorManager::sVector"** @_ZNSt6vectorIPN31cIndexedFileOutputVectorManager7sVectorESaIS2_EE5beginEv(%"class.std::vector"* %vectors) #3, !dbg !4646
  %coerce.dive = getelementptr inbounds %"class.__gnu_cxx::__normal_iterator", %"class.__gnu_cxx::__normal_iterator"* %it, i32 0, i32 0, !dbg !4646
  store %"struct.cIndexedFileOutputVectorManager::sVector"** %call, %"struct.cIndexedFileOutputVectorManager::sVector"*** %coerce.dive, align 8, !dbg !4646
  br label %for.cond, !dbg !4647

for.cond:                                         ; preds = %for.inc, %entry
  %vectors2 = getelementptr inbounds %class.cIndexedFileOutputVectorManager, %class.cIndexedFileOutputVectorManager* %this1, i32 0, i32 5, !dbg !4648
  %call3 = call %"struct.cIndexedFileOutputVectorManager::sVector"** @_ZNSt6vectorIPN31cIndexedFileOutputVectorManager7sVectorESaIS2_EE3endEv(%"class.std::vector"* %vectors2) #3, !dbg !4650
  %coerce.dive4 = getelementptr inbounds %"class.__gnu_cxx::__normal_iterator", %"class.__gnu_cxx::__normal_iterator"* %ref.tmp, i32 0, i32 0, !dbg !4650
  store %"struct.cIndexedFileOutputVectorManager::sVector"** %call3, %"struct.cIndexedFileOutputVectorManager::sVector"*** %coerce.dive4, align 8, !dbg !4650
  %call5 = call zeroext i1 @_ZN9__gnu_cxxneIPPN31cIndexedFileOutputVectorManager7sVectorESt6vectorIS3_SaIS3_EEEEbRKNS_17__normal_iteratorIT_T0_EESD_(%"class.__gnu_cxx::__normal_iterator"* dereferenceable(8) %it, %"class.__gnu_cxx::__normal_iterator"* dereferenceable(8) %ref.tmp) #3, !dbg !4651
  br i1 %call5, label %for.body, label %for.end, !dbg !4652

for.body:                                         ; preds = %for.cond
  %call6 = call dereferenceable(8) %"struct.cIndexedFileOutputVectorManager::sVector"** @_ZNK9__gnu_cxx17__normal_iteratorIPPN31cIndexedFileOutputVectorManager7sVectorESt6vectorIS3_SaIS3_EEEdeEv(%"class.__gnu_cxx::__normal_iterator"* %it) #3, !dbg !4653
  %0 = load %"struct.cIndexedFileOutputVectorManager::sVector"*, %"struct.cIndexedFileOutputVectorManager::sVector"** %call6, align 8, !dbg !4653
  %buffer = getelementptr inbounds %"struct.cIndexedFileOutputVectorManager::sVector", %"struct.cIndexedFileOutputVectorManager::sVector"* %0, i32 0, i32 1, !dbg !4656
  %call7 = call zeroext i1 @_ZNKSt6vectorIN31cIndexedFileOutputVectorManager7sSampleESaIS1_EE5emptyEv(%"class.std::vector.6"* %buffer) #3, !dbg !4657
  br i1 %call7, label %if.end, label %if.then, !dbg !4658

if.then:                                          ; preds = %for.body
  %call8 = call dereferenceable(8) %"struct.cIndexedFileOutputVectorManager::sVector"** @_ZNK9__gnu_cxx17__normal_iteratorIPPN31cIndexedFileOutputVectorManager7sVectorESt6vectorIS3_SaIS3_EEEdeEv(%"class.__gnu_cxx::__normal_iterator"* %it) #3, !dbg !4659
  %1 = load %"struct.cIndexedFileOutputVectorManager::sVector"*, %"struct.cIndexedFileOutputVectorManager::sVector"** %call8, align 8, !dbg !4659
  %2 = bitcast %class.cIndexedFileOutputVectorManager* %this1 to void (%class.cIndexedFileOutputVectorManager*, %"struct.cIndexedFileOutputVectorManager::sVector"*)***, !dbg !4660
  %vtable = load void (%class.cIndexedFileOutputVectorManager*, %"struct.cIndexedFileOutputVectorManager::sVector"*)**, void (%class.cIndexedFileOutputVectorManager*, %"struct.cIndexedFileOutputVectorManager::sVector"*)*** %2, align 8, !dbg !4660
  %vfn = getelementptr inbounds void (%class.cIndexedFileOutputVectorManager*, %"struct.cIndexedFileOutputVectorManager::sVector"*)*, void (%class.cIndexedFileOutputVectorManager*, %"struct.cIndexedFileOutputVectorManager::sVector"*)** %vtable, i64 32, !dbg !4660
  %3 = load void (%class.cIndexedFileOutputVectorManager*, %"struct.cIndexedFileOutputVectorManager::sVector"*)*, void (%class.cIndexedFileOutputVectorManager*, %"struct.cIndexedFileOutputVectorManager::sVector"*)** %vfn, align 8, !dbg !4660
  call void %3(%class.cIndexedFileOutputVectorManager* %this1, %"struct.cIndexedFileOutputVectorManager::sVector"* %1), !dbg !4660
  br label %if.end, !dbg !4660

if.end:                                           ; preds = %if.then, %for.body
  br label %for.inc, !dbg !4661

for.inc:                                          ; preds = %if.end
  %call9 = call dereferenceable(8) %"class.__gnu_cxx::__normal_iterator"* @_ZN9__gnu_cxx17__normal_iteratorIPPN31cIndexedFileOutputVectorManager7sVectorESt6vectorIS3_SaIS3_EEEppEv(%"class.__gnu_cxx::__normal_iterator"* %it) #3, !dbg !4662
  br label %for.cond, !dbg !4663, !llvm.loop !4664

for.end:                                          ; preds = %for.cond
  ret void, !dbg !4666
}

; Function Attrs: noinline uwtable
define dso_local void @_ZN31cIndexedFileOutputVectorManager10writeBlockEPNS_7sVectorE(%class.cIndexedFileOutputVectorManager* %this, %"struct.cIndexedFileOutputVectorManager::sVector"* %vp) unnamed_addr #0 align 2 personality i8* bitcast (i32 (...)* @__gxx_personality_v0 to i8*) !dbg !2474 {
entry:
  %this.addr = alloca %class.cIndexedFileOutputVectorManager*, align 8
  %vp.addr = alloca %"struct.cIndexedFileOutputVectorManager::sVector"*, align 8
  %currentBlock = alloca %"struct.cIndexedFileOutputVectorManager::sBlock"*, align 8
  %it = alloca %"class.__gnu_cxx::__normal_iterator.14", align 8
  %ref.tmp = alloca %"class.__gnu_cxx::__normal_iterator.14", align 8
  %exn.slot = alloca i8*
  %ehselector.slot = alloca i32
  %it18 = alloca %"class.__gnu_cxx::__normal_iterator.14", align 8
  %ref.tmp23 = alloca %"class.__gnu_cxx::__normal_iterator.14", align 8
  store %class.cIndexedFileOutputVectorManager* %this, %class.cIndexedFileOutputVectorManager** %this.addr, align 8
  call void @llvm.dbg.declare(metadata %class.cIndexedFileOutputVectorManager** %this.addr, metadata !4667, metadata !DIExpression()), !dbg !4668
  store %"struct.cIndexedFileOutputVectorManager::sVector"* %vp, %"struct.cIndexedFileOutputVectorManager::sVector"** %vp.addr, align 8
  call void @llvm.dbg.declare(metadata %"struct.cIndexedFileOutputVectorManager::sVector"** %vp.addr, metadata !4669, metadata !DIExpression()), !dbg !4670
  %this1 = load %class.cIndexedFileOutputVectorManager*, %class.cIndexedFileOutputVectorManager** %this.addr, align 8
  call void @llvm.dbg.declare(metadata %"struct.cIndexedFileOutputVectorManager::sBlock"** %currentBlock, metadata !4671, metadata !DIExpression()), !dbg !4672
  %0 = load %"struct.cIndexedFileOutputVectorManager::sVector"*, %"struct.cIndexedFileOutputVectorManager::sVector"** %vp.addr, align 8, !dbg !4673
  %currentBlock2 = getelementptr inbounds %"struct.cIndexedFileOutputVectorManager::sVector", %"struct.cIndexedFileOutputVectorManager::sVector"* %0, i32 0, i32 3, !dbg !4674
  store %"struct.cIndexedFileOutputVectorManager::sBlock"* %currentBlock2, %"struct.cIndexedFileOutputVectorManager::sBlock"** %currentBlock, align 8, !dbg !4672
  %1 = bitcast %class.cIndexedFileOutputVectorManager* %this1 to %class.cFileOutputVectorManager*, !dbg !4675
  %f = getelementptr inbounds %class.cFileOutputVectorManager, %class.cFileOutputVectorManager* %1, i32 0, i32 5, !dbg !4675
  %2 = load %struct._IO_FILE*, %struct._IO_FILE** %f, align 8, !dbg !4675
  %call = call i64 @ftello64(%struct._IO_FILE* %2), !dbg !4676
  %3 = load %"struct.cIndexedFileOutputVectorManager::sBlock"*, %"struct.cIndexedFileOutputVectorManager::sBlock"** %currentBlock, align 8, !dbg !4677
  %offset = getelementptr inbounds %"struct.cIndexedFileOutputVectorManager::sBlock", %"struct.cIndexedFileOutputVectorManager::sBlock"* %3, i32 0, i32 0, !dbg !4678
