; ModuleID = 'simulator/cstringpool.cc'
source_filename = "simulator/cstringpool.cc"
target datalayout = "e-m:e-p270:32:32-p271:32:32-p272:64:64-i64:64-f80:128-n8:16:32:64-S128"
target triple = "x86_64-unknown-linux-gnu"

%"class.std::ios_base::Init" = type { i8 }
%struct._IO_FILE = type { i32, i8*, i8*, i8*, i8*, i8*, i8*, i8*, i8*, i8*, i8*, i8*, %struct._IO_marker*, %struct._IO_FILE*, i32, i32, i64, i16, i8, [1 x i8], i8*, i64, %struct._IO_codecvt*, %struct._IO_wide_data*, %struct._IO_FILE*, i8*, i64, i32, [20 x i8] }
%struct._IO_marker = type opaque
%struct._IO_codecvt = type opaque
%struct._IO_wide_data = type opaque
%"struct.std::piecewise_construct_t" = type { i8 }
%class.cStringPool = type <{ %"class.std::__cxx11::basic_string", %"class.std::map", i8, [7 x i8] }>
%"class.std::__cxx11::basic_string" = type { %"struct.std::__cxx11::basic_string<char, std::char_traits<char>, std::allocator<char> >::_Alloc_hider", i64, %union.anon }
%"struct.std::__cxx11::basic_string<char, std::char_traits<char>, std::allocator<char> >::_Alloc_hider" = type { i8* }
%union.anon = type { i64, [8 x i8] }
%"class.std::map" = type { %"class.std::_Rb_tree" }
%"class.std::_Rb_tree" = type { %"struct.std::_Rb_tree<char *, std::pair<char *const, int>, std::_Select1st<std::pair<char *const, int> >, cStringPool::strless, std::allocator<std::pair<char *const, int> > >::_Rb_tree_impl" }
%"struct.std::_Rb_tree<char *, std::pair<char *const, int>, std::_Select1st<std::pair<char *const, int> >, cStringPool::strless, std::allocator<std::pair<char *const, int> > >::_Rb_tree_impl" = type { %"struct.std::_Rb_tree_key_compare", %"struct.std::_Rb_tree_header" }
%"struct.std::_Rb_tree_key_compare" = type { %"struct.cStringPool::strless" }
%"struct.cStringPool::strless" = type { i8 }
%"struct.std::_Rb_tree_header" = type { %"struct.std::_Rb_tree_node_base", i64 }
%"struct.std::_Rb_tree_node_base" = type { i32, %"struct.std::_Rb_tree_node_base"*, %"struct.std::_Rb_tree_node_base"*, %"struct.std::_Rb_tree_node_base"* }
%"struct.std::_Rb_tree_const_iterator" = type { %"struct.std::_Rb_tree_node_base"* }
%"struct.std::pair" = type <{ i8*, i32, [4 x i8] }>
%"struct.std::_Rb_tree_node" = type { %"struct.std::_Rb_tree_node_base", %"struct.__gnu_cxx::__aligned_membuf" }
%"struct.__gnu_cxx::__aligned_membuf" = type { [16 x i8] }
%"struct.std::_Rb_tree_iterator" = type { %"struct.std::_Rb_tree_node_base"* }
%"class.std::tuple" = type { %"struct.std::_Tuple_impl" }
%"struct.std::_Tuple_impl" = type { %"struct.std::_Head_base" }
%"struct.std::_Head_base" = type { i8** }
%"class.std::tuple.3" = type { i8 }
%"class.std::allocator.0" = type { i8 }
%"class.__gnu_cxx::new_allocator.1" = type { i8 }
%"struct.std::_Select1st" = type { i8 }
%"struct.std::pair.4" = type { %"struct.std::_Rb_tree_node_base"*, %"struct.std::_Rb_tree_node_base"* }
%"struct.std::_Index_tuple" = type { i8 }
%"struct.std::_Index_tuple.7" = type { i8 }
%"class.std::__pair_base" = type { i8 }
%"class.std::__pair_base.5" = type { i8 }

$_ZNSt3mapIPciN11cStringPool7strlessESaISt4pairIKS0_iEEEC2Ev = comdat any

$_Z15opp_nulltoemptyPKc = comdat any

$_ZNSt3mapIPciN11cStringPool7strlessESaISt4pairIKS0_iEEED2Ev = comdat any

$_ZNKSt3mapIPciN11cStringPool7strlessESaISt4pairIKS0_iEEE5emptyEv = comdat any

$_ZNKSt3mapIPciN11cStringPool7strlessESaISt4pairIKS0_iEEE5beginEv = comdat any

$_ZStneRKSt23_Rb_tree_const_iteratorISt4pairIKPciEES6_ = comdat any

$_ZNKSt3mapIPciN11cStringPool7strlessESaISt4pairIKS0_iEEE3endEv = comdat any

$_ZNKSt23_Rb_tree_const_iteratorISt4pairIKPciEEptEv = comdat any

$_ZNSt23_Rb_tree_const_iteratorISt4pairIKPciEEppEv = comdat any

$_ZN11cStaticFlag5isSetEv = comdat any

$_Z10opp_strdupPKc = comdat any

$_ZNSt3mapIPciN11cStringPool7strlessESaISt4pairIKS0_iEEE4findERS4_ = comdat any

$_ZSteqRKSt17_Rb_tree_iteratorISt4pairIKPciEES6_ = comdat any

$_ZNSt3mapIPciN11cStringPool7strlessESaISt4pairIKS0_iEEE3endEv = comdat any

$_ZNSt3mapIPciN11cStringPool7strlessESaISt4pairIKS0_iEEEixERS4_ = comdat any

$_ZNKSt17_Rb_tree_iteratorISt4pairIKPciEEptEv = comdat any

$_ZNKSt3mapIPciN11cStringPool7strlessESaISt4pairIKS0_iEEE4findERS4_ = comdat any

$_ZSteqRKSt23_Rb_tree_const_iteratorISt4pairIKPciEES6_ = comdat any

$_ZNSt3mapIPciN11cStringPool7strlessESaISt4pairIKS0_iEEE5eraseB5cxx11ESt17_Rb_tree_iteratorIS5_E = comdat any

$_ZNSt8_Rb_treeIPcSt4pairIKS0_iESt10_Select1stIS3_EN11cStringPool7strlessESaIS3_EEC2Ev = comdat any

$_ZNSt8_Rb_treeIPcSt4pairIKS0_iESt10_Select1stIS3_EN11cStringPool7strlessESaIS3_EE13_Rb_tree_implIS7_Lb1EEC2Ev = comdat any

$_ZNSaISt13_Rb_tree_nodeISt4pairIKPciEEEC2Ev = comdat any

$_ZNSt20_Rb_tree_key_compareIN11cStringPool7strlessEEC2Ev = comdat any

$_ZNSt15_Rb_tree_headerC2Ev = comdat any

$_ZN9__gnu_cxx13new_allocatorISt13_Rb_tree_nodeISt4pairIKPciEEEC2Ev = comdat any

$_ZNSt15_Rb_tree_header8_M_resetEv = comdat any

$__clang_call_terminate = comdat any

$_ZNSt8_Rb_treeIPcSt4pairIKS0_iESt10_Select1stIS3_EN11cStringPool7strlessESaIS3_EED2Ev = comdat any

$_ZNSt8_Rb_treeIPcSt4pairIKS0_iESt10_Select1stIS3_EN11cStringPool7strlessESaIS3_EE8_M_eraseEPSt13_Rb_tree_nodeIS3_E = comdat any

$_ZNSt8_Rb_treeIPcSt4pairIKS0_iESt10_Select1stIS3_EN11cStringPool7strlessESaIS3_EE8_M_beginEv = comdat any

$_ZNSt8_Rb_treeIPcSt4pairIKS0_iESt10_Select1stIS3_EN11cStringPool7strlessESaIS3_EE13_Rb_tree_implIS7_Lb1EED2Ev = comdat any

$_ZNSt8_Rb_treeIPcSt4pairIKS0_iESt10_Select1stIS3_EN11cStringPool7strlessESaIS3_EE8_S_rightEPSt18_Rb_tree_node_base = comdat any

$_ZNSt8_Rb_treeIPcSt4pairIKS0_iESt10_Select1stIS3_EN11cStringPool7strlessESaIS3_EE7_S_leftEPSt18_Rb_tree_node_base = comdat any

$_ZNSt8_Rb_treeIPcSt4pairIKS0_iESt10_Select1stIS3_EN11cStringPool7strlessESaIS3_EE12_M_drop_nodeEPSt13_Rb_tree_nodeIS3_E = comdat any

$_ZNSt8_Rb_treeIPcSt4pairIKS0_iESt10_Select1stIS3_EN11cStringPool7strlessESaIS3_EE15_M_destroy_nodeEPSt13_Rb_tree_nodeIS3_E = comdat any

$_ZNSt8_Rb_treeIPcSt4pairIKS0_iESt10_Select1stIS3_EN11cStringPool7strlessESaIS3_EE11_M_put_nodeEPSt13_Rb_tree_nodeIS3_E = comdat any

$_ZNSt16allocator_traitsISaISt13_Rb_tree_nodeISt4pairIKPciEEEE7destroyIS4_EEvRS6_PT_ = comdat any

$_ZNSt8_Rb_treeIPcSt4pairIKS0_iESt10_Select1stIS3_EN11cStringPool7strlessESaIS3_EE21_M_get_Node_allocatorEv = comdat any

$_ZNSt13_Rb_tree_nodeISt4pairIKPciEE9_M_valptrEv = comdat any

$_ZN9__gnu_cxx13new_allocatorISt13_Rb_tree_nodeISt4pairIKPciEEE7destroyIS5_EEvPT_ = comdat any

$_ZN9__gnu_cxx16__aligned_membufISt4pairIKPciEE6_M_ptrEv = comdat any

$_ZN9__gnu_cxx16__aligned_membufISt4pairIKPciEE7_M_addrEv = comdat any

$_ZNSt16allocator_traitsISaISt13_Rb_tree_nodeISt4pairIKPciEEEE10deallocateERS6_PS5_m = comdat any

$_ZN9__gnu_cxx13new_allocatorISt13_Rb_tree_nodeISt4pairIKPciEEE10deallocateEPS6_m = comdat any

$_ZNSaISt13_Rb_tree_nodeISt4pairIKPciEEED2Ev = comdat any

$_ZN9__gnu_cxx13new_allocatorISt13_Rb_tree_nodeISt4pairIKPciEEED2Ev = comdat any

$_ZNKSt8_Rb_treeIPcSt4pairIKS0_iESt10_Select1stIS3_EN11cStringPool7strlessESaIS3_EE5emptyEv = comdat any

$_ZNKSt8_Rb_treeIPcSt4pairIKS0_iESt10_Select1stIS3_EN11cStringPool7strlessESaIS3_EE5beginEv = comdat any

$_ZNSt23_Rb_tree_const_iteratorISt4pairIKPciEEC2EPKSt18_Rb_tree_node_base = comdat any

$_ZNKSt8_Rb_treeIPcSt4pairIKS0_iESt10_Select1stIS3_EN11cStringPool7strlessESaIS3_EE3endEv = comdat any

$_ZNKSt13_Rb_tree_nodeISt4pairIKPciEE9_M_valptrEv = comdat any

$_ZNK9__gnu_cxx16__aligned_membufISt4pairIKPciEE6_M_ptrEv = comdat any

$_ZNK9__gnu_cxx16__aligned_membufISt4pairIKPciEE7_M_addrEv = comdat any

$_ZNSt8_Rb_treeIPcSt4pairIKS0_iESt10_Select1stIS3_EN11cStringPool7strlessESaIS3_EE4findERS2_ = comdat any

$_ZNSt8_Rb_treeIPcSt4pairIKS0_iESt10_Select1stIS3_EN11cStringPool7strlessESaIS3_EE14_M_lower_boundEPSt13_Rb_tree_nodeIS3_EPSt18_Rb_tree_node_baseRS2_ = comdat any

$_ZNSt8_Rb_treeIPcSt4pairIKS0_iESt10_Select1stIS3_EN11cStringPool7strlessESaIS3_EE6_M_endEv = comdat any

$_ZNSt8_Rb_treeIPcSt4pairIKS0_iESt10_Select1stIS3_EN11cStringPool7strlessESaIS3_EE3endEv = comdat any

$_ZNK11cStringPool7strlessclEPKcS2_ = comdat any

$_ZNSt8_Rb_treeIPcSt4pairIKS0_iESt10_Select1stIS3_EN11cStringPool7strlessESaIS3_EE6_S_keyEPKSt18_Rb_tree_node_base = comdat any

$_ZNSt8_Rb_treeIPcSt4pairIKS0_iESt10_Select1stIS3_EN11cStringPool7strlessESaIS3_EE6_S_keyEPKSt13_Rb_tree_nodeIS3_E = comdat any

$_ZNSt17_Rb_tree_iteratorISt4pairIKPciEEC2EPSt18_Rb_tree_node_base = comdat any

$_ZNKSt10_Select1stISt4pairIKPciEEclERKS3_ = comdat any

$_ZNSt3mapIPciN11cStringPool7strlessESaISt4pairIKS0_iEEE11lower_boundERS4_ = comdat any

$_ZNKSt3mapIPciN11cStringPool7strlessESaISt4pairIKS0_iEEE8key_compEv = comdat any

$_ZNKSt17_Rb_tree_iteratorISt4pairIKPciEEdeEv = comdat any

$_ZNSt8_Rb_treeIPcSt4pairIKS0_iESt10_Select1stIS3_EN11cStringPool7strlessESaIS3_EE22_M_emplace_hint_uniqueIJRKSt21piecewise_construct_tSt5tupleIJRS2_EESE_IJEEEEESt17_Rb_tree_iteratorIS3_ESt23_Rb_tree_const_iteratorIS3_EDpOT_ = comdat any

$_ZNSt23_Rb_tree_const_iteratorISt4pairIKPciEEC2ERKSt17_Rb_tree_iteratorIS3_E = comdat any

$_ZNSt5tupleIJRKPcEEC2ILb1ELb1EEES2_ = comdat any

$_ZNSt8_Rb_treeIPcSt4pairIKS0_iESt10_Select1stIS3_EN11cStringPool7strlessESaIS3_EE11lower_boundERS2_ = comdat any

$_ZNKSt8_Rb_treeIPcSt4pairIKS0_iESt10_Select1stIS3_EN11cStringPool7strlessESaIS3_EE8key_compEv = comdat any

$_ZNSt8_Rb_treeIPcSt4pairIKS0_iESt10_Select1stIS3_EN11cStringPool7strlessESaIS3_EE14_M_create_nodeIJRKSt21piecewise_construct_tSt5tupleIJRS2_EESE_IJEEEEEPSt13_Rb_tree_nodeIS3_EDpOT_ = comdat any

$_ZSt7forwardIRKSt21piecewise_construct_tEOT_RNSt16remove_referenceIS3_E4typeE = comdat any

$_ZSt7forwardISt5tupleIJRKPcEEEOT_RNSt16remove_referenceIS5_E4typeE = comdat any

$_ZSt7forwardISt5tupleIJEEEOT_RNSt16remove_referenceIS2_E4typeE = comdat any

$_ZNSt8_Rb_treeIPcSt4pairIKS0_iESt10_Select1stIS3_EN11cStringPool7strlessESaIS3_EE29_M_get_insert_hint_unique_posESt23_Rb_tree_const_iteratorIS3_ERS2_ = comdat any

$_ZNSt8_Rb_treeIPcSt4pairIKS0_iESt10_Select1stIS3_EN11cStringPool7strlessESaIS3_EE14_M_insert_nodeEPSt18_Rb_tree_node_baseSB_PSt13_Rb_tree_nodeIS3_E = comdat any

$_ZNSt8_Rb_treeIPcSt4pairIKS0_iESt10_Select1stIS3_EN11cStringPool7strlessESaIS3_EE11_M_get_nodeEv = comdat any

$_ZNSt8_Rb_treeIPcSt4pairIKS0_iESt10_Select1stIS3_EN11cStringPool7strlessESaIS3_EE17_M_construct_nodeIJRKSt21piecewise_construct_tSt5tupleIJRS2_EESE_IJEEEEEvPSt13_Rb_tree_nodeIS3_EDpOT_ = comdat any

$_ZNSt16allocator_traitsISaISt13_Rb_tree_nodeISt4pairIKPciEEEE8allocateERS6_m = comdat any

$_ZN9__gnu_cxx13new_allocatorISt13_Rb_tree_nodeISt4pairIKPciEEE8allocateEmPKv = comdat any

$_ZNK9__gnu_cxx13new_allocatorISt13_Rb_tree_nodeISt4pairIKPciEEE11_M_max_sizeEv = comdat any

$_ZNSt16allocator_traitsISaISt13_Rb_tree_nodeISt4pairIKPciEEEE9constructIS4_JRKSt21piecewise_construct_tSt5tupleIJRS3_EESC_IJEEEEEvRS6_PT_DpOT0_ = comdat any

$_ZN9__gnu_cxx13new_allocatorISt13_Rb_tree_nodeISt4pairIKPciEEE9constructIS5_JRKSt21piecewise_construct_tSt5tupleIJRS4_EESC_IJEEEEEvPT_DpOT0_ = comdat any

$_ZNSt5tupleIJRKPcEEC2EOS3_ = comdat any

$_ZNSt4pairIKPciEC2IJRS1_EJEEESt21piecewise_construct_tSt5tupleIJDpT_EES6_IJDpT0_EE = comdat any

$_ZNSt11_Tuple_implILm0EJRKPcEEC2EOS3_ = comdat any

$_ZSt7forwardIRKPcEOT_RNSt16remove_referenceIS3_E4typeE = comdat any

$_ZNSt11_Tuple_implILm0EJRKPcEE7_M_headERS3_ = comdat any

$_ZNSt10_Head_baseILm0ERKPcLb0EEC2ES2_ = comdat any

$_ZNSt10_Head_baseILm0ERKPcLb0EE7_M_headERS3_ = comdat any

$_ZNSt4pairIKPciEC2IJRS1_EJLm0EEJEJEEERSt5tupleIJDpT_EERS5_IJDpT1_EESt12_Index_tupleIJXspT0_EEESE_IJXspT2_EEE = comdat any

$_ZSt3getILm0EJRKPcEERNSt13tuple_elementIXT_ESt5tupleIJDpT0_EEE4typeERS7_ = comdat any

$_ZSt12__get_helperILm0ERKPcJEERT0_RSt11_Tuple_implIXT_EJS3_DpT1_EE = comdat any

$_ZNKSt23_Rb_tree_const_iteratorISt4pairIKPciEE13_M_const_castEv = comdat any

$_ZNKSt8_Rb_treeIPcSt4pairIKS0_iESt10_Select1stIS3_EN11cStringPool7strlessESaIS3_EE4sizeEv = comdat any

$_ZNSt8_Rb_treeIPcSt4pairIKS0_iESt10_Select1stIS3_EN11cStringPool7strlessESaIS3_EE12_M_rightmostEv = comdat any

$_ZNSt4pairIPSt18_Rb_tree_node_baseS1_EC2IRS1_Lb1EEERKS1_OT_ = comdat any

$_ZNSt8_Rb_treeIPcSt4pairIKS0_iESt10_Select1stIS3_EN11cStringPool7strlessESaIS3_EE24_M_get_insert_unique_posERS2_ = comdat any

$_ZNSt8_Rb_treeIPcSt4pairIKS0_iESt10_Select1stIS3_EN11cStringPool7strlessESaIS3_EE11_M_leftmostEv = comdat any

$_ZNSt4pairIPSt18_Rb_tree_node_baseS1_EC2IRS1_S4_Lb1EEEOT_OT0_ = comdat any

$_ZNSt17_Rb_tree_iteratorISt4pairIKPciEEmmEv = comdat any

$_ZNSt17_Rb_tree_iteratorISt4pairIKPciEEppEv = comdat any

$_ZNSt4pairIPSt18_Rb_tree_node_baseS1_EC2IRS1_Lb1EEEOT_RKS1_ = comdat any

$_ZSt7forwardIRPSt18_Rb_tree_node_baseEOT_RNSt16remove_referenceIS3_E4typeE = comdat any

$_ZNSt8_Rb_treeIPcSt4pairIKS0_iESt10_Select1stIS3_EN11cStringPool7strlessESaIS3_EE5beginEv = comdat any

$_ZNSt4pairIPSt18_Rb_tree_node_baseS1_EC2IRPSt13_Rb_tree_nodeIS_IKPciEERS1_Lb1EEEOT_OT0_ = comdat any

$_ZSt7forwardIRPSt13_Rb_tree_nodeISt4pairIKPciEEEOT_RNSt16remove_referenceIS8_E4typeE = comdat any

$_ZNSt11_Tuple_implILm0EJRKPcEEC2ES2_ = comdat any

$_ZNKSt8_Rb_treeIPcSt4pairIKS0_iESt10_Select1stIS3_EN11cStringPool7strlessESaIS3_EE4findERS2_ = comdat any

$_ZNKSt8_Rb_treeIPcSt4pairIKS0_iESt10_Select1stIS3_EN11cStringPool7strlessESaIS3_EE14_M_lower_boundEPKSt13_Rb_tree_nodeIS3_EPKSt18_Rb_tree_node_baseRS2_ = comdat any

$_ZNKSt8_Rb_treeIPcSt4pairIKS0_iESt10_Select1stIS3_EN11cStringPool7strlessESaIS3_EE8_M_beginEv = comdat any

$_ZNKSt8_Rb_treeIPcSt4pairIKS0_iESt10_Select1stIS3_EN11cStringPool7strlessESaIS3_EE6_M_endEv = comdat any

$_ZNSt8_Rb_treeIPcSt4pairIKS0_iESt10_Select1stIS3_EN11cStringPool7strlessESaIS3_EE7_S_leftEPKSt18_Rb_tree_node_base = comdat any

$_ZNSt8_Rb_treeIPcSt4pairIKS0_iESt10_Select1stIS3_EN11cStringPool7strlessESaIS3_EE8_S_rightEPKSt18_Rb_tree_node_base = comdat any

$_ZNSt8_Rb_treeIPcSt4pairIKS0_iESt10_Select1stIS3_EN11cStringPool7strlessESaIS3_EE5eraseB5cxx11ESt17_Rb_tree_iteratorIS3_E = comdat any

$_ZNSt8_Rb_treeIPcSt4pairIKS0_iESt10_Select1stIS3_EN11cStringPool7strlessESaIS3_EE12_M_erase_auxESt23_Rb_tree_const_iteratorIS3_E = comdat any

@_ZStL8__ioinit = internal global %"class.std::ios_base::Init" zeroinitializer, align 1, !dbg !0
@__dso_handle = external hidden global i8
@.str = private unnamed_addr constant [30 x i8] c"contents of stringpool \22%s\22:\0A\00", align 1
@.str.1 = private unnamed_addr constant [22 x i8] c"  \22%s\22 %p, %d ref(s)\0A\00", align 1
@stderr = external dso_local global %struct._IO_FILE*, align 8
@.str.2 = private unnamed_addr constant [106 x i8] c"ERROR: cStringPool::get(\22%s\22) invoked outside main() -- please do not use cStringPool from global objects\00", align 1
@.str.3 = private unnamed_addr constant [107 x i8] c"ERROR: cStringPool::peek(\22%s\22) invoked outside main() -- please do not use cStringPool from global objects\00", align 1
@.str.4 = private unnamed_addr constant [93 x i8] c"Warning: cStringPool::release(): string \22%s\22 released too late, after main() already exited\0A\00", align 1
@.str.5 = private unnamed_addr constant [65 x i8] c"ERROR: cStringPool::release(): string %p \22%s\22 not in stringpool\0A\00", align 1
@.str.6 = private unnamed_addr constant [113 x i8] c"ERROR: cStringPool::release(): wrong string pointer %p \22%s\22, stringpool has a different copy of the same string\0A\00", align 1
@.str.7 = private unnamed_addr constant [1 x i8] zeroinitializer, align 1
@_ZN11cStaticFlag10staticflagE = external dso_local global i8, align 1
@_ZStL19piecewise_construct = internal constant %"struct.std::piecewise_construct_t" undef, align 1, !dbg !28
@llvm.global_ctors = appending global [1 x { i32, void ()*, i8* }] [{ i32, void ()*, i8* } { i32 65535, void ()* @_GLOBAL__sub_I_cstringpool.cc, i8* null }]

@_ZN11cStringPoolC1EPKc = dso_local unnamed_addr alias void (%class.cStringPool*, i8*), void (%class.cStringPool*, i8*)* @_ZN11cStringPoolC2EPKc
@_ZN11cStringPoolD1Ev = dso_local unnamed_addr alias void (%class.cStringPool*), void (%class.cStringPool*)* @_ZN11cStringPoolD2Ev

; Function Attrs: noinline uwtable
define internal void @__cxx_global_var_init() #0 section ".text.startup" !dbg !2426 {
entry:
  call void @_ZNSt8ios_base4InitC1Ev(%"class.std::ios_base::Init"* @_ZStL8__ioinit), !dbg !2427
  %0 = call i32 @__cxa_atexit(void (i8*)* bitcast (void (%"class.std::ios_base::Init"*)* @_ZNSt8ios_base4InitD1Ev to void (i8*)*), i8* getelementptr inbounds (%"class.std::ios_base::Init", %"class.std::ios_base::Init"* @_ZStL8__ioinit, i32 0, i32 0), i8* @__dso_handle) #3, !dbg !2427
  ret void, !dbg !2427
}

declare dso_local void @_ZNSt8ios_base4InitC1Ev(%"class.std::ios_base::Init"*) unnamed_addr #1

; Function Attrs: nounwind
declare dso_local void @_ZNSt8ios_base4InitD1Ev(%"class.std::ios_base::Init"*) unnamed_addr #2

; Function Attrs: nounwind
declare dso_local i32 @__cxa_atexit(void (i8*)*, i8*, i8*) #3

; Function Attrs: noinline uwtable
define dso_local void @_ZN11cStringPoolC2EPKc(%class.cStringPool* %this, i8* %poolName) unnamed_addr #0 align 2 personality i8* bitcast (i32 (...)* @__gxx_personality_v0 to i8*) !dbg !2428 {
entry:
  %this.addr = alloca %class.cStringPool*, align 8
  %poolName.addr = alloca i8*, align 8
  %exn.slot = alloca i8*
  %ehselector.slot = alloca i32
  store %class.cStringPool* %this, %class.cStringPool** %this.addr, align 8
  call void @llvm.dbg.declare(metadata %class.cStringPool** %this.addr, metadata !2429, metadata !DIExpression()), !dbg !2431
  store i8* %poolName, i8** %poolName.addr, align 8
  call void @llvm.dbg.declare(metadata i8** %poolName.addr, metadata !2432, metadata !DIExpression()), !dbg !2433
  %this1 = load %class.cStringPool*, %class.cStringPool** %this.addr, align 8
  %name = getelementptr inbounds %class.cStringPool, %class.cStringPool* %this1, i32 0, i32 0, !dbg !2434
  call void @_ZNSt7__cxx1112basic_stringIcSt11char_traitsIcESaIcEEC1Ev(%"class.std::__cxx11::basic_string"* %name) #3, !dbg !2434
  %pool = getelementptr inbounds %class.cStringPool, %class.cStringPool* %this1, i32 0, i32 1, !dbg !2434
  call void @_ZNSt3mapIPciN11cStringPool7strlessESaISt4pairIKS0_iEEEC2Ev(%"class.std::map"* %pool) #3, !dbg !2434
  %0 = load i8*, i8** %poolName.addr, align 8, !dbg !2435
  %call = invoke i8* @_Z15opp_nulltoemptyPKc(i8* %0)
          to label %invoke.cont unwind label %lpad, !dbg !2437

invoke.cont:                                      ; preds = %entry
  %name2 = getelementptr inbounds %class.cStringPool, %class.cStringPool* %this1, i32 0, i32 0, !dbg !2438
  %call4 = invoke dereferenceable(32) %"class.std::__cxx11::basic_string"* @_ZNSt7__cxx1112basic_stringIcSt11char_traitsIcESaIcEEaSEPKc(%"class.std::__cxx11::basic_string"* %name2, i8* %call)
          to label %invoke.cont3 unwind label %lpad, !dbg !2439

invoke.cont3:                                     ; preds = %invoke.cont
  %alive = getelementptr inbounds %class.cStringPool, %class.cStringPool* %this1, i32 0, i32 2, !dbg !2440
  store i8 1, i8* %alive, align 8, !dbg !2441
  ret void, !dbg !2442

lpad:                                             ; preds = %invoke.cont, %entry
  %1 = landingpad { i8*, i32 }
          cleanup, !dbg !2443
  %2 = extractvalue { i8*, i32 } %1, 0, !dbg !2443
  store i8* %2, i8** %exn.slot, align 8, !dbg !2443
  %3 = extractvalue { i8*, i32 } %1, 1, !dbg !2443
  store i32 %3, i32* %ehselector.slot, align 4, !dbg !2443
  call void @_ZNSt3mapIPciN11cStringPool7strlessESaISt4pairIKS0_iEEED2Ev(%"class.std::map"* %pool) #3, !dbg !2443
  call void @_ZNSt7__cxx1112basic_stringIcSt11char_traitsIcESaIcEED1Ev(%"class.std::__cxx11::basic_string"* %name) #3, !dbg !2443
  br label %eh.resume, !dbg !2443

eh.resume:                                        ; preds = %lpad
  %exn = load i8*, i8** %exn.slot, align 8, !dbg !2443
  %sel = load i32, i32* %ehselector.slot, align 4, !dbg !2443
  %lpad.val = insertvalue { i8*, i32 } undef, i8* %exn, 0, !dbg !2443
  %lpad.val5 = insertvalue { i8*, i32 } %lpad.val, i32 %sel, 1, !dbg !2443
  resume { i8*, i32 } %lpad.val5, !dbg !2443
}

; Function Attrs: nounwind readnone speculatable willreturn
declare void @llvm.dbg.declare(metadata, metadata, metadata) #4

; Function Attrs: nounwind
declare dso_local void @_ZNSt7__cxx1112basic_stringIcSt11char_traitsIcESaIcEEC1Ev(%"class.std::__cxx11::basic_string"*) unnamed_addr #2

; Function Attrs: noinline nounwind uwtable
define linkonce_odr dso_local void @_ZNSt3mapIPciN11cStringPool7strlessESaISt4pairIKS0_iEEEC2Ev(%"class.std::map"* %this) unnamed_addr #5 comdat align 2 !dbg !2444 {
entry:
  %this.addr = alloca %"class.std::map"*, align 8
  store %"class.std::map"* %this, %"class.std::map"** %this.addr, align 8
  call void @llvm.dbg.declare(metadata %"class.std::map"** %this.addr, metadata !2445, metadata !DIExpression()), !dbg !2447
  %this1 = load %"class.std::map"*, %"class.std::map"** %this.addr, align 8
  %_M_t = getelementptr inbounds %"class.std::map", %"class.std::map"* %this1, i32 0, i32 0, !dbg !2448
  call void @_ZNSt8_Rb_treeIPcSt4pairIKS0_iESt10_Select1stIS3_EN11cStringPool7strlessESaIS3_EEC2Ev(%"class.std::_Rb_tree"* %_M_t) #3, !dbg !2448
  ret void, !dbg !2449
}

; Function Attrs: noinline nounwind uwtable
define linkonce_odr dso_local i8* @_Z15opp_nulltoemptyPKc(i8* %s) #5 comdat !dbg !2450 {
entry:
  %s.addr = alloca i8*, align 8
  store i8* %s, i8** %s.addr, align 8
  call void @llvm.dbg.declare(metadata i8** %s.addr, metadata !2454, metadata !DIExpression()), !dbg !2455
  %0 = load i8*, i8** %s.addr, align 8, !dbg !2456
  %tobool = icmp ne i8* %0, null, !dbg !2456
  br i1 %tobool, label %cond.true, label %cond.false, !dbg !2456

cond.true:                                        ; preds = %entry
  %1 = load i8*, i8** %s.addr, align 8, !dbg !2457
  br label %cond.end, !dbg !2456

cond.false:                                       ; preds = %entry
  br label %cond.end, !dbg !2456

cond.end:                                         ; preds = %cond.false, %cond.true
  %cond = phi i8* [ %1, %cond.true ], [ getelementptr inbounds ([1 x i8], [1 x i8]* @.str.7, i64 0, i64 0), %cond.false ], !dbg !2456
  ret i8* %cond, !dbg !2458
}

declare dso_local i32 @__gxx_personality_v0(...)

declare dso_local dereferenceable(32) %"class.std::__cxx11::basic_string"* @_ZNSt7__cxx1112basic_stringIcSt11char_traitsIcESaIcEEaSEPKc(%"class.std::__cxx11::basic_string"*, i8*) #1

; Function Attrs: noinline nounwind uwtable
define linkonce_odr dso_local void @_ZNSt3mapIPciN11cStringPool7strlessESaISt4pairIKS0_iEEED2Ev(%"class.std::map"* %this) unnamed_addr #5 comdat align 2 !dbg !2459 {
entry:
  %this.addr = alloca %"class.std::map"*, align 8
  store %"class.std::map"* %this, %"class.std::map"** %this.addr, align 8
  call void @llvm.dbg.declare(metadata %"class.std::map"** %this.addr, metadata !2460, metadata !DIExpression()), !dbg !2461
  %this1 = load %"class.std::map"*, %"class.std::map"** %this.addr, align 8
  %_M_t = getelementptr inbounds %"class.std::map", %"class.std::map"* %this1, i32 0, i32 0, !dbg !2462
  call void @_ZNSt8_Rb_treeIPcSt4pairIKS0_iESt10_Select1stIS3_EN11cStringPool7strlessESaIS3_EED2Ev(%"class.std::_Rb_tree"* %_M_t) #3, !dbg !2462
  ret void, !dbg !2464
}

; Function Attrs: nounwind
declare dso_local void @_ZNSt7__cxx1112basic_stringIcSt11char_traitsIcESaIcEED1Ev(%"class.std::__cxx11::basic_string"*) unnamed_addr #2

; Function Attrs: noinline nounwind uwtable
define dso_local void @_ZN11cStringPoolD2Ev(%class.cStringPool* %this) unnamed_addr #5 align 2 !dbg !2465 {
entry:
  %this.addr = alloca %class.cStringPool*, align 8
  store %class.cStringPool* %this, %class.cStringPool** %this.addr, align 8
  call void @llvm.dbg.declare(metadata %class.cStringPool** %this.addr, metadata !2466, metadata !DIExpression()), !dbg !2467
  %this1 = load %class.cStringPool*, %class.cStringPool** %this.addr, align 8
  %alive = getelementptr inbounds %class.cStringPool, %class.cStringPool* %this1, i32 0, i32 2, !dbg !2468
  store i8 0, i8* %alive, align 8, !dbg !2470
  %pool = getelementptr inbounds %class.cStringPool, %class.cStringPool* %this1, i32 0, i32 1, !dbg !2471
  call void @_ZNSt3mapIPciN11cStringPool7strlessESaISt4pairIKS0_iEEED2Ev(%"class.std::map"* %pool) #3, !dbg !2471
  %name = getelementptr inbounds %class.cStringPool, %class.cStringPool* %this1, i32 0, i32 0, !dbg !2471
  call void @_ZNSt7__cxx1112basic_stringIcSt11char_traitsIcESaIcEED1Ev(%"class.std::__cxx11::basic_string"* %name) #3, !dbg !2471
  ret void, !dbg !2472
}

; Function Attrs: noinline uwtable
define dso_local void @_ZNK11cStringPool4dumpEv(%class.cStringPool* %this) #0 align 2 !dbg !2473 {
entry:
  %this.addr = alloca %class.cStringPool*, align 8
  %it = alloca %"struct.std::_Rb_tree_const_iterator", align 8
  %ref.tmp = alloca %"struct.std::_Rb_tree_const_iterator", align 8
  store %class.cStringPool* %this, %class.cStringPool** %this.addr, align 8
  call void @llvm.dbg.declare(metadata %class.cStringPool** %this.addr, metadata !2474, metadata !DIExpression()), !dbg !2476
  %this1 = load %class.cStringPool*, %class.cStringPool** %this.addr, align 8
  %pool = getelementptr inbounds %class.cStringPool, %class.cStringPool* %this1, i32 0, i32 1, !dbg !2477
  %call = call zeroext i1 @_ZNKSt3mapIPciN11cStringPool7strlessESaISt4pairIKS0_iEEE5emptyEv(%"class.std::map"* %pool) #3, !dbg !2479
  br i1 %call, label %if.end, label %if.then, !dbg !2480

if.then:                                          ; preds = %entry
  %name = getelementptr inbounds %class.cStringPool, %class.cStringPool* %this1, i32 0, i32 0, !dbg !2481
  %call2 = call i8* @_ZNKSt7__cxx1112basic_stringIcSt11char_traitsIcESaIcEE5c_strEv(%"class.std::__cxx11::basic_string"* %name) #3, !dbg !2483
  %call3 = call i32 (i8*, ...) @printf(i8* getelementptr inbounds ([30 x i8], [30 x i8]* @.str, i64 0, i64 0), i8* %call2), !dbg !2484
  call void @llvm.dbg.declare(metadata %"struct.std::_Rb_tree_const_iterator"* %it, metadata !2485, metadata !DIExpression()), !dbg !2487
  %pool4 = getelementptr inbounds %class.cStringPool, %class.cStringPool* %this1, i32 0, i32 1, !dbg !2488
  %call5 = call %"struct.std::_Rb_tree_node_base"* @_ZNKSt3mapIPciN11cStringPool7strlessESaISt4pairIKS0_iEEE5beginEv(%"class.std::map"* %pool4) #3, !dbg !2489
  %coerce.dive = getelementptr inbounds %"struct.std::_Rb_tree_const_iterator", %"struct.std::_Rb_tree_const_iterator"* %it, i32 0, i32 0, !dbg !2489
  store %"struct.std::_Rb_tree_node_base"* %call5, %"struct.std::_Rb_tree_node_base"** %coerce.dive, align 8, !dbg !2489
  br label %for.cond, !dbg !2490

for.cond:                                         ; preds = %for.inc, %if.then
  %pool6 = getelementptr inbounds %class.cStringPool, %class.cStringPool* %this1, i32 0, i32 1, !dbg !2491
  %call7 = call %"struct.std::_Rb_tree_node_base"* @_ZNKSt3mapIPciN11cStringPool7strlessESaISt4pairIKS0_iEEE3endEv(%"class.std::map"* %pool6) #3, !dbg !2493
  %coerce.dive8 = getelementptr inbounds %"struct.std::_Rb_tree_const_iterator", %"struct.std::_Rb_tree_const_iterator"* %ref.tmp, i32 0, i32 0, !dbg !2493
  store %"struct.std::_Rb_tree_node_base"* %call7, %"struct.std::_Rb_tree_node_base"** %coerce.dive8, align 8, !dbg !2493
  %call9 = call zeroext i1 @_ZStneRKSt23_Rb_tree_const_iteratorISt4pairIKPciEES6_(%"struct.std::_Rb_tree_const_iterator"* dereferenceable(8) %it, %"struct.std::_Rb_tree_const_iterator"* dereferenceable(8) %ref.tmp) #3, !dbg !2494
  br i1 %call9, label %for.body, label %for.end, !dbg !2495

for.body:                                         ; preds = %for.cond
  %call10 = call %"struct.std::pair"* @_ZNKSt23_Rb_tree_const_iteratorISt4pairIKPciEEptEv(%"struct.std::_Rb_tree_const_iterator"* %it) #3, !dbg !2496
  %first = getelementptr inbounds %"struct.std::pair", %"struct.std::pair"* %call10, i32 0, i32 0, !dbg !2497
  %0 = load i8*, i8** %first, align 8, !dbg !2497
  %call11 = call %"struct.std::pair"* @_ZNKSt23_Rb_tree_const_iteratorISt4pairIKPciEEptEv(%"struct.std::_Rb_tree_const_iterator"* %it) #3, !dbg !2498
  %first12 = getelementptr inbounds %"struct.std::pair", %"struct.std::pair"* %call11, i32 0, i32 0, !dbg !2499
  %1 = load i8*, i8** %first12, align 8, !dbg !2499
  %call13 = call %"struct.std::pair"* @_ZNKSt23_Rb_tree_const_iteratorISt4pairIKPciEEptEv(%"struct.std::_Rb_tree_const_iterator"* %it) #3, !dbg !2500
  %second = getelementptr inbounds %"struct.std::pair", %"struct.std::pair"* %call13, i32 0, i32 1, !dbg !2501
  %2 = load i32, i32* %second, align 8, !dbg !2501
  %call14 = call i32 (i8*, ...) @printf(i8* getelementptr inbounds ([22 x i8], [22 x i8]* @.str.1, i64 0, i64 0), i8* %0, i8* %1, i32 %2), !dbg !2502
  br label %for.inc, !dbg !2502

for.inc:                                          ; preds = %for.body
  %call15 = call dereferenceable(8) %"struct.std::_Rb_tree_const_iterator"* @_ZNSt23_Rb_tree_const_iteratorISt4pairIKPciEEppEv(%"struct.std::_Rb_tree_const_iterator"* %it) #3, !dbg !2503
  br label %for.cond, !dbg !2504, !llvm.loop !2505

for.end:                                          ; preds = %for.cond
  br label %if.end, !dbg !2507

if.end:                                           ; preds = %for.end, %entry
  ret void, !dbg !2508
}

; Function Attrs: noinline nounwind uwtable
define linkonce_odr dso_local zeroext i1 @_ZNKSt3mapIPciN11cStringPool7strlessESaISt4pairIKS0_iEEE5emptyEv(%"class.std::map"* %this) #5 comdat align 2 !dbg !2509 {
entry:
  %this.addr = alloca %"class.std::map"*, align 8
  store %"class.std::map"* %this, %"class.std::map"** %this.addr, align 8
  call void @llvm.dbg.declare(metadata %"class.std::map"** %this.addr, metadata !2510, metadata !DIExpression()), !dbg !2512
  %this1 = load %"class.std::map"*, %"class.std::map"** %this.addr, align 8
  %_M_t = getelementptr inbounds %"class.std::map", %"class.std::map"* %this1, i32 0, i32 0, !dbg !2513
  %call = call zeroext i1 @_ZNKSt8_Rb_treeIPcSt4pairIKS0_iESt10_Select1stIS3_EN11cStringPool7strlessESaIS3_EE5emptyEv(%"class.std::_Rb_tree"* %_M_t) #3, !dbg !2514
  ret i1 %call, !dbg !2515
}

declare dso_local i32 @printf(i8*, ...) #1

; Function Attrs: nounwind
declare dso_local i8* @_ZNKSt7__cxx1112basic_stringIcSt11char_traitsIcESaIcEE5c_strEv(%"class.std::__cxx11::basic_string"*) #2

; Function Attrs: noinline nounwind uwtable
define linkonce_odr dso_local %"struct.std::_Rb_tree_node_base"* @_ZNKSt3mapIPciN11cStringPool7strlessESaISt4pairIKS0_iEEE5beginEv(%"class.std::map"* %this) #5 comdat align 2 !dbg !2516 {
entry:
  %retval = alloca %"struct.std::_Rb_tree_const_iterator", align 8
  %this.addr = alloca %"class.std::map"*, align 8
  store %"class.std::map"* %this, %"class.std::map"** %this.addr, align 8
  call void @llvm.dbg.declare(metadata %"class.std::map"** %this.addr, metadata !2517, metadata !DIExpression()), !dbg !2518
  %this1 = load %"class.std::map"*, %"class.std::map"** %this.addr, align 8
  %_M_t = getelementptr inbounds %"class.std::map", %"class.std::map"* %this1, i32 0, i32 0, !dbg !2519
  %call = call %"struct.std::_Rb_tree_node_base"* @_ZNKSt8_Rb_treeIPcSt4pairIKS0_iESt10_Select1stIS3_EN11cStringPool7strlessESaIS3_EE5beginEv(%"class.std::_Rb_tree"* %_M_t) #3, !dbg !2520
  %coerce.dive = getelementptr inbounds %"struct.std::_Rb_tree_const_iterator", %"struct.std::_Rb_tree_const_iterator"* %retval, i32 0, i32 0, !dbg !2520
  store %"struct.std::_Rb_tree_node_base"* %call, %"struct.std::_Rb_tree_node_base"** %coerce.dive, align 8, !dbg !2520
  %coerce.dive2 = getelementptr inbounds %"struct.std::_Rb_tree_const_iterator", %"struct.std::_Rb_tree_const_iterator"* %retval, i32 0, i32 0, !dbg !2521
  %0 = load %"struct.std::_Rb_tree_node_base"*, %"struct.std::_Rb_tree_node_base"** %coerce.dive2, align 8, !dbg !2521
  ret %"struct.std::_Rb_tree_node_base"* %0, !dbg !2521
}

; Function Attrs: noinline nounwind uwtable
define linkonce_odr dso_local zeroext i1 @_ZStneRKSt23_Rb_tree_const_iteratorISt4pairIKPciEES6_(%"struct.std::_Rb_tree_const_iterator"* dereferenceable(8) %__x, %"struct.std::_Rb_tree_const_iterator"* dereferenceable(8) %__y) #5 comdat !dbg !2522 {
entry:
  %__x.addr = alloca %"struct.std::_Rb_tree_const_iterator"*, align 8
  %__y.addr = alloca %"struct.std::_Rb_tree_const_iterator"*, align 8
  store %"struct.std::_Rb_tree_const_iterator"* %__x, %"struct.std::_Rb_tree_const_iterator"** %__x.addr, align 8
  call void @llvm.dbg.declare(metadata %"struct.std::_Rb_tree_const_iterator"** %__x.addr, metadata !2527, metadata !DIExpression()), !dbg !2528
  store %"struct.std::_Rb_tree_const_iterator"* %__y, %"struct.std::_Rb_tree_const_iterator"** %__y.addr, align 8
  call void @llvm.dbg.declare(metadata %"struct.std::_Rb_tree_const_iterator"** %__y.addr, metadata !2529, metadata !DIExpression()), !dbg !2530
  %0 = load %"struct.std::_Rb_tree_const_iterator"*, %"struct.std::_Rb_tree_const_iterator"** %__x.addr, align 8, !dbg !2531
  %_M_node = getelementptr inbounds %"struct.std::_Rb_tree_const_iterator", %"struct.std::_Rb_tree_const_iterator"* %0, i32 0, i32 0, !dbg !2532
  %1 = load %"struct.std::_Rb_tree_node_base"*, %"struct.std::_Rb_tree_node_base"** %_M_node, align 8, !dbg !2532
  %2 = load %"struct.std::_Rb_tree_const_iterator"*, %"struct.std::_Rb_tree_const_iterator"** %__y.addr, align 8, !dbg !2533
  %_M_node1 = getelementptr inbounds %"struct.std::_Rb_tree_const_iterator", %"struct.std::_Rb_tree_const_iterator"* %2, i32 0, i32 0, !dbg !2534
  %3 = load %"struct.std::_Rb_tree_node_base"*, %"struct.std::_Rb_tree_node_base"** %_M_node1, align 8, !dbg !2534
  %cmp = icmp ne %"struct.std::_Rb_tree_node_base"* %1, %3, !dbg !2535
  ret i1 %cmp, !dbg !2536
}

; Function Attrs: noinline nounwind uwtable
define linkonce_odr dso_local %"struct.std::_Rb_tree_node_base"* @_ZNKSt3mapIPciN11cStringPool7strlessESaISt4pairIKS0_iEEE3endEv(%"class.std::map"* %this) #5 comdat align 2 !dbg !2537 {
entry:
  %retval = alloca %"struct.std::_Rb_tree_const_iterator", align 8
  %this.addr = alloca %"class.std::map"*, align 8
  store %"class.std::map"* %this, %"class.std::map"** %this.addr, align 8
  call void @llvm.dbg.declare(metadata %"class.std::map"** %this.addr, metadata !2538, metadata !DIExpression()), !dbg !2539
  %this1 = load %"class.std::map"*, %"class.std::map"** %this.addr, align 8
  %_M_t = getelementptr inbounds %"class.std::map", %"class.std::map"* %this1, i32 0, i32 0, !dbg !2540
  %call = call %"struct.std::_Rb_tree_node_base"* @_ZNKSt8_Rb_treeIPcSt4pairIKS0_iESt10_Select1stIS3_EN11cStringPool7strlessESaIS3_EE3endEv(%"class.std::_Rb_tree"* %_M_t) #3, !dbg !2541
  %coerce.dive = getelementptr inbounds %"struct.std::_Rb_tree_const_iterator", %"struct.std::_Rb_tree_const_iterator"* %retval, i32 0, i32 0, !dbg !2541
  store %"struct.std::_Rb_tree_node_base"* %call, %"struct.std::_Rb_tree_node_base"** %coerce.dive, align 8, !dbg !2541
  %coerce.dive2 = getelementptr inbounds %"struct.std::_Rb_tree_const_iterator", %"struct.std::_Rb_tree_const_iterator"* %retval, i32 0, i32 0, !dbg !2542
  %0 = load %"struct.std::_Rb_tree_node_base"*, %"struct.std::_Rb_tree_node_base"** %coerce.dive2, align 8, !dbg !2542
  ret %"struct.std::_Rb_tree_node_base"* %0, !dbg !2542
}

; Function Attrs: noinline nounwind uwtable
define linkonce_odr dso_local %"struct.std::pair"* @_ZNKSt23_Rb_tree_const_iteratorISt4pairIKPciEEptEv(%"struct.std::_Rb_tree_const_iterator"* %this) #5 comdat align 2 personality i8* bitcast (i32 (...)* @__gxx_personality_v0 to i8*) !dbg !2543 {
entry:
  %this.addr = alloca %"struct.std::_Rb_tree_const_iterator"*, align 8
  store %"struct.std::_Rb_tree_const_iterator"* %this, %"struct.std::_Rb_tree_const_iterator"** %this.addr, align 8
  call void @llvm.dbg.declare(metadata %"struct.std::_Rb_tree_const_iterator"** %this.addr, metadata !2544, metadata !DIExpression()), !dbg !2546
  %this1 = load %"struct.std::_Rb_tree_const_iterator"*, %"struct.std::_Rb_tree_const_iterator"** %this.addr, align 8
  %_M_node = getelementptr inbounds %"struct.std::_Rb_tree_const_iterator", %"struct.std::_Rb_tree_const_iterator"* %this1, i32 0, i32 0, !dbg !2547
  %0 = load %"struct.std::_Rb_tree_node_base"*, %"struct.std::_Rb_tree_node_base"** %_M_node, align 8, !dbg !2547
  %1 = bitcast %"struct.std::_Rb_tree_node_base"* %0 to %"struct.std::_Rb_tree_node"*, !dbg !2548
  %call = invoke %"struct.std::pair"* @_ZNKSt13_Rb_tree_nodeISt4pairIKPciEE9_M_valptrEv(%"struct.std::_Rb_tree_node"* %1)
          to label %invoke.cont unwind label %terminate.lpad, !dbg !2549

invoke.cont:                                      ; preds = %entry
  ret %"struct.std::pair"* %call, !dbg !2550

terminate.lpad:                                   ; preds = %entry
  %2 = landingpad { i8*, i32 }
          catch i8* null, !dbg !2549
  %3 = extractvalue { i8*, i32 } %2, 0, !dbg !2549
  call void @__clang_call_terminate(i8* %3) #13, !dbg !2549
  unreachable, !dbg !2549
}

; Function Attrs: noinline nounwind uwtable
define linkonce_odr dso_local dereferenceable(8) %"struct.std::_Rb_tree_const_iterator"* @_ZNSt23_Rb_tree_const_iteratorISt4pairIKPciEEppEv(%"struct.std::_Rb_tree_const_iterator"* %this) #5 comdat align 2 !dbg !2551 {
entry:
  %this.addr = alloca %"struct.std::_Rb_tree_const_iterator"*, align 8
  store %"struct.std::_Rb_tree_const_iterator"* %this, %"struct.std::_Rb_tree_const_iterator"** %this.addr, align 8
  call void @llvm.dbg.declare(metadata %"struct.std::_Rb_tree_const_iterator"** %this.addr, metadata !2552, metadata !DIExpression()), !dbg !2554
  %this1 = load %"struct.std::_Rb_tree_const_iterator"*, %"struct.std::_Rb_tree_const_iterator"** %this.addr, align 8
  %_M_node = getelementptr inbounds %"struct.std::_Rb_tree_const_iterator", %"struct.std::_Rb_tree_const_iterator"* %this1, i32 0, i32 0, !dbg !2555
  %0 = load %"struct.std::_Rb_tree_node_base"*, %"struct.std::_Rb_tree_node_base"** %_M_node, align 8, !dbg !2555
  %call = call %"struct.std::_Rb_tree_node_base"* @_ZSt18_Rb_tree_incrementPKSt18_Rb_tree_node_base(%"struct.std::_Rb_tree_node_base"* %0) #14, !dbg !2556
  %_M_node2 = getelementptr inbounds %"struct.std::_Rb_tree_const_iterator", %"struct.std::_Rb_tree_const_iterator"* %this1, i32 0, i32 0, !dbg !2557
  store %"struct.std::_Rb_tree_node_base"* %call, %"struct.std::_Rb_tree_node_base"** %_M_node2, align 8, !dbg !2558
  ret %"struct.std::_Rb_tree_const_iterator"* %this1, !dbg !2559
}

; Function Attrs: noinline uwtable
define dso_local i8* @_ZN11cStringPool3getEPKc(%class.cStringPool* %this, i8* %s) #0 align 2 !dbg !2560 {
entry:
  %retval = alloca i8*, align 8
  %this.addr = alloca %class.cStringPool*, align 8
  %s.addr = alloca i8*, align 8
  %it = alloca %"struct.std::_Rb_tree_iterator", align 8
  %ref.tmp = alloca i8*, align 8
  %ref.tmp7 = alloca %"struct.std::_Rb_tree_iterator", align 8
  %str = alloca i8*, align 8
  store %class.cStringPool* %this, %class.cStringPool** %this.addr, align 8
  call void @llvm.dbg.declare(metadata %class.cStringPool** %this.addr, metadata !2561, metadata !DIExpression()), !dbg !2562
  store i8* %s, i8** %s.addr, align 8
  call void @llvm.dbg.declare(metadata i8** %s.addr, metadata !2563, metadata !DIExpression()), !dbg !2564
  %this1 = load %class.cStringPool*, %class.cStringPool** %this.addr, align 8
  %call = call zeroext i1 @_ZN11cStaticFlag5isSetEv(), !dbg !2565
  br i1 %call, label %if.end, label %if.then, !dbg !2567

if.then:                                          ; preds = %entry
  %0 = load %struct._IO_FILE*, %struct._IO_FILE** @stderr, align 8, !dbg !2568
  %1 = load i8*, i8** %s.addr, align 8, !dbg !2570
  %call2 = call i32 (%struct._IO_FILE*, i8*, ...) @fprintf(%struct._IO_FILE* %0, i8* getelementptr inbounds ([106 x i8], [106 x i8]* @.str.2, i64 0, i64 0), i8* %1), !dbg !2571
  %2 = load i8*, i8** %s.addr, align 8, !dbg !2572
  %call3 = call i8* @_Z10opp_strdupPKc(i8* %2), !dbg !2573
  store i8* %call3, i8** %retval, align 8, !dbg !2574
  br label %return, !dbg !2574

if.end:                                           ; preds = %entry
  %3 = load i8*, i8** %s.addr, align 8, !dbg !2575
  %tobool = icmp ne i8* %3, null, !dbg !2575
  br i1 %tobool, label %if.end5, label %if.then4, !dbg !2577

if.then4:                                         ; preds = %if.end
  store i8* null, i8** %retval, align 8, !dbg !2578
  br label %return, !dbg !2578

if.end5:                                          ; preds = %if.end
  call void @llvm.dbg.declare(metadata %"struct.std::_Rb_tree_iterator"* %it, metadata !2579, metadata !DIExpression()), !dbg !2580
  %pool = getelementptr inbounds %class.cStringPool, %class.cStringPool* %this1, i32 0, i32 1, !dbg !2581
  %4 = load i8*, i8** %s.addr, align 8, !dbg !2582
  store i8* %4, i8** %ref.tmp, align 8, !dbg !2583
  %call6 = call %"struct.std::_Rb_tree_node_base"* @_ZNSt3mapIPciN11cStringPool7strlessESaISt4pairIKS0_iEEE4findERS4_(%"class.std::map"* %pool, i8** dereferenceable(8) %ref.tmp), !dbg !2584
  %coerce.dive = getelementptr inbounds %"struct.std::_Rb_tree_iterator", %"struct.std::_Rb_tree_iterator"* %it, i32 0, i32 0, !dbg !2584
  store %"struct.std::_Rb_tree_node_base"* %call6, %"struct.std::_Rb_tree_node_base"** %coerce.dive, align 8, !dbg !2584
  %pool8 = getelementptr inbounds %class.cStringPool, %class.cStringPool* %this1, i32 0, i32 1, !dbg !2585
  %call9 = call %"struct.std::_Rb_tree_node_base"* @_ZNSt3mapIPciN11cStringPool7strlessESaISt4pairIKS0_iEEE3endEv(%"class.std::map"* %pool8) #3, !dbg !2587
  %coerce.dive10 = getelementptr inbounds %"struct.std::_Rb_tree_iterator", %"struct.std::_Rb_tree_iterator"* %ref.tmp7, i32 0, i32 0, !dbg !2587
  store %"struct.std::_Rb_tree_node_base"* %call9, %"struct.std::_Rb_tree_node_base"** %coerce.dive10, align 8, !dbg !2587
  %call11 = call zeroext i1 @_ZSteqRKSt17_Rb_tree_iteratorISt4pairIKPciEES6_(%"struct.std::_Rb_tree_iterator"* dereferenceable(8) %it, %"struct.std::_Rb_tree_iterator"* dereferenceable(8) %ref.tmp7) #3, !dbg !2588
  br i1 %call11, label %if.then12, label %if.else, !dbg !2589

if.then12:                                        ; preds = %if.end5
  call void @llvm.dbg.declare(metadata i8** %str, metadata !2590, metadata !DIExpression()), !dbg !2592
  %5 = load i8*, i8** %s.addr, align 8, !dbg !2593
  %call13 = call i64 @strlen(i8* %5) #14, !dbg !2594
  %add = add i64 %call13, 1, !dbg !2595
  %call14 = call i8* @_Znam(i64 %add) #15, !dbg !2596
  store i8* %call14, i8** %str, align 8, !dbg !2592
  %6 = load i8*, i8** %str, align 8, !dbg !2597
  %7 = load i8*, i8** %s.addr, align 8, !dbg !2598
  %call15 = call i8* @strcpy(i8* %6, i8* %7) #3, !dbg !2599
  %pool16 = getelementptr inbounds %class.cStringPool, %class.cStringPool* %this1, i32 0, i32 1, !dbg !2600
  %call17 = call dereferenceable(4) i32* @_ZNSt3mapIPciN11cStringPool7strlessESaISt4pairIKS0_iEEEixERS4_(%"class.std::map"* %pool16, i8** dereferenceable(8) %str), !dbg !2600
  store i32 1, i32* %call17, align 4, !dbg !2601
  %8 = load i8*, i8** %str, align 8, !dbg !2602
  store i8* %8, i8** %retval, align 8, !dbg !2603
  br label %return, !dbg !2603

if.else:                                          ; preds = %if.end5
  %call18 = call %"struct.std::pair"* @_ZNKSt17_Rb_tree_iteratorISt4pairIKPciEEptEv(%"struct.std::_Rb_tree_iterator"* %it) #3, !dbg !2604
  %second = getelementptr inbounds %"struct.std::pair", %"struct.std::pair"* %call18, i32 0, i32 1, !dbg !2606
  %9 = load i32, i32* %second, align 8, !dbg !2607
  %inc = add nsw i32 %9, 1, !dbg !2607
  store i32 %inc, i32* %second, align 8, !dbg !2607
  %call19 = call %"struct.std::pair"* @_ZNKSt17_Rb_tree_iteratorISt4pairIKPciEEptEv(%"struct.std::_Rb_tree_iterator"* %it) #3, !dbg !2608
  %first = getelementptr inbounds %"struct.std::pair", %"struct.std::pair"* %call19, i32 0, i32 0, !dbg !2609
  %10 = load i8*, i8** %first, align 8, !dbg !2609
  store i8* %10, i8** %retval, align 8, !dbg !2610
  br label %return, !dbg !2610

return:                                           ; preds = %if.else, %if.then12, %if.then4, %if.then
  %11 = load i8*, i8** %retval, align 8, !dbg !2611
  ret i8* %11, !dbg !2611
}

; Function Attrs: noinline nounwind uwtable
define linkonce_odr dso_local zeroext i1 @_ZN11cStaticFlag5isSetEv() #5 comdat align 2 !dbg !2612 {
entry:
  %0 = load i8, i8* @_ZN11cStaticFlag10staticflagE, align 1, !dbg !2626
  %tobool = trunc i8 %0 to i1, !dbg !2626
  ret i1 %tobool, !dbg !2627
}

declare dso_local i32 @fprintf(%struct._IO_FILE*, i8*, ...) #1

; Function Attrs: noinline uwtable
define linkonce_odr dso_local i8* @_Z10opp_strdupPKc(i8* %s) #0 comdat !dbg !2628 {
entry:
  %retval = alloca i8*, align 8
  %s.addr = alloca i8*, align 8
  %p = alloca i8*, align 8
  store i8* %s, i8** %s.addr, align 8
  call void @llvm.dbg.declare(metadata i8** %s.addr, metadata !2630, metadata !DIExpression()), !dbg !2631
  %0 = load i8*, i8** %s.addr, align 8, !dbg !2632
  %tobool = icmp ne i8* %0, null, !dbg !2632
  br i1 %tobool, label %lor.lhs.false, label %if.then, !dbg !2634

lor.lhs.false:                                    ; preds = %entry
  %1 = load i8*, i8** %s.addr, align 8, !dbg !2635
  %arrayidx = getelementptr inbounds i8, i8* %1, i64 0, !dbg !2635
  %2 = load i8, i8* %arrayidx, align 1, !dbg !2635
  %tobool1 = icmp ne i8 %2, 0, !dbg !2635
  br i1 %tobool1, label %if.end, label %if.then, !dbg !2636

if.then:                                          ; preds = %lor.lhs.false, %entry
  store i8* null, i8** %retval, align 8, !dbg !2637
  br label %return, !dbg !2637

if.end:                                           ; preds = %lor.lhs.false
  call void @llvm.dbg.declare(metadata i8** %p, metadata !2638, metadata !DIExpression()), !dbg !2639
  %3 = load i8*, i8** %s.addr, align 8, !dbg !2640
  %call = call i64 @strlen(i8* %3) #14, !dbg !2641
  %add = add i64 %call, 1, !dbg !2642
  %call2 = call i8* @_Znam(i64 %add) #15, !dbg !2643
  store i8* %call2, i8** %p, align 8, !dbg !2639
  %4 = load i8*, i8** %p, align 8, !dbg !2644
  %5 = load i8*, i8** %s.addr, align 8, !dbg !2645
  %call3 = call i8* @strcpy(i8* %4, i8* %5) #3, !dbg !2646
  %6 = load i8*, i8** %p, align 8, !dbg !2647
  store i8* %6, i8** %retval, align 8, !dbg !2648
  br label %return, !dbg !2648

return:                                           ; preds = %if.end, %if.then
  %7 = load i8*, i8** %retval, align 8, !dbg !2649
  ret i8* %7, !dbg !2649
}

; Function Attrs: noinline uwtable
define linkonce_odr dso_local %"struct.std::_Rb_tree_node_base"* @_ZNSt3mapIPciN11cStringPool7strlessESaISt4pairIKS0_iEEE4findERS4_(%"class.std::map"* %this, i8** dereferenceable(8) %__x) #0 comdat align 2 !dbg !2650 {
entry:
  %retval = alloca %"struct.std::_Rb_tree_iterator", align 8
  %this.addr = alloca %"class.std::map"*, align 8
  %__x.addr = alloca i8**, align 8
  store %"class.std::map"* %this, %"class.std::map"** %this.addr, align 8
  call void @llvm.dbg.declare(metadata %"class.std::map"** %this.addr, metadata !2651, metadata !DIExpression()), !dbg !2652
  store i8** %__x, i8*** %__x.addr, align 8
  call void @llvm.dbg.declare(metadata i8*** %__x.addr, metadata !2653, metadata !DIExpression()), !dbg !2654
  %this1 = load %"class.std::map"*, %"class.std::map"** %this.addr, align 8
  %_M_t = getelementptr inbounds %"class.std::map", %"class.std::map"* %this1, i32 0, i32 0, !dbg !2655
  %0 = load i8**, i8*** %__x.addr, align 8, !dbg !2656
  %call = call %"struct.std::_Rb_tree_node_base"* @_ZNSt8_Rb_treeIPcSt4pairIKS0_iESt10_Select1stIS3_EN11cStringPool7strlessESaIS3_EE4findERS2_(%"class.std::_Rb_tree"* %_M_t, i8** dereferenceable(8) %0), !dbg !2657
  %coerce.dive = getelementptr inbounds %"struct.std::_Rb_tree_iterator", %"struct.std::_Rb_tree_iterator"* %retval, i32 0, i32 0, !dbg !2657
  store %"struct.std::_Rb_tree_node_base"* %call, %"struct.std::_Rb_tree_node_base"** %coerce.dive, align 8, !dbg !2657
  %coerce.dive2 = getelementptr inbounds %"struct.std::_Rb_tree_iterator", %"struct.std::_Rb_tree_iterator"* %retval, i32 0, i32 0, !dbg !2658
  %1 = load %"struct.std::_Rb_tree_node_base"*, %"struct.std::_Rb_tree_node_base"** %coerce.dive2, align 8, !dbg !2658
  ret %"struct.std::_Rb_tree_node_base"* %1, !dbg !2658
}

; Function Attrs: noinline nounwind uwtable
define linkonce_odr dso_local zeroext i1 @_ZSteqRKSt17_Rb_tree_iteratorISt4pairIKPciEES6_(%"struct.std::_Rb_tree_iterator"* dereferenceable(8) %__x, %"struct.std::_Rb_tree_iterator"* dereferenceable(8) %__y) #5 comdat !dbg !2659 {
entry:
  %__x.addr = alloca %"struct.std::_Rb_tree_iterator"*, align 8
  %__y.addr = alloca %"struct.std::_Rb_tree_iterator"*, align 8
  store %"struct.std::_Rb_tree_iterator"* %__x, %"struct.std::_Rb_tree_iterator"** %__x.addr, align 8
  call void @llvm.dbg.declare(metadata %"struct.std::_Rb_tree_iterator"** %__x.addr, metadata !2664, metadata !DIExpression()), !dbg !2665
  store %"struct.std::_Rb_tree_iterator"* %__y, %"struct.std::_Rb_tree_iterator"** %__y.addr, align 8
  call void @llvm.dbg.declare(metadata %"struct.std::_Rb_tree_iterator"** %__y.addr, metadata !2666, metadata !DIExpression()), !dbg !2667
  %0 = load %"struct.std::_Rb_tree_iterator"*, %"struct.std::_Rb_tree_iterator"** %__x.addr, align 8, !dbg !2668
  %_M_node = getelementptr inbounds %"struct.std::_Rb_tree_iterator", %"struct.std::_Rb_tree_iterator"* %0, i32 0, i32 0, !dbg !2669
  %1 = load %"struct.std::_Rb_tree_node_base"*, %"struct.std::_Rb_tree_node_base"** %_M_node, align 8, !dbg !2669
  %2 = load %"struct.std::_Rb_tree_iterator"*, %"struct.std::_Rb_tree_iterator"** %__y.addr, align 8, !dbg !2670
  %_M_node1 = getelementptr inbounds %"struct.std::_Rb_tree_iterator", %"struct.std::_Rb_tree_iterator"* %2, i32 0, i32 0, !dbg !2671
  %3 = load %"struct.std::_Rb_tree_node_base"*, %"struct.std::_Rb_tree_node_base"** %_M_node1, align 8, !dbg !2671
  %cmp = icmp eq %"struct.std::_Rb_tree_node_base"* %1, %3, !dbg !2672
  ret i1 %cmp, !dbg !2673
}

; Function Attrs: noinline nounwind uwtable
define linkonce_odr dso_local %"struct.std::_Rb_tree_node_base"* @_ZNSt3mapIPciN11cStringPool7strlessESaISt4pairIKS0_iEEE3endEv(%"class.std::map"* %this) #5 comdat align 2 !dbg !2674 {
entry:
  %retval = alloca %"struct.std::_Rb_tree_iterator", align 8
  %this.addr = alloca %"class.std::map"*, align 8
  store %"class.std::map"* %this, %"class.std::map"** %this.addr, align 8
  call void @llvm.dbg.declare(metadata %"class.std::map"** %this.addr, metadata !2675, metadata !DIExpression()), !dbg !2676
  %this1 = load %"class.std::map"*, %"class.std::map"** %this.addr, align 8
  %_M_t = getelementptr inbounds %"class.std::map", %"class.std::map"* %this1, i32 0, i32 0, !dbg !2677
  %call = call %"struct.std::_Rb_tree_node_base"* @_ZNSt8_Rb_treeIPcSt4pairIKS0_iESt10_Select1stIS3_EN11cStringPool7strlessESaIS3_EE3endEv(%"class.std::_Rb_tree"* %_M_t) #3, !dbg !2678
  %coerce.dive = getelementptr inbounds %"struct.std::_Rb_tree_iterator", %"struct.std::_Rb_tree_iterator"* %retval, i32 0, i32 0, !dbg !2678
  store %"struct.std::_Rb_tree_node_base"* %call, %"struct.std::_Rb_tree_node_base"** %coerce.dive, align 8, !dbg !2678
  %coerce.dive2 = getelementptr inbounds %"struct.std::_Rb_tree_iterator", %"struct.std::_Rb_tree_iterator"* %retval, i32 0, i32 0, !dbg !2679
  %0 = load %"struct.std::_Rb_tree_node_base"*, %"struct.std::_Rb_tree_node_base"** %coerce.dive2, align 8, !dbg !2679
  ret %"struct.std::_Rb_tree_node_base"* %0, !dbg !2679
}

; Function Attrs: nounwind readonly
declare dso_local i64 @strlen(i8*) #6

; Function Attrs: nobuiltin
declare dso_local noalias i8* @_Znam(i64) #7

; Function Attrs: nounwind
declare dso_local i8* @strcpy(i8*, i8*) #2

; Function Attrs: noinline uwtable
define linkonce_odr dso_local dereferenceable(4) i32* @_ZNSt3mapIPciN11cStringPool7strlessESaISt4pairIKS0_iEEEixERS4_(%"class.std::map"* %this, i8** dereferenceable(8) %__k) #0 comdat align 2 !dbg !2680 {
entry:
  %this.addr = alloca %"class.std::map"*, align 8
  %__k.addr = alloca i8**, align 8
  %__i = alloca %"struct.std::_Rb_tree_iterator", align 8
  %ref.tmp = alloca %"struct.std::_Rb_tree_iterator", align 8
  %ref.tmp5 = alloca %"struct.cStringPool::strless", align 1
  %undef.agg.tmp = alloca %"struct.cStringPool::strless", align 1
  %ref.tmp8 = alloca %"struct.std::_Rb_tree_iterator", align 8
  %agg.tmp = alloca %"struct.std::_Rb_tree_const_iterator", align 8
  %ref.tmp9 = alloca %"class.std::tuple", align 8
  %ref.tmp10 = alloca %"class.std::tuple.3", align 1
  store %"class.std::map"* %this, %"class.std::map"** %this.addr, align 8
  call void @llvm.dbg.declare(metadata %"class.std::map"** %this.addr, metadata !2681, metadata !DIExpression()), !dbg !2682
  store i8** %__k, i8*** %__k.addr, align 8
  call void @llvm.dbg.declare(metadata i8*** %__k.addr, metadata !2683, metadata !DIExpression()), !dbg !2684
  %this1 = load %"class.std::map"*, %"class.std::map"** %this.addr, align 8
  call void @llvm.dbg.declare(metadata %"struct.std::_Rb_tree_iterator"* %__i, metadata !2685, metadata !DIExpression()), !dbg !2686
  %0 = load i8**, i8*** %__k.addr, align 8, !dbg !2687
  %call = call %"struct.std::_Rb_tree_node_base"* @_ZNSt3mapIPciN11cStringPool7strlessESaISt4pairIKS0_iEEE11lower_boundERS4_(%"class.std::map"* %this1, i8** dereferenceable(8) %0), !dbg !2688
  %coerce.dive = getelementptr inbounds %"struct.std::_Rb_tree_iterator", %"struct.std::_Rb_tree_iterator"* %__i, i32 0, i32 0, !dbg !2688
  store %"struct.std::_Rb_tree_node_base"* %call, %"struct.std::_Rb_tree_node_base"** %coerce.dive, align 8, !dbg !2688
  %call2 = call %"struct.std::_Rb_tree_node_base"* @_ZNSt3mapIPciN11cStringPool7strlessESaISt4pairIKS0_iEEE3endEv(%"class.std::map"* %this1) #3, !dbg !2689
  %coerce.dive3 = getelementptr inbounds %"struct.std::_Rb_tree_iterator", %"struct.std::_Rb_tree_iterator"* %ref.tmp, i32 0, i32 0, !dbg !2689
  store %"struct.std::_Rb_tree_node_base"* %call2, %"struct.std::_Rb_tree_node_base"** %coerce.dive3, align 8, !dbg !2689
  %call4 = call zeroext i1 @_ZSteqRKSt17_Rb_tree_iteratorISt4pairIKPciEES6_(%"struct.std::_Rb_tree_iterator"* dereferenceable(8) %__i, %"struct.std::_Rb_tree_iterator"* dereferenceable(8) %ref.tmp) #3, !dbg !2691
  br i1 %call4, label %lor.end, label %lor.rhs, !dbg !2692

lor.rhs:                                          ; preds = %entry
  call void @_ZNKSt3mapIPciN11cStringPool7strlessESaISt4pairIKS0_iEEE8key_compEv(%"class.std::map"* %this1), !dbg !2693
  %1 = load i8**, i8*** %__k.addr, align 8, !dbg !2694
  %2 = load i8*, i8** %1, align 8, !dbg !2694
  %call6 = call dereferenceable(16) %"struct.std::pair"* @_ZNKSt17_Rb_tree_iteratorISt4pairIKPciEEdeEv(%"struct.std::_Rb_tree_iterator"* %__i) #3, !dbg !2695
  %first = getelementptr inbounds %"struct.std::pair", %"struct.std::pair"* %call6, i32 0, i32 0, !dbg !2696
  %3 = load i8*, i8** %first, align 8, !dbg !2696
  %call7 = call zeroext i1 @_ZNK11cStringPool7strlessclEPKcS2_(%"struct.cStringPool::strless"* %ref.tmp5, i8* %2, i8* %3), !dbg !2693
  br label %lor.end, !dbg !2692

lor.end:                                          ; preds = %lor.rhs, %entry
  %4 = phi i1 [ true, %entry ], [ %call7, %lor.rhs ]
  br i1 %4, label %if.then, label %if.end, !dbg !2697

if.then:                                          ; preds = %lor.end
  %_M_t = getelementptr inbounds %"class.std::map", %"class.std::map"* %this1, i32 0, i32 0, !dbg !2698
  call void @_ZNSt23_Rb_tree_const_iteratorISt4pairIKPciEEC2ERKSt17_Rb_tree_iteratorIS3_E(%"struct.std::_Rb_tree_const_iterator"* %agg.tmp, %"struct.std::_Rb_tree_iterator"* dereferenceable(8) %__i) #3, !dbg !2699
  %5 = load i8**, i8*** %__k.addr, align 8, !dbg !2700
  call void @_ZNSt5tupleIJRKPcEEC2ILb1ELb1EEES2_(%"class.std::tuple"* %ref.tmp9, i8** dereferenceable(8) %5) #3, !dbg !2701
  %coerce.dive11 = getelementptr inbounds %"struct.std::_Rb_tree_const_iterator", %"struct.std::_Rb_tree_const_iterator"* %agg.tmp, i32 0, i32 0, !dbg !2702
  %6 = load %"struct.std::_Rb_tree_node_base"*, %"struct.std::_Rb_tree_node_base"** %coerce.dive11, align 8, !dbg !2702
  %call12 = call %"struct.std::_Rb_tree_node_base"* @_ZNSt8_Rb_treeIPcSt4pairIKS0_iESt10_Select1stIS3_EN11cStringPool7strlessESaIS3_EE22_M_emplace_hint_uniqueIJRKSt21piecewise_construct_tSt5tupleIJRS2_EESE_IJEEEEESt17_Rb_tree_iteratorIS3_ESt23_Rb_tree_const_iteratorIS3_EDpOT_(%"class.std::_Rb_tree"* %_M_t, %"struct.std::_Rb_tree_node_base"* %6, %"struct.std::piecewise_construct_t"* dereferenceable(1) @_ZStL19piecewise_construct, %"class.std::tuple"* dereferenceable(8) %ref.tmp9, %"class.std::tuple.3"* dereferenceable(1) %ref.tmp10), !dbg !2702
  %coerce.dive13 = getelementptr inbounds %"struct.std::_Rb_tree_iterator", %"struct.std::_Rb_tree_iterator"* %ref.tmp8, i32 0, i32 0, !dbg !2702
  store %"struct.std::_Rb_tree_node_base"* %call12, %"struct.std::_Rb_tree_node_base"** %coerce.dive13, align 8, !dbg !2702
  %7 = bitcast %"struct.std::_Rb_tree_iterator"* %__i to i8*, !dbg !2703
  %8 = bitcast %"struct.std::_Rb_tree_iterator"* %ref.tmp8 to i8*, !dbg !2703
  call void @llvm.memcpy.p0i8.p0i8.i64(i8* align 8 %7, i8* align 8 %8, i64 8, i1 false), !dbg !2703
  br label %if.end, !dbg !2704

if.end:                                           ; preds = %if.then, %lor.end
  %call14 = call dereferenceable(16) %"struct.std::pair"* @_ZNKSt17_Rb_tree_iteratorISt4pairIKPciEEdeEv(%"struct.std::_Rb_tree_iterator"* %__i) #3, !dbg !2705
  %second = getelementptr inbounds %"struct.std::pair", %"struct.std::pair"* %call14, i32 0, i32 1, !dbg !2706
  ret i32* %second, !dbg !2707
}

; Function Attrs: noinline nounwind uwtable
define linkonce_odr dso_local %"struct.std::pair"* @_ZNKSt17_Rb_tree_iteratorISt4pairIKPciEEptEv(%"struct.std::_Rb_tree_iterator"* %this) #5 comdat align 2 personality i8* bitcast (i32 (...)* @__gxx_personality_v0 to i8*) !dbg !2708 {
entry:
  %this.addr = alloca %"struct.std::_Rb_tree_iterator"*, align 8
  store %"struct.std::_Rb_tree_iterator"* %this, %"struct.std::_Rb_tree_iterator"** %this.addr, align 8
  call void @llvm.dbg.declare(metadata %"struct.std::_Rb_tree_iterator"** %this.addr, metadata !2709, metadata !DIExpression()), !dbg !2711
  %this1 = load %"struct.std::_Rb_tree_iterator"*, %"struct.std::_Rb_tree_iterator"** %this.addr, align 8
  %_M_node = getelementptr inbounds %"struct.std::_Rb_tree_iterator", %"struct.std::_Rb_tree_iterator"* %this1, i32 0, i32 0, !dbg !2712
  %0 = load %"struct.std::_Rb_tree_node_base"*, %"struct.std::_Rb_tree_node_base"** %_M_node, align 8, !dbg !2712
  %1 = bitcast %"struct.std::_Rb_tree_node_base"* %0 to %"struct.std::_Rb_tree_node"*, !dbg !2713
  %call = invoke %"struct.std::pair"* @_ZNSt13_Rb_tree_nodeISt4pairIKPciEE9_M_valptrEv(%"struct.std::_Rb_tree_node"* %1)
          to label %invoke.cont unwind label %terminate.lpad, !dbg !2714

invoke.cont:                                      ; preds = %entry
  ret %"struct.std::pair"* %call, !dbg !2715

terminate.lpad:                                   ; preds = %entry
  %2 = landingpad { i8*, i32 }
          catch i8* null, !dbg !2714
  %3 = extractvalue { i8*, i32 } %2, 0, !dbg !2714
  call void @__clang_call_terminate(i8* %3) #13, !dbg !2714
  unreachable, !dbg !2714
}

; Function Attrs: noinline uwtable
define dso_local i8* @_ZNK11cStringPool4peekEPKc(%class.cStringPool* %this, i8* %s) #0 align 2 !dbg !2716 {
entry:
  %retval = alloca i8*, align 8
  %this.addr = alloca %class.cStringPool*, align 8
  %s.addr = alloca i8*, align 8
  %it = alloca %"struct.std::_Rb_tree_const_iterator", align 8
  %ref.tmp = alloca i8*, align 8
  %ref.tmp6 = alloca %"struct.std::_Rb_tree_const_iterator", align 8
  store %class.cStringPool* %this, %class.cStringPool** %this.addr, align 8
  call void @llvm.dbg.declare(metadata %class.cStringPool** %this.addr, metadata !2717, metadata !DIExpression()), !dbg !2718
  store i8* %s, i8** %s.addr, align 8
  call void @llvm.dbg.declare(metadata i8** %s.addr, metadata !2719, metadata !DIExpression()), !dbg !2720
  %this1 = load %class.cStringPool*, %class.cStringPool** %this.addr, align 8
  %call = call zeroext i1 @_ZN11cStaticFlag5isSetEv(), !dbg !2721
  br i1 %call, label %if.end, label %if.then, !dbg !2723

if.then:                                          ; preds = %entry
  %0 = load %struct._IO_FILE*, %struct._IO_FILE** @stderr, align 8, !dbg !2724
  %1 = load i8*, i8** %s.addr, align 8, !dbg !2726
  %call2 = call i32 (%struct._IO_FILE*, i8*, ...) @fprintf(%struct._IO_FILE* %0, i8* getelementptr inbounds ([107 x i8], [107 x i8]* @.str.3, i64 0, i64 0), i8* %1), !dbg !2727
  store i8* null, i8** %retval, align 8, !dbg !2728
  br label %return, !dbg !2728

if.end:                                           ; preds = %entry
  %2 = load i8*, i8** %s.addr, align 8, !dbg !2729
  %tobool = icmp ne i8* %2, null, !dbg !2729
  br i1 %tobool, label %if.end4, label %if.then3, !dbg !2731

if.then3:                                         ; preds = %if.end
  store i8* null, i8** %retval, align 8, !dbg !2732
  br label %return, !dbg !2732

if.end4:                                          ; preds = %if.end
  call void @llvm.dbg.declare(metadata %"struct.std::_Rb_tree_const_iterator"* %it, metadata !2733, metadata !DIExpression()), !dbg !2734
  %pool = getelementptr inbounds %class.cStringPool, %class.cStringPool* %this1, i32 0, i32 1, !dbg !2735
  %3 = load i8*, i8** %s.addr, align 8, !dbg !2736
  store i8* %3, i8** %ref.tmp, align 8, !dbg !2737
  %call5 = call %"struct.std::_Rb_tree_node_base"* @_ZNKSt3mapIPciN11cStringPool7strlessESaISt4pairIKS0_iEEE4findERS4_(%"class.std::map"* %pool, i8** dereferenceable(8) %ref.tmp), !dbg !2738
  %coerce.dive = getelementptr inbounds %"struct.std::_Rb_tree_const_iterator", %"struct.std::_Rb_tree_const_iterator"* %it, i32 0, i32 0, !dbg !2738
  store %"struct.std::_Rb_tree_node_base"* %call5, %"struct.std::_Rb_tree_node_base"** %coerce.dive, align 8, !dbg !2738
  %pool7 = getelementptr inbounds %class.cStringPool, %class.cStringPool* %this1, i32 0, i32 1, !dbg !2739
  %call8 = call %"struct.std::_Rb_tree_node_base"* @_ZNKSt3mapIPciN11cStringPool7strlessESaISt4pairIKS0_iEEE3endEv(%"class.std::map"* %pool7) #3, !dbg !2740
  %coerce.dive9 = getelementptr inbounds %"struct.std::_Rb_tree_const_iterator", %"struct.std::_Rb_tree_const_iterator"* %ref.tmp6, i32 0, i32 0, !dbg !2740
  store %"struct.std::_Rb_tree_node_base"* %call8, %"struct.std::_Rb_tree_node_base"** %coerce.dive9, align 8, !dbg !2740
  %call10 = call zeroext i1 @_ZSteqRKSt23_Rb_tree_const_iteratorISt4pairIKPciEES6_(%"struct.std::_Rb_tree_const_iterator"* dereferenceable(8) %it, %"struct.std::_Rb_tree_const_iterator"* dereferenceable(8) %ref.tmp6) #3, !dbg !2741
  br i1 %call10, label %cond.true, label %cond.false, !dbg !2742

cond.true:                                        ; preds = %if.end4
  br label %cond.end, !dbg !2742

cond.false:                                       ; preds = %if.end4
  %call11 = call %"struct.std::pair"* @_ZNKSt23_Rb_tree_const_iteratorISt4pairIKPciEEptEv(%"struct.std::_Rb_tree_const_iterator"* %it) #3, !dbg !2743
  %first = getelementptr inbounds %"struct.std::pair", %"struct.std::pair"* %call11, i32 0, i32 0, !dbg !2744
  %4 = load i8*, i8** %first, align 8, !dbg !2744
  br label %cond.end, !dbg !2742

cond.end:                                         ; preds = %cond.false, %cond.true
  %cond = phi i8* [ null, %cond.true ], [ %4, %cond.false ], !dbg !2742
  store i8* %cond, i8** %retval, align 8, !dbg !2745
  br label %return, !dbg !2745

return:                                           ; preds = %cond.end, %if.then3, %if.then
  %5 = load i8*, i8** %retval, align 8, !dbg !2746
  ret i8* %5, !dbg !2746
}

; Function Attrs: noinline uwtable
define linkonce_odr dso_local %"struct.std::_Rb_tree_node_base"* @_ZNKSt3mapIPciN11cStringPool7strlessESaISt4pairIKS0_iEEE4findERS4_(%"class.std::map"* %this, i8** dereferenceable(8) %__x) #0 comdat align 2 !dbg !2747 {
entry:
  %retval = alloca %"struct.std::_Rb_tree_const_iterator", align 8
  %this.addr = alloca %"class.std::map"*, align 8
  %__x.addr = alloca i8**, align 8
  store %"class.std::map"* %this, %"class.std::map"** %this.addr, align 8
  call void @llvm.dbg.declare(metadata %"class.std::map"** %this.addr, metadata !2748, metadata !DIExpression()), !dbg !2749
  store i8** %__x, i8*** %__x.addr, align 8
  call void @llvm.dbg.declare(metadata i8*** %__x.addr, metadata !2750, metadata !DIExpression()), !dbg !2751
  %this1 = load %"class.std::map"*, %"class.std::map"** %this.addr, align 8
  %_M_t = getelementptr inbounds %"class.std::map", %"class.std::map"* %this1, i32 0, i32 0, !dbg !2752
  %0 = load i8**, i8*** %__x.addr, align 8, !dbg !2753
  %call = call %"struct.std::_Rb_tree_node_base"* @_ZNKSt8_Rb_treeIPcSt4pairIKS0_iESt10_Select1stIS3_EN11cStringPool7strlessESaIS3_EE4findERS2_(%"class.std::_Rb_tree"* %_M_t, i8** dereferenceable(8) %0), !dbg !2754
  %coerce.dive = getelementptr inbounds %"struct.std::_Rb_tree_const_iterator", %"struct.std::_Rb_tree_const_iterator"* %retval, i32 0, i32 0, !dbg !2754
  store %"struct.std::_Rb_tree_node_base"* %call, %"struct.std::_Rb_tree_node_base"** %coerce.dive, align 8, !dbg !2754
  %coerce.dive2 = getelementptr inbounds %"struct.std::_Rb_tree_const_iterator", %"struct.std::_Rb_tree_const_iterator"* %retval, i32 0, i32 0, !dbg !2755
  %1 = load %"struct.std::_Rb_tree_node_base"*, %"struct.std::_Rb_tree_node_base"** %coerce.dive2, align 8, !dbg !2755
  ret %"struct.std::_Rb_tree_node_base"* %1, !dbg !2755
}

; Function Attrs: noinline nounwind uwtable
define linkonce_odr dso_local zeroext i1 @_ZSteqRKSt23_Rb_tree_const_iteratorISt4pairIKPciEES6_(%"struct.std::_Rb_tree_const_iterator"* dereferenceable(8) %__x, %"struct.std::_Rb_tree_const_iterator"* dereferenceable(8) %__y) #5 comdat !dbg !2756 {
entry:
  %__x.addr = alloca %"struct.std::_Rb_tree_const_iterator"*, align 8
  %__y.addr = alloca %"struct.std::_Rb_tree_const_iterator"*, align 8
  store %"struct.std::_Rb_tree_const_iterator"* %__x, %"struct.std::_Rb_tree_const_iterator"** %__x.addr, align 8
  call void @llvm.dbg.declare(metadata %"struct.std::_Rb_tree_const_iterator"** %__x.addr, metadata !2757, metadata !DIExpression()), !dbg !2758
  store %"struct.std::_Rb_tree_const_iterator"* %__y, %"struct.std::_Rb_tree_const_iterator"** %__y.addr, align 8
  call void @llvm.dbg.declare(metadata %"struct.std::_Rb_tree_const_iterator"** %__y.addr, metadata !2759, metadata !DIExpression()), !dbg !2760
  %0 = load %"struct.std::_Rb_tree_const_iterator"*, %"struct.std::_Rb_tree_const_iterator"** %__x.addr, align 8, !dbg !2761
  %_M_node = getelementptr inbounds %"struct.std::_Rb_tree_const_iterator", %"struct.std::_Rb_tree_const_iterator"* %0, i32 0, i32 0, !dbg !2762
  %1 = load %"struct.std::_Rb_tree_node_base"*, %"struct.std::_Rb_tree_node_base"** %_M_node, align 8, !dbg !2762
  %2 = load %"struct.std::_Rb_tree_const_iterator"*, %"struct.std::_Rb_tree_const_iterator"** %__y.addr, align 8, !dbg !2763
  %_M_node1 = getelementptr inbounds %"struct.std::_Rb_tree_const_iterator", %"struct.std::_Rb_tree_const_iterator"* %2, i32 0, i32 0, !dbg !2764
  %3 = load %"struct.std::_Rb_tree_node_base"*, %"struct.std::_Rb_tree_node_base"** %_M_node1, align 8, !dbg !2764
  %cmp = icmp eq %"struct.std::_Rb_tree_node_base"* %1, %3, !dbg !2765
  ret i1 %cmp, !dbg !2766
}

; Function Attrs: noinline uwtable
define dso_local void @_ZN11cStringPool7releaseEPKc(%class.cStringPool* %this, i8* %s) #0 align 2 !dbg !2767 {
entry:
  %this.addr = alloca %class.cStringPool*, align 8
  %s.addr = alloca i8*, align 8
  %it = alloca %"struct.std::_Rb_tree_iterator", align 8
  %ref.tmp = alloca i8*, align 8
  %ref.tmp9 = alloca %"struct.std::_Rb_tree_iterator", align 8
  %agg.tmp = alloca %"struct.std::_Rb_tree_iterator", align 8
  %coerce = alloca %"struct.std::_Rb_tree_iterator", align 8
  store %class.cStringPool* %this, %class.cStringPool** %this.addr, align 8
  call void @llvm.dbg.declare(metadata %class.cStringPool** %this.addr, metadata !2768, metadata !DIExpression()), !dbg !2769
  store i8* %s, i8** %s.addr, align 8
  call void @llvm.dbg.declare(metadata i8** %s.addr, metadata !2770, metadata !DIExpression()), !dbg !2771
  %this1 = load %class.cStringPool*, %class.cStringPool** %this.addr, align 8
  %0 = load i8*, i8** %s.addr, align 8, !dbg !2772
  %tobool = icmp ne i8* %0, null, !dbg !2772
  br i1 %tobool, label %if.end, label %if.then, !dbg !2774

if.then:                                          ; preds = %entry
  br label %if.end28, !dbg !2775

if.end:                                           ; preds = %entry
  %alive = getelementptr inbounds %class.cStringPool, %class.cStringPool* %this1, i32 0, i32 2, !dbg !2776
  %1 = load i8, i8* %alive, align 8, !dbg !2776
  %tobool2 = trunc i8 %1 to i1, !dbg !2776
  br i1 %tobool2, label %if.end4, label %if.then3, !dbg !2778

if.then3:                                         ; preds = %if.end
  br label %if.end28, !dbg !2779

if.end4:                                          ; preds = %if.end
  %call = call zeroext i1 @_ZN11cStaticFlag5isSetEv(), !dbg !2780
  br i1 %call, label %if.end7, label %if.then5, !dbg !2782

if.then5:                                         ; preds = %if.end4
  %2 = load %struct._IO_FILE*, %struct._IO_FILE** @stderr, align 8, !dbg !2783
  %3 = load i8*, i8** %s.addr, align 8, !dbg !2785
  %call6 = call i32 (%struct._IO_FILE*, i8*, ...) @fprintf(%struct._IO_FILE* %2, i8* getelementptr inbounds ([93 x i8], [93 x i8]* @.str.4, i64 0, i64 0), i8* %3), !dbg !2786
  br label %if.end28, !dbg !2787

if.end7:                                          ; preds = %if.end4
  call void @llvm.dbg.declare(metadata %"struct.std::_Rb_tree_iterator"* %it, metadata !2788, metadata !DIExpression()), !dbg !2789
  %pool = getelementptr inbounds %class.cStringPool, %class.cStringPool* %this1, i32 0, i32 1, !dbg !2790
  %4 = load i8*, i8** %s.addr, align 8, !dbg !2791
  store i8* %4, i8** %ref.tmp, align 8, !dbg !2792
  %call8 = call %"struct.std::_Rb_tree_node_base"* @_ZNSt3mapIPciN11cStringPool7strlessESaISt4pairIKS0_iEEE4findERS4_(%"class.std::map"* %pool, i8** dereferenceable(8) %ref.tmp), !dbg !2793
  %coerce.dive = getelementptr inbounds %"struct.std::_Rb_tree_iterator", %"struct.std::_Rb_tree_iterator"* %it, i32 0, i32 0, !dbg !2793
  store %"struct.std::_Rb_tree_node_base"* %call8, %"struct.std::_Rb_tree_node_base"** %coerce.dive, align 8, !dbg !2793
  %pool10 = getelementptr inbounds %class.cStringPool, %class.cStringPool* %this1, i32 0, i32 1, !dbg !2794
  %call11 = call %"struct.std::_Rb_tree_node_base"* @_ZNSt3mapIPciN11cStringPool7strlessESaISt4pairIKS0_iEEE3endEv(%"class.std::map"* %pool10) #3, !dbg !2796
  %coerce.dive12 = getelementptr inbounds %"struct.std::_Rb_tree_iterator", %"struct.std::_Rb_tree_iterator"* %ref.tmp9, i32 0, i32 0, !dbg !2796
  store %"struct.std::_Rb_tree_node_base"* %call11, %"struct.std::_Rb_tree_node_base"** %coerce.dive12, align 8, !dbg !2796
  %call13 = call zeroext i1 @_ZSteqRKSt17_Rb_tree_iteratorISt4pairIKPciEES6_(%"struct.std::_Rb_tree_iterator"* dereferenceable(8) %it, %"struct.std::_Rb_tree_iterator"* dereferenceable(8) %ref.tmp9) #3, !dbg !2797
  br i1 %call13, label %if.then14, label %if.end16, !dbg !2798

if.then14:                                        ; preds = %if.end7
  %5 = load %struct._IO_FILE*, %struct._IO_FILE** @stderr, align 8, !dbg !2799
  %6 = load i8*, i8** %s.addr, align 8, !dbg !2801
  %7 = load i8*, i8** %s.addr, align 8, !dbg !2802
  %call15 = call i32 (%struct._IO_FILE*, i8*, ...) @fprintf(%struct._IO_FILE* %5, i8* getelementptr inbounds ([65 x i8], [65 x i8]* @.str.5, i64 0, i64 0), i8* %6, i8* %7), !dbg !2803
  br label %if.end28, !dbg !2804

if.end16:                                         ; preds = %if.end7
  %call17 = call %"struct.std::pair"* @_ZNKSt17_Rb_tree_iteratorISt4pairIKPciEEptEv(%"struct.std::_Rb_tree_iterator"* %it) #3, !dbg !2805
  %first = getelementptr inbounds %"struct.std::pair", %"struct.std::pair"* %call17, i32 0, i32 0, !dbg !2807
  %8 = load i8*, i8** %first, align 8, !dbg !2807
  %9 = load i8*, i8** %s.addr, align 8, !dbg !2808
  %cmp = icmp ne i8* %8, %9, !dbg !2809
  br i1 %cmp, label %if.then18, label %if.end20, !dbg !2810

if.then18:                                        ; preds = %if.end16
  %10 = load %struct._IO_FILE*, %struct._IO_FILE** @stderr, align 8, !dbg !2811
  %11 = load i8*, i8** %s.addr, align 8, !dbg !2813
  %12 = load i8*, i8** %s.addr, align 8, !dbg !2814
  %call19 = call i32 (%struct._IO_FILE*, i8*, ...) @fprintf(%struct._IO_FILE* %10, i8* getelementptr inbounds ([113 x i8], [113 x i8]* @.str.6, i64 0, i64 0), i8* %11, i8* %12), !dbg !2815
  br label %if.end28, !dbg !2816

if.end20:                                         ; preds = %if.end16
  %call21 = call %"struct.std::pair"* @_ZNKSt17_Rb_tree_iteratorISt4pairIKPciEEptEv(%"struct.std::_Rb_tree_iterator"* %it) #3, !dbg !2817
  %second = getelementptr inbounds %"struct.std::pair", %"struct.std::pair"* %call21, i32 0, i32 1, !dbg !2819
  %13 = load i32, i32* %second, align 8, !dbg !2820
  %dec = add nsw i32 %13, -1, !dbg !2820
  store i32 %dec, i32* %second, align 8, !dbg !2820
  %cmp22 = icmp eq i32 %dec, 0, !dbg !2821
  br i1 %cmp22, label %if.then23, label %if.end28, !dbg !2822

if.then23:                                        ; preds = %if.end20
  %14 = load i8*, i8** %s.addr, align 8, !dbg !2823
  %isnull = icmp eq i8* %14, null, !dbg !2825
  br i1 %isnull, label %delete.end, label %delete.notnull, !dbg !2825

delete.notnull:                                   ; preds = %if.then23
  call void @_ZdaPv(i8* %14) #16, !dbg !2825
  br label %delete.end, !dbg !2825

delete.end:                                       ; preds = %delete.notnull, %if.then23
  %pool24 = getelementptr inbounds %class.cStringPool, %class.cStringPool* %this1, i32 0, i32 1, !dbg !2826
  %15 = bitcast %"struct.std::_Rb_tree_iterator"* %agg.tmp to i8*, !dbg !2827
  %16 = bitcast %"struct.std::_Rb_tree_iterator"* %it to i8*, !dbg !2827
  call void @llvm.memcpy.p0i8.p0i8.i64(i8* align 8 %15, i8* align 8 %16, i64 8, i1 false), !dbg !2827
  %coerce.dive25 = getelementptr inbounds %"struct.std::_Rb_tree_iterator", %"struct.std::_Rb_tree_iterator"* %agg.tmp, i32 0, i32 0, !dbg !2828
  %17 = load %"struct.std::_Rb_tree_node_base"*, %"struct.std::_Rb_tree_node_base"** %coerce.dive25, align 8, !dbg !2828
  %call26 = call %"struct.std::_Rb_tree_node_base"* @_ZNSt3mapIPciN11cStringPool7strlessESaISt4pairIKS0_iEEE5eraseB5cxx11ESt17_Rb_tree_iteratorIS5_E(%"class.std::map"* %pool24, %"struct.std::_Rb_tree_node_base"* %17), !dbg !2828
  %coerce.dive27 = getelementptr inbounds %"struct.std::_Rb_tree_iterator", %"struct.std::_Rb_tree_iterator"* %coerce, i32 0, i32 0, !dbg !2828
  store %"struct.std::_Rb_tree_node_base"* %call26, %"struct.std::_Rb_tree_node_base"** %coerce.dive27, align 8, !dbg !2828
  br label %if.end28, !dbg !2829

if.end28:                                         ; preds = %if.then, %if.then3, %if.then5, %if.then14, %if.then18, %delete.end, %if.end20
  ret void, !dbg !2830
}

; Function Attrs: nobuiltin nounwind
declare dso_local void @_ZdaPv(i8*) #8

; Function Attrs: noinline uwtable
define linkonce_odr dso_local %"struct.std::_Rb_tree_node_base"* @_ZNSt3mapIPciN11cStringPool7strlessESaISt4pairIKS0_iEEE5eraseB5cxx11ESt17_Rb_tree_iteratorIS5_E(%"class.std::map"* %this, %"struct.std::_Rb_tree_node_base"* %__position.coerce) #0 comdat align 2 !dbg !2831 {
entry:
  %retval = alloca %"struct.std::_Rb_tree_iterator", align 8
  %__position = alloca %"struct.std::_Rb_tree_iterator", align 8
  %this.addr = alloca %"class.std::map"*, align 8
  %agg.tmp = alloca %"struct.std::_Rb_tree_iterator", align 8
  %coerce.dive = getelementptr inbounds %"struct.std::_Rb_tree_iterator", %"struct.std::_Rb_tree_iterator"* %__position, i32 0, i32 0
  store %"struct.std::_Rb_tree_node_base"* %__position.coerce, %"struct.std::_Rb_tree_node_base"** %coerce.dive, align 8
  store %"class.std::map"* %this, %"class.std::map"** %this.addr, align 8
  call void @llvm.dbg.declare(metadata %"class.std::map"** %this.addr, metadata !2832, metadata !DIExpression()), !dbg !2833
  call void @llvm.dbg.declare(metadata %"struct.std::_Rb_tree_iterator"* %__position, metadata !2834, metadata !DIExpression()), !dbg !2835
  %this1 = load %"class.std::map"*, %"class.std::map"** %this.addr, align 8
  %_M_t = getelementptr inbounds %"class.std::map", %"class.std::map"* %this1, i32 0, i32 0, !dbg !2836
  %0 = bitcast %"struct.std::_Rb_tree_iterator"* %agg.tmp to i8*, !dbg !2837
  %1 = bitcast %"struct.std::_Rb_tree_iterator"* %__position to i8*, !dbg !2837
  call void @llvm.memcpy.p0i8.p0i8.i64(i8* align 8 %0, i8* align 8 %1, i64 8, i1 false), !dbg !2837
  %coerce.dive2 = getelementptr inbounds %"struct.std::_Rb_tree_iterator", %"struct.std::_Rb_tree_iterator"* %agg.tmp, i32 0, i32 0, !dbg !2838
  %2 = load %"struct.std::_Rb_tree_node_base"*, %"struct.std::_Rb_tree_node_base"** %coerce.dive2, align 8, !dbg !2838
  %call = call %"struct.std::_Rb_tree_node_base"* @_ZNSt8_Rb_treeIPcSt4pairIKS0_iESt10_Select1stIS3_EN11cStringPool7strlessESaIS3_EE5eraseB5cxx11ESt17_Rb_tree_iteratorIS3_E(%"class.std::_Rb_tree"* %_M_t, %"struct.std::_Rb_tree_node_base"* %2), !dbg !2838
  %coerce.dive3 = getelementptr inbounds %"struct.std::_Rb_tree_iterator", %"struct.std::_Rb_tree_iterator"* %retval, i32 0, i32 0, !dbg !2838
  store %"struct.std::_Rb_tree_node_base"* %call, %"struct.std::_Rb_tree_node_base"** %coerce.dive3, align 8, !dbg !2838
  %coerce.dive4 = getelementptr inbounds %"struct.std::_Rb_tree_iterator", %"struct.std::_Rb_tree_iterator"* %retval, i32 0, i32 0, !dbg !2839
  %3 = load %"struct.std::_Rb_tree_node_base"*, %"struct.std::_Rb_tree_node_base"** %coerce.dive4, align 8, !dbg !2839
  ret %"struct.std::_Rb_tree_node_base"* %3, !dbg !2839
}

; Function Attrs: argmemonly nounwind willreturn
declare void @llvm.memcpy.p0i8.p0i8.i64(i8* noalias nocapture writeonly, i8* noalias nocapture readonly, i64, i1 immarg) #9

; Function Attrs: noinline nounwind uwtable
define linkonce_odr dso_local void @_ZNSt8_Rb_treeIPcSt4pairIKS0_iESt10_Select1stIS3_EN11cStringPool7strlessESaIS3_EEC2Ev(%"class.std::_Rb_tree"* %this) unnamed_addr #5 comdat align 2 !dbg !2840 {
entry:
  %this.addr = alloca %"class.std::_Rb_tree"*, align 8
  store %"class.std::_Rb_tree"* %this, %"class.std::_Rb_tree"** %this.addr, align 8
  call void @llvm.dbg.declare(metadata %"class.std::_Rb_tree"** %this.addr, metadata !2841, metadata !DIExpression()), !dbg !2843
  %this1 = load %"class.std::_Rb_tree"*, %"class.std::_Rb_tree"** %this.addr, align 8
  %_M_impl = getelementptr inbounds %"class.std::_Rb_tree", %"class.std::_Rb_tree"* %this1, i32 0, i32 0, !dbg !2844
  call void @_ZNSt8_Rb_treeIPcSt4pairIKS0_iESt10_Select1stIS3_EN11cStringPool7strlessESaIS3_EE13_Rb_tree_implIS7_Lb1EEC2Ev(%"struct.std::_Rb_tree<char *, std::pair<char *const, int>, std::_Select1st<std::pair<char *const, int> >, cStringPool::strless, std::allocator<std::pair<char *const, int> > >::_Rb_tree_impl"* %_M_impl) #3, !dbg !2844
  ret void, !dbg !2845
}

; Function Attrs: noinline nounwind uwtable
define linkonce_odr dso_local void @_ZNSt8_Rb_treeIPcSt4pairIKS0_iESt10_Select1stIS3_EN11cStringPool7strlessESaIS3_EE13_Rb_tree_implIS7_Lb1EEC2Ev(%"struct.std::_Rb_tree<char *, std::pair<char *const, int>, std::_Select1st<std::pair<char *const, int> >, cStringPool::strless, std::allocator<std::pair<char *const, int> > >::_Rb_tree_impl"* %this) unnamed_addr #5 comdat align 2 !dbg !2846 {
entry:
  %this.addr = alloca %"struct.std::_Rb_tree<char *, std::pair<char *const, int>, std::_Select1st<std::pair<char *const, int> >, cStringPool::strless, std::allocator<std::pair<char *const, int> > >::_Rb_tree_impl"*, align 8
  store %"struct.std::_Rb_tree<char *, std::pair<char *const, int>, std::_Select1st<std::pair<char *const, int> >, cStringPool::strless, std::allocator<std::pair<char *const, int> > >::_Rb_tree_impl"* %this, %"struct.std::_Rb_tree<char *, std::pair<char *const, int>, std::_Select1st<std::pair<char *const, int> >, cStringPool::strless, std::allocator<std::pair<char *const, int> > >::_Rb_tree_impl"** %this.addr, align 8
  call void @llvm.dbg.declare(metadata %"struct.std::_Rb_tree<char *, std::pair<char *const, int>, std::_Select1st<std::pair<char *const, int> >, cStringPool::strless, std::allocator<std::pair<char *const, int> > >::_Rb_tree_impl"** %this.addr, metadata !2847, metadata !DIExpression()), !dbg !2849
  %this1 = load %"struct.std::_Rb_tree<char *, std::pair<char *const, int>, std::_Select1st<std::pair<char *const, int> >, cStringPool::strless, std::allocator<std::pair<char *const, int> > >::_Rb_tree_impl"*, %"struct.std::_Rb_tree<char *, std::pair<char *const, int>, std::_Select1st<std::pair<char *const, int> >, cStringPool::strless, std::allocator<std::pair<char *const, int> > >::_Rb_tree_impl"** %this.addr, align 8
  %0 = bitcast %"struct.std::_Rb_tree<char *, std::pair<char *const, int>, std::_Select1st<std::pair<char *const, int> >, cStringPool::strless, std::allocator<std::pair<char *const, int> > >::_Rb_tree_impl"* %this1 to %"class.std::allocator.0"*, !dbg !2850
  call void @_ZNSaISt13_Rb_tree_nodeISt4pairIKPciEEEC2Ev(%"class.std::allocator.0"* %0) #3, !dbg !2851
  %1 = bitcast %"struct.std::_Rb_tree<char *, std::pair<char *const, int>, std::_Select1st<std::pair<char *const, int> >, cStringPool::strless, std::allocator<std::pair<char *const, int> > >::_Rb_tree_impl"* %this1 to %"struct.std::_Rb_tree_key_compare"*, !dbg !2850
  call void @_ZNSt20_Rb_tree_key_compareIN11cStringPool7strlessEEC2Ev(%"struct.std::_Rb_tree_key_compare"* %1) #3, !dbg !2852
  %2 = bitcast %"struct.std::_Rb_tree<char *, std::pair<char *const, int>, std::_Select1st<std::pair<char *const, int> >, cStringPool::strless, std::allocator<std::pair<char *const, int> > >::_Rb_tree_impl"* %this1 to i8*, !dbg !2850
  %3 = getelementptr inbounds i8, i8* %2, i64 8, !dbg !2850
  %4 = bitcast i8* %3 to %"struct.std::_Rb_tree_header"*, !dbg !2850
  call void @_ZNSt15_Rb_tree_headerC2Ev(%"struct.std::_Rb_tree_header"* %4) #3, !dbg !2852
  ret void, !dbg !2853
}

; Function Attrs: noinline nounwind uwtable
define linkonce_odr dso_local void @_ZNSaISt13_Rb_tree_nodeISt4pairIKPciEEEC2Ev(%"class.std::allocator.0"* %this) unnamed_addr #5 comdat align 2 !dbg !2854 {
entry:
  %this.addr = alloca %"class.std::allocator.0"*, align 8
  store %"class.std::allocator.0"* %this, %"class.std::allocator.0"** %this.addr, align 8
  call void @llvm.dbg.declare(metadata %"class.std::allocator.0"** %this.addr, metadata !2855, metadata !DIExpression()), !dbg !2857
  %this1 = load %"class.std::allocator.0"*, %"class.std::allocator.0"** %this.addr, align 8
  %0 = bitcast %"class.std::allocator.0"* %this1 to %"class.__gnu_cxx::new_allocator.1"*, !dbg !2858
  call void @_ZN9__gnu_cxx13new_allocatorISt13_Rb_tree_nodeISt4pairIKPciEEEC2Ev(%"class.__gnu_cxx::new_allocator.1"* %0) #3, !dbg !2859
  ret void, !dbg !2860
}

; Function Attrs: noinline nounwind uwtable
define linkonce_odr dso_local void @_ZNSt20_Rb_tree_key_compareIN11cStringPool7strlessEEC2Ev(%"struct.std::_Rb_tree_key_compare"* %this) unnamed_addr #5 comdat align 2 !dbg !2861 {
entry:
  %this.addr = alloca %"struct.std::_Rb_tree_key_compare"*, align 8
  store %"struct.std::_Rb_tree_key_compare"* %this, %"struct.std::_Rb_tree_key_compare"** %this.addr, align 8
  call void @llvm.dbg.declare(metadata %"struct.std::_Rb_tree_key_compare"** %this.addr, metadata !2862, metadata !DIExpression()), !dbg !2864
  %this1 = load %"struct.std::_Rb_tree_key_compare"*, %"struct.std::_Rb_tree_key_compare"** %this.addr, align 8
  %_M_key_compare = getelementptr inbounds %"struct.std::_Rb_tree_key_compare", %"struct.std::_Rb_tree_key_compare"* %this1, i32 0, i32 0, !dbg !2865
  ret void, !dbg !2866
}

; Function Attrs: noinline nounwind uwtable
define linkonce_odr dso_local void @_ZNSt15_Rb_tree_headerC2Ev(%"struct.std::_Rb_tree_header"* %this) unnamed_addr #5 comdat align 2 personality i8* bitcast (i32 (...)* @__gxx_personality_v0 to i8*) !dbg !2867 {
entry:
  %this.addr = alloca %"struct.std::_Rb_tree_header"*, align 8
  store %"struct.std::_Rb_tree_header"* %this, %"struct.std::_Rb_tree_header"** %this.addr, align 8
  call void @llvm.dbg.declare(metadata %"struct.std::_Rb_tree_header"** %this.addr, metadata !2868, metadata !DIExpression()), !dbg !2870
  %this1 = load %"struct.std::_Rb_tree_header"*, %"struct.std::_Rb_tree_header"** %this.addr, align 8
  %_M_header = getelementptr inbounds %"struct.std::_Rb_tree_header", %"struct.std::_Rb_tree_header"* %this1, i32 0, i32 0, !dbg !2871
  %_M_header2 = getelementptr inbounds %"struct.std::_Rb_tree_header", %"struct.std::_Rb_tree_header"* %this1, i32 0, i32 0, !dbg !2872
  %_M_color = getelementptr inbounds %"struct.std::_Rb_tree_node_base", %"struct.std::_Rb_tree_node_base"* %_M_header2, i32 0, i32 0, !dbg !2874
  store i32 0, i32* %_M_color, align 8, !dbg !2875
  invoke void @_ZNSt15_Rb_tree_header8_M_resetEv(%"struct.std::_Rb_tree_header"* %this1)
          to label %invoke.cont unwind label %terminate.lpad, !dbg !2876

invoke.cont:                                      ; preds = %entry
  ret void, !dbg !2877

terminate.lpad:                                   ; preds = %entry
  %0 = landingpad { i8*, i32 }
          catch i8* null, !dbg !2876
  %1 = extractvalue { i8*, i32 } %0, 0, !dbg !2876
  call void @__clang_call_terminate(i8* %1) #13, !dbg !2876
  unreachable, !dbg !2876
}

; Function Attrs: noinline nounwind uwtable
define linkonce_odr dso_local void @_ZN9__gnu_cxx13new_allocatorISt13_Rb_tree_nodeISt4pairIKPciEEEC2Ev(%"class.__gnu_cxx::new_allocator.1"* %this) unnamed_addr #5 comdat align 2 !dbg !2878 {
entry:
  %this.addr = alloca %"class.__gnu_cxx::new_allocator.1"*, align 8
  store %"class.__gnu_cxx::new_allocator.1"* %this, %"class.__gnu_cxx::new_allocator.1"** %this.addr, align 8
  call void @llvm.dbg.declare(metadata %"class.__gnu_cxx::new_allocator.1"** %this.addr, metadata !2879, metadata !DIExpression()), !dbg !2881
  %this1 = load %"class.__gnu_cxx::new_allocator.1"*, %"class.__gnu_cxx::new_allocator.1"** %this.addr, align 8
  ret void, !dbg !2882
}

; Function Attrs: noinline nounwind uwtable
define linkonce_odr dso_local void @_ZNSt15_Rb_tree_header8_M_resetEv(%"struct.std::_Rb_tree_header"* %this) #5 comdat align 2 !dbg !2883 {
entry:
  %this.addr = alloca %"struct.std::_Rb_tree_header"*, align 8
  store %"struct.std::_Rb_tree_header"* %this, %"struct.std::_Rb_tree_header"** %this.addr, align 8
  call void @llvm.dbg.declare(metadata %"struct.std::_Rb_tree_header"** %this.addr, metadata !2884, metadata !DIExpression()), !dbg !2885
  %this1 = load %"struct.std::_Rb_tree_header"*, %"struct.std::_Rb_tree_header"** %this.addr, align 8
  %_M_header = getelementptr inbounds %"struct.std::_Rb_tree_header", %"struct.std::_Rb_tree_header"* %this1, i32 0, i32 0, !dbg !2886
  %_M_parent = getelementptr inbounds %"struct.std::_Rb_tree_node_base", %"struct.std::_Rb_tree_node_base"* %_M_header, i32 0, i32 1, !dbg !2887
  store %"struct.std::_Rb_tree_node_base"* null, %"struct.std::_Rb_tree_node_base"** %_M_parent, align 8, !dbg !2888
  %_M_header2 = getelementptr inbounds %"struct.std::_Rb_tree_header", %"struct.std::_Rb_tree_header"* %this1, i32 0, i32 0, !dbg !2889
  %_M_header3 = getelementptr inbounds %"struct.std::_Rb_tree_header", %"struct.std::_Rb_tree_header"* %this1, i32 0, i32 0, !dbg !2890
  %_M_left = getelementptr inbounds %"struct.std::_Rb_tree_node_base", %"struct.std::_Rb_tree_node_base"* %_M_header3, i32 0, i32 2, !dbg !2891
  store %"struct.std::_Rb_tree_node_base"* %_M_header2, %"struct.std::_Rb_tree_node_base"** %_M_left, align 8, !dbg !2892
  %_M_header4 = getelementptr inbounds %"struct.std::_Rb_tree_header", %"struct.std::_Rb_tree_header"* %this1, i32 0, i32 0, !dbg !2893
  %_M_header5 = getelementptr inbounds %"struct.std::_Rb_tree_header", %"struct.std::_Rb_tree_header"* %this1, i32 0, i32 0, !dbg !2894
  %_M_right = getelementptr inbounds %"struct.std::_Rb_tree_node_base", %"struct.std::_Rb_tree_node_base"* %_M_header5, i32 0, i32 3, !dbg !2895
  store %"struct.std::_Rb_tree_node_base"* %_M_header4, %"struct.std::_Rb_tree_node_base"** %_M_right, align 8, !dbg !2896
  %_M_node_count = getelementptr inbounds %"struct.std::_Rb_tree_header", %"struct.std::_Rb_tree_header"* %this1, i32 0, i32 1, !dbg !2897
  store i64 0, i64* %_M_node_count, align 8, !dbg !2898
  ret void, !dbg !2899
}

; Function Attrs: noinline noreturn nounwind
define linkonce_odr hidden void @__clang_call_terminate(i8* %0) #10 comdat {
  %2 = call i8* @__cxa_begin_catch(i8* %0) #3
  call void @_ZSt9terminatev() #13
  unreachable
}

declare dso_local i8* @__cxa_begin_catch(i8*)

declare dso_local void @_ZSt9terminatev()

; Function Attrs: noinline nounwind uwtable
define linkonce_odr dso_local void @_ZNSt8_Rb_treeIPcSt4pairIKS0_iESt10_Select1stIS3_EN11cStringPool7strlessESaIS3_EED2Ev(%"class.std::_Rb_tree"* %this) unnamed_addr #5 comdat align 2 personality i8* bitcast (i32 (...)* @__gxx_personality_v0 to i8*) !dbg !2900 {
entry:
  %this.addr = alloca %"class.std::_Rb_tree"*, align 8
  %exn.slot = alloca i8*
  %ehselector.slot = alloca i32
  store %"class.std::_Rb_tree"* %this, %"class.std::_Rb_tree"** %this.addr, align 8
  call void @llvm.dbg.declare(metadata %"class.std::_Rb_tree"** %this.addr, metadata !2901, metadata !DIExpression()), !dbg !2902
  %this1 = load %"class.std::_Rb_tree"*, %"class.std::_Rb_tree"** %this.addr, align 8
  %call = call %"struct.std::_Rb_tree_node"* @_ZNSt8_Rb_treeIPcSt4pairIKS0_iESt10_Select1stIS3_EN11cStringPool7strlessESaIS3_EE8_M_beginEv(%"class.std::_Rb_tree"* %this1) #3, !dbg !2903
  invoke void @_ZNSt8_Rb_treeIPcSt4pairIKS0_iESt10_Select1stIS3_EN11cStringPool7strlessESaIS3_EE8_M_eraseEPSt13_Rb_tree_nodeIS3_E(%"class.std::_Rb_tree"* %this1, %"struct.std::_Rb_tree_node"* %call)
          to label %invoke.cont unwind label %lpad, !dbg !2905

invoke.cont:                                      ; preds = %entry
  %_M_impl = getelementptr inbounds %"class.std::_Rb_tree", %"class.std::_Rb_tree"* %this1, i32 0, i32 0, !dbg !2906
  call void @_ZNSt8_Rb_treeIPcSt4pairIKS0_iESt10_Select1stIS3_EN11cStringPool7strlessESaIS3_EE13_Rb_tree_implIS7_Lb1EED2Ev(%"struct.std::_Rb_tree<char *, std::pair<char *const, int>, std::_Select1st<std::pair<char *const, int> >, cStringPool::strless, std::allocator<std::pair<char *const, int> > >::_Rb_tree_impl"* %_M_impl) #3, !dbg !2906
  ret void, !dbg !2907

lpad:                                             ; preds = %entry
  %0 = landingpad { i8*, i32 }
          catch i8* null, !dbg !2906
  %1 = extractvalue { i8*, i32 } %0, 0, !dbg !2906
  store i8* %1, i8** %exn.slot, align 8, !dbg !2906
  %2 = extractvalue { i8*, i32 } %0, 1, !dbg !2906
  store i32 %2, i32* %ehselector.slot, align 4, !dbg !2906
  %_M_impl2 = getelementptr inbounds %"class.std::_Rb_tree", %"class.std::_Rb_tree"* %this1, i32 0, i32 0, !dbg !2906
  call void @_ZNSt8_Rb_treeIPcSt4pairIKS0_iESt10_Select1stIS3_EN11cStringPool7strlessESaIS3_EE13_Rb_tree_implIS7_Lb1EED2Ev(%"struct.std::_Rb_tree<char *, std::pair<char *const, int>, std::_Select1st<std::pair<char *const, int> >, cStringPool::strless, std::allocator<std::pair<char *const, int> > >::_Rb_tree_impl"* %_M_impl2) #3, !dbg !2906
  br label %terminate.handler, !dbg !2906

terminate.handler:                                ; preds = %lpad
  %exn = load i8*, i8** %exn.slot, align 8, !dbg !2906
  call void @__clang_call_terminate(i8* %exn) #13, !dbg !2906
  unreachable, !dbg !2906
}

; Function Attrs: noinline uwtable
define linkonce_odr dso_local void @_ZNSt8_Rb_treeIPcSt4pairIKS0_iESt10_Select1stIS3_EN11cStringPool7strlessESaIS3_EE8_M_eraseEPSt13_Rb_tree_nodeIS3_E(%"class.std::_Rb_tree"* %this, %"struct.std::_Rb_tree_node"* %__x) #0 comdat align 2 !dbg !2908 {
entry:
  %this.addr = alloca %"class.std::_Rb_tree"*, align 8
  %__x.addr = alloca %"struct.std::_Rb_tree_node"*, align 8
  %__y = alloca %"struct.std::_Rb_tree_node"*, align 8
  store %"class.std::_Rb_tree"* %this, %"class.std::_Rb_tree"** %this.addr, align 8
  call void @llvm.dbg.declare(metadata %"class.std::_Rb_tree"** %this.addr, metadata !2909, metadata !DIExpression()), !dbg !2910
  store %"struct.std::_Rb_tree_node"* %__x, %"struct.std::_Rb_tree_node"** %__x.addr, align 8
  call void @llvm.dbg.declare(metadata %"struct.std::_Rb_tree_node"** %__x.addr, metadata !2911, metadata !DIExpression()), !dbg !2912
  %this1 = load %"class.std::_Rb_tree"*, %"class.std::_Rb_tree"** %this.addr, align 8
  br label %while.cond, !dbg !2913

while.cond:                                       ; preds = %while.body, %entry
  %0 = load %"struct.std::_Rb_tree_node"*, %"struct.std::_Rb_tree_node"** %__x.addr, align 8, !dbg !2914
  %cmp = icmp ne %"struct.std::_Rb_tree_node"* %0, null, !dbg !2915
  br i1 %cmp, label %while.body, label %while.end, !dbg !2913

while.body:                                       ; preds = %while.cond
  %1 = load %"struct.std::_Rb_tree_node"*, %"struct.std::_Rb_tree_node"** %__x.addr, align 8, !dbg !2916
  %2 = bitcast %"struct.std::_Rb_tree_node"* %1 to %"struct.std::_Rb_tree_node_base"*, !dbg !2916
  %call = call %"struct.std::_Rb_tree_node"* @_ZNSt8_Rb_treeIPcSt4pairIKS0_iESt10_Select1stIS3_EN11cStringPool7strlessESaIS3_EE8_S_rightEPSt18_Rb_tree_node_base(%"struct.std::_Rb_tree_node_base"* %2) #3, !dbg !2918
  call void @_ZNSt8_Rb_treeIPcSt4pairIKS0_iESt10_Select1stIS3_EN11cStringPool7strlessESaIS3_EE8_M_eraseEPSt13_Rb_tree_nodeIS3_E(%"class.std::_Rb_tree"* %this1, %"struct.std::_Rb_tree_node"* %call), !dbg !2919
  call void @llvm.dbg.declare(metadata %"struct.std::_Rb_tree_node"** %__y, metadata !2920, metadata !DIExpression()), !dbg !2921
  %3 = load %"struct.std::_Rb_tree_node"*, %"struct.std::_Rb_tree_node"** %__x.addr, align 8, !dbg !2922
  %4 = bitcast %"struct.std::_Rb_tree_node"* %3 to %"struct.std::_Rb_tree_node_base"*, !dbg !2922
  %call2 = call %"struct.std::_Rb_tree_node"* @_ZNSt8_Rb_treeIPcSt4pairIKS0_iESt10_Select1stIS3_EN11cStringPool7strlessESaIS3_EE7_S_leftEPSt18_Rb_tree_node_base(%"struct.std::_Rb_tree_node_base"* %4) #3, !dbg !2923
  store %"struct.std::_Rb_tree_node"* %call2, %"struct.std::_Rb_tree_node"** %__y, align 8, !dbg !2921
  %5 = load %"struct.std::_Rb_tree_node"*, %"struct.std::_Rb_tree_node"** %__x.addr, align 8, !dbg !2924
  call void @_ZNSt8_Rb_treeIPcSt4pairIKS0_iESt10_Select1stIS3_EN11cStringPool7strlessESaIS3_EE12_M_drop_nodeEPSt13_Rb_tree_nodeIS3_E(%"class.std::_Rb_tree"* %this1, %"struct.std::_Rb_tree_node"* %5) #3, !dbg !2925
  %6 = load %"struct.std::_Rb_tree_node"*, %"struct.std::_Rb_tree_node"** %__y, align 8, !dbg !2926
  store %"struct.std::_Rb_tree_node"* %6, %"struct.std::_Rb_tree_node"** %__x.addr, align 8, !dbg !2927
  br label %while.cond, !dbg !2913, !llvm.loop !2928

while.end:                                        ; preds = %while.cond
  ret void, !dbg !2930
}

; Function Attrs: noinline nounwind uwtable
define linkonce_odr dso_local %"struct.std::_Rb_tree_node"* @_ZNSt8_Rb_treeIPcSt4pairIKS0_iESt10_Select1stIS3_EN11cStringPool7strlessESaIS3_EE8_M_beginEv(%"class.std::_Rb_tree"* %this) #5 comdat align 2 !dbg !2931 {
entry:
  %this.addr = alloca %"class.std::_Rb_tree"*, align 8
  store %"class.std::_Rb_tree"* %this, %"class.std::_Rb_tree"** %this.addr, align 8
  call void @llvm.dbg.declare(metadata %"class.std::_Rb_tree"** %this.addr, metadata !2932, metadata !DIExpression()), !dbg !2933
  %this1 = load %"class.std::_Rb_tree"*, %"class.std::_Rb_tree"** %this.addr, align 8
  %_M_impl = getelementptr inbounds %"class.std::_Rb_tree", %"class.std::_Rb_tree"* %this1, i32 0, i32 0, !dbg !2934
  %0 = bitcast %"struct.std::_Rb_tree<char *, std::pair<char *const, int>, std::_Select1st<std::pair<char *const, int> >, cStringPool::strless, std::allocator<std::pair<char *const, int> > >::_Rb_tree_impl"* %_M_impl to i8*, !dbg !2935
  %add.ptr = getelementptr inbounds i8, i8* %0, i64 8, !dbg !2935
  %1 = bitcast i8* %add.ptr to %"struct.std::_Rb_tree_header"*, !dbg !2935
  %_M_header = getelementptr inbounds %"struct.std::_Rb_tree_header", %"struct.std::_Rb_tree_header"* %1, i32 0, i32 0, !dbg !2936
  %_M_parent = getelementptr inbounds %"struct.std::_Rb_tree_node_base", %"struct.std::_Rb_tree_node_base"* %_M_header, i32 0, i32 1, !dbg !2937
  %2 = load %"struct.std::_Rb_tree_node_base"*, %"struct.std::_Rb_tree_node_base"** %_M_parent, align 8, !dbg !2937
  %3 = bitcast %"struct.std::_Rb_tree_node_base"* %2 to %"struct.std::_Rb_tree_node"*, !dbg !2938
  ret %"struct.std::_Rb_tree_node"* %3, !dbg !2939
}

; Function Attrs: noinline nounwind uwtable
define linkonce_odr dso_local void @_ZNSt8_Rb_treeIPcSt4pairIKS0_iESt10_Select1stIS3_EN11cStringPool7strlessESaIS3_EE13_Rb_tree_implIS7_Lb1EED2Ev(%"struct.std::_Rb_tree<char *, std::pair<char *const, int>, std::_Select1st<std::pair<char *const, int> >, cStringPool::strless, std::allocator<std::pair<char *const, int> > >::_Rb_tree_impl"* %this) unnamed_addr #5 comdat align 2 !dbg !2940 {
entry:
  %this.addr = alloca %"struct.std::_Rb_tree<char *, std::pair<char *const, int>, std::_Select1st<std::pair<char *const, int> >, cStringPool::strless, std::allocator<std::pair<char *const, int> > >::_Rb_tree_impl"*, align 8
  store %"struct.std::_Rb_tree<char *, std::pair<char *const, int>, std::_Select1st<std::pair<char *const, int> >, cStringPool::strless, std::allocator<std::pair<char *const, int> > >::_Rb_tree_impl"* %this, %"struct.std::_Rb_tree<char *, std::pair<char *const, int>, std::_Select1st<std::pair<char *const, int> >, cStringPool::strless, std::allocator<std::pair<char *const, int> > >::_Rb_tree_impl"** %this.addr, align 8
  call void @llvm.dbg.declare(metadata %"struct.std::_Rb_tree<char *, std::pair<char *const, int>, std::_Select1st<std::pair<char *const, int> >, cStringPool::strless, std::allocator<std::pair<char *const, int> > >::_Rb_tree_impl"** %this.addr, metadata !2942, metadata !DIExpression()), !dbg !2943
  %this1 = load %"struct.std::_Rb_tree<char *, std::pair<char *const, int>, std::_Select1st<std::pair<char *const, int> >, cStringPool::strless, std::allocator<std::pair<char *const, int> > >::_Rb_tree_impl"*, %"struct.std::_Rb_tree<char *, std::pair<char *const, int>, std::_Select1st<std::pair<char *const, int> >, cStringPool::strless, std::allocator<std::pair<char *const, int> > >::_Rb_tree_impl"** %this.addr, align 8
  %0 = bitcast %"struct.std::_Rb_tree<char *, std::pair<char *const, int>, std::_Select1st<std::pair<char *const, int> >, cStringPool::strless, std::allocator<std::pair<char *const, int> > >::_Rb_tree_impl"* %this1 to %"class.std::allocator.0"*, !dbg !2944
  call void @_ZNSaISt13_Rb_tree_nodeISt4pairIKPciEEED2Ev(%"class.std::allocator.0"* %0) #3, !dbg !2944
  ret void, !dbg !2946
}

; Function Attrs: noinline nounwind uwtable
define linkonce_odr dso_local %"struct.std::_Rb_tree_node"* @_ZNSt8_Rb_treeIPcSt4pairIKS0_iESt10_Select1stIS3_EN11cStringPool7strlessESaIS3_EE8_S_rightEPSt18_Rb_tree_node_base(%"struct.std::_Rb_tree_node_base"* %__x) #5 comdat align 2 !dbg !2947 {
entry:
  %__x.addr = alloca %"struct.std::_Rb_tree_node_base"*, align 8
  store %"struct.std::_Rb_tree_node_base"* %__x, %"struct.std::_Rb_tree_node_base"** %__x.addr, align 8
  call void @llvm.dbg.declare(metadata %"struct.std::_Rb_tree_node_base"** %__x.addr, metadata !2948, metadata !DIExpression()), !dbg !2949
  %0 = load %"struct.std::_Rb_tree_node_base"*, %"struct.std::_Rb_tree_node_base"** %__x.addr, align 8, !dbg !2950
  %_M_right = getelementptr inbounds %"struct.std::_Rb_tree_node_base", %"struct.std::_Rb_tree_node_base"* %0, i32 0, i32 3, !dbg !2951
  %1 = load %"struct.std::_Rb_tree_node_base"*, %"struct.std::_Rb_tree_node_base"** %_M_right, align 8, !dbg !2951
  %2 = bitcast %"struct.std::_Rb_tree_node_base"* %1 to %"struct.std::_Rb_tree_node"*, !dbg !2952
  ret %"struct.std::_Rb_tree_node"* %2, !dbg !2953
}

; Function Attrs: noinline nounwind uwtable
define linkonce_odr dso_local %"struct.std::_Rb_tree_node"* @_ZNSt8_Rb_treeIPcSt4pairIKS0_iESt10_Select1stIS3_EN11cStringPool7strlessESaIS3_EE7_S_leftEPSt18_Rb_tree_node_base(%"struct.std::_Rb_tree_node_base"* %__x) #5 comdat align 2 !dbg !2954 {
entry:
  %__x.addr = alloca %"struct.std::_Rb_tree_node_base"*, align 8
  store %"struct.std::_Rb_tree_node_base"* %__x, %"struct.std::_Rb_tree_node_base"** %__x.addr, align 8
  call void @llvm.dbg.declare(metadata %"struct.std::_Rb_tree_node_base"** %__x.addr, metadata !2955, metadata !DIExpression()), !dbg !2956
  %0 = load %"struct.std::_Rb_tree_node_base"*, %"struct.std::_Rb_tree_node_base"** %__x.addr, align 8, !dbg !2957
  %_M_left = getelementptr inbounds %"struct.std::_Rb_tree_node_base", %"struct.std::_Rb_tree_node_base"* %0, i32 0, i32 2, !dbg !2958
  %1 = load %"struct.std::_Rb_tree_node_base"*, %"struct.std::_Rb_tree_node_base"** %_M_left, align 8, !dbg !2958
  %2 = bitcast %"struct.std::_Rb_tree_node_base"* %1 to %"struct.std::_Rb_tree_node"*, !dbg !2959
  ret %"struct.std::_Rb_tree_node"* %2, !dbg !2960
}

; Function Attrs: noinline nounwind uwtable
define linkonce_odr dso_local void @_ZNSt8_Rb_treeIPcSt4pairIKS0_iESt10_Select1stIS3_EN11cStringPool7strlessESaIS3_EE12_M_drop_nodeEPSt13_Rb_tree_nodeIS3_E(%"class.std::_Rb_tree"* %this, %"struct.std::_Rb_tree_node"* %__p) #5 comdat align 2 !dbg !2961 {
entry:
  %this.addr = alloca %"class.std::_Rb_tree"*, align 8
  %__p.addr = alloca %"struct.std::_Rb_tree_node"*, align 8
  store %"class.std::_Rb_tree"* %this, %"class.std::_Rb_tree"** %this.addr, align 8
  call void @llvm.dbg.declare(metadata %"class.std::_Rb_tree"** %this.addr, metadata !2962, metadata !DIExpression()), !dbg !2963
  store %"struct.std::_Rb_tree_node"* %__p, %"struct.std::_Rb_tree_node"** %__p.addr, align 8
  call void @llvm.dbg.declare(metadata %"struct.std::_Rb_tree_node"** %__p.addr, metadata !2964, metadata !DIExpression()), !dbg !2965
  %this1 = load %"class.std::_Rb_tree"*, %"class.std::_Rb_tree"** %this.addr, align 8
  %0 = load %"struct.std::_Rb_tree_node"*, %"struct.std::_Rb_tree_node"** %__p.addr, align 8, !dbg !2966
  call void @_ZNSt8_Rb_treeIPcSt4pairIKS0_iESt10_Select1stIS3_EN11cStringPool7strlessESaIS3_EE15_M_destroy_nodeEPSt13_Rb_tree_nodeIS3_E(%"class.std::_Rb_tree"* %this1, %"struct.std::_Rb_tree_node"* %0) #3, !dbg !2967
  %1 = load %"struct.std::_Rb_tree_node"*, %"struct.std::_Rb_tree_node"** %__p.addr, align 8, !dbg !2968
  call void @_ZNSt8_Rb_treeIPcSt4pairIKS0_iESt10_Select1stIS3_EN11cStringPool7strlessESaIS3_EE11_M_put_nodeEPSt13_Rb_tree_nodeIS3_E(%"class.std::_Rb_tree"* %this1, %"struct.std::_Rb_tree_node"* %1) #3, !dbg !2969
  ret void, !dbg !2970
}

; Function Attrs: noinline nounwind uwtable
define linkonce_odr dso_local void @_ZNSt8_Rb_treeIPcSt4pairIKS0_iESt10_Select1stIS3_EN11cStringPool7strlessESaIS3_EE15_M_destroy_nodeEPSt13_Rb_tree_nodeIS3_E(%"class.std::_Rb_tree"* %this, %"struct.std::_Rb_tree_node"* %__p) #5 comdat align 2 personality i8* bitcast (i32 (...)* @__gxx_personality_v0 to i8*) !dbg !2971 {
entry:
  %this.addr = alloca %"class.std::_Rb_tree"*, align 8
  %__p.addr = alloca %"struct.std::_Rb_tree_node"*, align 8
  store %"class.std::_Rb_tree"* %this, %"class.std::_Rb_tree"** %this.addr, align 8
  call void @llvm.dbg.declare(metadata %"class.std::_Rb_tree"** %this.addr, metadata !2972, metadata !DIExpression()), !dbg !2973
  store %"struct.std::_Rb_tree_node"* %__p, %"struct.std::_Rb_tree_node"** %__p.addr, align 8
  call void @llvm.dbg.declare(metadata %"struct.std::_Rb_tree_node"** %__p.addr, metadata !2974, metadata !DIExpression()), !dbg !2975
  %this1 = load %"class.std::_Rb_tree"*, %"class.std::_Rb_tree"** %this.addr, align 8
  %call = call dereferenceable(1) %"class.std::allocator.0"* @_ZNSt8_Rb_treeIPcSt4pairIKS0_iESt10_Select1stIS3_EN11cStringPool7strlessESaIS3_EE21_M_get_Node_allocatorEv(%"class.std::_Rb_tree"* %this1) #3, !dbg !2976
  %0 = load %"struct.std::_Rb_tree_node"*, %"struct.std::_Rb_tree_node"** %__p.addr, align 8, !dbg !2977
  %call2 = invoke %"struct.std::pair"* @_ZNSt13_Rb_tree_nodeISt4pairIKPciEE9_M_valptrEv(%"struct.std::_Rb_tree_node"* %0)
          to label %invoke.cont unwind label %terminate.lpad, !dbg !2978

invoke.cont:                                      ; preds = %entry
  call void @_ZNSt16allocator_traitsISaISt13_Rb_tree_nodeISt4pairIKPciEEEE7destroyIS4_EEvRS6_PT_(%"class.std::allocator.0"* dereferenceable(1) %call, %"struct.std::pair"* %call2) #3, !dbg !2979
  %1 = load %"struct.std::_Rb_tree_node"*, %"struct.std::_Rb_tree_node"** %__p.addr, align 8, !dbg !2980
  ret void, !dbg !2981

terminate.lpad:                                   ; preds = %entry
  %2 = landingpad { i8*, i32 }
          catch i8* null, !dbg !2978
  %3 = extractvalue { i8*, i32 } %2, 0, !dbg !2978
  call void @__clang_call_terminate(i8* %3) #13, !dbg !2978
  unreachable, !dbg !2978
}

; Function Attrs: noinline nounwind uwtable
define linkonce_odr dso_local void @_ZNSt8_Rb_treeIPcSt4pairIKS0_iESt10_Select1stIS3_EN11cStringPool7strlessESaIS3_EE11_M_put_nodeEPSt13_Rb_tree_nodeIS3_E(%"class.std::_Rb_tree"* %this, %"struct.std::_Rb_tree_node"* %__p) #5 comdat align 2 personality i8* bitcast (i32 (...)* @__gxx_personality_v0 to i8*) !dbg !2982 {
entry:
  %this.addr = alloca %"class.std::_Rb_tree"*, align 8
  %__p.addr = alloca %"struct.std::_Rb_tree_node"*, align 8
  store %"class.std::_Rb_tree"* %this, %"class.std::_Rb_tree"** %this.addr, align 8
  call void @llvm.dbg.declare(metadata %"class.std::_Rb_tree"** %this.addr, metadata !2983, metadata !DIExpression()), !dbg !2984
  store %"struct.std::_Rb_tree_node"* %__p, %"struct.std::_Rb_tree_node"** %__p.addr, align 8
  call void @llvm.dbg.declare(metadata %"struct.std::_Rb_tree_node"** %__p.addr, metadata !2985, metadata !DIExpression()), !dbg !2986
  %this1 = load %"class.std::_Rb_tree"*, %"class.std::_Rb_tree"** %this.addr, align 8
  %call = call dereferenceable(1) %"class.std::allocator.0"* @_ZNSt8_Rb_treeIPcSt4pairIKS0_iESt10_Select1stIS3_EN11cStringPool7strlessESaIS3_EE21_M_get_Node_allocatorEv(%"class.std::_Rb_tree"* %this1) #3, !dbg !2987
  %0 = load %"struct.std::_Rb_tree_node"*, %"struct.std::_Rb_tree_node"** %__p.addr, align 8, !dbg !2988
  invoke void @_ZNSt16allocator_traitsISaISt13_Rb_tree_nodeISt4pairIKPciEEEE10deallocateERS6_PS5_m(%"class.std::allocator.0"* dereferenceable(1) %call, %"struct.std::_Rb_tree_node"* %0, i64 1)
          to label %invoke.cont unwind label %terminate.lpad, !dbg !2989

invoke.cont:                                      ; preds = %entry
  ret void, !dbg !2990

terminate.lpad:                                   ; preds = %entry
  %1 = landingpad { i8*, i32 }
          catch i8* null, !dbg !2989
  %2 = extractvalue { i8*, i32 } %1, 0, !dbg !2989
  call void @__clang_call_terminate(i8* %2) #13, !dbg !2989
  unreachable, !dbg !2989
}

; Function Attrs: noinline nounwind uwtable
define linkonce_odr dso_local void @_ZNSt16allocator_traitsISaISt13_Rb_tree_nodeISt4pairIKPciEEEE7destroyIS4_EEvRS6_PT_(%"class.std::allocator.0"* dereferenceable(1) %__a, %"struct.std::pair"* %__p) #5 comdat align 2 !dbg !2991 {
entry:
  %__a.addr = alloca %"class.std::allocator.0"*, align 8
  %__p.addr = alloca %"struct.std::pair"*, align 8
  store %"class.std::allocator.0"* %__a, %"class.std::allocator.0"** %__a.addr, align 8
  call void @llvm.dbg.declare(metadata %"class.std::allocator.0"** %__a.addr, metadata !3022, metadata !DIExpression()), !dbg !3023
  store %"struct.std::pair"* %__p, %"struct.std::pair"** %__p.addr, align 8
  call void @llvm.dbg.declare(metadata %"struct.std::pair"** %__p.addr, metadata !3024, metadata !DIExpression()), !dbg !3025
  %0 = load %"class.std::allocator.0"*, %"class.std::allocator.0"** %__a.addr, align 8, !dbg !3026
  %1 = bitcast %"class.std::allocator.0"* %0 to %"class.__gnu_cxx::new_allocator.1"*, !dbg !3026
  %2 = load %"struct.std::pair"*, %"struct.std::pair"** %__p.addr, align 8, !dbg !3027
  call void @_ZN9__gnu_cxx13new_allocatorISt13_Rb_tree_nodeISt4pairIKPciEEE7destroyIS5_EEvPT_(%"class.__gnu_cxx::new_allocator.1"* %1, %"struct.std::pair"* %2) #3, !dbg !3028
  ret void, !dbg !3029
}

; Function Attrs: noinline nounwind uwtable
define linkonce_odr dso_local dereferenceable(1) %"class.std::allocator.0"* @_ZNSt8_Rb_treeIPcSt4pairIKS0_iESt10_Select1stIS3_EN11cStringPool7strlessESaIS3_EE21_M_get_Node_allocatorEv(%"class.std::_Rb_tree"* %this) #5 comdat align 2 !dbg !3030 {
entry:
  %this.addr = alloca %"class.std::_Rb_tree"*, align 8
  store %"class.std::_Rb_tree"* %this, %"class.std::_Rb_tree"** %this.addr, align 8
  call void @llvm.dbg.declare(metadata %"class.std::_Rb_tree"** %this.addr, metadata !3031, metadata !DIExpression()), !dbg !3032
  %this1 = load %"class.std::_Rb_tree"*, %"class.std::_Rb_tree"** %this.addr, align 8
  %_M_impl = getelementptr inbounds %"class.std::_Rb_tree", %"class.std::_Rb_tree"* %this1, i32 0, i32 0, !dbg !3033
  %0 = bitcast %"struct.std::_Rb_tree<char *, std::pair<char *const, int>, std::_Select1st<std::pair<char *const, int> >, cStringPool::strless, std::allocator<std::pair<char *const, int> > >::_Rb_tree_impl"* %_M_impl to %"class.std::allocator.0"*, !dbg !3034
  ret %"class.std::allocator.0"* %0, !dbg !3035
}

; Function Attrs: noinline nounwind uwtable
define linkonce_odr dso_local %"struct.std::pair"* @_ZNSt13_Rb_tree_nodeISt4pairIKPciEE9_M_valptrEv(%"struct.std::_Rb_tree_node"* %this) #5 comdat align 2 !dbg !3036 {
entry:
  %this.addr = alloca %"struct.std::_Rb_tree_node"*, align 8
  store %"struct.std::_Rb_tree_node"* %this, %"struct.std::_Rb_tree_node"** %this.addr, align 8
  call void @llvm.dbg.declare(metadata %"struct.std::_Rb_tree_node"** %this.addr, metadata !3037, metadata !DIExpression()), !dbg !3038
  %this1 = load %"struct.std::_Rb_tree_node"*, %"struct.std::_Rb_tree_node"** %this.addr, align 8
  %_M_storage = getelementptr inbounds %"struct.std::_Rb_tree_node", %"struct.std::_Rb_tree_node"* %this1, i32 0, i32 1, !dbg !3039
  %call = call %"struct.std::pair"* @_ZN9__gnu_cxx16__aligned_membufISt4pairIKPciEE6_M_ptrEv(%"struct.__gnu_cxx::__aligned_membuf"* %_M_storage) #3, !dbg !3040
  ret %"struct.std::pair"* %call, !dbg !3041
}

; Function Attrs: noinline nounwind uwtable
define linkonce_odr dso_local void @_ZN9__gnu_cxx13new_allocatorISt13_Rb_tree_nodeISt4pairIKPciEEE7destroyIS5_EEvPT_(%"class.__gnu_cxx::new_allocator.1"* %this, %"struct.std::pair"* %__p) #5 comdat align 2 !dbg !3042 {
entry:
  %this.addr = alloca %"class.__gnu_cxx::new_allocator.1"*, align 8
  %__p.addr = alloca %"struct.std::pair"*, align 8
  store %"class.__gnu_cxx::new_allocator.1"* %this, %"class.__gnu_cxx::new_allocator.1"** %this.addr, align 8
  call void @llvm.dbg.declare(metadata %"class.__gnu_cxx::new_allocator.1"** %this.addr, metadata !3046, metadata !DIExpression()), !dbg !3047
  store %"struct.std::pair"* %__p, %"struct.std::pair"** %__p.addr, align 8
  call void @llvm.dbg.declare(metadata %"struct.std::pair"** %__p.addr, metadata !3048, metadata !DIExpression()), !dbg !3049
  %this1 = load %"class.__gnu_cxx::new_allocator.1"*, %"class.__gnu_cxx::new_allocator.1"** %this.addr, align 8
  %0 = load %"struct.std::pair"*, %"struct.std::pair"** %__p.addr, align 8, !dbg !3050
  ret void, !dbg !3051
}

; Function Attrs: noinline nounwind uwtable
define linkonce_odr dso_local %"struct.std::pair"* @_ZN9__gnu_cxx16__aligned_membufISt4pairIKPciEE6_M_ptrEv(%"struct.__gnu_cxx::__aligned_membuf"* %this) #5 comdat align 2 !dbg !3052 {
entry:
  %this.addr = alloca %"struct.__gnu_cxx::__aligned_membuf"*, align 8
  store %"struct.__gnu_cxx::__aligned_membuf"* %this, %"struct.__gnu_cxx::__aligned_membuf"** %this.addr, align 8
  call void @llvm.dbg.declare(metadata %"struct.__gnu_cxx::__aligned_membuf"** %this.addr, metadata !3053, metadata !DIExpression()), !dbg !3055
  %this1 = load %"struct.__gnu_cxx::__aligned_membuf"*, %"struct.__gnu_cxx::__aligned_membuf"** %this.addr, align 8
  %call = call i8* @_ZN9__gnu_cxx16__aligned_membufISt4pairIKPciEE7_M_addrEv(%"struct.__gnu_cxx::__aligned_membuf"* %this1) #3, !dbg !3056
  %0 = bitcast i8* %call to %"struct.std::pair"*, !dbg !3057
  ret %"struct.std::pair"* %0, !dbg !3058
}

; Function Attrs: noinline nounwind uwtable
define linkonce_odr dso_local i8* @_ZN9__gnu_cxx16__aligned_membufISt4pairIKPciEE7_M_addrEv(%"struct.__gnu_cxx::__aligned_membuf"* %this) #5 comdat align 2 !dbg !3059 {
entry:
  %this.addr = alloca %"struct.__gnu_cxx::__aligned_membuf"*, align 8
  store %"struct.__gnu_cxx::__aligned_membuf"* %this, %"struct.__gnu_cxx::__aligned_membuf"** %this.addr, align 8
  call void @llvm.dbg.declare(metadata %"struct.__gnu_cxx::__aligned_membuf"** %this.addr, metadata !3060, metadata !DIExpression()), !dbg !3061
  %this1 = load %"struct.__gnu_cxx::__aligned_membuf"*, %"struct.__gnu_cxx::__aligned_membuf"** %this.addr, align 8
  %_M_storage = getelementptr inbounds %"struct.__gnu_cxx::__aligned_membuf", %"struct.__gnu_cxx::__aligned_membuf"* %this1, i32 0, i32 0, !dbg !3062
  %0 = bitcast [16 x i8]* %_M_storage to i8*, !dbg !3063
  ret i8* %0, !dbg !3064
}

; Function Attrs: noinline uwtable
define linkonce_odr dso_local void @_ZNSt16allocator_traitsISaISt13_Rb_tree_nodeISt4pairIKPciEEEE10deallocateERS6_PS5_m(%"class.std::allocator.0"* dereferenceable(1) %__a, %"struct.std::_Rb_tree_node"* %__p, i64 %__n) #0 comdat align 2 !dbg !3065 {
entry:
  %__a.addr = alloca %"class.std::allocator.0"*, align 8
  %__p.addr = alloca %"struct.std::_Rb_tree_node"*, align 8
  %__n.addr = alloca i64, align 8
  store %"class.std::allocator.0"* %__a, %"class.std::allocator.0"** %__a.addr, align 8
  call void @llvm.dbg.declare(metadata %"class.std::allocator.0"** %__a.addr, metadata !3066, metadata !DIExpression()), !dbg !3067
  store %"struct.std::_Rb_tree_node"* %__p, %"struct.std::_Rb_tree_node"** %__p.addr, align 8
  call void @llvm.dbg.declare(metadata %"struct.std::_Rb_tree_node"** %__p.addr, metadata !3068, metadata !DIExpression()), !dbg !3069
  store i64 %__n, i64* %__n.addr, align 8
  call void @llvm.dbg.declare(metadata i64* %__n.addr, metadata !3070, metadata !DIExpression()), !dbg !3071
  %0 = load %"class.std::allocator.0"*, %"class.std::allocator.0"** %__a.addr, align 8, !dbg !3072
  %1 = bitcast %"class.std::allocator.0"* %0 to %"class.__gnu_cxx::new_allocator.1"*, !dbg !3072
  %2 = load %"struct.std::_Rb_tree_node"*, %"struct.std::_Rb_tree_node"** %__p.addr, align 8, !dbg !3073
  %3 = load i64, i64* %__n.addr, align 8, !dbg !3074
  call void @_ZN9__gnu_cxx13new_allocatorISt13_Rb_tree_nodeISt4pairIKPciEEE10deallocateEPS6_m(%"class.__gnu_cxx::new_allocator.1"* %1, %"struct.std::_Rb_tree_node"* %2, i64 %3), !dbg !3075
  ret void, !dbg !3076
}

; Function Attrs: noinline nounwind uwtable
define linkonce_odr dso_local void @_ZN9__gnu_cxx13new_allocatorISt13_Rb_tree_nodeISt4pairIKPciEEE10deallocateEPS6_m(%"class.__gnu_cxx::new_allocator.1"* %this, %"struct.std::_Rb_tree_node"* %__p, i64 %__t) #5 comdat align 2 !dbg !3077 {
entry:
  %this.addr = alloca %"class.__gnu_cxx::new_allocator.1"*, align 8
  %__p.addr = alloca %"struct.std::_Rb_tree_node"*, align 8
  %__t.addr = alloca i64, align 8
  store %"class.__gnu_cxx::new_allocator.1"* %this, %"class.__gnu_cxx::new_allocator.1"** %this.addr, align 8
  call void @llvm.dbg.declare(metadata %"class.__gnu_cxx::new_allocator.1"** %this.addr, metadata !3078, metadata !DIExpression()), !dbg !3079
  store %"struct.std::_Rb_tree_node"* %__p, %"struct.std::_Rb_tree_node"** %__p.addr, align 8
  call void @llvm.dbg.declare(metadata %"struct.std::_Rb_tree_node"** %__p.addr, metadata !3080, metadata !DIExpression()), !dbg !3081
  store i64 %__t, i64* %__t.addr, align 8
  call void @llvm.dbg.declare(metadata i64* %__t.addr, metadata !3082, metadata !DIExpression()), !dbg !3083
  %this1 = load %"class.__gnu_cxx::new_allocator.1"*, %"class.__gnu_cxx::new_allocator.1"** %this.addr, align 8
  %0 = load %"struct.std::_Rb_tree_node"*, %"struct.std::_Rb_tree_node"** %__p.addr, align 8, !dbg !3084
  %1 = bitcast %"struct.std::_Rb_tree_node"* %0 to i8*, !dbg !3084
  call void @_ZdlPv(i8* %1) #3, !dbg !3085
  ret void, !dbg !3086
}

; Function Attrs: nobuiltin nounwind
declare dso_local void @_ZdlPv(i8*) #8

; Function Attrs: noinline nounwind uwtable
define linkonce_odr dso_local void @_ZNSaISt13_Rb_tree_nodeISt4pairIKPciEEED2Ev(%"class.std::allocator.0"* %this) unnamed_addr #5 comdat align 2 !dbg !3087 {
entry:
  %this.addr = alloca %"class.std::allocator.0"*, align 8
  store %"class.std::allocator.0"* %this, %"class.std::allocator.0"** %this.addr, align 8
  call void @llvm.dbg.declare(metadata %"class.std::allocator.0"** %this.addr, metadata !3088, metadata !DIExpression()), !dbg !3089
  %this1 = load %"class.std::allocator.0"*, %"class.std::allocator.0"** %this.addr, align 8
  %0 = bitcast %"class.std::allocator.0"* %this1 to %"class.__gnu_cxx::new_allocator.1"*, !dbg !3090
  call void @_ZN9__gnu_cxx13new_allocatorISt13_Rb_tree_nodeISt4pairIKPciEEED2Ev(%"class.__gnu_cxx::new_allocator.1"* %0) #3, !dbg !3090
  ret void, !dbg !3092
}

; Function Attrs: noinline nounwind uwtable
define linkonce_odr dso_local void @_ZN9__gnu_cxx13new_allocatorISt13_Rb_tree_nodeISt4pairIKPciEEED2Ev(%"class.__gnu_cxx::new_allocator.1"* %this) unnamed_addr #5 comdat align 2 !dbg !3093 {
entry:
  %this.addr = alloca %"class.__gnu_cxx::new_allocator.1"*, align 8
  store %"class.__gnu_cxx::new_allocator.1"* %this, %"class.__gnu_cxx::new_allocator.1"** %this.addr, align 8
  call void @llvm.dbg.declare(metadata %"class.__gnu_cxx::new_allocator.1"** %this.addr, metadata !3094, metadata !DIExpression()), !dbg !3095
  %this1 = load %"class.__gnu_cxx::new_allocator.1"*, %"class.__gnu_cxx::new_allocator.1"** %this.addr, align 8
  ret void, !dbg !3096
}

; Function Attrs: noinline nounwind uwtable
define linkonce_odr dso_local zeroext i1 @_ZNKSt8_Rb_treeIPcSt4pairIKS0_iESt10_Select1stIS3_EN11cStringPool7strlessESaIS3_EE5emptyEv(%"class.std::_Rb_tree"* %this) #5 comdat align 2 !dbg !3097 {
entry:
  %this.addr = alloca %"class.std::_Rb_tree"*, align 8
  store %"class.std::_Rb_tree"* %this, %"class.std::_Rb_tree"** %this.addr, align 8
  call void @llvm.dbg.declare(metadata %"class.std::_Rb_tree"** %this.addr, metadata !3098, metadata !DIExpression()), !dbg !3100
  %this1 = load %"class.std::_Rb_tree"*, %"class.std::_Rb_tree"** %this.addr, align 8
  %_M_impl = getelementptr inbounds %"class.std::_Rb_tree", %"class.std::_Rb_tree"* %this1, i32 0, i32 0, !dbg !3101
  %0 = bitcast %"struct.std::_Rb_tree<char *, std::pair<char *const, int>, std::_Select1st<std::pair<char *const, int> >, cStringPool::strless, std::allocator<std::pair<char *const, int> > >::_Rb_tree_impl"* %_M_impl to i8*, !dbg !3101
  %add.ptr = getelementptr inbounds i8, i8* %0, i64 8, !dbg !3101
  %1 = bitcast i8* %add.ptr to %"struct.std::_Rb_tree_header"*, !dbg !3101
  %_M_node_count = getelementptr inbounds %"struct.std::_Rb_tree_header", %"struct.std::_Rb_tree_header"* %1, i32 0, i32 1, !dbg !3102
  %2 = load i64, i64* %_M_node_count, align 8, !dbg !3102
  %cmp = icmp eq i64 %2, 0, !dbg !3103
  ret i1 %cmp, !dbg !3104
}

; Function Attrs: noinline nounwind uwtable
define linkonce_odr dso_local %"struct.std::_Rb_tree_node_base"* @_ZNKSt8_Rb_treeIPcSt4pairIKS0_iESt10_Select1stIS3_EN11cStringPool7strlessESaIS3_EE5beginEv(%"class.std::_Rb_tree"* %this) #5 comdat align 2 !dbg !3105 {
entry:
  %retval = alloca %"struct.std::_Rb_tree_const_iterator", align 8
  %this.addr = alloca %"class.std::_Rb_tree"*, align 8
  store %"class.std::_Rb_tree"* %this, %"class.std::_Rb_tree"** %this.addr, align 8
  call void @llvm.dbg.declare(metadata %"class.std::_Rb_tree"** %this.addr, metadata !3106, metadata !DIExpression()), !dbg !3107
  %this1 = load %"class.std::_Rb_tree"*, %"class.std::_Rb_tree"** %this.addr, align 8
  %_M_impl = getelementptr inbounds %"class.std::_Rb_tree", %"class.std::_Rb_tree"* %this1, i32 0, i32 0, !dbg !3108
  %0 = bitcast %"struct.std::_Rb_tree<char *, std::pair<char *const, int>, std::_Select1st<std::pair<char *const, int> >, cStringPool::strless, std::allocator<std::pair<char *const, int> > >::_Rb_tree_impl"* %_M_impl to i8*, !dbg !3109
  %add.ptr = getelementptr inbounds i8, i8* %0, i64 8, !dbg !3109
  %1 = bitcast i8* %add.ptr to %"struct.std::_Rb_tree_header"*, !dbg !3109
  %_M_header = getelementptr inbounds %"struct.std::_Rb_tree_header", %"struct.std::_Rb_tree_header"* %1, i32 0, i32 0, !dbg !3110
  %_M_left = getelementptr inbounds %"struct.std::_Rb_tree_node_base", %"struct.std::_Rb_tree_node_base"* %_M_header, i32 0, i32 2, !dbg !3111
  %2 = load %"struct.std::_Rb_tree_node_base"*, %"struct.std::_Rb_tree_node_base"** %_M_left, align 8, !dbg !3111
  call void @_ZNSt23_Rb_tree_const_iteratorISt4pairIKPciEEC2EPKSt18_Rb_tree_node_base(%"struct.std::_Rb_tree_const_iterator"* %retval, %"struct.std::_Rb_tree_node_base"* %2) #3, !dbg !3112
  %coerce.dive = getelementptr inbounds %"struct.std::_Rb_tree_const_iterator", %"struct.std::_Rb_tree_const_iterator"* %retval, i32 0, i32 0, !dbg !3113
  %3 = load %"struct.std::_Rb_tree_node_base"*, %"struct.std::_Rb_tree_node_base"** %coerce.dive, align 8, !dbg !3113
  ret %"struct.std::_Rb_tree_node_base"* %3, !dbg !3113
}

; Function Attrs: noinline nounwind uwtable
define linkonce_odr dso_local void @_ZNSt23_Rb_tree_const_iteratorISt4pairIKPciEEC2EPKSt18_Rb_tree_node_base(%"struct.std::_Rb_tree_const_iterator"* %this, %"struct.std::_Rb_tree_node_base"* %__x) unnamed_addr #5 comdat align 2 !dbg !3114 {
entry:
  %this.addr = alloca %"struct.std::_Rb_tree_const_iterator"*, align 8
  %__x.addr = alloca %"struct.std::_Rb_tree_node_base"*, align 8
  store %"struct.std::_Rb_tree_const_iterator"* %this, %"struct.std::_Rb_tree_const_iterator"** %this.addr, align 8
  call void @llvm.dbg.declare(metadata %"struct.std::_Rb_tree_const_iterator"** %this.addr, metadata !3115, metadata !DIExpression()), !dbg !3116
  store %"struct.std::_Rb_tree_node_base"* %__x, %"struct.std::_Rb_tree_node_base"** %__x.addr, align 8
  call void @llvm.dbg.declare(metadata %"struct.std::_Rb_tree_node_base"** %__x.addr, metadata !3117, metadata !DIExpression()), !dbg !3118
  %this1 = load %"struct.std::_Rb_tree_const_iterator"*, %"struct.std::_Rb_tree_const_iterator"** %this.addr, align 8
  %_M_node = getelementptr inbounds %"struct.std::_Rb_tree_const_iterator", %"struct.std::_Rb_tree_const_iterator"* %this1, i32 0, i32 0, !dbg !3119
  %0 = load %"struct.std::_Rb_tree_node_base"*, %"struct.std::_Rb_tree_node_base"** %__x.addr, align 8, !dbg !3120
  store %"struct.std::_Rb_tree_node_base"* %0, %"struct.std::_Rb_tree_node_base"** %_M_node, align 8, !dbg !3119
  ret void, !dbg !3121
}

; Function Attrs: noinline nounwind uwtable
define linkonce_odr dso_local %"struct.std::_Rb_tree_node_base"* @_ZNKSt8_Rb_treeIPcSt4pairIKS0_iESt10_Select1stIS3_EN11cStringPool7strlessESaIS3_EE3endEv(%"class.std::_Rb_tree"* %this) #5 comdat align 2 !dbg !3122 {
entry:
  %retval = alloca %"struct.std::_Rb_tree_const_iterator", align 8
  %this.addr = alloca %"class.std::_Rb_tree"*, align 8
  store %"class.std::_Rb_tree"* %this, %"class.std::_Rb_tree"** %this.addr, align 8
  call void @llvm.dbg.declare(metadata %"class.std::_Rb_tree"** %this.addr, metadata !3123, metadata !DIExpression()), !dbg !3124
  %this1 = load %"class.std::_Rb_tree"*, %"class.std::_Rb_tree"** %this.addr, align 8
  %_M_impl = getelementptr inbounds %"class.std::_Rb_tree", %"class.std::_Rb_tree"* %this1, i32 0, i32 0, !dbg !3125
  %0 = bitcast %"struct.std::_Rb_tree<char *, std::pair<char *const, int>, std::_Select1st<std::pair<char *const, int> >, cStringPool::strless, std::allocator<std::pair<char *const, int> > >::_Rb_tree_impl"* %_M_impl to i8*, !dbg !3126
  %add.ptr = getelementptr inbounds i8, i8* %0, i64 8, !dbg !3126
  %1 = bitcast i8* %add.ptr to %"struct.std::_Rb_tree_header"*, !dbg !3126
  %_M_header = getelementptr inbounds %"struct.std::_Rb_tree_header", %"struct.std::_Rb_tree_header"* %1, i32 0, i32 0, !dbg !3127
  call void @_ZNSt23_Rb_tree_const_iteratorISt4pairIKPciEEC2EPKSt18_Rb_tree_node_base(%"struct.std::_Rb_tree_const_iterator"* %retval, %"struct.std::_Rb_tree_node_base"* %_M_header) #3, !dbg !3128
  %coerce.dive = getelementptr inbounds %"struct.std::_Rb_tree_const_iterator", %"struct.std::_Rb_tree_const_iterator"* %retval, i32 0, i32 0, !dbg !3129
  %2 = load %"struct.std::_Rb_tree_node_base"*, %"struct.std::_Rb_tree_node_base"** %coerce.dive, align 8, !dbg !3129
  ret %"struct.std::_Rb_tree_node_base"* %2, !dbg !3129
}

; Function Attrs: nounwind readonly
declare dso_local %"struct.std::_Rb_tree_node_base"* @_ZSt18_Rb_tree_incrementPKSt18_Rb_tree_node_base(%"struct.std::_Rb_tree_node_base"*) #6

; Function Attrs: noinline nounwind uwtable
define linkonce_odr dso_local %"struct.std::pair"* @_ZNKSt13_Rb_tree_nodeISt4pairIKPciEE9_M_valptrEv(%"struct.std::_Rb_tree_node"* %this) #5 comdat align 2 !dbg !3130 {
entry:
  %this.addr = alloca %"struct.std::_Rb_tree_node"*, align 8
  store %"struct.std::_Rb_tree_node"* %this, %"struct.std::_Rb_tree_node"** %this.addr, align 8
  call void @llvm.dbg.declare(metadata %"struct.std::_Rb_tree_node"** %this.addr, metadata !3131, metadata !DIExpression()), !dbg !3132
  %this1 = load %"struct.std::_Rb_tree_node"*, %"struct.std::_Rb_tree_node"** %this.addr, align 8
  %_M_storage = getelementptr inbounds %"struct.std::_Rb_tree_node", %"struct.std::_Rb_tree_node"* %this1, i32 0, i32 1, !dbg !3133
  %call = call %"struct.std::pair"* @_ZNK9__gnu_cxx16__aligned_membufISt4pairIKPciEE6_M_ptrEv(%"struct.__gnu_cxx::__aligned_membuf"* %_M_storage) #3, !dbg !3134
  ret %"struct.std::pair"* %call, !dbg !3135
}

; Function Attrs: noinline nounwind uwtable
define linkonce_odr dso_local %"struct.std::pair"* @_ZNK9__gnu_cxx16__aligned_membufISt4pairIKPciEE6_M_ptrEv(%"struct.__gnu_cxx::__aligned_membuf"* %this) #5 comdat align 2 !dbg !3136 {
entry:
  %this.addr = alloca %"struct.__gnu_cxx::__aligned_membuf"*, align 8
  store %"struct.__gnu_cxx::__aligned_membuf"* %this, %"struct.__gnu_cxx::__aligned_membuf"** %this.addr, align 8
  call void @llvm.dbg.declare(metadata %"struct.__gnu_cxx::__aligned_membuf"** %this.addr, metadata !3137, metadata !DIExpression()), !dbg !3139
  %this1 = load %"struct.__gnu_cxx::__aligned_membuf"*, %"struct.__gnu_cxx::__aligned_membuf"** %this.addr, align 8
  %call = call i8* @_ZNK9__gnu_cxx16__aligned_membufISt4pairIKPciEE7_M_addrEv(%"struct.__gnu_cxx::__aligned_membuf"* %this1) #3, !dbg !3140
  %0 = bitcast i8* %call to %"struct.std::pair"*, !dbg !3141
  ret %"struct.std::pair"* %0, !dbg !3142
}

; Function Attrs: noinline nounwind uwtable
define linkonce_odr dso_local i8* @_ZNK9__gnu_cxx16__aligned_membufISt4pairIKPciEE7_M_addrEv(%"struct.__gnu_cxx::__aligned_membuf"* %this) #5 comdat align 2 !dbg !3143 {
entry:
  %this.addr = alloca %"struct.__gnu_cxx::__aligned_membuf"*, align 8
  store %"struct.__gnu_cxx::__aligned_membuf"* %this, %"struct.__gnu_cxx::__aligned_membuf"** %this.addr, align 8
  call void @llvm.dbg.declare(metadata %"struct.__gnu_cxx::__aligned_membuf"** %this.addr, metadata !3144, metadata !DIExpression()), !dbg !3145
  %this1 = load %"struct.__gnu_cxx::__aligned_membuf"*, %"struct.__gnu_cxx::__aligned_membuf"** %this.addr, align 8
  %_M_storage = getelementptr inbounds %"struct.__gnu_cxx::__aligned_membuf", %"struct.__gnu_cxx::__aligned_membuf"* %this1, i32 0, i32 0, !dbg !3146
  %0 = bitcast [16 x i8]* %_M_storage to i8*, !dbg !3147
  ret i8* %0, !dbg !3148
}

; Function Attrs: noinline uwtable
define linkonce_odr dso_local %"struct.std::_Rb_tree_node_base"* @_ZNSt8_Rb_treeIPcSt4pairIKS0_iESt10_Select1stIS3_EN11cStringPool7strlessESaIS3_EE4findERS2_(%"class.std::_Rb_tree"* %this, i8** dereferenceable(8) %__k) #0 comdat align 2 !dbg !3149 {
entry:
  %retval = alloca %"struct.std::_Rb_tree_iterator", align 8
  %this.addr = alloca %"class.std::_Rb_tree"*, align 8
  %__k.addr = alloca i8**, align 8
  %__j = alloca %"struct.std::_Rb_tree_iterator", align 8
  %ref.tmp = alloca %"struct.std::_Rb_tree_iterator", align 8
  store %"class.std::_Rb_tree"* %this, %"class.std::_Rb_tree"** %this.addr, align 8
  call void @llvm.dbg.declare(metadata %"class.std::_Rb_tree"** %this.addr, metadata !3150, metadata !DIExpression()), !dbg !3151
  store i8** %__k, i8*** %__k.addr, align 8
  call void @llvm.dbg.declare(metadata i8*** %__k.addr, metadata !3152, metadata !DIExpression()), !dbg !3153
  %this1 = load %"class.std::_Rb_tree"*, %"class.std::_Rb_tree"** %this.addr, align 8
  call void @llvm.dbg.declare(metadata %"struct.std::_Rb_tree_iterator"* %__j, metadata !3154, metadata !DIExpression()), !dbg !3155
  %call = call %"struct.std::_Rb_tree_node"* @_ZNSt8_Rb_treeIPcSt4pairIKS0_iESt10_Select1stIS3_EN11cStringPool7strlessESaIS3_EE8_M_beginEv(%"class.std::_Rb_tree"* %this1) #3, !dbg !3156
  %call2 = call %"struct.std::_Rb_tree_node_base"* @_ZNSt8_Rb_treeIPcSt4pairIKS0_iESt10_Select1stIS3_EN11cStringPool7strlessESaIS3_EE6_M_endEv(%"class.std::_Rb_tree"* %this1) #3, !dbg !3157
  %0 = load i8**, i8*** %__k.addr, align 8, !dbg !3158
  %call3 = call %"struct.std::_Rb_tree_node_base"* @_ZNSt8_Rb_treeIPcSt4pairIKS0_iESt10_Select1stIS3_EN11cStringPool7strlessESaIS3_EE14_M_lower_boundEPSt13_Rb_tree_nodeIS3_EPSt18_Rb_tree_node_baseRS2_(%"class.std::_Rb_tree"* %this1, %"struct.std::_Rb_tree_node"* %call, %"struct.std::_Rb_tree_node_base"* %call2, i8** dereferenceable(8) %0), !dbg !3159
  %coerce.dive = getelementptr inbounds %"struct.std::_Rb_tree_iterator", %"struct.std::_Rb_tree_iterator"* %__j, i32 0, i32 0, !dbg !3159
  store %"struct.std::_Rb_tree_node_base"* %call3, %"struct.std::_Rb_tree_node_base"** %coerce.dive, align 8, !dbg !3159
  %call4 = call %"struct.std::_Rb_tree_node_base"* @_ZNSt8_Rb_treeIPcSt4pairIKS0_iESt10_Select1stIS3_EN11cStringPool7strlessESaIS3_EE3endEv(%"class.std::_Rb_tree"* %this1) #3, !dbg !3160
  %coerce.dive5 = getelementptr inbounds %"struct.std::_Rb_tree_iterator", %"struct.std::_Rb_tree_iterator"* %ref.tmp, i32 0, i32 0, !dbg !3160
  store %"struct.std::_Rb_tree_node_base"* %call4, %"struct.std::_Rb_tree_node_base"** %coerce.dive5, align 8, !dbg !3160
  %call6 = call zeroext i1 @_ZSteqRKSt17_Rb_tree_iteratorISt4pairIKPciEES6_(%"struct.std::_Rb_tree_iterator"* dereferenceable(8) %__j, %"struct.std::_Rb_tree_iterator"* dereferenceable(8) %ref.tmp) #3, !dbg !3161
  br i1 %call6, label %cond.true, label %lor.lhs.false, !dbg !3162

lor.lhs.false:                                    ; preds = %entry
  %_M_impl = getelementptr inbounds %"class.std::_Rb_tree", %"class.std::_Rb_tree"* %this1, i32 0, i32 0, !dbg !3163
  %1 = bitcast %"struct.std::_Rb_tree<char *, std::pair<char *const, int>, std::_Select1st<std::pair<char *const, int> >, cStringPool::strless, std::allocator<std::pair<char *const, int> > >::_Rb_tree_impl"* %_M_impl to %"struct.std::_Rb_tree_key_compare"*, !dbg !3163
  %_M_key_compare = getelementptr inbounds %"struct.std::_Rb_tree_key_compare", %"struct.std::_Rb_tree_key_compare"* %1, i32 0, i32 0, !dbg !3164
  %2 = load i8**, i8*** %__k.addr, align 8, !dbg !3165
  %3 = load i8*, i8** %2, align 8, !dbg !3165
  %_M_node = getelementptr inbounds %"struct.std::_Rb_tree_iterator", %"struct.std::_Rb_tree_iterator"* %__j, i32 0, i32 0, !dbg !3166
  %4 = load %"struct.std::_Rb_tree_node_base"*, %"struct.std::_Rb_tree_node_base"** %_M_node, align 8, !dbg !3166
  %call7 = call dereferenceable(8) i8** @_ZNSt8_Rb_treeIPcSt4pairIKS0_iESt10_Select1stIS3_EN11cStringPool7strlessESaIS3_EE6_S_keyEPKSt18_Rb_tree_node_base(%"struct.std::_Rb_tree_node_base"* %4), !dbg !3167
  %5 = load i8*, i8** %call7, align 8, !dbg !3167
  %call8 = call zeroext i1 @_ZNK11cStringPool7strlessclEPKcS2_(%"struct.cStringPool::strless"* %_M_key_compare, i8* %3, i8* %5), !dbg !3163
  br i1 %call8, label %cond.true, label %cond.false, !dbg !3168

cond.true:                                        ; preds = %lor.lhs.false, %entry
  %call9 = call %"struct.std::_Rb_tree_node_base"* @_ZNSt8_Rb_treeIPcSt4pairIKS0_iESt10_Select1stIS3_EN11cStringPool7strlessESaIS3_EE3endEv(%"class.std::_Rb_tree"* %this1) #3, !dbg !3169
  %coerce.dive10 = getelementptr inbounds %"struct.std::_Rb_tree_iterator", %"struct.std::_Rb_tree_iterator"* %retval, i32 0, i32 0, !dbg !3169
  store %"struct.std::_Rb_tree_node_base"* %call9, %"struct.std::_Rb_tree_node_base"** %coerce.dive10, align 8, !dbg !3169
  br label %cond.end, !dbg !3168

cond.false:                                       ; preds = %lor.lhs.false
  %6 = bitcast %"struct.std::_Rb_tree_iterator"* %retval to i8*, !dbg !3170
  %7 = bitcast %"struct.std::_Rb_tree_iterator"* %__j to i8*, !dbg !3170
  call void @llvm.memcpy.p0i8.p0i8.i64(i8* align 8 %6, i8* align 8 %7, i64 8, i1 false), !dbg !3170
  br label %cond.end, !dbg !3168

cond.end:                                         ; preds = %cond.false, %cond.true
  %coerce.dive11 = getelementptr inbounds %"struct.std::_Rb_tree_iterator", %"struct.std::_Rb_tree_iterator"* %retval, i32 0, i32 0, !dbg !3171
  %8 = load %"struct.std::_Rb_tree_node_base"*, %"struct.std::_Rb_tree_node_base"** %coerce.dive11, align 8, !dbg !3171
  ret %"struct.std::_Rb_tree_node_base"* %8, !dbg !3171
}

; Function Attrs: noinline uwtable
define linkonce_odr dso_local %"struct.std::_Rb_tree_node_base"* @_ZNSt8_Rb_treeIPcSt4pairIKS0_iESt10_Select1stIS3_EN11cStringPool7strlessESaIS3_EE14_M_lower_boundEPSt13_Rb_tree_nodeIS3_EPSt18_Rb_tree_node_baseRS2_(%"class.std::_Rb_tree"* %this, %"struct.std::_Rb_tree_node"* %__x, %"struct.std::_Rb_tree_node_base"* %__y, i8** dereferenceable(8) %__k) #0 comdat align 2 !dbg !3172 {
entry:
  %retval = alloca %"struct.std::_Rb_tree_iterator", align 8
  %this.addr = alloca %"class.std::_Rb_tree"*, align 8
  %__x.addr = alloca %"struct.std::_Rb_tree_node"*, align 8
  %__y.addr = alloca %"struct.std::_Rb_tree_node_base"*, align 8
  %__k.addr = alloca i8**, align 8
  store %"class.std::_Rb_tree"* %this, %"class.std::_Rb_tree"** %this.addr, align 8
  call void @llvm.dbg.declare(metadata %"class.std::_Rb_tree"** %this.addr, metadata !3173, metadata !DIExpression()), !dbg !3174
  store %"struct.std::_Rb_tree_node"* %__x, %"struct.std::_Rb_tree_node"** %__x.addr, align 8
  call void @llvm.dbg.declare(metadata %"struct.std::_Rb_tree_node"** %__x.addr, metadata !3175, metadata !DIExpression()), !dbg !3176
  store %"struct.std::_Rb_tree_node_base"* %__y, %"struct.std::_Rb_tree_node_base"** %__y.addr, align 8
  call void @llvm.dbg.declare(metadata %"struct.std::_Rb_tree_node_base"** %__y.addr, metadata !3177, metadata !DIExpression()), !dbg !3178
  store i8** %__k, i8*** %__k.addr, align 8
  call void @llvm.dbg.declare(metadata i8*** %__k.addr, metadata !3179, metadata !DIExpression()), !dbg !3180
  %this1 = load %"class.std::_Rb_tree"*, %"class.std::_Rb_tree"** %this.addr, align 8
  br label %while.cond, !dbg !3181

while.cond:                                       ; preds = %if.end, %entry
  %0 = load %"struct.std::_Rb_tree_node"*, %"struct.std::_Rb_tree_node"** %__x.addr, align 8, !dbg !3182
  %cmp = icmp ne %"struct.std::_Rb_tree_node"* %0, null, !dbg !3183
  br i1 %cmp, label %while.body, label %while.end, !dbg !3181

while.body:                                       ; preds = %while.cond
  %_M_impl = getelementptr inbounds %"class.std::_Rb_tree", %"class.std::_Rb_tree"* %this1, i32 0, i32 0, !dbg !3184
  %1 = bitcast %"struct.std::_Rb_tree<char *, std::pair<char *const, int>, std::_Select1st<std::pair<char *const, int> >, cStringPool::strless, std::allocator<std::pair<char *const, int> > >::_Rb_tree_impl"* %_M_impl to %"struct.std::_Rb_tree_key_compare"*, !dbg !3184
  %_M_key_compare = getelementptr inbounds %"struct.std::_Rb_tree_key_compare", %"struct.std::_Rb_tree_key_compare"* %1, i32 0, i32 0, !dbg !3186
  %2 = load %"struct.std::_Rb_tree_node"*, %"struct.std::_Rb_tree_node"** %__x.addr, align 8, !dbg !3187
  %call = call dereferenceable(8) i8** @_ZNSt8_Rb_treeIPcSt4pairIKS0_iESt10_Select1stIS3_EN11cStringPool7strlessESaIS3_EE6_S_keyEPKSt13_Rb_tree_nodeIS3_E(%"struct.std::_Rb_tree_node"* %2), !dbg !3188
  %3 = load i8*, i8** %call, align 8, !dbg !3188
  %4 = load i8**, i8*** %__k.addr, align 8, !dbg !3189
  %5 = load i8*, i8** %4, align 8, !dbg !3189
  %call2 = call zeroext i1 @_ZNK11cStringPool7strlessclEPKcS2_(%"struct.cStringPool::strless"* %_M_key_compare, i8* %3, i8* %5), !dbg !3184
  br i1 %call2, label %if.else, label %if.then, !dbg !3190

if.then:                                          ; preds = %while.body
  %6 = load %"struct.std::_Rb_tree_node"*, %"struct.std::_Rb_tree_node"** %__x.addr, align 8, !dbg !3191
  %7 = bitcast %"struct.std::_Rb_tree_node"* %6 to %"struct.std::_Rb_tree_node_base"*, !dbg !3191
  store %"struct.std::_Rb_tree_node_base"* %7, %"struct.std::_Rb_tree_node_base"** %__y.addr, align 8, !dbg !3192
  %8 = load %"struct.std::_Rb_tree_node"*, %"struct.std::_Rb_tree_node"** %__x.addr, align 8, !dbg !3193
  %9 = bitcast %"struct.std::_Rb_tree_node"* %8 to %"struct.std::_Rb_tree_node_base"*, !dbg !3193
  %call3 = call %"struct.std::_Rb_tree_node"* @_ZNSt8_Rb_treeIPcSt4pairIKS0_iESt10_Select1stIS3_EN11cStringPool7strlessESaIS3_EE7_S_leftEPSt18_Rb_tree_node_base(%"struct.std::_Rb_tree_node_base"* %9) #3, !dbg !3194
  store %"struct.std::_Rb_tree_node"* %call3, %"struct.std::_Rb_tree_node"** %__x.addr, align 8, !dbg !3195
  br label %if.end, !dbg !3196

if.else:                                          ; preds = %while.body
  %10 = load %"struct.std::_Rb_tree_node"*, %"struct.std::_Rb_tree_node"** %__x.addr, align 8, !dbg !3197
  %11 = bitcast %"struct.std::_Rb_tree_node"* %10 to %"struct.std::_Rb_tree_node_base"*, !dbg !3197
  %call4 = call %"struct.std::_Rb_tree_node"* @_ZNSt8_Rb_treeIPcSt4pairIKS0_iESt10_Select1stIS3_EN11cStringPool7strlessESaIS3_EE8_S_rightEPSt18_Rb_tree_node_base(%"struct.std::_Rb_tree_node_base"* %11) #3, !dbg !3198
  store %"struct.std::_Rb_tree_node"* %call4, %"struct.std::_Rb_tree_node"** %__x.addr, align 8, !dbg !3199
  br label %if.end

if.end:                                           ; preds = %if.else, %if.then
  br label %while.cond, !dbg !3181, !llvm.loop !3200

while.end:                                        ; preds = %while.cond
  %12 = load %"struct.std::_Rb_tree_node_base"*, %"struct.std::_Rb_tree_node_base"** %__y.addr, align 8, !dbg !3202
  call void @_ZNSt17_Rb_tree_iteratorISt4pairIKPciEEC2EPSt18_Rb_tree_node_base(%"struct.std::_Rb_tree_iterator"* %retval, %"struct.std::_Rb_tree_node_base"* %12) #3, !dbg !3203
  %coerce.dive = getelementptr inbounds %"struct.std::_Rb_tree_iterator", %"struct.std::_Rb_tree_iterator"* %retval, i32 0, i32 0, !dbg !3204
  %13 = load %"struct.std::_Rb_tree_node_base"*, %"struct.std::_Rb_tree_node_base"** %coerce.dive, align 8, !dbg !3204
  ret %"struct.std::_Rb_tree_node_base"* %13, !dbg !3204
}

; Function Attrs: noinline nounwind uwtable
define linkonce_odr dso_local %"struct.std::_Rb_tree_node_base"* @_ZNSt8_Rb_treeIPcSt4pairIKS0_iESt10_Select1stIS3_EN11cStringPool7strlessESaIS3_EE6_M_endEv(%"class.std::_Rb_tree"* %this) #5 comdat align 2 !dbg !3205 {
entry:
  %this.addr = alloca %"class.std::_Rb_tree"*, align 8
  store %"class.std::_Rb_tree"* %this, %"class.std::_Rb_tree"** %this.addr, align 8
  call void @llvm.dbg.declare(metadata %"class.std::_Rb_tree"** %this.addr, metadata !3206, metadata !DIExpression()), !dbg !3207
  %this1 = load %"class.std::_Rb_tree"*, %"class.std::_Rb_tree"** %this.addr, align 8
  %_M_impl = getelementptr inbounds %"class.std::_Rb_tree", %"class.std::_Rb_tree"* %this1, i32 0, i32 0, !dbg !3208
  %0 = bitcast %"struct.std::_Rb_tree<char *, std::pair<char *const, int>, std::_Select1st<std::pair<char *const, int> >, cStringPool::strless, std::allocator<std::pair<char *const, int> > >::_Rb_tree_impl"* %_M_impl to i8*, !dbg !3209
  %add.ptr = getelementptr inbounds i8, i8* %0, i64 8, !dbg !3209
  %1 = bitcast i8* %add.ptr to %"struct.std::_Rb_tree_header"*, !dbg !3209
  %_M_header = getelementptr inbounds %"struct.std::_Rb_tree_header", %"struct.std::_Rb_tree_header"* %1, i32 0, i32 0, !dbg !3210
  ret %"struct.std::_Rb_tree_node_base"* %_M_header, !dbg !3211
}

; Function Attrs: noinline nounwind uwtable
define linkonce_odr dso_local %"struct.std::_Rb_tree_node_base"* @_ZNSt8_Rb_treeIPcSt4pairIKS0_iESt10_Select1stIS3_EN11cStringPool7strlessESaIS3_EE3endEv(%"class.std::_Rb_tree"* %this) #5 comdat align 2 !dbg !3212 {
entry:
  %retval = alloca %"struct.std::_Rb_tree_iterator", align 8
  %this.addr = alloca %"class.std::_Rb_tree"*, align 8
  store %"class.std::_Rb_tree"* %this, %"class.std::_Rb_tree"** %this.addr, align 8
  call void @llvm.dbg.declare(metadata %"class.std::_Rb_tree"** %this.addr, metadata !3213, metadata !DIExpression()), !dbg !3214
  %this1 = load %"class.std::_Rb_tree"*, %"class.std::_Rb_tree"** %this.addr, align 8
  %_M_impl = getelementptr inbounds %"class.std::_Rb_tree", %"class.std::_Rb_tree"* %this1, i32 0, i32 0, !dbg !3215
  %0 = bitcast %"struct.std::_Rb_tree<char *, std::pair<char *const, int>, std::_Select1st<std::pair<char *const, int> >, cStringPool::strless, std::allocator<std::pair<char *const, int> > >::_Rb_tree_impl"* %_M_impl to i8*, !dbg !3216
  %add.ptr = getelementptr inbounds i8, i8* %0, i64 8, !dbg !3216
  %1 = bitcast i8* %add.ptr to %"struct.std::_Rb_tree_header"*, !dbg !3216
  %_M_header = getelementptr inbounds %"struct.std::_Rb_tree_header", %"struct.std::_Rb_tree_header"* %1, i32 0, i32 0, !dbg !3217
  call void @_ZNSt17_Rb_tree_iteratorISt4pairIKPciEEC2EPSt18_Rb_tree_node_base(%"struct.std::_Rb_tree_iterator"* %retval, %"struct.std::_Rb_tree_node_base"* %_M_header) #3, !dbg !3218
  %coerce.dive = getelementptr inbounds %"struct.std::_Rb_tree_iterator", %"struct.std::_Rb_tree_iterator"* %retval, i32 0, i32 0, !dbg !3219
  %2 = load %"struct.std::_Rb_tree_node_base"*, %"struct.std::_Rb_tree_node_base"** %coerce.dive, align 8, !dbg !3219
  ret %"struct.std::_Rb_tree_node_base"* %2, !dbg !3219
}

; Function Attrs: noinline nounwind uwtable
define linkonce_odr dso_local zeroext i1 @_ZNK11cStringPool7strlessclEPKcS2_(%"struct.cStringPool::strless"* %this, i8* %s1, i8* %s2) #5 comdat align 2 !dbg !3220 {
entry:
  %retval = alloca i1, align 1
  %this.addr = alloca %"struct.cStringPool::strless"*, align 8
  %s1.addr = alloca i8*, align 8
  %s2.addr = alloca i8*, align 8
  %d0 = alloca i32, align 4
  store %"struct.cStringPool::strless"* %this, %"struct.cStringPool::strless"** %this.addr, align 8
  call void @llvm.dbg.declare(metadata %"struct.cStringPool::strless"** %this.addr, metadata !3221, metadata !DIExpression()), !dbg !3223
  store i8* %s1, i8** %s1.addr, align 8
  call void @llvm.dbg.declare(metadata i8** %s1.addr, metadata !3224, metadata !DIExpression()), !dbg !3225
  store i8* %s2, i8** %s2.addr, align 8
  call void @llvm.dbg.declare(metadata i8** %s2.addr, metadata !3226, metadata !DIExpression()), !dbg !3227
  %this1 = load %"struct.cStringPool::strless"*, %"struct.cStringPool::strless"** %this.addr, align 8
  call void @llvm.dbg.declare(metadata i32* %d0, metadata !3228, metadata !DIExpression()), !dbg !3229
  %0 = load i8*, i8** %s1.addr, align 8, !dbg !3230
  %1 = load i8, i8* %0, align 1, !dbg !3231
  %conv = sext i8 %1 to i32, !dbg !3231
  %2 = load i8*, i8** %s2.addr, align 8, !dbg !3232
  %3 = load i8, i8* %2, align 1, !dbg !3233
  %conv2 = sext i8 %3 to i32, !dbg !3233
  %sub = sub nsw i32 %conv, %conv2, !dbg !3234
  store i32 %sub, i32* %d0, align 4, !dbg !3229
  %4 = load i32, i32* %d0, align 4, !dbg !3235
  %cmp = icmp slt i32 %4, 0, !dbg !3237
  br i1 %cmp, label %if.then, label %if.else, !dbg !3238

if.then:                                          ; preds = %entry
  store i1 true, i1* %retval, align 1, !dbg !3239
  br label %return, !dbg !3239

if.else:                                          ; preds = %entry
  %5 = load i32, i32* %d0, align 4, !dbg !3240
  %cmp3 = icmp sgt i32 %5, 0, !dbg !3242
  br i1 %cmp3, label %if.then4, label %if.end, !dbg !3243

if.then4:                                         ; preds = %if.else
  store i1 false, i1* %retval, align 1, !dbg !3244
  br label %return, !dbg !3244

if.end:                                           ; preds = %if.else
  br label %if.end5

if.end5:                                          ; preds = %if.end
  %6 = load i8*, i8** %s1.addr, align 8, !dbg !3245
  %7 = load i8*, i8** %s2.addr, align 8, !dbg !3246
  %call = call i32 @strcmp(i8* %6, i8* %7) #14, !dbg !3247
  %cmp6 = icmp slt i32 %call, 0, !dbg !3248
  store i1 %cmp6, i1* %retval, align 1, !dbg !3249
  br label %return, !dbg !3249

return:                                           ; preds = %if.end5, %if.then4, %if.then
  %8 = load i1, i1* %retval, align 1, !dbg !3250
  ret i1 %8, !dbg !3250
}

; Function Attrs: noinline uwtable
define linkonce_odr dso_local dereferenceable(8) i8** @_ZNSt8_Rb_treeIPcSt4pairIKS0_iESt10_Select1stIS3_EN11cStringPool7strlessESaIS3_EE6_S_keyEPKSt18_Rb_tree_node_base(%"struct.std::_Rb_tree_node_base"* %__x) #0 comdat align 2 !dbg !3251 {
entry:
  %__x.addr = alloca %"struct.std::_Rb_tree_node_base"*, align 8
  store %"struct.std::_Rb_tree_node_base"* %__x, %"struct.std::_Rb_tree_node_base"** %__x.addr, align 8
  call void @llvm.dbg.declare(metadata %"struct.std::_Rb_tree_node_base"** %__x.addr, metadata !3252, metadata !DIExpression()), !dbg !3253
  %0 = load %"struct.std::_Rb_tree_node_base"*, %"struct.std::_Rb_tree_node_base"** %__x.addr, align 8, !dbg !3254
  %1 = bitcast %"struct.std::_Rb_tree_node_base"* %0 to %"struct.std::_Rb_tree_node"*, !dbg !3255
  %call = call dereferenceable(8) i8** @_ZNSt8_Rb_treeIPcSt4pairIKS0_iESt10_Select1stIS3_EN11cStringPool7strlessESaIS3_EE6_S_keyEPKSt13_Rb_tree_nodeIS3_E(%"struct.std::_Rb_tree_node"* %1), !dbg !3256
  ret i8** %call, !dbg !3257
}

; Function Attrs: noinline uwtable
define linkonce_odr dso_local dereferenceable(8) i8** @_ZNSt8_Rb_treeIPcSt4pairIKS0_iESt10_Select1stIS3_EN11cStringPool7strlessESaIS3_EE6_S_keyEPKSt13_Rb_tree_nodeIS3_E(%"struct.std::_Rb_tree_node"* %__x) #0 comdat align 2 !dbg !3258 {
entry:
  %__x.addr = alloca %"struct.std::_Rb_tree_node"*, align 8
  %ref.tmp = alloca %"struct.std::_Select1st", align 1
  store %"struct.std::_Rb_tree_node"* %__x, %"struct.std::_Rb_tree_node"** %__x.addr, align 8
  call void @llvm.dbg.declare(metadata %"struct.std::_Rb_tree_node"** %__x.addr, metadata !3259, metadata !DIExpression()), !dbg !3260
  %0 = load %"struct.std::_Rb_tree_node"*, %"struct.std::_Rb_tree_node"** %__x.addr, align 8, !dbg !3261
  %call = call %"struct.std::pair"* @_ZNKSt13_Rb_tree_nodeISt4pairIKPciEE9_M_valptrEv(%"struct.std::_Rb_tree_node"* %0), !dbg !3262
  %call1 = call dereferenceable(8) i8** @_ZNKSt10_Select1stISt4pairIKPciEEclERKS3_(%"struct.std::_Select1st"* %ref.tmp, %"struct.std::pair"* dereferenceable(16) %call), !dbg !3263
  ret i8** %call1, !dbg !3264
}

; Function Attrs: noinline nounwind uwtable
define linkonce_odr dso_local void @_ZNSt17_Rb_tree_iteratorISt4pairIKPciEEC2EPSt18_Rb_tree_node_base(%"struct.std::_Rb_tree_iterator"* %this, %"struct.std::_Rb_tree_node_base"* %__x) unnamed_addr #5 comdat align 2 !dbg !3265 {
entry:
  %this.addr = alloca %"struct.std::_Rb_tree_iterator"*, align 8
  %__x.addr = alloca %"struct.std::_Rb_tree_node_base"*, align 8
  store %"struct.std::_Rb_tree_iterator"* %this, %"struct.std::_Rb_tree_iterator"** %this.addr, align 8
  call void @llvm.dbg.declare(metadata %"struct.std::_Rb_tree_iterator"** %this.addr, metadata !3266, metadata !DIExpression()), !dbg !3268
  store %"struct.std::_Rb_tree_node_base"* %__x, %"struct.std::_Rb_tree_node_base"** %__x.addr, align 8
  call void @llvm.dbg.declare(metadata %"struct.std::_Rb_tree_node_base"** %__x.addr, metadata !3269, metadata !DIExpression()), !dbg !3270
  %this1 = load %"struct.std::_Rb_tree_iterator"*, %"struct.std::_Rb_tree_iterator"** %this.addr, align 8
  %_M_node = getelementptr inbounds %"struct.std::_Rb_tree_iterator", %"struct.std::_Rb_tree_iterator"* %this1, i32 0, i32 0, !dbg !3271
  %0 = load %"struct.std::_Rb_tree_node_base"*, %"struct.std::_Rb_tree_node_base"** %__x.addr, align 8, !dbg !3272
  store %"struct.std::_Rb_tree_node_base"* %0, %"struct.std::_Rb_tree_node_base"** %_M_node, align 8, !dbg !3271
  ret void, !dbg !3273
}

; Function Attrs: noinline nounwind uwtable
define linkonce_odr dso_local dereferenceable(8) i8** @_ZNKSt10_Select1stISt4pairIKPciEEclERKS3_(%"struct.std::_Select1st"* %this, %"struct.std::pair"* dereferenceable(16) %__x) #5 comdat align 2 !dbg !3274 {
entry:
  %this.addr = alloca %"struct.std::_Select1st"*, align 8
  %__x.addr = alloca %"struct.std::pair"*, align 8
  store %"struct.std::_Select1st"* %this, %"struct.std::_Select1st"** %this.addr, align 8
  call void @llvm.dbg.declare(metadata %"struct.std::_Select1st"** %this.addr, metadata !3275, metadata !DIExpression()), !dbg !3277
  store %"struct.std::pair"* %__x, %"struct.std::pair"** %__x.addr, align 8
  call void @llvm.dbg.declare(metadata %"struct.std::pair"** %__x.addr, metadata !3278, metadata !DIExpression()), !dbg !3279
  %this1 = load %"struct.std::_Select1st"*, %"struct.std::_Select1st"** %this.addr, align 8
  %0 = load %"struct.std::pair"*, %"struct.std::pair"** %__x.addr, align 8, !dbg !3280
  %first = getelementptr inbounds %"struct.std::pair", %"struct.std::pair"* %0, i32 0, i32 0, !dbg !3281
  ret i8** %first, !dbg !3282
}

; Function Attrs: nounwind readonly
declare dso_local i32 @strcmp(i8*, i8*) #6

; Function Attrs: noinline uwtable
define linkonce_odr dso_local %"struct.std::_Rb_tree_node_base"* @_ZNSt3mapIPciN11cStringPool7strlessESaISt4pairIKS0_iEEE11lower_boundERS4_(%"class.std::map"* %this, i8** dereferenceable(8) %__x) #0 comdat align 2 !dbg !3283 {
entry:
  %retval = alloca %"struct.std::_Rb_tree_iterator", align 8
  %this.addr = alloca %"class.std::map"*, align 8
  %__x.addr = alloca i8**, align 8
  store %"class.std::map"* %this, %"class.std::map"** %this.addr, align 8
  call void @llvm.dbg.declare(metadata %"class.std::map"** %this.addr, metadata !3284, metadata !DIExpression()), !dbg !3285
  store i8** %__x, i8*** %__x.addr, align 8
  call void @llvm.dbg.declare(metadata i8*** %__x.addr, metadata !3286, metadata !DIExpression()), !dbg !3287
  %this1 = load %"class.std::map"*, %"class.std::map"** %this.addr, align 8
  %_M_t = getelementptr inbounds %"class.std::map", %"class.std::map"* %this1, i32 0, i32 0, !dbg !3288
  %0 = load i8**, i8*** %__x.addr, align 8, !dbg !3289
  %call = call %"struct.std::_Rb_tree_node_base"* @_ZNSt8_Rb_treeIPcSt4pairIKS0_iESt10_Select1stIS3_EN11cStringPool7strlessESaIS3_EE11lower_boundERS2_(%"class.std::_Rb_tree"* %_M_t, i8** dereferenceable(8) %0), !dbg !3290
  %coerce.dive = getelementptr inbounds %"struct.std::_Rb_tree_iterator", %"struct.std::_Rb_tree_iterator"* %retval, i32 0, i32 0, !dbg !3290
  store %"struct.std::_Rb_tree_node_base"* %call, %"struct.std::_Rb_tree_node_base"** %coerce.dive, align 8, !dbg !3290
  %coerce.dive2 = getelementptr inbounds %"struct.std::_Rb_tree_iterator", %"struct.std::_Rb_tree_iterator"* %retval, i32 0, i32 0, !dbg !3291
  %1 = load %"struct.std::_Rb_tree_node_base"*, %"struct.std::_Rb_tree_node_base"** %coerce.dive2, align 8, !dbg !3291
  ret %"struct.std::_Rb_tree_node_base"* %1, !dbg !3291
}

; Function Attrs: noinline uwtable
define linkonce_odr dso_local void @_ZNKSt3mapIPciN11cStringPool7strlessESaISt4pairIKS0_iEEE8key_compEv(%"class.std::map"* %this) #0 comdat align 2 !dbg !3292 {
entry:
  %this.addr = alloca %"class.std::map"*, align 8
  %undef.agg.tmp = alloca %"struct.cStringPool::strless", align 1
  store %"class.std::map"* %this, %"class.std::map"** %this.addr, align 8
  call void @llvm.dbg.declare(metadata %"class.std::map"** %this.addr, metadata !3293, metadata !DIExpression()), !dbg !3294
  %this1 = load %"class.std::map"*, %"class.std::map"** %this.addr, align 8
  %_M_t = getelementptr inbounds %"class.std::map", %"class.std::map"* %this1, i32 0, i32 0, !dbg !3295
  call void @_ZNKSt8_Rb_treeIPcSt4pairIKS0_iESt10_Select1stIS3_EN11cStringPool7strlessESaIS3_EE8key_compEv(%"class.std::_Rb_tree"* %_M_t), !dbg !3296
  ret void, !dbg !3297
}

; Function Attrs: noinline nounwind uwtable
define linkonce_odr dso_local dereferenceable(16) %"struct.std::pair"* @_ZNKSt17_Rb_tree_iteratorISt4pairIKPciEEdeEv(%"struct.std::_Rb_tree_iterator"* %this) #5 comdat align 2 personality i8* bitcast (i32 (...)* @__gxx_personality_v0 to i8*) !dbg !3298 {
entry:
  %this.addr = alloca %"struct.std::_Rb_tree_iterator"*, align 8
  store %"struct.std::_Rb_tree_iterator"* %this, %"struct.std::_Rb_tree_iterator"** %this.addr, align 8
  call void @llvm.dbg.declare(metadata %"struct.std::_Rb_tree_iterator"** %this.addr, metadata !3299, metadata !DIExpression()), !dbg !3300
  %this1 = load %"struct.std::_Rb_tree_iterator"*, %"struct.std::_Rb_tree_iterator"** %this.addr, align 8
  %_M_node = getelementptr inbounds %"struct.std::_Rb_tree_iterator", %"struct.std::_Rb_tree_iterator"* %this1, i32 0, i32 0, !dbg !3301
  %0 = load %"struct.std::_Rb_tree_node_base"*, %"struct.std::_Rb_tree_node_base"** %_M_node, align 8, !dbg !3301
  %1 = bitcast %"struct.std::_Rb_tree_node_base"* %0 to %"struct.std::_Rb_tree_node"*, !dbg !3302
  %call = invoke %"struct.std::pair"* @_ZNSt13_Rb_tree_nodeISt4pairIKPciEE9_M_valptrEv(%"struct.std::_Rb_tree_node"* %1)
          to label %invoke.cont unwind label %terminate.lpad, !dbg !3303

invoke.cont:                                      ; preds = %entry
  ret %"struct.std::pair"* %call, !dbg !3304

terminate.lpad:                                   ; preds = %entry
  %2 = landingpad { i8*, i32 }
          catch i8* null, !dbg !3303
  %3 = extractvalue { i8*, i32 } %2, 0, !dbg !3303
  call void @__clang_call_terminate(i8* %3) #13, !dbg !3303
  unreachable, !dbg !3303
}

; Function Attrs: noinline uwtable
define linkonce_odr dso_local %"struct.std::_Rb_tree_node_base"* @_ZNSt8_Rb_treeIPcSt4pairIKS0_iESt10_Select1stIS3_EN11cStringPool7strlessESaIS3_EE22_M_emplace_hint_uniqueIJRKSt21piecewise_construct_tSt5tupleIJRS2_EESE_IJEEEEESt17_Rb_tree_iteratorIS3_ESt23_Rb_tree_const_iteratorIS3_EDpOT_(%"class.std::_Rb_tree"* %this, %"struct.std::_Rb_tree_node_base"* %__pos.coerce, %"struct.std::piecewise_construct_t"* dereferenceable(1) %__args, %"class.std::tuple"* dereferenceable(8) %__args1, %"class.std::tuple.3"* dereferenceable(1) %__args3) #0 comdat align 2 personality i8* bitcast (i32 (...)* @__gxx_personality_v0 to i8*) !dbg !3305 {
entry:
  %retval = alloca %"struct.std::_Rb_tree_iterator", align 8
  %__pos = alloca %"struct.std::_Rb_tree_const_iterator", align 8
  %this.addr = alloca %"class.std::_Rb_tree"*, align 8
  %__args.addr = alloca %"struct.std::piecewise_construct_t"*, align 8
  %__args.addr2 = alloca %"class.std::tuple"*, align 8
  %__args.addr4 = alloca %"class.std::tuple.3"*, align 8
  %__z = alloca %"struct.std::_Rb_tree_node"*, align 8
  %__res = alloca %"struct.std::pair.4", align 8
  %agg.tmp = alloca %"struct.std::_Rb_tree_const_iterator", align 8
  %exn.slot = alloca i8*
  %ehselector.slot = alloca i32
  %coerce.dive = getelementptr inbounds %"struct.std::_Rb_tree_const_iterator", %"struct.std::_Rb_tree_const_iterator"* %__pos, i32 0, i32 0
  store %"struct.std::_Rb_tree_node_base"* %__pos.coerce, %"struct.std::_Rb_tree_node_base"** %coerce.dive, align 8
  store %"class.std::_Rb_tree"* %this, %"class.std::_Rb_tree"** %this.addr, align 8
  call void @llvm.dbg.declare(metadata %"class.std::_Rb_tree"** %this.addr, metadata !3329, metadata !DIExpression()), !dbg !3330
  call void @llvm.dbg.declare(metadata %"struct.std::_Rb_tree_const_iterator"* %__pos, metadata !3331, metadata !DIExpression()), !dbg !3332
  store %"struct.std::piecewise_construct_t"* %__args, %"struct.std::piecewise_construct_t"** %__args.addr, align 8
  call void @llvm.dbg.declare(metadata %"struct.std::piecewise_construct_t"** %__args.addr, metadata !3333, metadata !DIExpression()), !dbg !3334
  store %"class.std::tuple"* %__args1, %"class.std::tuple"** %__args.addr2, align 8
  call void @llvm.dbg.declare(metadata %"class.std::tuple"** %__args.addr2, metadata !3335, metadata !DIExpression()), !dbg !3334
  store %"class.std::tuple.3"* %__args3, %"class.std::tuple.3"** %__args.addr4, align 8
  call void @llvm.dbg.declare(metadata %"class.std::tuple.3"** %__args.addr4, metadata !3336, metadata !DIExpression()), !dbg !3334
  %this5 = load %"class.std::_Rb_tree"*, %"class.std::_Rb_tree"** %this.addr, align 8
  call void @llvm.dbg.declare(metadata %"struct.std::_Rb_tree_node"** %__z, metadata !3337, metadata !DIExpression()), !dbg !3338
  %0 = load %"struct.std::piecewise_construct_t"*, %"struct.std::piecewise_construct_t"** %__args.addr, align 8, !dbg !3339
  %call = call dereferenceable(1) %"struct.std::piecewise_construct_t"* @_ZSt7forwardIRKSt21piecewise_construct_tEOT_RNSt16remove_referenceIS3_E4typeE(%"struct.std::piecewise_construct_t"* dereferenceable(1) %0) #3, !dbg !3340
  %1 = load %"class.std::tuple"*, %"class.std::tuple"** %__args.addr2, align 8, !dbg !3339
  %call6 = call dereferenceable(8) %"class.std::tuple"* @_ZSt7forwardISt5tupleIJRKPcEEEOT_RNSt16remove_referenceIS5_E4typeE(%"class.std::tuple"* dereferenceable(8) %1) #3, !dbg !3340
  %2 = load %"class.std::tuple.3"*, %"class.std::tuple.3"** %__args.addr4, align 8, !dbg !3339
  %call7 = call dereferenceable(1) %"class.std::tuple.3"* @_ZSt7forwardISt5tupleIJEEEOT_RNSt16remove_referenceIS2_E4typeE(%"class.std::tuple.3"* dereferenceable(1) %2) #3, !dbg !3340
  %call8 = call %"struct.std::_Rb_tree_node"* @_ZNSt8_Rb_treeIPcSt4pairIKS0_iESt10_Select1stIS3_EN11cStringPool7strlessESaIS3_EE14_M_create_nodeIJRKSt21piecewise_construct_tSt5tupleIJRS2_EESE_IJEEEEEPSt13_Rb_tree_nodeIS3_EDpOT_(%"class.std::_Rb_tree"* %this5, %"struct.std::piecewise_construct_t"* dereferenceable(1) %call, %"class.std::tuple"* dereferenceable(8) %call6, %"class.std::tuple.3"* dereferenceable(1) %call7), !dbg !3341
  store %"struct.std::_Rb_tree_node"* %call8, %"struct.std::_Rb_tree_node"** %__z, align 8, !dbg !3338
  call void @llvm.dbg.declare(metadata %"struct.std::pair.4"* %__res, metadata !3342, metadata !DIExpression()), !dbg !3344
  %3 = bitcast %"struct.std::_Rb_tree_const_iterator"* %agg.tmp to i8*, !dbg !3345
  %4 = bitcast %"struct.std::_Rb_tree_const_iterator"* %__pos to i8*, !dbg !3345
  call void @llvm.memcpy.p0i8.p0i8.i64(i8* align 8 %3, i8* align 8 %4, i64 8, i1 false), !dbg !3345
  %5 = load %"struct.std::_Rb_tree_node"*, %"struct.std::_Rb_tree_node"** %__z, align 8, !dbg !3346
  %call9 = invoke dereferenceable(8) i8** @_ZNSt8_Rb_treeIPcSt4pairIKS0_iESt10_Select1stIS3_EN11cStringPool7strlessESaIS3_EE6_S_keyEPKSt13_Rb_tree_nodeIS3_E(%"struct.std::_Rb_tree_node"* %5)
          to label %invoke.cont unwind label %lpad, !dbg !3347

invoke.cont:                                      ; preds = %entry
  %coerce.dive10 = getelementptr inbounds %"struct.std::_Rb_tree_const_iterator", %"struct.std::_Rb_tree_const_iterator"* %agg.tmp, i32 0, i32 0, !dbg !3348
  %6 = load %"struct.std::_Rb_tree_node_base"*, %"struct.std::_Rb_tree_node_base"** %coerce.dive10, align 8, !dbg !3348
  %call12 = invoke { %"struct.std::_Rb_tree_node_base"*, %"struct.std::_Rb_tree_node_base"* } @_ZNSt8_Rb_treeIPcSt4pairIKS0_iESt10_Select1stIS3_EN11cStringPool7strlessESaIS3_EE29_M_get_insert_hint_unique_posESt23_Rb_tree_const_iteratorIS3_ERS2_(%"class.std::_Rb_tree"* %this5, %"struct.std::_Rb_tree_node_base"* %6, i8** dereferenceable(8) %call9)
          to label %invoke.cont11 unwind label %lpad, !dbg !3348

invoke.cont11:                                    ; preds = %invoke.cont
  %7 = bitcast %"struct.std::pair.4"* %__res to { %"struct.std::_Rb_tree_node_base"*, %"struct.std::_Rb_tree_node_base"* }*, !dbg !3348
  %8 = getelementptr inbounds { %"struct.std::_Rb_tree_node_base"*, %"struct.std::_Rb_tree_node_base"* }, { %"struct.std::_Rb_tree_node_base"*, %"struct.std::_Rb_tree_node_base"* }* %7, i32 0, i32 0, !dbg !3348
  %9 = extractvalue { %"struct.std::_Rb_tree_node_base"*, %"struct.std::_Rb_tree_node_base"* } %call12, 0, !dbg !3348
  store %"struct.std::_Rb_tree_node_base"* %9, %"struct.std::_Rb_tree_node_base"** %8, align 8, !dbg !3348
  %10 = getelementptr inbounds { %"struct.std::_Rb_tree_node_base"*, %"struct.std::_Rb_tree_node_base"* }, { %"struct.std::_Rb_tree_node_base"*, %"struct.std::_Rb_tree_node_base"* }* %7, i32 0, i32 1, !dbg !3348
  %11 = extractvalue { %"struct.std::_Rb_tree_node_base"*, %"struct.std::_Rb_tree_node_base"* } %call12, 1, !dbg !3348
  store %"struct.std::_Rb_tree_node_base"* %11, %"struct.std::_Rb_tree_node_base"** %10, align 8, !dbg !3348
  %second = getelementptr inbounds %"struct.std::pair.4", %"struct.std::pair.4"* %__res, i32 0, i32 1, !dbg !3349
  %12 = load %"struct.std::_Rb_tree_node_base"*, %"struct.std::_Rb_tree_node_base"** %second, align 8, !dbg !3349
  %tobool = icmp ne %"struct.std::_Rb_tree_node_base"* %12, null, !dbg !3351
  br i1 %tobool, label %if.then, label %if.end, !dbg !3352

if.then:                                          ; preds = %invoke.cont11
  %first = getelementptr inbounds %"struct.std::pair.4", %"struct.std::pair.4"* %__res, i32 0, i32 0, !dbg !3353
  %13 = load %"struct.std::_Rb_tree_node_base"*, %"struct.std::_Rb_tree_node_base"** %first, align 8, !dbg !3353
  %second13 = getelementptr inbounds %"struct.std::pair.4", %"struct.std::pair.4"* %__res, i32 0, i32 1, !dbg !3354
  %14 = load %"struct.std::_Rb_tree_node_base"*, %"struct.std::_Rb_tree_node_base"** %second13, align 8, !dbg !3354
  %15 = load %"struct.std::_Rb_tree_node"*, %"struct.std::_Rb_tree_node"** %__z, align 8, !dbg !3355
  %call15 = invoke %"struct.std::_Rb_tree_node_base"* @_ZNSt8_Rb_treeIPcSt4pairIKS0_iESt10_Select1stIS3_EN11cStringPool7strlessESaIS3_EE14_M_insert_nodeEPSt18_Rb_tree_node_baseSB_PSt13_Rb_tree_nodeIS3_E(%"class.std::_Rb_tree"* %this5, %"struct.std::_Rb_tree_node_base"* %13, %"struct.std::_Rb_tree_node_base"* %14, %"struct.std::_Rb_tree_node"* %15)
          to label %invoke.cont14 unwind label %lpad, !dbg !3356

invoke.cont14:                                    ; preds = %if.then
  %coerce.dive16 = getelementptr inbounds %"struct.std::_Rb_tree_iterator", %"struct.std::_Rb_tree_iterator"* %retval, i32 0, i32 0, !dbg !3356
  store %"struct.std::_Rb_tree_node_base"* %call15, %"struct.std::_Rb_tree_node_base"** %coerce.dive16, align 8, !dbg !3356
  br label %return, !dbg !3357

lpad:                                             ; preds = %if.then, %invoke.cont, %entry
  %16 = landingpad { i8*, i32 }
          catch i8* null, !dbg !3358
  %17 = extractvalue { i8*, i32 } %16, 0, !dbg !3358
  store i8* %17, i8** %exn.slot, align 8, !dbg !3358
  %18 = extractvalue { i8*, i32 } %16, 1, !dbg !3358
  store i32 %18, i32* %ehselector.slot, align 4, !dbg !3358
  br label %catch, !dbg !3358

catch:                                            ; preds = %lpad
  %exn = load i8*, i8** %exn.slot, align 8, !dbg !3359
  %19 = call i8* @__cxa_begin_catch(i8* %exn) #3, !dbg !3359
  %20 = load %"struct.std::_Rb_tree_node"*, %"struct.std::_Rb_tree_node"** %__z, align 8, !dbg !3360
  call void @_ZNSt8_Rb_treeIPcSt4pairIKS0_iESt10_Select1stIS3_EN11cStringPool7strlessESaIS3_EE12_M_drop_nodeEPSt13_Rb_tree_nodeIS3_E(%"class.std::_Rb_tree"* %this5, %"struct.std::_Rb_tree_node"* %20) #3, !dbg !3362
  invoke void @__cxa_rethrow() #17
          to label %unreachable unwind label %lpad18, !dbg !3363

if.end:                                           ; preds = %invoke.cont11
  %21 = load %"struct.std::_Rb_tree_node"*, %"struct.std::_Rb_tree_node"** %__z, align 8, !dbg !3364
  call void @_ZNSt8_Rb_treeIPcSt4pairIKS0_iESt10_Select1stIS3_EN11cStringPool7strlessESaIS3_EE12_M_drop_nodeEPSt13_Rb_tree_nodeIS3_E(%"class.std::_Rb_tree"* %this5, %"struct.std::_Rb_tree_node"* %21) #3, !dbg !3365
  %first17 = getelementptr inbounds %"struct.std::pair.4", %"struct.std::pair.4"* %__res, i32 0, i32 0, !dbg !3366
  %22 = load %"struct.std::_Rb_tree_node_base"*, %"struct.std::_Rb_tree_node_base"** %first17, align 8, !dbg !3366
  call void @_ZNSt17_Rb_tree_iteratorISt4pairIKPciEEC2EPSt18_Rb_tree_node_base(%"struct.std::_Rb_tree_iterator"* %retval, %"struct.std::_Rb_tree_node_base"* %22) #3, !dbg !3367
  br label %return, !dbg !3368

lpad18:                                           ; preds = %catch
  %23 = landingpad { i8*, i32 }
          cleanup, !dbg !3369
  %24 = extractvalue { i8*, i32 } %23, 0, !dbg !3369
  store i8* %24, i8** %exn.slot, align 8, !dbg !3369
  %25 = extractvalue { i8*, i32 } %23, 1, !dbg !3369
  store i32 %25, i32* %ehselector.slot, align 4, !dbg !3369
  invoke void @__cxa_end_catch()
          to label %invoke.cont19 unwind label %terminate.lpad, !dbg !3370

invoke.cont19:                                    ; preds = %lpad18
  br label %eh.resume, !dbg !3370

try.cont:                                         ; No predecessors!
  call void @llvm.trap(), !dbg !3370
  unreachable, !dbg !3370

return:                                           ; preds = %if.end, %invoke.cont14
  %coerce.dive20 = getelementptr inbounds %"struct.std::_Rb_tree_iterator", %"struct.std::_Rb_tree_iterator"* %retval, i32 0, i32 0, !dbg !3371
  %26 = load %"struct.std::_Rb_tree_node_base"*, %"struct.std::_Rb_tree_node_base"** %coerce.dive20, align 8, !dbg !3371
  ret %"struct.std::_Rb_tree_node_base"* %26, !dbg !3371

eh.resume:                                        ; preds = %invoke.cont19
  %exn21 = load i8*, i8** %exn.slot, align 8, !dbg !3370
  %sel = load i32, i32* %ehselector.slot, align 4, !dbg !3370
  %lpad.val = insertvalue { i8*, i32 } undef, i8* %exn21, 0, !dbg !3370
  %lpad.val22 = insertvalue { i8*, i32 } %lpad.val, i32 %sel, 1, !dbg !3370
  resume { i8*, i32 } %lpad.val22, !dbg !3370

terminate.lpad:                                   ; preds = %lpad18
  %27 = landingpad { i8*, i32 }
          catch i8* null, !dbg !3370
  %28 = extractvalue { i8*, i32 } %27, 0, !dbg !3370
  call void @__clang_call_terminate(i8* %28) #13, !dbg !3370
  unreachable, !dbg !3370

unreachable:                                      ; preds = %catch
  unreachable
}

; Function Attrs: noinline nounwind uwtable
define linkonce_odr dso_local void @_ZNSt23_Rb_tree_const_iteratorISt4pairIKPciEEC2ERKSt17_Rb_tree_iteratorIS3_E(%"struct.std::_Rb_tree_const_iterator"* %this, %"struct.std::_Rb_tree_iterator"* dereferenceable(8) %__it) unnamed_addr #5 comdat align 2 !dbg !3372 {
entry:
  %this.addr = alloca %"struct.std::_Rb_tree_const_iterator"*, align 8
  %__it.addr = alloca %"struct.std::_Rb_tree_iterator"*, align 8
  store %"struct.std::_Rb_tree_const_iterator"* %this, %"struct.std::_Rb_tree_const_iterator"** %this.addr, align 8
  call void @llvm.dbg.declare(metadata %"struct.std::_Rb_tree_const_iterator"** %this.addr, metadata !3373, metadata !DIExpression()), !dbg !3374
  store %"struct.std::_Rb_tree_iterator"* %__it, %"struct.std::_Rb_tree_iterator"** %__it.addr, align 8
  call void @llvm.dbg.declare(metadata %"struct.std::_Rb_tree_iterator"** %__it.addr, metadata !3375, metadata !DIExpression()), !dbg !3376
  %this1 = load %"struct.std::_Rb_tree_const_iterator"*, %"struct.std::_Rb_tree_const_iterator"** %this.addr, align 8
  %_M_node = getelementptr inbounds %"struct.std::_Rb_tree_const_iterator", %"struct.std::_Rb_tree_const_iterator"* %this1, i32 0, i32 0, !dbg !3377
  %0 = load %"struct.std::_Rb_tree_iterator"*, %"struct.std::_Rb_tree_iterator"** %__it.addr, align 8, !dbg !3378
  %_M_node2 = getelementptr inbounds %"struct.std::_Rb_tree_iterator", %"struct.std::_Rb_tree_iterator"* %0, i32 0, i32 0, !dbg !3379
  %1 = load %"struct.std::_Rb_tree_node_base"*, %"struct.std::_Rb_tree_node_base"** %_M_node2, align 8, !dbg !3379
  store %"struct.std::_Rb_tree_node_base"* %1, %"struct.std::_Rb_tree_node_base"** %_M_node, align 8, !dbg !3377
  ret void, !dbg !3380
}

; Function Attrs: noinline nounwind uwtable
define linkonce_odr dso_local void @_ZNSt5tupleIJRKPcEEC2ILb1ELb1EEES2_(%"class.std::tuple"* %this, i8** dereferenceable(8) %__elements) unnamed_addr #5 comdat align 2 personality i8* bitcast (i32 (...)* @__gxx_personality_v0 to i8*) !dbg !3381 {
entry:
  %this.addr = alloca %"class.std::tuple"*, align 8
  %__elements.addr = alloca i8**, align 8
  store %"class.std::tuple"* %this, %"class.std::tuple"** %this.addr, align 8
  call void @llvm.dbg.declare(metadata %"class.std::tuple"** %this.addr, metadata !3387, metadata !DIExpression()), !dbg !3389
  store i8** %__elements, i8*** %__elements.addr, align 8
  call void @llvm.dbg.declare(metadata i8*** %__elements.addr, metadata !3390, metadata !DIExpression()), !dbg !3391
  %this1 = load %"class.std::tuple"*, %"class.std::tuple"** %this.addr, align 8
  %0 = bitcast %"class.std::tuple"* %this1 to %"struct.std::_Tuple_impl"*, !dbg !3392
  %1 = load i8**, i8*** %__elements.addr, align 8, !dbg !3393
  invoke void @_ZNSt11_Tuple_implILm0EJRKPcEEC2ES2_(%"struct.std::_Tuple_impl"* %0, i8** dereferenceable(8) %1)
          to label %invoke.cont unwind label %terminate.lpad, !dbg !3394

invoke.cont:                                      ; preds = %entry
  ret void, !dbg !3395

terminate.lpad:                                   ; preds = %entry
  %2 = landingpad { i8*, i32 }
          catch i8* null, !dbg !3394
  %3 = extractvalue { i8*, i32 } %2, 0, !dbg !3394
  call void @__clang_call_terminate(i8* %3) #13, !dbg !3394
  unreachable, !dbg !3394
}

; Function Attrs: noinline uwtable
define linkonce_odr dso_local %"struct.std::_Rb_tree_node_base"* @_ZNSt8_Rb_treeIPcSt4pairIKS0_iESt10_Select1stIS3_EN11cStringPool7strlessESaIS3_EE11lower_boundERS2_(%"class.std::_Rb_tree"* %this, i8** dereferenceable(8) %__k) #0 comdat align 2 !dbg !3396 {
entry:
  %retval = alloca %"struct.std::_Rb_tree_iterator", align 8
  %this.addr = alloca %"class.std::_Rb_tree"*, align 8
  %__k.addr = alloca i8**, align 8
  store %"class.std::_Rb_tree"* %this, %"class.std::_Rb_tree"** %this.addr, align 8
  call void @llvm.dbg.declare(metadata %"class.std::_Rb_tree"** %this.addr, metadata !3397, metadata !DIExpression()), !dbg !3398
  store i8** %__k, i8*** %__k.addr, align 8
  call void @llvm.dbg.declare(metadata i8*** %__k.addr, metadata !3399, metadata !DIExpression()), !dbg !3400
  %this1 = load %"class.std::_Rb_tree"*, %"class.std::_Rb_tree"** %this.addr, align 8
  %call = call %"struct.std::_Rb_tree_node"* @_ZNSt8_Rb_treeIPcSt4pairIKS0_iESt10_Select1stIS3_EN11cStringPool7strlessESaIS3_EE8_M_beginEv(%"class.std::_Rb_tree"* %this1) #3, !dbg !3401
  %call2 = call %"struct.std::_Rb_tree_node_base"* @_ZNSt8_Rb_treeIPcSt4pairIKS0_iESt10_Select1stIS3_EN11cStringPool7strlessESaIS3_EE6_M_endEv(%"class.std::_Rb_tree"* %this1) #3, !dbg !3402
  %0 = load i8**, i8*** %__k.addr, align 8, !dbg !3403
  %call3 = call %"struct.std::_Rb_tree_node_base"* @_ZNSt8_Rb_treeIPcSt4pairIKS0_iESt10_Select1stIS3_EN11cStringPool7strlessESaIS3_EE14_M_lower_boundEPSt13_Rb_tree_nodeIS3_EPSt18_Rb_tree_node_baseRS2_(%"class.std::_Rb_tree"* %this1, %"struct.std::_Rb_tree_node"* %call, %"struct.std::_Rb_tree_node_base"* %call2, i8** dereferenceable(8) %0), !dbg !3404
  %coerce.dive = getelementptr inbounds %"struct.std::_Rb_tree_iterator", %"struct.std::_Rb_tree_iterator"* %retval, i32 0, i32 0, !dbg !3404
  store %"struct.std::_Rb_tree_node_base"* %call3, %"struct.std::_Rb_tree_node_base"** %coerce.dive, align 8, !dbg !3404
  %coerce.dive4 = getelementptr inbounds %"struct.std::_Rb_tree_iterator", %"struct.std::_Rb_tree_iterator"* %retval, i32 0, i32 0, !dbg !3405
  %1 = load %"struct.std::_Rb_tree_node_base"*, %"struct.std::_Rb_tree_node_base"** %coerce.dive4, align 8, !dbg !3405
  ret %"struct.std::_Rb_tree_node_base"* %1, !dbg !3405
}

; Function Attrs: noinline nounwind uwtable
define linkonce_odr dso_local void @_ZNKSt8_Rb_treeIPcSt4pairIKS0_iESt10_Select1stIS3_EN11cStringPool7strlessESaIS3_EE8key_compEv(%"class.std::_Rb_tree"* %this) #5 comdat align 2 !dbg !3406 {
entry:
  %this.addr = alloca %"class.std::_Rb_tree"*, align 8
  store %"class.std::_Rb_tree"* %this, %"class.std::_Rb_tree"** %this.addr, align 8
  call void @llvm.dbg.declare(metadata %"class.std::_Rb_tree"** %this.addr, metadata !3407, metadata !DIExpression()), !dbg !3408
  %this1 = load %"class.std::_Rb_tree"*, %"class.std::_Rb_tree"** %this.addr, align 8
  %_M_impl = getelementptr inbounds %"class.std::_Rb_tree", %"class.std::_Rb_tree"* %this1, i32 0, i32 0, !dbg !3409
  %0 = bitcast %"struct.std::_Rb_tree<char *, std::pair<char *const, int>, std::_Select1st<std::pair<char *const, int> >, cStringPool::strless, std::allocator<std::pair<char *const, int> > >::_Rb_tree_impl"* %_M_impl to %"struct.std::_Rb_tree_key_compare"*, !dbg !3409
  %_M_key_compare = getelementptr inbounds %"struct.std::_Rb_tree_key_compare", %"struct.std::_Rb_tree_key_compare"* %0, i32 0, i32 0, !dbg !3410
  ret void, !dbg !3411
}

; Function Attrs: noinline uwtable
define linkonce_odr dso_local %"struct.std::_Rb_tree_node"* @_ZNSt8_Rb_treeIPcSt4pairIKS0_iESt10_Select1stIS3_EN11cStringPool7strlessESaIS3_EE14_M_create_nodeIJRKSt21piecewise_construct_tSt5tupleIJRS2_EESE_IJEEEEEPSt13_Rb_tree_nodeIS3_EDpOT_(%"class.std::_Rb_tree"* %this, %"struct.std::piecewise_construct_t"* dereferenceable(1) %__args, %"class.std::tuple"* dereferenceable(8) %__args1, %"class.std::tuple.3"* dereferenceable(1) %__args3) #0 comdat align 2 !dbg !3412 {
entry:
  %this.addr = alloca %"class.std::_Rb_tree"*, align 8
  %__args.addr = alloca %"struct.std::piecewise_construct_t"*, align 8
  %__args.addr2 = alloca %"class.std::tuple"*, align 8
  %__args.addr4 = alloca %"class.std::tuple.3"*, align 8
  %__tmp = alloca %"struct.std::_Rb_tree_node"*, align 8
  store %"class.std::_Rb_tree"* %this, %"class.std::_Rb_tree"** %this.addr, align 8
  call void @llvm.dbg.declare(metadata %"class.std::_Rb_tree"** %this.addr, metadata !3416, metadata !DIExpression()), !dbg !3417
  store %"struct.std::piecewise_construct_t"* %__args, %"struct.std::piecewise_construct_t"** %__args.addr, align 8
  call void @llvm.dbg.declare(metadata %"struct.std::piecewise_construct_t"** %__args.addr, metadata !3418, metadata !DIExpression()), !dbg !3419
  store %"class.std::tuple"* %__args1, %"class.std::tuple"** %__args.addr2, align 8
  call void @llvm.dbg.declare(metadata %"class.std::tuple"** %__args.addr2, metadata !3420, metadata !DIExpression()), !dbg !3419
  store %"class.std::tuple.3"* %__args3, %"class.std::tuple.3"** %__args.addr4, align 8
  call void @llvm.dbg.declare(metadata %"class.std::tuple.3"** %__args.addr4, metadata !3421, metadata !DIExpression()), !dbg !3419
  %this5 = load %"class.std::_Rb_tree"*, %"class.std::_Rb_tree"** %this.addr, align 8
  call void @llvm.dbg.declare(metadata %"struct.std::_Rb_tree_node"** %__tmp, metadata !3422, metadata !DIExpression()), !dbg !3423
  %call = call %"struct.std::_Rb_tree_node"* @_ZNSt8_Rb_treeIPcSt4pairIKS0_iESt10_Select1stIS3_EN11cStringPool7strlessESaIS3_EE11_M_get_nodeEv(%"class.std::_Rb_tree"* %this5), !dbg !3424
  store %"struct.std::_Rb_tree_node"* %call, %"struct.std::_Rb_tree_node"** %__tmp, align 8, !dbg !3423
  %0 = load %"struct.std::_Rb_tree_node"*, %"struct.std::_Rb_tree_node"** %__tmp, align 8, !dbg !3425
  %1 = load %"struct.std::piecewise_construct_t"*, %"struct.std::piecewise_construct_t"** %__args.addr, align 8, !dbg !3426
  %call6 = call dereferenceable(1) %"struct.std::piecewise_construct_t"* @_ZSt7forwardIRKSt21piecewise_construct_tEOT_RNSt16remove_referenceIS3_E4typeE(%"struct.std::piecewise_construct_t"* dereferenceable(1) %1) #3, !dbg !3427
  %2 = load %"class.std::tuple"*, %"class.std::tuple"** %__args.addr2, align 8, !dbg !3426
  %call7 = call dereferenceable(8) %"class.std::tuple"* @_ZSt7forwardISt5tupleIJRKPcEEEOT_RNSt16remove_referenceIS5_E4typeE(%"class.std::tuple"* dereferenceable(8) %2) #3, !dbg !3427
  %3 = load %"class.std::tuple.3"*, %"class.std::tuple.3"** %__args.addr4, align 8, !dbg !3426
  %call8 = call dereferenceable(1) %"class.std::tuple.3"* @_ZSt7forwardISt5tupleIJEEEOT_RNSt16remove_referenceIS2_E4typeE(%"class.std::tuple.3"* dereferenceable(1) %3) #3, !dbg !3427
  call void @_ZNSt8_Rb_treeIPcSt4pairIKS0_iESt10_Select1stIS3_EN11cStringPool7strlessESaIS3_EE17_M_construct_nodeIJRKSt21piecewise_construct_tSt5tupleIJRS2_EESE_IJEEEEEvPSt13_Rb_tree_nodeIS3_EDpOT_(%"class.std::_Rb_tree"* %this5, %"struct.std::_Rb_tree_node"* %0, %"struct.std::piecewise_construct_t"* dereferenceable(1) %call6, %"class.std::tuple"* dereferenceable(8) %call7, %"class.std::tuple.3"* dereferenceable(1) %call8), !dbg !3428
  %4 = load %"struct.std::_Rb_tree_node"*, %"struct.std::_Rb_tree_node"** %__tmp, align 8, !dbg !3429
  ret %"struct.std::_Rb_tree_node"* %4, !dbg !3430
}

; Function Attrs: noinline nounwind uwtable
define linkonce_odr dso_local dereferenceable(1) %"struct.std::piecewise_construct_t"* @_ZSt7forwardIRKSt21piecewise_construct_tEOT_RNSt16remove_referenceIS3_E4typeE(%"struct.std::piecewise_construct_t"* dereferenceable(1) %__t) #5 comdat !dbg !3431 {
entry:
  %__t.addr = alloca %"struct.std::piecewise_construct_t"*, align 8
  store %"struct.std::piecewise_construct_t"* %__t, %"struct.std::piecewise_construct_t"** %__t.addr, align 8
  call void @llvm.dbg.declare(metadata %"struct.std::piecewise_construct_t"** %__t.addr, metadata !3440, metadata !DIExpression()), !dbg !3441
  %0 = load %"struct.std::piecewise_construct_t"*, %"struct.std::piecewise_construct_t"** %__t.addr, align 8, !dbg !3442
  ret %"struct.std::piecewise_construct_t"* %0, !dbg !3443
}

; Function Attrs: noinline nounwind uwtable
define linkonce_odr dso_local dereferenceable(8) %"class.std::tuple"* @_ZSt7forwardISt5tupleIJRKPcEEEOT_RNSt16remove_referenceIS5_E4typeE(%"class.std::tuple"* dereferenceable(8) %__t) #5 comdat !dbg !3444 {
entry:
  %__t.addr = alloca %"class.std::tuple"*, align 8
  store %"class.std::tuple"* %__t, %"class.std::tuple"** %__t.addr, align 8
  call void @llvm.dbg.declare(metadata %"class.std::tuple"** %__t.addr, metadata !3452, metadata !DIExpression()), !dbg !3453
  %0 = load %"class.std::tuple"*, %"class.std::tuple"** %__t.addr, align 8, !dbg !3454
  ret %"class.std::tuple"* %0, !dbg !3455
}

; Function Attrs: noinline nounwind uwtable
define linkonce_odr dso_local dereferenceable(1) %"class.std::tuple.3"* @_ZSt7forwardISt5tupleIJEEEOT_RNSt16remove_referenceIS2_E4typeE(%"class.std::tuple.3"* dereferenceable(1) %__t) #5 comdat !dbg !3456 {
entry:
  %__t.addr = alloca %"class.std::tuple.3"*, align 8
  store %"class.std::tuple.3"* %__t, %"class.std::tuple.3"** %__t.addr, align 8
  call void @llvm.dbg.declare(metadata %"class.std::tuple.3"** %__t.addr, metadata !3464, metadata !DIExpression()), !dbg !3465
  %0 = load %"class.std::tuple.3"*, %"class.std::tuple.3"** %__t.addr, align 8, !dbg !3466
  ret %"class.std::tuple.3"* %0, !dbg !3467
}

; Function Attrs: noinline uwtable
define linkonce_odr dso_local { %"struct.std::_Rb_tree_node_base"*, %"struct.std::_Rb_tree_node_base"* } @_ZNSt8_Rb_treeIPcSt4pairIKS0_iESt10_Select1stIS3_EN11cStringPool7strlessESaIS3_EE29_M_get_insert_hint_unique_posESt23_Rb_tree_const_iteratorIS3_ERS2_(%"class.std::_Rb_tree"* %this, %"struct.std::_Rb_tree_node_base"* %__position.coerce, i8** dereferenceable(8) %__k) #0 comdat align 2 !dbg !3468 {
entry:
  %retval = alloca %"struct.std::pair.4", align 8
  %__position = alloca %"struct.std::_Rb_tree_const_iterator", align 8
  %this.addr = alloca %"class.std::_Rb_tree"*, align 8
  %__k.addr = alloca i8**, align 8
  %__pos = alloca %"struct.std::_Rb_tree_iterator", align 8
  %ref.tmp = alloca %"struct.std::_Rb_tree_node_base"*, align 8
  %__before = alloca %"struct.std::_Rb_tree_iterator", align 8
  %ref.tmp37 = alloca %"struct.std::_Rb_tree_node_base"*, align 8
  %__after = alloca %"struct.std::_Rb_tree_iterator", align 8
  %ref.tmp55 = alloca %"struct.std::_Rb_tree_node_base"*, align 8
  %ref.tmp69 = alloca %"struct.std::_Rb_tree_node_base"*, align 8
  %ref.tmp78 = alloca %"struct.std::_Rb_tree_node_base"*, align 8
  %coerce.dive = getelementptr inbounds %"struct.std::_Rb_tree_const_iterator", %"struct.std::_Rb_tree_const_iterator"* %__position, i32 0, i32 0
  store %"struct.std::_Rb_tree_node_base"* %__position.coerce, %"struct.std::_Rb_tree_node_base"** %coerce.dive, align 8
  store %"class.std::_Rb_tree"* %this, %"class.std::_Rb_tree"** %this.addr, align 8
  call void @llvm.dbg.declare(metadata %"class.std::_Rb_tree"** %this.addr, metadata !3469, metadata !DIExpression()), !dbg !3470
  call void @llvm.dbg.declare(metadata %"struct.std::_Rb_tree_const_iterator"* %__position, metadata !3471, metadata !DIExpression()), !dbg !3472
  store i8** %__k, i8*** %__k.addr, align 8
  call void @llvm.dbg.declare(metadata i8*** %__k.addr, metadata !3473, metadata !DIExpression()), !dbg !3474
  %this1 = load %"class.std::_Rb_tree"*, %"class.std::_Rb_tree"** %this.addr, align 8
  call void @llvm.dbg.declare(metadata %"struct.std::_Rb_tree_iterator"* %__pos, metadata !3475, metadata !DIExpression()), !dbg !3476
  %call = call %"struct.std::_Rb_tree_node_base"* @_ZNKSt23_Rb_tree_const_iteratorISt4pairIKPciEE13_M_const_castEv(%"struct.std::_Rb_tree_const_iterator"* %__position) #3, !dbg !3477
  %coerce.dive2 = getelementptr inbounds %"struct.std::_Rb_tree_iterator", %"struct.std::_Rb_tree_iterator"* %__pos, i32 0, i32 0, !dbg !3477
  store %"struct.std::_Rb_tree_node_base"* %call, %"struct.std::_Rb_tree_node_base"** %coerce.dive2, align 8, !dbg !3477
  %_M_node = getelementptr inbounds %"struct.std::_Rb_tree_iterator", %"struct.std::_Rb_tree_iterator"* %__pos, i32 0, i32 0, !dbg !3478
  %0 = load %"struct.std::_Rb_tree_node_base"*, %"struct.std::_Rb_tree_node_base"** %_M_node, align 8, !dbg !3478
  %call3 = call %"struct.std::_Rb_tree_node_base"* @_ZNSt8_Rb_treeIPcSt4pairIKS0_iESt10_Select1stIS3_EN11cStringPool7strlessESaIS3_EE6_M_endEv(%"class.std::_Rb_tree"* %this1) #3, !dbg !3480
  %cmp = icmp eq %"struct.std::_Rb_tree_node_base"* %0, %call3, !dbg !3481
  br i1 %cmp, label %if.then, label %if.else12, !dbg !3482

if.then:                                          ; preds = %entry
  %call4 = call i64 @_ZNKSt8_Rb_treeIPcSt4pairIKS0_iESt10_Select1stIS3_EN11cStringPool7strlessESaIS3_EE4sizeEv(%"class.std::_Rb_tree"* %this1) #3, !dbg !3483
  %cmp5 = icmp ugt i64 %call4, 0, !dbg !3486
  br i1 %cmp5, label %land.lhs.true, label %if.else, !dbg !3487

land.lhs.true:                                    ; preds = %if.then
  %_M_impl = getelementptr inbounds %"class.std::_Rb_tree", %"class.std::_Rb_tree"* %this1, i32 0, i32 0, !dbg !3488
  %1 = bitcast %"struct.std::_Rb_tree<char *, std::pair<char *const, int>, std::_Select1st<std::pair<char *const, int> >, cStringPool::strless, std::allocator<std::pair<char *const, int> > >::_Rb_tree_impl"* %_M_impl to %"struct.std::_Rb_tree_key_compare"*, !dbg !3488
  %_M_key_compare = getelementptr inbounds %"struct.std::_Rb_tree_key_compare", %"struct.std::_Rb_tree_key_compare"* %1, i32 0, i32 0, !dbg !3489
  %call6 = call dereferenceable(8) %"struct.std::_Rb_tree_node_base"** @_ZNSt8_Rb_treeIPcSt4pairIKS0_iESt10_Select1stIS3_EN11cStringPool7strlessESaIS3_EE12_M_rightmostEv(%"class.std::_Rb_tree"* %this1) #3, !dbg !3490
  %2 = load %"struct.std::_Rb_tree_node_base"*, %"struct.std::_Rb_tree_node_base"** %call6, align 8, !dbg !3490
  %call7 = call dereferenceable(8) i8** @_ZNSt8_Rb_treeIPcSt4pairIKS0_iESt10_Select1stIS3_EN11cStringPool7strlessESaIS3_EE6_S_keyEPKSt18_Rb_tree_node_base(%"struct.std::_Rb_tree_node_base"* %2), !dbg !3491
  %3 = load i8*, i8** %call7, align 8, !dbg !3491
  %4 = load i8**, i8*** %__k.addr, align 8, !dbg !3492
  %5 = load i8*, i8** %4, align 8, !dbg !3492
  %call8 = call zeroext i1 @_ZNK11cStringPool7strlessclEPKcS2_(%"struct.cStringPool::strless"* %_M_key_compare, i8* %3, i8* %5), !dbg !3488
  br i1 %call8, label %if.then9, label %if.else, !dbg !3493

if.then9:                                         ; preds = %land.lhs.true
  store %"struct.std::_Rb_tree_node_base"* null, %"struct.std::_Rb_tree_node_base"** %ref.tmp, align 8, !dbg !3494
  %call10 = call dereferenceable(8) %"struct.std::_Rb_tree_node_base"** @_ZNSt8_Rb_treeIPcSt4pairIKS0_iESt10_Select1stIS3_EN11cStringPool7strlessESaIS3_EE12_M_rightmostEv(%"class.std::_Rb_tree"* %this1) #3, !dbg !3495
  call void @_ZNSt4pairIPSt18_Rb_tree_node_baseS1_EC2IRS1_Lb1EEERKS1_OT_(%"struct.std::pair.4"* %retval, %"struct.std::_Rb_tree_node_base"** dereferenceable(8) %ref.tmp, %"struct.std::_Rb_tree_node_base"** dereferenceable(8) %call10), !dbg !3496
  br label %return, !dbg !3497

if.else:                                          ; preds = %land.lhs.true, %if.then
  %6 = load i8**, i8*** %__k.addr, align 8, !dbg !3498
  %call11 = call { %"struct.std::_Rb_tree_node_base"*, %"struct.std::_Rb_tree_node_base"* } @_ZNSt8_Rb_treeIPcSt4pairIKS0_iESt10_Select1stIS3_EN11cStringPool7strlessESaIS3_EE24_M_get_insert_unique_posERS2_(%"class.std::_Rb_tree"* %this1, i8** dereferenceable(8) %6), !dbg !3499
  %7 = bitcast %"struct.std::pair.4"* %retval to { %"struct.std::_Rb_tree_node_base"*, %"struct.std::_Rb_tree_node_base"* }*, !dbg !3499
  %8 = getelementptr inbounds { %"struct.std::_Rb_tree_node_base"*, %"struct.std::_Rb_tree_node_base"* }, { %"struct.std::_Rb_tree_node_base"*, %"struct.std::_Rb_tree_node_base"* }* %7, i32 0, i32 0, !dbg !3499
  %9 = extractvalue { %"struct.std::_Rb_tree_node_base"*, %"struct.std::_Rb_tree_node_base"* } %call11, 0, !dbg !3499
  store %"struct.std::_Rb_tree_node_base"* %9, %"struct.std::_Rb_tree_node_base"** %8, align 8, !dbg !3499
  %10 = getelementptr inbounds { %"struct.std::_Rb_tree_node_base"*, %"struct.std::_Rb_tree_node_base"* }, { %"struct.std::_Rb_tree_node_base"*, %"struct.std::_Rb_tree_node_base"* }* %7, i32 0, i32 1, !dbg !3499
  %11 = extractvalue { %"struct.std::_Rb_tree_node_base"*, %"struct.std::_Rb_tree_node_base"* } %call11, 1, !dbg !3499
  store %"struct.std::_Rb_tree_node_base"* %11, %"struct.std::_Rb_tree_node_base"** %10, align 8, !dbg !3499
  br label %return, !dbg !3500

if.else12:                                        ; preds = %entry
  %_M_impl13 = getelementptr inbounds %"class.std::_Rb_tree", %"class.std::_Rb_tree"* %this1, i32 0, i32 0, !dbg !3501
  %12 = bitcast %"struct.std::_Rb_tree<char *, std::pair<char *const, int>, std::_Select1st<std::pair<char *const, int> >, cStringPool::strless, std::allocator<std::pair<char *const, int> > >::_Rb_tree_impl"* %_M_impl13 to %"struct.std::_Rb_tree_key_compare"*, !dbg !3501
  %_M_key_compare14 = getelementptr inbounds %"struct.std::_Rb_tree_key_compare", %"struct.std::_Rb_tree_key_compare"* %12, i32 0, i32 0, !dbg !3503
  %13 = load i8**, i8*** %__k.addr, align 8, !dbg !3504
  %14 = load i8*, i8** %13, align 8, !dbg !3504
  %_M_node15 = getelementptr inbounds %"struct.std::_Rb_tree_iterator", %"struct.std::_Rb_tree_iterator"* %__pos, i32 0, i32 0, !dbg !3505
  %15 = load %"struct.std::_Rb_tree_node_base"*, %"struct.std::_Rb_tree_node_base"** %_M_node15, align 8, !dbg !3505
  %call16 = call dereferenceable(8) i8** @_ZNSt8_Rb_treeIPcSt4pairIKS0_iESt10_Select1stIS3_EN11cStringPool7strlessESaIS3_EE6_S_keyEPKSt18_Rb_tree_node_base(%"struct.std::_Rb_tree_node_base"* %15), !dbg !3506
  %16 = load i8*, i8** %call16, align 8, !dbg !3506
  %call17 = call zeroext i1 @_ZNK11cStringPool7strlessclEPKcS2_(%"struct.cStringPool::strless"* %_M_key_compare14, i8* %14, i8* %16), !dbg !3501
  br i1 %call17, label %if.then18, label %if.else44, !dbg !3507

if.then18:                                        ; preds = %if.else12
  call void @llvm.dbg.declare(metadata %"struct.std::_Rb_tree_iterator"* %__before, metadata !3508, metadata !DIExpression()), !dbg !3510
  %17 = bitcast %"struct.std::_Rb_tree_iterator"* %__before to i8*, !dbg !3511
  %18 = bitcast %"struct.std::_Rb_tree_iterator"* %__pos to i8*, !dbg !3511
  call void @llvm.memcpy.p0i8.p0i8.i64(i8* align 8 %17, i8* align 8 %18, i64 8, i1 false), !dbg !3511
  %_M_node19 = getelementptr inbounds %"struct.std::_Rb_tree_iterator", %"struct.std::_Rb_tree_iterator"* %__pos, i32 0, i32 0, !dbg !3512
  %19 = load %"struct.std::_Rb_tree_node_base"*, %"struct.std::_Rb_tree_node_base"** %_M_node19, align 8, !dbg !3512
  %call20 = call dereferenceable(8) %"struct.std::_Rb_tree_node_base"** @_ZNSt8_Rb_treeIPcSt4pairIKS0_iESt10_Select1stIS3_EN11cStringPool7strlessESaIS3_EE11_M_leftmostEv(%"class.std::_Rb_tree"* %this1) #3, !dbg !3514
  %20 = load %"struct.std::_Rb_tree_node_base"*, %"struct.std::_Rb_tree_node_base"** %call20, align 8, !dbg !3514
  %cmp21 = icmp eq %"struct.std::_Rb_tree_node_base"* %19, %20, !dbg !3515
  br i1 %cmp21, label %if.then22, label %if.else25, !dbg !3516

if.then22:                                        ; preds = %if.then18
  %call23 = call dereferenceable(8) %"struct.std::_Rb_tree_node_base"** @_ZNSt8_Rb_treeIPcSt4pairIKS0_iESt10_Select1stIS3_EN11cStringPool7strlessESaIS3_EE11_M_leftmostEv(%"class.std::_Rb_tree"* %this1) #3, !dbg !3517
  %call24 = call dereferenceable(8) %"struct.std::_Rb_tree_node_base"** @_ZNSt8_Rb_treeIPcSt4pairIKS0_iESt10_Select1stIS3_EN11cStringPool7strlessESaIS3_EE11_M_leftmostEv(%"class.std::_Rb_tree"* %this1) #3, !dbg !3518
  call void @_ZNSt4pairIPSt18_Rb_tree_node_baseS1_EC2IRS1_S4_Lb1EEEOT_OT0_(%"struct.std::pair.4"* %retval, %"struct.std::_Rb_tree_node_base"** dereferenceable(8) %call23, %"struct.std::_Rb_tree_node_base"** dereferenceable(8) %call24), !dbg !3519
  br label %return, !dbg !3520

if.else25:                                        ; preds = %if.then18
  %_M_impl26 = getelementptr inbounds %"class.std::_Rb_tree", %"class.std::_Rb_tree"* %this1, i32 0, i32 0, !dbg !3521
  %21 = bitcast %"struct.std::_Rb_tree<char *, std::pair<char *const, int>, std::_Select1st<std::pair<char *const, int> >, cStringPool::strless, std::allocator<std::pair<char *const, int> > >::_Rb_tree_impl"* %_M_impl26 to %"struct.std::_Rb_tree_key_compare"*, !dbg !3521
  %_M_key_compare27 = getelementptr inbounds %"struct.std::_Rb_tree_key_compare", %"struct.std::_Rb_tree_key_compare"* %21, i32 0, i32 0, !dbg !3523
  %call28 = call dereferenceable(8) %"struct.std::_Rb_tree_iterator"* @_ZNSt17_Rb_tree_iteratorISt4pairIKPciEEmmEv(%"struct.std::_Rb_tree_iterator"* %__before) #3, !dbg !3524
  %_M_node29 = getelementptr inbounds %"struct.std::_Rb_tree_iterator", %"struct.std::_Rb_tree_iterator"* %call28, i32 0, i32 0, !dbg !3525
  %22 = load %"struct.std::_Rb_tree_node_base"*, %"struct.std::_Rb_tree_node_base"** %_M_node29, align 8, !dbg !3525
  %call30 = call dereferenceable(8) i8** @_ZNSt8_Rb_treeIPcSt4pairIKS0_iESt10_Select1stIS3_EN11cStringPool7strlessESaIS3_EE6_S_keyEPKSt18_Rb_tree_node_base(%"struct.std::_Rb_tree_node_base"* %22), !dbg !3526
  %23 = load i8*, i8** %call30, align 8, !dbg !3526
  %24 = load i8**, i8*** %__k.addr, align 8, !dbg !3527
  %25 = load i8*, i8** %24, align 8, !dbg !3527
  %call31 = call zeroext i1 @_ZNK11cStringPool7strlessclEPKcS2_(%"struct.cStringPool::strless"* %_M_key_compare27, i8* %23, i8* %25), !dbg !3521
  br i1 %call31, label %if.then32, label %if.else42, !dbg !3528

if.then32:                                        ; preds = %if.else25
  %_M_node33 = getelementptr inbounds %"struct.std::_Rb_tree_iterator", %"struct.std::_Rb_tree_iterator"* %__before, i32 0, i32 0, !dbg !3529
  %26 = load %"struct.std::_Rb_tree_node_base"*, %"struct.std::_Rb_tree_node_base"** %_M_node33, align 8, !dbg !3529
  %call34 = call %"struct.std::_Rb_tree_node"* @_ZNSt8_Rb_treeIPcSt4pairIKS0_iESt10_Select1stIS3_EN11cStringPool7strlessESaIS3_EE8_S_rightEPSt18_Rb_tree_node_base(%"struct.std::_Rb_tree_node_base"* %26) #3, !dbg !3532
  %cmp35 = icmp eq %"struct.std::_Rb_tree_node"* %call34, null, !dbg !3533
  br i1 %cmp35, label %if.then36, label %if.else39, !dbg !3534

if.then36:                                        ; preds = %if.then32
  store %"struct.std::_Rb_tree_node_base"* null, %"struct.std::_Rb_tree_node_base"** %ref.tmp37, align 8, !dbg !3535
  %_M_node38 = getelementptr inbounds %"struct.std::_Rb_tree_iterator", %"struct.std::_Rb_tree_iterator"* %__before, i32 0, i32 0, !dbg !3536
  call void @_ZNSt4pairIPSt18_Rb_tree_node_baseS1_EC2IRS1_Lb1EEERKS1_OT_(%"struct.std::pair.4"* %retval, %"struct.std::_Rb_tree_node_base"** dereferenceable(8) %ref.tmp37, %"struct.std::_Rb_tree_node_base"** dereferenceable(8) %_M_node38), !dbg !3537
  br label %return, !dbg !3538

if.else39:                                        ; preds = %if.then32
  %_M_node40 = getelementptr inbounds %"struct.std::_Rb_tree_iterator", %"struct.std::_Rb_tree_iterator"* %__pos, i32 0, i32 0, !dbg !3539
  %_M_node41 = getelementptr inbounds %"struct.std::_Rb_tree_iterator", %"struct.std::_Rb_tree_iterator"* %__pos, i32 0, i32 0, !dbg !3540
  call void @_ZNSt4pairIPSt18_Rb_tree_node_baseS1_EC2IRS1_S4_Lb1EEEOT_OT0_(%"struct.std::pair.4"* %retval, %"struct.std::_Rb_tree_node_base"** dereferenceable(8) %_M_node40, %"struct.std::_Rb_tree_node_base"** dereferenceable(8) %_M_node41), !dbg !3541
  br label %return, !dbg !3542

if.else42:                                        ; preds = %if.else25
  %27 = load i8**, i8*** %__k.addr, align 8, !dbg !3543
  %call43 = call { %"struct.std::_Rb_tree_node_base"*, %"struct.std::_Rb_tree_node_base"* } @_ZNSt8_Rb_treeIPcSt4pairIKS0_iESt10_Select1stIS3_EN11cStringPool7strlessESaIS3_EE24_M_get_insert_unique_posERS2_(%"class.std::_Rb_tree"* %this1, i8** dereferenceable(8) %27), !dbg !3544
  %28 = bitcast %"struct.std::pair.4"* %retval to { %"struct.std::_Rb_tree_node_base"*, %"struct.std::_Rb_tree_node_base"* }*, !dbg !3544
  %29 = getelementptr inbounds { %"struct.std::_Rb_tree_node_base"*, %"struct.std::_Rb_tree_node_base"* }, { %"struct.std::_Rb_tree_node_base"*, %"struct.std::_Rb_tree_node_base"* }* %28, i32 0, i32 0, !dbg !3544
  %30 = extractvalue { %"struct.std::_Rb_tree_node_base"*, %"struct.std::_Rb_tree_node_base"* } %call43, 0, !dbg !3544
  store %"struct.std::_Rb_tree_node_base"* %30, %"struct.std::_Rb_tree_node_base"** %29, align 8, !dbg !3544
  %31 = getelementptr inbounds { %"struct.std::_Rb_tree_node_base"*, %"struct.std::_Rb_tree_node_base"* }, { %"struct.std::_Rb_tree_node_base"*, %"struct.std::_Rb_tree_node_base"* }* %28, i32 0, i32 1, !dbg !3544
  %32 = extractvalue { %"struct.std::_Rb_tree_node_base"*, %"struct.std::_Rb_tree_node_base"* } %call43, 1, !dbg !3544
  store %"struct.std::_Rb_tree_node_base"* %32, %"struct.std::_Rb_tree_node_base"** %31, align 8, !dbg !3544
  br label %return, !dbg !3545

if.else44:                                        ; preds = %if.else12
  %_M_impl45 = getelementptr inbounds %"class.std::_Rb_tree", %"class.std::_Rb_tree"* %this1, i32 0, i32 0, !dbg !3546
  %33 = bitcast %"struct.std::_Rb_tree<char *, std::pair<char *const, int>, std::_Select1st<std::pair<char *const, int> >, cStringPool::strless, std::allocator<std::pair<char *const, int> > >::_Rb_tree_impl"* %_M_impl45 to %"struct.std::_Rb_tree_key_compare"*, !dbg !3546
  %_M_key_compare46 = getelementptr inbounds %"struct.std::_Rb_tree_key_compare", %"struct.std::_Rb_tree_key_compare"* %33, i32 0, i32 0, !dbg !3548
  %_M_node47 = getelementptr inbounds %"struct.std::_Rb_tree_iterator", %"struct.std::_Rb_tree_iterator"* %__pos, i32 0, i32 0, !dbg !3549
  %34 = load %"struct.std::_Rb_tree_node_base"*, %"struct.std::_Rb_tree_node_base"** %_M_node47, align 8, !dbg !3549
  %call48 = call dereferenceable(8) i8** @_ZNSt8_Rb_treeIPcSt4pairIKS0_iESt10_Select1stIS3_EN11cStringPool7strlessESaIS3_EE6_S_keyEPKSt18_Rb_tree_node_base(%"struct.std::_Rb_tree_node_base"* %34), !dbg !3550
  %35 = load i8*, i8** %call48, align 8, !dbg !3550
  %36 = load i8**, i8*** %__k.addr, align 8, !dbg !3551
  %37 = load i8*, i8** %36, align 8, !dbg !3551
  %call49 = call zeroext i1 @_ZNK11cStringPool7strlessclEPKcS2_(%"struct.cStringPool::strless"* %_M_key_compare46, i8* %35, i8* %37), !dbg !3546
  br i1 %call49, label %if.then50, label %if.else76, !dbg !3552

if.then50:                                        ; preds = %if.else44
  call void @llvm.dbg.declare(metadata %"struct.std::_Rb_tree_iterator"* %__after, metadata !3553, metadata !DIExpression()), !dbg !3555
  %38 = bitcast %"struct.std::_Rb_tree_iterator"* %__after to i8*, !dbg !3556
  %39 = bitcast %"struct.std::_Rb_tree_iterator"* %__pos to i8*, !dbg !3556
  call void @llvm.memcpy.p0i8.p0i8.i64(i8* align 8 %38, i8* align 8 %39, i64 8, i1 false), !dbg !3556
  %_M_node51 = getelementptr inbounds %"struct.std::_Rb_tree_iterator", %"struct.std::_Rb_tree_iterator"* %__pos, i32 0, i32 0, !dbg !3557
  %40 = load %"struct.std::_Rb_tree_node_base"*, %"struct.std::_Rb_tree_node_base"** %_M_node51, align 8, !dbg !3557
  %call52 = call dereferenceable(8) %"struct.std::_Rb_tree_node_base"** @_ZNSt8_Rb_treeIPcSt4pairIKS0_iESt10_Select1stIS3_EN11cStringPool7strlessESaIS3_EE12_M_rightmostEv(%"class.std::_Rb_tree"* %this1) #3, !dbg !3559
  %41 = load %"struct.std::_Rb_tree_node_base"*, %"struct.std::_Rb_tree_node_base"** %call52, align 8, !dbg !3559
  %cmp53 = icmp eq %"struct.std::_Rb_tree_node_base"* %40, %41, !dbg !3560
  br i1 %cmp53, label %if.then54, label %if.else57, !dbg !3561

if.then54:                                        ; preds = %if.then50
  store %"struct.std::_Rb_tree_node_base"* null, %"struct.std::_Rb_tree_node_base"** %ref.tmp55, align 8, !dbg !3562
  %call56 = call dereferenceable(8) %"struct.std::_Rb_tree_node_base"** @_ZNSt8_Rb_treeIPcSt4pairIKS0_iESt10_Select1stIS3_EN11cStringPool7strlessESaIS3_EE12_M_rightmostEv(%"class.std::_Rb_tree"* %this1) #3, !dbg !3563
  call void @_ZNSt4pairIPSt18_Rb_tree_node_baseS1_EC2IRS1_Lb1EEERKS1_OT_(%"struct.std::pair.4"* %retval, %"struct.std::_Rb_tree_node_base"** dereferenceable(8) %ref.tmp55, %"struct.std::_Rb_tree_node_base"** dereferenceable(8) %call56), !dbg !3564
  br label %return, !dbg !3565

if.else57:                                        ; preds = %if.then50
  %_M_impl58 = getelementptr inbounds %"class.std::_Rb_tree", %"class.std::_Rb_tree"* %this1, i32 0, i32 0, !dbg !3566
  %42 = bitcast %"struct.std::_Rb_tree<char *, std::pair<char *const, int>, std::_Select1st<std::pair<char *const, int> >, cStringPool::strless, std::allocator<std::pair<char *const, int> > >::_Rb_tree_impl"* %_M_impl58 to %"struct.std::_Rb_tree_key_compare"*, !dbg !3566
  %_M_key_compare59 = getelementptr inbounds %"struct.std::_Rb_tree_key_compare", %"struct.std::_Rb_tree_key_compare"* %42, i32 0, i32 0, !dbg !3568
  %43 = load i8**, i8*** %__k.addr, align 8, !dbg !3569
  %44 = load i8*, i8** %43, align 8, !dbg !3569
  %call60 = call dereferenceable(8) %"struct.std::_Rb_tree_iterator"* @_ZNSt17_Rb_tree_iteratorISt4pairIKPciEEppEv(%"struct.std::_Rb_tree_iterator"* %__after) #3, !dbg !3570
  %_M_node61 = getelementptr inbounds %"struct.std::_Rb_tree_iterator", %"struct.std::_Rb_tree_iterator"* %call60, i32 0, i32 0, !dbg !3571
  %45 = load %"struct.std::_Rb_tree_node_base"*, %"struct.std::_Rb_tree_node_base"** %_M_node61, align 8, !dbg !3571
  %call62 = call dereferenceable(8) i8** @_ZNSt8_Rb_treeIPcSt4pairIKS0_iESt10_Select1stIS3_EN11cStringPool7strlessESaIS3_EE6_S_keyEPKSt18_Rb_tree_node_base(%"struct.std::_Rb_tree_node_base"* %45), !dbg !3572
  %46 = load i8*, i8** %call62, align 8, !dbg !3572
  %call63 = call zeroext i1 @_ZNK11cStringPool7strlessclEPKcS2_(%"struct.cStringPool::strless"* %_M_key_compare59, i8* %44, i8* %46), !dbg !3566
  br i1 %call63, label %if.then64, label %if.else74, !dbg !3573

if.then64:                                        ; preds = %if.else57
  %_M_node65 = getelementptr inbounds %"struct.std::_Rb_tree_iterator", %"struct.std::_Rb_tree_iterator"* %__pos, i32 0, i32 0, !dbg !3574
  %47 = load %"struct.std::_Rb_tree_node_base"*, %"struct.std::_Rb_tree_node_base"** %_M_node65, align 8, !dbg !3574
  %call66 = call %"struct.std::_Rb_tree_node"* @_ZNSt8_Rb_treeIPcSt4pairIKS0_iESt10_Select1stIS3_EN11cStringPool7strlessESaIS3_EE8_S_rightEPSt18_Rb_tree_node_base(%"struct.std::_Rb_tree_node_base"* %47) #3, !dbg !3577
  %cmp67 = icmp eq %"struct.std::_Rb_tree_node"* %call66, null, !dbg !3578
  br i1 %cmp67, label %if.then68, label %if.else71, !dbg !3579

if.then68:                                        ; preds = %if.then64
  store %"struct.std::_Rb_tree_node_base"* null, %"struct.std::_Rb_tree_node_base"** %ref.tmp69, align 8, !dbg !3580
  %_M_node70 = getelementptr inbounds %"struct.std::_Rb_tree_iterator", %"struct.std::_Rb_tree_iterator"* %__pos, i32 0, i32 0, !dbg !3581
  call void @_ZNSt4pairIPSt18_Rb_tree_node_baseS1_EC2IRS1_Lb1EEERKS1_OT_(%"struct.std::pair.4"* %retval, %"struct.std::_Rb_tree_node_base"** dereferenceable(8) %ref.tmp69, %"struct.std::_Rb_tree_node_base"** dereferenceable(8) %_M_node70), !dbg !3582
  br label %return, !dbg !3583

if.else71:                                        ; preds = %if.then64
  %_M_node72 = getelementptr inbounds %"struct.std::_Rb_tree_iterator", %"struct.std::_Rb_tree_iterator"* %__after, i32 0, i32 0, !dbg !3584
  %_M_node73 = getelementptr inbounds %"struct.std::_Rb_tree_iterator", %"struct.std::_Rb_tree_iterator"* %__after, i32 0, i32 0, !dbg !3585
  call void @_ZNSt4pairIPSt18_Rb_tree_node_baseS1_EC2IRS1_S4_Lb1EEEOT_OT0_(%"struct.std::pair.4"* %retval, %"struct.std::_Rb_tree_node_base"** dereferenceable(8) %_M_node72, %"struct.std::_Rb_tree_node_base"** dereferenceable(8) %_M_node73), !dbg !3586
  br label %return, !dbg !3587

if.else74:                                        ; preds = %if.else57
  %48 = load i8**, i8*** %__k.addr, align 8, !dbg !3588
  %call75 = call { %"struct.std::_Rb_tree_node_base"*, %"struct.std::_Rb_tree_node_base"* } @_ZNSt8_Rb_treeIPcSt4pairIKS0_iESt10_Select1stIS3_EN11cStringPool7strlessESaIS3_EE24_M_get_insert_unique_posERS2_(%"class.std::_Rb_tree"* %this1, i8** dereferenceable(8) %48), !dbg !3589
  %49 = bitcast %"struct.std::pair.4"* %retval to { %"struct.std::_Rb_tree_node_base"*, %"struct.std::_Rb_tree_node_base"* }*, !dbg !3589
  %50 = getelementptr inbounds { %"struct.std::_Rb_tree_node_base"*, %"struct.std::_Rb_tree_node_base"* }, { %"struct.std::_Rb_tree_node_base"*, %"struct.std::_Rb_tree_node_base"* }* %49, i32 0, i32 0, !dbg !3589
  %51 = extractvalue { %"struct.std::_Rb_tree_node_base"*, %"struct.std::_Rb_tree_node_base"* } %call75, 0, !dbg !3589
  store %"struct.std::_Rb_tree_node_base"* %51, %"struct.std::_Rb_tree_node_base"** %50, align 8, !dbg !3589
  %52 = getelementptr inbounds { %"struct.std::_Rb_tree_node_base"*, %"struct.std::_Rb_tree_node_base"* }, { %"struct.std::_Rb_tree_node_base"*, %"struct.std::_Rb_tree_node_base"* }* %49, i32 0, i32 1, !dbg !3589
  %53 = extractvalue { %"struct.std::_Rb_tree_node_base"*, %"struct.std::_Rb_tree_node_base"* } %call75, 1, !dbg !3589
  store %"struct.std::_Rb_tree_node_base"* %53, %"struct.std::_Rb_tree_node_base"** %52, align 8, !dbg !3589
  br label %return, !dbg !3590

if.else76:                                        ; preds = %if.else44
  %_M_node77 = getelementptr inbounds %"struct.std::_Rb_tree_iterator", %"struct.std::_Rb_tree_iterator"* %__pos, i32 0, i32 0, !dbg !3591
  store %"struct.std::_Rb_tree_node_base"* null, %"struct.std::_Rb_tree_node_base"** %ref.tmp78, align 8, !dbg !3592
  call void @_ZNSt4pairIPSt18_Rb_tree_node_baseS1_EC2IRS1_Lb1EEEOT_RKS1_(%"struct.std::pair.4"* %retval, %"struct.std::_Rb_tree_node_base"** dereferenceable(8) %_M_node77, %"struct.std::_Rb_tree_node_base"** dereferenceable(8) %ref.tmp78), !dbg !3593
  br label %return, !dbg !3594

return:                                           ; preds = %if.else76, %if.else74, %if.else71, %if.then68, %if.then54, %if.else42, %if.else39, %if.then36, %if.then22, %if.else, %if.then9
  %54 = bitcast %"struct.std::pair.4"* %retval to { %"struct.std::_Rb_tree_node_base"*, %"struct.std::_Rb_tree_node_base"* }*, !dbg !3595
  %55 = load { %"struct.std::_Rb_tree_node_base"*, %"struct.std::_Rb_tree_node_base"* }, { %"struct.std::_Rb_tree_node_base"*, %"struct.std::_Rb_tree_node_base"* }* %54, align 8, !dbg !3595
  ret { %"struct.std::_Rb_tree_node_base"*, %"struct.std::_Rb_tree_node_base"* } %55, !dbg !3595
}

; Function Attrs: noinline uwtable
define linkonce_odr dso_local %"struct.std::_Rb_tree_node_base"* @_ZNSt8_Rb_treeIPcSt4pairIKS0_iESt10_Select1stIS3_EN11cStringPool7strlessESaIS3_EE14_M_insert_nodeEPSt18_Rb_tree_node_baseSB_PSt13_Rb_tree_nodeIS3_E(%"class.std::_Rb_tree"* %this, %"struct.std::_Rb_tree_node_base"* %__x, %"struct.std::_Rb_tree_node_base"* %__p, %"struct.std::_Rb_tree_node"* %__z) #0 comdat align 2 !dbg !3596 {
entry:
  %retval = alloca %"struct.std::_Rb_tree_iterator", align 8
  %this.addr = alloca %"class.std::_Rb_tree"*, align 8
  %__x.addr = alloca %"struct.std::_Rb_tree_node_base"*, align 8
  %__p.addr = alloca %"struct.std::_Rb_tree_node_base"*, align 8
  %__z.addr = alloca %"struct.std::_Rb_tree_node"*, align 8
  %__insert_left = alloca i8, align 1
  store %"class.std::_Rb_tree"* %this, %"class.std::_Rb_tree"** %this.addr, align 8
  call void @llvm.dbg.declare(metadata %"class.std::_Rb_tree"** %this.addr, metadata !3597, metadata !DIExpression()), !dbg !3598
  store %"struct.std::_Rb_tree_node_base"* %__x, %"struct.std::_Rb_tree_node_base"** %__x.addr, align 8
  call void @llvm.dbg.declare(metadata %"struct.std::_Rb_tree_node_base"** %__x.addr, metadata !3599, metadata !DIExpression()), !dbg !3600
  store %"struct.std::_Rb_tree_node_base"* %__p, %"struct.std::_Rb_tree_node_base"** %__p.addr, align 8
  call void @llvm.dbg.declare(metadata %"struct.std::_Rb_tree_node_base"** %__p.addr, metadata !3601, metadata !DIExpression()), !dbg !3602
  store %"struct.std::_Rb_tree_node"* %__z, %"struct.std::_Rb_tree_node"** %__z.addr, align 8
  call void @llvm.dbg.declare(metadata %"struct.std::_Rb_tree_node"** %__z.addr, metadata !3603, metadata !DIExpression()), !dbg !3604
  %this1 = load %"class.std::_Rb_tree"*, %"class.std::_Rb_tree"** %this.addr, align 8
  call void @llvm.dbg.declare(metadata i8* %__insert_left, metadata !3605, metadata !DIExpression()), !dbg !3606
  %0 = load %"struct.std::_Rb_tree_node_base"*, %"struct.std::_Rb_tree_node_base"** %__x.addr, align 8, !dbg !3607
  %cmp = icmp ne %"struct.std::_Rb_tree_node_base"* %0, null, !dbg !3608
  br i1 %cmp, label %lor.end, label %lor.lhs.false, !dbg !3609

lor.lhs.false:                                    ; preds = %entry
  %1 = load %"struct.std::_Rb_tree_node_base"*, %"struct.std::_Rb_tree_node_base"** %__p.addr, align 8, !dbg !3610
  %call = call %"struct.std::_Rb_tree_node_base"* @_ZNSt8_Rb_treeIPcSt4pairIKS0_iESt10_Select1stIS3_EN11cStringPool7strlessESaIS3_EE6_M_endEv(%"class.std::_Rb_tree"* %this1) #3, !dbg !3611
  %cmp2 = icmp eq %"struct.std::_Rb_tree_node_base"* %1, %call, !dbg !3612
  br i1 %cmp2, label %lor.end, label %lor.rhs, !dbg !3613

lor.rhs:                                          ; preds = %lor.lhs.false
  %_M_impl = getelementptr inbounds %"class.std::_Rb_tree", %"class.std::_Rb_tree"* %this1, i32 0, i32 0, !dbg !3614
  %2 = bitcast %"struct.std::_Rb_tree<char *, std::pair<char *const, int>, std::_Select1st<std::pair<char *const, int> >, cStringPool::strless, std::allocator<std::pair<char *const, int> > >::_Rb_tree_impl"* %_M_impl to %"struct.std::_Rb_tree_key_compare"*, !dbg !3614
  %_M_key_compare = getelementptr inbounds %"struct.std::_Rb_tree_key_compare", %"struct.std::_Rb_tree_key_compare"* %2, i32 0, i32 0, !dbg !3615
  %3 = load %"struct.std::_Rb_tree_node"*, %"struct.std::_Rb_tree_node"** %__z.addr, align 8, !dbg !3616
  %call3 = call dereferenceable(8) i8** @_ZNSt8_Rb_treeIPcSt4pairIKS0_iESt10_Select1stIS3_EN11cStringPool7strlessESaIS3_EE6_S_keyEPKSt13_Rb_tree_nodeIS3_E(%"struct.std::_Rb_tree_node"* %3), !dbg !3617
  %4 = load i8*, i8** %call3, align 8, !dbg !3617
  %5 = load %"struct.std::_Rb_tree_node_base"*, %"struct.std::_Rb_tree_node_base"** %__p.addr, align 8, !dbg !3618
  %call4 = call dereferenceable(8) i8** @_ZNSt8_Rb_treeIPcSt4pairIKS0_iESt10_Select1stIS3_EN11cStringPool7strlessESaIS3_EE6_S_keyEPKSt18_Rb_tree_node_base(%"struct.std::_Rb_tree_node_base"* %5), !dbg !3619
  %6 = load i8*, i8** %call4, align 8, !dbg !3619
  %call5 = call zeroext i1 @_ZNK11cStringPool7strlessclEPKcS2_(%"struct.cStringPool::strless"* %_M_key_compare, i8* %4, i8* %6), !dbg !3614
  br label %lor.end, !dbg !3613

lor.end:                                          ; preds = %lor.rhs, %lor.lhs.false, %entry
  %7 = phi i1 [ true, %lor.lhs.false ], [ true, %entry ], [ %call5, %lor.rhs ]
  %frombool = zext i1 %7 to i8, !dbg !3606
  store i8 %frombool, i8* %__insert_left, align 1, !dbg !3606
  %8 = load i8, i8* %__insert_left, align 1, !dbg !3620
  %tobool = trunc i8 %8 to i1, !dbg !3620
  %9 = load %"struct.std::_Rb_tree_node"*, %"struct.std::_Rb_tree_node"** %__z.addr, align 8, !dbg !3621
  %10 = bitcast %"struct.std::_Rb_tree_node"* %9 to %"struct.std::_Rb_tree_node_base"*, !dbg !3621
  %11 = load %"struct.std::_Rb_tree_node_base"*, %"struct.std::_Rb_tree_node_base"** %__p.addr, align 8, !dbg !3622
  %_M_impl6 = getelementptr inbounds %"class.std::_Rb_tree", %"class.std::_Rb_tree"* %this1, i32 0, i32 0, !dbg !3623
  %12 = bitcast %"struct.std::_Rb_tree<char *, std::pair<char *const, int>, std::_Select1st<std::pair<char *const, int> >, cStringPool::strless, std::allocator<std::pair<char *const, int> > >::_Rb_tree_impl"* %_M_impl6 to i8*, !dbg !3624
  %add.ptr = getelementptr inbounds i8, i8* %12, i64 8, !dbg !3624
  %13 = bitcast i8* %add.ptr to %"struct.std::_Rb_tree_header"*, !dbg !3624
  %_M_header = getelementptr inbounds %"struct.std::_Rb_tree_header", %"struct.std::_Rb_tree_header"* %13, i32 0, i32 0, !dbg !3625
  call void @_ZSt29_Rb_tree_insert_and_rebalancebPSt18_Rb_tree_node_baseS0_RS_(i1 zeroext %tobool, %"struct.std::_Rb_tree_node_base"* %10, %"struct.std::_Rb_tree_node_base"* %11, %"struct.std::_Rb_tree_node_base"* dereferenceable(32) %_M_header) #3, !dbg !3626
  %_M_impl7 = getelementptr inbounds %"class.std::_Rb_tree", %"class.std::_Rb_tree"* %this1, i32 0, i32 0, !dbg !3627
  %14 = bitcast %"struct.std::_Rb_tree<char *, std::pair<char *const, int>, std::_Select1st<std::pair<char *const, int> >, cStringPool::strless, std::allocator<std::pair<char *const, int> > >::_Rb_tree_impl"* %_M_impl7 to i8*, !dbg !3627
  %add.ptr8 = getelementptr inbounds i8, i8* %14, i64 8, !dbg !3627
  %15 = bitcast i8* %add.ptr8 to %"struct.std::_Rb_tree_header"*, !dbg !3627
  %_M_node_count = getelementptr inbounds %"struct.std::_Rb_tree_header", %"struct.std::_Rb_tree_header"* %15, i32 0, i32 1, !dbg !3628
  %16 = load i64, i64* %_M_node_count, align 8, !dbg !3629
  %inc = add i64 %16, 1, !dbg !3629
  store i64 %inc, i64* %_M_node_count, align 8, !dbg !3629
  %17 = load %"struct.std::_Rb_tree_node"*, %"struct.std::_Rb_tree_node"** %__z.addr, align 8, !dbg !3630
  %18 = bitcast %"struct.std::_Rb_tree_node"* %17 to %"struct.std::_Rb_tree_node_base"*, !dbg !3630
  call void @_ZNSt17_Rb_tree_iteratorISt4pairIKPciEEC2EPSt18_Rb_tree_node_base(%"struct.std::_Rb_tree_iterator"* %retval, %"struct.std::_Rb_tree_node_base"* %18) #3, !dbg !3631
  %coerce.dive = getelementptr inbounds %"struct.std::_Rb_tree_iterator", %"struct.std::_Rb_tree_iterator"* %retval, i32 0, i32 0, !dbg !3632
  %19 = load %"struct.std::_Rb_tree_node_base"*, %"struct.std::_Rb_tree_node_base"** %coerce.dive, align 8, !dbg !3632
  ret %"struct.std::_Rb_tree_node_base"* %19, !dbg !3632
}

declare dso_local void @__cxa_rethrow()

declare dso_local void @__cxa_end_catch()

; Function Attrs: cold noreturn nounwind
declare void @llvm.trap() #11

; Function Attrs: noinline uwtable
define linkonce_odr dso_local %"struct.std::_Rb_tree_node"* @_ZNSt8_Rb_treeIPcSt4pairIKS0_iESt10_Select1stIS3_EN11cStringPool7strlessESaIS3_EE11_M_get_nodeEv(%"class.std::_Rb_tree"* %this) #0 comdat align 2 !dbg !3633 {
entry:
  %this.addr = alloca %"class.std::_Rb_tree"*, align 8
  store %"class.std::_Rb_tree"* %this, %"class.std::_Rb_tree"** %this.addr, align 8
  call void @llvm.dbg.declare(metadata %"class.std::_Rb_tree"** %this.addr, metadata !3634, metadata !DIExpression()), !dbg !3635
  %this1 = load %"class.std::_Rb_tree"*, %"class.std::_Rb_tree"** %this.addr, align 8
  %call = call dereferenceable(1) %"class.std::allocator.0"* @_ZNSt8_Rb_treeIPcSt4pairIKS0_iESt10_Select1stIS3_EN11cStringPool7strlessESaIS3_EE21_M_get_Node_allocatorEv(%"class.std::_Rb_tree"* %this1) #3, !dbg !3636
  %call2 = call %"struct.std::_Rb_tree_node"* @_ZNSt16allocator_traitsISaISt13_Rb_tree_nodeISt4pairIKPciEEEE8allocateERS6_m(%"class.std::allocator.0"* dereferenceable(1) %call, i64 1), !dbg !3637
  ret %"struct.std::_Rb_tree_node"* %call2, !dbg !3638
}

; Function Attrs: noinline uwtable
define linkonce_odr dso_local void @_ZNSt8_Rb_treeIPcSt4pairIKS0_iESt10_Select1stIS3_EN11cStringPool7strlessESaIS3_EE17_M_construct_nodeIJRKSt21piecewise_construct_tSt5tupleIJRS2_EESE_IJEEEEEvPSt13_Rb_tree_nodeIS3_EDpOT_(%"class.std::_Rb_tree"* %this, %"struct.std::_Rb_tree_node"* %__node, %"struct.std::piecewise_construct_t"* dereferenceable(1) %__args, %"class.std::tuple"* dereferenceable(8) %__args1, %"class.std::tuple.3"* dereferenceable(1) %__args3) #0 comdat align 2 personality i8* bitcast (i32 (...)* @__gxx_personality_v0 to i8*) !dbg !3639 {
entry:
  %this.addr = alloca %"class.std::_Rb_tree"*, align 8
  %__node.addr = alloca %"struct.std::_Rb_tree_node"*, align 8
  %__args.addr = alloca %"struct.std::piecewise_construct_t"*, align 8
  %__args.addr2 = alloca %"class.std::tuple"*, align 8
  %__args.addr4 = alloca %"class.std::tuple.3"*, align 8
  %exn.slot = alloca i8*
  %ehselector.slot = alloca i32
  store %"class.std::_Rb_tree"* %this, %"class.std::_Rb_tree"** %this.addr, align 8
  call void @llvm.dbg.declare(metadata %"class.std::_Rb_tree"** %this.addr, metadata !3643, metadata !DIExpression()), !dbg !3644
  store %"struct.std::_Rb_tree_node"* %__node, %"struct.std::_Rb_tree_node"** %__node.addr, align 8
  call void @llvm.dbg.declare(metadata %"struct.std::_Rb_tree_node"** %__node.addr, metadata !3645, metadata !DIExpression()), !dbg !3646
  store %"struct.std::piecewise_construct_t"* %__args, %"struct.std::piecewise_construct_t"** %__args.addr, align 8
  call void @llvm.dbg.declare(metadata %"struct.std::piecewise_construct_t"** %__args.addr, metadata !3647, metadata !DIExpression()), !dbg !3648
  store %"class.std::tuple"* %__args1, %"class.std::tuple"** %__args.addr2, align 8
  call void @llvm.dbg.declare(metadata %"class.std::tuple"** %__args.addr2, metadata !3649, metadata !DIExpression()), !dbg !3648
  store %"class.std::tuple.3"* %__args3, %"class.std::tuple.3"** %__args.addr4, align 8
  call void @llvm.dbg.declare(metadata %"class.std::tuple.3"** %__args.addr4, metadata !3650, metadata !DIExpression()), !dbg !3648
  %this5 = load %"class.std::_Rb_tree"*, %"class.std::_Rb_tree"** %this.addr, align 8
  %0 = load %"struct.std::_Rb_tree_node"*, %"struct.std::_Rb_tree_node"** %__node.addr, align 8, !dbg !3651
  %1 = bitcast %"struct.std::_Rb_tree_node"* %0 to i8*, !dbg !3653
  %2 = bitcast i8* %1 to %"struct.std::_Rb_tree_node"*, !dbg !3653
  %call = call dereferenceable(1) %"class.std::allocator.0"* @_ZNSt8_Rb_treeIPcSt4pairIKS0_iESt10_Select1stIS3_EN11cStringPool7strlessESaIS3_EE21_M_get_Node_allocatorEv(%"class.std::_Rb_tree"* %this5) #3, !dbg !3654
  %3 = load %"struct.std::_Rb_tree_node"*, %"struct.std::_Rb_tree_node"** %__node.addr, align 8, !dbg !3655
  %call6 = invoke %"struct.std::pair"* @_ZNSt13_Rb_tree_nodeISt4pairIKPciEE9_M_valptrEv(%"struct.std::_Rb_tree_node"* %3)
          to label %invoke.cont unwind label %lpad, !dbg !3656

invoke.cont:                                      ; preds = %entry
  %4 = load %"struct.std::piecewise_construct_t"*, %"struct.std::piecewise_construct_t"** %__args.addr, align 8, !dbg !3657
  %call7 = call dereferenceable(1) %"struct.std::piecewise_construct_t"* @_ZSt7forwardIRKSt21piecewise_construct_tEOT_RNSt16remove_referenceIS3_E4typeE(%"struct.std::piecewise_construct_t"* dereferenceable(1) %4) #3, !dbg !3658
  %5 = load %"class.std::tuple"*, %"class.std::tuple"** %__args.addr2, align 8, !dbg !3657
  %call8 = call dereferenceable(8) %"class.std::tuple"* @_ZSt7forwardISt5tupleIJRKPcEEEOT_RNSt16remove_referenceIS5_E4typeE(%"class.std::tuple"* dereferenceable(8) %5) #3, !dbg !3658
  %6 = load %"class.std::tuple.3"*, %"class.std::tuple.3"** %__args.addr4, align 8, !dbg !3657
  %call9 = call dereferenceable(1) %"class.std::tuple.3"* @_ZSt7forwardISt5tupleIJEEEOT_RNSt16remove_referenceIS2_E4typeE(%"class.std::tuple.3"* dereferenceable(1) %6) #3, !dbg !3658
  invoke void @_ZNSt16allocator_traitsISaISt13_Rb_tree_nodeISt4pairIKPciEEEE9constructIS4_JRKSt21piecewise_construct_tSt5tupleIJRS3_EESC_IJEEEEEvRS6_PT_DpOT0_(%"class.std::allocator.0"* dereferenceable(1) %call, %"struct.std::pair"* %call6, %"struct.std::piecewise_construct_t"* dereferenceable(1) %call7, %"class.std::tuple"* dereferenceable(8) %call8, %"class.std::tuple.3"* dereferenceable(1) %call9)
          to label %invoke.cont10 unwind label %lpad, !dbg !3659

invoke.cont10:                                    ; preds = %invoke.cont
  br label %try.cont, !dbg !3660

lpad:                                             ; preds = %invoke.cont, %entry
  %7 = landingpad { i8*, i32 }
          catch i8* null, !dbg !3661
  %8 = extractvalue { i8*, i32 } %7, 0, !dbg !3661
  store i8* %8, i8** %exn.slot, align 8, !dbg !3661
  %9 = extractvalue { i8*, i32 } %7, 1, !dbg !3661
  store i32 %9, i32* %ehselector.slot, align 4, !dbg !3661
  br label %catch, !dbg !3661

catch:                                            ; preds = %lpad
  %exn = load i8*, i8** %exn.slot, align 8, !dbg !3660
  %10 = call i8* @__cxa_begin_catch(i8* %exn) #3, !dbg !3660
  %11 = load %"struct.std::_Rb_tree_node"*, %"struct.std::_Rb_tree_node"** %__node.addr, align 8, !dbg !3662
  %12 = load %"struct.std::_Rb_tree_node"*, %"struct.std::_Rb_tree_node"** %__node.addr, align 8, !dbg !3664
  call void @_ZNSt8_Rb_treeIPcSt4pairIKS0_iESt10_Select1stIS3_EN11cStringPool7strlessESaIS3_EE11_M_put_nodeEPSt13_Rb_tree_nodeIS3_E(%"class.std::_Rb_tree"* %this5, %"struct.std::_Rb_tree_node"* %12) #3, !dbg !3665
  invoke void @__cxa_rethrow() #17
          to label %unreachable unwind label %lpad11, !dbg !3666

lpad11:                                           ; preds = %catch
  %13 = landingpad { i8*, i32 }
          cleanup, !dbg !3667
  %14 = extractvalue { i8*, i32 } %13, 0, !dbg !3667
  store i8* %14, i8** %exn.slot, align 8, !dbg !3667
  %15 = extractvalue { i8*, i32 } %13, 1, !dbg !3667
  store i32 %15, i32* %ehselector.slot, align 4, !dbg !3667
  invoke void @__cxa_end_catch()
          to label %invoke.cont12 unwind label %terminate.lpad, !dbg !3668

invoke.cont12:                                    ; preds = %lpad11
  br label %eh.resume, !dbg !3668

try.cont:                                         ; preds = %invoke.cont10
  ret void, !dbg !3669

eh.resume:                                        ; preds = %invoke.cont12
  %exn13 = load i8*, i8** %exn.slot, align 8, !dbg !3668
  %sel = load i32, i32* %ehselector.slot, align 4, !dbg !3668
  %lpad.val = insertvalue { i8*, i32 } undef, i8* %exn13, 0, !dbg !3668
  %lpad.val14 = insertvalue { i8*, i32 } %lpad.val, i32 %sel, 1, !dbg !3668
  resume { i8*, i32 } %lpad.val14, !dbg !3668

terminate.lpad:                                   ; preds = %lpad11
  %16 = landingpad { i8*, i32 }
          catch i8* null, !dbg !3668
  %17 = extractvalue { i8*, i32 } %16, 0, !dbg !3668
  call void @__clang_call_terminate(i8* %17) #13, !dbg !3668
  unreachable, !dbg !3668

unreachable:                                      ; preds = %catch
  unreachable
}

; Function Attrs: noinline uwtable
define linkonce_odr dso_local %"struct.std::_Rb_tree_node"* @_ZNSt16allocator_traitsISaISt13_Rb_tree_nodeISt4pairIKPciEEEE8allocateERS6_m(%"class.std::allocator.0"* dereferenceable(1) %__a, i64 %__n) #0 comdat align 2 !dbg !3670 {
entry:
  %__a.addr = alloca %"class.std::allocator.0"*, align 8
  %__n.addr = alloca i64, align 8
  store %"class.std::allocator.0"* %__a, %"class.std::allocator.0"** %__a.addr, align 8
  call void @llvm.dbg.declare(metadata %"class.std::allocator.0"** %__a.addr, metadata !3671, metadata !DIExpression()), !dbg !3672
  store i64 %__n, i64* %__n.addr, align 8
  call void @llvm.dbg.declare(metadata i64* %__n.addr, metadata !3673, metadata !DIExpression()), !dbg !3674
  %0 = load %"class.std::allocator.0"*, %"class.std::allocator.0"** %__a.addr, align 8, !dbg !3675
  %1 = bitcast %"class.std::allocator.0"* %0 to %"class.__gnu_cxx::new_allocator.1"*, !dbg !3675
  %2 = load i64, i64* %__n.addr, align 8, !dbg !3676
  %call = call %"struct.std::_Rb_tree_node"* @_ZN9__gnu_cxx13new_allocatorISt13_Rb_tree_nodeISt4pairIKPciEEE8allocateEmPKv(%"class.__gnu_cxx::new_allocator.1"* %1, i64 %2, i8* null), !dbg !3677
  ret %"struct.std::_Rb_tree_node"* %call, !dbg !3678
}

; Function Attrs: noinline uwtable
define linkonce_odr dso_local %"struct.std::_Rb_tree_node"* @_ZN9__gnu_cxx13new_allocatorISt13_Rb_tree_nodeISt4pairIKPciEEE8allocateEmPKv(%"class.__gnu_cxx::new_allocator.1"* %this, i64 %__n, i8* %0) #0 comdat align 2 !dbg !3679 {
entry:
  %this.addr = alloca %"class.__gnu_cxx::new_allocator.1"*, align 8
  %__n.addr = alloca i64, align 8
  %.addr = alloca i8*, align 8
  store %"class.__gnu_cxx::new_allocator.1"* %this, %"class.__gnu_cxx::new_allocator.1"** %this.addr, align 8
  call void @llvm.dbg.declare(metadata %"class.__gnu_cxx::new_allocator.1"** %this.addr, metadata !3680, metadata !DIExpression()), !dbg !3681
  store i64 %__n, i64* %__n.addr, align 8
  call void @llvm.dbg.declare(metadata i64* %__n.addr, metadata !3682, metadata !DIExpression()), !dbg !3683
  store i8* %0, i8** %.addr, align 8
  call void @llvm.dbg.declare(metadata i8** %.addr, metadata !3684, metadata !DIExpression()), !dbg !3685
  %this1 = load %"class.__gnu_cxx::new_allocator.1"*, %"class.__gnu_cxx::new_allocator.1"** %this.addr, align 8
  %1 = load i64, i64* %__n.addr, align 8, !dbg !3686
  %call = call i64 @_ZNK9__gnu_cxx13new_allocatorISt13_Rb_tree_nodeISt4pairIKPciEEE11_M_max_sizeEv(%"class.__gnu_cxx::new_allocator.1"* %this1) #3, !dbg !3688
  %cmp = icmp ugt i64 %1, %call, !dbg !3689
  br i1 %cmp, label %if.then, label %if.end, !dbg !3690

if.then:                                          ; preds = %entry
  call void @_ZSt17__throw_bad_allocv() #17, !dbg !3691
  unreachable, !dbg !3691

if.end:                                           ; preds = %entry
  %2 = load i64, i64* %__n.addr, align 8, !dbg !3692
  %mul = mul i64 %2, 48, !dbg !3693
  %call2 = call i8* @_Znwm(i64 %mul), !dbg !3694
  %3 = bitcast i8* %call2 to %"struct.std::_Rb_tree_node"*, !dbg !3695
  ret %"struct.std::_Rb_tree_node"* %3, !dbg !3696
}

; Function Attrs: noinline nounwind uwtable
define linkonce_odr dso_local i64 @_ZNK9__gnu_cxx13new_allocatorISt13_Rb_tree_nodeISt4pairIKPciEEE11_M_max_sizeEv(%"class.__gnu_cxx::new_allocator.1"* %this) #5 comdat align 2 !dbg !3697 {
entry:
  %this.addr = alloca %"class.__gnu_cxx::new_allocator.1"*, align 8
  store %"class.__gnu_cxx::new_allocator.1"* %this, %"class.__gnu_cxx::new_allocator.1"** %this.addr, align 8
  call void @llvm.dbg.declare(metadata %"class.__gnu_cxx::new_allocator.1"** %this.addr, metadata !3698, metadata !DIExpression()), !dbg !3700
  %this1 = load %"class.__gnu_cxx::new_allocator.1"*, %"class.__gnu_cxx::new_allocator.1"** %this.addr, align 8
  ret i64 192153584101141162, !dbg !3701
}

; Function Attrs: noreturn
declare dso_local void @_ZSt17__throw_bad_allocv() #12

; Function Attrs: nobuiltin
declare dso_local noalias i8* @_Znwm(i64) #7

; Function Attrs: noinline uwtable
define linkonce_odr dso_local void @_ZNSt16allocator_traitsISaISt13_Rb_tree_nodeISt4pairIKPciEEEE9constructIS4_JRKSt21piecewise_construct_tSt5tupleIJRS3_EESC_IJEEEEEvRS6_PT_DpOT0_(%"class.std::allocator.0"* dereferenceable(1) %__a, %"struct.std::pair"* %__p, %"struct.std::piecewise_construct_t"* dereferenceable(1) %__args, %"class.std::tuple"* dereferenceable(8) %__args1, %"class.std::tuple.3"* dereferenceable(1) %__args3) #0 comdat align 2 !dbg !3702 {
entry:
  %__a.addr = alloca %"class.std::allocator.0"*, align 8
  %__p.addr = alloca %"struct.std::pair"*, align 8
  %__args.addr = alloca %"struct.std::piecewise_construct_t"*, align 8
  %__args.addr2 = alloca %"class.std::tuple"*, align 8
  %__args.addr4 = alloca %"class.std::tuple.3"*, align 8
  store %"class.std::allocator.0"* %__a, %"class.std::allocator.0"** %__a.addr, align 8
  call void @llvm.dbg.declare(metadata %"class.std::allocator.0"** %__a.addr, metadata !3707, metadata !DIExpression()), !dbg !3708
  store %"struct.std::pair"* %__p, %"struct.std::pair"** %__p.addr, align 8
  call void @llvm.dbg.declare(metadata %"struct.std::pair"** %__p.addr, metadata !3709, metadata !DIExpression()), !dbg !3710
  store %"struct.std::piecewise_construct_t"* %__args, %"struct.std::piecewise_construct_t"** %__args.addr, align 8
  call void @llvm.dbg.declare(metadata %"struct.std::piecewise_construct_t"** %__args.addr, metadata !3711, metadata !DIExpression()), !dbg !3712
  store %"class.std::tuple"* %__args1, %"class.std::tuple"** %__args.addr2, align 8
  call void @llvm.dbg.declare(metadata %"class.std::tuple"** %__args.addr2, metadata !3713, metadata !DIExpression()), !dbg !3712
  store %"class.std::tuple.3"* %__args3, %"class.std::tuple.3"** %__args.addr4, align 8
  call void @llvm.dbg.declare(metadata %"class.std::tuple.3"** %__args.addr4, metadata !3714, metadata !DIExpression()), !dbg !3712
  %0 = load %"class.std::allocator.0"*, %"class.std::allocator.0"** %__a.addr, align 8, !dbg !3715
  %1 = bitcast %"class.std::allocator.0"* %0 to %"class.__gnu_cxx::new_allocator.1"*, !dbg !3715
  %2 = load %"struct.std::pair"*, %"struct.std::pair"** %__p.addr, align 8, !dbg !3716
  %3 = load %"struct.std::piecewise_construct_t"*, %"struct.std::piecewise_construct_t"** %__args.addr, align 8, !dbg !3717
  %call = call dereferenceable(1) %"struct.std::piecewise_construct_t"* @_ZSt7forwardIRKSt21piecewise_construct_tEOT_RNSt16remove_referenceIS3_E4typeE(%"struct.std::piecewise_construct_t"* dereferenceable(1) %3) #3, !dbg !3718
  %4 = load %"class.std::tuple"*, %"class.std::tuple"** %__args.addr2, align 8, !dbg !3717
  %call5 = call dereferenceable(8) %"class.std::tuple"* @_ZSt7forwardISt5tupleIJRKPcEEEOT_RNSt16remove_referenceIS5_E4typeE(%"class.std::tuple"* dereferenceable(8) %4) #3, !dbg !3718
  %5 = load %"class.std::tuple.3"*, %"class.std::tuple.3"** %__args.addr4, align 8, !dbg !3717
  %call6 = call dereferenceable(1) %"class.std::tuple.3"* @_ZSt7forwardISt5tupleIJEEEOT_RNSt16remove_referenceIS2_E4typeE(%"class.std::tuple.3"* dereferenceable(1) %5) #3, !dbg !3718
  call void @_ZN9__gnu_cxx13new_allocatorISt13_Rb_tree_nodeISt4pairIKPciEEE9constructIS5_JRKSt21piecewise_construct_tSt5tupleIJRS4_EESC_IJEEEEEvPT_DpOT0_(%"class.__gnu_cxx::new_allocator.1"* %1, %"struct.std::pair"* %2, %"struct.std::piecewise_construct_t"* dereferenceable(1) %call, %"class.std::tuple"* dereferenceable(8) %call5, %"class.std::tuple.3"* dereferenceable(1) %call6), !dbg !3719
  ret void, !dbg !3720
}

; Function Attrs: noinline uwtable
define linkonce_odr dso_local void @_ZN9__gnu_cxx13new_allocatorISt13_Rb_tree_nodeISt4pairIKPciEEE9constructIS5_JRKSt21piecewise_construct_tSt5tupleIJRS4_EESC_IJEEEEEvPT_DpOT0_(%"class.__gnu_cxx::new_allocator.1"* %this, %"struct.std::pair"* %__p, %"struct.std::piecewise_construct_t"* dereferenceable(1) %__args, %"class.std::tuple"* dereferenceable(8) %__args1, %"class.std::tuple.3"* dereferenceable(1) %__args3) #0 comdat align 2 !dbg !3721 {
entry:
  %this.addr = alloca %"class.__gnu_cxx::new_allocator.1"*, align 8
  %__p.addr = alloca %"struct.std::pair"*, align 8
  %__args.addr = alloca %"struct.std::piecewise_construct_t"*, align 8
  %__args.addr2 = alloca %"class.std::tuple"*, align 8
  %__args.addr4 = alloca %"class.std::tuple.3"*, align 8
  %agg.tmp = alloca %"struct.std::piecewise_construct_t", align 1
  %agg.tmp6 = alloca %"class.std::tuple", align 8
  %agg.tmp8 = alloca %"class.std::tuple.3", align 1
  store %"class.__gnu_cxx::new_allocator.1"* %this, %"class.__gnu_cxx::new_allocator.1"** %this.addr, align 8
  call void @llvm.dbg.declare(metadata %"class.__gnu_cxx::new_allocator.1"** %this.addr, metadata !3725, metadata !DIExpression()), !dbg !3726
  store %"struct.std::pair"* %__p, %"struct.std::pair"** %__p.addr, align 8
  call void @llvm.dbg.declare(metadata %"struct.std::pair"** %__p.addr, metadata !3727, metadata !DIExpression()), !dbg !3728
  store %"struct.std::piecewise_construct_t"* %__args, %"struct.std::piecewise_construct_t"** %__args.addr, align 8
  call void @llvm.dbg.declare(metadata %"struct.std::piecewise_construct_t"** %__args.addr, metadata !3729, metadata !DIExpression()), !dbg !3730
  store %"class.std::tuple"* %__args1, %"class.std::tuple"** %__args.addr2, align 8
  call void @llvm.dbg.declare(metadata %"class.std::tuple"** %__args.addr2, metadata !3731, metadata !DIExpression()), !dbg !3730
  store %"class.std::tuple.3"* %__args3, %"class.std::tuple.3"** %__args.addr4, align 8
  call void @llvm.dbg.declare(metadata %"class.std::tuple.3"** %__args.addr4, metadata !3732, metadata !DIExpression()), !dbg !3730
  %this5 = load %"class.__gnu_cxx::new_allocator.1"*, %"class.__gnu_cxx::new_allocator.1"** %this.addr, align 8
  %0 = load %"struct.std::pair"*, %"struct.std::pair"** %__p.addr, align 8, !dbg !3733
  %1 = bitcast %"struct.std::pair"* %0 to i8*, !dbg !3733
  %2 = bitcast i8* %1 to %"struct.std::pair"*, !dbg !3734
  %3 = load %"struct.std::piecewise_construct_t"*, %"struct.std::piecewise_construct_t"** %__args.addr, align 8, !dbg !3735
  %call = call dereferenceable(1) %"struct.std::piecewise_construct_t"* @_ZSt7forwardIRKSt21piecewise_construct_tEOT_RNSt16remove_referenceIS3_E4typeE(%"struct.std::piecewise_construct_t"* dereferenceable(1) %3) #3, !dbg !3736
  %4 = load %"class.std::tuple"*, %"class.std::tuple"** %__args.addr2, align 8, !dbg !3735
  %call7 = call dereferenceable(8) %"class.std::tuple"* @_ZSt7forwardISt5tupleIJRKPcEEEOT_RNSt16remove_referenceIS5_E4typeE(%"class.std::tuple"* dereferenceable(8) %4) #3, !dbg !3736
  call void @_ZNSt5tupleIJRKPcEEC2EOS3_(%"class.std::tuple"* %agg.tmp6, %"class.std::tuple"* dereferenceable(8) %call7) #3, !dbg !3736
  %5 = load %"class.std::tuple.3"*, %"class.std::tuple.3"** %__args.addr4, align 8, !dbg !3735
  %call9 = call dereferenceable(1) %"class.std::tuple.3"* @_ZSt7forwardISt5tupleIJEEEOT_RNSt16remove_referenceIS2_E4typeE(%"class.std::tuple.3"* dereferenceable(1) %5) #3, !dbg !3736
  call void @_ZNSt4pairIKPciEC2IJRS1_EJEEESt21piecewise_construct_tSt5tupleIJDpT_EES6_IJDpT0_EE(%"struct.std::pair"* %2, %"class.std::tuple"* %agg.tmp6), !dbg !3737
  ret void, !dbg !3738
}

; Function Attrs: noinline nounwind uwtable
define linkonce_odr dso_local void @_ZNSt5tupleIJRKPcEEC2EOS3_(%"class.std::tuple"* %this, %"class.std::tuple"* dereferenceable(8) %0) unnamed_addr #5 comdat align 2 !dbg !3739 {
entry:
  %this.addr = alloca %"class.std::tuple"*, align 8
  %.addr = alloca %"class.std::tuple"*, align 8
  store %"class.std::tuple"* %this, %"class.std::tuple"** %this.addr, align 8
  call void @llvm.dbg.declare(metadata %"class.std::tuple"** %this.addr, metadata !3740, metadata !DIExpression()), !dbg !3741
  store %"class.std::tuple"* %0, %"class.std::tuple"** %.addr, align 8
  call void @llvm.dbg.declare(metadata %"class.std::tuple"** %.addr, metadata !3742, metadata !DIExpression()), !dbg !3743
  %this1 = load %"class.std::tuple"*, %"class.std::tuple"** %this.addr, align 8
  %1 = bitcast %"class.std::tuple"* %this1 to %"struct.std::_Tuple_impl"*, !dbg !3744
  %2 = load %"class.std::tuple"*, %"class.std::tuple"** %.addr, align 8, !dbg !3745
  %3 = bitcast %"class.std::tuple"* %2 to %"struct.std::_Tuple_impl"*, !dbg !3745
  call void @_ZNSt11_Tuple_implILm0EJRKPcEEC2EOS3_(%"struct.std::_Tuple_impl"* %1, %"struct.std::_Tuple_impl"* dereferenceable(8) %3) #3, !dbg !3745
  ret void, !dbg !3744
}

; Function Attrs: noinline uwtable
define linkonce_odr dso_local void @_ZNSt4pairIKPciEC2IJRS1_EJEEESt21piecewise_construct_tSt5tupleIJDpT_EES6_IJDpT0_EE(%"struct.std::pair"* %this, %"class.std::tuple"* %__first) unnamed_addr #0 comdat align 2 !dbg !3746 {
entry:
  %0 = alloca %"struct.std::piecewise_construct_t", align 1
  %__second = alloca %"class.std::tuple.3", align 1
  %this.addr = alloca %"struct.std::pair"*, align 8
  %agg.tmp = alloca %"struct.std::_Index_tuple", align 1
  %agg.tmp3 = alloca %"struct.std::_Index_tuple.7", align 1
  store %"struct.std::pair"* %this, %"struct.std::pair"** %this.addr, align 8
  call void @llvm.dbg.declare(metadata %"struct.std::pair"** %this.addr, metadata !3753, metadata !DIExpression()), !dbg !3754
  call void @llvm.dbg.declare(metadata %"struct.std::piecewise_construct_t"* %0, metadata !3755, metadata !DIExpression()), !dbg !3756
  call void @llvm.dbg.declare(metadata %"class.std::tuple"* %__first, metadata !3757, metadata !DIExpression()), !dbg !3758
  call void @llvm.dbg.declare(metadata %"class.std::tuple.3"* %__second, metadata !3759, metadata !DIExpression()), !dbg !3760
  %this2 = load %"struct.std::pair"*, %"struct.std::pair"** %this.addr, align 8
  call void @_ZNSt4pairIKPciEC2IJRS1_EJLm0EEJEJEEERSt5tupleIJDpT_EERS5_IJDpT1_EESt12_Index_tupleIJXspT0_EEESE_IJXspT2_EEE(%"struct.std::pair"* %this2, %"class.std::tuple"* dereferenceable(8) %__first, %"class.std::tuple.3"* dereferenceable(1) %__second), !dbg !3761
  ret void, !dbg !3762
}

; Function Attrs: noinline nounwind uwtable
define linkonce_odr dso_local void @_ZNSt11_Tuple_implILm0EJRKPcEEC2EOS3_(%"struct.std::_Tuple_impl"* %this, %"struct.std::_Tuple_impl"* dereferenceable(8) %__in) unnamed_addr #5 comdat align 2 personality i8* bitcast (i32 (...)* @__gxx_personality_v0 to i8*) !dbg !3763 {
entry:
  %this.addr = alloca %"struct.std::_Tuple_impl"*, align 8
  %__in.addr = alloca %"struct.std::_Tuple_impl"*, align 8
  store %"struct.std::_Tuple_impl"* %this, %"struct.std::_Tuple_impl"** %this.addr, align 8
  call void @llvm.dbg.declare(metadata %"struct.std::_Tuple_impl"** %this.addr, metadata !3764, metadata !DIExpression()), !dbg !3766
  store %"struct.std::_Tuple_impl"* %__in, %"struct.std::_Tuple_impl"** %__in.addr, align 8
  call void @llvm.dbg.declare(metadata %"struct.std::_Tuple_impl"** %__in.addr, metadata !3767, metadata !DIExpression()), !dbg !3768
  %this1 = load %"struct.std::_Tuple_impl"*, %"struct.std::_Tuple_impl"** %this.addr, align 8
  %0 = bitcast %"struct.std::_Tuple_impl"* %this1 to %"struct.std::_Head_base"*, !dbg !3769
  %1 = load %"struct.std::_Tuple_impl"*, %"struct.std::_Tuple_impl"** %__in.addr, align 8, !dbg !3770
  %call = call dereferenceable(8) i8** @_ZNSt11_Tuple_implILm0EJRKPcEE7_M_headERS3_(%"struct.std::_Tuple_impl"* dereferenceable(8) %1) #3, !dbg !3771
  %call2 = call dereferenceable(8) i8** @_ZSt7forwardIRKPcEOT_RNSt16remove_referenceIS3_E4typeE(i8** dereferenceable(8) %call) #3, !dbg !3772
  invoke void @_ZNSt10_Head_baseILm0ERKPcLb0EEC2ES2_(%"struct.std::_Head_base"* %0, i8** dereferenceable(8) %call2)
          to label %invoke.cont unwind label %terminate.lpad, !dbg !3773

invoke.cont:                                      ; preds = %entry
  ret void, !dbg !3774

terminate.lpad:                                   ; preds = %entry
  %2 = landingpad { i8*, i32 }
          catch i8* null, !dbg !3773
  %3 = extractvalue { i8*, i32 } %2, 0, !dbg !3773
  call void @__clang_call_terminate(i8* %3) #13, !dbg !3773
  unreachable, !dbg !3773
}

; Function Attrs: noinline nounwind uwtable
define linkonce_odr dso_local dereferenceable(8) i8** @_ZSt7forwardIRKPcEOT_RNSt16remove_referenceIS3_E4typeE(i8** dereferenceable(8) %__t) #5 comdat !dbg !3775 {
entry:
  %__t.addr = alloca i8**, align 8
  store i8** %__t, i8*** %__t.addr, align 8
  call void @llvm.dbg.declare(metadata i8*** %__t.addr, metadata !3783, metadata !DIExpression()), !dbg !3784
  %0 = load i8**, i8*** %__t.addr, align 8, !dbg !3785
  ret i8** %0, !dbg !3786
}

; Function Attrs: noinline nounwind uwtable
define linkonce_odr dso_local dereferenceable(8) i8** @_ZNSt11_Tuple_implILm0EJRKPcEE7_M_headERS3_(%"struct.std::_Tuple_impl"* dereferenceable(8) %__t) #5 comdat align 2 !dbg !3787 {
entry:
  %__t.addr = alloca %"struct.std::_Tuple_impl"*, align 8
  store %"struct.std::_Tuple_impl"* %__t, %"struct.std::_Tuple_impl"** %__t.addr, align 8
  call void @llvm.dbg.declare(metadata %"struct.std::_Tuple_impl"** %__t.addr, metadata !3788, metadata !DIExpression()), !dbg !3789
  %0 = load %"struct.std::_Tuple_impl"*, %"struct.std::_Tuple_impl"** %__t.addr, align 8, !dbg !3790
  %1 = bitcast %"struct.std::_Tuple_impl"* %0 to %"struct.std::_Head_base"*, !dbg !3790
  %call = call dereferenceable(8) i8** @_ZNSt10_Head_baseILm0ERKPcLb0EE7_M_headERS3_(%"struct.std::_Head_base"* dereferenceable(8) %1) #3, !dbg !3791
  ret i8** %call, !dbg !3792
}

; Function Attrs: noinline nounwind uwtable
define linkonce_odr dso_local void @_ZNSt10_Head_baseILm0ERKPcLb0EEC2ES2_(%"struct.std::_Head_base"* %this, i8** dereferenceable(8) %__h) unnamed_addr #5 comdat align 2 !dbg !3793 {
entry:
  %this.addr = alloca %"struct.std::_Head_base"*, align 8
  %__h.addr = alloca i8**, align 8
  store %"struct.std::_Head_base"* %this, %"struct.std::_Head_base"** %this.addr, align 8
  call void @llvm.dbg.declare(metadata %"struct.std::_Head_base"** %this.addr, metadata !3794, metadata !DIExpression()), !dbg !3796
  store i8** %__h, i8*** %__h.addr, align 8
  call void @llvm.dbg.declare(metadata i8*** %__h.addr, metadata !3797, metadata !DIExpression()), !dbg !3798
  %this1 = load %"struct.std::_Head_base"*, %"struct.std::_Head_base"** %this.addr, align 8
  %_M_head_impl = getelementptr inbounds %"struct.std::_Head_base", %"struct.std::_Head_base"* %this1, i32 0, i32 0, !dbg !3799
  %0 = load i8**, i8*** %__h.addr, align 8, !dbg !3800
  store i8** %0, i8*** %_M_head_impl, align 8, !dbg !3799
  ret void, !dbg !3801
}

; Function Attrs: noinline nounwind uwtable
define linkonce_odr dso_local dereferenceable(8) i8** @_ZNSt10_Head_baseILm0ERKPcLb0EE7_M_headERS3_(%"struct.std::_Head_base"* dereferenceable(8) %__b) #5 comdat align 2 !dbg !3802 {
entry:
  %__b.addr = alloca %"struct.std::_Head_base"*, align 8
  store %"struct.std::_Head_base"* %__b, %"struct.std::_Head_base"** %__b.addr, align 8
  call void @llvm.dbg.declare(metadata %"struct.std::_Head_base"** %__b.addr, metadata !3803, metadata !DIExpression()), !dbg !3804
  %0 = load %"struct.std::_Head_base"*, %"struct.std::_Head_base"** %__b.addr, align 8, !dbg !3805
  %_M_head_impl = getelementptr inbounds %"struct.std::_Head_base", %"struct.std::_Head_base"* %0, i32 0, i32 0, !dbg !3806
  %1 = load i8**, i8*** %_M_head_impl, align 8, !dbg !3806
  ret i8** %1, !dbg !3807
}

; Function Attrs: noinline nounwind uwtable
define linkonce_odr dso_local void @_ZNSt4pairIKPciEC2IJRS1_EJLm0EEJEJEEERSt5tupleIJDpT_EERS5_IJDpT1_EESt12_Index_tupleIJXspT0_EEESE_IJXspT2_EEE(%"struct.std::pair"* %this, %"class.std::tuple"* dereferenceable(8) %__tuple1, %"class.std::tuple.3"* dereferenceable(1) %__tuple2) unnamed_addr #5 comdat align 2 !dbg !3808 {
entry:
  %0 = alloca %"struct.std::_Index_tuple", align 1
  %1 = alloca %"struct.std::_Index_tuple.7", align 1
  %this.addr = alloca %"struct.std::pair"*, align 8
  %__tuple1.addr = alloca %"class.std::tuple"*, align 8
  %__tuple2.addr = alloca %"class.std::tuple.3"*, align 8
  store %"struct.std::pair"* %this, %"struct.std::pair"** %this.addr, align 8
  call void @llvm.dbg.declare(metadata %"struct.std::pair"** %this.addr, metadata !3824, metadata !DIExpression()), !dbg !3825
  store %"class.std::tuple"* %__tuple1, %"class.std::tuple"** %__tuple1.addr, align 8
  call void @llvm.dbg.declare(metadata %"class.std::tuple"** %__tuple1.addr, metadata !3826, metadata !DIExpression()), !dbg !3827
  store %"class.std::tuple.3"* %__tuple2, %"class.std::tuple.3"** %__tuple2.addr, align 8
  call void @llvm.dbg.declare(metadata %"class.std::tuple.3"** %__tuple2.addr, metadata !3828, metadata !DIExpression()), !dbg !3829
  call void @llvm.dbg.declare(metadata %"struct.std::_Index_tuple"* %0, metadata !3830, metadata !DIExpression()), !dbg !3831
  call void @llvm.dbg.declare(metadata %"struct.std::_Index_tuple.7"* %1, metadata !3832, metadata !DIExpression()), !dbg !3833
  %this2 = load %"struct.std::pair"*, %"struct.std::pair"** %this.addr, align 8
  %2 = bitcast %"struct.std::pair"* %this2 to %"class.std::__pair_base"*, !dbg !3834
  %first = getelementptr inbounds %"struct.std::pair", %"struct.std::pair"* %this2, i32 0, i32 0, !dbg !3835
  %3 = load %"class.std::tuple"*, %"class.std::tuple"** %__tuple1.addr, align 8, !dbg !3837
  %call = call dereferenceable(8) i8** @_ZSt3getILm0EJRKPcEERNSt13tuple_elementIXT_ESt5tupleIJDpT0_EEE4typeERS7_(%"class.std::tuple"* dereferenceable(8) %3) #3, !dbg !3838
  %call3 = call dereferenceable(8) i8** @_ZSt7forwardIRKPcEOT_RNSt16remove_referenceIS3_E4typeE(i8** dereferenceable(8) %call) #3, !dbg !3839
  %4 = load i8*, i8** %call3, align 8, !dbg !3839
  store i8* %4, i8** %first, align 8, !dbg !3835
  %second = getelementptr inbounds %"struct.std::pair", %"struct.std::pair"* %this2, i32 0, i32 1, !dbg !3840
  store i32 0, i32* %second, align 8, !dbg !3840
  ret void, !dbg !3841
}

; Function Attrs: noinline nounwind uwtable
define linkonce_odr dso_local dereferenceable(8) i8** @_ZSt3getILm0EJRKPcEERNSt13tuple_elementIXT_ESt5tupleIJDpT0_EEE4typeERS7_(%"class.std::tuple"* dereferenceable(8) %__t) #5 comdat !dbg !3842 {
entry:
  %__t.addr = alloca %"class.std::tuple"*, align 8
  store %"class.std::tuple"* %__t, %"class.std::tuple"** %__t.addr, align 8
  call void @llvm.dbg.declare(metadata %"class.std::tuple"** %__t.addr, metadata !3847, metadata !DIExpression()), !dbg !3848
  %0 = load %"class.std::tuple"*, %"class.std::tuple"** %__t.addr, align 8, !dbg !3849
  %1 = bitcast %"class.std::tuple"* %0 to %"struct.std::_Tuple_impl"*, !dbg !3849
  %call = call dereferenceable(8) i8** @_ZSt12__get_helperILm0ERKPcJEERT0_RSt11_Tuple_implIXT_EJS3_DpT1_EE(%"struct.std::_Tuple_impl"* dereferenceable(8) %1) #3, !dbg !3850
  ret i8** %call, !dbg !3851
}

; Function Attrs: noinline nounwind uwtable
define linkonce_odr dso_local dereferenceable(8) i8** @_ZSt12__get_helperILm0ERKPcJEERT0_RSt11_Tuple_implIXT_EJS3_DpT1_EE(%"struct.std::_Tuple_impl"* dereferenceable(8) %__t) #5 comdat !dbg !3852 {
entry:
  %__t.addr = alloca %"struct.std::_Tuple_impl"*, align 8
  store %"struct.std::_Tuple_impl"* %__t, %"struct.std::_Tuple_impl"** %__t.addr, align 8
  call void @llvm.dbg.declare(metadata %"struct.std::_Tuple_impl"** %__t.addr, metadata !3855, metadata !DIExpression()), !dbg !3856
  %0 = load %"struct.std::_Tuple_impl"*, %"struct.std::_Tuple_impl"** %__t.addr, align 8, !dbg !3857
  %call = call dereferenceable(8) i8** @_ZNSt11_Tuple_implILm0EJRKPcEE7_M_headERS3_(%"struct.std::_Tuple_impl"* dereferenceable(8) %0) #3, !dbg !3858
  ret i8** %call, !dbg !3859
}

; Function Attrs: noinline nounwind uwtable
define linkonce_odr dso_local %"struct.std::_Rb_tree_node_base"* @_ZNKSt23_Rb_tree_const_iteratorISt4pairIKPciEE13_M_const_castEv(%"struct.std::_Rb_tree_const_iterator"* %this) #5 comdat align 2 !dbg !3860 {
entry:
  %retval = alloca %"struct.std::_Rb_tree_iterator", align 8
  %this.addr = alloca %"struct.std::_Rb_tree_const_iterator"*, align 8
  store %"struct.std::_Rb_tree_const_iterator"* %this, %"struct.std::_Rb_tree_const_iterator"** %this.addr, align 8
  call void @llvm.dbg.declare(metadata %"struct.std::_Rb_tree_const_iterator"** %this.addr, metadata !3861, metadata !DIExpression()), !dbg !3862
  %this1 = load %"struct.std::_Rb_tree_const_iterator"*, %"struct.std::_Rb_tree_const_iterator"** %this.addr, align 8
  %_M_node = getelementptr inbounds %"struct.std::_Rb_tree_const_iterator", %"struct.std::_Rb_tree_const_iterator"* %this1, i32 0, i32 0, !dbg !3863
  %0 = load %"struct.std::_Rb_tree_node_base"*, %"struct.std::_Rb_tree_node_base"** %_M_node, align 8, !dbg !3863
  call void @_ZNSt17_Rb_tree_iteratorISt4pairIKPciEEC2EPSt18_Rb_tree_node_base(%"struct.std::_Rb_tree_iterator"* %retval, %"struct.std::_Rb_tree_node_base"* %0) #3, !dbg !3864
  %coerce.dive = getelementptr inbounds %"struct.std::_Rb_tree_iterator", %"struct.std::_Rb_tree_iterator"* %retval, i32 0, i32 0, !dbg !3865
  %1 = load %"struct.std::_Rb_tree_node_base"*, %"struct.std::_Rb_tree_node_base"** %coerce.dive, align 8, !dbg !3865
  ret %"struct.std::_Rb_tree_node_base"* %1, !dbg !3865
}

; Function Attrs: noinline nounwind uwtable
define linkonce_odr dso_local i64 @_ZNKSt8_Rb_treeIPcSt4pairIKS0_iESt10_Select1stIS3_EN11cStringPool7strlessESaIS3_EE4sizeEv(%"class.std::_Rb_tree"* %this) #5 comdat align 2 !dbg !3866 {
entry:
  %this.addr = alloca %"class.std::_Rb_tree"*, align 8
  store %"class.std::_Rb_tree"* %this, %"class.std::_Rb_tree"** %this.addr, align 8
  call void @llvm.dbg.declare(metadata %"class.std::_Rb_tree"** %this.addr, metadata !3867, metadata !DIExpression()), !dbg !3868
  %this1 = load %"class.std::_Rb_tree"*, %"class.std::_Rb_tree"** %this.addr, align 8
  %_M_impl = getelementptr inbounds %"class.std::_Rb_tree", %"class.std::_Rb_tree"* %this1, i32 0, i32 0, !dbg !3869
  %0 = bitcast %"struct.std::_Rb_tree<char *, std::pair<char *const, int>, std::_Select1st<std::pair<char *const, int> >, cStringPool::strless, std::allocator<std::pair<char *const, int> > >::_Rb_tree_impl"* %_M_impl to i8*, !dbg !3869
  %add.ptr = getelementptr inbounds i8, i8* %0, i64 8, !dbg !3869
  %1 = bitcast i8* %add.ptr to %"struct.std::_Rb_tree_header"*, !dbg !3869
  %_M_node_count = getelementptr inbounds %"struct.std::_Rb_tree_header", %"struct.std::_Rb_tree_header"* %1, i32 0, i32 1, !dbg !3870
  %2 = load i64, i64* %_M_node_count, align 8, !dbg !3870
  ret i64 %2, !dbg !3871
}

; Function Attrs: noinline nounwind uwtable
define linkonce_odr dso_local dereferenceable(8) %"struct.std::_Rb_tree_node_base"** @_ZNSt8_Rb_treeIPcSt4pairIKS0_iESt10_Select1stIS3_EN11cStringPool7strlessESaIS3_EE12_M_rightmostEv(%"class.std::_Rb_tree"* %this) #5 comdat align 2 !dbg !3872 {
entry:
  %this.addr = alloca %"class.std::_Rb_tree"*, align 8
  store %"class.std::_Rb_tree"* %this, %"class.std::_Rb_tree"** %this.addr, align 8
  call void @llvm.dbg.declare(metadata %"class.std::_Rb_tree"** %this.addr, metadata !3873, metadata !DIExpression()), !dbg !3874
  %this1 = load %"class.std::_Rb_tree"*, %"class.std::_Rb_tree"** %this.addr, align 8
  %_M_impl = getelementptr inbounds %"class.std::_Rb_tree", %"class.std::_Rb_tree"* %this1, i32 0, i32 0, !dbg !3875
  %0 = bitcast %"struct.std::_Rb_tree<char *, std::pair<char *const, int>, std::_Select1st<std::pair<char *const, int> >, cStringPool::strless, std::allocator<std::pair<char *const, int> > >::_Rb_tree_impl"* %_M_impl to i8*, !dbg !3876
  %add.ptr = getelementptr inbounds i8, i8* %0, i64 8, !dbg !3876
  %1 = bitcast i8* %add.ptr to %"struct.std::_Rb_tree_header"*, !dbg !3876
  %_M_header = getelementptr inbounds %"struct.std::_Rb_tree_header", %"struct.std::_Rb_tree_header"* %1, i32 0, i32 0, !dbg !3877
  %_M_right = getelementptr inbounds %"struct.std::_Rb_tree_node_base", %"struct.std::_Rb_tree_node_base"* %_M_header, i32 0, i32 3, !dbg !3878
  ret %"struct.std::_Rb_tree_node_base"** %_M_right, !dbg !3879
}

; Function Attrs: noinline nounwind uwtable
define linkonce_odr dso_local void @_ZNSt4pairIPSt18_Rb_tree_node_baseS1_EC2IRS1_Lb1EEERKS1_OT_(%"struct.std::pair.4"* %this, %"struct.std::_Rb_tree_node_base"** dereferenceable(8) %__x, %"struct.std::_Rb_tree_node_base"** dereferenceable(8) %__y) unnamed_addr #5 comdat align 2 !dbg !3880 {
entry:
  %this.addr = alloca %"struct.std::pair.4"*, align 8
  %__x.addr = alloca %"struct.std::_Rb_tree_node_base"**, align 8
  %__y.addr = alloca %"struct.std::_Rb_tree_node_base"**, align 8
  store %"struct.std::pair.4"* %this, %"struct.std::pair.4"** %this.addr, align 8
  call void @llvm.dbg.declare(metadata %"struct.std::pair.4"** %this.addr, metadata !3889, metadata !DIExpression()), !dbg !3891
  store %"struct.std::_Rb_tree_node_base"** %__x, %"struct.std::_Rb_tree_node_base"*** %__x.addr, align 8
  call void @llvm.dbg.declare(metadata %"struct.std::_Rb_tree_node_base"*** %__x.addr, metadata !3892, metadata !DIExpression()), !dbg !3893
  store %"struct.std::_Rb_tree_node_base"** %__y, %"struct.std::_Rb_tree_node_base"*** %__y.addr, align 8
  call void @llvm.dbg.declare(metadata %"struct.std::_Rb_tree_node_base"*** %__y.addr, metadata !3894, metadata !DIExpression()), !dbg !3895
  %this1 = load %"struct.std::pair.4"*, %"struct.std::pair.4"** %this.addr, align 8
  %0 = bitcast %"struct.std::pair.4"* %this1 to %"class.std::__pair_base.5"*, !dbg !3896
  %first = getelementptr inbounds %"struct.std::pair.4", %"struct.std::pair.4"* %this1, i32 0, i32 0, !dbg !3897
  %1 = load %"struct.std::_Rb_tree_node_base"**, %"struct.std::_Rb_tree_node_base"*** %__x.addr, align 8, !dbg !3898
  %2 = load %"struct.std::_Rb_tree_node_base"*, %"struct.std::_Rb_tree_node_base"** %1, align 8, !dbg !3898
  store %"struct.std::_Rb_tree_node_base"* %2, %"struct.std::_Rb_tree_node_base"** %first, align 8, !dbg !3897
  %second = getelementptr inbounds %"struct.std::pair.4", %"struct.std::pair.4"* %this1, i32 0, i32 1, !dbg !3899
  %3 = load %"struct.std::_Rb_tree_node_base"**, %"struct.std::_Rb_tree_node_base"*** %__y.addr, align 8, !dbg !3900
  %call = call dereferenceable(8) %"struct.std::_Rb_tree_node_base"** @_ZSt7forwardIRPSt18_Rb_tree_node_baseEOT_RNSt16remove_referenceIS3_E4typeE(%"struct.std::_Rb_tree_node_base"** dereferenceable(8) %3) #3, !dbg !3901
  %4 = load %"struct.std::_Rb_tree_node_base"*, %"struct.std::_Rb_tree_node_base"** %call, align 8, !dbg !3901
  store %"struct.std::_Rb_tree_node_base"* %4, %"struct.std::_Rb_tree_node_base"** %second, align 8, !dbg !3899
  ret void, !dbg !3902
}

; Function Attrs: noinline uwtable
define linkonce_odr dso_local { %"struct.std::_Rb_tree_node_base"*, %"struct.std::_Rb_tree_node_base"* } @_ZNSt8_Rb_treeIPcSt4pairIKS0_iESt10_Select1stIS3_EN11cStringPool7strlessESaIS3_EE24_M_get_insert_unique_posERS2_(%"class.std::_Rb_tree"* %this, i8** dereferenceable(8) %__k) #0 comdat align 2 !dbg !3903 {
entry:
  %retval = alloca %"struct.std::pair.4", align 8
  %this.addr = alloca %"class.std::_Rb_tree"*, align 8
  %__k.addr = alloca i8**, align 8
  %__x = alloca %"struct.std::_Rb_tree_node"*, align 8
  %__y = alloca %"struct.std::_Rb_tree_node_base"*, align 8
  %__comp = alloca i8, align 1
  %__j = alloca %"struct.std::_Rb_tree_iterator", align 8
  %ref.tmp = alloca %"struct.std::_Rb_tree_iterator", align 8
  %ref.tmp20 = alloca %"struct.std::_Rb_tree_node_base"*, align 8
  store %"class.std::_Rb_tree"* %this, %"class.std::_Rb_tree"** %this.addr, align 8
