; ModuleID = 'simulator/cxmlelement.cc'
source_filename = "simulator/cxmlelement.cc"
target datalayout = "e-m:e-p270:32:32-p271:32:32-p272:64:64-i64:64-f80:128-n8:16:32:64-S128"
target triple = "x86_64-unknown-linux-gnu"

%"class.std::ios_base::Init" = type { i8 }
%class.cEnvir = type { i32 (...)**, i8, i8, i8, %"class.std::basic_ostream" }
%"class.std::basic_ostream" = type { i32 (...)**, %"class.std::basic_ios" }
%"class.std::basic_ios" = type { %"class.std::ios_base", %"class.std::basic_ostream"*, i8, i8, %"class.std::basic_streambuf"*, %"class.std::ctype"*, %"class.std::num_put"*, %"class.std::num_get"* }
%"class.std::ios_base" = type { i32 (...)**, i64, i64, i32, i32, i32, %"struct.std::ios_base::_Callback_list"*, %"struct.std::ios_base::_Words", [8 x %"struct.std::ios_base::_Words"], i32, %"struct.std::ios_base::_Words"*, %"class.std::locale" }
%"struct.std::ios_base::_Callback_list" = type { %"struct.std::ios_base::_Callback_list"*, void (i32, %"class.std::ios_base"*, i32)*, i32, i32 }
%"struct.std::ios_base::_Words" = type { i8*, i64 }
%"class.std::locale" = type { %"class.std::locale::_Impl"* }
%"class.std::locale::_Impl" = type { i32, %"class.std::locale::facet"**, i64, %"class.std::locale::facet"**, i8** }
%"class.std::locale::facet" = type <{ i32 (...)**, i32, [4 x i8] }>
%"class.std::basic_streambuf" = type { i32 (...)**, i8*, i8*, i8*, i8*, i8*, i8*, %"class.std::locale" }
%"class.std::ctype" = type <{ %"class.std::locale::facet.base", [4 x i8], %struct.__locale_struct*, i8, [7 x i8], i32*, i32*, i16*, i8, [256 x i8], [256 x i8], i8, [6 x i8] }>
%"class.std::locale::facet.base" = type <{ i32 (...)**, i32 }>
%struct.__locale_struct = type { [13 x %struct.__locale_data*], i16*, i32*, i32*, [13 x i8*] }
%struct.__locale_data = type opaque
%"class.std::num_put" = type { %"class.std::locale::facet.base", [4 x i8] }
%"class.std::num_get" = type { %"class.std::locale::facet.base", [4 x i8] }
%"struct.std::piecewise_construct_t" = type { i8 }
%class.cXMLElement = type { i32 (...)**, %"class.std::__cxx11::basic_string", %"class.std::__cxx11::basic_string", %"class.std::__cxx11::basic_string", %"class.std::map", %class.cXMLElement*, %class.cXMLElement*, %class.cXMLElement*, %class.cXMLElement*, %class.cXMLElement* }
%"class.std::__cxx11::basic_string" = type { %"struct.std::__cxx11::basic_string<char, std::char_traits<char>, std::allocator<char> >::_Alloc_hider", i64, %union.anon }
%"struct.std::__cxx11::basic_string<char, std::char_traits<char>, std::allocator<char> >::_Alloc_hider" = type { i8* }
%union.anon = type { i64, [8 x i8] }
%"class.std::map" = type { %"class.std::_Rb_tree" }
%"class.std::_Rb_tree" = type { %"struct.std::_Rb_tree<std::__cxx11::basic_string<char>, std::pair<const std::__cxx11::basic_string<char>, std::__cxx11::basic_string<char> >, std::_Select1st<std::pair<const std::__cxx11::basic_string<char>, std::__cxx11::basic_string<char> > >, std::less<std::__cxx11::basic_string<char> >, std::allocator<std::pair<const std::__cxx11::basic_string<char>, std::__cxx11::basic_string<char> > > >::_Rb_tree_impl" }
%"struct.std::_Rb_tree<std::__cxx11::basic_string<char>, std::pair<const std::__cxx11::basic_string<char>, std::__cxx11::basic_string<char> >, std::_Select1st<std::pair<const std::__cxx11::basic_string<char>, std::__cxx11::basic_string<char> > >, std::less<std::__cxx11::basic_string<char> >, std::allocator<std::pair<const std::__cxx11::basic_string<char>, std::__cxx11::basic_string<char> > > >::_Rb_tree_impl" = type { %"struct.std::_Rb_tree_key_compare", %"struct.std::_Rb_tree_header" }
%"struct.std::_Rb_tree_key_compare" = type { %"struct.std::less" }
%"struct.std::less" = type { i8 }
%"struct.std::_Rb_tree_header" = type { %"struct.std::_Rb_tree_node_base", i64 }
%"struct.std::_Rb_tree_node_base" = type { i32, %"struct.std::_Rb_tree_node_base"*, %"struct.std::_Rb_tree_node_base"*, %"struct.std::_Rb_tree_node_base"* }
%"struct.std::_Rb_tree_const_iterator" = type { %"struct.std::_Rb_tree_node_base"* }
%"class.std::allocator" = type { i8 }
%"struct.std::pair" = type { %"class.std::__cxx11::basic_string", %"class.std::__cxx11::basic_string" }
%"struct.std::_Rb_tree_node" = type { %"struct.std::_Rb_tree_node_base", %"struct.__gnu_cxx::__aligned_membuf" }
%"struct.__gnu_cxx::__aligned_membuf" = type { [64 x i8] }
%"struct.std::_Rb_tree_iterator" = type { %"struct.std::_Rb_tree_node_base"* }
%"class.std::tuple" = type { %"struct.std::_Tuple_impl" }
%"struct.std::_Tuple_impl" = type { %"struct.std::_Head_base" }
%"struct.std::_Head_base" = type { %"class.std::__cxx11::basic_string"* }
%"class.std::tuple.8" = type { i8 }
%"class.std::vector" = type { %"struct.std::_Vector_base" }
%"struct.std::_Vector_base" = type { %"struct.std::_Vector_base<cXMLElement *, std::allocator<cXMLElement *> >::_Vector_impl" }
%"struct.std::_Vector_base<cXMLElement *, std::allocator<cXMLElement *> >::_Vector_impl" = type { %"struct.std::_Vector_base<cXMLElement *, std::allocator<cXMLElement *> >::_Vector_impl_data" }
%"struct.std::_Vector_base<cXMLElement *, std::allocator<cXMLElement *> >::_Vector_impl_data" = type { %class.cXMLElement**, %class.cXMLElement**, %class.cXMLElement** }
%"class.__gnu_cxx::__normal_iterator" = type { %class.cXMLElement** }
%"class.std::allocator.3" = type { i8 }
%"class.cXMLElement::ParamResolver" = type { i32 (...)** }
%class.MiniXPath = type { %class.cXMLElement*, %"class.cXMLElement::ParamResolver"* }
%class.cRuntimeError = type { %class.cException.base, [4 x i8] }
%class.cException.base = type <{ %"class.std::exception", i32, [4 x i8], %"class.std::__cxx11::basic_string", i8, [7 x i8], %"class.std::__cxx11::basic_string", %"class.std::__cxx11::basic_string", i32 }>
%"class.std::exception" = type { i32 (...)** }
%class.cException = type <{ %"class.std::exception", i32, [4 x i8], %"class.std::__cxx11::basic_string", i8, [7 x i8], %"class.std::__cxx11::basic_string", %"class.std::__cxx11::basic_string", i32, [4 x i8] }>
%"class.std::__cxx11::basic_stringstream" = type { %"class.std::basic_iostream.base", %"class.std::__cxx11::basic_stringbuf", %"class.std::basic_ios" }
%"class.std::basic_iostream.base" = type { %"class.std::basic_istream.base", %"class.std::basic_ostream.base" }
%"class.std::basic_istream.base" = type { i32 (...)**, i64 }
%"class.std::basic_ostream.base" = type { i32 (...)** }
%"class.std::__cxx11::basic_stringbuf" = type { %"class.std::basic_streambuf", i32, %"class.std::__cxx11::basic_string" }
%class.ModNameParamResolver = type { %"class.cXMLElement::ParamResolver", %class.cModule* }
%class.cModule = type { %class.cComponent, i8*, i32, %class.cModule*, %class.cModule*, %class.cModule*, %class.cModule*, i32, %"struct.cGate::Desc"*, i32, i32 }
%class.cComponent = type { %class.cDefaultList, %class.cComponentType*, i16, i32*, i16, i16, %class.cPar*, %class.cDisplayString* }
%class.cDefaultList = type { %class.cNoncopyableOwnedObject.base, %class.cOwnedObject**, i32, i32 }
%class.cNoncopyableOwnedObject.base = type { %class.cOwnedObject.base }
%class.cOwnedObject.base = type <{ %class.cNamedObject.base, [4 x i8], %class.cObject*, i32 }>
%class.cNamedObject.base = type <{ %class.cObject, i8*, i16, i16 }>
%class.cObject = type { i32 (...)** }
%class.cOwnedObject = type <{ %class.cNamedObject.base, [4 x i8], %class.cObject*, i32, [4 x i8] }>
%class.cComponentType = type opaque
%class.cPar = type { %class.cObject, %class.cComponent*, %class.cParImpl* }
%class.cParImpl = type opaque
%class.cDisplayString = type opaque
%"struct.cGate::Desc" = type { %class.cModule*, %"struct.cGate::Name"*, i32, %union.anon.6, %union.anon.7 }
%"struct.cGate::Name" = type <{ %class.opp_string, %class.opp_string, %class.opp_string, i32, [4 x i8] }>
%class.opp_string = type { i8* }
%union.anon.6 = type { %class.cGate* }
%class.cGate = type { %class.cObject, %"struct.cGate::Desc"*, i32, %class.cChannel*, %class.cGate*, %class.cGate* }
%class.cChannel = type opaque
%union.anon.7 = type { %class.cGate* }
%class.cNamedObject = type <{ %class.cObject, i8*, i16, i16, [4 x i8] }>
%class.StringMapParamResolver = type { %"class.cXMLElement::ParamResolver", %"class.std::map" }
%"class.std::allocator.0" = type { i8 }
%"class.__gnu_cxx::new_allocator.1" = type { i8 }
%"class.__gnu_cxx::new_allocator.4" = type { i8 }
%"struct.std::_Rb_tree<std::__cxx11::basic_string<char>, std::pair<const std::__cxx11::basic_string<char>, std::__cxx11::basic_string<char> >, std::_Select1st<std::pair<const std::__cxx11::basic_string<char>, std::__cxx11::basic_string<char> > >, std::less<std::__cxx11::basic_string<char> >, std::allocator<std::pair<const std::__cxx11::basic_string<char>, std::__cxx11::basic_string<char> > > >::_Alloc_node" = type { %"class.std::_Rb_tree"* }
%"class.std::__pair_base" = type { i8 }
%"struct.std::_Select1st" = type { i8 }
%"struct.std::pair.9" = type { %"struct.std::_Rb_tree_node_base"*, %"struct.std::_Rb_tree_node_base"* }
%"struct.std::_Index_tuple" = type { i8 }
%"struct.std::_Index_tuple.12" = type { i8 }
%"class.std::__pair_base.10" = type { i8 }
%"struct.std::integral_constant" = type { i8 }

$_ZNSt3mapINSt7__cxx1112basic_stringIcSt11char_traitsIcESaIcEEES5_St4lessIS5_ESaISt4pairIKS5_S5_EEEC2Ev = comdat any

$_ZNSt3mapINSt7__cxx1112basic_stringIcSt11char_traitsIcESaIcEEES5_St4lessIS5_ESaISt4pairIKS5_S5_EEED2Ev = comdat any

$__clang_call_terminate = comdat any

$_ZNKSt3mapINSt7__cxx1112basic_stringIcSt11char_traitsIcESaIcEEES5_St4lessIS5_ESaISt4pairIKS5_S5_EEE4findERS9_ = comdat any

$_ZSteqRKSt23_Rb_tree_const_iteratorISt4pairIKNSt7__cxx1112basic_stringIcSt11char_traitsIcESaIcEEES6_EESB_ = comdat any

$_ZNKSt3mapINSt7__cxx1112basic_stringIcSt11char_traitsIcESaIcEEES5_St4lessIS5_ESaISt4pairIKS5_S5_EEE3endEv = comdat any

$_ZNKSt23_Rb_tree_const_iteratorISt4pairIKNSt7__cxx1112basic_stringIcSt11char_traitsIcESaIcEEES6_EEptEv = comdat any

$_ZNSt3mapINSt7__cxx1112basic_stringIcSt11char_traitsIcESaIcEEES5_St4lessIS5_ESaISt4pairIKS5_S5_EEEixEOS5_ = comdat any

$_ZNKSt3mapINSt7__cxx1112basic_stringIcSt11char_traitsIcESaIcEEES5_St4lessIS5_ESaISt4pairIKS5_S5_EEE5emptyEv = comdat any

$_ZNSt6vectorIP11cXMLElementSaIS1_EEC2Ev = comdat any

$_ZNSt6vectorIP11cXMLElementSaIS1_EE9push_backERKS1_ = comdat any

$_ZNSt6vectorIP11cXMLElementSaIS1_EED2Ev = comdat any

$_ZNSt6vectorIP11cXMLElementSaIS1_EE9push_backEOS1_ = comdat any

$_ZN13cRuntimeErrorD2Ev = comdat any

$_ZNSt3mapINSt7__cxx1112basic_stringIcSt11char_traitsIcESaIcEEES5_St4lessIS5_ESaISt4pairIKS5_S5_EEEC2ERKSC_ = comdat any

$_ZNSt3mapINSt7__cxx1112basic_stringIcSt11char_traitsIcESaIcEEES5_St4lessIS5_ESaISt4pairIKS5_S5_EEE5beginEv = comdat any

$_ZStneRKSt17_Rb_tree_iteratorISt4pairIKNSt7__cxx1112basic_stringIcSt11char_traitsIcESaIcEEES6_EESB_ = comdat any

$_ZNSt3mapINSt7__cxx1112basic_stringIcSt11char_traitsIcESaIcEEES5_St4lessIS5_ESaISt4pairIKS5_S5_EEE3endEv = comdat any

$_ZNKSt17_Rb_tree_iteratorISt4pairIKNSt7__cxx1112basic_stringIcSt11char_traitsIcESaIcEEES6_EEptEv = comdat any

$_ZNSt17_Rb_tree_iteratorISt4pairIKNSt7__cxx1112basic_stringIcSt11char_traitsIcESaIcEEES6_EEppEi = comdat any

$_ZN11cSimulation14getActiveEnvirEv = comdat any

$_ZN6cEnvirlsERKNSt7__cxx1112basic_stringIcSt11char_traitsIcESaIcEEE = comdat any

$_ZNK7cModule8getIndexEv = comdat any

$_ZNK7cModule5getIdEv = comdat any

$_ZNSt3mapINSt7__cxx1112basic_stringIcSt11char_traitsIcESaIcEEES5_St4lessIS5_ESaISt4pairIKS5_S5_EEE4findERS9_ = comdat any

$_ZSteqRKSt17_Rb_tree_iteratorISt4pairIKNSt7__cxx1112basic_stringIcSt11char_traitsIcESaIcEEES6_EESB_ = comdat any

$_ZN20ModNameParamResolverD2Ev = comdat any

$_ZN20ModNameParamResolverD0Ev = comdat any

$_ZN22StringMapParamResolverD2Ev = comdat any

$_ZN22StringMapParamResolverD0Ev = comdat any

$_ZNSt8_Rb_treeINSt7__cxx1112basic_stringIcSt11char_traitsIcESaIcEEESt4pairIKS5_S5_ESt10_Select1stIS8_ESt4lessIS5_ESaIS8_EEC2Ev = comdat any

$_ZNSt8_Rb_treeINSt7__cxx1112basic_stringIcSt11char_traitsIcESaIcEEESt4pairIKS5_S5_ESt10_Select1stIS8_ESt4lessIS5_ESaIS8_EE13_Rb_tree_implISC_Lb1EEC2Ev = comdat any

$_ZNSaISt13_Rb_tree_nodeISt4pairIKNSt7__cxx1112basic_stringIcSt11char_traitsIcESaIcEEES6_EEEC2Ev = comdat any

$_ZNSt20_Rb_tree_key_compareISt4lessINSt7__cxx1112basic_stringIcSt11char_traitsIcESaIcEEEEEC2Ev = comdat any

$_ZNSt15_Rb_tree_headerC2Ev = comdat any

$_ZN9__gnu_cxx13new_allocatorISt13_Rb_tree_nodeISt4pairIKNSt7__cxx1112basic_stringIcSt11char_traitsIcESaIcEEES8_EEEC2Ev = comdat any

$_ZNSt15_Rb_tree_header8_M_resetEv = comdat any

$_ZNSt8_Rb_treeINSt7__cxx1112basic_stringIcSt11char_traitsIcESaIcEEESt4pairIKS5_S5_ESt10_Select1stIS8_ESt4lessIS5_ESaIS8_EED2Ev = comdat any

$_ZNSt8_Rb_treeINSt7__cxx1112basic_stringIcSt11char_traitsIcESaIcEEESt4pairIKS5_S5_ESt10_Select1stIS8_ESt4lessIS5_ESaIS8_EE8_M_eraseEPSt13_Rb_tree_nodeIS8_E = comdat any

$_ZNSt8_Rb_treeINSt7__cxx1112basic_stringIcSt11char_traitsIcESaIcEEESt4pairIKS5_S5_ESt10_Select1stIS8_ESt4lessIS5_ESaIS8_EE8_M_beginEv = comdat any

$_ZNSt8_Rb_treeINSt7__cxx1112basic_stringIcSt11char_traitsIcESaIcEEESt4pairIKS5_S5_ESt10_Select1stIS8_ESt4lessIS5_ESaIS8_EE13_Rb_tree_implISC_Lb1EED2Ev = comdat any

$_ZNSt8_Rb_treeINSt7__cxx1112basic_stringIcSt11char_traitsIcESaIcEEESt4pairIKS5_S5_ESt10_Select1stIS8_ESt4lessIS5_ESaIS8_EE8_S_rightEPSt18_Rb_tree_node_base = comdat any

$_ZNSt8_Rb_treeINSt7__cxx1112basic_stringIcSt11char_traitsIcESaIcEEESt4pairIKS5_S5_ESt10_Select1stIS8_ESt4lessIS5_ESaIS8_EE7_S_leftEPSt18_Rb_tree_node_base = comdat any

$_ZNSt8_Rb_treeINSt7__cxx1112basic_stringIcSt11char_traitsIcESaIcEEESt4pairIKS5_S5_ESt10_Select1stIS8_ESt4lessIS5_ESaIS8_EE12_M_drop_nodeEPSt13_Rb_tree_nodeIS8_E = comdat any

$_ZNSt8_Rb_treeINSt7__cxx1112basic_stringIcSt11char_traitsIcESaIcEEESt4pairIKS5_S5_ESt10_Select1stIS8_ESt4lessIS5_ESaIS8_EE15_M_destroy_nodeEPSt13_Rb_tree_nodeIS8_E = comdat any

$_ZNSt8_Rb_treeINSt7__cxx1112basic_stringIcSt11char_traitsIcESaIcEEESt4pairIKS5_S5_ESt10_Select1stIS8_ESt4lessIS5_ESaIS8_EE11_M_put_nodeEPSt13_Rb_tree_nodeIS8_E = comdat any

$_ZNSt16allocator_traitsISaISt13_Rb_tree_nodeISt4pairIKNSt7__cxx1112basic_stringIcSt11char_traitsIcESaIcEEES7_EEEE7destroyIS9_EEvRSB_PT_ = comdat any

$_ZNSt8_Rb_treeINSt7__cxx1112basic_stringIcSt11char_traitsIcESaIcEEESt4pairIKS5_S5_ESt10_Select1stIS8_ESt4lessIS5_ESaIS8_EE21_M_get_Node_allocatorEv = comdat any

$_ZNSt13_Rb_tree_nodeISt4pairIKNSt7__cxx1112basic_stringIcSt11char_traitsIcESaIcEEES6_EE9_M_valptrEv = comdat any

$_ZN9__gnu_cxx13new_allocatorISt13_Rb_tree_nodeISt4pairIKNSt7__cxx1112basic_stringIcSt11char_traitsIcESaIcEEES8_EEE7destroyISA_EEvPT_ = comdat any

$_ZNSt4pairIKNSt7__cxx1112basic_stringIcSt11char_traitsIcESaIcEEES5_ED2Ev = comdat any

$_ZN9__gnu_cxx16__aligned_membufISt4pairIKNSt7__cxx1112basic_stringIcSt11char_traitsIcESaIcEEES7_EE6_M_ptrEv = comdat any

$_ZN9__gnu_cxx16__aligned_membufISt4pairIKNSt7__cxx1112basic_stringIcSt11char_traitsIcESaIcEEES7_EE7_M_addrEv = comdat any

$_ZNSt16allocator_traitsISaISt13_Rb_tree_nodeISt4pairIKNSt7__cxx1112basic_stringIcSt11char_traitsIcESaIcEEES7_EEEE10deallocateERSB_PSA_m = comdat any

$_ZN9__gnu_cxx13new_allocatorISt13_Rb_tree_nodeISt4pairIKNSt7__cxx1112basic_stringIcSt11char_traitsIcESaIcEEES8_EEE10deallocateEPSB_m = comdat any

$_ZN9__gnu_cxx13new_allocatorISt13_Rb_tree_nodeISt4pairIKNSt7__cxx1112basic_stringIcSt11char_traitsIcESaIcEEES8_EEED2Ev = comdat any

$_ZNSt12_Vector_baseIP11cXMLElementSaIS1_EEC2Ev = comdat any

$_ZNSt12_Vector_baseIP11cXMLElementSaIS1_EE12_Vector_implC2Ev = comdat any

$_ZNSaIP11cXMLElementEC2Ev = comdat any

$_ZNSt12_Vector_baseIP11cXMLElementSaIS1_EE17_Vector_impl_dataC2Ev = comdat any

$_ZN9__gnu_cxx13new_allocatorIP11cXMLElementEC2Ev = comdat any

$_ZN10cExceptionD2Ev = comdat any

$_ZN10cExceptionD0Ev = comdat any

$_ZNK10cException4whatEv = comdat any

$_ZNK10cException3dupEv = comdat any

$_ZNK10cException12getErrorCodeEv = comdat any

$_ZN10cException10setMessageEPKc = comdat any

$_ZN10cException14prependMessageEPKc = comdat any

$_ZNK10cException10hasContextEv = comdat any

$_ZNK10cException19getContextClassNameEv = comdat any

$_ZNK10cException18getContextFullPathEv = comdat any

$_ZNK10cException11getModuleIDEv = comdat any

$_ZStplIcSt11char_traitsIcESaIcEENSt7__cxx1112basic_stringIT_T0_T1_EEOS8_RKS8_ = comdat any

$_ZStplIcSt11char_traitsIcESaIcEENSt7__cxx1112basic_stringIT_T0_T1_EEOS8_PKS5_ = comdat any

$_ZSt4moveIRNSt7__cxx1112basic_stringIcSt11char_traitsIcESaIcEEEEONSt16remove_referenceIT_E4typeEOS8_ = comdat any

$_ZNSt8_Rb_treeINSt7__cxx1112basic_stringIcSt11char_traitsIcESaIcEEESt4pairIKS5_S5_ESt10_Select1stIS8_ESt4lessIS5_ESaIS8_EEC2ERKSE_ = comdat any

$_ZNSt8_Rb_treeINSt7__cxx1112basic_stringIcSt11char_traitsIcESaIcEEESt4pairIKS5_S5_ESt10_Select1stIS8_ESt4lessIS5_ESaIS8_EE13_Rb_tree_implISC_Lb1EEC2ERKSG_ = comdat any

$_ZNKSt8_Rb_treeINSt7__cxx1112basic_stringIcSt11char_traitsIcESaIcEEESt4pairIKS5_S5_ESt10_Select1stIS8_ESt4lessIS5_ESaIS8_EE7_M_rootEv = comdat any

$_ZNSt8_Rb_treeINSt7__cxx1112basic_stringIcSt11char_traitsIcESaIcEEESt4pairIKS5_S5_ESt10_Select1stIS8_ESt4lessIS5_ESaIS8_EE7_M_copyERKSE_ = comdat any

$_ZNSt8_Rb_treeINSt7__cxx1112basic_stringIcSt11char_traitsIcESaIcEEESt4pairIKS5_S5_ESt10_Select1stIS8_ESt4lessIS5_ESaIS8_EE7_M_rootEv = comdat any

$_ZN9__gnu_cxx14__alloc_traitsISaISt13_Rb_tree_nodeISt4pairIKNSt7__cxx1112basic_stringIcSt11char_traitsIcESaIcEEES8_EEESB_E17_S_select_on_copyERKSC_ = comdat any

$_ZNSaISt13_Rb_tree_nodeISt4pairIKNSt7__cxx1112basic_stringIcSt11char_traitsIcESaIcEEES6_EEED2Ev = comdat any

$_ZNSt20_Rb_tree_key_compareISt4lessINSt7__cxx1112basic_stringIcSt11char_traitsIcESaIcEEEEEC2ERKS7_ = comdat any

$_ZNSt16allocator_traitsISaISt13_Rb_tree_nodeISt4pairIKNSt7__cxx1112basic_stringIcSt11char_traitsIcESaIcEEES7_EEEE37select_on_container_copy_constructionERKSB_ = comdat any

$_ZNSaISt13_Rb_tree_nodeISt4pairIKNSt7__cxx1112basic_stringIcSt11char_traitsIcESaIcEEES6_EEEC2ERKSA_ = comdat any

$_ZN9__gnu_cxx13new_allocatorISt13_Rb_tree_nodeISt4pairIKNSt7__cxx1112basic_stringIcSt11char_traitsIcESaIcEEES8_EEEC2ERKSC_ = comdat any

$_ZNSt8_Rb_treeINSt7__cxx1112basic_stringIcSt11char_traitsIcESaIcEEESt4pairIKS5_S5_ESt10_Select1stIS8_ESt4lessIS5_ESaIS8_EE11_Alloc_nodeC2ERSE_ = comdat any

$_ZNSt8_Rb_treeINSt7__cxx1112basic_stringIcSt11char_traitsIcESaIcEEESt4pairIKS5_S5_ESt10_Select1stIS8_ESt4lessIS5_ESaIS8_EE7_M_copyINSE_11_Alloc_nodeEEEPSt13_Rb_tree_nodeIS8_ERKSE_RT_ = comdat any

$_ZNSt8_Rb_treeINSt7__cxx1112basic_stringIcSt11char_traitsIcESaIcEEESt4pairIKS5_S5_ESt10_Select1stIS8_ESt4lessIS5_ESaIS8_EE7_M_copyINSE_11_Alloc_nodeEEEPSt13_Rb_tree_nodeIS8_EPKSI_PSt18_Rb_tree_node_baseRT_ = comdat any

$_ZNKSt8_Rb_treeINSt7__cxx1112basic_stringIcSt11char_traitsIcESaIcEEESt4pairIKS5_S5_ESt10_Select1stIS8_ESt4lessIS5_ESaIS8_EE8_M_beginEv = comdat any

$_ZNSt8_Rb_treeINSt7__cxx1112basic_stringIcSt11char_traitsIcESaIcEEESt4pairIKS5_S5_ESt10_Select1stIS8_ESt4lessIS5_ESaIS8_EE6_M_endEv = comdat any

$_ZNSt8_Rb_treeINSt7__cxx1112basic_stringIcSt11char_traitsIcESaIcEEESt4pairIKS5_S5_ESt10_Select1stIS8_ESt4lessIS5_ESaIS8_EE10_S_minimumEPSt18_Rb_tree_node_base = comdat any

$_ZNSt8_Rb_treeINSt7__cxx1112basic_stringIcSt11char_traitsIcESaIcEEESt4pairIKS5_S5_ESt10_Select1stIS8_ESt4lessIS5_ESaIS8_EE11_M_leftmostEv = comdat any

$_ZNSt8_Rb_treeINSt7__cxx1112basic_stringIcSt11char_traitsIcESaIcEEESt4pairIKS5_S5_ESt10_Select1stIS8_ESt4lessIS5_ESaIS8_EE10_S_maximumEPSt18_Rb_tree_node_base = comdat any

$_ZNSt8_Rb_treeINSt7__cxx1112basic_stringIcSt11char_traitsIcESaIcEEESt4pairIKS5_S5_ESt10_Select1stIS8_ESt4lessIS5_ESaIS8_EE12_M_rightmostEv = comdat any

$_ZNSt8_Rb_treeINSt7__cxx1112basic_stringIcSt11char_traitsIcESaIcEEESt4pairIKS5_S5_ESt10_Select1stIS8_ESt4lessIS5_ESaIS8_EE13_M_clone_nodeINSE_11_Alloc_nodeEEEPSt13_Rb_tree_nodeIS8_EPKSI_RT_ = comdat any

$_ZNSt8_Rb_treeINSt7__cxx1112basic_stringIcSt11char_traitsIcESaIcEEESt4pairIKS5_S5_ESt10_Select1stIS8_ESt4lessIS5_ESaIS8_EE8_S_rightEPKSt18_Rb_tree_node_base = comdat any

$_ZNSt8_Rb_treeINSt7__cxx1112basic_stringIcSt11char_traitsIcESaIcEEESt4pairIKS5_S5_ESt10_Select1stIS8_ESt4lessIS5_ESaIS8_EE7_S_leftEPKSt18_Rb_tree_node_base = comdat any

$_ZNKSt8_Rb_treeINSt7__cxx1112basic_stringIcSt11char_traitsIcESaIcEEESt4pairIKS5_S5_ESt10_Select1stIS8_ESt4lessIS5_ESaIS8_EE11_Alloc_nodeclIRKS8_EEPSt13_Rb_tree_nodeIS8_EOT_ = comdat any

$_ZNKSt13_Rb_tree_nodeISt4pairIKNSt7__cxx1112basic_stringIcSt11char_traitsIcESaIcEEES6_EE9_M_valptrEv = comdat any

$_ZNSt8_Rb_treeINSt7__cxx1112basic_stringIcSt11char_traitsIcESaIcEEESt4pairIKS5_S5_ESt10_Select1stIS8_ESt4lessIS5_ESaIS8_EE14_M_create_nodeIJRKS8_EEEPSt13_Rb_tree_nodeIS8_EDpOT_ = comdat any

$_ZSt7forwardIRKSt4pairIKNSt7__cxx1112basic_stringIcSt11char_traitsIcESaIcEEES6_EEOT_RNSt16remove_referenceISB_E4typeE = comdat any

$_ZNSt8_Rb_treeINSt7__cxx1112basic_stringIcSt11char_traitsIcESaIcEEESt4pairIKS5_S5_ESt10_Select1stIS8_ESt4lessIS5_ESaIS8_EE11_M_get_nodeEv = comdat any

$_ZNSt8_Rb_treeINSt7__cxx1112basic_stringIcSt11char_traitsIcESaIcEEESt4pairIKS5_S5_ESt10_Select1stIS8_ESt4lessIS5_ESaIS8_EE17_M_construct_nodeIJRKS8_EEEvPSt13_Rb_tree_nodeIS8_EDpOT_ = comdat any

$_ZNSt16allocator_traitsISaISt13_Rb_tree_nodeISt4pairIKNSt7__cxx1112basic_stringIcSt11char_traitsIcESaIcEEES7_EEEE8allocateERSB_m = comdat any

$_ZN9__gnu_cxx13new_allocatorISt13_Rb_tree_nodeISt4pairIKNSt7__cxx1112basic_stringIcSt11char_traitsIcESaIcEEES8_EEE8allocateEmPKv = comdat any

$_ZNK9__gnu_cxx13new_allocatorISt13_Rb_tree_nodeISt4pairIKNSt7__cxx1112basic_stringIcSt11char_traitsIcESaIcEEES8_EEE11_M_max_sizeEv = comdat any

$_ZNSt16allocator_traitsISaISt13_Rb_tree_nodeISt4pairIKNSt7__cxx1112basic_stringIcSt11char_traitsIcESaIcEEES7_EEEE9constructIS9_JRKS9_EEEvRSB_PT_DpOT0_ = comdat any

$_ZN9__gnu_cxx13new_allocatorISt13_Rb_tree_nodeISt4pairIKNSt7__cxx1112basic_stringIcSt11char_traitsIcESaIcEEES8_EEE9constructISA_JRKSA_EEEvPT_DpOT0_ = comdat any

$_ZNSt4pairIKNSt7__cxx1112basic_stringIcSt11char_traitsIcESaIcEEES5_EC2ERKS7_ = comdat any

$_ZNK9__gnu_cxx16__aligned_membufISt4pairIKNSt7__cxx1112basic_stringIcSt11char_traitsIcESaIcEEES7_EE6_M_ptrEv = comdat any

$_ZNK9__gnu_cxx16__aligned_membufISt4pairIKNSt7__cxx1112basic_stringIcSt11char_traitsIcESaIcEEES7_EE7_M_addrEv = comdat any

$_ZNSt18_Rb_tree_node_base10_S_minimumEPS_ = comdat any

$_ZNSt18_Rb_tree_node_base10_S_maximumEPS_ = comdat any

$_ZN11cXMLElement13ParamResolverD2Ev = comdat any

$_ZNKSt8_Rb_treeINSt7__cxx1112basic_stringIcSt11char_traitsIcESaIcEEESt4pairIKS5_S5_ESt10_Select1stIS8_ESt4lessIS5_ESaIS8_EE4findERS7_ = comdat any

$_ZNKSt8_Rb_treeINSt7__cxx1112basic_stringIcSt11char_traitsIcESaIcEEESt4pairIKS5_S5_ESt10_Select1stIS8_ESt4lessIS5_ESaIS8_EE14_M_lower_boundEPKSt13_Rb_tree_nodeIS8_EPKSt18_Rb_tree_node_baseRS7_ = comdat any

$_ZNKSt8_Rb_treeINSt7__cxx1112basic_stringIcSt11char_traitsIcESaIcEEESt4pairIKS5_S5_ESt10_Select1stIS8_ESt4lessIS5_ESaIS8_EE6_M_endEv = comdat any

$_ZNKSt8_Rb_treeINSt7__cxx1112basic_stringIcSt11char_traitsIcESaIcEEESt4pairIKS5_S5_ESt10_Select1stIS8_ESt4lessIS5_ESaIS8_EE3endEv = comdat any

$_ZNKSt4lessINSt7__cxx1112basic_stringIcSt11char_traitsIcESaIcEEEEclERKS5_S8_ = comdat any

$_ZNSt8_Rb_treeINSt7__cxx1112basic_stringIcSt11char_traitsIcESaIcEEESt4pairIKS5_S5_ESt10_Select1stIS8_ESt4lessIS5_ESaIS8_EE6_S_keyEPKSt18_Rb_tree_node_base = comdat any

$_ZNSt8_Rb_treeINSt7__cxx1112basic_stringIcSt11char_traitsIcESaIcEEESt4pairIKS5_S5_ESt10_Select1stIS8_ESt4lessIS5_ESaIS8_EE6_S_keyEPKSt13_Rb_tree_nodeIS8_E = comdat any

$_ZNSt23_Rb_tree_const_iteratorISt4pairIKNSt7__cxx1112basic_stringIcSt11char_traitsIcESaIcEEES6_EEC2EPKSt18_Rb_tree_node_base = comdat any

$_ZNKSt10_Select1stISt4pairIKNSt7__cxx1112basic_stringIcSt11char_traitsIcESaIcEEES6_EEclERKS8_ = comdat any

$_ZStltIcSt11char_traitsIcESaIcEEbRKNSt7__cxx1112basic_stringIT_T0_T1_EESA_ = comdat any

$_ZNSt3mapINSt7__cxx1112basic_stringIcSt11char_traitsIcESaIcEEES5_St4lessIS5_ESaISt4pairIKS5_S5_EEE11lower_boundERS9_ = comdat any

$_ZNKSt3mapINSt7__cxx1112basic_stringIcSt11char_traitsIcESaIcEEES5_St4lessIS5_ESaISt4pairIKS5_S5_EEE8key_compEv = comdat any

$_ZNKSt17_Rb_tree_iteratorISt4pairIKNSt7__cxx1112basic_stringIcSt11char_traitsIcESaIcEEES6_EEdeEv = comdat any

$_ZNSt8_Rb_treeINSt7__cxx1112basic_stringIcSt11char_traitsIcESaIcEEESt4pairIKS5_S5_ESt10_Select1stIS8_ESt4lessIS5_ESaIS8_EE22_M_emplace_hint_uniqueIJRKSt21piecewise_construct_tSt5tupleIJOS5_EESJ_IJEEEEESt17_Rb_tree_iteratorIS8_ESt23_Rb_tree_const_iteratorIS8_EDpOT_ = comdat any

$_ZNSt23_Rb_tree_const_iteratorISt4pairIKNSt7__cxx1112basic_stringIcSt11char_traitsIcESaIcEEES6_EEC2ERKSt17_Rb_tree_iteratorIS8_E = comdat any

$_ZSt16forward_as_tupleIJNSt7__cxx1112basic_stringIcSt11char_traitsIcESaIcEEEEESt5tupleIJDpOT_EES9_ = comdat any

$_ZNSt8_Rb_treeINSt7__cxx1112basic_stringIcSt11char_traitsIcESaIcEEESt4pairIKS5_S5_ESt10_Select1stIS8_ESt4lessIS5_ESaIS8_EE11lower_boundERS7_ = comdat any

$_ZNSt8_Rb_treeINSt7__cxx1112basic_stringIcSt11char_traitsIcESaIcEEESt4pairIKS5_S5_ESt10_Select1stIS8_ESt4lessIS5_ESaIS8_EE14_M_lower_boundEPSt13_Rb_tree_nodeIS8_EPSt18_Rb_tree_node_baseRS7_ = comdat any

$_ZNSt17_Rb_tree_iteratorISt4pairIKNSt7__cxx1112basic_stringIcSt11char_traitsIcESaIcEEES6_EEC2EPSt18_Rb_tree_node_base = comdat any

$_ZNKSt8_Rb_treeINSt7__cxx1112basic_stringIcSt11char_traitsIcESaIcEEESt4pairIKS5_S5_ESt10_Select1stIS8_ESt4lessIS5_ESaIS8_EE8key_compEv = comdat any

$_ZNSt8_Rb_treeINSt7__cxx1112basic_stringIcSt11char_traitsIcESaIcEEESt4pairIKS5_S5_ESt10_Select1stIS8_ESt4lessIS5_ESaIS8_EE14_M_create_nodeIJRKSt21piecewise_construct_tSt5tupleIJOS5_EESJ_IJEEEEEPSt13_Rb_tree_nodeIS8_EDpOT_ = comdat any

$_ZSt7forwardIRKSt21piecewise_construct_tEOT_RNSt16remove_referenceIS3_E4typeE = comdat any

$_ZSt7forwardISt5tupleIJONSt7__cxx1112basic_stringIcSt11char_traitsIcESaIcEEEEEEOT_RNSt16remove_referenceIS9_E4typeE = comdat any

$_ZSt7forwardISt5tupleIJEEEOT_RNSt16remove_referenceIS2_E4typeE = comdat any

$_ZNSt8_Rb_treeINSt7__cxx1112basic_stringIcSt11char_traitsIcESaIcEEESt4pairIKS5_S5_ESt10_Select1stIS8_ESt4lessIS5_ESaIS8_EE29_M_get_insert_hint_unique_posESt23_Rb_tree_const_iteratorIS8_ERS7_ = comdat any

$_ZNSt8_Rb_treeINSt7__cxx1112basic_stringIcSt11char_traitsIcESaIcEEESt4pairIKS5_S5_ESt10_Select1stIS8_ESt4lessIS5_ESaIS8_EE14_M_insert_nodeEPSt18_Rb_tree_node_baseSG_PSt13_Rb_tree_nodeIS8_E = comdat any

$_ZNSt8_Rb_treeINSt7__cxx1112basic_stringIcSt11char_traitsIcESaIcEEESt4pairIKS5_S5_ESt10_Select1stIS8_ESt4lessIS5_ESaIS8_EE17_M_construct_nodeIJRKSt21piecewise_construct_tSt5tupleIJOS5_EESJ_IJEEEEEvPSt13_Rb_tree_nodeIS8_EDpOT_ = comdat any

$_ZNSt16allocator_traitsISaISt13_Rb_tree_nodeISt4pairIKNSt7__cxx1112basic_stringIcSt11char_traitsIcESaIcEEES7_EEEE9constructIS9_JRKSt21piecewise_construct_tSt5tupleIJOS7_EESH_IJEEEEEvRSB_PT_DpOT0_ = comdat any

$_ZN9__gnu_cxx13new_allocatorISt13_Rb_tree_nodeISt4pairIKNSt7__cxx1112basic_stringIcSt11char_traitsIcESaIcEEES8_EEE9constructISA_JRKSt21piecewise_construct_tSt5tupleIJOS8_EESH_IJEEEEEvPT_DpOT0_ = comdat any

$_ZNSt5tupleIJONSt7__cxx1112basic_stringIcSt11char_traitsIcESaIcEEEEEC2EOS7_ = comdat any

$_ZNSt4pairIKNSt7__cxx1112basic_stringIcSt11char_traitsIcESaIcEEES5_EC2IJOS5_EJEEESt21piecewise_construct_tSt5tupleIJDpT_EESB_IJDpT0_EE = comdat any

$_ZNSt11_Tuple_implILm0EJONSt7__cxx1112basic_stringIcSt11char_traitsIcESaIcEEEEEC2EOS7_ = comdat any

$_ZSt7forwardIONSt7__cxx1112basic_stringIcSt11char_traitsIcESaIcEEEEOT_RNSt16remove_referenceIS7_E4typeE = comdat any

$_ZNSt11_Tuple_implILm0EJONSt7__cxx1112basic_stringIcSt11char_traitsIcESaIcEEEEE7_M_headERS7_ = comdat any

$_ZNSt10_Head_baseILm0EONSt7__cxx1112basic_stringIcSt11char_traitsIcESaIcEEELb0EEC2IS5_EEOT_ = comdat any

$_ZNSt10_Head_baseILm0EONSt7__cxx1112basic_stringIcSt11char_traitsIcESaIcEEELb0EE7_M_headERS7_ = comdat any

$_ZSt7forwardINSt7__cxx1112basic_stringIcSt11char_traitsIcESaIcEEEEOT_RNSt16remove_referenceIS6_E4typeE = comdat any

$_ZNSt4pairIKNSt7__cxx1112basic_stringIcSt11char_traitsIcESaIcEEES5_EC2IJOS5_EJLm0EEJEJEEERSt5tupleIJDpT_EERSA_IJDpT1_EESt12_Index_tupleIJXspT0_EEESJ_IJXspT2_EEE = comdat any

$_ZSt3getILm0EJONSt7__cxx1112basic_stringIcSt11char_traitsIcESaIcEEEEERNSt13tuple_elementIXT_ESt5tupleIJDpT0_EEE4typeERSB_ = comdat any

$_ZSt12__get_helperILm0EONSt7__cxx1112basic_stringIcSt11char_traitsIcESaIcEEEJEERT0_RSt11_Tuple_implIXT_EJS7_DpT1_EE = comdat any

$_ZNKSt23_Rb_tree_const_iteratorISt4pairIKNSt7__cxx1112basic_stringIcSt11char_traitsIcESaIcEEES6_EE13_M_const_castEv = comdat any

$_ZNKSt8_Rb_treeINSt7__cxx1112basic_stringIcSt11char_traitsIcESaIcEEESt4pairIKS5_S5_ESt10_Select1stIS8_ESt4lessIS5_ESaIS8_EE4sizeEv = comdat any

$_ZNSt4pairIPSt18_Rb_tree_node_baseS1_EC2IRS1_Lb1EEERKS1_OT_ = comdat any

$_ZNSt8_Rb_treeINSt7__cxx1112basic_stringIcSt11char_traitsIcESaIcEEESt4pairIKS5_S5_ESt10_Select1stIS8_ESt4lessIS5_ESaIS8_EE24_M_get_insert_unique_posERS7_ = comdat any

$_ZNSt4pairIPSt18_Rb_tree_node_baseS1_EC2IRS1_S4_Lb1EEEOT_OT0_ = comdat any

$_ZNSt17_Rb_tree_iteratorISt4pairIKNSt7__cxx1112basic_stringIcSt11char_traitsIcESaIcEEES6_EEmmEv = comdat any

$_ZNSt17_Rb_tree_iteratorISt4pairIKNSt7__cxx1112basic_stringIcSt11char_traitsIcESaIcEEES6_EEppEv = comdat any

$_ZNSt4pairIPSt18_Rb_tree_node_baseS1_EC2IRS1_Lb1EEEOT_RKS1_ = comdat any

$_ZSt7forwardIRPSt18_Rb_tree_node_baseEOT_RNSt16remove_referenceIS3_E4typeE = comdat any

$_ZNSt8_Rb_treeINSt7__cxx1112basic_stringIcSt11char_traitsIcESaIcEEESt4pairIKS5_S5_ESt10_Select1stIS8_ESt4lessIS5_ESaIS8_EE5beginEv = comdat any

$_ZNSt4pairIPSt18_Rb_tree_node_baseS1_EC2IRPSt13_Rb_tree_nodeIS_IKNSt7__cxx1112basic_stringIcSt11char_traitsIcESaIcEEESA_EERS1_Lb1EEEOT_OT0_ = comdat any

$_ZSt7forwardIRPSt13_Rb_tree_nodeISt4pairIKNSt7__cxx1112basic_stringIcSt11char_traitsIcESaIcEEES7_EEEOT_RNSt16remove_referenceISD_E4typeE = comdat any

$_ZNSt5tupleIJONSt7__cxx1112basic_stringIcSt11char_traitsIcESaIcEEEEEC2IJS5_ELb1ELb1EEEDpOT_ = comdat any

$_ZNSt11_Tuple_implILm0EJONSt7__cxx1112basic_stringIcSt11char_traitsIcESaIcEEEEEC2IS5_EEOT_ = comdat any

$_ZNKSt8_Rb_treeINSt7__cxx1112basic_stringIcSt11char_traitsIcESaIcEEESt4pairIKS5_S5_ESt10_Select1stIS8_ESt4lessIS5_ESaIS8_EE5emptyEv = comdat any

$_ZSt8_DestroyIPP11cXMLElementS1_EvT_S3_RSaIT0_E = comdat any

$_ZNSt12_Vector_baseIP11cXMLElementSaIS1_EE19_M_get_Tp_allocatorEv = comdat any

$_ZNSt12_Vector_baseIP11cXMLElementSaIS1_EED2Ev = comdat any

$_ZSt8_DestroyIPP11cXMLElementEvT_S3_ = comdat any

$_ZNSt12_Destroy_auxILb1EE9__destroyIPP11cXMLElementEEvT_S5_ = comdat any

$_ZNSt12_Vector_baseIP11cXMLElementSaIS1_EE13_M_deallocateEPS1_m = comdat any

$_ZNSt12_Vector_baseIP11cXMLElementSaIS1_EE12_Vector_implD2Ev = comdat any

$_ZNSt16allocator_traitsISaIP11cXMLElementEE10deallocateERS2_PS1_m = comdat any

$_ZN9__gnu_cxx13new_allocatorIP11cXMLElementE10deallocateEPS2_m = comdat any

$_ZNSaIP11cXMLElementED2Ev = comdat any

$_ZN9__gnu_cxx13new_allocatorIP11cXMLElementED2Ev = comdat any

$_ZNSt16allocator_traitsISaIP11cXMLElementEE9constructIS1_JRKS1_EEEvRS2_PT_DpOT0_ = comdat any

$_ZNSt6vectorIP11cXMLElementSaIS1_EE17_M_realloc_insertIJRKS1_EEEvN9__gnu_cxx17__normal_iteratorIPS1_S3_EEDpOT_ = comdat any

$_ZNSt6vectorIP11cXMLElementSaIS1_EE3endEv = comdat any

$_ZN9__gnu_cxx13new_allocatorIP11cXMLElementE9constructIS2_JRKS2_EEEvPT_DpOT0_ = comdat any

$_ZSt7forwardIRKP11cXMLElementEOT_RNSt16remove_referenceIS4_E4typeE = comdat any

$_ZNKSt6vectorIP11cXMLElementSaIS1_EE12_M_check_lenEmPKc = comdat any

$_ZN9__gnu_cxxmiIPP11cXMLElementSt6vectorIS2_SaIS2_EEEENS_17__normal_iteratorIT_T0_E15difference_typeERKSA_SD_ = comdat any

$_ZNSt6vectorIP11cXMLElementSaIS1_EE5beginEv = comdat any

$_ZNSt12_Vector_baseIP11cXMLElementSaIS1_EE11_M_allocateEm = comdat any

$_ZNSt6vectorIP11cXMLElementSaIS1_EE11_S_relocateEPS1_S4_S4_RS2_ = comdat any

$_ZNK9__gnu_cxx17__normal_iteratorIPP11cXMLElementSt6vectorIS2_SaIS2_EEE4baseEv = comdat any

$_ZNKSt6vectorIP11cXMLElementSaIS1_EE8max_sizeEv = comdat any

$_ZNKSt6vectorIP11cXMLElementSaIS1_EE4sizeEv = comdat any

$_ZSt3maxImERKT_S2_S2_ = comdat any

$_ZNSt6vectorIP11cXMLElementSaIS1_EE11_S_max_sizeERKS2_ = comdat any

$_ZNKSt12_Vector_baseIP11cXMLElementSaIS1_EE19_M_get_Tp_allocatorEv = comdat any

$_ZNSt16allocator_traitsISaIP11cXMLElementEE8max_sizeERKS2_ = comdat any

$_ZSt3minImERKT_S2_S2_ = comdat any

$_ZNK9__gnu_cxx13new_allocatorIP11cXMLElementE8max_sizeEv = comdat any

$_ZNK9__gnu_cxx13new_allocatorIP11cXMLElementE11_M_max_sizeEv = comdat any

$_ZN9__gnu_cxx17__normal_iteratorIPP11cXMLElementSt6vectorIS2_SaIS2_EEEC2ERKS3_ = comdat any

$_ZNSt16allocator_traitsISaIP11cXMLElementEE8allocateERS2_m = comdat any

$_ZN9__gnu_cxx13new_allocatorIP11cXMLElementE8allocateEmPKv = comdat any

$_ZNSt6vectorIP11cXMLElementSaIS1_EE14_S_do_relocateEPS1_S4_S4_RS2_St17integral_constantIbLb1EE = comdat any

$_ZSt12__relocate_aIPP11cXMLElementS2_SaIS1_EET0_T_S5_S4_RT1_ = comdat any

$_ZSt14__relocate_a_1IP11cXMLElementS1_ENSt9enable_ifIXsr3std24__is_bitwise_relocatableIT_EE5valueEPS3_E4typeES4_S4_S4_RSaIT0_E = comdat any

$_ZSt12__niter_baseIPP11cXMLElementET_S3_ = comdat any

$_ZNSt6vectorIP11cXMLElementSaIS1_EE12emplace_backIJS1_EEEvDpOT_ = comdat any

$_ZSt4moveIRP11cXMLElementEONSt16remove_referenceIT_E4typeEOS4_ = comdat any

$_ZNSt16allocator_traitsISaIP11cXMLElementEE9constructIS1_JS1_EEEvRS2_PT_DpOT0_ = comdat any

$_ZSt7forwardIP11cXMLElementEOT_RNSt16remove_referenceIS2_E4typeE = comdat any

$_ZNSt6vectorIP11cXMLElementSaIS1_EE17_M_realloc_insertIJS1_EEEvN9__gnu_cxx17__normal_iteratorIPS1_S3_EEDpOT_ = comdat any

$_ZN9__gnu_cxx13new_allocatorIP11cXMLElementE9constructIS2_JS2_EEEvPT_DpOT0_ = comdat any

$_ZNSt8_Rb_treeINSt7__cxx1112basic_stringIcSt11char_traitsIcESaIcEEESt4pairIKS5_S5_ESt10_Select1stIS8_ESt4lessIS5_ESaIS8_EE3endEv = comdat any

$_ZNSt8_Rb_treeINSt7__cxx1112basic_stringIcSt11char_traitsIcESaIcEEESt4pairIKS5_S5_ESt10_Select1stIS8_ESt4lessIS5_ESaIS8_EE4findERS7_ = comdat any

$_ZTS13cRuntimeError = comdat any

$_ZTS10cException = comdat any

$_ZTI10cException = comdat any

$_ZTI13cRuntimeError = comdat any

$_ZTSN11cXMLElement13ParamResolverE = comdat any

$_ZTIN11cXMLElement13ParamResolverE = comdat any

$_ZTV10cException = comdat any

@_ZStL8__ioinit = internal global %"class.std::ios_base::Init" zeroinitializer, align 1, !dbg !0
@__dso_handle = external hidden global i8
@_ZTV11cXMLElement = dso_local unnamed_addr constant { [28 x i8*] } { [28 x i8*] [i8* null, i8* bitcast ({ i8*, i8* }* @_ZTI11cXMLElement to i8*), i8* bitcast (void (%class.cXMLElement*, i8*, i32)* @_ZN11cXMLElement12setNodeValueEPKci to i8*), i8* bitcast (void (%class.cXMLElement*, i8*, i32)* @_ZN11cXMLElement15appendNodeValueEPKci to i8*), i8* bitcast (void (%class.cXMLElement*)* @_ZN11cXMLElementD1Ev to i8*), i8* bitcast (void (%class.cXMLElement*)* @_ZN11cXMLElementD0Ev to i8*), i8* bitcast (void (%class.cXMLElement*, i8*, i8*)* @_ZN11cXMLElement12setAttributeEPKcS1_ to i8*), i8* bitcast (void (%class.cXMLElement*, %class.cXMLElement*)* @_ZN11cXMLElement11appendChildEPS_ to i8*), i8* bitcast (void (%class.cXMLElement*, %class.cXMLElement*, %class.cXMLElement*)* @_ZN11cXMLElement17insertChildBeforeEPS_S0_ to i8*), i8* bitcast (%class.cXMLElement* (%class.cXMLElement*, %class.cXMLElement*)* @_ZN11cXMLElement11removeChildEPS_ to i8*), i8* bitcast (i8* (%class.cXMLElement*)* @_ZNK11cXMLElement10getTagNameEv to i8*), i8* bitcast (i8* (%class.cXMLElement*)* @_ZNK11cXMLElement17getSourceLocationEv to i8*), i8* bitcast (i8* (%class.cXMLElement*)* @_ZNK11cXMLElement12getNodeValueEv to i8*), i8* bitcast (i8* (%class.cXMLElement*, i8*)* @_ZNK11cXMLElement12getAttributeEPKc to i8*), i8* bitcast (i1 (%class.cXMLElement*)* @_ZNK11cXMLElement13hasAttributesEv to i8*), i8* bitcast (%"class.std::map"* (%class.cXMLElement*)* @_ZNK11cXMLElement13getAttributesB5cxx11Ev to i8*), i8* bitcast (%class.cXMLElement* (%class.cXMLElement*)* @_ZNK11cXMLElement13getParentNodeEv to i8*), i8* bitcast (i1 (%class.cXMLElement*)* @_ZNK11cXMLElement11hasChildrenEv to i8*), i8* bitcast (%class.cXMLElement* (%class.cXMLElement*)* @_ZNK11cXMLElement13getFirstChildEv to i8*), i8* bitcast (%class.cXMLElement* (%class.cXMLElement*)* @_ZNK11cXMLElement12getLastChildEv to i8*), i8* bitcast (%class.cXMLElement* (%class.cXMLElement*)* @_ZNK11cXMLElement14getNextSiblingEv to i8*), i8* bitcast (%class.cXMLElement* (%class.cXMLElement*)* @_ZNK11cXMLElement18getPreviousSiblingEv to i8*), i8* bitcast (%class.cXMLElement* (%class.cXMLElement*, i8*)* @_ZNK11cXMLElement20getFirstChildWithTagEPKc to i8*), i8* bitcast (%class.cXMLElement* (%class.cXMLElement*, i8*)* @_ZNK11cXMLElement21getNextSiblingWithTagEPKc to i8*), i8* bitcast (void (%"class.std::vector"*, %class.cXMLElement*)* @_ZNK11cXMLElement11getChildrenEv to i8*), i8* bitcast (void (%"class.std::vector"*, %class.cXMLElement*, i8*)* @_ZNK11cXMLElement20getChildrenByTagNameEPKc to i8*), i8* bitcast (void (%"class.std::vector"*, %class.cXMLElement*, i8*)* @_ZNK11cXMLElement20getElementsByTagNameEPKc to i8*), i8* bitcast (void (%"class.std::__cxx11::basic_string"*, %class.cXMLElement*)* @_ZNK11cXMLElement12detailedInfoB5cxx11Ev to i8*)] }, align 8
@.str = private unnamed_addr constant [3 x i8] c"id\00", align 1
@.str.1 = private unnamed_addr constant [154 x i8] c"cXMLElement::getElementByPath(): absolute path expression (that begins with  '/') can only be used if root node is also specified (path expression: `%s')\00", align 1
@_ZTVN10__cxxabiv120__si_class_type_infoE = external dso_local global i8*
@_ZTS13cRuntimeError = linkonce_odr dso_local constant [16 x i8] c"13cRuntimeError\00", comdat, align 1
@_ZTS10cException = linkonce_odr dso_local constant [13 x i8] c"10cException\00", comdat, align 1
@_ZTISt9exception = external dso_local constant i8*
@_ZTI10cException = linkonce_odr dso_local constant { i8*, i8*, i8* } { i8* bitcast (i8** getelementptr inbounds (i8*, i8** @_ZTVN10__cxxabiv120__si_class_type_infoE, i64 2) to i8*), i8* getelementptr inbounds ([13 x i8], [13 x i8]* @_ZTS10cException, i32 0, i32 0), i8* bitcast (i8** @_ZTISt9exception to i8*) }, comdat, align 8
@_ZTI13cRuntimeError = linkonce_odr dso_local constant { i8*, i8*, i8* } { i8* bitcast (i8** getelementptr inbounds (i8*, i8** @_ZTVN10__cxxabiv120__si_class_type_infoE, i64 2) to i8*), i8* getelementptr inbounds ([16 x i8], [16 x i8]* @_ZTS13cRuntimeError, i32 0, i32 0), i8* bitcast ({ i8*, i8*, i8* }* @_ZTI10cException to i8*) }, comdat, align 8
@.str.2 = private unnamed_addr constant [115 x i8] c"cXMLElement::getElementByPath(): root element must have a parent node, the \22document node\22 (path expression: `%s')\00", align 1
@.str.3 = private unnamed_addr constant [3 x i8] c"  \00", align 1
@.str.4 = private unnamed_addr constant [2 x i8] c"<\00", align 1
@.str.5 = private unnamed_addr constant [2 x i8] c" \00", align 1
@.str.6 = private unnamed_addr constant [3 x i8] c"=\22\00", align 1
@.str.7 = private unnamed_addr constant [2 x i8] c"\22\00", align 1
@.str.8 = private unnamed_addr constant [4 x i8] c"/>\0A\00", align 1
@.str.9 = private unnamed_addr constant [2 x i8] c">\00", align 1
@.str.10 = private unnamed_addr constant [3 x i8] c"</\00", align 1
@.str.11 = private unnamed_addr constant [3 x i8] c">\0A\00", align 1
@.str.12 = private unnamed_addr constant [2 x i8] c"\0A\00", align 1
@.str.13 = private unnamed_addr constant [16 x i8] c"MODULE_FULLPATH\00", align 1
@.str.14 = private unnamed_addr constant [16 x i8] c"MODULE_FULLNAME\00", align 1
@.str.15 = private unnamed_addr constant [12 x i8] c"MODULE_NAME\00", align 1
@.str.16 = private unnamed_addr constant [13 x i8] c"MODULE_INDEX\00", align 1
@.str.17 = private unnamed_addr constant [10 x i8] c"MODULE_ID\00", align 1
@.str.18 = private unnamed_addr constant [22 x i8] c"PARENTMODULE_FULLPATH\00", align 1
@.str.19 = private unnamed_addr constant [22 x i8] c"PARENTMODULE_FULLNAME\00", align 1
@.str.20 = private unnamed_addr constant [18 x i8] c"PARENTMODULE_NAME\00", align 1
@.str.21 = private unnamed_addr constant [19 x i8] c"PARENTMODULE_INDEX\00", align 1
@.str.22 = private unnamed_addr constant [16 x i8] c"PARENTMODULE_ID\00", align 1
@.str.23 = private unnamed_addr constant [27 x i8] c"GRANDPARENTMODULE_FULLPATH\00", align 1
@.str.24 = private unnamed_addr constant [27 x i8] c"GRANDPARENTMODULE_FULLNAME\00", align 1
@.str.25 = private unnamed_addr constant [23 x i8] c"GRANDPARENTMODULE_NAME\00", align 1
@.str.26 = private unnamed_addr constant [24 x i8] c"GRANDPARENTMODULE_INDEX\00", align 1
@.str.27 = private unnamed_addr constant [21 x i8] c"GRANDPARENTMODULE_ID\00", align 1
@_ZTV20ModNameParamResolver = dso_local unnamed_addr constant { [5 x i8*] } { [5 x i8*] [i8* null, i8* bitcast ({ i8*, i8*, i8* }* @_ZTI20ModNameParamResolver to i8*), i8* bitcast (i1 (%class.ModNameParamResolver*, i8*, %"class.std::__cxx11::basic_string"*)* @_ZN20ModNameParamResolver7resolveEPKcRNSt7__cxx1112basic_stringIcSt11char_traitsIcESaIcEEE to i8*), i8* bitcast (void (%class.ModNameParamResolver*)* @_ZN20ModNameParamResolverD2Ev to i8*), i8* bitcast (void (%class.ModNameParamResolver*)* @_ZN20ModNameParamResolverD0Ev to i8*)] }, align 8
@_ZTS20ModNameParamResolver = dso_local constant [23 x i8] c"20ModNameParamResolver\00", align 1
@_ZTVN10__cxxabiv117__class_type_infoE = external dso_local global i8*
@_ZTSN11cXMLElement13ParamResolverE = linkonce_odr dso_local constant [31 x i8] c"N11cXMLElement13ParamResolverE\00", comdat, align 1
@_ZTIN11cXMLElement13ParamResolverE = linkonce_odr dso_local constant { i8*, i8* } { i8* bitcast (i8** getelementptr inbounds (i8*, i8** @_ZTVN10__cxxabiv117__class_type_infoE, i64 2) to i8*), i8* getelementptr inbounds ([31 x i8], [31 x i8]* @_ZTSN11cXMLElement13ParamResolverE, i32 0, i32 0) }, comdat, align 8
@_ZTI20ModNameParamResolver = dso_local constant { i8*, i8*, i8* } { i8* bitcast (i8** getelementptr inbounds (i8*, i8** @_ZTVN10__cxxabiv120__si_class_type_infoE, i64 2) to i8*), i8* getelementptr inbounds ([23 x i8], [23 x i8]* @_ZTS20ModNameParamResolver, i32 0, i32 0), i8* bitcast ({ i8*, i8* }* @_ZTIN11cXMLElement13ParamResolverE to i8*) }, align 8
@_ZTV22StringMapParamResolver = dso_local unnamed_addr constant { [5 x i8*] } { [5 x i8*] [i8* null, i8* bitcast ({ i8*, i8*, i8* }* @_ZTI22StringMapParamResolver to i8*), i8* bitcast (i1 (%class.StringMapParamResolver*, i8*, %"class.std::__cxx11::basic_string"*)* @_ZN22StringMapParamResolver7resolveEPKcRNSt7__cxx1112basic_stringIcSt11char_traitsIcESaIcEEE to i8*), i8* bitcast (void (%class.StringMapParamResolver*)* @_ZN22StringMapParamResolverD2Ev to i8*), i8* bitcast (void (%class.StringMapParamResolver*)* @_ZN22StringMapParamResolverD0Ev to i8*)] }, align 8
@_ZTS22StringMapParamResolver = dso_local constant [25 x i8] c"22StringMapParamResolver\00", align 1
@_ZTI22StringMapParamResolver = dso_local constant { i8*, i8*, i8* } { i8* bitcast (i8** getelementptr inbounds (i8*, i8** @_ZTVN10__cxxabiv120__si_class_type_infoE, i64 2) to i8*), i8* getelementptr inbounds ([25 x i8], [25 x i8]* @_ZTS22StringMapParamResolver, i32 0, i32 0), i8* bitcast ({ i8*, i8* }* @_ZTIN11cXMLElement13ParamResolverE to i8*) }, align 8
@_ZTS11cXMLElement = dso_local constant [14 x i8] c"11cXMLElement\00", align 1
@_ZTI11cXMLElement = dso_local constant { i8*, i8* } { i8* bitcast (i8** getelementptr inbounds (i8*, i8** @_ZTVN10__cxxabiv117__class_type_infoE, i64 2) to i8*), i8* getelementptr inbounds ([14 x i8], [14 x i8]* @_ZTS11cXMLElement, i32 0, i32 0) }, align 8
@_ZTV10cException = linkonce_odr dso_local unnamed_addr constant { [13 x i8*] } { [13 x i8*] [i8* null, i8* bitcast ({ i8*, i8*, i8* }* @_ZTI10cException to i8*), i8* bitcast (void (%class.cException*)* @_ZN10cExceptionD2Ev to i8*), i8* bitcast (void (%class.cException*)* @_ZN10cExceptionD0Ev to i8*), i8* bitcast (i8* (%class.cException*)* @_ZNK10cException4whatEv to i8*), i8* bitcast (%class.cException* (%class.cException*)* @_ZNK10cException3dupEv to i8*), i8* bitcast (i32 (%class.cException*)* @_ZNK10cException12getErrorCodeEv to i8*), i8* bitcast (void (%class.cException*, i8*)* @_ZN10cException10setMessageEPKc to i8*), i8* bitcast (void (%class.cException*, i8*)* @_ZN10cException14prependMessageEPKc to i8*), i8* bitcast (i1 (%class.cException*)* @_ZNK10cException10hasContextEv to i8*), i8* bitcast (i8* (%class.cException*)* @_ZNK10cException19getContextClassNameEv to i8*), i8* bitcast (i8* (%class.cException*)* @_ZNK10cException18getContextFullPathEv to i8*), i8* bitcast (i32 (%class.cException*)* @_ZNK10cException11getModuleIDEv to i8*)] }, comdat, align 8
@.str.28 = private unnamed_addr constant [3 x i8] c": \00", align 1
@_ZN11cSimulation5evPtrE = external dso_local global %class.cEnvir*, align 8
@.str.29 = private unnamed_addr constant [3 x i8] c"%d\00", align 1
@_ZStL19piecewise_construct = internal constant %"struct.std::piecewise_construct_t" undef, align 1, !dbg !28
@.str.30 = private unnamed_addr constant [26 x i8] c"vector::_M_realloc_insert\00", align 1
@llvm.global_ctors = appending global [1 x { i32, void ()*, i8* }] [{ i32, void ()*, i8* } { i32 65535, void ()* @_GLOBAL__sub_I_cxmlelement.cc, i8* null }]

@_ZN11cXMLElementC1EPKcS1_PS_ = dso_local unnamed_addr alias void (%class.cXMLElement*, i8*, i8*, %class.cXMLElement*), void (%class.cXMLElement*, i8*, i8*, %class.cXMLElement*)* @_ZN11cXMLElementC2EPKcS1_PS_
@_ZN11cXMLElementD1Ev = dso_local unnamed_addr alias void (%class.cXMLElement*), void (%class.cXMLElement*)* @_ZN11cXMLElementD2Ev

; Function Attrs: noinline uwtable
define internal void @__cxx_global_var_init() #0 section ".text.startup" !dbg !3090 {
entry:
  call void @_ZNSt8ios_base4InitC1Ev(%"class.std::ios_base::Init"* @_ZStL8__ioinit), !dbg !3091
  %0 = call i32 @__cxa_atexit(void (i8*)* bitcast (void (%"class.std::ios_base::Init"*)* @_ZNSt8ios_base4InitD1Ev to void (i8*)*), i8* getelementptr inbounds (%"class.std::ios_base::Init", %"class.std::ios_base::Init"* @_ZStL8__ioinit, i32 0, i32 0), i8* @__dso_handle) #3, !dbg !3091
  ret void, !dbg !3091
}

declare dso_local void @_ZNSt8ios_base4InitC1Ev(%"class.std::ios_base::Init"*) unnamed_addr #1

; Function Attrs: nounwind
declare dso_local void @_ZNSt8ios_base4InitD1Ev(%"class.std::ios_base::Init"*) unnamed_addr #2

; Function Attrs: nounwind
declare dso_local i32 @__cxa_atexit(void (i8*)*, i8*, i8*) #3

; Function Attrs: noinline uwtable
define dso_local void @_ZN11cXMLElementC2EPKcS1_PS_(%class.cXMLElement* %this, i8* %tagname, i8* %srclocation, %class.cXMLElement* %parent) unnamed_addr #0 align 2 personality i8* bitcast (i32 (...)* @__gxx_personality_v0 to i8*) !dbg !3092 {
entry:
  %this.addr = alloca %class.cXMLElement*, align 8
  %tagname.addr = alloca i8*, align 8
  %srclocation.addr = alloca i8*, align 8
  %parent.addr = alloca %class.cXMLElement*, align 8
  %exn.slot = alloca i8*
  %ehselector.slot = alloca i32
  store %class.cXMLElement* %this, %class.cXMLElement** %this.addr, align 8
  call void @llvm.dbg.declare(metadata %class.cXMLElement** %this.addr, metadata !3093, metadata !DIExpression()), !dbg !3094
  store i8* %tagname, i8** %tagname.addr, align 8
  call void @llvm.dbg.declare(metadata i8** %tagname.addr, metadata !3095, metadata !DIExpression()), !dbg !3096
  store i8* %srclocation, i8** %srclocation.addr, align 8
  call void @llvm.dbg.declare(metadata i8** %srclocation.addr, metadata !3097, metadata !DIExpression()), !dbg !3098
  store %class.cXMLElement* %parent, %class.cXMLElement** %parent.addr, align 8
  call void @llvm.dbg.declare(metadata %class.cXMLElement** %parent.addr, metadata !3099, metadata !DIExpression()), !dbg !3100
  %this1 = load %class.cXMLElement*, %class.cXMLElement** %this.addr, align 8
  %0 = bitcast %class.cXMLElement* %this1 to i32 (...)***, !dbg !3101
  store i32 (...)** bitcast (i8** getelementptr inbounds ({ [28 x i8*] }, { [28 x i8*] }* @_ZTV11cXMLElement, i32 0, inrange i32 0, i32 2) to i32 (...)**), i32 (...)*** %0, align 8, !dbg !3101
  %ename = getelementptr inbounds %class.cXMLElement, %class.cXMLElement* %this1, i32 0, i32 1, !dbg !3102
  call void @_ZNSt7__cxx1112basic_stringIcSt11char_traitsIcESaIcEEC1Ev(%"class.std::__cxx11::basic_string"* %ename) #3, !dbg !3102
  %srcloc = getelementptr inbounds %class.cXMLElement, %class.cXMLElement* %this1, i32 0, i32 2, !dbg !3102
  call void @_ZNSt7__cxx1112basic_stringIcSt11char_traitsIcESaIcEEC1Ev(%"class.std::__cxx11::basic_string"* %srcloc) #3, !dbg !3102
  %value = getelementptr inbounds %class.cXMLElement, %class.cXMLElement* %this1, i32 0, i32 3, !dbg !3102
  call void @_ZNSt7__cxx1112basic_stringIcSt11char_traitsIcESaIcEEC1Ev(%"class.std::__cxx11::basic_string"* %value) #3, !dbg !3102
  %attrs = getelementptr inbounds %class.cXMLElement, %class.cXMLElement* %this1, i32 0, i32 4, !dbg !3102
  call void @_ZNSt3mapINSt7__cxx1112basic_stringIcSt11char_traitsIcESaIcEEES5_St4lessIS5_ESaISt4pairIKS5_S5_EEEC2Ev(%"class.std::map"* %attrs) #3, !dbg !3102
  %1 = load i8*, i8** %tagname.addr, align 8, !dbg !3103
  %ename2 = getelementptr inbounds %class.cXMLElement, %class.cXMLElement* %this1, i32 0, i32 1, !dbg !3105
  %call = invoke dereferenceable(32) %"class.std::__cxx11::basic_string"* @_ZNSt7__cxx1112basic_stringIcSt11char_traitsIcESaIcEEaSEPKc(%"class.std::__cxx11::basic_string"* %ename2, i8* %1)
          to label %invoke.cont unwind label %lpad, !dbg !3106

invoke.cont:                                      ; preds = %entry
  %2 = load i8*, i8** %srclocation.addr, align 8, !dbg !3107
  %srcloc3 = getelementptr inbounds %class.cXMLElement, %class.cXMLElement* %this1, i32 0, i32 2, !dbg !3108
  %call5 = invoke dereferenceable(32) %"class.std::__cxx11::basic_string"* @_ZNSt7__cxx1112basic_stringIcSt11char_traitsIcESaIcEEaSEPKc(%"class.std::__cxx11::basic_string"* %srcloc3, i8* %2)
          to label %invoke.cont4 unwind label %lpad, !dbg !3109

invoke.cont4:                                     ; preds = %invoke.cont
  %parent6 = getelementptr inbounds %class.cXMLElement, %class.cXMLElement* %this1, i32 0, i32 5, !dbg !3110
  store %class.cXMLElement* null, %class.cXMLElement** %parent6, align 8, !dbg !3111
  %firstchild = getelementptr inbounds %class.cXMLElement, %class.cXMLElement* %this1, i32 0, i32 6, !dbg !3112
  store %class.cXMLElement* null, %class.cXMLElement** %firstchild, align 8, !dbg !3113
  %lastchild = getelementptr inbounds %class.cXMLElement, %class.cXMLElement* %this1, i32 0, i32 7, !dbg !3114
  store %class.cXMLElement* null, %class.cXMLElement** %lastchild, align 8, !dbg !3115
  %prevsibling = getelementptr inbounds %class.cXMLElement, %class.cXMLElement* %this1, i32 0, i32 8, !dbg !3116
  store %class.cXMLElement* null, %class.cXMLElement** %prevsibling, align 8, !dbg !3117
  %nextsibling = getelementptr inbounds %class.cXMLElement, %class.cXMLElement* %this1, i32 0, i32 9, !dbg !3118
  store %class.cXMLElement* null, %class.cXMLElement** %nextsibling, align 8, !dbg !3119
  %3 = load %class.cXMLElement*, %class.cXMLElement** %parent.addr, align 8, !dbg !3120
  %tobool = icmp ne %class.cXMLElement* %3, null, !dbg !3120
  br i1 %tobool, label %if.then, label %if.end, !dbg !3122

if.then:                                          ; preds = %invoke.cont4
  %4 = load %class.cXMLElement*, %class.cXMLElement** %parent.addr, align 8, !dbg !3123
  %5 = bitcast %class.cXMLElement* %4 to void (%class.cXMLElement*, %class.cXMLElement*)***, !dbg !3124
  %vtable = load void (%class.cXMLElement*, %class.cXMLElement*)**, void (%class.cXMLElement*, %class.cXMLElement*)*** %5, align 8, !dbg !3124
  %vfn = getelementptr inbounds void (%class.cXMLElement*, %class.cXMLElement*)*, void (%class.cXMLElement*, %class.cXMLElement*)** %vtable, i64 5, !dbg !3124
  %6 = load void (%class.cXMLElement*, %class.cXMLElement*)*, void (%class.cXMLElement*, %class.cXMLElement*)** %vfn, align 8, !dbg !3124
  invoke void %6(%class.cXMLElement* %4, %class.cXMLElement* %this1)
          to label %invoke.cont7 unwind label %lpad, !dbg !3124

invoke.cont7:                                     ; preds = %if.then
  br label %if.end, !dbg !3123

lpad:                                             ; preds = %if.then, %invoke.cont, %entry
  %7 = landingpad { i8*, i32 }
          cleanup, !dbg !3125
  %8 = extractvalue { i8*, i32 } %7, 0, !dbg !3125
  store i8* %8, i8** %exn.slot, align 8, !dbg !3125
  %9 = extractvalue { i8*, i32 } %7, 1, !dbg !3125
  store i32 %9, i32* %ehselector.slot, align 4, !dbg !3125
  call void @_ZNSt3mapINSt7__cxx1112basic_stringIcSt11char_traitsIcESaIcEEES5_St4lessIS5_ESaISt4pairIKS5_S5_EEED2Ev(%"class.std::map"* %attrs) #3, !dbg !3125
  call void @_ZNSt7__cxx1112basic_stringIcSt11char_traitsIcESaIcEED1Ev(%"class.std::__cxx11::basic_string"* %value) #3, !dbg !3125
  call void @_ZNSt7__cxx1112basic_stringIcSt11char_traitsIcESaIcEED1Ev(%"class.std::__cxx11::basic_string"* %srcloc) #3, !dbg !3125
  call void @_ZNSt7__cxx1112basic_stringIcSt11char_traitsIcESaIcEED1Ev(%"class.std::__cxx11::basic_string"* %ename) #3, !dbg !3125
  br label %eh.resume, !dbg !3125

if.end:                                           ; preds = %invoke.cont7, %invoke.cont4
  ret void, !dbg !3126

eh.resume:                                        ; preds = %lpad
  %exn = load i8*, i8** %exn.slot, align 8, !dbg !3125
  %sel = load i32, i32* %ehselector.slot, align 4, !dbg !3125
  %lpad.val = insertvalue { i8*, i32 } undef, i8* %exn, 0, !dbg !3125
  %lpad.val8 = insertvalue { i8*, i32 } %lpad.val, i32 %sel, 1, !dbg !3125
  resume { i8*, i32 } %lpad.val8, !dbg !3125
}

; Function Attrs: nounwind readnone speculatable willreturn
declare void @llvm.dbg.declare(metadata, metadata, metadata) #4

; Function Attrs: nounwind
declare dso_local void @_ZNSt7__cxx1112basic_stringIcSt11char_traitsIcESaIcEEC1Ev(%"class.std::__cxx11::basic_string"*) unnamed_addr #2

; Function Attrs: noinline nounwind uwtable
define linkonce_odr dso_local void @_ZNSt3mapINSt7__cxx1112basic_stringIcSt11char_traitsIcESaIcEEES5_St4lessIS5_ESaISt4pairIKS5_S5_EEEC2Ev(%"class.std::map"* %this) unnamed_addr #5 comdat align 2 !dbg !3127 {
entry:
  %this.addr = alloca %"class.std::map"*, align 8
  store %"class.std::map"* %this, %"class.std::map"** %this.addr, align 8
  call void @llvm.dbg.declare(metadata %"class.std::map"** %this.addr, metadata !3128, metadata !DIExpression()), !dbg !3130
  %this1 = load %"class.std::map"*, %"class.std::map"** %this.addr, align 8
  %_M_t = getelementptr inbounds %"class.std::map", %"class.std::map"* %this1, i32 0, i32 0, !dbg !3131
  call void @_ZNSt8_Rb_treeINSt7__cxx1112basic_stringIcSt11char_traitsIcESaIcEEESt4pairIKS5_S5_ESt10_Select1stIS8_ESt4lessIS5_ESaIS8_EEC2Ev(%"class.std::_Rb_tree"* %_M_t) #3, !dbg !3131
  ret void, !dbg !3132
}

declare dso_local dereferenceable(32) %"class.std::__cxx11::basic_string"* @_ZNSt7__cxx1112basic_stringIcSt11char_traitsIcESaIcEEaSEPKc(%"class.std::__cxx11::basic_string"*, i8*) #1

declare dso_local i32 @__gxx_personality_v0(...)

; Function Attrs: noinline nounwind uwtable
define linkonce_odr dso_local void @_ZNSt3mapINSt7__cxx1112basic_stringIcSt11char_traitsIcESaIcEEES5_St4lessIS5_ESaISt4pairIKS5_S5_EEED2Ev(%"class.std::map"* %this) unnamed_addr #5 comdat align 2 !dbg !3133 {
entry:
  %this.addr = alloca %"class.std::map"*, align 8
  store %"class.std::map"* %this, %"class.std::map"** %this.addr, align 8
  call void @llvm.dbg.declare(metadata %"class.std::map"** %this.addr, metadata !3134, metadata !DIExpression()), !dbg !3135
  %this1 = load %"class.std::map"*, %"class.std::map"** %this.addr, align 8
  %_M_t = getelementptr inbounds %"class.std::map", %"class.std::map"* %this1, i32 0, i32 0, !dbg !3136
  call void @_ZNSt8_Rb_treeINSt7__cxx1112basic_stringIcSt11char_traitsIcESaIcEEESt4pairIKS5_S5_ESt10_Select1stIS8_ESt4lessIS5_ESaIS8_EED2Ev(%"class.std::_Rb_tree"* %_M_t) #3, !dbg !3136
  ret void, !dbg !3138
}

; Function Attrs: nounwind
declare dso_local void @_ZNSt7__cxx1112basic_stringIcSt11char_traitsIcESaIcEED1Ev(%"class.std::__cxx11::basic_string"*) unnamed_addr #2

; Function Attrs: noinline nounwind uwtable
define dso_local void @_ZN11cXMLElementD2Ev(%class.cXMLElement* %this) unnamed_addr #5 align 2 personality i8* bitcast (i32 (...)* @__gxx_personality_v0 to i8*) !dbg !3139 {
entry:
  %this.addr = alloca %class.cXMLElement*, align 8
  %exn.slot = alloca i8*
  %ehselector.slot = alloca i32
  store %class.cXMLElement* %this, %class.cXMLElement** %this.addr, align 8
  call void @llvm.dbg.declare(metadata %class.cXMLElement** %this.addr, metadata !3140, metadata !DIExpression()), !dbg !3141
  %this1 = load %class.cXMLElement*, %class.cXMLElement** %this.addr, align 8
  %0 = bitcast %class.cXMLElement* %this1 to i32 (...)***, !dbg !3142
  store i32 (...)** bitcast (i8** getelementptr inbounds ({ [28 x i8*] }, { [28 x i8*] }* @_ZTV11cXMLElement, i32 0, inrange i32 0, i32 2) to i32 (...)**), i32 (...)*** %0, align 8, !dbg !3142
  %parent = getelementptr inbounds %class.cXMLElement, %class.cXMLElement* %this1, i32 0, i32 5, !dbg !3143
  %1 = load %class.cXMLElement*, %class.cXMLElement** %parent, align 8, !dbg !3143
  %tobool = icmp ne %class.cXMLElement* %1, null, !dbg !3143
  br i1 %tobool, label %if.then, label %if.end, !dbg !3146

if.then:                                          ; preds = %entry
  %parent2 = getelementptr inbounds %class.cXMLElement, %class.cXMLElement* %this1, i32 0, i32 5, !dbg !3147
  %2 = load %class.cXMLElement*, %class.cXMLElement** %parent2, align 8, !dbg !3147
  %3 = bitcast %class.cXMLElement* %2 to %class.cXMLElement* (%class.cXMLElement*, %class.cXMLElement*)***, !dbg !3149
  %vtable = load %class.cXMLElement* (%class.cXMLElement*, %class.cXMLElement*)**, %class.cXMLElement* (%class.cXMLElement*, %class.cXMLElement*)*** %3, align 8, !dbg !3149
  %vfn = getelementptr inbounds %class.cXMLElement* (%class.cXMLElement*, %class.cXMLElement*)*, %class.cXMLElement* (%class.cXMLElement*, %class.cXMLElement*)** %vtable, i64 7, !dbg !3149
  %4 = load %class.cXMLElement* (%class.cXMLElement*, %class.cXMLElement*)*, %class.cXMLElement* (%class.cXMLElement*, %class.cXMLElement*)** %vfn, align 8, !dbg !3149
  %call = invoke %class.cXMLElement* %4(%class.cXMLElement* %2, %class.cXMLElement* %this1)
          to label %invoke.cont unwind label %lpad, !dbg !3149

invoke.cont:                                      ; preds = %if.then
  br label %if.end, !dbg !3150

lpad:                                             ; preds = %while.body, %if.then
  %5 = landingpad { i8*, i32 }
          catch i8* null, !dbg !3151
  %6 = extractvalue { i8*, i32 } %5, 0, !dbg !3151
  store i8* %6, i8** %exn.slot, align 8, !dbg !3151
  %7 = extractvalue { i8*, i32 } %5, 1, !dbg !3151
  store i32 %7, i32* %ehselector.slot, align 4, !dbg !3151
  %attrs11 = getelementptr inbounds %class.cXMLElement, %class.cXMLElement* %this1, i32 0, i32 4, !dbg !3152
  call void @_ZNSt3mapINSt7__cxx1112basic_stringIcSt11char_traitsIcESaIcEEES5_St4lessIS5_ESaISt4pairIKS5_S5_EEED2Ev(%"class.std::map"* %attrs11) #3, !dbg !3152
  %value12 = getelementptr inbounds %class.cXMLElement, %class.cXMLElement* %this1, i32 0, i32 3, !dbg !3152
  call void @_ZNSt7__cxx1112basic_stringIcSt11char_traitsIcESaIcEED1Ev(%"class.std::__cxx11::basic_string"* %value12) #3, !dbg !3152
  %srcloc13 = getelementptr inbounds %class.cXMLElement, %class.cXMLElement* %this1, i32 0, i32 2, !dbg !3152
  call void @_ZNSt7__cxx1112basic_stringIcSt11char_traitsIcESaIcEED1Ev(%"class.std::__cxx11::basic_string"* %srcloc13) #3, !dbg !3152
  %ename14 = getelementptr inbounds %class.cXMLElement, %class.cXMLElement* %this1, i32 0, i32 1, !dbg !3152
  call void @_ZNSt7__cxx1112basic_stringIcSt11char_traitsIcESaIcEED1Ev(%"class.std::__cxx11::basic_string"* %ename14) #3, !dbg !3152
  br label %terminate.handler, !dbg !3152

if.end:                                           ; preds = %invoke.cont, %entry
  br label %while.cond, !dbg !3153

while.cond:                                       ; preds = %delete.end, %if.end
  %firstchild = getelementptr inbounds %class.cXMLElement, %class.cXMLElement* %this1, i32 0, i32 6, !dbg !3154
  %8 = load %class.cXMLElement*, %class.cXMLElement** %firstchild, align 8, !dbg !3154
  %tobool3 = icmp ne %class.cXMLElement* %8, null, !dbg !3154
  br i1 %tobool3, label %while.body, label %while.end, !dbg !3153

while.body:                                       ; preds = %while.cond
  %firstchild4 = getelementptr inbounds %class.cXMLElement, %class.cXMLElement* %this1, i32 0, i32 6, !dbg !3155
  %9 = load %class.cXMLElement*, %class.cXMLElement** %firstchild4, align 8, !dbg !3155
  %10 = bitcast %class.cXMLElement* %this1 to %class.cXMLElement* (%class.cXMLElement*, %class.cXMLElement*)***, !dbg !3157
  %vtable5 = load %class.cXMLElement* (%class.cXMLElement*, %class.cXMLElement*)**, %class.cXMLElement* (%class.cXMLElement*, %class.cXMLElement*)*** %10, align 8, !dbg !3157
  %vfn6 = getelementptr inbounds %class.cXMLElement* (%class.cXMLElement*, %class.cXMLElement*)*, %class.cXMLElement* (%class.cXMLElement*, %class.cXMLElement*)** %vtable5, i64 7, !dbg !3157
  %11 = load %class.cXMLElement* (%class.cXMLElement*, %class.cXMLElement*)*, %class.cXMLElement* (%class.cXMLElement*, %class.cXMLElement*)** %vfn6, align 8, !dbg !3157
  %call8 = invoke %class.cXMLElement* %11(%class.cXMLElement* %this1, %class.cXMLElement* %9)
          to label %invoke.cont7 unwind label %lpad, !dbg !3157

invoke.cont7:                                     ; preds = %while.body
  %isnull = icmp eq %class.cXMLElement* %call8, null, !dbg !3158
  br i1 %isnull, label %delete.end, label %delete.notnull, !dbg !3158

delete.notnull:                                   ; preds = %invoke.cont7
  %12 = bitcast %class.cXMLElement* %call8 to void (%class.cXMLElement*)***, !dbg !3158
  %vtable9 = load void (%class.cXMLElement*)**, void (%class.cXMLElement*)*** %12, align 8, !dbg !3158
  %vfn10 = getelementptr inbounds void (%class.cXMLElement*)*, void (%class.cXMLElement*)** %vtable9, i64 3, !dbg !3158
  %13 = load void (%class.cXMLElement*)*, void (%class.cXMLElement*)** %vfn10, align 8, !dbg !3158
  call void %13(%class.cXMLElement* %call8) #3, !dbg !3158
  br label %delete.end, !dbg !3158

delete.end:                                       ; preds = %delete.notnull, %invoke.cont7
  br label %while.cond, !dbg !3153, !llvm.loop !3159

while.end:                                        ; preds = %while.cond
  %attrs = getelementptr inbounds %class.cXMLElement, %class.cXMLElement* %this1, i32 0, i32 4, !dbg !3152
  call void @_ZNSt3mapINSt7__cxx1112basic_stringIcSt11char_traitsIcESaIcEEES5_St4lessIS5_ESaISt4pairIKS5_S5_EEED2Ev(%"class.std::map"* %attrs) #3, !dbg !3152
  %value = getelementptr inbounds %class.cXMLElement, %class.cXMLElement* %this1, i32 0, i32 3, !dbg !3152
  call void @_ZNSt7__cxx1112basic_stringIcSt11char_traitsIcESaIcEED1Ev(%"class.std::__cxx11::basic_string"* %value) #3, !dbg !3152
  %srcloc = getelementptr inbounds %class.cXMLElement, %class.cXMLElement* %this1, i32 0, i32 2, !dbg !3152
  call void @_ZNSt7__cxx1112basic_stringIcSt11char_traitsIcESaIcEED1Ev(%"class.std::__cxx11::basic_string"* %srcloc) #3, !dbg !3152
  %ename = getelementptr inbounds %class.cXMLElement, %class.cXMLElement* %this1, i32 0, i32 1, !dbg !3152
  call void @_ZNSt7__cxx1112basic_stringIcSt11char_traitsIcESaIcEED1Ev(%"class.std::__cxx11::basic_string"* %ename) #3, !dbg !3152
  ret void, !dbg !3161

terminate.handler:                                ; preds = %lpad
  %exn = load i8*, i8** %exn.slot, align 8, !dbg !3152
  call void @__clang_call_terminate(i8* %exn) #13, !dbg !3152
  unreachable, !dbg !3152
}

; Function Attrs: noinline noreturn nounwind
define linkonce_odr hidden void @__clang_call_terminate(i8* %0) #6 comdat {
  %2 = call i8* @__cxa_begin_catch(i8* %0) #3
  call void @_ZSt9terminatev() #13
  unreachable
}

declare dso_local i8* @__cxa_begin_catch(i8*)

declare dso_local void @_ZSt9terminatev()

; Function Attrs: noinline nounwind uwtable
define dso_local void @_ZN11cXMLElementD0Ev(%class.cXMLElement* %this) unnamed_addr #5 align 2 !dbg !3162 {
entry:
  %this.addr = alloca %class.cXMLElement*, align 8
  store %class.cXMLElement* %this, %class.cXMLElement** %this.addr, align 8
  call void @llvm.dbg.declare(metadata %class.cXMLElement** %this.addr, metadata !3163, metadata !DIExpression()), !dbg !3164
  %this1 = load %class.cXMLElement*, %class.cXMLElement** %this.addr, align 8
  call void @_ZN11cXMLElementD1Ev(%class.cXMLElement* %this1) #3, !dbg !3165
  %0 = bitcast %class.cXMLElement* %this1 to i8*, !dbg !3165
  call void @_ZdlPv(i8* %0) #14, !dbg !3165
  ret void, !dbg !3166
}

; Function Attrs: nobuiltin nounwind
declare dso_local void @_ZdlPv(i8*) #7

; Function Attrs: noinline nounwind uwtable
define dso_local i8* @_ZNK11cXMLElement10getTagNameEv(%class.cXMLElement* %this) unnamed_addr #5 align 2 !dbg !3167 {
entry:
  %this.addr = alloca %class.cXMLElement*, align 8
  store %class.cXMLElement* %this, %class.cXMLElement** %this.addr, align 8
  call void @llvm.dbg.declare(metadata %class.cXMLElement** %this.addr, metadata !3168, metadata !DIExpression()), !dbg !3170
  %this1 = load %class.cXMLElement*, %class.cXMLElement** %this.addr, align 8
  %ename = getelementptr inbounds %class.cXMLElement, %class.cXMLElement* %this1, i32 0, i32 1, !dbg !3171
  %call = call i8* @_ZNKSt7__cxx1112basic_stringIcSt11char_traitsIcESaIcEE5c_strEv(%"class.std::__cxx11::basic_string"* %ename) #3, !dbg !3172
  ret i8* %call, !dbg !3173
}

; Function Attrs: nounwind
declare dso_local i8* @_ZNKSt7__cxx1112basic_stringIcSt11char_traitsIcESaIcEE5c_strEv(%"class.std::__cxx11::basic_string"*) #2

; Function Attrs: noinline nounwind uwtable
define dso_local i8* @_ZNK11cXMLElement17getSourceLocationEv(%class.cXMLElement* %this) unnamed_addr #5 align 2 !dbg !3174 {
entry:
  %this.addr = alloca %class.cXMLElement*, align 8
  store %class.cXMLElement* %this, %class.cXMLElement** %this.addr, align 8
  call void @llvm.dbg.declare(metadata %class.cXMLElement** %this.addr, metadata !3175, metadata !DIExpression()), !dbg !3176
  %this1 = load %class.cXMLElement*, %class.cXMLElement** %this.addr, align 8
  %srcloc = getelementptr inbounds %class.cXMLElement, %class.cXMLElement* %this1, i32 0, i32 2, !dbg !3177
  %call = call i8* @_ZNKSt7__cxx1112basic_stringIcSt11char_traitsIcESaIcEE5c_strEv(%"class.std::__cxx11::basic_string"* %srcloc) #3, !dbg !3178
  ret i8* %call, !dbg !3179
}

; Function Attrs: noinline nounwind uwtable
define dso_local i8* @_ZNK11cXMLElement12getNodeValueEv(%class.cXMLElement* %this) unnamed_addr #5 align 2 !dbg !3180 {
entry:
  %this.addr = alloca %class.cXMLElement*, align 8
  store %class.cXMLElement* %this, %class.cXMLElement** %this.addr, align 8
  call void @llvm.dbg.declare(metadata %class.cXMLElement** %this.addr, metadata !3181, metadata !DIExpression()), !dbg !3182
  %this1 = load %class.cXMLElement*, %class.cXMLElement** %this.addr, align 8
  %value = getelementptr inbounds %class.cXMLElement, %class.cXMLElement* %this1, i32 0, i32 3, !dbg !3183
  %call = call i8* @_ZNKSt7__cxx1112basic_stringIcSt11char_traitsIcESaIcEE5c_strEv(%"class.std::__cxx11::basic_string"* %value) #3, !dbg !3184
  ret i8* %call, !dbg !3185
}

; Function Attrs: noinline uwtable
define dso_local void @_ZN11cXMLElement12setNodeValueEPKci(%class.cXMLElement* %this, i8* %s, i32 %len) unnamed_addr #0 align 2 !dbg !3186 {
entry:
  %this.addr = alloca %class.cXMLElement*, align 8
  %s.addr = alloca i8*, align 8
  %len.addr = alloca i32, align 4
  store %class.cXMLElement* %this, %class.cXMLElement** %this.addr, align 8
  call void @llvm.dbg.declare(metadata %class.cXMLElement** %this.addr, metadata !3187, metadata !DIExpression()), !dbg !3188
  store i8* %s, i8** %s.addr, align 8
  call void @llvm.dbg.declare(metadata i8** %s.addr, metadata !3189, metadata !DIExpression()), !dbg !3190
  store i32 %len, i32* %len.addr, align 4
  call void @llvm.dbg.declare(metadata i32* %len.addr, metadata !3191, metadata !DIExpression()), !dbg !3192
  %this1 = load %class.cXMLElement*, %class.cXMLElement** %this.addr, align 8
  %value = getelementptr inbounds %class.cXMLElement, %class.cXMLElement* %this1, i32 0, i32 3, !dbg !3193
  %0 = load i8*, i8** %s.addr, align 8, !dbg !3194
  %1 = load i32, i32* %len.addr, align 4, !dbg !3195
  %conv = sext i32 %1 to i64, !dbg !3195
  %call = call dereferenceable(32) %"class.std::__cxx11::basic_string"* @_ZNSt7__cxx1112basic_stringIcSt11char_traitsIcESaIcEE6assignEPKcm(%"class.std::__cxx11::basic_string"* %value, i8* %0, i64 %conv), !dbg !3196
  ret void, !dbg !3197
}

declare dso_local dereferenceable(32) %"class.std::__cxx11::basic_string"* @_ZNSt7__cxx1112basic_stringIcSt11char_traitsIcESaIcEE6assignEPKcm(%"class.std::__cxx11::basic_string"*, i8*, i64) #1

; Function Attrs: noinline uwtable
define dso_local void @_ZN11cXMLElement15appendNodeValueEPKci(%class.cXMLElement* %this, i8* %s, i32 %len) unnamed_addr #0 align 2 !dbg !3198 {
entry:
  %this.addr = alloca %class.cXMLElement*, align 8
  %s.addr = alloca i8*, align 8
  %len.addr = alloca i32, align 4
  store %class.cXMLElement* %this, %class.cXMLElement** %this.addr, align 8
  call void @llvm.dbg.declare(metadata %class.cXMLElement** %this.addr, metadata !3199, metadata !DIExpression()), !dbg !3200
  store i8* %s, i8** %s.addr, align 8
  call void @llvm.dbg.declare(metadata i8** %s.addr, metadata !3201, metadata !DIExpression()), !dbg !3202
  store i32 %len, i32* %len.addr, align 4
  call void @llvm.dbg.declare(metadata i32* %len.addr, metadata !3203, metadata !DIExpression()), !dbg !3204
  %this1 = load %class.cXMLElement*, %class.cXMLElement** %this.addr, align 8
  %value = getelementptr inbounds %class.cXMLElement, %class.cXMLElement* %this1, i32 0, i32 3, !dbg !3205
  %0 = load i8*, i8** %s.addr, align 8, !dbg !3206
  %1 = load i32, i32* %len.addr, align 4, !dbg !3207
  %conv = sext i32 %1 to i64, !dbg !3207
  %call = call dereferenceable(32) %"class.std::__cxx11::basic_string"* @_ZNSt7__cxx1112basic_stringIcSt11char_traitsIcESaIcEE6appendEPKcm(%"class.std::__cxx11::basic_string"* %value, i8* %0, i64 %conv), !dbg !3208
  ret void, !dbg !3209
}

declare dso_local dereferenceable(32) %"class.std::__cxx11::basic_string"* @_ZNSt7__cxx1112basic_stringIcSt11char_traitsIcESaIcEE6appendEPKcm(%"class.std::__cxx11::basic_string"*, i8*, i64) #1

; Function Attrs: noinline uwtable
define dso_local i8* @_ZNK11cXMLElement12getAttributeEPKc(%class.cXMLElement* %this, i8* %attr) unnamed_addr #0 align 2 personality i8* bitcast (i32 (...)* @__gxx_personality_v0 to i8*) !dbg !3210 {
entry:
  %retval = alloca i8*, align 8
  %this.addr = alloca %class.cXMLElement*, align 8
  %attr.addr = alloca i8*, align 8
  %it = alloca %"struct.std::_Rb_tree_const_iterator", align 8
  %ref.tmp = alloca %"class.std::__cxx11::basic_string", align 8
  %ref.tmp2 = alloca %"class.std::allocator", align 1
  %exn.slot = alloca i8*
  %ehselector.slot = alloca i32
  %ref.tmp5 = alloca %"struct.std::_Rb_tree_const_iterator", align 8
  store %class.cXMLElement* %this, %class.cXMLElement** %this.addr, align 8
  call void @llvm.dbg.declare(metadata %class.cXMLElement** %this.addr, metadata !3211, metadata !DIExpression()), !dbg !3212
  store i8* %attr, i8** %attr.addr, align 8
  call void @llvm.dbg.declare(metadata i8** %attr.addr, metadata !3213, metadata !DIExpression()), !dbg !3214
  %this1 = load %class.cXMLElement*, %class.cXMLElement** %this.addr, align 8
  call void @llvm.dbg.declare(metadata %"struct.std::_Rb_tree_const_iterator"* %it, metadata !3215, metadata !DIExpression()), !dbg !3216
  %attrs = getelementptr inbounds %class.cXMLElement, %class.cXMLElement* %this1, i32 0, i32 4, !dbg !3217
  %0 = load i8*, i8** %attr.addr, align 8, !dbg !3218
  call void @_ZNSaIcEC1Ev(%"class.std::allocator"* %ref.tmp2) #3, !dbg !3219
  invoke void @_ZNSt7__cxx1112basic_stringIcSt11char_traitsIcESaIcEEC1EPKcRKS3_(%"class.std::__cxx11::basic_string"* %ref.tmp, i8* %0, %"class.std::allocator"* dereferenceable(1) %ref.tmp2)
          to label %invoke.cont unwind label %lpad, !dbg !3219

invoke.cont:                                      ; preds = %entry
  %call = invoke %"struct.std::_Rb_tree_node_base"* @_ZNKSt3mapINSt7__cxx1112basic_stringIcSt11char_traitsIcESaIcEEES5_St4lessIS5_ESaISt4pairIKS5_S5_EEE4findERS9_(%"class.std::map"* %attrs, %"class.std::__cxx11::basic_string"* dereferenceable(32) %ref.tmp)
          to label %invoke.cont4 unwind label %lpad3, !dbg !3220

invoke.cont4:                                     ; preds = %invoke.cont
  %coerce.dive = getelementptr inbounds %"struct.std::_Rb_tree_const_iterator", %"struct.std::_Rb_tree_const_iterator"* %it, i32 0, i32 0, !dbg !3220
  store %"struct.std::_Rb_tree_node_base"* %call, %"struct.std::_Rb_tree_node_base"** %coerce.dive, align 8, !dbg !3220
  call void @_ZNSt7__cxx1112basic_stringIcSt11char_traitsIcESaIcEED1Ev(%"class.std::__cxx11::basic_string"* %ref.tmp) #3, !dbg !3217
  call void @_ZNSaIcED1Ev(%"class.std::allocator"* %ref.tmp2) #3, !dbg !3217
  %attrs6 = getelementptr inbounds %class.cXMLElement, %class.cXMLElement* %this1, i32 0, i32 4, !dbg !3221
  %call7 = call %"struct.std::_Rb_tree_node_base"* @_ZNKSt3mapINSt7__cxx1112basic_stringIcSt11char_traitsIcESaIcEEES5_St4lessIS5_ESaISt4pairIKS5_S5_EEE3endEv(%"class.std::map"* %attrs6) #3, !dbg !3223
  %coerce.dive8 = getelementptr inbounds %"struct.std::_Rb_tree_const_iterator", %"struct.std::_Rb_tree_const_iterator"* %ref.tmp5, i32 0, i32 0, !dbg !3223
  store %"struct.std::_Rb_tree_node_base"* %call7, %"struct.std::_Rb_tree_node_base"** %coerce.dive8, align 8, !dbg !3223
  %call9 = call zeroext i1 @_ZSteqRKSt23_Rb_tree_const_iteratorISt4pairIKNSt7__cxx1112basic_stringIcSt11char_traitsIcESaIcEEES6_EESB_(%"struct.std::_Rb_tree_const_iterator"* dereferenceable(8) %it, %"struct.std::_Rb_tree_const_iterator"* dereferenceable(8) %ref.tmp5) #3, !dbg !3224
  br i1 %call9, label %if.then, label %if.end, !dbg !3225

if.then:                                          ; preds = %invoke.cont4
  store i8* null, i8** %retval, align 8, !dbg !3226
  br label %return, !dbg !3226

lpad:                                             ; preds = %entry
  %1 = landingpad { i8*, i32 }
          cleanup, !dbg !3227
  %2 = extractvalue { i8*, i32 } %1, 0, !dbg !3227
  store i8* %2, i8** %exn.slot, align 8, !dbg !3227
  %3 = extractvalue { i8*, i32 } %1, 1, !dbg !3227
  store i32 %3, i32* %ehselector.slot, align 4, !dbg !3227
  br label %ehcleanup, !dbg !3227

lpad3:                                            ; preds = %invoke.cont
  %4 = landingpad { i8*, i32 }
          cleanup, !dbg !3227
  %5 = extractvalue { i8*, i32 } %4, 0, !dbg !3227
  store i8* %5, i8** %exn.slot, align 8, !dbg !3227
  %6 = extractvalue { i8*, i32 } %4, 1, !dbg !3227
  store i32 %6, i32* %ehselector.slot, align 4, !dbg !3227
  call void @_ZNSt7__cxx1112basic_stringIcSt11char_traitsIcESaIcEED1Ev(%"class.std::__cxx11::basic_string"* %ref.tmp) #3, !dbg !3217
  br label %ehcleanup, !dbg !3217

ehcleanup:                                        ; preds = %lpad3, %lpad
  call void @_ZNSaIcED1Ev(%"class.std::allocator"* %ref.tmp2) #3, !dbg !3217
  br label %eh.resume, !dbg !3217

if.end:                                           ; preds = %invoke.cont4
  %call10 = call %"struct.std::pair"* @_ZNKSt23_Rb_tree_const_iteratorISt4pairIKNSt7__cxx1112basic_stringIcSt11char_traitsIcESaIcEEES6_EEptEv(%"struct.std::_Rb_tree_const_iterator"* %it) #3, !dbg !3228
  %second = getelementptr inbounds %"struct.std::pair", %"struct.std::pair"* %call10, i32 0, i32 1, !dbg !3229
  %call11 = call i8* @_ZNKSt7__cxx1112basic_stringIcSt11char_traitsIcESaIcEE5c_strEv(%"class.std::__cxx11::basic_string"* %second) #3, !dbg !3230
  store i8* %call11, i8** %retval, align 8, !dbg !3231
  br label %return, !dbg !3231

return:                                           ; preds = %if.end, %if.then
  %7 = load i8*, i8** %retval, align 8, !dbg !3227
  ret i8* %7, !dbg !3227

eh.resume:                                        ; preds = %ehcleanup
  %exn = load i8*, i8** %exn.slot, align 8, !dbg !3217
  %sel = load i32, i32* %ehselector.slot, align 4, !dbg !3217
  %lpad.val = insertvalue { i8*, i32 } undef, i8* %exn, 0, !dbg !3217
  %lpad.val12 = insertvalue { i8*, i32 } %lpad.val, i32 %sel, 1, !dbg !3217
  resume { i8*, i32 } %lpad.val12, !dbg !3217
}

; Function Attrs: noinline uwtable
define linkonce_odr dso_local %"struct.std::_Rb_tree_node_base"* @_ZNKSt3mapINSt7__cxx1112basic_stringIcSt11char_traitsIcESaIcEEES5_St4lessIS5_ESaISt4pairIKS5_S5_EEE4findERS9_(%"class.std::map"* %this, %"class.std::__cxx11::basic_string"* dereferenceable(32) %__x) #0 comdat align 2 !dbg !3232 {
entry:
  %retval = alloca %"struct.std::_Rb_tree_const_iterator", align 8
  %this.addr = alloca %"class.std::map"*, align 8
  %__x.addr = alloca %"class.std::__cxx11::basic_string"*, align 8
  store %"class.std::map"* %this, %"class.std::map"** %this.addr, align 8
  call void @llvm.dbg.declare(metadata %"class.std::map"** %this.addr, metadata !3233, metadata !DIExpression()), !dbg !3235
  store %"class.std::__cxx11::basic_string"* %__x, %"class.std::__cxx11::basic_string"** %__x.addr, align 8
  call void @llvm.dbg.declare(metadata %"class.std::__cxx11::basic_string"** %__x.addr, metadata !3236, metadata !DIExpression()), !dbg !3237
  %this1 = load %"class.std::map"*, %"class.std::map"** %this.addr, align 8
  %_M_t = getelementptr inbounds %"class.std::map", %"class.std::map"* %this1, i32 0, i32 0, !dbg !3238
  %0 = load %"class.std::__cxx11::basic_string"*, %"class.std::__cxx11::basic_string"** %__x.addr, align 8, !dbg !3239
  %call = call %"struct.std::_Rb_tree_node_base"* @_ZNKSt8_Rb_treeINSt7__cxx1112basic_stringIcSt11char_traitsIcESaIcEEESt4pairIKS5_S5_ESt10_Select1stIS8_ESt4lessIS5_ESaIS8_EE4findERS7_(%"class.std::_Rb_tree"* %_M_t, %"class.std::__cxx11::basic_string"* dereferenceable(32) %0), !dbg !3240
  %coerce.dive = getelementptr inbounds %"struct.std::_Rb_tree_const_iterator", %"struct.std::_Rb_tree_const_iterator"* %retval, i32 0, i32 0, !dbg !3240
  store %"struct.std::_Rb_tree_node_base"* %call, %"struct.std::_Rb_tree_node_base"** %coerce.dive, align 8, !dbg !3240
  %coerce.dive2 = getelementptr inbounds %"struct.std::_Rb_tree_const_iterator", %"struct.std::_Rb_tree_const_iterator"* %retval, i32 0, i32 0, !dbg !3241
  %1 = load %"struct.std::_Rb_tree_node_base"*, %"struct.std::_Rb_tree_node_base"** %coerce.dive2, align 8, !dbg !3241
  ret %"struct.std::_Rb_tree_node_base"* %1, !dbg !3241
}

; Function Attrs: nounwind
declare dso_local void @_ZNSaIcEC1Ev(%"class.std::allocator"*) unnamed_addr #2

declare dso_local void @_ZNSt7__cxx1112basic_stringIcSt11char_traitsIcESaIcEEC1EPKcRKS3_(%"class.std::__cxx11::basic_string"*, i8*, %"class.std::allocator"* dereferenceable(1)) unnamed_addr #1

; Function Attrs: nounwind
declare dso_local void @_ZNSaIcED1Ev(%"class.std::allocator"*) unnamed_addr #2

; Function Attrs: noinline nounwind uwtable
define linkonce_odr dso_local zeroext i1 @_ZSteqRKSt23_Rb_tree_const_iteratorISt4pairIKNSt7__cxx1112basic_stringIcSt11char_traitsIcESaIcEEES6_EESB_(%"struct.std::_Rb_tree_const_iterator"* dereferenceable(8) %__x, %"struct.std::_Rb_tree_const_iterator"* dereferenceable(8) %__y) #5 comdat !dbg !3242 {
entry:
  %__x.addr = alloca %"struct.std::_Rb_tree_const_iterator"*, align 8
  %__y.addr = alloca %"struct.std::_Rb_tree_const_iterator"*, align 8
  store %"struct.std::_Rb_tree_const_iterator"* %__x, %"struct.std::_Rb_tree_const_iterator"** %__x.addr, align 8
  call void @llvm.dbg.declare(metadata %"struct.std::_Rb_tree_const_iterator"** %__x.addr, metadata !3247, metadata !DIExpression()), !dbg !3248
  store %"struct.std::_Rb_tree_const_iterator"* %__y, %"struct.std::_Rb_tree_const_iterator"** %__y.addr, align 8
  call void @llvm.dbg.declare(metadata %"struct.std::_Rb_tree_const_iterator"** %__y.addr, metadata !3249, metadata !DIExpression()), !dbg !3250
  %0 = load %"struct.std::_Rb_tree_const_iterator"*, %"struct.std::_Rb_tree_const_iterator"** %__x.addr, align 8, !dbg !3251
  %_M_node = getelementptr inbounds %"struct.std::_Rb_tree_const_iterator", %"struct.std::_Rb_tree_const_iterator"* %0, i32 0, i32 0, !dbg !3252
  %1 = load %"struct.std::_Rb_tree_node_base"*, %"struct.std::_Rb_tree_node_base"** %_M_node, align 8, !dbg !3252
  %2 = load %"struct.std::_Rb_tree_const_iterator"*, %"struct.std::_Rb_tree_const_iterator"** %__y.addr, align 8, !dbg !3253
  %_M_node1 = getelementptr inbounds %"struct.std::_Rb_tree_const_iterator", %"struct.std::_Rb_tree_const_iterator"* %2, i32 0, i32 0, !dbg !3254
  %3 = load %"struct.std::_Rb_tree_node_base"*, %"struct.std::_Rb_tree_node_base"** %_M_node1, align 8, !dbg !3254
  %cmp = icmp eq %"struct.std::_Rb_tree_node_base"* %1, %3, !dbg !3255
  ret i1 %cmp, !dbg !3256
}

; Function Attrs: noinline nounwind uwtable
define linkonce_odr dso_local %"struct.std::_Rb_tree_node_base"* @_ZNKSt3mapINSt7__cxx1112basic_stringIcSt11char_traitsIcESaIcEEES5_St4lessIS5_ESaISt4pairIKS5_S5_EEE3endEv(%"class.std::map"* %this) #5 comdat align 2 !dbg !3257 {
entry:
  %retval = alloca %"struct.std::_Rb_tree_const_iterator", align 8
  %this.addr = alloca %"class.std::map"*, align 8
  store %"class.std::map"* %this, %"class.std::map"** %this.addr, align 8
  call void @llvm.dbg.declare(metadata %"class.std::map"** %this.addr, metadata !3258, metadata !DIExpression()), !dbg !3259
  %this1 = load %"class.std::map"*, %"class.std::map"** %this.addr, align 8
  %_M_t = getelementptr inbounds %"class.std::map", %"class.std::map"* %this1, i32 0, i32 0, !dbg !3260
  %call = call %"struct.std::_Rb_tree_node_base"* @_ZNKSt8_Rb_treeINSt7__cxx1112basic_stringIcSt11char_traitsIcESaIcEEESt4pairIKS5_S5_ESt10_Select1stIS8_ESt4lessIS5_ESaIS8_EE3endEv(%"class.std::_Rb_tree"* %_M_t) #3, !dbg !3261
  %coerce.dive = getelementptr inbounds %"struct.std::_Rb_tree_const_iterator", %"struct.std::_Rb_tree_const_iterator"* %retval, i32 0, i32 0, !dbg !3261
  store %"struct.std::_Rb_tree_node_base"* %call, %"struct.std::_Rb_tree_node_base"** %coerce.dive, align 8, !dbg !3261
  %coerce.dive2 = getelementptr inbounds %"struct.std::_Rb_tree_const_iterator", %"struct.std::_Rb_tree_const_iterator"* %retval, i32 0, i32 0, !dbg !3262
  %0 = load %"struct.std::_Rb_tree_node_base"*, %"struct.std::_Rb_tree_node_base"** %coerce.dive2, align 8, !dbg !3262
  ret %"struct.std::_Rb_tree_node_base"* %0, !dbg !3262
}

; Function Attrs: noinline nounwind uwtable
define linkonce_odr dso_local %"struct.std::pair"* @_ZNKSt23_Rb_tree_const_iteratorISt4pairIKNSt7__cxx1112basic_stringIcSt11char_traitsIcESaIcEEES6_EEptEv(%"struct.std::_Rb_tree_const_iterator"* %this) #5 comdat align 2 personality i8* bitcast (i32 (...)* @__gxx_personality_v0 to i8*) !dbg !3263 {
entry:
  %this.addr = alloca %"struct.std::_Rb_tree_const_iterator"*, align 8
  store %"struct.std::_Rb_tree_const_iterator"* %this, %"struct.std::_Rb_tree_const_iterator"** %this.addr, align 8
  call void @llvm.dbg.declare(metadata %"struct.std::_Rb_tree_const_iterator"** %this.addr, metadata !3264, metadata !DIExpression()), !dbg !3266
  %this1 = load %"struct.std::_Rb_tree_const_iterator"*, %"struct.std::_Rb_tree_const_iterator"** %this.addr, align 8
  %_M_node = getelementptr inbounds %"struct.std::_Rb_tree_const_iterator", %"struct.std::_Rb_tree_const_iterator"* %this1, i32 0, i32 0, !dbg !3267
  %0 = load %"struct.std::_Rb_tree_node_base"*, %"struct.std::_Rb_tree_node_base"** %_M_node, align 8, !dbg !3267
  %1 = bitcast %"struct.std::_Rb_tree_node_base"* %0 to %"struct.std::_Rb_tree_node"*, !dbg !3268
  %call = invoke %"struct.std::pair"* @_ZNKSt13_Rb_tree_nodeISt4pairIKNSt7__cxx1112basic_stringIcSt11char_traitsIcESaIcEEES6_EE9_M_valptrEv(%"struct.std::_Rb_tree_node"* %1)
          to label %invoke.cont unwind label %terminate.lpad, !dbg !3269

invoke.cont:                                      ; preds = %entry
  ret %"struct.std::pair"* %call, !dbg !3270

terminate.lpad:                                   ; preds = %entry
  %2 = landingpad { i8*, i32 }
          catch i8* null, !dbg !3269
  %3 = extractvalue { i8*, i32 } %2, 0, !dbg !3269
  call void @__clang_call_terminate(i8* %3) #13, !dbg !3269
  unreachable, !dbg !3269
}

; Function Attrs: noinline uwtable
define dso_local void @_ZN11cXMLElement12setAttributeEPKcS1_(%class.cXMLElement* %this, i8* %attr, i8* %value) unnamed_addr #0 align 2 personality i8* bitcast (i32 (...)* @__gxx_personality_v0 to i8*) !dbg !3271 {
entry:
  %this.addr = alloca %class.cXMLElement*, align 8
  %attr.addr = alloca i8*, align 8
  %value.addr = alloca i8*, align 8
  %ref.tmp = alloca %"class.std::__cxx11::basic_string", align 8
  %ref.tmp2 = alloca %"class.std::allocator", align 1
  %exn.slot = alloca i8*
  %ehselector.slot = alloca i32
  %ref.tmp3 = alloca %"class.std::__cxx11::basic_string", align 8
  %ref.tmp4 = alloca %"class.std::allocator", align 1
  store %class.cXMLElement* %this, %class.cXMLElement** %this.addr, align 8
  call void @llvm.dbg.declare(metadata %class.cXMLElement** %this.addr, metadata !3272, metadata !DIExpression()), !dbg !3273
  store i8* %attr, i8** %attr.addr, align 8
  call void @llvm.dbg.declare(metadata i8** %attr.addr, metadata !3274, metadata !DIExpression()), !dbg !3275
  store i8* %value, i8** %value.addr, align 8
  call void @llvm.dbg.declare(metadata i8** %value.addr, metadata !3276, metadata !DIExpression()), !dbg !3277
  %this1 = load %class.cXMLElement*, %class.cXMLElement** %this.addr, align 8
  %0 = load i8*, i8** %value.addr, align 8, !dbg !3278
  call void @_ZNSaIcEC1Ev(%"class.std::allocator"* %ref.tmp2) #3, !dbg !3279
  invoke void @_ZNSt7__cxx1112basic_stringIcSt11char_traitsIcESaIcEEC1EPKcRKS3_(%"class.std::__cxx11::basic_string"* %ref.tmp, i8* %0, %"class.std::allocator"* dereferenceable(1) %ref.tmp2)
          to label %invoke.cont unwind label %lpad, !dbg !3279

invoke.cont:                                      ; preds = %entry
  %attrs = getelementptr inbounds %class.cXMLElement, %class.cXMLElement* %this1, i32 0, i32 4, !dbg !3280
  %1 = load i8*, i8** %attr.addr, align 8, !dbg !3281
  call void @_ZNSaIcEC1Ev(%"class.std::allocator"* %ref.tmp4) #3, !dbg !3282
  invoke void @_ZNSt7__cxx1112basic_stringIcSt11char_traitsIcESaIcEEC1EPKcRKS3_(%"class.std::__cxx11::basic_string"* %ref.tmp3, i8* %1, %"class.std::allocator"* dereferenceable(1) %ref.tmp4)
          to label %invoke.cont6 unwind label %lpad5, !dbg !3282

invoke.cont6:                                     ; preds = %invoke.cont
  %call = invoke dereferenceable(32) %"class.std::__cxx11::basic_string"* @_ZNSt3mapINSt7__cxx1112basic_stringIcSt11char_traitsIcESaIcEEES5_St4lessIS5_ESaISt4pairIKS5_S5_EEEixEOS5_(%"class.std::map"* %attrs, %"class.std::__cxx11::basic_string"* dereferenceable(32) %ref.tmp3)
          to label %invoke.cont8 unwind label %lpad7, !dbg !3280

invoke.cont8:                                     ; preds = %invoke.cont6
  %call9 = call dereferenceable(32) %"class.std::__cxx11::basic_string"* @_ZNSt7__cxx1112basic_stringIcSt11char_traitsIcESaIcEEaSEOS4_(%"class.std::__cxx11::basic_string"* %call, %"class.std::__cxx11::basic_string"* dereferenceable(32) %ref.tmp) #3, !dbg !3283
  call void @_ZNSt7__cxx1112basic_stringIcSt11char_traitsIcESaIcEED1Ev(%"class.std::__cxx11::basic_string"* %ref.tmp3) #3, !dbg !3280
  call void @_ZNSaIcED1Ev(%"class.std::allocator"* %ref.tmp4) #3, !dbg !3280
  call void @_ZNSt7__cxx1112basic_stringIcSt11char_traitsIcESaIcEED1Ev(%"class.std::__cxx11::basic_string"* %ref.tmp) #3, !dbg !3280
  call void @_ZNSaIcED1Ev(%"class.std::allocator"* %ref.tmp2) #3, !dbg !3280
  ret void, !dbg !3284

lpad:                                             ; preds = %entry
  %2 = landingpad { i8*, i32 }
          cleanup, !dbg !3284
  %3 = extractvalue { i8*, i32 } %2, 0, !dbg !3284
  store i8* %3, i8** %exn.slot, align 8, !dbg !3284
  %4 = extractvalue { i8*, i32 } %2, 1, !dbg !3284
  store i32 %4, i32* %ehselector.slot, align 4, !dbg !3284
  br label %ehcleanup11, !dbg !3284

lpad5:                                            ; preds = %invoke.cont
  %5 = landingpad { i8*, i32 }
          cleanup, !dbg !3284
  %6 = extractvalue { i8*, i32 } %5, 0, !dbg !3284
  store i8* %6, i8** %exn.slot, align 8, !dbg !3284
  %7 = extractvalue { i8*, i32 } %5, 1, !dbg !3284
  store i32 %7, i32* %ehselector.slot, align 4, !dbg !3284
  br label %ehcleanup, !dbg !3284

lpad7:                                            ; preds = %invoke.cont6
  %8 = landingpad { i8*, i32 }
          cleanup, !dbg !3284
  %9 = extractvalue { i8*, i32 } %8, 0, !dbg !3284
  store i8* %9, i8** %exn.slot, align 8, !dbg !3284
  %10 = extractvalue { i8*, i32 } %8, 1, !dbg !3284
  store i32 %10, i32* %ehselector.slot, align 4, !dbg !3284
  call void @_ZNSt7__cxx1112basic_stringIcSt11char_traitsIcESaIcEED1Ev(%"class.std::__cxx11::basic_string"* %ref.tmp3) #3, !dbg !3280
  br label %ehcleanup, !dbg !3280

ehcleanup:                                        ; preds = %lpad7, %lpad5
  call void @_ZNSaIcED1Ev(%"class.std::allocator"* %ref.tmp4) #3, !dbg !3280
  call void @_ZNSt7__cxx1112basic_stringIcSt11char_traitsIcESaIcEED1Ev(%"class.std::__cxx11::basic_string"* %ref.tmp) #3, !dbg !3280
  br label %ehcleanup11, !dbg !3280

ehcleanup11:                                      ; preds = %ehcleanup, %lpad
  call void @_ZNSaIcED1Ev(%"class.std::allocator"* %ref.tmp2) #3, !dbg !3280
  br label %eh.resume, !dbg !3280

eh.resume:                                        ; preds = %ehcleanup11
  %exn = load i8*, i8** %exn.slot, align 8, !dbg !3280
  %sel = load i32, i32* %ehselector.slot, align 4, !dbg !3280
  %lpad.val = insertvalue { i8*, i32 } undef, i8* %exn, 0, !dbg !3280
  %lpad.val12 = insertvalue { i8*, i32 } %lpad.val, i32 %sel, 1, !dbg !3280
  resume { i8*, i32 } %lpad.val12, !dbg !3280
}

; Function Attrs: noinline uwtable
define linkonce_odr dso_local dereferenceable(32) %"class.std::__cxx11::basic_string"* @_ZNSt3mapINSt7__cxx1112basic_stringIcSt11char_traitsIcESaIcEEES5_St4lessIS5_ESaISt4pairIKS5_S5_EEEixEOS5_(%"class.std::map"* %this, %"class.std::__cxx11::basic_string"* dereferenceable(32) %__k) #0 comdat align 2 !dbg !3285 {
entry:
  %this.addr = alloca %"class.std::map"*, align 8
  %__k.addr = alloca %"class.std::__cxx11::basic_string"*, align 8
  %__i = alloca %"struct.std::_Rb_tree_iterator", align 8
  %ref.tmp = alloca %"struct.std::_Rb_tree_iterator", align 8
  %ref.tmp5 = alloca %"struct.std::less", align 1
  %undef.agg.tmp = alloca %"struct.std::less", align 1
  %ref.tmp8 = alloca %"struct.std::_Rb_tree_iterator", align 8
  %agg.tmp = alloca %"struct.std::_Rb_tree_const_iterator", align 8
  %ref.tmp9 = alloca %"class.std::tuple", align 8
  %ref.tmp11 = alloca %"class.std::tuple.8", align 1
  store %"class.std::map"* %this, %"class.std::map"** %this.addr, align 8
  call void @llvm.dbg.declare(metadata %"class.std::map"** %this.addr, metadata !3286, metadata !DIExpression()), !dbg !3287
  store %"class.std::__cxx11::basic_string"* %__k, %"class.std::__cxx11::basic_string"** %__k.addr, align 8
  call void @llvm.dbg.declare(metadata %"class.std::__cxx11::basic_string"** %__k.addr, metadata !3288, metadata !DIExpression()), !dbg !3289
  %this1 = load %"class.std::map"*, %"class.std::map"** %this.addr, align 8
  call void @llvm.dbg.declare(metadata %"struct.std::_Rb_tree_iterator"* %__i, metadata !3290, metadata !DIExpression()), !dbg !3291
  %0 = load %"class.std::__cxx11::basic_string"*, %"class.std::__cxx11::basic_string"** %__k.addr, align 8, !dbg !3292
  %call = call %"struct.std::_Rb_tree_node_base"* @_ZNSt3mapINSt7__cxx1112basic_stringIcSt11char_traitsIcESaIcEEES5_St4lessIS5_ESaISt4pairIKS5_S5_EEE11lower_boundERS9_(%"class.std::map"* %this1, %"class.std::__cxx11::basic_string"* dereferenceable(32) %0), !dbg !3293
  %coerce.dive = getelementptr inbounds %"struct.std::_Rb_tree_iterator", %"struct.std::_Rb_tree_iterator"* %__i, i32 0, i32 0, !dbg !3293
  store %"struct.std::_Rb_tree_node_base"* %call, %"struct.std::_Rb_tree_node_base"** %coerce.dive, align 8, !dbg !3293
  %call2 = call %"struct.std::_Rb_tree_node_base"* @_ZNSt3mapINSt7__cxx1112basic_stringIcSt11char_traitsIcESaIcEEES5_St4lessIS5_ESaISt4pairIKS5_S5_EEE3endEv(%"class.std::map"* %this1) #3, !dbg !3294
  %coerce.dive3 = getelementptr inbounds %"struct.std::_Rb_tree_iterator", %"struct.std::_Rb_tree_iterator"* %ref.tmp, i32 0, i32 0, !dbg !3294
  store %"struct.std::_Rb_tree_node_base"* %call2, %"struct.std::_Rb_tree_node_base"** %coerce.dive3, align 8, !dbg !3294
  %call4 = call zeroext i1 @_ZSteqRKSt17_Rb_tree_iteratorISt4pairIKNSt7__cxx1112basic_stringIcSt11char_traitsIcESaIcEEES6_EESB_(%"struct.std::_Rb_tree_iterator"* dereferenceable(8) %__i, %"struct.std::_Rb_tree_iterator"* dereferenceable(8) %ref.tmp) #3, !dbg !3296
  br i1 %call4, label %lor.end, label %lor.rhs, !dbg !3297

lor.rhs:                                          ; preds = %entry
  call void @_ZNKSt3mapINSt7__cxx1112basic_stringIcSt11char_traitsIcESaIcEEES5_St4lessIS5_ESaISt4pairIKS5_S5_EEE8key_compEv(%"class.std::map"* %this1), !dbg !3298
  %1 = load %"class.std::__cxx11::basic_string"*, %"class.std::__cxx11::basic_string"** %__k.addr, align 8, !dbg !3299
  %call6 = call dereferenceable(64) %"struct.std::pair"* @_ZNKSt17_Rb_tree_iteratorISt4pairIKNSt7__cxx1112basic_stringIcSt11char_traitsIcESaIcEEES6_EEdeEv(%"struct.std::_Rb_tree_iterator"* %__i) #3, !dbg !3300
  %first = getelementptr inbounds %"struct.std::pair", %"struct.std::pair"* %call6, i32 0, i32 0, !dbg !3301
  %call7 = call zeroext i1 @_ZNKSt4lessINSt7__cxx1112basic_stringIcSt11char_traitsIcESaIcEEEEclERKS5_S8_(%"struct.std::less"* %ref.tmp5, %"class.std::__cxx11::basic_string"* dereferenceable(32) %1, %"class.std::__cxx11::basic_string"* dereferenceable(32) %first), !dbg !3298
  br label %lor.end, !dbg !3297

lor.end:                                          ; preds = %lor.rhs, %entry
  %2 = phi i1 [ true, %entry ], [ %call7, %lor.rhs ]
  br i1 %2, label %if.then, label %if.end, !dbg !3302

if.then:                                          ; preds = %lor.end
  %_M_t = getelementptr inbounds %"class.std::map", %"class.std::map"* %this1, i32 0, i32 0, !dbg !3303
  call void @_ZNSt23_Rb_tree_const_iteratorISt4pairIKNSt7__cxx1112basic_stringIcSt11char_traitsIcESaIcEEES6_EEC2ERKSt17_Rb_tree_iteratorIS8_E(%"struct.std::_Rb_tree_const_iterator"* %agg.tmp, %"struct.std::_Rb_tree_iterator"* dereferenceable(8) %__i) #3, !dbg !3304
  %3 = load %"class.std::__cxx11::basic_string"*, %"class.std::__cxx11::basic_string"** %__k.addr, align 8, !dbg !3305
  %call10 = call dereferenceable(32) %"class.std::__cxx11::basic_string"* @_ZSt4moveIRNSt7__cxx1112basic_stringIcSt11char_traitsIcESaIcEEEEONSt16remove_referenceIT_E4typeEOS8_(%"class.std::__cxx11::basic_string"* dereferenceable(32) %3) #3, !dbg !3306
  call void @_ZSt16forward_as_tupleIJNSt7__cxx1112basic_stringIcSt11char_traitsIcESaIcEEEEESt5tupleIJDpOT_EES9_(%"class.std::tuple"* sret %ref.tmp9, %"class.std::__cxx11::basic_string"* dereferenceable(32) %call10) #3, !dbg !3307
  %coerce.dive12 = getelementptr inbounds %"struct.std::_Rb_tree_const_iterator", %"struct.std::_Rb_tree_const_iterator"* %agg.tmp, i32 0, i32 0, !dbg !3308
  %4 = load %"struct.std::_Rb_tree_node_base"*, %"struct.std::_Rb_tree_node_base"** %coerce.dive12, align 8, !dbg !3308
  %call13 = call %"struct.std::_Rb_tree_node_base"* @_ZNSt8_Rb_treeINSt7__cxx1112basic_stringIcSt11char_traitsIcESaIcEEESt4pairIKS5_S5_ESt10_Select1stIS8_ESt4lessIS5_ESaIS8_EE22_M_emplace_hint_uniqueIJRKSt21piecewise_construct_tSt5tupleIJOS5_EESJ_IJEEEEESt17_Rb_tree_iteratorIS8_ESt23_Rb_tree_const_iteratorIS8_EDpOT_(%"class.std::_Rb_tree"* %_M_t, %"struct.std::_Rb_tree_node_base"* %4, %"struct.std::piecewise_construct_t"* dereferenceable(1) @_ZStL19piecewise_construct, %"class.std::tuple"* dereferenceable(8) %ref.tmp9, %"class.std::tuple.8"* dereferenceable(1) %ref.tmp11), !dbg !3308
  %coerce.dive14 = getelementptr inbounds %"struct.std::_Rb_tree_iterator", %"struct.std::_Rb_tree_iterator"* %ref.tmp8, i32 0, i32 0, !dbg !3308
  store %"struct.std::_Rb_tree_node_base"* %call13, %"struct.std::_Rb_tree_node_base"** %coerce.dive14, align 8, !dbg !3308
  %5 = bitcast %"struct.std::_Rb_tree_iterator"* %__i to i8*, !dbg !3309
  %6 = bitcast %"struct.std::_Rb_tree_iterator"* %ref.tmp8 to i8*, !dbg !3309
  call void @llvm.memcpy.p0i8.p0i8.i64(i8* align 8 %5, i8* align 8 %6, i64 8, i1 false), !dbg !3309
  br label %if.end, !dbg !3310

if.end:                                           ; preds = %if.then, %lor.end
  %call15 = call dereferenceable(64) %"struct.std::pair"* @_ZNKSt17_Rb_tree_iteratorISt4pairIKNSt7__cxx1112basic_stringIcSt11char_traitsIcESaIcEEES6_EEdeEv(%"struct.std::_Rb_tree_iterator"* %__i) #3, !dbg !3311
  %second = getelementptr inbounds %"struct.std::pair", %"struct.std::pair"* %call15, i32 0, i32 1, !dbg !3312
  ret %"class.std::__cxx11::basic_string"* %second, !dbg !3313
}

; Function Attrs: nounwind
declare dso_local dereferenceable(32) %"class.std::__cxx11::basic_string"* @_ZNSt7__cxx1112basic_stringIcSt11char_traitsIcESaIcEEaSEOS4_(%"class.std::__cxx11::basic_string"*, %"class.std::__cxx11::basic_string"* dereferenceable(32)) #2

; Function Attrs: noinline nounwind uwtable
define dso_local %class.cXMLElement* @_ZNK11cXMLElement13getParentNodeEv(%class.cXMLElement* %this) unnamed_addr #5 align 2 !dbg !3314 {
entry:
  %this.addr = alloca %class.cXMLElement*, align 8
  store %class.cXMLElement* %this, %class.cXMLElement** %this.addr, align 8
  call void @llvm.dbg.declare(metadata %class.cXMLElement** %this.addr, metadata !3315, metadata !DIExpression()), !dbg !3316
  %this1 = load %class.cXMLElement*, %class.cXMLElement** %this.addr, align 8
  %parent = getelementptr inbounds %class.cXMLElement, %class.cXMLElement* %this1, i32 0, i32 5, !dbg !3317
  %0 = load %class.cXMLElement*, %class.cXMLElement** %parent, align 8, !dbg !3317
  ret %class.cXMLElement* %0, !dbg !3318
}

; Function Attrs: noinline nounwind uwtable
define dso_local %class.cXMLElement* @_ZNK11cXMLElement13getFirstChildEv(%class.cXMLElement* %this) unnamed_addr #5 align 2 !dbg !3319 {
entry:
  %this.addr = alloca %class.cXMLElement*, align 8
  store %class.cXMLElement* %this, %class.cXMLElement** %this.addr, align 8
  call void @llvm.dbg.declare(metadata %class.cXMLElement** %this.addr, metadata !3320, metadata !DIExpression()), !dbg !3321
  %this1 = load %class.cXMLElement*, %class.cXMLElement** %this.addr, align 8
  %firstchild = getelementptr inbounds %class.cXMLElement, %class.cXMLElement* %this1, i32 0, i32 6, !dbg !3322
  %0 = load %class.cXMLElement*, %class.cXMLElement** %firstchild, align 8, !dbg !3322
  ret %class.cXMLElement* %0, !dbg !3323
}

; Function Attrs: noinline nounwind uwtable
define dso_local %class.cXMLElement* @_ZNK11cXMLElement12getLastChildEv(%class.cXMLElement* %this) unnamed_addr #5 align 2 !dbg !3324 {
entry:
  %this.addr = alloca %class.cXMLElement*, align 8
  store %class.cXMLElement* %this, %class.cXMLElement** %this.addr, align 8
  call void @llvm.dbg.declare(metadata %class.cXMLElement** %this.addr, metadata !3325, metadata !DIExpression()), !dbg !3326
  %this1 = load %class.cXMLElement*, %class.cXMLElement** %this.addr, align 8
  %lastchild = getelementptr inbounds %class.cXMLElement, %class.cXMLElement* %this1, i32 0, i32 7, !dbg !3327
  %0 = load %class.cXMLElement*, %class.cXMLElement** %lastchild, align 8, !dbg !3327
  ret %class.cXMLElement* %0, !dbg !3328
}

; Function Attrs: noinline nounwind uwtable
define dso_local %class.cXMLElement* @_ZNK11cXMLElement14getNextSiblingEv(%class.cXMLElement* %this) unnamed_addr #5 align 2 !dbg !3329 {
entry:
  %this.addr = alloca %class.cXMLElement*, align 8
  store %class.cXMLElement* %this, %class.cXMLElement** %this.addr, align 8
  call void @llvm.dbg.declare(metadata %class.cXMLElement** %this.addr, metadata !3330, metadata !DIExpression()), !dbg !3331
  %this1 = load %class.cXMLElement*, %class.cXMLElement** %this.addr, align 8
  %nextsibling = getelementptr inbounds %class.cXMLElement, %class.cXMLElement* %this1, i32 0, i32 9, !dbg !3332
  %0 = load %class.cXMLElement*, %class.cXMLElement** %nextsibling, align 8, !dbg !3332
  ret %class.cXMLElement* %0, !dbg !3333
}

; Function Attrs: noinline nounwind uwtable
define dso_local %class.cXMLElement* @_ZNK11cXMLElement18getPreviousSiblingEv(%class.cXMLElement* %this) unnamed_addr #5 align 2 !dbg !3334 {
entry:
  %this.addr = alloca %class.cXMLElement*, align 8
  store %class.cXMLElement* %this, %class.cXMLElement** %this.addr, align 8
  call void @llvm.dbg.declare(metadata %class.cXMLElement** %this.addr, metadata !3335, metadata !DIExpression()), !dbg !3336
  %this1 = load %class.cXMLElement*, %class.cXMLElement** %this.addr, align 8
  %prevsibling = getelementptr inbounds %class.cXMLElement, %class.cXMLElement* %this1, i32 0, i32 8, !dbg !3337
  %0 = load %class.cXMLElement*, %class.cXMLElement** %prevsibling, align 8, !dbg !3337
  ret %class.cXMLElement* %0, !dbg !3338
}

; Function Attrs: noinline uwtable
define dso_local void @_ZN11cXMLElement11appendChildEPS_(%class.cXMLElement* %this, %class.cXMLElement* %node) unnamed_addr #0 align 2 !dbg !3339 {
entry:
  %this.addr = alloca %class.cXMLElement*, align 8
  %node.addr = alloca %class.cXMLElement*, align 8
  store %class.cXMLElement* %this, %class.cXMLElement** %this.addr, align 8
  call void @llvm.dbg.declare(metadata %class.cXMLElement** %this.addr, metadata !3340, metadata !DIExpression()), !dbg !3341
  store %class.cXMLElement* %node, %class.cXMLElement** %node.addr, align 8
  call void @llvm.dbg.declare(metadata %class.cXMLElement** %node.addr, metadata !3342, metadata !DIExpression()), !dbg !3343
  %this1 = load %class.cXMLElement*, %class.cXMLElement** %this.addr, align 8
  %0 = load %class.cXMLElement*, %class.cXMLElement** %node.addr, align 8, !dbg !3344
  %parent = getelementptr inbounds %class.cXMLElement, %class.cXMLElement* %0, i32 0, i32 5, !dbg !3346
  %1 = load %class.cXMLElement*, %class.cXMLElement** %parent, align 8, !dbg !3346
  %tobool = icmp ne %class.cXMLElement* %1, null, !dbg !3344
  br i1 %tobool, label %if.then, label %if.end, !dbg !3347

if.then:                                          ; preds = %entry
  %2 = load %class.cXMLElement*, %class.cXMLElement** %node.addr, align 8, !dbg !3348
  %parent2 = getelementptr inbounds %class.cXMLElement, %class.cXMLElement* %2, i32 0, i32 5, !dbg !3349
  %3 = load %class.cXMLElement*, %class.cXMLElement** %parent2, align 8, !dbg !3349
  %4 = load %class.cXMLElement*, %class.cXMLElement** %node.addr, align 8, !dbg !3350
  %5 = bitcast %class.cXMLElement* %3 to %class.cXMLElement* (%class.cXMLElement*, %class.cXMLElement*)***, !dbg !3351
  %vtable = load %class.cXMLElement* (%class.cXMLElement*, %class.cXMLElement*)**, %class.cXMLElement* (%class.cXMLElement*, %class.cXMLElement*)*** %5, align 8, !dbg !3351
  %vfn = getelementptr inbounds %class.cXMLElement* (%class.cXMLElement*, %class.cXMLElement*)*, %class.cXMLElement* (%class.cXMLElement*, %class.cXMLElement*)** %vtable, i64 7, !dbg !3351
  %6 = load %class.cXMLElement* (%class.cXMLElement*, %class.cXMLElement*)*, %class.cXMLElement* (%class.cXMLElement*, %class.cXMLElement*)** %vfn, align 8, !dbg !3351
  %call = call %class.cXMLElement* %6(%class.cXMLElement* %3, %class.cXMLElement* %4), !dbg !3351
  br label %if.end, !dbg !3348

if.end:                                           ; preds = %if.then, %entry
  %7 = load %class.cXMLElement*, %class.cXMLElement** %node.addr, align 8, !dbg !3352
  %parent3 = getelementptr inbounds %class.cXMLElement, %class.cXMLElement* %7, i32 0, i32 5, !dbg !3353
  store %class.cXMLElement* %this1, %class.cXMLElement** %parent3, align 8, !dbg !3354
  %lastchild = getelementptr inbounds %class.cXMLElement, %class.cXMLElement* %this1, i32 0, i32 7, !dbg !3355
  %8 = load %class.cXMLElement*, %class.cXMLElement** %lastchild, align 8, !dbg !3355
  %9 = load %class.cXMLElement*, %class.cXMLElement** %node.addr, align 8, !dbg !3356
  %prevsibling = getelementptr inbounds %class.cXMLElement, %class.cXMLElement* %9, i32 0, i32 8, !dbg !3357
  store %class.cXMLElement* %8, %class.cXMLElement** %prevsibling, align 8, !dbg !3358
  %10 = load %class.cXMLElement*, %class.cXMLElement** %node.addr, align 8, !dbg !3359
  %nextsibling = getelementptr inbounds %class.cXMLElement, %class.cXMLElement* %10, i32 0, i32 9, !dbg !3360
  store %class.cXMLElement* null, %class.cXMLElement** %nextsibling, align 8, !dbg !3361
  %11 = load %class.cXMLElement*, %class.cXMLElement** %node.addr, align 8, !dbg !3362
  %prevsibling4 = getelementptr inbounds %class.cXMLElement, %class.cXMLElement* %11, i32 0, i32 8, !dbg !3364
  %12 = load %class.cXMLElement*, %class.cXMLElement** %prevsibling4, align 8, !dbg !3364
  %tobool5 = icmp ne %class.cXMLElement* %12, null, !dbg !3362
  br i1 %tobool5, label %if.then6, label %if.else, !dbg !3365

if.then6:                                         ; preds = %if.end
  %13 = load %class.cXMLElement*, %class.cXMLElement** %node.addr, align 8, !dbg !3366
  %14 = load %class.cXMLElement*, %class.cXMLElement** %node.addr, align 8, !dbg !3367
  %prevsibling7 = getelementptr inbounds %class.cXMLElement, %class.cXMLElement* %14, i32 0, i32 8, !dbg !3368
  %15 = load %class.cXMLElement*, %class.cXMLElement** %prevsibling7, align 8, !dbg !3368
  %nextsibling8 = getelementptr inbounds %class.cXMLElement, %class.cXMLElement* %15, i32 0, i32 9, !dbg !3369
  store %class.cXMLElement* %13, %class.cXMLElement** %nextsibling8, align 8, !dbg !3370
  br label %if.end9, !dbg !3367

if.else:                                          ; preds = %if.end
  %16 = load %class.cXMLElement*, %class.cXMLElement** %node.addr, align 8, !dbg !3371
  %firstchild = getelementptr inbounds %class.cXMLElement, %class.cXMLElement* %this1, i32 0, i32 6, !dbg !3372
  store %class.cXMLElement* %16, %class.cXMLElement** %firstchild, align 8, !dbg !3373
  br label %if.end9

if.end9:                                          ; preds = %if.else, %if.then6
  %17 = load %class.cXMLElement*, %class.cXMLElement** %node.addr, align 8, !dbg !3374
  %lastchild10 = getelementptr inbounds %class.cXMLElement, %class.cXMLElement* %this1, i32 0, i32 7, !dbg !3375
  store %class.cXMLElement* %17, %class.cXMLElement** %lastchild10, align 8, !dbg !3376
  ret void, !dbg !3377
}

; Function Attrs: noinline uwtable
define dso_local void @_ZN11cXMLElement17insertChildBeforeEPS_S0_(%class.cXMLElement* %this, %class.cXMLElement* %where, %class.cXMLElement* %node) unnamed_addr #0 align 2 !dbg !3378 {
entry:
  %this.addr = alloca %class.cXMLElement*, align 8
  %where.addr = alloca %class.cXMLElement*, align 8
  %node.addr = alloca %class.cXMLElement*, align 8
  store %class.cXMLElement* %this, %class.cXMLElement** %this.addr, align 8
  call void @llvm.dbg.declare(metadata %class.cXMLElement** %this.addr, metadata !3379, metadata !DIExpression()), !dbg !3380
  store %class.cXMLElement* %where, %class.cXMLElement** %where.addr, align 8
  call void @llvm.dbg.declare(metadata %class.cXMLElement** %where.addr, metadata !3381, metadata !DIExpression()), !dbg !3382
  store %class.cXMLElement* %node, %class.cXMLElement** %node.addr, align 8
  call void @llvm.dbg.declare(metadata %class.cXMLElement** %node.addr, metadata !3383, metadata !DIExpression()), !dbg !3384
  %this1 = load %class.cXMLElement*, %class.cXMLElement** %this.addr, align 8
  %0 = load %class.cXMLElement*, %class.cXMLElement** %node.addr, align 8, !dbg !3385
  %parent = getelementptr inbounds %class.cXMLElement, %class.cXMLElement* %0, i32 0, i32 5, !dbg !3387
  %1 = load %class.cXMLElement*, %class.cXMLElement** %parent, align 8, !dbg !3387
  %tobool = icmp ne %class.cXMLElement* %1, null, !dbg !3385
  br i1 %tobool, label %if.then, label %if.end, !dbg !3388

if.then:                                          ; preds = %entry
  %2 = load %class.cXMLElement*, %class.cXMLElement** %node.addr, align 8, !dbg !3389
  %parent2 = getelementptr inbounds %class.cXMLElement, %class.cXMLElement* %2, i32 0, i32 5, !dbg !3390
  %3 = load %class.cXMLElement*, %class.cXMLElement** %parent2, align 8, !dbg !3390
  %4 = load %class.cXMLElement*, %class.cXMLElement** %node.addr, align 8, !dbg !3391
  %5 = bitcast %class.cXMLElement* %3 to %class.cXMLElement* (%class.cXMLElement*, %class.cXMLElement*)***, !dbg !3392
  %vtable = load %class.cXMLElement* (%class.cXMLElement*, %class.cXMLElement*)**, %class.cXMLElement* (%class.cXMLElement*, %class.cXMLElement*)*** %5, align 8, !dbg !3392
  %vfn = getelementptr inbounds %class.cXMLElement* (%class.cXMLElement*, %class.cXMLElement*)*, %class.cXMLElement* (%class.cXMLElement*, %class.cXMLElement*)** %vtable, i64 7, !dbg !3392
  %6 = load %class.cXMLElement* (%class.cXMLElement*, %class.cXMLElement*)*, %class.cXMLElement* (%class.cXMLElement*, %class.cXMLElement*)** %vfn, align 8, !dbg !3392
  %call = call %class.cXMLElement* %6(%class.cXMLElement* %3, %class.cXMLElement* %4), !dbg !3392
  br label %if.end, !dbg !3389

if.end:                                           ; preds = %if.then, %entry
  %7 = load %class.cXMLElement*, %class.cXMLElement** %node.addr, align 8, !dbg !3393
  %parent3 = getelementptr inbounds %class.cXMLElement, %class.cXMLElement* %7, i32 0, i32 5, !dbg !3394
  store %class.cXMLElement* %this1, %class.cXMLElement** %parent3, align 8, !dbg !3395
  %8 = load %class.cXMLElement*, %class.cXMLElement** %where.addr, align 8, !dbg !3396
  %prevsibling = getelementptr inbounds %class.cXMLElement, %class.cXMLElement* %8, i32 0, i32 8, !dbg !3397
  %9 = load %class.cXMLElement*, %class.cXMLElement** %prevsibling, align 8, !dbg !3397
  %10 = load %class.cXMLElement*, %class.cXMLElement** %node.addr, align 8, !dbg !3398
  %prevsibling4 = getelementptr inbounds %class.cXMLElement, %class.cXMLElement* %10, i32 0, i32 8, !dbg !3399
  store %class.cXMLElement* %9, %class.cXMLElement** %prevsibling4, align 8, !dbg !3400
  %11 = load %class.cXMLElement*, %class.cXMLElement** %where.addr, align 8, !dbg !3401
  %12 = load %class.cXMLElement*, %class.cXMLElement** %node.addr, align 8, !dbg !3402
  %nextsibling = getelementptr inbounds %class.cXMLElement, %class.cXMLElement* %12, i32 0, i32 9, !dbg !3403
  store %class.cXMLElement* %11, %class.cXMLElement** %nextsibling, align 8, !dbg !3404
  %13 = load %class.cXMLElement*, %class.cXMLElement** %node.addr, align 8, !dbg !3405
  %14 = load %class.cXMLElement*, %class.cXMLElement** %where.addr, align 8, !dbg !3406
  %prevsibling5 = getelementptr inbounds %class.cXMLElement, %class.cXMLElement* %14, i32 0, i32 8, !dbg !3407
  store %class.cXMLElement* %13, %class.cXMLElement** %prevsibling5, align 8, !dbg !3408
  %15 = load %class.cXMLElement*, %class.cXMLElement** %node.addr, align 8, !dbg !3409
  %prevsibling6 = getelementptr inbounds %class.cXMLElement, %class.cXMLElement* %15, i32 0, i32 8, !dbg !3411
  %16 = load %class.cXMLElement*, %class.cXMLElement** %prevsibling6, align 8, !dbg !3411
  %tobool7 = icmp ne %class.cXMLElement* %16, null, !dbg !3409
  br i1 %tobool7, label %if.then8, label %if.else, !dbg !3412

if.then8:                                         ; preds = %if.end
  %17 = load %class.cXMLElement*, %class.cXMLElement** %node.addr, align 8, !dbg !3413
  %18 = load %class.cXMLElement*, %class.cXMLElement** %node.addr, align 8, !dbg !3414
  %prevsibling9 = getelementptr inbounds %class.cXMLElement, %class.cXMLElement* %18, i32 0, i32 8, !dbg !3415
  %19 = load %class.cXMLElement*, %class.cXMLElement** %prevsibling9, align 8, !dbg !3415
  %nextsibling10 = getelementptr inbounds %class.cXMLElement, %class.cXMLElement* %19, i32 0, i32 9, !dbg !3416
  store %class.cXMLElement* %17, %class.cXMLElement** %nextsibling10, align 8, !dbg !3417
  br label %if.end11, !dbg !3414

if.else:                                          ; preds = %if.end
  %20 = load %class.cXMLElement*, %class.cXMLElement** %node.addr, align 8, !dbg !3418
  %firstchild = getelementptr inbounds %class.cXMLElement, %class.cXMLElement* %this1, i32 0, i32 6, !dbg !3419
  store %class.cXMLElement* %20, %class.cXMLElement** %firstchild, align 8, !dbg !3420
  br label %if.end11

if.end11:                                         ; preds = %if.else, %if.then8
  ret void, !dbg !3421
}

; Function Attrs: noinline nounwind uwtable
define dso_local %class.cXMLElement* @_ZN11cXMLElement11removeChildEPS_(%class.cXMLElement* %this, %class.cXMLElement* %node) unnamed_addr #5 align 2 !dbg !3422 {
entry:
  %this.addr = alloca %class.cXMLElement*, align 8
  %node.addr = alloca %class.cXMLElement*, align 8
  store %class.cXMLElement* %this, %class.cXMLElement** %this.addr, align 8
  call void @llvm.dbg.declare(metadata %class.cXMLElement** %this.addr, metadata !3423, metadata !DIExpression()), !dbg !3424
  store %class.cXMLElement* %node, %class.cXMLElement** %node.addr, align 8
  call void @llvm.dbg.declare(metadata %class.cXMLElement** %node.addr, metadata !3425, metadata !DIExpression()), !dbg !3426
  %this1 = load %class.cXMLElement*, %class.cXMLElement** %this.addr, align 8
  %0 = load %class.cXMLElement*, %class.cXMLElement** %node.addr, align 8, !dbg !3427
  %prevsibling = getelementptr inbounds %class.cXMLElement, %class.cXMLElement* %0, i32 0, i32 8, !dbg !3429
  %1 = load %class.cXMLElement*, %class.cXMLElement** %prevsibling, align 8, !dbg !3429
  %tobool = icmp ne %class.cXMLElement* %1, null, !dbg !3427
  br i1 %tobool, label %if.then, label %if.else, !dbg !3430

if.then:                                          ; preds = %entry
  %2 = load %class.cXMLElement*, %class.cXMLElement** %node.addr, align 8, !dbg !3431
  %nextsibling = getelementptr inbounds %class.cXMLElement, %class.cXMLElement* %2, i32 0, i32 9, !dbg !3432
  %3 = load %class.cXMLElement*, %class.cXMLElement** %nextsibling, align 8, !dbg !3432
  %4 = load %class.cXMLElement*, %class.cXMLElement** %node.addr, align 8, !dbg !3433
  %prevsibling2 = getelementptr inbounds %class.cXMLElement, %class.cXMLElement* %4, i32 0, i32 8, !dbg !3434
  %5 = load %class.cXMLElement*, %class.cXMLElement** %prevsibling2, align 8, !dbg !3434
  %nextsibling3 = getelementptr inbounds %class.cXMLElement, %class.cXMLElement* %5, i32 0, i32 9, !dbg !3435
  store %class.cXMLElement* %3, %class.cXMLElement** %nextsibling3, align 8, !dbg !3436
  br label %if.end, !dbg !3433

if.else:                                          ; preds = %entry
  %6 = load %class.cXMLElement*, %class.cXMLElement** %node.addr, align 8, !dbg !3437
  %nextsibling4 = getelementptr inbounds %class.cXMLElement, %class.cXMLElement* %6, i32 0, i32 9, !dbg !3438
  %7 = load %class.cXMLElement*, %class.cXMLElement** %nextsibling4, align 8, !dbg !3438
  %firstchild = getelementptr inbounds %class.cXMLElement, %class.cXMLElement* %this1, i32 0, i32 6, !dbg !3439
  store %class.cXMLElement* %7, %class.cXMLElement** %firstchild, align 8, !dbg !3440
  br label %if.end

if.end:                                           ; preds = %if.else, %if.then
  %8 = load %class.cXMLElement*, %class.cXMLElement** %node.addr, align 8, !dbg !3441
  %nextsibling5 = getelementptr inbounds %class.cXMLElement, %class.cXMLElement* %8, i32 0, i32 9, !dbg !3443
  %9 = load %class.cXMLElement*, %class.cXMLElement** %nextsibling5, align 8, !dbg !3443
  %tobool6 = icmp ne %class.cXMLElement* %9, null, !dbg !3441
  br i1 %tobool6, label %if.then7, label %if.else11, !dbg !3444

if.then7:                                         ; preds = %if.end
  %10 = load %class.cXMLElement*, %class.cXMLElement** %node.addr, align 8, !dbg !3445
  %prevsibling8 = getelementptr inbounds %class.cXMLElement, %class.cXMLElement* %10, i32 0, i32 8, !dbg !3446
  %11 = load %class.cXMLElement*, %class.cXMLElement** %prevsibling8, align 8, !dbg !3446
  %12 = load %class.cXMLElement*, %class.cXMLElement** %node.addr, align 8, !dbg !3447
  %nextsibling9 = getelementptr inbounds %class.cXMLElement, %class.cXMLElement* %12, i32 0, i32 9, !dbg !3448
  %13 = load %class.cXMLElement*, %class.cXMLElement** %nextsibling9, align 8, !dbg !3448
  %prevsibling10 = getelementptr inbounds %class.cXMLElement, %class.cXMLElement* %13, i32 0, i32 8, !dbg !3449
  store %class.cXMLElement* %11, %class.cXMLElement** %prevsibling10, align 8, !dbg !3450
  br label %if.end13, !dbg !3447

if.else11:                                        ; preds = %if.end
  %14 = load %class.cXMLElement*, %class.cXMLElement** %node.addr, align 8, !dbg !3451
  %prevsibling12 = getelementptr inbounds %class.cXMLElement, %class.cXMLElement* %14, i32 0, i32 8, !dbg !3452
  %15 = load %class.cXMLElement*, %class.cXMLElement** %prevsibling12, align 8, !dbg !3452
  %lastchild = getelementptr inbounds %class.cXMLElement, %class.cXMLElement* %this1, i32 0, i32 7, !dbg !3453
  store %class.cXMLElement* %15, %class.cXMLElement** %lastchild, align 8, !dbg !3454
  br label %if.end13

if.end13:                                         ; preds = %if.else11, %if.then7
  %16 = load %class.cXMLElement*, %class.cXMLElement** %node.addr, align 8, !dbg !3455
  %nextsibling14 = getelementptr inbounds %class.cXMLElement, %class.cXMLElement* %16, i32 0, i32 9, !dbg !3456
  store %class.cXMLElement* null, %class.cXMLElement** %nextsibling14, align 8, !dbg !3457
  %17 = load %class.cXMLElement*, %class.cXMLElement** %node.addr, align 8, !dbg !3458
  %prevsibling15 = getelementptr inbounds %class.cXMLElement, %class.cXMLElement* %17, i32 0, i32 8, !dbg !3459
  store %class.cXMLElement* null, %class.cXMLElement** %prevsibling15, align 8, !dbg !3460
  %18 = load %class.cXMLElement*, %class.cXMLElement** %node.addr, align 8, !dbg !3461
  %parent = getelementptr inbounds %class.cXMLElement, %class.cXMLElement* %18, i32 0, i32 5, !dbg !3462
  store %class.cXMLElement* null, %class.cXMLElement** %parent, align 8, !dbg !3463
  %19 = load %class.cXMLElement*, %class.cXMLElement** %node.addr, align 8, !dbg !3464
  ret %class.cXMLElement* %19, !dbg !3465
}

; Function Attrs: noinline nounwind uwtable
define dso_local zeroext i1 @_ZNK11cXMLElement11hasChildrenEv(%class.cXMLElement* %this) unnamed_addr #5 align 2 !dbg !3466 {
entry:
  %this.addr = alloca %class.cXMLElement*, align 8
  store %class.cXMLElement* %this, %class.cXMLElement** %this.addr, align 8
  call void @llvm.dbg.declare(metadata %class.cXMLElement** %this.addr, metadata !3467, metadata !DIExpression()), !dbg !3468
  %this1 = load %class.cXMLElement*, %class.cXMLElement** %this.addr, align 8
  %firstchild = getelementptr inbounds %class.cXMLElement, %class.cXMLElement* %this1, i32 0, i32 6, !dbg !3469
  %0 = load %class.cXMLElement*, %class.cXMLElement** %firstchild, align 8, !dbg !3469
  %cmp = icmp ne %class.cXMLElement* %0, null, !dbg !3470
  ret i1 %cmp, !dbg !3471
}

; Function Attrs: noinline nounwind uwtable
define dso_local zeroext i1 @_ZNK11cXMLElement13hasAttributesEv(%class.cXMLElement* %this) unnamed_addr #5 align 2 !dbg !3472 {
entry:
  %this.addr = alloca %class.cXMLElement*, align 8
  store %class.cXMLElement* %this, %class.cXMLElement** %this.addr, align 8
  call void @llvm.dbg.declare(metadata %class.cXMLElement** %this.addr, metadata !3473, metadata !DIExpression()), !dbg !3474
  %this1 = load %class.cXMLElement*, %class.cXMLElement** %this.addr, align 8
  %attrs = getelementptr inbounds %class.cXMLElement, %class.cXMLElement* %this1, i32 0, i32 4, !dbg !3475
  %call = call zeroext i1 @_ZNKSt3mapINSt7__cxx1112basic_stringIcSt11char_traitsIcESaIcEEES5_St4lessIS5_ESaISt4pairIKS5_S5_EEE5emptyEv(%"class.std::map"* %attrs) #3, !dbg !3476
  %lnot = xor i1 %call, true, !dbg !3477
  ret i1 %lnot, !dbg !3478
}

; Function Attrs: noinline nounwind uwtable
define linkonce_odr dso_local zeroext i1 @_ZNKSt3mapINSt7__cxx1112basic_stringIcSt11char_traitsIcESaIcEEES5_St4lessIS5_ESaISt4pairIKS5_S5_EEE5emptyEv(%"class.std::map"* %this) #5 comdat align 2 !dbg !3479 {
entry:
  %this.addr = alloca %"class.std::map"*, align 8
  store %"class.std::map"* %this, %"class.std::map"** %this.addr, align 8
  call void @llvm.dbg.declare(metadata %"class.std::map"** %this.addr, metadata !3480, metadata !DIExpression()), !dbg !3481
  %this1 = load %"class.std::map"*, %"class.std::map"** %this.addr, align 8
  %_M_t = getelementptr inbounds %"class.std::map", %"class.std::map"* %this1, i32 0, i32 0, !dbg !3482
  %call = call zeroext i1 @_ZNKSt8_Rb_treeINSt7__cxx1112basic_stringIcSt11char_traitsIcESaIcEEESt4pairIKS5_S5_ESt10_Select1stIS8_ESt4lessIS5_ESaIS8_EE5emptyEv(%"class.std::_Rb_tree"* %_M_t) #3, !dbg !3483
  ret i1 %call, !dbg !3484
}

; Function Attrs: noinline nounwind uwtable
define dso_local dereferenceable(48) %"class.std::map"* @_ZNK11cXMLElement13getAttributesB5cxx11Ev(%class.cXMLElement* %this) unnamed_addr #5 align 2 !dbg !3485 {
entry:
  %this.addr = alloca %class.cXMLElement*, align 8
  store %class.cXMLElement* %this, %class.cXMLElement** %this.addr, align 8
  call void @llvm.dbg.declare(metadata %class.cXMLElement** %this.addr, metadata !3486, metadata !DIExpression()), !dbg !3487
  %this1 = load %class.cXMLElement*, %class.cXMLElement** %this.addr, align 8
  %attrs = getelementptr inbounds %class.cXMLElement, %class.cXMLElement* %this1, i32 0, i32 4, !dbg !3488
  ret %"class.std::map"* %attrs, !dbg !3489
}

; Function Attrs: noinline uwtable
define dso_local %class.cXMLElement* @_ZNK11cXMLElement20getFirstChildWithTagEPKc(%class.cXMLElement* %this, i8* %tagname) unnamed_addr #0 align 2 !dbg !3490 {
entry:
  %retval = alloca %class.cXMLElement*, align 8
  %this.addr = alloca %class.cXMLElement*, align 8
  %tagname.addr = alloca i8*, align 8
  %node = alloca %class.cXMLElement*, align 8
  store %class.cXMLElement* %this, %class.cXMLElement** %this.addr, align 8
  call void @llvm.dbg.declare(metadata %class.cXMLElement** %this.addr, metadata !3491, metadata !DIExpression()), !dbg !3492
  store i8* %tagname, i8** %tagname.addr, align 8
  call void @llvm.dbg.declare(metadata i8** %tagname.addr, metadata !3493, metadata !DIExpression()), !dbg !3494
  %this1 = load %class.cXMLElement*, %class.cXMLElement** %this.addr, align 8
  call void @llvm.dbg.declare(metadata %class.cXMLElement** %node, metadata !3495, metadata !DIExpression()), !dbg !3496
  %0 = bitcast %class.cXMLElement* %this1 to %class.cXMLElement* (%class.cXMLElement*)***, !dbg !3497
  %vtable = load %class.cXMLElement* (%class.cXMLElement*)**, %class.cXMLElement* (%class.cXMLElement*)*** %0, align 8, !dbg !3497
  %vfn = getelementptr inbounds %class.cXMLElement* (%class.cXMLElement*)*, %class.cXMLElement* (%class.cXMLElement*)** %vtable, i64 16, !dbg !3497
  %1 = load %class.cXMLElement* (%class.cXMLElement*)*, %class.cXMLElement* (%class.cXMLElement*)** %vfn, align 8, !dbg !3497
  %call = call %class.cXMLElement* %1(%class.cXMLElement* %this1), !dbg !3497
  store %class.cXMLElement* %call, %class.cXMLElement** %node, align 8, !dbg !3496
  br label %while.cond, !dbg !3498

while.cond:                                       ; preds = %if.end, %entry
  %2 = load %class.cXMLElement*, %class.cXMLElement** %node, align 8, !dbg !3499
  %tobool = icmp ne %class.cXMLElement* %2, null, !dbg !3499
  br i1 %tobool, label %while.body, label %while.end, !dbg !3498

while.body:                                       ; preds = %while.cond
  %3 = load %class.cXMLElement*, %class.cXMLElement** %node, align 8, !dbg !3500
  %4 = bitcast %class.cXMLElement* %3 to i8* (%class.cXMLElement*)***, !dbg !3503
  %vtable2 = load i8* (%class.cXMLElement*)**, i8* (%class.cXMLElement*)*** %4, align 8, !dbg !3503
  %vfn3 = getelementptr inbounds i8* (%class.cXMLElement*)*, i8* (%class.cXMLElement*)** %vtable2, i64 8, !dbg !3503
  %5 = load i8* (%class.cXMLElement*)*, i8* (%class.cXMLElement*)** %vfn3, align 8, !dbg !3503
  %call4 = call i8* %5(%class.cXMLElement* %3), !dbg !3503
  %6 = load i8*, i8** %tagname.addr, align 8, !dbg !3504
  %call5 = call i32 @strcasecmp(i8* %call4, i8* %6) #15, !dbg !3505
  %tobool6 = icmp ne i32 %call5, 0, !dbg !3505
  br i1 %tobool6, label %if.end, label %if.then, !dbg !3506

if.then:                                          ; preds = %while.body
  %7 = load %class.cXMLElement*, %class.cXMLElement** %node, align 8, !dbg !3507
  store %class.cXMLElement* %7, %class.cXMLElement** %retval, align 8, !dbg !3508
  br label %return, !dbg !3508

if.end:                                           ; preds = %while.body
  %8 = load %class.cXMLElement*, %class.cXMLElement** %node, align 8, !dbg !3509
  %9 = bitcast %class.cXMLElement* %8 to %class.cXMLElement* (%class.cXMLElement*)***, !dbg !3510
  %vtable7 = load %class.cXMLElement* (%class.cXMLElement*)**, %class.cXMLElement* (%class.cXMLElement*)*** %9, align 8, !dbg !3510
  %vfn8 = getelementptr inbounds %class.cXMLElement* (%class.cXMLElement*)*, %class.cXMLElement* (%class.cXMLElement*)** %vtable7, i64 18, !dbg !3510
  %10 = load %class.cXMLElement* (%class.cXMLElement*)*, %class.cXMLElement* (%class.cXMLElement*)** %vfn8, align 8, !dbg !3510
  %call9 = call %class.cXMLElement* %10(%class.cXMLElement* %8), !dbg !3510
  store %class.cXMLElement* %call9, %class.cXMLElement** %node, align 8, !dbg !3511
  br label %while.cond, !dbg !3498, !llvm.loop !3512

while.end:                                        ; preds = %while.cond
  store %class.cXMLElement* null, %class.cXMLElement** %retval, align 8, !dbg !3514
  br label %return, !dbg !3514

return:                                           ; preds = %while.end, %if.then
  %11 = load %class.cXMLElement*, %class.cXMLElement** %retval, align 8, !dbg !3515
  ret %class.cXMLElement* %11, !dbg !3515
}

; Function Attrs: nounwind readonly
declare dso_local i32 @strcasecmp(i8*, i8*) #8

; Function Attrs: noinline uwtable
define dso_local %class.cXMLElement* @_ZNK11cXMLElement21getNextSiblingWithTagEPKc(%class.cXMLElement* %this, i8* %tagname) unnamed_addr #0 align 2 !dbg !3516 {
entry:
  %retval = alloca %class.cXMLElement*, align 8
  %this.addr = alloca %class.cXMLElement*, align 8
  %tagname.addr = alloca i8*, align 8
  %node = alloca %class.cXMLElement*, align 8
  store %class.cXMLElement* %this, %class.cXMLElement** %this.addr, align 8
  call void @llvm.dbg.declare(metadata %class.cXMLElement** %this.addr, metadata !3517, metadata !DIExpression()), !dbg !3518
  store i8* %tagname, i8** %tagname.addr, align 8
  call void @llvm.dbg.declare(metadata i8** %tagname.addr, metadata !3519, metadata !DIExpression()), !dbg !3520
  %this1 = load %class.cXMLElement*, %class.cXMLElement** %this.addr, align 8
  call void @llvm.dbg.declare(metadata %class.cXMLElement** %node, metadata !3521, metadata !DIExpression()), !dbg !3522
  %0 = bitcast %class.cXMLElement* %this1 to %class.cXMLElement* (%class.cXMLElement*)***, !dbg !3523
  %vtable = load %class.cXMLElement* (%class.cXMLElement*)**, %class.cXMLElement* (%class.cXMLElement*)*** %0, align 8, !dbg !3523
  %vfn = getelementptr inbounds %class.cXMLElement* (%class.cXMLElement*)*, %class.cXMLElement* (%class.cXMLElement*)** %vtable, i64 18, !dbg !3523
  %1 = load %class.cXMLElement* (%class.cXMLElement*)*, %class.cXMLElement* (%class.cXMLElement*)** %vfn, align 8, !dbg !3523
  %call = call %class.cXMLElement* %1(%class.cXMLElement* %this1), !dbg !3523
  store %class.cXMLElement* %call, %class.cXMLElement** %node, align 8, !dbg !3522
  br label %while.cond, !dbg !3524

while.cond:                                       ; preds = %if.end, %entry
  %2 = load %class.cXMLElement*, %class.cXMLElement** %node, align 8, !dbg !3525
  %tobool = icmp ne %class.cXMLElement* %2, null, !dbg !3525
  br i1 %tobool, label %while.body, label %while.end, !dbg !3524

while.body:                                       ; preds = %while.cond
  %3 = load %class.cXMLElement*, %class.cXMLElement** %node, align 8, !dbg !3526
  %4 = bitcast %class.cXMLElement* %3 to i8* (%class.cXMLElement*)***, !dbg !3529
  %vtable2 = load i8* (%class.cXMLElement*)**, i8* (%class.cXMLElement*)*** %4, align 8, !dbg !3529
  %vfn3 = getelementptr inbounds i8* (%class.cXMLElement*)*, i8* (%class.cXMLElement*)** %vtable2, i64 8, !dbg !3529
  %5 = load i8* (%class.cXMLElement*)*, i8* (%class.cXMLElement*)** %vfn3, align 8, !dbg !3529
  %call4 = call i8* %5(%class.cXMLElement* %3), !dbg !3529
  %6 = load i8*, i8** %tagname.addr, align 8, !dbg !3530
  %call5 = call i32 @strcasecmp(i8* %call4, i8* %6) #15, !dbg !3531
  %tobool6 = icmp ne i32 %call5, 0, !dbg !3531
  br i1 %tobool6, label %if.end, label %if.then, !dbg !3532

if.then:                                          ; preds = %while.body
  %7 = load %class.cXMLElement*, %class.cXMLElement** %node, align 8, !dbg !3533
  store %class.cXMLElement* %7, %class.cXMLElement** %retval, align 8, !dbg !3534
  br label %return, !dbg !3534

if.end:                                           ; preds = %while.body
  %8 = load %class.cXMLElement*, %class.cXMLElement** %node, align 8, !dbg !3535
  %9 = bitcast %class.cXMLElement* %8 to %class.cXMLElement* (%class.cXMLElement*)***, !dbg !3536
  %vtable7 = load %class.cXMLElement* (%class.cXMLElement*)**, %class.cXMLElement* (%class.cXMLElement*)*** %9, align 8, !dbg !3536
  %vfn8 = getelementptr inbounds %class.cXMLElement* (%class.cXMLElement*)*, %class.cXMLElement* (%class.cXMLElement*)** %vtable7, i64 18, !dbg !3536
  %10 = load %class.cXMLElement* (%class.cXMLElement*)*, %class.cXMLElement* (%class.cXMLElement*)** %vfn8, align 8, !dbg !3536
  %call9 = call %class.cXMLElement* %10(%class.cXMLElement* %8), !dbg !3536
  store %class.cXMLElement* %call9, %class.cXMLElement** %node, align 8, !dbg !3537
  br label %while.cond, !dbg !3524, !llvm.loop !3538

while.end:                                        ; preds = %while.cond
  store %class.cXMLElement* null, %class.cXMLElement** %retval, align 8, !dbg !3540
  br label %return, !dbg !3540

return:                                           ; preds = %while.end, %if.then
  %11 = load %class.cXMLElement*, %class.cXMLElement** %retval, align 8, !dbg !3541
  ret %class.cXMLElement* %11, !dbg !3541
}

; Function Attrs: noinline uwtable
define dso_local void @_ZNK11cXMLElement11getChildrenEv(%"class.std::vector"* noalias sret %agg.result, %class.cXMLElement* %this) unnamed_addr #0 align 2 personality i8* bitcast (i32 (...)* @__gxx_personality_v0 to i8*) !dbg !3542 {
entry:
  %result.ptr = alloca i8*, align 8
  %this.addr = alloca %class.cXMLElement*, align 8
  %nrvo = alloca i1, align 1
  %child = alloca %class.cXMLElement*, align 8
  %exn.slot = alloca i8*
  %ehselector.slot = alloca i32
  %0 = bitcast %"class.std::vector"* %agg.result to i8*
  store i8* %0, i8** %result.ptr, align 8
  store %class.cXMLElement* %this, %class.cXMLElement** %this.addr, align 8
  call void @llvm.dbg.declare(metadata %class.cXMLElement** %this.addr, metadata !3543, metadata !DIExpression()), !dbg !3544
  %this1 = load %class.cXMLElement*, %class.cXMLElement** %this.addr, align 8
  store i1 false, i1* %nrvo, align 1, !dbg !3545
  call void @llvm.dbg.declare(metadata i8** %result.ptr, metadata !3546, metadata !DIExpression(DW_OP_deref)), !dbg !3547
  call void @_ZNSt6vectorIP11cXMLElementSaIS1_EEC2Ev(%"class.std::vector"* %agg.result) #3, !dbg !3547
  call void @llvm.dbg.declare(metadata %class.cXMLElement** %child, metadata !3548, metadata !DIExpression()), !dbg !3550
  %1 = bitcast %class.cXMLElement* %this1 to %class.cXMLElement* (%class.cXMLElement*)***, !dbg !3551
  %vtable = load %class.cXMLElement* (%class.cXMLElement*)**, %class.cXMLElement* (%class.cXMLElement*)*** %1, align 8, !dbg !3551
  %vfn = getelementptr inbounds %class.cXMLElement* (%class.cXMLElement*)*, %class.cXMLElement* (%class.cXMLElement*)** %vtable, i64 16, !dbg !3551
  %2 = load %class.cXMLElement* (%class.cXMLElement*)*, %class.cXMLElement* (%class.cXMLElement*)** %vfn, align 8, !dbg !3551
  %call = invoke %class.cXMLElement* %2(%class.cXMLElement* %this1)
          to label %invoke.cont unwind label %lpad, !dbg !3551

invoke.cont:                                      ; preds = %entry
  store %class.cXMLElement* %call, %class.cXMLElement** %child, align 8, !dbg !3550
  br label %for.cond, !dbg !3552

for.cond:                                         ; preds = %invoke.cont5, %invoke.cont
  %3 = load %class.cXMLElement*, %class.cXMLElement** %child, align 8, !dbg !3553
  %tobool = icmp ne %class.cXMLElement* %3, null, !dbg !3553
  br i1 %tobool, label %for.body, label %for.end, !dbg !3555

for.body:                                         ; preds = %for.cond
  invoke void @_ZNSt6vectorIP11cXMLElementSaIS1_EE9push_backERKS1_(%"class.std::vector"* %agg.result, %class.cXMLElement** dereferenceable(8) %child)
          to label %invoke.cont2 unwind label %lpad, !dbg !3556

invoke.cont2:                                     ; preds = %for.body
  br label %for.inc, !dbg !3557

for.inc:                                          ; preds = %invoke.cont2
  %4 = load %class.cXMLElement*, %class.cXMLElement** %child, align 8, !dbg !3558
  %5 = bitcast %class.cXMLElement* %4 to %class.cXMLElement* (%class.cXMLElement*)***, !dbg !3559
  %vtable3 = load %class.cXMLElement* (%class.cXMLElement*)**, %class.cXMLElement* (%class.cXMLElement*)*** %5, align 8, !dbg !3559
  %vfn4 = getelementptr inbounds %class.cXMLElement* (%class.cXMLElement*)*, %class.cXMLElement* (%class.cXMLElement*)** %vtable3, i64 18, !dbg !3559
  %6 = load %class.cXMLElement* (%class.cXMLElement*)*, %class.cXMLElement* (%class.cXMLElement*)** %vfn4, align 8, !dbg !3559
  %call6 = invoke %class.cXMLElement* %6(%class.cXMLElement* %4)
          to label %invoke.cont5 unwind label %lpad, !dbg !3559

invoke.cont5:                                     ; preds = %for.inc
  store %class.cXMLElement* %call6, %class.cXMLElement** %child, align 8, !dbg !3560
  br label %for.cond, !dbg !3561, !llvm.loop !3562

lpad:                                             ; preds = %for.inc, %for.body, %entry
  %7 = landingpad { i8*, i32 }
          cleanup, !dbg !3564
  %8 = extractvalue { i8*, i32 } %7, 0, !dbg !3564
  store i8* %8, i8** %exn.slot, align 8, !dbg !3564
  %9 = extractvalue { i8*, i32 } %7, 1, !dbg !3564
  store i32 %9, i32* %ehselector.slot, align 4, !dbg !3564
  call void @_ZNSt6vectorIP11cXMLElementSaIS1_EED2Ev(%"class.std::vector"* %agg.result) #3, !dbg !3565
  br label %eh.resume, !dbg !3565

for.end:                                          ; preds = %for.cond
  store i1 true, i1* %nrvo, align 1, !dbg !3566
  %nrvo.val = load i1, i1* %nrvo, align 1, !dbg !3565
  br i1 %nrvo.val, label %nrvo.skipdtor, label %nrvo.unused, !dbg !3565

nrvo.unused:                                      ; preds = %for.end
  call void @_ZNSt6vectorIP11cXMLElementSaIS1_EED2Ev(%"class.std::vector"* %agg.result) #3, !dbg !3565
  br label %nrvo.skipdtor, !dbg !3565

nrvo.skipdtor:                                    ; preds = %nrvo.unused, %for.end
  ret void, !dbg !3565

eh.resume:                                        ; preds = %lpad
  %exn = load i8*, i8** %exn.slot, align 8, !dbg !3565
  %sel = load i32, i32* %ehselector.slot, align 4, !dbg !3565
  %lpad.val = insertvalue { i8*, i32 } undef, i8* %exn, 0, !dbg !3565
  %lpad.val7 = insertvalue { i8*, i32 } %lpad.val, i32 %sel, 1, !dbg !3565
  resume { i8*, i32 } %lpad.val7, !dbg !3565
}

; Function Attrs: noinline nounwind uwtable
define linkonce_odr dso_local void @_ZNSt6vectorIP11cXMLElementSaIS1_EEC2Ev(%"class.std::vector"* %this) unnamed_addr #5 comdat align 2 !dbg !3567 {
entry:
  %this.addr = alloca %"class.std::vector"*, align 8
  store %"class.std::vector"* %this, %"class.std::vector"** %this.addr, align 8
  call void @llvm.dbg.declare(metadata %"class.std::vector"** %this.addr, metadata !3568, metadata !DIExpression()), !dbg !3570
  %this1 = load %"class.std::vector"*, %"class.std::vector"** %this.addr, align 8
  %0 = bitcast %"class.std::vector"* %this1 to %"struct.std::_Vector_base"*, !dbg !3571
  call void @_ZNSt12_Vector_baseIP11cXMLElementSaIS1_EEC2Ev(%"struct.std::_Vector_base"* %0) #3, !dbg !3572
  ret void, !dbg !3571
}

; Function Attrs: noinline uwtable
define linkonce_odr dso_local void @_ZNSt6vectorIP11cXMLElementSaIS1_EE9push_backERKS1_(%"class.std::vector"* %this, %class.cXMLElement** dereferenceable(8) %__x) #0 comdat align 2 !dbg !3573 {
entry:
  %this.addr = alloca %"class.std::vector"*, align 8
  %__x.addr = alloca %class.cXMLElement**, align 8
  %agg.tmp = alloca %"class.__gnu_cxx::__normal_iterator", align 8
  store %"class.std::vector"* %this, %"class.std::vector"** %this.addr, align 8
  call void @llvm.dbg.declare(metadata %"class.std::vector"** %this.addr, metadata !3574, metadata !DIExpression()), !dbg !3575
  store %class.cXMLElement** %__x, %class.cXMLElement*** %__x.addr, align 8
  call void @llvm.dbg.declare(metadata %class.cXMLElement*** %__x.addr, metadata !3576, metadata !DIExpression()), !dbg !3577
  %this1 = load %"class.std::vector"*, %"class.std::vector"** %this.addr, align 8
  %0 = bitcast %"class.std::vector"* %this1 to %"struct.std::_Vector_base"*, !dbg !3578
  %_M_impl = getelementptr inbounds %"struct.std::_Vector_base", %"struct.std::_Vector_base"* %0, i32 0, i32 0, !dbg !3578
  %1 = bitcast %"struct.std::_Vector_base<cXMLElement *, std::allocator<cXMLElement *> >::_Vector_impl"* %_M_impl to %"struct.std::_Vector_base<cXMLElement *, std::allocator<cXMLElement *> >::_Vector_impl_data"*, !dbg !3580
  %_M_finish = getelementptr inbounds %"struct.std::_Vector_base<cXMLElement *, std::allocator<cXMLElement *> >::_Vector_impl_data", %"struct.std::_Vector_base<cXMLElement *, std::allocator<cXMLElement *> >::_Vector_impl_data"* %1, i32 0, i32 1, !dbg !3581
  %2 = load %class.cXMLElement**, %class.cXMLElement*** %_M_finish, align 8, !dbg !3581
  %3 = bitcast %"class.std::vector"* %this1 to %"struct.std::_Vector_base"*, !dbg !3582
  %_M_impl2 = getelementptr inbounds %"struct.std::_Vector_base", %"struct.std::_Vector_base"* %3, i32 0, i32 0, !dbg !3582
  %4 = bitcast %"struct.std::_Vector_base<cXMLElement *, std::allocator<cXMLElement *> >::_Vector_impl"* %_M_impl2 to %"struct.std::_Vector_base<cXMLElement *, std::allocator<cXMLElement *> >::_Vector_impl_data"*, !dbg !3583
  %_M_end_of_storage = getelementptr inbounds %"struct.std::_Vector_base<cXMLElement *, std::allocator<cXMLElement *> >::_Vector_impl_data", %"struct.std::_Vector_base<cXMLElement *, std::allocator<cXMLElement *> >::_Vector_impl_data"* %4, i32 0, i32 2, !dbg !3584
  %5 = load %class.cXMLElement**, %class.cXMLElement*** %_M_end_of_storage, align 8, !dbg !3584
  %cmp = icmp ne %class.cXMLElement** %2, %5, !dbg !3585
  br i1 %cmp, label %if.then, label %if.else, !dbg !3586

if.then:                                          ; preds = %entry
  %6 = bitcast %"class.std::vector"* %this1 to %"struct.std::_Vector_base"*, !dbg !3587
  %_M_impl3 = getelementptr inbounds %"struct.std::_Vector_base", %"struct.std::_Vector_base"* %6, i32 0, i32 0, !dbg !3587
  %7 = bitcast %"struct.std::_Vector_base<cXMLElement *, std::allocator<cXMLElement *> >::_Vector_impl"* %_M_impl3 to %"class.std::allocator.3"*, !dbg !3589
  %8 = bitcast %"class.std::vector"* %this1 to %"struct.std::_Vector_base"*, !dbg !3590
  %_M_impl4 = getelementptr inbounds %"struct.std::_Vector_base", %"struct.std::_Vector_base"* %8, i32 0, i32 0, !dbg !3590
  %9 = bitcast %"struct.std::_Vector_base<cXMLElement *, std::allocator<cXMLElement *> >::_Vector_impl"* %_M_impl4 to %"struct.std::_Vector_base<cXMLElement *, std::allocator<cXMLElement *> >::_Vector_impl_data"*, !dbg !3591
  %_M_finish5 = getelementptr inbounds %"struct.std::_Vector_base<cXMLElement *, std::allocator<cXMLElement *> >::_Vector_impl_data", %"struct.std::_Vector_base<cXMLElement *, std::allocator<cXMLElement *> >::_Vector_impl_data"* %9, i32 0, i32 1, !dbg !3592
  %10 = load %class.cXMLElement**, %class.cXMLElement*** %_M_finish5, align 8, !dbg !3592
  %11 = load %class.cXMLElement**, %class.cXMLElement*** %__x.addr, align 8, !dbg !3593
  call void @_ZNSt16allocator_traitsISaIP11cXMLElementEE9constructIS1_JRKS1_EEEvRS2_PT_DpOT0_(%"class.std::allocator.3"* dereferenceable(1) %7, %class.cXMLElement** %10, %class.cXMLElement** dereferenceable(8) %11) #3, !dbg !3594
  %12 = bitcast %"class.std::vector"* %this1 to %"struct.std::_Vector_base"*, !dbg !3595
  %_M_impl6 = getelementptr inbounds %"struct.std::_Vector_base", %"struct.std::_Vector_base"* %12, i32 0, i32 0, !dbg !3595
  %13 = bitcast %"struct.std::_Vector_base<cXMLElement *, std::allocator<cXMLElement *> >::_Vector_impl"* %_M_impl6 to %"struct.std::_Vector_base<cXMLElement *, std::allocator<cXMLElement *> >::_Vector_impl_data"*, !dbg !3596
  %_M_finish7 = getelementptr inbounds %"struct.std::_Vector_base<cXMLElement *, std::allocator<cXMLElement *> >::_Vector_impl_data", %"struct.std::_Vector_base<cXMLElement *, std::allocator<cXMLElement *> >::_Vector_impl_data"* %13, i32 0, i32 1, !dbg !3597
  %14 = load %class.cXMLElement**, %class.cXMLElement*** %_M_finish7, align 8, !dbg !3598
  %incdec.ptr = getelementptr inbounds %class.cXMLElement*, %class.cXMLElement** %14, i32 1, !dbg !3598
  store %class.cXMLElement** %incdec.ptr, %class.cXMLElement*** %_M_finish7, align 8, !dbg !3598
  br label %if.end, !dbg !3599

if.else:                                          ; preds = %entry
  %call = call %class.cXMLElement** @_ZNSt6vectorIP11cXMLElementSaIS1_EE3endEv(%"class.std::vector"* %this1) #3, !dbg !3600
  %coerce.dive = getelementptr inbounds %"class.__gnu_cxx::__normal_iterator", %"class.__gnu_cxx::__normal_iterator"* %agg.tmp, i32 0, i32 0, !dbg !3600
  store %class.cXMLElement** %call, %class.cXMLElement*** %coerce.dive, align 8, !dbg !3600
  %15 = load %class.cXMLElement**, %class.cXMLElement*** %__x.addr, align 8, !dbg !3601
  %coerce.dive8 = getelementptr inbounds %"class.__gnu_cxx::__normal_iterator", %"class.__gnu_cxx::__normal_iterator"* %agg.tmp, i32 0, i32 0, !dbg !3602
  %16 = load %class.cXMLElement**, %class.cXMLElement*** %coerce.dive8, align 8, !dbg !3602
  call void @_ZNSt6vectorIP11cXMLElementSaIS1_EE17_M_realloc_insertIJRKS1_EEEvN9__gnu_cxx17__normal_iteratorIPS1_S3_EEDpOT_(%"class.std::vector"* %this1, %class.cXMLElement** %16, %class.cXMLElement** dereferenceable(8) %15), !dbg !3602
  br label %if.end

if.end:                                           ; preds = %if.else, %if.then
  ret void, !dbg !3603
}

; Function Attrs: noinline nounwind uwtable
define linkonce_odr dso_local void @_ZNSt6vectorIP11cXMLElementSaIS1_EED2Ev(%"class.std::vector"* %this) unnamed_addr #5 comdat align 2 personality i8* bitcast (i32 (...)* @__gxx_personality_v0 to i8*) !dbg !3604 {
entry:
  %this.addr = alloca %"class.std::vector"*, align 8
  %exn.slot = alloca i8*
  %ehselector.slot = alloca i32
  store %"class.std::vector"* %this, %"class.std::vector"** %this.addr, align 8
  call void @llvm.dbg.declare(metadata %"class.std::vector"** %this.addr, metadata !3605, metadata !DIExpression()), !dbg !3606
  %this1 = load %"class.std::vector"*, %"class.std::vector"** %this.addr, align 8
  %0 = bitcast %"class.std::vector"* %this1 to %"struct.std::_Vector_base"*, !dbg !3607
  %_M_impl = getelementptr inbounds %"struct.std::_Vector_base", %"struct.std::_Vector_base"* %0, i32 0, i32 0, !dbg !3607
  %1 = bitcast %"struct.std::_Vector_base<cXMLElement *, std::allocator<cXMLElement *> >::_Vector_impl"* %_M_impl to %"struct.std::_Vector_base<cXMLElement *, std::allocator<cXMLElement *> >::_Vector_impl_data"*, !dbg !3609
  %_M_start = getelementptr inbounds %"struct.std::_Vector_base<cXMLElement *, std::allocator<cXMLElement *> >::_Vector_impl_data", %"struct.std::_Vector_base<cXMLElement *, std::allocator<cXMLElement *> >::_Vector_impl_data"* %1, i32 0, i32 0, !dbg !3610
  %2 = load %class.cXMLElement**, %class.cXMLElement*** %_M_start, align 8, !dbg !3610
  %3 = bitcast %"class.std::vector"* %this1 to %"struct.std::_Vector_base"*, !dbg !3611
  %_M_impl2 = getelementptr inbounds %"struct.std::_Vector_base", %"struct.std::_Vector_base"* %3, i32 0, i32 0, !dbg !3611
  %4 = bitcast %"struct.std::_Vector_base<cXMLElement *, std::allocator<cXMLElement *> >::_Vector_impl"* %_M_impl2 to %"struct.std::_Vector_base<cXMLElement *, std::allocator<cXMLElement *> >::_Vector_impl_data"*, !dbg !3612
  %_M_finish = getelementptr inbounds %"struct.std::_Vector_base<cXMLElement *, std::allocator<cXMLElement *> >::_Vector_impl_data", %"struct.std::_Vector_base<cXMLElement *, std::allocator<cXMLElement *> >::_Vector_impl_data"* %4, i32 0, i32 1, !dbg !3613
  %5 = load %class.cXMLElement**, %class.cXMLElement*** %_M_finish, align 8, !dbg !3613
  %6 = bitcast %"class.std::vector"* %this1 to %"struct.std::_Vector_base"*, !dbg !3614
  %call = call dereferenceable(1) %"class.std::allocator.3"* @_ZNSt12_Vector_baseIP11cXMLElementSaIS1_EE19_M_get_Tp_allocatorEv(%"struct.std::_Vector_base"* %6) #3, !dbg !3614
  invoke void @_ZSt8_DestroyIPP11cXMLElementS1_EvT_S3_RSaIT0_E(%class.cXMLElement** %2, %class.cXMLElement** %5, %"class.std::allocator.3"* dereferenceable(1) %call)
          to label %invoke.cont unwind label %lpad, !dbg !3615

invoke.cont:                                      ; preds = %entry
  %7 = bitcast %"class.std::vector"* %this1 to %"struct.std::_Vector_base"*, !dbg !3616
  call void @_ZNSt12_Vector_baseIP11cXMLElementSaIS1_EED2Ev(%"struct.std::_Vector_base"* %7) #3, !dbg !3616
  ret void, !dbg !3617

lpad:                                             ; preds = %entry
  %8 = landingpad { i8*, i32 }
          catch i8* null, !dbg !3616
  %9 = extractvalue { i8*, i32 } %8, 0, !dbg !3616
  store i8* %9, i8** %exn.slot, align 8, !dbg !3616
  %10 = extractvalue { i8*, i32 } %8, 1, !dbg !3616
  store i32 %10, i32* %ehselector.slot, align 4, !dbg !3616
  %11 = bitcast %"class.std::vector"* %this1 to %"struct.std::_Vector_base"*, !dbg !3616
  call void @_ZNSt12_Vector_baseIP11cXMLElementSaIS1_EED2Ev(%"struct.std::_Vector_base"* %11) #3, !dbg !3616
  br label %terminate.handler, !dbg !3616

terminate.handler:                                ; preds = %lpad
  %exn = load i8*, i8** %exn.slot, align 8, !dbg !3616
  call void @__clang_call_terminate(i8* %exn) #13, !dbg !3616
  unreachable, !dbg !3616
}

; Function Attrs: noinline uwtable
define dso_local void @_ZNK11cXMLElement20getChildrenByTagNameEPKc(%"class.std::vector"* noalias sret %agg.result, %class.cXMLElement* %this, i8* %tagname) unnamed_addr #0 align 2 personality i8* bitcast (i32 (...)* @__gxx_personality_v0 to i8*) !dbg !3618 {
entry:
  %result.ptr = alloca i8*, align 8
  %this.addr = alloca %class.cXMLElement*, align 8
  %tagname.addr = alloca i8*, align 8
  %nrvo = alloca i1, align 1
  %child = alloca %class.cXMLElement*, align 8
  %exn.slot = alloca i8*
  %ehselector.slot = alloca i32
  %0 = bitcast %"class.std::vector"* %agg.result to i8*
  store i8* %0, i8** %result.ptr, align 8
  store %class.cXMLElement* %this, %class.cXMLElement** %this.addr, align 8
  call void @llvm.dbg.declare(metadata %class.cXMLElement** %this.addr, metadata !3619, metadata !DIExpression()), !dbg !3620
  store i8* %tagname, i8** %tagname.addr, align 8
  call void @llvm.dbg.declare(metadata i8** %tagname.addr, metadata !3621, metadata !DIExpression()), !dbg !3622
  %this1 = load %class.cXMLElement*, %class.cXMLElement** %this.addr, align 8
  store i1 false, i1* %nrvo, align 1, !dbg !3623
  call void @llvm.dbg.declare(metadata i8** %result.ptr, metadata !3624, metadata !DIExpression(DW_OP_deref)), !dbg !3625
  call void @_ZNSt6vectorIP11cXMLElementSaIS1_EEC2Ev(%"class.std::vector"* %agg.result) #3, !dbg !3625
  call void @llvm.dbg.declare(metadata %class.cXMLElement** %child, metadata !3626, metadata !DIExpression()), !dbg !3628
  %1 = bitcast %class.cXMLElement* %this1 to %class.cXMLElement* (%class.cXMLElement*)***, !dbg !3629
  %vtable = load %class.cXMLElement* (%class.cXMLElement*)**, %class.cXMLElement* (%class.cXMLElement*)*** %1, align 8, !dbg !3629
  %vfn = getelementptr inbounds %class.cXMLElement* (%class.cXMLElement*)*, %class.cXMLElement* (%class.cXMLElement*)** %vtable, i64 16, !dbg !3629
  %2 = load %class.cXMLElement* (%class.cXMLElement*)*, %class.cXMLElement* (%class.cXMLElement*)** %vfn, align 8, !dbg !3629
  %call = invoke %class.cXMLElement* %2(%class.cXMLElement* %this1)
          to label %invoke.cont unwind label %lpad, !dbg !3629

invoke.cont:                                      ; preds = %entry
  store %class.cXMLElement* %call, %class.cXMLElement** %child, align 8, !dbg !3628
  br label %for.cond, !dbg !3630

for.cond:                                         ; preds = %invoke.cont11, %invoke.cont
  %3 = load %class.cXMLElement*, %class.cXMLElement** %child, align 8, !dbg !3631
  %tobool = icmp ne %class.cXMLElement* %3, null, !dbg !3631
  br i1 %tobool, label %for.body, label %for.end, !dbg !3633

for.body:                                         ; preds = %for.cond
  %4 = load %class.cXMLElement*, %class.cXMLElement** %child, align 8, !dbg !3634
  %5 = bitcast %class.cXMLElement* %4 to i8* (%class.cXMLElement*)***, !dbg !3636
  %vtable2 = load i8* (%class.cXMLElement*)**, i8* (%class.cXMLElement*)*** %5, align 8, !dbg !3636
  %vfn3 = getelementptr inbounds i8* (%class.cXMLElement*)*, i8* (%class.cXMLElement*)** %vtable2, i64 8, !dbg !3636
  %6 = load i8* (%class.cXMLElement*)*, i8* (%class.cXMLElement*)** %vfn3, align 8, !dbg !3636
  %call5 = invoke i8* %6(%class.cXMLElement* %4)
          to label %invoke.cont4 unwind label %lpad, !dbg !3636

invoke.cont4:                                     ; preds = %for.body
  %7 = load i8*, i8** %tagname.addr, align 8, !dbg !3637
  %call6 = call i32 @strcasecmp(i8* %call5, i8* %7) #15, !dbg !3638
  %tobool7 = icmp ne i32 %call6, 0, !dbg !3638
  br i1 %tobool7, label %if.end, label %if.then, !dbg !3639

if.then:                                          ; preds = %invoke.cont4
  invoke void @_ZNSt6vectorIP11cXMLElementSaIS1_EE9push_backERKS1_(%"class.std::vector"* %agg.result, %class.cXMLElement** dereferenceable(8) %child)
          to label %invoke.cont8 unwind label %lpad, !dbg !3640

invoke.cont8:                                     ; preds = %if.then
  br label %if.end, !dbg !3641

lpad:                                             ; preds = %for.inc, %if.then, %for.body, %entry
  %8 = landingpad { i8*, i32 }
          cleanup, !dbg !3642
  %9 = extractvalue { i8*, i32 } %8, 0, !dbg !3642
  store i8* %9, i8** %exn.slot, align 8, !dbg !3642
  %10 = extractvalue { i8*, i32 } %8, 1, !dbg !3642
  store i32 %10, i32* %ehselector.slot, align 4, !dbg !3642
  call void @_ZNSt6vectorIP11cXMLElementSaIS1_EED2Ev(%"class.std::vector"* %agg.result) #3, !dbg !3643
  br label %eh.resume, !dbg !3643

if.end:                                           ; preds = %invoke.cont8, %invoke.cont4
  br label %for.inc, !dbg !3644

for.inc:                                          ; preds = %if.end
  %11 = load %class.cXMLElement*, %class.cXMLElement** %child, align 8, !dbg !3645
  %12 = bitcast %class.cXMLElement* %11 to %class.cXMLElement* (%class.cXMLElement*)***, !dbg !3646
  %vtable9 = load %class.cXMLElement* (%class.cXMLElement*)**, %class.cXMLElement* (%class.cXMLElement*)*** %12, align 8, !dbg !3646
  %vfn10 = getelementptr inbounds %class.cXMLElement* (%class.cXMLElement*)*, %class.cXMLElement* (%class.cXMLElement*)** %vtable9, i64 18, !dbg !3646
  %13 = load %class.cXMLElement* (%class.cXMLElement*)*, %class.cXMLElement* (%class.cXMLElement*)** %vfn10, align 8, !dbg !3646
  %call12 = invoke %class.cXMLElement* %13(%class.cXMLElement* %11)
          to label %invoke.cont11 unwind label %lpad, !dbg !3646

invoke.cont11:                                    ; preds = %for.inc
  store %class.cXMLElement* %call12, %class.cXMLElement** %child, align 8, !dbg !3647
  br label %for.cond, !dbg !3648, !llvm.loop !3649

for.end:                                          ; preds = %for.cond
  store i1 true, i1* %nrvo, align 1, !dbg !3651
  %nrvo.val = load i1, i1* %nrvo, align 1, !dbg !3643
  br i1 %nrvo.val, label %nrvo.skipdtor, label %nrvo.unused, !dbg !3643

nrvo.unused:                                      ; preds = %for.end
  call void @_ZNSt6vectorIP11cXMLElementSaIS1_EED2Ev(%"class.std::vector"* %agg.result) #3, !dbg !3643
  br label %nrvo.skipdtor, !dbg !3643

nrvo.skipdtor:                                    ; preds = %nrvo.unused, %for.end
  ret void, !dbg !3643

eh.resume:                                        ; preds = %lpad
  %exn = load i8*, i8** %exn.slot, align 8, !dbg !3643
  %sel = load i32, i32* %ehselector.slot, align 4, !dbg !3643
  %lpad.val = insertvalue { i8*, i32 } undef, i8* %exn, 0, !dbg !3643
  %lpad.val13 = insertvalue { i8*, i32 } %lpad.val, i32 %sel, 1, !dbg !3643
  resume { i8*, i32 } %lpad.val13, !dbg !3643
}

; Function Attrs: noinline uwtable
define dso_local void @_ZNK11cXMLElement20getElementsByTagNameEPKc(%"class.std::vector"* noalias sret %agg.result, %class.cXMLElement* %this, i8* %tagname) unnamed_addr #0 align 2 personality i8* bitcast (i32 (...)* @__gxx_personality_v0 to i8*) !dbg !3652 {
entry:
  %result.ptr = alloca i8*, align 8
  %this.addr = alloca %class.cXMLElement*, align 8
  %tagname.addr = alloca i8*, align 8
  %nrvo = alloca i1, align 1
  %exn.slot = alloca i8*
  %ehselector.slot = alloca i32
  %ref.tmp = alloca %class.cXMLElement*, align 8
  %0 = bitcast %"class.std::vector"* %agg.result to i8*
  store i8* %0, i8** %result.ptr, align 8
  store %class.cXMLElement* %this, %class.cXMLElement** %this.addr, align 8
  call void @llvm.dbg.declare(metadata %class.cXMLElement** %this.addr, metadata !3653, metadata !DIExpression()), !dbg !3654
  store i8* %tagname, i8** %tagname.addr, align 8
  call void @llvm.dbg.declare(metadata i8** %tagname.addr, metadata !3655, metadata !DIExpression()), !dbg !3656
  %this1 = load %class.cXMLElement*, %class.cXMLElement** %this.addr, align 8
  store i1 false, i1* %nrvo, align 1, !dbg !3657
  call void @llvm.dbg.declare(metadata i8** %result.ptr, metadata !3658, metadata !DIExpression(DW_OP_deref)), !dbg !3659
  call void @_ZNSt6vectorIP11cXMLElementSaIS1_EEC2Ev(%"class.std::vector"* %agg.result) #3, !dbg !3659
  %1 = bitcast %class.cXMLElement* %this1 to i8* (%class.cXMLElement*)***, !dbg !3660
  %vtable = load i8* (%class.cXMLElement*)**, i8* (%class.cXMLElement*)*** %1, align 8, !dbg !3660
  %vfn = getelementptr inbounds i8* (%class.cXMLElement*)*, i8* (%class.cXMLElement*)** %vtable, i64 8, !dbg !3660
  %2 = load i8* (%class.cXMLElement*)*, i8* (%class.cXMLElement*)** %vfn, align 8, !dbg !3660
  %call = invoke i8* %2(%class.cXMLElement* %this1)
          to label %invoke.cont unwind label %lpad, !dbg !3660

invoke.cont:                                      ; preds = %entry
  %3 = load i8*, i8** %tagname.addr, align 8, !dbg !3662
  %call2 = call i32 @strcasecmp(i8* %call, i8* %3) #15, !dbg !3663
  %tobool = icmp ne i32 %call2, 0, !dbg !3663
  br i1 %tobool, label %if.end, label %if.then, !dbg !3664

if.then:                                          ; preds = %invoke.cont
  store %class.cXMLElement* %this1, %class.cXMLElement** %ref.tmp, align 8, !dbg !3665
  invoke void @_ZNSt6vectorIP11cXMLElementSaIS1_EE9push_backEOS1_(%"class.std::vector"* %agg.result, %class.cXMLElement** dereferenceable(8) %ref.tmp)
          to label %invoke.cont3 unwind label %lpad, !dbg !3666

invoke.cont3:                                     ; preds = %if.then
  br label %if.end, !dbg !3667

lpad:                                             ; preds = %if.end, %if.then, %entry
  %4 = landingpad { i8*, i32 }
          cleanup, !dbg !3668
  %5 = extractvalue { i8*, i32 } %4, 0, !dbg !3668
  store i8* %5, i8** %exn.slot, align 8, !dbg !3668
  %6 = extractvalue { i8*, i32 } %4, 1, !dbg !3668
  store i32 %6, i32* %ehselector.slot, align 4, !dbg !3668
  call void @_ZNSt6vectorIP11cXMLElementSaIS1_EED2Ev(%"class.std::vector"* %agg.result) #3, !dbg !3669
  br label %eh.resume, !dbg !3669

if.end:                                           ; preds = %invoke.cont3, %invoke.cont
  %7 = load i8*, i8** %tagname.addr, align 8, !dbg !3670
  invoke void @_ZNK11cXMLElement22doGetElementsByTagNameEPKcRSt6vectorIPS_SaIS3_EE(%class.cXMLElement* %this1, i8* %7, %"class.std::vector"* dereferenceable(24) %agg.result)
          to label %invoke.cont4 unwind label %lpad, !dbg !3671

invoke.cont4:                                     ; preds = %if.end
  store i1 true, i1* %nrvo, align 1, !dbg !3672
  %nrvo.val = load i1, i1* %nrvo, align 1, !dbg !3669
  br i1 %nrvo.val, label %nrvo.skipdtor, label %nrvo.unused, !dbg !3669

nrvo.unused:                                      ; preds = %invoke.cont4
  call void @_ZNSt6vectorIP11cXMLElementSaIS1_EED2Ev(%"class.std::vector"* %agg.result) #3, !dbg !3669
  br label %nrvo.skipdtor, !dbg !3669

nrvo.skipdtor:                                    ; preds = %nrvo.unused, %invoke.cont4
  ret void, !dbg !3669

eh.resume:                                        ; preds = %lpad
  %exn = load i8*, i8** %exn.slot, align 8, !dbg !3669
  %sel = load i32, i32* %ehselector.slot, align 4, !dbg !3669
  %lpad.val = insertvalue { i8*, i32 } undef, i8* %exn, 0, !dbg !3669
  %lpad.val5 = insertvalue { i8*, i32 } %lpad.val, i32 %sel, 1, !dbg !3669
  resume { i8*, i32 } %lpad.val5, !dbg !3669
}

; Function Attrs: noinline uwtable
define linkonce_odr dso_local void @_ZNSt6vectorIP11cXMLElementSaIS1_EE9push_backEOS1_(%"class.std::vector"* %this, %class.cXMLElement** dereferenceable(8) %__x) #0 comdat align 2 !dbg !3673 {
entry:
  %this.addr = alloca %"class.std::vector"*, align 8
  %__x.addr = alloca %class.cXMLElement**, align 8
  store %"class.std::vector"* %this, %"class.std::vector"** %this.addr, align 8
  call void @llvm.dbg.declare(metadata %"class.std::vector"** %this.addr, metadata !3674, metadata !DIExpression()), !dbg !3675
  store %class.cXMLElement** %__x, %class.cXMLElement*** %__x.addr, align 8
  call void @llvm.dbg.declare(metadata %class.cXMLElement*** %__x.addr, metadata !3676, metadata !DIExpression()), !dbg !3677
  %this1 = load %"class.std::vector"*, %"class.std::vector"** %this.addr, align 8
  %0 = load %class.cXMLElement**, %class.cXMLElement*** %__x.addr, align 8, !dbg !3678
  %call = call dereferenceable(8) %class.cXMLElement** @_ZSt4moveIRP11cXMLElementEONSt16remove_referenceIT_E4typeEOS4_(%class.cXMLElement** dereferenceable(8) %0) #3, !dbg !3679
  call void @_ZNSt6vectorIP11cXMLElementSaIS1_EE12emplace_backIJS1_EEEvDpOT_(%"class.std::vector"* %this1, %class.cXMLElement** dereferenceable(8) %call), !dbg !3680
  ret void, !dbg !3681
}

; Function Attrs: noinline uwtable
define dso_local void @_ZNK11cXMLElement22doGetElementsByTagNameEPKcRSt6vectorIPS_SaIS3_EE(%class.cXMLElement* %this, i8* %tagname, %"class.std::vector"* dereferenceable(24) %list) #0 align 2 !dbg !3682 {
entry:
  %this.addr = alloca %class.cXMLElement*, align 8
  %tagname.addr = alloca i8*, align 8
  %list.addr = alloca %"class.std::vector"*, align 8
  %child = alloca %class.cXMLElement*, align 8
  store %class.cXMLElement* %this, %class.cXMLElement** %this.addr, align 8
  call void @llvm.dbg.declare(metadata %class.cXMLElement** %this.addr, metadata !3683, metadata !DIExpression()), !dbg !3684
  store i8* %tagname, i8** %tagname.addr, align 8
  call void @llvm.dbg.declare(metadata i8** %tagname.addr, metadata !3685, metadata !DIExpression()), !dbg !3686
  store %"class.std::vector"* %list, %"class.std::vector"** %list.addr, align 8
  call void @llvm.dbg.declare(metadata %"class.std::vector"** %list.addr, metadata !3687, metadata !DIExpression()), !dbg !3688
  %this1 = load %class.cXMLElement*, %class.cXMLElement** %this.addr, align 8
  call void @llvm.dbg.declare(metadata %class.cXMLElement** %child, metadata !3689, metadata !DIExpression()), !dbg !3691
  %0 = bitcast %class.cXMLElement* %this1 to %class.cXMLElement* (%class.cXMLElement*)***, !dbg !3692
  %vtable = load %class.cXMLElement* (%class.cXMLElement*)**, %class.cXMLElement* (%class.cXMLElement*)*** %0, align 8, !dbg !3692
  %vfn = getelementptr inbounds %class.cXMLElement* (%class.cXMLElement*)*, %class.cXMLElement* (%class.cXMLElement*)** %vtable, i64 16, !dbg !3692
  %1 = load %class.cXMLElement* (%class.cXMLElement*)*, %class.cXMLElement* (%class.cXMLElement*)** %vfn, align 8, !dbg !3692
  %call = call %class.cXMLElement* %1(%class.cXMLElement* %this1), !dbg !3692
  store %class.cXMLElement* %call, %class.cXMLElement** %child, align 8, !dbg !3691
  br label %for.cond, !dbg !3693

for.cond:                                         ; preds = %for.inc, %entry
  %2 = load %class.cXMLElement*, %class.cXMLElement** %child, align 8, !dbg !3694
  %tobool = icmp ne %class.cXMLElement* %2, null, !dbg !3694
  br i1 %tobool, label %for.body, label %for.end, !dbg !3696

for.body:                                         ; preds = %for.cond
  %3 = load %class.cXMLElement*, %class.cXMLElement** %child, align 8, !dbg !3697
  %4 = bitcast %class.cXMLElement* %3 to i8* (%class.cXMLElement*)***, !dbg !3700
  %vtable2 = load i8* (%class.cXMLElement*)**, i8* (%class.cXMLElement*)*** %4, align 8, !dbg !3700
  %vfn3 = getelementptr inbounds i8* (%class.cXMLElement*)*, i8* (%class.cXMLElement*)** %vtable2, i64 8, !dbg !3700
  %5 = load i8* (%class.cXMLElement*)*, i8* (%class.cXMLElement*)** %vfn3, align 8, !dbg !3700
  %call4 = call i8* %5(%class.cXMLElement* %3), !dbg !3700
  %6 = load i8*, i8** %tagname.addr, align 8, !dbg !3701
  %call5 = call i32 @strcasecmp(i8* %call4, i8* %6) #15, !dbg !3702
  %tobool6 = icmp ne i32 %call5, 0, !dbg !3702
  br i1 %tobool6, label %if.end, label %if.then, !dbg !3703

if.then:                                          ; preds = %for.body
  %7 = load %"class.std::vector"*, %"class.std::vector"** %list.addr, align 8, !dbg !3704
  call void @_ZNSt6vectorIP11cXMLElementSaIS1_EE9push_backERKS1_(%"class.std::vector"* %7, %class.cXMLElement** dereferenceable(8) %child), !dbg !3705
  br label %if.end, !dbg !3704

if.end:                                           ; preds = %if.then, %for.body
  %8 = load %class.cXMLElement*, %class.cXMLElement** %child, align 8, !dbg !3706
  %9 = load i8*, i8** %tagname.addr, align 8, !dbg !3707
  %10 = load %"class.std::vector"*, %"class.std::vector"** %list.addr, align 8, !dbg !3708
  call void @_ZNK11cXMLElement22doGetElementsByTagNameEPKcRSt6vectorIPS_SaIS3_EE(%class.cXMLElement* %8, i8* %9, %"class.std::vector"* dereferenceable(24) %10), !dbg !3709
  br label %for.inc, !dbg !3710

for.inc:                                          ; preds = %if.end
  %11 = load %class.cXMLElement*, %class.cXMLElement** %child, align 8, !dbg !3711
  %12 = bitcast %class.cXMLElement* %11 to %class.cXMLElement* (%class.cXMLElement*)***, !dbg !3712
  %vtable7 = load %class.cXMLElement* (%class.cXMLElement*)**, %class.cXMLElement* (%class.cXMLElement*)*** %12, align 8, !dbg !3712
  %vfn8 = getelementptr inbounds %class.cXMLElement* (%class.cXMLElement*)*, %class.cXMLElement* (%class.cXMLElement*)** %vtable7, i64 18, !dbg !3712
  %13 = load %class.cXMLElement* (%class.cXMLElement*)*, %class.cXMLElement* (%class.cXMLElement*)** %vfn8, align 8, !dbg !3712
  %call9 = call %class.cXMLElement* %13(%class.cXMLElement* %11), !dbg !3712
  store %class.cXMLElement* %call9, %class.cXMLElement** %child, align 8, !dbg !3713
  br label %for.cond, !dbg !3714, !llvm.loop !3715

for.end:                                          ; preds = %for.cond
  ret void, !dbg !3717
}

; Function Attrs: noinline uwtable
define dso_local %class.cXMLElement* @_ZNK11cXMLElement26getFirstChildWithAttributeEPKcS1_S1_(%class.cXMLElement* %this, i8* %tagname, i8* %attr, i8* %attrvalue) #0 align 2 !dbg !3718 {
entry:
  %retval = alloca %class.cXMLElement*, align 8
  %this.addr = alloca %class.cXMLElement*, align 8
  %tagname.addr = alloca i8*, align 8
  %attr.addr = alloca i8*, align 8
  %attrvalue.addr = alloca i8*, align 8
  %child = alloca %class.cXMLElement*, align 8
  %val = alloca i8*, align 8
  store %class.cXMLElement* %this, %class.cXMLElement** %this.addr, align 8
  call void @llvm.dbg.declare(metadata %class.cXMLElement** %this.addr, metadata !3719, metadata !DIExpression()), !dbg !3720
  store i8* %tagname, i8** %tagname.addr, align 8
  call void @llvm.dbg.declare(metadata i8** %tagname.addr, metadata !3721, metadata !DIExpression()), !dbg !3722
  store i8* %attr, i8** %attr.addr, align 8
  call void @llvm.dbg.declare(metadata i8** %attr.addr, metadata !3723, metadata !DIExpression()), !dbg !3724
  store i8* %attrvalue, i8** %attrvalue.addr, align 8
  call void @llvm.dbg.declare(metadata i8** %attrvalue.addr, metadata !3725, metadata !DIExpression()), !dbg !3726
  %this1 = load %class.cXMLElement*, %class.cXMLElement** %this.addr, align 8
  call void @llvm.dbg.declare(metadata %class.cXMLElement** %child, metadata !3727, metadata !DIExpression()), !dbg !3729
  %0 = bitcast %class.cXMLElement* %this1 to %class.cXMLElement* (%class.cXMLElement*)***, !dbg !3730
  %vtable = load %class.cXMLElement* (%class.cXMLElement*)**, %class.cXMLElement* (%class.cXMLElement*)*** %0, align 8, !dbg !3730
  %vfn = getelementptr inbounds %class.cXMLElement* (%class.cXMLElement*)*, %class.cXMLElement* (%class.cXMLElement*)** %vtable, i64 16, !dbg !3730
  %1 = load %class.cXMLElement* (%class.cXMLElement*)*, %class.cXMLElement* (%class.cXMLElement*)** %vfn, align 8, !dbg !3730
  %call = call %class.cXMLElement* %1(%class.cXMLElement* %this1), !dbg !3730
  store %class.cXMLElement* %call, %class.cXMLElement** %child, align 8, !dbg !3729
  br label %for.cond, !dbg !3731

for.cond:                                         ; preds = %for.inc, %entry
  %2 = load %class.cXMLElement*, %class.cXMLElement** %child, align 8, !dbg !3732
  %tobool = icmp ne %class.cXMLElement* %2, null, !dbg !3732
  br i1 %tobool, label %for.body, label %for.end, !dbg !3734

for.body:                                         ; preds = %for.cond
  %3 = load i8*, i8** %tagname.addr, align 8, !dbg !3735
  %tobool2 = icmp ne i8* %3, null, !dbg !3735
  br i1 %tobool2, label %lor.lhs.false, label %if.then, !dbg !3738

lor.lhs.false:                                    ; preds = %for.body
  %4 = load %class.cXMLElement*, %class.cXMLElement** %child, align 8, !dbg !3739
  %5 = bitcast %class.cXMLElement* %4 to i8* (%class.cXMLElement*)***, !dbg !3740
  %vtable3 = load i8* (%class.cXMLElement*)**, i8* (%class.cXMLElement*)*** %5, align 8, !dbg !3740
  %vfn4 = getelementptr inbounds i8* (%class.cXMLElement*)*, i8* (%class.cXMLElement*)** %vtable3, i64 8, !dbg !3740
  %6 = load i8* (%class.cXMLElement*)*, i8* (%class.cXMLElement*)** %vfn4, align 8, !dbg !3740
  %call5 = call i8* %6(%class.cXMLElement* %4), !dbg !3740
  %7 = load i8*, i8** %tagname.addr, align 8, !dbg !3741
  %call6 = call i32 @strcasecmp(i8* %call5, i8* %7) #15, !dbg !3742
  %tobool7 = icmp ne i32 %call6, 0, !dbg !3742
  br i1 %tobool7, label %if.end17, label %if.then, !dbg !3743

if.then:                                          ; preds = %lor.lhs.false, %for.body
  call void @llvm.dbg.declare(metadata i8** %val, metadata !3744, metadata !DIExpression()), !dbg !3746
  %8 = load %class.cXMLElement*, %class.cXMLElement** %child, align 8, !dbg !3747
  %9 = load i8*, i8** %attr.addr, align 8, !dbg !3748
  %10 = bitcast %class.cXMLElement* %8 to i8* (%class.cXMLElement*, i8*)***, !dbg !3749
  %vtable8 = load i8* (%class.cXMLElement*, i8*)**, i8* (%class.cXMLElement*, i8*)*** %10, align 8, !dbg !3749
  %vfn9 = getelementptr inbounds i8* (%class.cXMLElement*, i8*)*, i8* (%class.cXMLElement*, i8*)** %vtable8, i64 11, !dbg !3749
  %11 = load i8* (%class.cXMLElement*, i8*)*, i8* (%class.cXMLElement*, i8*)** %vfn9, align 8, !dbg !3749
  %call10 = call i8* %11(%class.cXMLElement* %8, i8* %9), !dbg !3749
  store i8* %call10, i8** %val, align 8, !dbg !3746
  %12 = load i8*, i8** %val, align 8, !dbg !3750
  %tobool11 = icmp ne i8* %12, null, !dbg !3750
  br i1 %tobool11, label %land.lhs.true, label %if.end, !dbg !3752

land.lhs.true:                                    ; preds = %if.then
  %13 = load i8*, i8** %attrvalue.addr, align 8, !dbg !3753
  %tobool12 = icmp ne i8* %13, null, !dbg !3753
  br i1 %tobool12, label %lor.lhs.false13, label %if.then16, !dbg !3754

lor.lhs.false13:                                  ; preds = %land.lhs.true
  %14 = load i8*, i8** %val, align 8, !dbg !3755
  %15 = load i8*, i8** %attrvalue.addr, align 8, !dbg !3756
  %call14 = call i32 @strcmp(i8* %14, i8* %15) #15, !dbg !3757
  %tobool15 = icmp ne i32 %call14, 0, !dbg !3757
  br i1 %tobool15, label %if.end, label %if.then16, !dbg !3758

if.then16:                                        ; preds = %lor.lhs.false13, %land.lhs.true
  %16 = load %class.cXMLElement*, %class.cXMLElement** %child, align 8, !dbg !3759
  store %class.cXMLElement* %16, %class.cXMLElement** %retval, align 8, !dbg !3760
  br label %return, !dbg !3760

if.end:                                           ; preds = %lor.lhs.false13, %if.then
  br label %if.end17, !dbg !3761

if.end17:                                         ; preds = %if.end, %lor.lhs.false
  br label %for.inc, !dbg !3762

for.inc:                                          ; preds = %if.end17
  %17 = load %class.cXMLElement*, %class.cXMLElement** %child, align 8, !dbg !3763
  %18 = bitcast %class.cXMLElement* %17 to %class.cXMLElement* (%class.cXMLElement*)***, !dbg !3764
  %vtable18 = load %class.cXMLElement* (%class.cXMLElement*)**, %class.cXMLElement* (%class.cXMLElement*)*** %18, align 8, !dbg !3764
  %vfn19 = getelementptr inbounds %class.cXMLElement* (%class.cXMLElement*)*, %class.cXMLElement* (%class.cXMLElement*)** %vtable18, i64 18, !dbg !3764
  %19 = load %class.cXMLElement* (%class.cXMLElement*)*, %class.cXMLElement* (%class.cXMLElement*)** %vfn19, align 8, !dbg !3764
  %call20 = call %class.cXMLElement* %19(%class.cXMLElement* %17), !dbg !3764
  store %class.cXMLElement* %call20, %class.cXMLElement** %child, align 8, !dbg !3765
  br label %for.cond, !dbg !3766, !llvm.loop !3767

for.end:                                          ; preds = %for.cond
  store %class.cXMLElement* null, %class.cXMLElement** %retval, align 8, !dbg !3769
  br label %return, !dbg !3769

return:                                           ; preds = %for.end, %if.then16
  %20 = load %class.cXMLElement*, %class.cXMLElement** %retval, align 8, !dbg !3770
  ret %class.cXMLElement* %20, !dbg !3770
}

; Function Attrs: nounwind readonly
declare dso_local i32 @strcmp(i8*, i8*) #8

; Function Attrs: noinline uwtable
define dso_local %class.cXMLElement* @_ZNK11cXMLElement14getElementByIdEPKc(%class.cXMLElement* %this, i8* %idattrvalue) #0 align 2 !dbg !3771 {
entry:
  %retval = alloca %class.cXMLElement*, align 8
  %this.addr = alloca %class.cXMLElement*, align 8
  %idattrvalue.addr = alloca i8*, align 8
  %id = alloca i8*, align 8
  %child = alloca %class.cXMLElement*, align 8
  %res = alloca %class.cXMLElement*, align 8
  store %class.cXMLElement* %this, %class.cXMLElement** %this.addr, align 8
  call void @llvm.dbg.declare(metadata %class.cXMLElement** %this.addr, metadata !3772, metadata !DIExpression()), !dbg !3773
  store i8* %idattrvalue, i8** %idattrvalue.addr, align 8
  call void @llvm.dbg.declare(metadata i8** %idattrvalue.addr, metadata !3774, metadata !DIExpression()), !dbg !3775
  %this1 = load %class.cXMLElement*, %class.cXMLElement** %this.addr, align 8
  call void @llvm.dbg.declare(metadata i8** %id, metadata !3776, metadata !DIExpression()), !dbg !3777
  %0 = bitcast %class.cXMLElement* %this1 to i8* (%class.cXMLElement*, i8*)***, !dbg !3778
  %vtable = load i8* (%class.cXMLElement*, i8*)**, i8* (%class.cXMLElement*, i8*)*** %0, align 8, !dbg !3778
  %vfn = getelementptr inbounds i8* (%class.cXMLElement*, i8*)*, i8* (%class.cXMLElement*, i8*)** %vtable, i64 11, !dbg !3778
  %1 = load i8* (%class.cXMLElement*, i8*)*, i8* (%class.cXMLElement*, i8*)** %vfn, align 8, !dbg !3778
  %call = call i8* %1(%class.cXMLElement* %this1, i8* getelementptr inbounds ([3 x i8], [3 x i8]* @.str, i64 0, i64 0)), !dbg !3778
  store i8* %call, i8** %id, align 8, !dbg !3777
  %2 = load i8*, i8** %id, align 8, !dbg !3779
  %tobool = icmp ne i8* %2, null, !dbg !3779
  br i1 %tobool, label %land.lhs.true, label %if.end, !dbg !3781

land.lhs.true:                                    ; preds = %entry
  %3 = load i8*, i8** %id, align 8, !dbg !3782
  %4 = load i8*, i8** %idattrvalue.addr, align 8, !dbg !3783
  %call2 = call i32 @strcmp(i8* %3, i8* %4) #15, !dbg !3784
  %tobool3 = icmp ne i32 %call2, 0, !dbg !3784
  br i1 %tobool3, label %if.end, label %if.then, !dbg !3785

if.then:                                          ; preds = %land.lhs.true
  store %class.cXMLElement* %this1, %class.cXMLElement** %retval, align 8, !dbg !3786
  br label %return, !dbg !3786

if.end:                                           ; preds = %land.lhs.true, %entry
  call void @llvm.dbg.declare(metadata %class.cXMLElement** %child, metadata !3787, metadata !DIExpression()), !dbg !3789
  %5 = bitcast %class.cXMLElement* %this1 to %class.cXMLElement* (%class.cXMLElement*)***, !dbg !3790
  %vtable4 = load %class.cXMLElement* (%class.cXMLElement*)**, %class.cXMLElement* (%class.cXMLElement*)*** %5, align 8, !dbg !3790
  %vfn5 = getelementptr inbounds %class.cXMLElement* (%class.cXMLElement*)*, %class.cXMLElement* (%class.cXMLElement*)** %vtable4, i64 16, !dbg !3790
  %6 = load %class.cXMLElement* (%class.cXMLElement*)*, %class.cXMLElement* (%class.cXMLElement*)** %vfn5, align 8, !dbg !3790
  %call6 = call %class.cXMLElement* %6(%class.cXMLElement* %this1), !dbg !3790
  store %class.cXMLElement* %call6, %class.cXMLElement** %child, align 8, !dbg !3789
  br label %for.cond, !dbg !3791

for.cond:                                         ; preds = %for.inc, %if.end
  %7 = load %class.cXMLElement*, %class.cXMLElement** %child, align 8, !dbg !3792
  %tobool7 = icmp ne %class.cXMLElement* %7, null, !dbg !3792
  br i1 %tobool7, label %for.body, label %for.end, !dbg !3794

for.body:                                         ; preds = %for.cond
  call void @llvm.dbg.declare(metadata %class.cXMLElement** %res, metadata !3795, metadata !DIExpression()), !dbg !3797
  %8 = load %class.cXMLElement*, %class.cXMLElement** %child, align 8, !dbg !3798
  %9 = load i8*, i8** %idattrvalue.addr, align 8, !dbg !3799
  %call8 = call %class.cXMLElement* @_ZNK11cXMLElement14getElementByIdEPKc(%class.cXMLElement* %8, i8* %9), !dbg !3800
  store %class.cXMLElement* %call8, %class.cXMLElement** %res, align 8, !dbg !3797
  %10 = load %class.cXMLElement*, %class.cXMLElement** %res, align 8, !dbg !3801
  %tobool9 = icmp ne %class.cXMLElement* %10, null, !dbg !3801
  br i1 %tobool9, label %if.then10, label %if.end11, !dbg !3803

if.then10:                                        ; preds = %for.body
  %11 = load %class.cXMLElement*, %class.cXMLElement** %res, align 8, !dbg !3804
  store %class.cXMLElement* %11, %class.cXMLElement** %retval, align 8, !dbg !3805
  br label %return, !dbg !3805

if.end11:                                         ; preds = %for.body
  br label %for.inc, !dbg !3806

for.inc:                                          ; preds = %if.end11
  %12 = load %class.cXMLElement*, %class.cXMLElement** %child, align 8, !dbg !3807
  %13 = bitcast %class.cXMLElement* %12 to %class.cXMLElement* (%class.cXMLElement*)***, !dbg !3808
  %vtable12 = load %class.cXMLElement* (%class.cXMLElement*)**, %class.cXMLElement* (%class.cXMLElement*)*** %13, align 8, !dbg !3808
  %vfn13 = getelementptr inbounds %class.cXMLElement* (%class.cXMLElement*)*, %class.cXMLElement* (%class.cXMLElement*)** %vtable12, i64 18, !dbg !3808
  %14 = load %class.cXMLElement* (%class.cXMLElement*)*, %class.cXMLElement* (%class.cXMLElement*)** %vfn13, align 8, !dbg !3808
  %call14 = call %class.cXMLElement* %14(%class.cXMLElement* %12), !dbg !3808
  store %class.cXMLElement* %call14, %class.cXMLElement** %child, align 8, !dbg !3809
  br label %for.cond, !dbg !3810, !llvm.loop !3811

for.end:                                          ; preds = %for.cond
  store %class.cXMLElement* null, %class.cXMLElement** %retval, align 8, !dbg !3813
  br label %return, !dbg !3813

return:                                           ; preds = %for.end, %if.then10, %if.then
  %15 = load %class.cXMLElement*, %class.cXMLElement** %retval, align 8, !dbg !3814
  ret %class.cXMLElement* %15, !dbg !3814
}

; Function Attrs: noinline uwtable
define dso_local %class.cXMLElement* @_ZN11cXMLElement24getDocumentElementByPathEPS_PKcPNS_13ParamResolverE(%class.cXMLElement* %documentnode, i8* %pathexpr, %"class.cXMLElement::ParamResolver"* %resolver) #0 align 2 !dbg !3815 {
entry:
  %documentnode.addr = alloca %class.cXMLElement*, align 8
  %pathexpr.addr = alloca i8*, align 8
  %resolver.addr = alloca %"class.cXMLElement::ParamResolver"*, align 8
  %ref.tmp = alloca %class.MiniXPath, align 8
  store %class.cXMLElement* %documentnode, %class.cXMLElement** %documentnode.addr, align 8
  call void @llvm.dbg.declare(metadata %class.cXMLElement** %documentnode.addr, metadata !3816, metadata !DIExpression()), !dbg !3817
  store i8* %pathexpr, i8** %pathexpr.addr, align 8
  call void @llvm.dbg.declare(metadata i8** %pathexpr.addr, metadata !3818, metadata !DIExpression()), !dbg !3819
  store %"class.cXMLElement::ParamResolver"* %resolver, %"class.cXMLElement::ParamResolver"** %resolver.addr, align 8
  call void @llvm.dbg.declare(metadata %"class.cXMLElement::ParamResolver"** %resolver.addr, metadata !3820, metadata !DIExpression()), !dbg !3821
  %0 = load %"class.cXMLElement::ParamResolver"*, %"class.cXMLElement::ParamResolver"** %resolver.addr, align 8, !dbg !3822
  call void @_ZN9MiniXPathC1EPN11cXMLElement13ParamResolverE(%class.MiniXPath* %ref.tmp, %"class.cXMLElement::ParamResolver"* %0), !dbg !3823
  %1 = load %class.cXMLElement*, %class.cXMLElement** %documentnode.addr, align 8, !dbg !3824
  %2 = load i8*, i8** %pathexpr.addr, align 8, !dbg !3825
  %3 = load %class.cXMLElement*, %class.cXMLElement** %documentnode.addr, align 8, !dbg !3826
  %call = call %class.cXMLElement* @_ZN9MiniXPath19matchPathExpressionEP11cXMLElementPKcS1_(%class.MiniXPath* %ref.tmp, %class.cXMLElement* %1, i8* %2, %class.cXMLElement* %3), !dbg !3827
  ret %class.cXMLElement* %call, !dbg !3828
}

declare dso_local void @_ZN9MiniXPathC1EPN11cXMLElement13ParamResolverE(%class.MiniXPath*, %"class.cXMLElement::ParamResolver"*) unnamed_addr #1

declare dso_local %class.cXMLElement* @_ZN9MiniXPath19matchPathExpressionEP11cXMLElementPKcS1_(%class.MiniXPath*, %class.cXMLElement*, i8*, %class.cXMLElement*) #1

; Function Attrs: noinline uwtable
define dso_local %class.cXMLElement* @_ZNK11cXMLElement16getElementByPathEPKcPS_PNS_13ParamResolverE(%class.cXMLElement* %this, i8* %pathexpr, %class.cXMLElement* %root, %"class.cXMLElement::ParamResolver"* %resolver) #0 align 2 personality i8* bitcast (i32 (...)* @__gxx_personality_v0 to i8*) !dbg !3829 {
entry:
  %this.addr = alloca %class.cXMLElement*, align 8
  %pathexpr.addr = alloca i8*, align 8
  %root.addr = alloca %class.cXMLElement*, align 8
  %resolver.addr = alloca %"class.cXMLElement::ParamResolver"*, align 8
  %exn.slot = alloca i8*
  %ehselector.slot = alloca i32
  %ref.tmp = alloca %class.MiniXPath, align 8
  store %class.cXMLElement* %this, %class.cXMLElement** %this.addr, align 8
  call void @llvm.dbg.declare(metadata %class.cXMLElement** %this.addr, metadata !3830, metadata !DIExpression()), !dbg !3831
  store i8* %pathexpr, i8** %pathexpr.addr, align 8
  call void @llvm.dbg.declare(metadata i8** %pathexpr.addr, metadata !3832, metadata !DIExpression()), !dbg !3833
  store %class.cXMLElement* %root, %class.cXMLElement** %root.addr, align 8
  call void @llvm.dbg.declare(metadata %class.cXMLElement** %root.addr, metadata !3834, metadata !DIExpression()), !dbg !3835
  store %"class.cXMLElement::ParamResolver"* %resolver, %"class.cXMLElement::ParamResolver"** %resolver.addr, align 8
  call void @llvm.dbg.declare(metadata %"class.cXMLElement::ParamResolver"** %resolver.addr, metadata !3836, metadata !DIExpression()), !dbg !3837
  %this1 = load %class.cXMLElement*, %class.cXMLElement** %this.addr, align 8
  %0 = load i8*, i8** %pathexpr.addr, align 8, !dbg !3838
  %arrayidx = getelementptr inbounds i8, i8* %0, i64 0, !dbg !3838
  %1 = load i8, i8* %arrayidx, align 1, !dbg !3838
  %conv = sext i8 %1 to i32, !dbg !3838
  %cmp = icmp eq i32 %conv, 47, !dbg !3840
  br i1 %cmp, label %land.lhs.true, label %if.end, !dbg !3841

land.lhs.true:                                    ; preds = %entry
  %2 = load %class.cXMLElement*, %class.cXMLElement** %root.addr, align 8, !dbg !3842
  %tobool = icmp ne %class.cXMLElement* %2, null, !dbg !3842
  br i1 %tobool, label %if.end, label %if.then, !dbg !3843

if.then:                                          ; preds = %land.lhs.true
  %exception = call i8* @__cxa_allocate_exception(i64 128) #3, !dbg !3844
  %3 = bitcast i8* %exception to %class.cRuntimeError*, !dbg !3844
  %4 = load i8*, i8** %pathexpr.addr, align 8, !dbg !3845
  invoke void (%class.cRuntimeError*, i8*, ...) @_ZN13cRuntimeErrorC1EPKcz(%class.cRuntimeError* %3, i8* getelementptr inbounds ([154 x i8], [154 x i8]* @.str.1, i64 0, i64 0), i8* %4)
          to label %invoke.cont unwind label %lpad, !dbg !3846

invoke.cont:                                      ; preds = %if.then
  call void @__cxa_throw(i8* %exception, i8* bitcast ({ i8*, i8*, i8* }* @_ZTI13cRuntimeError to i8*), i8* bitcast (void (%class.cRuntimeError*)* @_ZN13cRuntimeErrorD2Ev to i8*)) #16, !dbg !3844
  unreachable, !dbg !3844

lpad:                                             ; preds = %if.then
  %5 = landingpad { i8*, i32 }
          cleanup, !dbg !3847
  %6 = extractvalue { i8*, i32 } %5, 0, !dbg !3847
  store i8* %6, i8** %exn.slot, align 8, !dbg !3847
  %7 = extractvalue { i8*, i32 } %5, 1, !dbg !3847
  store i32 %7, i32* %ehselector.slot, align 4, !dbg !3847
  call void @__cxa_free_exception(i8* %exception) #3, !dbg !3844
  br label %eh.resume, !dbg !3844

if.end:                                           ; preds = %land.lhs.true, %entry
  %8 = load %class.cXMLElement*, %class.cXMLElement** %root.addr, align 8, !dbg !3848
  %tobool2 = icmp ne %class.cXMLElement* %8, null, !dbg !3848
  br i1 %tobool2, label %land.lhs.true3, label %if.end9, !dbg !3850

land.lhs.true3:                                   ; preds = %if.end
  %9 = load %class.cXMLElement*, %class.cXMLElement** %root.addr, align 8, !dbg !3851
  %10 = bitcast %class.cXMLElement* %9 to %class.cXMLElement* (%class.cXMLElement*)***, !dbg !3852
  %vtable = load %class.cXMLElement* (%class.cXMLElement*)**, %class.cXMLElement* (%class.cXMLElement*)*** %10, align 8, !dbg !3852
  %vfn = getelementptr inbounds %class.cXMLElement* (%class.cXMLElement*)*, %class.cXMLElement* (%class.cXMLElement*)** %vtable, i64 14, !dbg !3852
  %11 = load %class.cXMLElement* (%class.cXMLElement*)*, %class.cXMLElement* (%class.cXMLElement*)** %vfn, align 8, !dbg !3852
  %call = call %class.cXMLElement* %11(%class.cXMLElement* %9), !dbg !3852
  %tobool4 = icmp ne %class.cXMLElement* %call, null, !dbg !3851
  br i1 %tobool4, label %if.end9, label %if.then5, !dbg !3853

if.then5:                                         ; preds = %land.lhs.true3
  %exception6 = call i8* @__cxa_allocate_exception(i64 128) #3, !dbg !3854
  %12 = bitcast i8* %exception6 to %class.cRuntimeError*, !dbg !3854
  %13 = load i8*, i8** %pathexpr.addr, align 8, !dbg !3855
  invoke void (%class.cRuntimeError*, i8*, ...) @_ZN13cRuntimeErrorC1EPKcz(%class.cRuntimeError* %12, i8* getelementptr inbounds ([115 x i8], [115 x i8]* @.str.2, i64 0, i64 0), i8* %13)
          to label %invoke.cont8 unwind label %lpad7, !dbg !3856

invoke.cont8:                                     ; preds = %if.then5
  call void @__cxa_throw(i8* %exception6, i8* bitcast ({ i8*, i8*, i8* }* @_ZTI13cRuntimeError to i8*), i8* bitcast (void (%class.cRuntimeError*)* @_ZN13cRuntimeErrorD2Ev to i8*)) #16, !dbg !3854
  unreachable, !dbg !3854

lpad7:                                            ; preds = %if.then5
  %14 = landingpad { i8*, i32 }
          cleanup, !dbg !3857
  %15 = extractvalue { i8*, i32 } %14, 0, !dbg !3857
  store i8* %15, i8** %exn.slot, align 8, !dbg !3857
  %16 = extractvalue { i8*, i32 } %14, 1, !dbg !3857
  store i32 %16, i32* %ehselector.slot, align 4, !dbg !3857
  call void @__cxa_free_exception(i8* %exception6) #3, !dbg !3854
  br label %eh.resume, !dbg !3854

if.end9:                                          ; preds = %land.lhs.true3, %if.end
  %17 = load %"class.cXMLElement::ParamResolver"*, %"class.cXMLElement::ParamResolver"** %resolver.addr, align 8, !dbg !3858
  call void @_ZN9MiniXPathC1EPN11cXMLElement13ParamResolverE(%class.MiniXPath* %ref.tmp, %"class.cXMLElement::ParamResolver"* %17), !dbg !3859
  %18 = load i8*, i8** %pathexpr.addr, align 8, !dbg !3860
  %19 = load %class.cXMLElement*, %class.cXMLElement** %root.addr, align 8, !dbg !3861
  %tobool10 = icmp ne %class.cXMLElement* %19, null, !dbg !3861
  br i1 %tobool10, label %cond.true, label %cond.false, !dbg !3861

cond.true:                                        ; preds = %if.end9
  %20 = load %class.cXMLElement*, %class.cXMLElement** %root.addr, align 8, !dbg !3862
  %21 = bitcast %class.cXMLElement* %20 to %class.cXMLElement* (%class.cXMLElement*)***, !dbg !3863
  %vtable11 = load %class.cXMLElement* (%class.cXMLElement*)**, %class.cXMLElement* (%class.cXMLElement*)*** %21, align 8, !dbg !3863
  %vfn12 = getelementptr inbounds %class.cXMLElement* (%class.cXMLElement*)*, %class.cXMLElement* (%class.cXMLElement*)** %vtable11, i64 14, !dbg !3863
  %22 = load %class.cXMLElement* (%class.cXMLElement*)*, %class.cXMLElement* (%class.cXMLElement*)** %vfn12, align 8, !dbg !3863
  %call13 = call %class.cXMLElement* %22(%class.cXMLElement* %20), !dbg !3863
  br label %cond.end, !dbg !3861

cond.false:                                       ; preds = %if.end9
  br label %cond.end, !dbg !3861

cond.end:                                         ; preds = %cond.false, %cond.true
  %cond = phi %class.cXMLElement* [ %call13, %cond.true ], [ null, %cond.false ], !dbg !3861
  %call14 = call %class.cXMLElement* @_ZN9MiniXPath19matchPathExpressionEP11cXMLElementPKcS1_(%class.MiniXPath* %ref.tmp, %class.cXMLElement* %this1, i8* %18, %class.cXMLElement* %cond), !dbg !3864
  ret %class.cXMLElement* %call14, !dbg !3865

eh.resume:                                        ; preds = %lpad7, %lpad
  %exn = load i8*, i8** %exn.slot, align 8, !dbg !3844
  %sel = load i32, i32* %ehselector.slot, align 4, !dbg !3844
  %lpad.val = insertvalue { i8*, i32 } undef, i8* %exn, 0, !dbg !3844
  %lpad.val15 = insertvalue { i8*, i32 } %lpad.val, i32 %sel, 1, !dbg !3844
  resume { i8*, i32 } %lpad.val15, !dbg !3844
}

declare dso_local i8* @__cxa_allocate_exception(i64)

declare dso_local void @_ZN13cRuntimeErrorC1EPKcz(%class.cRuntimeError*, i8*, ...) unnamed_addr #1

declare dso_local void @__cxa_free_exception(i8*)

; Function Attrs: noinline nounwind uwtable
define linkonce_odr dso_local void @_ZN13cRuntimeErrorD2Ev(%class.cRuntimeError* %this) unnamed_addr #5 comdat align 2 !dbg !3866 {
entry:
  %this.addr = alloca %class.cRuntimeError*, align 8
  store %class.cRuntimeError* %this, %class.cRuntimeError** %this.addr, align 8
  call void @llvm.dbg.declare(metadata %class.cRuntimeError** %this.addr, metadata !3873, metadata !DIExpression()), !dbg !3875
  %this1 = load %class.cRuntimeError*, %class.cRuntimeError** %this.addr, align 8
  %0 = bitcast %class.cRuntimeError* %this1 to %class.cException*, !dbg !3876
  call void @_ZN10cExceptionD2Ev(%class.cException* %0) #3, !dbg !3876
  ret void, !dbg !3878
}

declare dso_local void @__cxa_throw(i8*, i8*, i8*)

; Function Attrs: noinline uwtable
define dso_local void @_ZNK11cXMLElement5tostrB5cxx11Ei(%"class.std::__cxx11::basic_string"* noalias sret %agg.result, %class.cXMLElement* %this, i32 %depth) #0 align 2 personality i8* bitcast (i32 (...)* @__gxx_personality_v0 to i8*) !dbg !3879 {
entry:
  %result.ptr = alloca i8*, align 8
  %this.addr = alloca %class.cXMLElement*, align 8
  %depth.addr = alloca i32, align 4
  %os = alloca %"class.std::__cxx11::basic_stringstream", align 8
  %i = alloca i32, align 4
  %exn.slot = alloca i8*
  %ehselector.slot = alloca i32
  %map = alloca %"class.std::map", align 8
  %it = alloca %"struct.std::_Rb_tree_iterator", align 8
  %ref.tmp = alloca %"struct.std::_Rb_tree_iterator", align 8
  %coerce = alloca %"struct.std::_Rb_tree_iterator", align 8
  %cleanup.dest.slot = alloca i32, align 4
  %child = alloca %class.cXMLElement*, align 8
  %ref.tmp91 = alloca %"class.std::__cxx11::basic_string", align 8
  %0 = bitcast %"class.std::__cxx11::basic_string"* %agg.result to i8*
  store i8* %0, i8** %result.ptr, align 8
  store %class.cXMLElement* %this, %class.cXMLElement** %this.addr, align 8
  call void @llvm.dbg.declare(metadata %class.cXMLElement** %this.addr, metadata !3880, metadata !DIExpression()), !dbg !3881
  store i32 %depth, i32* %depth.addr, align 4
  call void @llvm.dbg.declare(metadata i32* %depth.addr, metadata !3882, metadata !DIExpression()), !dbg !3883
  %this1 = load %class.cXMLElement*, %class.cXMLElement** %this.addr, align 8
  call void @llvm.dbg.declare(metadata %"class.std::__cxx11::basic_stringstream"* %os, metadata !3884, metadata !DIExpression()), !dbg !3888
  call void @_ZNSt7__cxx1118basic_stringstreamIcSt11char_traitsIcESaIcEEC1Ev(%"class.std::__cxx11::basic_stringstream"* %os), !dbg !3888
  call void @llvm.dbg.declare(metadata i32* %i, metadata !3889, metadata !DIExpression()), !dbg !3890
  store i32 0, i32* %i, align 4, !dbg !3891
  br label %for.cond, !dbg !3893

for.cond:                                         ; preds = %for.inc, %entry
  %1 = load i32, i32* %i, align 4, !dbg !3894
  %2 = load i32, i32* %depth.addr, align 4, !dbg !3896
  %cmp = icmp slt i32 %1, %2, !dbg !3897
  br i1 %cmp, label %for.body, label %for.end, !dbg !3898

for.body:                                         ; preds = %for.cond
  %3 = bitcast %"class.std::__cxx11::basic_stringstream"* %os to i8*, !dbg !3899
  %add.ptr = getelementptr inbounds i8, i8* %3, i64 16, !dbg !3899
  %4 = bitcast i8* %add.ptr to %"class.std::basic_ostream"*, !dbg !3899
  %call = invoke dereferenceable(272) %"class.std::basic_ostream"* @_ZStlsISt11char_traitsIcEERSt13basic_ostreamIcT_ES5_PKc(%"class.std::basic_ostream"* dereferenceable(272) %4, i8* getelementptr inbounds ([3 x i8], [3 x i8]* @.str.3, i64 0, i64 0))
          to label %invoke.cont unwind label %lpad, !dbg !3900

invoke.cont:                                      ; preds = %for.body
  br label %for.inc, !dbg !3899

for.inc:                                          ; preds = %invoke.cont
  %5 = load i32, i32* %i, align 4, !dbg !3901
  %inc = add nsw i32 %5, 1, !dbg !3901
  store i32 %inc, i32* %i, align 4, !dbg !3901
  br label %for.cond, !dbg !3902, !llvm.loop !3903

lpad:                                             ; preds = %invoke.cont11, %invoke.cont7, %invoke.cont5, %invoke.cont3, %for.end, %for.body
  %6 = landingpad { i8*, i32 }
          cleanup, !dbg !3905
  %7 = extractvalue { i8*, i32 } %6, 0, !dbg !3905
  store i8* %7, i8** %exn.slot, align 8, !dbg !3905
  %8 = extractvalue { i8*, i32 } %6, 1, !dbg !3905
  store i32 %8, i32* %ehselector.slot, align 4, !dbg !3905
  br label %ehcleanup124, !dbg !3905

for.end:                                          ; preds = %for.cond
  %9 = bitcast %"class.std::__cxx11::basic_stringstream"* %os to i8*, !dbg !3906
  %add.ptr2 = getelementptr inbounds i8, i8* %9, i64 16, !dbg !3906
  %10 = bitcast i8* %add.ptr2 to %"class.std::basic_ostream"*, !dbg !3906
  %call4 = invoke dereferenceable(272) %"class.std::basic_ostream"* @_ZStlsISt11char_traitsIcEERSt13basic_ostreamIcT_ES5_PKc(%"class.std::basic_ostream"* dereferenceable(272) %10, i8* getelementptr inbounds ([2 x i8], [2 x i8]* @.str.4, i64 0, i64 0))
          to label %invoke.cont3 unwind label %lpad, !dbg !3907

invoke.cont3:                                     ; preds = %for.end
  %11 = bitcast %class.cXMLElement* %this1 to i8* (%class.cXMLElement*)***, !dbg !3908
  %vtable = load i8* (%class.cXMLElement*)**, i8* (%class.cXMLElement*)*** %11, align 8, !dbg !3908
  %vfn = getelementptr inbounds i8* (%class.cXMLElement*)*, i8* (%class.cXMLElement*)** %vtable, i64 8, !dbg !3908
  %12 = load i8* (%class.cXMLElement*)*, i8* (%class.cXMLElement*)** %vfn, align 8, !dbg !3908
  %call6 = invoke i8* %12(%class.cXMLElement* %this1)
          to label %invoke.cont5 unwind label %lpad, !dbg !3908

invoke.cont5:                                     ; preds = %invoke.cont3
  %call8 = invoke dereferenceable(272) %"class.std::basic_ostream"* @_ZStlsISt11char_traitsIcEERSt13basic_ostreamIcT_ES5_PKc(%"class.std::basic_ostream"* dereferenceable(272) %call4, i8* %call6)
          to label %invoke.cont7 unwind label %lpad, !dbg !3909

invoke.cont7:                                     ; preds = %invoke.cont5
  call void @llvm.dbg.declare(metadata %"class.std::map"* %map, metadata !3910, metadata !DIExpression()), !dbg !3911
  %13 = bitcast %class.cXMLElement* %this1 to %"class.std::map"* (%class.cXMLElement*)***, !dbg !3912
  %vtable9 = load %"class.std::map"* (%class.cXMLElement*)**, %"class.std::map"* (%class.cXMLElement*)*** %13, align 8, !dbg !3912
  %vfn10 = getelementptr inbounds %"class.std::map"* (%class.cXMLElement*)*, %"class.std::map"* (%class.cXMLElement*)** %vtable9, i64 13, !dbg !3912
  %14 = load %"class.std::map"* (%class.cXMLElement*)*, %"class.std::map"* (%class.cXMLElement*)** %vfn10, align 8, !dbg !3912
  %call12 = invoke dereferenceable(48) %"class.std::map"* %14(%class.cXMLElement* %this1)
          to label %invoke.cont11 unwind label %lpad, !dbg !3912

invoke.cont11:                                    ; preds = %invoke.cont7
  invoke void @_ZNSt3mapINSt7__cxx1112basic_stringIcSt11char_traitsIcESaIcEEES5_St4lessIS5_ESaISt4pairIKS5_S5_EEEC2ERKSC_(%"class.std::map"* %map, %"class.std::map"* dereferenceable(48) %call12)
          to label %invoke.cont13 unwind label %lpad, !dbg !3912

invoke.cont13:                                    ; preds = %invoke.cont11
  call void @llvm.dbg.declare(metadata %"struct.std::_Rb_tree_iterator"* %it, metadata !3913, metadata !DIExpression()), !dbg !3915
  %call14 = call %"struct.std::_Rb_tree_node_base"* @_ZNSt3mapINSt7__cxx1112basic_stringIcSt11char_traitsIcESaIcEEES5_St4lessIS5_ESaISt4pairIKS5_S5_EEE5beginEv(%"class.std::map"* %map) #3, !dbg !3916
  %coerce.dive = getelementptr inbounds %"struct.std::_Rb_tree_iterator", %"struct.std::_Rb_tree_iterator"* %it, i32 0, i32 0, !dbg !3916
  store %"struct.std::_Rb_tree_node_base"* %call14, %"struct.std::_Rb_tree_node_base"** %coerce.dive, align 8, !dbg !3916
  br label %for.cond15, !dbg !3917

for.cond15:                                       ; preds = %for.inc34, %invoke.cont13
  %call16 = call %"struct.std::_Rb_tree_node_base"* @_ZNSt3mapINSt7__cxx1112basic_stringIcSt11char_traitsIcESaIcEEES5_St4lessIS5_ESaISt4pairIKS5_S5_EEE3endEv(%"class.std::map"* %map) #3, !dbg !3918
  %coerce.dive17 = getelementptr inbounds %"struct.std::_Rb_tree_iterator", %"struct.std::_Rb_tree_iterator"* %ref.tmp, i32 0, i32 0, !dbg !3918
  store %"struct.std::_Rb_tree_node_base"* %call16, %"struct.std::_Rb_tree_node_base"** %coerce.dive17, align 8, !dbg !3918
  %call18 = call zeroext i1 @_ZStneRKSt17_Rb_tree_iteratorISt4pairIKNSt7__cxx1112basic_stringIcSt11char_traitsIcESaIcEEES6_EESB_(%"struct.std::_Rb_tree_iterator"* dereferenceable(8) %it, %"struct.std::_Rb_tree_iterator"* dereferenceable(8) %ref.tmp) #3, !dbg !3920
  br i1 %call18, label %for.body19, label %for.end37, !dbg !3921

for.body19:                                       ; preds = %for.cond15
  %15 = bitcast %"class.std::__cxx11::basic_stringstream"* %os to i8*, !dbg !3922
  %add.ptr20 = getelementptr inbounds i8, i8* %15, i64 16, !dbg !3922
  %16 = bitcast i8* %add.ptr20 to %"class.std::basic_ostream"*, !dbg !3922
  %call23 = invoke dereferenceable(272) %"class.std::basic_ostream"* @_ZStlsISt11char_traitsIcEERSt13basic_ostreamIcT_ES5_PKc(%"class.std::basic_ostream"* dereferenceable(272) %16, i8* getelementptr inbounds ([2 x i8], [2 x i8]* @.str.5, i64 0, i64 0))
          to label %invoke.cont22 unwind label %lpad21, !dbg !3923

invoke.cont22:                                    ; preds = %for.body19
  %call24 = call %"struct.std::pair"* @_ZNKSt17_Rb_tree_iteratorISt4pairIKNSt7__cxx1112basic_stringIcSt11char_traitsIcESaIcEEES6_EEptEv(%"struct.std::_Rb_tree_iterator"* %it) #3, !dbg !3924
  %first = getelementptr inbounds %"struct.std::pair", %"struct.std::pair"* %call24, i32 0, i32 0, !dbg !3925
  %call26 = invoke dereferenceable(272) %"class.std::basic_ostream"* @_ZStlsIcSt11char_traitsIcESaIcEERSt13basic_ostreamIT_T0_ES7_RKNSt7__cxx1112basic_stringIS4_S5_T1_EE(%"class.std::basic_ostream"* dereferenceable(272) %call23, %"class.std::__cxx11::basic_string"* dereferenceable(32) %first)
          to label %invoke.cont25 unwind label %lpad21, !dbg !3926

invoke.cont25:                                    ; preds = %invoke.cont22
  %call28 = invoke dereferenceable(272) %"class.std::basic_ostream"* @_ZStlsISt11char_traitsIcEERSt13basic_ostreamIcT_ES5_PKc(%"class.std::basic_ostream"* dereferenceable(272) %call26, i8* getelementptr inbounds ([3 x i8], [3 x i8]* @.str.6, i64 0, i64 0))
          to label %invoke.cont27 unwind label %lpad21, !dbg !3927

invoke.cont27:                                    ; preds = %invoke.cont25
  %call29 = call %"struct.std::pair"* @_ZNKSt17_Rb_tree_iteratorISt4pairIKNSt7__cxx1112basic_stringIcSt11char_traitsIcESaIcEEES6_EEptEv(%"struct.std::_Rb_tree_iterator"* %it) #3, !dbg !3928
  %second = getelementptr inbounds %"struct.std::pair", %"struct.std::pair"* %call29, i32 0, i32 1, !dbg !3929
  %call31 = invoke dereferenceable(272) %"class.std::basic_ostream"* @_ZStlsIcSt11char_traitsIcESaIcEERSt13basic_ostreamIT_T0_ES7_RKNSt7__cxx1112basic_stringIS4_S5_T1_EE(%"class.std::basic_ostream"* dereferenceable(272) %call28, %"class.std::__cxx11::basic_string"* dereferenceable(32) %second)
          to label %invoke.cont30 unwind label %lpad21, !dbg !3930

invoke.cont30:                                    ; preds = %invoke.cont27
  %call33 = invoke dereferenceable(272) %"class.std::basic_ostream"* @_ZStlsISt11char_traitsIcEERSt13basic_ostreamIcT_ES5_PKc(%"class.std::basic_ostream"* dereferenceable(272) %call31, i8* getelementptr inbounds ([2 x i8], [2 x i8]* @.str.7, i64 0, i64 0))
          to label %invoke.cont32 unwind label %lpad21, !dbg !3931

invoke.cont32:                                    ; preds = %invoke.cont30
  br label %for.inc34, !dbg !3922

for.inc34:                                        ; preds = %invoke.cont32
  %call35 = call %"struct.std::_Rb_tree_node_base"* @_ZNSt17_Rb_tree_iteratorISt4pairIKNSt7__cxx1112basic_stringIcSt11char_traitsIcESaIcEEES6_EEppEi(%"struct.std::_Rb_tree_iterator"* %it, i32 0) #3, !dbg !3932
  %coerce.dive36 = getelementptr inbounds %"struct.std::_Rb_tree_iterator", %"struct.std::_Rb_tree_iterator"* %coerce, i32 0, i32 0, !dbg !3932
  store %"struct.std::_Rb_tree_node_base"* %call35, %"struct.std::_Rb_tree_node_base"** %coerce.dive36, align 8, !dbg !3932
  br label %for.cond15, !dbg !3933, !llvm.loop !3934

lpad21:                                           ; preds = %invoke.cont120, %invoke.cont118, %invoke.cont116, %invoke.cont112, %for.end110, %for.body104, %for.inc96, %for.body89, %invoke.cont81, %if.end79, %invoke.cont76, %invoke.cont74, %invoke.cont72, %invoke.cont68, %if.then66, %invoke.cont59, %invoke.cont57, %invoke.cont52, %if.end, %invoke.cont48, %if.then, %land.lhs.true, %for.end37, %invoke.cont30, %invoke.cont27, %invoke.cont25, %invoke.cont22, %for.body19
  %17 = landingpad { i8*, i32 }
          cleanup, !dbg !3936
  %18 = extractvalue { i8*, i32 } %17, 0, !dbg !3936
  store i8* %18, i8** %exn.slot, align 8, !dbg !3936
  %19 = extractvalue { i8*, i32 } %17, 1, !dbg !3936
  store i32 %19, i32* %ehselector.slot, align 4, !dbg !3936
  br label %ehcleanup, !dbg !3936

for.end37:                                        ; preds = %for.cond15
  %20 = bitcast %class.cXMLElement* %this1 to i8* (%class.cXMLElement*)***, !dbg !3937
  %vtable38 = load i8* (%class.cXMLElement*)**, i8* (%class.cXMLElement*)*** %20, align 8, !dbg !3937
  %vfn39 = getelementptr inbounds i8* (%class.cXMLElement*)*, i8* (%class.cXMLElement*)** %vtable38, i64 10, !dbg !3937
  %21 = load i8* (%class.cXMLElement*)*, i8* (%class.cXMLElement*)** %vfn39, align 8, !dbg !3937
  %call41 = invoke i8* %21(%class.cXMLElement* %this1)
          to label %invoke.cont40 unwind label %lpad21, !dbg !3937

invoke.cont40:                                    ; preds = %for.end37
  %22 = load i8, i8* %call41, align 1, !dbg !3939
  %tobool = icmp ne i8 %22, 0, !dbg !3939
  br i1 %tobool, label %if.end, label %land.lhs.true, !dbg !3940

land.lhs.true:                                    ; preds = %invoke.cont40
  %23 = bitcast %class.cXMLElement* %this1 to %class.cXMLElement* (%class.cXMLElement*)***, !dbg !3941
  %vtable42 = load %class.cXMLElement* (%class.cXMLElement*)**, %class.cXMLElement* (%class.cXMLElement*)*** %23, align 8, !dbg !3941
  %vfn43 = getelementptr inbounds %class.cXMLElement* (%class.cXMLElement*)*, %class.cXMLElement* (%class.cXMLElement*)** %vtable42, i64 16, !dbg !3941
  %24 = load %class.cXMLElement* (%class.cXMLElement*)*, %class.cXMLElement* (%class.cXMLElement*)** %vfn43, align 8, !dbg !3941
  %call45 = invoke %class.cXMLElement* %24(%class.cXMLElement* %this1)
          to label %invoke.cont44 unwind label %lpad21, !dbg !3941

invoke.cont44:                                    ; preds = %land.lhs.true
  %tobool46 = icmp ne %class.cXMLElement* %call45, null, !dbg !3941
  br i1 %tobool46, label %if.end, label %if.then, !dbg !3942

if.then:                                          ; preds = %invoke.cont44
  %25 = bitcast %"class.std::__cxx11::basic_stringstream"* %os to i8*, !dbg !3943
  %add.ptr47 = getelementptr inbounds i8, i8* %25, i64 16, !dbg !3943
  %26 = bitcast i8* %add.ptr47 to %"class.std::basic_ostream"*, !dbg !3943
  %call49 = invoke dereferenceable(272) %"class.std::basic_ostream"* @_ZStlsISt11char_traitsIcEERSt13basic_ostreamIcT_ES5_PKc(%"class.std::basic_ostream"* dereferenceable(272) %26, i8* getelementptr inbounds ([4 x i8], [4 x i8]* @.str.8, i64 0, i64 0))
          to label %invoke.cont48 unwind label %lpad21, !dbg !3945

invoke.cont48:                                    ; preds = %if.then
  invoke void @_ZNKSt7__cxx1118basic_stringstreamIcSt11char_traitsIcESaIcEE3strEv(%"class.std::__cxx11::basic_string"* sret %agg.result, %"class.std::__cxx11::basic_stringstream"* %os)
          to label %invoke.cont50 unwind label %lpad21, !dbg !3946

invoke.cont50:                                    ; preds = %invoke.cont48
  store i32 1, i32* %cleanup.dest.slot, align 4
  br label %cleanup, !dbg !3947

if.end:                                           ; preds = %invoke.cont44, %invoke.cont40
  %27 = bitcast %"class.std::__cxx11::basic_stringstream"* %os to i8*, !dbg !3948
  %add.ptr51 = getelementptr inbounds i8, i8* %27, i64 16, !dbg !3948
  %28 = bitcast i8* %add.ptr51 to %"class.std::basic_ostream"*, !dbg !3948
  %call53 = invoke dereferenceable(272) %"class.std::basic_ostream"* @_ZStlsISt11char_traitsIcEERSt13basic_ostreamIcT_ES5_PKc(%"class.std::basic_ostream"* dereferenceable(272) %28, i8* getelementptr inbounds ([2 x i8], [2 x i8]* @.str.9, i64 0, i64 0))
          to label %invoke.cont52 unwind label %lpad21, !dbg !3949

invoke.cont52:                                    ; preds = %if.end
  %29 = bitcast %"class.std::__cxx11::basic_stringstream"* %os to i8*, !dbg !3950
  %add.ptr54 = getelementptr inbounds i8, i8* %29, i64 16, !dbg !3950
  %30 = bitcast i8* %add.ptr54 to %"class.std::basic_ostream"*, !dbg !3950
  %31 = bitcast %class.cXMLElement* %this1 to i8* (%class.cXMLElement*)***, !dbg !3951
  %vtable55 = load i8* (%class.cXMLElement*)**, i8* (%class.cXMLElement*)*** %31, align 8, !dbg !3951
  %vfn56 = getelementptr inbounds i8* (%class.cXMLElement*)*, i8* (%class.cXMLElement*)** %vtable55, i64 10, !dbg !3951
  %32 = load i8* (%class.cXMLElement*)*, i8* (%class.cXMLElement*)** %vfn56, align 8, !dbg !3951
  %call58 = invoke i8* %32(%class.cXMLElement* %this1)
          to label %invoke.cont57 unwind label %lpad21, !dbg !3951

invoke.cont57:                                    ; preds = %invoke.cont52
  %call60 = invoke dereferenceable(272) %"class.std::basic_ostream"* @_ZStlsISt11char_traitsIcEERSt13basic_ostreamIcT_ES5_PKc(%"class.std::basic_ostream"* dereferenceable(272) %30, i8* %call58)
          to label %invoke.cont59 unwind label %lpad21, !dbg !3952

invoke.cont59:                                    ; preds = %invoke.cont57
  %33 = bitcast %class.cXMLElement* %this1 to %class.cXMLElement* (%class.cXMLElement*)***, !dbg !3953
  %vtable61 = load %class.cXMLElement* (%class.cXMLElement*)**, %class.cXMLElement* (%class.cXMLElement*)*** %33, align 8, !dbg !3953
  %vfn62 = getelementptr inbounds %class.cXMLElement* (%class.cXMLElement*)*, %class.cXMLElement* (%class.cXMLElement*)** %vtable61, i64 16, !dbg !3953
  %34 = load %class.cXMLElement* (%class.cXMLElement*)*, %class.cXMLElement* (%class.cXMLElement*)** %vfn62, align 8, !dbg !3953
  %call64 = invoke %class.cXMLElement* %34(%class.cXMLElement* %this1)
          to label %invoke.cont63 unwind label %lpad21, !dbg !3953

invoke.cont63:                                    ; preds = %invoke.cont59
  %tobool65 = icmp ne %class.cXMLElement* %call64, null, !dbg !3953
  br i1 %tobool65, label %if.end79, label %if.then66, !dbg !3955

if.then66:                                        ; preds = %invoke.cont63
  %35 = bitcast %"class.std::__cxx11::basic_stringstream"* %os to i8*, !dbg !3956
  %add.ptr67 = getelementptr inbounds i8, i8* %35, i64 16, !dbg !3956
  %36 = bitcast i8* %add.ptr67 to %"class.std::basic_ostream"*, !dbg !3956
  %call69 = invoke dereferenceable(272) %"class.std::basic_ostream"* @_ZStlsISt11char_traitsIcEERSt13basic_ostreamIcT_ES5_PKc(%"class.std::basic_ostream"* dereferenceable(272) %36, i8* getelementptr inbounds ([3 x i8], [3 x i8]* @.str.10, i64 0, i64 0))
          to label %invoke.cont68 unwind label %lpad21, !dbg !3958

invoke.cont68:                                    ; preds = %if.then66
  %37 = bitcast %class.cXMLElement* %this1 to i8* (%class.cXMLElement*)***, !dbg !3959
  %vtable70 = load i8* (%class.cXMLElement*)**, i8* (%class.cXMLElement*)*** %37, align 8, !dbg !3959
  %vfn71 = getelementptr inbounds i8* (%class.cXMLElement*)*, i8* (%class.cXMLElement*)** %vtable70, i64 8, !dbg !3959
  %38 = load i8* (%class.cXMLElement*)*, i8* (%class.cXMLElement*)** %vfn71, align 8, !dbg !3959
  %call73 = invoke i8* %38(%class.cXMLElement* %this1)
          to label %invoke.cont72 unwind label %lpad21, !dbg !3959

invoke.cont72:                                    ; preds = %invoke.cont68
  %call75 = invoke dereferenceable(272) %"class.std::basic_ostream"* @_ZStlsISt11char_traitsIcEERSt13basic_ostreamIcT_ES5_PKc(%"class.std::basic_ostream"* dereferenceable(272) %call69, i8* %call73)
          to label %invoke.cont74 unwind label %lpad21, !dbg !3960

invoke.cont74:                                    ; preds = %invoke.cont72
  %call77 = invoke dereferenceable(272) %"class.std::basic_ostream"* @_ZStlsISt11char_traitsIcEERSt13basic_ostreamIcT_ES5_PKc(%"class.std::basic_ostream"* dereferenceable(272) %call75, i8* getelementptr inbounds ([3 x i8], [3 x i8]* @.str.11, i64 0, i64 0))
          to label %invoke.cont76 unwind label %lpad21, !dbg !3961

invoke.cont76:                                    ; preds = %invoke.cont74
  invoke void @_ZNKSt7__cxx1118basic_stringstreamIcSt11char_traitsIcESaIcEE3strEv(%"class.std::__cxx11::basic_string"* sret %agg.result, %"class.std::__cxx11::basic_stringstream"* %os)
          to label %invoke.cont78 unwind label %lpad21, !dbg !3962

invoke.cont78:                                    ; preds = %invoke.cont76
  store i32 1, i32* %cleanup.dest.slot, align 4
  br label %cleanup, !dbg !3963

if.end79:                                         ; preds = %invoke.cont63
  %39 = bitcast %"class.std::__cxx11::basic_stringstream"* %os to i8*, !dbg !3964
  %add.ptr80 = getelementptr inbounds i8, i8* %39, i64 16, !dbg !3964
  %40 = bitcast i8* %add.ptr80 to %"class.std::basic_ostream"*, !dbg !3964
  %call82 = invoke dereferenceable(272) %"class.std::basic_ostream"* @_ZStlsISt11char_traitsIcEERSt13basic_ostreamIcT_ES5_PKc(%"class.std::basic_ostream"* dereferenceable(272) %40, i8* getelementptr inbounds ([2 x i8], [2 x i8]* @.str.12, i64 0, i64 0))
          to label %invoke.cont81 unwind label %lpad21, !dbg !3965

invoke.cont81:                                    ; preds = %if.end79
  call void @llvm.dbg.declare(metadata %class.cXMLElement** %child, metadata !3966, metadata !DIExpression()), !dbg !3968
  %41 = bitcast %class.cXMLElement* %this1 to %class.cXMLElement* (%class.cXMLElement*)***, !dbg !3969
  %vtable83 = load %class.cXMLElement* (%class.cXMLElement*)**, %class.cXMLElement* (%class.cXMLElement*)*** %41, align 8, !dbg !3969
  %vfn84 = getelementptr inbounds %class.cXMLElement* (%class.cXMLElement*)*, %class.cXMLElement* (%class.cXMLElement*)** %vtable83, i64 16, !dbg !3969
  %42 = load %class.cXMLElement* (%class.cXMLElement*)*, %class.cXMLElement* (%class.cXMLElement*)** %vfn84, align 8, !dbg !3969
  %call86 = invoke %class.cXMLElement* %42(%class.cXMLElement* %this1)
          to label %invoke.cont85 unwind label %lpad21, !dbg !3969

invoke.cont85:                                    ; preds = %invoke.cont81
  store %class.cXMLElement* %call86, %class.cXMLElement** %child, align 8, !dbg !3968
  br label %for.cond87, !dbg !3970

for.cond87:                                       ; preds = %invoke.cont99, %invoke.cont85
  %43 = load %class.cXMLElement*, %class.cXMLElement** %child, align 8, !dbg !3971
  %tobool88 = icmp ne %class.cXMLElement* %43, null, !dbg !3971
  br i1 %tobool88, label %for.body89, label %for.end101, !dbg !3973

for.body89:                                       ; preds = %for.cond87
  %44 = bitcast %"class.std::__cxx11::basic_stringstream"* %os to i8*, !dbg !3974
  %add.ptr90 = getelementptr inbounds i8, i8* %44, i64 16, !dbg !3974
  %45 = bitcast i8* %add.ptr90 to %"class.std::basic_ostream"*, !dbg !3974
  %46 = load %class.cXMLElement*, %class.cXMLElement** %child, align 8, !dbg !3975
  %47 = load i32, i32* %depth.addr, align 4, !dbg !3976
  %add = add nsw i32 %47, 1, !dbg !3977
  invoke void @_ZNK11cXMLElement5tostrB5cxx11Ei(%"class.std::__cxx11::basic_string"* sret %ref.tmp91, %class.cXMLElement* %46, i32 %add)
          to label %invoke.cont92 unwind label %lpad21, !dbg !3978

invoke.cont92:                                    ; preds = %for.body89
  %call95 = invoke dereferenceable(272) %"class.std::basic_ostream"* @_ZStlsIcSt11char_traitsIcESaIcEERSt13basic_ostreamIT_T0_ES7_RKNSt7__cxx1112basic_stringIS4_S5_T1_EE(%"class.std::basic_ostream"* dereferenceable(272) %45, %"class.std::__cxx11::basic_string"* dereferenceable(32) %ref.tmp91)
          to label %invoke.cont94 unwind label %lpad93, !dbg !3979

invoke.cont94:                                    ; preds = %invoke.cont92
  call void @_ZNSt7__cxx1112basic_stringIcSt11char_traitsIcESaIcEED1Ev(%"class.std::__cxx11::basic_string"* %ref.tmp91) #3, !dbg !3974
  br label %for.inc96, !dbg !3974

for.inc96:                                        ; preds = %invoke.cont94
  %48 = load %class.cXMLElement*, %class.cXMLElement** %child, align 8, !dbg !3980
  %49 = bitcast %class.cXMLElement* %48 to %class.cXMLElement* (%class.cXMLElement*)***, !dbg !3981
  %vtable97 = load %class.cXMLElement* (%class.cXMLElement*)**, %class.cXMLElement* (%class.cXMLElement*)*** %49, align 8, !dbg !3981
  %vfn98 = getelementptr inbounds %class.cXMLElement* (%class.cXMLElement*)*, %class.cXMLElement* (%class.cXMLElement*)** %vtable97, i64 18, !dbg !3981
  %50 = load %class.cXMLElement* (%class.cXMLElement*)*, %class.cXMLElement* (%class.cXMLElement*)** %vfn98, align 8, !dbg !3981
  %call100 = invoke %class.cXMLElement* %50(%class.cXMLElement* %48)
          to label %invoke.cont99 unwind label %lpad21, !dbg !3981

invoke.cont99:                                    ; preds = %for.inc96
  store %class.cXMLElement* %call100, %class.cXMLElement** %child, align 8, !dbg !3982
  br label %for.cond87, !dbg !3983, !llvm.loop !3984

lpad93:                                           ; preds = %invoke.cont92
  %51 = landingpad { i8*, i32 }
          cleanup, !dbg !3986
  %52 = extractvalue { i8*, i32 } %51, 0, !dbg !3986
  store i8* %52, i8** %exn.slot, align 8, !dbg !3986
  %53 = extractvalue { i8*, i32 } %51, 1, !dbg !3986
  store i32 %53, i32* %ehselector.slot, align 4, !dbg !3986
  call void @_ZNSt7__cxx1112basic_stringIcSt11char_traitsIcESaIcEED1Ev(%"class.std::__cxx11::basic_string"* %ref.tmp91) #3, !dbg !3974
  br label %ehcleanup, !dbg !3974

for.end101:                                       ; preds = %for.cond87
  store i32 0, i32* %i, align 4, !dbg !3987
  br label %for.cond102, !dbg !3989

for.cond102:                                      ; preds = %for.inc108, %for.end101
  %54 = load i32, i32* %i, align 4, !dbg !3990
  %55 = load i32, i32* %depth.addr, align 4, !dbg !3992
  %cmp103 = icmp slt i32 %54, %55, !dbg !3993
  br i1 %cmp103, label %for.body104, label %for.end110, !dbg !3994

for.body104:                                      ; preds = %for.cond102
  %56 = bitcast %"class.std::__cxx11::basic_stringstream"* %os to i8*, !dbg !3995
  %add.ptr105 = getelementptr inbounds i8, i8* %56, i64 16, !dbg !3995
  %57 = bitcast i8* %add.ptr105 to %"class.std::basic_ostream"*, !dbg !3995
  %call107 = invoke dereferenceable(272) %"class.std::basic_ostream"* @_ZStlsISt11char_traitsIcEERSt13basic_ostreamIcT_ES5_PKc(%"class.std::basic_ostream"* dereferenceable(272) %57, i8* getelementptr inbounds ([3 x i8], [3 x i8]* @.str.3, i64 0, i64 0))
          to label %invoke.cont106 unwind label %lpad21, !dbg !3996

invoke.cont106:                                   ; preds = %for.body104
  br label %for.inc108, !dbg !3995

for.inc108:                                       ; preds = %invoke.cont106
  %58 = load i32, i32* %i, align 4, !dbg !3997
  %inc109 = add nsw i32 %58, 1, !dbg !3997
  store i32 %inc109, i32* %i, align 4, !dbg !3997
  br label %for.cond102, !dbg !3998, !llvm.loop !3999

for.end110:                                       ; preds = %for.cond102
  %59 = bitcast %"class.std::__cxx11::basic_stringstream"* %os to i8*, !dbg !4001
  %add.ptr111 = getelementptr inbounds i8, i8* %59, i64 16, !dbg !4001
  %60 = bitcast i8* %add.ptr111 to %"class.std::basic_ostream"*, !dbg !4001
  %call113 = invoke dereferenceable(272) %"class.std::basic_ostream"* @_ZStlsISt11char_traitsIcEERSt13basic_ostreamIcT_ES5_PKc(%"class.std::basic_ostream"* dereferenceable(272) %60, i8* getelementptr inbounds ([3 x i8], [3 x i8]* @.str.10, i64 0, i64 0))
          to label %invoke.cont112 unwind label %lpad21, !dbg !4002

invoke.cont112:                                   ; preds = %for.end110
  %61 = bitcast %class.cXMLElement* %this1 to i8* (%class.cXMLElement*)***, !dbg !4003
  %vtable114 = load i8* (%class.cXMLElement*)**, i8* (%class.cXMLElement*)*** %61, align 8, !dbg !4003
  %vfn115 = getelementptr inbounds i8* (%class.cXMLElement*)*, i8* (%class.cXMLElement*)** %vtable114, i64 8, !dbg !4003
  %62 = load i8* (%class.cXMLElement*)*, i8* (%class.cXMLElement*)** %vfn115, align 8, !dbg !4003
  %call117 = invoke i8* %62(%class.cXMLElement* %this1)
          to label %invoke.cont116 unwind label %lpad21, !dbg !4003

invoke.cont116:                                   ; preds = %invoke.cont112
  %call119 = invoke dereferenceable(272) %"class.std::basic_ostream"* @_ZStlsISt11char_traitsIcEERSt13basic_ostreamIcT_ES5_PKc(%"class.std::basic_ostream"* dereferenceable(272) %call113, i8* %call117)
          to label %invoke.cont118 unwind label %lpad21, !dbg !4004

invoke.cont118:                                   ; preds = %invoke.cont116
  %call121 = invoke dereferenceable(272) %"class.std::basic_ostream"* @_ZStlsISt11char_traitsIcEERSt13basic_ostreamIcT_ES5_PKc(%"class.std::basic_ostream"* dereferenceable(272) %call119, i8* getelementptr inbounds ([3 x i8], [3 x i8]* @.str.11, i64 0, i64 0))
          to label %invoke.cont120 unwind label %lpad21, !dbg !4005

invoke.cont120:                                   ; preds = %invoke.cont118
  invoke void @_ZNKSt7__cxx1118basic_stringstreamIcSt11char_traitsIcESaIcEE3strEv(%"class.std::__cxx11::basic_string"* sret %agg.result, %"class.std::__cxx11::basic_stringstream"* %os)
          to label %invoke.cont122 unwind label %lpad21, !dbg !4006

invoke.cont122:                                   ; preds = %invoke.cont120
  store i32 1, i32* %cleanup.dest.slot, align 4
  br label %cleanup, !dbg !4007

cleanup:                                          ; preds = %invoke.cont122, %invoke.cont78, %invoke.cont50
  call void @_ZNSt3mapINSt7__cxx1112basic_stringIcSt11char_traitsIcESaIcEEES5_St4lessIS5_ESaISt4pairIKS5_S5_EEED2Ev(%"class.std::map"* %map) #3, !dbg !4008
  call void @_ZNSt7__cxx1118basic_stringstreamIcSt11char_traitsIcESaIcEED1Ev(%"class.std::__cxx11::basic_stringstream"* %os) #3, !dbg !4008
  ret void, !dbg !4008

ehcleanup:                                        ; preds = %lpad93, %lpad21
  call void @_ZNSt3mapINSt7__cxx1112basic_stringIcSt11char_traitsIcESaIcEEES5_St4lessIS5_ESaISt4pairIKS5_S5_EEED2Ev(%"class.std::map"* %map) #3, !dbg !4008
  br label %ehcleanup124, !dbg !4008

ehcleanup124:                                     ; preds = %ehcleanup, %lpad
  call void @_ZNSt7__cxx1118basic_stringstreamIcSt11char_traitsIcESaIcEED1Ev(%"class.std::__cxx11::basic_stringstream"* %os) #3, !dbg !4008
  br label %eh.resume, !dbg !4008

eh.resume:                                        ; preds = %ehcleanup124
  %exn = load i8*, i8** %exn.slot, align 8, !dbg !4008
  %sel = load i32, i32* %ehselector.slot, align 4, !dbg !4008
  %lpad.val = insertvalue { i8*, i32 } undef, i8* %exn, 0, !dbg !4008
  %lpad.val125 = insertvalue { i8*, i32 } %lpad.val, i32 %sel, 1, !dbg !4008
  resume { i8*, i32 } %lpad.val125, !dbg !4008
}

declare dso_local void @_ZNSt7__cxx1118basic_stringstreamIcSt11char_traitsIcESaIcEEC1Ev(%"class.std::__cxx11::basic_stringstream"*) unnamed_addr #1

declare dso_local dereferenceable(272) %"class.std::basic_ostream"* @_ZStlsISt11char_traitsIcEERSt13basic_ostreamIcT_ES5_PKc(%"class.std::basic_ostream"* dereferenceable(272), i8*) #1

; Function Attrs: noinline uwtable
define linkonce_odr dso_local void @_ZNSt3mapINSt7__cxx1112basic_stringIcSt11char_traitsIcESaIcEEES5_St4lessIS5_ESaISt4pairIKS5_S5_EEEC2ERKSC_(%"class.std::map"* %this, %"class.std::map"* dereferenceable(48) %0) unnamed_addr #0 comdat align 2 !dbg !4009 {
entry:
  %this.addr = alloca %"class.std::map"*, align 8
  %.addr = alloca %"class.std::map"*, align 8
  store %"class.std::map"* %this, %"class.std::map"** %this.addr, align 8
  call void @llvm.dbg.declare(metadata %"class.std::map"** %this.addr, metadata !4010, metadata !DIExpression()), !dbg !4011
  store %"class.std::map"* %0, %"class.std::map"** %.addr, align 8
  call void @llvm.dbg.declare(metadata %"class.std::map"** %.addr, metadata !4012, metadata !DIExpression()), !dbg !4013
  %this1 = load %"class.std::map"*, %"class.std::map"** %this.addr, align 8
  %_M_t = getelementptr inbounds %"class.std::map", %"class.std::map"* %this1, i32 0, i32 0, !dbg !4014
  %1 = load %"class.std::map"*, %"class.std::map"** %.addr, align 8, !dbg !4014
  %_M_t2 = getelementptr inbounds %"class.std::map", %"class.std::map"* %1, i32 0, i32 0, !dbg !4014
  call void @_ZNSt8_Rb_treeINSt7__cxx1112basic_stringIcSt11char_traitsIcESaIcEEESt4pairIKS5_S5_ESt10_Select1stIS8_ESt4lessIS5_ESaIS8_EEC2ERKSE_(%"class.std::_Rb_tree"* %_M_t, %"class.std::_Rb_tree"* dereferenceable(48) %_M_t2), !dbg !4014
  ret void, !dbg !4015
}

; Function Attrs: noinline nounwind uwtable
define linkonce_odr dso_local %"struct.std::_Rb_tree_node_base"* @_ZNSt3mapINSt7__cxx1112basic_stringIcSt11char_traitsIcESaIcEEES5_St4lessIS5_ESaISt4pairIKS5_S5_EEE5beginEv(%"class.std::map"* %this) #5 comdat align 2 !dbg !4016 {
entry:
  %retval = alloca %"struct.std::_Rb_tree_iterator", align 8
  %this.addr = alloca %"class.std::map"*, align 8
  store %"class.std::map"* %this, %"class.std::map"** %this.addr, align 8
  call void @llvm.dbg.declare(metadata %"class.std::map"** %this.addr, metadata !4017, metadata !DIExpression()), !dbg !4018
  %this1 = load %"class.std::map"*, %"class.std::map"** %this.addr, align 8
  %_M_t = getelementptr inbounds %"class.std::map", %"class.std::map"* %this1, i32 0, i32 0, !dbg !4019
  %call = call %"struct.std::_Rb_tree_node_base"* @_ZNSt8_Rb_treeINSt7__cxx1112basic_stringIcSt11char_traitsIcESaIcEEESt4pairIKS5_S5_ESt10_Select1stIS8_ESt4lessIS5_ESaIS8_EE5beginEv(%"class.std::_Rb_tree"* %_M_t) #3, !dbg !4020
  %coerce.dive = getelementptr inbounds %"struct.std::_Rb_tree_iterator", %"struct.std::_Rb_tree_iterator"* %retval, i32 0, i32 0, !dbg !4020
  store %"struct.std::_Rb_tree_node_base"* %call, %"struct.std::_Rb_tree_node_base"** %coerce.dive, align 8, !dbg !4020
  %coerce.dive2 = getelementptr inbounds %"struct.std::_Rb_tree_iterator", %"struct.std::_Rb_tree_iterator"* %retval, i32 0, i32 0, !dbg !4021
  %0 = load %"struct.std::_Rb_tree_node_base"*, %"struct.std::_Rb_tree_node_base"** %coerce.dive2, align 8, !dbg !4021
  ret %"struct.std::_Rb_tree_node_base"* %0, !dbg !4021
}

; Function Attrs: noinline nounwind uwtable
define linkonce_odr dso_local zeroext i1 @_ZStneRKSt17_Rb_tree_iteratorISt4pairIKNSt7__cxx1112basic_stringIcSt11char_traitsIcESaIcEEES6_EESB_(%"struct.std::_Rb_tree_iterator"* dereferenceable(8) %__x, %"struct.std::_Rb_tree_iterator"* dereferenceable(8) %__y) #5 comdat !dbg !4022 {
entry:
  %__x.addr = alloca %"struct.std::_Rb_tree_iterator"*, align 8
  %__y.addr = alloca %"struct.std::_Rb_tree_iterator"*, align 8
  store %"struct.std::_Rb_tree_iterator"* %__x, %"struct.std::_Rb_tree_iterator"** %__x.addr, align 8
  call void @llvm.dbg.declare(metadata %"struct.std::_Rb_tree_iterator"** %__x.addr, metadata !4027, metadata !DIExpression()), !dbg !4028
  store %"struct.std::_Rb_tree_iterator"* %__y, %"struct.std::_Rb_tree_iterator"** %__y.addr, align 8
  call void @llvm.dbg.declare(metadata %"struct.std::_Rb_tree_iterator"** %__y.addr, metadata !4029, metadata !DIExpression()), !dbg !4030
  %0 = load %"struct.std::_Rb_tree_iterator"*, %"struct.std::_Rb_tree_iterator"** %__x.addr, align 8, !dbg !4031
  %_M_node = getelementptr inbounds %"struct.std::_Rb_tree_iterator", %"struct.std::_Rb_tree_iterator"* %0, i32 0, i32 0, !dbg !4032
  %1 = load %"struct.std::_Rb_tree_node_base"*, %"struct.std::_Rb_tree_node_base"** %_M_node, align 8, !dbg !4032
  %2 = load %"struct.std::_Rb_tree_iterator"*, %"struct.std::_Rb_tree_iterator"** %__y.addr, align 8, !dbg !4033
  %_M_node1 = getelementptr inbounds %"struct.std::_Rb_tree_iterator", %"struct.std::_Rb_tree_iterator"* %2, i32 0, i32 0, !dbg !4034
  %3 = load %"struct.std::_Rb_tree_node_base"*, %"struct.std::_Rb_tree_node_base"** %_M_node1, align 8, !dbg !4034
  %cmp = icmp ne %"struct.std::_Rb_tree_node_base"* %1, %3, !dbg !4035
  ret i1 %cmp, !dbg !4036
}

; Function Attrs: noinline nounwind uwtable
define linkonce_odr dso_local %"struct.std::_Rb_tree_node_base"* @_ZNSt3mapINSt7__cxx1112basic_stringIcSt11char_traitsIcESaIcEEES5_St4lessIS5_ESaISt4pairIKS5_S5_EEE3endEv(%"class.std::map"* %this) #5 comdat align 2 !dbg !4037 {
entry:
  %retval = alloca %"struct.std::_Rb_tree_iterator", align 8
  %this.addr = alloca %"class.std::map"*, align 8
  store %"class.std::map"* %this, %"class.std::map"** %this.addr, align 8
  call void @llvm.dbg.declare(metadata %"class.std::map"** %this.addr, metadata !4038, metadata !DIExpression()), !dbg !4039
  %this1 = load %"class.std::map"*, %"class.std::map"** %this.addr, align 8
  %_M_t = getelementptr inbounds %"class.std::map", %"class.std::map"* %this1, i32 0, i32 0, !dbg !4040
  %call = call %"struct.std::_Rb_tree_node_base"* @_ZNSt8_Rb_treeINSt7__cxx1112basic_stringIcSt11char_traitsIcESaIcEEESt4pairIKS5_S5_ESt10_Select1stIS8_ESt4lessIS5_ESaIS8_EE3endEv(%"class.std::_Rb_tree"* %_M_t) #3, !dbg !4041
  %coerce.dive = getelementptr inbounds %"struct.std::_Rb_tree_iterator", %"struct.std::_Rb_tree_iterator"* %retval, i32 0, i32 0, !dbg !4041
  store %"struct.std::_Rb_tree_node_base"* %call, %"struct.std::_Rb_tree_node_base"** %coerce.dive, align 8, !dbg !4041
  %coerce.dive2 = getelementptr inbounds %"struct.std::_Rb_tree_iterator", %"struct.std::_Rb_tree_iterator"* %retval, i32 0, i32 0, !dbg !4042
  %0 = load %"struct.std::_Rb_tree_node_base"*, %"struct.std::_Rb_tree_node_base"** %coerce.dive2, align 8, !dbg !4042
  ret %"struct.std::_Rb_tree_node_base"* %0, !dbg !4042
}

declare dso_local dereferenceable(272) %"class.std::basic_ostream"* @_ZStlsIcSt11char_traitsIcESaIcEERSt13basic_ostreamIT_T0_ES7_RKNSt7__cxx1112basic_stringIS4_S5_T1_EE(%"class.std::basic_ostream"* dereferenceable(272), %"class.std::__cxx11::basic_string"* dereferenceable(32)) #1

; Function Attrs: noinline nounwind uwtable
define linkonce_odr dso_local %"struct.std::pair"* @_ZNKSt17_Rb_tree_iteratorISt4pairIKNSt7__cxx1112basic_stringIcSt11char_traitsIcESaIcEEES6_EEptEv(%"struct.std::_Rb_tree_iterator"* %this) #5 comdat align 2 personality i8* bitcast (i32 (...)* @__gxx_personality_v0 to i8*) !dbg !4043 {
entry:
  %this.addr = alloca %"struct.std::_Rb_tree_iterator"*, align 8
  store %"struct.std::_Rb_tree_iterator"* %this, %"struct.std::_Rb_tree_iterator"** %this.addr, align 8
  call void @llvm.dbg.declare(metadata %"struct.std::_Rb_tree_iterator"** %this.addr, metadata !4044, metadata !DIExpression()), !dbg !4046
  %this1 = load %"struct.std::_Rb_tree_iterator"*, %"struct.std::_Rb_tree_iterator"** %this.addr, align 8
  %_M_node = getelementptr inbounds %"struct.std::_Rb_tree_iterator", %"struct.std::_Rb_tree_iterator"* %this1, i32 0, i32 0, !dbg !4047
  %0 = load %"struct.std::_Rb_tree_node_base"*, %"struct.std::_Rb_tree_node_base"** %_M_node, align 8, !dbg !4047
  %1 = bitcast %"struct.std::_Rb_tree_node_base"* %0 to %"struct.std::_Rb_tree_node"*, !dbg !4048
  %call = invoke %"struct.std::pair"* @_ZNSt13_Rb_tree_nodeISt4pairIKNSt7__cxx1112basic_stringIcSt11char_traitsIcESaIcEEES6_EE9_M_valptrEv(%"struct.std::_Rb_tree_node"* %1)
          to label %invoke.cont unwind label %terminate.lpad, !dbg !4049

invoke.cont:                                      ; preds = %entry
  ret %"struct.std::pair"* %call, !dbg !4050

terminate.lpad:                                   ; preds = %entry
  %2 = landingpad { i8*, i32 }
          catch i8* null, !dbg !4049
  %3 = extractvalue { i8*, i32 } %2, 0, !dbg !4049
  call void @__clang_call_terminate(i8* %3) #13, !dbg !4049
  unreachable, !dbg !4049
}

; Function Attrs: noinline nounwind uwtable
define linkonce_odr dso_local %"struct.std::_Rb_tree_node_base"* @_ZNSt17_Rb_tree_iteratorISt4pairIKNSt7__cxx1112basic_stringIcSt11char_traitsIcESaIcEEES6_EEppEi(%"struct.std::_Rb_tree_iterator"* %this, i32 %0) #5 comdat align 2 !dbg !4051 {
entry:
  %retval = alloca %"struct.std::_Rb_tree_iterator", align 8
  %this.addr = alloca %"struct.std::_Rb_tree_iterator"*, align 8
  %.addr = alloca i32, align 4
  store %"struct.std::_Rb_tree_iterator"* %this, %"struct.std::_Rb_tree_iterator"** %this.addr, align 8
  call void @llvm.dbg.declare(metadata %"struct.std::_Rb_tree_iterator"** %this.addr, metadata !4052, metadata !DIExpression()), !dbg !4054
  store i32 %0, i32* %.addr, align 4
  call void @llvm.dbg.declare(metadata i32* %.addr, metadata !4055, metadata !DIExpression()), !dbg !4056
  %this1 = load %"struct.std::_Rb_tree_iterator"*, %"struct.std::_Rb_tree_iterator"** %this.addr, align 8
  call void @llvm.dbg.declare(metadata %"struct.std::_Rb_tree_iterator"* %retval, metadata !4057, metadata !DIExpression()), !dbg !4058
  %1 = bitcast %"struct.std::_Rb_tree_iterator"* %retval to i8*, !dbg !4059
  %2 = bitcast %"struct.std::_Rb_tree_iterator"* %this1 to i8*, !dbg !4059
  call void @llvm.memcpy.p0i8.p0i8.i64(i8* align 8 %1, i8* align 8 %2, i64 8, i1 false), !dbg !4059
  %_M_node = getelementptr inbounds %"struct.std::_Rb_tree_iterator", %"struct.std::_Rb_tree_iterator"* %this1, i32 0, i32 0, !dbg !4060
  %3 = load %"struct.std::_Rb_tree_node_base"*, %"struct.std::_Rb_tree_node_base"** %_M_node, align 8, !dbg !4060
  %call = call %"struct.std::_Rb_tree_node_base"* @_ZSt18_Rb_tree_incrementPSt18_Rb_tree_node_base(%"struct.std::_Rb_tree_node_base"* %3) #15, !dbg !4061
  %_M_node2 = getelementptr inbounds %"struct.std::_Rb_tree_iterator", %"struct.std::_Rb_tree_iterator"* %this1, i32 0, i32 0, !dbg !4062
  store %"struct.std::_Rb_tree_node_base"* %call, %"struct.std::_Rb_tree_node_base"** %_M_node2, align 8, !dbg !4063
  %coerce.dive = getelementptr inbounds %"struct.std::_Rb_tree_iterator", %"struct.std::_Rb_tree_iterator"* %retval, i32 0, i32 0, !dbg !4064
  %4 = load %"struct.std::_Rb_tree_node_base"*, %"struct.std::_Rb_tree_node_base"** %coerce.dive, align 8, !dbg !4064
  ret %"struct.std::_Rb_tree_node_base"* %4, !dbg !4064
}

declare dso_local void @_ZNKSt7__cxx1118basic_stringstreamIcSt11char_traitsIcESaIcEE3strEv(%"class.std::__cxx11::basic_string"* sret, %"class.std::__cxx11::basic_stringstream"*) #1

; Function Attrs: nounwind
declare dso_local void @_ZNSt7__cxx1118basic_stringstreamIcSt11char_traitsIcESaIcEED1Ev(%"class.std::__cxx11::basic_stringstream"*) unnamed_addr #2

; Function Attrs: noinline uwtable
define dso_local void @_ZNK11cXMLElement12detailedInfoB5cxx11Ev(%"class.std::__cxx11::basic_string"* noalias sret %agg.result, %class.cXMLElement* %this) unnamed_addr #0 align 2 !dbg !4065 {
entry:
  %result.ptr = alloca i8*, align 8
  %this.addr = alloca %class.cXMLElement*, align 8
  %0 = bitcast %"class.std::__cxx11::basic_string"* %agg.result to i8*
  store i8* %0, i8** %result.ptr, align 8
  store %class.cXMLElement* %this, %class.cXMLElement** %this.addr, align 8
  call void @llvm.dbg.declare(metadata %class.cXMLElement** %this.addr, metadata !4066, metadata !DIExpression()), !dbg !4067
  %this1 = load %class.cXMLElement*, %class.cXMLElement** %this.addr, align 8
  call void @_ZNK11cXMLElement5tostrB5cxx11Ei(%"class.std::__cxx11::basic_string"* sret %agg.result, %class.cXMLElement* %this1, i32 0), !dbg !4068
  ret void, !dbg !4069
}

; Function Attrs: noinline uwtable
define dso_local void @_ZNK11cXMLElement9debugDumpEv(%class.cXMLElement* %this) #0 align 2 personality i8* bitcast (i32 (...)* @__gxx_personality_v0 to i8*) !dbg !4070 {
entry:
  %this.addr = alloca %class.cXMLElement*, align 8
  %ref.tmp = alloca %"class.std::__cxx11::basic_string", align 8
  %exn.slot = alloca i8*
  %ehselector.slot = alloca i32
  store %class.cXMLElement* %this, %class.cXMLElement** %this.addr, align 8
  call void @llvm.dbg.declare(metadata %class.cXMLElement** %this.addr, metadata !4071, metadata !DIExpression()), !dbg !4072
  %this1 = load %class.cXMLElement*, %class.cXMLElement** %this.addr, align 8
  %call = call %class.cEnvir* @_ZN11cSimulation14getActiveEnvirEv(), !dbg !4073
  %0 = bitcast %class.cXMLElement* %this1 to void (%"class.std::__cxx11::basic_string"*, %class.cXMLElement*)***, !dbg !4074
  %vtable = load void (%"class.std::__cxx11::basic_string"*, %class.cXMLElement*)**, void (%"class.std::__cxx11::basic_string"*, %class.cXMLElement*)*** %0, align 8, !dbg !4074
  %vfn = getelementptr inbounds void (%"class.std::__cxx11::basic_string"*, %class.cXMLElement*)*, void (%"class.std::__cxx11::basic_string"*, %class.cXMLElement*)** %vtable, i64 25, !dbg !4074
  %1 = load void (%"class.std::__cxx11::basic_string"*, %class.cXMLElement*)*, void (%"class.std::__cxx11::basic_string"*, %class.cXMLElement*)** %vfn, align 8, !dbg !4074
  call void %1(%"class.std::__cxx11::basic_string"* sret %ref.tmp, %class.cXMLElement* %this1), !dbg !4074
  %call2 = invoke dereferenceable(288) %class.cEnvir* @_ZN6cEnvirlsERKNSt7__cxx1112basic_stringIcSt11char_traitsIcESaIcEEE(%class.cEnvir* %call, %"class.std::__cxx11::basic_string"* dereferenceable(32) %ref.tmp)
          to label %invoke.cont unwind label %lpad, !dbg !4075

invoke.cont:                                      ; preds = %entry
  call void @_ZNSt7__cxx1112basic_stringIcSt11char_traitsIcESaIcEED1Ev(%"class.std::__cxx11::basic_string"* %ref.tmp) #3, !dbg !4073
  ret void, !dbg !4076

lpad:                                             ; preds = %entry
  %2 = landingpad { i8*, i32 }
          cleanup, !dbg !4076
  %3 = extractvalue { i8*, i32 } %2, 0, !dbg !4076
  store i8* %3, i8** %exn.slot, align 8, !dbg !4076
  %4 = extractvalue { i8*, i32 } %2, 1, !dbg !4076
  store i32 %4, i32* %ehselector.slot, align 4, !dbg !4076
  call void @_ZNSt7__cxx1112basic_stringIcSt11char_traitsIcESaIcEED1Ev(%"class.std::__cxx11::basic_string"* %ref.tmp) #3, !dbg !4073
  br label %eh.resume, !dbg !4073

eh.resume:                                        ; preds = %lpad
  %exn = load i8*, i8** %exn.slot, align 8, !dbg !4073
  %sel = load i32, i32* %ehselector.slot, align 4, !dbg !4073
  %lpad.val = insertvalue { i8*, i32 } undef, i8* %exn, 0, !dbg !4073
  %lpad.val3 = insertvalue { i8*, i32 } %lpad.val, i32 %sel, 1, !dbg !4073
  resume { i8*, i32 } %lpad.val3, !dbg !4073
}

; Function Attrs: noinline nounwind uwtable
define linkonce_odr dso_local %class.cEnvir* @_ZN11cSimulation14getActiveEnvirEv() #5 comdat align 2 !dbg !4077 {
entry:
  %0 = load %class.cEnvir*, %class.cEnvir** @_ZN11cSimulation5evPtrE, align 8, !dbg !4086
  ret %class.cEnvir* %0, !dbg !4087
}

; Function Attrs: noinline uwtable
define linkonce_odr dso_local dereferenceable(288) %class.cEnvir* @_ZN6cEnvirlsERKNSt7__cxx1112basic_stringIcSt11char_traitsIcESaIcEEE(%class.cEnvir* %this, %"class.std::__cxx11::basic_string"* dereferenceable(32) %t) #0 comdat align 2 !dbg !4088 {
entry:
  %this.addr = alloca %class.cEnvir*, align 8
  %t.addr = alloca %"class.std::__cxx11::basic_string"*, align 8
  store %class.cEnvir* %this, %class.cEnvir** %this.addr, align 8
  call void @llvm.dbg.declare(metadata %class.cEnvir** %this.addr, metadata !4096, metadata !DIExpression()), !dbg !4097
  store %"class.std::__cxx11::basic_string"* %t, %"class.std::__cxx11::basic_string"** %t.addr, align 8
  call void @llvm.dbg.declare(metadata %"class.std::__cxx11::basic_string"** %t.addr, metadata !4098, metadata !DIExpression()), !dbg !4099
  %this1 = load %class.cEnvir*, %class.cEnvir** %this.addr, align 8
  %out = getelementptr inbounds %class.cEnvir, %class.cEnvir* %this1, i32 0, i32 4, !dbg !4100
  %0 = load %"class.std::__cxx11::basic_string"*, %"class.std::__cxx11::basic_string"** %t.addr, align 8, !dbg !4101
  %call = call dereferenceable(272) %"class.std::basic_ostream"* @_ZStlsIcSt11char_traitsIcESaIcEERSt13basic_ostreamIT_T0_ES7_RKNSt7__cxx1112basic_stringIS4_S5_T1_EE(%"class.std::basic_ostream"* dereferenceable(272) %out, %"class.std::__cxx11::basic_string"* dereferenceable(32) %0), !dbg !4102
  ret %class.cEnvir* %this1, !dbg !4103
}

; Function Attrs: noinline uwtable
define dso_local zeroext i1 @_ZN20ModNameParamResolver7resolveEPKcRNSt7__cxx1112basic_stringIcSt11char_traitsIcESaIcEEE(%class.ModNameParamResolver* %this, i8* %paramname, %"class.std::__cxx11::basic_string"* dereferenceable(32) %value) unnamed_addr #0 align 2 !dbg !4104 {
entry:
  %retval = alloca i1, align 1
  %this.addr = alloca %class.ModNameParamResolver*, align 8
  %paramname.addr = alloca i8*, align 8
  %value.addr = alloca %"class.std::__cxx11::basic_string"*, align 8
  %parentMod = alloca %class.cModule*, align 8
  %grandparentMod = alloca %class.cModule*, align 8
  %ref.tmp = alloca %"class.std::__cxx11::basic_string", align 8
  %ref.tmp35 = alloca %"class.std::__cxx11::basic_string", align 8
  %ref.tmp43 = alloca %"class.std::__cxx11::basic_string", align 8
  %ref.tmp52 = alloca %"class.std::__cxx11::basic_string", align 8
  %ref.tmp82 = alloca %"class.std::__cxx11::basic_string", align 8
  %ref.tmp91 = alloca %"class.std::__cxx11::basic_string", align 8
  %ref.tmp100 = alloca %"class.std::__cxx11::basic_string", align 8
  %ref.tmp130 = alloca %"class.std::__cxx11::basic_string", align 8
  %ref.tmp139 = alloca %"class.std::__cxx11::basic_string", align 8
  store %class.ModNameParamResolver* %this, %class.ModNameParamResolver** %this.addr, align 8
  call void @llvm.dbg.declare(metadata %class.ModNameParamResolver** %this.addr, metadata !4119, metadata !DIExpression()), !dbg !4121
  store i8* %paramname, i8** %paramname.addr, align 8
  call void @llvm.dbg.declare(metadata i8** %paramname.addr, metadata !4122, metadata !DIExpression()), !dbg !4123
  store %"class.std::__cxx11::basic_string"* %value, %"class.std::__cxx11::basic_string"** %value.addr, align 8
  call void @llvm.dbg.declare(metadata %"class.std::__cxx11::basic_string"** %value.addr, metadata !4124, metadata !DIExpression()), !dbg !4125
  %this1 = load %class.ModNameParamResolver*, %class.ModNameParamResolver** %this.addr, align 8
  %mod = getelementptr inbounds %class.ModNameParamResolver, %class.ModNameParamResolver* %this1, i32 0, i32 1, !dbg !4126
  %0 = load %class.cModule*, %class.cModule** %mod, align 8, !dbg !4126
  %tobool = icmp ne %class.cModule* %0, null, !dbg !4126
  br i1 %tobool, label %if.end, label %if.then, !dbg !4128

if.then:                                          ; preds = %entry
  store i1 false, i1* %retval, align 1, !dbg !4129
  br label %return, !dbg !4129

if.end:                                           ; preds = %entry
  call void @llvm.dbg.declare(metadata %class.cModule** %parentMod, metadata !4130, metadata !DIExpression()), !dbg !4131
  %mod2 = getelementptr inbounds %class.ModNameParamResolver, %class.ModNameParamResolver* %this1, i32 0, i32 1, !dbg !4132
  %1 = load %class.cModule*, %class.cModule** %mod2, align 8, !dbg !4132
  %2 = bitcast %class.cModule* %1 to %class.cModule* (%class.cModule*)***, !dbg !4133
  %vtable = load %class.cModule* (%class.cModule*)**, %class.cModule* (%class.cModule*)*** %2, align 8, !dbg !4133
  %vfn = getelementptr inbounds %class.cModule* (%class.cModule*)*, %class.cModule* (%class.cModule*)** %vtable, i64 37, !dbg !4133
  %3 = load %class.cModule* (%class.cModule*)*, %class.cModule* (%class.cModule*)** %vfn, align 8, !dbg !4133
  %call = call %class.cModule* %3(%class.cModule* %1), !dbg !4133
  store %class.cModule* %call, %class.cModule** %parentMod, align 8, !dbg !4131
  call void @llvm.dbg.declare(metadata %class.cModule** %grandparentMod, metadata !4134, metadata !DIExpression()), !dbg !4135
  %4 = load %class.cModule*, %class.cModule** %parentMod, align 8, !dbg !4136
  %tobool3 = icmp ne %class.cModule* %4, null, !dbg !4136
  br i1 %tobool3, label %cond.true, label %cond.false, !dbg !4136

cond.true:                                        ; preds = %if.end
  %5 = load %class.cModule*, %class.cModule** %parentMod, align 8, !dbg !4137
  %6 = bitcast %class.cModule* %5 to %class.cModule* (%class.cModule*)***, !dbg !4138
  %vtable4 = load %class.cModule* (%class.cModule*)**, %class.cModule* (%class.cModule*)*** %6, align 8, !dbg !4138
  %vfn5 = getelementptr inbounds %class.cModule* (%class.cModule*)*, %class.cModule* (%class.cModule*)** %vtable4, i64 37, !dbg !4138
  %7 = load %class.cModule* (%class.cModule*)*, %class.cModule* (%class.cModule*)** %vfn5, align 8, !dbg !4138
  %call6 = call %class.cModule* %7(%class.cModule* %5), !dbg !4138
  br label %cond.end, !dbg !4136

cond.false:                                       ; preds = %if.end
  br label %cond.end, !dbg !4136

cond.end:                                         ; preds = %cond.false, %cond.true
  %cond = phi %class.cModule* [ %call6, %cond.true ], [ null, %cond.false ], !dbg !4136
  store %class.cModule* %cond, %class.cModule** %grandparentMod, align 8, !dbg !4135
  %8 = load i8*, i8** %paramname.addr, align 8, !dbg !4139
  %call7 = call i32 @strcmp(i8* %8, i8* getelementptr inbounds ([16 x i8], [16 x i8]* @.str.13, i64 0, i64 0)) #15, !dbg !4141
  %tobool8 = icmp ne i32 %call7, 0, !dbg !4141
  br i1 %tobool8, label %if.else, label %if.then9, !dbg !4142

if.then9:                                         ; preds = %cond.end
  %mod10 = getelementptr inbounds %class.ModNameParamResolver, %class.ModNameParamResolver* %this1, i32 0, i32 1, !dbg !4143
  %9 = load %class.cModule*, %class.cModule** %mod10, align 8, !dbg !4143
  %10 = bitcast %class.cModule* %9 to void (%"class.std::__cxx11::basic_string"*, %class.cModule*)***, !dbg !4144
  %vtable11 = load void (%"class.std::__cxx11::basic_string"*, %class.cModule*)**, void (%"class.std::__cxx11::basic_string"*, %class.cModule*)*** %10, align 8, !dbg !4144
  %vfn12 = getelementptr inbounds void (%"class.std::__cxx11::basic_string"*, %class.cModule*)*, void (%"class.std::__cxx11::basic_string"*, %class.cModule*)** %vtable11, i64 8, !dbg !4144
  %11 = load void (%"class.std::__cxx11::basic_string"*, %class.cModule*)*, void (%"class.std::__cxx11::basic_string"*, %class.cModule*)** %vfn12, align 8, !dbg !4144
  call void %11(%"class.std::__cxx11::basic_string"* sret %ref.tmp, %class.cModule* %9), !dbg !4144
  %12 = load %"class.std::__cxx11::basic_string"*, %"class.std::__cxx11::basic_string"** %value.addr, align 8, !dbg !4145
  %call13 = call dereferenceable(32) %"class.std::__cxx11::basic_string"* @_ZNSt7__cxx1112basic_stringIcSt11char_traitsIcESaIcEEaSEOS4_(%"class.std::__cxx11::basic_string"* %12, %"class.std::__cxx11::basic_string"* dereferenceable(32) %ref.tmp) #3, !dbg !4146
  call void @_ZNSt7__cxx1112basic_stringIcSt11char_traitsIcESaIcEED1Ev(%"class.std::__cxx11::basic_string"* %ref.tmp) #3, !dbg !4145
  br label %if.end157, !dbg !4145

if.else:                                          ; preds = %cond.end
  %13 = load i8*, i8** %paramname.addr, align 8, !dbg !4147
  %call14 = call i32 @strcmp(i8* %13, i8* getelementptr inbounds ([16 x i8], [16 x i8]* @.str.14, i64 0, i64 0)) #15, !dbg !4149
  %tobool15 = icmp ne i32 %call14, 0, !dbg !4149
  br i1 %tobool15, label %if.else22, label %if.then16, !dbg !4150

if.then16:                                        ; preds = %if.else
  %mod17 = getelementptr inbounds %class.ModNameParamResolver, %class.ModNameParamResolver* %this1, i32 0, i32 1, !dbg !4151
  %14 = load %class.cModule*, %class.cModule** %mod17, align 8, !dbg !4151
  %15 = bitcast %class.cModule* %14 to i8* (%class.cModule*)***, !dbg !4152
  %vtable18 = load i8* (%class.cModule*)**, i8* (%class.cModule*)*** %15, align 8, !dbg !4152
  %vfn19 = getelementptr inbounds i8* (%class.cModule*)*, i8* (%class.cModule*)** %vtable18, i64 7, !dbg !4152
  %16 = load i8* (%class.cModule*)*, i8* (%class.cModule*)** %vfn19, align 8, !dbg !4152
  %call20 = call i8* %16(%class.cModule* %14), !dbg !4152
  %17 = load %"class.std::__cxx11::basic_string"*, %"class.std::__cxx11::basic_string"** %value.addr, align 8, !dbg !4153
  %call21 = call dereferenceable(32) %"class.std::__cxx11::basic_string"* @_ZNSt7__cxx1112basic_stringIcSt11char_traitsIcESaIcEEaSEPKc(%"class.std::__cxx11::basic_string"* %17, i8* %call20), !dbg !4154
  br label %if.end156, !dbg !4153

if.else22:                                        ; preds = %if.else
  %18 = load i8*, i8** %paramname.addr, align 8, !dbg !4155
  %call23 = call i32 @strcmp(i8* %18, i8* getelementptr inbounds ([12 x i8], [12 x i8]* @.str.15, i64 0, i64 0)) #15, !dbg !4157
  %tobool24 = icmp ne i32 %call23, 0, !dbg !4157
  br i1 %tobool24, label %if.else31, label %if.then25, !dbg !4158

if.then25:                                        ; preds = %if.else22
  %mod26 = getelementptr inbounds %class.ModNameParamResolver, %class.ModNameParamResolver* %this1, i32 0, i32 1, !dbg !4159
  %19 = load %class.cModule*, %class.cModule** %mod26, align 8, !dbg !4159
  %20 = bitcast %class.cModule* %19 to %class.cNamedObject*, !dbg !4160
  %21 = bitcast %class.cNamedObject* %20 to i8* (%class.cNamedObject*)***, !dbg !4160
  %vtable27 = load i8* (%class.cNamedObject*)**, i8* (%class.cNamedObject*)*** %21, align 8, !dbg !4160
  %vfn28 = getelementptr inbounds i8* (%class.cNamedObject*)*, i8* (%class.cNamedObject*)** %vtable27, i64 6, !dbg !4160
  %22 = load i8* (%class.cNamedObject*)*, i8* (%class.cNamedObject*)** %vfn28, align 8, !dbg !4160
  %call29 = call i8* %22(%class.cNamedObject* %20), !dbg !4160
  %23 = load %"class.std::__cxx11::basic_string"*, %"class.std::__cxx11::basic_string"** %value.addr, align 8, !dbg !4161
  %call30 = call dereferenceable(32) %"class.std::__cxx11::basic_string"* @_ZNSt7__cxx1112basic_stringIcSt11char_traitsIcESaIcEEaSEPKc(%"class.std::__cxx11::basic_string"* %23, i8* %call29), !dbg !4162
  br label %if.end155, !dbg !4161

if.else31:                                        ; preds = %if.else22
  %24 = load i8*, i8** %paramname.addr, align 8, !dbg !4163
  %call32 = call i32 @strcmp(i8* %24, i8* getelementptr inbounds ([13 x i8], [13 x i8]* @.str.16, i64 0, i64 0)) #15, !dbg !4165
  %tobool33 = icmp ne i32 %call32, 0, !dbg !4165
  br i1 %tobool33, label %if.else39, label %if.then34, !dbg !4166

if.then34:                                        ; preds = %if.else31
  %mod36 = getelementptr inbounds %class.ModNameParamResolver, %class.ModNameParamResolver* %this1, i32 0, i32 1, !dbg !4167
  %25 = load %class.cModule*, %class.cModule** %mod36, align 8, !dbg !4167
  %call37 = call i32 @_ZNK7cModule8getIndexEv(%class.cModule* %25), !dbg !4168
  call void @_ZL9my_itostrB5cxx11i(%"class.std::__cxx11::basic_string"* sret %ref.tmp35, i32 %call37), !dbg !4169
  %26 = load %"class.std::__cxx11::basic_string"*, %"class.std::__cxx11::basic_string"** %value.addr, align 8, !dbg !4170
  %call38 = call dereferenceable(32) %"class.std::__cxx11::basic_string"* @_ZNSt7__cxx1112basic_stringIcSt11char_traitsIcESaIcEEaSEOS4_(%"class.std::__cxx11::basic_string"* %26, %"class.std::__cxx11::basic_string"* dereferenceable(32) %ref.tmp35) #3, !dbg !4171
  call void @_ZNSt7__cxx1112basic_stringIcSt11char_traitsIcESaIcEED1Ev(%"class.std::__cxx11::basic_string"* %ref.tmp35) #3, !dbg !4170
  br label %if.end154, !dbg !4170

if.else39:                                        ; preds = %if.else31
  %27 = load i8*, i8** %paramname.addr, align 8, !dbg !4172
  %call40 = call i32 @strcmp(i8* %27, i8* getelementptr inbounds ([10 x i8], [10 x i8]* @.str.17, i64 0, i64 0)) #15, !dbg !4174
  %tobool41 = icmp ne i32 %call40, 0, !dbg !4174
  br i1 %tobool41, label %if.else47, label %if.then42, !dbg !4175

if.then42:                                        ; preds = %if.else39
  %mod44 = getelementptr inbounds %class.ModNameParamResolver, %class.ModNameParamResolver* %this1, i32 0, i32 1, !dbg !4176
  %28 = load %class.cModule*, %class.cModule** %mod44, align 8, !dbg !4176
  %call45 = call i32 @_ZNK7cModule5getIdEv(%class.cModule* %28), !dbg !4177
  call void @_ZL9my_itostrB5cxx11i(%"class.std::__cxx11::basic_string"* sret %ref.tmp43, i32 %call45), !dbg !4178
  %29 = load %"class.std::__cxx11::basic_string"*, %"class.std::__cxx11::basic_string"** %value.addr, align 8, !dbg !4179
  %call46 = call dereferenceable(32) %"class.std::__cxx11::basic_string"* @_ZNSt7__cxx1112basic_stringIcSt11char_traitsIcESaIcEEaSEOS4_(%"class.std::__cxx11::basic_string"* %29, %"class.std::__cxx11::basic_string"* dereferenceable(32) %ref.tmp43) #3, !dbg !4180
  call void @_ZNSt7__cxx1112basic_stringIcSt11char_traitsIcESaIcEED1Ev(%"class.std::__cxx11::basic_string"* %ref.tmp43) #3, !dbg !4179
  br label %if.end153, !dbg !4179

if.else47:                                        ; preds = %if.else39
  %30 = load i8*, i8** %paramname.addr, align 8, !dbg !4181
  %call48 = call i32 @strcmp(i8* %30, i8* getelementptr inbounds ([22 x i8], [22 x i8]* @.str.18, i64 0, i64 0)) #15, !dbg !4183
  %tobool49 = icmp ne i32 %call48, 0, !dbg !4183
  br i1 %tobool49, label %if.else56, label %land.lhs.true, !dbg !4184

land.lhs.true:                                    ; preds = %if.else47
  %31 = load %class.cModule*, %class.cModule** %parentMod, align 8, !dbg !4185
  %tobool50 = icmp ne %class.cModule* %31, null, !dbg !4185
  br i1 %tobool50, label %if.then51, label %if.else56, !dbg !4186

if.then51:                                        ; preds = %land.lhs.true
  %32 = load %class.cModule*, %class.cModule** %parentMod, align 8, !dbg !4187
  %33 = bitcast %class.cModule* %32 to void (%"class.std::__cxx11::basic_string"*, %class.cModule*)***, !dbg !4188
  %vtable53 = load void (%"class.std::__cxx11::basic_string"*, %class.cModule*)**, void (%"class.std::__cxx11::basic_string"*, %class.cModule*)*** %33, align 8, !dbg !4188
  %vfn54 = getelementptr inbounds void (%"class.std::__cxx11::basic_string"*, %class.cModule*)*, void (%"class.std::__cxx11::basic_string"*, %class.cModule*)** %vtable53, i64 8, !dbg !4188
  %34 = load void (%"class.std::__cxx11::basic_string"*, %class.cModule*)*, void (%"class.std::__cxx11::basic_string"*, %class.cModule*)** %vfn54, align 8, !dbg !4188
  call void %34(%"class.std::__cxx11::basic_string"* sret %ref.tmp52, %class.cModule* %32), !dbg !4188
  %35 = load %"class.std::__cxx11::basic_string"*, %"class.std::__cxx11::basic_string"** %value.addr, align 8, !dbg !4189
  %call55 = call dereferenceable(32) %"class.std::__cxx11::basic_string"* @_ZNSt7__cxx1112basic_stringIcSt11char_traitsIcESaIcEEaSEOS4_(%"class.std::__cxx11::basic_string"* %35, %"class.std::__cxx11::basic_string"* dereferenceable(32) %ref.tmp52) #3, !dbg !4190
  call void @_ZNSt7__cxx1112basic_stringIcSt11char_traitsIcESaIcEED1Ev(%"class.std::__cxx11::basic_string"* %ref.tmp52) #3, !dbg !4189
  br label %if.end152, !dbg !4189

if.else56:                                        ; preds = %land.lhs.true, %if.else47
  %36 = load i8*, i8** %paramname.addr, align 8, !dbg !4191
  %call57 = call i32 @strcmp(i8* %36, i8* getelementptr inbounds ([22 x i8], [22 x i8]* @.str.19, i64 0, i64 0)) #15, !dbg !4193
  %tobool58 = icmp ne i32 %call57, 0, !dbg !4193
  br i1 %tobool58, label %if.else66, label %land.lhs.true59, !dbg !4194

land.lhs.true59:                                  ; preds = %if.else56
  %37 = load %class.cModule*, %class.cModule** %parentMod, align 8, !dbg !4195
  %tobool60 = icmp ne %class.cModule* %37, null, !dbg !4195
  br i1 %tobool60, label %if.then61, label %if.else66, !dbg !4196

if.then61:                                        ; preds = %land.lhs.true59
