; ModuleID = 'simulator/cdisplaystring.cc'
source_filename = "simulator/cdisplaystring.cc"
target datalayout = "e-m:e-p270:32:32-p271:32:32-p272:64:64-i64:64-f80:128-n8:16:32:64-S128"
target triple = "x86_64-unknown-linux-gnu"

%"class.std::ios_base::Init" = type { i8 }
%class.cEnvir = type { i32 (...)**, i8, i8, i8, %"class.std::basic_ostream" }
%"class.std::basic_ostream" = type { i32 (...)**, %"class.std::basic_ios" }
%"class.std::basic_ios" = type { %"class.std::ios_base", %"class.std::basic_ostream"*, i8, i8, %"class.std::basic_streambuf"*, %"class.std::ctype"*, %"class.std::num_put"*, %"class.std::num_get"* }
%"class.std::ios_base" = type { i32 (...)**, i64, i64, i32, i32, i32, %"struct.std::ios_base::_Callback_list"*, %"struct.std::ios_base::_Words", [8 x %"struct.std::ios_base::_Words"], i32, %"struct.std::ios_base::_Words"*, %"class.std::locale" }
%"struct.std::ios_base::_Callback_list" = type { %"struct.std::ios_base::_Callback_list"*, void (i32, %"class.std::ios_base"*, i32)*, i32, i32 }
%"struct.std::ios_base::_Words" = type { i8*, i64 }
%"class.std::locale" = type { %"class.std::locale::_Impl"* }
%"class.std::locale::_Impl" = type { i32, %"class.std::locale::facet"**, i64, %"class.std::locale::facet"**, i8** }
%"class.std::locale::facet" = type <{ i32 (...)**, i32, [4 x i8] }>
%"class.std::basic_streambuf" = type { i32 (...)**, i8*, i8*, i8*, i8*, i8*, i8*, %"class.std::locale" }
%"class.std::ctype" = type <{ %"class.std::locale::facet.base", [4 x i8], %struct.__locale_struct*, i8, [7 x i8], i32*, i32*, i16*, i8, [256 x i8], [256 x i8], i8, [6 x i8] }>
%"class.std::locale::facet.base" = type <{ i32 (...)**, i32 }>
%struct.__locale_struct = type { [13 x %struct.__locale_data*], i16*, i32*, i32*, [13 x i8*] }
%struct.__locale_data = type opaque
%"class.std::num_put" = type { %"class.std::locale::facet.base", [4 x i8] }
%"class.std::num_get" = type { %"class.std::locale::facet.base", [4 x i8] }
%class.cDisplayString = type { i8*, i8*, %"struct.cDisplayString::Tag"*, i32, i8*, i8, %class.cComponent* }
%"struct.cDisplayString::Tag" = type { i8*, i32, [16 x i8*] }
%class.cComponent = type { %class.cDefaultList, %class.cComponentType*, i16, i32*, i16, i16, %class.cPar*, %class.cDisplayString* }
%class.cDefaultList = type { %class.cNoncopyableOwnedObject.base, %class.cOwnedObject**, i32, i32 }
%class.cNoncopyableOwnedObject.base = type { %class.cOwnedObject.base }
%class.cOwnedObject.base = type <{ %class.cNamedObject.base, [4 x i8], %class.cObject*, i32 }>
%class.cNamedObject.base = type <{ %class.cObject, i8*, i16, i16 }>
%class.cObject = type { i32 (...)** }
%class.cOwnedObject = type <{ %class.cNamedObject.base, [4 x i8], %class.cObject*, i32, [4 x i8] }>
%class.cComponentType = type { %class.cNoncopyableOwnedObject.base, %"class.std::__cxx11::basic_string", %"class.std::map", %"class.std::set" }
%"class.std::__cxx11::basic_string" = type { %"struct.std::__cxx11::basic_string<char, std::char_traits<char>, std::allocator<char> >::_Alloc_hider", i64, %union.anon }
%"struct.std::__cxx11::basic_string<char, std::char_traits<char>, std::allocator<char> >::_Alloc_hider" = type { i8* }
%union.anon = type { i64, [8 x i8] }
%"class.std::map" = type { %"class.std::_Rb_tree" }
%"class.std::_Rb_tree" = type { %"struct.std::_Rb_tree<std::__cxx11::basic_string<char>, std::pair<const std::__cxx11::basic_string<char>, cParImpl *>, std::_Select1st<std::pair<const std::__cxx11::basic_string<char>, cParImpl *> >, std::less<std::__cxx11::basic_string<char> >, std::allocator<std::pair<const std::__cxx11::basic_string<char>, cParImpl *> > >::_Rb_tree_impl" }
%"struct.std::_Rb_tree<std::__cxx11::basic_string<char>, std::pair<const std::__cxx11::basic_string<char>, cParImpl *>, std::_Select1st<std::pair<const std::__cxx11::basic_string<char>, cParImpl *> >, std::less<std::__cxx11::basic_string<char> >, std::allocator<std::pair<const std::__cxx11::basic_string<char>, cParImpl *> > >::_Rb_tree_impl" = type { %"struct.std::_Rb_tree_key_compare", %"struct.std::_Rb_tree_header" }
%"struct.std::_Rb_tree_key_compare" = type { %"struct.std::less" }
%"struct.std::less" = type { i8 }
%"struct.std::_Rb_tree_header" = type { %"struct.std::_Rb_tree_node_base", i64 }
%"struct.std::_Rb_tree_node_base" = type { i32, %"struct.std::_Rb_tree_node_base"*, %"struct.std::_Rb_tree_node_base"*, %"struct.std::_Rb_tree_node_base"* }
%"class.std::set" = type { %"class.std::_Rb_tree.3" }
%"class.std::_Rb_tree.3" = type { %"struct.std::_Rb_tree<cParImpl *, cParImpl *, std::_Identity<cParImpl *>, cComponentType::Less, std::allocator<cParImpl *> >::_Rb_tree_impl" }
%"struct.std::_Rb_tree<cParImpl *, cParImpl *, std::_Identity<cParImpl *>, cComponentType::Less, std::allocator<cParImpl *> >::_Rb_tree_impl" = type { %"struct.std::_Rb_tree_key_compare.7", %"struct.std::_Rb_tree_header" }
%"struct.std::_Rb_tree_key_compare.7" = type { %"struct.cComponentType::Less" }
%"struct.cComponentType::Less" = type { i8 }
%class.cPar = type { %class.cObject, %class.cComponent*, %class.cParImpl* }
%class.cParImpl = type opaque
%class.cRuntimeError = type { %class.cException.base, [4 x i8] }
%class.cException.base = type <{ %"class.std::exception", i32, [4 x i8], %"class.std::__cxx11::basic_string", i8, [7 x i8], %"class.std::__cxx11::basic_string", %"class.std::__cxx11::basic_string", i32 }>
%"class.std::exception" = type { i32 (...)** }
%class.cException = type <{ %"class.std::exception", i32, [4 x i8], %"class.std::__cxx11::basic_string", i8, [7 x i8], %"class.std::__cxx11::basic_string", %"class.std::__cxx11::basic_string", i32, [4 x i8] }>
%"class.std::allocator" = type { i8 }

$_Z10opp_strdupPKc = comdat any

$_ZN14cDisplayStringaSERKS_ = comdat any

$__clang_call_terminate = comdat any

$_ZN11cSimulation14getActiveEnvirEv = comdat any

$_Z10opp_strcmpPKcS0_ = comdat any

$_Z15opp_nulltoemptyPKc = comdat any

$_ZNK14cDisplayString10isinbufferEPc = comdat any

$_ZN13cRuntimeErrorD2Ev = comdat any

$_Z11opp_isalnumh = comdat any

$_ZN14cDisplayString3TagC2Ev = comdat any

$_Z10opp_strlenPKc = comdat any

$_ZN10cExceptionD2Ev = comdat any

$_ZN10cExceptionD0Ev = comdat any

$_ZNK10cException4whatEv = comdat any

$_ZNK10cException3dupEv = comdat any

$_ZNK10cException12getErrorCodeEv = comdat any

$_ZN10cException10setMessageEPKc = comdat any

$_ZN10cException14prependMessageEPKc = comdat any

$_ZNK10cException10hasContextEv = comdat any

$_ZNK10cException19getContextClassNameEv = comdat any

$_ZNK10cException18getContextFullPathEv = comdat any

$_ZNK10cException11getModuleIDEv = comdat any

$_ZStplIcSt11char_traitsIcESaIcEENSt7__cxx1112basic_stringIT_T0_T1_EEOS8_RKS8_ = comdat any

$_ZStplIcSt11char_traitsIcESaIcEENSt7__cxx1112basic_stringIT_T0_T1_EEOS8_PKS5_ = comdat any

$_ZSt4moveIRNSt7__cxx1112basic_stringIcSt11char_traitsIcESaIcEEEEONSt16remove_referenceIT_E4typeEOS8_ = comdat any

$_ZTS13cRuntimeError = comdat any

$_ZTS10cException = comdat any

$_ZTI10cException = comdat any

$_ZTI13cRuntimeError = comdat any

$_ZTV10cException = comdat any

@_ZStL8__ioinit = internal global %"class.std::ios_base::Init" zeroinitializer, align 1, !dbg !0
@__dso_handle = external hidden global i8
@.str = private unnamed_addr constant [1 x i8] zeroinitializer, align 1
@.str.1 = private unnamed_addr constant [4 x i8] c"%ld\00", align 1
@.str.2 = private unnamed_addr constant [57 x i8] c"Error adding a new display string tag: tag name is empty\00", align 1
@_ZTVN10__cxxabiv120__si_class_type_infoE = external dso_local global i8*
@_ZTS13cRuntimeError = linkonce_odr dso_local constant [16 x i8] c"13cRuntimeError\00", comdat, align 1
@_ZTS10cException = linkonce_odr dso_local constant [13 x i8] c"10cException\00", comdat, align 1
@_ZTISt9exception = external dso_local constant i8*
@_ZTI10cException = linkonce_odr dso_local constant { i8*, i8*, i8* } { i8* bitcast (i8** getelementptr inbounds (i8*, i8** @_ZTVN10__cxxabiv120__si_class_type_infoE, i64 2) to i8*), i8* getelementptr inbounds ([13 x i8], [13 x i8]* @_ZTS10cException, i32 0, i32 0), i8* bitcast (i8** @_ZTISt9exception to i8*) }, comdat, align 8
@_ZTI13cRuntimeError = linkonce_odr dso_local constant { i8*, i8*, i8* } { i8* bitcast (i8** getelementptr inbounds (i8*, i8** @_ZTVN10__cxxabiv120__si_class_type_infoE, i64 2) to i8*), i8* getelementptr inbounds ([16 x i8], [16 x i8]* @_ZTS13cRuntimeError, i32 0, i32 0), i8* bitcast ({ i8*, i8*, i8* }* @_ZTI10cException to i8*) }, comdat, align 8
@.str.3 = private unnamed_addr constant [80 x i8] c"Error adding a new display string tag: tag name \22%s\22 contains invalid character\00", align 1
@.str.4 = private unnamed_addr constant [84 x i8] c"Error parsing display string: too many parameters for a tag, max %d allowed in \22%s\22\00", align 1
@.str.5 = private unnamed_addr constant [55 x i8] c"Error parsing display string: missing tag name in \22%s\22\00", align 1
@.str.6 = private unnamed_addr constant [80 x i8] c"Error parsing display string: tag name \22%s\22 contains invalid character in  \22%s\22\00", align 1
@.str.7 = private unnamed_addr constant [2 x i8] c";\00", align 1
@.str.8 = private unnamed_addr constant [2 x i8] c"=\00", align 1
@.str.9 = private unnamed_addr constant [2 x i8] c",\00", align 1
@.str.10 = private unnamed_addr constant [3 x i8] c"; \00", align 1
@.str.11 = private unnamed_addr constant [15 x i8] c"tags[%d]:\22%s\22=\00", align 1
@.str.12 = private unnamed_addr constant [5 x i8] c"\22%s\22\00", align 1
@.str.13 = private unnamed_addr constant [11 x i8] c" ==> \22%s\22\0A\00", align 1
@_ZN11cSimulation5evPtrE = external dso_local global %class.cEnvir*, align 8
@_ZTV10cException = linkonce_odr dso_local unnamed_addr constant { [13 x i8*] } { [13 x i8*] [i8* null, i8* bitcast ({ i8*, i8*, i8* }* @_ZTI10cException to i8*), i8* bitcast (void (%class.cException*)* @_ZN10cExceptionD2Ev to i8*), i8* bitcast (void (%class.cException*)* @_ZN10cExceptionD0Ev to i8*), i8* bitcast (i8* (%class.cException*)* @_ZNK10cException4whatEv to i8*), i8* bitcast (%class.cException* (%class.cException*)* @_ZNK10cException3dupEv to i8*), i8* bitcast (i32 (%class.cException*)* @_ZNK10cException12getErrorCodeEv to i8*), i8* bitcast (void (%class.cException*, i8*)* @_ZN10cException10setMessageEPKc to i8*), i8* bitcast (void (%class.cException*, i8*)* @_ZN10cException14prependMessageEPKc to i8*), i8* bitcast (i1 (%class.cException*)* @_ZNK10cException10hasContextEv to i8*), i8* bitcast (i8* (%class.cException*)* @_ZNK10cException19getContextClassNameEv to i8*), i8* bitcast (i8* (%class.cException*)* @_ZNK10cException18getContextFullPathEv to i8*), i8* bitcast (i32 (%class.cException*)* @_ZNK10cException11getModuleIDEv to i8*)] }, comdat, align 8
@.str.14 = private unnamed_addr constant [3 x i8] c": \00", align 1
@llvm.global_ctors = appending global [1 x { i32, void ()*, i8* }] [{ i32, void ()*, i8* } { i32 65535, void ()* @_GLOBAL__sub_I_cdisplaystring.cc, i8* null }]

@_ZN14cDisplayStringC1Ev = dso_local unnamed_addr alias void (%class.cDisplayString*), void (%class.cDisplayString*)* @_ZN14cDisplayStringC2Ev
@_ZN14cDisplayStringC1EPKc = dso_local unnamed_addr alias void (%class.cDisplayString*, i8*), void (%class.cDisplayString*, i8*)* @_ZN14cDisplayStringC2EPKc
@_ZN14cDisplayStringC1ERKS_ = dso_local unnamed_addr alias void (%class.cDisplayString*, %class.cDisplayString*), void (%class.cDisplayString*, %class.cDisplayString*)* @_ZN14cDisplayStringC2ERKS_
@_ZN14cDisplayStringD1Ev = dso_local unnamed_addr alias void (%class.cDisplayString*), void (%class.cDisplayString*)* @_ZN14cDisplayStringD2Ev

; Function Attrs: noinline uwtable
define internal void @__cxx_global_var_init() #0 section ".text.startup" !dbg !1465 {
entry:
  call void @_ZNSt8ios_base4InitC1Ev(%"class.std::ios_base::Init"* @_ZStL8__ioinit), !dbg !1467
  %0 = call i32 @__cxa_atexit(void (i8*)* bitcast (void (%"class.std::ios_base::Init"*)* @_ZNSt8ios_base4InitD1Ev to void (i8*)*), i8* getelementptr inbounds (%"class.std::ios_base::Init", %"class.std::ios_base::Init"* @_ZStL8__ioinit, i32 0, i32 0), i8* @__dso_handle) #3, !dbg !1467
  ret void, !dbg !1467
}

declare dso_local void @_ZNSt8ios_base4InitC1Ev(%"class.std::ios_base::Init"*) unnamed_addr #1

; Function Attrs: nounwind
declare dso_local void @_ZNSt8ios_base4InitD1Ev(%"class.std::ios_base::Init"*) unnamed_addr #2

; Function Attrs: nounwind
declare dso_local i32 @__cxa_atexit(void (i8*)*, i8*, i8*) #3

; Function Attrs: noinline nounwind uwtable
define dso_local void @_ZN14cDisplayStringC2Ev(%class.cDisplayString* %this) unnamed_addr #4 align 2 !dbg !1468 {
entry:
  %this.addr = alloca %class.cDisplayString*, align 8
  store %class.cDisplayString* %this, %class.cDisplayString** %this.addr, align 8
  call void @llvm.dbg.declare(metadata %class.cDisplayString** %this.addr, metadata !1469, metadata !DIExpression()), !dbg !1471
  %this1 = load %class.cDisplayString*, %class.cDisplayString** %this.addr, align 8
  %dispstr = getelementptr inbounds %class.cDisplayString, %class.cDisplayString* %this1, i32 0, i32 4, !dbg !1472
  store i8* null, i8** %dispstr, align 8, !dbg !1474
  %buffer = getelementptr inbounds %class.cDisplayString, %class.cDisplayString* %this1, i32 0, i32 0, !dbg !1475
  store i8* null, i8** %buffer, align 8, !dbg !1476
  %bufferend = getelementptr inbounds %class.cDisplayString, %class.cDisplayString* %this1, i32 0, i32 1, !dbg !1477
  store i8* null, i8** %bufferend, align 8, !dbg !1478
  %tags = getelementptr inbounds %class.cDisplayString, %class.cDisplayString* %this1, i32 0, i32 2, !dbg !1479
  store %"struct.cDisplayString::Tag"* null, %"struct.cDisplayString::Tag"** %tags, align 8, !dbg !1480
  %numtags = getelementptr inbounds %class.cDisplayString, %class.cDisplayString* %this1, i32 0, i32 3, !dbg !1481
  store i32 0, i32* %numtags, align 8, !dbg !1482
  %needsassemble = getelementptr inbounds %class.cDisplayString, %class.cDisplayString* %this1, i32 0, i32 5, !dbg !1483
  store i8 0, i8* %needsassemble, align 8, !dbg !1484
  %object = getelementptr inbounds %class.cDisplayString, %class.cDisplayString* %this1, i32 0, i32 6, !dbg !1485
  store %class.cComponent* null, %class.cComponent** %object, align 8, !dbg !1486
  ret void, !dbg !1487
}

; Function Attrs: nounwind readnone speculatable willreturn
declare void @llvm.dbg.declare(metadata, metadata, metadata) #5

; Function Attrs: noinline uwtable
define dso_local void @_ZN14cDisplayStringC2EPKc(%class.cDisplayString* %this, i8* %displaystr) unnamed_addr #0 align 2 !dbg !1488 {
entry:
  %this.addr = alloca %class.cDisplayString*, align 8
  %displaystr.addr = alloca i8*, align 8
  store %class.cDisplayString* %this, %class.cDisplayString** %this.addr, align 8
  call void @llvm.dbg.declare(metadata %class.cDisplayString** %this.addr, metadata !1489, metadata !DIExpression()), !dbg !1490
  store i8* %displaystr, i8** %displaystr.addr, align 8
  call void @llvm.dbg.declare(metadata i8** %displaystr.addr, metadata !1491, metadata !DIExpression()), !dbg !1492
  %this1 = load %class.cDisplayString*, %class.cDisplayString** %this.addr, align 8
  %0 = load i8*, i8** %displaystr.addr, align 8, !dbg !1493
  %call = call i8* @_Z10opp_strdupPKc(i8* %0), !dbg !1495
  %dispstr = getelementptr inbounds %class.cDisplayString, %class.cDisplayString* %this1, i32 0, i32 4, !dbg !1496
  store i8* %call, i8** %dispstr, align 8, !dbg !1497
  %buffer = getelementptr inbounds %class.cDisplayString, %class.cDisplayString* %this1, i32 0, i32 0, !dbg !1498
  store i8* null, i8** %buffer, align 8, !dbg !1499
  %bufferend = getelementptr inbounds %class.cDisplayString, %class.cDisplayString* %this1, i32 0, i32 1, !dbg !1500
  store i8* null, i8** %bufferend, align 8, !dbg !1501
  %tags = getelementptr inbounds %class.cDisplayString, %class.cDisplayString* %this1, i32 0, i32 2, !dbg !1502
  store %"struct.cDisplayString::Tag"* null, %"struct.cDisplayString::Tag"** %tags, align 8, !dbg !1503
  %numtags = getelementptr inbounds %class.cDisplayString, %class.cDisplayString* %this1, i32 0, i32 3, !dbg !1504
  store i32 0, i32* %numtags, align 8, !dbg !1505
  %needsassemble = getelementptr inbounds %class.cDisplayString, %class.cDisplayString* %this1, i32 0, i32 5, !dbg !1506
  store i8 0, i8* %needsassemble, align 8, !dbg !1507
  %object = getelementptr inbounds %class.cDisplayString, %class.cDisplayString* %this1, i32 0, i32 6, !dbg !1508
  store %class.cComponent* null, %class.cComponent** %object, align 8, !dbg !1509
  call void @_ZN14cDisplayString5parseEv(%class.cDisplayString* %this1), !dbg !1510
  ret void, !dbg !1511
}

; Function Attrs: noinline uwtable
define linkonce_odr dso_local i8* @_Z10opp_strdupPKc(i8* %s) #0 comdat !dbg !1512 {
entry:
  %retval = alloca i8*, align 8
  %s.addr = alloca i8*, align 8
  %p = alloca i8*, align 8
  store i8* %s, i8** %s.addr, align 8
  call void @llvm.dbg.declare(metadata i8** %s.addr, metadata !1514, metadata !DIExpression()), !dbg !1515
  %0 = load i8*, i8** %s.addr, align 8, !dbg !1516
  %tobool = icmp ne i8* %0, null, !dbg !1516
  br i1 %tobool, label %lor.lhs.false, label %if.then, !dbg !1518

lor.lhs.false:                                    ; preds = %entry
  %1 = load i8*, i8** %s.addr, align 8, !dbg !1519
  %arrayidx = getelementptr inbounds i8, i8* %1, i64 0, !dbg !1519
  %2 = load i8, i8* %arrayidx, align 1, !dbg !1519
  %tobool1 = icmp ne i8 %2, 0, !dbg !1519
  br i1 %tobool1, label %if.end, label %if.then, !dbg !1520

if.then:                                          ; preds = %lor.lhs.false, %entry
  store i8* null, i8** %retval, align 8, !dbg !1521
  br label %return, !dbg !1521

if.end:                                           ; preds = %lor.lhs.false
  call void @llvm.dbg.declare(metadata i8** %p, metadata !1522, metadata !DIExpression()), !dbg !1523
  %3 = load i8*, i8** %s.addr, align 8, !dbg !1524
  %call = call i64 @strlen(i8* %3) #11, !dbg !1525
  %add = add i64 %call, 1, !dbg !1526
  %call2 = call i8* @_Znam(i64 %add) #12, !dbg !1527
  store i8* %call2, i8** %p, align 8, !dbg !1523
  %4 = load i8*, i8** %p, align 8, !dbg !1528
  %5 = load i8*, i8** %s.addr, align 8, !dbg !1529
  %call3 = call i8* @strcpy(i8* %4, i8* %5) #3, !dbg !1530
  %6 = load i8*, i8** %p, align 8, !dbg !1531
  store i8* %6, i8** %retval, align 8, !dbg !1532
  br label %return, !dbg !1532

return:                                           ; preds = %if.end, %if.then
  %7 = load i8*, i8** %retval, align 8, !dbg !1533
  ret i8* %7, !dbg !1533
}

; Function Attrs: noinline uwtable
define dso_local void @_ZN14cDisplayString5parseEv(%class.cDisplayString* %this) #0 align 2 personality i8* bitcast (i32 (...)* @__gxx_personality_v0 to i8*) !dbg !1534 {
entry:
  %this.addr = alloca %class.cDisplayString*, align 8
  %n = alloca i32, align 4
  %s1 = alloca i8*, align 8
  %exn.slot = alloca i8*
  %ehselector.slot = alloca i32
  %i = alloca i32, align 4
  %s = alloca i8*, align 8
  %d = alloca i8*, align 8
  %i55 = alloca i32, align 4
  %i136 = alloca i32, align 4
  %s161 = alloca i8*, align 8
  store %class.cDisplayString* %this, %class.cDisplayString** %this.addr, align 8
  call void @llvm.dbg.declare(metadata %class.cDisplayString** %this.addr, metadata !1535, metadata !DIExpression()), !dbg !1536
  %this1 = load %class.cDisplayString*, %class.cDisplayString** %this.addr, align 8
  call void @_ZN14cDisplayString9cleartagsEv(%class.cDisplayString* %this1), !dbg !1537
  %dispstr = getelementptr inbounds %class.cDisplayString, %class.cDisplayString* %this1, i32 0, i32 4, !dbg !1538
  %0 = load i8*, i8** %dispstr, align 8, !dbg !1538
  %cmp = icmp eq i8* %0, null, !dbg !1540
  br i1 %cmp, label %if.then, label %if.end, !dbg !1541

if.then:                                          ; preds = %entry
  br label %for.end188, !dbg !1542

if.end:                                           ; preds = %entry
  %dispstr2 = getelementptr inbounds %class.cDisplayString, %class.cDisplayString* %this1, i32 0, i32 4, !dbg !1543
  %1 = load i8*, i8** %dispstr2, align 8, !dbg !1543
  %call = call i32 @_Z10opp_strlenPKc(i8* %1), !dbg !1544
  %add = add nsw i32 %call, 1, !dbg !1545
  %conv = sext i32 %add to i64, !dbg !1544
  %call3 = call i8* @_Znam(i64 %conv) #12, !dbg !1546
  %buffer = getelementptr inbounds %class.cDisplayString, %class.cDisplayString* %this1, i32 0, i32 0, !dbg !1547
  store i8* %call3, i8** %buffer, align 8, !dbg !1548
  %buffer4 = getelementptr inbounds %class.cDisplayString, %class.cDisplayString* %this1, i32 0, i32 0, !dbg !1549
  %2 = load i8*, i8** %buffer4, align 8, !dbg !1549
  %dispstr5 = getelementptr inbounds %class.cDisplayString, %class.cDisplayString* %this1, i32 0, i32 4, !dbg !1550
  %3 = load i8*, i8** %dispstr5, align 8, !dbg !1550
  %call6 = call i32 @_Z10opp_strlenPKc(i8* %3), !dbg !1551
  %idx.ext = sext i32 %call6 to i64, !dbg !1552
  %add.ptr = getelementptr inbounds i8, i8* %2, i64 %idx.ext, !dbg !1552
  %bufferend = getelementptr inbounds %class.cDisplayString, %class.cDisplayString* %this1, i32 0, i32 1, !dbg !1553
  store i8* %add.ptr, i8** %bufferend, align 8, !dbg !1554
  call void @llvm.dbg.declare(metadata i32* %n, metadata !1555, metadata !DIExpression()), !dbg !1556
  store i32 1, i32* %n, align 4, !dbg !1556
  call void @llvm.dbg.declare(metadata i8** %s1, metadata !1557, metadata !DIExpression()), !dbg !1559
  %dispstr7 = getelementptr inbounds %class.cDisplayString, %class.cDisplayString* %this1, i32 0, i32 4, !dbg !1560
  %4 = load i8*, i8** %dispstr7, align 8, !dbg !1560
  store i8* %4, i8** %s1, align 8, !dbg !1559
  br label %for.cond, !dbg !1561

for.cond:                                         ; preds = %for.inc, %if.end
  %5 = load i8*, i8** %s1, align 8, !dbg !1562
  %6 = load i8, i8* %5, align 1, !dbg !1564
  %tobool = icmp ne i8 %6, 0, !dbg !1564
  br i1 %tobool, label %for.body, label %for.end, !dbg !1565

for.body:                                         ; preds = %for.cond
  %7 = load i8*, i8** %s1, align 8, !dbg !1566
  %8 = load i8, i8* %7, align 1, !dbg !1568
  %conv8 = sext i8 %8 to i32, !dbg !1568
  %cmp9 = icmp eq i32 %conv8, 59, !dbg !1569
  br i1 %cmp9, label %if.then10, label %if.end11, !dbg !1570

if.then10:                                        ; preds = %for.body
  %9 = load i32, i32* %n, align 4, !dbg !1571
  %inc = add nsw i32 %9, 1, !dbg !1571
  store i32 %inc, i32* %n, align 4, !dbg !1571
  br label %if.end11, !dbg !1572

if.end11:                                         ; preds = %if.then10, %for.body
  br label %for.inc, !dbg !1573

for.inc:                                          ; preds = %if.end11
  %10 = load i8*, i8** %s1, align 8, !dbg !1574
  %incdec.ptr = getelementptr inbounds i8, i8* %10, i32 1, !dbg !1574
  store i8* %incdec.ptr, i8** %s1, align 8, !dbg !1574
  br label %for.cond, !dbg !1575, !llvm.loop !1576

for.end:                                          ; preds = %for.cond
  %11 = load i32, i32* %n, align 4, !dbg !1578
  %conv12 = sext i32 %11 to i64, !dbg !1578
  %12 = call { i64, i1 } @llvm.umul.with.overflow.i64(i64 %conv12, i64 144), !dbg !1579
  %13 = extractvalue { i64, i1 } %12, 1, !dbg !1579
  %14 = extractvalue { i64, i1 } %12, 0, !dbg !1579
  %15 = select i1 %13, i64 -1, i64 %14, !dbg !1579
  %call13 = call i8* @_Znam(i64 %15) #12, !dbg !1579
  %16 = bitcast i8* %call13 to %"struct.cDisplayString::Tag"*, !dbg !1579
  %isempty = icmp eq i64 %conv12, 0, !dbg !1579
  br i1 %isempty, label %arrayctor.cont, label %new.ctorloop, !dbg !1579

new.ctorloop:                                     ; preds = %for.end
  %arrayctor.end = getelementptr inbounds %"struct.cDisplayString::Tag", %"struct.cDisplayString::Tag"* %16, i64 %conv12, !dbg !1579
  br label %arrayctor.loop, !dbg !1579

arrayctor.loop:                                   ; preds = %invoke.cont, %new.ctorloop
  %arrayctor.cur = phi %"struct.cDisplayString::Tag"* [ %16, %new.ctorloop ], [ %arrayctor.next, %invoke.cont ], !dbg !1579
  invoke void @_ZN14cDisplayString3TagC2Ev(%"struct.cDisplayString::Tag"* %arrayctor.cur)
          to label %invoke.cont unwind label %lpad, !dbg !1579

invoke.cont:                                      ; preds = %arrayctor.loop
  %arrayctor.next = getelementptr inbounds %"struct.cDisplayString::Tag", %"struct.cDisplayString::Tag"* %arrayctor.cur, i64 1, !dbg !1579
  %arrayctor.done = icmp eq %"struct.cDisplayString::Tag"* %arrayctor.next, %arrayctor.end, !dbg !1579
  br i1 %arrayctor.done, label %arrayctor.cont, label %arrayctor.loop, !dbg !1579

arrayctor.cont:                                   ; preds = %for.end, %invoke.cont
  %tags = getelementptr inbounds %class.cDisplayString, %class.cDisplayString* %this1, i32 0, i32 2, !dbg !1580
  store %"struct.cDisplayString::Tag"* %16, %"struct.cDisplayString::Tag"** %tags, align 8, !dbg !1581
  %numtags = getelementptr inbounds %class.cDisplayString, %class.cDisplayString* %this1, i32 0, i32 3, !dbg !1582
  store i32 1, i32* %numtags, align 8, !dbg !1583
  %buffer14 = getelementptr inbounds %class.cDisplayString, %class.cDisplayString* %this1, i32 0, i32 0, !dbg !1584
  %17 = load i8*, i8** %buffer14, align 8, !dbg !1584
  %tags15 = getelementptr inbounds %class.cDisplayString, %class.cDisplayString* %this1, i32 0, i32 2, !dbg !1585
  %18 = load %"struct.cDisplayString::Tag"*, %"struct.cDisplayString::Tag"** %tags15, align 8, !dbg !1585
  %arrayidx = getelementptr inbounds %"struct.cDisplayString::Tag", %"struct.cDisplayString::Tag"* %18, i64 0, !dbg !1585
  %name = getelementptr inbounds %"struct.cDisplayString::Tag", %"struct.cDisplayString::Tag"* %arrayidx, i32 0, i32 0, !dbg !1586
  store i8* %17, i8** %name, align 8, !dbg !1587
  %tags16 = getelementptr inbounds %class.cDisplayString, %class.cDisplayString* %this1, i32 0, i32 2, !dbg !1588
  %19 = load %"struct.cDisplayString::Tag"*, %"struct.cDisplayString::Tag"** %tags16, align 8, !dbg !1588
  %arrayidx17 = getelementptr inbounds %"struct.cDisplayString::Tag", %"struct.cDisplayString::Tag"* %19, i64 0, !dbg !1588
  %numargs = getelementptr inbounds %"struct.cDisplayString::Tag", %"struct.cDisplayString::Tag"* %arrayidx17, i32 0, i32 1, !dbg !1589
  store i32 0, i32* %numargs, align 8, !dbg !1590
  call void @llvm.dbg.declare(metadata i32* %i, metadata !1591, metadata !DIExpression()), !dbg !1593
  store i32 0, i32* %i, align 4, !dbg !1593
  br label %for.cond18, !dbg !1594

for.cond18:                                       ; preds = %for.inc24, %arrayctor.cont
  %20 = load i32, i32* %i, align 4, !dbg !1595
  %cmp19 = icmp slt i32 %20, 16, !dbg !1597
  br i1 %cmp19, label %for.body20, label %for.end26, !dbg !1598

for.body20:                                       ; preds = %for.cond18
  %tags21 = getelementptr inbounds %class.cDisplayString, %class.cDisplayString* %this1, i32 0, i32 2, !dbg !1599
  %21 = load %"struct.cDisplayString::Tag"*, %"struct.cDisplayString::Tag"** %tags21, align 8, !dbg !1599
  %arrayidx22 = getelementptr inbounds %"struct.cDisplayString::Tag", %"struct.cDisplayString::Tag"* %21, i64 0, !dbg !1599
  %args = getelementptr inbounds %"struct.cDisplayString::Tag", %"struct.cDisplayString::Tag"* %arrayidx22, i32 0, i32 2, !dbg !1600
  %22 = load i32, i32* %i, align 4, !dbg !1601
  %idxprom = sext i32 %22 to i64, !dbg !1599
  %arrayidx23 = getelementptr inbounds [16 x i8*], [16 x i8*]* %args, i64 0, i64 %idxprom, !dbg !1599
  store i8* null, i8** %arrayidx23, align 8, !dbg !1602
  br label %for.inc24, !dbg !1599

for.inc24:                                        ; preds = %for.body20
  %23 = load i32, i32* %i, align 4, !dbg !1603
  %inc25 = add nsw i32 %23, 1, !dbg !1603
  store i32 %inc25, i32* %i, align 4, !dbg !1603
  br label %for.cond18, !dbg !1604, !llvm.loop !1605

lpad:                                             ; preds = %arrayctor.loop
  %24 = landingpad { i8*, i32 }
          cleanup, !dbg !1607
  %25 = extractvalue { i8*, i32 } %24, 0, !dbg !1607
  store i8* %25, i8** %exn.slot, align 8, !dbg !1607
  %26 = extractvalue { i8*, i32 } %24, 1, !dbg !1607
  store i32 %26, i32* %ehselector.slot, align 4, !dbg !1607
  call void @_ZdaPv(i8* %call13) #13, !dbg !1579
  br label %eh.resume, !dbg !1579

for.end26:                                        ; preds = %for.cond18
  call void @llvm.dbg.declare(metadata i8** %s, metadata !1608, metadata !DIExpression()), !dbg !1609
  call void @llvm.dbg.declare(metadata i8** %d, metadata !1610, metadata !DIExpression()), !dbg !1611
  %dispstr27 = getelementptr inbounds %class.cDisplayString, %class.cDisplayString* %this1, i32 0, i32 4, !dbg !1612
  %27 = load i8*, i8** %dispstr27, align 8, !dbg !1612
  store i8* %27, i8** %s, align 8, !dbg !1614
  %buffer28 = getelementptr inbounds %class.cDisplayString, %class.cDisplayString* %this1, i32 0, i32 0, !dbg !1615
  %28 = load i8*, i8** %buffer28, align 8, !dbg !1615
  store i8* %28, i8** %d, align 8, !dbg !1616
  br label %for.cond29, !dbg !1617

for.cond29:                                       ; preds = %for.inc132, %for.end26
  %29 = load i8*, i8** %s, align 8, !dbg !1618
  %30 = load i8, i8* %29, align 1, !dbg !1620
  %tobool30 = icmp ne i8 %30, 0, !dbg !1620
  br i1 %tobool30, label %for.body31, label %for.end135, !dbg !1621

for.body31:                                       ; preds = %for.cond29
  %31 = load i8*, i8** %s, align 8, !dbg !1622
  %32 = load i8, i8* %31, align 1, !dbg !1625
  %conv32 = sext i8 %32 to i32, !dbg !1625
  %cmp33 = icmp eq i32 %conv32, 92, !dbg !1626
  br i1 %cmp33, label %land.lhs.true, label %if.else, !dbg !1627

land.lhs.true:                                    ; preds = %for.body31
  %33 = load i8*, i8** %s, align 8, !dbg !1628
  %add.ptr34 = getelementptr inbounds i8, i8* %33, i64 1, !dbg !1629
  %34 = load i8, i8* %add.ptr34, align 1, !dbg !1630
  %tobool35 = icmp ne i8 %34, 0, !dbg !1630
  br i1 %tobool35, label %if.then36, label %if.else, !dbg !1631

if.then36:                                        ; preds = %land.lhs.true
  %35 = load i8*, i8** %s, align 8, !dbg !1632
  %incdec.ptr37 = getelementptr inbounds i8, i8* %35, i32 1, !dbg !1632
  store i8* %incdec.ptr37, i8** %s, align 8, !dbg !1632
  %36 = load i8, i8* %incdec.ptr37, align 1, !dbg !1634
  %37 = load i8*, i8** %d, align 8, !dbg !1635
  store i8 %36, i8* %37, align 1, !dbg !1636
  br label %if.end131, !dbg !1637

if.else:                                          ; preds = %land.lhs.true, %for.body31
  %38 = load i8*, i8** %s, align 8, !dbg !1638
  %39 = load i8, i8* %38, align 1, !dbg !1640
  %conv38 = sext i8 %39 to i32, !dbg !1640
  %cmp39 = icmp eq i32 %conv38, 59, !dbg !1641
  br i1 %cmp39, label %if.then40, label %if.else70, !dbg !1642

if.then40:                                        ; preds = %if.else
  %40 = load i8*, i8** %d, align 8, !dbg !1643
  store i8 0, i8* %40, align 1, !dbg !1645
  %numtags41 = getelementptr inbounds %class.cDisplayString, %class.cDisplayString* %this1, i32 0, i32 3, !dbg !1646
  %41 = load i32, i32* %numtags41, align 8, !dbg !1647
  %inc42 = add nsw i32 %41, 1, !dbg !1647
  store i32 %inc42, i32* %numtags41, align 8, !dbg !1647
  %42 = load i8*, i8** %d, align 8, !dbg !1648
  %add.ptr43 = getelementptr inbounds i8, i8* %42, i64 1, !dbg !1649
  %tags44 = getelementptr inbounds %class.cDisplayString, %class.cDisplayString* %this1, i32 0, i32 2, !dbg !1650
  %43 = load %"struct.cDisplayString::Tag"*, %"struct.cDisplayString::Tag"** %tags44, align 8, !dbg !1650
  %numtags45 = getelementptr inbounds %class.cDisplayString, %class.cDisplayString* %this1, i32 0, i32 3, !dbg !1651
  %44 = load i32, i32* %numtags45, align 8, !dbg !1651
  %sub = sub nsw i32 %44, 1, !dbg !1652
  %idxprom46 = sext i32 %sub to i64, !dbg !1650
  %arrayidx47 = getelementptr inbounds %"struct.cDisplayString::Tag", %"struct.cDisplayString::Tag"* %43, i64 %idxprom46, !dbg !1650
  %name48 = getelementptr inbounds %"struct.cDisplayString::Tag", %"struct.cDisplayString::Tag"* %arrayidx47, i32 0, i32 0, !dbg !1653
  store i8* %add.ptr43, i8** %name48, align 8, !dbg !1654
  %tags49 = getelementptr inbounds %class.cDisplayString, %class.cDisplayString* %this1, i32 0, i32 2, !dbg !1655
  %45 = load %"struct.cDisplayString::Tag"*, %"struct.cDisplayString::Tag"** %tags49, align 8, !dbg !1655
  %numtags50 = getelementptr inbounds %class.cDisplayString, %class.cDisplayString* %this1, i32 0, i32 3, !dbg !1656
  %46 = load i32, i32* %numtags50, align 8, !dbg !1656
  %sub51 = sub nsw i32 %46, 1, !dbg !1657
  %idxprom52 = sext i32 %sub51 to i64, !dbg !1655
  %arrayidx53 = getelementptr inbounds %"struct.cDisplayString::Tag", %"struct.cDisplayString::Tag"* %45, i64 %idxprom52, !dbg !1655
  %numargs54 = getelementptr inbounds %"struct.cDisplayString::Tag", %"struct.cDisplayString::Tag"* %arrayidx53, i32 0, i32 1, !dbg !1658
  store i32 0, i32* %numargs54, align 8, !dbg !1659
  call void @llvm.dbg.declare(metadata i32* %i55, metadata !1660, metadata !DIExpression()), !dbg !1662
  store i32 0, i32* %i55, align 4, !dbg !1662
  br label %for.cond56, !dbg !1663

for.cond56:                                       ; preds = %for.inc67, %if.then40
  %47 = load i32, i32* %i55, align 4, !dbg !1664
  %cmp57 = icmp slt i32 %47, 16, !dbg !1666
  br i1 %cmp57, label %for.body58, label %for.end69, !dbg !1667

for.body58:                                       ; preds = %for.cond56
  %tags59 = getelementptr inbounds %class.cDisplayString, %class.cDisplayString* %this1, i32 0, i32 2, !dbg !1668
  %48 = load %"struct.cDisplayString::Tag"*, %"struct.cDisplayString::Tag"** %tags59, align 8, !dbg !1668
  %numtags60 = getelementptr inbounds %class.cDisplayString, %class.cDisplayString* %this1, i32 0, i32 3, !dbg !1669
  %49 = load i32, i32* %numtags60, align 8, !dbg !1669
  %sub61 = sub nsw i32 %49, 1, !dbg !1670
  %idxprom62 = sext i32 %sub61 to i64, !dbg !1668
  %arrayidx63 = getelementptr inbounds %"struct.cDisplayString::Tag", %"struct.cDisplayString::Tag"* %48, i64 %idxprom62, !dbg !1668
  %args64 = getelementptr inbounds %"struct.cDisplayString::Tag", %"struct.cDisplayString::Tag"* %arrayidx63, i32 0, i32 2, !dbg !1671
  %50 = load i32, i32* %i55, align 4, !dbg !1672
  %idxprom65 = sext i32 %50 to i64, !dbg !1668
  %arrayidx66 = getelementptr inbounds [16 x i8*], [16 x i8*]* %args64, i64 0, i64 %idxprom65, !dbg !1668
  store i8* null, i8** %arrayidx66, align 8, !dbg !1673
  br label %for.inc67, !dbg !1668

for.inc67:                                        ; preds = %for.body58
  %51 = load i32, i32* %i55, align 4, !dbg !1674
  %inc68 = add nsw i32 %51, 1, !dbg !1674
  store i32 %inc68, i32* %i55, align 4, !dbg !1674
  br label %for.cond56, !dbg !1675, !llvm.loop !1676

for.end69:                                        ; preds = %for.cond56
  br label %if.end130, !dbg !1678

if.else70:                                        ; preds = %if.else
  %52 = load i8*, i8** %s, align 8, !dbg !1679
  %53 = load i8, i8* %52, align 1, !dbg !1681
  %conv71 = sext i8 %53 to i32, !dbg !1681
  %cmp72 = icmp eq i32 %conv71, 61, !dbg !1682
  br i1 %cmp72, label %if.then73, label %if.else88, !dbg !1683

if.then73:                                        ; preds = %if.else70
  %54 = load i8*, i8** %d, align 8, !dbg !1684
  store i8 0, i8* %54, align 1, !dbg !1686
  %tags74 = getelementptr inbounds %class.cDisplayString, %class.cDisplayString* %this1, i32 0, i32 2, !dbg !1687
  %55 = load %"struct.cDisplayString::Tag"*, %"struct.cDisplayString::Tag"** %tags74, align 8, !dbg !1687
  %numtags75 = getelementptr inbounds %class.cDisplayString, %class.cDisplayString* %this1, i32 0, i32 3, !dbg !1688
  %56 = load i32, i32* %numtags75, align 8, !dbg !1688
  %sub76 = sub nsw i32 %56, 1, !dbg !1689
  %idxprom77 = sext i32 %sub76 to i64, !dbg !1687
  %arrayidx78 = getelementptr inbounds %"struct.cDisplayString::Tag", %"struct.cDisplayString::Tag"* %55, i64 %idxprom77, !dbg !1687
  %numargs79 = getelementptr inbounds %"struct.cDisplayString::Tag", %"struct.cDisplayString::Tag"* %arrayidx78, i32 0, i32 1, !dbg !1690
  store i32 1, i32* %numargs79, align 8, !dbg !1691
  %57 = load i8*, i8** %d, align 8, !dbg !1692
  %add.ptr80 = getelementptr inbounds i8, i8* %57, i64 1, !dbg !1693
  %tags81 = getelementptr inbounds %class.cDisplayString, %class.cDisplayString* %this1, i32 0, i32 2, !dbg !1694
  %58 = load %"struct.cDisplayString::Tag"*, %"struct.cDisplayString::Tag"** %tags81, align 8, !dbg !1694
  %numtags82 = getelementptr inbounds %class.cDisplayString, %class.cDisplayString* %this1, i32 0, i32 3, !dbg !1695
  %59 = load i32, i32* %numtags82, align 8, !dbg !1695
  %sub83 = sub nsw i32 %59, 1, !dbg !1696
  %idxprom84 = sext i32 %sub83 to i64, !dbg !1694
  %arrayidx85 = getelementptr inbounds %"struct.cDisplayString::Tag", %"struct.cDisplayString::Tag"* %58, i64 %idxprom84, !dbg !1694
  %args86 = getelementptr inbounds %"struct.cDisplayString::Tag", %"struct.cDisplayString::Tag"* %arrayidx85, i32 0, i32 2, !dbg !1697
  %arrayidx87 = getelementptr inbounds [16 x i8*], [16 x i8*]* %args86, i64 0, i64 0, !dbg !1694
  store i8* %add.ptr80, i8** %arrayidx87, align 8, !dbg !1698
  br label %if.end129, !dbg !1699

if.else88:                                        ; preds = %if.else70
  %60 = load i8*, i8** %s, align 8, !dbg !1700
  %61 = load i8, i8* %60, align 1, !dbg !1702
  %conv89 = sext i8 %61 to i32, !dbg !1702
  %cmp90 = icmp eq i32 %conv89, 44, !dbg !1703
  br i1 %cmp90, label %if.then91, label %if.else127, !dbg !1704

if.then91:                                        ; preds = %if.else88
  %62 = load i8*, i8** %d, align 8, !dbg !1705
  store i8 0, i8* %62, align 1, !dbg !1707
  %tags92 = getelementptr inbounds %class.cDisplayString, %class.cDisplayString* %this1, i32 0, i32 2, !dbg !1708
  %63 = load %"struct.cDisplayString::Tag"*, %"struct.cDisplayString::Tag"** %tags92, align 8, !dbg !1708
  %numtags93 = getelementptr inbounds %class.cDisplayString, %class.cDisplayString* %this1, i32 0, i32 3, !dbg !1710
  %64 = load i32, i32* %numtags93, align 8, !dbg !1710
  %sub94 = sub nsw i32 %64, 1, !dbg !1711
  %idxprom95 = sext i32 %sub94 to i64, !dbg !1708
  %arrayidx96 = getelementptr inbounds %"struct.cDisplayString::Tag", %"struct.cDisplayString::Tag"* %63, i64 %idxprom95, !dbg !1708
  %numargs97 = getelementptr inbounds %"struct.cDisplayString::Tag", %"struct.cDisplayString::Tag"* %arrayidx96, i32 0, i32 1, !dbg !1712
  %65 = load i32, i32* %numargs97, align 8, !dbg !1712
  %cmp98 = icmp sge i32 %65, 16, !dbg !1713
  br i1 %cmp98, label %if.then99, label %if.end103, !dbg !1714

if.then99:                                        ; preds = %if.then91
  %exception = call i8* @__cxa_allocate_exception(i64 128) #3, !dbg !1715
  %66 = bitcast i8* %exception to %class.cRuntimeError*, !dbg !1715
  %dispstr100 = getelementptr inbounds %class.cDisplayString, %class.cDisplayString* %this1, i32 0, i32 4, !dbg !1716
  %67 = load i8*, i8** %dispstr100, align 8, !dbg !1716
  invoke void (%class.cRuntimeError*, i8*, ...) @_ZN13cRuntimeErrorC1EPKcz(%class.cRuntimeError* %66, i8* getelementptr inbounds ([84 x i8], [84 x i8]* @.str.4, i64 0, i64 0), i32 16, i8* %67)
          to label %invoke.cont102 unwind label %lpad101, !dbg !1717

invoke.cont102:                                   ; preds = %if.then99
  call void @__cxa_throw(i8* %exception, i8* bitcast ({ i8*, i8*, i8* }* @_ZTI13cRuntimeError to i8*), i8* bitcast (void (%class.cRuntimeError*)* @_ZN13cRuntimeErrorD2Ev to i8*)) #14, !dbg !1715
  unreachable, !dbg !1715

lpad101:                                          ; preds = %if.then99
  %68 = landingpad { i8*, i32 }
          cleanup, !dbg !1718
  %69 = extractvalue { i8*, i32 } %68, 0, !dbg !1718
  store i8* %69, i8** %exn.slot, align 8, !dbg !1718
  %70 = extractvalue { i8*, i32 } %68, 1, !dbg !1718
  store i32 %70, i32* %ehselector.slot, align 4, !dbg !1718
  call void @__cxa_free_exception(i8* %exception) #3, !dbg !1715
  br label %eh.resume, !dbg !1715

if.end103:                                        ; preds = %if.then91
  %tags104 = getelementptr inbounds %class.cDisplayString, %class.cDisplayString* %this1, i32 0, i32 2, !dbg !1719
  %71 = load %"struct.cDisplayString::Tag"*, %"struct.cDisplayString::Tag"** %tags104, align 8, !dbg !1719
  %numtags105 = getelementptr inbounds %class.cDisplayString, %class.cDisplayString* %this1, i32 0, i32 3, !dbg !1720
  %72 = load i32, i32* %numtags105, align 8, !dbg !1720
  %sub106 = sub nsw i32 %72, 1, !dbg !1721
  %idxprom107 = sext i32 %sub106 to i64, !dbg !1719
  %arrayidx108 = getelementptr inbounds %"struct.cDisplayString::Tag", %"struct.cDisplayString::Tag"* %71, i64 %idxprom107, !dbg !1719
  %numargs109 = getelementptr inbounds %"struct.cDisplayString::Tag", %"struct.cDisplayString::Tag"* %arrayidx108, i32 0, i32 1, !dbg !1722
  %73 = load i32, i32* %numargs109, align 8, !dbg !1723
  %inc110 = add nsw i32 %73, 1, !dbg !1723
  store i32 %inc110, i32* %numargs109, align 8, !dbg !1723
  %74 = load i8*, i8** %d, align 8, !dbg !1724
  %add.ptr111 = getelementptr inbounds i8, i8* %74, i64 1, !dbg !1725
  %tags112 = getelementptr inbounds %class.cDisplayString, %class.cDisplayString* %this1, i32 0, i32 2, !dbg !1726
  %75 = load %"struct.cDisplayString::Tag"*, %"struct.cDisplayString::Tag"** %tags112, align 8, !dbg !1726
  %numtags113 = getelementptr inbounds %class.cDisplayString, %class.cDisplayString* %this1, i32 0, i32 3, !dbg !1727
  %76 = load i32, i32* %numtags113, align 8, !dbg !1727
  %sub114 = sub nsw i32 %76, 1, !dbg !1728
  %idxprom115 = sext i32 %sub114 to i64, !dbg !1726
  %arrayidx116 = getelementptr inbounds %"struct.cDisplayString::Tag", %"struct.cDisplayString::Tag"* %75, i64 %idxprom115, !dbg !1726
  %args117 = getelementptr inbounds %"struct.cDisplayString::Tag", %"struct.cDisplayString::Tag"* %arrayidx116, i32 0, i32 2, !dbg !1729
  %tags118 = getelementptr inbounds %class.cDisplayString, %class.cDisplayString* %this1, i32 0, i32 2, !dbg !1730
  %77 = load %"struct.cDisplayString::Tag"*, %"struct.cDisplayString::Tag"** %tags118, align 8, !dbg !1730
  %numtags119 = getelementptr inbounds %class.cDisplayString, %class.cDisplayString* %this1, i32 0, i32 3, !dbg !1731
  %78 = load i32, i32* %numtags119, align 8, !dbg !1731
  %sub120 = sub nsw i32 %78, 1, !dbg !1732
  %idxprom121 = sext i32 %sub120 to i64, !dbg !1730
  %arrayidx122 = getelementptr inbounds %"struct.cDisplayString::Tag", %"struct.cDisplayString::Tag"* %77, i64 %idxprom121, !dbg !1730
  %numargs123 = getelementptr inbounds %"struct.cDisplayString::Tag", %"struct.cDisplayString::Tag"* %arrayidx122, i32 0, i32 1, !dbg !1733
  %79 = load i32, i32* %numargs123, align 8, !dbg !1733
  %sub124 = sub nsw i32 %79, 1, !dbg !1734
  %idxprom125 = sext i32 %sub124 to i64, !dbg !1726
  %arrayidx126 = getelementptr inbounds [16 x i8*], [16 x i8*]* %args117, i64 0, i64 %idxprom125, !dbg !1726
  store i8* %add.ptr111, i8** %arrayidx126, align 8, !dbg !1735
  br label %if.end128, !dbg !1736

if.else127:                                       ; preds = %if.else88
  %80 = load i8*, i8** %s, align 8, !dbg !1737
  %81 = load i8, i8* %80, align 1, !dbg !1739
  %82 = load i8*, i8** %d, align 8, !dbg !1740
  store i8 %81, i8* %82, align 1, !dbg !1741
  br label %if.end128

if.end128:                                        ; preds = %if.else127, %if.end103
  br label %if.end129

if.end129:                                        ; preds = %if.end128, %if.then73
  br label %if.end130

if.end130:                                        ; preds = %if.end129, %for.end69
  br label %if.end131

if.end131:                                        ; preds = %if.end130, %if.then36
  br label %for.inc132, !dbg !1742

for.inc132:                                       ; preds = %if.end131
  %83 = load i8*, i8** %s, align 8, !dbg !1743
  %incdec.ptr133 = getelementptr inbounds i8, i8* %83, i32 1, !dbg !1743
  store i8* %incdec.ptr133, i8** %s, align 8, !dbg !1743
  %84 = load i8*, i8** %d, align 8, !dbg !1744
  %incdec.ptr134 = getelementptr inbounds i8, i8* %84, i32 1, !dbg !1744
  store i8* %incdec.ptr134, i8** %d, align 8, !dbg !1744
  br label %for.cond29, !dbg !1745, !llvm.loop !1746

for.end135:                                       ; preds = %for.cond29
  %85 = load i8*, i8** %d, align 8, !dbg !1748
  store i8 0, i8* %85, align 1, !dbg !1749
  call void @llvm.dbg.declare(metadata i32* %i136, metadata !1750, metadata !DIExpression()), !dbg !1752
  store i32 0, i32* %i136, align 4, !dbg !1752
  br label %for.cond137, !dbg !1753

for.cond137:                                      ; preds = %for.inc186, %for.end135
  %86 = load i32, i32* %i136, align 4, !dbg !1754
  %numtags138 = getelementptr inbounds %class.cDisplayString, %class.cDisplayString* %this1, i32 0, i32 3, !dbg !1756
  %87 = load i32, i32* %numtags138, align 8, !dbg !1756
  %cmp139 = icmp slt i32 %86, %87, !dbg !1757
  br i1 %cmp139, label %for.body140, label %for.end188, !dbg !1758

for.body140:                                      ; preds = %for.cond137
  %tags141 = getelementptr inbounds %class.cDisplayString, %class.cDisplayString* %this1, i32 0, i32 2, !dbg !1759
  %88 = load %"struct.cDisplayString::Tag"*, %"struct.cDisplayString::Tag"** %tags141, align 8, !dbg !1759
  %89 = load i32, i32* %i136, align 4, !dbg !1762
  %idxprom142 = sext i32 %89 to i64, !dbg !1759
  %arrayidx143 = getelementptr inbounds %"struct.cDisplayString::Tag", %"struct.cDisplayString::Tag"* %88, i64 %idxprom142, !dbg !1759
  %name144 = getelementptr inbounds %"struct.cDisplayString::Tag", %"struct.cDisplayString::Tag"* %arrayidx143, i32 0, i32 0, !dbg !1763
  %90 = load i8*, i8** %name144, align 8, !dbg !1763
  %arrayidx145 = getelementptr inbounds i8, i8* %90, i64 0, !dbg !1759
  %91 = load i8, i8* %arrayidx145, align 1, !dbg !1759
  %tobool146 = icmp ne i8 %91, 0, !dbg !1759
  br i1 %tobool146, label %if.end160, label %if.then147, !dbg !1764

if.then147:                                       ; preds = %for.body140
  %tags148 = getelementptr inbounds %class.cDisplayString, %class.cDisplayString* %this1, i32 0, i32 2, !dbg !1765
  %92 = load %"struct.cDisplayString::Tag"*, %"struct.cDisplayString::Tag"** %tags148, align 8, !dbg !1765
  %93 = load i32, i32* %i136, align 4, !dbg !1768
  %idxprom149 = sext i32 %93 to i64, !dbg !1765
  %arrayidx150 = getelementptr inbounds %"struct.cDisplayString::Tag", %"struct.cDisplayString::Tag"* %92, i64 %idxprom149, !dbg !1765
  %numargs151 = getelementptr inbounds %"struct.cDisplayString::Tag", %"struct.cDisplayString::Tag"* %arrayidx150, i32 0, i32 1, !dbg !1769
  %94 = load i32, i32* %numargs151, align 8, !dbg !1769
  %cmp152 = icmp eq i32 %94, 0, !dbg !1770
  br i1 %cmp152, label %if.then153, label %if.else154, !dbg !1771

if.then153:                                       ; preds = %if.then147
  br label %if.end159, !dbg !1771

if.else154:                                       ; preds = %if.then147
  %exception155 = call i8* @__cxa_allocate_exception(i64 128) #3, !dbg !1772
  %95 = bitcast i8* %exception155 to %class.cRuntimeError*, !dbg !1772
  %dispstr156 = getelementptr inbounds %class.cDisplayString, %class.cDisplayString* %this1, i32 0, i32 4, !dbg !1773
  %96 = load i8*, i8** %dispstr156, align 8, !dbg !1773
  invoke void (%class.cRuntimeError*, i8*, ...) @_ZN13cRuntimeErrorC1EPKcz(%class.cRuntimeError* %95, i8* getelementptr inbounds ([55 x i8], [55 x i8]* @.str.5, i64 0, i64 0), i8* %96)
          to label %invoke.cont158 unwind label %lpad157, !dbg !1774

invoke.cont158:                                   ; preds = %if.else154
  call void @__cxa_throw(i8* %exception155, i8* bitcast ({ i8*, i8*, i8* }* @_ZTI13cRuntimeError to i8*), i8* bitcast (void (%class.cRuntimeError*)* @_ZN13cRuntimeErrorD2Ev to i8*)) #14, !dbg !1772
  unreachable, !dbg !1772

lpad157:                                          ; preds = %if.else154
  %97 = landingpad { i8*, i32 }
          cleanup, !dbg !1775
  %98 = extractvalue { i8*, i32 } %97, 0, !dbg !1775
  store i8* %98, i8** %exn.slot, align 8, !dbg !1775
  %99 = extractvalue { i8*, i32 } %97, 1, !dbg !1775
  store i32 %99, i32* %ehselector.slot, align 4, !dbg !1775
  call void @__cxa_free_exception(i8* %exception155) #3, !dbg !1772
  br label %eh.resume, !dbg !1772

if.end159:                                        ; preds = %if.then153
  br label %if.end160, !dbg !1776

if.end160:                                        ; preds = %if.end159, %for.body140
  call void @llvm.dbg.declare(metadata i8** %s161, metadata !1777, metadata !DIExpression()), !dbg !1779
  %tags162 = getelementptr inbounds %class.cDisplayString, %class.cDisplayString* %this1, i32 0, i32 2, !dbg !1780
  %100 = load %"struct.cDisplayString::Tag"*, %"struct.cDisplayString::Tag"** %tags162, align 8, !dbg !1780
  %101 = load i32, i32* %i136, align 4, !dbg !1781
  %idxprom163 = sext i32 %101 to i64, !dbg !1780
  %arrayidx164 = getelementptr inbounds %"struct.cDisplayString::Tag", %"struct.cDisplayString::Tag"* %100, i64 %idxprom163, !dbg !1780
  %name165 = getelementptr inbounds %"struct.cDisplayString::Tag", %"struct.cDisplayString::Tag"* %arrayidx164, i32 0, i32 0, !dbg !1782
  %102 = load i8*, i8** %name165, align 8, !dbg !1782
  store i8* %102, i8** %s161, align 8, !dbg !1779
  br label %for.cond166, !dbg !1783

for.cond166:                                      ; preds = %for.inc183, %if.end160
  %103 = load i8*, i8** %s161, align 8, !dbg !1784
  %104 = load i8, i8* %103, align 1, !dbg !1786
  %tobool167 = icmp ne i8 %104, 0, !dbg !1786
  br i1 %tobool167, label %for.body168, label %for.end185, !dbg !1787

for.body168:                                      ; preds = %for.cond166
  %105 = load i8*, i8** %s161, align 8, !dbg !1788
  %106 = load i8, i8* %105, align 1, !dbg !1790
  %call169 = call zeroext i1 @_Z11opp_isalnumh(i8 zeroext %106), !dbg !1791
  br i1 %call169, label %if.end182, label %land.lhs.true170, !dbg !1792

land.lhs.true170:                                 ; preds = %for.body168
  %107 = load i8*, i8** %s161, align 8, !dbg !1793
  %108 = load i8, i8* %107, align 1, !dbg !1794
  %conv171 = sext i8 %108 to i32, !dbg !1794
  %cmp172 = icmp ne i32 %conv171, 58, !dbg !1795
  br i1 %cmp172, label %if.then173, label %if.end182, !dbg !1796

if.then173:                                       ; preds = %land.lhs.true170
  %exception174 = call i8* @__cxa_allocate_exception(i64 128) #3, !dbg !1797
  %109 = bitcast i8* %exception174 to %class.cRuntimeError*, !dbg !1797
  %tags175 = getelementptr inbounds %class.cDisplayString, %class.cDisplayString* %this1, i32 0, i32 2, !dbg !1798
  %110 = load %"struct.cDisplayString::Tag"*, %"struct.cDisplayString::Tag"** %tags175, align 8, !dbg !1798
  %111 = load i32, i32* %i136, align 4, !dbg !1799
  %idxprom176 = sext i32 %111 to i64, !dbg !1798
  %arrayidx177 = getelementptr inbounds %"struct.cDisplayString::Tag", %"struct.cDisplayString::Tag"* %110, i64 %idxprom176, !dbg !1798
  %name178 = getelementptr inbounds %"struct.cDisplayString::Tag", %"struct.cDisplayString::Tag"* %arrayidx177, i32 0, i32 0, !dbg !1800
  %112 = load i8*, i8** %name178, align 8, !dbg !1800
  %dispstr179 = getelementptr inbounds %class.cDisplayString, %class.cDisplayString* %this1, i32 0, i32 4, !dbg !1801
  %113 = load i8*, i8** %dispstr179, align 8, !dbg !1801
  invoke void (%class.cRuntimeError*, i8*, ...) @_ZN13cRuntimeErrorC1EPKcz(%class.cRuntimeError* %109, i8* getelementptr inbounds ([80 x i8], [80 x i8]* @.str.6, i64 0, i64 0), i8* %112, i8* %113)
          to label %invoke.cont181 unwind label %lpad180, !dbg !1802

invoke.cont181:                                   ; preds = %if.then173
  call void @__cxa_throw(i8* %exception174, i8* bitcast ({ i8*, i8*, i8* }* @_ZTI13cRuntimeError to i8*), i8* bitcast (void (%class.cRuntimeError*)* @_ZN13cRuntimeErrorD2Ev to i8*)) #14, !dbg !1797
  unreachable, !dbg !1797

lpad180:                                          ; preds = %if.then173
  %114 = landingpad { i8*, i32 }
          cleanup, !dbg !1803
  %115 = extractvalue { i8*, i32 } %114, 0, !dbg !1803
  store i8* %115, i8** %exn.slot, align 8, !dbg !1803
  %116 = extractvalue { i8*, i32 } %114, 1, !dbg !1803
  store i32 %116, i32* %ehselector.slot, align 4, !dbg !1803
  call void @__cxa_free_exception(i8* %exception174) #3, !dbg !1797
  br label %eh.resume, !dbg !1797

if.end182:                                        ; preds = %land.lhs.true170, %for.body168
  br label %for.inc183, !dbg !1804

for.inc183:                                       ; preds = %if.end182
  %117 = load i8*, i8** %s161, align 8, !dbg !1805
  %incdec.ptr184 = getelementptr inbounds i8, i8* %117, i32 1, !dbg !1805
  store i8* %incdec.ptr184, i8** %s161, align 8, !dbg !1805
  br label %for.cond166, !dbg !1806, !llvm.loop !1807

for.end185:                                       ; preds = %for.cond166
  br label %for.inc186, !dbg !1809

for.inc186:                                       ; preds = %for.end185
  %118 = load i32, i32* %i136, align 4, !dbg !1810
  %inc187 = add nsw i32 %118, 1, !dbg !1810
  store i32 %inc187, i32* %i136, align 4, !dbg !1810
  br label %for.cond137, !dbg !1811, !llvm.loop !1812

for.end188:                                       ; preds = %if.then, %for.cond137
  ret void, !dbg !1607

eh.resume:                                        ; preds = %lpad180, %lpad157, %lpad101, %lpad
  %exn = load i8*, i8** %exn.slot, align 8, !dbg !1579
  %sel = load i32, i32* %ehselector.slot, align 4, !dbg !1579
  %lpad.val = insertvalue { i8*, i32 } undef, i8* %exn, 0, !dbg !1579
  %lpad.val189 = insertvalue { i8*, i32 } %lpad.val, i32 %sel, 1, !dbg !1579
  resume { i8*, i32 } %lpad.val189, !dbg !1579
}

; Function Attrs: noinline uwtable
define dso_local void @_ZN14cDisplayStringC2ERKS_(%class.cDisplayString* %this, %class.cDisplayString* dereferenceable(56) %ds) unnamed_addr #0 align 2 !dbg !1814 {
entry:
  %this.addr = alloca %class.cDisplayString*, align 8
  %ds.addr = alloca %class.cDisplayString*, align 8
  store %class.cDisplayString* %this, %class.cDisplayString** %this.addr, align 8
  call void @llvm.dbg.declare(metadata %class.cDisplayString** %this.addr, metadata !1815, metadata !DIExpression()), !dbg !1816
  store %class.cDisplayString* %ds, %class.cDisplayString** %ds.addr, align 8
  call void @llvm.dbg.declare(metadata %class.cDisplayString** %ds.addr, metadata !1817, metadata !DIExpression()), !dbg !1818
  %this1 = load %class.cDisplayString*, %class.cDisplayString** %this.addr, align 8
  %dispstr = getelementptr inbounds %class.cDisplayString, %class.cDisplayString* %this1, i32 0, i32 4, !dbg !1819
  store i8* null, i8** %dispstr, align 8, !dbg !1821
  %buffer = getelementptr inbounds %class.cDisplayString, %class.cDisplayString* %this1, i32 0, i32 0, !dbg !1822
  store i8* null, i8** %buffer, align 8, !dbg !1823
  %bufferend = getelementptr inbounds %class.cDisplayString, %class.cDisplayString* %this1, i32 0, i32 1, !dbg !1824
  store i8* null, i8** %bufferend, align 8, !dbg !1825
  %tags = getelementptr inbounds %class.cDisplayString, %class.cDisplayString* %this1, i32 0, i32 2, !dbg !1826
  store %"struct.cDisplayString::Tag"* null, %"struct.cDisplayString::Tag"** %tags, align 8, !dbg !1827
  %numtags = getelementptr inbounds %class.cDisplayString, %class.cDisplayString* %this1, i32 0, i32 3, !dbg !1828
  store i32 0, i32* %numtags, align 8, !dbg !1829
  %needsassemble = getelementptr inbounds %class.cDisplayString, %class.cDisplayString* %this1, i32 0, i32 5, !dbg !1830
  store i8 0, i8* %needsassemble, align 8, !dbg !1831
  %object = getelementptr inbounds %class.cDisplayString, %class.cDisplayString* %this1, i32 0, i32 6, !dbg !1832
  store %class.cComponent* null, %class.cComponent** %object, align 8, !dbg !1833
  %0 = load %class.cDisplayString*, %class.cDisplayString** %ds.addr, align 8, !dbg !1834
  %call = call dereferenceable(56) %class.cDisplayString* @_ZN14cDisplayStringaSERKS_(%class.cDisplayString* %this1, %class.cDisplayString* dereferenceable(56) %0), !dbg !1835
  ret void, !dbg !1836
}

; Function Attrs: noinline uwtable
define linkonce_odr dso_local dereferenceable(56) %class.cDisplayString* @_ZN14cDisplayStringaSERKS_(%class.cDisplayString* %this, %class.cDisplayString* dereferenceable(56) %ds) #0 comdat align 2 !dbg !1837 {
entry:
  %this.addr = alloca %class.cDisplayString*, align 8
  %ds.addr = alloca %class.cDisplayString*, align 8
  store %class.cDisplayString* %this, %class.cDisplayString** %this.addr, align 8
  call void @llvm.dbg.declare(metadata %class.cDisplayString** %this.addr, metadata !1838, metadata !DIExpression()), !dbg !1839
  store %class.cDisplayString* %ds, %class.cDisplayString** %ds.addr, align 8
  call void @llvm.dbg.declare(metadata %class.cDisplayString** %ds.addr, metadata !1840, metadata !DIExpression()), !dbg !1841
  %this1 = load %class.cDisplayString*, %class.cDisplayString** %this.addr, align 8
  %0 = load %class.cDisplayString*, %class.cDisplayString** %ds.addr, align 8, !dbg !1842
  %call = call i8* @_ZNK14cDisplayString3strEv(%class.cDisplayString* %0), !dbg !1843
  call void @_ZN14cDisplayString5parseEPKc(%class.cDisplayString* %this1, i8* %call), !dbg !1844
  ret %class.cDisplayString* %this1, !dbg !1845
}

; Function Attrs: noinline nounwind uwtable
define dso_local void @_ZN14cDisplayStringD2Ev(%class.cDisplayString* %this) unnamed_addr #4 align 2 personality i8* bitcast (i32 (...)* @__gxx_personality_v0 to i8*) !dbg !1846 {
entry:
  %this.addr = alloca %class.cDisplayString*, align 8
  store %class.cDisplayString* %this, %class.cDisplayString** %this.addr, align 8
  call void @llvm.dbg.declare(metadata %class.cDisplayString** %this.addr, metadata !1847, metadata !DIExpression()), !dbg !1848
  %this1 = load %class.cDisplayString*, %class.cDisplayString** %this.addr, align 8
  %dispstr = getelementptr inbounds %class.cDisplayString, %class.cDisplayString* %this1, i32 0, i32 4, !dbg !1849
  %0 = load i8*, i8** %dispstr, align 8, !dbg !1849
  %isnull = icmp eq i8* %0, null, !dbg !1851
  br i1 %isnull, label %delete.end, label %delete.notnull, !dbg !1851

delete.notnull:                                   ; preds = %entry
  call void @_ZdaPv(i8* %0) #13, !dbg !1851
  br label %delete.end, !dbg !1851

delete.end:                                       ; preds = %delete.notnull, %entry
  invoke void @_ZN14cDisplayString9cleartagsEv(%class.cDisplayString* %this1)
          to label %invoke.cont unwind label %terminate.lpad, !dbg !1852

invoke.cont:                                      ; preds = %delete.end
  ret void, !dbg !1853

terminate.lpad:                                   ; preds = %delete.end
  %1 = landingpad { i8*, i32 }
          catch i8* null, !dbg !1852
  %2 = extractvalue { i8*, i32 } %1, 0, !dbg !1852
  call void @__clang_call_terminate(i8* %2) #15, !dbg !1852
  unreachable, !dbg !1852
}

; Function Attrs: nobuiltin nounwind
declare dso_local void @_ZdaPv(i8*) #6

; Function Attrs: noinline uwtable
define dso_local void @_ZN14cDisplayString9cleartagsEv(%class.cDisplayString* %this) #0 align 2 !dbg !1854 {
entry:
  %this.addr = alloca %class.cDisplayString*, align 8
  %t = alloca i32, align 4
  %i = alloca i32, align 4
  store %class.cDisplayString* %this, %class.cDisplayString** %this.addr, align 8
  call void @llvm.dbg.declare(metadata %class.cDisplayString** %this.addr, metadata !1855, metadata !DIExpression()), !dbg !1856
  %this1 = load %class.cDisplayString*, %class.cDisplayString** %this.addr, align 8
  call void @llvm.dbg.declare(metadata i32* %t, metadata !1857, metadata !DIExpression()), !dbg !1859
  store i32 0, i32* %t, align 4, !dbg !1859
  br label %for.cond, !dbg !1860

for.cond:                                         ; preds = %for.inc29, %entry
  %0 = load i32, i32* %t, align 4, !dbg !1861
  %numtags = getelementptr inbounds %class.cDisplayString, %class.cDisplayString* %this1, i32 0, i32 3, !dbg !1863
  %1 = load i32, i32* %numtags, align 8, !dbg !1863
  %cmp = icmp slt i32 %0, %1, !dbg !1864
  br i1 %cmp, label %for.body, label %for.end31, !dbg !1865

for.body:                                         ; preds = %for.cond
  %tags = getelementptr inbounds %class.cDisplayString, %class.cDisplayString* %this1, i32 0, i32 2, !dbg !1866
  %2 = load %"struct.cDisplayString::Tag"*, %"struct.cDisplayString::Tag"** %tags, align 8, !dbg !1866
  %3 = load i32, i32* %t, align 4, !dbg !1869
  %idxprom = sext i32 %3 to i64, !dbg !1866
  %arrayidx = getelementptr inbounds %"struct.cDisplayString::Tag", %"struct.cDisplayString::Tag"* %2, i64 %idxprom, !dbg !1866
  %name = getelementptr inbounds %"struct.cDisplayString::Tag", %"struct.cDisplayString::Tag"* %arrayidx, i32 0, i32 0, !dbg !1870
  %4 = load i8*, i8** %name, align 8, !dbg !1870
  %call = call zeroext i1 @_ZNK14cDisplayString10isinbufferEPc(%class.cDisplayString* %this1, i8* %4), !dbg !1871
  br i1 %call, label %if.end, label %if.then, !dbg !1872

if.then:                                          ; preds = %for.body
  %tags2 = getelementptr inbounds %class.cDisplayString, %class.cDisplayString* %this1, i32 0, i32 2, !dbg !1873
  %5 = load %"struct.cDisplayString::Tag"*, %"struct.cDisplayString::Tag"** %tags2, align 8, !dbg !1873
  %6 = load i32, i32* %t, align 4, !dbg !1874
  %idxprom3 = sext i32 %6 to i64, !dbg !1873
  %arrayidx4 = getelementptr inbounds %"struct.cDisplayString::Tag", %"struct.cDisplayString::Tag"* %5, i64 %idxprom3, !dbg !1873
  %name5 = getelementptr inbounds %"struct.cDisplayString::Tag", %"struct.cDisplayString::Tag"* %arrayidx4, i32 0, i32 0, !dbg !1875
  %7 = load i8*, i8** %name5, align 8, !dbg !1875
  %isnull = icmp eq i8* %7, null, !dbg !1876
  br i1 %isnull, label %delete.end, label %delete.notnull, !dbg !1876

delete.notnull:                                   ; preds = %if.then
  call void @_ZdaPv(i8* %7) #13, !dbg !1876
  br label %delete.end, !dbg !1876

delete.end:                                       ; preds = %delete.notnull, %if.then
  br label %if.end, !dbg !1876

if.end:                                           ; preds = %delete.end, %for.body
  call void @llvm.dbg.declare(metadata i32* %i, metadata !1877, metadata !DIExpression()), !dbg !1879
  store i32 0, i32* %i, align 4, !dbg !1879
  br label %for.cond6, !dbg !1880

for.cond6:                                        ; preds = %for.inc, %if.end
  %8 = load i32, i32* %i, align 4, !dbg !1881
  %tags7 = getelementptr inbounds %class.cDisplayString, %class.cDisplayString* %this1, i32 0, i32 2, !dbg !1883
  %9 = load %"struct.cDisplayString::Tag"*, %"struct.cDisplayString::Tag"** %tags7, align 8, !dbg !1883
  %10 = load i32, i32* %t, align 4, !dbg !1884
  %idxprom8 = sext i32 %10 to i64, !dbg !1883
  %arrayidx9 = getelementptr inbounds %"struct.cDisplayString::Tag", %"struct.cDisplayString::Tag"* %9, i64 %idxprom8, !dbg !1883
  %numargs = getelementptr inbounds %"struct.cDisplayString::Tag", %"struct.cDisplayString::Tag"* %arrayidx9, i32 0, i32 1, !dbg !1885
  %11 = load i32, i32* %numargs, align 8, !dbg !1885
  %cmp10 = icmp slt i32 %8, %11, !dbg !1886
  br i1 %cmp10, label %for.body11, label %for.end, !dbg !1887

for.body11:                                       ; preds = %for.cond6
  %tags12 = getelementptr inbounds %class.cDisplayString, %class.cDisplayString* %this1, i32 0, i32 2, !dbg !1888
  %12 = load %"struct.cDisplayString::Tag"*, %"struct.cDisplayString::Tag"** %tags12, align 8, !dbg !1888
  %13 = load i32, i32* %t, align 4, !dbg !1890
  %idxprom13 = sext i32 %13 to i64, !dbg !1888
  %arrayidx14 = getelementptr inbounds %"struct.cDisplayString::Tag", %"struct.cDisplayString::Tag"* %12, i64 %idxprom13, !dbg !1888
  %args = getelementptr inbounds %"struct.cDisplayString::Tag", %"struct.cDisplayString::Tag"* %arrayidx14, i32 0, i32 2, !dbg !1891
  %14 = load i32, i32* %i, align 4, !dbg !1892
  %idxprom15 = sext i32 %14 to i64, !dbg !1888
  %arrayidx16 = getelementptr inbounds [16 x i8*], [16 x i8*]* %args, i64 0, i64 %idxprom15, !dbg !1888
  %15 = load i8*, i8** %arrayidx16, align 8, !dbg !1888
  %call17 = call zeroext i1 @_ZNK14cDisplayString10isinbufferEPc(%class.cDisplayString* %this1, i8* %15), !dbg !1893
  br i1 %call17, label %if.end28, label %if.then18, !dbg !1894

if.then18:                                        ; preds = %for.body11
  %tags19 = getelementptr inbounds %class.cDisplayString, %class.cDisplayString* %this1, i32 0, i32 2, !dbg !1895
  %16 = load %"struct.cDisplayString::Tag"*, %"struct.cDisplayString::Tag"** %tags19, align 8, !dbg !1895
  %17 = load i32, i32* %t, align 4, !dbg !1896
  %idxprom20 = sext i32 %17 to i64, !dbg !1895
  %arrayidx21 = getelementptr inbounds %"struct.cDisplayString::Tag", %"struct.cDisplayString::Tag"* %16, i64 %idxprom20, !dbg !1895
  %args22 = getelementptr inbounds %"struct.cDisplayString::Tag", %"struct.cDisplayString::Tag"* %arrayidx21, i32 0, i32 2, !dbg !1897
  %18 = load i32, i32* %i, align 4, !dbg !1898
  %idxprom23 = sext i32 %18 to i64, !dbg !1895
  %arrayidx24 = getelementptr inbounds [16 x i8*], [16 x i8*]* %args22, i64 0, i64 %idxprom23, !dbg !1895
  %19 = load i8*, i8** %arrayidx24, align 8, !dbg !1895
  %isnull25 = icmp eq i8* %19, null, !dbg !1899
  br i1 %isnull25, label %delete.end27, label %delete.notnull26, !dbg !1899

delete.notnull26:                                 ; preds = %if.then18
  call void @_ZdaPv(i8* %19) #13, !dbg !1899
  br label %delete.end27, !dbg !1899

delete.end27:                                     ; preds = %delete.notnull26, %if.then18
  br label %if.end28, !dbg !1899

if.end28:                                         ; preds = %delete.end27, %for.body11
  br label %for.inc, !dbg !1900

for.inc:                                          ; preds = %if.end28
  %20 = load i32, i32* %i, align 4, !dbg !1901
  %inc = add nsw i32 %20, 1, !dbg !1901
  store i32 %inc, i32* %i, align 4, !dbg !1901
  br label %for.cond6, !dbg !1902, !llvm.loop !1903

for.end:                                          ; preds = %for.cond6
  br label %for.inc29, !dbg !1905

for.inc29:                                        ; preds = %for.end
  %21 = load i32, i32* %t, align 4, !dbg !1906
  %inc30 = add nsw i32 %21, 1, !dbg !1906
  store i32 %inc30, i32* %t, align 4, !dbg !1906
  br label %for.cond, !dbg !1907, !llvm.loop !1908

for.end31:                                        ; preds = %for.cond
  %tags32 = getelementptr inbounds %class.cDisplayString, %class.cDisplayString* %this1, i32 0, i32 2, !dbg !1910
  %22 = load %"struct.cDisplayString::Tag"*, %"struct.cDisplayString::Tag"** %tags32, align 8, !dbg !1910
  %isnull33 = icmp eq %"struct.cDisplayString::Tag"* %22, null, !dbg !1911
  br i1 %isnull33, label %delete.end35, label %delete.notnull34, !dbg !1911

delete.notnull34:                                 ; preds = %for.end31
  %23 = bitcast %"struct.cDisplayString::Tag"* %22 to i8*, !dbg !1911
  call void @_ZdaPv(i8* %23) #13, !dbg !1911
  br label %delete.end35, !dbg !1911

delete.end35:                                     ; preds = %delete.notnull34, %for.end31
  %tags36 = getelementptr inbounds %class.cDisplayString, %class.cDisplayString* %this1, i32 0, i32 2, !dbg !1912
  store %"struct.cDisplayString::Tag"* null, %"struct.cDisplayString::Tag"** %tags36, align 8, !dbg !1913
  %numtags37 = getelementptr inbounds %class.cDisplayString, %class.cDisplayString* %this1, i32 0, i32 3, !dbg !1914
  store i32 0, i32* %numtags37, align 8, !dbg !1915
  %buffer = getelementptr inbounds %class.cDisplayString, %class.cDisplayString* %this1, i32 0, i32 0, !dbg !1916
  %24 = load i8*, i8** %buffer, align 8, !dbg !1916
  %isnull38 = icmp eq i8* %24, null, !dbg !1917
  br i1 %isnull38, label %delete.end40, label %delete.notnull39, !dbg !1917

delete.notnull39:                                 ; preds = %delete.end35
  call void @_ZdaPv(i8* %24) #13, !dbg !1917
  br label %delete.end40, !dbg !1917

delete.end40:                                     ; preds = %delete.notnull39, %delete.end35
  %bufferend = getelementptr inbounds %class.cDisplayString, %class.cDisplayString* %this1, i32 0, i32 1, !dbg !1918
  store i8* null, i8** %bufferend, align 8, !dbg !1919
  %buffer41 = getelementptr inbounds %class.cDisplayString, %class.cDisplayString* %this1, i32 0, i32 0, !dbg !1920
  store i8* null, i8** %buffer41, align 8, !dbg !1921
  ret void, !dbg !1922
}

declare dso_local i32 @__gxx_personality_v0(...)

; Function Attrs: noinline noreturn nounwind
define linkonce_odr hidden void @__clang_call_terminate(i8* %0) #7 comdat {
  %2 = call i8* @__cxa_begin_catch(i8* %0) #3
  call void @_ZSt9terminatev() #15
  unreachable
}

declare dso_local i8* @__cxa_begin_catch(i8*)

declare dso_local void @_ZSt9terminatev()

; Function Attrs: noinline uwtable
define dso_local void @_ZN14cDisplayString6notifyEv(%class.cDisplayString* %this) #0 align 2 !dbg !1923 {
entry:
  %this.addr = alloca %class.cDisplayString*, align 8
  store %class.cDisplayString* %this, %class.cDisplayString** %this.addr, align 8
  call void @llvm.dbg.declare(metadata %class.cDisplayString** %this.addr, metadata !1924, metadata !DIExpression()), !dbg !1925
  %this1 = load %class.cDisplayString*, %class.cDisplayString** %this.addr, align 8
  %needsassemble = getelementptr inbounds %class.cDisplayString, %class.cDisplayString* %this1, i32 0, i32 5, !dbg !1926
  store i8 1, i8* %needsassemble, align 8, !dbg !1927
  %call = call %class.cEnvir* @_ZN11cSimulation14getActiveEnvirEv(), !dbg !1928
  %suppress_notifications = getelementptr inbounds %class.cEnvir, %class.cEnvir* %call, i32 0, i32 2, !dbg !1928
  %0 = load i8, i8* %suppress_notifications, align 1, !dbg !1928
  %tobool = trunc i8 %0 to i1, !dbg !1928
  br i1 %tobool, label %cond.true, label %cond.false, !dbg !1928

cond.true:                                        ; preds = %entry
  br label %cond.end, !dbg !1928

cond.false:                                       ; preds = %entry
  %call2 = call %class.cEnvir* @_ZN11cSimulation14getActiveEnvirEv(), !dbg !1928
  %object = getelementptr inbounds %class.cDisplayString, %class.cDisplayString* %this1, i32 0, i32 6, !dbg !1929
  %1 = load %class.cComponent*, %class.cComponent** %object, align 8, !dbg !1929
  %2 = bitcast %class.cEnvir* %call2 to void (%class.cEnvir*, %class.cComponent*)***, !dbg !1930
  %vtable = load void (%class.cEnvir*, %class.cComponent*)**, void (%class.cEnvir*, %class.cComponent*)*** %2, align 8, !dbg !1930
  %vfn = getelementptr inbounds void (%class.cEnvir*, %class.cComponent*)*, void (%class.cEnvir*, %class.cComponent*)** %vtable, i64 25, !dbg !1930
  %3 = load void (%class.cEnvir*, %class.cComponent*)*, void (%class.cEnvir*, %class.cComponent*)** %vfn, align 8, !dbg !1930
  call void %3(%class.cEnvir* %call2, %class.cComponent* %1), !dbg !1930
  br label %cond.end, !dbg !1928

cond.end:                                         ; preds = %cond.false, %cond.true
  ret void, !dbg !1931
}

; Function Attrs: noinline nounwind uwtable
define linkonce_odr dso_local %class.cEnvir* @_ZN11cSimulation14getActiveEnvirEv() #4 comdat align 2 !dbg !1932 {
entry:
  %0 = load %class.cEnvir*, %class.cEnvir** @_ZN11cSimulation5evPtrE, align 8, !dbg !1941
  ret %class.cEnvir* %0, !dbg !1942
}

; Function Attrs: noinline uwtable
define dso_local i8* @_ZNK14cDisplayString3strEv(%class.cDisplayString* %this) #0 align 2 !dbg !1943 {
entry:
  %this.addr = alloca %class.cDisplayString*, align 8
  store %class.cDisplayString* %this, %class.cDisplayString** %this.addr, align 8
  call void @llvm.dbg.declare(metadata %class.cDisplayString** %this.addr, metadata !1944, metadata !DIExpression()), !dbg !1946
  %this1 = load %class.cDisplayString*, %class.cDisplayString** %this.addr, align 8
  %needsassemble = getelementptr inbounds %class.cDisplayString, %class.cDisplayString* %this1, i32 0, i32 5, !dbg !1947
  %0 = load i8, i8* %needsassemble, align 8, !dbg !1947
  %tobool = trunc i8 %0 to i1, !dbg !1947
  br i1 %tobool, label %if.then, label %if.end, !dbg !1949

if.then:                                          ; preds = %entry
  call void @_ZNK14cDisplayString8assembleEv(%class.cDisplayString* %this1), !dbg !1950
  br label %if.end, !dbg !1950

if.end:                                           ; preds = %if.then, %entry
  %dispstr = getelementptr inbounds %class.cDisplayString, %class.cDisplayString* %this1, i32 0, i32 4, !dbg !1951
  %1 = load i8*, i8** %dispstr, align 8, !dbg !1951
  %tobool2 = icmp ne i8* %1, null, !dbg !1951
  br i1 %tobool2, label %cond.true, label %cond.false, !dbg !1951

cond.true:                                        ; preds = %if.end
  %dispstr3 = getelementptr inbounds %class.cDisplayString, %class.cDisplayString* %this1, i32 0, i32 4, !dbg !1952
  %2 = load i8*, i8** %dispstr3, align 8, !dbg !1952
  br label %cond.end, !dbg !1951

cond.false:                                       ; preds = %if.end
  br label %cond.end, !dbg !1951

cond.end:                                         ; preds = %cond.false, %cond.true
  %cond = phi i8* [ %2, %cond.true ], [ getelementptr inbounds ([1 x i8], [1 x i8]* @.str, i64 0, i64 0), %cond.false ], !dbg !1951
  ret i8* %cond, !dbg !1953
}

; Function Attrs: noinline uwtable
define dso_local void @_ZNK14cDisplayString8assembleEv(%class.cDisplayString* %this) #0 align 2 !dbg !1954 {
entry:
  %this.addr = alloca %class.cDisplayString*, align 8
  %size = alloca i32, align 4
  %t0 = alloca i32, align 4
  %i = alloca i32, align 4
  %t = alloca i32, align 4
  %i46 = alloca i32, align 4
  store %class.cDisplayString* %this, %class.cDisplayString** %this.addr, align 8
  call void @llvm.dbg.declare(metadata %class.cDisplayString** %this.addr, metadata !1955, metadata !DIExpression()), !dbg !1956
  %this1 = load %class.cDisplayString*, %class.cDisplayString** %this.addr, align 8
  call void @llvm.dbg.declare(metadata i32* %size, metadata !1957, metadata !DIExpression()), !dbg !1958
  store i32 0, i32* %size, align 4, !dbg !1958
  call void @llvm.dbg.declare(metadata i32* %t0, metadata !1959, metadata !DIExpression()), !dbg !1961
  store i32 0, i32* %t0, align 4, !dbg !1961
  br label %for.cond, !dbg !1962

for.cond:                                         ; preds = %for.inc17, %entry
  %0 = load i32, i32* %t0, align 4, !dbg !1963
  %numtags = getelementptr inbounds %class.cDisplayString, %class.cDisplayString* %this1, i32 0, i32 3, !dbg !1965
  %1 = load i32, i32* %numtags, align 8, !dbg !1965
  %cmp = icmp slt i32 %0, %1, !dbg !1966
  br i1 %cmp, label %for.body, label %for.end19, !dbg !1967

for.body:                                         ; preds = %for.cond
  %tags = getelementptr inbounds %class.cDisplayString, %class.cDisplayString* %this1, i32 0, i32 2, !dbg !1968
  %2 = load %"struct.cDisplayString::Tag"*, %"struct.cDisplayString::Tag"** %tags, align 8, !dbg !1968
  %3 = load i32, i32* %t0, align 4, !dbg !1970
  %idxprom = sext i32 %3 to i64, !dbg !1968
  %arrayidx = getelementptr inbounds %"struct.cDisplayString::Tag", %"struct.cDisplayString::Tag"* %2, i64 %idxprom, !dbg !1968
  %name = getelementptr inbounds %"struct.cDisplayString::Tag", %"struct.cDisplayString::Tag"* %arrayidx, i32 0, i32 0, !dbg !1971
  %4 = load i8*, i8** %name, align 8, !dbg !1971
  %call = call i32 @_Z10opp_strlenPKc(i8* %4), !dbg !1972
  %add = add nsw i32 %call, 2, !dbg !1973
  %5 = load i32, i32* %size, align 4, !dbg !1974
  %add2 = add nsw i32 %5, %add, !dbg !1974
  store i32 %add2, i32* %size, align 4, !dbg !1974
  call void @llvm.dbg.declare(metadata i32* %i, metadata !1975, metadata !DIExpression()), !dbg !1977
  store i32 0, i32* %i, align 4, !dbg !1977
  br label %for.cond3, !dbg !1978

for.cond3:                                        ; preds = %for.inc, %for.body
  %6 = load i32, i32* %i, align 4, !dbg !1979
  %tags4 = getelementptr inbounds %class.cDisplayString, %class.cDisplayString* %this1, i32 0, i32 2, !dbg !1981
  %7 = load %"struct.cDisplayString::Tag"*, %"struct.cDisplayString::Tag"** %tags4, align 8, !dbg !1981
  %8 = load i32, i32* %t0, align 4, !dbg !1982
  %idxprom5 = sext i32 %8 to i64, !dbg !1981
  %arrayidx6 = getelementptr inbounds %"struct.cDisplayString::Tag", %"struct.cDisplayString::Tag"* %7, i64 %idxprom5, !dbg !1981
  %numargs = getelementptr inbounds %"struct.cDisplayString::Tag", %"struct.cDisplayString::Tag"* %arrayidx6, i32 0, i32 1, !dbg !1983
  %9 = load i32, i32* %numargs, align 8, !dbg !1983
  %cmp7 = icmp slt i32 %6, %9, !dbg !1984
  br i1 %cmp7, label %for.body8, label %for.end, !dbg !1985

for.body8:                                        ; preds = %for.cond3
  %tags9 = getelementptr inbounds %class.cDisplayString, %class.cDisplayString* %this1, i32 0, i32 2, !dbg !1986
  %10 = load %"struct.cDisplayString::Tag"*, %"struct.cDisplayString::Tag"** %tags9, align 8, !dbg !1986
  %11 = load i32, i32* %t0, align 4, !dbg !1987
  %idxprom10 = sext i32 %11 to i64, !dbg !1986
  %arrayidx11 = getelementptr inbounds %"struct.cDisplayString::Tag", %"struct.cDisplayString::Tag"* %10, i64 %idxprom10, !dbg !1986
  %args = getelementptr inbounds %"struct.cDisplayString::Tag", %"struct.cDisplayString::Tag"* %arrayidx11, i32 0, i32 2, !dbg !1988
  %12 = load i32, i32* %i, align 4, !dbg !1989
  %idxprom12 = sext i32 %12 to i64, !dbg !1986
  %arrayidx13 = getelementptr inbounds [16 x i8*], [16 x i8*]* %args, i64 0, i64 %idxprom12, !dbg !1986
  %13 = load i8*, i8** %arrayidx13, align 8, !dbg !1986
  %call14 = call i32 @_Z10opp_strlenPKc(i8* %13), !dbg !1990
  %add15 = add nsw i32 %call14, 1, !dbg !1991
  %14 = load i32, i32* %size, align 4, !dbg !1992
  %add16 = add nsw i32 %14, %add15, !dbg !1992
  store i32 %add16, i32* %size, align 4, !dbg !1992
  br label %for.inc, !dbg !1993

for.inc:                                          ; preds = %for.body8
  %15 = load i32, i32* %i, align 4, !dbg !1994
  %inc = add nsw i32 %15, 1, !dbg !1994
  store i32 %inc, i32* %i, align 4, !dbg !1994
  br label %for.cond3, !dbg !1995, !llvm.loop !1996

for.end:                                          ; preds = %for.cond3
  br label %for.inc17, !dbg !1998

for.inc17:                                        ; preds = %for.end
  %16 = load i32, i32* %t0, align 4, !dbg !1999
  %inc18 = add nsw i32 %16, 1, !dbg !1999
  store i32 %inc18, i32* %t0, align 4, !dbg !1999
  br label %for.cond, !dbg !2000, !llvm.loop !2001

for.end19:                                        ; preds = %for.cond
  %17 = load i32, i32* %size, align 4, !dbg !2003
  %mul = mul nsw i32 2, %17, !dbg !2004
  %add20 = add nsw i32 %mul, 1, !dbg !2005
  store i32 %add20, i32* %size, align 4, !dbg !2006
  %dispstr = getelementptr inbounds %class.cDisplayString, %class.cDisplayString* %this1, i32 0, i32 4, !dbg !2007
  %18 = load i8*, i8** %dispstr, align 8, !dbg !2007
  %isnull = icmp eq i8* %18, null, !dbg !2008
  br i1 %isnull, label %delete.end, label %delete.notnull, !dbg !2008

delete.notnull:                                   ; preds = %for.end19
  call void @_ZdaPv(i8* %18) #13, !dbg !2008
  br label %delete.end, !dbg !2008

delete.end:                                       ; preds = %delete.notnull, %for.end19
  %19 = load i32, i32* %size, align 4, !dbg !2009
  %conv = sext i32 %19 to i64, !dbg !2009
  %call21 = call i8* @_Znam(i64 %conv) #12, !dbg !2010
  %dispstr22 = getelementptr inbounds %class.cDisplayString, %class.cDisplayString* %this1, i32 0, i32 4, !dbg !2011
  store i8* %call21, i8** %dispstr22, align 8, !dbg !2012
  %dispstr23 = getelementptr inbounds %class.cDisplayString, %class.cDisplayString* %this1, i32 0, i32 4, !dbg !2013
  %20 = load i8*, i8** %dispstr23, align 8, !dbg !2013
  %arrayidx24 = getelementptr inbounds i8, i8* %20, i64 0, !dbg !2013
  store i8 0, i8* %arrayidx24, align 1, !dbg !2014
  call void @llvm.dbg.declare(metadata i32* %t, metadata !2015, metadata !DIExpression()), !dbg !2017
  store i32 0, i32* %t, align 4, !dbg !2017
  br label %for.cond25, !dbg !2018

for.cond25:                                       ; preds = %for.inc69, %delete.end
  %21 = load i32, i32* %t, align 4, !dbg !2019
  %numtags26 = getelementptr inbounds %class.cDisplayString, %class.cDisplayString* %this1, i32 0, i32 3, !dbg !2021
  %22 = load i32, i32* %numtags26, align 8, !dbg !2021
  %cmp27 = icmp slt i32 %21, %22, !dbg !2022
  br i1 %cmp27, label %for.body28, label %for.end71, !dbg !2023

for.body28:                                       ; preds = %for.cond25
  %23 = load i32, i32* %t, align 4, !dbg !2024
  %cmp29 = icmp ne i32 %23, 0, !dbg !2027
  br i1 %cmp29, label %if.then, label %if.end, !dbg !2028

if.then:                                          ; preds = %for.body28
  %dispstr30 = getelementptr inbounds %class.cDisplayString, %class.cDisplayString* %this1, i32 0, i32 4, !dbg !2029
  %24 = load i8*, i8** %dispstr30, align 8, !dbg !2029
  %call31 = call i8* @strcat(i8* %24, i8* getelementptr inbounds ([2 x i8], [2 x i8]* @.str.7, i64 0, i64 0)) #3, !dbg !2030
  br label %if.end, !dbg !2030

if.end:                                           ; preds = %if.then, %for.body28
  %dispstr32 = getelementptr inbounds %class.cDisplayString, %class.cDisplayString* %this1, i32 0, i32 4, !dbg !2031
  %25 = load i8*, i8** %dispstr32, align 8, !dbg !2031
  %tags33 = getelementptr inbounds %class.cDisplayString, %class.cDisplayString* %this1, i32 0, i32 2, !dbg !2032
  %26 = load %"struct.cDisplayString::Tag"*, %"struct.cDisplayString::Tag"** %tags33, align 8, !dbg !2032
  %27 = load i32, i32* %t, align 4, !dbg !2033
  %idxprom34 = sext i32 %27 to i64, !dbg !2032
  %arrayidx35 = getelementptr inbounds %"struct.cDisplayString::Tag", %"struct.cDisplayString::Tag"* %26, i64 %idxprom34, !dbg !2032
  %name36 = getelementptr inbounds %"struct.cDisplayString::Tag", %"struct.cDisplayString::Tag"* %arrayidx35, i32 0, i32 0, !dbg !2034
  %28 = load i8*, i8** %name36, align 8, !dbg !2034
  call void @_ZN14cDisplayString13strcatescapedEPcPKc(i8* %25, i8* %28), !dbg !2035
  %tags37 = getelementptr inbounds %class.cDisplayString, %class.cDisplayString* %this1, i32 0, i32 2, !dbg !2036
  %29 = load %"struct.cDisplayString::Tag"*, %"struct.cDisplayString::Tag"** %tags37, align 8, !dbg !2036
  %30 = load i32, i32* %t, align 4, !dbg !2038
  %idxprom38 = sext i32 %30 to i64, !dbg !2036
  %arrayidx39 = getelementptr inbounds %"struct.cDisplayString::Tag", %"struct.cDisplayString::Tag"* %29, i64 %idxprom38, !dbg !2036
  %numargs40 = getelementptr inbounds %"struct.cDisplayString::Tag", %"struct.cDisplayString::Tag"* %arrayidx39, i32 0, i32 1, !dbg !2039
  %31 = load i32, i32* %numargs40, align 8, !dbg !2039
  %cmp41 = icmp sgt i32 %31, 0, !dbg !2040
  br i1 %cmp41, label %if.then42, label %if.end45, !dbg !2041

if.then42:                                        ; preds = %if.end
  %dispstr43 = getelementptr inbounds %class.cDisplayString, %class.cDisplayString* %this1, i32 0, i32 4, !dbg !2042
  %32 = load i8*, i8** %dispstr43, align 8, !dbg !2042
  %call44 = call i8* @strcat(i8* %32, i8* getelementptr inbounds ([2 x i8], [2 x i8]* @.str.8, i64 0, i64 0)) #3, !dbg !2043
  br label %if.end45, !dbg !2043

if.end45:                                         ; preds = %if.then42, %if.end
  call void @llvm.dbg.declare(metadata i32* %i46, metadata !2044, metadata !DIExpression()), !dbg !2046
  store i32 0, i32* %i46, align 4, !dbg !2046
  br label %for.cond47, !dbg !2047

for.cond47:                                       ; preds = %for.inc66, %if.end45
  %33 = load i32, i32* %i46, align 4, !dbg !2048
  %tags48 = getelementptr inbounds %class.cDisplayString, %class.cDisplayString* %this1, i32 0, i32 2, !dbg !2050
  %34 = load %"struct.cDisplayString::Tag"*, %"struct.cDisplayString::Tag"** %tags48, align 8, !dbg !2050
  %35 = load i32, i32* %t, align 4, !dbg !2051
  %idxprom49 = sext i32 %35 to i64, !dbg !2050
  %arrayidx50 = getelementptr inbounds %"struct.cDisplayString::Tag", %"struct.cDisplayString::Tag"* %34, i64 %idxprom49, !dbg !2050
  %numargs51 = getelementptr inbounds %"struct.cDisplayString::Tag", %"struct.cDisplayString::Tag"* %arrayidx50, i32 0, i32 1, !dbg !2052
  %36 = load i32, i32* %numargs51, align 8, !dbg !2052
  %cmp52 = icmp slt i32 %33, %36, !dbg !2053
  br i1 %cmp52, label %for.body53, label %for.end68, !dbg !2054

for.body53:                                       ; preds = %for.cond47
  %37 = load i32, i32* %i46, align 4, !dbg !2055
  %cmp54 = icmp ne i32 %37, 0, !dbg !2058
  br i1 %cmp54, label %if.then55, label %if.end58, !dbg !2059

if.then55:                                        ; preds = %for.body53
  %dispstr56 = getelementptr inbounds %class.cDisplayString, %class.cDisplayString* %this1, i32 0, i32 4, !dbg !2060
  %38 = load i8*, i8** %dispstr56, align 8, !dbg !2060
  %call57 = call i8* @strcat(i8* %38, i8* getelementptr inbounds ([2 x i8], [2 x i8]* @.str.9, i64 0, i64 0)) #3, !dbg !2061
  br label %if.end58, !dbg !2061

if.end58:                                         ; preds = %if.then55, %for.body53
  %dispstr59 = getelementptr inbounds %class.cDisplayString, %class.cDisplayString* %this1, i32 0, i32 4, !dbg !2062
  %39 = load i8*, i8** %dispstr59, align 8, !dbg !2062
  %tags60 = getelementptr inbounds %class.cDisplayString, %class.cDisplayString* %this1, i32 0, i32 2, !dbg !2063
  %40 = load %"struct.cDisplayString::Tag"*, %"struct.cDisplayString::Tag"** %tags60, align 8, !dbg !2063
  %41 = load i32, i32* %t, align 4, !dbg !2064
  %idxprom61 = sext i32 %41 to i64, !dbg !2063
  %arrayidx62 = getelementptr inbounds %"struct.cDisplayString::Tag", %"struct.cDisplayString::Tag"* %40, i64 %idxprom61, !dbg !2063
  %args63 = getelementptr inbounds %"struct.cDisplayString::Tag", %"struct.cDisplayString::Tag"* %arrayidx62, i32 0, i32 2, !dbg !2065
  %42 = load i32, i32* %i46, align 4, !dbg !2066
  %idxprom64 = sext i32 %42 to i64, !dbg !2063
  %arrayidx65 = getelementptr inbounds [16 x i8*], [16 x i8*]* %args63, i64 0, i64 %idxprom64, !dbg !2063
  %43 = load i8*, i8** %arrayidx65, align 8, !dbg !2063
  call void @_ZN14cDisplayString13strcatescapedEPcPKc(i8* %39, i8* %43), !dbg !2067
  br label %for.inc66, !dbg !2068

for.inc66:                                        ; preds = %if.end58
  %44 = load i32, i32* %i46, align 4, !dbg !2069
  %inc67 = add nsw i32 %44, 1, !dbg !2069
  store i32 %inc67, i32* %i46, align 4, !dbg !2069
  br label %for.cond47, !dbg !2070, !llvm.loop !2071

for.end68:                                        ; preds = %for.cond47
  br label %for.inc69, !dbg !2073

for.inc69:                                        ; preds = %for.end68
  %45 = load i32, i32* %t, align 4, !dbg !2074
  %inc70 = add nsw i32 %45, 1, !dbg !2074
  store i32 %inc70, i32* %t, align 4, !dbg !2074
  br label %for.cond25, !dbg !2075, !llvm.loop !2076

for.end71:                                        ; preds = %for.cond25
  %needsassemble = getelementptr inbounds %class.cDisplayString, %class.cDisplayString* %this1, i32 0, i32 5, !dbg !2078
  store i8 0, i8* %needsassemble, align 8, !dbg !2079
  ret void, !dbg !2080
}

; Function Attrs: noinline uwtable
define dso_local void @_ZN14cDisplayString5parseEPKc(%class.cDisplayString* %this, i8* %displaystr) #0 align 2 !dbg !2081 {
entry:
  %this.addr = alloca %class.cDisplayString*, align 8
  %displaystr.addr = alloca i8*, align 8
  store %class.cDisplayString* %this, %class.cDisplayString** %this.addr, align 8
  call void @llvm.dbg.declare(metadata %class.cDisplayString** %this.addr, metadata !2082, metadata !DIExpression()), !dbg !2083
  store i8* %displaystr, i8** %displaystr.addr, align 8
  call void @llvm.dbg.declare(metadata i8** %displaystr.addr, metadata !2084, metadata !DIExpression()), !dbg !2085
  %this1 = load %class.cDisplayString*, %class.cDisplayString** %this.addr, align 8
  %needsassemble = getelementptr inbounds %class.cDisplayString, %class.cDisplayString* %this1, i32 0, i32 5, !dbg !2086
  %0 = load i8, i8* %needsassemble, align 8, !dbg !2086
  %tobool = trunc i8 %0 to i1, !dbg !2086
  br i1 %tobool, label %if.then, label %if.end, !dbg !2088

if.then:                                          ; preds = %entry
  call void @_ZNK14cDisplayString8assembleEv(%class.cDisplayString* %this1), !dbg !2089
  br label %if.end, !dbg !2089

if.end:                                           ; preds = %if.then, %entry
  %dispstr = getelementptr inbounds %class.cDisplayString, %class.cDisplayString* %this1, i32 0, i32 4, !dbg !2090
  %1 = load i8*, i8** %dispstr, align 8, !dbg !2090
  %2 = load i8*, i8** %displaystr.addr, align 8, !dbg !2092
  %call = call i32 @_Z10opp_strcmpPKcS0_(i8* %1, i8* %2), !dbg !2093
  %tobool2 = icmp ne i32 %call, 0, !dbg !2093
  br i1 %tobool2, label %if.end4, label %if.then3, !dbg !2094

if.then3:                                         ; preds = %if.end
  br label %return, !dbg !2095

if.end4:                                          ; preds = %if.end
  %dispstr5 = getelementptr inbounds %class.cDisplayString, %class.cDisplayString* %this1, i32 0, i32 4, !dbg !2096
  %3 = load i8*, i8** %dispstr5, align 8, !dbg !2096
  %isnull = icmp eq i8* %3, null, !dbg !2097
  br i1 %isnull, label %delete.end, label %delete.notnull, !dbg !2097

delete.notnull:                                   ; preds = %if.end4
  call void @_ZdaPv(i8* %3) #13, !dbg !2097
  br label %delete.end, !dbg !2097

delete.end:                                       ; preds = %delete.notnull, %if.end4
  call void @_ZN14cDisplayString9cleartagsEv(%class.cDisplayString* %this1), !dbg !2098
  %4 = load i8*, i8** %displaystr.addr, align 8, !dbg !2099
  %call6 = call i8* @_Z10opp_strdupPKc(i8* %4), !dbg !2100
  %dispstr7 = getelementptr inbounds %class.cDisplayString, %class.cDisplayString* %this1, i32 0, i32 4, !dbg !2101
  store i8* %call6, i8** %dispstr7, align 8, !dbg !2102
  call void @_ZN14cDisplayString5parseEv(%class.cDisplayString* %this1), !dbg !2103
  call void @_ZN14cDisplayString6notifyEv(%class.cDisplayString* %this1), !dbg !2104
  br label %return, !dbg !2105

return:                                           ; preds = %delete.end, %if.then3
  ret void, !dbg !2105
}

; Function Attrs: noinline nounwind uwtable
define linkonce_odr dso_local i32 @_Z10opp_strcmpPKcS0_(i8* %s1, i8* %s2) #4 comdat !dbg !2106 {
entry:
  %retval = alloca i32, align 4
  %s1.addr = alloca i8*, align 8
  %s2.addr = alloca i8*, align 8
  store i8* %s1, i8** %s1.addr, align 8
  call void @llvm.dbg.declare(metadata i8** %s1.addr, metadata !2107, metadata !DIExpression()), !dbg !2108
  store i8* %s2, i8** %s2.addr, align 8
  call void @llvm.dbg.declare(metadata i8** %s2.addr, metadata !2109, metadata !DIExpression()), !dbg !2110
  %0 = load i8*, i8** %s1.addr, align 8, !dbg !2111
  %tobool = icmp ne i8* %0, null, !dbg !2111
  br i1 %tobool, label %if.then, label %if.else, !dbg !2113

if.then:                                          ; preds = %entry
  %1 = load i8*, i8** %s2.addr, align 8, !dbg !2114
  %tobool1 = icmp ne i8* %1, null, !dbg !2114
  br i1 %tobool1, label %cond.true, label %cond.false, !dbg !2114

cond.true:                                        ; preds = %if.then
  %2 = load i8*, i8** %s1.addr, align 8, !dbg !2115
  %3 = load i8*, i8** %s2.addr, align 8, !dbg !2116
  %call = call i32 @strcmp(i8* %2, i8* %3) #11, !dbg !2117
  br label %cond.end, !dbg !2114

cond.false:                                       ; preds = %if.then
  %4 = load i8*, i8** %s1.addr, align 8, !dbg !2118
  %5 = load i8, i8* %4, align 1, !dbg !2119
  %tobool2 = icmp ne i8 %5, 0, !dbg !2119
  %6 = zext i1 %tobool2 to i64, !dbg !2119
  %cond = select i1 %tobool2, i32 1, i32 0, !dbg !2119
  br label %cond.end, !dbg !2114

cond.end:                                         ; preds = %cond.false, %cond.true
  %cond3 = phi i32 [ %call, %cond.true ], [ %cond, %cond.false ], !dbg !2114
  store i32 %cond3, i32* %retval, align 4, !dbg !2120
  br label %return, !dbg !2120

if.else:                                          ; preds = %entry
  %7 = load i8*, i8** %s2.addr, align 8, !dbg !2121
  %tobool4 = icmp ne i8* %7, null, !dbg !2121
  br i1 %tobool4, label %land.rhs, label %land.end, !dbg !2122

land.rhs:                                         ; preds = %if.else
  %8 = load i8*, i8** %s2.addr, align 8, !dbg !2123
  %9 = load i8, i8* %8, align 1, !dbg !2124
  %tobool5 = icmp ne i8 %9, 0, !dbg !2124
  br label %land.end

land.end:                                         ; preds = %land.rhs, %if.else
  %10 = phi i1 [ false, %if.else ], [ %tobool5, %land.rhs ], !dbg !2125
  %11 = zext i1 %10 to i64, !dbg !2126
  %cond6 = select i1 %10, i32 -1, i32 0, !dbg !2126
  store i32 %cond6, i32* %retval, align 4, !dbg !2127
  br label %return, !dbg !2127

return:                                           ; preds = %land.end, %cond.end
  %12 = load i32, i32* %retval, align 4, !dbg !2128
  ret i32 %12, !dbg !2128
}

; Function Attrs: noinline uwtable
define dso_local void @_ZN14cDisplayString10updateWithERKS_(%class.cDisplayString* %this, %class.cDisplayString* dereferenceable(56) %ds) #0 align 2 !dbg !2129 {
entry:
  %this.addr = alloca %class.cDisplayString*, align 8
  %ds.addr = alloca %class.cDisplayString*, align 8
  %n = alloca i32, align 4
  %i = alloca i32, align 4
  %m = alloca i32, align 4
  %j = alloca i32, align 4
  %arg = alloca i8*, align 8
  store %class.cDisplayString* %this, %class.cDisplayString** %this.addr, align 8
  call void @llvm.dbg.declare(metadata %class.cDisplayString** %this.addr, metadata !2130, metadata !DIExpression()), !dbg !2131
  store %class.cDisplayString* %ds, %class.cDisplayString** %ds.addr, align 8
  call void @llvm.dbg.declare(metadata %class.cDisplayString** %ds.addr, metadata !2132, metadata !DIExpression()), !dbg !2133
  %this1 = load %class.cDisplayString*, %class.cDisplayString** %this.addr, align 8
  call void @llvm.dbg.declare(metadata i32* %n, metadata !2134, metadata !DIExpression()), !dbg !2135
  %0 = load %class.cDisplayString*, %class.cDisplayString** %ds.addr, align 8, !dbg !2136
  %call = call i32 @_ZNK14cDisplayString10getNumTagsEv(%class.cDisplayString* %0), !dbg !2137
  store i32 %call, i32* %n, align 4, !dbg !2135
  call void @llvm.dbg.declare(metadata i32* %i, metadata !2138, metadata !DIExpression()), !dbg !2140
  store i32 0, i32* %i, align 4, !dbg !2140
  br label %for.cond, !dbg !2141

for.cond:                                         ; preds = %for.inc17, %entry
  %1 = load i32, i32* %i, align 4, !dbg !2142
  %2 = load i32, i32* %n, align 4, !dbg !2144
  %cmp = icmp slt i32 %1, %2, !dbg !2145
  br i1 %cmp, label %for.body, label %for.end19, !dbg !2146

for.body:                                         ; preds = %for.cond
  call void @llvm.dbg.declare(metadata i32* %m, metadata !2147, metadata !DIExpression()), !dbg !2149
  %3 = load %class.cDisplayString*, %class.cDisplayString** %ds.addr, align 8, !dbg !2150
  %4 = load i32, i32* %i, align 4, !dbg !2151
  %call2 = call i32 @_ZNK14cDisplayString10getNumArgsEi(%class.cDisplayString* %3, i32 %4), !dbg !2152
  store i32 %call2, i32* %m, align 4, !dbg !2149
  call void @llvm.dbg.declare(metadata i32* %j, metadata !2153, metadata !DIExpression()), !dbg !2155
  store i32 0, i32* %j, align 4, !dbg !2155
  br label %for.cond3, !dbg !2156

for.cond3:                                        ; preds = %for.inc, %for.body
  %5 = load i32, i32* %j, align 4, !dbg !2157
  %6 = load i32, i32* %m, align 4, !dbg !2159
  %cmp4 = icmp slt i32 %5, %6, !dbg !2160
  br i1 %cmp4, label %for.body5, label %for.end, !dbg !2161

for.body5:                                        ; preds = %for.cond3
  call void @llvm.dbg.declare(metadata i8** %arg, metadata !2162, metadata !DIExpression()), !dbg !2164
  %7 = load %class.cDisplayString*, %class.cDisplayString** %ds.addr, align 8, !dbg !2165
  %8 = load i32, i32* %i, align 4, !dbg !2166
  %9 = load i32, i32* %j, align 4, !dbg !2167
  %call6 = call i8* @_ZNK14cDisplayString9getTagArgEii(%class.cDisplayString* %7, i32 %8, i32 %9), !dbg !2168
  store i8* %call6, i8** %arg, align 8, !dbg !2164
  %10 = load i8*, i8** %arg, align 8, !dbg !2169
  %arrayidx = getelementptr inbounds i8, i8* %10, i64 0, !dbg !2169
  %11 = load i8, i8* %arrayidx, align 1, !dbg !2169
  %conv = sext i8 %11 to i32, !dbg !2169
  %cmp7 = icmp eq i32 %conv, 45, !dbg !2171
  br i1 %cmp7, label %land.lhs.true, label %if.else, !dbg !2172

land.lhs.true:                                    ; preds = %for.body5
  %12 = load i8*, i8** %arg, align 8, !dbg !2173
  %arrayidx8 = getelementptr inbounds i8, i8* %12, i64 1, !dbg !2173
  %13 = load i8, i8* %arrayidx8, align 1, !dbg !2173
  %tobool = icmp ne i8 %13, 0, !dbg !2173
  br i1 %tobool, label %if.else, label %if.then, !dbg !2174

if.then:                                          ; preds = %land.lhs.true
  %14 = load %class.cDisplayString*, %class.cDisplayString** %ds.addr, align 8, !dbg !2175
  %15 = load i32, i32* %i, align 4, !dbg !2176
  %call9 = call i8* @_ZNK14cDisplayString10getTagNameEi(%class.cDisplayString* %14, i32 %15), !dbg !2177
  %16 = load i32, i32* %j, align 4, !dbg !2178
  %call10 = call zeroext i1 @_ZN14cDisplayString9setTagArgEPKciS1_(%class.cDisplayString* %this1, i8* %call9, i32 %16, i8* getelementptr inbounds ([1 x i8], [1 x i8]* @.str, i64 0, i64 0)), !dbg !2179
  br label %if.end16, !dbg !2179

if.else:                                          ; preds = %land.lhs.true, %for.body5
  %17 = load i8*, i8** %arg, align 8, !dbg !2180
  %arrayidx11 = getelementptr inbounds i8, i8* %17, i64 0, !dbg !2180
  %18 = load i8, i8* %arrayidx11, align 1, !dbg !2180
  %tobool12 = icmp ne i8 %18, 0, !dbg !2180
  br i1 %tobool12, label %if.then13, label %if.end, !dbg !2182

if.then13:                                        ; preds = %if.else
  %19 = load %class.cDisplayString*, %class.cDisplayString** %ds.addr, align 8, !dbg !2183
  %20 = load i32, i32* %i, align 4, !dbg !2184
  %call14 = call i8* @_ZNK14cDisplayString10getTagNameEi(%class.cDisplayString* %19, i32 %20), !dbg !2185
  %21 = load i32, i32* %j, align 4, !dbg !2186
  %22 = load i8*, i8** %arg, align 8, !dbg !2187
  %call15 = call zeroext i1 @_ZN14cDisplayString9setTagArgEPKciS1_(%class.cDisplayString* %this1, i8* %call14, i32 %21, i8* %22), !dbg !2188
  br label %if.end, !dbg !2188

if.end:                                           ; preds = %if.then13, %if.else
  br label %if.end16

if.end16:                                         ; preds = %if.end, %if.then
  br label %for.inc, !dbg !2189

for.inc:                                          ; preds = %if.end16
  %23 = load i32, i32* %j, align 4, !dbg !2190
  %inc = add nsw i32 %23, 1, !dbg !2190
  store i32 %inc, i32* %j, align 4, !dbg !2190
  br label %for.cond3, !dbg !2191, !llvm.loop !2192

for.end:                                          ; preds = %for.cond3
  br label %for.inc17, !dbg !2194

for.inc17:                                        ; preds = %for.end
  %24 = load i32, i32* %i, align 4, !dbg !2195
  %inc18 = add nsw i32 %24, 1, !dbg !2195
  store i32 %inc18, i32* %i, align 4, !dbg !2195
  br label %for.cond, !dbg !2196, !llvm.loop !2197

for.end19:                                        ; preds = %for.cond
  %call20 = call i8* @_ZNK14cDisplayString3strEv(%class.cDisplayString* %this1), !dbg !2199
  call void @_ZN14cDisplayString5parseEPKc(%class.cDisplayString* %this1, i8* %call20), !dbg !2200
  ret void, !dbg !2201
}

; Function Attrs: noinline nounwind uwtable
define dso_local i32 @_ZNK14cDisplayString10getNumTagsEv(%class.cDisplayString* %this) #4 align 2 !dbg !2202 {
entry:
  %this.addr = alloca %class.cDisplayString*, align 8
  store %class.cDisplayString* %this, %class.cDisplayString** %this.addr, align 8
  call void @llvm.dbg.declare(metadata %class.cDisplayString** %this.addr, metadata !2203, metadata !DIExpression()), !dbg !2204
  %this1 = load %class.cDisplayString*, %class.cDisplayString** %this.addr, align 8
  %numtags = getelementptr inbounds %class.cDisplayString, %class.cDisplayString* %this1, i32 0, i32 3, !dbg !2205
  %0 = load i32, i32* %numtags, align 8, !dbg !2205
  ret i32 %0, !dbg !2206
}

; Function Attrs: noinline nounwind uwtable
define dso_local i32 @_ZNK14cDisplayString10getNumArgsEi(%class.cDisplayString* %this, i32 %tagindex) #4 align 2 !dbg !2207 {
entry:
  %retval = alloca i32, align 4
  %this.addr = alloca %class.cDisplayString*, align 8
  %tagindex.addr = alloca i32, align 4
  store %class.cDisplayString* %this, %class.cDisplayString** %this.addr, align 8
  call void @llvm.dbg.declare(metadata %class.cDisplayString** %this.addr, metadata !2208, metadata !DIExpression()), !dbg !2209
  store i32 %tagindex, i32* %tagindex.addr, align 4
  call void @llvm.dbg.declare(metadata i32* %tagindex.addr, metadata !2210, metadata !DIExpression()), !dbg !2211
  %this1 = load %class.cDisplayString*, %class.cDisplayString** %this.addr, align 8
  %0 = load i32, i32* %tagindex.addr, align 4, !dbg !2212
  %cmp = icmp slt i32 %0, 0, !dbg !2214
  br i1 %cmp, label %if.then, label %lor.lhs.false, !dbg !2215

lor.lhs.false:                                    ; preds = %entry
  %1 = load i32, i32* %tagindex.addr, align 4, !dbg !2216
  %numtags = getelementptr inbounds %class.cDisplayString, %class.cDisplayString* %this1, i32 0, i32 3, !dbg !2217
  %2 = load i32, i32* %numtags, align 8, !dbg !2217
  %cmp2 = icmp sge i32 %1, %2, !dbg !2218
  br i1 %cmp2, label %if.then, label %if.end, !dbg !2219

if.then:                                          ; preds = %lor.lhs.false, %entry
  store i32 -1, i32* %retval, align 4, !dbg !2220
  br label %return, !dbg !2220

if.end:                                           ; preds = %lor.lhs.false
  %tags = getelementptr inbounds %class.cDisplayString, %class.cDisplayString* %this1, i32 0, i32 2, !dbg !2221
  %3 = load %"struct.cDisplayString::Tag"*, %"struct.cDisplayString::Tag"** %tags, align 8, !dbg !2221
  %4 = load i32, i32* %tagindex.addr, align 4, !dbg !2222
  %idxprom = sext i32 %4 to i64, !dbg !2221
  %arrayidx = getelementptr inbounds %"struct.cDisplayString::Tag", %"struct.cDisplayString::Tag"* %3, i64 %idxprom, !dbg !2221
  %numargs = getelementptr inbounds %"struct.cDisplayString::Tag", %"struct.cDisplayString::Tag"* %arrayidx, i32 0, i32 1, !dbg !2223
  %5 = load i32, i32* %numargs, align 8, !dbg !2223
  store i32 %5, i32* %retval, align 4, !dbg !2224
  br label %return, !dbg !2224

return:                                           ; preds = %if.end, %if.then
  %6 = load i32, i32* %retval, align 4, !dbg !2225
  ret i32 %6, !dbg !2225
}

; Function Attrs: noinline uwtable
define dso_local i8* @_ZNK14cDisplayString9getTagArgEii(%class.cDisplayString* %this, i32 %tagindex, i32 %index) #0 align 2 !dbg !2226 {
entry:
  %retval = alloca i8*, align 8
  %this.addr = alloca %class.cDisplayString*, align 8
  %tagindex.addr = alloca i32, align 4
  %index.addr = alloca i32, align 4
  store %class.cDisplayString* %this, %class.cDisplayString** %this.addr, align 8
  call void @llvm.dbg.declare(metadata %class.cDisplayString** %this.addr, metadata !2227, metadata !DIExpression()), !dbg !2228
  store i32 %tagindex, i32* %tagindex.addr, align 4
  call void @llvm.dbg.declare(metadata i32* %tagindex.addr, metadata !2229, metadata !DIExpression()), !dbg !2230
  store i32 %index, i32* %index.addr, align 4
  call void @llvm.dbg.declare(metadata i32* %index.addr, metadata !2231, metadata !DIExpression()), !dbg !2232
  %this1 = load %class.cDisplayString*, %class.cDisplayString** %this.addr, align 8
  %0 = load i32, i32* %tagindex.addr, align 4, !dbg !2233
  %cmp = icmp slt i32 %0, 0, !dbg !2235
  br i1 %cmp, label %if.then, label %lor.lhs.false, !dbg !2236

lor.lhs.false:                                    ; preds = %entry
  %1 = load i32, i32* %tagindex.addr, align 4, !dbg !2237
  %numtags = getelementptr inbounds %class.cDisplayString, %class.cDisplayString* %this1, i32 0, i32 3, !dbg !2238
  %2 = load i32, i32* %numtags, align 8, !dbg !2238
  %cmp2 = icmp sge i32 %1, %2, !dbg !2239
  br i1 %cmp2, label %if.then, label %if.end, !dbg !2240

if.then:                                          ; preds = %lor.lhs.false, %entry
  store i8* getelementptr inbounds ([1 x i8], [1 x i8]* @.str, i64 0, i64 0), i8** %retval, align 8, !dbg !2241
  br label %return, !dbg !2241

if.end:                                           ; preds = %lor.lhs.false
  %3 = load i32, i32* %index.addr, align 4, !dbg !2242
  %cmp3 = icmp slt i32 %3, 0, !dbg !2244
  br i1 %cmp3, label %if.then6, label %lor.lhs.false4, !dbg !2245

lor.lhs.false4:                                   ; preds = %if.end
  %4 = load i32, i32* %index.addr, align 4, !dbg !2246
  %tags = getelementptr inbounds %class.cDisplayString, %class.cDisplayString* %this1, i32 0, i32 2, !dbg !2247
  %5 = load %"struct.cDisplayString::Tag"*, %"struct.cDisplayString::Tag"** %tags, align 8, !dbg !2247
  %6 = load i32, i32* %tagindex.addr, align 4, !dbg !2248
  %idxprom = sext i32 %6 to i64, !dbg !2247
  %arrayidx = getelementptr inbounds %"struct.cDisplayString::Tag", %"struct.cDisplayString::Tag"* %5, i64 %idxprom, !dbg !2247
  %numargs = getelementptr inbounds %"struct.cDisplayString::Tag", %"struct.cDisplayString::Tag"* %arrayidx, i32 0, i32 1, !dbg !2249
  %7 = load i32, i32* %numargs, align 8, !dbg !2249
  %cmp5 = icmp sge i32 %4, %7, !dbg !2250
  br i1 %cmp5, label %if.then6, label %if.end7, !dbg !2251

if.then6:                                         ; preds = %lor.lhs.false4, %if.end
  store i8* getelementptr inbounds ([1 x i8], [1 x i8]* @.str, i64 0, i64 0), i8** %retval, align 8, !dbg !2252
  br label %return, !dbg !2252

if.end7:                                          ; preds = %lor.lhs.false4
  %tags8 = getelementptr inbounds %class.cDisplayString, %class.cDisplayString* %this1, i32 0, i32 2, !dbg !2253
  %8 = load %"struct.cDisplayString::Tag"*, %"struct.cDisplayString::Tag"** %tags8, align 8, !dbg !2253
  %9 = load i32, i32* %tagindex.addr, align 4, !dbg !2254
  %idxprom9 = sext i32 %9 to i64, !dbg !2253
  %arrayidx10 = getelementptr inbounds %"struct.cDisplayString::Tag", %"struct.cDisplayString::Tag"* %8, i64 %idxprom9, !dbg !2253
  %args = getelementptr inbounds %"struct.cDisplayString::Tag", %"struct.cDisplayString::Tag"* %arrayidx10, i32 0, i32 2, !dbg !2255
  %10 = load i32, i32* %index.addr, align 4, !dbg !2256
  %idxprom11 = sext i32 %10 to i64, !dbg !2253
  %arrayidx12 = getelementptr inbounds [16 x i8*], [16 x i8*]* %args, i64 0, i64 %idxprom11, !dbg !2253
  %11 = load i8*, i8** %arrayidx12, align 8, !dbg !2253
  %call = call i8* @_Z15opp_nulltoemptyPKc(i8* %11), !dbg !2257
  store i8* %call, i8** %retval, align 8, !dbg !2258
  br label %return, !dbg !2258

return:                                           ; preds = %if.end7, %if.then6, %if.then
  %12 = load i8*, i8** %retval, align 8, !dbg !2259
  ret i8* %12, !dbg !2259
}

; Function Attrs: noinline uwtable
define dso_local zeroext i1 @_ZN14cDisplayString9setTagArgEPKciS1_(%class.cDisplayString* %this, i8* %tagname, i32 %index, i8* %value) #0 align 2 !dbg !2260 {
entry:
  %this.addr = alloca %class.cDisplayString*, align 8
  %tagname.addr = alloca i8*, align 8
  %index.addr = alloca i32, align 4
  %value.addr = alloca i8*, align 8
  %t = alloca i32, align 4
  store %class.cDisplayString* %this, %class.cDisplayString** %this.addr, align 8
  call void @llvm.dbg.declare(metadata %class.cDisplayString** %this.addr, metadata !2261, metadata !DIExpression()), !dbg !2262
  store i8* %tagname, i8** %tagname.addr, align 8
  call void @llvm.dbg.declare(metadata i8** %tagname.addr, metadata !2263, metadata !DIExpression()), !dbg !2264
  store i32 %index, i32* %index.addr, align 4
  call void @llvm.dbg.declare(metadata i32* %index.addr, metadata !2265, metadata !DIExpression()), !dbg !2266
  store i8* %value, i8** %value.addr, align 8
  call void @llvm.dbg.declare(metadata i8** %value.addr, metadata !2267, metadata !DIExpression()), !dbg !2268
  %this1 = load %class.cDisplayString*, %class.cDisplayString** %this.addr, align 8
  call void @llvm.dbg.declare(metadata i32* %t, metadata !2269, metadata !DIExpression()), !dbg !2270
  %0 = load i8*, i8** %tagname.addr, align 8, !dbg !2271
  %call = call i32 @_ZNK14cDisplayString11gettagindexEPKc(%class.cDisplayString* %this1, i8* %0), !dbg !2272
  store i32 %call, i32* %t, align 4, !dbg !2270
  %1 = load i32, i32* %t, align 4, !dbg !2273
  %cmp = icmp eq i32 %1, -1, !dbg !2275
  br i1 %cmp, label %if.then, label %if.end, !dbg !2276

if.then:                                          ; preds = %entry
  %2 = load i8*, i8** %tagname.addr, align 8, !dbg !2277
  %call2 = call i32 @_ZN14cDisplayString9insertTagEPKci(%class.cDisplayString* %this1, i8* %2, i32 0), !dbg !2278
  store i32 %call2, i32* %t, align 4, !dbg !2279
  br label %if.end, !dbg !2280

if.end:                                           ; preds = %if.then, %entry
  %3 = load i32, i32* %t, align 4, !dbg !2281
  %4 = load i32, i32* %index.addr, align 4, !dbg !2282
  %5 = load i8*, i8** %value.addr, align 8, !dbg !2283
  %call3 = call zeroext i1 @_ZN14cDisplayString9setTagArgEiiPKc(%class.cDisplayString* %this1, i32 %3, i32 %4, i8* %5), !dbg !2284
  ret i1 %call3, !dbg !2285
}

; Function Attrs: noinline nounwind uwtable
define dso_local i8* @_ZNK14cDisplayString10getTagNameEi(%class.cDisplayString* %this, i32 %tagindex) #4 align 2 !dbg !2286 {
entry:
  %retval = alloca i8*, align 8
  %this.addr = alloca %class.cDisplayString*, align 8
  %tagindex.addr = alloca i32, align 4
  store %class.cDisplayString* %this, %class.cDisplayString** %this.addr, align 8
  call void @llvm.dbg.declare(metadata %class.cDisplayString** %this.addr, metadata !2287, metadata !DIExpression()), !dbg !2288
  store i32 %tagindex, i32* %tagindex.addr, align 4
  call void @llvm.dbg.declare(metadata i32* %tagindex.addr, metadata !2289, metadata !DIExpression()), !dbg !2290
  %this1 = load %class.cDisplayString*, %class.cDisplayString** %this.addr, align 8
  %0 = load i32, i32* %tagindex.addr, align 4, !dbg !2291
  %cmp = icmp slt i32 %0, 0, !dbg !2293
  br i1 %cmp, label %if.then, label %lor.lhs.false, !dbg !2294

lor.lhs.false:                                    ; preds = %entry
  %1 = load i32, i32* %tagindex.addr, align 4, !dbg !2295
  %numtags = getelementptr inbounds %class.cDisplayString, %class.cDisplayString* %this1, i32 0, i32 3, !dbg !2296
  %2 = load i32, i32* %numtags, align 8, !dbg !2296
  %cmp2 = icmp sge i32 %1, %2, !dbg !2297
  br i1 %cmp2, label %if.then, label %if.end, !dbg !2298

if.then:                                          ; preds = %lor.lhs.false, %entry
  store i8* null, i8** %retval, align 8, !dbg !2299
  br label %return, !dbg !2299

if.end:                                           ; preds = %lor.lhs.false
  %tags = getelementptr inbounds %class.cDisplayString, %class.cDisplayString* %this1, i32 0, i32 2, !dbg !2300
  %3 = load %"struct.cDisplayString::Tag"*, %"struct.cDisplayString::Tag"** %tags, align 8, !dbg !2300
  %4 = load i32, i32* %tagindex.addr, align 4, !dbg !2301
  %idxprom = sext i32 %4 to i64, !dbg !2300
  %arrayidx = getelementptr inbounds %"struct.cDisplayString::Tag", %"struct.cDisplayString::Tag"* %3, i64 %idxprom, !dbg !2300
  %name = getelementptr inbounds %"struct.cDisplayString::Tag", %"struct.cDisplayString::Tag"* %arrayidx, i32 0, i32 0, !dbg !2302
  %5 = load i8*, i8** %name, align 8, !dbg !2302
  store i8* %5, i8** %retval, align 8, !dbg !2303
  br label %return, !dbg !2303

return:                                           ; preds = %if.end, %if.then
  %6 = load i8*, i8** %retval, align 8, !dbg !2304
  ret i8* %6, !dbg !2304
}

; Function Attrs: noinline uwtable
define dso_local void @_ZN14cDisplayString10updateWithEPKc(%class.cDisplayString* %this, i8* %s) #0 align 2 personality i8* bitcast (i32 (...)* @__gxx_personality_v0 to i8*) !dbg !2305 {
entry:
  %this.addr = alloca %class.cDisplayString*, align 8
  %s.addr = alloca i8*, align 8
  %ds = alloca %class.cDisplayString, align 8
  %exn.slot = alloca i8*
  %ehselector.slot = alloca i32
  store %class.cDisplayString* %this, %class.cDisplayString** %this.addr, align 8
  call void @llvm.dbg.declare(metadata %class.cDisplayString** %this.addr, metadata !2306, metadata !DIExpression()), !dbg !2307
  store i8* %s, i8** %s.addr, align 8
  call void @llvm.dbg.declare(metadata i8** %s.addr, metadata !2308, metadata !DIExpression()), !dbg !2309
  %this1 = load %class.cDisplayString*, %class.cDisplayString** %this.addr, align 8
  call void @llvm.dbg.declare(metadata %class.cDisplayString* %ds, metadata !2310, metadata !DIExpression()), !dbg !2311
  %0 = load i8*, i8** %s.addr, align 8, !dbg !2312
  call void @_ZN14cDisplayStringC1EPKc(%class.cDisplayString* %ds, i8* %0), !dbg !2311
  invoke void @_ZN14cDisplayString10updateWithERKS_(%class.cDisplayString* %this1, %class.cDisplayString* dereferenceable(56) %ds)
          to label %invoke.cont unwind label %lpad, !dbg !2313

invoke.cont:                                      ; preds = %entry
  call void @_ZN14cDisplayStringD1Ev(%class.cDisplayString* %ds) #3, !dbg !2314
  ret void, !dbg !2314

lpad:                                             ; preds = %entry
  %1 = landingpad { i8*, i32 }
          cleanup, !dbg !2314
  %2 = extractvalue { i8*, i32 } %1, 0, !dbg !2314
  store i8* %2, i8** %exn.slot, align 8, !dbg !2314
  %3 = extractvalue { i8*, i32 } %1, 1, !dbg !2314
  store i32 %3, i32* %ehselector.slot, align 4, !dbg !2314
  call void @_ZN14cDisplayStringD1Ev(%class.cDisplayString* %ds) #3, !dbg !2314
  br label %eh.resume, !dbg !2314

eh.resume:                                        ; preds = %lpad
  %exn = load i8*, i8** %exn.slot, align 8, !dbg !2314
  %sel = load i32, i32* %ehselector.slot, align 4, !dbg !2314
  %lpad.val = insertvalue { i8*, i32 } undef, i8* %exn, 0, !dbg !2314
  %lpad.val2 = insertvalue { i8*, i32 } %lpad.val, i32 %sel, 1, !dbg !2314
  resume { i8*, i32 } %lpad.val2, !dbg !2314
}

; Function Attrs: noinline uwtable
define dso_local zeroext i1 @_ZNK14cDisplayString11containsTagEPKc(%class.cDisplayString* %this, i8* %tagname) #0 align 2 !dbg !2315 {
entry:
  %this.addr = alloca %class.cDisplayString*, align 8
  %tagname.addr = alloca i8*, align 8
  %t = alloca i32, align 4
  store %class.cDisplayString* %this, %class.cDisplayString** %this.addr, align 8
  call void @llvm.dbg.declare(metadata %class.cDisplayString** %this.addr, metadata !2316, metadata !DIExpression()), !dbg !2317
  store i8* %tagname, i8** %tagname.addr, align 8
  call void @llvm.dbg.declare(metadata i8** %tagname.addr, metadata !2318, metadata !DIExpression()), !dbg !2319
  %this1 = load %class.cDisplayString*, %class.cDisplayString** %this.addr, align 8
  call void @llvm.dbg.declare(metadata i32* %t, metadata !2320, metadata !DIExpression()), !dbg !2321
  %0 = load i8*, i8** %tagname.addr, align 8, !dbg !2322
  %call = call i32 @_ZNK14cDisplayString11gettagindexEPKc(%class.cDisplayString* %this1, i8* %0), !dbg !2323
  store i32 %call, i32* %t, align 4, !dbg !2321
  %1 = load i32, i32* %t, align 4, !dbg !2324
  %cmp = icmp ne i32 %1, -1, !dbg !2325
  ret i1 %cmp, !dbg !2326
}

; Function Attrs: noinline nounwind uwtable
define dso_local i32 @_ZNK14cDisplayString11gettagindexEPKc(%class.cDisplayString* %this, i8* %tagname) #4 align 2 !dbg !2327 {
entry:
  %retval = alloca i32, align 4
  %this.addr = alloca %class.cDisplayString*, align 8
  %tagname.addr = alloca i8*, align 8
  %t = alloca i32, align 4
  store %class.cDisplayString* %this, %class.cDisplayString** %this.addr, align 8
  call void @llvm.dbg.declare(metadata %class.cDisplayString** %this.addr, metadata !2328, metadata !DIExpression()), !dbg !2329
  store i8* %tagname, i8** %tagname.addr, align 8
  call void @llvm.dbg.declare(metadata i8** %tagname.addr, metadata !2330, metadata !DIExpression()), !dbg !2331
  %this1 = load %class.cDisplayString*, %class.cDisplayString** %this.addr, align 8
  call void @llvm.dbg.declare(metadata i32* %t, metadata !2332, metadata !DIExpression()), !dbg !2334
  store i32 0, i32* %t, align 4, !dbg !2334
  br label %for.cond, !dbg !2335

for.cond:                                         ; preds = %for.inc, %entry
  %0 = load i32, i32* %t, align 4, !dbg !2336
  %numtags = getelementptr inbounds %class.cDisplayString, %class.cDisplayString* %this1, i32 0, i32 3, !dbg !2338
  %1 = load i32, i32* %numtags, align 8, !dbg !2338
  %cmp = icmp slt i32 %0, %1, !dbg !2339
  br i1 %cmp, label %for.body, label %for.end, !dbg !2340

for.body:                                         ; preds = %for.cond
  %2 = load i8*, i8** %tagname.addr, align 8, !dbg !2341
  %tags = getelementptr inbounds %class.cDisplayString, %class.cDisplayString* %this1, i32 0, i32 2, !dbg !2343
  %3 = load %"struct.cDisplayString::Tag"*, %"struct.cDisplayString::Tag"** %tags, align 8, !dbg !2343
  %4 = load i32, i32* %t, align 4, !dbg !2344
  %idxprom = sext i32 %4 to i64, !dbg !2343
  %arrayidx = getelementptr inbounds %"struct.cDisplayString::Tag", %"struct.cDisplayString::Tag"* %3, i64 %idxprom, !dbg !2343
  %name = getelementptr inbounds %"struct.cDisplayString::Tag", %"struct.cDisplayString::Tag"* %arrayidx, i32 0, i32 0, !dbg !2345
  %5 = load i8*, i8** %name, align 8, !dbg !2345
  %call = call i32 @strcmp(i8* %2, i8* %5) #11, !dbg !2346
  %tobool = icmp ne i32 %call, 0, !dbg !2346
  br i1 %tobool, label %if.end, label %if.then, !dbg !2347

if.then:                                          ; preds = %for.body
  %6 = load i32, i32* %t, align 4, !dbg !2348
  store i32 %6, i32* %retval, align 4, !dbg !2349
  br label %return, !dbg !2349

if.end:                                           ; preds = %for.body
  br label %for.inc, !dbg !2350

for.inc:                                          ; preds = %if.end
  %7 = load i32, i32* %t, align 4, !dbg !2351
  %inc = add nsw i32 %7, 1, !dbg !2351
  store i32 %inc, i32* %t, align 4, !dbg !2351
  br label %for.cond, !dbg !2352, !llvm.loop !2353

for.end:                                          ; preds = %for.cond
  store i32 -1, i32* %retval, align 4, !dbg !2355
  br label %return, !dbg !2355

return:                                           ; preds = %for.end, %if.then
  %8 = load i32, i32* %retval, align 4, !dbg !2356
  ret i32 %8, !dbg !2356
}

; Function Attrs: noinline uwtable
define dso_local i32 @_ZNK14cDisplayString10getNumArgsEPKc(%class.cDisplayString* %this, i8* %tagname) #0 align 2 !dbg !2357 {
entry:
  %this.addr = alloca %class.cDisplayString*, align 8
  %tagname.addr = alloca i8*, align 8
  store %class.cDisplayString* %this, %class.cDisplayString** %this.addr, align 8
  call void @llvm.dbg.declare(metadata %class.cDisplayString** %this.addr, metadata !2358, metadata !DIExpression()), !dbg !2359
  store i8* %tagname, i8** %tagname.addr, align 8
  call void @llvm.dbg.declare(metadata i8** %tagname.addr, metadata !2360, metadata !DIExpression()), !dbg !2361
  %this1 = load %class.cDisplayString*, %class.cDisplayString** %this.addr, align 8
  %0 = load i8*, i8** %tagname.addr, align 8, !dbg !2362
  %call = call i32 @_ZNK14cDisplayString11gettagindexEPKc(%class.cDisplayString* %this1, i8* %0), !dbg !2363
  %call2 = call i32 @_ZNK14cDisplayString10getNumArgsEi(%class.cDisplayString* %this1, i32 %call), !dbg !2364
  ret i32 %call2, !dbg !2365
}

; Function Attrs: noinline uwtable
define dso_local i8* @_ZNK14cDisplayString9getTagArgEPKci(%class.cDisplayString* %this, i8* %tagname, i32 %index) #0 align 2 !dbg !2366 {
entry:
  %this.addr = alloca %class.cDisplayString*, align 8
  %tagname.addr = alloca i8*, align 8
  %index.addr = alloca i32, align 4
  store %class.cDisplayString* %this, %class.cDisplayString** %this.addr, align 8
  call void @llvm.dbg.declare(metadata %class.cDisplayString** %this.addr, metadata !2367, metadata !DIExpression()), !dbg !2368
  store i8* %tagname, i8** %tagname.addr, align 8
  call void @llvm.dbg.declare(metadata i8** %tagname.addr, metadata !2369, metadata !DIExpression()), !dbg !2370
  store i32 %index, i32* %index.addr, align 4
  call void @llvm.dbg.declare(metadata i32* %index.addr, metadata !2371, metadata !DIExpression()), !dbg !2372
  %this1 = load %class.cDisplayString*, %class.cDisplayString** %this.addr, align 8
  %0 = load i8*, i8** %tagname.addr, align 8, !dbg !2373
  %call = call i32 @_ZNK14cDisplayString11gettagindexEPKc(%class.cDisplayString* %this1, i8* %0), !dbg !2374
  %1 = load i32, i32* %index.addr, align 4, !dbg !2375
  %call2 = call i8* @_ZNK14cDisplayString9getTagArgEii(%class.cDisplayString* %this1, i32 %call, i32 %1), !dbg !2376
  ret i8* %call2, !dbg !2377
}

; Function Attrs: noinline uwtable
define dso_local i32 @_ZN14cDisplayString9insertTagEPKci(%class.cDisplayString* %this, i8* %tagname, i32 %atindex) #0 align 2 personality i8* bitcast (i32 (...)* @__gxx_personality_v0 to i8*) !dbg !2378 {
entry:
  %retval = alloca i32, align 4
  %this.addr = alloca %class.cDisplayString*, align 8
  %tagname.addr = alloca i8*, align 8
  %atindex.addr = alloca i32, align 4
  %exn.slot = alloca i8*
  %ehselector.slot = alloca i32
  %s = alloca i8*, align 8
  %t = alloca i32, align 4
  %newtags = alloca %"struct.cDisplayString::Tag"*, align 8
  %s25 = alloca i32, align 4
  %d = alloca i32, align 4
  %i = alloca i32, align 4
  store %class.cDisplayString* %this, %class.cDisplayString** %this.addr, align 8
  call void @llvm.dbg.declare(metadata %class.cDisplayString** %this.addr, metadata !2379, metadata !DIExpression()), !dbg !2380
  store i8* %tagname, i8** %tagname.addr, align 8
  call void @llvm.dbg.declare(metadata i8** %tagname.addr, metadata !2381, metadata !DIExpression()), !dbg !2382
  store i32 %atindex, i32* %atindex.addr, align 4
  call void @llvm.dbg.declare(metadata i32* %atindex.addr, metadata !2383, metadata !DIExpression()), !dbg !2384
  %this1 = load %class.cDisplayString*, %class.cDisplayString** %this.addr, align 8
  %0 = load i8*, i8** %tagname.addr, align 8, !dbg !2385
  %tobool = icmp ne i8* %0, null, !dbg !2385
  br i1 %tobool, label %lor.lhs.false, label %if.then, !dbg !2387

lor.lhs.false:                                    ; preds = %entry
  %1 = load i8*, i8** %tagname.addr, align 8, !dbg !2388
  %arrayidx = getelementptr inbounds i8, i8* %1, i64 0, !dbg !2388
  %2 = load i8, i8* %arrayidx, align 1, !dbg !2388
  %tobool2 = icmp ne i8 %2, 0, !dbg !2388
  br i1 %tobool2, label %if.end, label %if.then, !dbg !2389

if.then:                                          ; preds = %lor.lhs.false, %entry
  %exception = call i8* @__cxa_allocate_exception(i64 128) #3, !dbg !2390
  %3 = bitcast i8* %exception to %class.cRuntimeError*, !dbg !2390
  invoke void (%class.cRuntimeError*, i8*, ...) @_ZN13cRuntimeErrorC1EPKcz(%class.cRuntimeError* %3, i8* getelementptr inbounds ([57 x i8], [57 x i8]* @.str.2, i64 0, i64 0))
          to label %invoke.cont unwind label %lpad, !dbg !2391

invoke.cont:                                      ; preds = %if.then
  call void @__cxa_throw(i8* %exception, i8* bitcast ({ i8*, i8*, i8* }* @_ZTI13cRuntimeError to i8*), i8* bitcast (void (%class.cRuntimeError*)* @_ZN13cRuntimeErrorD2Ev to i8*)) #14, !dbg !2390
  unreachable, !dbg !2390

lpad:                                             ; preds = %if.then
  %4 = landingpad { i8*, i32 }
          cleanup, !dbg !2392
  %5 = extractvalue { i8*, i32 } %4, 0, !dbg !2392
  store i8* %5, i8** %exn.slot, align 8, !dbg !2392
  %6 = extractvalue { i8*, i32 } %4, 1, !dbg !2392
  store i32 %6, i32* %ehselector.slot, align 4, !dbg !2392
  call void @__cxa_free_exception(i8* %exception) #3, !dbg !2390
  br label %eh.resume, !dbg !2390

if.end:                                           ; preds = %lor.lhs.false
  call void @llvm.dbg.declare(metadata i8** %s, metadata !2393, metadata !DIExpression()), !dbg !2395
  %7 = load i8*, i8** %tagname.addr, align 8, !dbg !2396
  store i8* %7, i8** %s, align 8, !dbg !2395
  br label %for.cond, !dbg !2397

for.cond:                                         ; preds = %for.inc, %if.end
  %8 = load i8*, i8** %s, align 8, !dbg !2398
  %9 = load i8, i8* %8, align 1, !dbg !2400
  %tobool3 = icmp ne i8 %9, 0, !dbg !2400
  br i1 %tobool3, label %for.body, label %for.end, !dbg !2401

for.body:                                         ; preds = %for.cond
  %10 = load i8*, i8** %s, align 8, !dbg !2402
  %11 = load i8, i8* %10, align 1, !dbg !2404
  %call = call zeroext i1 @_Z11opp_isalnumh(i8 zeroext %11), !dbg !2405
  br i1 %call, label %if.end8, label %land.lhs.true, !dbg !2406

land.lhs.true:                                    ; preds = %for.body
  %12 = load i8*, i8** %s, align 8, !dbg !2407
  %13 = load i8, i8* %12, align 1, !dbg !2408
  %conv = sext i8 %13 to i32, !dbg !2408
  %cmp = icmp ne i32 %conv, 58, !dbg !2409
  br i1 %cmp, label %if.then4, label %if.end8, !dbg !2410

if.then4:                                         ; preds = %land.lhs.true
  %exception5 = call i8* @__cxa_allocate_exception(i64 128) #3, !dbg !2411
  %14 = bitcast i8* %exception5 to %class.cRuntimeError*, !dbg !2411
  %15 = load i8*, i8** %tagname.addr, align 8, !dbg !2412
  invoke void (%class.cRuntimeError*, i8*, ...) @_ZN13cRuntimeErrorC1EPKcz(%class.cRuntimeError* %14, i8* getelementptr inbounds ([80 x i8], [80 x i8]* @.str.3, i64 0, i64 0), i8* %15)
          to label %invoke.cont7 unwind label %lpad6, !dbg !2413

invoke.cont7:                                     ; preds = %if.then4
  call void @__cxa_throw(i8* %exception5, i8* bitcast ({ i8*, i8*, i8* }* @_ZTI13cRuntimeError to i8*), i8* bitcast (void (%class.cRuntimeError*)* @_ZN13cRuntimeErrorD2Ev to i8*)) #14, !dbg !2411
  unreachable, !dbg !2411

lpad6:                                            ; preds = %if.then4
  %16 = landingpad { i8*, i32 }
          cleanup, !dbg !2414
  %17 = extractvalue { i8*, i32 } %16, 0, !dbg !2414
  store i8* %17, i8** %exn.slot, align 8, !dbg !2414
  %18 = extractvalue { i8*, i32 } %16, 1, !dbg !2414
  store i32 %18, i32* %ehselector.slot, align 4, !dbg !2414
  call void @__cxa_free_exception(i8* %exception5) #3, !dbg !2411
  br label %eh.resume, !dbg !2411

if.end8:                                          ; preds = %land.lhs.true, %for.body
  br label %for.inc, !dbg !2415

for.inc:                                          ; preds = %if.end8
  %19 = load i8*, i8** %s, align 8, !dbg !2416
  %incdec.ptr = getelementptr inbounds i8, i8* %19, i32 1, !dbg !2416
  store i8* %incdec.ptr, i8** %s, align 8, !dbg !2416
  br label %for.cond, !dbg !2417, !llvm.loop !2418

for.end:                                          ; preds = %for.cond
  call void @llvm.dbg.declare(metadata i32* %t, metadata !2420, metadata !DIExpression()), !dbg !2421
  %20 = load i8*, i8** %tagname.addr, align 8, !dbg !2422
  %call9 = call i32 @_ZNK14cDisplayString11gettagindexEPKc(%class.cDisplayString* %this1, i8* %20), !dbg !2423
  store i32 %call9, i32* %t, align 4, !dbg !2421
  %21 = load i32, i32* %t, align 4, !dbg !2424
  %cmp10 = icmp ne i32 %21, -1, !dbg !2426
  br i1 %cmp10, label %if.then11, label %if.end12, !dbg !2427

if.then11:                                        ; preds = %for.end
  %22 = load i32, i32* %t, align 4, !dbg !2428
  store i32 %22, i32* %retval, align 4, !dbg !2429
  br label %return, !dbg !2429

if.end12:                                         ; preds = %for.end
  %23 = load i32, i32* %atindex.addr, align 4, !dbg !2430
  %cmp13 = icmp slt i32 %23, 0, !dbg !2432
  br i1 %cmp13, label %if.then14, label %if.end15, !dbg !2433

if.then14:                                        ; preds = %if.end12
  store i32 0, i32* %atindex.addr, align 4, !dbg !2434
  br label %if.end15, !dbg !2435

if.end15:                                         ; preds = %if.then14, %if.end12
  %24 = load i32, i32* %atindex.addr, align 4, !dbg !2436
  %numtags = getelementptr inbounds %class.cDisplayString, %class.cDisplayString* %this1, i32 0, i32 3, !dbg !2438
  %25 = load i32, i32* %numtags, align 8, !dbg !2438
  %cmp16 = icmp sgt i32 %24, %25, !dbg !2439
  br i1 %cmp16, label %if.then17, label %if.end19, !dbg !2440

if.then17:                                        ; preds = %if.end15
  %numtags18 = getelementptr inbounds %class.cDisplayString, %class.cDisplayString* %this1, i32 0, i32 3, !dbg !2441
  %26 = load i32, i32* %numtags18, align 8, !dbg !2441
  store i32 %26, i32* %atindex.addr, align 4, !dbg !2442
  br label %if.end19, !dbg !2443

if.end19:                                         ; preds = %if.then17, %if.end15
  call void @llvm.dbg.declare(metadata %"struct.cDisplayString::Tag"** %newtags, metadata !2444, metadata !DIExpression()), !dbg !2445
  %numtags20 = getelementptr inbounds %class.cDisplayString, %class.cDisplayString* %this1, i32 0, i32 3, !dbg !2446
  %27 = load i32, i32* %numtags20, align 8, !dbg !2446
  %add = add nsw i32 %27, 1, !dbg !2447
  %conv21 = sext i32 %add to i64, !dbg !2446
  %28 = call { i64, i1 } @llvm.umul.with.overflow.i64(i64 %conv21, i64 144), !dbg !2448
  %29 = extractvalue { i64, i1 } %28, 1, !dbg !2448
  %30 = extractvalue { i64, i1 } %28, 0, !dbg !2448
  %31 = select i1 %29, i64 -1, i64 %30, !dbg !2448
  %call22 = call i8* @_Znam(i64 %31) #12, !dbg !2448
  %32 = bitcast i8* %call22 to %"struct.cDisplayString::Tag"*, !dbg !2448
  %isempty = icmp eq i64 %conv21, 0, !dbg !2448
  br i1 %isempty, label %arrayctor.cont, label %new.ctorloop, !dbg !2448

new.ctorloop:                                     ; preds = %if.end19
  %arrayctor.end = getelementptr inbounds %"struct.cDisplayString::Tag", %"struct.cDisplayString::Tag"* %32, i64 %conv21, !dbg !2448
  br label %arrayctor.loop, !dbg !2448

arrayctor.loop:                                   ; preds = %invoke.cont24, %new.ctorloop
  %arrayctor.cur = phi %"struct.cDisplayString::Tag"* [ %32, %new.ctorloop ], [ %arrayctor.next, %invoke.cont24 ], !dbg !2448
  invoke void @_ZN14cDisplayString3TagC2Ev(%"struct.cDisplayString::Tag"* %arrayctor.cur)
          to label %invoke.cont24 unwind label %lpad23, !dbg !2448

invoke.cont24:                                    ; preds = %arrayctor.loop
  %arrayctor.next = getelementptr inbounds %"struct.cDisplayString::Tag", %"struct.cDisplayString::Tag"* %arrayctor.cur, i64 1, !dbg !2448
  %arrayctor.done = icmp eq %"struct.cDisplayString::Tag"* %arrayctor.next, %arrayctor.end, !dbg !2448
  br i1 %arrayctor.done, label %arrayctor.cont, label %arrayctor.loop, !dbg !2448

arrayctor.cont:                                   ; preds = %if.end19, %invoke.cont24
  store %"struct.cDisplayString::Tag"* %32, %"struct.cDisplayString::Tag"** %newtags, align 8, !dbg !2445
  call void @llvm.dbg.declare(metadata i32* %s25, metadata !2449, metadata !DIExpression()), !dbg !2451
  store i32 0, i32* %s25, align 4, !dbg !2451
  call void @llvm.dbg.declare(metadata i32* %d, metadata !2452, metadata !DIExpression()), !dbg !2453
  store i32 0, i32* %d, align 4, !dbg !2453
  br label %for.cond26, !dbg !2454

for.cond26:                                       ; preds = %for.inc36, %arrayctor.cont
  %33 = load i32, i32* %s25, align 4, !dbg !2455
  %numtags27 = getelementptr inbounds %class.cDisplayString, %class.cDisplayString* %this1, i32 0, i32 3, !dbg !2457
  %34 = load i32, i32* %numtags27, align 8, !dbg !2457
  %cmp28 = icmp slt i32 %33, %34, !dbg !2458
  br i1 %cmp28, label %for.body29, label %for.end39, !dbg !2459

for.body29:                                       ; preds = %for.cond26
  %35 = load i32, i32* %d, align 4, !dbg !2460
  %36 = load i32, i32* %atindex.addr, align 4, !dbg !2463
  %cmp30 = icmp eq i32 %35, %36, !dbg !2464
  br i1 %cmp30, label %if.then31, label %if.end32, !dbg !2465

if.then31:                                        ; preds = %for.body29
  %37 = load i32, i32* %d, align 4, !dbg !2466
  %inc = add nsw i32 %37, 1, !dbg !2466
  store i32 %inc, i32* %d, align 4, !dbg !2466
  br label %if.end32, !dbg !2467

lpad23:                                           ; preds = %arrayctor.loop
  %38 = landingpad { i8*, i32 }
          cleanup, !dbg !2468
  %39 = extractvalue { i8*, i32 } %38, 0, !dbg !2468
  store i8* %39, i8** %exn.slot, align 8, !dbg !2468
  %40 = extractvalue { i8*, i32 } %38, 1, !dbg !2468
  store i32 %40, i32* %ehselector.slot, align 4, !dbg !2468
  call void @_ZdaPv(i8* %call22) #13, !dbg !2448
  br label %eh.resume, !dbg !2448

if.end32:                                         ; preds = %if.then31, %for.body29
  %tags = getelementptr inbounds %class.cDisplayString, %class.cDisplayString* %this1, i32 0, i32 2, !dbg !2469
  %41 = load %"struct.cDisplayString::Tag"*, %"struct.cDisplayString::Tag"** %tags, align 8, !dbg !2469
  %42 = load i32, i32* %s25, align 4, !dbg !2470
  %idxprom = sext i32 %42 to i64, !dbg !2469
  %arrayidx33 = getelementptr inbounds %"struct.cDisplayString::Tag", %"struct.cDisplayString::Tag"* %41, i64 %idxprom, !dbg !2469
  %43 = load %"struct.cDisplayString::Tag"*, %"struct.cDisplayString::Tag"** %newtags, align 8, !dbg !2471
  %44 = load i32, i32* %d, align 4, !dbg !2472
  %idxprom34 = sext i32 %44 to i64, !dbg !2471
  %arrayidx35 = getelementptr inbounds %"struct.cDisplayString::Tag", %"struct.cDisplayString::Tag"* %43, i64 %idxprom34, !dbg !2471
  %45 = bitcast %"struct.cDisplayString::Tag"* %arrayidx35 to i8*, !dbg !2473
  %46 = bitcast %"struct.cDisplayString::Tag"* %arrayidx33 to i8*, !dbg !2473
  call void @llvm.memcpy.p0i8.p0i8.i64(i8* align 8 %45, i8* align 8 %46, i64 144, i1 false), !dbg !2473
  br label %for.inc36, !dbg !2474

for.inc36:                                        ; preds = %if.end32
  %47 = load i32, i32* %s25, align 4, !dbg !2475
  %inc37 = add nsw i32 %47, 1, !dbg !2475
  store i32 %inc37, i32* %s25, align 4, !dbg !2475
  %48 = load i32, i32* %d, align 4, !dbg !2476
  %inc38 = add nsw i32 %48, 1, !dbg !2476
  store i32 %inc38, i32* %d, align 4, !dbg !2476
  br label %for.cond26, !dbg !2477, !llvm.loop !2478

for.end39:                                        ; preds = %for.cond26
  %tags40 = getelementptr inbounds %class.cDisplayString, %class.cDisplayString* %this1, i32 0, i32 2, !dbg !2480
  %49 = load %"struct.cDisplayString::Tag"*, %"struct.cDisplayString::Tag"** %tags40, align 8, !dbg !2480
  %isnull = icmp eq %"struct.cDisplayString::Tag"* %49, null, !dbg !2481
  br i1 %isnull, label %delete.end, label %delete.notnull, !dbg !2481

delete.notnull:                                   ; preds = %for.end39
  %50 = bitcast %"struct.cDisplayString::Tag"* %49 to i8*, !dbg !2481
  call void @_ZdaPv(i8* %50) #13, !dbg !2481
  br label %delete.end, !dbg !2481

delete.end:                                       ; preds = %delete.notnull, %for.end39
  %51 = load %"struct.cDisplayString::Tag"*, %"struct.cDisplayString::Tag"** %newtags, align 8, !dbg !2482
  %tags41 = getelementptr inbounds %class.cDisplayString, %class.cDisplayString* %this1, i32 0, i32 2, !dbg !2483
  store %"struct.cDisplayString::Tag"* %51, %"struct.cDisplayString::Tag"** %tags41, align 8, !dbg !2484
  %numtags42 = getelementptr inbounds %class.cDisplayString, %class.cDisplayString* %this1, i32 0, i32 3, !dbg !2485
  %52 = load i32, i32* %numtags42, align 8, !dbg !2486
  %inc43 = add nsw i32 %52, 1, !dbg !2486
  store i32 %inc43, i32* %numtags42, align 8, !dbg !2486
  %53 = load i8*, i8** %tagname.addr, align 8, !dbg !2487
  %call44 = call i8* @_Z10opp_strdupPKc(i8* %53), !dbg !2488
  %tags45 = getelementptr inbounds %class.cDisplayString, %class.cDisplayString* %this1, i32 0, i32 2, !dbg !2489
  %54 = load %"struct.cDisplayString::Tag"*, %"struct.cDisplayString::Tag"** %tags45, align 8, !dbg !2489
  %55 = load i32, i32* %atindex.addr, align 4, !dbg !2490
  %idxprom46 = sext i32 %55 to i64, !dbg !2489
  %arrayidx47 = getelementptr inbounds %"struct.cDisplayString::Tag", %"struct.cDisplayString::Tag"* %54, i64 %idxprom46, !dbg !2489
  %name = getelementptr inbounds %"struct.cDisplayString::Tag", %"struct.cDisplayString::Tag"* %arrayidx47, i32 0, i32 0, !dbg !2491
  store i8* %call44, i8** %name, align 8, !dbg !2492
  %tags48 = getelementptr inbounds %class.cDisplayString, %class.cDisplayString* %this1, i32 0, i32 2, !dbg !2493
  %56 = load %"struct.cDisplayString::Tag"*, %"struct.cDisplayString::Tag"** %tags48, align 8, !dbg !2493
  %57 = load i32, i32* %atindex.addr, align 4, !dbg !2494
  %idxprom49 = sext i32 %57 to i64, !dbg !2493
  %arrayidx50 = getelementptr inbounds %"struct.cDisplayString::Tag", %"struct.cDisplayString::Tag"* %56, i64 %idxprom49, !dbg !2493
  %numargs = getelementptr inbounds %"struct.cDisplayString::Tag", %"struct.cDisplayString::Tag"* %arrayidx50, i32 0, i32 1, !dbg !2495
  store i32 0, i32* %numargs, align 8, !dbg !2496
  call void @llvm.dbg.declare(metadata i32* %i, metadata !2497, metadata !DIExpression()), !dbg !2499
  store i32 0, i32* %i, align 4, !dbg !2499
  br label %for.cond51, !dbg !2500

for.cond51:                                       ; preds = %for.inc59, %delete.end
  %58 = load i32, i32* %i, align 4, !dbg !2501
  %cmp52 = icmp slt i32 %58, 16, !dbg !2503
  br i1 %cmp52, label %for.body53, label %for.end61, !dbg !2504

for.body53:                                       ; preds = %for.cond51
  %tags54 = getelementptr inbounds %class.cDisplayString, %class.cDisplayString* %this1, i32 0, i32 2, !dbg !2505
  %59 = load %"struct.cDisplayString::Tag"*, %"struct.cDisplayString::Tag"** %tags54, align 8, !dbg !2505
  %60 = load i32, i32* %atindex.addr, align 4, !dbg !2506
  %idxprom55 = sext i32 %60 to i64, !dbg !2505
  %arrayidx56 = getelementptr inbounds %"struct.cDisplayString::Tag", %"struct.cDisplayString::Tag"* %59, i64 %idxprom55, !dbg !2505
  %args = getelementptr inbounds %"struct.cDisplayString::Tag", %"struct.cDisplayString::Tag"* %arrayidx56, i32 0, i32 2, !dbg !2507
  %61 = load i32, i32* %i, align 4, !dbg !2508
  %idxprom57 = sext i32 %61 to i64, !dbg !2505
  %arrayidx58 = getelementptr inbounds [16 x i8*], [16 x i8*]* %args, i64 0, i64 %idxprom57, !dbg !2505
  store i8* null, i8** %arrayidx58, align 8, !dbg !2509
  br label %for.inc59, !dbg !2505

for.inc59:                                        ; preds = %for.body53
  %62 = load i32, i32* %i, align 4, !dbg !2510
  %inc60 = add nsw i32 %62, 1, !dbg !2510
  store i32 %inc60, i32* %i, align 4, !dbg !2510
  br label %for.cond51, !dbg !2511, !llvm.loop !2512

for.end61:                                        ; preds = %for.cond51
  call void @_ZN14cDisplayString6notifyEv(%class.cDisplayString* %this1), !dbg !2514
  %63 = load i32, i32* %atindex.addr, align 4, !dbg !2515
  store i32 %63, i32* %retval, align 4, !dbg !2516
  br label %return, !dbg !2516

return:                                           ; preds = %for.end61, %if.then11
  %64 = load i32, i32* %retval, align 4, !dbg !2468
  ret i32 %64, !dbg !2468

eh.resume:                                        ; preds = %lpad23, %lpad6, %lpad
  %exn = load i8*, i8** %exn.slot, align 8, !dbg !2390
  %sel = load i32, i32* %ehselector.slot, align 4, !dbg !2390
  %lpad.val = insertvalue { i8*, i32 } undef, i8* %exn, 0, !dbg !2390
  %lpad.val62 = insertvalue { i8*, i32 } %lpad.val, i32 %sel, 1, !dbg !2390
  resume { i8*, i32 } %lpad.val62, !dbg !2390
}

; Function Attrs: noinline uwtable
define dso_local zeroext i1 @_ZN14cDisplayString9setTagArgEiiPKc(%class.cDisplayString* %this, i32 %tagindex, i32 %index, i8* %value) #0 align 2 !dbg !2517 {
entry:
  %retval = alloca i1, align 1
  %this.addr = alloca %class.cDisplayString*, align 8
  %tagindex.addr = alloca i32, align 4
  %index.addr = alloca i32, align 4
  %value.addr = alloca i8*, align 8
  %tag = alloca %"struct.cDisplayString::Tag"*, align 8
  %slot = alloca i8**, align 8
  store %class.cDisplayString* %this, %class.cDisplayString** %this.addr, align 8
  call void @llvm.dbg.declare(metadata %class.cDisplayString** %this.addr, metadata !2518, metadata !DIExpression()), !dbg !2519
  store i32 %tagindex, i32* %tagindex.addr, align 4
  call void @llvm.dbg.declare(metadata i32* %tagindex.addr, metadata !2520, metadata !DIExpression()), !dbg !2521
  store i32 %index, i32* %index.addr, align 4
  call void @llvm.dbg.declare(metadata i32* %index.addr, metadata !2522, metadata !DIExpression()), !dbg !2523
  store i8* %value, i8** %value.addr, align 8
  call void @llvm.dbg.declare(metadata i8** %value.addr, metadata !2524, metadata !DIExpression()), !dbg !2525
  %this1 = load %class.cDisplayString*, %class.cDisplayString** %this.addr, align 8
  %0 = load i32, i32* %tagindex.addr, align 4, !dbg !2526
  %cmp = icmp slt i32 %0, 0, !dbg !2528
  br i1 %cmp, label %if.then, label %lor.lhs.false, !dbg !2529

lor.lhs.false:                                    ; preds = %entry
  %1 = load i32, i32* %tagindex.addr, align 4, !dbg !2530
  %numtags = getelementptr inbounds %class.cDisplayString, %class.cDisplayString* %this1, i32 0, i32 3, !dbg !2531
  %2 = load i32, i32* %numtags, align 8, !dbg !2531
  %cmp2 = icmp sge i32 %1, %2, !dbg !2532
  br i1 %cmp2, label %if.then, label %if.end, !dbg !2533

if.then:                                          ; preds = %lor.lhs.false, %entry
  store i1 false, i1* %retval, align 1, !dbg !2534
  br label %return, !dbg !2534

if.end:                                           ; preds = %lor.lhs.false
  %3 = load i32, i32* %index.addr, align 4, !dbg !2535
  %cmp3 = icmp slt i32 %3, 0, !dbg !2537
  br i1 %cmp3, label %if.then6, label %lor.lhs.false4, !dbg !2538

lor.lhs.false4:                                   ; preds = %if.end
  %4 = load i32, i32* %index.addr, align 4, !dbg !2539
  %cmp5 = icmp sge i32 %4, 16, !dbg !2540
  br i1 %cmp5, label %if.then6, label %if.end7, !dbg !2541

if.then6:                                         ; preds = %lor.lhs.false4, %if.end
  store i1 false, i1* %retval, align 1, !dbg !2542
  br label %return, !dbg !2542

if.end7:                                          ; preds = %lor.lhs.false4
  call void @llvm.dbg.declare(metadata %"struct.cDisplayString::Tag"** %tag, metadata !2543, metadata !DIExpression()), !dbg !2545
  %tags = getelementptr inbounds %class.cDisplayString, %class.cDisplayString* %this1, i32 0, i32 2, !dbg !2546
  %5 = load %"struct.cDisplayString::Tag"*, %"struct.cDisplayString::Tag"** %tags, align 8, !dbg !2546
  %6 = load i32, i32* %tagindex.addr, align 4, !dbg !2547
  %idxprom = sext i32 %6 to i64, !dbg !2546
  %arrayidx = getelementptr inbounds %"struct.cDisplayString::Tag", %"struct.cDisplayString::Tag"* %5, i64 %idxprom, !dbg !2546
  store %"struct.cDisplayString::Tag"* %arrayidx, %"struct.cDisplayString::Tag"** %tag, align 8, !dbg !2545
  %7 = load i32, i32* %index.addr, align 4, !dbg !2548
  %8 = load %"struct.cDisplayString::Tag"*, %"struct.cDisplayString::Tag"** %tag, align 8, !dbg !2550
  %numargs = getelementptr inbounds %"struct.cDisplayString::Tag", %"struct.cDisplayString::Tag"* %8, i32 0, i32 1, !dbg !2551
  %9 = load i32, i32* %numargs, align 8, !dbg !2551
  %cmp8 = icmp sge i32 %7, %9, !dbg !2552
  br i1 %cmp8, label %if.then9, label %if.end11, !dbg !2553

if.then9:                                         ; preds = %if.end7
  %10 = load i32, i32* %index.addr, align 4, !dbg !2554
  %add = add nsw i32 %10, 1, !dbg !2555
  %11 = load %"struct.cDisplayString::Tag"*, %"struct.cDisplayString::Tag"** %tag, align 8, !dbg !2556
  %numargs10 = getelementptr inbounds %"struct.cDisplayString::Tag", %"struct.cDisplayString::Tag"* %11, i32 0, i32 1, !dbg !2557
  store i32 %add, i32* %numargs10, align 8, !dbg !2558
  br label %if.end11, !dbg !2556

if.end11:                                         ; preds = %if.then9, %if.end7
  call void @llvm.dbg.declare(metadata i8*** %slot, metadata !2559, metadata !DIExpression()), !dbg !2561
  %12 = load %"struct.cDisplayString::Tag"*, %"struct.cDisplayString::Tag"** %tag, align 8, !dbg !2562
  %args = getelementptr inbounds %"struct.cDisplayString::Tag", %"struct.cDisplayString::Tag"* %12, i32 0, i32 2, !dbg !2563
  %13 = load i32, i32* %index.addr, align 4, !dbg !2564
  %idxprom12 = sext i32 %13 to i64, !dbg !2562
  %arrayidx13 = getelementptr inbounds [16 x i8*], [16 x i8*]* %args, i64 0, i64 %idxprom12, !dbg !2562
  store i8** %arrayidx13, i8*** %slot, align 8, !dbg !2561
  %14 = load i8**, i8*** %slot, align 8, !dbg !2565
  %15 = load i8*, i8** %14, align 8, !dbg !2565
  %16 = load i8*, i8** %value.addr, align 8, !dbg !2567
  %call = call i32 @_Z10opp_strcmpPKcS0_(i8* %15, i8* %16), !dbg !2568
  %tobool = icmp ne i32 %call, 0, !dbg !2568
  br i1 %tobool, label %if.end15, label %if.then14, !dbg !2569

if.then14:                                        ; preds = %if.end11
  store i1 true, i1* %retval, align 1, !dbg !2570
  br label %return, !dbg !2570

if.end15:                                         ; preds = %if.end11
  %17 = load i8**, i8*** %slot, align 8, !dbg !2571
  %18 = load i8*, i8** %17, align 8, !dbg !2571
  %tobool16 = icmp ne i8* %18, null, !dbg !2571
  br i1 %tobool16, label %land.lhs.true, label %if.end19, !dbg !2573

land.lhs.true:                                    ; preds = %if.end15
  %19 = load i8**, i8*** %slot, align 8, !dbg !2574
  %20 = load i8*, i8** %19, align 8, !dbg !2574
  %call17 = call zeroext i1 @_ZNK14cDisplayString10isinbufferEPc(%class.cDisplayString* %this1, i8* %20), !dbg !2575
  br i1 %call17, label %if.end19, label %if.then18, !dbg !2576

if.then18:                                        ; preds = %land.lhs.true
  %21 = load i8**, i8*** %slot, align 8, !dbg !2577
  %22 = load i8*, i8** %21, align 8, !dbg !2577
  %isnull = icmp eq i8* %22, null, !dbg !2578
  br i1 %isnull, label %delete.end, label %delete.notnull, !dbg !2578

delete.notnull:                                   ; preds = %if.then18
  call void @_ZdaPv(i8* %22) #13, !dbg !2578
  br label %delete.end, !dbg !2578

delete.end:                                       ; preds = %delete.notnull, %if.then18
  br label %if.end19, !dbg !2578

if.end19:                                         ; preds = %delete.end, %land.lhs.true, %if.end15
  %23 = load i8*, i8** %value.addr, align 8, !dbg !2579
  %call20 = call i8* @_Z10opp_strdupPKc(i8* %23), !dbg !2580
  %24 = load i8**, i8*** %slot, align 8, !dbg !2581
  store i8* %call20, i8** %24, align 8, !dbg !2582
  br label %while.cond, !dbg !2583

while.cond:                                       ; preds = %while.body, %if.end19
  %25 = load %"struct.cDisplayString::Tag"*, %"struct.cDisplayString::Tag"** %tag, align 8, !dbg !2584
  %numargs21 = getelementptr inbounds %"struct.cDisplayString::Tag", %"struct.cDisplayString::Tag"* %25, i32 0, i32 1, !dbg !2585
  %26 = load i32, i32* %numargs21, align 8, !dbg !2585
  %cmp22 = icmp sgt i32 %26, 0, !dbg !2586
  br i1 %cmp22, label %land.rhs, label %land.end, !dbg !2587

land.rhs:                                         ; preds = %while.cond
  %27 = load %"struct.cDisplayString::Tag"*, %"struct.cDisplayString::Tag"** %tag, align 8, !dbg !2588
  %args23 = getelementptr inbounds %"struct.cDisplayString::Tag", %"struct.cDisplayString::Tag"* %27, i32 0, i32 2, !dbg !2589
  %28 = load %"struct.cDisplayString::Tag"*, %"struct.cDisplayString::Tag"** %tag, align 8, !dbg !2590
  %numargs24 = getelementptr inbounds %"struct.cDisplayString::Tag", %"struct.cDisplayString::Tag"* %28, i32 0, i32 1, !dbg !2591
  %29 = load i32, i32* %numargs24, align 8, !dbg !2591
  %sub = sub nsw i32 %29, 1, !dbg !2592
  %idxprom25 = sext i32 %sub to i64, !dbg !2588
  %arrayidx26 = getelementptr inbounds [16 x i8*], [16 x i8*]* %args23, i64 0, i64 %idxprom25, !dbg !2588
  %30 = load i8*, i8** %arrayidx26, align 8, !dbg !2588
  %cmp27 = icmp eq i8* %30, null, !dbg !2593
  br label %land.end

land.end:                                         ; preds = %land.rhs, %while.cond
  %31 = phi i1 [ false, %while.cond ], [ %cmp27, %land.rhs ], !dbg !2519
  br i1 %31, label %while.body, label %while.end, !dbg !2583

while.body:                                       ; preds = %land.end
  %32 = load %"struct.cDisplayString::Tag"*, %"struct.cDisplayString::Tag"** %tag, align 8, !dbg !2594
  %numargs28 = getelementptr inbounds %"struct.cDisplayString::Tag", %"struct.cDisplayString::Tag"* %32, i32 0, i32 1, !dbg !2595
  %33 = load i32, i32* %numargs28, align 8, !dbg !2596
  %dec = add nsw i32 %33, -1, !dbg !2596
  store i32 %dec, i32* %numargs28, align 8, !dbg !2596
  br label %while.cond, !dbg !2583, !llvm.loop !2597

while.end:                                        ; preds = %land.end
  %34 = load %"struct.cDisplayString::Tag"*, %"struct.cDisplayString::Tag"** %tag, align 8, !dbg !2598
  %numargs29 = getelementptr inbounds %"struct.cDisplayString::Tag", %"struct.cDisplayString::Tag"* %34, i32 0, i32 1, !dbg !2600
  %35 = load i32, i32* %numargs29, align 8, !dbg !2600
  %cmp30 = icmp eq i32 %35, 0, !dbg !2601
  br i1 %cmp30, label %if.then31, label %if.end33, !dbg !2602

if.then31:                                        ; preds = %while.end
  %36 = load i32, i32* %tagindex.addr, align 4, !dbg !2603
  %call32 = call zeroext i1 @_ZN14cDisplayString9removeTagEi(%class.cDisplayString* %this1, i32 %36), !dbg !2604
  br label %if.end33, !dbg !2604

if.end33:                                         ; preds = %if.then31, %while.end
  call void @_ZN14cDisplayString6notifyEv(%class.cDisplayString* %this1), !dbg !2605
  store i1 true, i1* %retval, align 1, !dbg !2606
  br label %return, !dbg !2606

return:                                           ; preds = %if.end33, %if.then14, %if.then6, %if.then
  %37 = load i1, i1* %retval, align 1, !dbg !2607
  ret i1 %37, !dbg !2607
}

; Function Attrs: noinline uwtable
define dso_local zeroext i1 @_ZN14cDisplayString9setTagArgEPKcil(%class.cDisplayString* %this, i8* %tagname, i32 %index, i64 %value) #0 align 2 !dbg !2608 {
entry:
  %this.addr = alloca %class.cDisplayString*, align 8
  %tagname.addr = alloca i8*, align 8
  %index.addr = alloca i32, align 4
  %value.addr = alloca i64, align 8
  %buf = alloca [32 x i8], align 16
  store %class.cDisplayString* %this, %class.cDisplayString** %this.addr, align 8
  call void @llvm.dbg.declare(metadata %class.cDisplayString** %this.addr, metadata !2609, metadata !DIExpression()), !dbg !2610
  store i8* %tagname, i8** %tagname.addr, align 8
  call void @llvm.dbg.declare(metadata i8** %tagname.addr, metadata !2611, metadata !DIExpression()), !dbg !2612
  store i32 %index, i32* %index.addr, align 4
  call void @llvm.dbg.declare(metadata i32* %index.addr, metadata !2613, metadata !DIExpression()), !dbg !2614
  store i64 %value, i64* %value.addr, align 8
  call void @llvm.dbg.declare(metadata i64* %value.addr, metadata !2615, metadata !DIExpression()), !dbg !2616
  %this1 = load %class.cDisplayString*, %class.cDisplayString** %this.addr, align 8
  call void @llvm.dbg.declare(metadata [32 x i8]* %buf, metadata !2617, metadata !DIExpression()), !dbg !2621
  %arraydecay = getelementptr inbounds [32 x i8], [32 x i8]* %buf, i64 0, i64 0, !dbg !2622
  %0 = load i64, i64* %value.addr, align 8, !dbg !2623
  %call = call i32 (i8*, i8*, ...) @sprintf(i8* %arraydecay, i8* getelementptr inbounds ([4 x i8], [4 x i8]* @.str.1, i64 0, i64 0), i64 %0) #3, !dbg !2624
  %1 = load i8*, i8** %tagname.addr, align 8, !dbg !2625
  %2 = load i32, i32* %index.addr, align 4, !dbg !2626
  %arraydecay2 = getelementptr inbounds [32 x i8], [32 x i8]* %buf, i64 0, i64 0, !dbg !2627
  %call3 = call zeroext i1 @_ZN14cDisplayString9setTagArgEPKciS1_(%class.cDisplayString* %this1, i8* %1, i32 %2, i8* %arraydecay2), !dbg !2628
  ret i1 %call3, !dbg !2629
}

; Function Attrs: nounwind
declare dso_local i32 @sprintf(i8*, i8*, ...) #2

; Function Attrs: noinline uwtable
define dso_local zeroext i1 @_ZN14cDisplayString9removeTagEPKc(%class.cDisplayString* %this, i8* %tagname) #0 align 2 !dbg !2630 {
entry:
  %this.addr = alloca %class.cDisplayString*, align 8
  %tagname.addr = alloca i8*, align 8
  store %class.cDisplayString* %this, %class.cDisplayString** %this.addr, align 8
  call void @llvm.dbg.declare(metadata %class.cDisplayString** %this.addr, metadata !2631, metadata !DIExpression()), !dbg !2632
  store i8* %tagname, i8** %tagname.addr, align 8
  call void @llvm.dbg.declare(metadata i8** %tagname.addr, metadata !2633, metadata !DIExpression()), !dbg !2634
  %this1 = load %class.cDisplayString*, %class.cDisplayString** %this.addr, align 8
  %0 = load i8*, i8** %tagname.addr, align 8, !dbg !2635
  %call = call i32 @_ZNK14cDisplayString11gettagindexEPKc(%class.cDisplayString* %this1, i8* %0), !dbg !2636
  %call2 = call zeroext i1 @_ZN14cDisplayString9removeTagEi(%class.cDisplayString* %this1, i32 %call), !dbg !2637
  ret i1 %call2, !dbg !2638
}

; Function Attrs: noinline uwtable
define dso_local zeroext i1 @_ZN14cDisplayString9removeTagEi(%class.cDisplayString* %this, i32 %tagindex) #0 align 2 !dbg !2639 {
entry:
  %retval = alloca i1, align 1
  %this.addr = alloca %class.cDisplayString*, align 8
  %tagindex.addr = alloca i32, align 4
  %i = alloca i32, align 4
  %t = alloca i32, align 4
  store %class.cDisplayString* %this, %class.cDisplayString** %this.addr, align 8
  call void @llvm.dbg.declare(metadata %class.cDisplayString** %this.addr, metadata !2640, metadata !DIExpression()), !dbg !2641
  store i32 %tagindex, i32* %tagindex.addr, align 4
  call void @llvm.dbg.declare(metadata i32* %tagindex.addr, metadata !2642, metadata !DIExpression()), !dbg !2643
  %this1 = load %class.cDisplayString*, %class.cDisplayString** %this.addr, align 8
  %0 = load i32, i32* %tagindex.addr, align 4, !dbg !2644
  %cmp = icmp slt i32 %0, 0, !dbg !2646
  br i1 %cmp, label %if.then, label %lor.lhs.false, !dbg !2647

lor.lhs.false:                                    ; preds = %entry
  %1 = load i32, i32* %tagindex.addr, align 4, !dbg !2648
  %numtags = getelementptr inbounds %class.cDisplayString, %class.cDisplayString* %this1, i32 0, i32 3, !dbg !2649
  %2 = load i32, i32* %numtags, align 8, !dbg !2649
  %cmp2 = icmp sge i32 %1, %2, !dbg !2650
  br i1 %cmp2, label %if.then, label %if.end, !dbg !2651

if.then:                                          ; preds = %lor.lhs.false, %entry
  store i1 false, i1* %retval, align 1, !dbg !2652
  br label %return, !dbg !2652

if.end:                                           ; preds = %lor.lhs.false
  %tags = getelementptr inbounds %class.cDisplayString, %class.cDisplayString* %this1, i32 0, i32 2, !dbg !2653
  %3 = load %"struct.cDisplayString::Tag"*, %"struct.cDisplayString::Tag"** %tags, align 8, !dbg !2653
  %4 = load i32, i32* %tagindex.addr, align 4, !dbg !2655
  %idxprom = sext i32 %4 to i64, !dbg !2653
  %arrayidx = getelementptr inbounds %"struct.cDisplayString::Tag", %"struct.cDisplayString::Tag"* %3, i64 %idxprom, !dbg !2653
  %name = getelementptr inbounds %"struct.cDisplayString::Tag", %"struct.cDisplayString::Tag"* %arrayidx, i32 0, i32 0, !dbg !2656
  %5 = load i8*, i8** %name, align 8, !dbg !2656
  %call = call zeroext i1 @_ZNK14cDisplayString10isinbufferEPc(%class.cDisplayString* %this1, i8* %5), !dbg !2657
  br i1 %call, label %if.end8, label %if.then3, !dbg !2658

if.then3:                                         ; preds = %if.end
  %tags4 = getelementptr inbounds %class.cDisplayString, %class.cDisplayString* %this1, i32 0, i32 2, !dbg !2659
  %6 = load %"struct.cDisplayString::Tag"*, %"struct.cDisplayString::Tag"** %tags4, align 8, !dbg !2659
  %7 = load i32, i32* %tagindex.addr, align 4, !dbg !2660
  %idxprom5 = sext i32 %7 to i64, !dbg !2659
  %arrayidx6 = getelementptr inbounds %"struct.cDisplayString::Tag", %"struct.cDisplayString::Tag"* %6, i64 %idxprom5, !dbg !2659
  %name7 = getelementptr inbounds %"struct.cDisplayString::Tag", %"struct.cDisplayString::Tag"* %arrayidx6, i32 0, i32 0, !dbg !2661
  %8 = load i8*, i8** %name7, align 8, !dbg !2661
  %isnull = icmp eq i8* %8, null, !dbg !2662
  br i1 %isnull, label %delete.end, label %delete.notnull, !dbg !2662

delete.notnull:                                   ; preds = %if.then3
  call void @_ZdaPv(i8* %8) #13, !dbg !2662
  br label %delete.end, !dbg !2662

delete.end:                                       ; preds = %delete.notnull, %if.then3
  br label %if.end8, !dbg !2662

if.end8:                                          ; preds = %delete.end, %if.end
  call void @llvm.dbg.declare(metadata i32* %i, metadata !2663, metadata !DIExpression()), !dbg !2665
  store i32 0, i32* %i, align 4, !dbg !2665
  br label %for.cond, !dbg !2666

for.cond:                                         ; preds = %for.inc, %if.end8
  %9 = load i32, i32* %i, align 4, !dbg !2667
  %tags9 = getelementptr inbounds %class.cDisplayString, %class.cDisplayString* %this1, i32 0, i32 2, !dbg !2669
  %10 = load %"struct.cDisplayString::Tag"*, %"struct.cDisplayString::Tag"** %tags9, align 8, !dbg !2669
  %11 = load i32, i32* %tagindex.addr, align 4, !dbg !2670
  %idxprom10 = sext i32 %11 to i64, !dbg !2669
  %arrayidx11 = getelementptr inbounds %"struct.cDisplayString::Tag", %"struct.cDisplayString::Tag"* %10, i64 %idxprom10, !dbg !2669
  %numargs = getelementptr inbounds %"struct.cDisplayString::Tag", %"struct.cDisplayString::Tag"* %arrayidx11, i32 0, i32 1, !dbg !2671
  %12 = load i32, i32* %numargs, align 8, !dbg !2671
  %cmp12 = icmp slt i32 %9, %12, !dbg !2672
  br i1 %cmp12, label %for.body, label %for.end, !dbg !2673

for.body:                                         ; preds = %for.cond
  %tags13 = getelementptr inbounds %class.cDisplayString, %class.cDisplayString* %this1, i32 0, i32 2, !dbg !2674
  %13 = load %"struct.cDisplayString::Tag"*, %"struct.cDisplayString::Tag"** %tags13, align 8, !dbg !2674
  %14 = load i32, i32* %tagindex.addr, align 4, !dbg !2676
  %idxprom14 = sext i32 %14 to i64, !dbg !2674
  %arrayidx15 = getelementptr inbounds %"struct.cDisplayString::Tag", %"struct.cDisplayString::Tag"* %13, i64 %idxprom14, !dbg !2674
  %args = getelementptr inbounds %"struct.cDisplayString::Tag", %"struct.cDisplayString::Tag"* %arrayidx15, i32 0, i32 2, !dbg !2677
  %15 = load i32, i32* %i, align 4, !dbg !2678
  %idxprom16 = sext i32 %15 to i64, !dbg !2674
  %arrayidx17 = getelementptr inbounds [16 x i8*], [16 x i8*]* %args, i64 0, i64 %idxprom16, !dbg !2674
  %16 = load i8*, i8** %arrayidx17, align 8, !dbg !2674
  %call18 = call zeroext i1 @_ZNK14cDisplayString10isinbufferEPc(%class.cDisplayString* %this1, i8* %16), !dbg !2679
  br i1 %call18, label %if.end29, label %if.then19, !dbg !2680

if.then19:                                        ; preds = %for.body
  %tags20 = getelementptr inbounds %class.cDisplayString, %class.cDisplayString* %this1, i32 0, i32 2, !dbg !2681
  %17 = load %"struct.cDisplayString::Tag"*, %"struct.cDisplayString::Tag"** %tags20, align 8, !dbg !2681
  %18 = load i32, i32* %tagindex.addr, align 4, !dbg !2682
  %idxprom21 = sext i32 %18 to i64, !dbg !2681
  %arrayidx22 = getelementptr inbounds %"struct.cDisplayString::Tag", %"struct.cDisplayString::Tag"* %17, i64 %idxprom21, !dbg !2681
  %args23 = getelementptr inbounds %"struct.cDisplayString::Tag", %"struct.cDisplayString::Tag"* %arrayidx22, i32 0, i32 2, !dbg !2683
  %19 = load i32, i32* %i, align 4, !dbg !2684
  %idxprom24 = sext i32 %19 to i64, !dbg !2681
  %arrayidx25 = getelementptr inbounds [16 x i8*], [16 x i8*]* %args23, i64 0, i64 %idxprom24, !dbg !2681
  %20 = load i8*, i8** %arrayidx25, align 8, !dbg !2681
  %isnull26 = icmp eq i8* %20, null, !dbg !2685
  br i1 %isnull26, label %delete.end28, label %delete.notnull27, !dbg !2685

delete.notnull27:                                 ; preds = %if.then19
  call void @_ZdaPv(i8* %20) #13, !dbg !2685
  br label %delete.end28, !dbg !2685

delete.end28:                                     ; preds = %delete.notnull27, %if.then19
  br label %if.end29, !dbg !2685

if.end29:                                         ; preds = %delete.end28, %for.body
  br label %for.inc, !dbg !2686

for.inc:                                          ; preds = %if.end29
  %21 = load i32, i32* %i, align 4, !dbg !2687
  %inc = add nsw i32 %21, 1, !dbg !2687
  store i32 %inc, i32* %i, align 4, !dbg !2687
  br label %for.cond, !dbg !2688, !llvm.loop !2689

for.end:                                          ; preds = %for.cond
  call void @llvm.dbg.declare(metadata i32* %t, metadata !2691, metadata !DIExpression()), !dbg !2693
  %22 = load i32, i32* %tagindex.addr, align 4, !dbg !2694
  store i32 %22, i32* %t, align 4, !dbg !2693
  br label %for.cond30, !dbg !2695

for.cond30:                                       ; preds = %for.inc40, %for.end
  %23 = load i32, i32* %t, align 4, !dbg !2696
  %numtags31 = getelementptr inbounds %class.cDisplayString, %class.cDisplayString* %this1, i32 0, i32 3, !dbg !2698
  %24 = load i32, i32* %numtags31, align 8, !dbg !2698
  %sub = sub nsw i32 %24, 1, !dbg !2699
  %cmp32 = icmp slt i32 %23, %sub, !dbg !2700
  br i1 %cmp32, label %for.body33, label %for.end42, !dbg !2701

for.body33:                                       ; preds = %for.cond30
  %tags34 = getelementptr inbounds %class.cDisplayString, %class.cDisplayString* %this1, i32 0, i32 2, !dbg !2702
  %25 = load %"struct.cDisplayString::Tag"*, %"struct.cDisplayString::Tag"** %tags34, align 8, !dbg !2702
  %26 = load i32, i32* %t, align 4, !dbg !2703
  %add = add nsw i32 %26, 1, !dbg !2704
  %idxprom35 = sext i32 %add to i64, !dbg !2702
  %arrayidx36 = getelementptr inbounds %"struct.cDisplayString::Tag", %"struct.cDisplayString::Tag"* %25, i64 %idxprom35, !dbg !2702
  %tags37 = getelementptr inbounds %class.cDisplayString, %class.cDisplayString* %this1, i32 0, i32 2, !dbg !2705
  %27 = load %"struct.cDisplayString::Tag"*, %"struct.cDisplayString::Tag"** %tags37, align 8, !dbg !2705
  %28 = load i32, i32* %t, align 4, !dbg !2706
  %idxprom38 = sext i32 %28 to i64, !dbg !2705
  %arrayidx39 = getelementptr inbounds %"struct.cDisplayString::Tag", %"struct.cDisplayString::Tag"* %27, i64 %idxprom38, !dbg !2705
  %29 = bitcast %"struct.cDisplayString::Tag"* %arrayidx39 to i8*, !dbg !2707
  %30 = bitcast %"struct.cDisplayString::Tag"* %arrayidx36 to i8*, !dbg !2707
  call void @llvm.memcpy.p0i8.p0i8.i64(i8* align 8 %29, i8* align 8 %30, i64 144, i1 false), !dbg !2707
  br label %for.inc40, !dbg !2705

for.inc40:                                        ; preds = %for.body33
  %31 = load i32, i32* %t, align 4, !dbg !2708
  %inc41 = add nsw i32 %31, 1, !dbg !2708
  store i32 %inc41, i32* %t, align 4, !dbg !2708
  br label %for.cond30, !dbg !2709, !llvm.loop !2710

for.end42:                                        ; preds = %for.cond30
  %numtags43 = getelementptr inbounds %class.cDisplayString, %class.cDisplayString* %this1, i32 0, i32 3, !dbg !2712
  %32 = load i32, i32* %numtags43, align 8, !dbg !2713
  %dec = add nsw i32 %32, -1, !dbg !2713
  store i32 %dec, i32* %numtags43, align 8, !dbg !2713
  call void @_ZN14cDisplayString6notifyEv(%class.cDisplayString* %this1), !dbg !2714
  store i1 true, i1* %retval, align 1, !dbg !2715
  br label %return, !dbg !2715

return:                                           ; preds = %for.end42, %if.then
  %33 = load i1, i1* %retval, align 1, !dbg !2716
  ret i1 %33, !dbg !2716
}

; Function Attrs: noinline nounwind uwtable
define linkonce_odr dso_local i8* @_Z15opp_nulltoemptyPKc(i8* %s) #4 comdat !dbg !2717 {
entry:
  %s.addr = alloca i8*, align 8
  store i8* %s, i8** %s.addr, align 8
  call void @llvm.dbg.declare(metadata i8** %s.addr, metadata !2721, metadata !DIExpression()), !dbg !2722
  %0 = load i8*, i8** %s.addr, align 8, !dbg !2723
  %tobool = icmp ne i8* %0, null, !dbg !2723
  br i1 %tobool, label %cond.true, label %cond.false, !dbg !2723

cond.true:                                        ; preds = %entry
  %1 = load i8*, i8** %s.addr, align 8, !dbg !2724
  br label %cond.end, !dbg !2723

cond.false:                                       ; preds = %entry
  br label %cond.end, !dbg !2723

cond.end:                                         ; preds = %cond.false, %cond.true
  %cond = phi i8* [ %1, %cond.true ], [ getelementptr inbounds ([1 x i8], [1 x i8]* @.str, i64 0, i64 0), %cond.false ], !dbg !2723
  ret i8* %cond, !dbg !2725
}

; Function Attrs: noinline nounwind uwtable
define linkonce_odr dso_local zeroext i1 @_ZNK14cDisplayString10isinbufferEPc(%class.cDisplayString* %this, i8* %s) #4 comdat align 2 !dbg !2726 {
entry:
  %this.addr = alloca %class.cDisplayString*, align 8
  %s.addr = alloca i8*, align 8
  store %class.cDisplayString* %this, %class.cDisplayString** %this.addr, align 8
  call void @llvm.dbg.declare(metadata %class.cDisplayString** %this.addr, metadata !2727, metadata !DIExpression()), !dbg !2728
  store i8* %s, i8** %s.addr, align 8
  call void @llvm.dbg.declare(metadata i8** %s.addr, metadata !2729, metadata !DIExpression()), !dbg !2730
  %this1 = load %class.cDisplayString*, %class.cDisplayString** %this.addr, align 8
  %0 = load i8*, i8** %s.addr, align 8, !dbg !2731
  %buffer = getelementptr inbounds %class.cDisplayString, %class.cDisplayString* %this1, i32 0, i32 0, !dbg !2732
  %1 = load i8*, i8** %buffer, align 8, !dbg !2732
  %cmp = icmp uge i8* %0, %1, !dbg !2733
  br i1 %cmp, label %land.rhs, label %land.end, !dbg !2734

land.rhs:                                         ; preds = %entry
  %2 = load i8*, i8** %s.addr, align 8, !dbg !2735
  %bufferend = getelementptr inbounds %class.cDisplayString, %class.cDisplayString* %this1, i32 0, i32 1, !dbg !2736
  %3 = load i8*, i8** %bufferend, align 8, !dbg !2736
  %cmp2 = icmp ule i8* %2, %3, !dbg !2737
  br label %land.end

land.end:                                         ; preds = %land.rhs, %entry
  %4 = phi i1 [ false, %entry ], [ %cmp2, %land.rhs ], !dbg !2728
  ret i1 %4, !dbg !2738
}

declare dso_local i8* @__cxa_allocate_exception(i64)

declare dso_local void @_ZN13cRuntimeErrorC1EPKcz(%class.cRuntimeError*, i8*, ...) unnamed_addr #1

declare dso_local void @__cxa_free_exception(i8*)

; Function Attrs: noinline nounwind uwtable
define linkonce_odr dso_local void @_ZN13cRuntimeErrorD2Ev(%class.cRuntimeError* %this) unnamed_addr #4 comdat align 2 !dbg !2739 {
entry:
  %this.addr = alloca %class.cRuntimeError*, align 8
  store %class.cRuntimeError* %this, %class.cRuntimeError** %this.addr, align 8
  call void @llvm.dbg.declare(metadata %class.cRuntimeError** %this.addr, metadata !2744, metadata !DIExpression()), !dbg !2746
  %this1 = load %class.cRuntimeError*, %class.cRuntimeError** %this.addr, align 8
  %0 = bitcast %class.cRuntimeError* %this1 to %class.cException*, !dbg !2747
  call void @_ZN10cExceptionD2Ev(%class.cException* %0) #3, !dbg !2747
  ret void, !dbg !2749
}

declare dso_local void @__cxa_throw(i8*, i8*, i8*)

; Function Attrs: noinline nounwind uwtable
define linkonce_odr dso_local zeroext i1 @_Z11opp_isalnumh(i8 zeroext %c) #4 comdat !dbg !2750 {
entry:
  %c.addr = alloca i8, align 1
  store i8 %c, i8* %c.addr, align 1
  call void @llvm.dbg.declare(metadata i8* %c.addr, metadata !2754, metadata !DIExpression()), !dbg !2755
  %0 = load i8, i8* %c.addr, align 1, !dbg !2756
  %conv = zext i8 %0 to i32, !dbg !2756
  %call = call i32 @isalnum(i32 %conv) #11, !dbg !2757
  %tobool = icmp ne i32 %call, 0, !dbg !2757
  ret i1 %tobool, !dbg !2758
}

; Function Attrs: nounwind readnone speculatable willreturn
declare { i64, i1 } @llvm.umul.with.overflow.i64(i64, i64) #5

; Function Attrs: nobuiltin
declare dso_local noalias i8* @_Znam(i64) #8

; Function Attrs: noinline nounwind uwtable
define linkonce_odr dso_local void @_ZN14cDisplayString3TagC2Ev(%"struct.cDisplayString::Tag"* %this) unnamed_addr #4 comdat align 2 !dbg !2759 {
entry:
  %this.addr = alloca %"struct.cDisplayString::Tag"*, align 8
  store %"struct.cDisplayString::Tag"* %this, %"struct.cDisplayString::Tag"** %this.addr, align 8
  call void @llvm.dbg.declare(metadata %"struct.cDisplayString::Tag"** %this.addr, metadata !2760, metadata !DIExpression()), !dbg !2761
  %this1 = load %"struct.cDisplayString::Tag"*, %"struct.cDisplayString::Tag"** %this.addr, align 8
  %name = getelementptr inbounds %"struct.cDisplayString::Tag", %"struct.cDisplayString::Tag"* %this1, i32 0, i32 0, !dbg !2762
  store i8* null, i8** %name, align 8, !dbg !2764
  %numargs = getelementptr inbounds %"struct.cDisplayString::Tag", %"struct.cDisplayString::Tag"* %this1, i32 0, i32 1, !dbg !2765
  store i32 0, i32* %numargs, align 8, !dbg !2766
  ret void, !dbg !2767
}

; Function Attrs: argmemonly nounwind willreturn
declare void @llvm.memcpy.p0i8.p0i8.i64(i8* noalias nocapture writeonly, i8* noalias nocapture readonly, i64, i1 immarg) #9

; Function Attrs: nounwind readonly
declare dso_local i32 @strcmp(i8*, i8*) #10

; Function Attrs: noinline nounwind uwtable
define linkonce_odr dso_local i32 @_Z10opp_strlenPKc(i8* %s) #4 comdat !dbg !2768 {
entry:
  %s.addr = alloca i8*, align 8
  store i8* %s, i8** %s.addr, align 8
  call void @llvm.dbg.declare(metadata i8** %s.addr, metadata !2769, metadata !DIExpression()), !dbg !2770
  %0 = load i8*, i8** %s.addr, align 8, !dbg !2771
  %tobool = icmp ne i8* %0, null, !dbg !2771
  br i1 %tobool, label %cond.true, label %cond.false, !dbg !2771

cond.true:                                        ; preds = %entry
  %1 = load i8*, i8** %s.addr, align 8, !dbg !2772
  %call = call i64 @strlen(i8* %1) #11, !dbg !2773
  br label %cond.end, !dbg !2771

cond.false:                                       ; preds = %entry
  br label %cond.end, !dbg !2771

cond.end:                                         ; preds = %cond.false, %cond.true
  %cond = phi i64 [ %call, %cond.true ], [ 0, %cond.false ], !dbg !2771
  %conv = trunc i64 %cond to i32, !dbg !2771
  ret i32 %conv, !dbg !2774
}

; Function Attrs: nounwind
declare dso_local i8* @strcat(i8*, i8*) #2

; Function Attrs: noinline nounwind uwtable
define dso_local void @_ZN14cDisplayString13strcatescapedEPcPKc(i8* %d, i8* %s) #4 align 2 !dbg !2775 {
entry:
  %d.addr = alloca i8*, align 8
  %s.addr = alloca i8*, align 8
  store i8* %d, i8** %d.addr, align 8
  call void @llvm.dbg.declare(metadata i8** %d.addr, metadata !2776, metadata !DIExpression()), !dbg !2777
  store i8* %s, i8** %s.addr, align 8
  call void @llvm.dbg.declare(metadata i8** %s.addr, metadata !2778, metadata !DIExpression()), !dbg !2779
  %0 = load i8*, i8** %s.addr, align 8, !dbg !2780
  %tobool = icmp ne i8* %0, null, !dbg !2780
  br i1 %tobool, label %if.end, label %if.then, !dbg !2782

if.then:                                          ; preds = %entry
  br label %return, !dbg !2783

if.end:                                           ; preds = %entry
  %1 = load i8*, i8** %d.addr, align 8, !dbg !2784
  %call = call i64 @strlen(i8* %1) #11, !dbg !2785
  %2 = load i8*, i8** %d.addr, align 8, !dbg !2786
  %add.ptr = getelementptr inbounds i8, i8* %2, i64 %call, !dbg !2786
  store i8* %add.ptr, i8** %d.addr, align 8, !dbg !2786
  br label %while.cond, !dbg !2787

while.cond:                                       ; preds = %if.end8, %if.end
  %3 = load i8*, i8** %s.addr, align 8, !dbg !2788
  %4 = load i8, i8* %3, align 1, !dbg !2789
  %tobool1 = icmp ne i8 %4, 0, !dbg !2789
  br i1 %tobool1, label %while.body, label %while.end, !dbg !2787

while.body:                                       ; preds = %while.cond
  %5 = load i8*, i8** %s.addr, align 8, !dbg !2790
  %6 = load i8, i8* %5, align 1, !dbg !2793
  %conv = sext i8 %6 to i32, !dbg !2793
  %cmp = icmp eq i32 %conv, 59, !dbg !2794
  br i1 %cmp, label %if.then7, label %lor.lhs.false, !dbg !2795

lor.lhs.false:                                    ; preds = %while.body
  %7 = load i8*, i8** %s.addr, align 8, !dbg !2796
  %8 = load i8, i8* %7, align 1, !dbg !2797
  %conv2 = sext i8 %8 to i32, !dbg !2797
  %cmp3 = icmp eq i32 %conv2, 44, !dbg !2798
  br i1 %cmp3, label %if.then7, label %lor.lhs.false4, !dbg !2799

lor.lhs.false4:                                   ; preds = %lor.lhs.false
  %9 = load i8*, i8** %s.addr, align 8, !dbg !2800
  %10 = load i8, i8* %9, align 1, !dbg !2801
  %conv5 = sext i8 %10 to i32, !dbg !2801
  %cmp6 = icmp eq i32 %conv5, 61, !dbg !2802
  br i1 %cmp6, label %if.then7, label %if.end8, !dbg !2803

if.then7:                                         ; preds = %lor.lhs.false4, %lor.lhs.false, %while.body
  %11 = load i8*, i8** %d.addr, align 8, !dbg !2804
  %incdec.ptr = getelementptr inbounds i8, i8* %11, i32 1, !dbg !2804
  store i8* %incdec.ptr, i8** %d.addr, align 8, !dbg !2804
  store i8 92, i8* %11, align 1, !dbg !2805
  br label %if.end8, !dbg !2806

if.end8:                                          ; preds = %if.then7, %lor.lhs.false4
  %12 = load i8*, i8** %s.addr, align 8, !dbg !2807
  %incdec.ptr9 = getelementptr inbounds i8, i8* %12, i32 1, !dbg !2807
  store i8* %incdec.ptr9, i8** %s.addr, align 8, !dbg !2807
  %13 = load i8, i8* %12, align 1, !dbg !2808
  %14 = load i8*, i8** %d.addr, align 8, !dbg !2809
  %incdec.ptr10 = getelementptr inbounds i8, i8* %14, i32 1, !dbg !2809
  store i8* %incdec.ptr10, i8** %d.addr, align 8, !dbg !2809
  store i8 %13, i8* %14, align 1, !dbg !2810
  br label %while.cond, !dbg !2787, !llvm.loop !2811

while.end:                                        ; preds = %while.cond
  %15 = load i8*, i8** %d.addr, align 8, !dbg !2813
  store i8 0, i8* %15, align 1, !dbg !2814
  br label %return, !dbg !2815

return:                                           ; preds = %while.end, %if.then
  ret void, !dbg !2815
}

; Function Attrs: nounwind readonly
declare dso_local i64 @strlen(i8*) #10

; Function Attrs: noinline uwtable
define dso_local void @_ZNK14cDisplayString4dumpEv(%class.cDisplayString* %this) #0 align 2 !dbg !2816 {
entry:
  %this.addr = alloca %class.cDisplayString*, align 8
  %t = alloca i32, align 4
  %i = alloca i32, align 4
  store %class.cDisplayString* %this, %class.cDisplayString** %this.addr, align 8
  call void @llvm.dbg.declare(metadata %class.cDisplayString** %this.addr, metadata !2817, metadata !DIExpression()), !dbg !2818
  %this1 = load %class.cDisplayString*, %class.cDisplayString** %this.addr, align 8
  call void @llvm.dbg.declare(metadata i32* %t, metadata !2819, metadata !DIExpression()), !dbg !2821
  store i32 0, i32* %t, align 4, !dbg !2821
  br label %for.cond, !dbg !2822

for.cond:                                         ; preds = %for.inc20, %entry
  %0 = load i32, i32* %t, align 4, !dbg !2823
  %numtags = getelementptr inbounds %class.cDisplayString, %class.cDisplayString* %this1, i32 0, i32 3, !dbg !2825
  %1 = load i32, i32* %numtags, align 8, !dbg !2825
  %cmp = icmp slt i32 %0, %1, !dbg !2826
  br i1 %cmp, label %for.body, label %for.end22, !dbg !2827

for.body:                                         ; preds = %for.cond
  %2 = load i32, i32* %t, align 4, !dbg !2828
  %cmp2 = icmp ne i32 %2, 0, !dbg !2831
  br i1 %cmp2, label %if.then, label %if.end, !dbg !2832

if.then:                                          ; preds = %for.body
  %call = call i32 (i8*, ...) @printf(i8* getelementptr inbounds ([3 x i8], [3 x i8]* @.str.10, i64 0, i64 0)), !dbg !2833
  br label %if.end, !dbg !2833

if.end:                                           ; preds = %if.then, %for.body
  %3 = load i32, i32* %t, align 4, !dbg !2834
  %tags = getelementptr inbounds %class.cDisplayString, %class.cDisplayString* %this1, i32 0, i32 2, !dbg !2835
  %4 = load %"struct.cDisplayString::Tag"*, %"struct.cDisplayString::Tag"** %tags, align 8, !dbg !2835
  %5 = load i32, i32* %t, align 4, !dbg !2836
  %idxprom = sext i32 %5 to i64, !dbg !2835
  %arrayidx = getelementptr inbounds %"struct.cDisplayString::Tag", %"struct.cDisplayString::Tag"* %4, i64 %idxprom, !dbg !2835
  %name = getelementptr inbounds %"struct.cDisplayString::Tag", %"struct.cDisplayString::Tag"* %arrayidx, i32 0, i32 0, !dbg !2837
  %6 = load i8*, i8** %name, align 8, !dbg !2837
  %call3 = call i32 (i8*, ...) @printf(i8* getelementptr inbounds ([15 x i8], [15 x i8]* @.str.11, i64 0, i64 0), i32 %3, i8* %6), !dbg !2838
  call void @llvm.dbg.declare(metadata i32* %i, metadata !2839, metadata !DIExpression()), !dbg !2841
  store i32 0, i32* %i, align 4, !dbg !2841
  br label %for.cond4, !dbg !2842

for.cond4:                                        ; preds = %for.inc, %if.end
  %7 = load i32, i32* %i, align 4, !dbg !2843
  %tags5 = getelementptr inbounds %class.cDisplayString, %class.cDisplayString* %this1, i32 0, i32 2, !dbg !2845
  %8 = load %"struct.cDisplayString::Tag"*, %"struct.cDisplayString::Tag"** %tags5, align 8, !dbg !2845
  %9 = load i32, i32* %t, align 4, !dbg !2846
  %idxprom6 = sext i32 %9 to i64, !dbg !2845
  %arrayidx7 = getelementptr inbounds %"struct.cDisplayString::Tag", %"struct.cDisplayString::Tag"* %8, i64 %idxprom6, !dbg !2845
  %numargs = getelementptr inbounds %"struct.cDisplayString::Tag", %"struct.cDisplayString::Tag"* %arrayidx7, i32 0, i32 1, !dbg !2847
  %10 = load i32, i32* %numargs, align 8, !dbg !2847
  %cmp8 = icmp slt i32 %7, %10, !dbg !2848
  br i1 %cmp8, label %for.body9, label %for.end, !dbg !2849

for.body9:                                        ; preds = %for.cond4
  %11 = load i32, i32* %i, align 4, !dbg !2850
  %cmp10 = icmp ne i32 %11, 0, !dbg !2853
  br i1 %cmp10, label %if.then11, label %if.end13, !dbg !2854

if.then11:                                        ; preds = %for.body9
  %call12 = call i32 (i8*, ...) @printf(i8* getelementptr inbounds ([2 x i8], [2 x i8]* @.str.9, i64 0, i64 0)), !dbg !2855
  br label %if.end13, !dbg !2855

if.end13:                                         ; preds = %if.then11, %for.body9
  %tags14 = getelementptr inbounds %class.cDisplayString, %class.cDisplayString* %this1, i32 0, i32 2, !dbg !2856
  %12 = load %"struct.cDisplayString::Tag"*, %"struct.cDisplayString::Tag"** %tags14, align 8, !dbg !2856
  %13 = load i32, i32* %t, align 4, !dbg !2857
  %idxprom15 = sext i32 %13 to i64, !dbg !2856
  %arrayidx16 = getelementptr inbounds %"struct.cDisplayString::Tag", %"struct.cDisplayString::Tag"* %12, i64 %idxprom15, !dbg !2856
  %args = getelementptr inbounds %"struct.cDisplayString::Tag", %"struct.cDisplayString::Tag"* %arrayidx16, i32 0, i32 2, !dbg !2858
  %14 = load i32, i32* %i, align 4, !dbg !2859
  %idxprom17 = sext i32 %14 to i64, !dbg !2856
  %arrayidx18 = getelementptr inbounds [16 x i8*], [16 x i8*]* %args, i64 0, i64 %idxprom17, !dbg !2856
  %15 = load i8*, i8** %arrayidx18, align 8, !dbg !2856
  %call19 = call i32 (i8*, ...) @printf(i8* getelementptr inbounds ([5 x i8], [5 x i8]* @.str.12, i64 0, i64 0), i8* %15), !dbg !2860
  br label %for.inc, !dbg !2861

for.inc:                                          ; preds = %if.end13
  %16 = load i32, i32* %i, align 4, !dbg !2862
  %inc = add nsw i32 %16, 1, !dbg !2862
  store i32 %inc, i32* %i, align 4, !dbg !2862
  br label %for.cond4, !dbg !2863, !llvm.loop !2864

for.end:                                          ; preds = %for.cond4
  br label %for.inc20, !dbg !2866

for.inc20:                                        ; preds = %for.end
  %17 = load i32, i32* %t, align 4, !dbg !2867
  %inc21 = add nsw i32 %17, 1, !dbg !2867
  store i32 %inc21, i32* %t, align 4, !dbg !2867
  br label %for.cond, !dbg !2868, !llvm.loop !2869

for.end22:                                        ; preds = %for.cond
  %call23 = call i8* @_ZNK14cDisplayString3strEv(%class.cDisplayString* %this1), !dbg !2871
  %call24 = call i32 (i8*, ...) @printf(i8* getelementptr inbounds ([11 x i8], [11 x i8]* @.str.13, i64 0, i64 0), i8* %call23), !dbg !2872
  ret void, !dbg !2873
}

declare dso_local i32 @printf(i8*, ...) #1

; Function Attrs: nounwind
declare dso_local i8* @strcpy(i8*, i8*) #2

; Function Attrs: nounwind
declare dso_local void @_ZNSt7__cxx1112basic_stringIcSt11char_traitsIcESaIcEED1Ev(%"class.std::__cxx11::basic_string"*) unnamed_addr #2

; Function Attrs: nounwind
declare dso_local void @_ZNSt9exceptionD2Ev(%"class.std::exception"*) unnamed_addr #2

; Function Attrs: noinline nounwind uwtable
define linkonce_odr dso_local void @_ZN10cExceptionD2Ev(%class.cException* %this) unnamed_addr #4 comdat align 2 !dbg !2874 {
entry:
  %this.addr = alloca %class.cException*, align 8
  store %class.cException* %this, %class.cException** %this.addr, align 8
  call void @llvm.dbg.declare(metadata %class.cException** %this.addr, metadata !2938, metadata !DIExpression()), !dbg !2939
  %this1 = load %class.cException*, %class.cException** %this.addr, align 8
  %0 = bitcast %class.cException* %this1 to i32 (...)***, !dbg !2940
  store i32 (...)** bitcast (i8** getelementptr inbounds ({ [13 x i8*] }, { [13 x i8*] }* @_ZTV10cException, i32 0, inrange i32 0, i32 2) to i32 (...)**), i32 (...)*** %0, align 8, !dbg !2940
  %contextfullpath = getelementptr inbounds %class.cException, %class.cException* %this1, i32 0, i32 7, !dbg !2941
  call void @_ZNSt7__cxx1112basic_stringIcSt11char_traitsIcESaIcEED1Ev(%"class.std::__cxx11::basic_string"* %contextfullpath) #3, !dbg !2941
  %contextclassname = getelementptr inbounds %class.cException, %class.cException* %this1, i32 0, i32 6, !dbg !2941
  call void @_ZNSt7__cxx1112basic_stringIcSt11char_traitsIcESaIcEED1Ev(%"class.std::__cxx11::basic_string"* %contextclassname) #3, !dbg !2941
  %msg = getelementptr inbounds %class.cException, %class.cException* %this1, i32 0, i32 3, !dbg !2941
  call void @_ZNSt7__cxx1112basic_stringIcSt11char_traitsIcESaIcEED1Ev(%"class.std::__cxx11::basic_string"* %msg) #3, !dbg !2941
  %1 = bitcast %class.cException* %this1 to %"class.std::exception"*, !dbg !2941
  call void @_ZNSt9exceptionD2Ev(%"class.std::exception"* %1) #3, !dbg !2941
  ret void, !dbg !2943
}

; Function Attrs: noinline nounwind uwtable
define linkonce_odr dso_local void @_ZN10cExceptionD0Ev(%class.cException* %this) unnamed_addr #4 comdat align 2 !dbg !2944 {
entry:
  %this.addr = alloca %class.cException*, align 8
  store %class.cException* %this, %class.cException** %this.addr, align 8
  call void @llvm.dbg.declare(metadata %class.cException** %this.addr, metadata !2945, metadata !DIExpression()), !dbg !2946
  %this1 = load %class.cException*, %class.cException** %this.addr, align 8
  call void @_ZN10cExceptionD2Ev(%class.cException* %this1) #3, !dbg !2947
  %0 = bitcast %class.cException* %this1 to i8*, !dbg !2947
  call void @_ZdlPv(i8* %0) #13, !dbg !2947
  ret void, !dbg !2948
}

; Function Attrs: noinline nounwind uwtable
define linkonce_odr dso_local i8* @_ZNK10cException4whatEv(%class.cException* %this) unnamed_addr #4 comdat align 2 !dbg !2949 {
entry:
  %this.addr = alloca %class.cException*, align 8
  store %class.cException* %this, %class.cException** %this.addr, align 8
  call void @llvm.dbg.declare(metadata %class.cException** %this.addr, metadata !2950, metadata !DIExpression()), !dbg !2952
  %this1 = load %class.cException*, %class.cException** %this.addr, align 8
  %msg = getelementptr inbounds %class.cException, %class.cException* %this1, i32 0, i32 3, !dbg !2953
  %call = call i8* @_ZNKSt7__cxx1112basic_stringIcSt11char_traitsIcESaIcEE5c_strEv(%"class.std::__cxx11::basic_string"* %msg) #3, !dbg !2954
  ret i8* %call, !dbg !2955
}

; Function Attrs: noinline uwtable
define linkonce_odr dso_local %class.cException* @_ZNK10cException3dupEv(%class.cException* %this) unnamed_addr #0 comdat align 2 personality i8* bitcast (i32 (...)* @__gxx_personality_v0 to i8*) !dbg !2956 {
entry:
  %this.addr = alloca %class.cException*, align 8
  %exn.slot = alloca i8*
  %ehselector.slot = alloca i32
  store %class.cException* %this, %class.cException** %this.addr, align 8
  call void @llvm.dbg.declare(metadata %class.cException** %this.addr, metadata !2957, metadata !DIExpression()), !dbg !2958
  %this1 = load %class.cException*, %class.cException** %this.addr, align 8
  %call = call i8* @_Znwm(i64 128) #12, !dbg !2959
  %0 = bitcast i8* %call to %class.cException*, !dbg !2959
  invoke void @_ZN10cExceptionC1ERKS_(%class.cException* %0, %class.cException* dereferenceable(128) %this1)
          to label %invoke.cont unwind label %lpad, !dbg !2960

invoke.cont:                                      ; preds = %entry
  ret %class.cException* %0, !dbg !2961

lpad:                                             ; preds = %entry
  %1 = landingpad { i8*, i32 }
          cleanup, !dbg !2962
  %2 = extractvalue { i8*, i32 } %1, 0, !dbg !2962
  store i8* %2, i8** %exn.slot, align 8, !dbg !2962
  %3 = extractvalue { i8*, i32 } %1, 1, !dbg !2962
  store i32 %3, i32* %ehselector.slot, align 4, !dbg !2962
  call void @_ZdlPv(i8* %call) #13, !dbg !2959
  br label %eh.resume, !dbg !2959

eh.resume:                                        ; preds = %lpad
  %exn = load i8*, i8** %exn.slot, align 8, !dbg !2959
  %sel = load i32, i32* %ehselector.slot, align 4, !dbg !2959
  %lpad.val = insertvalue { i8*, i32 } undef, i8* %exn, 0, !dbg !2959
  %lpad.val2 = insertvalue { i8*, i32 } %lpad.val, i32 %sel, 1, !dbg !2959
  resume { i8*, i32 } %lpad.val2, !dbg !2959
}

; Function Attrs: noinline nounwind uwtable
define linkonce_odr dso_local i32 @_ZNK10cException12getErrorCodeEv(%class.cException* %this) unnamed_addr #4 comdat align 2 !dbg !2963 {
entry:
  %this.addr = alloca %class.cException*, align 8
  store %class.cException* %this, %class.cException** %this.addr, align 8
  call void @llvm.dbg.declare(metadata %class.cException** %this.addr, metadata !2964, metadata !DIExpression()), !dbg !2965
  %this1 = load %class.cException*, %class.cException** %this.addr, align 8
  %errorcode = getelementptr inbounds %class.cException, %class.cException* %this1, i32 0, i32 1, !dbg !2966
  %0 = load i32, i32* %errorcode, align 8, !dbg !2966
  ret i32 %0, !dbg !2967
}

; Function Attrs: noinline uwtable
define linkonce_odr dso_local void @_ZN10cException10setMessageEPKc(%class.cException* %this, i8* %txt) unnamed_addr #0 comdat align 2 !dbg !2968 {
entry:
  %this.addr = alloca %class.cException*, align 8
  %txt.addr = alloca i8*, align 8
  store %class.cException* %this, %class.cException** %this.addr, align 8
  call void @llvm.dbg.declare(metadata %class.cException** %this.addr, metadata !2969, metadata !DIExpression()), !dbg !2970
  store i8* %txt, i8** %txt.addr, align 8
  call void @llvm.dbg.declare(metadata i8** %txt.addr, metadata !2971, metadata !DIExpression()), !dbg !2972
  %this1 = load %class.cException*, %class.cException** %this.addr, align 8
  %0 = load i8*, i8** %txt.addr, align 8, !dbg !2973
  %msg = getelementptr inbounds %class.cException, %class.cException* %this1, i32 0, i32 3, !dbg !2974
  %call = call dereferenceable(32) %"class.std::__cxx11::basic_string"* @_ZNSt7__cxx1112basic_stringIcSt11char_traitsIcESaIcEEaSEPKc(%"class.std::__cxx11::basic_string"* %msg, i8* %0), !dbg !2975
  ret void, !dbg !2976
}

; Function Attrs: noinline uwtable
define linkonce_odr dso_local void @_ZN10cException14prependMessageEPKc(%class.cException* %this, i8* %txt) unnamed_addr #0 comdat align 2 personality i8* bitcast (i32 (...)* @__gxx_personality_v0 to i8*) !dbg !2977 {
entry:
  %this.addr = alloca %class.cException*, align 8
  %txt.addr = alloca i8*, align 8
  %ref.tmp = alloca %"class.std::__cxx11::basic_string", align 8
  %ref.tmp2 = alloca %"class.std::__cxx11::basic_string", align 8
  %ref.tmp3 = alloca %"class.std::__cxx11::basic_string", align 8
  %ref.tmp4 = alloca %"class.std::allocator", align 1
  %exn.slot = alloca i8*
  %ehselector.slot = alloca i32
  store %class.cException* %this, %class.cException** %this.addr, align 8
  call void @llvm.dbg.declare(metadata %class.cException** %this.addr, metadata !2978, metadata !DIExpression()), !dbg !2979
  store i8* %txt, i8** %txt.addr, align 8
  call void @llvm.dbg.declare(metadata i8** %txt.addr, metadata !2980, metadata !DIExpression()), !dbg !2981
  %this1 = load %class.cException*, %class.cException** %this.addr, align 8
  %0 = load i8*, i8** %txt.addr, align 8, !dbg !2982
  call void @_ZNSaIcEC1Ev(%"class.std::allocator"* %ref.tmp4) #3, !dbg !2983
  invoke void @_ZNSt7__cxx1112basic_stringIcSt11char_traitsIcESaIcEEC1EPKcRKS3_(%"class.std::__cxx11::basic_string"* %ref.tmp3, i8* %0, %"class.std::allocator"* dereferenceable(1) %ref.tmp4)
          to label %invoke.cont unwind label %lpad, !dbg !2983

invoke.cont:                                      ; preds = %entry
  invoke void @_ZStplIcSt11char_traitsIcESaIcEENSt7__cxx1112basic_stringIT_T0_T1_EEOS8_PKS5_(%"class.std::__cxx11::basic_string"* sret %ref.tmp2, %"class.std::__cxx11::basic_string"* dereferenceable(32) %ref.tmp3, i8* getelementptr inbounds ([3 x i8], [3 x i8]* @.str.14, i64 0, i64 0))
          to label %invoke.cont6 unwind label %lpad5, !dbg !2984

invoke.cont6:                                     ; preds = %invoke.cont
  %msg = getelementptr inbounds %class.cException, %class.cException* %this1, i32 0, i32 3, !dbg !2985
  invoke void @_ZStplIcSt11char_traitsIcESaIcEENSt7__cxx1112basic_stringIT_T0_T1_EEOS8_RKS8_(%"class.std::__cxx11::basic_string"* sret %ref.tmp, %"class.std::__cxx11::basic_string"* dereferenceable(32) %ref.tmp2, %"class.std::__cxx11::basic_string"* dereferenceable(32) %msg)
          to label %invoke.cont8 unwind label %lpad7, !dbg !2986

invoke.cont8:                                     ; preds = %invoke.cont6
  %msg9 = getelementptr inbounds %class.cException, %class.cException* %this1, i32 0, i32 3, !dbg !2987
  %call = call dereferenceable(32) %"class.std::__cxx11::basic_string"* @_ZNSt7__cxx1112basic_stringIcSt11char_traitsIcESaIcEEaSEOS4_(%"class.std::__cxx11::basic_string"* %msg9, %"class.std::__cxx11::basic_string"* dereferenceable(32) %ref.tmp) #3, !dbg !2988
  call void @_ZNSt7__cxx1112basic_stringIcSt11char_traitsIcESaIcEED1Ev(%"class.std::__cxx11::basic_string"* %ref.tmp) #3, !dbg !2987
  call void @_ZNSt7__cxx1112basic_stringIcSt11char_traitsIcESaIcEED1Ev(%"class.std::__cxx11::basic_string"* %ref.tmp2) #3, !dbg !2987
  call void @_ZNSt7__cxx1112basic_stringIcSt11char_traitsIcESaIcEED1Ev(%"class.std::__cxx11::basic_string"* %ref.tmp3) #3, !dbg !2987
  call void @_ZNSaIcED1Ev(%"class.std::allocator"* %ref.tmp4) #3, !dbg !2987
  ret void, !dbg !2989

lpad:                                             ; preds = %entry
  %1 = landingpad { i8*, i32 }
          cleanup, !dbg !2989
  %2 = extractvalue { i8*, i32 } %1, 0, !dbg !2989
  store i8* %2, i8** %exn.slot, align 8, !dbg !2989
  %3 = extractvalue { i8*, i32 } %1, 1, !dbg !2989
  store i32 %3, i32* %ehselector.slot, align 4, !dbg !2989
  br label %ehcleanup10, !dbg !2989

lpad5:                                            ; preds = %invoke.cont
  %4 = landingpad { i8*, i32 }
          cleanup, !dbg !2989
  %5 = extractvalue { i8*, i32 } %4, 0, !dbg !2989
  store i8* %5, i8** %exn.slot, align 8, !dbg !2989
  %6 = extractvalue { i8*, i32 } %4, 1, !dbg !2989
  store i32 %6, i32* %ehselector.slot, align 4, !dbg !2989
  br label %ehcleanup, !dbg !2989

lpad7:                                            ; preds = %invoke.cont6
  %7 = landingpad { i8*, i32 }
          cleanup, !dbg !2989
  %8 = extractvalue { i8*, i32 } %7, 0, !dbg !2989
  store i8* %8, i8** %exn.slot, align 8, !dbg !2989
  %9 = extractvalue { i8*, i32 } %7, 1, !dbg !2989
  store i32 %9, i32* %ehselector.slot, align 4, !dbg !2989
  call void @_ZNSt7__cxx1112basic_stringIcSt11char_traitsIcESaIcEED1Ev(%"class.std::__cxx11::basic_string"* %ref.tmp2) #3, !dbg !2987
  br label %ehcleanup, !dbg !2987

ehcleanup:                                        ; preds = %lpad7, %lpad5
  call void @_ZNSt7__cxx1112basic_stringIcSt11char_traitsIcESaIcEED1Ev(%"class.std::__cxx11::basic_string"* %ref.tmp3) #3, !dbg !2987
  br label %ehcleanup10, !dbg !2987

ehcleanup10:                                      ; preds = %ehcleanup, %lpad
  call void @_ZNSaIcED1Ev(%"class.std::allocator"* %ref.tmp4) #3, !dbg !2987
  br label %eh.resume, !dbg !2987

eh.resume:                                        ; preds = %ehcleanup10
  %exn = load i8*, i8** %exn.slot, align 8, !dbg !2987
  %sel = load i32, i32* %ehselector.slot, align 4, !dbg !2987
  %lpad.val = insertvalue { i8*, i32 } undef, i8* %exn, 0, !dbg !2987
  %lpad.val11 = insertvalue { i8*, i32 } %lpad.val, i32 %sel, 1, !dbg !2987
  resume { i8*, i32 } %lpad.val11, !dbg !2987
}

; Function Attrs: noinline nounwind uwtable
define linkonce_odr dso_local zeroext i1 @_ZNK10cException10hasContextEv(%class.cException* %this) unnamed_addr #4 comdat align 2 !dbg !2990 {
entry:
  %this.addr = alloca %class.cException*, align 8
  store %class.cException* %this, %class.cException** %this.addr, align 8
  call void @llvm.dbg.declare(metadata %class.cException** %this.addr, metadata !2991, metadata !DIExpression()), !dbg !2992
  %this1 = load %class.cException*, %class.cException** %this.addr, align 8
  %hascontext = getelementptr inbounds %class.cException, %class.cException* %this1, i32 0, i32 4, !dbg !2993
  %0 = load i8, i8* %hascontext, align 8, !dbg !2993
  %tobool = trunc i8 %0 to i1, !dbg !2993
  ret i1 %tobool, !dbg !2994
}

; Function Attrs: noinline nounwind uwtable
define linkonce_odr dso_local i8* @_ZNK10cException19getContextClassNameEv(%class.cException* %this) unnamed_addr #4 comdat align 2 !dbg !2995 {
entry:
  %this.addr = alloca %class.cException*, align 8
  store %class.cException* %this, %class.cException** %this.addr, align 8
  call void @llvm.dbg.declare(metadata %class.cException** %this.addr, metadata !2996, metadata !DIExpression()), !dbg !2997
  %this1 = load %class.cException*, %class.cException** %this.addr, align 8
  %contextclassname = getelementptr inbounds %class.cException, %class.cException* %this1, i32 0, i32 6, !dbg !2998
  %call = call i8* @_ZNKSt7__cxx1112basic_stringIcSt11char_traitsIcESaIcEE5c_strEv(%"class.std::__cxx11::basic_string"* %contextclassname) #3, !dbg !2999
  ret i8* %call, !dbg !3000
}

; Function Attrs: noinline nounwind uwtable
define linkonce_odr dso_local i8* @_ZNK10cException18getContextFullPathEv(%class.cException* %this) unnamed_addr #4 comdat align 2 !dbg !3001 {
entry:
  %this.addr = alloca %class.cException*, align 8
  store %class.cException* %this, %class.cException** %this.addr, align 8
  call void @llvm.dbg.declare(metadata %class.cException** %this.addr, metadata !3002, metadata !DIExpression()), !dbg !3003
  %this1 = load %class.cException*, %class.cException** %this.addr, align 8
  %contextfullpath = getelementptr inbounds %class.cException, %class.cException* %this1, i32 0, i32 7, !dbg !3004
  %call = call i8* @_ZNKSt7__cxx1112basic_stringIcSt11char_traitsIcESaIcEE5c_strEv(%"class.std::__cxx11::basic_string"* %contextfullpath) #3, !dbg !3005
  ret i8* %call, !dbg !3006
}

; Function Attrs: noinline nounwind uwtable
define linkonce_odr dso_local i32 @_ZNK10cException11getModuleIDEv(%class.cException* %this) unnamed_addr #4 comdat align 2 !dbg !3007 {
entry:
  %this.addr = alloca %class.cException*, align 8
  store %class.cException* %this, %class.cException** %this.addr, align 8
  call void @llvm.dbg.declare(metadata %class.cException** %this.addr, metadata !3008, metadata !DIExpression()), !dbg !3009
  %this1 = load %class.cException*, %class.cException** %this.addr, align 8
  %moduleid = getelementptr inbounds %class.cException, %class.cException* %this1, i32 0, i32 8, !dbg !3010
  %0 = load i32, i32* %moduleid, align 8, !dbg !3010
  ret i32 %0, !dbg !3011
}

; Function Attrs: nobuiltin nounwind
declare dso_local void @_ZdlPv(i8*) #6

; Function Attrs: nounwind
declare dso_local i8* @_ZNKSt7__cxx1112basic_stringIcSt11char_traitsIcESaIcEE5c_strEv(%"class.std::__cxx11::basic_string"*) #2

; Function Attrs: nobuiltin
declare dso_local noalias i8* @_Znwm(i64) #8

declare dso_local void @_ZN10cExceptionC1ERKS_(%class.cException*, %class.cException* dereferenceable(128)) unnamed_addr #1

declare dso_local dereferenceable(32) %"class.std::__cxx11::basic_string"* @_ZNSt7__cxx1112basic_stringIcSt11char_traitsIcESaIcEEaSEPKc(%"class.std::__cxx11::basic_string"*, i8*) #1

; Function Attrs: noinline uwtable
define linkonce_odr dso_local void @_ZStplIcSt11char_traitsIcESaIcEENSt7__cxx1112basic_stringIT_T0_T1_EEOS8_RKS8_(%"class.std::__cxx11::basic_string"* noalias sret %agg.result, %"class.std::__cxx11::basic_string"* dereferenceable(32) %__lhs, %"class.std::__cxx11::basic_string"* dereferenceable(32) %__rhs) #0 comdat !dbg !3012 {
entry:
  %result.ptr = alloca i8*, align 8
  %__lhs.addr = alloca %"class.std::__cxx11::basic_string"*, align 8
  %__rhs.addr = alloca %"class.std::__cxx11::basic_string"*, align 8
  %0 = bitcast %"class.std::__cxx11::basic_string"* %agg.result to i8*
  store i8* %0, i8** %result.ptr, align 8
  store %"class.std::__cxx11::basic_string"* %__lhs, %"class.std::__cxx11::basic_string"** %__lhs.addr, align 8
  call void @llvm.dbg.declare(metadata %"class.std::__cxx11::basic_string"** %__lhs.addr, metadata !3077, metadata !DIExpression()), !dbg !3078
  store %"class.std::__cxx11::basic_string"* %__rhs, %"class.std::__cxx11::basic_string"** %__rhs.addr, align 8
  call void @llvm.dbg.declare(metadata %"class.std::__cxx11::basic_string"** %__rhs.addr, metadata !3079, metadata !DIExpression()), !dbg !3080
  %1 = load %"class.std::__cxx11::basic_string"*, %"class.std::__cxx11::basic_string"** %__lhs.addr, align 8, !dbg !3081
  %2 = load %"class.std::__cxx11::basic_string"*, %"class.std::__cxx11::basic_string"** %__rhs.addr, align 8, !dbg !3082
  %call = call dereferenceable(32) %"class.std::__cxx11::basic_string"* @_ZNSt7__cxx1112basic_stringIcSt11char_traitsIcESaIcEE6appendERKS4_(%"class.std::__cxx11::basic_string"* %1, %"class.std::__cxx11::basic_string"* dereferenceable(32) %2), !dbg !3083
  %call1 = call dereferenceable(32) %"class.std::__cxx11::basic_string"* @_ZSt4moveIRNSt7__cxx1112basic_stringIcSt11char_traitsIcESaIcEEEEONSt16remove_referenceIT_E4typeEOS8_(%"class.std::__cxx11::basic_string"* dereferenceable(32) %call) #3, !dbg !3084
  call void @_ZNSt7__cxx1112basic_stringIcSt11char_traitsIcESaIcEEC1EOS4_(%"class.std::__cxx11::basic_string"* %agg.result, %"class.std::__cxx11::basic_string"* dereferenceable(32) %call1) #3, !dbg !3084
  ret void, !dbg !3085
}

; Function Attrs: noinline uwtable
define linkonce_odr dso_local void @_ZStplIcSt11char_traitsIcESaIcEENSt7__cxx1112basic_stringIT_T0_T1_EEOS8_PKS5_(%"class.std::__cxx11::basic_string"* noalias sret %agg.result, %"class.std::__cxx11::basic_string"* dereferenceable(32) %__lhs, i8* %__rhs) #0 comdat !dbg !3086 {
entry:
  %result.ptr = alloca i8*, align 8
  %__lhs.addr = alloca %"class.std::__cxx11::basic_string"*, align 8
  %__rhs.addr = alloca i8*, align 8
  %0 = bitcast %"class.std::__cxx11::basic_string"* %agg.result to i8*
  store i8* %0, i8** %result.ptr, align 8
  store %"class.std::__cxx11::basic_string"* %__lhs, %"class.std::__cxx11::basic_string"** %__lhs.addr, align 8
  call void @llvm.dbg.declare(metadata %"class.std::__cxx11::basic_string"** %__lhs.addr, metadata !3089, metadata !DIExpression()), !dbg !3090
  store i8* %__rhs, i8** %__rhs.addr, align 8
  call void @llvm.dbg.declare(metadata i8** %__rhs.addr, metadata !3091, metadata !DIExpression()), !dbg !3092
  %1 = load %"class.std::__cxx11::basic_string"*, %"class.std::__cxx11::basic_string"** %__lhs.addr, align 8, !dbg !3093
  %2 = load i8*, i8** %__rhs.addr, align 8, !dbg !3094
  %call = call dereferenceable(32) %"class.std::__cxx11::basic_string"* @_ZNSt7__cxx1112basic_stringIcSt11char_traitsIcESaIcEE6appendEPKc(%"class.std::__cxx11::basic_string"* %1, i8* %2), !dbg !3095
  %call1 = call dereferenceable(32) %"class.std::__cxx11::basic_string"* @_ZSt4moveIRNSt7__cxx1112basic_stringIcSt11char_traitsIcESaIcEEEEONSt16remove_referenceIT_E4typeEOS8_(%"class.std::__cxx11::basic_string"* dereferenceable(32) %call) #3, !dbg !3096
  call void @_ZNSt7__cxx1112basic_stringIcSt11char_traitsIcESaIcEEC1EOS4_(%"class.std::__cxx11::basic_string"* %agg.result, %"class.std::__cxx11::basic_string"* dereferenceable(32) %call1) #3, !dbg !3096
  ret void, !dbg !3097
}

; Function Attrs: nounwind
declare dso_local void @_ZNSaIcEC1Ev(%"class.std::allocator"*) unnamed_addr #2

declare dso_local void @_ZNSt7__cxx1112basic_stringIcSt11char_traitsIcESaIcEEC1EPKcRKS3_(%"class.std::__cxx11::basic_string"*, i8*, %"class.std::allocator"* dereferenceable(1)) unnamed_addr #1

; Function Attrs: nounwind
declare dso_local dereferenceable(32) %"class.std::__cxx11::basic_string"* @_ZNSt7__cxx1112basic_stringIcSt11char_traitsIcESaIcEEaSEOS4_(%"class.std::__cxx11::basic_string"*, %"class.std::__cxx11::basic_string"* dereferenceable(32)) #2

; Function Attrs: nounwind
declare dso_local void @_ZNSaIcED1Ev(%"class.std::allocator"*) unnamed_addr #2

; Function Attrs: noinline nounwind uwtable
define linkonce_odr dso_local dereferenceable(32) %"class.std::__cxx11::basic_string"* @_ZSt4moveIRNSt7__cxx1112basic_stringIcSt11char_traitsIcESaIcEEEEONSt16remove_referenceIT_E4typeEOS8_(%"class.std::__cxx11::basic_string"* dereferenceable(32) %__t) #4 comdat !dbg !3098 {
entry:
  %__t.addr = alloca %"class.std::__cxx11::basic_string"*, align 8
  store %"class.std::__cxx11::basic_string"* %__t, %"class.std::__cxx11::basic_string"** %__t.addr, align 8
  call void @llvm.dbg.declare(metadata %"class.std::__cxx11::basic_string"** %__t.addr, metadata !3109, metadata !DIExpression()), !dbg !3110
  %0 = load %"class.std::__cxx11::basic_string"*, %"class.std::__cxx11::basic_string"** %__t.addr, align 8, !dbg !3111
  ret %"class.std::__cxx11::basic_string"* %0, !dbg !3112
}

declare dso_local dereferenceable(32) %"class.std::__cxx11::basic_string"* @_ZNSt7__cxx1112basic_stringIcSt11char_traitsIcESaIcEE6appendERKS4_(%"class.std::__cxx11::basic_string"*, %"class.std::__cxx11::basic_string"* dereferenceable(32)) #1

; Function Attrs: nounwind
declare dso_local void @_ZNSt7__cxx1112basic_stringIcSt11char_traitsIcESaIcEEC1EOS4_(%"class.std::__cxx11::basic_string"*, %"class.std::__cxx11::basic_string"* dereferenceable(32)) unnamed_addr #2

declare dso_local dereferenceable(32) %"class.std::__cxx11::basic_string"* @_ZNSt7__cxx1112basic_stringIcSt11char_traitsIcESaIcEE6appendEPKc(%"class.std::__cxx11::basic_string"*, i8*) #1

; Function Attrs: nounwind readonly
declare dso_local i32 @isalnum(i32) #10

; Function Attrs: noinline uwtable
define internal void @_GLOBAL__sub_I_cdisplaystring.cc() #0 section ".text.startup" !dbg !3113 {
entry:
  call void @__cxx_global_var_init(), !dbg !3115
  ret void
}

attributes #0 = { noinline uwtable "correctly-rounded-divide-sqrt-fp-math"="false" "disable-tail-calls"="false" "frame-pointer"="all" "less-precise-fpmad"="false" "min-legal-vector-width"="0" "no-infs-fp-math"="false" "no-jump-tables"="false" "no-nans-fp-math"="false" "no-signed-zeros-fp-math"="false" "no-trapping-math"="false" "stack-protector-buffer-size"="8" "target-cpu"="x86-64" "target-features"="+cx8,+fxsr,+mmx,+sse,+sse2,+x87" "unsafe-fp-math"="false" "use-soft-float"="false" }
attributes #1 = { "correctly-rounded-divide-sqrt-fp-math"="false" "disable-tail-calls"="false" "frame-pointer"="all" "less-precise-fpmad"="false" "no-infs-fp-math"="false" "no-nans-fp-math"="false" "no-signed-zeros-fp-math"="false" "no-trapping-math"="false" "stack-protector-buffer-size"="8" "target-cpu"="x86-64" "target-features"="+cx8,+fxsr,+mmx,+sse,+sse2,+x87" "unsafe-fp-math"="false" "use-soft-float"="false" }
attributes #2 = { nounwind "correctly-rounded-divide-sqrt-fp-math"="false" "disable-tail-calls"="false" "frame-pointer"="all" "less-precise-fpmad"="false" "no-infs-fp-math"="false" "no-nans-fp-math"="false" "no-signed-zeros-fp-math"="false" "no-trapping-math"="false" "stack-protector-buffer-size"="8" "target-cpu"="x86-64" "target-features"="+cx8,+fxsr,+mmx,+sse,+sse2,+x87" "unsafe-fp-math"="false" "use-soft-float"="false" }
attributes #3 = { nounwind }
attributes #4 = { noinline nounwind uwtable "correctly-rounded-divide-sqrt-fp-math"="false" "disable-tail-calls"="false" "frame-pointer"="all" "less-precise-fpmad"="false" "min-legal-vector-width"="0" "no-infs-fp-math"="false" "no-jump-tables"="false" "no-nans-fp-math"="false" "no-signed-zeros-fp-math"="false" "no-trapping-math"="false" "stack-protector-buffer-size"="8" "target-cpu"="x86-64" "target-features"="+cx8,+fxsr,+mmx,+sse,+sse2,+x87" "unsafe-fp-math"="false" "use-soft-float"="false" }
attributes #5 = { nounwind readnone speculatable willreturn }
attributes #6 = { nobuiltin nounwind "correctly-rounded-divide-sqrt-fp-math"="false" "disable-tail-calls"="false" "frame-pointer"="all" "less-precise-fpmad"="false" "no-infs-fp-math"="false" "no-nans-fp-math"="false" "no-signed-zeros-fp-math"="false" "no-trapping-math"="false" "stack-protector-buffer-size"="8" "target-cpu"="x86-64" "target-features"="+cx8,+fxsr,+mmx,+sse,+sse2,+x87" "unsafe-fp-math"="false" "use-soft-float"="false" }
attributes #7 = { noinline noreturn nounwind }
attributes #8 = { nobuiltin "correctly-rounded-divide-sqrt-fp-math"="false" "disable-tail-calls"="false" "frame-pointer"="all" "less-precise-fpmad"="false" "no-infs-fp-math"="false" "no-nans-fp-math"="false" "no-signed-zeros-fp-math"="false" "no-trapping-math"="false" "stack-protector-buffer-size"="8" "target-cpu"="x86-64" "target-features"="+cx8,+fxsr,+mmx,+sse,+sse2,+x87" "unsafe-fp-math"="false" "use-soft-float"="false" }
attributes #9 = { argmemonly nounwind willreturn }
attributes #10 = { nounwind readonly "correctly-rounded-divide-sqrt-fp-math"="false" "disable-tail-calls"="false" "frame-pointer"="all" "less-precise-fpmad"="false" "no-infs-fp-math"="false" "no-nans-fp-math"="false" "no-signed-zeros-fp-math"="false" "no-trapping-math"="false" "stack-protector-buffer-size"="8" "target-cpu"="x86-64" "target-features"="+cx8,+fxsr,+mmx,+sse,+sse2,+x87" "unsafe-fp-math"="false" "use-soft-float"="false" }
attributes #11 = { nounwind readonly }
attributes #12 = { builtin }
attributes #13 = { builtin nounwind }
attributes #14 = { noreturn }
attributes #15 = { noreturn nounwind }

!llvm.dbg.cu = !{!28}
!llvm.module.flags = !{!1461, !1462, !1463}
!llvm.ident = !{!1464}

!0 = !DIGlobalVariableExpression(var: !1, expr: !DIExpression())
!1 = distinct !DIGlobalVariable(name: "__ioinit", linkageName: "_ZStL8__ioinit", scope: !2, file: !3, line: 74, type: !4, isLocal: true, isDefinition: true)
!2 = !DINamespace(name: "std", scope: null)
!3 = !DIFile(filename: "/usr/lib/gcc/x86_64-linux-gnu/10/../../../../include/c++/10/iostream", directory: "")
!4 = distinct !DICompositeType(tag: DW_TAG_class_type, name: "Init", scope: !6, file: !5, line: 603, size: 8, flags: DIFlagTypePassByReference | DIFlagNonTrivial, elements: !7, identifier: "_ZTSNSt8ios_base4InitE")
!5 = !DIFile(filename: "/usr/lib/gcc/x86_64-linux-gnu/10/../../../../include/c++/10/bits/ios_base.h", directory: "")
!6 = !DICompositeType(tag: DW_TAG_class_type, name: "ios_base", scope: !2, file: !5, line: 228, flags: DIFlagFwdDecl)
!7 = !{!8, !12, !14, !18, !19, !24}
!8 = !DIDerivedType(tag: DW_TAG_member, name: "_S_refcount", scope: !4, file: !5, line: 616, baseType: !9, flags: DIFlagStaticMember)
!9 = !DIDerivedType(tag: DW_TAG_typedef, name: "_Atomic_word", file: !10, line: 32, baseType: !11)
!10 = !DIFile(filename: "/usr/lib/gcc/x86_64-linux-gnu/10/../../../../include/x86_64-linux-gnu/c++/10/bits/atomic_word.h", directory: "")
!11 = !DIBasicType(name: "int", size: 32, encoding: DW_ATE_signed)
!12 = !DIDerivedType(tag: DW_TAG_member, name: "_S_synced_with_stdio", scope: !4, file: !5, line: 617, baseType: !13, flags: DIFlagStaticMember)
!13 = !DIBasicType(name: "bool", size: 8, encoding: DW_ATE_boolean)
!14 = !DISubprogram(name: "Init", scope: !4, file: !5, line: 607, type: !15, scopeLine: 607, flags: DIFlagPublic | DIFlagPrototyped, spFlags: 0)
!15 = !DISubroutineType(types: !16)
!16 = !{null, !17}
!17 = !DIDerivedType(tag: DW_TAG_pointer_type, baseType: !4, size: 64, flags: DIFlagArtificial | DIFlagObjectPointer)
!18 = !DISubprogram(name: "~Init", scope: !4, file: !5, line: 608, type: !15, scopeLine: 608, flags: DIFlagPublic | DIFlagPrototyped, spFlags: 0)
!19 = !DISubprogram(name: "Init", scope: !4, file: !5, line: 611, type: !20, scopeLine: 611, flags: DIFlagPublic | DIFlagPrototyped, spFlags: 0)
!20 = !DISubroutineType(types: !21)
!21 = !{null, !17, !22}
!22 = !DIDerivedType(tag: DW_TAG_reference_type, baseType: !23, size: 64)
!23 = !DIDerivedType(tag: DW_TAG_const_type, baseType: !4)
!24 = !DISubprogram(name: "operator=", linkageName: "_ZNSt8ios_base4InitaSERKS0_", scope: !4, file: !5, line: 612, type: !25, scopeLine: 612, flags: DIFlagPublic | DIFlagPrototyped, spFlags: 0)
!25 = !DISubroutineType(types: !26)
!26 = !{!27, !17, !22}
!27 = !DIDerivedType(tag: DW_TAG_reference_type, baseType: !4, size: 64)
!28 = distinct !DICompileUnit(language: DW_LANG_C_plus_plus_14, file: !29, producer: "clang version 10.0.1 (https://github.com/svkeerthy/IR2Vec-LoopOptimizationFramework.git 561ac470e63b728263a0ac06ef987886ac648486)", isOptimized: false, runtimeVersion: 0, emissionKind: FullDebug, enums: !30, retainedTypes: !196, globals: !204, imports: !205, splitDebugInlining: false, nameTableKind: None)
!29 = !DIFile(filename: "simulator/cdisplaystring.cc", directory: "/home/venkat/IF-DV/spec_build_release/CPU_2017/benchspec/CPU/520.omnetpp_r/build/build_base_ld-loop-ext-m64.0000")
!30 = !{!31, !151}
!31 = !DICompositeType(tag: DW_TAG_enumeration_type, scope: !33, file: !32, line: 65, baseType: !148, size: 32, elements: !149, identifier: "_ZTSN14cDisplayStringUt_E")
!32 = !DIFile(filename: "simulator/cdisplaystring.h", directory: "/home/venkat/IF-DV/spec_build_release/CPU_2017/benchspec/CPU/520.omnetpp_r/build/build_base_ld-loop-ext-m64.0000")
!33 = distinct !DICompositeType(tag: DW_TAG_class_type, name: "cDisplayString", file: !32, line: 62, size: 448, flags: DIFlagTypePassByReference | DIFlagNonTrivial, elements: !34, identifier: "_ZTS14cDisplayString")
!34 = !{!35, !38, !39, !53, !54, !55, !56, !60, !64, !69, !74, !75, !78, !81, !82, !85, !86, !87, !90, !94, !95, !99, !102, !105, !106, !107, !108, !109, !110, !113, !114, !117, !120, !124, !127, !130, !133, !136, !139, !142, !145}
!35 = !DIDerivedType(tag: DW_TAG_member, name: "buffer", scope: !33, file: !32, line: 75, baseType: !36, size: 64)
!36 = !DIDerivedType(tag: DW_TAG_pointer_type, baseType: !37, size: 64)
!37 = !DIBasicType(name: "char", size: 8, encoding: DW_ATE_signed_char)
!38 = !DIDerivedType(tag: DW_TAG_member, name: "bufferend", scope: !33, file: !32, line: 76, baseType: !36, size: 64, offset: 64)
!39 = !DIDerivedType(tag: DW_TAG_member, name: "tags", scope: !33, file: !32, line: 77, baseType: !40, size: 64, offset: 128)
!40 = !DIDerivedType(tag: DW_TAG_pointer_type, baseType: !41, size: 64)
!41 = distinct !DICompositeType(tag: DW_TAG_structure_type, name: "Tag", scope: !33, file: !32, line: 68, size: 1152, flags: DIFlagTypePassByValue | DIFlagNonTrivial, elements: !42, identifier: "_ZTSN14cDisplayString3TagE")
!42 = !{!43, !44, !45, !49}
!43 = !DIDerivedType(tag: DW_TAG_member, name: "name", scope: !41, file: !32, line: 69, baseType: !36, size: 64)
!44 = !DIDerivedType(tag: DW_TAG_member, name: "numargs", scope: !41, file: !32, line: 70, baseType: !11, size: 32, offset: 64)
!45 = !DIDerivedType(tag: DW_TAG_member, name: "args", scope: !41, file: !32, line: 71, baseType: !46, size: 1024, offset: 128)
!46 = !DICompositeType(tag: DW_TAG_array_type, baseType: !36, size: 1024, elements: !47)
!47 = !{!48}
!48 = !DISubrange(count: 16)
!49 = !DISubprogram(name: "Tag", scope: !41, file: !32, line: 72, type: !50, scopeLine: 72, flags: DIFlagPrototyped, spFlags: 0)
!50 = !DISubroutineType(types: !51)
!51 = !{null, !52}
!52 = !DIDerivedType(tag: DW_TAG_pointer_type, baseType: !41, size: 64, flags: DIFlagArtificial | DIFlagObjectPointer)
!53 = !DIDerivedType(tag: DW_TAG_member, name: "numtags", scope: !33, file: !32, line: 78, baseType: !11, size: 32, offset: 192)
!54 = !DIDerivedType(tag: DW_TAG_member, name: "dispstr", scope: !33, file: !32, line: 80, baseType: !36, size: 64, offset: 256)
!55 = !DIDerivedType(tag: DW_TAG_member, name: "needsassemble", scope: !33, file: !32, line: 81, baseType: !13, size: 8, offset: 320)
!56 = !DIDerivedType(tag: DW_TAG_member, name: "object", scope: !33, file: !32, line: 84, baseType: !57, size: 64, offset: 384)
!57 = !DIDerivedType(tag: DW_TAG_pointer_type, baseType: !58, size: 64)
!58 = !DICompositeType(tag: DW_TAG_class_type, name: "cComponent", file: !59, line: 41, flags: DIFlagFwdDecl)
!59 = !DIFile(filename: "simulator/ccomponent.h", directory: "/home/venkat/IF-DV/spec_build_release/CPU_2017/benchspec/CPU/520.omnetpp_r/build/build_base_ld-loop-ext-m64.0000")
!60 = !DISubprogram(name: "parse", linkageName: "_ZN14cDisplayString5parseEv", scope: !33, file: !32, line: 88, type: !61, scopeLine: 88, flags: DIFlagPrototyped, spFlags: 0)
!61 = !DISubroutineType(types: !62)
!62 = !{null, !63}
!63 = !DIDerivedType(tag: DW_TAG_pointer_type, baseType: !33, size: 64, flags: DIFlagArtificial | DIFlagObjectPointer)
!64 = !DISubprogram(name: "assemble", linkageName: "_ZNK14cDisplayString8assembleEv", scope: !33, file: !32, line: 89, type: !65, scopeLine: 89, flags: DIFlagPrototyped, spFlags: 0)
!65 = !DISubroutineType(types: !66)
!66 = !{null, !67}
!67 = !DIDerivedType(tag: DW_TAG_pointer_type, baseType: !68, size: 64, flags: DIFlagArtificial | DIFlagObjectPointer)
!68 = !DIDerivedType(tag: DW_TAG_const_type, baseType: !33)
!69 = !DISubprogram(name: "gettagindex", linkageName: "_ZNK14cDisplayString11gettagindexEPKc", scope: !33, file: !32, line: 90, type: !70, scopeLine: 90, flags: DIFlagPrototyped, spFlags: 0)
!70 = !DISubroutineType(types: !71)
!71 = !{!11, !67, !72}
!72 = !DIDerivedType(tag: DW_TAG_pointer_type, baseType: !73, size: 64)
!73 = !DIDerivedType(tag: DW_TAG_const_type, baseType: !37)
!74 = !DISubprogram(name: "cleartags", linkageName: "_ZN14cDisplayString9cleartagsEv", scope: !33, file: !32, line: 91, type: !61, scopeLine: 91, flags: DIFlagPrototyped, spFlags: 0)
!75 = !DISubprogram(name: "isinbuffer", linkageName: "_ZNK14cDisplayString10isinbufferEPc", scope: !33, file: !32, line: 92, type: !76, scopeLine: 92, flags: DIFlagPrototyped, spFlags: 0)
!76 = !DISubroutineType(types: !77)
!77 = !{!13, !67, !36}
!78 = !DISubprogram(name: "strcatescaped", linkageName: "_ZN14cDisplayString13strcatescapedEPcPKc", scope: !33, file: !32, line: 93, type: !79, scopeLine: 93, flags: DIFlagPrototyped | DIFlagStaticMember, spFlags: 0)
!79 = !DISubroutineType(types: !80)
!80 = !{null, !36, !72}
!81 = !DISubprogram(name: "notify", linkageName: "_ZN14cDisplayString6notifyEv", scope: !33, file: !32, line: 97, type: !61, scopeLine: 97, flags: DIFlagPrototyped, spFlags: 0)
!82 = !DISubprogram(name: "setHostObject", linkageName: "_ZN14cDisplayString13setHostObjectEP10cComponent", scope: !33, file: !32, line: 101, type: !83, scopeLine: 101, flags: DIFlagPublic | DIFlagPrototyped, spFlags: 0)
!83 = !DISubroutineType(types: !84)
!84 = !{null, !63, !57}
!85 = !DISubprogram(name: "dump", linkageName: "_ZNK14cDisplayString4dumpEv", scope: !33, file: !32, line: 102, type: !65, scopeLine: 102, flags: DIFlagPublic | DIFlagPrototyped, spFlags: 0)
!86 = !DISubprogram(name: "cDisplayString", scope: !33, file: !32, line: 111, type: !61, scopeLine: 111, flags: DIFlagPublic | DIFlagPrototyped, spFlags: 0)
!87 = !DISubprogram(name: "cDisplayString", scope: !33, file: !32, line: 116, type: !88, scopeLine: 116, flags: DIFlagPublic | DIFlagPrototyped, spFlags: 0)
!88 = !DISubroutineType(types: !89)
!89 = !{null, !63, !72}
!90 = !DISubprogram(name: "cDisplayString", scope: !33, file: !32, line: 121, type: !91, scopeLine: 121, flags: DIFlagPublic | DIFlagPrototyped, spFlags: 0)
!91 = !DISubroutineType(types: !92)
!92 = !{null, !63, !93}
!93 = !DIDerivedType(tag: DW_TAG_reference_type, baseType: !68, size: 64)
!94 = !DISubprogram(name: "~cDisplayString", scope: !33, file: !32, line: 126, type: !61, scopeLine: 126, flags: DIFlagPublic | DIFlagPrototyped, spFlags: 0)
!95 = !DISubprogram(name: "operator=", linkageName: "_ZN14cDisplayStringaSERKS_", scope: !33, file: !32, line: 134, type: !96, scopeLine: 134, flags: DIFlagPublic | DIFlagPrototyped, spFlags: 0)
!96 = !DISubroutineType(types: !97)
!97 = !{!98, !63, !93}
!98 = !DIDerivedType(tag: DW_TAG_reference_type, baseType: !33, size: 64)
!99 = !DISubprogram(name: "operator=", linkageName: "_ZN14cDisplayStringaSEPKc", scope: !33, file: !32, line: 139, type: !100, scopeLine: 139, flags: DIFlagPublic | DIFlagPrototyped, spFlags: 0)
!100 = !DISubroutineType(types: !101)
!101 = !{!98, !63, !72}
!102 = !DISubprogram(name: "operator const char *", linkageName: "_ZNK14cDisplayStringcvPKcEv", scope: !33, file: !32, line: 144, type: !103, scopeLine: 144, flags: DIFlagPublic | DIFlagPrototyped, spFlags: 0)
!103 = !DISubroutineType(types: !104)
!104 = !{!72, !67}
!105 = !DISubprogram(name: "str", linkageName: "_ZNK14cDisplayString3strEv", scope: !33, file: !32, line: 153, type: !103, scopeLine: 153, flags: DIFlagPublic | DIFlagPrototyped, spFlags: 0)
!106 = !DISubprogram(name: "set", linkageName: "_ZN14cDisplayString3setEPKc", scope: !33, file: !32, line: 158, type: !88, scopeLine: 158, flags: DIFlagPublic | DIFlagPrototyped, spFlags: 0)
!107 = !DISubprogram(name: "parse", linkageName: "_ZN14cDisplayString5parseEPKc", scope: !33, file: !32, line: 164, type: !88, scopeLine: 164, flags: DIFlagPublic | DIFlagPrototyped, spFlags: 0)
!108 = !DISubprogram(name: "updateWith", linkageName: "_ZN14cDisplayString10updateWithERKS_", scope: !33, file: !32, line: 170, type: !91, scopeLine: 170, flags: DIFlagPublic | DIFlagPrototyped, spFlags: 0)
!109 = !DISubprogram(name: "updateWith", linkageName: "_ZN14cDisplayString10updateWithEPKc", scope: !33, file: !32, line: 176, type: !88, scopeLine: 176, flags: DIFlagPublic | DIFlagPrototyped, spFlags: 0)
!110 = !DISubprogram(name: "containsTag", linkageName: "_ZNK14cDisplayString11containsTagEPKc", scope: !33, file: !32, line: 185, type: !111, scopeLine: 185, flags: DIFlagPublic | DIFlagPrototyped, spFlags: 0)
!111 = !DISubroutineType(types: !112)
!112 = !{!13, !67, !72}
!113 = !DISubprogram(name: "getNumArgs", linkageName: "_ZNK14cDisplayString10getNumArgsEPKc", scope: !33, file: !32, line: 194, type: !70, scopeLine: 194, flags: DIFlagPublic | DIFlagPrototyped, spFlags: 0)
!114 = !DISubprogram(name: "getTagArg", linkageName: "_ZNK14cDisplayString9getTagArgEPKci", scope: !33, file: !32, line: 201, type: !115, scopeLine: 201, flags: DIFlagPublic | DIFlagPrototyped, spFlags: 0)
!115 = !DISubroutineType(types: !116)
!116 = !{!72, !67, !72, !11}
!117 = !DISubprogram(name: "setTagArg", linkageName: "_ZN14cDisplayString9setTagArgEPKciS1_", scope: !33, file: !32, line: 212, type: !118, scopeLine: 212, flags: DIFlagPublic | DIFlagPrototyped, spFlags: 0)
!118 = !DISubroutineType(types: !119)
!119 = !{!13, !63, !72, !11, !72}
!120 = !DISubprogram(name: "setTagArg", linkageName: "_ZN14cDisplayString9setTagArgEPKcil", scope: !33, file: !32, line: 218, type: !121, scopeLine: 218, flags: DIFlagPublic | DIFlagPrototyped, spFlags: 0)
!121 = !DISubroutineType(types: !122)
!122 = !{!13, !63, !72, !11, !123}
!123 = !DIBasicType(name: "long int", size: 64, encoding: DW_ATE_signed)
!124 = !DISubprogram(name: "removeTag", linkageName: "_ZN14cDisplayString9removeTagEPKc", scope: !33, file: !32, line: 225, type: !125, scopeLine: 225, flags: DIFlagPublic | DIFlagPrototyped, spFlags: 0)
!125 = !DISubroutineType(types: !126)
!126 = !{!13, !63, !72}
!127 = !DISubprogram(name: "getNumTags", linkageName: "_ZNK14cDisplayString10getNumTagsEv", scope: !33, file: !32, line: 235, type: !128, scopeLine: 235, flags: DIFlagPublic | DIFlagPrototyped, spFlags: 0)
!128 = !DISubroutineType(types: !129)
!129 = !{!11, !67}
!130 = !DISubprogram(name: "getTagName", linkageName: "_ZNK14cDisplayString10getTagNameEi", scope: !33, file: !32, line: 241, type: !131, scopeLine: 241, flags: DIFlagPublic | DIFlagPrototyped, spFlags: 0)
!131 = !DISubroutineType(types: !132)
!132 = !{!72, !67, !11}
!133 = !DISubprogram(name: "getNumArgs", linkageName: "_ZNK14cDisplayString10getNumArgsEi", scope: !33, file: !32, line: 250, type: !134, scopeLine: 250, flags: DIFlagPublic | DIFlagPrototyped, spFlags: 0)
!134 = !DISubroutineType(types: !135)
!135 = !{!11, !67, !11}
!136 = !DISubprogram(name: "getTagArg", linkageName: "_ZNK14cDisplayString9getTagArgEii", scope: !33, file: !32, line: 257, type: !137, scopeLine: 257, flags: DIFlagPublic | DIFlagPrototyped, spFlags: 0)
!137 = !DISubroutineType(types: !138)
!138 = !{!72, !67, !11, !11}
!139 = !DISubprogram(name: "setTagArg", linkageName: "_ZN14cDisplayString9setTagArgEiiPKc", scope: !33, file: !32, line: 268, type: !140, scopeLine: 268, flags: DIFlagPublic | DIFlagPrototyped, spFlags: 0)
!140 = !DISubroutineType(types: !141)
!141 = !{!13, !63, !11, !11, !72}
!142 = !DISubprogram(name: "insertTag", linkageName: "_ZN14cDisplayString9insertTagEPKci", scope: !33, file: !32, line: 277, type: !143, scopeLine: 277, flags: DIFlagPublic | DIFlagPrototyped, spFlags: 0)
!143 = !DISubroutineType(types: !144)
!144 = !{!11, !63, !72, !11}
!145 = !DISubprogram(name: "removeTag", linkageName: "_ZN14cDisplayString9removeTagEi", scope: !33, file: !32, line: 284, type: !146, scopeLine: 284, flags: DIFlagPublic | DIFlagPrototyped, spFlags: 0)
!146 = !DISubroutineType(types: !147)
!147 = !{!13, !63, !11}
!148 = !DIBasicType(name: "unsigned int", size: 32, encoding: DW_ATE_unsigned)
!149 = !{!150}
!150 = !DIEnumerator(name: "MAXARGS", value: 16, isUnsigned: true)
!151 = !DICompositeType(tag: DW_TAG_enumeration_type, name: "OppErrorCode", file: !152, line: 28, baseType: !148, size: 32, elements: !153, identifier: "_ZTS12OppErrorCode")
!152 = !DIFile(filename: "simulator/errmsg.h", directory: "/home/venkat/IF-DV/spec_build_release/CPU_2017/benchspec/CPU/520.omnetpp_r/build/build_base_ld-loop-ext-m64.0000")
!153 = !{!154, !155, !156, !157, !158, !159, !160, !161, !162, !163, !164, !165, !166, !167, !168, !169, !170, !171, !172, !173, !174, !175, !176, !177, !178, !179, !180, !181, !182, !183, !184, !185, !186, !187, !188, !189, !190, !191, !192, !193, !194, !195}
!154 = !DIEnumerator(name: "eOK", value: 0, isUnsigned: true)
!155 = !DIEnumerator(name: "eBACKSCHED", value: 1, isUnsigned: true)
!156 = !DIEnumerator(name: "eBADCAST", value: 2, isUnsigned: true)
!157 = !DIEnumerator(name: "eBADEXP", value: 3, isUnsigned: true)
!158 = !DIEnumerator(name: "eBADINIT", value: 4, isUnsigned: true)
!159 = !DIEnumerator(name: "eCANCEL", value: 5, isUnsigned: true)
!160 = !DIEnumerator(name: "eCANTCOPY", value: 6, isUnsigned: true)
!161 = !DIEnumerator(name: "eCANTDUP", value: 7, isUnsigned: true)
!162 = !DIEnumerator(name: "eCANTPACK", value: 8, isUnsigned: true)
!163 = !DIEnumerator(name: "eCUSTOM", value: 9, isUnsigned: true)
!164 = !DIEnumerator(name: "eDIMLESS", value: 10, isUnsigned: true)
!165 = !DIEnumerator(name: "eEBADARGS", value: 11, isUnsigned: true)
!166 = !DIEnumerator(name: "eECANTCAST", value: 12, isUnsigned: true)
!167 = !DIEnumerator(name: "eENDEDOK", value: 13, isUnsigned: true)
!168 = !DIEnumerator(name: "eENDSIM", value: 14, isUnsigned: true)
!169 = !DIEnumerator(name: "eENOPARENT", value: 15, isUnsigned: true)
!170 = !DIEnumerator(name: "eESTKOFLOW", value: 16, isUnsigned: true)
!171 = !DIEnumerator(name: "eESTKUFLOW", value: 17, isUnsigned: true)
!172 = !DIEnumerator(name: "eFINISH", value: 18, isUnsigned: true)
!173 = !DIEnumerator(name: "eGATEID", value: 19, isUnsigned: true)
!174 = !DIEnumerator(name: "eINFLOOP", value: 20, isUnsigned: true)
!175 = !DIEnumerator(name: "eLOCKED", value: 21, isUnsigned: true)
!176 = !DIEnumerator(name: "eMODFIN", value: 22, isUnsigned: true)
!177 = !DIEnumerator(name: "eMODINI", value: 23, isUnsigned: true)
!178 = !DIEnumerator(name: "eNEGTIME", value: 24, isUnsigned: true)
!179 = !DIEnumerator(name: "eNEGTOUT", value: 25, isUnsigned: true)
!180 = !DIEnumerator(name: "eNOCHANDEF", value: 26, isUnsigned: true)
!181 = !DIEnumerator(name: "eNONET", value: 27, isUnsigned: true)
!182 = !DIEnumerator(name: "eNOPARENTMOD", value: 28, isUnsigned: true)
!183 = !DIEnumerator(name: "eNOPARSIM", value: 29, isUnsigned: true)
!184 = !DIEnumerator(name: "eNORECV", value: 30, isUnsigned: true)
!185 = !DIEnumerator(name: "eNOSUCHNET", value: 31, isUnsigned: true)
!186 = !DIEnumerator(name: "eNUMARGS", value: 32, isUnsigned: true)
!187 = !DIEnumerator(name: "ePARAM", value: 33, isUnsigned: true)
!188 = !DIEnumerator(name: "ePARAMSNOTREADY", value: 34, isUnsigned: true)
!189 = !DIEnumerator(name: "eREALTIME", value: 35, isUnsigned: true)
!190 = !DIEnumerator(name: "eSIMTIME", value: 36, isUnsigned: true)
!191 = !DIEnumerator(name: "eSTATECHG", value: 37, isUnsigned: true)
!192 = !DIEnumerator(name: "eSTKLOW", value: 38, isUnsigned: true)
!193 = !DIEnumerator(name: "eSTOPSIMRCVD", value: 39, isUnsigned: true)
!194 = !DIEnumerator(name: "eUSER", value: 40, isUnsigned: true)
!195 = !DIEnumerator(name: "eWRONGSIM", value: 41, isUnsigned: true)
!196 = !{!197, !199}
!197 = !DICompositeType(tag: DW_TAG_class_type, name: "cRuntimeError", file: !198, line: 221, flags: DIFlagFwdDecl, identifier: "_ZTS13cRuntimeError")
!198 = !DIFile(filename: "simulator/cexception.h", directory: "/home/venkat/IF-DV/spec_build_release/CPU_2017/benchspec/CPU/520.omnetpp_r/build/build_base_ld-loop-ext-m64.0000")
!199 = !DIDerivedType(tag: DW_TAG_typedef, name: "string", scope: !2, file: !200, line: 79, baseType: !201)
!200 = !DIFile(filename: "/usr/lib/gcc/x86_64-linux-gnu/10/../../../../include/c++/10/bits/stringfwd.h", directory: "")
!201 = !DICompositeType(tag: DW_TAG_class_type, name: "basic_string<char, std::char_traits<char>, std::allocator<char> >", scope: !203, file: !202, line: 1618, flags: DIFlagFwdDecl, identifier: "_ZTSNSt7__cxx1112basic_stringIcSt11char_traitsIcESaIcEEE")
!202 = !DIFile(filename: "/usr/lib/gcc/x86_64-linux-gnu/10/../../../../include/c++/10/bits/basic_string.tcc", directory: "")
!203 = !DINamespace(name: "__cxx11", scope: !2, exportSymbols: true)
!204 = !{!0}
!205 = !{!206, !223, !226, !231, !240, !248, !252, !259, !263, !267, !269, !271, !275, !285, !289, !295, !301, !303, !307, !311, !315, !319, !331, !333, !337, !341, !345, !347, !352, !356, !360, !362, !364, !368, !376, !380, !384, !388, !390, !396, !398, !405, !410, !414, !418, !422, !426, !430, !432, !434, !438, !442, !446, !448, !452, !456, !458, !460, !464, !470, !475, !480, !481, !482, !483, !484, !485, !486, !487, !488, !489, !490, !545, !549, !553, !560, !564, !567, !570, !573, !575, !577, !579, !582, !585, !588, !591, !594, !596, !601, !605, !608, !611, !613, !615, !617, !619, !622, !625, !628, !631, !634, !636, !640, !644, !649, !655, !657, !659, !661, !663, !665, !667, !669, !671, !673, !675, !677, !679, !681, !685, !689, !695, !699, !704, !706, !710, !714, !718, !728, !732, !736, !740, !744, !748, !752, !756, !760, !764, !768, !772, !776, !778, !782, !786, !790, !796, !800, !804, !806, !810, !814, !820, !822, !826, !830, !834, !838, !842, !846, !850, !851, !852, !853, !855, !856, !857, !858, !859, !860, !861, !865, !871, !876, !880, !882, !884, !886, !888, !895, !899, !903, !907, !911, !915, !920, !924, !926, !930, !936, !940, !945, !947, !949, !953, !957, !959, !961, !963, !965, !969, !971, !973, !977, !981, !985, !989, !993, !997, !999, !1003, !1007, !1011, !1015, !1017, !1019, !1023, !1027, !1028, !1029, !1030, !1031, !1032, !1038, !1041, !1042, !1044, !1046, !1048, !1050, !1054, !1056, !1058, !1060, !1062, !1064, !1066, !1068, !1070, !1074, !1078, !1080, !1084, !1088, !1094, !1096, !1098, !1102, !1104, !1106, !1108, !1110, !1112, !1114, !1116, !1121, !1125, !1127, !1129, !1134, !1136, !1138, !1140, !1142, !1144, !1146, !1149, !1151, !1153, !1157, !1161, !1163, !1165, !1167, !1169, !1171, !1173, !1175, !1177, !1179, !1181, !1185, !1189, !1191, !1193, !1195, !1197, !1199, !1201, !1203, !1205, !1207, !1209, !1211, !1213, !1215, !1217, !1219, !1223, !1227, !1231, !1233, !1235, !1237, !1239, !1241, !1243, !1245, !1247, !1249, !1253, !1257, !1261, !1263, !1265, !1267, !1271, !1275, !1279, !1281, !1283, !1285, !1287, !1289, !1291, !1293, !1295, !1297, !1299, !1301, !1303, !1307, !1311, !1315, !1317, !1319, !1321, !1323, !1327, !1331, !1333, !1335, !1337, !1339, !1341, !1343, !1347, !1351, !1353, !1355, !1357, !1359, !1363, !1367, !1371, !1373, !1375, !1377, !1379, !1381, !1383, !1387, !1391, !1395, !1397, !1401, !1405, !1407, !1409, !1411, !1413, !1415, !1417, !1423, !1428, !1430, !1431, !1432, !1433, !1434, !1435, !1436, !1437, !1438, !1439, !1440, !1441, !1442, !1443, !1444, !1445, !1446, !1447, !1448, !1449, !1450, !1451, !1452, !1453, !1454, !1455, !1456, !1457, !1458, !1459, !1460}
!206 = !DIImportedEntity(tag: DW_TAG_imported_declaration, scope: !2, entity: !207, file: !222, line: 64)
!207 = !DIDerivedType(tag: DW_TAG_typedef, name: "mbstate_t", file: !208, line: 6, baseType: !209)
!208 = !DIFile(filename: "/usr/include/x86_64-linux-gnu/bits/types/mbstate_t.h", directory: "")
!209 = !DIDerivedType(tag: DW_TAG_typedef, name: "__mbstate_t", file: !210, line: 21, baseType: !211)
!210 = !DIFile(filename: "/usr/include/x86_64-linux-gnu/bits/types/__mbstate_t.h", directory: "")
!211 = distinct !DICompositeType(tag: DW_TAG_structure_type, file: !210, line: 13, size: 64, flags: DIFlagTypePassByValue, elements: !212, identifier: "_ZTS11__mbstate_t")
!212 = !{!213, !214}
!213 = !DIDerivedType(tag: DW_TAG_member, name: "__count", scope: !211, file: !210, line: 15, baseType: !11, size: 32)
!214 = !DIDerivedType(tag: DW_TAG_member, name: "__value", scope: !211, file: !210, line: 20, baseType: !215, size: 32, offset: 32)
!215 = distinct !DICompositeType(tag: DW_TAG_union_type, scope: !211, file: !210, line: 16, size: 32, flags: DIFlagTypePassByValue, elements: !216, identifier: "_ZTSN11__mbstate_tUt_E")
!216 = !{!217, !218}
!217 = !DIDerivedType(tag: DW_TAG_member, name: "__wch", scope: !215, file: !210, line: 18, baseType: !148, size: 32)
!218 = !DIDerivedType(tag: DW_TAG_member, name: "__wchb", scope: !215, file: !210, line: 19, baseType: !219, size: 32)
!219 = !DICompositeType(tag: DW_TAG_array_type, baseType: !37, size: 32, elements: !220)
!220 = !{!221}
!221 = !DISubrange(count: 4)
!222 = !DIFile(filename: "/usr/lib/gcc/x86_64-linux-gnu/10/../../../../include/c++/10/cwchar", directory: "")
!223 = !DIImportedEntity(tag: DW_TAG_imported_declaration, scope: !2, entity: !224, file: !222, line: 141)
!224 = !DIDerivedType(tag: DW_TAG_typedef, name: "wint_t", file: !225, line: 20, baseType: !148)
!225 = !DIFile(filename: "/usr/include/x86_64-linux-gnu/bits/types/wint_t.h", directory: "")
!226 = !DIImportedEntity(tag: DW_TAG_imported_declaration, scope: !2, entity: !227, file: !222, line: 143)
!227 = !DISubprogram(name: "btowc", scope: !228, file: !228, line: 284, type: !229, flags: DIFlagPrototyped, spFlags: 0)
!228 = !DIFile(filename: "/usr/include/wchar.h", directory: "")
!229 = !DISubroutineType(types: !230)
!230 = !{!224, !11}
!231 = !DIImportedEntity(tag: DW_TAG_imported_declaration, scope: !2, entity: !232, file: !222, line: 144)
!232 = !DISubprogram(name: "fgetwc", scope: !228, file: !228, line: 726, type: !233, flags: DIFlagPrototyped, spFlags: 0)
!233 = !DISubroutineType(types: !234)
!234 = !{!224, !235}
!235 = !DIDerivedType(tag: DW_TAG_pointer_type, baseType: !236, size: 64)
!236 = !DIDerivedType(tag: DW_TAG_typedef, name: "__FILE", file: !237, line: 5, baseType: !238)
!237 = !DIFile(filename: "/usr/include/x86_64-linux-gnu/bits/types/__FILE.h", directory: "")
!238 = !DICompositeType(tag: DW_TAG_structure_type, name: "_IO_FILE", file: !239, line: 49, flags: DIFlagFwdDecl, identifier: "_ZTS8_IO_FILE")
!239 = !DIFile(filename: "/usr/include/x86_64-linux-gnu/bits/types/struct_FILE.h", directory: "")
!240 = !DIImportedEntity(tag: DW_TAG_imported_declaration, scope: !2, entity: !241, file: !222, line: 145)
!241 = !DISubprogram(name: "fgetws", scope: !228, file: !228, line: 755, type: !242, flags: DIFlagPrototyped, spFlags: 0)
!242 = !DISubroutineType(types: !243)
!243 = !{!244, !246, !11, !247}
!244 = !DIDerivedType(tag: DW_TAG_pointer_type, baseType: !245, size: 64)
!245 = !DIBasicType(name: "wchar_t", size: 32, encoding: DW_ATE_signed)
!246 = !DIDerivedType(tag: DW_TAG_restrict_type, baseType: !244)
!247 = !DIDerivedType(tag: DW_TAG_restrict_type, baseType: !235)
!248 = !DIImportedEntity(tag: DW_TAG_imported_declaration, scope: !2, entity: !249, file: !222, line: 146)
!249 = !DISubprogram(name: "fputwc", scope: !228, file: !228, line: 740, type: !250, flags: DIFlagPrototyped, spFlags: 0)
!250 = !DISubroutineType(types: !251)
!251 = !{!224, !245, !235}
!252 = !DIImportedEntity(tag: DW_TAG_imported_declaration, scope: !2, entity: !253, file: !222, line: 147)
!253 = !DISubprogram(name: "fputws", scope: !228, file: !228, line: 762, type: !254, flags: DIFlagPrototyped, spFlags: 0)
!254 = !DISubroutineType(types: !255)
!255 = !{!11, !256, !247}
!256 = !DIDerivedType(tag: DW_TAG_restrict_type, baseType: !257)
!257 = !DIDerivedType(tag: DW_TAG_pointer_type, baseType: !258, size: 64)
!258 = !DIDerivedType(tag: DW_TAG_const_type, baseType: !245)
!259 = !DIImportedEntity(tag: DW_TAG_imported_declaration, scope: !2, entity: !260, file: !222, line: 148)
!260 = !DISubprogram(name: "fwide", scope: !228, file: !228, line: 573, type: !261, flags: DIFlagPrototyped, spFlags: 0)
!261 = !DISubroutineType(types: !262)
!262 = !{!11, !235, !11}
!263 = !DIImportedEntity(tag: DW_TAG_imported_declaration, scope: !2, entity: !264, file: !222, line: 149)
!264 = !DISubprogram(name: "fwprintf", scope: !228, file: !228, line: 580, type: !265, flags: DIFlagPrototyped, spFlags: 0)
!265 = !DISubroutineType(types: !266)
!266 = !{!11, !247, !256, null}
!267 = !DIImportedEntity(tag: DW_TAG_imported_declaration, scope: !2, entity: !268, file: !222, line: 150)
!268 = !DISubprogram(name: "fwscanf", linkageName: "__isoc99_fwscanf", scope: !228, file: !228, line: 640, type: !265, flags: DIFlagPrototyped, spFlags: 0)
!269 = !DIImportedEntity(tag: DW_TAG_imported_declaration, scope: !2, entity: !270, file: !222, line: 151)
!270 = !DISubprogram(name: "getwc", scope: !228, file: !228, line: 727, type: !233, flags: DIFlagPrototyped, spFlags: 0)
!271 = !DIImportedEntity(tag: DW_TAG_imported_declaration, scope: !2, entity: !272, file: !222, line: 152)
!272 = !DISubprogram(name: "getwchar", scope: !228, file: !228, line: 733, type: !273, flags: DIFlagPrototyped, spFlags: 0)
!273 = !DISubroutineType(types: !274)
!274 = !{!224}
!275 = !DIImportedEntity(tag: DW_TAG_imported_declaration, scope: !2, entity: !276, file: !222, line: 153)
!276 = !DISubprogram(name: "mbrlen", scope: !228, file: !228, line: 307, type: !277, flags: DIFlagPrototyped, spFlags: 0)
!277 = !DISubroutineType(types: !278)
!278 = !{!279, !282, !279, !283}
!279 = !DIDerivedType(tag: DW_TAG_typedef, name: "size_t", file: !280, line: 46, baseType: !281)
!280 = !DIFile(filename: "Rohit/IR2Vec-LoopOptimizationFramework/build_REL_AsrtON/lib/clang/10.0.1/include/stddef.h", directory: "/home/venkat/IF-DV")
!281 = !DIBasicType(name: "long unsigned int", size: 64, encoding: DW_ATE_unsigned)
!282 = !DIDerivedType(tag: DW_TAG_restrict_type, baseType: !72)
!283 = !DIDerivedType(tag: DW_TAG_restrict_type, baseType: !284)
!284 = !DIDerivedType(tag: DW_TAG_pointer_type, baseType: !207, size: 64)
!285 = !DIImportedEntity(tag: DW_TAG_imported_declaration, scope: !2, entity: !286, file: !222, line: 154)
!286 = !DISubprogram(name: "mbrtowc", scope: !228, file: !228, line: 296, type: !287, flags: DIFlagPrototyped, spFlags: 0)
!287 = !DISubroutineType(types: !288)
!288 = !{!279, !246, !282, !279, !283}
!289 = !DIImportedEntity(tag: DW_TAG_imported_declaration, scope: !2, entity: !290, file: !222, line: 155)
!290 = !DISubprogram(name: "mbsinit", scope: !228, file: !228, line: 292, type: !291, flags: DIFlagPrototyped, spFlags: 0)
!291 = !DISubroutineType(types: !292)
!292 = !{!11, !293}
!293 = !DIDerivedType(tag: DW_TAG_pointer_type, baseType: !294, size: 64)
!294 = !DIDerivedType(tag: DW_TAG_const_type, baseType: !207)
!295 = !DIImportedEntity(tag: DW_TAG_imported_declaration, scope: !2, entity: !296, file: !222, line: 156)
!296 = !DISubprogram(name: "mbsrtowcs", scope: !228, file: !228, line: 337, type: !297, flags: DIFlagPrototyped, spFlags: 0)
!297 = !DISubroutineType(types: !298)
!298 = !{!279, !246, !299, !279, !283}
!299 = !DIDerivedType(tag: DW_TAG_restrict_type, baseType: !300)
!300 = !DIDerivedType(tag: DW_TAG_pointer_type, baseType: !72, size: 64)
!301 = !DIImportedEntity(tag: DW_TAG_imported_declaration, scope: !2, entity: !302, file: !222, line: 157)
!302 = !DISubprogram(name: "putwc", scope: !228, file: !228, line: 741, type: !250, flags: DIFlagPrototyped, spFlags: 0)
!303 = !DIImportedEntity(tag: DW_TAG_imported_declaration, scope: !2, entity: !304, file: !222, line: 158)
!304 = !DISubprogram(name: "putwchar", scope: !228, file: !228, line: 747, type: !305, flags: DIFlagPrototyped, spFlags: 0)
!305 = !DISubroutineType(types: !306)
!306 = !{!224, !245}
!307 = !DIImportedEntity(tag: DW_TAG_imported_declaration, scope: !2, entity: !308, file: !222, line: 160)
!308 = !DISubprogram(name: "swprintf", scope: !228, file: !228, line: 590, type: !309, flags: DIFlagPrototyped, spFlags: 0)
!309 = !DISubroutineType(types: !310)
!310 = !{!11, !246, !279, !256, null}
!311 = !DIImportedEntity(tag: DW_TAG_imported_declaration, scope: !2, entity: !312, file: !222, line: 162)
!312 = !DISubprogram(name: "swscanf", linkageName: "__isoc99_swscanf", scope: !228, file: !228, line: 647, type: !313, flags: DIFlagPrototyped, spFlags: 0)
!313 = !DISubroutineType(types: !314)
!314 = !{!11, !256, !256, null}
!315 = !DIImportedEntity(tag: DW_TAG_imported_declaration, scope: !2, entity: !316, file: !222, line: 163)
!316 = !DISubprogram(name: "ungetwc", scope: !228, file: !228, line: 770, type: !317, flags: DIFlagPrototyped, spFlags: 0)
!317 = !DISubroutineType(types: !318)
!318 = !{!224, !224, !235}
!319 = !DIImportedEntity(tag: DW_TAG_imported_declaration, scope: !2, entity: !320, file: !222, line: 164)
!320 = !DISubprogram(name: "vfwprintf", scope: !228, file: !228, line: 598, type: !321, flags: DIFlagPrototyped, spFlags: 0)
!321 = !DISubroutineType(types: !322)
!322 = !{!11, !247, !256, !323}
!323 = !DIDerivedType(tag: DW_TAG_pointer_type, baseType: !324, size: 64)
!324 = distinct !DICompositeType(tag: DW_TAG_structure_type, name: "__va_list_tag", file: !29, size: 192, flags: DIFlagTypePassByValue, elements: !325, identifier: "_ZTS13__va_list_tag")
!325 = !{!326, !327, !328, !330}
!326 = !DIDerivedType(tag: DW_TAG_member, name: "gp_offset", scope: !324, file: !29, baseType: !148, size: 32)
!327 = !DIDerivedType(tag: DW_TAG_member, name: "fp_offset", scope: !324, file: !29, baseType: !148, size: 32, offset: 32)
!328 = !DIDerivedType(tag: DW_TAG_member, name: "overflow_arg_area", scope: !324, file: !29, baseType: !329, size: 64, offset: 64)
!329 = !DIDerivedType(tag: DW_TAG_pointer_type, baseType: null, size: 64)
!330 = !DIDerivedType(tag: DW_TAG_member, name: "reg_save_area", scope: !324, file: !29, baseType: !329, size: 64, offset: 128)
!331 = !DIImportedEntity(tag: DW_TAG_imported_declaration, scope: !2, entity: !332, file: !222, line: 166)
!332 = !DISubprogram(name: "vfwscanf", linkageName: "__isoc99_vfwscanf", scope: !228, file: !228, line: 693, type: !321, flags: DIFlagPrototyped, spFlags: 0)
!333 = !DIImportedEntity(tag: DW_TAG_imported_declaration, scope: !2, entity: !334, file: !222, line: 169)
!334 = !DISubprogram(name: "vswprintf", scope: !228, file: !228, line: 611, type: !335, flags: DIFlagPrototyped, spFlags: 0)
!335 = !DISubroutineType(types: !336)
!336 = !{!11, !246, !279, !256, !323}
!337 = !DIImportedEntity(tag: DW_TAG_imported_declaration, scope: !2, entity: !338, file: !222, line: 172)
!338 = !DISubprogram(name: "vswscanf", linkageName: "__isoc99_vswscanf", scope: !228, file: !228, line: 700, type: !339, flags: DIFlagPrototyped, spFlags: 0)
!339 = !DISubroutineType(types: !340)
!340 = !{!11, !256, !256, !323}
!341 = !DIImportedEntity(tag: DW_TAG_imported_declaration, scope: !2, entity: !342, file: !222, line: 174)
!342 = !DISubprogram(name: "vwprintf", scope: !228, file: !228, line: 606, type: !343, flags: DIFlagPrototyped, spFlags: 0)
!343 = !DISubroutineType(types: !344)
!344 = !{!11, !256, !323}
!345 = !DIImportedEntity(tag: DW_TAG_imported_declaration, scope: !2, entity: !346, file: !222, line: 176)
!346 = !DISubprogram(name: "vwscanf", linkageName: "__isoc99_vwscanf", scope: !228, file: !228, line: 697, type: !343, flags: DIFlagPrototyped, spFlags: 0)
!347 = !DIImportedEntity(tag: DW_TAG_imported_declaration, scope: !2, entity: !348, file: !222, line: 178)
!348 = !DISubprogram(name: "wcrtomb", scope: !228, file: !228, line: 301, type: !349, flags: DIFlagPrototyped, spFlags: 0)
!349 = !DISubroutineType(types: !350)
!350 = !{!279, !351, !245, !283}
!351 = !DIDerivedType(tag: DW_TAG_restrict_type, baseType: !36)
!352 = !DIImportedEntity(tag: DW_TAG_imported_declaration, scope: !2, entity: !353, file: !222, line: 179)
!353 = !DISubprogram(name: "wcscat", scope: !228, file: !228, line: 97, type: !354, flags: DIFlagPrototyped, spFlags: 0)
!354 = !DISubroutineType(types: !355)
!355 = !{!244, !246, !256}
!356 = !DIImportedEntity(tag: DW_TAG_imported_declaration, scope: !2, entity: !357, file: !222, line: 180)
!357 = !DISubprogram(name: "wcscmp", scope: !228, file: !228, line: 106, type: !358, flags: DIFlagPrototyped, spFlags: 0)
!358 = !DISubroutineType(types: !359)
!359 = !{!11, !257, !257}
!360 = !DIImportedEntity(tag: DW_TAG_imported_declaration, scope: !2, entity: !361, file: !222, line: 181)
!361 = !DISubprogram(name: "wcscoll", scope: !228, file: !228, line: 131, type: !358, flags: DIFlagPrototyped, spFlags: 0)
!362 = !DIImportedEntity(tag: DW_TAG_imported_declaration, scope: !2, entity: !363, file: !222, line: 182)
!363 = !DISubprogram(name: "wcscpy", scope: !228, file: !228, line: 87, type: !354, flags: DIFlagPrototyped, spFlags: 0)
!364 = !DIImportedEntity(tag: DW_TAG_imported_declaration, scope: !2, entity: !365, file: !222, line: 183)
!365 = !DISubprogram(name: "wcscspn", scope: !228, file: !228, line: 187, type: !366, flags: DIFlagPrototyped, spFlags: 0)
!366 = !DISubroutineType(types: !367)
!367 = !{!279, !257, !257}
!368 = !DIImportedEntity(tag: DW_TAG_imported_declaration, scope: !2, entity: !369, file: !222, line: 184)
!369 = !DISubprogram(name: "wcsftime", scope: !228, file: !228, line: 834, type: !370, flags: DIFlagPrototyped, spFlags: 0)
!370 = !DISubroutineType(types: !371)
!371 = !{!279, !246, !279, !256, !372}
!372 = !DIDerivedType(tag: DW_TAG_restrict_type, baseType: !373)
!373 = !DIDerivedType(tag: DW_TAG_pointer_type, baseType: !374, size: 64)
!374 = !DIDerivedType(tag: DW_TAG_const_type, baseType: !375)
!375 = !DICompositeType(tag: DW_TAG_structure_type, name: "tm", file: !228, line: 83, flags: DIFlagFwdDecl, identifier: "_ZTS2tm")
!376 = !DIImportedEntity(tag: DW_TAG_imported_declaration, scope: !2, entity: !377, file: !222, line: 185)
!377 = !DISubprogram(name: "wcslen", scope: !228, file: !228, line: 222, type: !378, flags: DIFlagPrototyped, spFlags: 0)
!378 = !DISubroutineType(types: !379)
!379 = !{!279, !257}
!380 = !DIImportedEntity(tag: DW_TAG_imported_declaration, scope: !2, entity: !381, file: !222, line: 186)
!381 = !DISubprogram(name: "wcsncat", scope: !228, file: !228, line: 101, type: !382, flags: DIFlagPrototyped, spFlags: 0)
!382 = !DISubroutineType(types: !383)
!383 = !{!244, !246, !256, !279}
!384 = !DIImportedEntity(tag: DW_TAG_imported_declaration, scope: !2, entity: !385, file: !222, line: 187)
!385 = !DISubprogram(name: "wcsncmp", scope: !228, file: !228, line: 109, type: !386, flags: DIFlagPrototyped, spFlags: 0)
!386 = !DISubroutineType(types: !387)
!387 = !{!11, !257, !257, !279}
!388 = !DIImportedEntity(tag: DW_TAG_imported_declaration, scope: !2, entity: !389, file: !222, line: 188)
!389 = !DISubprogram(name: "wcsncpy", scope: !228, file: !228, line: 92, type: !382, flags: DIFlagPrototyped, spFlags: 0)
!390 = !DIImportedEntity(tag: DW_TAG_imported_declaration, scope: !2, entity: !391, file: !222, line: 189)
!391 = !DISubprogram(name: "wcsrtombs", scope: !228, file: !228, line: 343, type: !392, flags: DIFlagPrototyped, spFlags: 0)
!392 = !DISubroutineType(types: !393)
!393 = !{!279, !351, !394, !279, !283}
!394 = !DIDerivedType(tag: DW_TAG_restrict_type, baseType: !395)
!395 = !DIDerivedType(tag: DW_TAG_pointer_type, baseType: !257, size: 64)
!396 = !DIImportedEntity(tag: DW_TAG_imported_declaration, scope: !2, entity: !397, file: !222, line: 190)
!397 = !DISubprogram(name: "wcsspn", scope: !228, file: !228, line: 191, type: !366, flags: DIFlagPrototyped, spFlags: 0)
!398 = !DIImportedEntity(tag: DW_TAG_imported_declaration, scope: !2, entity: !399, file: !222, line: 191)
!399 = !DISubprogram(name: "wcstod", scope: !228, file: !228, line: 377, type: !400, flags: DIFlagPrototyped, spFlags: 0)
!400 = !DISubroutineType(types: !401)
!401 = !{!402, !256, !403}
!402 = !DIBasicType(name: "double", size: 64, encoding: DW_ATE_float)
!403 = !DIDerivedType(tag: DW_TAG_restrict_type, baseType: !404)
!404 = !DIDerivedType(tag: DW_TAG_pointer_type, baseType: !244, size: 64)
!405 = !DIImportedEntity(tag: DW_TAG_imported_declaration, scope: !2, entity: !406, file: !222, line: 193)
!406 = !DISubprogram(name: "wcstof", scope: !228, file: !228, line: 382, type: !407, flags: DIFlagPrototyped, spFlags: 0)
!407 = !DISubroutineType(types: !408)
!408 = !{!409, !256, !403}
!409 = !DIBasicType(name: "float", size: 32, encoding: DW_ATE_float)
!410 = !DIImportedEntity(tag: DW_TAG_imported_declaration, scope: !2, entity: !411, file: !222, line: 195)
!411 = !DISubprogram(name: "wcstok", scope: !228, file: !228, line: 217, type: !412, flags: DIFlagPrototyped, spFlags: 0)
!412 = !DISubroutineType(types: !413)
!413 = !{!244, !246, !256, !403}
!414 = !DIImportedEntity(tag: DW_TAG_imported_declaration, scope: !2, entity: !415, file: !222, line: 196)
!415 = !DISubprogram(name: "wcstol", scope: !228, file: !228, line: 428, type: !416, flags: DIFlagPrototyped, spFlags: 0)
!416 = !DISubroutineType(types: !417)
!417 = !{!123, !256, !403, !11}
!418 = !DIImportedEntity(tag: DW_TAG_imported_declaration, scope: !2, entity: !419, file: !222, line: 197)
!419 = !DISubprogram(name: "wcstoul", scope: !228, file: !228, line: 433, type: !420, flags: DIFlagPrototyped, spFlags: 0)
!420 = !DISubroutineType(types: !421)
!421 = !{!281, !256, !403, !11}
!422 = !DIImportedEntity(tag: DW_TAG_imported_declaration, scope: !2, entity: !423, file: !222, line: 198)
!423 = !DISubprogram(name: "wcsxfrm", scope: !228, file: !228, line: 135, type: !424, flags: DIFlagPrototyped, spFlags: 0)
!424 = !DISubroutineType(types: !425)
!425 = !{!279, !246, !256, !279}
!426 = !DIImportedEntity(tag: DW_TAG_imported_declaration, scope: !2, entity: !427, file: !222, line: 199)
!427 = !DISubprogram(name: "wctob", scope: !228, file: !228, line: 288, type: !428, flags: DIFlagPrototyped, spFlags: 0)
!428 = !DISubroutineType(types: !429)
!429 = !{!11, !224}
!430 = !DIImportedEntity(tag: DW_TAG_imported_declaration, scope: !2, entity: !431, file: !222, line: 200)
!431 = !DISubprogram(name: "wmemcmp", scope: !228, file: !228, line: 258, type: !386, flags: DIFlagPrototyped, spFlags: 0)
!432 = !DIImportedEntity(tag: DW_TAG_imported_declaration, scope: !2, entity: !433, file: !222, line: 201)
!433 = !DISubprogram(name: "wmemcpy", scope: !228, file: !228, line: 262, type: !382, flags: DIFlagPrototyped, spFlags: 0)
!434 = !DIImportedEntity(tag: DW_TAG_imported_declaration, scope: !2, entity: !435, file: !222, line: 202)
!435 = !DISubprogram(name: "wmemmove", scope: !228, file: !228, line: 267, type: !436, flags: DIFlagPrototyped, spFlags: 0)
!436 = !DISubroutineType(types: !437)
!437 = !{!244, !244, !257, !279}
!438 = !DIImportedEntity(tag: DW_TAG_imported_declaration, scope: !2, entity: !439, file: !222, line: 203)
!439 = !DISubprogram(name: "wmemset", scope: !228, file: !228, line: 271, type: !440, flags: DIFlagPrototyped, spFlags: 0)
!440 = !DISubroutineType(types: !441)
!441 = !{!244, !244, !245, !279}
!442 = !DIImportedEntity(tag: DW_TAG_imported_declaration, scope: !2, entity: !443, file: !222, line: 204)
!443 = !DISubprogram(name: "wprintf", scope: !228, file: !228, line: 587, type: !444, flags: DIFlagPrototyped, spFlags: 0)
!444 = !DISubroutineType(types: !445)
!445 = !{!11, !256, null}
!446 = !DIImportedEntity(tag: DW_TAG_imported_declaration, scope: !2, entity: !447, file: !222, line: 205)
!447 = !DISubprogram(name: "wscanf", linkageName: "__isoc99_wscanf", scope: !228, file: !228, line: 644, type: !444, flags: DIFlagPrototyped, spFlags: 0)
!448 = !DIImportedEntity(tag: DW_TAG_imported_declaration, scope: !2, entity: !449, file: !222, line: 206)
!449 = !DISubprogram(name: "wcschr", scope: !228, file: !228, line: 164, type: !450, flags: DIFlagPrototyped, spFlags: 0)
!450 = !DISubroutineType(types: !451)
!451 = !{!244, !257, !245}
!452 = !DIImportedEntity(tag: DW_TAG_imported_declaration, scope: !2, entity: !453, file: !222, line: 207)
!453 = !DISubprogram(name: "wcspbrk", scope: !228, file: !228, line: 201, type: !454, flags: DIFlagPrototyped, spFlags: 0)
!454 = !DISubroutineType(types: !455)
!455 = !{!244, !257, !257}
!456 = !DIImportedEntity(tag: DW_TAG_imported_declaration, scope: !2, entity: !457, file: !222, line: 208)
!457 = !DISubprogram(name: "wcsrchr", scope: !228, file: !228, line: 174, type: !450, flags: DIFlagPrototyped, spFlags: 0)
!458 = !DIImportedEntity(tag: DW_TAG_imported_declaration, scope: !2, entity: !459, file: !222, line: 209)
!459 = !DISubprogram(name: "wcsstr", scope: !228, file: !228, line: 212, type: !454, flags: DIFlagPrototyped, spFlags: 0)
!460 = !DIImportedEntity(tag: DW_TAG_imported_declaration, scope: !2, entity: !461, file: !222, line: 210)
!461 = !DISubprogram(name: "wmemchr", scope: !228, file: !228, line: 253, type: !462, flags: DIFlagPrototyped, spFlags: 0)
!462 = !DISubroutineType(types: !463)
!463 = !{!244, !257, !245, !279}
!464 = !DIImportedEntity(tag: DW_TAG_imported_declaration, scope: !465, entity: !466, file: !222, line: 251)
!465 = !DINamespace(name: "__gnu_cxx", scope: null)
!466 = !DISubprogram(name: "wcstold", scope: !228, file: !228, line: 384, type: !467, flags: DIFlagPrototyped, spFlags: 0)
!467 = !DISubroutineType(types: !468)
!468 = !{!469, !256, !403}
!469 = !DIBasicType(name: "long double", size: 128, encoding: DW_ATE_float)
!470 = !DIImportedEntity(tag: DW_TAG_imported_declaration, scope: !465, entity: !471, file: !222, line: 260)
!471 = !DISubprogram(name: "wcstoll", scope: !228, file: !228, line: 441, type: !472, flags: DIFlagPrototyped, spFlags: 0)
!472 = !DISubroutineType(types: !473)
!473 = !{!474, !256, !403, !11}
!474 = !DIBasicType(name: "long long int", size: 64, encoding: DW_ATE_signed)
!475 = !DIImportedEntity(tag: DW_TAG_imported_declaration, scope: !465, entity: !476, file: !222, line: 261)
!476 = !DISubprogram(name: "wcstoull", scope: !228, file: !228, line: 448, type: !477, flags: DIFlagPrototyped, spFlags: 0)
!477 = !DISubroutineType(types: !478)
!478 = !{!479, !256, !403, !11}
