; ModuleID = 'simulator/ctopology.cc'
source_filename = "simulator/ctopology.cc"
target datalayout = "e-m:e-p270:32:32-p271:32:32-p272:64:64-i64:64-f80:128-n8:16:32:64-S128"
target triple = "x86_64-unknown-linux-gnu"

%"class.std::ios_base::Init" = type { i8 }
%class.ExecuteOnStartup = type { void ()*, %class.ExecuteOnStartup* }
%class.cGlobalRegistrationList = type { %class.cRegistrationList*, i8* }
%class.cRegistrationList = type { %class.cNamedObject.base, %"class.std::vector.9", %"class.std::map", %"class.std::map" }
%class.cNamedObject.base = type <{ %class.cObject, i8*, i16, i16 }>
%class.cObject = type { i32 (...)** }
%"class.std::vector.9" = type { %"struct.std::_Vector_base.10" }
%"struct.std::_Vector_base.10" = type { %"struct.std::_Vector_base<cOwnedObject *, std::allocator<cOwnedObject *> >::_Vector_impl" }
%"struct.std::_Vector_base<cOwnedObject *, std::allocator<cOwnedObject *> >::_Vector_impl" = type { %"struct.std::_Vector_base<cOwnedObject *, std::allocator<cOwnedObject *> >::_Vector_impl_data" }
%"struct.std::_Vector_base<cOwnedObject *, std::allocator<cOwnedObject *> >::_Vector_impl_data" = type { %class.cOwnedObject**, %class.cOwnedObject**, %class.cOwnedObject** }
%class.cOwnedObject = type <{ %class.cNamedObject.base, [4 x i8], %class.cObject*, i32, [4 x i8] }>
%"class.std::map" = type { %"class.std::_Rb_tree" }
%"class.std::_Rb_tree" = type { %"struct.std::_Rb_tree<std::__cxx11::basic_string<char>, std::pair<const std::__cxx11::basic_string<char>, cOwnedObject *>, std::_Select1st<std::pair<const std::__cxx11::basic_string<char>, cOwnedObject *> >, std::less<std::__cxx11::basic_string<char> >, std::allocator<std::pair<const std::__cxx11::basic_string<char>, cOwnedObject *> > >::_Rb_tree_impl" }
%"struct.std::_Rb_tree<std::__cxx11::basic_string<char>, std::pair<const std::__cxx11::basic_string<char>, cOwnedObject *>, std::_Select1st<std::pair<const std::__cxx11::basic_string<char>, cOwnedObject *> >, std::less<std::__cxx11::basic_string<char> >, std::allocator<std::pair<const std::__cxx11::basic_string<char>, cOwnedObject *> > >::_Rb_tree_impl" = type { %"struct.std::_Rb_tree_key_compare", %"struct.std::_Rb_tree_header" }
%"struct.std::_Rb_tree_key_compare" = type { %"struct.std::less" }
%"struct.std::less" = type { i8 }
%"struct.std::_Rb_tree_header" = type { %"struct.std::_Rb_tree_node_base", i64 }
%"struct.std::_Rb_tree_node_base" = type { i32, %"struct.std::_Rb_tree_node_base"*, %"struct.std::_Rb_tree_node_base"*, %"struct.std::_Rb_tree_node_base"* }
%class.cSimulation = type { %class.cNoncopyableOwnedObject.base, i32, i32, %class.cModule**, i32, %class.cEnvir*, %class.cModule*, %class.cSimpleModule*, %class.cComponent*, i32, %class.cModuleType*, %class.cScheduler*, %class.SimTime, i64, %class.cMessage*, %class.cException*, %class.cHasher*, %class.cMessageHeap }
%class.cNoncopyableOwnedObject.base = type { %class.cOwnedObject.base }
%class.cOwnedObject.base = type <{ %class.cNamedObject.base, [4 x i8], %class.cObject*, i32 }>
%class.cEnvir = type { i32 (...)**, i8, i8, i8, %"class.std::basic_ostream" }
%"class.std::basic_ostream" = type { i32 (...)**, %"class.std::basic_ios" }
%"class.std::basic_ios" = type { %"class.std::ios_base", %"class.std::basic_ostream"*, i8, i8, %"class.std::basic_streambuf"*, %"class.std::ctype"*, %"class.std::num_put"*, %"class.std::num_get"* }
%"class.std::ios_base" = type { i32 (...)**, i64, i64, i32, i32, i32, %"struct.std::ios_base::_Callback_list"*, %"struct.std::ios_base::_Words", [8 x %"struct.std::ios_base::_Words"], i32, %"struct.std::ios_base::_Words"*, %"class.std::locale" }
%"struct.std::ios_base::_Callback_list" = type { %"struct.std::ios_base::_Callback_list"*, void (i32, %"class.std::ios_base"*, i32)*, i32, i32 }
%"struct.std::ios_base::_Words" = type { i8*, i64 }
%"class.std::locale" = type { %"class.std::locale::_Impl"* }
%"class.std::locale::_Impl" = type { i32, %"class.std::locale::facet"**, i64, %"class.std::locale::facet"**, i8** }
%"class.std::locale::facet" = type <{ i32 (...)**, i32, [4 x i8] }>
%"class.std::basic_streambuf" = type { i32 (...)**, i8*, i8*, i8*, i8*, i8*, i8*, %"class.std::locale" }
%"class.std::ctype" = type <{ %"class.std::locale::facet.base", [4 x i8], %struct.__locale_struct*, i8, [7 x i8], i32*, i32*, i16*, i8, [256 x i8], [256 x i8], i8, [6 x i8] }>
%"class.std::locale::facet.base" = type <{ i32 (...)**, i32 }>
%struct.__locale_struct = type { [13 x %struct.__locale_data*], i16*, i32*, i32*, [13 x i8*] }
%struct.__locale_data = type opaque
%"class.std::num_put" = type { %"class.std::locale::facet.base", [4 x i8] }
%"class.std::num_get" = type { %"class.std::locale::facet.base", [4 x i8] }
%class.cModule = type { %class.cComponent, i8*, i32, %class.cModule*, %class.cModule*, %class.cModule*, %class.cModule*, i32, %"struct.cGate::Desc"*, i32, i32 }
%class.cComponent = type { %class.cDefaultList, %class.cComponentType*, i16, i32*, i16, i16, %class.cPar*, %class.cDisplayString* }
%class.cDefaultList = type { %class.cNoncopyableOwnedObject.base, %class.cOwnedObject**, i32, i32 }
%class.cComponentType = type opaque
%class.cPar = type { %class.cObject, %class.cComponent*, %class.cParImpl* }
%class.cParImpl = type opaque
%class.cDisplayString = type opaque
%"struct.cGate::Desc" = type { %class.cModule*, %"struct.cGate::Name"*, i32, %union.anon.3, %union.anon.4 }
%"struct.cGate::Name" = type <{ %class.opp_string, %class.opp_string, %class.opp_string, i32, [4 x i8] }>
%class.opp_string = type { i8* }
%union.anon.3 = type { %class.cGate* }
%class.cGate = type { %class.cObject, %"struct.cGate::Desc"*, i32, %class.cChannel*, %class.cGate*, %class.cGate* }
%class.cChannel = type opaque
%union.anon.4 = type { %class.cGate* }
%class.cSimpleModule = type opaque
%class.cModuleType = type opaque
%class.cScheduler = type opaque
%class.SimTime = type { i64 }
%class.cMessage = type opaque
%class.cException = type <{ %"class.std::exception", i32, [4 x i8], %"class.std::__cxx11::basic_string", i8, [7 x i8], %"class.std::__cxx11::basic_string", %"class.std::__cxx11::basic_string", i32, [4 x i8] }>
%"class.std::exception" = type { i32 (...)** }
%"class.std::__cxx11::basic_string" = type { %"struct.std::__cxx11::basic_string<char, std::char_traits<char>, std::allocator<char> >::_Alloc_hider", i64, %union.anon }
%"struct.std::__cxx11::basic_string<char, std::char_traits<char>, std::allocator<char> >::_Alloc_hider" = type { i8* }
%union.anon = type { i64, [8 x i8] }
%class.cHasher = type opaque
%class.cMessageHeap = type { %class.cOwnedObject.base, %class.cMessage**, i32, i32, i64 }
%class.cTopology = type { %class.cOwnedObject.base, i32, %"class.cTopology::Node"*, %"class.cTopology::Node"* }
%"class.cTopology::Node" = type { i32, double, i8, i32, %"class.cTopology::Link"**, i32, %"class.cTopology::Link"*, i8, double, %"class.cTopology::Link"* }
%"class.cTopology::Link" = type <{ %"class.cTopology::Node"*, i32, [4 x i8], %"class.cTopology::Node"*, i32, [4 x i8], double, i8, [7 x i8] }>
%class.cClassFactory = type { %class.cNoncopyableOwnedObject.base, %class.cObject* ()*, %"class.std::__cxx11::basic_string" }
%"class.std::type_info" = type { i32 (...)**, i8* }
%"class.cTopology::LinkIn" = type { %"class.cTopology::Link.base", [7 x i8] }
%"class.cTopology::Link.base" = type <{ %"class.cTopology::Node"*, i32, [4 x i8], %"class.cTopology::Node"*, i32, [4 x i8], double, i8 }>
%class.cRuntimeError = type { %class.cException.base, [4 x i8] }
%class.cException.base = type <{ %"class.std::exception", i32, [4 x i8], %"class.std::__cxx11::basic_string", i8, [7 x i8], %"class.std::__cxx11::basic_string", %"class.std::__cxx11::basic_string", i32 }>
%"class.cTopology::LinkOut" = type { %"class.cTopology::Link.base", [7 x i8] }
%class.cNamedObject = type <{ %class.cObject, i8*, i16, i16, [4 x i8] }>
%"class.std::__cxx11::basic_stringstream" = type { %"class.std::basic_iostream.base", %"class.std::__cxx11::basic_stringbuf", %"class.std::basic_ios" }
%"class.std::basic_iostream.base" = type { %"class.std::basic_istream.base", %"class.std::basic_ostream.base" }
%"class.std::basic_istream.base" = type { i32 (...)**, i64 }
%"class.std::basic_ostream.base" = type { i32 (...)** }
%"class.std::__cxx11::basic_stringbuf" = type { %"class.std::basic_streambuf", i32, %"class.std::__cxx11::basic_string" }
%class.cCommBuffer = type opaque
%"class.std::vector" = type { %"struct.std::_Vector_base" }
%"struct.std::_Vector_base" = type { %"struct.std::_Vector_base<std::__cxx11::basic_string<char>, std::allocator<std::__cxx11::basic_string<char> > >::_Vector_impl" }
%"struct.std::_Vector_base<std::__cxx11::basic_string<char>, std::allocator<std::__cxx11::basic_string<char> > >::_Vector_impl" = type { %"struct.std::_Vector_base<std::__cxx11::basic_string<char>, std::allocator<std::__cxx11::basic_string<char> > >::_Vector_impl_data" }
%"struct.std::_Vector_base<std::__cxx11::basic_string<char>, std::allocator<std::__cxx11::basic_string<char> > >::_Vector_impl_data" = type { %"class.std::__cxx11::basic_string"*, %"class.std::__cxx11::basic_string"*, %"class.std::__cxx11::basic_string"* }
%"class.cModule::GateIterator" = type <{ %class.cModule*, i32, i8, [3 x i8], i32, [4 x i8] }>
%class.PatternMatcher = type { %"class.std::vector.17", i8, %"class.std::__cxx11::basic_string" }
%"class.std::vector.17" = type { %"struct.std::_Vector_base.18" }
%"struct.std::_Vector_base.18" = type { %"struct.std::_Vector_base<PatternMatcher::Elem, std::allocator<PatternMatcher::Elem> >::_Vector_impl" }
%"struct.std::_Vector_base<PatternMatcher::Elem, std::allocator<PatternMatcher::Elem> >::_Vector_impl" = type { %"struct.std::_Vector_base<PatternMatcher::Elem, std::allocator<PatternMatcher::Elem> >::_Vector_impl_data" }
%"struct.std::_Vector_base<PatternMatcher::Elem, std::allocator<PatternMatcher::Elem> >::_Vector_impl_data" = type { %"struct.PatternMatcher::Elem"*, %"struct.PatternMatcher::Elem"*, %"struct.PatternMatcher::Elem"* }
%"struct.PatternMatcher::Elem" = type { i32, %"class.std::__cxx11::basic_string", %"class.std::__cxx11::basic_string", i64, i64 }
%"class.__gnu_cxx::__normal_iterator" = type { %"class.std::__cxx11::basic_string"* }
%struct.anon = type { i8*, i8* }
%struct.ParamData = type { i8*, i8* }
%class.cProperty = type { %class.cNamedObject.base, %class.cProperties*, i8*, i8*, %"class.std::vector.27", %"class.std::vector.32" }
%class.cProperties = type { %class.cObject, i8, i32, %"class.std::vector.22" }
%"class.std::vector.22" = type { %"struct.std::_Vector_base.23" }
%"struct.std::_Vector_base.23" = type { %"struct.std::_Vector_base<cProperty *, std::allocator<cProperty *> >::_Vector_impl" }
%"struct.std::_Vector_base<cProperty *, std::allocator<cProperty *> >::_Vector_impl" = type { %"struct.std::_Vector_base<cProperty *, std::allocator<cProperty *> >::_Vector_impl_data" }
%"struct.std::_Vector_base<cProperty *, std::allocator<cProperty *> >::_Vector_impl_data" = type { %class.cProperty**, %class.cProperty**, %class.cProperty** }
%"class.std::vector.27" = type { %"struct.std::_Vector_base.28" }
%"struct.std::_Vector_base.28" = type { %"struct.std::_Vector_base<const char *, std::allocator<const char *> >::_Vector_impl" }
%"struct.std::_Vector_base<const char *, std::allocator<const char *> >::_Vector_impl" = type { %"struct.std::_Vector_base<const char *, std::allocator<const char *> >::_Vector_impl_data" }
%"struct.std::_Vector_base<const char *, std::allocator<const char *> >::_Vector_impl_data" = type { i8**, i8**, i8** }
%"class.std::vector.32" = type { %"struct.std::_Vector_base.33" }
%"struct.std::_Vector_base.33" = type { %"struct.std::_Vector_base<std::vector<const char *, std::allocator<const char *> >, std::allocator<std::vector<const char *, std::allocator<const char *> > > >::_Vector_impl" }
%"struct.std::_Vector_base<std::vector<const char *, std::allocator<const char *> >, std::allocator<std::vector<const char *, std::allocator<const char *> > > >::_Vector_impl" = type { %"struct.std::_Vector_base<std::vector<const char *, std::allocator<const char *> >, std::allocator<std::vector<const char *, std::allocator<const char *> > > >::_Vector_impl_data" }
%"struct.std::_Vector_base<std::vector<const char *, std::allocator<const char *> >, std::allocator<std::vector<const char *, std::allocator<const char *> > > >::_Vector_impl_data" = type { %"class.std::vector.27"*, %"class.std::vector.27"*, %"class.std::vector.27"* }
%struct.anon.5 = type { i8*, i8* }
%struct.PropertyData = type { i8*, i8* }
%"class.std::allocator" = type { i8 }
%"class.cTopology::Predicate" = type { i32 (...)** }
%"class.std::deque" = type { %"class.std::_Deque_base" }
%"class.std::_Deque_base" = type { %"struct.std::_Deque_base<cTopology::Node *, std::allocator<cTopology::Node *> >::_Deque_impl" }
%"struct.std::_Deque_base<cTopology::Node *, std::allocator<cTopology::Node *> >::_Deque_impl" = type { %"struct.std::_Deque_base<cTopology::Node *, std::allocator<cTopology::Node *> >::_Deque_impl_data" }
%"struct.std::_Deque_base<cTopology::Node *, std::allocator<cTopology::Node *> >::_Deque_impl_data" = type { %"class.cTopology::Node"***, i64, %"struct.std::_Deque_iterator", %"struct.std::_Deque_iterator" }
%"struct.std::_Deque_iterator" = type { %"class.cTopology::Node"**, %"class.cTopology::Node"**, %"class.cTopology::Node"**, %"class.cTopology::Node"*** }
%"class.std::allocator.6" = type { i8 }
%class.cClassDescriptor = type opaque
%class.cVisitor = type { i32 (...)** }
%"struct.__gnu_cxx::__ops::_Iter_equals_val" = type { i8** }
%"struct.std::random_access_iterator_tag" = type { i8 }
%"class.__gnu_cxx::new_allocator.7" = type { i8 }
%"class.std::allocator.37" = type { i8 }
%"class.__gnu_cxx::new_allocator.38" = type { i8 }

$_ZN13cRuntimeErrorD2Ev = comdat any

$__clang_call_terminate = comdat any

$_ZN11cSimulation19getActiveSimulationEv = comdat any

$_ZNK11cSimulation15getLastModuleIdEv = comdat any

$_ZNK11cSimulation9getModuleEi = comdat any

$_ZN7cModule12GateIteratorC2EPKS_ = comdat any

$_ZNK7cModule12GateIteratorclEv = comdat any

$_ZNK5cGate7getTypeEv = comdat any

$_ZNK5cGate11getNextGateEv = comdat any

$_ZNK7cModule5getIdEv = comdat any

$_ZNSt5dequeIPN9cTopology4NodeESaIS2_EEC2Ev = comdat any

$_ZNSt5dequeIPN9cTopology4NodeESaIS2_EE9push_backERKS2_ = comdat any

$_ZNKSt5dequeIPN9cTopology4NodeESaIS2_EE5emptyEv = comdat any

$_ZNSt5dequeIPN9cTopology4NodeESaIS2_EE5frontEv = comdat any

$_ZNSt5dequeIPN9cTopology4NodeESaIS2_EE9pop_frontEv = comdat any

$_ZNSt5dequeIPN9cTopology4NodeESaIS2_EED2Ev = comdat any

$_ZNK12cNamedObject7getNameEv = comdat any

$_ZNK7cObject11getFullNameEv = comdat any

$_ZNK9cTopology3dupEv = comdat any

$_ZNK12cOwnedObject8getOwnerEv = comdat any

$_ZNK12cOwnedObject13isOwnedObjectEv = comdat any

$_ZN12cNamedObject14getNamePoolingEv = comdat any

$_ZNK12cOwnedObject11isSoftOwnerEv = comdat any

$_ZN10cExceptionD2Ev = comdat any

$_ZN10cExceptionD0Ev = comdat any

$_ZNK10cException4whatEv = comdat any

$_ZNK10cException3dupEv = comdat any

$_ZNK10cException12getErrorCodeEv = comdat any

$_ZN10cException10setMessageEPKc = comdat any

$_ZN10cException14prependMessageEPKc = comdat any

$_ZNK10cException10hasContextEv = comdat any

$_ZNK10cException19getContextClassNameEv = comdat any

$_ZNK10cException18getContextFullPathEv = comdat any

$_ZNK10cException11getModuleIDEv = comdat any

$_ZStplIcSt11char_traitsIcESaIcEENSt7__cxx1112basic_stringIT_T0_T1_EEOS8_RKS8_ = comdat any

$_ZStplIcSt11char_traitsIcESaIcEENSt7__cxx1112basic_stringIT_T0_T1_EEOS8_PKS5_ = comdat any

$_ZSt4moveIRNSt7__cxx1112basic_stringIcSt11char_traitsIcESaIcEEEEONSt16remove_referenceIT_E4typeEOS8_ = comdat any

$_ZNKSt6vectorINSt7__cxx1112basic_stringIcSt11char_traitsIcESaIcEEESaIS5_EE4sizeEv = comdat any

$_ZNKSt6vectorINSt7__cxx1112basic_stringIcSt11char_traitsIcESaIcEEESaIS5_EEixEm = comdat any

$_ZN9__gnu_cxxneIPKNSt7__cxx1112basic_stringIcSt11char_traitsIcESaIcEEESt6vectorIS6_SaIS6_EEEEbRKNS_17__normal_iteratorIT_T0_EESH_ = comdat any

$_ZSt4findIN9__gnu_cxx17__normal_iteratorIPKNSt7__cxx1112basic_stringIcSt11char_traitsIcESaIcEEESt6vectorIS7_SaIS7_EEEEPKcET_SG_SG_RKT0_ = comdat any

$_ZNKSt6vectorINSt7__cxx1112basic_stringIcSt11char_traitsIcESaIcEEESaIS5_EE5beginEv = comdat any

$_ZNKSt6vectorINSt7__cxx1112basic_stringIcSt11char_traitsIcESaIcEEESaIS5_EE3endEv = comdat any

$_ZNK9__gnu_cxx17__normal_iteratorIPKNSt7__cxx1112basic_stringIcSt11char_traitsIcESaIcEEESt6vectorIS6_SaIS6_EEE4baseEv = comdat any

$_ZSt9__find_ifIN9__gnu_cxx17__normal_iteratorIPKNSt7__cxx1112basic_stringIcSt11char_traitsIcESaIcEEESt6vectorIS7_SaIS7_EEEENS0_5__ops16_Iter_equals_valIKPKcEEET_SK_SK_T0_ = comdat any

$_ZN9__gnu_cxx5__ops17__iter_equals_valIKPKcEENS0_16_Iter_equals_valIT_EERS6_ = comdat any

$_ZSt9__find_ifIN9__gnu_cxx17__normal_iteratorIPKNSt7__cxx1112basic_stringIcSt11char_traitsIcESaIcEEESt6vectorIS7_SaIS7_EEEENS0_5__ops16_Iter_equals_valIKPKcEEET_SK_SK_T0_St26random_access_iterator_tag = comdat any

$_ZSt19__iterator_categoryIN9__gnu_cxx17__normal_iteratorIPKNSt7__cxx1112basic_stringIcSt11char_traitsIcESaIcEEESt6vectorIS7_SaIS7_EEEEENSt15iterator_traitsIT_E17iterator_categoryERKSF_ = comdat any

$_ZN9__gnu_cxxmiIPKNSt7__cxx1112basic_stringIcSt11char_traitsIcESaIcEEESt6vectorIS6_SaIS6_EEEENS_17__normal_iteratorIT_T0_E15difference_typeERKSF_SI_ = comdat any

$_ZN9__gnu_cxx5__ops16_Iter_equals_valIKPKcEclINS_17__normal_iteratorIPKNSt7__cxx1112basic_stringIcSt11char_traitsIcESaIcEEESt6vectorISD_SaISD_EEEEEEbT_ = comdat any

$_ZN9__gnu_cxx17__normal_iteratorIPKNSt7__cxx1112basic_stringIcSt11char_traitsIcESaIcEEESt6vectorIS6_SaIS6_EEEppEv = comdat any

$_ZSteqIcSt11char_traitsIcESaIcEEbRKNSt7__cxx1112basic_stringIT_T0_T1_EEPKS5_ = comdat any

$_ZNK9__gnu_cxx17__normal_iteratorIPKNSt7__cxx1112basic_stringIcSt11char_traitsIcESaIcEEESt6vectorIS6_SaIS6_EEEdeEv = comdat any

$_ZN9__gnu_cxx5__ops16_Iter_equals_valIKPKcEC2ERS4_ = comdat any

$_ZN9__gnu_cxx17__normal_iteratorIPKNSt7__cxx1112basic_stringIcSt11char_traitsIcESaIcEEESt6vectorIS6_SaIS6_EEEC2ERKS8_ = comdat any

$_Z10opp_strcmpPKcS0_ = comdat any

$_ZNK10cComponent6hasParEPKc = comdat any

$_ZSteqIcEN9__gnu_cxx11__enable_ifIXsr9__is_charIT_EE7__valueEbE6__typeERKNSt7__cxx1112basic_stringIS2_St11char_traitsIS2_ESaIS2_EEESC_ = comdat any

$_ZNSt11char_traitsIcE7compareEPKcS2_m = comdat any

$_ZNK5cGate4Desc9getTypeOfEPKS_ = comdat any

$_ZNSt11_Deque_baseIPN9cTopology4NodeESaIS2_EEC2Ev = comdat any

$_ZNSt11_Deque_baseIPN9cTopology4NodeESaIS2_EE11_Deque_implC2Ev = comdat any

$_ZNSt11_Deque_baseIPN9cTopology4NodeESaIS2_EE17_M_initialize_mapEm = comdat any

$_ZNSt11_Deque_baseIPN9cTopology4NodeESaIS2_EE11_Deque_implD2Ev = comdat any

$_ZNSaIPN9cTopology4NodeEEC2Ev = comdat any

$_ZNSt11_Deque_baseIPN9cTopology4NodeESaIS2_EE16_Deque_impl_dataC2Ev = comdat any

$_ZN9__gnu_cxx13new_allocatorIPN9cTopology4NodeEEC2Ev = comdat any

$_ZNSt15_Deque_iteratorIPN9cTopology4NodeERS2_PS2_EC2Ev = comdat any

$_ZSt16__deque_buf_sizem = comdat any

$_ZSt3maxImERKT_S2_S2_ = comdat any

$_ZNSt11_Deque_baseIPN9cTopology4NodeESaIS2_EE15_M_allocate_mapEm = comdat any

$_ZNSt11_Deque_baseIPN9cTopology4NodeESaIS2_EE15_M_create_nodesEPPS2_S6_ = comdat any

$_ZNSt11_Deque_baseIPN9cTopology4NodeESaIS2_EE17_M_deallocate_mapEPPS2_m = comdat any

$_ZNSt15_Deque_iteratorIPN9cTopology4NodeERS2_PS2_E11_M_set_nodeEPS4_ = comdat any

$_ZNKSt11_Deque_baseIPN9cTopology4NodeESaIS2_EE20_M_get_map_allocatorEv = comdat any

$_ZNSt16allocator_traitsISaIPPN9cTopology4NodeEEE8allocateERS4_m = comdat any

$_ZNSaIPPN9cTopology4NodeEED2Ev = comdat any

$_ZNKSt11_Deque_baseIPN9cTopology4NodeESaIS2_EE19_M_get_Tp_allocatorEv = comdat any

$_ZNSaIPPN9cTopology4NodeEEC2IS1_EERKSaIT_E = comdat any

$_ZN9__gnu_cxx13new_allocatorIPPN9cTopology4NodeEEC2Ev = comdat any

$_ZN9__gnu_cxx13new_allocatorIPPN9cTopology4NodeEE8allocateEmPKv = comdat any

$_ZNK9__gnu_cxx13new_allocatorIPPN9cTopology4NodeEE11_M_max_sizeEv = comdat any

$_ZN9__gnu_cxx13new_allocatorIPPN9cTopology4NodeEED2Ev = comdat any

$_ZNSt11_Deque_baseIPN9cTopology4NodeESaIS2_EE16_M_allocate_nodeEv = comdat any

$_ZNSt11_Deque_baseIPN9cTopology4NodeESaIS2_EE16_M_destroy_nodesEPPS2_S6_ = comdat any

$_ZNSt16allocator_traitsISaIPN9cTopology4NodeEEE8allocateERS3_m = comdat any

$_ZN9__gnu_cxx13new_allocatorIPN9cTopology4NodeEE8allocateEmPKv = comdat any

$_ZNK9__gnu_cxx13new_allocatorIPN9cTopology4NodeEE11_M_max_sizeEv = comdat any

$_ZNSt11_Deque_baseIPN9cTopology4NodeESaIS2_EE18_M_deallocate_nodeEPS2_ = comdat any

$_ZNSt16allocator_traitsISaIPN9cTopology4NodeEEE10deallocateERS3_PS2_m = comdat any

$_ZN9__gnu_cxx13new_allocatorIPN9cTopology4NodeEE10deallocateEPS3_m = comdat any

$_ZNSt16allocator_traitsISaIPPN9cTopology4NodeEEE10deallocateERS4_PS3_m = comdat any

$_ZN9__gnu_cxx13new_allocatorIPPN9cTopology4NodeEE10deallocateEPS4_m = comdat any

$_ZNSt15_Deque_iteratorIPN9cTopology4NodeERS2_PS2_E14_S_buffer_sizeEv = comdat any

$_ZNSaIPN9cTopology4NodeEED2Ev = comdat any

$_ZN9__gnu_cxx13new_allocatorIPN9cTopology4NodeEED2Ev = comdat any

$_ZNSt5dequeIPN9cTopology4NodeESaIS2_EE15_M_destroy_dataESt15_Deque_iteratorIS2_RS2_PS2_ES8_RKS3_ = comdat any

$_ZNSt5dequeIPN9cTopology4NodeESaIS2_EE5beginEv = comdat any

$_ZNSt5dequeIPN9cTopology4NodeESaIS2_EE3endEv = comdat any

$_ZNSt11_Deque_baseIPN9cTopology4NodeESaIS2_EE19_M_get_Tp_allocatorEv = comdat any

$_ZNSt11_Deque_baseIPN9cTopology4NodeESaIS2_EED2Ev = comdat any

$_ZNSt15_Deque_iteratorIPN9cTopology4NodeERS2_PS2_EC2ERKS5_ = comdat any

$_ZNSt16allocator_traitsISaIPN9cTopology4NodeEEE9constructIS2_JRKS2_EEEvRS3_PT_DpOT0_ = comdat any

$_ZNSt5dequeIPN9cTopology4NodeESaIS2_EE16_M_push_back_auxIJRKS2_EEEvDpOT_ = comdat any

$_ZN9__gnu_cxx13new_allocatorIPN9cTopology4NodeEE9constructIS3_JRKS3_EEEvPT_DpOT0_ = comdat any

$_ZSt7forwardIRKPN9cTopology4NodeEEOT_RNSt16remove_referenceIS5_E4typeE = comdat any

$_ZNKSt5dequeIPN9cTopology4NodeESaIS2_EE4sizeEv = comdat any

$_ZNKSt5dequeIPN9cTopology4NodeESaIS2_EE8max_sizeEv = comdat any

$_ZNSt5dequeIPN9cTopology4NodeESaIS2_EE22_M_reserve_map_at_backEm = comdat any

$_ZStmiRKSt15_Deque_iteratorIPN9cTopology4NodeERS2_PS2_ES7_ = comdat any

$_ZNSt5dequeIPN9cTopology4NodeESaIS2_EE11_S_max_sizeERKS3_ = comdat any

$_ZNSt16allocator_traitsISaIPN9cTopology4NodeEEE8max_sizeERKS3_ = comdat any

$_ZSt3minImERKT_S2_S2_ = comdat any

$_ZNK9__gnu_cxx13new_allocatorIPN9cTopology4NodeEE8max_sizeEv = comdat any

$_ZNSt5dequeIPN9cTopology4NodeESaIS2_EE17_M_reallocate_mapEmb = comdat any

$_ZSt4copyIPPPN9cTopology4NodeES4_ET0_T_S6_S5_ = comdat any

$_ZSt13copy_backwardIPPPN9cTopology4NodeES4_ET0_T_S6_S5_ = comdat any

$_ZSt13__copy_move_aILb0EPPPN9cTopology4NodeES4_ET1_T0_S6_S5_ = comdat any

$_ZSt12__miter_baseIPPPN9cTopology4NodeEET_S5_ = comdat any

$_ZSt12__niter_wrapIPPPN9cTopology4NodeEET_RKS5_S5_ = comdat any

$_ZSt14__copy_move_a1ILb0EPPPN9cTopology4NodeES4_ET1_T0_S6_S5_ = comdat any

$_ZSt12__niter_baseIPPPN9cTopology4NodeEET_S5_ = comdat any

$_ZSt14__copy_move_a2ILb0EPPPN9cTopology4NodeES4_ET1_T0_S6_S5_ = comdat any

$_ZNSt11__copy_moveILb0ELb1ESt26random_access_iterator_tagE8__copy_mIPPN9cTopology4NodeEEEPT_PKS7_SA_S8_ = comdat any

$_ZSt22__copy_move_backward_aILb0EPPPN9cTopology4NodeES4_ET1_T0_S6_S5_ = comdat any

$_ZSt23__copy_move_backward_a1ILb0EPPPN9cTopology4NodeES4_ET1_T0_S6_S5_ = comdat any

$_ZSt23__copy_move_backward_a2ILb0EPPPN9cTopology4NodeES4_ET1_T0_S6_S5_ = comdat any

$_ZNSt20__copy_move_backwardILb0ELb1ESt26random_access_iterator_tagE13__copy_move_bIPPN9cTopology4NodeEEEPT_PKS7_SA_S8_ = comdat any

$_ZSteqRKSt15_Deque_iteratorIPN9cTopology4NodeERS2_PS2_ES7_ = comdat any

$_ZNKSt15_Deque_iteratorIPN9cTopology4NodeERS2_PS2_EdeEv = comdat any

$_ZNSt16allocator_traitsISaIPN9cTopology4NodeEEE7destroyIS2_EEvRS3_PT_ = comdat any

$_ZNSt5dequeIPN9cTopology4NodeESaIS2_EE16_M_pop_front_auxEv = comdat any

$_ZN9__gnu_cxx13new_allocatorIPN9cTopology4NodeEE7destroyIS3_EEvPT_ = comdat any

$_ZTS13cRuntimeError = comdat any

$_ZTS10cException = comdat any

$_ZTI10cException = comdat any

$_ZTI13cRuntimeError = comdat any

$_ZTV10cException = comdat any

@_ZStL8__ioinit = internal global %"class.std::ios_base::Init" zeroinitializer, align 1, !dbg !0
@__dso_handle = external hidden global i8
@_ZN12_GLOBAL__N_118__onstartup_obj_41E = internal global %class.ExecuteOnStartup zeroinitializer, align 8, !dbg !28
@.str = private unnamed_addr constant [50 x i8] c"cTopology::Node::getLinkIn: invalid link index %d\00", align 1
@_ZTVN10__cxxabiv120__si_class_type_infoE = external dso_local global i8*
@_ZTS13cRuntimeError = linkonce_odr dso_local constant [16 x i8] c"13cRuntimeError\00", comdat, align 1
@_ZTS10cException = linkonce_odr dso_local constant [13 x i8] c"10cException\00", comdat, align 1
@_ZTISt9exception = external dso_local constant i8*
@_ZTI10cException = linkonce_odr dso_local constant { i8*, i8*, i8* } { i8* bitcast (i8** getelementptr inbounds (i8*, i8** @_ZTVN10__cxxabiv120__si_class_type_infoE, i64 2) to i8*), i8* getelementptr inbounds ([13 x i8], [13 x i8]* @_ZTS10cException, i32 0, i32 0), i8* bitcast (i8** @_ZTISt9exception to i8*) }, comdat, align 8
@_ZTI13cRuntimeError = linkonce_odr dso_local constant { i8*, i8*, i8* } { i8* bitcast (i8** getelementptr inbounds (i8*, i8** @_ZTVN10__cxxabiv120__si_class_type_infoE, i64 2) to i8*), i8* getelementptr inbounds ([16 x i8], [16 x i8]* @_ZTS13cRuntimeError, i32 0, i32 0), i8* bitcast ({ i8*, i8*, i8* }* @_ZTI10cException to i8*) }, comdat, align 8
@.str.2 = private unnamed_addr constant [46 x i8] c"cTopology::Node::getLinkOut: invalid index %d\00", align 1
@_ZTV9cTopology = dso_local unnamed_addr constant { [26 x i8*] } { [26 x i8*] [i8* null, i8* bitcast ({ i8*, i8*, i8* }* @_ZTI9cTopology to i8*), i8* bitcast (%class.cClassDescriptor* (%class.cObject*)* @_ZN7cObject13getDescriptorEv to i8*), i8* bitcast (void (%class.cObject*, %class.cOwnedObject*)* @_ZN7cObject18ownedObjectDeletedEP12cOwnedObject to i8*), i8* bitcast (void (%class.cObject*, %class.cOwnedObject*, %class.cObject*)* @_ZN7cObject14yieldOwnershipEP12cOwnedObjectPS_ to i8*), i8* bitcast (void (%class.cTopology*)* @_ZN9cTopologyD1Ev to i8*), i8* bitcast (void (%class.cTopology*)* @_ZN9cTopologyD0Ev to i8*), i8* bitcast (i8* (%class.cObject*)* @_ZNK7cObject12getClassNameEv to i8*), i8* bitcast (i8* (%class.cNamedObject*)* @_ZNK12cNamedObject7getNameEv to i8*), i8* bitcast (i8* (%class.cObject*)* @_ZNK7cObject11getFullNameEv to i8*), i8* bitcast (void (%"class.std::__cxx11::basic_string"*, %class.cObject*)* @_ZNK7cObject11getFullPathB5cxx11Ev to i8*), i8* bitcast (void (%"class.std::__cxx11::basic_string"*, %class.cTopology*)* @_ZNK9cTopology4infoB5cxx11Ev to i8*), i8* bitcast (void (%"class.std::__cxx11::basic_string"*, %class.cObject*)* @_ZNK7cObject12detailedInfoB5cxx11Ev to i8*), i8* bitcast (%class.cTopology* (%class.cTopology*)* @_ZNK9cTopology3dupEv to i8*), i8* bitcast (void (%class.cObject*, %class.cOwnedObject*)* @_ZN7cObject4takeEP12cOwnedObject to i8*), i8* bitcast (void (%class.cObject*, %class.cOwnedObject*)* @_ZN7cObject4dropEP12cOwnedObject to i8*), i8* bitcast (void (%class.cTopology*, %class.cCommBuffer*)* @_ZN9cTopology10parsimPackEP11cCommBuffer to i8*), i8* bitcast (void (%class.cTopology*, %class.cCommBuffer*)* @_ZN9cTopology12parsimUnpackEP11cCommBuffer to i8*), i8* bitcast (%class.cObject* (%class.cOwnedObject*)* @_ZNK12cOwnedObject8getOwnerEv to i8*), i8* bitcast (i1 (%class.cOwnedObject*)* @_ZNK12cOwnedObject13isOwnedObjectEv to i8*), i8* bitcast (void (%class.cObject*, %class.cVisitor*)* @_ZN7cObject12forEachChildEP8cVisitor to i8*), i8* bitcast (void (%class.cNamedObject*, i8*)* @_ZN12cNamedObject7setNameEPKc to i8*), i8* bitcast (void (%class.cNamedObject*, i1)* @_ZN12cNamedObject14setNamePoolingEb to i8*), i8* bitcast (i1 (%class.cNamedObject*)* @_ZN12cNamedObject14getNamePoolingEv to i8*), i8* bitcast (void (%class.cOwnedObject*)* @_ZN12cOwnedObject23removeFromOwnershipTreeEv to i8*), i8* bitcast (i1 (%class.cOwnedObject*)* @_ZNK12cOwnedObject11isSoftOwnerEv to i8*)] }, align 8
@.str.3 = private unnamed_addr constant [3 x i8] c"n=\00", align 1
@.str.4 = private unnamed_addr constant [29 x i8] c"parsimPack() not implemented\00", align 1
@.str.5 = private unnamed_addr constant [31 x i8] c"parsimUnpack() not implemented\00", align 1
@.str.6 = private unnamed_addr constant [30 x i8] c"operator= not implemented yet\00", align 1
@.str.7 = private unnamed_addr constant [22 x i8] c"invalid node index %d\00", align 1
@.str.8 = private unnamed_addr constant [40 x i8] c"..ShortestPathTo(): target node is NULL\00", align 1
@_ZTS9cTopology = dso_local constant [11 x i8] c"9cTopology\00", align 1
@_ZTI12cOwnedObject = external dso_local constant i8*
@_ZTI9cTopology = dso_local constant { i8*, i8*, i8* } { i8* bitcast (i8** getelementptr inbounds (i8*, i8** @_ZTVN10__cxxabiv120__si_class_type_infoE, i64 2) to i8*), i8* getelementptr inbounds ([11 x i8], [11 x i8]* @_ZTS9cTopology, i32 0, i32 0), i8* bitcast (i8** @_ZTI12cOwnedObject to i8*) }, align 8
@classes = external dso_local global %class.cGlobalRegistrationList, align 8
@_ZTV10cException = linkonce_odr dso_local unnamed_addr constant { [13 x i8*] } { [13 x i8*] [i8* null, i8* bitcast ({ i8*, i8*, i8* }* @_ZTI10cException to i8*), i8* bitcast (void (%class.cException*)* @_ZN10cExceptionD2Ev to i8*), i8* bitcast (void (%class.cException*)* @_ZN10cExceptionD0Ev to i8*), i8* bitcast (i8* (%class.cException*)* @_ZNK10cException4whatEv to i8*), i8* bitcast (%class.cException* (%class.cException*)* @_ZNK10cException3dupEv to i8*), i8* bitcast (i32 (%class.cException*)* @_ZNK10cException12getErrorCodeEv to i8*), i8* bitcast (void (%class.cException*, i8*)* @_ZN10cException10setMessageEPKc to i8*), i8* bitcast (void (%class.cException*, i8*)* @_ZN10cException14prependMessageEPKc to i8*), i8* bitcast (i1 (%class.cException*)* @_ZNK10cException10hasContextEv to i8*), i8* bitcast (i8* (%class.cException*)* @_ZNK10cException19getContextClassNameEv to i8*), i8* bitcast (i8* (%class.cException*)* @_ZNK10cException18getContextFullPathEv to i8*), i8* bitcast (i32 (%class.cException*)* @_ZNK10cException11getModuleIDEv to i8*)] }, comdat, align 8
@.str.9 = private unnamed_addr constant [3 x i8] c": \00", align 1
@_ZN9cProperty10DEFAULTKEYE = external dso_local global i8*, align 8
@.str.10 = private unnamed_addr constant [6 x i8] c"false\00", align 1
@_ZN11cSimulation6simPtrE = external dso_local global %class.cSimulation*, align 8
@.str.11 = private unnamed_addr constant [1 x i8] zeroinitializer, align 1
@.str.12 = private unnamed_addr constant [48 x i8] c"cannot create std::deque larger than max_size()\00", align 1
@llvm.global_ctors = appending global [1 x { i32, void ()*, i8* }] [{ i32, void ()*, i8* } { i32 65535, void ()* @_GLOBAL__sub_I_ctopology.cc, i8* null }]

@_ZN9cTopologyC1EPKc = dso_local unnamed_addr alias void (%class.cTopology*, i8*), void (%class.cTopology*, i8*)* @_ZN9cTopologyC2EPKc
@_ZN9cTopologyC1ERKS_ = dso_local unnamed_addr alias void (%class.cTopology*, %class.cTopology*), void (%class.cTopology*, %class.cTopology*)* @_ZN9cTopologyC2ERKS_
@_ZN9cTopologyD1Ev = dso_local unnamed_addr alias void (%class.cTopology*), void (%class.cTopology*)* @_ZN9cTopologyD2Ev

; Function Attrs: noinline uwtable
define internal void @__cxx_global_var_init() #0 section ".text.startup" !dbg !2469 {
entry:
  call void @_ZNSt8ios_base4InitC1Ev(%"class.std::ios_base::Init"* @_ZStL8__ioinit), !dbg !2470
  %0 = call i32 @__cxa_atexit(void (i8*)* bitcast (void (%"class.std::ios_base::Init"*)* @_ZNSt8ios_base4InitD1Ev to void (i8*)*), i8* getelementptr inbounds (%"class.std::ios_base::Init", %"class.std::ios_base::Init"* @_ZStL8__ioinit, i32 0, i32 0), i8* @__dso_handle) #3, !dbg !2470
  ret void, !dbg !2470
}

declare dso_local void @_ZNSt8ios_base4InitC1Ev(%"class.std::ios_base::Init"*) unnamed_addr #1

; Function Attrs: nounwind
declare dso_local void @_ZNSt8ios_base4InitD1Ev(%"class.std::ios_base::Init"*) unnamed_addr #2

; Function Attrs: nounwind
declare dso_local i32 @__cxa_atexit(void (i8*)*, i8*, i8*) #3

; Function Attrs: noinline uwtable
define internal void @__cxx_global_var_init.1() #0 section ".text.startup" !dbg !2471 {
entry:
  call void @_ZN16ExecuteOnStartupC1EPFvvE(%class.ExecuteOnStartup* @_ZN12_GLOBAL__N_118__onstartup_obj_41E, void ()* @_ZN12_GLOBAL__N_119__onstartup_func_41Ev), !dbg !2472
  %0 = call i32 @__cxa_atexit(void (i8*)* bitcast (void (%class.ExecuteOnStartup*)* @_ZN16ExecuteOnStartupD1Ev to void (i8*)*), i8* bitcast (%class.ExecuteOnStartup* @_ZN12_GLOBAL__N_118__onstartup_obj_41E to i8*), i8* @__dso_handle) #3, !dbg !2472
  ret void, !dbg !2472
}

; Function Attrs: noinline uwtable
define internal void @_ZN12_GLOBAL__N_119__onstartup_func_41Ev() #0 personality i8* bitcast (i32 (...)* @__gxx_personality_v0 to i8*) !dbg !2473 {
entry:
  %exn.slot = alloca i8*
  %ehselector.slot = alloca i32
  %call = call %class.cRegistrationList* @_ZN23cGlobalRegistrationList11getInstanceEv(%class.cGlobalRegistrationList* @classes), !dbg !2474
  %call1 = call i8* @_Znwm(i64 80) #12, !dbg !2474
  %0 = bitcast i8* %call1 to %class.cClassFactory*, !dbg !2474
  %call2 = invoke i8* @_Z12opp_typenameRKSt9type_info(%"class.std::type_info"* dereferenceable(16) bitcast ({ i8*, i8*, i8* }* @_ZTI9cTopology to %"class.std::type_info"*))
          to label %invoke.cont unwind label %lpad, !dbg !2474

invoke.cont:                                      ; preds = %entry
  invoke void @_ZN13cClassFactoryC1EPKcPFP7cObjectvES1_(%class.cClassFactory* %0, i8* %call2, %class.cObject* ()* @_ZL15__uniquename_41v, i8* null)
          to label %invoke.cont3 unwind label %lpad, !dbg !2474

invoke.cont3:                                     ; preds = %invoke.cont
  %1 = bitcast %class.cClassFactory* %0 to %class.cOwnedObject*, !dbg !2474
  %2 = bitcast %class.cRegistrationList* %call to void (%class.cRegistrationList*, %class.cOwnedObject*)***, !dbg !2474
  %vtable = load void (%class.cRegistrationList*, %class.cOwnedObject*)**, void (%class.cRegistrationList*, %class.cOwnedObject*)*** %2, align 8, !dbg !2474
  %vfn = getelementptr inbounds void (%class.cRegistrationList*, %class.cOwnedObject*)*, void (%class.cRegistrationList*, %class.cOwnedObject*)** %vtable, i64 22, !dbg !2474
  %3 = load void (%class.cRegistrationList*, %class.cOwnedObject*)*, void (%class.cRegistrationList*, %class.cOwnedObject*)** %vfn, align 8, !dbg !2474
  call void %3(%class.cRegistrationList* %call, %class.cOwnedObject* %1), !dbg !2474
  ret void, !dbg !2474

lpad:                                             ; preds = %invoke.cont, %entry
  %4 = landingpad { i8*, i32 }
          cleanup, !dbg !2474
  %5 = extractvalue { i8*, i32 } %4, 0, !dbg !2474
  store i8* %5, i8** %exn.slot, align 8, !dbg !2474
  %6 = extractvalue { i8*, i32 } %4, 1, !dbg !2474
  store i32 %6, i32* %ehselector.slot, align 4, !dbg !2474
  call void @_ZdlPv(i8* %call1) #13, !dbg !2474
  br label %eh.resume, !dbg !2474

eh.resume:                                        ; preds = %lpad
  %exn = load i8*, i8** %exn.slot, align 8, !dbg !2474
  %sel = load i32, i32* %ehselector.slot, align 4, !dbg !2474
  %lpad.val = insertvalue { i8*, i32 } undef, i8* %exn, 0, !dbg !2474
  %lpad.val4 = insertvalue { i8*, i32 } %lpad.val, i32 %sel, 1, !dbg !2474
  resume { i8*, i32 } %lpad.val4, !dbg !2474
}

declare dso_local void @_ZN16ExecuteOnStartupC1EPFvvE(%class.ExecuteOnStartup*, void ()*) unnamed_addr #1

; Function Attrs: nounwind
declare dso_local void @_ZN16ExecuteOnStartupD1Ev(%class.ExecuteOnStartup*) unnamed_addr #2

; Function Attrs: noinline uwtable
define dso_local %"class.cTopology::LinkIn"* @_ZN9cTopology4Node9getLinkInEi(%"class.cTopology::Node"* %this, i32 %i) #0 align 2 personality i8* bitcast (i32 (...)* @__gxx_personality_v0 to i8*) !dbg !2475 {
entry:
  %this.addr = alloca %"class.cTopology::Node"*, align 8
  %i.addr = alloca i32, align 4
  %exn.slot = alloca i8*
  %ehselector.slot = alloca i32
  store %"class.cTopology::Node"* %this, %"class.cTopology::Node"** %this.addr, align 8
  call void @llvm.dbg.declare(metadata %"class.cTopology::Node"** %this.addr, metadata !2476, metadata !DIExpression()), !dbg !2477
  store i32 %i, i32* %i.addr, align 4
  call void @llvm.dbg.declare(metadata i32* %i.addr, metadata !2478, metadata !DIExpression()), !dbg !2479
  %this1 = load %"class.cTopology::Node"*, %"class.cTopology::Node"** %this.addr, align 8
  %0 = load i32, i32* %i.addr, align 4, !dbg !2480
  %cmp = icmp slt i32 %0, 0, !dbg !2482
  br i1 %cmp, label %if.then, label %lor.lhs.false, !dbg !2483

lor.lhs.false:                                    ; preds = %entry
  %1 = load i32, i32* %i.addr, align 4, !dbg !2484
  %num_in_links = getelementptr inbounds %"class.cTopology::Node", %"class.cTopology::Node"* %this1, i32 0, i32 3, !dbg !2485
  %2 = load i32, i32* %num_in_links, align 4, !dbg !2485
  %cmp2 = icmp sge i32 %1, %2, !dbg !2486
  br i1 %cmp2, label %if.then, label %if.end, !dbg !2487

if.then:                                          ; preds = %lor.lhs.false, %entry
  %exception = call i8* @__cxa_allocate_exception(i64 128) #3, !dbg !2488
  %3 = bitcast i8* %exception to %class.cRuntimeError*, !dbg !2488
  %4 = load i32, i32* %i.addr, align 4, !dbg !2489
  invoke void (%class.cRuntimeError*, i8*, ...) @_ZN13cRuntimeErrorC1EPKcz(%class.cRuntimeError* %3, i8* getelementptr inbounds ([50 x i8], [50 x i8]* @.str, i64 0, i64 0), i32 %4)
          to label %invoke.cont unwind label %lpad, !dbg !2490

invoke.cont:                                      ; preds = %if.then
  call void @__cxa_throw(i8* %exception, i8* bitcast ({ i8*, i8*, i8* }* @_ZTI13cRuntimeError to i8*), i8* bitcast (void (%class.cRuntimeError*)* @_ZN13cRuntimeErrorD2Ev to i8*)) #14, !dbg !2488
  unreachable, !dbg !2488

lpad:                                             ; preds = %if.then
  %5 = landingpad { i8*, i32 }
          cleanup, !dbg !2491
  %6 = extractvalue { i8*, i32 } %5, 0, !dbg !2491
  store i8* %6, i8** %exn.slot, align 8, !dbg !2491
  %7 = extractvalue { i8*, i32 } %5, 1, !dbg !2491
  store i32 %7, i32* %ehselector.slot, align 4, !dbg !2491
  call void @__cxa_free_exception(i8* %exception) #3, !dbg !2488
  br label %eh.resume, !dbg !2488

if.end:                                           ; preds = %lor.lhs.false
  %in_links = getelementptr inbounds %"class.cTopology::Node", %"class.cTopology::Node"* %this1, i32 0, i32 4, !dbg !2492
  %8 = load %"class.cTopology::Link"**, %"class.cTopology::Link"*** %in_links, align 8, !dbg !2492
  %9 = load i32, i32* %i.addr, align 4, !dbg !2493
  %idxprom = sext i32 %9 to i64, !dbg !2492
  %arrayidx = getelementptr inbounds %"class.cTopology::Link"*, %"class.cTopology::Link"** %8, i64 %idxprom, !dbg !2492
  %10 = load %"class.cTopology::Link"*, %"class.cTopology::Link"** %arrayidx, align 8, !dbg !2492
  %11 = bitcast %"class.cTopology::Link"* %10 to %"class.cTopology::LinkIn"*, !dbg !2494
  ret %"class.cTopology::LinkIn"* %11, !dbg !2495

eh.resume:                                        ; preds = %lpad
  %exn = load i8*, i8** %exn.slot, align 8, !dbg !2488
  %sel = load i32, i32* %ehselector.slot, align 4, !dbg !2488
  %lpad.val = insertvalue { i8*, i32 } undef, i8* %exn, 0, !dbg !2488
  %lpad.val3 = insertvalue { i8*, i32 } %lpad.val, i32 %sel, 1, !dbg !2488
  resume { i8*, i32 } %lpad.val3, !dbg !2488
}

; Function Attrs: nounwind readnone speculatable willreturn
declare void @llvm.dbg.declare(metadata, metadata, metadata) #4

declare dso_local i8* @__cxa_allocate_exception(i64)

declare dso_local void @_ZN13cRuntimeErrorC1EPKcz(%class.cRuntimeError*, i8*, ...) unnamed_addr #1

declare dso_local i32 @__gxx_personality_v0(...)

declare dso_local void @__cxa_free_exception(i8*)

; Function Attrs: noinline nounwind uwtable
define linkonce_odr dso_local void @_ZN13cRuntimeErrorD2Ev(%class.cRuntimeError* %this) unnamed_addr #5 comdat align 2 !dbg !2496 {
entry:
  %this.addr = alloca %class.cRuntimeError*, align 8
  store %class.cRuntimeError* %this, %class.cRuntimeError** %this.addr, align 8
  call void @llvm.dbg.declare(metadata %class.cRuntimeError** %this.addr, metadata !2503, metadata !DIExpression()), !dbg !2505
  %this1 = load %class.cRuntimeError*, %class.cRuntimeError** %this.addr, align 8
  %0 = bitcast %class.cRuntimeError* %this1 to %class.cException*, !dbg !2506
  call void @_ZN10cExceptionD2Ev(%class.cException* %0) #3, !dbg !2506
  ret void, !dbg !2508
}

declare dso_local void @__cxa_throw(i8*, i8*, i8*)

; Function Attrs: noinline uwtable
define dso_local %"class.cTopology::LinkOut"* @_ZN9cTopology4Node10getLinkOutEi(%"class.cTopology::Node"* %this, i32 %i) #0 align 2 personality i8* bitcast (i32 (...)* @__gxx_personality_v0 to i8*) !dbg !2509 {
entry:
  %this.addr = alloca %"class.cTopology::Node"*, align 8
  %i.addr = alloca i32, align 4
  %exn.slot = alloca i8*
  %ehselector.slot = alloca i32
  store %"class.cTopology::Node"* %this, %"class.cTopology::Node"** %this.addr, align 8
  call void @llvm.dbg.declare(metadata %"class.cTopology::Node"** %this.addr, metadata !2510, metadata !DIExpression()), !dbg !2511
  store i32 %i, i32* %i.addr, align 4
  call void @llvm.dbg.declare(metadata i32* %i.addr, metadata !2512, metadata !DIExpression()), !dbg !2513
  %this1 = load %"class.cTopology::Node"*, %"class.cTopology::Node"** %this.addr, align 8
  %0 = load i32, i32* %i.addr, align 4, !dbg !2514
  %cmp = icmp slt i32 %0, 0, !dbg !2516
  br i1 %cmp, label %if.then, label %lor.lhs.false, !dbg !2517

lor.lhs.false:                                    ; preds = %entry
  %1 = load i32, i32* %i.addr, align 4, !dbg !2518
  %num_out_links = getelementptr inbounds %"class.cTopology::Node", %"class.cTopology::Node"* %this1, i32 0, i32 5, !dbg !2519
  %2 = load i32, i32* %num_out_links, align 8, !dbg !2519
  %cmp2 = icmp sge i32 %1, %2, !dbg !2520
  br i1 %cmp2, label %if.then, label %if.end, !dbg !2521

if.then:                                          ; preds = %lor.lhs.false, %entry
  %exception = call i8* @__cxa_allocate_exception(i64 128) #3, !dbg !2522
  %3 = bitcast i8* %exception to %class.cRuntimeError*, !dbg !2522
  %4 = load i32, i32* %i.addr, align 4, !dbg !2523
  invoke void (%class.cRuntimeError*, i8*, ...) @_ZN13cRuntimeErrorC1EPKcz(%class.cRuntimeError* %3, i8* getelementptr inbounds ([46 x i8], [46 x i8]* @.str.2, i64 0, i64 0), i32 %4)
          to label %invoke.cont unwind label %lpad, !dbg !2524

invoke.cont:                                      ; preds = %if.then
  call void @__cxa_throw(i8* %exception, i8* bitcast ({ i8*, i8*, i8* }* @_ZTI13cRuntimeError to i8*), i8* bitcast (void (%class.cRuntimeError*)* @_ZN13cRuntimeErrorD2Ev to i8*)) #14, !dbg !2522
  unreachable, !dbg !2522

lpad:                                             ; preds = %if.then
  %5 = landingpad { i8*, i32 }
          cleanup, !dbg !2525
  %6 = extractvalue { i8*, i32 } %5, 0, !dbg !2525
  store i8* %6, i8** %exn.slot, align 8, !dbg !2525
  %7 = extractvalue { i8*, i32 } %5, 1, !dbg !2525
  store i32 %7, i32* %ehselector.slot, align 4, !dbg !2525
  call void @__cxa_free_exception(i8* %exception) #3, !dbg !2522
  br label %eh.resume, !dbg !2522

if.end:                                           ; preds = %lor.lhs.false
  %out_links = getelementptr inbounds %"class.cTopology::Node", %"class.cTopology::Node"* %this1, i32 0, i32 6, !dbg !2526
  %8 = load %"class.cTopology::Link"*, %"class.cTopology::Link"** %out_links, align 8, !dbg !2526
  %9 = load i32, i32* %i.addr, align 4, !dbg !2527
  %idx.ext = sext i32 %9 to i64, !dbg !2528
  %add.ptr = getelementptr inbounds %"class.cTopology::Link", %"class.cTopology::Link"* %8, i64 %idx.ext, !dbg !2528
  %10 = bitcast %"class.cTopology::Link"* %add.ptr to %"class.cTopology::LinkOut"*, !dbg !2529
  ret %"class.cTopology::LinkOut"* %10, !dbg !2530

eh.resume:                                        ; preds = %lpad
  %exn = load i8*, i8** %exn.slot, align 8, !dbg !2522
  %sel = load i32, i32* %ehselector.slot, align 4, !dbg !2522
  %lpad.val = insertvalue { i8*, i32 } undef, i8* %exn, 0, !dbg !2522
  %lpad.val3 = insertvalue { i8*, i32 } %lpad.val, i32 %sel, 1, !dbg !2522
  resume { i8*, i32 } %lpad.val3, !dbg !2522
}

; Function Attrs: noinline uwtable
define dso_local void @_ZN9cTopologyC2EPKc(%class.cTopology* %this, i8* %name) unnamed_addr #0 align 2 !dbg !2531 {
entry:
  %this.addr = alloca %class.cTopology*, align 8
  %name.addr = alloca i8*, align 8
  store %class.cTopology* %this, %class.cTopology** %this.addr, align 8
  call void @llvm.dbg.declare(metadata %class.cTopology** %this.addr, metadata !2532, metadata !DIExpression()), !dbg !2533
  store i8* %name, i8** %name.addr, align 8
  call void @llvm.dbg.declare(metadata i8** %name.addr, metadata !2534, metadata !DIExpression()), !dbg !2535
  %this1 = load %class.cTopology*, %class.cTopology** %this.addr, align 8
  %0 = bitcast %class.cTopology* %this1 to %class.cOwnedObject*, !dbg !2536
  %1 = load i8*, i8** %name.addr, align 8, !dbg !2537
  call void @_ZN12cOwnedObjectC2EPKcb(%class.cOwnedObject* %0, i8* %1, i1 zeroext true), !dbg !2538
  %2 = bitcast %class.cTopology* %this1 to i32 (...)***, !dbg !2536
  store i32 (...)** bitcast (i8** getelementptr inbounds ({ [26 x i8*] }, { [26 x i8*] }* @_ZTV9cTopology, i32 0, inrange i32 0, i32 2) to i32 (...)**), i32 (...)*** %2, align 8, !dbg !2536
  %num_nodes = getelementptr inbounds %class.cTopology, %class.cTopology* %this1, i32 0, i32 1, !dbg !2539
  store i32 0, i32* %num_nodes, align 4, !dbg !2541
  %nodev = getelementptr inbounds %class.cTopology, %class.cTopology* %this1, i32 0, i32 2, !dbg !2542
  store %"class.cTopology::Node"* null, %"class.cTopology::Node"** %nodev, align 8, !dbg !2543
  ret void, !dbg !2544
}

declare dso_local void @_ZN12cOwnedObjectC2EPKcb(%class.cOwnedObject*, i8*, i1 zeroext) unnamed_addr #1

; Function Attrs: noinline uwtable
define dso_local void @_ZN9cTopologyC2ERKS_(%class.cTopology* %this, %class.cTopology* dereferenceable(56) %topo) unnamed_addr #0 align 2 personality i8* bitcast (i32 (...)* @__gxx_personality_v0 to i8*) !dbg !2545 {
entry:
  %this.addr = alloca %class.cTopology*, align 8
  %topo.addr = alloca %class.cTopology*, align 8
  %exn.slot = alloca i8*
  %ehselector.slot = alloca i32
  store %class.cTopology* %this, %class.cTopology** %this.addr, align 8
  call void @llvm.dbg.declare(metadata %class.cTopology** %this.addr, metadata !2546, metadata !DIExpression()), !dbg !2547
  store %class.cTopology* %topo, %class.cTopology** %topo.addr, align 8
  call void @llvm.dbg.declare(metadata %class.cTopology** %topo.addr, metadata !2548, metadata !DIExpression()), !dbg !2549
  %this1 = load %class.cTopology*, %class.cTopology** %this.addr, align 8
  %0 = bitcast %class.cTopology* %this1 to %class.cOwnedObject*, !dbg !2550
  call void @_ZN12cOwnedObjectC2Ev(%class.cOwnedObject* %0), !dbg !2551
  %1 = bitcast %class.cTopology* %this1 to i32 (...)***, !dbg !2550
  store i32 (...)** bitcast (i8** getelementptr inbounds ({ [26 x i8*] }, { [26 x i8*] }* @_ZTV9cTopology, i32 0, inrange i32 0, i32 2) to i32 (...)**), i32 (...)*** %1, align 8, !dbg !2550
  %nodev = getelementptr inbounds %class.cTopology, %class.cTopology* %this1, i32 0, i32 2, !dbg !2552
  store %"class.cTopology::Node"* null, %"class.cTopology::Node"** %nodev, align 8, !dbg !2554
  %2 = bitcast %class.cTopology* %this1 to %class.cNamedObject*, !dbg !2555
  %3 = load %class.cTopology*, %class.cTopology** %topo.addr, align 8, !dbg !2556
  %4 = bitcast %class.cTopology* %3 to %class.cNamedObject*, !dbg !2556
  %5 = bitcast %class.cNamedObject* %4 to i8* (%class.cNamedObject*)***, !dbg !2557
  %vtable = load i8* (%class.cNamedObject*)**, i8* (%class.cNamedObject*)*** %5, align 8, !dbg !2557
  %vfn = getelementptr inbounds i8* (%class.cNamedObject*)*, i8* (%class.cNamedObject*)** %vtable, i64 6, !dbg !2557
  %6 = load i8* (%class.cNamedObject*)*, i8* (%class.cNamedObject*)** %vfn, align 8, !dbg !2557
  %call = invoke i8* %6(%class.cNamedObject* %4)
          to label %invoke.cont unwind label %lpad, !dbg !2557

invoke.cont:                                      ; preds = %entry
  %7 = bitcast %class.cNamedObject* %2 to void (%class.cNamedObject*, i8*)***, !dbg !2555
  %vtable2 = load void (%class.cNamedObject*, i8*)**, void (%class.cNamedObject*, i8*)*** %7, align 8, !dbg !2555
  %vfn3 = getelementptr inbounds void (%class.cNamedObject*, i8*)*, void (%class.cNamedObject*, i8*)** %vtable2, i64 19, !dbg !2555
  %8 = load void (%class.cNamedObject*, i8*)*, void (%class.cNamedObject*, i8*)** %vfn3, align 8, !dbg !2555
  invoke void %8(%class.cNamedObject* %2, i8* %call)
          to label %invoke.cont4 unwind label %lpad, !dbg !2555

invoke.cont4:                                     ; preds = %invoke.cont
  %9 = load %class.cTopology*, %class.cTopology** %topo.addr, align 8, !dbg !2558
  %call6 = invoke dereferenceable(56) %class.cTopology* @_ZN9cTopologyaSERKS_(%class.cTopology* %this1, %class.cTopology* dereferenceable(56) %9)
          to label %invoke.cont5 unwind label %lpad, !dbg !2559

invoke.cont5:                                     ; preds = %invoke.cont4
  ret void, !dbg !2560

lpad:                                             ; preds = %invoke.cont4, %invoke.cont, %entry
  %10 = landingpad { i8*, i32 }
          cleanup, !dbg !2561
  %11 = extractvalue { i8*, i32 } %10, 0, !dbg !2561
  store i8* %11, i8** %exn.slot, align 8, !dbg !2561
  %12 = extractvalue { i8*, i32 } %10, 1, !dbg !2561
  store i32 %12, i32* %ehselector.slot, align 4, !dbg !2561
  %13 = bitcast %class.cTopology* %this1 to %class.cOwnedObject*, !dbg !2561
  call void @_ZN12cOwnedObjectD2Ev(%class.cOwnedObject* %13) #3, !dbg !2561
  br label %eh.resume, !dbg !2561

eh.resume:                                        ; preds = %lpad
  %exn = load i8*, i8** %exn.slot, align 8, !dbg !2561
  %sel = load i32, i32* %ehselector.slot, align 4, !dbg !2561
  %lpad.val = insertvalue { i8*, i32 } undef, i8* %exn, 0, !dbg !2561
  %lpad.val7 = insertvalue { i8*, i32 } %lpad.val, i32 %sel, 1, !dbg !2561
  resume { i8*, i32 } %lpad.val7, !dbg !2561
}

declare dso_local void @_ZN12cOwnedObjectC2Ev(%class.cOwnedObject*) unnamed_addr #1

; Function Attrs: noinline uwtable
define dso_local dereferenceable(56) %class.cTopology* @_ZN9cTopologyaSERKS_(%class.cTopology* %this, %class.cTopology* dereferenceable(56) %0) #0 align 2 personality i8* bitcast (i32 (...)* @__gxx_personality_v0 to i8*) !dbg !2562 {
entry:
  %this.addr = alloca %class.cTopology*, align 8
  %.addr = alloca %class.cTopology*, align 8
  %exn.slot = alloca i8*
  %ehselector.slot = alloca i32
  store %class.cTopology* %this, %class.cTopology** %this.addr, align 8
  call void @llvm.dbg.declare(metadata %class.cTopology** %this.addr, metadata !2563, metadata !DIExpression()), !dbg !2564
  store %class.cTopology* %0, %class.cTopology** %.addr, align 8
  call void @llvm.dbg.declare(metadata %class.cTopology** %.addr, metadata !2565, metadata !DIExpression()), !dbg !2566
  %this1 = load %class.cTopology*, %class.cTopology** %this.addr, align 8
  %exception = call i8* @__cxa_allocate_exception(i64 128) #3, !dbg !2567
  %1 = bitcast i8* %exception to %class.cRuntimeError*, !dbg !2567
  %2 = bitcast %class.cTopology* %this1 to %class.cObject*, !dbg !2568
  invoke void (%class.cRuntimeError*, %class.cObject*, i8*, ...) @_ZN13cRuntimeErrorC1EPK7cObjectPKcz(%class.cRuntimeError* %1, %class.cObject* %2, i8* getelementptr inbounds ([30 x i8], [30 x i8]* @.str.6, i64 0, i64 0))
          to label %invoke.cont unwind label %lpad, !dbg !2569

invoke.cont:                                      ; preds = %entry
  call void @__cxa_throw(i8* %exception, i8* bitcast ({ i8*, i8*, i8* }* @_ZTI13cRuntimeError to i8*), i8* bitcast (void (%class.cRuntimeError*)* @_ZN13cRuntimeErrorD2Ev to i8*)) #14, !dbg !2567
  unreachable, !dbg !2567

lpad:                                             ; preds = %entry
  %3 = landingpad { i8*, i32 }
          cleanup, !dbg !2570
  %4 = extractvalue { i8*, i32 } %3, 0, !dbg !2570
  store i8* %4, i8** %exn.slot, align 8, !dbg !2570
  %5 = extractvalue { i8*, i32 } %3, 1, !dbg !2570
  store i32 %5, i32* %ehselector.slot, align 4, !dbg !2570
  call void @__cxa_free_exception(i8* %exception) #3, !dbg !2567
  br label %eh.resume, !dbg !2567

eh.resume:                                        ; preds = %lpad
  %exn = load i8*, i8** %exn.slot, align 8, !dbg !2567
  %sel = load i32, i32* %ehselector.slot, align 4, !dbg !2567
  %lpad.val = insertvalue { i8*, i32 } undef, i8* %exn, 0, !dbg !2567
  %lpad.val2 = insertvalue { i8*, i32 } %lpad.val, i32 %sel, 1, !dbg !2567
  resume { i8*, i32 } %lpad.val2, !dbg !2567
}

; Function Attrs: nounwind
declare dso_local void @_ZN12cOwnedObjectD2Ev(%class.cOwnedObject*) unnamed_addr #2

; Function Attrs: noinline nounwind uwtable
define dso_local void @_ZN9cTopologyD2Ev(%class.cTopology* %this) unnamed_addr #5 align 2 personality i8* bitcast (i32 (...)* @__gxx_personality_v0 to i8*) !dbg !2571 {
entry:
  %this.addr = alloca %class.cTopology*, align 8
  %exn.slot = alloca i8*
  %ehselector.slot = alloca i32
  store %class.cTopology* %this, %class.cTopology** %this.addr, align 8
  call void @llvm.dbg.declare(metadata %class.cTopology** %this.addr, metadata !2572, metadata !DIExpression()), !dbg !2573
  %this1 = load %class.cTopology*, %class.cTopology** %this.addr, align 8
  %0 = bitcast %class.cTopology* %this1 to i32 (...)***, !dbg !2574
  store i32 (...)** bitcast (i8** getelementptr inbounds ({ [26 x i8*] }, { [26 x i8*] }* @_ZTV9cTopology, i32 0, inrange i32 0, i32 2) to i32 (...)**), i32 (...)*** %0, align 8, !dbg !2574
  invoke void @_ZN9cTopology5clearEv(%class.cTopology* %this1)
          to label %invoke.cont unwind label %lpad, !dbg !2575

invoke.cont:                                      ; preds = %entry
  %1 = bitcast %class.cTopology* %this1 to %class.cOwnedObject*, !dbg !2577
  call void @_ZN12cOwnedObjectD2Ev(%class.cOwnedObject* %1) #3, !dbg !2577
  ret void, !dbg !2578

lpad:                                             ; preds = %entry
  %2 = landingpad { i8*, i32 }
          catch i8* null, !dbg !2577
  %3 = extractvalue { i8*, i32 } %2, 0, !dbg !2577
  store i8* %3, i8** %exn.slot, align 8, !dbg !2577
  %4 = extractvalue { i8*, i32 } %2, 1, !dbg !2577
  store i32 %4, i32* %ehselector.slot, align 4, !dbg !2577
  %5 = bitcast %class.cTopology* %this1 to %class.cOwnedObject*, !dbg !2577
  call void @_ZN12cOwnedObjectD2Ev(%class.cOwnedObject* %5) #3, !dbg !2577
  br label %terminate.handler, !dbg !2577

terminate.handler:                                ; preds = %lpad
  %exn = load i8*, i8** %exn.slot, align 8, !dbg !2577
  call void @__clang_call_terminate(i8* %exn) #15, !dbg !2577
  unreachable, !dbg !2577
}

; Function Attrs: noinline nounwind uwtable
define dso_local void @_ZN9cTopology5clearEv(%class.cTopology* %this) #5 align 2 !dbg !2579 {
entry:
  %this.addr = alloca %class.cTopology*, align 8
  %i = alloca i32, align 4
  store %class.cTopology* %this, %class.cTopology** %this.addr, align 8
  call void @llvm.dbg.declare(metadata %class.cTopology** %this.addr, metadata !2580, metadata !DIExpression()), !dbg !2581
  %this1 = load %class.cTopology*, %class.cTopology** %this.addr, align 8
  call void @llvm.dbg.declare(metadata i32* %i, metadata !2582, metadata !DIExpression()), !dbg !2584
  store i32 0, i32* %i, align 4, !dbg !2584
  br label %for.cond, !dbg !2585

for.cond:                                         ; preds = %for.inc, %entry
  %0 = load i32, i32* %i, align 4, !dbg !2586
  %num_nodes = getelementptr inbounds %class.cTopology, %class.cTopology* %this1, i32 0, i32 1, !dbg !2588
  %1 = load i32, i32* %num_nodes, align 4, !dbg !2588
  %cmp = icmp slt i32 %0, %1, !dbg !2589
  br i1 %cmp, label %for.body, label %for.end, !dbg !2590

for.body:                                         ; preds = %for.cond
  %nodev = getelementptr inbounds %class.cTopology, %class.cTopology* %this1, i32 0, i32 2, !dbg !2591
  %2 = load %"class.cTopology::Node"*, %"class.cTopology::Node"** %nodev, align 8, !dbg !2591
  %3 = load i32, i32* %i, align 4, !dbg !2593
  %idxprom = sext i32 %3 to i64, !dbg !2591
  %arrayidx = getelementptr inbounds %"class.cTopology::Node", %"class.cTopology::Node"* %2, i64 %idxprom, !dbg !2591
  %in_links = getelementptr inbounds %"class.cTopology::Node", %"class.cTopology::Node"* %arrayidx, i32 0, i32 4, !dbg !2594
  %4 = load %"class.cTopology::Link"**, %"class.cTopology::Link"*** %in_links, align 8, !dbg !2594
  %isnull = icmp eq %"class.cTopology::Link"** %4, null, !dbg !2595
  br i1 %isnull, label %delete.end, label %delete.notnull, !dbg !2595

delete.notnull:                                   ; preds = %for.body
  %5 = bitcast %"class.cTopology::Link"** %4 to i8*, !dbg !2595
  call void @_ZdaPv(i8* %5) #13, !dbg !2595
  br label %delete.end, !dbg !2595

delete.end:                                       ; preds = %delete.notnull, %for.body
  %nodev2 = getelementptr inbounds %class.cTopology, %class.cTopology* %this1, i32 0, i32 2, !dbg !2596
  %6 = load %"class.cTopology::Node"*, %"class.cTopology::Node"** %nodev2, align 8, !dbg !2596
  %7 = load i32, i32* %i, align 4, !dbg !2597
  %idxprom3 = sext i32 %7 to i64, !dbg !2596
  %arrayidx4 = getelementptr inbounds %"class.cTopology::Node", %"class.cTopology::Node"* %6, i64 %idxprom3, !dbg !2596
  %out_links = getelementptr inbounds %"class.cTopology::Node", %"class.cTopology::Node"* %arrayidx4, i32 0, i32 6, !dbg !2598
  %8 = load %"class.cTopology::Link"*, %"class.cTopology::Link"** %out_links, align 8, !dbg !2598
  %isnull5 = icmp eq %"class.cTopology::Link"* %8, null, !dbg !2599
  br i1 %isnull5, label %delete.end7, label %delete.notnull6, !dbg !2599

delete.notnull6:                                  ; preds = %delete.end
  %9 = bitcast %"class.cTopology::Link"* %8 to i8*, !dbg !2599
  call void @_ZdaPv(i8* %9) #13, !dbg !2599
  br label %delete.end7, !dbg !2599

delete.end7:                                      ; preds = %delete.notnull6, %delete.end
  br label %for.inc, !dbg !2600

for.inc:                                          ; preds = %delete.end7
  %10 = load i32, i32* %i, align 4, !dbg !2601
  %inc = add nsw i32 %10, 1, !dbg !2601
  store i32 %inc, i32* %i, align 4, !dbg !2601
  br label %for.cond, !dbg !2602, !llvm.loop !2603

for.end:                                          ; preds = %for.cond
  %nodev8 = getelementptr inbounds %class.cTopology, %class.cTopology* %this1, i32 0, i32 2, !dbg !2605
  %11 = load %"class.cTopology::Node"*, %"class.cTopology::Node"** %nodev8, align 8, !dbg !2605
  %isnull9 = icmp eq %"class.cTopology::Node"* %11, null, !dbg !2606
  br i1 %isnull9, label %delete.end11, label %delete.notnull10, !dbg !2606

delete.notnull10:                                 ; preds = %for.end
  %12 = bitcast %"class.cTopology::Node"* %11 to i8*, !dbg !2606
  call void @_ZdaPv(i8* %12) #13, !dbg !2606
  br label %delete.end11, !dbg !2606

delete.end11:                                     ; preds = %delete.notnull10, %for.end
  %num_nodes12 = getelementptr inbounds %class.cTopology, %class.cTopology* %this1, i32 0, i32 1, !dbg !2607
  store i32 0, i32* %num_nodes12, align 4, !dbg !2608
  %nodev13 = getelementptr inbounds %class.cTopology, %class.cTopology* %this1, i32 0, i32 2, !dbg !2609
  store %"class.cTopology::Node"* null, %"class.cTopology::Node"** %nodev13, align 8, !dbg !2610
  ret void, !dbg !2611
}

; Function Attrs: noinline noreturn nounwind
define linkonce_odr hidden void @__clang_call_terminate(i8* %0) #6 comdat {
  %2 = call i8* @__cxa_begin_catch(i8* %0) #3
  call void @_ZSt9terminatev() #15
  unreachable
}

declare dso_local i8* @__cxa_begin_catch(i8*)

declare dso_local void @_ZSt9terminatev()

; Function Attrs: noinline nounwind uwtable
define dso_local void @_ZN9cTopologyD0Ev(%class.cTopology* %this) unnamed_addr #5 align 2 !dbg !2612 {
entry:
  %this.addr = alloca %class.cTopology*, align 8
  store %class.cTopology* %this, %class.cTopology** %this.addr, align 8
  call void @llvm.dbg.declare(metadata %class.cTopology** %this.addr, metadata !2613, metadata !DIExpression()), !dbg !2614
  %this1 = load %class.cTopology*, %class.cTopology** %this.addr, align 8
  call void @_ZN9cTopologyD1Ev(%class.cTopology* %this1) #3, !dbg !2615
  %0 = bitcast %class.cTopology* %this1 to i8*, !dbg !2615
  call void @_ZdlPv(i8* %0) #13, !dbg !2615
  ret void, !dbg !2616
}

; Function Attrs: nobuiltin nounwind
declare dso_local void @_ZdlPv(i8*) #7

; Function Attrs: noinline uwtable
define dso_local void @_ZNK9cTopology4infoB5cxx11Ev(%"class.std::__cxx11::basic_string"* noalias sret %agg.result, %class.cTopology* %this) unnamed_addr #0 align 2 personality i8* bitcast (i32 (...)* @__gxx_personality_v0 to i8*) !dbg !2617 {
entry:
  %result.ptr = alloca i8*, align 8
  %this.addr = alloca %class.cTopology*, align 8
  %out = alloca %"class.std::__cxx11::basic_stringstream", align 8
  %exn.slot = alloca i8*
  %ehselector.slot = alloca i32
  %0 = bitcast %"class.std::__cxx11::basic_string"* %agg.result to i8*
  store i8* %0, i8** %result.ptr, align 8
  store %class.cTopology* %this, %class.cTopology** %this.addr, align 8
  call void @llvm.dbg.declare(metadata %class.cTopology** %this.addr, metadata !2618, metadata !DIExpression()), !dbg !2620
  %this1 = load %class.cTopology*, %class.cTopology** %this.addr, align 8
  call void @llvm.dbg.declare(metadata %"class.std::__cxx11::basic_stringstream"* %out, metadata !2621, metadata !DIExpression()), !dbg !2626
  call void @_ZNSt7__cxx1118basic_stringstreamIcSt11char_traitsIcESaIcEEC1Ev(%"class.std::__cxx11::basic_stringstream"* %out), !dbg !2626
  %1 = bitcast %"class.std::__cxx11::basic_stringstream"* %out to i8*, !dbg !2627
  %add.ptr = getelementptr inbounds i8, i8* %1, i64 16, !dbg !2627
  %2 = bitcast i8* %add.ptr to %"class.std::basic_ostream"*, !dbg !2627
  %call = invoke dereferenceable(272) %"class.std::basic_ostream"* @_ZStlsISt11char_traitsIcEERSt13basic_ostreamIcT_ES5_PKc(%"class.std::basic_ostream"* dereferenceable(272) %2, i8* getelementptr inbounds ([3 x i8], [3 x i8]* @.str.3, i64 0, i64 0))
          to label %invoke.cont unwind label %lpad, !dbg !2628

invoke.cont:                                      ; preds = %entry
  %num_nodes = getelementptr inbounds %class.cTopology, %class.cTopology* %this1, i32 0, i32 1, !dbg !2629
  %3 = load i32, i32* %num_nodes, align 4, !dbg !2629
  %call3 = invoke dereferenceable(272) %"class.std::basic_ostream"* @_ZNSolsEi(%"class.std::basic_ostream"* %call, i32 %3)
          to label %invoke.cont2 unwind label %lpad, !dbg !2630

invoke.cont2:                                     ; preds = %invoke.cont
  invoke void @_ZNKSt7__cxx1118basic_stringstreamIcSt11char_traitsIcESaIcEE3strEv(%"class.std::__cxx11::basic_string"* sret %agg.result, %"class.std::__cxx11::basic_stringstream"* %out)
          to label %invoke.cont4 unwind label %lpad, !dbg !2631

invoke.cont4:                                     ; preds = %invoke.cont2
  call void @_ZNSt7__cxx1118basic_stringstreamIcSt11char_traitsIcESaIcEED1Ev(%"class.std::__cxx11::basic_stringstream"* %out) #3, !dbg !2632
  ret void, !dbg !2632

lpad:                                             ; preds = %invoke.cont2, %invoke.cont, %entry
  %4 = landingpad { i8*, i32 }
          cleanup, !dbg !2632
  %5 = extractvalue { i8*, i32 } %4, 0, !dbg !2632
  store i8* %5, i8** %exn.slot, align 8, !dbg !2632
  %6 = extractvalue { i8*, i32 } %4, 1, !dbg !2632
  store i32 %6, i32* %ehselector.slot, align 4, !dbg !2632
  call void @_ZNSt7__cxx1118basic_stringstreamIcSt11char_traitsIcESaIcEED1Ev(%"class.std::__cxx11::basic_stringstream"* %out) #3, !dbg !2632
  br label %eh.resume, !dbg !2632

eh.resume:                                        ; preds = %lpad
  %exn = load i8*, i8** %exn.slot, align 8, !dbg !2632
  %sel = load i32, i32* %ehselector.slot, align 4, !dbg !2632
  %lpad.val = insertvalue { i8*, i32 } undef, i8* %exn, 0, !dbg !2632
  %lpad.val5 = insertvalue { i8*, i32 } %lpad.val, i32 %sel, 1, !dbg !2632
  resume { i8*, i32 } %lpad.val5, !dbg !2632
}

declare dso_local void @_ZNSt7__cxx1118basic_stringstreamIcSt11char_traitsIcESaIcEEC1Ev(%"class.std::__cxx11::basic_stringstream"*) unnamed_addr #1

declare dso_local dereferenceable(272) %"class.std::basic_ostream"* @_ZStlsISt11char_traitsIcEERSt13basic_ostreamIcT_ES5_PKc(%"class.std::basic_ostream"* dereferenceable(272), i8*) #1

declare dso_local dereferenceable(272) %"class.std::basic_ostream"* @_ZNSolsEi(%"class.std::basic_ostream"*, i32) #1

declare dso_local void @_ZNKSt7__cxx1118basic_stringstreamIcSt11char_traitsIcESaIcEE3strEv(%"class.std::__cxx11::basic_string"* sret, %"class.std::__cxx11::basic_stringstream"*) #1

; Function Attrs: nounwind
declare dso_local void @_ZNSt7__cxx1118basic_stringstreamIcSt11char_traitsIcESaIcEED1Ev(%"class.std::__cxx11::basic_stringstream"*) unnamed_addr #2

; Function Attrs: noinline uwtable
define dso_local void @_ZN9cTopology10parsimPackEP11cCommBuffer(%class.cTopology* %this, %class.cCommBuffer* %buffer) unnamed_addr #0 align 2 personality i8* bitcast (i32 (...)* @__gxx_personality_v0 to i8*) !dbg !2633 {
entry:
  %this.addr = alloca %class.cTopology*, align 8
  %buffer.addr = alloca %class.cCommBuffer*, align 8
  %exn.slot = alloca i8*
  %ehselector.slot = alloca i32
  store %class.cTopology* %this, %class.cTopology** %this.addr, align 8
  call void @llvm.dbg.declare(metadata %class.cTopology** %this.addr, metadata !2634, metadata !DIExpression()), !dbg !2635
  store %class.cCommBuffer* %buffer, %class.cCommBuffer** %buffer.addr, align 8
  call void @llvm.dbg.declare(metadata %class.cCommBuffer** %buffer.addr, metadata !2636, metadata !DIExpression()), !dbg !2637
  %this1 = load %class.cTopology*, %class.cTopology** %this.addr, align 8
  %exception = call i8* @__cxa_allocate_exception(i64 128) #3, !dbg !2638
  %0 = bitcast i8* %exception to %class.cRuntimeError*, !dbg !2638
  %1 = bitcast %class.cTopology* %this1 to %class.cObject*, !dbg !2639
  invoke void (%class.cRuntimeError*, %class.cObject*, i8*, ...) @_ZN13cRuntimeErrorC1EPK7cObjectPKcz(%class.cRuntimeError* %0, %class.cObject* %1, i8* getelementptr inbounds ([29 x i8], [29 x i8]* @.str.4, i64 0, i64 0))
          to label %invoke.cont unwind label %lpad, !dbg !2640

invoke.cont:                                      ; preds = %entry
  call void @__cxa_throw(i8* %exception, i8* bitcast ({ i8*, i8*, i8* }* @_ZTI13cRuntimeError to i8*), i8* bitcast (void (%class.cRuntimeError*)* @_ZN13cRuntimeErrorD2Ev to i8*)) #14, !dbg !2638
  unreachable, !dbg !2638

lpad:                                             ; preds = %entry
  %2 = landingpad { i8*, i32 }
          cleanup, !dbg !2641
  %3 = extractvalue { i8*, i32 } %2, 0, !dbg !2641
  store i8* %3, i8** %exn.slot, align 8, !dbg !2641
  %4 = extractvalue { i8*, i32 } %2, 1, !dbg !2641
  store i32 %4, i32* %ehselector.slot, align 4, !dbg !2641
  call void @__cxa_free_exception(i8* %exception) #3, !dbg !2638
  br label %eh.resume, !dbg !2638

eh.resume:                                        ; preds = %lpad
  %exn = load i8*, i8** %exn.slot, align 8, !dbg !2638
  %sel = load i32, i32* %ehselector.slot, align 4, !dbg !2638
  %lpad.val = insertvalue { i8*, i32 } undef, i8* %exn, 0, !dbg !2638
  %lpad.val2 = insertvalue { i8*, i32 } %lpad.val, i32 %sel, 1, !dbg !2638
  resume { i8*, i32 } %lpad.val2, !dbg !2638
}

declare dso_local void @_ZN13cRuntimeErrorC1EPK7cObjectPKcz(%class.cRuntimeError*, %class.cObject*, i8*, ...) unnamed_addr #1

; Function Attrs: noinline uwtable
define dso_local void @_ZN9cTopology12parsimUnpackEP11cCommBuffer(%class.cTopology* %this, %class.cCommBuffer* %buffer) unnamed_addr #0 align 2 personality i8* bitcast (i32 (...)* @__gxx_personality_v0 to i8*) !dbg !2642 {
entry:
  %this.addr = alloca %class.cTopology*, align 8
  %buffer.addr = alloca %class.cCommBuffer*, align 8
  %exn.slot = alloca i8*
  %ehselector.slot = alloca i32
  store %class.cTopology* %this, %class.cTopology** %this.addr, align 8
  call void @llvm.dbg.declare(metadata %class.cTopology** %this.addr, metadata !2643, metadata !DIExpression()), !dbg !2644
  store %class.cCommBuffer* %buffer, %class.cCommBuffer** %buffer.addr, align 8
  call void @llvm.dbg.declare(metadata %class.cCommBuffer** %buffer.addr, metadata !2645, metadata !DIExpression()), !dbg !2646
  %this1 = load %class.cTopology*, %class.cTopology** %this.addr, align 8
  %exception = call i8* @__cxa_allocate_exception(i64 128) #3, !dbg !2647
  %0 = bitcast i8* %exception to %class.cRuntimeError*, !dbg !2647
  %1 = bitcast %class.cTopology* %this1 to %class.cObject*, !dbg !2648
  invoke void (%class.cRuntimeError*, %class.cObject*, i8*, ...) @_ZN13cRuntimeErrorC1EPK7cObjectPKcz(%class.cRuntimeError* %0, %class.cObject* %1, i8* getelementptr inbounds ([31 x i8], [31 x i8]* @.str.5, i64 0, i64 0))
          to label %invoke.cont unwind label %lpad, !dbg !2649

invoke.cont:                                      ; preds = %entry
  call void @__cxa_throw(i8* %exception, i8* bitcast ({ i8*, i8*, i8* }* @_ZTI13cRuntimeError to i8*), i8* bitcast (void (%class.cRuntimeError*)* @_ZN13cRuntimeErrorD2Ev to i8*)) #14, !dbg !2647
  unreachable, !dbg !2647

lpad:                                             ; preds = %entry
  %2 = landingpad { i8*, i32 }
          cleanup, !dbg !2650
  %3 = extractvalue { i8*, i32 } %2, 0, !dbg !2650
  store i8* %3, i8** %exn.slot, align 8, !dbg !2650
  %4 = extractvalue { i8*, i32 } %2, 1, !dbg !2650
  store i32 %4, i32* %ehselector.slot, align 4, !dbg !2650
  call void @__cxa_free_exception(i8* %exception) #3, !dbg !2647
  br label %eh.resume, !dbg !2647

eh.resume:                                        ; preds = %lpad
  %exn = load i8*, i8** %exn.slot, align 8, !dbg !2647
  %sel = load i32, i32* %ehselector.slot, align 4, !dbg !2647
  %lpad.val = insertvalue { i8*, i32 } undef, i8* %exn, 0, !dbg !2647
  %lpad.val2 = insertvalue { i8*, i32 } %lpad.val, i32 %sel, 1, !dbg !2647
  resume { i8*, i32 } %lpad.val2, !dbg !2647
}

; Function Attrs: nobuiltin nounwind
declare dso_local void @_ZdaPv(i8*) #7

; Function Attrs: noinline uwtable
define dso_local void @_ZN9cTopology19extractByModulePathERKSt6vectorINSt7__cxx1112basic_stringIcSt11char_traitsIcESaIcEEESaIS6_EE(%class.cTopology* %this, %"class.std::vector"* dereferenceable(24) %fullPathPatterns) #0 align 2 !dbg !2651 {
entry:
  %this.addr = alloca %class.cTopology*, align 8
  %fullPathPatterns.addr = alloca %"class.std::vector"*, align 8
  store %class.cTopology* %this, %class.cTopology** %this.addr, align 8
  call void @llvm.dbg.declare(metadata %class.cTopology** %this.addr, metadata !2652, metadata !DIExpression()), !dbg !2653
  store %"class.std::vector"* %fullPathPatterns, %"class.std::vector"** %fullPathPatterns.addr, align 8
  call void @llvm.dbg.declare(metadata %"class.std::vector"** %fullPathPatterns.addr, metadata !2654, metadata !DIExpression()), !dbg !2655
  %this1 = load %class.cTopology*, %class.cTopology** %this.addr, align 8
  %0 = load %"class.std::vector"*, %"class.std::vector"** %fullPathPatterns.addr, align 8, !dbg !2656
  %1 = bitcast %"class.std::vector"* %0 to i8*, !dbg !2657
  call void @_ZN9cTopology18extractFromNetworkEPFbP7cModulePvES2_(%class.cTopology* %this1, i1 (%class.cModule*, i8*)* @_ZL18selectByModulePathP7cModulePv, i8* %1), !dbg !2658
  ret void, !dbg !2659
}

; Function Attrs: noinline uwtable
define dso_local void @_ZN9cTopology18extractFromNetworkEPFbP7cModulePvES2_(%class.cTopology* %this, i1 (%class.cModule*, i8*)* %selfunc, i8* %data) #0 align 2 !dbg !2660 {
entry:
  %this.addr = alloca %class.cTopology*, align 8
  %selfunc.addr = alloca i1 (%class.cModule*, i8*)*, align 8
  %data.addr = alloca i8*, align 8
  %temp_nodev = alloca %"class.cTopology::Node"*, align 8
  %k = alloca i32, align 4
  %mod_id = alloca i32, align 4
  %mod = alloca %class.cModule*, align 8
  %k33 = alloca i32, align 4
  %mod38 = alloca %class.cModule*, align 8
  %temp_out_links = alloca %"class.cTopology::Link"*, align 8
  %n_out = alloca i32, align 4
  %i = alloca %"class.cModule::GateIterator", align 8
  %gate = alloca %class.cGate*, align 8
  %src_gate = alloca %class.cGate*, align 8
  %k108 = alloca i32, align 4
  %l = alloca i32, align 4
  %link = alloca %"class.cTopology::Link"*, align 8
  store %class.cTopology* %this, %class.cTopology** %this.addr, align 8
  call void @llvm.dbg.declare(metadata %class.cTopology** %this.addr, metadata !2661, metadata !DIExpression()), !dbg !2662
  store i1 (%class.cModule*, i8*)* %selfunc, i1 (%class.cModule*, i8*)** %selfunc.addr, align 8
  call void @llvm.dbg.declare(metadata i1 (%class.cModule*, i8*)** %selfunc.addr, metadata !2663, metadata !DIExpression()), !dbg !2664
  store i8* %data, i8** %data.addr, align 8
  call void @llvm.dbg.declare(metadata i8** %data.addr, metadata !2665, metadata !DIExpression()), !dbg !2666
  %this1 = load %class.cTopology*, %class.cTopology** %this.addr, align 8
  call void @_ZN9cTopology5clearEv(%class.cTopology* %this1), !dbg !2667
  call void @llvm.dbg.declare(metadata %"class.cTopology::Node"** %temp_nodev, metadata !2668, metadata !DIExpression()), !dbg !2669
  %call = call %class.cSimulation* @_ZN11cSimulation19getActiveSimulationEv(), !dbg !2670
  %call2 = call i32 @_ZNK11cSimulation15getLastModuleIdEv(%class.cSimulation* %call), !dbg !2671
  %conv = sext i32 %call2 to i64, !dbg !2670
  %0 = call { i64, i1 } @llvm.umul.with.overflow.i64(i64 %conv, i64 72), !dbg !2672
  %1 = extractvalue { i64, i1 } %0, 1, !dbg !2672
  %2 = extractvalue { i64, i1 } %0, 0, !dbg !2672
  %3 = select i1 %1, i64 -1, i64 %2, !dbg !2672
  %call3 = call i8* @_Znam(i64 %3) #12, !dbg !2672
  %4 = bitcast i8* %call3 to %"class.cTopology::Node"*, !dbg !2672
  store %"class.cTopology::Node"* %4, %"class.cTopology::Node"** %temp_nodev, align 8, !dbg !2669
  call void @llvm.dbg.declare(metadata i32* %k, metadata !2673, metadata !DIExpression()), !dbg !2674
  store i32 0, i32* %k, align 4, !dbg !2674
  call void @llvm.dbg.declare(metadata i32* %mod_id, metadata !2675, metadata !DIExpression()), !dbg !2677
  store i32 0, i32* %mod_id, align 4, !dbg !2677
  br label %for.cond, !dbg !2678

for.cond:                                         ; preds = %for.inc, %entry
  %5 = load i32, i32* %mod_id, align 4, !dbg !2679
  %call4 = call %class.cSimulation* @_ZN11cSimulation19getActiveSimulationEv(), !dbg !2681
  %call5 = call i32 @_ZNK11cSimulation15getLastModuleIdEv(%class.cSimulation* %call4), !dbg !2682
  %cmp = icmp sle i32 %5, %call5, !dbg !2683
  br i1 %cmp, label %for.body, label %for.end, !dbg !2684

for.body:                                         ; preds = %for.cond
  call void @llvm.dbg.declare(metadata %class.cModule** %mod, metadata !2685, metadata !DIExpression()), !dbg !2687
  %call6 = call %class.cSimulation* @_ZN11cSimulation19getActiveSimulationEv(), !dbg !2688
  %6 = load i32, i32* %mod_id, align 4, !dbg !2689
  %call7 = call %class.cModule* @_ZNK11cSimulation9getModuleEi(%class.cSimulation* %call6, i32 %6), !dbg !2690
  store %class.cModule* %call7, %class.cModule** %mod, align 8, !dbg !2687
  %7 = load %class.cModule*, %class.cModule** %mod, align 8, !dbg !2691
  %tobool = icmp ne %class.cModule* %7, null, !dbg !2691
  br i1 %tobool, label %land.lhs.true, label %if.end, !dbg !2693

land.lhs.true:                                    ; preds = %for.body
  %8 = load i1 (%class.cModule*, i8*)*, i1 (%class.cModule*, i8*)** %selfunc.addr, align 8, !dbg !2694
  %9 = load %class.cModule*, %class.cModule** %mod, align 8, !dbg !2695
  %10 = load i8*, i8** %data.addr, align 8, !dbg !2696
  %call8 = call zeroext i1 %8(%class.cModule* %9, i8* %10), !dbg !2694
  br i1 %call8, label %if.then, label %if.end, !dbg !2697

if.then:                                          ; preds = %land.lhs.true
  %11 = load i32, i32* %mod_id, align 4, !dbg !2698
  %12 = load %"class.cTopology::Node"*, %"class.cTopology::Node"** %temp_nodev, align 8, !dbg !2700
  %13 = load i32, i32* %k, align 4, !dbg !2701
  %idxprom = sext i32 %13 to i64, !dbg !2700
  %arrayidx = getelementptr inbounds %"class.cTopology::Node", %"class.cTopology::Node"* %12, i64 %idxprom, !dbg !2700
  %module_id = getelementptr inbounds %"class.cTopology::Node", %"class.cTopology::Node"* %arrayidx, i32 0, i32 0, !dbg !2702
  store i32 %11, i32* %module_id, align 8, !dbg !2703
  %14 = load %"class.cTopology::Node"*, %"class.cTopology::Node"** %temp_nodev, align 8, !dbg !2704
  %15 = load i32, i32* %k, align 4, !dbg !2705
  %idxprom9 = sext i32 %15 to i64, !dbg !2704
  %arrayidx10 = getelementptr inbounds %"class.cTopology::Node", %"class.cTopology::Node"* %14, i64 %idxprom9, !dbg !2704
  %wgt = getelementptr inbounds %"class.cTopology::Node", %"class.cTopology::Node"* %arrayidx10, i32 0, i32 1, !dbg !2706
  store double 0.000000e+00, double* %wgt, align 8, !dbg !2707
  %16 = load %"class.cTopology::Node"*, %"class.cTopology::Node"** %temp_nodev, align 8, !dbg !2708
  %17 = load i32, i32* %k, align 4, !dbg !2709
  %idxprom11 = sext i32 %17 to i64, !dbg !2708
  %arrayidx12 = getelementptr inbounds %"class.cTopology::Node", %"class.cTopology::Node"* %16, i64 %idxprom11, !dbg !2708
  %enabl = getelementptr inbounds %"class.cTopology::Node", %"class.cTopology::Node"* %arrayidx12, i32 0, i32 2, !dbg !2710
  store i8 1, i8* %enabl, align 8, !dbg !2711
  %18 = load %"class.cTopology::Node"*, %"class.cTopology::Node"** %temp_nodev, align 8, !dbg !2712
  %19 = load i32, i32* %k, align 4, !dbg !2713
  %idxprom13 = sext i32 %19 to i64, !dbg !2712
  %arrayidx14 = getelementptr inbounds %"class.cTopology::Node", %"class.cTopology::Node"* %18, i64 %idxprom13, !dbg !2712
  %known = getelementptr inbounds %"class.cTopology::Node", %"class.cTopology::Node"* %arrayidx14, i32 0, i32 7, !dbg !2714
  store i8 0, i8* %known, align 8, !dbg !2715
  %20 = load %"class.cTopology::Node"*, %"class.cTopology::Node"** %temp_nodev, align 8, !dbg !2716
  %21 = load i32, i32* %k, align 4, !dbg !2717
  %idxprom15 = sext i32 %21 to i64, !dbg !2716
  %arrayidx16 = getelementptr inbounds %"class.cTopology::Node", %"class.cTopology::Node"* %20, i64 %idxprom15, !dbg !2716
  %dist = getelementptr inbounds %"class.cTopology::Node", %"class.cTopology::Node"* %arrayidx16, i32 0, i32 8, !dbg !2718
  store double 0x7FF0000000000000, double* %dist, align 8, !dbg !2719
  %22 = load %"class.cTopology::Node"*, %"class.cTopology::Node"** %temp_nodev, align 8, !dbg !2720
  %23 = load i32, i32* %k, align 4, !dbg !2721
  %idxprom17 = sext i32 %23 to i64, !dbg !2720
  %arrayidx18 = getelementptr inbounds %"class.cTopology::Node", %"class.cTopology::Node"* %22, i64 %idxprom17, !dbg !2720
  %out_path = getelementptr inbounds %"class.cTopology::Node", %"class.cTopology::Node"* %arrayidx18, i32 0, i32 9, !dbg !2722
  store %"class.cTopology::Link"* null, %"class.cTopology::Link"** %out_path, align 8, !dbg !2723
  %24 = load %"class.cTopology::Node"*, %"class.cTopology::Node"** %temp_nodev, align 8, !dbg !2724
  %25 = load i32, i32* %k, align 4, !dbg !2725
  %idxprom19 = sext i32 %25 to i64, !dbg !2724
  %arrayidx20 = getelementptr inbounds %"class.cTopology::Node", %"class.cTopology::Node"* %24, i64 %idxprom19, !dbg !2724
  %num_in_links = getelementptr inbounds %"class.cTopology::Node", %"class.cTopology::Node"* %arrayidx20, i32 0, i32 3, !dbg !2726
  store i32 0, i32* %num_in_links, align 4, !dbg !2727
  %26 = load %class.cModule*, %class.cModule** %mod, align 8, !dbg !2728
  %call21 = call i32 @_ZNK7cModule9gateCountEv(%class.cModule* %26), !dbg !2729
  %conv22 = sext i32 %call21 to i64, !dbg !2728
  %27 = call { i64, i1 } @llvm.umul.with.overflow.i64(i64 %conv22, i64 8), !dbg !2730
  %28 = extractvalue { i64, i1 } %27, 1, !dbg !2730
  %29 = extractvalue { i64, i1 } %27, 0, !dbg !2730
  %30 = select i1 %28, i64 -1, i64 %29, !dbg !2730
  %call23 = call i8* @_Znam(i64 %30) #12, !dbg !2730
  %31 = bitcast i8* %call23 to %"class.cTopology::Link"**, !dbg !2730
  %32 = load %"class.cTopology::Node"*, %"class.cTopology::Node"** %temp_nodev, align 8, !dbg !2731
  %33 = load i32, i32* %k, align 4, !dbg !2732
  %idxprom24 = sext i32 %33 to i64, !dbg !2731
  %arrayidx25 = getelementptr inbounds %"class.cTopology::Node", %"class.cTopology::Node"* %32, i64 %idxprom24, !dbg !2731
  %in_links = getelementptr inbounds %"class.cTopology::Node", %"class.cTopology::Node"* %arrayidx25, i32 0, i32 4, !dbg !2733
  store %"class.cTopology::Link"** %31, %"class.cTopology::Link"*** %in_links, align 8, !dbg !2734
  %34 = load i32, i32* %k, align 4, !dbg !2735
  %inc = add nsw i32 %34, 1, !dbg !2735
  store i32 %inc, i32* %k, align 4, !dbg !2735
  br label %if.end, !dbg !2736

if.end:                                           ; preds = %if.then, %land.lhs.true, %for.body
  br label %for.inc, !dbg !2737

for.inc:                                          ; preds = %if.end
  %35 = load i32, i32* %mod_id, align 4, !dbg !2738
  %inc26 = add nsw i32 %35, 1, !dbg !2738
  store i32 %inc26, i32* %mod_id, align 4, !dbg !2738
  br label %for.cond, !dbg !2739, !llvm.loop !2740

for.end:                                          ; preds = %for.cond
  %36 = load i32, i32* %k, align 4, !dbg !2742
  %num_nodes = getelementptr inbounds %class.cTopology, %class.cTopology* %this1, i32 0, i32 1, !dbg !2743
  store i32 %36, i32* %num_nodes, align 4, !dbg !2744
  %num_nodes27 = getelementptr inbounds %class.cTopology, %class.cTopology* %this1, i32 0, i32 1, !dbg !2745
  %37 = load i32, i32* %num_nodes27, align 4, !dbg !2745
  %conv28 = sext i32 %37 to i64, !dbg !2745
  %38 = call { i64, i1 } @llvm.umul.with.overflow.i64(i64 %conv28, i64 72), !dbg !2746
  %39 = extractvalue { i64, i1 } %38, 1, !dbg !2746
  %40 = extractvalue { i64, i1 } %38, 0, !dbg !2746
  %41 = select i1 %39, i64 -1, i64 %40, !dbg !2746
  %call29 = call i8* @_Znam(i64 %41) #12, !dbg !2746
  %42 = bitcast i8* %call29 to %"class.cTopology::Node"*, !dbg !2746
  %nodev = getelementptr inbounds %class.cTopology, %class.cTopology* %this1, i32 0, i32 2, !dbg !2747
  store %"class.cTopology::Node"* %42, %"class.cTopology::Node"** %nodev, align 8, !dbg !2748
  %nodev30 = getelementptr inbounds %class.cTopology, %class.cTopology* %this1, i32 0, i32 2, !dbg !2749
  %43 = load %"class.cTopology::Node"*, %"class.cTopology::Node"** %nodev30, align 8, !dbg !2749
  %44 = bitcast %"class.cTopology::Node"* %43 to i8*, !dbg !2750
  %45 = load %"class.cTopology::Node"*, %"class.cTopology::Node"** %temp_nodev, align 8, !dbg !2751
  %46 = bitcast %"class.cTopology::Node"* %45 to i8*, !dbg !2750
  %num_nodes31 = getelementptr inbounds %class.cTopology, %class.cTopology* %this1, i32 0, i32 1, !dbg !2752
  %47 = load i32, i32* %num_nodes31, align 4, !dbg !2752
  %conv32 = sext i32 %47 to i64, !dbg !2752
  %mul = mul i64 %conv32, 72, !dbg !2753
  call void @llvm.memcpy.p0i8.p0i8.i64(i8* align 8 %44, i8* align 8 %46, i64 %mul, i1 false), !dbg !2750
  %48 = load %"class.cTopology::Node"*, %"class.cTopology::Node"** %temp_nodev, align 8, !dbg !2754
  %isnull = icmp eq %"class.cTopology::Node"* %48, null, !dbg !2755
  br i1 %isnull, label %delete.end, label %delete.notnull, !dbg !2755

delete.notnull:                                   ; preds = %for.end
  %49 = bitcast %"class.cTopology::Node"* %48 to i8*, !dbg !2755
  call void @_ZdaPv(i8* %49) #13, !dbg !2755
  br label %delete.end, !dbg !2755

delete.end:                                       ; preds = %delete.notnull, %for.end
  call void @llvm.dbg.declare(metadata i32* %k33, metadata !2756, metadata !DIExpression()), !dbg !2758
  store i32 0, i32* %k33, align 4, !dbg !2758
  br label %for.cond34, !dbg !2759

for.cond34:                                       ; preds = %for.inc105, %delete.end
  %50 = load i32, i32* %k33, align 4, !dbg !2760
  %num_nodes35 = getelementptr inbounds %class.cTopology, %class.cTopology* %this1, i32 0, i32 1, !dbg !2762
  %51 = load i32, i32* %num_nodes35, align 4, !dbg !2762
  %cmp36 = icmp slt i32 %50, %51, !dbg !2763
  br i1 %cmp36, label %for.body37, label %for.end107, !dbg !2764

for.body37:                                       ; preds = %for.cond34
  call void @llvm.dbg.declare(metadata %class.cModule** %mod38, metadata !2765, metadata !DIExpression()), !dbg !2767
  %call39 = call %class.cSimulation* @_ZN11cSimulation19getActiveSimulationEv(), !dbg !2768
  %nodev40 = getelementptr inbounds %class.cTopology, %class.cTopology* %this1, i32 0, i32 2, !dbg !2769
  %52 = load %"class.cTopology::Node"*, %"class.cTopology::Node"** %nodev40, align 8, !dbg !2769
  %53 = load i32, i32* %k33, align 4, !dbg !2770
  %idxprom41 = sext i32 %53 to i64, !dbg !2769
  %arrayidx42 = getelementptr inbounds %"class.cTopology::Node", %"class.cTopology::Node"* %52, i64 %idxprom41, !dbg !2769
  %module_id43 = getelementptr inbounds %"class.cTopology::Node", %"class.cTopology::Node"* %arrayidx42, i32 0, i32 0, !dbg !2771
  %54 = load i32, i32* %module_id43, align 8, !dbg !2771
  %call44 = call %class.cModule* @_ZNK11cSimulation9getModuleEi(%class.cSimulation* %call39, i32 %54), !dbg !2772
  store %class.cModule* %call44, %class.cModule** %mod38, align 8, !dbg !2767
  call void @llvm.dbg.declare(metadata %"class.cTopology::Link"** %temp_out_links, metadata !2773, metadata !DIExpression()), !dbg !2774
  %55 = load %class.cModule*, %class.cModule** %mod38, align 8, !dbg !2775
  %call45 = call i32 @_ZNK7cModule9gateCountEv(%class.cModule* %55), !dbg !2776
  %conv46 = sext i32 %call45 to i64, !dbg !2775
  %56 = call { i64, i1 } @llvm.umul.with.overflow.i64(i64 %conv46, i64 48), !dbg !2777
  %57 = extractvalue { i64, i1 } %56, 1, !dbg !2777
  %58 = extractvalue { i64, i1 } %56, 0, !dbg !2777
  %59 = select i1 %57, i64 -1, i64 %58, !dbg !2777
  %call47 = call i8* @_Znam(i64 %59) #12, !dbg !2777
  %60 = bitcast i8* %call47 to %"class.cTopology::Link"*, !dbg !2777
  store %"class.cTopology::Link"* %60, %"class.cTopology::Link"** %temp_out_links, align 8, !dbg !2774
  call void @llvm.dbg.declare(metadata i32* %n_out, metadata !2778, metadata !DIExpression()), !dbg !2779
  store i32 0, i32* %n_out, align 4, !dbg !2779
  call void @llvm.dbg.declare(metadata %"class.cModule::GateIterator"* %i, metadata !2780, metadata !DIExpression()), !dbg !2812
  %61 = load %class.cModule*, %class.cModule** %mod38, align 8, !dbg !2813
  call void @_ZN7cModule12GateIteratorC2EPKS_(%"class.cModule::GateIterator"* %i, %class.cModule* %61), !dbg !2812
  br label %for.cond48, !dbg !2814

for.cond48:                                       ; preds = %for.inc85, %for.body37
  %call49 = call zeroext i1 @_ZNK7cModule12GateIterator3endEv(%"class.cModule::GateIterator"* %i), !dbg !2815
  %lnot = xor i1 %call49, true, !dbg !2817
  br i1 %lnot, label %for.body50, label %for.end87, !dbg !2818

for.body50:                                       ; preds = %for.cond48
  call void @llvm.dbg.declare(metadata %class.cGate** %gate, metadata !2819, metadata !DIExpression()), !dbg !2821
  %call51 = call %class.cGate* @_ZNK7cModule12GateIteratorclEv(%"class.cModule::GateIterator"* %i), !dbg !2822
  store %class.cGate* %call51, %class.cGate** %gate, align 8, !dbg !2821
  %62 = load %class.cGate*, %class.cGate** %gate, align 8, !dbg !2823
  %call52 = call i32 @_ZNK5cGate7getTypeEv(%class.cGate* %62), !dbg !2825
  %cmp53 = icmp ne i32 %call52, 79, !dbg !2826
  br i1 %cmp53, label %if.then54, label %if.end55, !dbg !2827

if.then54:                                        ; preds = %for.body50
  br label %for.inc85, !dbg !2828

if.end55:                                         ; preds = %for.body50
  call void @llvm.dbg.declare(metadata %class.cGate** %src_gate, metadata !2829, metadata !DIExpression()), !dbg !2830
  %63 = load %class.cGate*, %class.cGate** %gate, align 8, !dbg !2831
  store %class.cGate* %63, %class.cGate** %src_gate, align 8, !dbg !2830
  br label %do.body, !dbg !2832

do.body:                                          ; preds = %land.end, %if.end55
  %64 = load %class.cGate*, %class.cGate** %gate, align 8, !dbg !2833
  %call56 = call %class.cGate* @_ZNK5cGate11getNextGateEv(%class.cGate* %64), !dbg !2835
  store %class.cGate* %call56, %class.cGate** %gate, align 8, !dbg !2836
  br label %do.cond, !dbg !2837

do.cond:                                          ; preds = %do.body
  %65 = load %class.cGate*, %class.cGate** %gate, align 8, !dbg !2838
  %tobool57 = icmp ne %class.cGate* %65, null, !dbg !2838
  br i1 %tobool57, label %land.rhs, label %land.end, !dbg !2839

land.rhs:                                         ; preds = %do.cond
  %66 = load i1 (%class.cModule*, i8*)*, i1 (%class.cModule*, i8*)** %selfunc.addr, align 8, !dbg !2840
  %67 = load %class.cGate*, %class.cGate** %gate, align 8, !dbg !2841
  %call58 = call %class.cModule* @_ZNK5cGate14getOwnerModuleEv(%class.cGate* %67), !dbg !2842
  %68 = load i8*, i8** %data.addr, align 8, !dbg !2843
  %call59 = call zeroext i1 %66(%class.cModule* %call58, i8* %68), !dbg !2840
  %lnot60 = xor i1 %call59, true, !dbg !2844
  br label %land.end

land.end:                                         ; preds = %land.rhs, %do.cond
  %69 = phi i1 [ false, %do.cond ], [ %lnot60, %land.rhs ], !dbg !2845
  br i1 %69, label %do.body, label %do.end, !dbg !2837, !llvm.loop !2846

do.end:                                           ; preds = %land.end
  %70 = load %class.cGate*, %class.cGate** %gate, align 8, !dbg !2848
  %tobool61 = icmp ne %class.cGate* %70, null, !dbg !2848
  br i1 %tobool61, label %if.then62, label %if.end84, !dbg !2850

if.then62:                                        ; preds = %do.end
  %nodev63 = getelementptr inbounds %class.cTopology, %class.cTopology* %this1, i32 0, i32 2, !dbg !2851
  %71 = load %"class.cTopology::Node"*, %"class.cTopology::Node"** %nodev63, align 8, !dbg !2851
  %72 = load i32, i32* %k33, align 4, !dbg !2853
  %idx.ext = sext i32 %72 to i64, !dbg !2854
  %add.ptr = getelementptr inbounds %"class.cTopology::Node", %"class.cTopology::Node"* %71, i64 %idx.ext, !dbg !2854
  %73 = load %"class.cTopology::Link"*, %"class.cTopology::Link"** %temp_out_links, align 8, !dbg !2855
  %74 = load i32, i32* %n_out, align 4, !dbg !2856
  %idxprom64 = sext i32 %74 to i64, !dbg !2855
  %arrayidx65 = getelementptr inbounds %"class.cTopology::Link", %"class.cTopology::Link"* %73, i64 %idxprom64, !dbg !2855
  %src_node = getelementptr inbounds %"class.cTopology::Link", %"class.cTopology::Link"* %arrayidx65, i32 0, i32 0, !dbg !2857
  store %"class.cTopology::Node"* %add.ptr, %"class.cTopology::Node"** %src_node, align 8, !dbg !2858
  %75 = load %class.cGate*, %class.cGate** %src_gate, align 8, !dbg !2859
  %call66 = call i32 @_ZNK5cGate5getIdEv(%class.cGate* %75), !dbg !2860
  %76 = load %"class.cTopology::Link"*, %"class.cTopology::Link"** %temp_out_links, align 8, !dbg !2861
  %77 = load i32, i32* %n_out, align 4, !dbg !2862
  %idxprom67 = sext i32 %77 to i64, !dbg !2861
  %arrayidx68 = getelementptr inbounds %"class.cTopology::Link", %"class.cTopology::Link"* %76, i64 %idxprom67, !dbg !2861
  %src_gate69 = getelementptr inbounds %"class.cTopology::Link", %"class.cTopology::Link"* %arrayidx68, i32 0, i32 1, !dbg !2863
  store i32 %call66, i32* %src_gate69, align 8, !dbg !2864
  %78 = load %class.cGate*, %class.cGate** %gate, align 8, !dbg !2865
  %call70 = call %class.cModule* @_ZNK5cGate14getOwnerModuleEv(%class.cGate* %78), !dbg !2866
  %call71 = call %"class.cTopology::Node"* @_ZN9cTopology10getNodeForEP7cModule(%class.cTopology* %this1, %class.cModule* %call70), !dbg !2867
  %79 = load %"class.cTopology::Link"*, %"class.cTopology::Link"** %temp_out_links, align 8, !dbg !2868
  %80 = load i32, i32* %n_out, align 4, !dbg !2869
  %idxprom72 = sext i32 %80 to i64, !dbg !2868
  %arrayidx73 = getelementptr inbounds %"class.cTopology::Link", %"class.cTopology::Link"* %79, i64 %idxprom72, !dbg !2868
  %dest_node = getelementptr inbounds %"class.cTopology::Link", %"class.cTopology::Link"* %arrayidx73, i32 0, i32 3, !dbg !2870
  store %"class.cTopology::Node"* %call71, %"class.cTopology::Node"** %dest_node, align 8, !dbg !2871
  %81 = load %class.cGate*, %class.cGate** %gate, align 8, !dbg !2872
  %call74 = call i32 @_ZNK5cGate5getIdEv(%class.cGate* %81), !dbg !2873
  %82 = load %"class.cTopology::Link"*, %"class.cTopology::Link"** %temp_out_links, align 8, !dbg !2874
  %83 = load i32, i32* %n_out, align 4, !dbg !2875
  %idxprom75 = sext i32 %83 to i64, !dbg !2874
  %arrayidx76 = getelementptr inbounds %"class.cTopology::Link", %"class.cTopology::Link"* %82, i64 %idxprom75, !dbg !2874
  %dest_gate = getelementptr inbounds %"class.cTopology::Link", %"class.cTopology::Link"* %arrayidx76, i32 0, i32 4, !dbg !2876
  store i32 %call74, i32* %dest_gate, align 8, !dbg !2877
  %84 = load %"class.cTopology::Link"*, %"class.cTopology::Link"** %temp_out_links, align 8, !dbg !2878
  %85 = load i32, i32* %n_out, align 4, !dbg !2879
  %idxprom77 = sext i32 %85 to i64, !dbg !2878
  %arrayidx78 = getelementptr inbounds %"class.cTopology::Link", %"class.cTopology::Link"* %84, i64 %idxprom77, !dbg !2878
  %wgt79 = getelementptr inbounds %"class.cTopology::Link", %"class.cTopology::Link"* %arrayidx78, i32 0, i32 6, !dbg !2880
  store double 1.000000e+00, double* %wgt79, align 8, !dbg !2881
  %86 = load %"class.cTopology::Link"*, %"class.cTopology::Link"** %temp_out_links, align 8, !dbg !2882
  %87 = load i32, i32* %n_out, align 4, !dbg !2883
  %idxprom80 = sext i32 %87 to i64, !dbg !2882
  %arrayidx81 = getelementptr inbounds %"class.cTopology::Link", %"class.cTopology::Link"* %86, i64 %idxprom80, !dbg !2882
  %enabl82 = getelementptr inbounds %"class.cTopology::Link", %"class.cTopology::Link"* %arrayidx81, i32 0, i32 7, !dbg !2884
  store i8 1, i8* %enabl82, align 8, !dbg !2885
  %88 = load i32, i32* %n_out, align 4, !dbg !2886
  %inc83 = add nsw i32 %88, 1, !dbg !2886
  store i32 %inc83, i32* %n_out, align 4, !dbg !2886
  br label %if.end84, !dbg !2887

if.end84:                                         ; preds = %if.then62, %do.end
  br label %for.inc85, !dbg !2888

for.inc85:                                        ; preds = %if.end84, %if.then54
  %call86 = call %class.cGate* @_ZN7cModule12GateIteratorppEi(%"class.cModule::GateIterator"* %i, i32 0), !dbg !2889
  br label %for.cond48, !dbg !2890, !llvm.loop !2891

for.end87:                                        ; preds = %for.cond48
  %89 = load i32, i32* %n_out, align 4, !dbg !2893
  %nodev88 = getelementptr inbounds %class.cTopology, %class.cTopology* %this1, i32 0, i32 2, !dbg !2894
  %90 = load %"class.cTopology::Node"*, %"class.cTopology::Node"** %nodev88, align 8, !dbg !2894
  %91 = load i32, i32* %k33, align 4, !dbg !2895
  %idxprom89 = sext i32 %91 to i64, !dbg !2894
  %arrayidx90 = getelementptr inbounds %"class.cTopology::Node", %"class.cTopology::Node"* %90, i64 %idxprom89, !dbg !2894
  %num_out_links = getelementptr inbounds %"class.cTopology::Node", %"class.cTopology::Node"* %arrayidx90, i32 0, i32 5, !dbg !2896
  store i32 %89, i32* %num_out_links, align 8, !dbg !2897
  %92 = load i32, i32* %n_out, align 4, !dbg !2898
  %conv91 = sext i32 %92 to i64, !dbg !2898
  %93 = call { i64, i1 } @llvm.umul.with.overflow.i64(i64 %conv91, i64 48), !dbg !2899
  %94 = extractvalue { i64, i1 } %93, 1, !dbg !2899
  %95 = extractvalue { i64, i1 } %93, 0, !dbg !2899
  %96 = select i1 %94, i64 -1, i64 %95, !dbg !2899
  %call92 = call i8* @_Znam(i64 %96) #12, !dbg !2899
  %97 = bitcast i8* %call92 to %"class.cTopology::Link"*, !dbg !2899
  %nodev93 = getelementptr inbounds %class.cTopology, %class.cTopology* %this1, i32 0, i32 2, !dbg !2900
  %98 = load %"class.cTopology::Node"*, %"class.cTopology::Node"** %nodev93, align 8, !dbg !2900
  %99 = load i32, i32* %k33, align 4, !dbg !2901
  %idxprom94 = sext i32 %99 to i64, !dbg !2900
  %arrayidx95 = getelementptr inbounds %"class.cTopology::Node", %"class.cTopology::Node"* %98, i64 %idxprom94, !dbg !2900
  %out_links = getelementptr inbounds %"class.cTopology::Node", %"class.cTopology::Node"* %arrayidx95, i32 0, i32 6, !dbg !2902
  store %"class.cTopology::Link"* %97, %"class.cTopology::Link"** %out_links, align 8, !dbg !2903
  %nodev96 = getelementptr inbounds %class.cTopology, %class.cTopology* %this1, i32 0, i32 2, !dbg !2904
  %100 = load %"class.cTopology::Node"*, %"class.cTopology::Node"** %nodev96, align 8, !dbg !2904
  %101 = load i32, i32* %k33, align 4, !dbg !2905
  %idxprom97 = sext i32 %101 to i64, !dbg !2904
  %arrayidx98 = getelementptr inbounds %"class.cTopology::Node", %"class.cTopology::Node"* %100, i64 %idxprom97, !dbg !2904
  %out_links99 = getelementptr inbounds %"class.cTopology::Node", %"class.cTopology::Node"* %arrayidx98, i32 0, i32 6, !dbg !2906
  %102 = load %"class.cTopology::Link"*, %"class.cTopology::Link"** %out_links99, align 8, !dbg !2906
  %103 = bitcast %"class.cTopology::Link"* %102 to i8*, !dbg !2907
  %104 = load %"class.cTopology::Link"*, %"class.cTopology::Link"** %temp_out_links, align 8, !dbg !2908
  %105 = bitcast %"class.cTopology::Link"* %104 to i8*, !dbg !2907
  %106 = load i32, i32* %n_out, align 4, !dbg !2909
  %conv100 = sext i32 %106 to i64, !dbg !2909
  %mul101 = mul i64 %conv100, 48, !dbg !2910
  call void @llvm.memcpy.p0i8.p0i8.i64(i8* align 8 %103, i8* align 8 %105, i64 %mul101, i1 false), !dbg !2907
  %107 = load %"class.cTopology::Link"*, %"class.cTopology::Link"** %temp_out_links, align 8, !dbg !2911
  %isnull102 = icmp eq %"class.cTopology::Link"* %107, null, !dbg !2912
  br i1 %isnull102, label %delete.end104, label %delete.notnull103, !dbg !2912

delete.notnull103:                                ; preds = %for.end87
  %108 = bitcast %"class.cTopology::Link"* %107 to i8*, !dbg !2912
  call void @_ZdaPv(i8* %108) #13, !dbg !2912
  br label %delete.end104, !dbg !2912

delete.end104:                                    ; preds = %delete.notnull103, %for.end87
  br label %for.inc105, !dbg !2913

for.inc105:                                       ; preds = %delete.end104
  %109 = load i32, i32* %k33, align 4, !dbg !2914
  %inc106 = add nsw i32 %109, 1, !dbg !2914
  store i32 %inc106, i32* %k33, align 4, !dbg !2914
  br label %for.cond34, !dbg !2915, !llvm.loop !2916

for.end107:                                       ; preds = %for.cond34
  call void @llvm.dbg.declare(metadata i32* %k108, metadata !2918, metadata !DIExpression()), !dbg !2920
  store i32 0, i32* %k108, align 4, !dbg !2920
  br label %for.cond109, !dbg !2921

for.cond109:                                      ; preds = %for.inc136, %for.end107
  %110 = load i32, i32* %k108, align 4, !dbg !2922
  %num_nodes110 = getelementptr inbounds %class.cTopology, %class.cTopology* %this1, i32 0, i32 1, !dbg !2924
  %111 = load i32, i32* %num_nodes110, align 4, !dbg !2924
  %cmp111 = icmp slt i32 %110, %111, !dbg !2925
  br i1 %cmp111, label %for.body112, label %for.end138, !dbg !2926

for.body112:                                      ; preds = %for.cond109
  call void @llvm.dbg.declare(metadata i32* %l, metadata !2927, metadata !DIExpression()), !dbg !2930
  store i32 0, i32* %l, align 4, !dbg !2930
  br label %for.cond113, !dbg !2931

for.cond113:                                      ; preds = %for.inc133, %for.body112
  %112 = load i32, i32* %l, align 4, !dbg !2932
  %nodev114 = getelementptr inbounds %class.cTopology, %class.cTopology* %this1, i32 0, i32 2, !dbg !2934
  %113 = load %"class.cTopology::Node"*, %"class.cTopology::Node"** %nodev114, align 8, !dbg !2934
  %114 = load i32, i32* %k108, align 4, !dbg !2935
  %idxprom115 = sext i32 %114 to i64, !dbg !2934
  %arrayidx116 = getelementptr inbounds %"class.cTopology::Node", %"class.cTopology::Node"* %113, i64 %idxprom115, !dbg !2934
  %num_out_links117 = getelementptr inbounds %"class.cTopology::Node", %"class.cTopology::Node"* %arrayidx116, i32 0, i32 5, !dbg !2936
  %115 = load i32, i32* %num_out_links117, align 8, !dbg !2936
  %cmp118 = icmp slt i32 %112, %115, !dbg !2937
  br i1 %cmp118, label %for.body119, label %for.end135, !dbg !2938

for.body119:                                      ; preds = %for.cond113
  call void @llvm.dbg.declare(metadata %"class.cTopology::Link"** %link, metadata !2939, metadata !DIExpression()), !dbg !2941
  %nodev120 = getelementptr inbounds %class.cTopology, %class.cTopology* %this1, i32 0, i32 2, !dbg !2942
  %116 = load %"class.cTopology::Node"*, %"class.cTopology::Node"** %nodev120, align 8, !dbg !2942
  %117 = load i32, i32* %k108, align 4, !dbg !2943
  %idxprom121 = sext i32 %117 to i64, !dbg !2942
  %arrayidx122 = getelementptr inbounds %"class.cTopology::Node", %"class.cTopology::Node"* %116, i64 %idxprom121, !dbg !2942
  %out_links123 = getelementptr inbounds %"class.cTopology::Node", %"class.cTopology::Node"* %arrayidx122, i32 0, i32 6, !dbg !2944
  %118 = load %"class.cTopology::Link"*, %"class.cTopology::Link"** %out_links123, align 8, !dbg !2944
  %119 = load i32, i32* %l, align 4, !dbg !2945
  %idxprom124 = sext i32 %119 to i64, !dbg !2942
  %arrayidx125 = getelementptr inbounds %"class.cTopology::Link", %"class.cTopology::Link"* %118, i64 %idxprom124, !dbg !2942
  store %"class.cTopology::Link"* %arrayidx125, %"class.cTopology::Link"** %link, align 8, !dbg !2941
  %120 = load %"class.cTopology::Link"*, %"class.cTopology::Link"** %link, align 8, !dbg !2946
  %121 = load %"class.cTopology::Link"*, %"class.cTopology::Link"** %link, align 8, !dbg !2947
  %dest_node126 = getelementptr inbounds %"class.cTopology::Link", %"class.cTopology::Link"* %121, i32 0, i32 3, !dbg !2948
  %122 = load %"class.cTopology::Node"*, %"class.cTopology::Node"** %dest_node126, align 8, !dbg !2948
  %in_links127 = getelementptr inbounds %"class.cTopology::Node", %"class.cTopology::Node"* %122, i32 0, i32 4, !dbg !2949
  %123 = load %"class.cTopology::Link"**, %"class.cTopology::Link"*** %in_links127, align 8, !dbg !2949
  %124 = load %"class.cTopology::Link"*, %"class.cTopology::Link"** %link, align 8, !dbg !2950
  %dest_node128 = getelementptr inbounds %"class.cTopology::Link", %"class.cTopology::Link"* %124, i32 0, i32 3, !dbg !2951
  %125 = load %"class.cTopology::Node"*, %"class.cTopology::Node"** %dest_node128, align 8, !dbg !2951
  %num_in_links129 = getelementptr inbounds %"class.cTopology::Node", %"class.cTopology::Node"* %125, i32 0, i32 3, !dbg !2952
  %126 = load i32, i32* %num_in_links129, align 4, !dbg !2953
  %inc130 = add nsw i32 %126, 1, !dbg !2953
  store i32 %inc130, i32* %num_in_links129, align 4, !dbg !2953
  %idxprom131 = sext i32 %126 to i64, !dbg !2947
  %arrayidx132 = getelementptr inbounds %"class.cTopology::Link"*, %"class.cTopology::Link"** %123, i64 %idxprom131, !dbg !2947
  store %"class.cTopology::Link"* %120, %"class.cTopology::Link"** %arrayidx132, align 8, !dbg !2954
  br label %for.inc133, !dbg !2955

for.inc133:                                       ; preds = %for.body119
  %127 = load i32, i32* %l, align 4, !dbg !2956
  %inc134 = add nsw i32 %127, 1, !dbg !2956
  store i32 %inc134, i32* %l, align 4, !dbg !2956
  br label %for.cond113, !dbg !2957, !llvm.loop !2958

for.end135:                                       ; preds = %for.cond113
  br label %for.inc136, !dbg !2960

for.inc136:                                       ; preds = %for.end135
  %128 = load i32, i32* %k108, align 4, !dbg !2961
  %inc137 = add nsw i32 %128, 1, !dbg !2961
  store i32 %inc137, i32* %k108, align 4, !dbg !2961
  br label %for.cond109, !dbg !2962, !llvm.loop !2963

for.end138:                                       ; preds = %for.cond109
  ret void, !dbg !2965
}

; Function Attrs: noinline uwtable
define internal zeroext i1 @_ZL18selectByModulePathP7cModulePv(%class.cModule* %mod, i8* %data) #0 personality i8* bitcast (i32 (...)* @__gxx_personality_v0 to i8*) !dbg !2966 {
entry:
  %retval = alloca i1, align 1
  %mod.addr = alloca %class.cModule*, align 8
  %data.addr = alloca i8*, align 8
  %v = alloca %"class.std::vector"*, align 8
  %path = alloca %"class.std::__cxx11::basic_string", align 8
  %i = alloca i32, align 4
  %ref.tmp = alloca %class.PatternMatcher, align 8
  %exn.slot = alloca i8*
  %ehselector.slot = alloca i32
  %cleanup.dest.slot = alloca i32, align 4
  store %class.cModule* %mod, %class.cModule** %mod.addr, align 8
  call void @llvm.dbg.declare(metadata %class.cModule** %mod.addr, metadata !2967, metadata !DIExpression()), !dbg !2968
  store i8* %data, i8** %data.addr, align 8
  call void @llvm.dbg.declare(metadata i8** %data.addr, metadata !2969, metadata !DIExpression()), !dbg !2970
  call void @llvm.dbg.declare(metadata %"class.std::vector"** %v, metadata !2971, metadata !DIExpression()), !dbg !2972
  %0 = load i8*, i8** %data.addr, align 8, !dbg !2973
  %1 = bitcast i8* %0 to %"class.std::vector"*, !dbg !2974
  store %"class.std::vector"* %1, %"class.std::vector"** %v, align 8, !dbg !2972
  call void @llvm.dbg.declare(metadata %"class.std::__cxx11::basic_string"* %path, metadata !2975, metadata !DIExpression()), !dbg !2976
  %2 = load %class.cModule*, %class.cModule** %mod.addr, align 8, !dbg !2977
  %3 = bitcast %class.cModule* %2 to void (%"class.std::__cxx11::basic_string"*, %class.cModule*)***, !dbg !2978
  %vtable = load void (%"class.std::__cxx11::basic_string"*, %class.cModule*)**, void (%"class.std::__cxx11::basic_string"*, %class.cModule*)*** %3, align 8, !dbg !2978
  %vfn = getelementptr inbounds void (%"class.std::__cxx11::basic_string"*, %class.cModule*)*, void (%"class.std::__cxx11::basic_string"*, %class.cModule*)** %vtable, i64 8, !dbg !2978
  %4 = load void (%"class.std::__cxx11::basic_string"*, %class.cModule*)*, void (%"class.std::__cxx11::basic_string"*, %class.cModule*)** %vfn, align 8, !dbg !2978
  call void %4(%"class.std::__cxx11::basic_string"* sret %path, %class.cModule* %2), !dbg !2978
  call void @llvm.dbg.declare(metadata i32* %i, metadata !2979, metadata !DIExpression()), !dbg !2981
  store i32 0, i32* %i, align 4, !dbg !2981
  br label %for.cond, !dbg !2982

for.cond:                                         ; preds = %for.inc, %entry
  %5 = load i32, i32* %i, align 4, !dbg !2983
  %6 = load %"class.std::vector"*, %"class.std::vector"** %v, align 8, !dbg !2985
  %call = call i64 @_ZNKSt6vectorINSt7__cxx1112basic_stringIcSt11char_traitsIcESaIcEEESaIS5_EE4sizeEv(%"class.std::vector"* %6) #3, !dbg !2986
  %conv = trunc i64 %call to i32, !dbg !2985
  %cmp = icmp slt i32 %5, %conv, !dbg !2987
  br i1 %cmp, label %for.body, label %for.end, !dbg !2988

for.body:                                         ; preds = %for.cond
  %7 = load %"class.std::vector"*, %"class.std::vector"** %v, align 8, !dbg !2989
  %8 = load i32, i32* %i, align 4, !dbg !2991
  %conv1 = sext i32 %8 to i64, !dbg !2991
  %call2 = call dereferenceable(32) %"class.std::__cxx11::basic_string"* @_ZNKSt6vectorINSt7__cxx1112basic_stringIcSt11char_traitsIcESaIcEEESaIS5_EEixEm(%"class.std::vector"* %7, i64 %conv1) #3, !dbg !2989
  %call3 = call i8* @_ZNKSt7__cxx1112basic_stringIcSt11char_traitsIcESaIcEE5c_strEv(%"class.std::__cxx11::basic_string"* %call2) #3, !dbg !2992
  invoke void @_ZN14PatternMatcherC1EPKcbbb(%class.PatternMatcher* %ref.tmp, i8* %call3, i1 zeroext true, i1 zeroext true, i1 zeroext true)
          to label %invoke.cont unwind label %lpad, !dbg !2993

invoke.cont:                                      ; preds = %for.body
  %call4 = call i8* @_ZNKSt7__cxx1112basic_stringIcSt11char_traitsIcESaIcEE5c_strEv(%"class.std::__cxx11::basic_string"* %path) #3, !dbg !2994
  %call7 = invoke zeroext i1 @_ZN14PatternMatcher7matchesEPKc(%class.PatternMatcher* %ref.tmp, i8* %call4)
          to label %invoke.cont6 unwind label %lpad5, !dbg !2995

invoke.cont6:                                     ; preds = %invoke.cont
  call void @_ZN14PatternMatcherD1Ev(%class.PatternMatcher* %ref.tmp) #3, !dbg !2993
  br i1 %call7, label %if.then, label %if.end, !dbg !2996

if.then:                                          ; preds = %invoke.cont6
  store i1 true, i1* %retval, align 1, !dbg !2997
  store i32 1, i32* %cleanup.dest.slot, align 4
  br label %cleanup, !dbg !2997

lpad:                                             ; preds = %for.body
  %9 = landingpad { i8*, i32 }
          cleanup, !dbg !2998
  %10 = extractvalue { i8*, i32 } %9, 0, !dbg !2998
  store i8* %10, i8** %exn.slot, align 8, !dbg !2998
  %11 = extractvalue { i8*, i32 } %9, 1, !dbg !2998
  store i32 %11, i32* %ehselector.slot, align 4, !dbg !2998
  br label %ehcleanup, !dbg !2998

lpad5:                                            ; preds = %invoke.cont
  %12 = landingpad { i8*, i32 }
          cleanup, !dbg !2998
  %13 = extractvalue { i8*, i32 } %12, 0, !dbg !2998
  store i8* %13, i8** %exn.slot, align 8, !dbg !2998
  %14 = extractvalue { i8*, i32 } %12, 1, !dbg !2998
  store i32 %14, i32* %ehselector.slot, align 4, !dbg !2998
  call void @_ZN14PatternMatcherD1Ev(%class.PatternMatcher* %ref.tmp) #3, !dbg !2993
  br label %ehcleanup, !dbg !2993

if.end:                                           ; preds = %invoke.cont6
  br label %for.inc, !dbg !2999

for.inc:                                          ; preds = %if.end
  %15 = load i32, i32* %i, align 4, !dbg !3000
  %inc = add nsw i32 %15, 1, !dbg !3000
  store i32 %inc, i32* %i, align 4, !dbg !3000
  br label %for.cond, !dbg !3001, !llvm.loop !3002

for.end:                                          ; preds = %for.cond
  store i1 false, i1* %retval, align 1, !dbg !3004
  store i32 1, i32* %cleanup.dest.slot, align 4
  br label %cleanup, !dbg !3004

cleanup:                                          ; preds = %for.end, %if.then
  call void @_ZNSt7__cxx1112basic_stringIcSt11char_traitsIcESaIcEED1Ev(%"class.std::__cxx11::basic_string"* %path) #3, !dbg !3005
  %16 = load i1, i1* %retval, align 1, !dbg !3005
  ret i1 %16, !dbg !3005

ehcleanup:                                        ; preds = %lpad5, %lpad
  call void @_ZNSt7__cxx1112basic_stringIcSt11char_traitsIcESaIcEED1Ev(%"class.std::__cxx11::basic_string"* %path) #3, !dbg !3005
  br label %eh.resume, !dbg !3005

eh.resume:                                        ; preds = %ehcleanup
  %exn = load i8*, i8** %exn.slot, align 8, !dbg !3005
  %sel = load i32, i32* %ehselector.slot, align 4, !dbg !3005
  %lpad.val = insertvalue { i8*, i32 } undef, i8* %exn, 0, !dbg !3005
  %lpad.val8 = insertvalue { i8*, i32 } %lpad.val, i32 %sel, 1, !dbg !3005
  resume { i8*, i32 } %lpad.val8, !dbg !3005
}

; Function Attrs: noinline uwtable
define dso_local void @_ZN9cTopology20extractByNedTypeNameERKSt6vectorINSt7__cxx1112basic_stringIcSt11char_traitsIcESaIcEEESaIS6_EE(%class.cTopology* %this, %"class.std::vector"* dereferenceable(24) %nedTypeNames) #0 align 2 !dbg !3006 {
entry:
  %this.addr = alloca %class.cTopology*, align 8
  %nedTypeNames.addr = alloca %"class.std::vector"*, align 8
  store %class.cTopology* %this, %class.cTopology** %this.addr, align 8
  call void @llvm.dbg.declare(metadata %class.cTopology** %this.addr, metadata !3007, metadata !DIExpression()), !dbg !3008
  store %"class.std::vector"* %nedTypeNames, %"class.std::vector"** %nedTypeNames.addr, align 8
  call void @llvm.dbg.declare(metadata %"class.std::vector"** %nedTypeNames.addr, metadata !3009, metadata !DIExpression()), !dbg !3010
  %this1 = load %class.cTopology*, %class.cTopology** %this.addr, align 8
  %0 = load %"class.std::vector"*, %"class.std::vector"** %nedTypeNames.addr, align 8, !dbg !3011
  %1 = bitcast %"class.std::vector"* %0 to i8*, !dbg !3012
  call void @_ZN9cTopology18extractFromNetworkEPFbP7cModulePvES2_(%class.cTopology* %this1, i1 (%class.cModule*, i8*)* @_ZL19selectByNedTypeNameP7cModulePv, i8* %1), !dbg !3013
  ret void, !dbg !3014
}

; Function Attrs: noinline uwtable
define internal zeroext i1 @_ZL19selectByNedTypeNameP7cModulePv(%class.cModule* %mod, i8* %data) #0 !dbg !3015 {
entry:
  %mod.addr = alloca %class.cModule*, align 8
  %data.addr = alloca i8*, align 8
  %v = alloca %"class.std::vector"*, align 8
  %ref.tmp = alloca %"class.__gnu_cxx::__normal_iterator", align 8
  %agg.tmp = alloca %"class.__gnu_cxx::__normal_iterator", align 8
  %agg.tmp1 = alloca %"class.__gnu_cxx::__normal_iterator", align 8
  %ref.tmp4 = alloca i8*, align 8
  %ref.tmp10 = alloca %"class.__gnu_cxx::__normal_iterator", align 8
  store %class.cModule* %mod, %class.cModule** %mod.addr, align 8
  call void @llvm.dbg.declare(metadata %class.cModule** %mod.addr, metadata !3016, metadata !DIExpression()), !dbg !3017
  store i8* %data, i8** %data.addr, align 8
  call void @llvm.dbg.declare(metadata i8** %data.addr, metadata !3018, metadata !DIExpression()), !dbg !3019
  call void @llvm.dbg.declare(metadata %"class.std::vector"** %v, metadata !3020, metadata !DIExpression()), !dbg !3021
  %0 = load i8*, i8** %data.addr, align 8, !dbg !3022
  %1 = bitcast i8* %0 to %"class.std::vector"*, !dbg !3023
  store %"class.std::vector"* %1, %"class.std::vector"** %v, align 8, !dbg !3021
  %2 = load %"class.std::vector"*, %"class.std::vector"** %v, align 8, !dbg !3024
  %call = call %"class.std::__cxx11::basic_string"* @_ZNKSt6vectorINSt7__cxx1112basic_stringIcSt11char_traitsIcESaIcEEESaIS5_EE5beginEv(%"class.std::vector"* %2) #3, !dbg !3025
  %coerce.dive = getelementptr inbounds %"class.__gnu_cxx::__normal_iterator", %"class.__gnu_cxx::__normal_iterator"* %agg.tmp, i32 0, i32 0, !dbg !3025
  store %"class.std::__cxx11::basic_string"* %call, %"class.std::__cxx11::basic_string"** %coerce.dive, align 8, !dbg !3025
  %3 = load %"class.std::vector"*, %"class.std::vector"** %v, align 8, !dbg !3026
  %call2 = call %"class.std::__cxx11::basic_string"* @_ZNKSt6vectorINSt7__cxx1112basic_stringIcSt11char_traitsIcESaIcEEESaIS5_EE3endEv(%"class.std::vector"* %3) #3, !dbg !3027
  %coerce.dive3 = getelementptr inbounds %"class.__gnu_cxx::__normal_iterator", %"class.__gnu_cxx::__normal_iterator"* %agg.tmp1, i32 0, i32 0, !dbg !3027
  store %"class.std::__cxx11::basic_string"* %call2, %"class.std::__cxx11::basic_string"** %coerce.dive3, align 8, !dbg !3027
  %4 = load %class.cModule*, %class.cModule** %mod.addr, align 8, !dbg !3028
  %5 = bitcast %class.cModule* %4 to %class.cComponent*, !dbg !3029
  %6 = bitcast %class.cComponent* %5 to i8* (%class.cComponent*)***, !dbg !3029
  %vtable = load i8* (%class.cComponent*)**, i8* (%class.cComponent*)*** %6, align 8, !dbg !3029
  %vfn = getelementptr inbounds i8* (%class.cComponent*)*, i8* (%class.cComponent*)** %vtable, i64 35, !dbg !3029
  %7 = load i8* (%class.cComponent*)*, i8* (%class.cComponent*)** %vfn, align 8, !dbg !3029
  %call5 = call i8* %7(%class.cComponent* %5), !dbg !3029
  store i8* %call5, i8** %ref.tmp4, align 8, !dbg !3028
  %coerce.dive6 = getelementptr inbounds %"class.__gnu_cxx::__normal_iterator", %"class.__gnu_cxx::__normal_iterator"* %agg.tmp, i32 0, i32 0, !dbg !3030
  %8 = load %"class.std::__cxx11::basic_string"*, %"class.std::__cxx11::basic_string"** %coerce.dive6, align 8, !dbg !3030
  %coerce.dive7 = getelementptr inbounds %"class.__gnu_cxx::__normal_iterator", %"class.__gnu_cxx::__normal_iterator"* %agg.tmp1, i32 0, i32 0, !dbg !3030
  %9 = load %"class.std::__cxx11::basic_string"*, %"class.std::__cxx11::basic_string"** %coerce.dive7, align 8, !dbg !3030
  %call8 = call %"class.std::__cxx11::basic_string"* @_ZSt4findIN9__gnu_cxx17__normal_iteratorIPKNSt7__cxx1112basic_stringIcSt11char_traitsIcESaIcEEESt6vectorIS7_SaIS7_EEEEPKcET_SG_SG_RKT0_(%"class.std::__cxx11::basic_string"* %8, %"class.std::__cxx11::basic_string"* %9, i8** dereferenceable(8) %ref.tmp4), !dbg !3030
  %coerce.dive9 = getelementptr inbounds %"class.__gnu_cxx::__normal_iterator", %"class.__gnu_cxx::__normal_iterator"* %ref.tmp, i32 0, i32 0, !dbg !3030
  store %"class.std::__cxx11::basic_string"* %call8, %"class.std::__cxx11::basic_string"** %coerce.dive9, align 8, !dbg !3030
  %10 = load %"class.std::vector"*, %"class.std::vector"** %v, align 8, !dbg !3031
  %call11 = call %"class.std::__cxx11::basic_string"* @_ZNKSt6vectorINSt7__cxx1112basic_stringIcSt11char_traitsIcESaIcEEESaIS5_EE3endEv(%"class.std::vector"* %10) #3, !dbg !3032
  %coerce.dive12 = getelementptr inbounds %"class.__gnu_cxx::__normal_iterator", %"class.__gnu_cxx::__normal_iterator"* %ref.tmp10, i32 0, i32 0, !dbg !3032
  store %"class.std::__cxx11::basic_string"* %call11, %"class.std::__cxx11::basic_string"** %coerce.dive12, align 8, !dbg !3032
  %call13 = call zeroext i1 @_ZN9__gnu_cxxneIPKNSt7__cxx1112basic_stringIcSt11char_traitsIcESaIcEEESt6vectorIS6_SaIS6_EEEEbRKNS_17__normal_iteratorIT_T0_EESH_(%"class.__gnu_cxx::__normal_iterator"* dereferenceable(8) %ref.tmp, %"class.__gnu_cxx::__normal_iterator"* dereferenceable(8) %ref.tmp10) #3, !dbg !3033
  ret i1 %call13, !dbg !3034
}

; Function Attrs: noinline uwtable
define dso_local void @_ZN9cTopology17extractByPropertyEPKcS1_(%class.cTopology* %this, i8* %propertyName, i8* %value) #0 align 2 !dbg !3035 {
entry:
  %this.addr = alloca %class.cTopology*, align 8
  %propertyName.addr = alloca i8*, align 8
  %value.addr = alloca i8*, align 8
  %data = alloca %struct.anon, align 8
  store %class.cTopology* %this, %class.cTopology** %this.addr, align 8
  call void @llvm.dbg.declare(metadata %class.cTopology** %this.addr, metadata !3036, metadata !DIExpression()), !dbg !3037
  store i8* %propertyName, i8** %propertyName.addr, align 8
  call void @llvm.dbg.declare(metadata i8** %propertyName.addr, metadata !3038, metadata !DIExpression()), !dbg !3039
  store i8* %value, i8** %value.addr, align 8
  call void @llvm.dbg.declare(metadata i8** %value.addr, metadata !3040, metadata !DIExpression()), !dbg !3041
  %this1 = load %class.cTopology*, %class.cTopology** %this.addr, align 8
  call void @llvm.dbg.declare(metadata %struct.anon* %data, metadata !3042, metadata !DIExpression()), !dbg !3047
  %name = getelementptr inbounds %struct.anon, %struct.anon* %data, i32 0, i32 0, !dbg !3048
  %0 = load i8*, i8** %propertyName.addr, align 8, !dbg !3049
  store i8* %0, i8** %name, align 8, !dbg !3048
  %value2 = getelementptr inbounds %struct.anon, %struct.anon* %data, i32 0, i32 1, !dbg !3048
  %1 = load i8*, i8** %value.addr, align 8, !dbg !3050
  store i8* %1, i8** %value2, align 8, !dbg !3048
  %2 = bitcast %struct.anon* %data to i8*, !dbg !3051
  call void @_ZN9cTopology18extractFromNetworkEPFbP7cModulePvES2_(%class.cTopology* %this1, i1 (%class.cModule*, i8*)* @_ZL16selectByPropertyP7cModulePv, i8* %2), !dbg !3052
  ret void, !dbg !3053
}

; Function Attrs: noinline uwtable
define internal zeroext i1 @_ZL16selectByPropertyP7cModulePv(%class.cModule* %mod, i8* %data) #0 !dbg !1207 {
entry:
  %retval = alloca i1, align 1
  %mod.addr = alloca %class.cModule*, align 8
  %data.addr = alloca i8*, align 8
  %d = alloca %struct.ParamData*, align 8
  %prop = alloca %class.cProperty*, align 8
  %value = alloca i8*, align 8
  store %class.cModule* %mod, %class.cModule** %mod.addr, align 8
  call void @llvm.dbg.declare(metadata %class.cModule** %mod.addr, metadata !3054, metadata !DIExpression()), !dbg !3055
  store i8* %data, i8** %data.addr, align 8
  call void @llvm.dbg.declare(metadata i8** %data.addr, metadata !3056, metadata !DIExpression()), !dbg !3057
  call void @llvm.dbg.declare(metadata %struct.ParamData** %d, metadata !3058, metadata !DIExpression()), !dbg !3059
  %0 = load i8*, i8** %data.addr, align 8, !dbg !3060
  %1 = bitcast i8* %0 to %struct.ParamData*, !dbg !3061
  store %struct.ParamData* %1, %struct.ParamData** %d, align 8, !dbg !3059
  call void @llvm.dbg.declare(metadata %class.cProperty** %prop, metadata !3062, metadata !DIExpression()), !dbg !3066
  %2 = load %class.cModule*, %class.cModule** %mod.addr, align 8, !dbg !3067
  %3 = bitcast %class.cModule* %2 to %class.cProperties* (%class.cModule*)***, !dbg !3068
  %vtable = load %class.cProperties* (%class.cModule*)**, %class.cProperties* (%class.cModule*)*** %3, align 8, !dbg !3068
  %vfn = getelementptr inbounds %class.cProperties* (%class.cModule*)*, %class.cProperties* (%class.cModule*)** %vtable, i64 34, !dbg !3068
  %4 = load %class.cProperties* (%class.cModule*)*, %class.cProperties* (%class.cModule*)** %vfn, align 8, !dbg !3068
  %call = call %class.cProperties* %4(%class.cModule* %2), !dbg !3068
  %5 = load %struct.ParamData*, %struct.ParamData** %d, align 8, !dbg !3069
  %name = getelementptr inbounds %struct.ParamData, %struct.ParamData* %5, i32 0, i32 0, !dbg !3070
  %6 = load i8*, i8** %name, align 8, !dbg !3070
  %7 = bitcast %class.cProperties* %call to %class.cProperty* (%class.cProperties*, i8*, i8*)***, !dbg !3071
  %vtable1 = load %class.cProperty* (%class.cProperties*, i8*, i8*)**, %class.cProperty* (%class.cProperties*, i8*, i8*)*** %7, align 8, !dbg !3071
  %vfn2 = getelementptr inbounds %class.cProperty* (%class.cProperties*, i8*, i8*)*, %class.cProperty* (%class.cProperties*, i8*, i8*)** %vtable1, i64 23, !dbg !3071
  %8 = load %class.cProperty* (%class.cProperties*, i8*, i8*)*, %class.cProperty* (%class.cProperties*, i8*, i8*)** %vfn2, align 8, !dbg !3071
  %call3 = call %class.cProperty* %8(%class.cProperties* %call, i8* %6, i8* null), !dbg !3071
  store %class.cProperty* %call3, %class.cProperty** %prop, align 8, !dbg !3066
  %9 = load %class.cProperty*, %class.cProperty** %prop, align 8, !dbg !3072
  %tobool = icmp ne %class.cProperty* %9, null, !dbg !3072
  br i1 %tobool, label %if.end, label %if.then, !dbg !3074

if.then:                                          ; preds = %entry
  store i1 false, i1* %retval, align 1, !dbg !3075
  br label %return, !dbg !3075

if.end:                                           ; preds = %entry
  call void @llvm.dbg.declare(metadata i8** %value, metadata !3076, metadata !DIExpression()), !dbg !3077
  %10 = load %class.cProperty*, %class.cProperty** %prop, align 8, !dbg !3078
  %11 = load i8*, i8** @_ZN9cProperty10DEFAULTKEYE, align 8, !dbg !3079
  %12 = bitcast %class.cProperty* %10 to i8* (%class.cProperty*, i8*, i32)***, !dbg !3080
  %vtable4 = load i8* (%class.cProperty*, i8*, i32)**, i8* (%class.cProperty*, i8*, i32)*** %12, align 8, !dbg !3080
  %vfn5 = getelementptr inbounds i8* (%class.cProperty*, i8*, i32)*, i8* (%class.cProperty*, i8*, i32)** %vtable4, i64 34, !dbg !3080
  %13 = load i8* (%class.cProperty*, i8*, i32)*, i8* (%class.cProperty*, i8*, i32)** %vfn5, align 8, !dbg !3080
  %call6 = call i8* %13(%class.cProperty* %10, i8* %11, i32 0), !dbg !3080
  store i8* %call6, i8** %value, align 8, !dbg !3077
  %14 = load %struct.ParamData*, %struct.ParamData** %d, align 8, !dbg !3081
  %value7 = getelementptr inbounds %struct.ParamData, %struct.ParamData* %14, i32 0, i32 1, !dbg !3083
  %15 = load i8*, i8** %value7, align 8, !dbg !3083
  %tobool8 = icmp ne i8* %15, null, !dbg !3081
  br i1 %tobool8, label %if.then9, label %if.else, !dbg !3084

if.then9:                                         ; preds = %if.end
  %16 = load i8*, i8** %value, align 8, !dbg !3085
  %17 = load %struct.ParamData*, %struct.ParamData** %d, align 8, !dbg !3086
  %value10 = getelementptr inbounds %struct.ParamData, %struct.ParamData* %17, i32 0, i32 1, !dbg !3087
  %18 = load i8*, i8** %value10, align 8, !dbg !3087
  %call11 = call i32 @_Z10opp_strcmpPKcS0_(i8* %16, i8* %18), !dbg !3088
  %cmp = icmp eq i32 %call11, 0, !dbg !3089
  store i1 %cmp, i1* %retval, align 1, !dbg !3090
  br label %return, !dbg !3090

if.else:                                          ; preds = %if.end
  %19 = load i8*, i8** %value, align 8, !dbg !3091
  %call12 = call i32 @_Z10opp_strcmpPKcS0_(i8* %19, i8* getelementptr inbounds ([6 x i8], [6 x i8]* @.str.10, i64 0, i64 0)), !dbg !3092
  %cmp13 = icmp ne i32 %call12, 0, !dbg !3093
  store i1 %cmp13, i1* %retval, align 1, !dbg !3094
  br label %return, !dbg !3094

return:                                           ; preds = %if.else, %if.then9, %if.then
  %20 = load i1, i1* %retval, align 1, !dbg !3095
  ret i1 %20, !dbg !3095
}

; Function Attrs: noinline uwtable
define dso_local void @_ZN9cTopology18extractByParameterEPKcS1_(%class.cTopology* %this, i8* %paramName, i8* %paramValue) #0 align 2 !dbg !3096 {
entry:
  %this.addr = alloca %class.cTopology*, align 8
  %paramName.addr = alloca i8*, align 8
  %paramValue.addr = alloca i8*, align 8
  %data = alloca %struct.anon.5, align 8
  store %class.cTopology* %this, %class.cTopology** %this.addr, align 8
  call void @llvm.dbg.declare(metadata %class.cTopology** %this.addr, metadata !3097, metadata !DIExpression()), !dbg !3098
  store i8* %paramName, i8** %paramName.addr, align 8
  call void @llvm.dbg.declare(metadata i8** %paramName.addr, metadata !3099, metadata !DIExpression()), !dbg !3100
  store i8* %paramValue, i8** %paramValue.addr, align 8
  call void @llvm.dbg.declare(metadata i8** %paramValue.addr, metadata !3101, metadata !DIExpression()), !dbg !3102
  %this1 = load %class.cTopology*, %class.cTopology** %this.addr, align 8
  call void @llvm.dbg.declare(metadata %struct.anon.5* %data, metadata !3103, metadata !DIExpression()), !dbg !3108
  %name = getelementptr inbounds %struct.anon.5, %struct.anon.5* %data, i32 0, i32 0, !dbg !3109
  %0 = load i8*, i8** %paramName.addr, align 8, !dbg !3110
  store i8* %0, i8** %name, align 8, !dbg !3109
  %value = getelementptr inbounds %struct.anon.5, %struct.anon.5* %data, i32 0, i32 1, !dbg !3109
  %1 = load i8*, i8** %paramValue.addr, align 8, !dbg !3111
  store i8* %1, i8** %value, align 8, !dbg !3109
  %2 = bitcast %struct.anon.5* %data to i8*, !dbg !3112
  call void @_ZN9cTopology18extractFromNetworkEPFbP7cModulePvES2_(%class.cTopology* %this1, i1 (%class.cModule*, i8*)* @_ZL17selectByParameterP7cModulePv, i8* %2), !dbg !3113
  ret void, !dbg !3114
}

; Function Attrs: noinline uwtable
define internal zeroext i1 @_ZL17selectByParameterP7cModulePv(%class.cModule* %mod, i8* %data) #0 personality i8* bitcast (i32 (...)* @__gxx_personality_v0 to i8*) !dbg !1213 {
entry:
  %retval = alloca i1, align 1
  %mod.addr = alloca %class.cModule*, align 8
  %data.addr = alloca i8*, align 8
  %d = alloca %struct.PropertyData*, align 8
  %ref.tmp = alloca %"class.std::__cxx11::basic_string", align 8
  %cleanup.cond = alloca i1, align 1
  %ref.tmp3 = alloca %"class.std::__cxx11::basic_string", align 8
  %ref.tmp5 = alloca %"class.std::allocator", align 1
  %cleanup.cond6 = alloca i1, align 1
  %exn.slot = alloca i8*
  %ehselector.slot = alloca i32
  %cleanup.cond7 = alloca i1, align 1
  store %class.cModule* %mod, %class.cModule** %mod.addr, align 8
  call void @llvm.dbg.declare(metadata %class.cModule** %mod.addr, metadata !3115, metadata !DIExpression()), !dbg !3116
  store i8* %data, i8** %data.addr, align 8
  call void @llvm.dbg.declare(metadata i8** %data.addr, metadata !3117, metadata !DIExpression()), !dbg !3118
  call void @llvm.dbg.declare(metadata %struct.PropertyData** %d, metadata !3119, metadata !DIExpression()), !dbg !3120
  %0 = load i8*, i8** %data.addr, align 8, !dbg !3121
  %1 = bitcast i8* %0 to %struct.PropertyData*, !dbg !3122
  store %struct.PropertyData* %1, %struct.PropertyData** %d, align 8, !dbg !3120
  %2 = load %class.cModule*, %class.cModule** %mod.addr, align 8, !dbg !3123
  %3 = bitcast %class.cModule* %2 to %class.cComponent*, !dbg !3124
  %4 = load %struct.PropertyData*, %struct.PropertyData** %d, align 8, !dbg !3125
  %name = getelementptr inbounds %struct.PropertyData, %struct.PropertyData* %4, i32 0, i32 0, !dbg !3126
  %5 = load i8*, i8** %name, align 8, !dbg !3126
  %call = call zeroext i1 @_ZNK10cComponent6hasParEPKc(%class.cComponent* %3, i8* %5), !dbg !3124
  store i1 false, i1* %cleanup.cond, align 1
  store i1 false, i1* %cleanup.cond6, align 1
  store i1 false, i1* %cleanup.cond7, align 1
  br i1 %call, label %land.rhs, label %land.end, !dbg !3127

land.rhs:                                         ; preds = %entry
  %6 = load %struct.PropertyData*, %struct.PropertyData** %d, align 8, !dbg !3128
  %value = getelementptr inbounds %struct.PropertyData, %struct.PropertyData* %6, i32 0, i32 1, !dbg !3129
  %7 = load i8*, i8** %value, align 8, !dbg !3129
  %cmp = icmp eq i8* %7, null, !dbg !3130
  br i1 %cmp, label %lor.end, label %lor.rhs, !dbg !3131

lor.rhs:                                          ; preds = %land.rhs
  %8 = load %class.cModule*, %class.cModule** %mod.addr, align 8, !dbg !3132
  %9 = bitcast %class.cModule* %8 to %class.cComponent*, !dbg !3133
  %10 = load %struct.PropertyData*, %struct.PropertyData** %d, align 8, !dbg !3134
  %name1 = getelementptr inbounds %struct.PropertyData, %struct.PropertyData* %10, i32 0, i32 0, !dbg !3135
  %11 = load i8*, i8** %name1, align 8, !dbg !3135
  %12 = bitcast %class.cComponent* %9 to %class.cPar* (%class.cComponent*, i8*)***, !dbg !3133
  %vtable = load %class.cPar* (%class.cComponent*, i8*)**, %class.cPar* (%class.cComponent*, i8*)*** %12, align 8, !dbg !3133
  %vfn = getelementptr inbounds %class.cPar* (%class.cComponent*, i8*)*, %class.cPar* (%class.cComponent*, i8*)** %vtable, i64 43, !dbg !3133
  %13 = load %class.cPar* (%class.cComponent*, i8*)*, %class.cPar* (%class.cComponent*, i8*)** %vfn, align 8, !dbg !3133
  %call2 = call dereferenceable(24) %class.cPar* %13(%class.cComponent* %9, i8* %11), !dbg !3133
  call void @_ZNK4cPar3strB5cxx11Ev(%"class.std::__cxx11::basic_string"* sret %ref.tmp, %class.cPar* %call2), !dbg !3136
  store i1 true, i1* %cleanup.cond, align 1, !dbg !3132
  %14 = load %struct.PropertyData*, %struct.PropertyData** %d, align 8, !dbg !3137
  %value4 = getelementptr inbounds %struct.PropertyData, %struct.PropertyData* %14, i32 0, i32 1, !dbg !3138
  %15 = load i8*, i8** %value4, align 8, !dbg !3138
  call void @_ZNSaIcEC1Ev(%"class.std::allocator"* %ref.tmp5) #3, !dbg !3139
  store i1 true, i1* %cleanup.cond6, align 1, !dbg !3139
  invoke void @_ZNSt7__cxx1112basic_stringIcSt11char_traitsIcESaIcEEC1EPKcRKS3_(%"class.std::__cxx11::basic_string"* %ref.tmp3, i8* %15, %"class.std::allocator"* dereferenceable(1) %ref.tmp5)
          to label %invoke.cont unwind label %lpad, !dbg !3139

invoke.cont:                                      ; preds = %lor.rhs
  store i1 true, i1* %cleanup.cond7, align 1, !dbg !3139
  %call8 = call zeroext i1 @_ZSteqIcEN9__gnu_cxx11__enable_ifIXsr9__is_charIT_EE7__valueEbE6__typeERKNSt7__cxx1112basic_stringIS2_St11char_traitsIS2_ESaIS2_EEESC_(%"class.std::__cxx11::basic_string"* dereferenceable(32) %ref.tmp, %"class.std::__cxx11::basic_string"* dereferenceable(32) %ref.tmp3) #3, !dbg !3140
  br label %lor.end, !dbg !3131

lor.end:                                          ; preds = %invoke.cont, %land.rhs
  %16 = phi i1 [ true, %land.rhs ], [ %call8, %invoke.cont ]
  br label %land.end

land.end:                                         ; preds = %lor.end, %entry
  %17 = phi i1 [ false, %entry ], [ %16, %lor.end ], !dbg !3141
  store i1 %17, i1* %retval, align 1, !dbg !3142
  %cleanup.is_active = load i1, i1* %cleanup.cond7, align 1, !dbg !3142
  br i1 %cleanup.is_active, label %cleanup.action, label %cleanup.done, !dbg !3142

cleanup.action:                                   ; preds = %land.end
  call void @_ZNSt7__cxx1112basic_stringIcSt11char_traitsIcESaIcEED1Ev(%"class.std::__cxx11::basic_string"* %ref.tmp3) #3, !dbg !3142
  br label %cleanup.done, !dbg !3142

cleanup.done:                                     ; preds = %cleanup.action, %land.end
  %cleanup.is_active9 = load i1, i1* %cleanup.cond6, align 1, !dbg !3142
  br i1 %cleanup.is_active9, label %cleanup.action10, label %cleanup.done11, !dbg !3142

cleanup.action10:                                 ; preds = %cleanup.done
  call void @_ZNSaIcED1Ev(%"class.std::allocator"* %ref.tmp5) #3, !dbg !3142
  br label %cleanup.done11, !dbg !3142

cleanup.done11:                                   ; preds = %cleanup.action10, %cleanup.done
  %cleanup.is_active15 = load i1, i1* %cleanup.cond, align 1, !dbg !3142
  br i1 %cleanup.is_active15, label %cleanup.action16, label %cleanup.done17, !dbg !3142

cleanup.action16:                                 ; preds = %cleanup.done11
  call void @_ZNSt7__cxx1112basic_stringIcSt11char_traitsIcESaIcEED1Ev(%"class.std::__cxx11::basic_string"* %ref.tmp) #3, !dbg !3142
  br label %cleanup.done17, !dbg !3142

cleanup.done17:                                   ; preds = %cleanup.action16, %cleanup.done11
  %18 = load i1, i1* %retval, align 1, !dbg !3142
  ret i1 %18, !dbg !3142

lpad:                                             ; preds = %lor.rhs
  %19 = landingpad { i8*, i32 }
          cleanup, !dbg !3143
  %20 = extractvalue { i8*, i32 } %19, 0, !dbg !3143
  store i8* %20, i8** %exn.slot, align 8, !dbg !3143
  %21 = extractvalue { i8*, i32 } %19, 1, !dbg !3143
  store i32 %21, i32* %ehselector.slot, align 4, !dbg !3143
  %cleanup.is_active12 = load i1, i1* %cleanup.cond6, align 1, !dbg !3142
  br i1 %cleanup.is_active12, label %cleanup.action13, label %cleanup.done14, !dbg !3142

cleanup.action13:                                 ; preds = %lpad
  call void @_ZNSaIcED1Ev(%"class.std::allocator"* %ref.tmp5) #3, !dbg !3142
  br label %cleanup.done14, !dbg !3142

cleanup.done14:                                   ; preds = %cleanup.action13, %lpad
  %cleanup.is_active18 = load i1, i1* %cleanup.cond, align 1, !dbg !3142
  br i1 %cleanup.is_active18, label %cleanup.action19, label %cleanup.done20, !dbg !3142

cleanup.action19:                                 ; preds = %cleanup.done14
  call void @_ZNSt7__cxx1112basic_stringIcSt11char_traitsIcESaIcEED1Ev(%"class.std::__cxx11::basic_string"* %ref.tmp) #3, !dbg !3142
  br label %cleanup.done20, !dbg !3142

cleanup.done20:                                   ; preds = %cleanup.action19, %cleanup.done14
  br label %eh.resume, !dbg !3142

eh.resume:                                        ; preds = %cleanup.done20
  %exn = load i8*, i8** %exn.slot, align 8, !dbg !3142
  %sel = load i32, i32* %ehselector.slot, align 4, !dbg !3142
  %lpad.val = insertvalue { i8*, i32 } undef, i8* %exn, 0, !dbg !3142
  %lpad.val21 = insertvalue { i8*, i32 } %lpad.val, i32 %sel, 1, !dbg !3142
  resume { i8*, i32 } %lpad.val21, !dbg !3142
}

; Function Attrs: noinline uwtable
define dso_local void @_ZN9cTopology18extractFromNetworkEPNS_9PredicateE(%class.cTopology* %this, %"class.cTopology::Predicate"* %predicate) #0 align 2 !dbg !3144 {
entry:
  %this.addr = alloca %class.cTopology*, align 8
  %predicate.addr = alloca %"class.cTopology::Predicate"*, align 8
  store %class.cTopology* %this, %class.cTopology** %this.addr, align 8
  call void @llvm.dbg.declare(metadata %class.cTopology** %this.addr, metadata !3145, metadata !DIExpression()), !dbg !3146
  store %"class.cTopology::Predicate"* %predicate, %"class.cTopology::Predicate"** %predicate.addr, align 8
  call void @llvm.dbg.declare(metadata %"class.cTopology::Predicate"** %predicate.addr, metadata !3147, metadata !DIExpression()), !dbg !3148
  %this1 = load %class.cTopology*, %class.cTopology** %this.addr, align 8
  %0 = load %"class.cTopology::Predicate"*, %"class.cTopology::Predicate"** %predicate.addr, align 8, !dbg !3149
  %1 = bitcast %"class.cTopology::Predicate"* %0 to i8*, !dbg !3149
  call void @_ZN9cTopology18extractFromNetworkEPFbP7cModulePvES2_(%class.cTopology* %this1, i1 (%class.cModule*, i8*)* @_ZL17selectByPredicateP7cModulePv, i8* %1), !dbg !3150
  ret void, !dbg !3151
}

; Function Attrs: noinline uwtable
define internal zeroext i1 @_ZL17selectByPredicateP7cModulePv(%class.cModule* %mod, i8* %data) #0 !dbg !3152 {
entry:
  %mod.addr = alloca %class.cModule*, align 8
  %data.addr = alloca i8*, align 8
  %predicate = alloca %"class.cTopology::Predicate"*, align 8
  store %class.cModule* %mod, %class.cModule** %mod.addr, align 8
  call void @llvm.dbg.declare(metadata %class.cModule** %mod.addr, metadata !3153, metadata !DIExpression()), !dbg !3154
  store i8* %data, i8** %data.addr, align 8
  call void @llvm.dbg.declare(metadata i8** %data.addr, metadata !3155, metadata !DIExpression()), !dbg !3156
  call void @llvm.dbg.declare(metadata %"class.cTopology::Predicate"** %predicate, metadata !3157, metadata !DIExpression()), !dbg !3158
  %0 = load i8*, i8** %data.addr, align 8, !dbg !3159
  %1 = bitcast i8* %0 to %"class.cTopology::Predicate"*, !dbg !3160
  store %"class.cTopology::Predicate"* %1, %"class.cTopology::Predicate"** %predicate, align 8, !dbg !3158
  %2 = load %"class.cTopology::Predicate"*, %"class.cTopology::Predicate"** %predicate, align 8, !dbg !3161
  %3 = load %class.cModule*, %class.cModule** %mod.addr, align 8, !dbg !3162
  %4 = bitcast %"class.cTopology::Predicate"* %2 to i1 (%"class.cTopology::Predicate"*, %class.cModule*)***, !dbg !3163
  %vtable = load i1 (%"class.cTopology::Predicate"*, %class.cModule*)**, i1 (%"class.cTopology::Predicate"*, %class.cModule*)*** %4, align 8, !dbg !3163
  %vfn = getelementptr inbounds i1 (%"class.cTopology::Predicate"*, %class.cModule*)*, i1 (%"class.cTopology::Predicate"*, %class.cModule*)** %vtable, i64 2, !dbg !3163
  %5 = load i1 (%"class.cTopology::Predicate"*, %class.cModule*)*, i1 (%"class.cTopology::Predicate"*, %class.cModule*)** %vfn, align 8, !dbg !3163
  %call = call zeroext i1 %5(%"class.cTopology::Predicate"* %2, %class.cModule* %3), !dbg !3163
  ret i1 %call, !dbg !3164
}

; Function Attrs: noinline nounwind uwtable
define linkonce_odr dso_local %class.cSimulation* @_ZN11cSimulation19getActiveSimulationEv() #5 comdat align 2 !dbg !3165 {
entry:
  %0 = load %class.cSimulation*, %class.cSimulation** @_ZN11cSimulation6simPtrE, align 8, !dbg !3172
  ret %class.cSimulation* %0, !dbg !3173
}

; Function Attrs: noinline nounwind uwtable
define linkonce_odr dso_local i32 @_ZNK11cSimulation15getLastModuleIdEv(%class.cSimulation* %this) #5 comdat align 2 !dbg !3174 {
entry:
  %this.addr = alloca %class.cSimulation*, align 8
  store %class.cSimulation* %this, %class.cSimulation** %this.addr, align 8
  call void @llvm.dbg.declare(metadata %class.cSimulation** %this.addr, metadata !3180, metadata !DIExpression()), !dbg !3182
  %this1 = load %class.cSimulation*, %class.cSimulation** %this.addr, align 8
  %last_id = getelementptr inbounds %class.cSimulation, %class.cSimulation* %this1, i32 0, i32 4, !dbg !3183
  %0 = load i32, i32* %last_id, align 8, !dbg !3183
  ret i32 %0, !dbg !3184
}

; Function Attrs: nounwind readnone speculatable willreturn
declare { i64, i1 } @llvm.umul.with.overflow.i64(i64, i64) #4

; Function Attrs: nobuiltin
declare dso_local noalias i8* @_Znam(i64) #8

; Function Attrs: noinline nounwind uwtable
define linkonce_odr dso_local %class.cModule* @_ZNK11cSimulation9getModuleEi(%class.cSimulation* %this, i32 %id) #5 comdat align 2 !dbg !3185 {
entry:
  %this.addr = alloca %class.cSimulation*, align 8
  %id.addr = alloca i32, align 4
  store %class.cSimulation* %this, %class.cSimulation** %this.addr, align 8
  call void @llvm.dbg.declare(metadata %class.cSimulation** %this.addr, metadata !3189, metadata !DIExpression()), !dbg !3190
  store i32 %id, i32* %id.addr, align 4
  call void @llvm.dbg.declare(metadata i32* %id.addr, metadata !3191, metadata !DIExpression()), !dbg !3192
  %this1 = load %class.cSimulation*, %class.cSimulation** %this.addr, align 8
  %0 = load i32, i32* %id.addr, align 4, !dbg !3193
  %cmp = icmp sge i32 %0, 0, !dbg !3194
  br i1 %cmp, label %land.lhs.true, label %cond.false, !dbg !3195

land.lhs.true:                                    ; preds = %entry
  %1 = load i32, i32* %id.addr, align 4, !dbg !3196
  %size = getelementptr inbounds %class.cSimulation, %class.cSimulation* %this1, i32 0, i32 1, !dbg !3197
  %2 = load i32, i32* %size, align 4, !dbg !3197
  %cmp2 = icmp slt i32 %1, %2, !dbg !3198
  br i1 %cmp2, label %cond.true, label %cond.false, !dbg !3193

cond.true:                                        ; preds = %land.lhs.true
  %vect = getelementptr inbounds %class.cSimulation, %class.cSimulation* %this1, i32 0, i32 3, !dbg !3199
  %3 = load %class.cModule**, %class.cModule*** %vect, align 8, !dbg !3199
  %4 = load i32, i32* %id.addr, align 4, !dbg !3200
  %idxprom = sext i32 %4 to i64, !dbg !3199
  %arrayidx = getelementptr inbounds %class.cModule*, %class.cModule** %3, i64 %idxprom, !dbg !3199
  %5 = load %class.cModule*, %class.cModule** %arrayidx, align 8, !dbg !3199
  br label %cond.end, !dbg !3193

cond.false:                                       ; preds = %land.lhs.true, %entry
  br label %cond.end, !dbg !3193

cond.end:                                         ; preds = %cond.false, %cond.true
  %cond = phi %class.cModule* [ %5, %cond.true ], [ null, %cond.false ], !dbg !3193
  ret %class.cModule* %cond, !dbg !3201
}

declare dso_local i32 @_ZNK7cModule9gateCountEv(%class.cModule*) #1

; Function Attrs: argmemonly nounwind willreturn
declare void @llvm.memcpy.p0i8.p0i8.i64(i8* noalias nocapture writeonly, i8* noalias nocapture readonly, i64, i1 immarg) #9

; Function Attrs: noinline uwtable
define linkonce_odr dso_local void @_ZN7cModule12GateIteratorC2EPKS_(%"class.cModule::GateIterator"* %this, %class.cModule* %m) unnamed_addr #0 comdat align 2 !dbg !3202 {
entry:
  %this.addr = alloca %"class.cModule::GateIterator"*, align 8
  %m.addr = alloca %class.cModule*, align 8
  store %"class.cModule::GateIterator"* %this, %"class.cModule::GateIterator"** %this.addr, align 8
  call void @llvm.dbg.declare(metadata %"class.cModule::GateIterator"** %this.addr, metadata !3203, metadata !DIExpression()), !dbg !3205
  store %class.cModule* %m, %class.cModule** %m.addr, align 8
  call void @llvm.dbg.declare(metadata %class.cModule** %m.addr, metadata !3206, metadata !DIExpression()), !dbg !3207
  %this1 = load %"class.cModule::GateIterator"*, %"class.cModule::GateIterator"** %this.addr, align 8
  %0 = load %class.cModule*, %class.cModule** %m.addr, align 8, !dbg !3208
  call void @_ZN7cModule12GateIterator4initEPKS_(%"class.cModule::GateIterator"* %this1, %class.cModule* %0), !dbg !3210
  ret void, !dbg !3211
}

declare dso_local zeroext i1 @_ZNK7cModule12GateIterator3endEv(%"class.cModule::GateIterator"*) #1

; Function Attrs: noinline uwtable
define linkonce_odr dso_local %class.cGate* @_ZNK7cModule12GateIteratorclEv(%"class.cModule::GateIterator"* %this) #0 comdat align 2 !dbg !3212 {
entry:
  %this.addr = alloca %"class.cModule::GateIterator"*, align 8
  %result = alloca %class.cGate*, align 8
  store %"class.cModule::GateIterator"* %this, %"class.cModule::GateIterator"** %this.addr, align 8
  call void @llvm.dbg.declare(metadata %"class.cModule::GateIterator"** %this.addr, metadata !3213, metadata !DIExpression()), !dbg !3215
  %this1 = load %"class.cModule::GateIterator"*, %"class.cModule::GateIterator"** %this.addr, align 8
  call void @llvm.dbg.declare(metadata %class.cGate** %result, metadata !3216, metadata !DIExpression()), !dbg !3217
  %call = call %class.cGate* @_ZNK7cModule12GateIterator7currentEv(%"class.cModule::GateIterator"* %this1), !dbg !3218
  store %class.cGate* %call, %class.cGate** %result, align 8, !dbg !3217
  %0 = load %class.cGate*, %class.cGate** %result, align 8, !dbg !3219
  ret %class.cGate* %0, !dbg !3220
}

; Function Attrs: noinline uwtable
define linkonce_odr dso_local i32 @_ZNK5cGate7getTypeEv(%class.cGate* %this) #0 comdat align 2 !dbg !3221 {
entry:
  %this.addr = alloca %class.cGate*, align 8
  store %class.cGate* %this, %class.cGate** %this.addr, align 8
  call void @llvm.dbg.declare(metadata %class.cGate** %this.addr, metadata !3227, metadata !DIExpression()), !dbg !3229
  %this1 = load %class.cGate*, %class.cGate** %this.addr, align 8
  %desc = getelementptr inbounds %class.cGate, %class.cGate* %this1, i32 0, i32 1, !dbg !3230
  %0 = load %"struct.cGate::Desc"*, %"struct.cGate::Desc"** %desc, align 8, !dbg !3230
  %call = call i32 @_ZNK5cGate4Desc9getTypeOfEPKS_(%"struct.cGate::Desc"* %0, %class.cGate* %this1), !dbg !3231
  ret i32 %call, !dbg !3232
}

; Function Attrs: noinline nounwind uwtable
define linkonce_odr dso_local %class.cGate* @_ZNK5cGate11getNextGateEv(%class.cGate* %this) #5 comdat align 2 !dbg !3233 {
entry:
  %this.addr = alloca %class.cGate*, align 8
  store %class.cGate* %this, %class.cGate** %this.addr, align 8
  call void @llvm.dbg.declare(metadata %class.cGate** %this.addr, metadata !3237, metadata !DIExpression()), !dbg !3238
  %this1 = load %class.cGate*, %class.cGate** %this.addr, align 8
  %nextgatep = getelementptr inbounds %class.cGate, %class.cGate* %this1, i32 0, i32 5, !dbg !3239
  %0 = load %class.cGate*, %class.cGate** %nextgatep, align 8, !dbg !3239
  ret %class.cGate* %0, !dbg !3240
}

declare dso_local %class.cModule* @_ZNK5cGate14getOwnerModuleEv(%class.cGate*) #1

declare dso_local i32 @_ZNK5cGate5getIdEv(%class.cGate*) #1

; Function Attrs: noinline uwtable
define dso_local %"class.cTopology::Node"* @_ZN9cTopology10getNodeForEP7cModule(%class.cTopology* %this, %class.cModule* %mod) #0 align 2 !dbg !3241 {
entry:
  %this.addr = alloca %class.cTopology*, align 8
  %mod.addr = alloca %class.cModule*, align 8
  %lo = alloca i32, align 4
  %up = alloca i32, align 4
  %index = alloca i32, align 4
  store %class.cTopology* %this, %class.cTopology** %this.addr, align 8
  call void @llvm.dbg.declare(metadata %class.cTopology** %this.addr, metadata !3242, metadata !DIExpression()), !dbg !3243
  store %class.cModule* %mod, %class.cModule** %mod.addr, align 8
  call void @llvm.dbg.declare(metadata %class.cModule** %mod.addr, metadata !3244, metadata !DIExpression()), !dbg !3245
  %this1 = load %class.cTopology*, %class.cTopology** %this.addr, align 8
  call void @llvm.dbg.declare(metadata i32* %lo, metadata !3246, metadata !DIExpression()), !dbg !3247
  call void @llvm.dbg.declare(metadata i32* %up, metadata !3248, metadata !DIExpression()), !dbg !3249
  call void @llvm.dbg.declare(metadata i32* %index, metadata !3250, metadata !DIExpression()), !dbg !3251
  store i32 0, i32* %lo, align 4, !dbg !3252
  %num_nodes = getelementptr inbounds %class.cTopology, %class.cTopology* %this1, i32 0, i32 1, !dbg !3254
  %0 = load i32, i32* %num_nodes, align 4, !dbg !3254
  store i32 %0, i32* %up, align 4, !dbg !3255
  %1 = load i32, i32* %lo, align 4, !dbg !3256
  %2 = load i32, i32* %up, align 4, !dbg !3257
  %add = add nsw i32 %1, %2, !dbg !3258
  %div = sdiv i32 %add, 2, !dbg !3259
  store i32 %div, i32* %index, align 4, !dbg !3260
  br label %for.cond, !dbg !3261

for.cond:                                         ; preds = %for.inc, %entry
  %3 = load i32, i32* %lo, align 4, !dbg !3262
  %4 = load i32, i32* %index, align 4, !dbg !3264
  %cmp = icmp slt i32 %3, %4, !dbg !3265
  br i1 %cmp, label %for.body, label %for.end, !dbg !3266

for.body:                                         ; preds = %for.cond
  %5 = load %class.cModule*, %class.cModule** %mod.addr, align 8, !dbg !3267
  %call = call i32 @_ZNK7cModule5getIdEv(%class.cModule* %5), !dbg !3270
  %nodev = getelementptr inbounds %class.cTopology, %class.cTopology* %this1, i32 0, i32 2, !dbg !3271
  %6 = load %"class.cTopology::Node"*, %"class.cTopology::Node"** %nodev, align 8, !dbg !3271
  %7 = load i32, i32* %index, align 4, !dbg !3272
  %idxprom = sext i32 %7 to i64, !dbg !3271
  %arrayidx = getelementptr inbounds %"class.cTopology::Node", %"class.cTopology::Node"* %6, i64 %idxprom, !dbg !3271
  %module_id = getelementptr inbounds %"class.cTopology::Node", %"class.cTopology::Node"* %arrayidx, i32 0, i32 0, !dbg !3273
  %8 = load i32, i32* %module_id, align 8, !dbg !3273
  %cmp2 = icmp slt i32 %call, %8, !dbg !3274
  br i1 %cmp2, label %if.then, label %if.else, !dbg !3275

if.then:                                          ; preds = %for.body
  %9 = load i32, i32* %index, align 4, !dbg !3276
  store i32 %9, i32* %up, align 4, !dbg !3277
  br label %if.end, !dbg !3278

if.else:                                          ; preds = %for.body
  %10 = load i32, i32* %index, align 4, !dbg !3279
  store i32 %10, i32* %lo, align 4, !dbg !3280
  br label %if.end

if.end:                                           ; preds = %if.else, %if.then
  br label %for.inc, !dbg !3281

for.inc:                                          ; preds = %if.end
  %11 = load i32, i32* %lo, align 4, !dbg !3282
  %12 = load i32, i32* %up, align 4, !dbg !3283
  %add3 = add nsw i32 %11, %12, !dbg !3284
  %div4 = sdiv i32 %add3, 2, !dbg !3285
  store i32 %div4, i32* %index, align 4, !dbg !3286
  br label %for.cond, !dbg !3287, !llvm.loop !3288

for.end:                                          ; preds = %for.cond
  %13 = load %class.cModule*, %class.cModule** %mod.addr, align 8, !dbg !3290
  %call5 = call i32 @_ZNK7cModule5getIdEv(%class.cModule* %13), !dbg !3291
  %nodev6 = getelementptr inbounds %class.cTopology, %class.cTopology* %this1, i32 0, i32 2, !dbg !3292
  %14 = load %"class.cTopology::Node"*, %"class.cTopology::Node"** %nodev6, align 8, !dbg !3292
  %15 = load i32, i32* %index, align 4, !dbg !3293
  %idxprom7 = sext i32 %15 to i64, !dbg !3292
  %arrayidx8 = getelementptr inbounds %"class.cTopology::Node", %"class.cTopology::Node"* %14, i64 %idxprom7, !dbg !3292
  %module_id9 = getelementptr inbounds %"class.cTopology::Node", %"class.cTopology::Node"* %arrayidx8, i32 0, i32 0, !dbg !3294
  %16 = load i32, i32* %module_id9, align 8, !dbg !3294
  %cmp10 = icmp eq i32 %call5, %16, !dbg !3295
  br i1 %cmp10, label %cond.true, label %cond.false, !dbg !3296

cond.true:                                        ; preds = %for.end
  %nodev11 = getelementptr inbounds %class.cTopology, %class.cTopology* %this1, i32 0, i32 2, !dbg !3297
  %17 = load %"class.cTopology::Node"*, %"class.cTopology::Node"** %nodev11, align 8, !dbg !3297
  %18 = load i32, i32* %index, align 4, !dbg !3298
  %idx.ext = sext i32 %18 to i64, !dbg !3299
  %add.ptr = getelementptr inbounds %"class.cTopology::Node", %"class.cTopology::Node"* %17, i64 %idx.ext, !dbg !3299
  br label %cond.end, !dbg !3296

cond.false:                                       ; preds = %for.end
  br label %cond.end, !dbg !3296

cond.end:                                         ; preds = %cond.false, %cond.true
  %cond = phi %"class.cTopology::Node"* [ %add.ptr, %cond.true ], [ null, %cond.false ], !dbg !3296
  ret %"class.cTopology::Node"* %cond, !dbg !3300
}

declare dso_local %class.cGate* @_ZN7cModule12GateIteratorppEi(%"class.cModule::GateIterator"*, i32) #1

; Function Attrs: noinline uwtable
define dso_local %"class.cTopology::Node"* @_ZN9cTopology7getNodeEi(%class.cTopology* %this, i32 %i) #0 align 2 personality i8* bitcast (i32 (...)* @__gxx_personality_v0 to i8*) !dbg !3301 {
entry:
  %this.addr = alloca %class.cTopology*, align 8
  %i.addr = alloca i32, align 4
  %exn.slot = alloca i8*
  %ehselector.slot = alloca i32
  store %class.cTopology* %this, %class.cTopology** %this.addr, align 8
  call void @llvm.dbg.declare(metadata %class.cTopology** %this.addr, metadata !3302, metadata !DIExpression()), !dbg !3303
  store i32 %i, i32* %i.addr, align 4
  call void @llvm.dbg.declare(metadata i32* %i.addr, metadata !3304, metadata !DIExpression()), !dbg !3305
  %this1 = load %class.cTopology*, %class.cTopology** %this.addr, align 8
  %0 = load i32, i32* %i.addr, align 4, !dbg !3306
  %cmp = icmp slt i32 %0, 0, !dbg !3308
  br i1 %cmp, label %if.then, label %lor.lhs.false, !dbg !3309

lor.lhs.false:                                    ; preds = %entry
  %1 = load i32, i32* %i.addr, align 4, !dbg !3310
  %num_nodes = getelementptr inbounds %class.cTopology, %class.cTopology* %this1, i32 0, i32 1, !dbg !3311
  %2 = load i32, i32* %num_nodes, align 4, !dbg !3311
  %cmp2 = icmp sge i32 %1, %2, !dbg !3312
  br i1 %cmp2, label %if.then, label %if.end, !dbg !3313

if.then:                                          ; preds = %lor.lhs.false, %entry
  %exception = call i8* @__cxa_allocate_exception(i64 128) #3, !dbg !3314
  %3 = bitcast i8* %exception to %class.cRuntimeError*, !dbg !3314
  %4 = bitcast %class.cTopology* %this1 to %class.cObject*, !dbg !3315
  %5 = load i32, i32* %i.addr, align 4, !dbg !3316
  invoke void (%class.cRuntimeError*, %class.cObject*, i8*, ...) @_ZN13cRuntimeErrorC1EPK7cObjectPKcz(%class.cRuntimeError* %3, %class.cObject* %4, i8* getelementptr inbounds ([22 x i8], [22 x i8]* @.str.7, i64 0, i64 0), i32 %5)
          to label %invoke.cont unwind label %lpad, !dbg !3317

invoke.cont:                                      ; preds = %if.then
  call void @__cxa_throw(i8* %exception, i8* bitcast ({ i8*, i8*, i8* }* @_ZTI13cRuntimeError to i8*), i8* bitcast (void (%class.cRuntimeError*)* @_ZN13cRuntimeErrorD2Ev to i8*)) #14, !dbg !3314
  unreachable, !dbg !3314

lpad:                                             ; preds = %if.then
  %6 = landingpad { i8*, i32 }
          cleanup, !dbg !3318
  %7 = extractvalue { i8*, i32 } %6, 0, !dbg !3318
  store i8* %7, i8** %exn.slot, align 8, !dbg !3318
  %8 = extractvalue { i8*, i32 } %6, 1, !dbg !3318
  store i32 %8, i32* %ehselector.slot, align 4, !dbg !3318
  call void @__cxa_free_exception(i8* %exception) #3, !dbg !3314
  br label %eh.resume, !dbg !3314

if.end:                                           ; preds = %lor.lhs.false
  %nodev = getelementptr inbounds %class.cTopology, %class.cTopology* %this1, i32 0, i32 2, !dbg !3319
  %9 = load %"class.cTopology::Node"*, %"class.cTopology::Node"** %nodev, align 8, !dbg !3319
  %10 = load i32, i32* %i.addr, align 4, !dbg !3320
  %idx.ext = sext i32 %10 to i64, !dbg !3321
  %add.ptr = getelementptr inbounds %"class.cTopology::Node", %"class.cTopology::Node"* %9, i64 %idx.ext, !dbg !3321
  ret %"class.cTopology::Node"* %add.ptr, !dbg !3322

eh.resume:                                        ; preds = %lpad
  %exn = load i8*, i8** %exn.slot, align 8, !dbg !3314
  %sel = load i32, i32* %ehselector.slot, align 4, !dbg !3314
  %lpad.val = insertvalue { i8*, i32 } undef, i8* %exn, 0, !dbg !3314
  %lpad.val3 = insertvalue { i8*, i32 } %lpad.val, i32 %sel, 1, !dbg !3314
  resume { i8*, i32 } %lpad.val3, !dbg !3314
}

; Function Attrs: noinline nounwind uwtable
define linkonce_odr dso_local i32 @_ZNK7cModule5getIdEv(%class.cModule* %this) #5 comdat align 2 !dbg !3323 {
entry:
  %this.addr = alloca %class.cModule*, align 8
  store %class.cModule* %this, %class.cModule** %this.addr, align 8
  call void @llvm.dbg.declare(metadata %class.cModule** %this.addr, metadata !3328, metadata !DIExpression()), !dbg !3329
  %this1 = load %class.cModule*, %class.cModule** %this.addr, align 8
  %mod_id = getelementptr inbounds %class.cModule, %class.cModule* %this1, i32 0, i32 2, !dbg !3330
  %0 = load i32, i32* %mod_id, align 8, !dbg !3330
  ret i32 %0, !dbg !3331
}

; Function Attrs: noinline uwtable
define dso_local void @_ZN9cTopology40calculateUnweightedSingleShortestPathsToEPNS_4NodeE(%class.cTopology* %this, %"class.cTopology::Node"* %_target) #0 align 2 personality i8* bitcast (i32 (...)* @__gxx_personality_v0 to i8*) !dbg !3332 {
entry:
  %this.addr = alloca %class.cTopology*, align 8
  %_target.addr = alloca %"class.cTopology::Node"*, align 8
  %exn.slot = alloca i8*
  %ehselector.slot = alloca i32
  %i = alloca i32, align 4
  %q = alloca %"class.std::deque", align 8
  %v = alloca %"class.cTopology::Node"*, align 8
  %i14 = alloca i32, align 4
  %w = alloca %"class.cTopology::Node"*, align 8
  store %class.cTopology* %this, %class.cTopology** %this.addr, align 8
  call void @llvm.dbg.declare(metadata %class.cTopology** %this.addr, metadata !3333, metadata !DIExpression()), !dbg !3334
  store %"class.cTopology::Node"* %_target, %"class.cTopology::Node"** %_target.addr, align 8
  call void @llvm.dbg.declare(metadata %"class.cTopology::Node"** %_target.addr, metadata !3335, metadata !DIExpression()), !dbg !3336
  %this1 = load %class.cTopology*, %class.cTopology** %this.addr, align 8
  %0 = load %"class.cTopology::Node"*, %"class.cTopology::Node"** %_target.addr, align 8, !dbg !3337
  %tobool = icmp ne %"class.cTopology::Node"* %0, null, !dbg !3337
  br i1 %tobool, label %if.end, label %if.then, !dbg !3339

if.then:                                          ; preds = %entry
  %exception = call i8* @__cxa_allocate_exception(i64 128) #3, !dbg !3340
  %1 = bitcast i8* %exception to %class.cRuntimeError*, !dbg !3340
  %2 = bitcast %class.cTopology* %this1 to %class.cObject*, !dbg !3341
  invoke void (%class.cRuntimeError*, %class.cObject*, i8*, ...) @_ZN13cRuntimeErrorC1EPK7cObjectPKcz(%class.cRuntimeError* %1, %class.cObject* %2, i8* getelementptr inbounds ([40 x i8], [40 x i8]* @.str.8, i64 0, i64 0))
          to label %invoke.cont unwind label %lpad, !dbg !3342

invoke.cont:                                      ; preds = %if.then
  call void @__cxa_throw(i8* %exception, i8* bitcast ({ i8*, i8*, i8* }* @_ZTI13cRuntimeError to i8*), i8* bitcast (void (%class.cRuntimeError*)* @_ZN13cRuntimeErrorD2Ev to i8*)) #14, !dbg !3340
  unreachable, !dbg !3340

lpad:                                             ; preds = %if.then
  %3 = landingpad { i8*, i32 }
          cleanup, !dbg !3343
  %4 = extractvalue { i8*, i32 } %3, 0, !dbg !3343
  store i8* %4, i8** %exn.slot, align 8, !dbg !3343
  %5 = extractvalue { i8*, i32 } %3, 1, !dbg !3343
  store i32 %5, i32* %ehselector.slot, align 4, !dbg !3343
  call void @__cxa_free_exception(i8* %exception) #3, !dbg !3340
  br label %eh.resume, !dbg !3340

if.end:                                           ; preds = %entry
  %6 = load %"class.cTopology::Node"*, %"class.cTopology::Node"** %_target.addr, align 8, !dbg !3344
  %target = getelementptr inbounds %class.cTopology, %class.cTopology* %this1, i32 0, i32 3, !dbg !3345
  store %"class.cTopology::Node"* %6, %"class.cTopology::Node"** %target, align 8, !dbg !3346
  call void @llvm.dbg.declare(metadata i32* %i, metadata !3347, metadata !DIExpression()), !dbg !3349
  store i32 0, i32* %i, align 4, !dbg !3349
  br label %for.cond, !dbg !3350

for.cond:                                         ; preds = %for.inc, %if.end
  %7 = load i32, i32* %i, align 4, !dbg !3351
  %num_nodes = getelementptr inbounds %class.cTopology, %class.cTopology* %this1, i32 0, i32 1, !dbg !3353
  %8 = load i32, i32* %num_nodes, align 4, !dbg !3353
  %cmp = icmp slt i32 %7, %8, !dbg !3354
  br i1 %cmp, label %for.body, label %for.end, !dbg !3355

for.body:                                         ; preds = %for.cond
  %nodev = getelementptr inbounds %class.cTopology, %class.cTopology* %this1, i32 0, i32 2, !dbg !3356
  %9 = load %"class.cTopology::Node"*, %"class.cTopology::Node"** %nodev, align 8, !dbg !3356
  %10 = load i32, i32* %i, align 4, !dbg !3358
  %idxprom = sext i32 %10 to i64, !dbg !3356
  %arrayidx = getelementptr inbounds %"class.cTopology::Node", %"class.cTopology::Node"* %9, i64 %idxprom, !dbg !3356
  %known = getelementptr inbounds %"class.cTopology::Node", %"class.cTopology::Node"* %arrayidx, i32 0, i32 7, !dbg !3359
  store i8 0, i8* %known, align 8, !dbg !3360
  %nodev2 = getelementptr inbounds %class.cTopology, %class.cTopology* %this1, i32 0, i32 2, !dbg !3361
  %11 = load %"class.cTopology::Node"*, %"class.cTopology::Node"** %nodev2, align 8, !dbg !3361
  %12 = load i32, i32* %i, align 4, !dbg !3362
  %idxprom3 = sext i32 %12 to i64, !dbg !3361
  %arrayidx4 = getelementptr inbounds %"class.cTopology::Node", %"class.cTopology::Node"* %11, i64 %idxprom3, !dbg !3361
  %dist = getelementptr inbounds %"class.cTopology::Node", %"class.cTopology::Node"* %arrayidx4, i32 0, i32 8, !dbg !3363
  store double 0x7FF0000000000000, double* %dist, align 8, !dbg !3364
  %nodev5 = getelementptr inbounds %class.cTopology, %class.cTopology* %this1, i32 0, i32 2, !dbg !3365
  %13 = load %"class.cTopology::Node"*, %"class.cTopology::Node"** %nodev5, align 8, !dbg !3365
  %14 = load i32, i32* %i, align 4, !dbg !3366
  %idxprom6 = sext i32 %14 to i64, !dbg !3365
  %arrayidx7 = getelementptr inbounds %"class.cTopology::Node", %"class.cTopology::Node"* %13, i64 %idxprom6, !dbg !3365
  %out_path = getelementptr inbounds %"class.cTopology::Node", %"class.cTopology::Node"* %arrayidx7, i32 0, i32 9, !dbg !3367
  store %"class.cTopology::Link"* null, %"class.cTopology::Link"** %out_path, align 8, !dbg !3368
  br label %for.inc, !dbg !3369

for.inc:                                          ; preds = %for.body
  %15 = load i32, i32* %i, align 4, !dbg !3370
  %inc = add nsw i32 %15, 1, !dbg !3370
  store i32 %inc, i32* %i, align 4, !dbg !3370
  br label %for.cond, !dbg !3371, !llvm.loop !3372

for.end:                                          ; preds = %for.cond
  %target8 = getelementptr inbounds %class.cTopology, %class.cTopology* %this1, i32 0, i32 3, !dbg !3374
  %16 = load %"class.cTopology::Node"*, %"class.cTopology::Node"** %target8, align 8, !dbg !3374
  %dist9 = getelementptr inbounds %"class.cTopology::Node", %"class.cTopology::Node"* %16, i32 0, i32 8, !dbg !3375
  store double 0.000000e+00, double* %dist9, align 8, !dbg !3376
  call void @llvm.dbg.declare(metadata %"class.std::deque"* %q, metadata !3377, metadata !DIExpression()), !dbg !3607
  call void @_ZNSt5dequeIPN9cTopology4NodeESaIS2_EEC2Ev(%"class.std::deque"* %q), !dbg !3607
  %target10 = getelementptr inbounds %class.cTopology, %class.cTopology* %this1, i32 0, i32 3, !dbg !3608
  invoke void @_ZNSt5dequeIPN9cTopology4NodeESaIS2_EE9push_backERKS2_(%"class.std::deque"* %q, %"class.cTopology::Node"** dereferenceable(8) %target10)
          to label %invoke.cont12 unwind label %lpad11, !dbg !3609

invoke.cont12:                                    ; preds = %for.end
  br label %while.cond, !dbg !3610

while.cond:                                       ; preds = %for.end43, %invoke.cont12
  %call = call zeroext i1 @_ZNKSt5dequeIPN9cTopology4NodeESaIS2_EE5emptyEv(%"class.std::deque"* %q) #3, !dbg !3611
  %lnot = xor i1 %call, true, !dbg !3612
  br i1 %lnot, label %while.body, label %while.end, !dbg !3610

while.body:                                       ; preds = %while.cond
  call void @llvm.dbg.declare(metadata %"class.cTopology::Node"** %v, metadata !3613, metadata !DIExpression()), !dbg !3615
  %call13 = call dereferenceable(8) %"class.cTopology::Node"** @_ZNSt5dequeIPN9cTopology4NodeESaIS2_EE5frontEv(%"class.std::deque"* %q) #3, !dbg !3616
  %17 = load %"class.cTopology::Node"*, %"class.cTopology::Node"** %call13, align 8, !dbg !3616
  store %"class.cTopology::Node"* %17, %"class.cTopology::Node"** %v, align 8, !dbg !3615
  call void @_ZNSt5dequeIPN9cTopology4NodeESaIS2_EE9pop_frontEv(%"class.std::deque"* %q) #3, !dbg !3617
  call void @llvm.dbg.declare(metadata i32* %i14, metadata !3618, metadata !DIExpression()), !dbg !3620
  store i32 0, i32* %i14, align 4, !dbg !3620
  br label %for.cond15, !dbg !3621

for.cond15:                                       ; preds = %for.inc41, %while.body
  %18 = load i32, i32* %i14, align 4, !dbg !3622
  %19 = load %"class.cTopology::Node"*, %"class.cTopology::Node"** %v, align 8, !dbg !3624
  %num_in_links = getelementptr inbounds %"class.cTopology::Node", %"class.cTopology::Node"* %19, i32 0, i32 3, !dbg !3625
  %20 = load i32, i32* %num_in_links, align 4, !dbg !3625
  %cmp16 = icmp slt i32 %18, %20, !dbg !3626
  br i1 %cmp16, label %for.body17, label %for.end43, !dbg !3627

for.body17:                                       ; preds = %for.cond15
  %21 = load %"class.cTopology::Node"*, %"class.cTopology::Node"** %v, align 8, !dbg !3628
  %in_links = getelementptr inbounds %"class.cTopology::Node", %"class.cTopology::Node"* %21, i32 0, i32 4, !dbg !3631
  %22 = load %"class.cTopology::Link"**, %"class.cTopology::Link"*** %in_links, align 8, !dbg !3631
  %23 = load i32, i32* %i14, align 4, !dbg !3632
  %idxprom18 = sext i32 %23 to i64, !dbg !3628
  %arrayidx19 = getelementptr inbounds %"class.cTopology::Link"*, %"class.cTopology::Link"** %22, i64 %idxprom18, !dbg !3628
  %24 = load %"class.cTopology::Link"*, %"class.cTopology::Link"** %arrayidx19, align 8, !dbg !3628
  %enabl = getelementptr inbounds %"class.cTopology::Link", %"class.cTopology::Link"* %24, i32 0, i32 7, !dbg !3633
  %25 = load i8, i8* %enabl, align 8, !dbg !3633
  %tobool20 = trunc i8 %25 to i1, !dbg !3633
  br i1 %tobool20, label %if.end22, label %if.then21, !dbg !3634

if.then21:                                        ; preds = %for.body17
  br label %for.inc41, !dbg !3635

lpad11:                                           ; preds = %if.then32, %for.end
  %26 = landingpad { i8*, i32 }
          cleanup, !dbg !3636
  %27 = extractvalue { i8*, i32 } %26, 0, !dbg !3636
  store i8* %27, i8** %exn.slot, align 8, !dbg !3636
  %28 = extractvalue { i8*, i32 } %26, 1, !dbg !3636
  store i32 %28, i32* %ehselector.slot, align 4, !dbg !3636
  call void @_ZNSt5dequeIPN9cTopology4NodeESaIS2_EED2Ev(%"class.std::deque"* %q) #3, !dbg !3636
  br label %eh.resume, !dbg !3636

if.end22:                                         ; preds = %for.body17
  call void @llvm.dbg.declare(metadata %"class.cTopology::Node"** %w, metadata !3637, metadata !DIExpression()), !dbg !3638
  %29 = load %"class.cTopology::Node"*, %"class.cTopology::Node"** %v, align 8, !dbg !3639
  %in_links23 = getelementptr inbounds %"class.cTopology::Node", %"class.cTopology::Node"* %29, i32 0, i32 4, !dbg !3640
  %30 = load %"class.cTopology::Link"**, %"class.cTopology::Link"*** %in_links23, align 8, !dbg !3640
  %31 = load i32, i32* %i14, align 4, !dbg !3641
  %idxprom24 = sext i32 %31 to i64, !dbg !3639
  %arrayidx25 = getelementptr inbounds %"class.cTopology::Link"*, %"class.cTopology::Link"** %30, i64 %idxprom24, !dbg !3639
  %32 = load %"class.cTopology::Link"*, %"class.cTopology::Link"** %arrayidx25, align 8, !dbg !3639
  %src_node = getelementptr inbounds %"class.cTopology::Link", %"class.cTopology::Link"* %32, i32 0, i32 0, !dbg !3642
  %33 = load %"class.cTopology::Node"*, %"class.cTopology::Node"** %src_node, align 8, !dbg !3642
  store %"class.cTopology::Node"* %33, %"class.cTopology::Node"** %w, align 8, !dbg !3638
  %34 = load %"class.cTopology::Node"*, %"class.cTopology::Node"** %w, align 8, !dbg !3643
  %enabl26 = getelementptr inbounds %"class.cTopology::Node", %"class.cTopology::Node"* %34, i32 0, i32 2, !dbg !3645
  %35 = load i8, i8* %enabl26, align 8, !dbg !3645
  %tobool27 = trunc i8 %35 to i1, !dbg !3645
  br i1 %tobool27, label %if.end29, label %if.then28, !dbg !3646

if.then28:                                        ; preds = %if.end22
  br label %for.inc41, !dbg !3647

if.end29:                                         ; preds = %if.end22
  %36 = load %"class.cTopology::Node"*, %"class.cTopology::Node"** %w, align 8, !dbg !3648
  %dist30 = getelementptr inbounds %"class.cTopology::Node", %"class.cTopology::Node"* %36, i32 0, i32 8, !dbg !3650
  %37 = load double, double* %dist30, align 8, !dbg !3650
  %cmp31 = fcmp oeq double %37, 0x7FF0000000000000, !dbg !3651
  br i1 %cmp31, label %if.then32, label %if.end40, !dbg !3652

if.then32:                                        ; preds = %if.end29
  %38 = load %"class.cTopology::Node"*, %"class.cTopology::Node"** %v, align 8, !dbg !3653
  %dist33 = getelementptr inbounds %"class.cTopology::Node", %"class.cTopology::Node"* %38, i32 0, i32 8, !dbg !3655
  %39 = load double, double* %dist33, align 8, !dbg !3655
  %add = fadd double %39, 1.000000e+00, !dbg !3656
  %40 = load %"class.cTopology::Node"*, %"class.cTopology::Node"** %w, align 8, !dbg !3657
  %dist34 = getelementptr inbounds %"class.cTopology::Node", %"class.cTopology::Node"* %40, i32 0, i32 8, !dbg !3658
  store double %add, double* %dist34, align 8, !dbg !3659
  %41 = load %"class.cTopology::Node"*, %"class.cTopology::Node"** %v, align 8, !dbg !3660
  %in_links35 = getelementptr inbounds %"class.cTopology::Node", %"class.cTopology::Node"* %41, i32 0, i32 4, !dbg !3661
  %42 = load %"class.cTopology::Link"**, %"class.cTopology::Link"*** %in_links35, align 8, !dbg !3661
  %43 = load i32, i32* %i14, align 4, !dbg !3662
  %idxprom36 = sext i32 %43 to i64, !dbg !3660
  %arrayidx37 = getelementptr inbounds %"class.cTopology::Link"*, %"class.cTopology::Link"** %42, i64 %idxprom36, !dbg !3660
  %44 = load %"class.cTopology::Link"*, %"class.cTopology::Link"** %arrayidx37, align 8, !dbg !3660
  %45 = load %"class.cTopology::Node"*, %"class.cTopology::Node"** %w, align 8, !dbg !3663
  %out_path38 = getelementptr inbounds %"class.cTopology::Node", %"class.cTopology::Node"* %45, i32 0, i32 9, !dbg !3664
  store %"class.cTopology::Link"* %44, %"class.cTopology::Link"** %out_path38, align 8, !dbg !3665
  invoke void @_ZNSt5dequeIPN9cTopology4NodeESaIS2_EE9push_backERKS2_(%"class.std::deque"* %q, %"class.cTopology::Node"** dereferenceable(8) %w)
          to label %invoke.cont39 unwind label %lpad11, !dbg !3666

invoke.cont39:                                    ; preds = %if.then32
  br label %if.end40, !dbg !3667

if.end40:                                         ; preds = %invoke.cont39, %if.end29
  br label %for.inc41, !dbg !3668

for.inc41:                                        ; preds = %if.end40, %if.then28, %if.then21
  %46 = load i32, i32* %i14, align 4, !dbg !3669
  %inc42 = add nsw i32 %46, 1, !dbg !3669
  store i32 %inc42, i32* %i14, align 4, !dbg !3669
  br label %for.cond15, !dbg !3670, !llvm.loop !3671

for.end43:                                        ; preds = %for.cond15
  br label %while.cond, !dbg !3610, !llvm.loop !3673

while.end:                                        ; preds = %while.cond
  call void @_ZNSt5dequeIPN9cTopology4NodeESaIS2_EED2Ev(%"class.std::deque"* %q) #3, !dbg !3636
  ret void, !dbg !3636

eh.resume:                                        ; preds = %lpad11, %lpad
  %exn = load i8*, i8** %exn.slot, align 8, !dbg !3340
  %sel = load i32, i32* %ehselector.slot, align 4, !dbg !3340
  %lpad.val = insertvalue { i8*, i32 } undef, i8* %exn, 0, !dbg !3340
  %lpad.val44 = insertvalue { i8*, i32 } %lpad.val, i32 %sel, 1, !dbg !3340
  resume { i8*, i32 } %lpad.val44, !dbg !3340
}

; Function Attrs: noinline uwtable
define linkonce_odr dso_local void @_ZNSt5dequeIPN9cTopology4NodeESaIS2_EEC2Ev(%"class.std::deque"* %this) unnamed_addr #0 comdat align 2 !dbg !3675 {
entry:
  %this.addr = alloca %"class.std::deque"*, align 8
  store %"class.std::deque"* %this, %"class.std::deque"** %this.addr, align 8
  call void @llvm.dbg.declare(metadata %"class.std::deque"** %this.addr, metadata !3676, metadata !DIExpression()), !dbg !3678
  %this1 = load %"class.std::deque"*, %"class.std::deque"** %this.addr, align 8
  %0 = bitcast %"class.std::deque"* %this1 to %"class.std::_Deque_base"*, !dbg !3679
  call void @_ZNSt11_Deque_baseIPN9cTopology4NodeESaIS2_EEC2Ev(%"class.std::_Deque_base"* %0), !dbg !3680
  ret void, !dbg !3679
}

; Function Attrs: noinline uwtable
define linkonce_odr dso_local void @_ZNSt5dequeIPN9cTopology4NodeESaIS2_EE9push_backERKS2_(%"class.std::deque"* %this, %"class.cTopology::Node"** dereferenceable(8) %__x) #0 comdat align 2 !dbg !3681 {
entry:
  %this.addr = alloca %"class.std::deque"*, align 8
  %__x.addr = alloca %"class.cTopology::Node"**, align 8
  store %"class.std::deque"* %this, %"class.std::deque"** %this.addr, align 8
  call void @llvm.dbg.declare(metadata %"class.std::deque"** %this.addr, metadata !3682, metadata !DIExpression()), !dbg !3683
  store %"class.cTopology::Node"** %__x, %"class.cTopology::Node"*** %__x.addr, align 8
  call void @llvm.dbg.declare(metadata %"class.cTopology::Node"*** %__x.addr, metadata !3684, metadata !DIExpression()), !dbg !3685
  %this1 = load %"class.std::deque"*, %"class.std::deque"** %this.addr, align 8
  %0 = bitcast %"class.std::deque"* %this1 to %"class.std::_Deque_base"*, !dbg !3686
  %_M_impl = getelementptr inbounds %"class.std::_Deque_base", %"class.std::_Deque_base"* %0, i32 0, i32 0, !dbg !3686
  %1 = bitcast %"struct.std::_Deque_base<cTopology::Node *, std::allocator<cTopology::Node *> >::_Deque_impl"* %_M_impl to %"struct.std::_Deque_base<cTopology::Node *, std::allocator<cTopology::Node *> >::_Deque_impl_data"*, !dbg !3688
  %_M_finish = getelementptr inbounds %"struct.std::_Deque_base<cTopology::Node *, std::allocator<cTopology::Node *> >::_Deque_impl_data", %"struct.std::_Deque_base<cTopology::Node *, std::allocator<cTopology::Node *> >::_Deque_impl_data"* %1, i32 0, i32 3, !dbg !3689
  %_M_cur = getelementptr inbounds %"struct.std::_Deque_iterator", %"struct.std::_Deque_iterator"* %_M_finish, i32 0, i32 0, !dbg !3690
  %2 = load %"class.cTopology::Node"**, %"class.cTopology::Node"*** %_M_cur, align 8, !dbg !3690
  %3 = bitcast %"class.std::deque"* %this1 to %"class.std::_Deque_base"*, !dbg !3691
  %_M_impl2 = getelementptr inbounds %"class.std::_Deque_base", %"class.std::_Deque_base"* %3, i32 0, i32 0, !dbg !3691
  %4 = bitcast %"struct.std::_Deque_base<cTopology::Node *, std::allocator<cTopology::Node *> >::_Deque_impl"* %_M_impl2 to %"struct.std::_Deque_base<cTopology::Node *, std::allocator<cTopology::Node *> >::_Deque_impl_data"*, !dbg !3692
  %_M_finish3 = getelementptr inbounds %"struct.std::_Deque_base<cTopology::Node *, std::allocator<cTopology::Node *> >::_Deque_impl_data", %"struct.std::_Deque_base<cTopology::Node *, std::allocator<cTopology::Node *> >::_Deque_impl_data"* %4, i32 0, i32 3, !dbg !3693
  %_M_last = getelementptr inbounds %"struct.std::_Deque_iterator", %"struct.std::_Deque_iterator"* %_M_finish3, i32 0, i32 2, !dbg !3694
  %5 = load %"class.cTopology::Node"**, %"class.cTopology::Node"*** %_M_last, align 8, !dbg !3694
  %add.ptr = getelementptr inbounds %"class.cTopology::Node"*, %"class.cTopology::Node"** %5, i64 -1, !dbg !3695
  %cmp = icmp ne %"class.cTopology::Node"** %2, %add.ptr, !dbg !3696
  br i1 %cmp, label %if.then, label %if.else, !dbg !3697

if.then:                                          ; preds = %entry
  %6 = bitcast %"class.std::deque"* %this1 to %"class.std::_Deque_base"*, !dbg !3698
  %_M_impl4 = getelementptr inbounds %"class.std::_Deque_base", %"class.std::_Deque_base"* %6, i32 0, i32 0, !dbg !3698
  %7 = bitcast %"struct.std::_Deque_base<cTopology::Node *, std::allocator<cTopology::Node *> >::_Deque_impl"* %_M_impl4 to %"class.std::allocator.6"*, !dbg !3700
  %8 = bitcast %"class.std::deque"* %this1 to %"class.std::_Deque_base"*, !dbg !3701
  %_M_impl5 = getelementptr inbounds %"class.std::_Deque_base", %"class.std::_Deque_base"* %8, i32 0, i32 0, !dbg !3701
  %9 = bitcast %"struct.std::_Deque_base<cTopology::Node *, std::allocator<cTopology::Node *> >::_Deque_impl"* %_M_impl5 to %"struct.std::_Deque_base<cTopology::Node *, std::allocator<cTopology::Node *> >::_Deque_impl_data"*, !dbg !3702
  %_M_finish6 = getelementptr inbounds %"struct.std::_Deque_base<cTopology::Node *, std::allocator<cTopology::Node *> >::_Deque_impl_data", %"struct.std::_Deque_base<cTopology::Node *, std::allocator<cTopology::Node *> >::_Deque_impl_data"* %9, i32 0, i32 3, !dbg !3703
  %_M_cur7 = getelementptr inbounds %"struct.std::_Deque_iterator", %"struct.std::_Deque_iterator"* %_M_finish6, i32 0, i32 0, !dbg !3704
  %10 = load %"class.cTopology::Node"**, %"class.cTopology::Node"*** %_M_cur7, align 8, !dbg !3704
  %11 = load %"class.cTopology::Node"**, %"class.cTopology::Node"*** %__x.addr, align 8, !dbg !3705
  call void @_ZNSt16allocator_traitsISaIPN9cTopology4NodeEEE9constructIS2_JRKS2_EEEvRS3_PT_DpOT0_(%"class.std::allocator.6"* dereferenceable(1) %7, %"class.cTopology::Node"** %10, %"class.cTopology::Node"** dereferenceable(8) %11) #3, !dbg !3706
  %12 = bitcast %"class.std::deque"* %this1 to %"class.std::_Deque_base"*, !dbg !3707
  %_M_impl8 = getelementptr inbounds %"class.std::_Deque_base", %"class.std::_Deque_base"* %12, i32 0, i32 0, !dbg !3707
  %13 = bitcast %"struct.std::_Deque_base<cTopology::Node *, std::allocator<cTopology::Node *> >::_Deque_impl"* %_M_impl8 to %"struct.std::_Deque_base<cTopology::Node *, std::allocator<cTopology::Node *> >::_Deque_impl_data"*, !dbg !3708
  %_M_finish9 = getelementptr inbounds %"struct.std::_Deque_base<cTopology::Node *, std::allocator<cTopology::Node *> >::_Deque_impl_data", %"struct.std::_Deque_base<cTopology::Node *, std::allocator<cTopology::Node *> >::_Deque_impl_data"* %13, i32 0, i32 3, !dbg !3709
  %_M_cur10 = getelementptr inbounds %"struct.std::_Deque_iterator", %"struct.std::_Deque_iterator"* %_M_finish9, i32 0, i32 0, !dbg !3710
  %14 = load %"class.cTopology::Node"**, %"class.cTopology::Node"*** %_M_cur10, align 8, !dbg !3711
  %incdec.ptr = getelementptr inbounds %"class.cTopology::Node"*, %"class.cTopology::Node"** %14, i32 1, !dbg !3711
  store %"class.cTopology::Node"** %incdec.ptr, %"class.cTopology::Node"*** %_M_cur10, align 8, !dbg !3711
  br label %if.end, !dbg !3712

if.else:                                          ; preds = %entry
  %15 = load %"class.cTopology::Node"**, %"class.cTopology::Node"*** %__x.addr, align 8, !dbg !3713
  call void @_ZNSt5dequeIPN9cTopology4NodeESaIS2_EE16_M_push_back_auxIJRKS2_EEEvDpOT_(%"class.std::deque"* %this1, %"class.cTopology::Node"** dereferenceable(8) %15), !dbg !3714
  br label %if.end

if.end:                                           ; preds = %if.else, %if.then
  ret void, !dbg !3715
}

; Function Attrs: noinline nounwind uwtable
define linkonce_odr dso_local zeroext i1 @_ZNKSt5dequeIPN9cTopology4NodeESaIS2_EE5emptyEv(%"class.std::deque"* %this) #5 comdat align 2 !dbg !3716 {
entry:
  %this.addr = alloca %"class.std::deque"*, align 8
  store %"class.std::deque"* %this, %"class.std::deque"** %this.addr, align 8
  call void @llvm.dbg.declare(metadata %"class.std::deque"** %this.addr, metadata !3717, metadata !DIExpression()), !dbg !3719
  %this1 = load %"class.std::deque"*, %"class.std::deque"** %this.addr, align 8
  %0 = bitcast %"class.std::deque"* %this1 to %"class.std::_Deque_base"*, !dbg !3720
  %_M_impl = getelementptr inbounds %"class.std::_Deque_base", %"class.std::_Deque_base"* %0, i32 0, i32 0, !dbg !3720
  %1 = bitcast %"struct.std::_Deque_base<cTopology::Node *, std::allocator<cTopology::Node *> >::_Deque_impl"* %_M_impl to %"struct.std::_Deque_base<cTopology::Node *, std::allocator<cTopology::Node *> >::_Deque_impl_data"*, !dbg !3721
  %_M_finish = getelementptr inbounds %"struct.std::_Deque_base<cTopology::Node *, std::allocator<cTopology::Node *> >::_Deque_impl_data", %"struct.std::_Deque_base<cTopology::Node *, std::allocator<cTopology::Node *> >::_Deque_impl_data"* %1, i32 0, i32 3, !dbg !3722
  %2 = bitcast %"class.std::deque"* %this1 to %"class.std::_Deque_base"*, !dbg !3723
  %_M_impl2 = getelementptr inbounds %"class.std::_Deque_base", %"class.std::_Deque_base"* %2, i32 0, i32 0, !dbg !3723
  %3 = bitcast %"struct.std::_Deque_base<cTopology::Node *, std::allocator<cTopology::Node *> >::_Deque_impl"* %_M_impl2 to %"struct.std::_Deque_base<cTopology::Node *, std::allocator<cTopology::Node *> >::_Deque_impl_data"*, !dbg !3724
  %_M_start = getelementptr inbounds %"struct.std::_Deque_base<cTopology::Node *, std::allocator<cTopology::Node *> >::_Deque_impl_data", %"struct.std::_Deque_base<cTopology::Node *, std::allocator<cTopology::Node *> >::_Deque_impl_data"* %3, i32 0, i32 2, !dbg !3725
  %call = call zeroext i1 @_ZSteqRKSt15_Deque_iteratorIPN9cTopology4NodeERS2_PS2_ES7_(%"struct.std::_Deque_iterator"* dereferenceable(32) %_M_finish, %"struct.std::_Deque_iterator"* dereferenceable(32) %_M_start) #3, !dbg !3726
  ret i1 %call, !dbg !3727
}

; Function Attrs: noinline nounwind uwtable
define linkonce_odr dso_local dereferenceable(8) %"class.cTopology::Node"** @_ZNSt5dequeIPN9cTopology4NodeESaIS2_EE5frontEv(%"class.std::deque"* %this) #5 comdat align 2 !dbg !3728 {
entry:
  %this.addr = alloca %"class.std::deque"*, align 8
  %ref.tmp = alloca %"struct.std::_Deque_iterator", align 8
  store %"class.std::deque"* %this, %"class.std::deque"** %this.addr, align 8
  call void @llvm.dbg.declare(metadata %"class.std::deque"** %this.addr, metadata !3729, metadata !DIExpression()), !dbg !3730
  %this1 = load %"class.std::deque"*, %"class.std::deque"** %this.addr, align 8
  call void @_ZNSt5dequeIPN9cTopology4NodeESaIS2_EE5beginEv(%"struct.std::_Deque_iterator"* sret %ref.tmp, %"class.std::deque"* %this1) #3, !dbg !3731
  %call = call dereferenceable(8) %"class.cTopology::Node"** @_ZNKSt15_Deque_iteratorIPN9cTopology4NodeERS2_PS2_EdeEv(%"struct.std::_Deque_iterator"* %ref.tmp) #3, !dbg !3732
  ret %"class.cTopology::Node"** %call, !dbg !3733
}

; Function Attrs: noinline nounwind uwtable
define linkonce_odr dso_local void @_ZNSt5dequeIPN9cTopology4NodeESaIS2_EE9pop_frontEv(%"class.std::deque"* %this) #5 comdat align 2 personality i8* bitcast (i32 (...)* @__gxx_personality_v0 to i8*) !dbg !3734 {
entry:
  %this.addr = alloca %"class.std::deque"*, align 8
  store %"class.std::deque"* %this, %"class.std::deque"** %this.addr, align 8
  call void @llvm.dbg.declare(metadata %"class.std::deque"** %this.addr, metadata !3735, metadata !DIExpression()), !dbg !3736
  %this1 = load %"class.std::deque"*, %"class.std::deque"** %this.addr, align 8
  %0 = bitcast %"class.std::deque"* %this1 to %"class.std::_Deque_base"*, !dbg !3737
  %_M_impl = getelementptr inbounds %"class.std::_Deque_base", %"class.std::_Deque_base"* %0, i32 0, i32 0, !dbg !3737
  %1 = bitcast %"struct.std::_Deque_base<cTopology::Node *, std::allocator<cTopology::Node *> >::_Deque_impl"* %_M_impl to %"struct.std::_Deque_base<cTopology::Node *, std::allocator<cTopology::Node *> >::_Deque_impl_data"*, !dbg !3739
  %_M_start = getelementptr inbounds %"struct.std::_Deque_base<cTopology::Node *, std::allocator<cTopology::Node *> >::_Deque_impl_data", %"struct.std::_Deque_base<cTopology::Node *, std::allocator<cTopology::Node *> >::_Deque_impl_data"* %1, i32 0, i32 2, !dbg !3740
  %_M_cur = getelementptr inbounds %"struct.std::_Deque_iterator", %"struct.std::_Deque_iterator"* %_M_start, i32 0, i32 0, !dbg !3741
  %2 = load %"class.cTopology::Node"**, %"class.cTopology::Node"*** %_M_cur, align 8, !dbg !3741
  %3 = bitcast %"class.std::deque"* %this1 to %"class.std::_Deque_base"*, !dbg !3742
  %_M_impl2 = getelementptr inbounds %"class.std::_Deque_base", %"class.std::_Deque_base"* %3, i32 0, i32 0, !dbg !3742
  %4 = bitcast %"struct.std::_Deque_base<cTopology::Node *, std::allocator<cTopology::Node *> >::_Deque_impl"* %_M_impl2 to %"struct.std::_Deque_base<cTopology::Node *, std::allocator<cTopology::Node *> >::_Deque_impl_data"*, !dbg !3743
  %_M_start3 = getelementptr inbounds %"struct.std::_Deque_base<cTopology::Node *, std::allocator<cTopology::Node *> >::_Deque_impl_data", %"struct.std::_Deque_base<cTopology::Node *, std::allocator<cTopology::Node *> >::_Deque_impl_data"* %4, i32 0, i32 2, !dbg !3744
  %_M_last = getelementptr inbounds %"struct.std::_Deque_iterator", %"struct.std::_Deque_iterator"* %_M_start3, i32 0, i32 2, !dbg !3745
  %5 = load %"class.cTopology::Node"**, %"class.cTopology::Node"*** %_M_last, align 8, !dbg !3745
  %add.ptr = getelementptr inbounds %"class.cTopology::Node"*, %"class.cTopology::Node"** %5, i64 -1, !dbg !3746
  %cmp = icmp ne %"class.cTopology::Node"** %2, %add.ptr, !dbg !3747
  br i1 %cmp, label %if.then, label %if.else, !dbg !3748

if.then:                                          ; preds = %entry
  %6 = bitcast %"class.std::deque"* %this1 to %"class.std::_Deque_base"*, !dbg !3749
  %call = call dereferenceable(1) %"class.std::allocator.6"* @_ZNSt11_Deque_baseIPN9cTopology4NodeESaIS2_EE19_M_get_Tp_allocatorEv(%"class.std::_Deque_base"* %6) #3, !dbg !3749
  %7 = bitcast %"class.std::deque"* %this1 to %"class.std::_Deque_base"*, !dbg !3751
  %_M_impl4 = getelementptr inbounds %"class.std::_Deque_base", %"class.std::_Deque_base"* %7, i32 0, i32 0, !dbg !3751
  %8 = bitcast %"struct.std::_Deque_base<cTopology::Node *, std::allocator<cTopology::Node *> >::_Deque_impl"* %_M_impl4 to %"struct.std::_Deque_base<cTopology::Node *, std::allocator<cTopology::Node *> >::_Deque_impl_data"*, !dbg !3752
  %_M_start5 = getelementptr inbounds %"struct.std::_Deque_base<cTopology::Node *, std::allocator<cTopology::Node *> >::_Deque_impl_data", %"struct.std::_Deque_base<cTopology::Node *, std::allocator<cTopology::Node *> >::_Deque_impl_data"* %8, i32 0, i32 2, !dbg !3753
  %_M_cur6 = getelementptr inbounds %"struct.std::_Deque_iterator", %"struct.std::_Deque_iterator"* %_M_start5, i32 0, i32 0, !dbg !3754
  %9 = load %"class.cTopology::Node"**, %"class.cTopology::Node"*** %_M_cur6, align 8, !dbg !3754
  call void @_ZNSt16allocator_traitsISaIPN9cTopology4NodeEEE7destroyIS2_EEvRS3_PT_(%"class.std::allocator.6"* dereferenceable(1) %call, %"class.cTopology::Node"** %9) #3, !dbg !3755
  %10 = bitcast %"class.std::deque"* %this1 to %"class.std::_Deque_base"*, !dbg !3756
  %_M_impl7 = getelementptr inbounds %"class.std::_Deque_base", %"class.std::_Deque_base"* %10, i32 0, i32 0, !dbg !3756
  %11 = bitcast %"struct.std::_Deque_base<cTopology::Node *, std::allocator<cTopology::Node *> >::_Deque_impl"* %_M_impl7 to %"struct.std::_Deque_base<cTopology::Node *, std::allocator<cTopology::Node *> >::_Deque_impl_data"*, !dbg !3757
  %_M_start8 = getelementptr inbounds %"struct.std::_Deque_base<cTopology::Node *, std::allocator<cTopology::Node *> >::_Deque_impl_data", %"struct.std::_Deque_base<cTopology::Node *, std::allocator<cTopology::Node *> >::_Deque_impl_data"* %11, i32 0, i32 2, !dbg !3758
  %_M_cur9 = getelementptr inbounds %"struct.std::_Deque_iterator", %"struct.std::_Deque_iterator"* %_M_start8, i32 0, i32 0, !dbg !3759
  %12 = load %"class.cTopology::Node"**, %"class.cTopology::Node"*** %_M_cur9, align 8, !dbg !3760
  %incdec.ptr = getelementptr inbounds %"class.cTopology::Node"*, %"class.cTopology::Node"** %12, i32 1, !dbg !3760
  store %"class.cTopology::Node"** %incdec.ptr, %"class.cTopology::Node"*** %_M_cur9, align 8, !dbg !3760
  br label %if.end, !dbg !3761

if.else:                                          ; preds = %entry
  invoke void @_ZNSt5dequeIPN9cTopology4NodeESaIS2_EE16_M_pop_front_auxEv(%"class.std::deque"* %this1)
          to label %invoke.cont unwind label %terminate.lpad, !dbg !3762

invoke.cont:                                      ; preds = %if.else
  br label %if.end

if.end:                                           ; preds = %invoke.cont, %if.then
  ret void, !dbg !3763

terminate.lpad:                                   ; preds = %if.else
  %13 = landingpad { i8*, i32 }
          catch i8* null, !dbg !3762
  %14 = extractvalue { i8*, i32 } %13, 0, !dbg !3762
  call void @__clang_call_terminate(i8* %14) #15, !dbg !3762
  unreachable, !dbg !3762
}

; Function Attrs: noinline nounwind uwtable
define linkonce_odr dso_local void @_ZNSt5dequeIPN9cTopology4NodeESaIS2_EED2Ev(%"class.std::deque"* %this) unnamed_addr #5 comdat align 2 personality i8* bitcast (i32 (...)* @__gxx_personality_v0 to i8*) !dbg !3764 {
entry:
  %this.addr = alloca %"class.std::deque"*, align 8
  %agg.tmp = alloca %"struct.std::_Deque_iterator", align 8
  %agg.tmp2 = alloca %"struct.std::_Deque_iterator", align 8
  %exn.slot = alloca i8*
  %ehselector.slot = alloca i32
  store %"class.std::deque"* %this, %"class.std::deque"** %this.addr, align 8
  call void @llvm.dbg.declare(metadata %"class.std::deque"** %this.addr, metadata !3765, metadata !DIExpression()), !dbg !3766
  %this1 = load %"class.std::deque"*, %"class.std::deque"** %this.addr, align 8
  call void @_ZNSt5dequeIPN9cTopology4NodeESaIS2_EE5beginEv(%"struct.std::_Deque_iterator"* sret %agg.tmp, %"class.std::deque"* %this1) #3, !dbg !3767
  call void @_ZNSt5dequeIPN9cTopology4NodeESaIS2_EE3endEv(%"struct.std::_Deque_iterator"* sret %agg.tmp2, %"class.std::deque"* %this1) #3, !dbg !3769
  %0 = bitcast %"class.std::deque"* %this1 to %"class.std::_Deque_base"*, !dbg !3770
  %call = call dereferenceable(1) %"class.std::allocator.6"* @_ZNSt11_Deque_baseIPN9cTopology4NodeESaIS2_EE19_M_get_Tp_allocatorEv(%"class.std::_Deque_base"* %0) #3, !dbg !3770
  invoke void @_ZNSt5dequeIPN9cTopology4NodeESaIS2_EE15_M_destroy_dataESt15_Deque_iteratorIS2_RS2_PS2_ES8_RKS3_(%"class.std::deque"* %this1, %"struct.std::_Deque_iterator"* %agg.tmp, %"struct.std::_Deque_iterator"* %agg.tmp2, %"class.std::allocator.6"* dereferenceable(1) %call)
          to label %invoke.cont unwind label %lpad, !dbg !3771

invoke.cont:                                      ; preds = %entry
  %1 = bitcast %"class.std::deque"* %this1 to %"class.std::_Deque_base"*, !dbg !3772
  call void @_ZNSt11_Deque_baseIPN9cTopology4NodeESaIS2_EED2Ev(%"class.std::_Deque_base"* %1) #3, !dbg !3772
  ret void, !dbg !3773

lpad:                                             ; preds = %entry
  %2 = landingpad { i8*, i32 }
          catch i8* null, !dbg !3772
  %3 = extractvalue { i8*, i32 } %2, 0, !dbg !3772
  store i8* %3, i8** %exn.slot, align 8, !dbg !3772
  %4 = extractvalue { i8*, i32 } %2, 1, !dbg !3772
  store i32 %4, i32* %ehselector.slot, align 4, !dbg !3772
  %5 = bitcast %"class.std::deque"* %this1 to %"class.std::_Deque_base"*, !dbg !3772
  call void @_ZNSt11_Deque_baseIPN9cTopology4NodeESaIS2_EED2Ev(%"class.std::_Deque_base"* %5) #3, !dbg !3772
  br label %terminate.handler, !dbg !3772

terminate.handler:                                ; preds = %lpad
  %exn = load i8*, i8** %exn.slot, align 8, !dbg !3772
  call void @__clang_call_terminate(i8* %exn) #15, !dbg !3772
  unreachable, !dbg !3772
}

declare dso_local %class.cClassDescriptor* @_ZN7cObject13getDescriptorEv(%class.cObject*) unnamed_addr #1

declare dso_local void @_ZN7cObject18ownedObjectDeletedEP12cOwnedObject(%class.cObject*, %class.cOwnedObject*) unnamed_addr #1

declare dso_local void @_ZN7cObject14yieldOwnershipEP12cOwnedObjectPS_(%class.cObject*, %class.cOwnedObject*, %class.cObject*) unnamed_addr #1

declare dso_local i8* @_ZNK7cObject12getClassNameEv(%class.cObject*) unnamed_addr #1

; Function Attrs: noinline nounwind uwtable
define linkonce_odr dso_local i8* @_ZNK12cNamedObject7getNameEv(%class.cNamedObject* %this) unnamed_addr #5 comdat align 2 !dbg !3774 {
entry:
  %this.addr = alloca %class.cNamedObject*, align 8
  store %class.cNamedObject* %this, %class.cNamedObject** %this.addr, align 8
  call void @llvm.dbg.declare(metadata %class.cNamedObject** %this.addr, metadata !3780, metadata !DIExpression()), !dbg !3782
  %this1 = load %class.cNamedObject*, %class.cNamedObject** %this.addr, align 8
  %namep = getelementptr inbounds %class.cNamedObject, %class.cNamedObject* %this1, i32 0, i32 1, !dbg !3783
  %0 = load i8*, i8** %namep, align 8, !dbg !3783
  %tobool = icmp ne i8* %0, null, !dbg !3783
  br i1 %tobool, label %cond.true, label %cond.false, !dbg !3783

cond.true:                                        ; preds = %entry
  %namep2 = getelementptr inbounds %class.cNamedObject, %class.cNamedObject* %this1, i32 0, i32 1, !dbg !3784
  %1 = load i8*, i8** %namep2, align 8, !dbg !3784
  br label %cond.end, !dbg !3783

cond.false:                                       ; preds = %entry
  br label %cond.end, !dbg !3783

cond.end:                                         ; preds = %cond.false, %cond.true
  %cond = phi i8* [ %1, %cond.true ], [ getelementptr inbounds ([1 x i8], [1 x i8]* @.str.11, i64 0, i64 0), %cond.false ], !dbg !3783
  ret i8* %cond, !dbg !3785
}

; Function Attrs: noinline uwtable
define linkonce_odr dso_local i8* @_ZNK7cObject11getFullNameEv(%class.cObject* %this) unnamed_addr #0 comdat align 2 !dbg !3786 {
entry:
  %this.addr = alloca %class.cObject*, align 8
  store %class.cObject* %this, %class.cObject** %this.addr, align 8
  call void @llvm.dbg.declare(metadata %class.cObject** %this.addr, metadata !3792, metadata !DIExpression()), !dbg !3794
  %this1 = load %class.cObject*, %class.cObject** %this.addr, align 8
  %0 = bitcast %class.cObject* %this1 to i8* (%class.cObject*)***, !dbg !3795
  %vtable = load i8* (%class.cObject*)**, i8* (%class.cObject*)*** %0, align 8, !dbg !3795
  %vfn = getelementptr inbounds i8* (%class.cObject*)*, i8* (%class.cObject*)** %vtable, i64 6, !dbg !3795
  %1 = load i8* (%class.cObject*)*, i8* (%class.cObject*)** %vfn, align 8, !dbg !3795
  %call = call i8* %1(%class.cObject* %this1), !dbg !3795
  ret i8* %call, !dbg !3796
}

declare dso_local void @_ZNK7cObject11getFullPathB5cxx11Ev(%"class.std::__cxx11::basic_string"* sret, %class.cObject*) unnamed_addr #1

declare dso_local void @_ZNK7cObject12detailedInfoB5cxx11Ev(%"class.std::__cxx11::basic_string"* sret, %class.cObject*) unnamed_addr #1

; Function Attrs: noinline uwtable
define linkonce_odr dso_local %class.cTopology* @_ZNK9cTopology3dupEv(%class.cTopology* %this) unnamed_addr #0 comdat align 2 personality i8* bitcast (i32 (...)* @__gxx_personality_v0 to i8*) !dbg !3797 {
entry:
  %this.addr = alloca %class.cTopology*, align 8
  %exn.slot = alloca i8*
  %ehselector.slot = alloca i32
  store %class.cTopology* %this, %class.cTopology** %this.addr, align 8
  call void @llvm.dbg.declare(metadata %class.cTopology** %this.addr, metadata !3798, metadata !DIExpression()), !dbg !3799
  %this1 = load %class.cTopology*, %class.cTopology** %this.addr, align 8
  %call = call i8* @_Znwm(i64 56) #12, !dbg !3800
  %0 = bitcast i8* %call to %class.cTopology*, !dbg !3800
  invoke void @_ZN9cTopologyC1ERKS_(%class.cTopology* %0, %class.cTopology* dereferenceable(56) %this1)
          to label %invoke.cont unwind label %lpad, !dbg !3801

invoke.cont:                                      ; preds = %entry
  ret %class.cTopology* %0, !dbg !3802

lpad:                                             ; preds = %entry
  %1 = landingpad { i8*, i32 }
          cleanup, !dbg !3803
  %2 = extractvalue { i8*, i32 } %1, 0, !dbg !3803
  store i8* %2, i8** %exn.slot, align 8, !dbg !3803
  %3 = extractvalue { i8*, i32 } %1, 1, !dbg !3803
  store i32 %3, i32* %ehselector.slot, align 4, !dbg !3803
  call void @_ZdlPv(i8* %call) #13, !dbg !3800
  br label %eh.resume, !dbg !3800

eh.resume:                                        ; preds = %lpad
  %exn = load i8*, i8** %exn.slot, align 8, !dbg !3800
  %sel = load i32, i32* %ehselector.slot, align 4, !dbg !3800
  %lpad.val = insertvalue { i8*, i32 } undef, i8* %exn, 0, !dbg !3800
  %lpad.val2 = insertvalue { i8*, i32 } %lpad.val, i32 %sel, 1, !dbg !3800
  resume { i8*, i32 } %lpad.val2, !dbg !3800
}

declare dso_local void @_ZN7cObject4takeEP12cOwnedObject(%class.cObject*, %class.cOwnedObject*) unnamed_addr #1

declare dso_local void @_ZN7cObject4dropEP12cOwnedObject(%class.cObject*, %class.cOwnedObject*) unnamed_addr #1

; Function Attrs: noinline nounwind uwtable
define linkonce_odr dso_local %class.cObject* @_ZNK12cOwnedObject8getOwnerEv(%class.cOwnedObject* %this) unnamed_addr #5 comdat align 2 !dbg !3804 {
entry:
  %this.addr = alloca %class.cOwnedObject*, align 8
  store %class.cOwnedObject* %this, %class.cOwnedObject** %this.addr, align 8
  call void @llvm.dbg.declare(metadata %class.cOwnedObject** %this.addr, metadata !3811, metadata !DIExpression()), !dbg !3813
  %this1 = load %class.cOwnedObject*, %class.cOwnedObject** %this.addr, align 8
  %ownerp = getelementptr inbounds %class.cOwnedObject, %class.cOwnedObject* %this1, i32 0, i32 2, !dbg !3814
  %0 = load %class.cObject*, %class.cObject** %ownerp, align 8, !dbg !3814
  ret %class.cObject* %0, !dbg !3815
}

; Function Attrs: noinline nounwind uwtable
define linkonce_odr dso_local zeroext i1 @_ZNK12cOwnedObject13isOwnedObjectEv(%class.cOwnedObject* %this) unnamed_addr #5 comdat align 2 !dbg !3816 {
entry:
  %this.addr = alloca %class.cOwnedObject*, align 8
  store %class.cOwnedObject* %this, %class.cOwnedObject** %this.addr, align 8
  call void @llvm.dbg.declare(metadata %class.cOwnedObject** %this.addr, metadata !3820, metadata !DIExpression()), !dbg !3821
  %this1 = load %class.cOwnedObject*, %class.cOwnedObject** %this.addr, align 8
  ret i1 true, !dbg !3822
}

declare dso_local void @_ZN7cObject12forEachChildEP8cVisitor(%class.cObject*, %class.cVisitor*) unnamed_addr #1

declare dso_local void @_ZN12cNamedObject7setNameEPKc(%class.cNamedObject*, i8*) unnamed_addr #1

declare dso_local void @_ZN12cNamedObject14setNamePoolingEb(%class.cNamedObject*, i1 zeroext) unnamed_addr #1

; Function Attrs: noinline nounwind uwtable
define linkonce_odr dso_local zeroext i1 @_ZN12cNamedObject14getNamePoolingEv(%class.cNamedObject* %this) unnamed_addr #5 comdat align 2 !dbg !3823 {
entry:
  %this.addr = alloca %class.cNamedObject*, align 8
  store %class.cNamedObject* %this, %class.cNamedObject** %this.addr, align 8
  call void @llvm.dbg.declare(metadata %class.cNamedObject** %this.addr, metadata !3828, metadata !DIExpression()), !dbg !3830
  %this1 = load %class.cNamedObject*, %class.cNamedObject** %this.addr, align 8
  %flags = getelementptr inbounds %class.cNamedObject, %class.cNamedObject* %this1, i32 0, i32 2, !dbg !3831
  %0 = load i16, i16* %flags, align 8, !dbg !3831
  %conv = zext i16 %0 to i32, !dbg !3831
  %and = and i32 %conv, 1, !dbg !3832
  %tobool = icmp ne i32 %and, 0, !dbg !3831
  ret i1 %tobool, !dbg !3833
}

declare dso_local void @_ZN12cOwnedObject23removeFromOwnershipTreeEv(%class.cOwnedObject*) unnamed_addr #1

; Function Attrs: noinline nounwind uwtable
define linkonce_odr dso_local zeroext i1 @_ZNK12cOwnedObject11isSoftOwnerEv(%class.cOwnedObject* %this) unnamed_addr #5 comdat align 2 !dbg !3834 {
entry:
  %this.addr = alloca %class.cOwnedObject*, align 8
  store %class.cOwnedObject* %this, %class.cOwnedObject** %this.addr, align 8
  call void @llvm.dbg.declare(metadata %class.cOwnedObject** %this.addr, metadata !3836, metadata !DIExpression()), !dbg !3837
  %this1 = load %class.cOwnedObject*, %class.cOwnedObject** %this.addr, align 8
  ret i1 false, !dbg !3838
}

declare dso_local %class.cRegistrationList* @_ZN23cGlobalRegistrationList11getInstanceEv(%class.cGlobalRegistrationList*) #1

; Function Attrs: nobuiltin
declare dso_local noalias i8* @_Znwm(i64) #8

declare dso_local i8* @_Z12opp_typenameRKSt9type_info(%"class.std::type_info"* dereferenceable(16)) #1

; Function Attrs: noinline uwtable
define internal %class.cObject* @_ZL15__uniquename_41v() #0 personality i8* bitcast (i32 (...)* @__gxx_personality_v0 to i8*) !dbg !3839 {
entry:
  %exn.slot = alloca i8*
  %ehselector.slot = alloca i32
  %call = call i8* @_Znwm(i64 56) #12, !dbg !3842
  %0 = bitcast i8* %call to %class.cTopology*, !dbg !3842
  invoke void @_ZN9cTopologyC1EPKc(%class.cTopology* %0, i8* null)
          to label %invoke.cont unwind label %lpad, !dbg !3842

invoke.cont:                                      ; preds = %entry
  %1 = bitcast %class.cTopology* %0 to %class.cObject*, !dbg !3842
  ret %class.cObject* %1, !dbg !3842

lpad:                                             ; preds = %entry
  %2 = landingpad { i8*, i32 }
          cleanup, !dbg !3842
  %3 = extractvalue { i8*, i32 } %2, 0, !dbg !3842
  store i8* %3, i8** %exn.slot, align 8, !dbg !3842
  %4 = extractvalue { i8*, i32 } %2, 1, !dbg !3842
  store i32 %4, i32* %ehselector.slot, align 4, !dbg !3842
  call void @_ZdlPv(i8* %call) #13, !dbg !3842
  br label %eh.resume, !dbg !3842

eh.resume:                                        ; preds = %lpad
  %exn = load i8*, i8** %exn.slot, align 8, !dbg !3842
  %sel = load i32, i32* %ehselector.slot, align 4, !dbg !3842
  %lpad.val = insertvalue { i8*, i32 } undef, i8* %exn, 0, !dbg !3842
  %lpad.val1 = insertvalue { i8*, i32 } %lpad.val, i32 %sel, 1, !dbg !3842
  resume { i8*, i32 } %lpad.val1, !dbg !3842
}

declare dso_local void @_ZN13cClassFactoryC1EPKcPFP7cObjectvES1_(%class.cClassFactory*, i8*, %class.cObject* ()*, i8*) unnamed_addr #1

; Function Attrs: nounwind
declare dso_local void @_ZNSt7__cxx1112basic_stringIcSt11char_traitsIcESaIcEED1Ev(%"class.std::__cxx11::basic_string"*) unnamed_addr #2

; Function Attrs: nounwind
declare dso_local void @_ZNSt9exceptionD2Ev(%"class.std::exception"*) unnamed_addr #2

; Function Attrs: noinline nounwind uwtable
define linkonce_odr dso_local void @_ZN10cExceptionD2Ev(%class.cException* %this) unnamed_addr #5 comdat align 2 !dbg !3843 {
entry:
  %this.addr = alloca %class.cException*, align 8
  store %class.cException* %this, %class.cException** %this.addr, align 8
  call void @llvm.dbg.declare(metadata %class.cException** %this.addr, metadata !3903, metadata !DIExpression()), !dbg !3904
  %this1 = load %class.cException*, %class.cException** %this.addr, align 8
  %0 = bitcast %class.cException* %this1 to i32 (...)***, !dbg !3905
  store i32 (...)** bitcast (i8** getelementptr inbounds ({ [13 x i8*] }, { [13 x i8*] }* @_ZTV10cException, i32 0, inrange i32 0, i32 2) to i32 (...)**), i32 (...)*** %0, align 8, !dbg !3905
  %contextfullpath = getelementptr inbounds %class.cException, %class.cException* %this1, i32 0, i32 7, !dbg !3906
  call void @_ZNSt7__cxx1112basic_stringIcSt11char_traitsIcESaIcEED1Ev(%"class.std::__cxx11::basic_string"* %contextfullpath) #3, !dbg !3906
  %contextclassname = getelementptr inbounds %class.cException, %class.cException* %this1, i32 0, i32 6, !dbg !3906
  call void @_ZNSt7__cxx1112basic_stringIcSt11char_traitsIcESaIcEED1Ev(%"class.std::__cxx11::basic_string"* %contextclassname) #3, !dbg !3906
  %msg = getelementptr inbounds %class.cException, %class.cException* %this1, i32 0, i32 3, !dbg !3906
  call void @_ZNSt7__cxx1112basic_stringIcSt11char_traitsIcESaIcEED1Ev(%"class.std::__cxx11::basic_string"* %msg) #3, !dbg !3906
  %1 = bitcast %class.cException* %this1 to %"class.std::exception"*, !dbg !3906
  call void @_ZNSt9exceptionD2Ev(%"class.std::exception"* %1) #3, !dbg !3906
  ret void, !dbg !3908
}

; Function Attrs: noinline nounwind uwtable
define linkonce_odr dso_local void @_ZN10cExceptionD0Ev(%class.cException* %this) unnamed_addr #5 comdat align 2 !dbg !3909 {
entry:
  %this.addr = alloca %class.cException*, align 8
  store %class.cException* %this, %class.cException** %this.addr, align 8
  call void @llvm.dbg.declare(metadata %class.cException** %this.addr, metadata !3910, metadata !DIExpression()), !dbg !3911
  %this1 = load %class.cException*, %class.cException** %this.addr, align 8
  call void @_ZN10cExceptionD2Ev(%class.cException* %this1) #3, !dbg !3912
  %0 = bitcast %class.cException* %this1 to i8*, !dbg !3912
  call void @_ZdlPv(i8* %0) #13, !dbg !3912
  ret void, !dbg !3913
}

; Function Attrs: noinline nounwind uwtable
define linkonce_odr dso_local i8* @_ZNK10cException4whatEv(%class.cException* %this) unnamed_addr #5 comdat align 2 !dbg !3914 {
entry:
  %this.addr = alloca %class.cException*, align 8
  store %class.cException* %this, %class.cException** %this.addr, align 8
  call void @llvm.dbg.declare(metadata %class.cException** %this.addr, metadata !3915, metadata !DIExpression()), !dbg !3917
  %this1 = load %class.cException*, %class.cException** %this.addr, align 8
  %msg = getelementptr inbounds %class.cException, %class.cException* %this1, i32 0, i32 3, !dbg !3918
  %call = call i8* @_ZNKSt7__cxx1112basic_stringIcSt11char_traitsIcESaIcEE5c_strEv(%"class.std::__cxx11::basic_string"* %msg) #3, !dbg !3919
  ret i8* %call, !dbg !3920
}

; Function Attrs: noinline uwtable
define linkonce_odr dso_local %class.cException* @_ZNK10cException3dupEv(%class.cException* %this) unnamed_addr #0 comdat align 2 personality i8* bitcast (i32 (...)* @__gxx_personality_v0 to i8*) !dbg !3921 {
entry:
  %this.addr = alloca %class.cException*, align 8
  %exn.slot = alloca i8*
  %ehselector.slot = alloca i32
  store %class.cException* %this, %class.cException** %this.addr, align 8
  call void @llvm.dbg.declare(metadata %class.cException** %this.addr, metadata !3922, metadata !DIExpression()), !dbg !3923
  %this1 = load %class.cException*, %class.cException** %this.addr, align 8
  %call = call i8* @_Znwm(i64 128) #12, !dbg !3924
  %0 = bitcast i8* %call to %class.cException*, !dbg !3924
  invoke void @_ZN10cExceptionC1ERKS_(%class.cException* %0, %class.cException* dereferenceable(128) %this1)
          to label %invoke.cont unwind label %lpad, !dbg !3925

invoke.cont:                                      ; preds = %entry
  ret %class.cException* %0, !dbg !3926

lpad:                                             ; preds = %entry
  %1 = landingpad { i8*, i32 }
          cleanup, !dbg !3927
  %2 = extractvalue { i8*, i32 } %1, 0, !dbg !3927
  store i8* %2, i8** %exn.slot, align 8, !dbg !3927
  %3 = extractvalue { i8*, i32 } %1, 1, !dbg !3927
  store i32 %3, i32* %ehselector.slot, align 4, !dbg !3927
  call void @_ZdlPv(i8* %call) #13, !dbg !3924
  br label %eh.resume, !dbg !3924

eh.resume:                                        ; preds = %lpad
  %exn = load i8*, i8** %exn.slot, align 8, !dbg !3924
  %sel = load i32, i32* %ehselector.slot, align 4, !dbg !3924
  %lpad.val = insertvalue { i8*, i32 } undef, i8* %exn, 0, !dbg !3924
  %lpad.val2 = insertvalue { i8*, i32 } %lpad.val, i32 %sel, 1, !dbg !3924
  resume { i8*, i32 } %lpad.val2, !dbg !3924
}

; Function Attrs: noinline nounwind uwtable
define linkonce_odr dso_local i32 @_ZNK10cException12getErrorCodeEv(%class.cException* %this) unnamed_addr #5 comdat align 2 !dbg !3928 {
entry:
  %this.addr = alloca %class.cException*, align 8
  store %class.cException* %this, %class.cException** %this.addr, align 8
  call void @llvm.dbg.declare(metadata %class.cException** %this.addr, metadata !3929, metadata !DIExpression()), !dbg !3930
  %this1 = load %class.cException*, %class.cException** %this.addr, align 8
  %errorcode = getelementptr inbounds %class.cException, %class.cException* %this1, i32 0, i32 1, !dbg !3931
  %0 = load i32, i32* %errorcode, align 8, !dbg !3931
  ret i32 %0, !dbg !3932
}

; Function Attrs: noinline uwtable
define linkonce_odr dso_local void @_ZN10cException10setMessageEPKc(%class.cException* %this, i8* %txt) unnamed_addr #0 comdat align 2 !dbg !3933 {
entry:
  %this.addr = alloca %class.cException*, align 8
  %txt.addr = alloca i8*, align 8
  store %class.cException* %this, %class.cException** %this.addr, align 8
  call void @llvm.dbg.declare(metadata %class.cException** %this.addr, metadata !3934, metadata !DIExpression()), !dbg !3935
  store i8* %txt, i8** %txt.addr, align 8
  call void @llvm.dbg.declare(metadata i8** %txt.addr, metadata !3936, metadata !DIExpression()), !dbg !3937
  %this1 = load %class.cException*, %class.cException** %this.addr, align 8
  %0 = load i8*, i8** %txt.addr, align 8, !dbg !3938
  %msg = getelementptr inbounds %class.cException, %class.cException* %this1, i32 0, i32 3, !dbg !3939
  %call = call dereferenceable(32) %"class.std::__cxx11::basic_string"* @_ZNSt7__cxx1112basic_stringIcSt11char_traitsIcESaIcEEaSEPKc(%"class.std::__cxx11::basic_string"* %msg, i8* %0), !dbg !3940
  ret void, !dbg !3941
}

; Function Attrs: noinline uwtable
define linkonce_odr dso_local void @_ZN10cException14prependMessageEPKc(%class.cException* %this, i8* %txt) unnamed_addr #0 comdat align 2 personality i8* bitcast (i32 (...)* @__gxx_personality_v0 to i8*) !dbg !3942 {
entry:
  %this.addr = alloca %class.cException*, align 8
  %txt.addr = alloca i8*, align 8
  %ref.tmp = alloca %"class.std::__cxx11::basic_string", align 8
  %ref.tmp2 = alloca %"class.std::__cxx11::basic_string", align 8
  %ref.tmp3 = alloca %"class.std::__cxx11::basic_string", align 8
  %ref.tmp4 = alloca %"class.std::allocator", align 1
  %exn.slot = alloca i8*
  %ehselector.slot = alloca i32
  store %class.cException* %this, %class.cException** %this.addr, align 8
  call void @llvm.dbg.declare(metadata %class.cException** %this.addr, metadata !3943, metadata !DIExpression()), !dbg !3944
  store i8* %txt, i8** %txt.addr, align 8
  call void @llvm.dbg.declare(metadata i8** %txt.addr, metadata !3945, metadata !DIExpression()), !dbg !3946
  %this1 = load %class.cException*, %class.cException** %this.addr, align 8
  %0 = load i8*, i8** %txt.addr, align 8, !dbg !3947
  call void @_ZNSaIcEC1Ev(%"class.std::allocator"* %ref.tmp4) #3, !dbg !3948
  invoke void @_ZNSt7__cxx1112basic_stringIcSt11char_traitsIcESaIcEEC1EPKcRKS3_(%"class.std::__cxx11::basic_string"* %ref.tmp3, i8* %0, %"class.std::allocator"* dereferenceable(1) %ref.tmp4)
          to label %invoke.cont unwind label %lpad, !dbg !3948

invoke.cont:                                      ; preds = %entry
  invoke void @_ZStplIcSt11char_traitsIcESaIcEENSt7__cxx1112basic_stringIT_T0_T1_EEOS8_PKS5_(%"class.std::__cxx11::basic_string"* sret %ref.tmp2, %"class.std::__cxx11::basic_string"* dereferenceable(32) %ref.tmp3, i8* getelementptr inbounds ([3 x i8], [3 x i8]* @.str.9, i64 0, i64 0))
          to label %invoke.cont6 unwind label %lpad5, !dbg !3949

invoke.cont6:                                     ; preds = %invoke.cont
  %msg = getelementptr inbounds %class.cException, %class.cException* %this1, i32 0, i32 3, !dbg !3950
  invoke void @_ZStplIcSt11char_traitsIcESaIcEENSt7__cxx1112basic_stringIT_T0_T1_EEOS8_RKS8_(%"class.std::__cxx11::basic_string"* sret %ref.tmp, %"class.std::__cxx11::basic_string"* dereferenceable(32) %ref.tmp2, %"class.std::__cxx11::basic_string"* dereferenceable(32) %msg)
          to label %invoke.cont8 unwind label %lpad7, !dbg !3951

invoke.cont8:                                     ; preds = %invoke.cont6
  %msg9 = getelementptr inbounds %class.cException, %class.cException* %this1, i32 0, i32 3, !dbg !3952
  %call = call dereferenceable(32) %"class.std::__cxx11::basic_string"* @_ZNSt7__cxx1112basic_stringIcSt11char_traitsIcESaIcEEaSEOS4_(%"class.std::__cxx11::basic_string"* %msg9, %"class.std::__cxx11::basic_string"* dereferenceable(32) %ref.tmp) #3, !dbg !3953
  call void @_ZNSt7__cxx1112basic_stringIcSt11char_traitsIcESaIcEED1Ev(%"class.std::__cxx11::basic_string"* %ref.tmp) #3, !dbg !3952
  call void @_ZNSt7__cxx1112basic_stringIcSt11char_traitsIcESaIcEED1Ev(%"class.std::__cxx11::basic_string"* %ref.tmp2) #3, !dbg !3952
  call void @_ZNSt7__cxx1112basic_stringIcSt11char_traitsIcESaIcEED1Ev(%"class.std::__cxx11::basic_string"* %ref.tmp3) #3, !dbg !3952
  call void @_ZNSaIcED1Ev(%"class.std::allocator"* %ref.tmp4) #3, !dbg !3952
  ret void, !dbg !3954

lpad:                                             ; preds = %entry
  %1 = landingpad { i8*, i32 }
          cleanup, !dbg !3954
  %2 = extractvalue { i8*, i32 } %1, 0, !dbg !3954
  store i8* %2, i8** %exn.slot, align 8, !dbg !3954
  %3 = extractvalue { i8*, i32 } %1, 1, !dbg !3954
  store i32 %3, i32* %ehselector.slot, align 4, !dbg !3954
  br label %ehcleanup10, !dbg !3954

lpad5:                                            ; preds = %invoke.cont
  %4 = landingpad { i8*, i32 }
          cleanup, !dbg !3954
  %5 = extractvalue { i8*, i32 } %4, 0, !dbg !3954
  store i8* %5, i8** %exn.slot, align 8, !dbg !3954
  %6 = extractvalue { i8*, i32 } %4, 1, !dbg !3954
  store i32 %6, i32* %ehselector.slot, align 4, !dbg !3954
  br label %ehcleanup, !dbg !3954

lpad7:                                            ; preds = %invoke.cont6
  %7 = landingpad { i8*, i32 }
          cleanup, !dbg !3954
  %8 = extractvalue { i8*, i32 } %7, 0, !dbg !3954
  store i8* %8, i8** %exn.slot, align 8, !dbg !3954
  %9 = extractvalue { i8*, i32 } %7, 1, !dbg !3954
  store i32 %9, i32* %ehselector.slot, align 4, !dbg !3954
  call void @_ZNSt7__cxx1112basic_stringIcSt11char_traitsIcESaIcEED1Ev(%"class.std::__cxx11::basic_string"* %ref.tmp2) #3, !dbg !3952
  br label %ehcleanup, !dbg !3952

ehcleanup:                                        ; preds = %lpad7, %lpad5
  call void @_ZNSt7__cxx1112basic_stringIcSt11char_traitsIcESaIcEED1Ev(%"class.std::__cxx11::basic_string"* %ref.tmp3) #3, !dbg !3952
  br label %ehcleanup10, !dbg !3952

ehcleanup10:                                      ; preds = %ehcleanup, %lpad
  call void @_ZNSaIcED1Ev(%"class.std::allocator"* %ref.tmp4) #3, !dbg !3952
  br label %eh.resume, !dbg !3952

eh.resume:                                        ; preds = %ehcleanup10
  %exn = load i8*, i8** %exn.slot, align 8, !dbg !3952
  %sel = load i32, i32* %ehselector.slot, align 4, !dbg !3952
  %lpad.val = insertvalue { i8*, i32 } undef, i8* %exn, 0, !dbg !3952
  %lpad.val11 = insertvalue { i8*, i32 } %lpad.val, i32 %sel, 1, !dbg !3952
  resume { i8*, i32 } %lpad.val11, !dbg !3952
}

; Function Attrs: noinline nounwind uwtable
define linkonce_odr dso_local zeroext i1 @_ZNK10cException10hasContextEv(%class.cException* %this) unnamed_addr #5 comdat align 2 !dbg !3955 {
entry:
  %this.addr = alloca %class.cException*, align 8
  store %class.cException* %this, %class.cException** %this.addr, align 8
  call void @llvm.dbg.declare(metadata %class.cException** %this.addr, metadata !3956, metadata !DIExpression()), !dbg !3957
  %this1 = load %class.cException*, %class.cException** %this.addr, align 8
  %hascontext = getelementptr inbounds %class.cException, %class.cException* %this1, i32 0, i32 4, !dbg !3958
  %0 = load i8, i8* %hascontext, align 8, !dbg !3958
  %tobool = trunc i8 %0 to i1, !dbg !3958
  ret i1 %tobool, !dbg !3959
}

; Function Attrs: noinline nounwind uwtable
define linkonce_odr dso_local i8* @_ZNK10cException19getContextClassNameEv(%class.cException* %this) unnamed_addr #5 comdat align 2 !dbg !3960 {
entry:
  %this.addr = alloca %class.cException*, align 8
  store %class.cException* %this, %class.cException** %this.addr, align 8
  call void @llvm.dbg.declare(metadata %class.cException** %this.addr, metadata !3961, metadata !DIExpression()), !dbg !3962
  %this1 = load %class.cException*, %class.cException** %this.addr, align 8
  %contextclassname = getelementptr inbounds %class.cException, %class.cException* %this1, i32 0, i32 6, !dbg !3963
  %call = call i8* @_ZNKSt7__cxx1112basic_stringIcSt11char_traitsIcESaIcEE5c_strEv(%"class.std::__cxx11::basic_string"* %contextclassname) #3, !dbg !3964
  ret i8* %call, !dbg !3965
}

; Function Attrs: noinline nounwind uwtable
define linkonce_odr dso_local i8* @_ZNK10cException18getContextFullPathEv(%class.cException* %this) unnamed_addr #5 comdat align 2 !dbg !3966 {
entry:
  %this.addr = alloca %class.cException*, align 8
  store %class.cException* %this, %class.cException** %this.addr, align 8
  call void @llvm.dbg.declare(metadata %class.cException** %this.addr, metadata !3967, metadata !DIExpression()), !dbg !3968
  %this1 = load %class.cException*, %class.cException** %this.addr, align 8
  %contextfullpath = getelementptr inbounds %class.cException, %class.cException* %this1, i32 0, i32 7, !dbg !3969
  %call = call i8* @_ZNKSt7__cxx1112basic_stringIcSt11char_traitsIcESaIcEE5c_strEv(%"class.std::__cxx11::basic_string"* %contextfullpath) #3, !dbg !3970
  ret i8* %call, !dbg !3971
}

; Function Attrs: noinline nounwind uwtable
define linkonce_odr dso_local i32 @_ZNK10cException11getModuleIDEv(%class.cException* %this) unnamed_addr #5 comdat align 2 !dbg !3972 {
entry:
  %this.addr = alloca %class.cException*, align 8
  store %class.cException* %this, %class.cException** %this.addr, align 8
  call void @llvm.dbg.declare(metadata %class.cException** %this.addr, metadata !3973, metadata !DIExpression()), !dbg !3974
  %this1 = load %class.cException*, %class.cException** %this.addr, align 8
  %moduleid = getelementptr inbounds %class.cException, %class.cException* %this1, i32 0, i32 8, !dbg !3975
  %0 = load i32, i32* %moduleid, align 8, !dbg !3975
  ret i32 %0, !dbg !3976
}

; Function Attrs: nounwind
declare dso_local i8* @_ZNKSt7__cxx1112basic_stringIcSt11char_traitsIcESaIcEE5c_strEv(%"class.std::__cxx11::basic_string"*) #2

declare dso_local void @_ZN10cExceptionC1ERKS_(%class.cException*, %class.cException* dereferenceable(128)) unnamed_addr #1

declare dso_local dereferenceable(32) %"class.std::__cxx11::basic_string"* @_ZNSt7__cxx1112basic_stringIcSt11char_traitsIcESaIcEEaSEPKc(%"class.std::__cxx11::basic_string"*, i8*) #1

; Function Attrs: noinline uwtable
define linkonce_odr dso_local void @_ZStplIcSt11char_traitsIcESaIcEENSt7__cxx1112basic_stringIT_T0_T1_EEOS8_RKS8_(%"class.std::__cxx11::basic_string"* noalias sret %agg.result, %"class.std::__cxx11::basic_string"* dereferenceable(32) %__lhs, %"class.std::__cxx11::basic_string"* dereferenceable(32) %__rhs) #0 comdat !dbg !3977 {
entry:
  %result.ptr = alloca i8*, align 8
  %__lhs.addr = alloca %"class.std::__cxx11::basic_string"*, align 8
  %__rhs.addr = alloca %"class.std::__cxx11::basic_string"*, align 8
  %0 = bitcast %"class.std::__cxx11::basic_string"* %agg.result to i8*
  store i8* %0, i8** %result.ptr, align 8
  store %"class.std::__cxx11::basic_string"* %__lhs, %"class.std::__cxx11::basic_string"** %__lhs.addr, align 8
  call void @llvm.dbg.declare(metadata %"class.std::__cxx11::basic_string"** %__lhs.addr, metadata !4038, metadata !DIExpression()), !dbg !4039
  store %"class.std::__cxx11::basic_string"* %__rhs, %"class.std::__cxx11::basic_string"** %__rhs.addr, align 8
  call void @llvm.dbg.declare(metadata %"class.std::__cxx11::basic_string"** %__rhs.addr, metadata !4040, metadata !DIExpression()), !dbg !4041
  %1 = load %"class.std::__cxx11::basic_string"*, %"class.std::__cxx11::basic_string"** %__lhs.addr, align 8, !dbg !4042
  %2 = load %"class.std::__cxx11::basic_string"*, %"class.std::__cxx11::basic_string"** %__rhs.addr, align 8, !dbg !4043
  %call = call dereferenceable(32) %"class.std::__cxx11::basic_string"* @_ZNSt7__cxx1112basic_stringIcSt11char_traitsIcESaIcEE6appendERKS4_(%"class.std::__cxx11::basic_string"* %1, %"class.std::__cxx11::basic_string"* dereferenceable(32) %2), !dbg !4044
  %call1 = call dereferenceable(32) %"class.std::__cxx11::basic_string"* @_ZSt4moveIRNSt7__cxx1112basic_stringIcSt11char_traitsIcESaIcEEEEONSt16remove_referenceIT_E4typeEOS8_(%"class.std::__cxx11::basic_string"* dereferenceable(32) %call) #3, !dbg !4045
  call void @_ZNSt7__cxx1112basic_stringIcSt11char_traitsIcESaIcEEC1EOS4_(%"class.std::__cxx11::basic_string"* %agg.result, %"class.std::__cxx11::basic_string"* dereferenceable(32) %call1) #3, !dbg !4045
  ret void, !dbg !4046
}

; Function Attrs: noinline uwtable
define linkonce_odr dso_local void @_ZStplIcSt11char_traitsIcESaIcEENSt7__cxx1112basic_stringIT_T0_T1_EEOS8_PKS5_(%"class.std::__cxx11::basic_string"* noalias sret %agg.result, %"class.std::__cxx11::basic_string"* dereferenceable(32) %__lhs, i8* %__rhs) #0 comdat !dbg !4047 {
entry:
  %result.ptr = alloca i8*, align 8
  %__lhs.addr = alloca %"class.std::__cxx11::basic_string"*, align 8
  %__rhs.addr = alloca i8*, align 8
  %0 = bitcast %"class.std::__cxx11::basic_string"* %agg.result to i8*
  store i8* %0, i8** %result.ptr, align 8
  store %"class.std::__cxx11::basic_string"* %__lhs, %"class.std::__cxx11::basic_string"** %__lhs.addr, align 8
  call void @llvm.dbg.declare(metadata %"class.std::__cxx11::basic_string"** %__lhs.addr, metadata !4050, metadata !DIExpression()), !dbg !4051
  store i8* %__rhs, i8** %__rhs.addr, align 8
  call void @llvm.dbg.declare(metadata i8** %__rhs.addr, metadata !4052, metadata !DIExpression()), !dbg !4053
  %1 = load %"class.std::__cxx11::basic_string"*, %"class.std::__cxx11::basic_string"** %__lhs.addr, align 8, !dbg !4054
  %2 = load i8*, i8** %__rhs.addr, align 8, !dbg !4055
  %call = call dereferenceable(32) %"class.std::__cxx11::basic_string"* @_ZNSt7__cxx1112basic_stringIcSt11char_traitsIcESaIcEE6appendEPKc(%"class.std::__cxx11::basic_string"* %1, i8* %2), !dbg !4056
  %call1 = call dereferenceable(32) %"class.std::__cxx11::basic_string"* @_ZSt4moveIRNSt7__cxx1112basic_stringIcSt11char_traitsIcESaIcEEEEONSt16remove_referenceIT_E4typeEOS8_(%"class.std::__cxx11::basic_string"* dereferenceable(32) %call) #3, !dbg !4057
  call void @_ZNSt7__cxx1112basic_stringIcSt11char_traitsIcESaIcEEC1EOS4_(%"class.std::__cxx11::basic_string"* %agg.result, %"class.std::__cxx11::basic_string"* dereferenceable(32) %call1) #3, !dbg !4057
  ret void, !dbg !4058
}

; Function Attrs: nounwind
declare dso_local void @_ZNSaIcEC1Ev(%"class.std::allocator"*) unnamed_addr #2

declare dso_local void @_ZNSt7__cxx1112basic_stringIcSt11char_traitsIcESaIcEEC1EPKcRKS3_(%"class.std::__cxx11::basic_string"*, i8*, %"class.std::allocator"* dereferenceable(1)) unnamed_addr #1

; Function Attrs: nounwind
declare dso_local dereferenceable(32) %"class.std::__cxx11::basic_string"* @_ZNSt7__cxx1112basic_stringIcSt11char_traitsIcESaIcEEaSEOS4_(%"class.std::__cxx11::basic_string"*, %"class.std::__cxx11::basic_string"* dereferenceable(32)) #2

; Function Attrs: nounwind
declare dso_local void @_ZNSaIcED1Ev(%"class.std::allocator"*) unnamed_addr #2

; Function Attrs: noinline nounwind uwtable
define linkonce_odr dso_local dereferenceable(32) %"class.std::__cxx11::basic_string"* @_ZSt4moveIRNSt7__cxx1112basic_stringIcSt11char_traitsIcESaIcEEEEONSt16remove_referenceIT_E4typeEOS8_(%"class.std::__cxx11::basic_string"* dereferenceable(32) %__t) #5 comdat !dbg !4059 {
entry:
  %__t.addr = alloca %"class.std::__cxx11::basic_string"*, align 8
  store %"class.std::__cxx11::basic_string"* %__t, %"class.std::__cxx11::basic_string"** %__t.addr, align 8
  call void @llvm.dbg.declare(metadata %"class.std::__cxx11::basic_string"** %__t.addr, metadata !4068, metadata !DIExpression()), !dbg !4069
  %0 = load %"class.std::__cxx11::basic_string"*, %"class.std::__cxx11::basic_string"** %__t.addr, align 8, !dbg !4070
  ret %"class.std::__cxx11::basic_string"* %0, !dbg !4071
}

declare dso_local dereferenceable(32) %"class.std::__cxx11::basic_string"* @_ZNSt7__cxx1112basic_stringIcSt11char_traitsIcESaIcEE6appendERKS4_(%"class.std::__cxx11::basic_string"*, %"class.std::__cxx11::basic_string"* dereferenceable(32)) #1

; Function Attrs: nounwind
declare dso_local void @_ZNSt7__cxx1112basic_stringIcSt11char_traitsIcESaIcEEC1EOS4_(%"class.std::__cxx11::basic_string"*, %"class.std::__cxx11::basic_string"* dereferenceable(32)) unnamed_addr #2

declare dso_local dereferenceable(32) %"class.std::__cxx11::basic_string"* @_ZNSt7__cxx1112basic_stringIcSt11char_traitsIcESaIcEE6appendEPKc(%"class.std::__cxx11::basic_string"*, i8*) #1

; Function Attrs: noinline nounwind uwtable
define linkonce_odr dso_local i64 @_ZNKSt6vectorINSt7__cxx1112basic_stringIcSt11char_traitsIcESaIcEEESaIS5_EE4sizeEv(%"class.std::vector"* %this) #5 comdat align 2 !dbg !4072 {
entry:
  %this.addr = alloca %"class.std::vector"*, align 8
  store %"class.std::vector"* %this, %"class.std::vector"** %this.addr, align 8
  call void @llvm.dbg.declare(metadata %"class.std::vector"** %this.addr, metadata !4073, metadata !DIExpression()), !dbg !4074
  %this1 = load %"class.std::vector"*, %"class.std::vector"** %this.addr, align 8
  %0 = bitcast %"class.std::vector"* %this1 to %"struct.std::_Vector_base"*, !dbg !4075
  %_M_impl = getelementptr inbounds %"struct.std::_Vector_base", %"struct.std::_Vector_base"* %0, i32 0, i32 0, !dbg !4075
  %1 = bitcast %"struct.std::_Vector_base<std::__cxx11::basic_string<char>, std::allocator<std::__cxx11::basic_string<char> > >::_Vector_impl"* %_M_impl to %"struct.std::_Vector_base<std::__cxx11::basic_string<char>, std::allocator<std::__cxx11::basic_string<char> > >::_Vector_impl_data"*, !dbg !4076
  %_M_finish = getelementptr inbounds %"struct.std::_Vector_base<std::__cxx11::basic_string<char>, std::allocator<std::__cxx11::basic_string<char> > >::_Vector_impl_data", %"struct.std::_Vector_base<std::__cxx11::basic_string<char>, std::allocator<std::__cxx11::basic_string<char> > >::_Vector_impl_data"* %1, i32 0, i32 1, !dbg !4077
  %2 = load %"class.std::__cxx11::basic_string"*, %"class.std::__cxx11::basic_string"** %_M_finish, align 8, !dbg !4077
  %3 = bitcast %"class.std::vector"* %this1 to %"struct.std::_Vector_base"*, !dbg !4078
  %_M_impl2 = getelementptr inbounds %"struct.std::_Vector_base", %"struct.std::_Vector_base"* %3, i32 0, i32 0, !dbg !4078
  %4 = bitcast %"struct.std::_Vector_base<std::__cxx11::basic_string<char>, std::allocator<std::__cxx11::basic_string<char> > >::_Vector_impl"* %_M_impl2 to %"struct.std::_Vector_base<std::__cxx11::basic_string<char>, std::allocator<std::__cxx11::basic_string<char> > >::_Vector_impl_data"*, !dbg !4079
  %_M_start = getelementptr inbounds %"struct.std::_Vector_base<std::__cxx11::basic_string<char>, std::allocator<std::__cxx11::basic_string<char> > >::_Vector_impl_data", %"struct.std::_Vector_base<std::__cxx11::basic_string<char>, std::allocator<std::__cxx11::basic_string<char> > >::_Vector_impl_data"* %4, i32 0, i32 0, !dbg !4080
  %5 = load %"class.std::__cxx11::basic_string"*, %"class.std::__cxx11::basic_string"** %_M_start, align 8, !dbg !4080
  %sub.ptr.lhs.cast = ptrtoint %"class.std::__cxx11::basic_string"* %2 to i64, !dbg !4081
  %sub.ptr.rhs.cast = ptrtoint %"class.std::__cxx11::basic_string"* %5 to i64, !dbg !4081
  %sub.ptr.sub = sub i64 %sub.ptr.lhs.cast, %sub.ptr.rhs.cast, !dbg !4081
  %sub.ptr.div = sdiv exact i64 %sub.ptr.sub, 32, !dbg !4081
  ret i64 %sub.ptr.div, !dbg !4082
}

; Function Attrs: noinline nounwind uwtable
define linkonce_odr dso_local dereferenceable(32) %"class.std::__cxx11::basic_string"* @_ZNKSt6vectorINSt7__cxx1112basic_stringIcSt11char_traitsIcESaIcEEESaIS5_EEixEm(%"class.std::vector"* %this, i64 %__n) #5 comdat align 2 !dbg !4083 {
entry:
  %this.addr = alloca %"class.std::vector"*, align 8
  %__n.addr = alloca i64, align 8
  store %"class.std::vector"* %this, %"class.std::vector"** %this.addr, align 8
  call void @llvm.dbg.declare(metadata %"class.std::vector"** %this.addr, metadata !4084, metadata !DIExpression()), !dbg !4085
  store i64 %__n, i64* %__n.addr, align 8
  call void @llvm.dbg.declare(metadata i64* %__n.addr, metadata !4086, metadata !DIExpression()), !dbg !4087
  %this1 = load %"class.std::vector"*, %"class.std::vector"** %this.addr, align 8
  %0 = bitcast %"class.std::vector"* %this1 to %"struct.std::_Vector_base"*, !dbg !4088
  %_M_impl = getelementptr inbounds %"struct.std::_Vector_base", %"struct.std::_Vector_base"* %0, i32 0, i32 0, !dbg !4088
  %1 = bitcast %"struct.std::_Vector_base<std::__cxx11::basic_string<char>, std::allocator<std::__cxx11::basic_string<char> > >::_Vector_impl"* %_M_impl to %"struct.std::_Vector_base<std::__cxx11::basic_string<char>, std::allocator<std::__cxx11::basic_string<char> > >::_Vector_impl_data"*, !dbg !4089
  %_M_start = getelementptr inbounds %"struct.std::_Vector_base<std::__cxx11::basic_string<char>, std::allocator<std::__cxx11::basic_string<char> > >::_Vector_impl_data", %"struct.std::_Vector_base<std::__cxx11::basic_string<char>, std::allocator<std::__cxx11::basic_string<char> > >::_Vector_impl_data"* %1, i32 0, i32 0, !dbg !4090
  %2 = load %"class.std::__cxx11::basic_string"*, %"class.std::__cxx11::basic_string"** %_M_start, align 8, !dbg !4090
  %3 = load i64, i64* %__n.addr, align 8, !dbg !4091
  %add.ptr = getelementptr inbounds %"class.std::__cxx11::basic_string", %"class.std::__cxx11::basic_string"* %2, i64 %3, !dbg !4092
  ret %"class.std::__cxx11::basic_string"* %add.ptr, !dbg !4093
}

declare dso_local void @_ZN14PatternMatcherC1EPKcbbb(%class.PatternMatcher*, i8*, i1 zeroext, i1 zeroext, i1 zeroext) unnamed_addr #1

declare dso_local zeroext i1 @_ZN14PatternMatcher7matchesEPKc(%class.PatternMatcher*, i8*) #1

; Function Attrs: nounwind
declare dso_local void @_ZN14PatternMatcherD1Ev(%class.PatternMatcher*) unnamed_addr #2

; Function Attrs: noinline nounwind uwtable
define linkonce_odr dso_local zeroext i1 @_ZN9__gnu_cxxneIPKNSt7__cxx1112basic_stringIcSt11char_traitsIcESaIcEEESt6vectorIS6_SaIS6_EEEEbRKNS_17__normal_iteratorIT_T0_EESH_(%"class.__gnu_cxx::__normal_iterator"* dereferenceable(8) %__lhs, %"class.__gnu_cxx::__normal_iterator"* dereferenceable(8) %__rhs) #5 comdat !dbg !4094 {
entry:
  %__lhs.addr = alloca %"class.__gnu_cxx::__normal_iterator"*, align 8
  %__rhs.addr = alloca %"class.__gnu_cxx::__normal_iterator"*, align 8
  store %"class.__gnu_cxx::__normal_iterator"* %__lhs, %"class.__gnu_cxx::__normal_iterator"** %__lhs.addr, align 8
  call void @llvm.dbg.declare(metadata %"class.__gnu_cxx::__normal_iterator"** %__lhs.addr, metadata !4098, metadata !DIExpression()), !dbg !4099
  store %"class.__gnu_cxx::__normal_iterator"* %__rhs, %"class.__gnu_cxx::__normal_iterator"** %__rhs.addr, align 8
  call void @llvm.dbg.declare(metadata %"class.__gnu_cxx::__normal_iterator"** %__rhs.addr, metadata !4100, metadata !DIExpression()), !dbg !4101
  %0 = load %"class.__gnu_cxx::__normal_iterator"*, %"class.__gnu_cxx::__normal_iterator"** %__lhs.addr, align 8, !dbg !4102
  %call = call dereferenceable(8) %"class.std::__cxx11::basic_string"** @_ZNK9__gnu_cxx17__normal_iteratorIPKNSt7__cxx1112basic_stringIcSt11char_traitsIcESaIcEEESt6vectorIS6_SaIS6_EEE4baseEv(%"class.__gnu_cxx::__normal_iterator"* %0) #3, !dbg !4103
  %1 = load %"class.std::__cxx11::basic_string"*, %"class.std::__cxx11::basic_string"** %call, align 8, !dbg !4103
  %2 = load %"class.__gnu_cxx::__normal_iterator"*, %"class.__gnu_cxx::__normal_iterator"** %__rhs.addr, align 8, !dbg !4104
  %call1 = call dereferenceable(8) %"class.std::__cxx11::basic_string"** @_ZNK9__gnu_cxx17__normal_iteratorIPKNSt7__cxx1112basic_stringIcSt11char_traitsIcESaIcEEESt6vectorIS6_SaIS6_EEE4baseEv(%"class.__gnu_cxx::__normal_iterator"* %2) #3, !dbg !4105
  %3 = load %"class.std::__cxx11::basic_string"*, %"class.std::__cxx11::basic_string"** %call1, align 8, !dbg !4105
  %cmp = icmp ne %"class.std::__cxx11::basic_string"* %1, %3, !dbg !4106
  ret i1 %cmp, !dbg !4107
}

; Function Attrs: noinline uwtable
define linkonce_odr dso_local %"class.std::__cxx11::basic_string"* @_ZSt4findIN9__gnu_cxx17__normal_iteratorIPKNSt7__cxx1112basic_stringIcSt11char_traitsIcESaIcEEESt6vectorIS7_SaIS7_EEEEPKcET_SG_SG_RKT0_(%"class.std::__cxx11::basic_string"* %__first.coerce, %"class.std::__cxx11::basic_string"* %__last.coerce, i8** dereferenceable(8) %__val) #0 comdat !dbg !4108 {
entry:
  %retval = alloca %"class.__gnu_cxx::__normal_iterator", align 8
  %__first = alloca %"class.__gnu_cxx::__normal_iterator", align 8
  %__last = alloca %"class.__gnu_cxx::__normal_iterator", align 8
  %__val.addr = alloca i8**, align 8
  %agg.tmp = alloca %"class.__gnu_cxx::__normal_iterator", align 8
  %agg.tmp2 = alloca %"class.__gnu_cxx::__normal_iterator", align 8
  %agg.tmp3 = alloca %"struct.__gnu_cxx::__ops::_Iter_equals_val", align 8
  %coerce.dive = getelementptr inbounds %"class.__gnu_cxx::__normal_iterator", %"class.__gnu_cxx::__normal_iterator"* %__first, i32 0, i32 0
  store %"class.std::__cxx11::basic_string"* %__first.coerce, %"class.std::__cxx11::basic_string"** %coerce.dive, align 8
  %coerce.dive1 = getelementptr inbounds %"class.__gnu_cxx::__normal_iterator", %"class.__gnu_cxx::__normal_iterator"* %__last, i32 0, i32 0
  store %"class.std::__cxx11::basic_string"* %__last.coerce, %"class.std::__cxx11::basic_string"** %coerce.dive1, align 8
  call void @llvm.dbg.declare(metadata %"class.__gnu_cxx::__normal_iterator"* %__first, metadata !4115, metadata !DIExpression()), !dbg !4116
  call void @llvm.dbg.declare(metadata %"class.__gnu_cxx::__normal_iterator"* %__last, metadata !4117, metadata !DIExpression()), !dbg !4118
  store i8** %__val, i8*** %__val.addr, align 8
  call void @llvm.dbg.declare(metadata i8*** %__val.addr, metadata !4119, metadata !DIExpression()), !dbg !4120
  %0 = bitcast %"class.__gnu_cxx::__normal_iterator"* %agg.tmp to i8*, !dbg !4121
  %1 = bitcast %"class.__gnu_cxx::__normal_iterator"* %__first to i8*, !dbg !4121
  call void @llvm.memcpy.p0i8.p0i8.i64(i8* align 8 %0, i8* align 8 %1, i64 8, i1 false), !dbg !4121
  %2 = bitcast %"class.__gnu_cxx::__normal_iterator"* %agg.tmp2 to i8*, !dbg !4122
  %3 = bitcast %"class.__gnu_cxx::__normal_iterator"* %__last to i8*, !dbg !4122
  call void @llvm.memcpy.p0i8.p0i8.i64(i8* align 8 %2, i8* align 8 %3, i64 8, i1 false), !dbg !4122
  %4 = load i8**, i8*** %__val.addr, align 8, !dbg !4123
  %call = call i8** @_ZN9__gnu_cxx5__ops17__iter_equals_valIKPKcEENS0_16_Iter_equals_valIT_EERS6_(i8** dereferenceable(8) %4), !dbg !4124
  %coerce.dive4 = getelementptr inbounds %"struct.__gnu_cxx::__ops::_Iter_equals_val", %"struct.__gnu_cxx::__ops::_Iter_equals_val"* %agg.tmp3, i32 0, i32 0, !dbg !4124
  store i8** %call, i8*** %coerce.dive4, align 8, !dbg !4124
  %coerce.dive5 = getelementptr inbounds %"class.__gnu_cxx::__normal_iterator", %"class.__gnu_cxx::__normal_iterator"* %agg.tmp, i32 0, i32 0, !dbg !4125
  %5 = load %"class.std::__cxx11::basic_string"*, %"class.std::__cxx11::basic_string"** %coerce.dive5, align 8, !dbg !4125
  %coerce.dive6 = getelementptr inbounds %"class.__gnu_cxx::__normal_iterator", %"class.__gnu_cxx::__normal_iterator"* %agg.tmp2, i32 0, i32 0, !dbg !4125
  %6 = load %"class.std::__cxx11::basic_string"*, %"class.std::__cxx11::basic_string"** %coerce.dive6, align 8, !dbg !4125
  %coerce.dive7 = getelementptr inbounds %"struct.__gnu_cxx::__ops::_Iter_equals_val", %"struct.__gnu_cxx::__ops::_Iter_equals_val"* %agg.tmp3, i32 0, i32 0, !dbg !4125
  %7 = load i8**, i8*** %coerce.dive7, align 8, !dbg !4125
  %call8 = call %"class.std::__cxx11::basic_string"* @_ZSt9__find_ifIN9__gnu_cxx17__normal_iteratorIPKNSt7__cxx1112basic_stringIcSt11char_traitsIcESaIcEEESt6vectorIS7_SaIS7_EEEENS0_5__ops16_Iter_equals_valIKPKcEEET_SK_SK_T0_(%"class.std::__cxx11::basic_string"* %5, %"class.std::__cxx11::basic_string"* %6, i8** %7), !dbg !4125
  %coerce.dive9 = getelementptr inbounds %"class.__gnu_cxx::__normal_iterator", %"class.__gnu_cxx::__normal_iterator"* %retval, i32 0, i32 0, !dbg !4125
  store %"class.std::__cxx11::basic_string"* %call8, %"class.std::__cxx11::basic_string"** %coerce.dive9, align 8, !dbg !4125
  %coerce.dive10 = getelementptr inbounds %"class.__gnu_cxx::__normal_iterator", %"class.__gnu_cxx::__normal_iterator"* %retval, i32 0, i32 0, !dbg !4126
  %8 = load %"class.std::__cxx11::basic_string"*, %"class.std::__cxx11::basic_string"** %coerce.dive10, align 8, !dbg !4126
  ret %"class.std::__cxx11::basic_string"* %8, !dbg !4126
}

; Function Attrs: noinline nounwind uwtable
define linkonce_odr dso_local %"class.std::__cxx11::basic_string"* @_ZNKSt6vectorINSt7__cxx1112basic_stringIcSt11char_traitsIcESaIcEEESaIS5_EE5beginEv(%"class.std::vector"* %this) #5 comdat align 2 !dbg !4127 {
entry:
  %retval = alloca %"class.__gnu_cxx::__normal_iterator", align 8
  %this.addr = alloca %"class.std::vector"*, align 8
  store %"class.std::vector"* %this, %"class.std::vector"** %this.addr, align 8
  call void @llvm.dbg.declare(metadata %"class.std::vector"** %this.addr, metadata !4128, metadata !DIExpression()), !dbg !4129
  %this1 = load %"class.std::vector"*, %"class.std::vector"** %this.addr, align 8
  %0 = bitcast %"class.std::vector"* %this1 to %"struct.std::_Vector_base"*, !dbg !4130
  %_M_impl = getelementptr inbounds %"struct.std::_Vector_base", %"struct.std::_Vector_base"* %0, i32 0, i32 0, !dbg !4130
  %1 = bitcast %"struct.std::_Vector_base<std::__cxx11::basic_string<char>, std::allocator<std::__cxx11::basic_string<char> > >::_Vector_impl"* %_M_impl to %"struct.std::_Vector_base<std::__cxx11::basic_string<char>, std::allocator<std::__cxx11::basic_string<char> > >::_Vector_impl_data"*, !dbg !4131
  %_M_start = getelementptr inbounds %"struct.std::_Vector_base<std::__cxx11::basic_string<char>, std::allocator<std::__cxx11::basic_string<char> > >::_Vector_impl_data", %"struct.std::_Vector_base<std::__cxx11::basic_string<char>, std::allocator<std::__cxx11::basic_string<char> > >::_Vector_impl_data"* %1, i32 0, i32 0, !dbg !4132
  call void @_ZN9__gnu_cxx17__normal_iteratorIPKNSt7__cxx1112basic_stringIcSt11char_traitsIcESaIcEEESt6vectorIS6_SaIS6_EEEC2ERKS8_(%"class.__gnu_cxx::__normal_iterator"* %retval, %"class.std::__cxx11::basic_string"** dereferenceable(8) %_M_start) #3, !dbg !4133
  %coerce.dive = getelementptr inbounds %"class.__gnu_cxx::__normal_iterator", %"class.__gnu_cxx::__normal_iterator"* %retval, i32 0, i32 0, !dbg !4134
  %2 = load %"class.std::__cxx11::basic_string"*, %"class.std::__cxx11::basic_string"** %coerce.dive, align 8, !dbg !4134
  ret %"class.std::__cxx11::basic_string"* %2, !dbg !4134
}

; Function Attrs: noinline nounwind uwtable
define linkonce_odr dso_local %"class.std::__cxx11::basic_string"* @_ZNKSt6vectorINSt7__cxx1112basic_stringIcSt11char_traitsIcESaIcEEESaIS5_EE3endEv(%"class.std::vector"* %this) #5 comdat align 2 !dbg !4135 {
entry:
  %retval = alloca %"class.__gnu_cxx::__normal_iterator", align 8
  %this.addr = alloca %"class.std::vector"*, align 8
  store %"class.std::vector"* %this, %"class.std::vector"** %this.addr, align 8
  call void @llvm.dbg.declare(metadata %"class.std::vector"** %this.addr, metadata !4136, metadata !DIExpression()), !dbg !4137
  %this1 = load %"class.std::vector"*, %"class.std::vector"** %this.addr, align 8
  %0 = bitcast %"class.std::vector"* %this1 to %"struct.std::_Vector_base"*, !dbg !4138
  %_M_impl = getelementptr inbounds %"struct.std::_Vector_base", %"struct.std::_Vector_base"* %0, i32 0, i32 0, !dbg !4138
  %1 = bitcast %"struct.std::_Vector_base<std::__cxx11::basic_string<char>, std::allocator<std::__cxx11::basic_string<char> > >::_Vector_impl"* %_M_impl to %"struct.std::_Vector_base<std::__cxx11::basic_string<char>, std::allocator<std::__cxx11::basic_string<char> > >::_Vector_impl_data"*, !dbg !4139
  %_M_finish = getelementptr inbounds %"struct.std::_Vector_base<std::__cxx11::basic_string<char>, std::allocator<std::__cxx11::basic_string<char> > >::_Vector_impl_data", %"struct.std::_Vector_base<std::__cxx11::basic_string<char>, std::allocator<std::__cxx11::basic_string<char> > >::_Vector_impl_data"* %1, i32 0, i32 1, !dbg !4140
  call void @_ZN9__gnu_cxx17__normal_iteratorIPKNSt7__cxx1112basic_stringIcSt11char_traitsIcESaIcEEESt6vectorIS6_SaIS6_EEEC2ERKS8_(%"class.__gnu_cxx::__normal_iterator"* %retval, %"class.std::__cxx11::basic_string"** dereferenceable(8) %_M_finish) #3, !dbg !4141
  %coerce.dive = getelementptr inbounds %"class.__gnu_cxx::__normal_iterator", %"class.__gnu_cxx::__normal_iterator"* %retval, i32 0, i32 0, !dbg !4142
  %2 = load %"class.std::__cxx11::basic_string"*, %"class.std::__cxx11::basic_string"** %coerce.dive, align 8, !dbg !4142
  ret %"class.std::__cxx11::basic_string"* %2, !dbg !4142
}

; Function Attrs: noinline nounwind uwtable
define linkonce_odr dso_local dereferenceable(8) %"class.std::__cxx11::basic_string"** @_ZNK9__gnu_cxx17__normal_iteratorIPKNSt7__cxx1112basic_stringIcSt11char_traitsIcESaIcEEESt6vectorIS6_SaIS6_EEE4baseEv(%"class.__gnu_cxx::__normal_iterator"* %this) #5 comdat align 2 !dbg !4143 {
entry:
  %this.addr = alloca %"class.__gnu_cxx::__normal_iterator"*, align 8
  store %"class.__gnu_cxx::__normal_iterator"* %this, %"class.__gnu_cxx::__normal_iterator"** %this.addr, align 8
  call void @llvm.dbg.declare(metadata %"class.__gnu_cxx::__normal_iterator"** %this.addr, metadata !4144, metadata !DIExpression()), !dbg !4146
  %this1 = load %"class.__gnu_cxx::__normal_iterator"*, %"class.__gnu_cxx::__normal_iterator"** %this.addr, align 8
  %_M_current = getelementptr inbounds %"class.__gnu_cxx::__normal_iterator", %"class.__gnu_cxx::__normal_iterator"* %this1, i32 0, i32 0, !dbg !4147
  ret %"class.std::__cxx11::basic_string"** %_M_current, !dbg !4148
}

; Function Attrs: noinline uwtable
define linkonce_odr dso_local %"class.std::__cxx11::basic_string"* @_ZSt9__find_ifIN9__gnu_cxx17__normal_iteratorIPKNSt7__cxx1112basic_stringIcSt11char_traitsIcESaIcEEESt6vectorIS7_SaIS7_EEEENS0_5__ops16_Iter_equals_valIKPKcEEET_SK_SK_T0_(%"class.std::__cxx11::basic_string"* %__first.coerce, %"class.std::__cxx11::basic_string"* %__last.coerce, i8** %__pred.coerce) #0 comdat !dbg !4149 {
entry:
  %retval = alloca %"class.__gnu_cxx::__normal_iterator", align 8
  %__first = alloca %"class.__gnu_cxx::__normal_iterator", align 8
  %__last = alloca %"class.__gnu_cxx::__normal_iterator", align 8
  %__pred = alloca %"struct.__gnu_cxx::__ops::_Iter_equals_val", align 8
  %agg.tmp = alloca %"class.__gnu_cxx::__normal_iterator", align 8
  %agg.tmp3 = alloca %"class.__gnu_cxx::__normal_iterator", align 8
  %agg.tmp4 = alloca %"struct.__gnu_cxx::__ops::_Iter_equals_val", align 8
  %agg.tmp5 = alloca %"struct.std::random_access_iterator_tag", align 1
  %undef.agg.tmp = alloca %"struct.std::random_access_iterator_tag", align 1
  %coerce.dive = getelementptr inbounds %"class.__gnu_cxx::__normal_iterator", %"class.__gnu_cxx::__normal_iterator"* %__first, i32 0, i32 0
  store %"class.std::__cxx11::basic_string"* %__first.coerce, %"class.std::__cxx11::basic_string"** %coerce.dive, align 8
  %coerce.dive1 = getelementptr inbounds %"class.__gnu_cxx::__normal_iterator", %"class.__gnu_cxx::__normal_iterator"* %__last, i32 0, i32 0
  store %"class.std::__cxx11::basic_string"* %__last.coerce, %"class.std::__cxx11::basic_string"** %coerce.dive1, align 8
  %coerce.dive2 = getelementptr inbounds %"struct.__gnu_cxx::__ops::_Iter_equals_val", %"struct.__gnu_cxx::__ops::_Iter_equals_val"* %__pred, i32 0, i32 0
  store i8** %__pred.coerce, i8*** %coerce.dive2, align 8
  call void @llvm.dbg.declare(metadata %"class.__gnu_cxx::__normal_iterator"* %__first, metadata !4156, metadata !DIExpression()), !dbg !4157
  call void @llvm.dbg.declare(metadata %"class.__gnu_cxx::__normal_iterator"* %__last, metadata !4158, metadata !DIExpression()), !dbg !4159
  call void @llvm.dbg.declare(metadata %"struct.__gnu_cxx::__ops::_Iter_equals_val"* %__pred, metadata !4160, metadata !DIExpression()), !dbg !4161
  %0 = bitcast %"class.__gnu_cxx::__normal_iterator"* %agg.tmp to i8*, !dbg !4162
  %1 = bitcast %"class.__gnu_cxx::__normal_iterator"* %__first to i8*, !dbg !4162
  call void @llvm.memcpy.p0i8.p0i8.i64(i8* align 8 %0, i8* align 8 %1, i64 8, i1 false), !dbg !4162
  %2 = bitcast %"class.__gnu_cxx::__normal_iterator"* %agg.tmp3 to i8*, !dbg !4163
  %3 = bitcast %"class.__gnu_cxx::__normal_iterator"* %__last to i8*, !dbg !4163
  call void @llvm.memcpy.p0i8.p0i8.i64(i8* align 8 %2, i8* align 8 %3, i64 8, i1 false), !dbg !4163
  %4 = bitcast %"struct.__gnu_cxx::__ops::_Iter_equals_val"* %agg.tmp4 to i8*, !dbg !4164
  %5 = bitcast %"struct.__gnu_cxx::__ops::_Iter_equals_val"* %__pred to i8*, !dbg !4164
  call void @llvm.memcpy.p0i8.p0i8.i64(i8* align 8 %4, i8* align 8 %5, i64 8, i1 false), !dbg !4164
  call void @_ZSt19__iterator_categoryIN9__gnu_cxx17__normal_iteratorIPKNSt7__cxx1112basic_stringIcSt11char_traitsIcESaIcEEESt6vectorIS7_SaIS7_EEEEENSt15iterator_traitsIT_E17iterator_categoryERKSF_(%"class.__gnu_cxx::__normal_iterator"* dereferenceable(8) %__first), !dbg !4165
  %coerce.dive6 = getelementptr inbounds %"class.__gnu_cxx::__normal_iterator", %"class.__gnu_cxx::__normal_iterator"* %agg.tmp, i32 0, i32 0, !dbg !4166
  %6 = load %"class.std::__cxx11::basic_string"*, %"class.std::__cxx11::basic_string"** %coerce.dive6, align 8, !dbg !4166
  %coerce.dive7 = getelementptr inbounds %"class.__gnu_cxx::__normal_iterator", %"class.__gnu_cxx::__normal_iterator"* %agg.tmp3, i32 0, i32 0, !dbg !4166
  %7 = load %"class.std::__cxx11::basic_string"*, %"class.std::__cxx11::basic_string"** %coerce.dive7, align 8, !dbg !4166
  %coerce.dive8 = getelementptr inbounds %"struct.__gnu_cxx::__ops::_Iter_equals_val", %"struct.__gnu_cxx::__ops::_Iter_equals_val"* %agg.tmp4, i32 0, i32 0, !dbg !4166
  %8 = load i8**, i8*** %coerce.dive8, align 8, !dbg !4166
  %call = call %"class.std::__cxx11::basic_string"* @_ZSt9__find_ifIN9__gnu_cxx17__normal_iteratorIPKNSt7__cxx1112basic_stringIcSt11char_traitsIcESaIcEEESt6vectorIS7_SaIS7_EEEENS0_5__ops16_Iter_equals_valIKPKcEEET_SK_SK_T0_St26random_access_iterator_tag(%"class.std::__cxx11::basic_string"* %6, %"class.std::__cxx11::basic_string"* %7, i8** %8), !dbg !4166
  %coerce.dive9 = getelementptr inbounds %"class.__gnu_cxx::__normal_iterator", %"class.__gnu_cxx::__normal_iterator"* %retval, i32 0, i32 0, !dbg !4166
  store %"class.std::__cxx11::basic_string"* %call, %"class.std::__cxx11::basic_string"** %coerce.dive9, align 8, !dbg !4166
  %coerce.dive10 = getelementptr inbounds %"class.__gnu_cxx::__normal_iterator", %"class.__gnu_cxx::__normal_iterator"* %retval, i32 0, i32 0, !dbg !4167
  %9 = load %"class.std::__cxx11::basic_string"*, %"class.std::__cxx11::basic_string"** %coerce.dive10, align 8, !dbg !4167
  ret %"class.std::__cxx11::basic_string"* %9, !dbg !4167
}

; Function Attrs: noinline uwtable
define linkonce_odr dso_local i8** @_ZN9__gnu_cxx5__ops17__iter_equals_valIKPKcEENS0_16_Iter_equals_valIT_EERS6_(i8** dereferenceable(8) %__val) #0 comdat !dbg !4168 {
entry:
  %retval = alloca %"struct.__gnu_cxx::__ops::_Iter_equals_val", align 8
  %__val.addr = alloca i8**, align 8
  store i8** %__val, i8*** %__val.addr, align 8
  call void @llvm.dbg.declare(metadata i8*** %__val.addr, metadata !4171, metadata !DIExpression()), !dbg !4172
  %0 = load i8**, i8*** %__val.addr, align 8, !dbg !4173
  call void @_ZN9__gnu_cxx5__ops16_Iter_equals_valIKPKcEC2ERS4_(%"struct.__gnu_cxx::__ops::_Iter_equals_val"* %retval, i8** dereferenceable(8) %0), !dbg !4174
  %coerce.dive = getelementptr inbounds %"struct.__gnu_cxx::__ops::_Iter_equals_val", %"struct.__gnu_cxx::__ops::_Iter_equals_val"* %retval, i32 0, i32 0, !dbg !4175
  %1 = load i8**, i8*** %coerce.dive, align 8, !dbg !4175
  ret i8** %1, !dbg !4175
}

; Function Attrs: noinline uwtable
define linkonce_odr dso_local %"class.std::__cxx11::basic_string"* @_ZSt9__find_ifIN9__gnu_cxx17__normal_iteratorIPKNSt7__cxx1112basic_stringIcSt11char_traitsIcESaIcEEESt6vectorIS7_SaIS7_EEEENS0_5__ops16_Iter_equals_valIKPKcEEET_SK_SK_T0_St26random_access_iterator_tag(%"class.std::__cxx11::basic_string"* %__first.coerce, %"class.std::__cxx11::basic_string"* %__last.coerce, i8** %__pred.coerce) #0 comdat !dbg !4176 {
entry:
  %retval = alloca %"class.__gnu_cxx::__normal_iterator", align 8
  %__first = alloca %"class.__gnu_cxx::__normal_iterator", align 8
  %__last = alloca %"class.__gnu_cxx::__normal_iterator", align 8
  %__pred = alloca %"struct.__gnu_cxx::__ops::_Iter_equals_val", align 8
  %0 = alloca %"struct.std::random_access_iterator_tag", align 1
  %__trip_count = alloca i64, align 8
  %agg.tmp = alloca %"class.__gnu_cxx::__normal_iterator", align 8
  %agg.tmp6 = alloca %"class.__gnu_cxx::__normal_iterator", align 8
  %agg.tmp12 = alloca %"class.__gnu_cxx::__normal_iterator", align 8
  %agg.tmp18 = alloca %"class.__gnu_cxx::__normal_iterator", align 8
  %agg.tmp25 = alloca %"class.__gnu_cxx::__normal_iterator", align 8
  %agg.tmp32 = alloca %"class.__gnu_cxx::__normal_iterator", align 8
  %agg.tmp39 = alloca %"class.__gnu_cxx::__normal_iterator", align 8
  %coerce.dive = getelementptr inbounds %"class.__gnu_cxx::__normal_iterator", %"class.__gnu_cxx::__normal_iterator"* %__first, i32 0, i32 0
  store %"class.std::__cxx11::basic_string"* %__first.coerce, %"class.std::__cxx11::basic_string"** %coerce.dive, align 8
  %coerce.dive1 = getelementptr inbounds %"class.__gnu_cxx::__normal_iterator", %"class.__gnu_cxx::__normal_iterator"* %__last, i32 0, i32 0
  store %"class.std::__cxx11::basic_string"* %__last.coerce, %"class.std::__cxx11::basic_string"** %coerce.dive1, align 8
  %coerce.dive2 = getelementptr inbounds %"struct.__gnu_cxx::__ops::_Iter_equals_val", %"struct.__gnu_cxx::__ops::_Iter_equals_val"* %__pred, i32 0, i32 0
  store i8** %__pred.coerce, i8*** %coerce.dive2, align 8
  call void @llvm.dbg.declare(metadata %"class.__gnu_cxx::__normal_iterator"* %__first, metadata !4191, metadata !DIExpression()), !dbg !4192
  call void @llvm.dbg.declare(metadata %"class.__gnu_cxx::__normal_iterator"* %__last, metadata !4193, metadata !DIExpression()), !dbg !4194
  call void @llvm.dbg.declare(metadata %"struct.__gnu_cxx::__ops::_Iter_equals_val"* %__pred, metadata !4195, metadata !DIExpression()), !dbg !4196
  call void @llvm.dbg.declare(metadata %"struct.std::random_access_iterator_tag"* %0, metadata !4197, metadata !DIExpression()), !dbg !4198
  call void @llvm.dbg.declare(metadata i64* %__trip_count, metadata !4199, metadata !DIExpression()), !dbg !4204
  %call = call i64 @_ZN9__gnu_cxxmiIPKNSt7__cxx1112basic_stringIcSt11char_traitsIcESaIcEEESt6vectorIS6_SaIS6_EEEENS_17__normal_iteratorIT_T0_E15difference_typeERKSF_SI_(%"class.__gnu_cxx::__normal_iterator"* dereferenceable(8) %__last, %"class.__gnu_cxx::__normal_iterator"* dereferenceable(8) %__first) #3, !dbg !4205
  %shr = ashr i64 %call, 2, !dbg !4206
  store i64 %shr, i64* %__trip_count, align 8, !dbg !4204
  br label %for.cond, !dbg !4207

for.cond:                                         ; preds = %for.inc, %entry
  %1 = load i64, i64* %__trip_count, align 8, !dbg !4208
  %cmp = icmp sgt i64 %1, 0, !dbg !4211
  br i1 %cmp, label %for.body, label %for.end, !dbg !4212

for.body:                                         ; preds = %for.cond
  %2 = bitcast %"class.__gnu_cxx::__normal_iterator"* %agg.tmp to i8*, !dbg !4213
  %3 = bitcast %"class.__gnu_cxx::__normal_iterator"* %__first to i8*, !dbg !4213
  call void @llvm.memcpy.p0i8.p0i8.i64(i8* align 8 %2, i8* align 8 %3, i64 8, i1 false), !dbg !4213
  %coerce.dive3 = getelementptr inbounds %"class.__gnu_cxx::__normal_iterator", %"class.__gnu_cxx::__normal_iterator"* %agg.tmp, i32 0, i32 0, !dbg !4216
  %4 = load %"class.std::__cxx11::basic_string"*, %"class.std::__cxx11::basic_string"** %coerce.dive3, align 8, !dbg !4216
  %call4 = call zeroext i1 @_ZN9__gnu_cxx5__ops16_Iter_equals_valIKPKcEclINS_17__normal_iteratorIPKNSt7__cxx1112basic_stringIcSt11char_traitsIcESaIcEEESt6vectorISD_SaISD_EEEEEEbT_(%"struct.__gnu_cxx::__ops::_Iter_equals_val"* %__pred, %"class.std::__cxx11::basic_string"* %4), !dbg !4216
  br i1 %call4, label %if.then, label %if.end, !dbg !4217

if.then:                                          ; preds = %for.body
  %5 = bitcast %"class.__gnu_cxx::__normal_iterator"* %retval to i8*, !dbg !4218
  %6 = bitcast %"class.__gnu_cxx::__normal_iterator"* %__first to i8*, !dbg !4218
  call void @llvm.memcpy.p0i8.p0i8.i64(i8* align 8 %5, i8* align 8 %6, i64 8, i1 false), !dbg !4218
  br label %return, !dbg !4219

if.end:                                           ; preds = %for.body
  %call5 = call dereferenceable(8) %"class.__gnu_cxx::__normal_iterator"* @_ZN9__gnu_cxx17__normal_iteratorIPKNSt7__cxx1112basic_stringIcSt11char_traitsIcESaIcEEESt6vectorIS6_SaIS6_EEEppEv(%"class.__gnu_cxx::__normal_iterator"* %__first) #3, !dbg !4220
  %7 = bitcast %"class.__gnu_cxx::__normal_iterator"* %agg.tmp6 to i8*, !dbg !4221
  %8 = bitcast %"class.__gnu_cxx::__normal_iterator"* %__first to i8*, !dbg !4221
  call void @llvm.memcpy.p0i8.p0i8.i64(i8* align 8 %7, i8* align 8 %8, i64 8, i1 false), !dbg !4221
  %coerce.dive7 = getelementptr inbounds %"class.__gnu_cxx::__normal_iterator", %"class.__gnu_cxx::__normal_iterator"* %agg.tmp6, i32 0, i32 0, !dbg !4223
  %9 = load %"class.std::__cxx11::basic_string"*, %"class.std::__cxx11::basic_string"** %coerce.dive7, align 8, !dbg !4223
