; ModuleID = 'XalanDOMStringCache.cpp'
source_filename = "XalanDOMStringCache.cpp"
target datalayout = "e-m:e-p270:32:32-p271:32:32-p272:64:64-i64:64-f80:128-n8:16:32:64-S128"
target triple = "x86_64-unknown-linux-gnu"

%"class.xalanc_1_10::XalanDOMStringCache" = type { %"class.xalanc_1_10::XalanVector", %"class.xalanc_1_10::XalanVector", i32, [4 x i8], %"class.xalanc_1_10::XalanDOMStringReusableAllocator" }
%"class.xalanc_1_10::XalanVector" = type { %"class.xercesc_2_7::MemoryManager"*, i64, i64, %"class.xalanc_1_10::XalanDOMString"** }
%"class.xalanc_1_10::XalanDOMString" = type <{ %"class.xalanc_1_10::XalanVector.0", i32, [4 x i8] }>
%"class.xalanc_1_10::XalanVector.0" = type { %"class.xercesc_2_7::MemoryManager"*, i64, i64, i16* }
%"class.xalanc_1_10::XalanDOMStringReusableAllocator" = type { %"class.xalanc_1_10::ReusableArenaAllocator" }
%"class.xalanc_1_10::ReusableArenaAllocator" = type <{ %"class.xalanc_1_10::ArenaAllocator", i8, [7 x i8] }>
%"class.xalanc_1_10::ArenaAllocator" = type { i32 (...)**, i16, %"class.xalanc_1_10::XalanList" }
%"class.xalanc_1_10::XalanList" = type { %"class.xercesc_2_7::MemoryManager"*, %"struct.xalanc_1_10::XalanList<xalanc_1_10::ReusableArenaBlock<xalanc_1_10::XalanDOMString, unsigned short> *>::Node"*, %"struct.xalanc_1_10::XalanList<xalanc_1_10::ReusableArenaBlock<xalanc_1_10::XalanDOMString, unsigned short> *>::Node"* }
%"struct.xalanc_1_10::XalanList<xalanc_1_10::ReusableArenaBlock<xalanc_1_10::XalanDOMString, unsigned short> *>::Node" = type { %"class.xalanc_1_10::ReusableArenaBlock"*, %"struct.xalanc_1_10::XalanList<xalanc_1_10::ReusableArenaBlock<xalanc_1_10::XalanDOMString, unsigned short> *>::Node"*, %"struct.xalanc_1_10::XalanList<xalanc_1_10::ReusableArenaBlock<xalanc_1_10::XalanDOMString, unsigned short> *>::Node"* }
%"class.xalanc_1_10::ReusableArenaBlock" = type <{ %"class.xalanc_1_10::ArenaBlockBase", i16, i16, [4 x i8] }>
%"class.xalanc_1_10::ArenaBlockBase" = type { %"class.xalanc_1_10::XalanAllocator", i16, i16, %"class.xalanc_1_10::XalanDOMString"* }
%"class.xalanc_1_10::XalanAllocator" = type { %"class.xercesc_2_7::MemoryManager"* }
%"class.xercesc_2_7::MemoryManager" = type { i32 (...)** }
%"struct.__gnu_cxx::__ops::_Iter_equals_val" = type { %"class.xalanc_1_10::XalanDOMString"** }
%"struct.xalanc_1_10::XalanListIteratorBase" = type { %"struct.xalanc_1_10::XalanList<xalanc_1_10::ReusableArenaBlock<xalanc_1_10::XalanDOMString, unsigned short> *>::Node"* }
%"class.std::reverse_iterator" = type { %"struct.xalanc_1_10::XalanListIteratorBase" }
%"struct.xalanc_1_10::XalanListIteratorBase.1" = type { %"struct.xalanc_1_10::XalanList<xalanc_1_10::ReusableArenaBlock<xalanc_1_10::XalanDOMString, unsigned short> *>::Node"* }
%"struct.xalanc_1_10::ReusableArenaBlock<xalanc_1_10::XalanDOMString, unsigned short>::NextBlock" = type { i16, i32 }
%"struct.std::less" = type { i8 }
%"struct.std::iterator" = type { i8 }
%"struct.xalanc_1_10::DeleteFunctor" = type { %"class.xercesc_2_7::MemoryManager"* }
%"struct.std::unary_function" = type { i8 }
%"struct.xalanc_1_10::XalanDestroyFunctor" = type { i8 }
%"struct.std::random_access_iterator_tag" = type { i8 }

$_ZN11xalanc_1_1011XalanVectorIPNS_14XalanDOMStringENS_31MemoryManagedConstructionTraitsIS2_EEEC2ERN11xercesc_2_713MemoryManagerEm = comdat any

$_ZN11xalanc_1_1011XalanVectorIPNS_14XalanDOMStringENS_31MemoryManagedConstructionTraitsIS2_EEED2Ev = comdat any

$__clang_call_terminate = comdat any

$_ZNK11xalanc_1_1011XalanVectorIPNS_14XalanDOMStringENS_31MemoryManagedConstructionTraitsIS2_EEE5emptyEv = comdat any

$_ZN11xalanc_1_1011XalanVectorIPNS_14XalanDOMStringENS_31MemoryManagedConstructionTraitsIS2_EEE9push_backERKS2_ = comdat any

$_ZN11xalanc_1_1011XalanVectorIPNS_14XalanDOMStringENS_31MemoryManagedConstructionTraitsIS2_EEE4backEv = comdat any

$_ZN11xalanc_1_1011XalanVectorIPNS_14XalanDOMStringENS_31MemoryManagedConstructionTraitsIS2_EEE8pop_backEv = comdat any

$_ZSt4findIPPN11xalanc_1_1014XalanDOMStringES2_ET_S4_S4_RKT0_ = comdat any

$_ZN11xalanc_1_1011XalanVectorIPNS_14XalanDOMStringENS_31MemoryManagedConstructionTraitsIS2_EEE5beginEv = comdat any

$_ZN11xalanc_1_1011XalanVectorIPNS_14XalanDOMStringENS_31MemoryManagedConstructionTraitsIS2_EEE3endEv = comdat any

$_ZNK11xalanc_1_1011XalanVectorIPNS_14XalanDOMStringENS_31MemoryManagedConstructionTraitsIS2_EEE4sizeEv = comdat any

$_ZN11xalanc_1_1031XalanDOMStringReusableAllocator7destroyERNS_14XalanDOMStringE = comdat any

$_ZN11xalanc_1_1011XalanVectorIPNS_14XalanDOMStringENS_31MemoryManagedConstructionTraitsIS2_EEE5eraseEPS2_ = comdat any

$_ZN11xalanc_1_1011XalanVectorIPNS_14XalanDOMStringENS_31MemoryManagedConstructionTraitsIS2_EEE5clearEv = comdat any

$_ZN11xalanc_1_1031XalanDOMStringReusableAllocator5resetEv = comdat any

$_ZN11xalanc_1_1014XalanDOMString5clearEv = comdat any

$_ZN11xalanc_1_1022ReusableArenaAllocatorINS_14XalanDOMStringEE13destroyObjectEPS1_ = comdat any

$_ZNK11xalanc_1_109XalanListIPNS_18ReusableArenaBlockINS_14XalanDOMStringEtEEE5emptyEv = comdat any

$_ZN11xalanc_1_109XalanListIPNS_18ReusableArenaBlockINS_14XalanDOMStringEtEEE5beginEv = comdat any

$_ZN11xalanc_1_109XalanListIPNS_18ReusableArenaBlockINS_14XalanDOMStringEtEEE3endEv = comdat any

$_ZNK11xalanc_1_1021XalanListIteratorBaseINS_23XalanListIteratorTraitsIPNS_18ReusableArenaBlockINS_14XalanDOMStringEtEEEENS_9XalanListIS5_E4NodeEEneERKSA_ = comdat any

$_ZNK11xalanc_1_1021XalanListIteratorBaseINS_23XalanListIteratorTraitsIPNS_18ReusableArenaBlockINS_14XalanDOMStringEtEEEENS_9XalanListIS5_E4NodeEEdeEv = comdat any

$_ZNK11xalanc_1_1014ArenaBlockBaseINS_14XalanDOMStringEtE14blockAvailableEv = comdat any

$_ZNK11xalanc_1_1014ArenaBlockBaseINS_14XalanDOMStringEtE9ownsBlockEPKS1_ = comdat any

$_ZN11xalanc_1_1018ReusableArenaBlockINS_14XalanDOMStringEtE13destroyObjectEPS1_ = comdat any

$_ZN11xalanc_1_109XalanListIPNS_18ReusableArenaBlockINS_14XalanDOMStringEtEEE5eraseENS_21XalanListIteratorBaseINS_23XalanListIteratorTraitsIS4_EENS5_4NodeEEE = comdat any

$_ZN11xalanc_1_1021XalanListIteratorBaseINS_23XalanListIteratorTraitsIPNS_18ReusableArenaBlockINS_14XalanDOMStringEtEEEENS_9XalanListIS5_E4NodeEEC2ERKSA_ = comdat any

$_ZN11xalanc_1_109XalanListIPNS_18ReusableArenaBlockINS_14XalanDOMStringEtEEE10push_frontERKS4_ = comdat any

$_ZN11xalanc_1_1022ReusableArenaAllocatorINS_14XalanDOMStringEE12destroyBlockEv = comdat any

$_ZN11xalanc_1_1021XalanListIteratorBaseINS_23XalanListIteratorTraitsIPNS_18ReusableArenaBlockINS_14XalanDOMStringEtEEEENS_9XalanListIS5_E4NodeEEppEv = comdat any

$_ZN11xalanc_1_109XalanListIPNS_18ReusableArenaBlockINS_14XalanDOMStringEtEEE6rbeginEv = comdat any

$_ZN11xalanc_1_109XalanListIPNS_18ReusableArenaBlockINS_14XalanDOMStringEtEEE4rendEv = comdat any

$_ZStneIN11xalanc_1_1021XalanListIteratorBaseINS0_23XalanListIteratorTraitsIPNS0_18ReusableArenaBlockINS0_14XalanDOMStringEtEEEENS0_9XalanListIS6_E4NodeEEEEbRKSt16reverse_iteratorIT_ESG_ = comdat any

$_ZNKSt16reverse_iteratorIN11xalanc_1_1021XalanListIteratorBaseINS0_23XalanListIteratorTraitsIPNS0_18ReusableArenaBlockINS0_14XalanDOMStringEtEEEENS0_9XalanListIS6_E4NodeEEEEdeEv = comdat any

$_ZNSt16reverse_iteratorIN11xalanc_1_1021XalanListIteratorBaseINS0_23XalanListIteratorTraitsIPNS0_18ReusableArenaBlockINS0_14XalanDOMStringEtEEEENS0_9XalanListIS6_E4NodeEEEEppEv = comdat any

$_ZNK11xalanc_1_109XalanListIPNS_18ReusableArenaBlockINS_14XalanDOMStringEtEEE5beginEv = comdat any

$_ZNK11xalanc_1_1021XalanListIteratorBaseINS_28XalanListConstIteratorTraitsIPNS_18ReusableArenaBlockINS_14XalanDOMStringEtEEEENS_9XalanListIS5_E4NodeEEeqERKSA_ = comdat any

$_ZNK11xalanc_1_109XalanListIPNS_18ReusableArenaBlockINS_14XalanDOMStringEtEEE3endEv = comdat any

$_ZNK11xalanc_1_109XalanListIPNS_18ReusableArenaBlockINS_14XalanDOMStringEtEEE11getListHeadEv = comdat any

$_ZN11xalanc_1_1021XalanListIteratorBaseINS_28XalanListConstIteratorTraitsIPNS_18ReusableArenaBlockINS_14XalanDOMStringEtEEEENS_9XalanListIS5_E4NodeEEC2ERS9_ = comdat any

$_ZN11xalanc_1_109XalanListIPNS_18ReusableArenaBlockINS_14XalanDOMStringEtEEE11getListHeadEv = comdat any

$_ZN11xalanc_1_109XalanListIPNS_18ReusableArenaBlockINS_14XalanDOMStringEtEEE8allocateEm = comdat any

$_ZN11xalanc_1_1021XalanListIteratorBaseINS_23XalanListIteratorTraitsIPNS_18ReusableArenaBlockINS_14XalanDOMStringEtEEEENS_9XalanListIS5_E4NodeEEC2ERS9_ = comdat any

$_ZNK11xalanc_1_1021XalanListIteratorBaseINS_23XalanListIteratorTraitsIPNS_18ReusableArenaBlockINS_14XalanDOMStringEtEEEENS_9XalanListIS5_E4NodeEEeqERKSA_ = comdat any

$_ZNK11xalanc_1_1014ArenaBlockBaseINS_14XalanDOMStringEtE11isInBordersEPKS1_t = comdat any

$_ZNKSt4lessIPKN11xalanc_1_1014XalanDOMStringEEclES3_S3_ = comdat any

$_ZN11xalanc_1_1018ReusableArenaBlockINS_14XalanDOMStringEtE9NextBlockC2Et = comdat any

$_ZN11xalanc_1_1012XalanDestroyINS_14XalanDOMStringEEEvRT_ = comdat any

$_ZN11xalanc_1_1014XalanDOMStringD2Ev = comdat any

$_ZN11xalanc_1_1011XalanVectorItNS_31MemoryManagedConstructionTraitsItEEED2Ev = comdat any

$_ZNK11xalanc_1_1011XalanVectorItNS_31MemoryManagedConstructionTraitsItEEE10invariantsEv = comdat any

$_ZN11xalanc_1_1011XalanVectorItNS_31MemoryManagedConstructionTraitsItEEE7destroyEPtS4_ = comdat any

$_ZN11xalanc_1_1011XalanVectorItNS_31MemoryManagedConstructionTraitsItEEE5beginEv = comdat any

$_ZN11xalanc_1_1011XalanVectorItNS_31MemoryManagedConstructionTraitsItEEE3endEv = comdat any

$_ZN11xalanc_1_1011XalanVectorItNS_31MemoryManagedConstructionTraitsItEEE10deallocateEPt = comdat any

$_ZN11xalanc_1_1011XalanVectorItNS_31MemoryManagedConstructionTraitsItEEE7destroyERt = comdat any

$_ZN11xalanc_1_1011XalanVectorItNS_31MemoryManagedConstructionTraitsItEEE10endPointerEv = comdat any

$_ZN11xalanc_1_109XalanListIPNS_18ReusableArenaBlockINS_14XalanDOMStringEtEEE8freeNodeERNS5_4NodeE = comdat any

$_ZN11xalanc_1_1021XalanListIteratorBaseINS_23XalanListIteratorTraitsIPNS_18ReusableArenaBlockINS_14XalanDOMStringEtEEEENS_9XalanListIS5_E4NodeEE4nodeEv = comdat any

$_ZN11xalanc_1_109XalanListIPNS_18ReusableArenaBlockINS_14XalanDOMStringEtEEE13constructNodeERKS4_NS_21XalanListIteratorBaseINS_23XalanListIteratorTraitsIS4_EENS5_4NodeEEE = comdat any

$_ZN11xalanc_1_1028ConstructWithNoMemoryManagerIPNS_18ReusableArenaBlockINS_14XalanDOMStringEtEEE9constructEPS4_RKS4_RN11xercesc_2_713MemoryManagerE = comdat any

$_ZN11xalanc_1_1021XalanListIteratorBaseINS_28XalanListConstIteratorTraitsIPNS_18ReusableArenaBlockINS_14XalanDOMStringEtEEEENS_9XalanListIS5_E4NodeEEC2ERKNS0_INS_23XalanListIteratorTraitsIS5_EES9_EE = comdat any

$_ZNK11xalanc_1_1021XalanListIteratorBaseINS_28XalanListConstIteratorTraitsIPNS_18ReusableArenaBlockINS_14XalanDOMStringEtEEEENS_9XalanListIS5_E4NodeEEdeEv = comdat any

$_ZNK11xalanc_1_1014ArenaBlockBaseINS_14XalanDOMStringEtE7isEmptyEv = comdat any

$_ZN11xalanc_1_1021XalanListIteratorBaseINS_28XalanListConstIteratorTraitsIPNS_18ReusableArenaBlockINS_14XalanDOMStringEtEEEENS_9XalanListIS5_E4NodeEEppEv = comdat any

$_ZN11xalanc_1_109XalanListIPNS_18ReusableArenaBlockINS_14XalanDOMStringEtEEE9pop_frontEv = comdat any

$_ZNSt16reverse_iteratorIN11xalanc_1_1021XalanListIteratorBaseINS0_23XalanListIteratorTraitsIPNS0_18ReusableArenaBlockINS0_14XalanDOMStringEtEEEENS0_9XalanListIS6_E4NodeEEEEC2ESB_ = comdat any

$_ZSteqIN11xalanc_1_1021XalanListIteratorBaseINS0_23XalanListIteratorTraitsIPNS0_18ReusableArenaBlockINS0_14XalanDOMStringEtEEEENS0_9XalanListIS6_E4NodeEEEEbRKSt16reverse_iteratorIT_ESG_ = comdat any

$_ZNKSt16reverse_iteratorIN11xalanc_1_1021XalanListIteratorBaseINS0_23XalanListIteratorTraitsIPNS0_18ReusableArenaBlockINS0_14XalanDOMStringEtEEEENS0_9XalanListIS6_E4NodeEEEE4baseEv = comdat any

$_ZN11xalanc_1_1021XalanListIteratorBaseINS_23XalanListIteratorTraitsIPNS_18ReusableArenaBlockINS_14XalanDOMStringEtEEEENS_9XalanListIS5_E4NodeEEmmEv = comdat any

$_ZN11xalanc_1_1014ArenaAllocatorINS_14XalanDOMStringENS_18ReusableArenaBlockIS1_tEEE5resetEv = comdat any

$_ZSt8for_eachIN11xalanc_1_1021XalanListIteratorBaseINS0_23XalanListIteratorTraitsIPNS0_18ReusableArenaBlockINS0_14XalanDOMStringEtEEEENS0_9XalanListIS6_E4NodeEEENS0_13DeleteFunctorIS5_EEET0_T_SF_SE_ = comdat any

$_ZN11xalanc_1_109XalanListIPNS_18ReusableArenaBlockINS_14XalanDOMStringEtEEE16getMemoryManagerEv = comdat any

$_ZN11xalanc_1_1013DeleteFunctorINS_18ReusableArenaBlockINS_14XalanDOMStringEtEEEC2ERN11xercesc_2_713MemoryManagerE = comdat any

$_ZN11xalanc_1_109XalanListIPNS_18ReusableArenaBlockINS_14XalanDOMStringEtEEE5clearEv = comdat any

$_ZNK11xalanc_1_1013DeleteFunctorINS_18ReusableArenaBlockINS_14XalanDOMStringEtEEEclEPKS3_ = comdat any

$_ZN11xalanc_1_1023makeXalanDestroyFunctorINS_18ReusableArenaBlockINS_14XalanDOMStringEtEEEENS_19XalanDestroyFunctorIT_EEPKS5_ = comdat any

$_ZN11xalanc_1_1019XalanDestroyFunctorINS_18ReusableArenaBlockINS_14XalanDOMStringEtEEEclEPKS3_RN11xercesc_2_713MemoryManagerE = comdat any

$_ZN11xalanc_1_1019XalanDestroyFunctorINS_18ReusableArenaBlockINS_14XalanDOMStringEtEEEclEPS3_RN11xercesc_2_713MemoryManagerE = comdat any

$_ZN11xalanc_1_1019XalanDestroyFunctorINS_18ReusableArenaBlockINS_14XalanDOMStringEtEEEclERS3_ = comdat any

$_ZN11xalanc_1_1018ReusableArenaBlockINS_14XalanDOMStringEtED2Ev = comdat any

$_ZN11xalanc_1_1018ReusableArenaBlockINS_14XalanDOMStringEtE9NextBlock4castEPv = comdat any

$_ZNK11xalanc_1_1018ReusableArenaBlockINS_14XalanDOMStringEtE15isOccupiedBlockEPKNS2_9NextBlockE = comdat any

$_ZN11xalanc_1_1014ArenaBlockBaseINS_14XalanDOMStringEtED2Ev = comdat any

$_ZNK11xalanc_1_1018ReusableArenaBlockINS_14XalanDOMStringEtE9NextBlock10isValidForEt = comdat any

$_ZN11xalanc_1_1014XalanAllocatorINS_14XalanDOMStringEE10deallocateEPS1_m = comdat any

$_ZN11xalanc_1_1014XalanAllocatorINS_14XalanDOMStringEED2Ev = comdat any

$_ZN11xalanc_1_1021XalanListIteratorBaseINS_23XalanListIteratorTraitsIPNS_18ReusableArenaBlockINS_14XalanDOMStringEtEEEENS_9XalanListIS5_E4NodeEEppEi = comdat any

$_ZNK11xalanc_1_1014XalanDOMString10invariantsEv = comdat any

$_ZN11xalanc_1_1011XalanVectorItNS_31MemoryManagedConstructionTraitsItEEE5eraseEPtS4_ = comdat any

$_ZSt4copyIPtS0_ET0_T_S2_S1_ = comdat any

$_ZN11xalanc_1_1011XalanVectorItNS_31MemoryManagedConstructionTraitsItEEE11shrinkCountEm = comdat any

$_ZN11xalanc_1_1011XalanVectorItNS_31MemoryManagedConstructionTraitsItEEE14local_distanceEPKtS5_ = comdat any

$_ZSt13__copy_move_aILb0EPtS0_ET1_T0_S2_S1_ = comdat any

$_ZSt12__miter_baseIPtET_S1_ = comdat any

$_ZSt12__niter_wrapIPtET_RKS1_S1_ = comdat any

$_ZSt14__copy_move_a1ILb0EPtS0_ET1_T0_S2_S1_ = comdat any

$_ZSt12__niter_baseIPtET_S1_ = comdat any

$_ZSt14__copy_move_a2ILb0EPtS0_ET1_T0_S2_S1_ = comdat any

$_ZNSt11__copy_moveILb0ELb1ESt26random_access_iterator_tagE8__copy_mItEEPT_PKS3_S6_S4_ = comdat any

$_ZN11xalanc_1_1011XalanVectorItNS_31MemoryManagedConstructionTraitsItEEE8pop_backEv = comdat any

$_ZSt8distanceIPKtENSt15iterator_traitsIT_E15difference_typeES3_S3_ = comdat any

$_ZSt10__distanceIPKtENSt15iterator_traitsIT_E15difference_typeES3_S3_St26random_access_iterator_tag = comdat any

$_ZSt19__iterator_categoryIPKtENSt15iterator_traitsIT_E17iterator_categoryERKS3_ = comdat any

$_ZN11xalanc_1_1011XalanVectorIPNS_14XalanDOMStringENS_31MemoryManagedConstructionTraitsIS2_EEE8allocateEm = comdat any

$_ZNK11xalanc_1_1011XalanVectorIPNS_14XalanDOMStringENS_31MemoryManagedConstructionTraitsIS2_EEE10invariantsEv = comdat any

$_ZN11xalanc_1_1011XalanVectorIPNS_14XalanDOMStringENS_31MemoryManagedConstructionTraitsIS2_EEE7destroyEPS2_S6_ = comdat any

$_ZN11xalanc_1_1011XalanVectorIPNS_14XalanDOMStringENS_31MemoryManagedConstructionTraitsIS2_EEE10deallocateEPS2_ = comdat any

$_ZN11xalanc_1_1011XalanVectorIPNS_14XalanDOMStringENS_31MemoryManagedConstructionTraitsIS2_EEE7destroyERS2_ = comdat any

$_ZN11xalanc_1_1011XalanVectorIPNS_14XalanDOMStringENS_31MemoryManagedConstructionTraitsIS2_EEE10doPushBackERKS2_ = comdat any

$_ZN11xalanc_1_1028ConstructWithNoMemoryManagerIPNS_14XalanDOMStringEE9constructEPS2_RKS2_RN11xercesc_2_713MemoryManagerE = comdat any

$_ZN11xalanc_1_1011XalanVectorIPNS_14XalanDOMStringENS_31MemoryManagedConstructionTraitsIS2_EEE10endPointerEv = comdat any

$_ZN11xalanc_1_1011XalanVectorIPNS_14XalanDOMStringENS_31MemoryManagedConstructionTraitsIS2_EEEC2ERKS5_RN11xercesc_2_713MemoryManagerEm = comdat any

$_ZN11xalanc_1_1011XalanVectorIPNS_14XalanDOMStringENS_31MemoryManagedConstructionTraitsIS2_EEE4swapERS5_ = comdat any

$_ZN11xalanc_1_1011XalanVectorIPNS_14XalanDOMStringENS_31MemoryManagedConstructionTraitsIS2_EEE9local_maxEmm = comdat any

$_ZN11xalanc_1_1011XalanVectorIPNS_14XalanDOMStringENS_31MemoryManagedConstructionTraitsIS2_EEE6insertEPS2_PKS2_S8_ = comdat any

$_ZNK11xalanc_1_1011XalanVectorIPNS_14XalanDOMStringENS_31MemoryManagedConstructionTraitsIS2_EEE5beginEv = comdat any

$_ZNK11xalanc_1_1011XalanVectorIPNS_14XalanDOMStringENS_31MemoryManagedConstructionTraitsIS2_EEE3endEv = comdat any

$_ZN11xalanc_1_1011XalanVectorIPNS_14XalanDOMStringENS_31MemoryManagedConstructionTraitsIS2_EEE14local_distanceEPKS2_S7_ = comdat any

$_ZN11xalanc_1_1011XalanVectorIPNS_14XalanDOMStringENS_31MemoryManagedConstructionTraitsIS2_EEE14ensureCapacityEm = comdat any

$_ZNK11xalanc_1_1011XalanVectorIPNS_14XalanDOMStringENS_31MemoryManagedConstructionTraitsIS2_EEE8capacityEv = comdat any

$_ZSt4copyIPKPN11xalanc_1_1014XalanDOMStringEPS2_ET0_T_S7_S6_ = comdat any

$_ZSt13copy_backwardIPPN11xalanc_1_1014XalanDOMStringES3_ET0_T_S5_S4_ = comdat any

$_ZSt8distanceIPKPN11xalanc_1_1014XalanDOMStringEENSt15iterator_traitsIT_E15difference_typeES6_S6_ = comdat any

$_ZSt10__distanceIPKPN11xalanc_1_1014XalanDOMStringEENSt15iterator_traitsIT_E15difference_typeES6_S6_St26random_access_iterator_tag = comdat any

$_ZSt19__iterator_categoryIPKPN11xalanc_1_1014XalanDOMStringEENSt15iterator_traitsIT_E17iterator_categoryERKS6_ = comdat any

$_ZN11xalanc_1_1011XalanVectorIPNS_14XalanDOMStringENS_31MemoryManagedConstructionTraitsIS2_EEE9doReserveEm = comdat any

$_ZSt13__copy_move_aILb0EPKPN11xalanc_1_1014XalanDOMStringEPS2_ET1_T0_S7_S6_ = comdat any

$_ZSt12__miter_baseIPKPN11xalanc_1_1014XalanDOMStringEET_S5_ = comdat any

$_ZSt12__niter_wrapIPPN11xalanc_1_1014XalanDOMStringEET_RKS4_S4_ = comdat any

$_ZSt14__copy_move_a1ILb0EPKPN11xalanc_1_1014XalanDOMStringEPS2_ET1_T0_S7_S6_ = comdat any

$_ZSt12__niter_baseIPKPN11xalanc_1_1014XalanDOMStringEET_S5_ = comdat any

$_ZSt12__niter_baseIPPN11xalanc_1_1014XalanDOMStringEET_S4_ = comdat any

$_ZSt14__copy_move_a2ILb0EPKPN11xalanc_1_1014XalanDOMStringEPS2_ET1_T0_S7_S6_ = comdat any

$_ZNSt11__copy_moveILb0ELb1ESt26random_access_iterator_tagE8__copy_mIPN11xalanc_1_1014XalanDOMStringEEEPT_PKS6_S9_S7_ = comdat any

$_ZSt22__copy_move_backward_aILb0EPPN11xalanc_1_1014XalanDOMStringES3_ET1_T0_S5_S4_ = comdat any

$_ZSt12__miter_baseIPPN11xalanc_1_1014XalanDOMStringEET_S4_ = comdat any

$_ZSt23__copy_move_backward_a1ILb0EPPN11xalanc_1_1014XalanDOMStringES3_ET1_T0_S5_S4_ = comdat any

$_ZSt23__copy_move_backward_a2ILb0EPPN11xalanc_1_1014XalanDOMStringES3_ET1_T0_S5_S4_ = comdat any

$_ZNSt20__copy_move_backwardILb0ELb1ESt26random_access_iterator_tagE13__copy_move_bIPN11xalanc_1_1014XalanDOMStringEEEPT_PKS6_S9_S7_ = comdat any

$_ZNK11xalanc_1_1011XalanVectorIPNS_14XalanDOMStringENS_31MemoryManagedConstructionTraitsIS2_EEE10endPointerEv = comdat any

$_ZSt9__find_ifIPPN11xalanc_1_1014XalanDOMStringEN9__gnu_cxx5__ops16_Iter_equals_valIKS2_EEET_S9_S9_T0_ = comdat any

$_ZN9__gnu_cxx5__ops17__iter_equals_valIKPN11xalanc_1_1014XalanDOMStringEEENS0_16_Iter_equals_valIT_EERS7_ = comdat any

$_ZSt9__find_ifIPPN11xalanc_1_1014XalanDOMStringEN9__gnu_cxx5__ops16_Iter_equals_valIKS2_EEET_S9_S9_T0_St26random_access_iterator_tag = comdat any

$_ZSt19__iterator_categoryIPPN11xalanc_1_1014XalanDOMStringEENSt15iterator_traitsIT_E17iterator_categoryERKS5_ = comdat any

$_ZN9__gnu_cxx5__ops16_Iter_equals_valIKPN11xalanc_1_1014XalanDOMStringEEclIPS4_EEbT_ = comdat any

$_ZN9__gnu_cxx5__ops16_Iter_equals_valIKPN11xalanc_1_1014XalanDOMStringEEC2ERS5_ = comdat any

$_ZN11xalanc_1_1011XalanVectorIPNS_14XalanDOMStringENS_31MemoryManagedConstructionTraitsIS2_EEE5eraseEPS2_S6_ = comdat any

$_ZSt4copyIPPN11xalanc_1_1014XalanDOMStringES3_ET0_T_S5_S4_ = comdat any

$_ZN11xalanc_1_1011XalanVectorIPNS_14XalanDOMStringENS_31MemoryManagedConstructionTraitsIS2_EEE11shrinkCountEm = comdat any

$_ZSt13__copy_move_aILb0EPPN11xalanc_1_1014XalanDOMStringES3_ET1_T0_S5_S4_ = comdat any

$_ZSt14__copy_move_a1ILb0EPPN11xalanc_1_1014XalanDOMStringES3_ET1_T0_S5_S4_ = comdat any

$_ZSt14__copy_move_a2ILb0EPPN11xalanc_1_1014XalanDOMStringES3_ET1_T0_S5_S4_ = comdat any

$_ZN11xalanc_1_1011XalanVectorIPNS_14XalanDOMStringENS_31MemoryManagedConstructionTraitsIS2_EEE12shrinkToSizeEm = comdat any

@_ZN11xalanc_1_1019XalanDOMStringCacheC1ERN11xercesc_2_713MemoryManagerEj = dso_local unnamed_addr alias void (%"class.xalanc_1_10::XalanDOMStringCache"*, %"class.xercesc_2_7::MemoryManager"*, i32), void (%"class.xalanc_1_10::XalanDOMStringCache"*, %"class.xercesc_2_7::MemoryManager"*, i32)* @_ZN11xalanc_1_1019XalanDOMStringCacheC2ERN11xercesc_2_713MemoryManagerEj
@_ZN11xalanc_1_1019XalanDOMStringCacheD1Ev = dso_local unnamed_addr alias void (%"class.xalanc_1_10::XalanDOMStringCache"*), void (%"class.xalanc_1_10::XalanDOMStringCache"*)* @_ZN11xalanc_1_1019XalanDOMStringCacheD2Ev

; Function Attrs: noinline uwtable
define dso_local void @_ZN11xalanc_1_1019XalanDOMStringCacheC2ERN11xercesc_2_713MemoryManagerEj(%"class.xalanc_1_10::XalanDOMStringCache"* %this, %"class.xercesc_2_7::MemoryManager"* dereferenceable(8) %theManager, i32 %theMaximumSize) unnamed_addr #0 align 2 personality i8* bitcast (i32 (...)* @__gxx_personality_v0 to i8*) !dbg !2502 {
entry:
  %this.addr = alloca %"class.xalanc_1_10::XalanDOMStringCache"*, align 8
  %theManager.addr = alloca %"class.xercesc_2_7::MemoryManager"*, align 8
  %theMaximumSize.addr = alloca i32, align 4
  %exn.slot = alloca i8*
  %ehselector.slot = alloca i32
  store %"class.xalanc_1_10::XalanDOMStringCache"* %this, %"class.xalanc_1_10::XalanDOMStringCache"** %this.addr, align 8
  call void @llvm.dbg.declare(metadata %"class.xalanc_1_10::XalanDOMStringCache"** %this.addr, metadata !2545, metadata !DIExpression()), !dbg !2547
  store %"class.xercesc_2_7::MemoryManager"* %theManager, %"class.xercesc_2_7::MemoryManager"** %theManager.addr, align 8
  call void @llvm.dbg.declare(metadata %"class.xercesc_2_7::MemoryManager"** %theManager.addr, metadata !2548, metadata !DIExpression()), !dbg !2549
  store i32 %theMaximumSize, i32* %theMaximumSize.addr, align 4
  call void @llvm.dbg.declare(metadata i32* %theMaximumSize.addr, metadata !2550, metadata !DIExpression()), !dbg !2551
  %this1 = load %"class.xalanc_1_10::XalanDOMStringCache"*, %"class.xalanc_1_10::XalanDOMStringCache"** %this.addr, align 8
  %m_availableList = getelementptr inbounds %"class.xalanc_1_10::XalanDOMStringCache", %"class.xalanc_1_10::XalanDOMStringCache"* %this1, i32 0, i32 0, !dbg !2552
  %0 = load %"class.xercesc_2_7::MemoryManager"*, %"class.xercesc_2_7::MemoryManager"** %theManager.addr, align 8, !dbg !2553
  call void @_ZN11xalanc_1_1011XalanVectorIPNS_14XalanDOMStringENS_31MemoryManagedConstructionTraitsIS2_EEEC2ERN11xercesc_2_713MemoryManagerEm(%"class.xalanc_1_10::XalanVector"* %m_availableList, %"class.xercesc_2_7::MemoryManager"* dereferenceable(8) %0, i64 0), !dbg !2552
  %m_busyList = getelementptr inbounds %"class.xalanc_1_10::XalanDOMStringCache", %"class.xalanc_1_10::XalanDOMStringCache"* %this1, i32 0, i32 1, !dbg !2554
  %1 = load %"class.xercesc_2_7::MemoryManager"*, %"class.xercesc_2_7::MemoryManager"** %theManager.addr, align 8, !dbg !2555
  invoke void @_ZN11xalanc_1_1011XalanVectorIPNS_14XalanDOMStringENS_31MemoryManagedConstructionTraitsIS2_EEEC2ERN11xercesc_2_713MemoryManagerEm(%"class.xalanc_1_10::XalanVector"* %m_busyList, %"class.xercesc_2_7::MemoryManager"* dereferenceable(8) %1, i64 0)
          to label %invoke.cont unwind label %lpad, !dbg !2554

invoke.cont:                                      ; preds = %entry
  %m_maximumSize = getelementptr inbounds %"class.xalanc_1_10::XalanDOMStringCache", %"class.xalanc_1_10::XalanDOMStringCache"* %this1, i32 0, i32 2, !dbg !2556
  %2 = load i32, i32* %theMaximumSize.addr, align 4, !dbg !2557
  store i32 %2, i32* %m_maximumSize, align 8, !dbg !2556
  %m_allocator = getelementptr inbounds %"class.xalanc_1_10::XalanDOMStringCache", %"class.xalanc_1_10::XalanDOMStringCache"* %this1, i32 0, i32 4, !dbg !2558
  %3 = load %"class.xercesc_2_7::MemoryManager"*, %"class.xercesc_2_7::MemoryManager"** %theManager.addr, align 8, !dbg !2559
  invoke void @_ZN11xalanc_1_1031XalanDOMStringReusableAllocatorC1ERN11xercesc_2_713MemoryManagerEt(%"class.xalanc_1_10::XalanDOMStringReusableAllocator"* %m_allocator, %"class.xercesc_2_7::MemoryManager"* dereferenceable(8) %3, i16 zeroext 32)
          to label %invoke.cont3 unwind label %lpad2, !dbg !2558

invoke.cont3:                                     ; preds = %invoke.cont
  ret void, !dbg !2560

lpad:                                             ; preds = %entry
  %4 = landingpad { i8*, i32 }
          cleanup, !dbg !2560
  %5 = extractvalue { i8*, i32 } %4, 0, !dbg !2560
  store i8* %5, i8** %exn.slot, align 8, !dbg !2560
  %6 = extractvalue { i8*, i32 } %4, 1, !dbg !2560
  store i32 %6, i32* %ehselector.slot, align 4, !dbg !2560
  br label %ehcleanup, !dbg !2560

lpad2:                                            ; preds = %invoke.cont
  %7 = landingpad { i8*, i32 }
          cleanup, !dbg !2560
  %8 = extractvalue { i8*, i32 } %7, 0, !dbg !2560
  store i8* %8, i8** %exn.slot, align 8, !dbg !2560
  %9 = extractvalue { i8*, i32 } %7, 1, !dbg !2560
  store i32 %9, i32* %ehselector.slot, align 4, !dbg !2560
  call void @_ZN11xalanc_1_1011XalanVectorIPNS_14XalanDOMStringENS_31MemoryManagedConstructionTraitsIS2_EEED2Ev(%"class.xalanc_1_10::XalanVector"* %m_busyList) #7, !dbg !2561
  br label %ehcleanup, !dbg !2561

ehcleanup:                                        ; preds = %lpad2, %lpad
  call void @_ZN11xalanc_1_1011XalanVectorIPNS_14XalanDOMStringENS_31MemoryManagedConstructionTraitsIS2_EEED2Ev(%"class.xalanc_1_10::XalanVector"* %m_availableList) #7, !dbg !2561
  br label %eh.resume, !dbg !2561

eh.resume:                                        ; preds = %ehcleanup
  %exn = load i8*, i8** %exn.slot, align 8, !dbg !2561
  %sel = load i32, i32* %ehselector.slot, align 4, !dbg !2561
  %lpad.val = insertvalue { i8*, i32 } undef, i8* %exn, 0, !dbg !2561
  %lpad.val4 = insertvalue { i8*, i32 } %lpad.val, i32 %sel, 1, !dbg !2561
  resume { i8*, i32 } %lpad.val4, !dbg !2561
}

; Function Attrs: nounwind readnone speculatable willreturn
declare void @llvm.dbg.declare(metadata, metadata, metadata) #1

; Function Attrs: noinline uwtable
define linkonce_odr dso_local void @_ZN11xalanc_1_1011XalanVectorIPNS_14XalanDOMStringENS_31MemoryManagedConstructionTraitsIS2_EEEC2ERN11xercesc_2_713MemoryManagerEm(%"class.xalanc_1_10::XalanVector"* %this, %"class.xercesc_2_7::MemoryManager"* dereferenceable(8) %theManager, i64 %initialAllocation) unnamed_addr #0 comdat align 2 !dbg !2563 {
entry:
  %this.addr = alloca %"class.xalanc_1_10::XalanVector"*, align 8
  %theManager.addr = alloca %"class.xercesc_2_7::MemoryManager"*, align 8
  %initialAllocation.addr = alloca i64, align 8
  store %"class.xalanc_1_10::XalanVector"* %this, %"class.xalanc_1_10::XalanVector"** %this.addr, align 8
  call void @llvm.dbg.declare(metadata %"class.xalanc_1_10::XalanVector"** %this.addr, metadata !2564, metadata !DIExpression()), !dbg !2565
  store %"class.xercesc_2_7::MemoryManager"* %theManager, %"class.xercesc_2_7::MemoryManager"** %theManager.addr, align 8
  call void @llvm.dbg.declare(metadata %"class.xercesc_2_7::MemoryManager"** %theManager.addr, metadata !2566, metadata !DIExpression()), !dbg !2567
  store i64 %initialAllocation, i64* %initialAllocation.addr, align 8
  call void @llvm.dbg.declare(metadata i64* %initialAllocation.addr, metadata !2568, metadata !DIExpression()), !dbg !2569
  %this1 = load %"class.xalanc_1_10::XalanVector"*, %"class.xalanc_1_10::XalanVector"** %this.addr, align 8
  %m_memoryManager = getelementptr inbounds %"class.xalanc_1_10::XalanVector", %"class.xalanc_1_10::XalanVector"* %this1, i32 0, i32 0, !dbg !2570
  %0 = load %"class.xercesc_2_7::MemoryManager"*, %"class.xercesc_2_7::MemoryManager"** %theManager.addr, align 8, !dbg !2571
  store %"class.xercesc_2_7::MemoryManager"* %0, %"class.xercesc_2_7::MemoryManager"** %m_memoryManager, align 8, !dbg !2570
  %m_size = getelementptr inbounds %"class.xalanc_1_10::XalanVector", %"class.xalanc_1_10::XalanVector"* %this1, i32 0, i32 1, !dbg !2572
  store i64 0, i64* %m_size, align 8, !dbg !2572
  %m_allocation = getelementptr inbounds %"class.xalanc_1_10::XalanVector", %"class.xalanc_1_10::XalanVector"* %this1, i32 0, i32 2, !dbg !2573
  %1 = load i64, i64* %initialAllocation.addr, align 8, !dbg !2574
  store i64 %1, i64* %m_allocation, align 8, !dbg !2573
  %m_data = getelementptr inbounds %"class.xalanc_1_10::XalanVector", %"class.xalanc_1_10::XalanVector"* %this1, i32 0, i32 3, !dbg !2575
  %2 = load i64, i64* %initialAllocation.addr, align 8, !dbg !2576
  %cmp = icmp ugt i64 %2, 0, !dbg !2577
  br i1 %cmp, label %cond.true, label %cond.false, !dbg !2576

cond.true:                                        ; preds = %entry
  %3 = load i64, i64* %initialAllocation.addr, align 8, !dbg !2578
  %call = call %"class.xalanc_1_10::XalanDOMString"** @_ZN11xalanc_1_1011XalanVectorIPNS_14XalanDOMStringENS_31MemoryManagedConstructionTraitsIS2_EEE8allocateEm(%"class.xalanc_1_10::XalanVector"* %this1, i64 %3), !dbg !2579
  br label %cond.end, !dbg !2576

cond.false:                                       ; preds = %entry
  br label %cond.end, !dbg !2576

cond.end:                                         ; preds = %cond.false, %cond.true
  %cond = phi %"class.xalanc_1_10::XalanDOMString"** [ %call, %cond.true ], [ null, %cond.false ], !dbg !2576
  store %"class.xalanc_1_10::XalanDOMString"** %cond, %"class.xalanc_1_10::XalanDOMString"*** %m_data, align 8, !dbg !2575
  call void @_ZNK11xalanc_1_1011XalanVectorIPNS_14XalanDOMStringENS_31MemoryManagedConstructionTraitsIS2_EEE10invariantsEv(%"class.xalanc_1_10::XalanVector"* %this1), !dbg !2580
  ret void, !dbg !2582
}

declare dso_local i32 @__gxx_personality_v0(...)

declare dso_local void @_ZN11xalanc_1_1031XalanDOMStringReusableAllocatorC1ERN11xercesc_2_713MemoryManagerEt(%"class.xalanc_1_10::XalanDOMStringReusableAllocator"*, %"class.xercesc_2_7::MemoryManager"* dereferenceable(8), i16 zeroext) unnamed_addr #2

; Function Attrs: noinline nounwind uwtable
define linkonce_odr dso_local void @_ZN11xalanc_1_1011XalanVectorIPNS_14XalanDOMStringENS_31MemoryManagedConstructionTraitsIS2_EEED2Ev(%"class.xalanc_1_10::XalanVector"* %this) unnamed_addr #3 comdat align 2 personality i8* bitcast (i32 (...)* @__gxx_personality_v0 to i8*) !dbg !2583 {
entry:
  %this.addr = alloca %"class.xalanc_1_10::XalanVector"*, align 8
  store %"class.xalanc_1_10::XalanVector"* %this, %"class.xalanc_1_10::XalanVector"** %this.addr, align 8
  call void @llvm.dbg.declare(metadata %"class.xalanc_1_10::XalanVector"** %this.addr, metadata !2584, metadata !DIExpression()), !dbg !2585
  %this1 = load %"class.xalanc_1_10::XalanVector"*, %"class.xalanc_1_10::XalanVector"** %this.addr, align 8
  invoke void @_ZNK11xalanc_1_1011XalanVectorIPNS_14XalanDOMStringENS_31MemoryManagedConstructionTraitsIS2_EEE10invariantsEv(%"class.xalanc_1_10::XalanVector"* %this1)
          to label %invoke.cont unwind label %terminate.lpad, !dbg !2586

invoke.cont:                                      ; preds = %entry
  %m_allocation = getelementptr inbounds %"class.xalanc_1_10::XalanVector", %"class.xalanc_1_10::XalanVector"* %this1, i32 0, i32 2, !dbg !2588
  %0 = load i64, i64* %m_allocation, align 8, !dbg !2588
  %cmp = icmp ne i64 %0, 0, !dbg !2590
  br i1 %cmp, label %if.then, label %if.end, !dbg !2591

if.then:                                          ; preds = %invoke.cont
  %call = invoke %"class.xalanc_1_10::XalanDOMString"** @_ZN11xalanc_1_1011XalanVectorIPNS_14XalanDOMStringENS_31MemoryManagedConstructionTraitsIS2_EEE5beginEv(%"class.xalanc_1_10::XalanVector"* %this1)
          to label %invoke.cont2 unwind label %terminate.lpad, !dbg !2592

invoke.cont2:                                     ; preds = %if.then
  %call4 = invoke %"class.xalanc_1_10::XalanDOMString"** @_ZN11xalanc_1_1011XalanVectorIPNS_14XalanDOMStringENS_31MemoryManagedConstructionTraitsIS2_EEE3endEv(%"class.xalanc_1_10::XalanVector"* %this1)
          to label %invoke.cont3 unwind label %terminate.lpad, !dbg !2594

invoke.cont3:                                     ; preds = %invoke.cont2
  invoke void @_ZN11xalanc_1_1011XalanVectorIPNS_14XalanDOMStringENS_31MemoryManagedConstructionTraitsIS2_EEE7destroyEPS2_S6_(%"class.xalanc_1_10::XalanDOMString"** %call, %"class.xalanc_1_10::XalanDOMString"** %call4)
          to label %invoke.cont5 unwind label %terminate.lpad, !dbg !2595

invoke.cont5:                                     ; preds = %invoke.cont3
  %m_data = getelementptr inbounds %"class.xalanc_1_10::XalanVector", %"class.xalanc_1_10::XalanVector"* %this1, i32 0, i32 3, !dbg !2596
  %1 = load %"class.xalanc_1_10::XalanDOMString"**, %"class.xalanc_1_10::XalanDOMString"*** %m_data, align 8, !dbg !2596
  invoke void @_ZN11xalanc_1_1011XalanVectorIPNS_14XalanDOMStringENS_31MemoryManagedConstructionTraitsIS2_EEE10deallocateEPS2_(%"class.xalanc_1_10::XalanVector"* %this1, %"class.xalanc_1_10::XalanDOMString"** %1)
          to label %invoke.cont6 unwind label %terminate.lpad, !dbg !2597

invoke.cont6:                                     ; preds = %invoke.cont5
  br label %if.end, !dbg !2598

if.end:                                           ; preds = %invoke.cont6, %invoke.cont
  ret void, !dbg !2599

terminate.lpad:                                   ; preds = %invoke.cont5, %invoke.cont3, %invoke.cont2, %if.then, %entry
  %2 = landingpad { i8*, i32 }
          catch i8* null, !dbg !2586
  %3 = extractvalue { i8*, i32 } %2, 0, !dbg !2586
  call void @__clang_call_terminate(i8* %3) #8, !dbg !2586
  unreachable, !dbg !2586
}

; Function Attrs: noinline nounwind uwtable
define dso_local void @_ZN11xalanc_1_1019XalanDOMStringCacheD2Ev(%"class.xalanc_1_10::XalanDOMStringCache"* %this) unnamed_addr #3 align 2 personality i8* bitcast (i32 (...)* @__gxx_personality_v0 to i8*) !dbg !2600 {
entry:
  %this.addr = alloca %"class.xalanc_1_10::XalanDOMStringCache"*, align 8
  %exn.slot = alloca i8*
  %ehselector.slot = alloca i32
  store %"class.xalanc_1_10::XalanDOMStringCache"* %this, %"class.xalanc_1_10::XalanDOMStringCache"** %this.addr, align 8
  call void @llvm.dbg.declare(metadata %"class.xalanc_1_10::XalanDOMStringCache"** %this.addr, metadata !2601, metadata !DIExpression()), !dbg !2602
  %this1 = load %"class.xalanc_1_10::XalanDOMStringCache"*, %"class.xalanc_1_10::XalanDOMStringCache"** %this.addr, align 8
  invoke void @_ZN11xalanc_1_1019XalanDOMStringCache5clearEv(%"class.xalanc_1_10::XalanDOMStringCache"* %this1)
          to label %invoke.cont unwind label %lpad, !dbg !2603

invoke.cont:                                      ; preds = %entry
  %m_allocator = getelementptr inbounds %"class.xalanc_1_10::XalanDOMStringCache", %"class.xalanc_1_10::XalanDOMStringCache"* %this1, i32 0, i32 4, !dbg !2605
  call void @_ZN11xalanc_1_1031XalanDOMStringReusableAllocatorD1Ev(%"class.xalanc_1_10::XalanDOMStringReusableAllocator"* %m_allocator) #7, !dbg !2605
  %m_busyList = getelementptr inbounds %"class.xalanc_1_10::XalanDOMStringCache", %"class.xalanc_1_10::XalanDOMStringCache"* %this1, i32 0, i32 1, !dbg !2605
  call void @_ZN11xalanc_1_1011XalanVectorIPNS_14XalanDOMStringENS_31MemoryManagedConstructionTraitsIS2_EEED2Ev(%"class.xalanc_1_10::XalanVector"* %m_busyList) #7, !dbg !2605
  %m_availableList = getelementptr inbounds %"class.xalanc_1_10::XalanDOMStringCache", %"class.xalanc_1_10::XalanDOMStringCache"* %this1, i32 0, i32 0, !dbg !2605
  call void @_ZN11xalanc_1_1011XalanVectorIPNS_14XalanDOMStringENS_31MemoryManagedConstructionTraitsIS2_EEED2Ev(%"class.xalanc_1_10::XalanVector"* %m_availableList) #7, !dbg !2605
  ret void, !dbg !2606

lpad:                                             ; preds = %entry
  %0 = landingpad { i8*, i32 }
          catch i8* null, !dbg !2605
  %1 = extractvalue { i8*, i32 } %0, 0, !dbg !2605
  store i8* %1, i8** %exn.slot, align 8, !dbg !2605
  %2 = extractvalue { i8*, i32 } %0, 1, !dbg !2605
  store i32 %2, i32* %ehselector.slot, align 4, !dbg !2605
  %m_allocator2 = getelementptr inbounds %"class.xalanc_1_10::XalanDOMStringCache", %"class.xalanc_1_10::XalanDOMStringCache"* %this1, i32 0, i32 4, !dbg !2605
  call void @_ZN11xalanc_1_1031XalanDOMStringReusableAllocatorD1Ev(%"class.xalanc_1_10::XalanDOMStringReusableAllocator"* %m_allocator2) #7, !dbg !2605
  %m_busyList3 = getelementptr inbounds %"class.xalanc_1_10::XalanDOMStringCache", %"class.xalanc_1_10::XalanDOMStringCache"* %this1, i32 0, i32 1, !dbg !2605
  call void @_ZN11xalanc_1_1011XalanVectorIPNS_14XalanDOMStringENS_31MemoryManagedConstructionTraitsIS2_EEED2Ev(%"class.xalanc_1_10::XalanVector"* %m_busyList3) #7, !dbg !2605
  %m_availableList4 = getelementptr inbounds %"class.xalanc_1_10::XalanDOMStringCache", %"class.xalanc_1_10::XalanDOMStringCache"* %this1, i32 0, i32 0, !dbg !2605
  call void @_ZN11xalanc_1_1011XalanVectorIPNS_14XalanDOMStringENS_31MemoryManagedConstructionTraitsIS2_EEED2Ev(%"class.xalanc_1_10::XalanVector"* %m_availableList4) #7, !dbg !2605
  br label %terminate.handler, !dbg !2605

terminate.handler:                                ; preds = %lpad
  %exn = load i8*, i8** %exn.slot, align 8, !dbg !2605
  call void @__clang_call_terminate(i8* %exn) #8, !dbg !2605
  unreachable, !dbg !2605
}

; Function Attrs: noinline uwtable
define dso_local void @_ZN11xalanc_1_1019XalanDOMStringCache5clearEv(%"class.xalanc_1_10::XalanDOMStringCache"* %this) #0 align 2 !dbg !2607 {
entry:
  %this.addr = alloca %"class.xalanc_1_10::XalanDOMStringCache"*, align 8
  store %"class.xalanc_1_10::XalanDOMStringCache"* %this, %"class.xalanc_1_10::XalanDOMStringCache"** %this.addr, align 8
  call void @llvm.dbg.declare(metadata %"class.xalanc_1_10::XalanDOMStringCache"** %this.addr, metadata !2608, metadata !DIExpression()), !dbg !2609
  %this1 = load %"class.xalanc_1_10::XalanDOMStringCache"*, %"class.xalanc_1_10::XalanDOMStringCache"** %this.addr, align 8
  %m_busyList = getelementptr inbounds %"class.xalanc_1_10::XalanDOMStringCache", %"class.xalanc_1_10::XalanDOMStringCache"* %this1, i32 0, i32 1, !dbg !2610
  call void @_ZN11xalanc_1_1011XalanVectorIPNS_14XalanDOMStringENS_31MemoryManagedConstructionTraitsIS2_EEE5clearEv(%"class.xalanc_1_10::XalanVector"* %m_busyList), !dbg !2611
  %m_availableList = getelementptr inbounds %"class.xalanc_1_10::XalanDOMStringCache", %"class.xalanc_1_10::XalanDOMStringCache"* %this1, i32 0, i32 0, !dbg !2612
  call void @_ZN11xalanc_1_1011XalanVectorIPNS_14XalanDOMStringENS_31MemoryManagedConstructionTraitsIS2_EEE5clearEv(%"class.xalanc_1_10::XalanVector"* %m_availableList), !dbg !2613
  %m_allocator = getelementptr inbounds %"class.xalanc_1_10::XalanDOMStringCache", %"class.xalanc_1_10::XalanDOMStringCache"* %this1, i32 0, i32 4, !dbg !2614
  call void @_ZN11xalanc_1_1031XalanDOMStringReusableAllocator5resetEv(%"class.xalanc_1_10::XalanDOMStringReusableAllocator"* %m_allocator), !dbg !2615
  ret void, !dbg !2616
}

; Function Attrs: nounwind
declare dso_local void @_ZN11xalanc_1_1031XalanDOMStringReusableAllocatorD1Ev(%"class.xalanc_1_10::XalanDOMStringReusableAllocator"*) unnamed_addr #4

; Function Attrs: noinline noreturn nounwind
define linkonce_odr hidden void @__clang_call_terminate(i8* %0) #5 comdat {
  %2 = call i8* @__cxa_begin_catch(i8* %0) #7
  call void @_ZSt9terminatev() #8
  unreachable
}

declare dso_local i8* @__cxa_begin_catch(i8*)

declare dso_local void @_ZSt9terminatev()

; Function Attrs: noinline uwtable
define dso_local dereferenceable(40) %"class.xalanc_1_10::XalanDOMString"* @_ZN11xalanc_1_1019XalanDOMStringCache3getEv(%"class.xalanc_1_10::XalanDOMStringCache"* %this) #0 align 2 !dbg !2617 {
entry:
  %retval = alloca %"class.xalanc_1_10::XalanDOMString"*, align 8
  %this.addr = alloca %"class.xalanc_1_10::XalanDOMStringCache"*, align 8
  %theString = alloca %"class.xalanc_1_10::XalanDOMString"*, align 8
  %ref.tmp = alloca %"class.xalanc_1_10::XalanDOMString"*, align 8
  %theString3 = alloca %"class.xalanc_1_10::XalanDOMString"*, align 8
  store %"class.xalanc_1_10::XalanDOMStringCache"* %this, %"class.xalanc_1_10::XalanDOMStringCache"** %this.addr, align 8
  call void @llvm.dbg.declare(metadata %"class.xalanc_1_10::XalanDOMStringCache"** %this.addr, metadata !2618, metadata !DIExpression()), !dbg !2619
  %this1 = load %"class.xalanc_1_10::XalanDOMStringCache"*, %"class.xalanc_1_10::XalanDOMStringCache"** %this.addr, align 8
  %m_availableList = getelementptr inbounds %"class.xalanc_1_10::XalanDOMStringCache", %"class.xalanc_1_10::XalanDOMStringCache"* %this1, i32 0, i32 0, !dbg !2620
  %call = call zeroext i1 @_ZNK11xalanc_1_1011XalanVectorIPNS_14XalanDOMStringENS_31MemoryManagedConstructionTraitsIS2_EEE5emptyEv(%"class.xalanc_1_10::XalanVector"* %m_availableList), !dbg !2622
  %conv = zext i1 %call to i32, !dbg !2620
  %cmp = icmp eq i32 %conv, 1, !dbg !2623
  br i1 %cmp, label %if.then, label %if.else, !dbg !2624

if.then:                                          ; preds = %entry
  call void @llvm.dbg.declare(metadata %"class.xalanc_1_10::XalanDOMString"** %theString, metadata !2625, metadata !DIExpression()), !dbg !2627
  %m_allocator = getelementptr inbounds %"class.xalanc_1_10::XalanDOMStringCache", %"class.xalanc_1_10::XalanDOMStringCache"* %this1, i32 0, i32 4, !dbg !2628
  %call2 = call dereferenceable(40) %"class.xalanc_1_10::XalanDOMString"* @_ZN11xalanc_1_1031XalanDOMStringReusableAllocator6createEv(%"class.xalanc_1_10::XalanDOMStringReusableAllocator"* %m_allocator), !dbg !2629
  store %"class.xalanc_1_10::XalanDOMString"* %call2, %"class.xalanc_1_10::XalanDOMString"** %theString, align 8, !dbg !2627
  %m_busyList = getelementptr inbounds %"class.xalanc_1_10::XalanDOMStringCache", %"class.xalanc_1_10::XalanDOMStringCache"* %this1, i32 0, i32 1, !dbg !2630
  %0 = load %"class.xalanc_1_10::XalanDOMString"*, %"class.xalanc_1_10::XalanDOMString"** %theString, align 8, !dbg !2631
  store %"class.xalanc_1_10::XalanDOMString"* %0, %"class.xalanc_1_10::XalanDOMString"** %ref.tmp, align 8, !dbg !2632
  call void @_ZN11xalanc_1_1011XalanVectorIPNS_14XalanDOMStringENS_31MemoryManagedConstructionTraitsIS2_EEE9push_backERKS2_(%"class.xalanc_1_10::XalanVector"* %m_busyList, %"class.xalanc_1_10::XalanDOMString"** dereferenceable(8) %ref.tmp), !dbg !2633
  %1 = load %"class.xalanc_1_10::XalanDOMString"*, %"class.xalanc_1_10::XalanDOMString"** %theString, align 8, !dbg !2634
  store %"class.xalanc_1_10::XalanDOMString"* %1, %"class.xalanc_1_10::XalanDOMString"** %retval, align 8, !dbg !2635
  br label %return, !dbg !2635

if.else:                                          ; preds = %entry
  call void @llvm.dbg.declare(metadata %"class.xalanc_1_10::XalanDOMString"** %theString3, metadata !2636, metadata !DIExpression()), !dbg !2638
  %m_availableList4 = getelementptr inbounds %"class.xalanc_1_10::XalanDOMStringCache", %"class.xalanc_1_10::XalanDOMStringCache"* %this1, i32 0, i32 0, !dbg !2639
  %call5 = call dereferenceable(8) %"class.xalanc_1_10::XalanDOMString"** @_ZN11xalanc_1_1011XalanVectorIPNS_14XalanDOMStringENS_31MemoryManagedConstructionTraitsIS2_EEE4backEv(%"class.xalanc_1_10::XalanVector"* %m_availableList4), !dbg !2640
  %2 = load %"class.xalanc_1_10::XalanDOMString"*, %"class.xalanc_1_10::XalanDOMString"** %call5, align 8, !dbg !2640
  store %"class.xalanc_1_10::XalanDOMString"* %2, %"class.xalanc_1_10::XalanDOMString"** %theString3, align 8, !dbg !2638
  %m_availableList6 = getelementptr inbounds %"class.xalanc_1_10::XalanDOMStringCache", %"class.xalanc_1_10::XalanDOMStringCache"* %this1, i32 0, i32 0, !dbg !2641
  call void @_ZN11xalanc_1_1011XalanVectorIPNS_14XalanDOMStringENS_31MemoryManagedConstructionTraitsIS2_EEE8pop_backEv(%"class.xalanc_1_10::XalanVector"* %m_availableList6), !dbg !2642
  %m_busyList7 = getelementptr inbounds %"class.xalanc_1_10::XalanDOMStringCache", %"class.xalanc_1_10::XalanDOMStringCache"* %this1, i32 0, i32 1, !dbg !2643
  call void @_ZN11xalanc_1_1011XalanVectorIPNS_14XalanDOMStringENS_31MemoryManagedConstructionTraitsIS2_EEE9push_backERKS2_(%"class.xalanc_1_10::XalanVector"* %m_busyList7, %"class.xalanc_1_10::XalanDOMString"** dereferenceable(8) %theString3), !dbg !2644
  %3 = load %"class.xalanc_1_10::XalanDOMString"*, %"class.xalanc_1_10::XalanDOMString"** %theString3, align 8, !dbg !2645
  store %"class.xalanc_1_10::XalanDOMString"* %3, %"class.xalanc_1_10::XalanDOMString"** %retval, align 8, !dbg !2646
  br label %return, !dbg !2646

return:                                           ; preds = %if.else, %if.then
  %4 = load %"class.xalanc_1_10::XalanDOMString"*, %"class.xalanc_1_10::XalanDOMString"** %retval, align 8, !dbg !2647
  ret %"class.xalanc_1_10::XalanDOMString"* %4, !dbg !2647
}

; Function Attrs: noinline nounwind uwtable
define linkonce_odr dso_local zeroext i1 @_ZNK11xalanc_1_1011XalanVectorIPNS_14XalanDOMStringENS_31MemoryManagedConstructionTraitsIS2_EEE5emptyEv(%"class.xalanc_1_10::XalanVector"* %this) #3 comdat align 2 !dbg !2648 {
entry:
  %this.addr = alloca %"class.xalanc_1_10::XalanVector"*, align 8
  store %"class.xalanc_1_10::XalanVector"* %this, %"class.xalanc_1_10::XalanVector"** %this.addr, align 8
  call void @llvm.dbg.declare(metadata %"class.xalanc_1_10::XalanVector"** %this.addr, metadata !2649, metadata !DIExpression()), !dbg !2651
  %this1 = load %"class.xalanc_1_10::XalanVector"*, %"class.xalanc_1_10::XalanVector"** %this.addr, align 8
  call void @_ZNK11xalanc_1_1011XalanVectorIPNS_14XalanDOMStringENS_31MemoryManagedConstructionTraitsIS2_EEE10invariantsEv(%"class.xalanc_1_10::XalanVector"* %this1), !dbg !2652
  %m_size = getelementptr inbounds %"class.xalanc_1_10::XalanVector", %"class.xalanc_1_10::XalanVector"* %this1, i32 0, i32 1, !dbg !2653
  %0 = load i64, i64* %m_size, align 8, !dbg !2653
  %cmp = icmp eq i64 %0, 0, !dbg !2654
  %1 = zext i1 %cmp to i64, !dbg !2653
  %cond = select i1 %cmp, i1 true, i1 false, !dbg !2653
  ret i1 %cond, !dbg !2655
}

declare dso_local dereferenceable(40) %"class.xalanc_1_10::XalanDOMString"* @_ZN11xalanc_1_1031XalanDOMStringReusableAllocator6createEv(%"class.xalanc_1_10::XalanDOMStringReusableAllocator"*) #2

; Function Attrs: noinline uwtable
define linkonce_odr dso_local void @_ZN11xalanc_1_1011XalanVectorIPNS_14XalanDOMStringENS_31MemoryManagedConstructionTraitsIS2_EEE9push_backERKS2_(%"class.xalanc_1_10::XalanVector"* %this, %"class.xalanc_1_10::XalanDOMString"** dereferenceable(8) %data) #0 comdat align 2 !dbg !2656 {
entry:
  %this.addr = alloca %"class.xalanc_1_10::XalanVector"*, align 8
  %data.addr = alloca %"class.xalanc_1_10::XalanDOMString"**, align 8
  store %"class.xalanc_1_10::XalanVector"* %this, %"class.xalanc_1_10::XalanVector"** %this.addr, align 8
  call void @llvm.dbg.declare(metadata %"class.xalanc_1_10::XalanVector"** %this.addr, metadata !2657, metadata !DIExpression()), !dbg !2658
  store %"class.xalanc_1_10::XalanDOMString"** %data, %"class.xalanc_1_10::XalanDOMString"*** %data.addr, align 8
  call void @llvm.dbg.declare(metadata %"class.xalanc_1_10::XalanDOMString"*** %data.addr, metadata !2659, metadata !DIExpression()), !dbg !2660
  %this1 = load %"class.xalanc_1_10::XalanVector"*, %"class.xalanc_1_10::XalanVector"** %this.addr, align 8
  call void @_ZNK11xalanc_1_1011XalanVectorIPNS_14XalanDOMStringENS_31MemoryManagedConstructionTraitsIS2_EEE10invariantsEv(%"class.xalanc_1_10::XalanVector"* %this1), !dbg !2661
  %0 = load %"class.xalanc_1_10::XalanDOMString"**, %"class.xalanc_1_10::XalanDOMString"*** %data.addr, align 8, !dbg !2662
  call void @_ZN11xalanc_1_1011XalanVectorIPNS_14XalanDOMStringENS_31MemoryManagedConstructionTraitsIS2_EEE10doPushBackERKS2_(%"class.xalanc_1_10::XalanVector"* %this1, %"class.xalanc_1_10::XalanDOMString"** dereferenceable(8) %0), !dbg !2663
  call void @_ZNK11xalanc_1_1011XalanVectorIPNS_14XalanDOMStringENS_31MemoryManagedConstructionTraitsIS2_EEE10invariantsEv(%"class.xalanc_1_10::XalanVector"* %this1), !dbg !2664
  ret void, !dbg !2665
}

; Function Attrs: noinline nounwind uwtable
define linkonce_odr dso_local dereferenceable(8) %"class.xalanc_1_10::XalanDOMString"** @_ZN11xalanc_1_1011XalanVectorIPNS_14XalanDOMStringENS_31MemoryManagedConstructionTraitsIS2_EEE4backEv(%"class.xalanc_1_10::XalanVector"* %this) #3 comdat align 2 !dbg !2666 {
entry:
  %this.addr = alloca %"class.xalanc_1_10::XalanVector"*, align 8
  store %"class.xalanc_1_10::XalanVector"* %this, %"class.xalanc_1_10::XalanVector"** %this.addr, align 8
  call void @llvm.dbg.declare(metadata %"class.xalanc_1_10::XalanVector"** %this.addr, metadata !2667, metadata !DIExpression()), !dbg !2668
  %this1 = load %"class.xalanc_1_10::XalanVector"*, %"class.xalanc_1_10::XalanVector"** %this.addr, align 8
  %m_data = getelementptr inbounds %"class.xalanc_1_10::XalanVector", %"class.xalanc_1_10::XalanVector"* %this1, i32 0, i32 3, !dbg !2669
  %0 = load %"class.xalanc_1_10::XalanDOMString"**, %"class.xalanc_1_10::XalanDOMString"*** %m_data, align 8, !dbg !2669
  %m_size = getelementptr inbounds %"class.xalanc_1_10::XalanVector", %"class.xalanc_1_10::XalanVector"* %this1, i32 0, i32 1, !dbg !2670
  %1 = load i64, i64* %m_size, align 8, !dbg !2670
  %sub = sub i64 %1, 1, !dbg !2671
  %arrayidx = getelementptr inbounds %"class.xalanc_1_10::XalanDOMString"*, %"class.xalanc_1_10::XalanDOMString"** %0, i64 %sub, !dbg !2669
  ret %"class.xalanc_1_10::XalanDOMString"** %arrayidx, !dbg !2672
}

; Function Attrs: noinline nounwind uwtable
define linkonce_odr dso_local void @_ZN11xalanc_1_1011XalanVectorIPNS_14XalanDOMStringENS_31MemoryManagedConstructionTraitsIS2_EEE8pop_backEv(%"class.xalanc_1_10::XalanVector"* %this) #3 comdat align 2 !dbg !2673 {
entry:
  %this.addr = alloca %"class.xalanc_1_10::XalanVector"*, align 8
  store %"class.xalanc_1_10::XalanVector"* %this, %"class.xalanc_1_10::XalanVector"** %this.addr, align 8
  call void @llvm.dbg.declare(metadata %"class.xalanc_1_10::XalanVector"** %this.addr, metadata !2674, metadata !DIExpression()), !dbg !2675
  %this1 = load %"class.xalanc_1_10::XalanVector"*, %"class.xalanc_1_10::XalanVector"** %this.addr, align 8
  call void @_ZNK11xalanc_1_1011XalanVectorIPNS_14XalanDOMStringENS_31MemoryManagedConstructionTraitsIS2_EEE10invariantsEv(%"class.xalanc_1_10::XalanVector"* %this1), !dbg !2676
  %m_size = getelementptr inbounds %"class.xalanc_1_10::XalanVector", %"class.xalanc_1_10::XalanVector"* %this1, i32 0, i32 1, !dbg !2677
  %0 = load i64, i64* %m_size, align 8, !dbg !2678
  %dec = add i64 %0, -1, !dbg !2678
  store i64 %dec, i64* %m_size, align 8, !dbg !2678
  %m_data = getelementptr inbounds %"class.xalanc_1_10::XalanVector", %"class.xalanc_1_10::XalanVector"* %this1, i32 0, i32 3, !dbg !2679
  %1 = load %"class.xalanc_1_10::XalanDOMString"**, %"class.xalanc_1_10::XalanDOMString"*** %m_data, align 8, !dbg !2679
  %m_size2 = getelementptr inbounds %"class.xalanc_1_10::XalanVector", %"class.xalanc_1_10::XalanVector"* %this1, i32 0, i32 1, !dbg !2680
  %2 = load i64, i64* %m_size2, align 8, !dbg !2680
  %arrayidx = getelementptr inbounds %"class.xalanc_1_10::XalanDOMString"*, %"class.xalanc_1_10::XalanDOMString"** %1, i64 %2, !dbg !2679
  call void @_ZN11xalanc_1_1011XalanVectorIPNS_14XalanDOMStringENS_31MemoryManagedConstructionTraitsIS2_EEE7destroyERS2_(%"class.xalanc_1_10::XalanDOMString"** dereferenceable(8) %arrayidx), !dbg !2681
  call void @_ZNK11xalanc_1_1011XalanVectorIPNS_14XalanDOMStringENS_31MemoryManagedConstructionTraitsIS2_EEE10invariantsEv(%"class.xalanc_1_10::XalanVector"* %this1), !dbg !2682
  ret void, !dbg !2683
}

; Function Attrs: noinline uwtable
define dso_local zeroext i1 @_ZN11xalanc_1_1019XalanDOMStringCache7releaseERNS_14XalanDOMStringE(%"class.xalanc_1_10::XalanDOMStringCache"* %this, %"class.xalanc_1_10::XalanDOMString"* dereferenceable(40) %theString) #0 align 2 !dbg !2684 {
entry:
  %retval = alloca i1, align 1
  %this.addr = alloca %"class.xalanc_1_10::XalanDOMStringCache"*, align 8
  %theString.addr = alloca %"class.xalanc_1_10::XalanDOMString"*, align 8
  %i = alloca %"class.xalanc_1_10::XalanDOMString"**, align 8
  %ref.tmp = alloca %"class.xalanc_1_10::XalanDOMString"*, align 8
  store %"class.xalanc_1_10::XalanDOMStringCache"* %this, %"class.xalanc_1_10::XalanDOMStringCache"** %this.addr, align 8
  call void @llvm.dbg.declare(metadata %"class.xalanc_1_10::XalanDOMStringCache"** %this.addr, metadata !2685, metadata !DIExpression()), !dbg !2686
  store %"class.xalanc_1_10::XalanDOMString"* %theString, %"class.xalanc_1_10::XalanDOMString"** %theString.addr, align 8
  call void @llvm.dbg.declare(metadata %"class.xalanc_1_10::XalanDOMString"** %theString.addr, metadata !2687, metadata !DIExpression()), !dbg !2688
  %this1 = load %"class.xalanc_1_10::XalanDOMStringCache"*, %"class.xalanc_1_10::XalanDOMStringCache"** %this.addr, align 8
  call void @llvm.dbg.declare(metadata %"class.xalanc_1_10::XalanDOMString"*** %i, metadata !2689, metadata !DIExpression()), !dbg !2690
  %m_busyList = getelementptr inbounds %"class.xalanc_1_10::XalanDOMStringCache", %"class.xalanc_1_10::XalanDOMStringCache"* %this1, i32 0, i32 1, !dbg !2691
  %call = call %"class.xalanc_1_10::XalanDOMString"** @_ZN11xalanc_1_1011XalanVectorIPNS_14XalanDOMStringENS_31MemoryManagedConstructionTraitsIS2_EEE5beginEv(%"class.xalanc_1_10::XalanVector"* %m_busyList), !dbg !2692
  %m_busyList2 = getelementptr inbounds %"class.xalanc_1_10::XalanDOMStringCache", %"class.xalanc_1_10::XalanDOMStringCache"* %this1, i32 0, i32 1, !dbg !2693
  %call3 = call %"class.xalanc_1_10::XalanDOMString"** @_ZN11xalanc_1_1011XalanVectorIPNS_14XalanDOMStringENS_31MemoryManagedConstructionTraitsIS2_EEE3endEv(%"class.xalanc_1_10::XalanVector"* %m_busyList2), !dbg !2694
  %0 = load %"class.xalanc_1_10::XalanDOMString"*, %"class.xalanc_1_10::XalanDOMString"** %theString.addr, align 8, !dbg !2695
  store %"class.xalanc_1_10::XalanDOMString"* %0, %"class.xalanc_1_10::XalanDOMString"** %ref.tmp, align 8, !dbg !2696
  %call4 = call %"class.xalanc_1_10::XalanDOMString"** @_ZSt4findIPPN11xalanc_1_1014XalanDOMStringES2_ET_S4_S4_RKT0_(%"class.xalanc_1_10::XalanDOMString"** %call, %"class.xalanc_1_10::XalanDOMString"** %call3, %"class.xalanc_1_10::XalanDOMString"** dereferenceable(8) %ref.tmp), !dbg !2697
  store %"class.xalanc_1_10::XalanDOMString"** %call4, %"class.xalanc_1_10::XalanDOMString"*** %i, align 8, !dbg !2690
  %1 = load %"class.xalanc_1_10::XalanDOMString"**, %"class.xalanc_1_10::XalanDOMString"*** %i, align 8, !dbg !2698
  %m_busyList5 = getelementptr inbounds %"class.xalanc_1_10::XalanDOMStringCache", %"class.xalanc_1_10::XalanDOMStringCache"* %this1, i32 0, i32 1, !dbg !2700
  %call6 = call %"class.xalanc_1_10::XalanDOMString"** @_ZN11xalanc_1_1011XalanVectorIPNS_14XalanDOMStringENS_31MemoryManagedConstructionTraitsIS2_EEE3endEv(%"class.xalanc_1_10::XalanVector"* %m_busyList5), !dbg !2701
  %cmp = icmp eq %"class.xalanc_1_10::XalanDOMString"** %1, %call6, !dbg !2702
  br i1 %cmp, label %if.then, label %if.else, !dbg !2703

if.then:                                          ; preds = %entry
  store i1 false, i1* %retval, align 1, !dbg !2704
  br label %return, !dbg !2704

if.else:                                          ; preds = %entry
  %m_availableList = getelementptr inbounds %"class.xalanc_1_10::XalanDOMStringCache", %"class.xalanc_1_10::XalanDOMStringCache"* %this1, i32 0, i32 0, !dbg !2706
  %call7 = call i64 @_ZNK11xalanc_1_1011XalanVectorIPNS_14XalanDOMStringENS_31MemoryManagedConstructionTraitsIS2_EEE4sizeEv(%"class.xalanc_1_10::XalanVector"* %m_availableList), !dbg !2709
  %m_maximumSize = getelementptr inbounds %"class.xalanc_1_10::XalanDOMStringCache", %"class.xalanc_1_10::XalanDOMStringCache"* %this1, i32 0, i32 2, !dbg !2710
  %2 = load i32, i32* %m_maximumSize, align 8, !dbg !2710
  %conv = zext i32 %2 to i64, !dbg !2710
  %cmp8 = icmp ugt i64 %call7, %conv, !dbg !2711
  br i1 %cmp8, label %if.then9, label %if.else11, !dbg !2712

if.then9:                                         ; preds = %if.else
  %m_allocator = getelementptr inbounds %"class.xalanc_1_10::XalanDOMStringCache", %"class.xalanc_1_10::XalanDOMStringCache"* %this1, i32 0, i32 4, !dbg !2713
  %3 = load %"class.xalanc_1_10::XalanDOMString"*, %"class.xalanc_1_10::XalanDOMString"** %theString.addr, align 8, !dbg !2715
  %call10 = call zeroext i1 @_ZN11xalanc_1_1031XalanDOMStringReusableAllocator7destroyERNS_14XalanDOMStringE(%"class.xalanc_1_10::XalanDOMStringReusableAllocator"* %m_allocator, %"class.xalanc_1_10::XalanDOMString"* dereferenceable(40) %3), !dbg !2716
  br label %if.end, !dbg !2717

if.else11:                                        ; preds = %if.else
  %4 = load %"class.xalanc_1_10::XalanDOMString"*, %"class.xalanc_1_10::XalanDOMString"** %theString.addr, align 8, !dbg !2718
  call void @_ZN11xalanc_1_1014XalanDOMString5eraseEjj(%"class.xalanc_1_10::XalanDOMString"* %4, i32 0, i32 -1), !dbg !2720
  %m_availableList12 = getelementptr inbounds %"class.xalanc_1_10::XalanDOMStringCache", %"class.xalanc_1_10::XalanDOMStringCache"* %this1, i32 0, i32 0, !dbg !2721
  %5 = load %"class.xalanc_1_10::XalanDOMString"**, %"class.xalanc_1_10::XalanDOMString"*** %i, align 8, !dbg !2722
  call void @_ZN11xalanc_1_1011XalanVectorIPNS_14XalanDOMStringENS_31MemoryManagedConstructionTraitsIS2_EEE9push_backERKS2_(%"class.xalanc_1_10::XalanVector"* %m_availableList12, %"class.xalanc_1_10::XalanDOMString"** dereferenceable(8) %5), !dbg !2723
  br label %if.end

if.end:                                           ; preds = %if.else11, %if.then9
  %m_busyList13 = getelementptr inbounds %"class.xalanc_1_10::XalanDOMStringCache", %"class.xalanc_1_10::XalanDOMStringCache"* %this1, i32 0, i32 1, !dbg !2724
  %6 = load %"class.xalanc_1_10::XalanDOMString"**, %"class.xalanc_1_10::XalanDOMString"*** %i, align 8, !dbg !2725
  %call14 = call %"class.xalanc_1_10::XalanDOMString"** @_ZN11xalanc_1_1011XalanVectorIPNS_14XalanDOMStringENS_31MemoryManagedConstructionTraitsIS2_EEE5eraseEPS2_(%"class.xalanc_1_10::XalanVector"* %m_busyList13, %"class.xalanc_1_10::XalanDOMString"** %6), !dbg !2726
  store i1 true, i1* %retval, align 1, !dbg !2727
  br label %return, !dbg !2727

return:                                           ; preds = %if.end, %if.then
  %7 = load i1, i1* %retval, align 1, !dbg !2728
  ret i1 %7, !dbg !2728
}

; Function Attrs: noinline uwtable
define linkonce_odr dso_local %"class.xalanc_1_10::XalanDOMString"** @_ZSt4findIPPN11xalanc_1_1014XalanDOMStringES2_ET_S4_S4_RKT0_(%"class.xalanc_1_10::XalanDOMString"** %__first, %"class.xalanc_1_10::XalanDOMString"** %__last, %"class.xalanc_1_10::XalanDOMString"** dereferenceable(8) %__val) #0 comdat !dbg !2729 {
entry:
  %__first.addr = alloca %"class.xalanc_1_10::XalanDOMString"**, align 8
  %__last.addr = alloca %"class.xalanc_1_10::XalanDOMString"**, align 8
  %__val.addr = alloca %"class.xalanc_1_10::XalanDOMString"**, align 8
  %agg.tmp = alloca %"struct.__gnu_cxx::__ops::_Iter_equals_val", align 8
  store %"class.xalanc_1_10::XalanDOMString"** %__first, %"class.xalanc_1_10::XalanDOMString"*** %__first.addr, align 8
  call void @llvm.dbg.declare(metadata %"class.xalanc_1_10::XalanDOMString"*** %__first.addr, metadata !2736, metadata !DIExpression()), !dbg !2737
  store %"class.xalanc_1_10::XalanDOMString"** %__last, %"class.xalanc_1_10::XalanDOMString"*** %__last.addr, align 8
  call void @llvm.dbg.declare(metadata %"class.xalanc_1_10::XalanDOMString"*** %__last.addr, metadata !2738, metadata !DIExpression()), !dbg !2739
  store %"class.xalanc_1_10::XalanDOMString"** %__val, %"class.xalanc_1_10::XalanDOMString"*** %__val.addr, align 8
  call void @llvm.dbg.declare(metadata %"class.xalanc_1_10::XalanDOMString"*** %__val.addr, metadata !2740, metadata !DIExpression()), !dbg !2741
  %0 = load %"class.xalanc_1_10::XalanDOMString"**, %"class.xalanc_1_10::XalanDOMString"*** %__first.addr, align 8, !dbg !2742
  %1 = load %"class.xalanc_1_10::XalanDOMString"**, %"class.xalanc_1_10::XalanDOMString"*** %__last.addr, align 8, !dbg !2743
  %2 = load %"class.xalanc_1_10::XalanDOMString"**, %"class.xalanc_1_10::XalanDOMString"*** %__val.addr, align 8, !dbg !2744
  %call = call %"class.xalanc_1_10::XalanDOMString"** @_ZN9__gnu_cxx5__ops17__iter_equals_valIKPN11xalanc_1_1014XalanDOMStringEEENS0_16_Iter_equals_valIT_EERS7_(%"class.xalanc_1_10::XalanDOMString"** dereferenceable(8) %2), !dbg !2745
  %coerce.dive = getelementptr inbounds %"struct.__gnu_cxx::__ops::_Iter_equals_val", %"struct.__gnu_cxx::__ops::_Iter_equals_val"* %agg.tmp, i32 0, i32 0, !dbg !2745
  store %"class.xalanc_1_10::XalanDOMString"** %call, %"class.xalanc_1_10::XalanDOMString"*** %coerce.dive, align 8, !dbg !2745
  %coerce.dive1 = getelementptr inbounds %"struct.__gnu_cxx::__ops::_Iter_equals_val", %"struct.__gnu_cxx::__ops::_Iter_equals_val"* %agg.tmp, i32 0, i32 0, !dbg !2746
  %3 = load %"class.xalanc_1_10::XalanDOMString"**, %"class.xalanc_1_10::XalanDOMString"*** %coerce.dive1, align 8, !dbg !2746
  %call2 = call %"class.xalanc_1_10::XalanDOMString"** @_ZSt9__find_ifIPPN11xalanc_1_1014XalanDOMStringEN9__gnu_cxx5__ops16_Iter_equals_valIKS2_EEET_S9_S9_T0_(%"class.xalanc_1_10::XalanDOMString"** %0, %"class.xalanc_1_10::XalanDOMString"** %1, %"class.xalanc_1_10::XalanDOMString"** %3), !dbg !2746
  ret %"class.xalanc_1_10::XalanDOMString"** %call2, !dbg !2747
}

; Function Attrs: noinline nounwind uwtable
define linkonce_odr dso_local %"class.xalanc_1_10::XalanDOMString"** @_ZN11xalanc_1_1011XalanVectorIPNS_14XalanDOMStringENS_31MemoryManagedConstructionTraitsIS2_EEE5beginEv(%"class.xalanc_1_10::XalanVector"* %this) #3 comdat align 2 !dbg !2748 {
entry:
  %this.addr = alloca %"class.xalanc_1_10::XalanVector"*, align 8
  store %"class.xalanc_1_10::XalanVector"* %this, %"class.xalanc_1_10::XalanVector"** %this.addr, align 8
  call void @llvm.dbg.declare(metadata %"class.xalanc_1_10::XalanVector"** %this.addr, metadata !2749, metadata !DIExpression()), !dbg !2750
  %this1 = load %"class.xalanc_1_10::XalanVector"*, %"class.xalanc_1_10::XalanVector"** %this.addr, align 8
  call void @_ZNK11xalanc_1_1011XalanVectorIPNS_14XalanDOMStringENS_31MemoryManagedConstructionTraitsIS2_EEE10invariantsEv(%"class.xalanc_1_10::XalanVector"* %this1), !dbg !2751
  %m_data = getelementptr inbounds %"class.xalanc_1_10::XalanVector", %"class.xalanc_1_10::XalanVector"* %this1, i32 0, i32 3, !dbg !2752
  %0 = load %"class.xalanc_1_10::XalanDOMString"**, %"class.xalanc_1_10::XalanDOMString"*** %m_data, align 8, !dbg !2752
  ret %"class.xalanc_1_10::XalanDOMString"** %0, !dbg !2753
}

; Function Attrs: noinline nounwind uwtable
define linkonce_odr dso_local %"class.xalanc_1_10::XalanDOMString"** @_ZN11xalanc_1_1011XalanVectorIPNS_14XalanDOMStringENS_31MemoryManagedConstructionTraitsIS2_EEE3endEv(%"class.xalanc_1_10::XalanVector"* %this) #3 comdat align 2 !dbg !2754 {
entry:
  %this.addr = alloca %"class.xalanc_1_10::XalanVector"*, align 8
  store %"class.xalanc_1_10::XalanVector"* %this, %"class.xalanc_1_10::XalanVector"** %this.addr, align 8
  call void @llvm.dbg.declare(metadata %"class.xalanc_1_10::XalanVector"** %this.addr, metadata !2755, metadata !DIExpression()), !dbg !2756
  %this1 = load %"class.xalanc_1_10::XalanVector"*, %"class.xalanc_1_10::XalanVector"** %this.addr, align 8
  call void @_ZNK11xalanc_1_1011XalanVectorIPNS_14XalanDOMStringENS_31MemoryManagedConstructionTraitsIS2_EEE10invariantsEv(%"class.xalanc_1_10::XalanVector"* %this1), !dbg !2757
  %call = call %"class.xalanc_1_10::XalanDOMString"** @_ZN11xalanc_1_1011XalanVectorIPNS_14XalanDOMStringENS_31MemoryManagedConstructionTraitsIS2_EEE10endPointerEv(%"class.xalanc_1_10::XalanVector"* %this1), !dbg !2758
  ret %"class.xalanc_1_10::XalanDOMString"** %call, !dbg !2759
}

; Function Attrs: noinline nounwind uwtable
define linkonce_odr dso_local i64 @_ZNK11xalanc_1_1011XalanVectorIPNS_14XalanDOMStringENS_31MemoryManagedConstructionTraitsIS2_EEE4sizeEv(%"class.xalanc_1_10::XalanVector"* %this) #3 comdat align 2 !dbg !2760 {
entry:
  %this.addr = alloca %"class.xalanc_1_10::XalanVector"*, align 8
  store %"class.xalanc_1_10::XalanVector"* %this, %"class.xalanc_1_10::XalanVector"** %this.addr, align 8
  call void @llvm.dbg.declare(metadata %"class.xalanc_1_10::XalanVector"** %this.addr, metadata !2761, metadata !DIExpression()), !dbg !2762
  %this1 = load %"class.xalanc_1_10::XalanVector"*, %"class.xalanc_1_10::XalanVector"** %this.addr, align 8
  call void @_ZNK11xalanc_1_1011XalanVectorIPNS_14XalanDOMStringENS_31MemoryManagedConstructionTraitsIS2_EEE10invariantsEv(%"class.xalanc_1_10::XalanVector"* %this1), !dbg !2763
  %m_size = getelementptr inbounds %"class.xalanc_1_10::XalanVector", %"class.xalanc_1_10::XalanVector"* %this1, i32 0, i32 1, !dbg !2764
  %0 = load i64, i64* %m_size, align 8, !dbg !2764
  ret i64 %0, !dbg !2765
}

; Function Attrs: noinline uwtable
define linkonce_odr dso_local zeroext i1 @_ZN11xalanc_1_1031XalanDOMStringReusableAllocator7destroyERNS_14XalanDOMStringE(%"class.xalanc_1_10::XalanDOMStringReusableAllocator"* %this, %"class.xalanc_1_10::XalanDOMString"* dereferenceable(40) %theDOMString) #0 comdat align 2 !dbg !2766 {
entry:
  %this.addr = alloca %"class.xalanc_1_10::XalanDOMStringReusableAllocator"*, align 8
  %theDOMString.addr = alloca %"class.xalanc_1_10::XalanDOMString"*, align 8
  store %"class.xalanc_1_10::XalanDOMStringReusableAllocator"* %this, %"class.xalanc_1_10::XalanDOMStringReusableAllocator"** %this.addr, align 8
  call void @llvm.dbg.declare(metadata %"class.xalanc_1_10::XalanDOMStringReusableAllocator"** %this.addr, metadata !2767, metadata !DIExpression()), !dbg !2769
  store %"class.xalanc_1_10::XalanDOMString"* %theDOMString, %"class.xalanc_1_10::XalanDOMString"** %theDOMString.addr, align 8
  call void @llvm.dbg.declare(metadata %"class.xalanc_1_10::XalanDOMString"** %theDOMString.addr, metadata !2770, metadata !DIExpression()), !dbg !2771
  %this1 = load %"class.xalanc_1_10::XalanDOMStringReusableAllocator"*, %"class.xalanc_1_10::XalanDOMStringReusableAllocator"** %this.addr, align 8
  %m_allocator = getelementptr inbounds %"class.xalanc_1_10::XalanDOMStringReusableAllocator", %"class.xalanc_1_10::XalanDOMStringReusableAllocator"* %this1, i32 0, i32 0, !dbg !2772
  %0 = load %"class.xalanc_1_10::XalanDOMString"*, %"class.xalanc_1_10::XalanDOMString"** %theDOMString.addr, align 8, !dbg !2773
  %call = call zeroext i1 @_ZN11xalanc_1_1022ReusableArenaAllocatorINS_14XalanDOMStringEE13destroyObjectEPS1_(%"class.xalanc_1_10::ReusableArenaAllocator"* %m_allocator, %"class.xalanc_1_10::XalanDOMString"* %0), !dbg !2774
  ret i1 %call, !dbg !2775
}

declare dso_local void @_ZN11xalanc_1_1014XalanDOMString5eraseEjj(%"class.xalanc_1_10::XalanDOMString"*, i32, i32) #2

; Function Attrs: noinline uwtable
define linkonce_odr dso_local %"class.xalanc_1_10::XalanDOMString"** @_ZN11xalanc_1_1011XalanVectorIPNS_14XalanDOMStringENS_31MemoryManagedConstructionTraitsIS2_EEE5eraseEPS2_(%"class.xalanc_1_10::XalanVector"* %this, %"class.xalanc_1_10::XalanDOMString"** %position) #0 comdat align 2 !dbg !2776 {
entry:
  %this.addr = alloca %"class.xalanc_1_10::XalanVector"*, align 8
  %position.addr = alloca %"class.xalanc_1_10::XalanDOMString"**, align 8
  store %"class.xalanc_1_10::XalanVector"* %this, %"class.xalanc_1_10::XalanVector"** %this.addr, align 8
  call void @llvm.dbg.declare(metadata %"class.xalanc_1_10::XalanVector"** %this.addr, metadata !2777, metadata !DIExpression()), !dbg !2778
  store %"class.xalanc_1_10::XalanDOMString"** %position, %"class.xalanc_1_10::XalanDOMString"*** %position.addr, align 8
  call void @llvm.dbg.declare(metadata %"class.xalanc_1_10::XalanDOMString"*** %position.addr, metadata !2779, metadata !DIExpression()), !dbg !2780
  %this1 = load %"class.xalanc_1_10::XalanVector"*, %"class.xalanc_1_10::XalanVector"** %this.addr, align 8
  %0 = load %"class.xalanc_1_10::XalanDOMString"**, %"class.xalanc_1_10::XalanDOMString"*** %position.addr, align 8, !dbg !2781
  %1 = load %"class.xalanc_1_10::XalanDOMString"**, %"class.xalanc_1_10::XalanDOMString"*** %position.addr, align 8, !dbg !2782
  %add.ptr = getelementptr inbounds %"class.xalanc_1_10::XalanDOMString"*, %"class.xalanc_1_10::XalanDOMString"** %1, i64 1, !dbg !2783
  %call = call %"class.xalanc_1_10::XalanDOMString"** @_ZN11xalanc_1_1011XalanVectorIPNS_14XalanDOMStringENS_31MemoryManagedConstructionTraitsIS2_EEE5eraseEPS2_S6_(%"class.xalanc_1_10::XalanVector"* %this1, %"class.xalanc_1_10::XalanDOMString"** %0, %"class.xalanc_1_10::XalanDOMString"** %add.ptr), !dbg !2784
  ret %"class.xalanc_1_10::XalanDOMString"** %call, !dbg !2785
}

; Function Attrs: noinline uwtable
define linkonce_odr dso_local void @_ZN11xalanc_1_1011XalanVectorIPNS_14XalanDOMStringENS_31MemoryManagedConstructionTraitsIS2_EEE5clearEv(%"class.xalanc_1_10::XalanVector"* %this) #0 comdat align 2 !dbg !2786 {
entry:
  %this.addr = alloca %"class.xalanc_1_10::XalanVector"*, align 8
  store %"class.xalanc_1_10::XalanVector"* %this, %"class.xalanc_1_10::XalanVector"** %this.addr, align 8
  call void @llvm.dbg.declare(metadata %"class.xalanc_1_10::XalanVector"** %this.addr, metadata !2787, metadata !DIExpression()), !dbg !2788
  %this1 = load %"class.xalanc_1_10::XalanVector"*, %"class.xalanc_1_10::XalanVector"** %this.addr, align 8
  call void @_ZNK11xalanc_1_1011XalanVectorIPNS_14XalanDOMStringENS_31MemoryManagedConstructionTraitsIS2_EEE10invariantsEv(%"class.xalanc_1_10::XalanVector"* %this1), !dbg !2789
  %m_size = getelementptr inbounds %"class.xalanc_1_10::XalanVector", %"class.xalanc_1_10::XalanVector"* %this1, i32 0, i32 1, !dbg !2790
  %0 = load i64, i64* %m_size, align 8, !dbg !2790
  %cmp = icmp ugt i64 %0, 0, !dbg !2792
  br i1 %cmp, label %if.then, label %if.end, !dbg !2793

if.then:                                          ; preds = %entry
  call void @_ZN11xalanc_1_1011XalanVectorIPNS_14XalanDOMStringENS_31MemoryManagedConstructionTraitsIS2_EEE12shrinkToSizeEm(%"class.xalanc_1_10::XalanVector"* %this1, i64 0), !dbg !2794
  br label %if.end, !dbg !2796

if.end:                                           ; preds = %if.then, %entry
  call void @_ZNK11xalanc_1_1011XalanVectorIPNS_14XalanDOMStringENS_31MemoryManagedConstructionTraitsIS2_EEE10invariantsEv(%"class.xalanc_1_10::XalanVector"* %this1), !dbg !2797
  ret void, !dbg !2798
}

; Function Attrs: noinline uwtable
define linkonce_odr dso_local void @_ZN11xalanc_1_1031XalanDOMStringReusableAllocator5resetEv(%"class.xalanc_1_10::XalanDOMStringReusableAllocator"* %this) #0 comdat align 2 !dbg !2799 {
entry:
  %this.addr = alloca %"class.xalanc_1_10::XalanDOMStringReusableAllocator"*, align 8
  store %"class.xalanc_1_10::XalanDOMStringReusableAllocator"* %this, %"class.xalanc_1_10::XalanDOMStringReusableAllocator"** %this.addr, align 8
  call void @llvm.dbg.declare(metadata %"class.xalanc_1_10::XalanDOMStringReusableAllocator"** %this.addr, metadata !2800, metadata !DIExpression()), !dbg !2801
  %this1 = load %"class.xalanc_1_10::XalanDOMStringReusableAllocator"*, %"class.xalanc_1_10::XalanDOMStringReusableAllocator"** %this.addr, align 8
  %m_allocator = getelementptr inbounds %"class.xalanc_1_10::XalanDOMStringReusableAllocator", %"class.xalanc_1_10::XalanDOMStringReusableAllocator"* %this1, i32 0, i32 0, !dbg !2802
  %0 = bitcast %"class.xalanc_1_10::ReusableArenaAllocator"* %m_allocator to %"class.xalanc_1_10::ArenaAllocator"*, !dbg !2802
  call void @_ZN11xalanc_1_1014ArenaAllocatorINS_14XalanDOMStringENS_18ReusableArenaBlockIS1_tEEE5resetEv(%"class.xalanc_1_10::ArenaAllocator"* %0), !dbg !2803
  ret void, !dbg !2804
}

; Function Attrs: noinline uwtable
define dso_local void @_ZN11xalanc_1_1019XalanDOMStringCache5resetEv(%"class.xalanc_1_10::XalanDOMStringCache"* %this) #0 align 2 !dbg !2805 {
entry:
  %this.addr = alloca %"class.xalanc_1_10::XalanDOMStringCache"*, align 8
  %theSize = alloca i64, align 8
  store %"class.xalanc_1_10::XalanDOMStringCache"* %this, %"class.xalanc_1_10::XalanDOMStringCache"** %this.addr, align 8
  call void @llvm.dbg.declare(metadata %"class.xalanc_1_10::XalanDOMStringCache"** %this.addr, metadata !2806, metadata !DIExpression()), !dbg !2807
  %this1 = load %"class.xalanc_1_10::XalanDOMStringCache"*, %"class.xalanc_1_10::XalanDOMStringCache"** %this.addr, align 8
  call void @llvm.dbg.declare(metadata i64* %theSize, metadata !2808, metadata !DIExpression()), !dbg !2810
  %m_availableList = getelementptr inbounds %"class.xalanc_1_10::XalanDOMStringCache", %"class.xalanc_1_10::XalanDOMStringCache"* %this1, i32 0, i32 0, !dbg !2811
  %call = call i64 @_ZNK11xalanc_1_1011XalanVectorIPNS_14XalanDOMStringENS_31MemoryManagedConstructionTraitsIS2_EEE4sizeEv(%"class.xalanc_1_10::XalanVector"* %m_availableList), !dbg !2812
  store i64 %call, i64* %theSize, align 8, !dbg !2810
  br label %while.cond, !dbg !2813

while.cond:                                       ; preds = %if.end, %entry
  %m_busyList = getelementptr inbounds %"class.xalanc_1_10::XalanDOMStringCache", %"class.xalanc_1_10::XalanDOMStringCache"* %this1, i32 0, i32 1, !dbg !2814
  %call2 = call zeroext i1 @_ZNK11xalanc_1_1011XalanVectorIPNS_14XalanDOMStringENS_31MemoryManagedConstructionTraitsIS2_EEE5emptyEv(%"class.xalanc_1_10::XalanVector"* %m_busyList), !dbg !2815
  %conv = zext i1 %call2 to i32, !dbg !2814
  %cmp = icmp eq i32 %conv, 0, !dbg !2816
  br i1 %cmp, label %while.body, label %while.end, !dbg !2813

while.body:                                       ; preds = %while.cond
  %0 = load i64, i64* %theSize, align 8, !dbg !2817
  %m_maximumSize = getelementptr inbounds %"class.xalanc_1_10::XalanDOMStringCache", %"class.xalanc_1_10::XalanDOMStringCache"* %this1, i32 0, i32 2, !dbg !2820
  %1 = load i32, i32* %m_maximumSize, align 8, !dbg !2820
  %conv3 = zext i32 %1 to i64, !dbg !2820
  %cmp4 = icmp ugt i64 %0, %conv3, !dbg !2821
  br i1 %cmp4, label %if.then, label %if.else, !dbg !2822

if.then:                                          ; preds = %while.body
  %m_allocator = getelementptr inbounds %"class.xalanc_1_10::XalanDOMStringCache", %"class.xalanc_1_10::XalanDOMStringCache"* %this1, i32 0, i32 4, !dbg !2823
  %m_busyList5 = getelementptr inbounds %"class.xalanc_1_10::XalanDOMStringCache", %"class.xalanc_1_10::XalanDOMStringCache"* %this1, i32 0, i32 1, !dbg !2825
  %call6 = call dereferenceable(8) %"class.xalanc_1_10::XalanDOMString"** @_ZN11xalanc_1_1011XalanVectorIPNS_14XalanDOMStringENS_31MemoryManagedConstructionTraitsIS2_EEE4backEv(%"class.xalanc_1_10::XalanVector"* %m_busyList5), !dbg !2826
  %2 = load %"class.xalanc_1_10::XalanDOMString"*, %"class.xalanc_1_10::XalanDOMString"** %call6, align 8, !dbg !2826
  %call7 = call zeroext i1 @_ZN11xalanc_1_1031XalanDOMStringReusableAllocator7destroyERNS_14XalanDOMStringE(%"class.xalanc_1_10::XalanDOMStringReusableAllocator"* %m_allocator, %"class.xalanc_1_10::XalanDOMString"* dereferenceable(40) %2), !dbg !2827
  br label %if.end, !dbg !2828

if.else:                                          ; preds = %while.body
  %m_busyList8 = getelementptr inbounds %"class.xalanc_1_10::XalanDOMStringCache", %"class.xalanc_1_10::XalanDOMStringCache"* %this1, i32 0, i32 1, !dbg !2829
  %call9 = call dereferenceable(8) %"class.xalanc_1_10::XalanDOMString"** @_ZN11xalanc_1_1011XalanVectorIPNS_14XalanDOMStringENS_31MemoryManagedConstructionTraitsIS2_EEE4backEv(%"class.xalanc_1_10::XalanVector"* %m_busyList8), !dbg !2831
  %3 = load %"class.xalanc_1_10::XalanDOMString"*, %"class.xalanc_1_10::XalanDOMString"** %call9, align 8, !dbg !2831
  call void @_ZN11xalanc_1_1014XalanDOMString5clearEv(%"class.xalanc_1_10::XalanDOMString"* %3), !dbg !2832
  %m_availableList10 = getelementptr inbounds %"class.xalanc_1_10::XalanDOMStringCache", %"class.xalanc_1_10::XalanDOMStringCache"* %this1, i32 0, i32 0, !dbg !2833
  %m_busyList11 = getelementptr inbounds %"class.xalanc_1_10::XalanDOMStringCache", %"class.xalanc_1_10::XalanDOMStringCache"* %this1, i32 0, i32 1, !dbg !2834
  %call12 = call dereferenceable(8) %"class.xalanc_1_10::XalanDOMString"** @_ZN11xalanc_1_1011XalanVectorIPNS_14XalanDOMStringENS_31MemoryManagedConstructionTraitsIS2_EEE4backEv(%"class.xalanc_1_10::XalanVector"* %m_busyList11), !dbg !2835
  call void @_ZN11xalanc_1_1011XalanVectorIPNS_14XalanDOMStringENS_31MemoryManagedConstructionTraitsIS2_EEE9push_backERKS2_(%"class.xalanc_1_10::XalanVector"* %m_availableList10, %"class.xalanc_1_10::XalanDOMString"** dereferenceable(8) %call12), !dbg !2836
  br label %if.end

if.end:                                           ; preds = %if.else, %if.then
  %m_busyList13 = getelementptr inbounds %"class.xalanc_1_10::XalanDOMStringCache", %"class.xalanc_1_10::XalanDOMStringCache"* %this1, i32 0, i32 1, !dbg !2837
  call void @_ZN11xalanc_1_1011XalanVectorIPNS_14XalanDOMStringENS_31MemoryManagedConstructionTraitsIS2_EEE8pop_backEv(%"class.xalanc_1_10::XalanVector"* %m_busyList13), !dbg !2838
  br label %while.cond, !dbg !2813, !llvm.loop !2839

while.end:                                        ; preds = %while.cond
  ret void, !dbg !2841
}

; Function Attrs: noinline uwtable
define linkonce_odr dso_local void @_ZN11xalanc_1_1014XalanDOMString5clearEv(%"class.xalanc_1_10::XalanDOMString"* %this) #0 comdat align 2 !dbg !2842 {
entry:
  %this.addr = alloca %"class.xalanc_1_10::XalanDOMString"*, align 8
  store %"class.xalanc_1_10::XalanDOMString"* %this, %"class.xalanc_1_10::XalanDOMString"** %this.addr, align 8
  call void @llvm.dbg.declare(metadata %"class.xalanc_1_10::XalanDOMString"** %this.addr, metadata !2843, metadata !DIExpression()), !dbg !2844
  %this1 = load %"class.xalanc_1_10::XalanDOMString"*, %"class.xalanc_1_10::XalanDOMString"** %this.addr, align 8
  call void @_ZNK11xalanc_1_1014XalanDOMString10invariantsEv(%"class.xalanc_1_10::XalanDOMString"* %this1), !dbg !2845
  %m_data = getelementptr inbounds %"class.xalanc_1_10::XalanDOMString", %"class.xalanc_1_10::XalanDOMString"* %this1, i32 0, i32 0, !dbg !2846
  %m_data2 = getelementptr inbounds %"class.xalanc_1_10::XalanDOMString", %"class.xalanc_1_10::XalanDOMString"* %this1, i32 0, i32 0, !dbg !2847
  %call = call i16* @_ZN11xalanc_1_1011XalanVectorItNS_31MemoryManagedConstructionTraitsItEEE5beginEv(%"class.xalanc_1_10::XalanVector.0"* %m_data2), !dbg !2848
  %m_data3 = getelementptr inbounds %"class.xalanc_1_10::XalanDOMString", %"class.xalanc_1_10::XalanDOMString"* %this1, i32 0, i32 0, !dbg !2849
  %call4 = call i16* @_ZN11xalanc_1_1011XalanVectorItNS_31MemoryManagedConstructionTraitsItEEE3endEv(%"class.xalanc_1_10::XalanVector.0"* %m_data3), !dbg !2850
  %call5 = call i16* @_ZN11xalanc_1_1011XalanVectorItNS_31MemoryManagedConstructionTraitsItEEE5eraseEPtS4_(%"class.xalanc_1_10::XalanVector.0"* %m_data, i16* %call, i16* %call4), !dbg !2851
  %m_size = getelementptr inbounds %"class.xalanc_1_10::XalanDOMString", %"class.xalanc_1_10::XalanDOMString"* %this1, i32 0, i32 1, !dbg !2852
  store i32 0, i32* %m_size, align 8, !dbg !2853
  call void @_ZNK11xalanc_1_1014XalanDOMString10invariantsEv(%"class.xalanc_1_10::XalanDOMString"* %this1), !dbg !2854
  ret void, !dbg !2855
}

; Function Attrs: noinline uwtable
define linkonce_odr dso_local zeroext i1 @_ZN11xalanc_1_1022ReusableArenaAllocatorINS_14XalanDOMStringEE13destroyObjectEPS1_(%"class.xalanc_1_10::ReusableArenaAllocator"* %this, %"class.xalanc_1_10::XalanDOMString"* %theObject) #0 comdat align 2 !dbg !2856 {
entry:
  %retval = alloca i1, align 1
  %this.addr = alloca %"class.xalanc_1_10::ReusableArenaAllocator"*, align 8
  %theObject.addr = alloca %"class.xalanc_1_10::XalanDOMString"*, align 8
  %bResult = alloca i8, align 1
  %iTerator = alloca %"struct.xalanc_1_10::XalanListIteratorBase", align 8
  %iEnd = alloca %"struct.xalanc_1_10::XalanListIteratorBase", align 8
  %ref.tmp = alloca %"struct.xalanc_1_10::XalanListIteratorBase", align 8
  %block = alloca %"class.xalanc_1_10::ReusableArenaBlock"*, align 8
  %agg.tmp = alloca %"struct.xalanc_1_10::XalanListIteratorBase", align 8
  %tmp = alloca %"struct.xalanc_1_10::XalanListIteratorBase", align 8
  %rIterator = alloca %"class.std::reverse_iterator", align 8
  %rEnd = alloca %"class.std::reverse_iterator", align 8
  %ref.tmp34 = alloca %"class.std::reverse_iterator", align 8
  %block38 = alloca %"class.xalanc_1_10::ReusableArenaBlock"*, align 8
  %agg.tmp41 = alloca %"struct.xalanc_1_10::XalanListIteratorBase", align 8
  store %"class.xalanc_1_10::ReusableArenaAllocator"* %this, %"class.xalanc_1_10::ReusableArenaAllocator"** %this.addr, align 8
  call void @llvm.dbg.declare(metadata %"class.xalanc_1_10::ReusableArenaAllocator"** %this.addr, metadata !2861, metadata !DIExpression()), !dbg !2863
  store %"class.xalanc_1_10::XalanDOMString"* %theObject, %"class.xalanc_1_10::XalanDOMString"** %theObject.addr, align 8
  call void @llvm.dbg.declare(metadata %"class.xalanc_1_10::XalanDOMString"** %theObject.addr, metadata !2864, metadata !DIExpression()), !dbg !2865
  %this1 = load %"class.xalanc_1_10::ReusableArenaAllocator"*, %"class.xalanc_1_10::ReusableArenaAllocator"** %this.addr, align 8
  call void @llvm.dbg.declare(metadata i8* %bResult, metadata !2866, metadata !DIExpression()), !dbg !2867
  store i8 0, i8* %bResult, align 1, !dbg !2867
  %0 = bitcast %"class.xalanc_1_10::ReusableArenaAllocator"* %this1 to %"class.xalanc_1_10::ArenaAllocator"*, !dbg !2868
  %m_blocks = getelementptr inbounds %"class.xalanc_1_10::ArenaAllocator", %"class.xalanc_1_10::ArenaAllocator"* %0, i32 0, i32 2, !dbg !2868
  %call = call zeroext i1 @_ZNK11xalanc_1_109XalanListIPNS_18ReusableArenaBlockINS_14XalanDOMStringEtEEE5emptyEv(%"class.xalanc_1_10::XalanList"* %m_blocks), !dbg !2870
  br i1 %call, label %if.then, label %if.end, !dbg !2871

if.then:                                          ; preds = %entry
  %1 = load i8, i8* %bResult, align 1, !dbg !2872
  %tobool = trunc i8 %1 to i1, !dbg !2872
  store i1 %tobool, i1* %retval, align 1, !dbg !2873
  br label %return, !dbg !2873

if.end:                                           ; preds = %entry
  call void @llvm.dbg.declare(metadata %"struct.xalanc_1_10::XalanListIteratorBase"* %iTerator, metadata !2874, metadata !DIExpression()), !dbg !2876
  %2 = bitcast %"class.xalanc_1_10::ReusableArenaAllocator"* %this1 to %"class.xalanc_1_10::ArenaAllocator"*, !dbg !2877
  %m_blocks2 = getelementptr inbounds %"class.xalanc_1_10::ArenaAllocator", %"class.xalanc_1_10::ArenaAllocator"* %2, i32 0, i32 2, !dbg !2877
  call void @_ZN11xalanc_1_109XalanListIPNS_18ReusableArenaBlockINS_14XalanDOMStringEtEEE5beginEv(%"struct.xalanc_1_10::XalanListIteratorBase"* sret %iTerator, %"class.xalanc_1_10::XalanList"* %m_blocks2), !dbg !2878
  call void @llvm.dbg.declare(metadata %"struct.xalanc_1_10::XalanListIteratorBase"* %iEnd, metadata !2879, metadata !DIExpression()), !dbg !2880
  %3 = bitcast %"class.xalanc_1_10::ReusableArenaAllocator"* %this1 to %"class.xalanc_1_10::ArenaAllocator"*, !dbg !2881
  %m_blocks3 = getelementptr inbounds %"class.xalanc_1_10::ArenaAllocator", %"class.xalanc_1_10::ArenaAllocator"* %3, i32 0, i32 2, !dbg !2881
  call void @_ZN11xalanc_1_109XalanListIPNS_18ReusableArenaBlockINS_14XalanDOMStringEtEEE3endEv(%"struct.xalanc_1_10::XalanListIteratorBase"* sret %iEnd, %"class.xalanc_1_10::XalanList"* %m_blocks3), !dbg !2882
  br label %while.cond, !dbg !2883

while.cond:                                       ; preds = %if.end21, %if.end
  %call4 = call zeroext i1 @_ZNK11xalanc_1_1021XalanListIteratorBaseINS_23XalanListIteratorTraitsIPNS_18ReusableArenaBlockINS_14XalanDOMStringEtEEEENS_9XalanListIS5_E4NodeEEneERKSA_(%"struct.xalanc_1_10::XalanListIteratorBase"* %iTerator, %"struct.xalanc_1_10::XalanListIteratorBase"* dereferenceable(8) %iEnd), !dbg !2884
  br i1 %call4, label %land.rhs, label %land.end, !dbg !2885

land.rhs:                                         ; preds = %while.cond
  %call5 = call dereferenceable(8) %"class.xalanc_1_10::ReusableArenaBlock"** @_ZNK11xalanc_1_1021XalanListIteratorBaseINS_23XalanListIteratorTraitsIPNS_18ReusableArenaBlockINS_14XalanDOMStringEtEEEENS_9XalanListIS5_E4NodeEEdeEv(%"struct.xalanc_1_10::XalanListIteratorBase"* %iTerator), !dbg !2886
  %4 = load %"class.xalanc_1_10::ReusableArenaBlock"*, %"class.xalanc_1_10::ReusableArenaBlock"** %call5, align 8, !dbg !2886
  %5 = bitcast %"class.xalanc_1_10::ReusableArenaBlock"* %4 to %"class.xalanc_1_10::ArenaBlockBase"*, !dbg !2887
  %call6 = call zeroext i1 @_ZNK11xalanc_1_1014ArenaBlockBaseINS_14XalanDOMStringEtE14blockAvailableEv(%"class.xalanc_1_10::ArenaBlockBase"* %5), !dbg !2887
  br label %land.end

land.end:                                         ; preds = %land.rhs, %while.cond
  %6 = phi i1 [ false, %while.cond ], [ %call6, %land.rhs ], !dbg !2863
  br i1 %6, label %while.body, label %while.end, !dbg !2883

while.body:                                       ; preds = %land.end
  %call7 = call dereferenceable(8) %"class.xalanc_1_10::ReusableArenaBlock"** @_ZNK11xalanc_1_1021XalanListIteratorBaseINS_23XalanListIteratorTraitsIPNS_18ReusableArenaBlockINS_14XalanDOMStringEtEEEENS_9XalanListIS5_E4NodeEEdeEv(%"struct.xalanc_1_10::XalanListIteratorBase"* %iTerator), !dbg !2888
  %7 = load %"class.xalanc_1_10::ReusableArenaBlock"*, %"class.xalanc_1_10::ReusableArenaBlock"** %call7, align 8, !dbg !2888
  %8 = bitcast %"class.xalanc_1_10::ReusableArenaBlock"* %7 to %"class.xalanc_1_10::ArenaBlockBase"*, !dbg !2891
  %9 = load %"class.xalanc_1_10::XalanDOMString"*, %"class.xalanc_1_10::XalanDOMString"** %theObject.addr, align 8, !dbg !2892
  %call8 = call zeroext i1 @_ZNK11xalanc_1_1014ArenaBlockBaseINS_14XalanDOMStringEtE9ownsBlockEPKS1_(%"class.xalanc_1_10::ArenaBlockBase"* %8, %"class.xalanc_1_10::XalanDOMString"* %9), !dbg !2891
  %conv = zext i1 %call8 to i32, !dbg !2893
  %cmp = icmp eq i32 %conv, 1, !dbg !2894
  br i1 %cmp, label %if.then9, label %if.end21, !dbg !2895

if.then9:                                         ; preds = %while.body
  %call10 = call dereferenceable(8) %"class.xalanc_1_10::ReusableArenaBlock"** @_ZNK11xalanc_1_1021XalanListIteratorBaseINS_23XalanListIteratorTraitsIPNS_18ReusableArenaBlockINS_14XalanDOMStringEtEEEENS_9XalanListIS5_E4NodeEEdeEv(%"struct.xalanc_1_10::XalanListIteratorBase"* %iTerator), !dbg !2896
  %10 = load %"class.xalanc_1_10::ReusableArenaBlock"*, %"class.xalanc_1_10::ReusableArenaBlock"** %call10, align 8, !dbg !2896
  %11 = load %"class.xalanc_1_10::XalanDOMString"*, %"class.xalanc_1_10::XalanDOMString"** %theObject.addr, align 8, !dbg !2898
  call void @_ZN11xalanc_1_1018ReusableArenaBlockINS_14XalanDOMStringEtE13destroyObjectEPS1_(%"class.xalanc_1_10::ReusableArenaBlock"* %10, %"class.xalanc_1_10::XalanDOMString"* %11), !dbg !2899
  %12 = bitcast %"class.xalanc_1_10::ReusableArenaAllocator"* %this1 to %"class.xalanc_1_10::ArenaAllocator"*, !dbg !2900
  %m_blocks11 = getelementptr inbounds %"class.xalanc_1_10::ArenaAllocator", %"class.xalanc_1_10::ArenaAllocator"* %12, i32 0, i32 2, !dbg !2900
  call void @_ZN11xalanc_1_109XalanListIPNS_18ReusableArenaBlockINS_14XalanDOMStringEtEEE5beginEv(%"struct.xalanc_1_10::XalanListIteratorBase"* sret %ref.tmp, %"class.xalanc_1_10::XalanList"* %m_blocks11), !dbg !2902
  %call12 = call zeroext i1 @_ZNK11xalanc_1_1021XalanListIteratorBaseINS_23XalanListIteratorTraitsIPNS_18ReusableArenaBlockINS_14XalanDOMStringEtEEEENS_9XalanListIS5_E4NodeEEneERKSA_(%"struct.xalanc_1_10::XalanListIteratorBase"* %iTerator, %"struct.xalanc_1_10::XalanListIteratorBase"* dereferenceable(8) %ref.tmp), !dbg !2903
  br i1 %call12, label %if.then13, label %if.end17, !dbg !2904

if.then13:                                        ; preds = %if.then9
  call void @llvm.dbg.declare(metadata %"class.xalanc_1_10::ReusableArenaBlock"** %block, metadata !2905, metadata !DIExpression()), !dbg !2909
  %call14 = call dereferenceable(8) %"class.xalanc_1_10::ReusableArenaBlock"** @_ZNK11xalanc_1_1021XalanListIteratorBaseINS_23XalanListIteratorTraitsIPNS_18ReusableArenaBlockINS_14XalanDOMStringEtEEEENS_9XalanListIS5_E4NodeEEdeEv(%"struct.xalanc_1_10::XalanListIteratorBase"* %iTerator), !dbg !2910
  %13 = load %"class.xalanc_1_10::ReusableArenaBlock"*, %"class.xalanc_1_10::ReusableArenaBlock"** %call14, align 8, !dbg !2910
  store %"class.xalanc_1_10::ReusableArenaBlock"* %13, %"class.xalanc_1_10::ReusableArenaBlock"** %block, align 8, !dbg !2909
  %14 = bitcast %"class.xalanc_1_10::ReusableArenaAllocator"* %this1 to %"class.xalanc_1_10::ArenaAllocator"*, !dbg !2911
  %m_blocks15 = getelementptr inbounds %"class.xalanc_1_10::ArenaAllocator", %"class.xalanc_1_10::ArenaAllocator"* %14, i32 0, i32 2, !dbg !2911
  call void @_ZN11xalanc_1_1021XalanListIteratorBaseINS_23XalanListIteratorTraitsIPNS_18ReusableArenaBlockINS_14XalanDOMStringEtEEEENS_9XalanListIS5_E4NodeEEC2ERKSA_(%"struct.xalanc_1_10::XalanListIteratorBase"* %agg.tmp, %"struct.xalanc_1_10::XalanListIteratorBase"* dereferenceable(8) %iTerator), !dbg !2912
  call void @_ZN11xalanc_1_109XalanListIPNS_18ReusableArenaBlockINS_14XalanDOMStringEtEEE5eraseENS_21XalanListIteratorBaseINS_23XalanListIteratorTraitsIS4_EENS5_4NodeEEE(%"class.xalanc_1_10::XalanList"* %m_blocks15, %"struct.xalanc_1_10::XalanListIteratorBase"* %agg.tmp), !dbg !2913
  %15 = bitcast %"class.xalanc_1_10::ReusableArenaAllocator"* %this1 to %"class.xalanc_1_10::ArenaAllocator"*, !dbg !2914
  %m_blocks16 = getelementptr inbounds %"class.xalanc_1_10::ArenaAllocator", %"class.xalanc_1_10::ArenaAllocator"* %15, i32 0, i32 2, !dbg !2914
  call void @_ZN11xalanc_1_109XalanListIPNS_18ReusableArenaBlockINS_14XalanDOMStringEtEEE10push_frontERKS4_(%"class.xalanc_1_10::XalanList"* %m_blocks16, %"class.xalanc_1_10::ReusableArenaBlock"** dereferenceable(8) %block), !dbg !2915
  br label %if.end17, !dbg !2916

if.end17:                                         ; preds = %if.then13, %if.then9
  %m_destroyBlocks = getelementptr inbounds %"class.xalanc_1_10::ReusableArenaAllocator", %"class.xalanc_1_10::ReusableArenaAllocator"* %this1, i32 0, i32 1, !dbg !2917
  %16 = load i8, i8* %m_destroyBlocks, align 8, !dbg !2917
  %tobool18 = trunc i8 %16 to i1, !dbg !2917
  br i1 %tobool18, label %if.then19, label %if.end20, !dbg !2919

if.then19:                                        ; preds = %if.end17
  call void @_ZN11xalanc_1_1022ReusableArenaAllocatorINS_14XalanDOMStringEE12destroyBlockEv(%"class.xalanc_1_10::ReusableArenaAllocator"* %this1), !dbg !2920
  br label %if.end20, !dbg !2922

if.end20:                                         ; preds = %if.then19, %if.end17
  store i8 1, i8* %bResult, align 1, !dbg !2923
  br label %while.end, !dbg !2924

if.end21:                                         ; preds = %while.body
  call void @_ZN11xalanc_1_1021XalanListIteratorBaseINS_23XalanListIteratorTraitsIPNS_18ReusableArenaBlockINS_14XalanDOMStringEtEEEENS_9XalanListIS5_E4NodeEEppEv(%"struct.xalanc_1_10::XalanListIteratorBase"* sret %tmp, %"struct.xalanc_1_10::XalanListIteratorBase"* %iTerator), !dbg !2925
  br label %while.cond, !dbg !2883, !llvm.loop !2926

while.end:                                        ; preds = %if.end20, %land.end
  call void @llvm.dbg.declare(metadata %"class.std::reverse_iterator"* %rIterator, metadata !2928, metadata !DIExpression()), !dbg !2930
  %17 = bitcast %"class.xalanc_1_10::ReusableArenaAllocator"* %this1 to %"class.xalanc_1_10::ArenaAllocator"*, !dbg !2931
  %m_blocks22 = getelementptr inbounds %"class.xalanc_1_10::ArenaAllocator", %"class.xalanc_1_10::ArenaAllocator"* %17, i32 0, i32 2, !dbg !2931
  call void @_ZN11xalanc_1_109XalanListIPNS_18ReusableArenaBlockINS_14XalanDOMStringEtEEE6rbeginEv(%"class.std::reverse_iterator"* sret %rIterator, %"class.xalanc_1_10::XalanList"* %m_blocks22), !dbg !2932
  call void @llvm.dbg.declare(metadata %"class.std::reverse_iterator"* %rEnd, metadata !2933, metadata !DIExpression()), !dbg !2934
  %18 = bitcast %"class.xalanc_1_10::ReusableArenaAllocator"* %this1 to %"class.xalanc_1_10::ArenaAllocator"*, !dbg !2935
  %m_blocks23 = getelementptr inbounds %"class.xalanc_1_10::ArenaAllocator", %"class.xalanc_1_10::ArenaAllocator"* %18, i32 0, i32 2, !dbg !2935
  call void @_ZN11xalanc_1_109XalanListIPNS_18ReusableArenaBlockINS_14XalanDOMStringEtEEE4rendEv(%"class.std::reverse_iterator"* sret %rEnd, %"class.xalanc_1_10::XalanList"* %m_blocks23), !dbg !2936
  br label %while.cond24, !dbg !2937

while.cond24:                                     ; preds = %if.end54, %while.end
  %19 = load i8, i8* %bResult, align 1, !dbg !2938
  %tobool25 = trunc i8 %19 to i1, !dbg !2938
  br i1 %tobool25, label %land.end28, label %land.rhs26, !dbg !2939

land.rhs26:                                       ; preds = %while.cond24
  %call27 = call zeroext i1 @_ZStneIN11xalanc_1_1021XalanListIteratorBaseINS0_23XalanListIteratorTraitsIPNS0_18ReusableArenaBlockINS0_14XalanDOMStringEtEEEENS0_9XalanListIS6_E4NodeEEEEbRKSt16reverse_iteratorIT_ESG_(%"class.std::reverse_iterator"* dereferenceable(8) %rIterator, %"class.std::reverse_iterator"* dereferenceable(8) %rEnd), !dbg !2940
  br label %land.end28

land.end28:                                       ; preds = %land.rhs26, %while.cond24
  %20 = phi i1 [ false, %while.cond24 ], [ %call27, %land.rhs26 ], !dbg !2863
  br i1 %20, label %while.body29, label %while.end55, !dbg !2937

while.body29:                                     ; preds = %land.end28
  %call30 = call dereferenceable(8) %"class.xalanc_1_10::ReusableArenaBlock"** @_ZNKSt16reverse_iteratorIN11xalanc_1_1021XalanListIteratorBaseINS0_23XalanListIteratorTraitsIPNS0_18ReusableArenaBlockINS0_14XalanDOMStringEtEEEENS0_9XalanListIS6_E4NodeEEEEdeEv(%"class.std::reverse_iterator"* %rIterator), !dbg !2941
  %21 = load %"class.xalanc_1_10::ReusableArenaBlock"*, %"class.xalanc_1_10::ReusableArenaBlock"** %call30, align 8, !dbg !2941
  %22 = bitcast %"class.xalanc_1_10::ReusableArenaBlock"* %21 to %"class.xalanc_1_10::ArenaBlockBase"*, !dbg !2944
  %23 = load %"class.xalanc_1_10::XalanDOMString"*, %"class.xalanc_1_10::XalanDOMString"** %theObject.addr, align 8, !dbg !2945
  %call31 = call zeroext i1 @_ZNK11xalanc_1_1014ArenaBlockBaseINS_14XalanDOMStringEtE9ownsBlockEPKS1_(%"class.xalanc_1_10::ArenaBlockBase"* %22, %"class.xalanc_1_10::XalanDOMString"* %23), !dbg !2944
  br i1 %call31, label %if.then32, label %if.end48, !dbg !2946

if.then32:                                        ; preds = %while.body29
  %call33 = call dereferenceable(8) %"class.xalanc_1_10::ReusableArenaBlock"** @_ZNKSt16reverse_iteratorIN11xalanc_1_1021XalanListIteratorBaseINS0_23XalanListIteratorTraitsIPNS0_18ReusableArenaBlockINS0_14XalanDOMStringEtEEEENS0_9XalanListIS6_E4NodeEEEEdeEv(%"class.std::reverse_iterator"* %rIterator), !dbg !2947
  %24 = load %"class.xalanc_1_10::ReusableArenaBlock"*, %"class.xalanc_1_10::ReusableArenaBlock"** %call33, align 8, !dbg !2947
  %25 = load %"class.xalanc_1_10::XalanDOMString"*, %"class.xalanc_1_10::XalanDOMString"** %theObject.addr, align 8, !dbg !2949
  call void @_ZN11xalanc_1_1018ReusableArenaBlockINS_14XalanDOMStringEtE13destroyObjectEPS1_(%"class.xalanc_1_10::ReusableArenaBlock"* %24, %"class.xalanc_1_10::XalanDOMString"* %25), !dbg !2950
  %26 = bitcast %"class.xalanc_1_10::ReusableArenaAllocator"* %this1 to %"class.xalanc_1_10::ArenaAllocator"*, !dbg !2951
  %m_blocks35 = getelementptr inbounds %"class.xalanc_1_10::ArenaAllocator", %"class.xalanc_1_10::ArenaAllocator"* %26, i32 0, i32 2, !dbg !2951
  call void @_ZN11xalanc_1_109XalanListIPNS_18ReusableArenaBlockINS_14XalanDOMStringEtEEE6rbeginEv(%"class.std::reverse_iterator"* sret %ref.tmp34, %"class.xalanc_1_10::XalanList"* %m_blocks35), !dbg !2953
  %call36 = call zeroext i1 @_ZStneIN11xalanc_1_1021XalanListIteratorBaseINS0_23XalanListIteratorTraitsIPNS0_18ReusableArenaBlockINS0_14XalanDOMStringEtEEEENS0_9XalanListIS6_E4NodeEEEEbRKSt16reverse_iteratorIT_ESG_(%"class.std::reverse_iterator"* dereferenceable(8) %rIterator, %"class.std::reverse_iterator"* dereferenceable(8) %ref.tmp34), !dbg !2954
  br i1 %call36, label %if.then37, label %if.end43, !dbg !2955

if.then37:                                        ; preds = %if.then32
  call void @llvm.dbg.declare(metadata %"class.xalanc_1_10::ReusableArenaBlock"** %block38, metadata !2956, metadata !DIExpression()), !dbg !2958
  %call39 = call dereferenceable(8) %"class.xalanc_1_10::ReusableArenaBlock"** @_ZNK11xalanc_1_1021XalanListIteratorBaseINS_23XalanListIteratorTraitsIPNS_18ReusableArenaBlockINS_14XalanDOMStringEtEEEENS_9XalanListIS5_E4NodeEEdeEv(%"struct.xalanc_1_10::XalanListIteratorBase"* %iTerator), !dbg !2959
  %27 = load %"class.xalanc_1_10::ReusableArenaBlock"*, %"class.xalanc_1_10::ReusableArenaBlock"** %call39, align 8, !dbg !2959
  store %"class.xalanc_1_10::ReusableArenaBlock"* %27, %"class.xalanc_1_10::ReusableArenaBlock"** %block38, align 8, !dbg !2958
  %28 = bitcast %"class.xalanc_1_10::ReusableArenaAllocator"* %this1 to %"class.xalanc_1_10::ArenaAllocator"*, !dbg !2960
  %m_blocks40 = getelementptr inbounds %"class.xalanc_1_10::ArenaAllocator", %"class.xalanc_1_10::ArenaAllocator"* %28, i32 0, i32 2, !dbg !2960
  call void @_ZN11xalanc_1_1021XalanListIteratorBaseINS_23XalanListIteratorTraitsIPNS_18ReusableArenaBlockINS_14XalanDOMStringEtEEEENS_9XalanListIS5_E4NodeEEC2ERKSA_(%"struct.xalanc_1_10::XalanListIteratorBase"* %agg.tmp41, %"struct.xalanc_1_10::XalanListIteratorBase"* dereferenceable(8) %iTerator), !dbg !2961
  call void @_ZN11xalanc_1_109XalanListIPNS_18ReusableArenaBlockINS_14XalanDOMStringEtEEE5eraseENS_21XalanListIteratorBaseINS_23XalanListIteratorTraitsIS4_EENS5_4NodeEEE(%"class.xalanc_1_10::XalanList"* %m_blocks40, %"struct.xalanc_1_10::XalanListIteratorBase"* %agg.tmp41), !dbg !2962
  %29 = bitcast %"class.xalanc_1_10::ReusableArenaAllocator"* %this1 to %"class.xalanc_1_10::ArenaAllocator"*, !dbg !2963
  %m_blocks42 = getelementptr inbounds %"class.xalanc_1_10::ArenaAllocator", %"class.xalanc_1_10::ArenaAllocator"* %29, i32 0, i32 2, !dbg !2963
  call void @_ZN11xalanc_1_109XalanListIPNS_18ReusableArenaBlockINS_14XalanDOMStringEtEEE10push_frontERKS4_(%"class.xalanc_1_10::XalanList"* %m_blocks42, %"class.xalanc_1_10::ReusableArenaBlock"** dereferenceable(8) %block38), !dbg !2964
  br label %if.end43, !dbg !2965

if.end43:                                         ; preds = %if.then37, %if.then32
  %m_destroyBlocks44 = getelementptr inbounds %"class.xalanc_1_10::ReusableArenaAllocator", %"class.xalanc_1_10::ReusableArenaAllocator"* %this1, i32 0, i32 1, !dbg !2966
  %30 = load i8, i8* %m_destroyBlocks44, align 8, !dbg !2966
  %tobool45 = trunc i8 %30 to i1, !dbg !2966
  br i1 %tobool45, label %if.then46, label %if.end47, !dbg !2968

if.then46:                                        ; preds = %if.end43
  call void @_ZN11xalanc_1_1022ReusableArenaAllocatorINS_14XalanDOMStringEE12destroyBlockEv(%"class.xalanc_1_10::ReusableArenaAllocator"* %this1), !dbg !2969
  br label %if.end47, !dbg !2971

if.end47:                                         ; preds = %if.then46, %if.end43
  store i8 1, i8* %bResult, align 1, !dbg !2972
  br label %while.end55, !dbg !2973

if.end48:                                         ; preds = %while.body29
  %call49 = call dereferenceable(8) %"class.xalanc_1_10::ReusableArenaBlock"** @_ZNKSt16reverse_iteratorIN11xalanc_1_1021XalanListIteratorBaseINS0_23XalanListIteratorTraitsIPNS0_18ReusableArenaBlockINS0_14XalanDOMStringEtEEEENS0_9XalanListIS6_E4NodeEEEEdeEv(%"class.std::reverse_iterator"* %rIterator), !dbg !2974
  %31 = load %"class.xalanc_1_10::ReusableArenaBlock"*, %"class.xalanc_1_10::ReusableArenaBlock"** %call49, align 8, !dbg !2974
  %call50 = call dereferenceable(8) %"class.xalanc_1_10::ReusableArenaBlock"** @_ZNK11xalanc_1_1021XalanListIteratorBaseINS_23XalanListIteratorTraitsIPNS_18ReusableArenaBlockINS_14XalanDOMStringEtEEEENS_9XalanListIS5_E4NodeEEdeEv(%"struct.xalanc_1_10::XalanListIteratorBase"* %iTerator), !dbg !2976
  %32 = load %"class.xalanc_1_10::ReusableArenaBlock"*, %"class.xalanc_1_10::ReusableArenaBlock"** %call50, align 8, !dbg !2976
  %cmp51 = icmp eq %"class.xalanc_1_10::ReusableArenaBlock"* %31, %32, !dbg !2977
  br i1 %cmp51, label %if.then52, label %if.else, !dbg !2978

if.then52:                                        ; preds = %if.end48
  br label %while.end55, !dbg !2979

if.else:                                          ; preds = %if.end48
  %call53 = call dereferenceable(8) %"class.std::reverse_iterator"* @_ZNSt16reverse_iteratorIN11xalanc_1_1021XalanListIteratorBaseINS0_23XalanListIteratorTraitsIPNS0_18ReusableArenaBlockINS0_14XalanDOMStringEtEEEENS0_9XalanListIS6_E4NodeEEEEppEv(%"class.std::reverse_iterator"* %rIterator), !dbg !2981
  br label %if.end54

if.end54:                                         ; preds = %if.else
  br label %while.cond24, !dbg !2937, !llvm.loop !2983

while.end55:                                      ; preds = %if.then52, %if.end47, %land.end28
  %33 = load i8, i8* %bResult, align 1, !dbg !2985
  %tobool56 = trunc i8 %33 to i1, !dbg !2985
  store i1 %tobool56, i1* %retval, align 1, !dbg !2986
  br label %return, !dbg !2986

return:                                           ; preds = %while.end55, %if.then
  %34 = load i1, i1* %retval, align 1, !dbg !2987
  ret i1 %34, !dbg !2987
}

; Function Attrs: noinline uwtable
define linkonce_odr dso_local zeroext i1 @_ZNK11xalanc_1_109XalanListIPNS_18ReusableArenaBlockINS_14XalanDOMStringEtEEE5emptyEv(%"class.xalanc_1_10::XalanList"* %this) #0 comdat align 2 !dbg !2988 {
entry:
  %this.addr = alloca %"class.xalanc_1_10::XalanList"*, align 8
  %ref.tmp = alloca %"struct.xalanc_1_10::XalanListIteratorBase.1", align 8
  %ref.tmp2 = alloca %"struct.xalanc_1_10::XalanListIteratorBase.1", align 8
  store %"class.xalanc_1_10::XalanList"* %this, %"class.xalanc_1_10::XalanList"** %this.addr, align 8
  call void @llvm.dbg.declare(metadata %"class.xalanc_1_10::XalanList"** %this.addr, metadata !2989, metadata !DIExpression()), !dbg !2991
  %this1 = load %"class.xalanc_1_10::XalanList"*, %"class.xalanc_1_10::XalanList"** %this.addr, align 8
  %call = call %"struct.xalanc_1_10::XalanList<xalanc_1_10::ReusableArenaBlock<xalanc_1_10::XalanDOMString, unsigned short> *>::Node"* @_ZNK11xalanc_1_109XalanListIPNS_18ReusableArenaBlockINS_14XalanDOMStringEtEEE5beginEv(%"class.xalanc_1_10::XalanList"* %this1), !dbg !2992
  %coerce.dive = getelementptr inbounds %"struct.xalanc_1_10::XalanListIteratorBase.1", %"struct.xalanc_1_10::XalanListIteratorBase.1"* %ref.tmp, i32 0, i32 0, !dbg !2992
  store %"struct.xalanc_1_10::XalanList<xalanc_1_10::ReusableArenaBlock<xalanc_1_10::XalanDOMString, unsigned short> *>::Node"* %call, %"struct.xalanc_1_10::XalanList<xalanc_1_10::ReusableArenaBlock<xalanc_1_10::XalanDOMString, unsigned short> *>::Node"** %coerce.dive, align 8, !dbg !2992
  %call3 = call %"struct.xalanc_1_10::XalanList<xalanc_1_10::ReusableArenaBlock<xalanc_1_10::XalanDOMString, unsigned short> *>::Node"* @_ZNK11xalanc_1_109XalanListIPNS_18ReusableArenaBlockINS_14XalanDOMStringEtEEE3endEv(%"class.xalanc_1_10::XalanList"* %this1), !dbg !2993
  %coerce.dive4 = getelementptr inbounds %"struct.xalanc_1_10::XalanListIteratorBase.1", %"struct.xalanc_1_10::XalanListIteratorBase.1"* %ref.tmp2, i32 0, i32 0, !dbg !2993
  store %"struct.xalanc_1_10::XalanList<xalanc_1_10::ReusableArenaBlock<xalanc_1_10::XalanDOMString, unsigned short> *>::Node"* %call3, %"struct.xalanc_1_10::XalanList<xalanc_1_10::ReusableArenaBlock<xalanc_1_10::XalanDOMString, unsigned short> *>::Node"** %coerce.dive4, align 8, !dbg !2993
  %call5 = call zeroext i1 @_ZNK11xalanc_1_1021XalanListIteratorBaseINS_28XalanListConstIteratorTraitsIPNS_18ReusableArenaBlockINS_14XalanDOMStringEtEEEENS_9XalanListIS5_E4NodeEEeqERKSA_(%"struct.xalanc_1_10::XalanListIteratorBase.1"* %ref.tmp, %"struct.xalanc_1_10::XalanListIteratorBase.1"* dereferenceable(8) %ref.tmp2), !dbg !2994
  %conv = zext i1 %call5 to i32, !dbg !2995
  %cmp = icmp ne i32 %conv, 0, !dbg !2996
  ret i1 %cmp, !dbg !2997
}

; Function Attrs: noinline uwtable
define linkonce_odr dso_local void @_ZN11xalanc_1_109XalanListIPNS_18ReusableArenaBlockINS_14XalanDOMStringEtEEE5beginEv(%"struct.xalanc_1_10::XalanListIteratorBase"* noalias sret %agg.result, %"class.xalanc_1_10::XalanList"* %this) #0 comdat align 2 !dbg !2998 {
entry:
  %result.ptr = alloca i8*, align 8
  %this.addr = alloca %"class.xalanc_1_10::XalanList"*, align 8
  %0 = bitcast %"struct.xalanc_1_10::XalanListIteratorBase"* %agg.result to i8*
  store i8* %0, i8** %result.ptr, align 8
  store %"class.xalanc_1_10::XalanList"* %this, %"class.xalanc_1_10::XalanList"** %this.addr, align 8
  call void @llvm.dbg.declare(metadata %"class.xalanc_1_10::XalanList"** %this.addr, metadata !2999, metadata !DIExpression()), !dbg !3000
  %this1 = load %"class.xalanc_1_10::XalanList"*, %"class.xalanc_1_10::XalanList"** %this.addr, align 8
  %call = call dereferenceable(24) %"struct.xalanc_1_10::XalanList<xalanc_1_10::ReusableArenaBlock<xalanc_1_10::XalanDOMString, unsigned short> *>::Node"* @_ZN11xalanc_1_109XalanListIPNS_18ReusableArenaBlockINS_14XalanDOMStringEtEEE11getListHeadEv(%"class.xalanc_1_10::XalanList"* %this1), !dbg !3001
  %next = getelementptr inbounds %"struct.xalanc_1_10::XalanList<xalanc_1_10::ReusableArenaBlock<xalanc_1_10::XalanDOMString, unsigned short> *>::Node", %"struct.xalanc_1_10::XalanList<xalanc_1_10::ReusableArenaBlock<xalanc_1_10::XalanDOMString, unsigned short> *>::Node"* %call, i32 0, i32 2, !dbg !3002
  %1 = load %"struct.xalanc_1_10::XalanList<xalanc_1_10::ReusableArenaBlock<xalanc_1_10::XalanDOMString, unsigned short> *>::Node"*, %"struct.xalanc_1_10::XalanList<xalanc_1_10::ReusableArenaBlock<xalanc_1_10::XalanDOMString, unsigned short> *>::Node"** %next, align 8, !dbg !3002
  call void @_ZN11xalanc_1_1021XalanListIteratorBaseINS_23XalanListIteratorTraitsIPNS_18ReusableArenaBlockINS_14XalanDOMStringEtEEEENS_9XalanListIS5_E4NodeEEC2ERS9_(%"struct.xalanc_1_10::XalanListIteratorBase"* %agg.result, %"struct.xalanc_1_10::XalanList<xalanc_1_10::ReusableArenaBlock<xalanc_1_10::XalanDOMString, unsigned short> *>::Node"* dereferenceable(24) %1), !dbg !3003
  ret void, !dbg !3004
}

; Function Attrs: noinline uwtable
define linkonce_odr dso_local void @_ZN11xalanc_1_109XalanListIPNS_18ReusableArenaBlockINS_14XalanDOMStringEtEEE3endEv(%"struct.xalanc_1_10::XalanListIteratorBase"* noalias sret %agg.result, %"class.xalanc_1_10::XalanList"* %this) #0 comdat align 2 !dbg !3005 {
entry:
  %result.ptr = alloca i8*, align 8
  %this.addr = alloca %"class.xalanc_1_10::XalanList"*, align 8
  %0 = bitcast %"struct.xalanc_1_10::XalanListIteratorBase"* %agg.result to i8*
  store i8* %0, i8** %result.ptr, align 8
  store %"class.xalanc_1_10::XalanList"* %this, %"class.xalanc_1_10::XalanList"** %this.addr, align 8
  call void @llvm.dbg.declare(metadata %"class.xalanc_1_10::XalanList"** %this.addr, metadata !3006, metadata !DIExpression()), !dbg !3007
  %this1 = load %"class.xalanc_1_10::XalanList"*, %"class.xalanc_1_10::XalanList"** %this.addr, align 8
  %call = call dereferenceable(24) %"struct.xalanc_1_10::XalanList<xalanc_1_10::ReusableArenaBlock<xalanc_1_10::XalanDOMString, unsigned short> *>::Node"* @_ZN11xalanc_1_109XalanListIPNS_18ReusableArenaBlockINS_14XalanDOMStringEtEEE11getListHeadEv(%"class.xalanc_1_10::XalanList"* %this1), !dbg !3008
  call void @_ZN11xalanc_1_1021XalanListIteratorBaseINS_23XalanListIteratorTraitsIPNS_18ReusableArenaBlockINS_14XalanDOMStringEtEEEENS_9XalanListIS5_E4NodeEEC2ERS9_(%"struct.xalanc_1_10::XalanListIteratorBase"* %agg.result, %"struct.xalanc_1_10::XalanList<xalanc_1_10::ReusableArenaBlock<xalanc_1_10::XalanDOMString, unsigned short> *>::Node"* dereferenceable(24) %call), !dbg !3009
  ret void, !dbg !3010
}

; Function Attrs: noinline uwtable
define linkonce_odr dso_local zeroext i1 @_ZNK11xalanc_1_1021XalanListIteratorBaseINS_23XalanListIteratorTraitsIPNS_18ReusableArenaBlockINS_14XalanDOMStringEtEEEENS_9XalanListIS5_E4NodeEEneERKSA_(%"struct.xalanc_1_10::XalanListIteratorBase"* %this, %"struct.xalanc_1_10::XalanListIteratorBase"* dereferenceable(8) %theRhs) #0 comdat align 2 !dbg !3011 {
entry:
  %this.addr = alloca %"struct.xalanc_1_10::XalanListIteratorBase"*, align 8
  %theRhs.addr = alloca %"struct.xalanc_1_10::XalanListIteratorBase"*, align 8
  store %"struct.xalanc_1_10::XalanListIteratorBase"* %this, %"struct.xalanc_1_10::XalanListIteratorBase"** %this.addr, align 8
  call void @llvm.dbg.declare(metadata %"struct.xalanc_1_10::XalanListIteratorBase"** %this.addr, metadata !3012, metadata !DIExpression()), !dbg !3014
  store %"struct.xalanc_1_10::XalanListIteratorBase"* %theRhs, %"struct.xalanc_1_10::XalanListIteratorBase"** %theRhs.addr, align 8
  call void @llvm.dbg.declare(metadata %"struct.xalanc_1_10::XalanListIteratorBase"** %theRhs.addr, metadata !3015, metadata !DIExpression()), !dbg !3016
  %this1 = load %"struct.xalanc_1_10::XalanListIteratorBase"*, %"struct.xalanc_1_10::XalanListIteratorBase"** %this.addr, align 8
  %0 = load %"struct.xalanc_1_10::XalanListIteratorBase"*, %"struct.xalanc_1_10::XalanListIteratorBase"** %theRhs.addr, align 8, !dbg !3017
  %call = call zeroext i1 @_ZNK11xalanc_1_1021XalanListIteratorBaseINS_23XalanListIteratorTraitsIPNS_18ReusableArenaBlockINS_14XalanDOMStringEtEEEENS_9XalanListIS5_E4NodeEEeqERKSA_(%"struct.xalanc_1_10::XalanListIteratorBase"* %this1, %"struct.xalanc_1_10::XalanListIteratorBase"* dereferenceable(8) %0), !dbg !3018
  %lnot = xor i1 %call, true, !dbg !3019
  ret i1 %lnot, !dbg !3020
}

; Function Attrs: noinline nounwind uwtable
define linkonce_odr dso_local dereferenceable(8) %"class.xalanc_1_10::ReusableArenaBlock"** @_ZNK11xalanc_1_1021XalanListIteratorBaseINS_23XalanListIteratorTraitsIPNS_18ReusableArenaBlockINS_14XalanDOMStringEtEEEENS_9XalanListIS5_E4NodeEEdeEv(%"struct.xalanc_1_10::XalanListIteratorBase"* %this) #3 comdat align 2 !dbg !3021 {
entry:
  %this.addr = alloca %"struct.xalanc_1_10::XalanListIteratorBase"*, align 8
  store %"struct.xalanc_1_10::XalanListIteratorBase"* %this, %"struct.xalanc_1_10::XalanListIteratorBase"** %this.addr, align 8
  call void @llvm.dbg.declare(metadata %"struct.xalanc_1_10::XalanListIteratorBase"** %this.addr, metadata !3022, metadata !DIExpression()), !dbg !3023
  %this1 = load %"struct.xalanc_1_10::XalanListIteratorBase"*, %"struct.xalanc_1_10::XalanListIteratorBase"** %this.addr, align 8
  %currentNode = getelementptr inbounds %"struct.xalanc_1_10::XalanListIteratorBase", %"struct.xalanc_1_10::XalanListIteratorBase"* %this1, i32 0, i32 0, !dbg !3024
  %0 = load %"struct.xalanc_1_10::XalanList<xalanc_1_10::ReusableArenaBlock<xalanc_1_10::XalanDOMString, unsigned short> *>::Node"*, %"struct.xalanc_1_10::XalanList<xalanc_1_10::ReusableArenaBlock<xalanc_1_10::XalanDOMString, unsigned short> *>::Node"** %currentNode, align 8, !dbg !3024
  %value = getelementptr inbounds %"struct.xalanc_1_10::XalanList<xalanc_1_10::ReusableArenaBlock<xalanc_1_10::XalanDOMString, unsigned short> *>::Node", %"struct.xalanc_1_10::XalanList<xalanc_1_10::ReusableArenaBlock<xalanc_1_10::XalanDOMString, unsigned short> *>::Node"* %0, i32 0, i32 0, !dbg !3025
  ret %"class.xalanc_1_10::ReusableArenaBlock"** %value, !dbg !3026
}

; Function Attrs: noinline nounwind uwtable
define linkonce_odr dso_local zeroext i1 @_ZNK11xalanc_1_1014ArenaBlockBaseINS_14XalanDOMStringEtE14blockAvailableEv(%"class.xalanc_1_10::ArenaBlockBase"* %this) #3 comdat align 2 !dbg !3027 {
entry:
  %this.addr = alloca %"class.xalanc_1_10::ArenaBlockBase"*, align 8
  store %"class.xalanc_1_10::ArenaBlockBase"* %this, %"class.xalanc_1_10::ArenaBlockBase"** %this.addr, align 8
  call void @llvm.dbg.declare(metadata %"class.xalanc_1_10::ArenaBlockBase"** %this.addr, metadata !3028, metadata !DIExpression()), !dbg !3030
  %this1 = load %"class.xalanc_1_10::ArenaBlockBase"*, %"class.xalanc_1_10::ArenaBlockBase"** %this.addr, align 8
  %m_objectCount = getelementptr inbounds %"class.xalanc_1_10::ArenaBlockBase", %"class.xalanc_1_10::ArenaBlockBase"* %this1, i32 0, i32 1, !dbg !3031
  %0 = load i16, i16* %m_objectCount, align 8, !dbg !3031
  %conv = zext i16 %0 to i32, !dbg !3031
  %m_blockSize = getelementptr inbounds %"class.xalanc_1_10::ArenaBlockBase", %"class.xalanc_1_10::ArenaBlockBase"* %this1, i32 0, i32 2, !dbg !3032
  %1 = load i16, i16* %m_blockSize, align 2, !dbg !3032
  %conv2 = zext i16 %1 to i32, !dbg !3032
  %cmp = icmp slt i32 %conv, %conv2, !dbg !3033
  %2 = zext i1 %cmp to i64, !dbg !3031
  %cond = select i1 %cmp, i1 true, i1 false, !dbg !3031
  ret i1 %cond, !dbg !3034
}

; Function Attrs: noinline uwtable
define linkonce_odr dso_local zeroext i1 @_ZNK11xalanc_1_1014ArenaBlockBaseINS_14XalanDOMStringEtE9ownsBlockEPKS1_(%"class.xalanc_1_10::ArenaBlockBase"* %this, %"class.xalanc_1_10::XalanDOMString"* %theObject) #0 comdat align 2 !dbg !3035 {
entry:
  %this.addr = alloca %"class.xalanc_1_10::ArenaBlockBase"*, align 8
  %theObject.addr = alloca %"class.xalanc_1_10::XalanDOMString"*, align 8
  store %"class.xalanc_1_10::ArenaBlockBase"* %this, %"class.xalanc_1_10::ArenaBlockBase"** %this.addr, align 8
  call void @llvm.dbg.declare(metadata %"class.xalanc_1_10::ArenaBlockBase"** %this.addr, metadata !3036, metadata !DIExpression()), !dbg !3037
  store %"class.xalanc_1_10::XalanDOMString"* %theObject, %"class.xalanc_1_10::XalanDOMString"** %theObject.addr, align 8
  call void @llvm.dbg.declare(metadata %"class.xalanc_1_10::XalanDOMString"** %theObject.addr, metadata !3038, metadata !DIExpression()), !dbg !3039
  %this1 = load %"class.xalanc_1_10::ArenaBlockBase"*, %"class.xalanc_1_10::ArenaBlockBase"** %this.addr, align 8
  %0 = load %"class.xalanc_1_10::XalanDOMString"*, %"class.xalanc_1_10::XalanDOMString"** %theObject.addr, align 8, !dbg !3040
  %m_blockSize = getelementptr inbounds %"class.xalanc_1_10::ArenaBlockBase", %"class.xalanc_1_10::ArenaBlockBase"* %this1, i32 0, i32 2, !dbg !3041
  %1 = load i16, i16* %m_blockSize, align 2, !dbg !3041
  %call = call zeroext i1 @_ZNK11xalanc_1_1014ArenaBlockBaseINS_14XalanDOMStringEtE11isInBordersEPKS1_t(%"class.xalanc_1_10::ArenaBlockBase"* %this1, %"class.xalanc_1_10::XalanDOMString"* %0, i16 zeroext %1), !dbg !3042
  ret i1 %call, !dbg !3043
}

; Function Attrs: noinline uwtable
define linkonce_odr dso_local void @_ZN11xalanc_1_1018ReusableArenaBlockINS_14XalanDOMStringEtE13destroyObjectEPS1_(%"class.xalanc_1_10::ReusableArenaBlock"* %this, %"class.xalanc_1_10::XalanDOMString"* %theObject) #0 comdat align 2 !dbg !3044 {
entry:
  %this.addr = alloca %"class.xalanc_1_10::ReusableArenaBlock"*, align 8
  %theObject.addr = alloca %"class.xalanc_1_10::XalanDOMString"*, align 8
  %p = alloca i8*, align 8
  store %"class.xalanc_1_10::ReusableArenaBlock"* %this, %"class.xalanc_1_10::ReusableArenaBlock"** %this.addr, align 8
  call void @llvm.dbg.declare(metadata %"class.xalanc_1_10::ReusableArenaBlock"** %this.addr, metadata !3045, metadata !DIExpression()), !dbg !3046
  store %"class.xalanc_1_10::XalanDOMString"* %theObject, %"class.xalanc_1_10::XalanDOMString"** %theObject.addr, align 8
  call void @llvm.dbg.declare(metadata %"class.xalanc_1_10::XalanDOMString"** %theObject.addr, metadata !3047, metadata !DIExpression()), !dbg !3048
  %this1 = load %"class.xalanc_1_10::ReusableArenaBlock"*, %"class.xalanc_1_10::ReusableArenaBlock"** %this.addr, align 8
  %m_firstFreeBlock = getelementptr inbounds %"class.xalanc_1_10::ReusableArenaBlock", %"class.xalanc_1_10::ReusableArenaBlock"* %this1, i32 0, i32 1, !dbg !3049
  %0 = load i16, i16* %m_firstFreeBlock, align 8, !dbg !3049
  %conv = zext i16 %0 to i32, !dbg !3051
  %m_nextFreeBlock = getelementptr inbounds %"class.xalanc_1_10::ReusableArenaBlock", %"class.xalanc_1_10::ReusableArenaBlock"* %this1, i32 0, i32 2, !dbg !3052
  %1 = load i16, i16* %m_nextFreeBlock, align 2, !dbg !3052
  %conv2 = zext i16 %1 to i32, !dbg !3053
  %cmp = icmp ne i32 %conv, %conv2, !dbg !3054
  br i1 %cmp, label %if.then, label %if.end, !dbg !3055

if.then:                                          ; preds = %entry
  call void @llvm.dbg.declare(metadata i8** %p, metadata !3056, metadata !DIExpression()), !dbg !3059
  %2 = bitcast %"class.xalanc_1_10::ReusableArenaBlock"* %this1 to %"class.xalanc_1_10::ArenaBlockBase"*, !dbg !3060
  %m_objectBlock = getelementptr inbounds %"class.xalanc_1_10::ArenaBlockBase", %"class.xalanc_1_10::ArenaBlockBase"* %2, i32 0, i32 3, !dbg !3060
  %3 = load %"class.xalanc_1_10::XalanDOMString"*, %"class.xalanc_1_10::XalanDOMString"** %m_objectBlock, align 8, !dbg !3060
  %m_firstFreeBlock3 = getelementptr inbounds %"class.xalanc_1_10::ReusableArenaBlock", %"class.xalanc_1_10::ReusableArenaBlock"* %this1, i32 0, i32 1, !dbg !3061
  %4 = load i16, i16* %m_firstFreeBlock3, align 8, !dbg !3061
  %conv4 = zext i16 %4 to i32, !dbg !3062
  %idx.ext = sext i32 %conv4 to i64, !dbg !3063
  %add.ptr = getelementptr inbounds %"class.xalanc_1_10::XalanDOMString", %"class.xalanc_1_10::XalanDOMString"* %3, i64 %idx.ext, !dbg !3063
  %5 = bitcast %"class.xalanc_1_10::XalanDOMString"* %add.ptr to i8*, !dbg !3064
  store i8* %5, i8** %p, align 8, !dbg !3059
  %6 = load i8*, i8** %p, align 8, !dbg !3065
  %7 = bitcast i8* %6 to %"struct.xalanc_1_10::ReusableArenaBlock<xalanc_1_10::XalanDOMString, unsigned short>::NextBlock"*, !dbg !3066
  %m_nextFreeBlock5 = getelementptr inbounds %"class.xalanc_1_10::ReusableArenaBlock", %"class.xalanc_1_10::ReusableArenaBlock"* %this1, i32 0, i32 2, !dbg !3067
  %8 = load i16, i16* %m_nextFreeBlock5, align 2, !dbg !3067
  call void @_ZN11xalanc_1_1018ReusableArenaBlockINS_14XalanDOMStringEtE9NextBlockC2Et(%"struct.xalanc_1_10::ReusableArenaBlock<xalanc_1_10::XalanDOMString, unsigned short>::NextBlock"* %7, i16 zeroext %8), !dbg !3068
  %m_firstFreeBlock6 = getelementptr inbounds %"class.xalanc_1_10::ReusableArenaBlock", %"class.xalanc_1_10::ReusableArenaBlock"* %this1, i32 0, i32 1, !dbg !3069
  %9 = load i16, i16* %m_firstFreeBlock6, align 8, !dbg !3069
  %m_nextFreeBlock7 = getelementptr inbounds %"class.xalanc_1_10::ReusableArenaBlock", %"class.xalanc_1_10::ReusableArenaBlock"* %this1, i32 0, i32 2, !dbg !3070
  store i16 %9, i16* %m_nextFreeBlock7, align 2, !dbg !3071
  br label %if.end, !dbg !3072

if.end:                                           ; preds = %if.then, %entry
  %10 = load %"class.xalanc_1_10::XalanDOMString"*, %"class.xalanc_1_10::XalanDOMString"** %theObject.addr, align 8, !dbg !3073
  call void @_ZN11xalanc_1_1012XalanDestroyINS_14XalanDOMStringEEEvRT_(%"class.xalanc_1_10::XalanDOMString"* dereferenceable(40) %10), !dbg !3074
  %11 = load %"class.xalanc_1_10::XalanDOMString"*, %"class.xalanc_1_10::XalanDOMString"** %theObject.addr, align 8, !dbg !3075
  %12 = bitcast %"class.xalanc_1_10::XalanDOMString"* %11 to i8*, !dbg !3076
  %13 = bitcast i8* %12 to %"struct.xalanc_1_10::ReusableArenaBlock<xalanc_1_10::XalanDOMString, unsigned short>::NextBlock"*, !dbg !3076
  %m_firstFreeBlock8 = getelementptr inbounds %"class.xalanc_1_10::ReusableArenaBlock", %"class.xalanc_1_10::ReusableArenaBlock"* %this1, i32 0, i32 1, !dbg !3077
  %14 = load i16, i16* %m_firstFreeBlock8, align 8, !dbg !3077
  call void @_ZN11xalanc_1_1018ReusableArenaBlockINS_14XalanDOMStringEtE9NextBlockC2Et(%"struct.xalanc_1_10::ReusableArenaBlock<xalanc_1_10::XalanDOMString, unsigned short>::NextBlock"* %13, i16 zeroext %14), !dbg !3078
  %15 = load %"class.xalanc_1_10::XalanDOMString"*, %"class.xalanc_1_10::XalanDOMString"** %theObject.addr, align 8, !dbg !3079
  %16 = bitcast %"class.xalanc_1_10::ReusableArenaBlock"* %this1 to %"class.xalanc_1_10::ArenaBlockBase"*, !dbg !3080
  %m_objectBlock9 = getelementptr inbounds %"class.xalanc_1_10::ArenaBlockBase", %"class.xalanc_1_10::ArenaBlockBase"* %16, i32 0, i32 3, !dbg !3080
  %17 = load %"class.xalanc_1_10::XalanDOMString"*, %"class.xalanc_1_10::XalanDOMString"** %m_objectBlock9, align 8, !dbg !3080
  %sub.ptr.lhs.cast = ptrtoint %"class.xalanc_1_10::XalanDOMString"* %15 to i64, !dbg !3081
  %sub.ptr.rhs.cast = ptrtoint %"class.xalanc_1_10::XalanDOMString"* %17 to i64, !dbg !3081
  %sub.ptr.sub = sub i64 %sub.ptr.lhs.cast, %sub.ptr.rhs.cast, !dbg !3081
  %sub.ptr.div = sdiv exact i64 %sub.ptr.sub, 40, !dbg !3081
  %conv10 = trunc i64 %sub.ptr.div to i16, !dbg !3079
  %m_nextFreeBlock11 = getelementptr inbounds %"class.xalanc_1_10::ReusableArenaBlock", %"class.xalanc_1_10::ReusableArenaBlock"* %this1, i32 0, i32 2, !dbg !3082
  store i16 %conv10, i16* %m_nextFreeBlock11, align 2, !dbg !3083
  %m_firstFreeBlock12 = getelementptr inbounds %"class.xalanc_1_10::ReusableArenaBlock", %"class.xalanc_1_10::ReusableArenaBlock"* %this1, i32 0, i32 1, !dbg !3084
  store i16 %conv10, i16* %m_firstFreeBlock12, align 8, !dbg !3085
  %18 = bitcast %"class.xalanc_1_10::ReusableArenaBlock"* %this1 to %"class.xalanc_1_10::ArenaBlockBase"*, !dbg !3086
  %m_objectCount = getelementptr inbounds %"class.xalanc_1_10::ArenaBlockBase", %"class.xalanc_1_10::ArenaBlockBase"* %18, i32 0, i32 1, !dbg !3086
  %19 = load i16, i16* %m_objectCount, align 8, !dbg !3087
  %dec = add i16 %19, -1, !dbg !3087
  store i16 %dec, i16* %m_objectCount, align 8, !dbg !3087
  ret void, !dbg !3088
}

; Function Attrs: noinline uwtable
define linkonce_odr dso_local void @_ZN11xalanc_1_109XalanListIPNS_18ReusableArenaBlockINS_14XalanDOMStringEtEEE5eraseENS_21XalanListIteratorBaseINS_23XalanListIteratorTraitsIS4_EENS5_4NodeEEE(%"class.xalanc_1_10::XalanList"* %this, %"struct.xalanc_1_10::XalanListIteratorBase"* %pos) #0 comdat align 2 !dbg !3089 {
entry:
  %this.addr = alloca %"class.xalanc_1_10::XalanList"*, align 8
  store %"class.xalanc_1_10::XalanList"* %this, %"class.xalanc_1_10::XalanList"** %this.addr, align 8
  call void @llvm.dbg.declare(metadata %"class.xalanc_1_10::XalanList"** %this.addr, metadata !3090, metadata !DIExpression()), !dbg !3091
  call void @llvm.dbg.declare(metadata %"struct.xalanc_1_10::XalanListIteratorBase"* %pos, metadata !3092, metadata !DIExpression()), !dbg !3093
  %this1 = load %"class.xalanc_1_10::XalanList"*, %"class.xalanc_1_10::XalanList"** %this.addr, align 8
  %call = call dereferenceable(24) %"struct.xalanc_1_10::XalanList<xalanc_1_10::ReusableArenaBlock<xalanc_1_10::XalanDOMString, unsigned short> *>::Node"* @_ZN11xalanc_1_1021XalanListIteratorBaseINS_23XalanListIteratorTraitsIPNS_18ReusableArenaBlockINS_14XalanDOMStringEtEEEENS_9XalanListIS5_E4NodeEE4nodeEv(%"struct.xalanc_1_10::XalanListIteratorBase"* %pos), !dbg !3094
  call void @_ZN11xalanc_1_109XalanListIPNS_18ReusableArenaBlockINS_14XalanDOMStringEtEEE8freeNodeERNS5_4NodeE(%"class.xalanc_1_10::XalanList"* %this1, %"struct.xalanc_1_10::XalanList<xalanc_1_10::ReusableArenaBlock<xalanc_1_10::XalanDOMString, unsigned short> *>::Node"* dereferenceable(24) %call), !dbg !3095
  ret void, !dbg !3096
}

; Function Attrs: noinline nounwind uwtable
define linkonce_odr dso_local void @_ZN11xalanc_1_1021XalanListIteratorBaseINS_23XalanListIteratorTraitsIPNS_18ReusableArenaBlockINS_14XalanDOMStringEtEEEENS_9XalanListIS5_E4NodeEEC2ERKSA_(%"struct.xalanc_1_10::XalanListIteratorBase"* %this, %"struct.xalanc_1_10::XalanListIteratorBase"* dereferenceable(8) %theRhs) unnamed_addr #3 comdat align 2 !dbg !3097 {
entry:
  %this.addr = alloca %"struct.xalanc_1_10::XalanListIteratorBase"*, align 8
  %theRhs.addr = alloca %"struct.xalanc_1_10::XalanListIteratorBase"*, align 8
  store %"struct.xalanc_1_10::XalanListIteratorBase"* %this, %"struct.xalanc_1_10::XalanListIteratorBase"** %this.addr, align 8
  call void @llvm.dbg.declare(metadata %"struct.xalanc_1_10::XalanListIteratorBase"** %this.addr, metadata !3098, metadata !DIExpression()), !dbg !3100
  store %"struct.xalanc_1_10::XalanListIteratorBase"* %theRhs, %"struct.xalanc_1_10::XalanListIteratorBase"** %theRhs.addr, align 8
  call void @llvm.dbg.declare(metadata %"struct.xalanc_1_10::XalanListIteratorBase"** %theRhs.addr, metadata !3101, metadata !DIExpression()), !dbg !3102
  %this1 = load %"struct.xalanc_1_10::XalanListIteratorBase"*, %"struct.xalanc_1_10::XalanListIteratorBase"** %this.addr, align 8
  %currentNode = getelementptr inbounds %"struct.xalanc_1_10::XalanListIteratorBase", %"struct.xalanc_1_10::XalanListIteratorBase"* %this1, i32 0, i32 0, !dbg !3103
  %0 = load %"struct.xalanc_1_10::XalanListIteratorBase"*, %"struct.xalanc_1_10::XalanListIteratorBase"** %theRhs.addr, align 8, !dbg !3104
  %currentNode2 = getelementptr inbounds %"struct.xalanc_1_10::XalanListIteratorBase", %"struct.xalanc_1_10::XalanListIteratorBase"* %0, i32 0, i32 0, !dbg !3105
  %1 = load %"struct.xalanc_1_10::XalanList<xalanc_1_10::ReusableArenaBlock<xalanc_1_10::XalanDOMString, unsigned short> *>::Node"*, %"struct.xalanc_1_10::XalanList<xalanc_1_10::ReusableArenaBlock<xalanc_1_10::XalanDOMString, unsigned short> *>::Node"** %currentNode2, align 8, !dbg !3105
  store %"struct.xalanc_1_10::XalanList<xalanc_1_10::ReusableArenaBlock<xalanc_1_10::XalanDOMString, unsigned short> *>::Node"* %1, %"struct.xalanc_1_10::XalanList<xalanc_1_10::ReusableArenaBlock<xalanc_1_10::XalanDOMString, unsigned short> *>::Node"** %currentNode, align 8, !dbg !3103
  ret void, !dbg !3106
}

; Function Attrs: noinline uwtable
define linkonce_odr dso_local void @_ZN11xalanc_1_109XalanListIPNS_18ReusableArenaBlockINS_14XalanDOMStringEtEEE10push_frontERKS4_(%"class.xalanc_1_10::XalanList"* %this, %"class.xalanc_1_10::ReusableArenaBlock"** dereferenceable(8) %data) #0 comdat align 2 !dbg !3107 {
entry:
  %this.addr = alloca %"class.xalanc_1_10::XalanList"*, align 8
  %data.addr = alloca %"class.xalanc_1_10::ReusableArenaBlock"**, align 8
  %agg.tmp = alloca %"struct.xalanc_1_10::XalanListIteratorBase", align 8
  store %"class.xalanc_1_10::XalanList"* %this, %"class.xalanc_1_10::XalanList"** %this.addr, align 8
  call void @llvm.dbg.declare(metadata %"class.xalanc_1_10::XalanList"** %this.addr, metadata !3108, metadata !DIExpression()), !dbg !3109
  store %"class.xalanc_1_10::ReusableArenaBlock"** %data, %"class.xalanc_1_10::ReusableArenaBlock"*** %data.addr, align 8
  call void @llvm.dbg.declare(metadata %"class.xalanc_1_10::ReusableArenaBlock"*** %data.addr, metadata !3110, metadata !DIExpression()), !dbg !3111
  %this1 = load %"class.xalanc_1_10::XalanList"*, %"class.xalanc_1_10::XalanList"** %this.addr, align 8
  %0 = load %"class.xalanc_1_10::ReusableArenaBlock"**, %"class.xalanc_1_10::ReusableArenaBlock"*** %data.addr, align 8, !dbg !3112
  call void @_ZN11xalanc_1_109XalanListIPNS_18ReusableArenaBlockINS_14XalanDOMStringEtEEE5beginEv(%"struct.xalanc_1_10::XalanListIteratorBase"* sret %agg.tmp, %"class.xalanc_1_10::XalanList"* %this1), !dbg !3113
  %call = call dereferenceable(24) %"struct.xalanc_1_10::XalanList<xalanc_1_10::ReusableArenaBlock<xalanc_1_10::XalanDOMString, unsigned short> *>::Node"* @_ZN11xalanc_1_109XalanListIPNS_18ReusableArenaBlockINS_14XalanDOMStringEtEEE13constructNodeERKS4_NS_21XalanListIteratorBaseINS_23XalanListIteratorTraitsIS4_EENS5_4NodeEEE(%"class.xalanc_1_10::XalanList"* %this1, %"class.xalanc_1_10::ReusableArenaBlock"** dereferenceable(8) %0, %"struct.xalanc_1_10::XalanListIteratorBase"* %agg.tmp), !dbg !3114
  ret void, !dbg !3115
}

; Function Attrs: noinline uwtable
define linkonce_odr dso_local void @_ZN11xalanc_1_1022ReusableArenaAllocatorINS_14XalanDOMStringEE12destroyBlockEv(%"class.xalanc_1_10::ReusableArenaAllocator"* %this) #0 comdat align 2 !dbg !3116 {
entry:
  %this.addr = alloca %"class.xalanc_1_10::ReusableArenaAllocator"*, align 8
  %iTerator = alloca %"struct.xalanc_1_10::XalanListIteratorBase.1", align 8
  %ref.tmp = alloca %"struct.xalanc_1_10::XalanListIteratorBase", align 8
  %coerce = alloca %"struct.xalanc_1_10::XalanListIteratorBase.1", align 8
  %ref.tmp7 = alloca %"struct.xalanc_1_10::XalanListIteratorBase.1", align 8
  %ref.tmp8 = alloca %"struct.xalanc_1_10::XalanListIteratorBase", align 8
  store %"class.xalanc_1_10::ReusableArenaAllocator"* %this, %"class.xalanc_1_10::ReusableArenaAllocator"** %this.addr, align 8
  call void @llvm.dbg.declare(metadata %"class.xalanc_1_10::ReusableArenaAllocator"** %this.addr, metadata !3120, metadata !DIExpression()), !dbg !3121
  %this1 = load %"class.xalanc_1_10::ReusableArenaAllocator"*, %"class.xalanc_1_10::ReusableArenaAllocator"** %this.addr, align 8
  %0 = bitcast %"class.xalanc_1_10::ReusableArenaAllocator"* %this1 to %"class.xalanc_1_10::ArenaAllocator"*, !dbg !3122
  %m_blocks = getelementptr inbounds %"class.xalanc_1_10::ArenaAllocator", %"class.xalanc_1_10::ArenaAllocator"* %0, i32 0, i32 2, !dbg !3122
  %call = call zeroext i1 @_ZNK11xalanc_1_109XalanListIPNS_18ReusableArenaBlockINS_14XalanDOMStringEtEEE5emptyEv(%"class.xalanc_1_10::XalanList"* %m_blocks), !dbg !3124
  %conv = zext i1 %call to i32, !dbg !3125
  %cmp = icmp eq i32 %conv, 0, !dbg !3126
  br i1 %cmp, label %if.then, label %if.end16, !dbg !3127

if.then:                                          ; preds = %entry
  call void @llvm.dbg.declare(metadata %"struct.xalanc_1_10::XalanListIteratorBase.1"* %iTerator, metadata !3128, metadata !DIExpression()), !dbg !3131
  %1 = bitcast %"class.xalanc_1_10::ReusableArenaAllocator"* %this1 to %"class.xalanc_1_10::ArenaAllocator"*, !dbg !3132
  %m_blocks2 = getelementptr inbounds %"class.xalanc_1_10::ArenaAllocator", %"class.xalanc_1_10::ArenaAllocator"* %1, i32 0, i32 2, !dbg !3132
  call void @_ZN11xalanc_1_109XalanListIPNS_18ReusableArenaBlockINS_14XalanDOMStringEtEEE5beginEv(%"struct.xalanc_1_10::XalanListIteratorBase"* sret %ref.tmp, %"class.xalanc_1_10::XalanList"* %m_blocks2), !dbg !3133
  call void @_ZN11xalanc_1_1021XalanListIteratorBaseINS_28XalanListConstIteratorTraitsIPNS_18ReusableArenaBlockINS_14XalanDOMStringEtEEEENS_9XalanListIS5_E4NodeEEC2ERKNS0_INS_23XalanListIteratorTraitsIS5_EES9_EE(%"struct.xalanc_1_10::XalanListIteratorBase.1"* %iTerator, %"struct.xalanc_1_10::XalanListIteratorBase"* dereferenceable(8) %ref.tmp), !dbg !3134
  %call3 = call dereferenceable(8) %"class.xalanc_1_10::ReusableArenaBlock"** @_ZNK11xalanc_1_1021XalanListIteratorBaseINS_28XalanListConstIteratorTraitsIPNS_18ReusableArenaBlockINS_14XalanDOMStringEtEEEENS_9XalanListIS5_E4NodeEEdeEv(%"struct.xalanc_1_10::XalanListIteratorBase.1"* %iTerator), !dbg !3135
  %2 = load %"class.xalanc_1_10::ReusableArenaBlock"*, %"class.xalanc_1_10::ReusableArenaBlock"** %call3, align 8, !dbg !3135
  %3 = bitcast %"class.xalanc_1_10::ReusableArenaBlock"* %2 to %"class.xalanc_1_10::ArenaBlockBase"*, !dbg !3137
  %call4 = call zeroext i1 @_ZNK11xalanc_1_1014ArenaBlockBaseINS_14XalanDOMStringEtE7isEmptyEv(%"class.xalanc_1_10::ArenaBlockBase"* %3), !dbg !3137
  br i1 %call4, label %if.then5, label %if.end15, !dbg !3138

if.then5:                                         ; preds = %if.then
  %call6 = call %"struct.xalanc_1_10::XalanList<xalanc_1_10::ReusableArenaBlock<xalanc_1_10::XalanDOMString, unsigned short> *>::Node"* @_ZN11xalanc_1_1021XalanListIteratorBaseINS_28XalanListConstIteratorTraitsIPNS_18ReusableArenaBlockINS_14XalanDOMStringEtEEEENS_9XalanListIS5_E4NodeEEppEv(%"struct.xalanc_1_10::XalanListIteratorBase.1"* %iTerator), !dbg !3139
  %coerce.dive = getelementptr inbounds %"struct.xalanc_1_10::XalanListIteratorBase.1", %"struct.xalanc_1_10::XalanListIteratorBase.1"* %coerce, i32 0, i32 0, !dbg !3139
  store %"struct.xalanc_1_10::XalanList<xalanc_1_10::ReusableArenaBlock<xalanc_1_10::XalanDOMString, unsigned short> *>::Node"* %call6, %"struct.xalanc_1_10::XalanList<xalanc_1_10::ReusableArenaBlock<xalanc_1_10::XalanDOMString, unsigned short> *>::Node"** %coerce.dive, align 8, !dbg !3139
  %4 = bitcast %"class.xalanc_1_10::ReusableArenaAllocator"* %this1 to %"class.xalanc_1_10::ArenaAllocator"*, !dbg !3141
  %m_blocks9 = getelementptr inbounds %"class.xalanc_1_10::ArenaAllocator", %"class.xalanc_1_10::ArenaAllocator"* %4, i32 0, i32 2, !dbg !3141
  call void @_ZN11xalanc_1_109XalanListIPNS_18ReusableArenaBlockINS_14XalanDOMStringEtEEE3endEv(%"struct.xalanc_1_10::XalanListIteratorBase"* sret %ref.tmp8, %"class.xalanc_1_10::XalanList"* %m_blocks9), !dbg !3143
  call void @_ZN11xalanc_1_1021XalanListIteratorBaseINS_28XalanListConstIteratorTraitsIPNS_18ReusableArenaBlockINS_14XalanDOMStringEtEEEENS_9XalanListIS5_E4NodeEEC2ERKNS0_INS_23XalanListIteratorTraitsIS5_EES9_EE(%"struct.xalanc_1_10::XalanListIteratorBase.1"* %ref.tmp7, %"struct.xalanc_1_10::XalanListIteratorBase"* dereferenceable(8) %ref.tmp8), !dbg !3144
  %call10 = call zeroext i1 @_ZNK11xalanc_1_1021XalanListIteratorBaseINS_28XalanListConstIteratorTraitsIPNS_18ReusableArenaBlockINS_14XalanDOMStringEtEEEENS_9XalanListIS5_E4NodeEEeqERKSA_(%"struct.xalanc_1_10::XalanListIteratorBase.1"* %iTerator, %"struct.xalanc_1_10::XalanListIteratorBase.1"* dereferenceable(8) %ref.tmp7), !dbg !3145
  br i1 %call10, label %lor.end, label %lor.rhs, !dbg !3146

lor.rhs:                                          ; preds = %if.then5
  %call11 = call dereferenceable(8) %"class.xalanc_1_10::ReusableArenaBlock"** @_ZNK11xalanc_1_1021XalanListIteratorBaseINS_28XalanListConstIteratorTraitsIPNS_18ReusableArenaBlockINS_14XalanDOMStringEtEEEENS_9XalanListIS5_E4NodeEEdeEv(%"struct.xalanc_1_10::XalanListIteratorBase.1"* %iTerator), !dbg !3147
  %5 = load %"class.xalanc_1_10::ReusableArenaBlock"*, %"class.xalanc_1_10::ReusableArenaBlock"** %call11, align 8, !dbg !3147
  %6 = bitcast %"class.xalanc_1_10::ReusableArenaBlock"* %5 to %"class.xalanc_1_10::ArenaBlockBase"*, !dbg !3148
  %call12 = call zeroext i1 @_ZNK11xalanc_1_1014ArenaBlockBaseINS_14XalanDOMStringEtE14blockAvailableEv(%"class.xalanc_1_10::ArenaBlockBase"* %6), !dbg !3148
  br label %lor.end, !dbg !3146

lor.end:                                          ; preds = %lor.rhs, %if.then5
  %7 = phi i1 [ true, %if.then5 ], [ %call12, %lor.rhs ]
  br i1 %7, label %if.then13, label %if.end, !dbg !3149

if.then13:                                        ; preds = %lor.end
  %8 = bitcast %"class.xalanc_1_10::ReusableArenaAllocator"* %this1 to %"class.xalanc_1_10::ArenaAllocator"*, !dbg !3150
  %m_blocks14 = getelementptr inbounds %"class.xalanc_1_10::ArenaAllocator", %"class.xalanc_1_10::ArenaAllocator"* %8, i32 0, i32 2, !dbg !3150
  call void @_ZN11xalanc_1_109XalanListIPNS_18ReusableArenaBlockINS_14XalanDOMStringEtEEE9pop_frontEv(%"class.xalanc_1_10::XalanList"* %m_blocks14), !dbg !3152
  br label %if.end, !dbg !3153

if.end:                                           ; preds = %if.then13, %lor.end
  br label %if.end15, !dbg !3154

if.end15:                                         ; preds = %if.end, %if.then
  br label %if.end16, !dbg !3155

if.end16:                                         ; preds = %if.end15, %entry
  ret void, !dbg !3156
}

; Function Attrs: noinline uwtable
define linkonce_odr dso_local void @_ZN11xalanc_1_1021XalanListIteratorBaseINS_23XalanListIteratorTraitsIPNS_18ReusableArenaBlockINS_14XalanDOMStringEtEEEENS_9XalanListIS5_E4NodeEEppEv(%"struct.xalanc_1_10::XalanListIteratorBase"* noalias sret %agg.result, %"struct.xalanc_1_10::XalanListIteratorBase"* %this) #0 comdat align 2 !dbg !3157 {
entry:
  %result.ptr = alloca i8*, align 8
  %this.addr = alloca %"struct.xalanc_1_10::XalanListIteratorBase"*, align 8
  %0 = bitcast %"struct.xalanc_1_10::XalanListIteratorBase"* %agg.result to i8*
  store i8* %0, i8** %result.ptr, align 8
  store %"struct.xalanc_1_10::XalanListIteratorBase"* %this, %"struct.xalanc_1_10::XalanListIteratorBase"** %this.addr, align 8
  call void @llvm.dbg.declare(metadata %"struct.xalanc_1_10::XalanListIteratorBase"** %this.addr, metadata !3158, metadata !DIExpression()), !dbg !3159
  %this1 = load %"struct.xalanc_1_10::XalanListIteratorBase"*, %"struct.xalanc_1_10::XalanListIteratorBase"** %this.addr, align 8
  %currentNode = getelementptr inbounds %"struct.xalanc_1_10::XalanListIteratorBase", %"struct.xalanc_1_10::XalanListIteratorBase"* %this1, i32 0, i32 0, !dbg !3160
  %1 = load %"struct.xalanc_1_10::XalanList<xalanc_1_10::ReusableArenaBlock<xalanc_1_10::XalanDOMString, unsigned short> *>::Node"*, %"struct.xalanc_1_10::XalanList<xalanc_1_10::ReusableArenaBlock<xalanc_1_10::XalanDOMString, unsigned short> *>::Node"** %currentNode, align 8, !dbg !3160
  %next = getelementptr inbounds %"struct.xalanc_1_10::XalanList<xalanc_1_10::ReusableArenaBlock<xalanc_1_10::XalanDOMString, unsigned short> *>::Node", %"struct.xalanc_1_10::XalanList<xalanc_1_10::ReusableArenaBlock<xalanc_1_10::XalanDOMString, unsigned short> *>::Node"* %1, i32 0, i32 2, !dbg !3161
  %2 = load %"struct.xalanc_1_10::XalanList<xalanc_1_10::ReusableArenaBlock<xalanc_1_10::XalanDOMString, unsigned short> *>::Node"*, %"struct.xalanc_1_10::XalanList<xalanc_1_10::ReusableArenaBlock<xalanc_1_10::XalanDOMString, unsigned short> *>::Node"** %next, align 8, !dbg !3161
  %currentNode2 = getelementptr inbounds %"struct.xalanc_1_10::XalanListIteratorBase", %"struct.xalanc_1_10::XalanListIteratorBase"* %this1, i32 0, i32 0, !dbg !3162
  store %"struct.xalanc_1_10::XalanList<xalanc_1_10::ReusableArenaBlock<xalanc_1_10::XalanDOMString, unsigned short> *>::Node"* %2, %"struct.xalanc_1_10::XalanList<xalanc_1_10::ReusableArenaBlock<xalanc_1_10::XalanDOMString, unsigned short> *>::Node"** %currentNode2, align 8, !dbg !3163
  call void @_ZN11xalanc_1_1021XalanListIteratorBaseINS_23XalanListIteratorTraitsIPNS_18ReusableArenaBlockINS_14XalanDOMStringEtEEEENS_9XalanListIS5_E4NodeEEC2ERKSA_(%"struct.xalanc_1_10::XalanListIteratorBase"* %agg.result, %"struct.xalanc_1_10::XalanListIteratorBase"* dereferenceable(8) %this1), !dbg !3164
  ret void, !dbg !3165
}

; Function Attrs: noinline uwtable
define linkonce_odr dso_local void @_ZN11xalanc_1_109XalanListIPNS_18ReusableArenaBlockINS_14XalanDOMStringEtEEE6rbeginEv(%"class.std::reverse_iterator"* noalias sret %agg.result, %"class.xalanc_1_10::XalanList"* %this) #0 comdat align 2 !dbg !3166 {
entry:
  %result.ptr = alloca i8*, align 8
  %this.addr = alloca %"class.xalanc_1_10::XalanList"*, align 8
  %agg.tmp = alloca %"struct.xalanc_1_10::XalanListIteratorBase", align 8
  %0 = bitcast %"class.std::reverse_iterator"* %agg.result to i8*
  store i8* %0, i8** %result.ptr, align 8
  store %"class.xalanc_1_10::XalanList"* %this, %"class.xalanc_1_10::XalanList"** %this.addr, align 8
  call void @llvm.dbg.declare(metadata %"class.xalanc_1_10::XalanList"** %this.addr, metadata !3167, metadata !DIExpression()), !dbg !3168
  %this1 = load %"class.xalanc_1_10::XalanList"*, %"class.xalanc_1_10::XalanList"** %this.addr, align 8
  call void @_ZN11xalanc_1_109XalanListIPNS_18ReusableArenaBlockINS_14XalanDOMStringEtEEE3endEv(%"struct.xalanc_1_10::XalanListIteratorBase"* sret %agg.tmp, %"class.xalanc_1_10::XalanList"* %this1), !dbg !3169
  call void @_ZNSt16reverse_iteratorIN11xalanc_1_1021XalanListIteratorBaseINS0_23XalanListIteratorTraitsIPNS0_18ReusableArenaBlockINS0_14XalanDOMStringEtEEEENS0_9XalanListIS6_E4NodeEEEEC2ESB_(%"class.std::reverse_iterator"* %agg.result, %"struct.xalanc_1_10::XalanListIteratorBase"* %agg.tmp), !dbg !3170
  ret void, !dbg !3171
}

; Function Attrs: noinline uwtable
define linkonce_odr dso_local void @_ZN11xalanc_1_109XalanListIPNS_18ReusableArenaBlockINS_14XalanDOMStringEtEEE4rendEv(%"class.std::reverse_iterator"* noalias sret %agg.result, %"class.xalanc_1_10::XalanList"* %this) #0 comdat align 2 !dbg !3172 {
entry:
  %result.ptr = alloca i8*, align 8
  %this.addr = alloca %"class.xalanc_1_10::XalanList"*, align 8
  %agg.tmp = alloca %"struct.xalanc_1_10::XalanListIteratorBase", align 8
  %0 = bitcast %"class.std::reverse_iterator"* %agg.result to i8*
  store i8* %0, i8** %result.ptr, align 8
  store %"class.xalanc_1_10::XalanList"* %this, %"class.xalanc_1_10::XalanList"** %this.addr, align 8
  call void @llvm.dbg.declare(metadata %"class.xalanc_1_10::XalanList"** %this.addr, metadata !3173, metadata !DIExpression()), !dbg !3174
  %this1 = load %"class.xalanc_1_10::XalanList"*, %"class.xalanc_1_10::XalanList"** %this.addr, align 8
  call void @_ZN11xalanc_1_109XalanListIPNS_18ReusableArenaBlockINS_14XalanDOMStringEtEEE5beginEv(%"struct.xalanc_1_10::XalanListIteratorBase"* sret %agg.tmp, %"class.xalanc_1_10::XalanList"* %this1), !dbg !3175
  call void @_ZNSt16reverse_iteratorIN11xalanc_1_1021XalanListIteratorBaseINS0_23XalanListIteratorTraitsIPNS0_18ReusableArenaBlockINS0_14XalanDOMStringEtEEEENS0_9XalanListIS6_E4NodeEEEEC2ESB_(%"class.std::reverse_iterator"* %agg.result, %"struct.xalanc_1_10::XalanListIteratorBase"* %agg.tmp), !dbg !3176
  ret void, !dbg !3177
}

; Function Attrs: noinline uwtable
define linkonce_odr dso_local zeroext i1 @_ZStneIN11xalanc_1_1021XalanListIteratorBaseINS0_23XalanListIteratorTraitsIPNS0_18ReusableArenaBlockINS0_14XalanDOMStringEtEEEENS0_9XalanListIS6_E4NodeEEEEbRKSt16reverse_iteratorIT_ESG_(%"class.std::reverse_iterator"* dereferenceable(8) %__x, %"class.std::reverse_iterator"* dereferenceable(8) %__y) #0 comdat !dbg !3178 {
entry:
  %__x.addr = alloca %"class.std::reverse_iterator"*, align 8
  %__y.addr = alloca %"class.std::reverse_iterator"*, align 8
  store %"class.std::reverse_iterator"* %__x, %"class.std::reverse_iterator"** %__x.addr, align 8
  call void @llvm.dbg.declare(metadata %"class.std::reverse_iterator"** %__x.addr, metadata !3181, metadata !DIExpression()), !dbg !3182
  store %"class.std::reverse_iterator"* %__y, %"class.std::reverse_iterator"** %__y.addr, align 8
  call void @llvm.dbg.declare(metadata %"class.std::reverse_iterator"** %__y.addr, metadata !3183, metadata !DIExpression()), !dbg !3184
  %0 = load %"class.std::reverse_iterator"*, %"class.std::reverse_iterator"** %__x.addr, align 8, !dbg !3185
  %1 = load %"class.std::reverse_iterator"*, %"class.std::reverse_iterator"** %__y.addr, align 8, !dbg !3186
  %call = call zeroext i1 @_ZSteqIN11xalanc_1_1021XalanListIteratorBaseINS0_23XalanListIteratorTraitsIPNS0_18ReusableArenaBlockINS0_14XalanDOMStringEtEEEENS0_9XalanListIS6_E4NodeEEEEbRKSt16reverse_iteratorIT_ESG_(%"class.std::reverse_iterator"* dereferenceable(8) %0, %"class.std::reverse_iterator"* dereferenceable(8) %1), !dbg !3187
  %lnot = xor i1 %call, true, !dbg !3188
  ret i1 %lnot, !dbg !3189
}

; Function Attrs: noinline uwtable
define linkonce_odr dso_local dereferenceable(8) %"class.xalanc_1_10::ReusableArenaBlock"** @_ZNKSt16reverse_iteratorIN11xalanc_1_1021XalanListIteratorBaseINS0_23XalanListIteratorTraitsIPNS0_18ReusableArenaBlockINS0_14XalanDOMStringEtEEEENS0_9XalanListIS6_E4NodeEEEEdeEv(%"class.std::reverse_iterator"* %this) #0 comdat align 2 !dbg !3190 {
entry:
  %this.addr = alloca %"class.std::reverse_iterator"*, align 8
  %__tmp = alloca %"struct.xalanc_1_10::XalanListIteratorBase", align 8
  %ref.tmp = alloca %"struct.xalanc_1_10::XalanListIteratorBase", align 8
  store %"class.std::reverse_iterator"* %this, %"class.std::reverse_iterator"** %this.addr, align 8
  call void @llvm.dbg.declare(metadata %"class.std::reverse_iterator"** %this.addr, metadata !3191, metadata !DIExpression()), !dbg !3193
  %this1 = load %"class.std::reverse_iterator"*, %"class.std::reverse_iterator"** %this.addr, align 8
  call void @llvm.dbg.declare(metadata %"struct.xalanc_1_10::XalanListIteratorBase"* %__tmp, metadata !3194, metadata !DIExpression()), !dbg !3195
  %current = getelementptr inbounds %"class.std::reverse_iterator", %"class.std::reverse_iterator"* %this1, i32 0, i32 0, !dbg !3196
  call void @_ZN11xalanc_1_1021XalanListIteratorBaseINS_23XalanListIteratorTraitsIPNS_18ReusableArenaBlockINS_14XalanDOMStringEtEEEENS_9XalanListIS5_E4NodeEEC2ERKSA_(%"struct.xalanc_1_10::XalanListIteratorBase"* %__tmp, %"struct.xalanc_1_10::XalanListIteratorBase"* dereferenceable(8) %current), !dbg !3196
  call void @_ZN11xalanc_1_1021XalanListIteratorBaseINS_23XalanListIteratorTraitsIPNS_18ReusableArenaBlockINS_14XalanDOMStringEtEEEENS_9XalanListIS5_E4NodeEEmmEv(%"struct.xalanc_1_10::XalanListIteratorBase"* sret %ref.tmp, %"struct.xalanc_1_10::XalanListIteratorBase"* %__tmp), !dbg !3197
  %call = call dereferenceable(8) %"class.xalanc_1_10::ReusableArenaBlock"** @_ZNK11xalanc_1_1021XalanListIteratorBaseINS_23XalanListIteratorTraitsIPNS_18ReusableArenaBlockINS_14XalanDOMStringEtEEEENS_9XalanListIS5_E4NodeEEdeEv(%"struct.xalanc_1_10::XalanListIteratorBase"* %ref.tmp), !dbg !3198
  ret %"class.xalanc_1_10::ReusableArenaBlock"** %call, !dbg !3199
}

; Function Attrs: noinline uwtable
define linkonce_odr dso_local dereferenceable(8) %"class.std::reverse_iterator"* @_ZNSt16reverse_iteratorIN11xalanc_1_1021XalanListIteratorBaseINS0_23XalanListIteratorTraitsIPNS0_18ReusableArenaBlockINS0_14XalanDOMStringEtEEEENS0_9XalanListIS6_E4NodeEEEEppEv(%"class.std::reverse_iterator"* %this) #0 comdat align 2 !dbg !3200 {
entry:
  %this.addr = alloca %"class.std::reverse_iterator"*, align 8
  %tmp = alloca %"struct.xalanc_1_10::XalanListIteratorBase", align 8
  store %"class.std::reverse_iterator"* %this, %"class.std::reverse_iterator"** %this.addr, align 8
  call void @llvm.dbg.declare(metadata %"class.std::reverse_iterator"** %this.addr, metadata !3201, metadata !DIExpression()), !dbg !3203
  %this1 = load %"class.std::reverse_iterator"*, %"class.std::reverse_iterator"** %this.addr, align 8
  %current = getelementptr inbounds %"class.std::reverse_iterator", %"class.std::reverse_iterator"* %this1, i32 0, i32 0, !dbg !3204
  call void @_ZN11xalanc_1_1021XalanListIteratorBaseINS_23XalanListIteratorTraitsIPNS_18ReusableArenaBlockINS_14XalanDOMStringEtEEEENS_9XalanListIS5_E4NodeEEmmEv(%"struct.xalanc_1_10::XalanListIteratorBase"* sret %tmp, %"struct.xalanc_1_10::XalanListIteratorBase"* %current), !dbg !3205
  ret %"class.std::reverse_iterator"* %this1, !dbg !3206
}

; Function Attrs: noinline uwtable
define linkonce_odr dso_local %"struct.xalanc_1_10::XalanList<xalanc_1_10::ReusableArenaBlock<xalanc_1_10::XalanDOMString, unsigned short> *>::Node"* @_ZNK11xalanc_1_109XalanListIPNS_18ReusableArenaBlockINS_14XalanDOMStringEtEEE5beginEv(%"class.xalanc_1_10::XalanList"* %this) #0 comdat align 2 !dbg !3207 {
entry:
  %retval = alloca %"struct.xalanc_1_10::XalanListIteratorBase.1", align 8
  %this.addr = alloca %"class.xalanc_1_10::XalanList"*, align 8
  store %"class.xalanc_1_10::XalanList"* %this, %"class.xalanc_1_10::XalanList"** %this.addr, align 8
  call void @llvm.dbg.declare(metadata %"class.xalanc_1_10::XalanList"** %this.addr, metadata !3208, metadata !DIExpression()), !dbg !3209
  %this1 = load %"class.xalanc_1_10::XalanList"*, %"class.xalanc_1_10::XalanList"** %this.addr, align 8
  %call = call dereferenceable(24) %"struct.xalanc_1_10::XalanList<xalanc_1_10::ReusableArenaBlock<xalanc_1_10::XalanDOMString, unsigned short> *>::Node"* @_ZNK11xalanc_1_109XalanListIPNS_18ReusableArenaBlockINS_14XalanDOMStringEtEEE11getListHeadEv(%"class.xalanc_1_10::XalanList"* %this1), !dbg !3210
  %next = getelementptr inbounds %"struct.xalanc_1_10::XalanList<xalanc_1_10::ReusableArenaBlock<xalanc_1_10::XalanDOMString, unsigned short> *>::Node", %"struct.xalanc_1_10::XalanList<xalanc_1_10::ReusableArenaBlock<xalanc_1_10::XalanDOMString, unsigned short> *>::Node"* %call, i32 0, i32 2, !dbg !3211
  %0 = load %"struct.xalanc_1_10::XalanList<xalanc_1_10::ReusableArenaBlock<xalanc_1_10::XalanDOMString, unsigned short> *>::Node"*, %"struct.xalanc_1_10::XalanList<xalanc_1_10::ReusableArenaBlock<xalanc_1_10::XalanDOMString, unsigned short> *>::Node"** %next, align 8, !dbg !3211
  call void @_ZN11xalanc_1_1021XalanListIteratorBaseINS_28XalanListConstIteratorTraitsIPNS_18ReusableArenaBlockINS_14XalanDOMStringEtEEEENS_9XalanListIS5_E4NodeEEC2ERS9_(%"struct.xalanc_1_10::XalanListIteratorBase.1"* %retval, %"struct.xalanc_1_10::XalanList<xalanc_1_10::ReusableArenaBlock<xalanc_1_10::XalanDOMString, unsigned short> *>::Node"* dereferenceable(24) %0), !dbg !3212
  %coerce.dive = getelementptr inbounds %"struct.xalanc_1_10::XalanListIteratorBase.1", %"struct.xalanc_1_10::XalanListIteratorBase.1"* %retval, i32 0, i32 0, !dbg !3213
  %1 = load %"struct.xalanc_1_10::XalanList<xalanc_1_10::ReusableArenaBlock<xalanc_1_10::XalanDOMString, unsigned short> *>::Node"*, %"struct.xalanc_1_10::XalanList<xalanc_1_10::ReusableArenaBlock<xalanc_1_10::XalanDOMString, unsigned short> *>::Node"** %coerce.dive, align 8, !dbg !3213
  ret %"struct.xalanc_1_10::XalanList<xalanc_1_10::ReusableArenaBlock<xalanc_1_10::XalanDOMString, unsigned short> *>::Node"* %1, !dbg !3213
}

; Function Attrs: noinline nounwind uwtable
define linkonce_odr dso_local zeroext i1 @_ZNK11xalanc_1_1021XalanListIteratorBaseINS_28XalanListConstIteratorTraitsIPNS_18ReusableArenaBlockINS_14XalanDOMStringEtEEEENS_9XalanListIS5_E4NodeEEeqERKSA_(%"struct.xalanc_1_10::XalanListIteratorBase.1"* %this, %"struct.xalanc_1_10::XalanListIteratorBase.1"* dereferenceable(8) %theRhs) #3 comdat align 2 !dbg !3214 {
entry:
  %this.addr = alloca %"struct.xalanc_1_10::XalanListIteratorBase.1"*, align 8
  %theRhs.addr = alloca %"struct.xalanc_1_10::XalanListIteratorBase.1"*, align 8
  store %"struct.xalanc_1_10::XalanListIteratorBase.1"* %this, %"struct.xalanc_1_10::XalanListIteratorBase.1"** %this.addr, align 8
  call void @llvm.dbg.declare(metadata %"struct.xalanc_1_10::XalanListIteratorBase.1"** %this.addr, metadata !3215, metadata !DIExpression()), !dbg !3217
  store %"struct.xalanc_1_10::XalanListIteratorBase.1"* %theRhs, %"struct.xalanc_1_10::XalanListIteratorBase.1"** %theRhs.addr, align 8
  call void @llvm.dbg.declare(metadata %"struct.xalanc_1_10::XalanListIteratorBase.1"** %theRhs.addr, metadata !3218, metadata !DIExpression()), !dbg !3219
  %this1 = load %"struct.xalanc_1_10::XalanListIteratorBase.1"*, %"struct.xalanc_1_10::XalanListIteratorBase.1"** %this.addr, align 8
  %currentNode = getelementptr inbounds %"struct.xalanc_1_10::XalanListIteratorBase.1", %"struct.xalanc_1_10::XalanListIteratorBase.1"* %this1, i32 0, i32 0, !dbg !3220
  %0 = load %"struct.xalanc_1_10::XalanList<xalanc_1_10::ReusableArenaBlock<xalanc_1_10::XalanDOMString, unsigned short> *>::Node"*, %"struct.xalanc_1_10::XalanList<xalanc_1_10::ReusableArenaBlock<xalanc_1_10::XalanDOMString, unsigned short> *>::Node"** %currentNode, align 8, !dbg !3220
  %1 = load %"struct.xalanc_1_10::XalanListIteratorBase.1"*, %"struct.xalanc_1_10::XalanListIteratorBase.1"** %theRhs.addr, align 8, !dbg !3221
  %currentNode2 = getelementptr inbounds %"struct.xalanc_1_10::XalanListIteratorBase.1", %"struct.xalanc_1_10::XalanListIteratorBase.1"* %1, i32 0, i32 0, !dbg !3222
  %2 = load %"struct.xalanc_1_10::XalanList<xalanc_1_10::ReusableArenaBlock<xalanc_1_10::XalanDOMString, unsigned short> *>::Node"*, %"struct.xalanc_1_10::XalanList<xalanc_1_10::ReusableArenaBlock<xalanc_1_10::XalanDOMString, unsigned short> *>::Node"** %currentNode2, align 8, !dbg !3222
  %cmp = icmp eq %"struct.xalanc_1_10::XalanList<xalanc_1_10::ReusableArenaBlock<xalanc_1_10::XalanDOMString, unsigned short> *>::Node"* %0, %2, !dbg !3223
  ret i1 %cmp, !dbg !3224
}

; Function Attrs: noinline uwtable
define linkonce_odr dso_local %"struct.xalanc_1_10::XalanList<xalanc_1_10::ReusableArenaBlock<xalanc_1_10::XalanDOMString, unsigned short> *>::Node"* @_ZNK11xalanc_1_109XalanListIPNS_18ReusableArenaBlockINS_14XalanDOMStringEtEEE3endEv(%"class.xalanc_1_10::XalanList"* %this) #0 comdat align 2 !dbg !3225 {
entry:
  %retval = alloca %"struct.xalanc_1_10::XalanListIteratorBase.1", align 8
  %this.addr = alloca %"class.xalanc_1_10::XalanList"*, align 8
  store %"class.xalanc_1_10::XalanList"* %this, %"class.xalanc_1_10::XalanList"** %this.addr, align 8
  call void @llvm.dbg.declare(metadata %"class.xalanc_1_10::XalanList"** %this.addr, metadata !3226, metadata !DIExpression()), !dbg !3227
  %this1 = load %"class.xalanc_1_10::XalanList"*, %"class.xalanc_1_10::XalanList"** %this.addr, align 8
  %call = call dereferenceable(24) %"struct.xalanc_1_10::XalanList<xalanc_1_10::ReusableArenaBlock<xalanc_1_10::XalanDOMString, unsigned short> *>::Node"* @_ZNK11xalanc_1_109XalanListIPNS_18ReusableArenaBlockINS_14XalanDOMStringEtEEE11getListHeadEv(%"class.xalanc_1_10::XalanList"* %this1), !dbg !3228
  call void @_ZN11xalanc_1_1021XalanListIteratorBaseINS_28XalanListConstIteratorTraitsIPNS_18ReusableArenaBlockINS_14XalanDOMStringEtEEEENS_9XalanListIS5_E4NodeEEC2ERS9_(%"struct.xalanc_1_10::XalanListIteratorBase.1"* %retval, %"struct.xalanc_1_10::XalanList<xalanc_1_10::ReusableArenaBlock<xalanc_1_10::XalanDOMString, unsigned short> *>::Node"* dereferenceable(24) %call), !dbg !3229
  %coerce.dive = getelementptr inbounds %"struct.xalanc_1_10::XalanListIteratorBase.1", %"struct.xalanc_1_10::XalanListIteratorBase.1"* %retval, i32 0, i32 0, !dbg !3230
  %0 = load %"struct.xalanc_1_10::XalanList<xalanc_1_10::ReusableArenaBlock<xalanc_1_10::XalanDOMString, unsigned short> *>::Node"*, %"struct.xalanc_1_10::XalanList<xalanc_1_10::ReusableArenaBlock<xalanc_1_10::XalanDOMString, unsigned short> *>::Node"** %coerce.dive, align 8, !dbg !3230
  ret %"struct.xalanc_1_10::XalanList<xalanc_1_10::ReusableArenaBlock<xalanc_1_10::XalanDOMString, unsigned short> *>::Node"* %0, !dbg !3230
}

; Function Attrs: noinline uwtable
define linkonce_odr dso_local dereferenceable(24) %"struct.xalanc_1_10::XalanList<xalanc_1_10::ReusableArenaBlock<xalanc_1_10::XalanDOMString, unsigned short> *>::Node"* @_ZNK11xalanc_1_109XalanListIPNS_18ReusableArenaBlockINS_14XalanDOMStringEtEEE11getListHeadEv(%"class.xalanc_1_10::XalanList"* %this) #0 comdat align 2 !dbg !3231 {
entry:
  %this.addr = alloca %"class.xalanc_1_10::XalanList"*, align 8
  store %"class.xalanc_1_10::XalanList"* %this, %"class.xalanc_1_10::XalanList"** %this.addr, align 8
  call void @llvm.dbg.declare(metadata %"class.xalanc_1_10::XalanList"** %this.addr, metadata !3232, metadata !DIExpression()), !dbg !3233
  %this1 = load %"class.xalanc_1_10::XalanList"*, %"class.xalanc_1_10::XalanList"** %this.addr, align 8
  %call = call dereferenceable(24) %"struct.xalanc_1_10::XalanList<xalanc_1_10::ReusableArenaBlock<xalanc_1_10::XalanDOMString, unsigned short> *>::Node"* @_ZN11xalanc_1_109XalanListIPNS_18ReusableArenaBlockINS_14XalanDOMStringEtEEE11getListHeadEv(%"class.xalanc_1_10::XalanList"* %this1), !dbg !3234
  ret %"struct.xalanc_1_10::XalanList<xalanc_1_10::ReusableArenaBlock<xalanc_1_10::XalanDOMString, unsigned short> *>::Node"* %call, !dbg !3235
}

; Function Attrs: noinline nounwind uwtable
define linkonce_odr dso_local void @_ZN11xalanc_1_1021XalanListIteratorBaseINS_28XalanListConstIteratorTraitsIPNS_18ReusableArenaBlockINS_14XalanDOMStringEtEEEENS_9XalanListIS5_E4NodeEEC2ERS9_(%"struct.xalanc_1_10::XalanListIteratorBase.1"* %this, %"struct.xalanc_1_10::XalanList<xalanc_1_10::ReusableArenaBlock<xalanc_1_10::XalanDOMString, unsigned short> *>::Node"* dereferenceable(24) %node) unnamed_addr #3 comdat align 2 !dbg !3236 {
entry:
  %this.addr = alloca %"struct.xalanc_1_10::XalanListIteratorBase.1"*, align 8
  %node.addr = alloca %"struct.xalanc_1_10::XalanList<xalanc_1_10::ReusableArenaBlock<xalanc_1_10::XalanDOMString, unsigned short> *>::Node"*, align 8
  store %"struct.xalanc_1_10::XalanListIteratorBase.1"* %this, %"struct.xalanc_1_10::XalanListIteratorBase.1"** %this.addr, align 8
  call void @llvm.dbg.declare(metadata %"struct.xalanc_1_10::XalanListIteratorBase.1"** %this.addr, metadata !3237, metadata !DIExpression()), !dbg !3239
  store %"struct.xalanc_1_10::XalanList<xalanc_1_10::ReusableArenaBlock<xalanc_1_10::XalanDOMString, unsigned short> *>::Node"* %node, %"struct.xalanc_1_10::XalanList<xalanc_1_10::ReusableArenaBlock<xalanc_1_10::XalanDOMString, unsigned short> *>::Node"** %node.addr, align 8
  call void @llvm.dbg.declare(metadata %"struct.xalanc_1_10::XalanList<xalanc_1_10::ReusableArenaBlock<xalanc_1_10::XalanDOMString, unsigned short> *>::Node"** %node.addr, metadata !3240, metadata !DIExpression()), !dbg !3241
  %this1 = load %"struct.xalanc_1_10::XalanListIteratorBase.1"*, %"struct.xalanc_1_10::XalanListIteratorBase.1"** %this.addr, align 8
  %currentNode = getelementptr inbounds %"struct.xalanc_1_10::XalanListIteratorBase.1", %"struct.xalanc_1_10::XalanListIteratorBase.1"* %this1, i32 0, i32 0, !dbg !3242
  %0 = load %"struct.xalanc_1_10::XalanList<xalanc_1_10::ReusableArenaBlock<xalanc_1_10::XalanDOMString, unsigned short> *>::Node"*, %"struct.xalanc_1_10::XalanList<xalanc_1_10::ReusableArenaBlock<xalanc_1_10::XalanDOMString, unsigned short> *>::Node"** %node.addr, align 8, !dbg !3243
  store %"struct.xalanc_1_10::XalanList<xalanc_1_10::ReusableArenaBlock<xalanc_1_10::XalanDOMString, unsigned short> *>::Node"* %0, %"struct.xalanc_1_10::XalanList<xalanc_1_10::ReusableArenaBlock<xalanc_1_10::XalanDOMString, unsigned short> *>::Node"** %currentNode, align 8, !dbg !3242
  ret void, !dbg !3244
}

; Function Attrs: noinline uwtable
define linkonce_odr dso_local dereferenceable(24) %"struct.xalanc_1_10::XalanList<xalanc_1_10::ReusableArenaBlock<xalanc_1_10::XalanDOMString, unsigned short> *>::Node"* @_ZN11xalanc_1_109XalanListIPNS_18ReusableArenaBlockINS_14XalanDOMStringEtEEE11getListHeadEv(%"class.xalanc_1_10::XalanList"* %this) #0 comdat align 2 !dbg !3245 {
entry:
  %this.addr = alloca %"class.xalanc_1_10::XalanList"*, align 8
  store %"class.xalanc_1_10::XalanList"* %this, %"class.xalanc_1_10::XalanList"** %this.addr, align 8
  call void @llvm.dbg.declare(metadata %"class.xalanc_1_10::XalanList"** %this.addr, metadata !3246, metadata !DIExpression()), !dbg !3247
  %this1 = load %"class.xalanc_1_10::XalanList"*, %"class.xalanc_1_10::XalanList"** %this.addr, align 8
  %m_listHead = getelementptr inbounds %"class.xalanc_1_10::XalanList", %"class.xalanc_1_10::XalanList"* %this1, i32 0, i32 1, !dbg !3248
  %0 = load %"struct.xalanc_1_10::XalanList<xalanc_1_10::ReusableArenaBlock<xalanc_1_10::XalanDOMString, unsigned short> *>::Node"*, %"struct.xalanc_1_10::XalanList<xalanc_1_10::ReusableArenaBlock<xalanc_1_10::XalanDOMString, unsigned short> *>::Node"** %m_listHead, align 8, !dbg !3248
  %cmp = icmp eq %"struct.xalanc_1_10::XalanList<xalanc_1_10::ReusableArenaBlock<xalanc_1_10::XalanDOMString, unsigned short> *>::Node"* null, %0, !dbg !3250
  br i1 %cmp, label %if.then, label %if.end, !dbg !3251

if.then:                                          ; preds = %entry
  %call = call %"struct.xalanc_1_10::XalanList<xalanc_1_10::ReusableArenaBlock<xalanc_1_10::XalanDOMString, unsigned short> *>::Node"* @_ZN11xalanc_1_109XalanListIPNS_18ReusableArenaBlockINS_14XalanDOMStringEtEEE8allocateEm(%"class.xalanc_1_10::XalanList"* %this1, i64 1), !dbg !3252
  %m_listHead2 = getelementptr inbounds %"class.xalanc_1_10::XalanList", %"class.xalanc_1_10::XalanList"* %this1, i32 0, i32 1, !dbg !3254
  store %"struct.xalanc_1_10::XalanList<xalanc_1_10::ReusableArenaBlock<xalanc_1_10::XalanDOMString, unsigned short> *>::Node"* %call, %"struct.xalanc_1_10::XalanList<xalanc_1_10::ReusableArenaBlock<xalanc_1_10::XalanDOMString, unsigned short> *>::Node"** %m_listHead2, align 8, !dbg !3255
  %m_listHead3 = getelementptr inbounds %"class.xalanc_1_10::XalanList", %"class.xalanc_1_10::XalanList"* %this1, i32 0, i32 1, !dbg !3256
  %1 = load %"struct.xalanc_1_10::XalanList<xalanc_1_10::ReusableArenaBlock<xalanc_1_10::XalanDOMString, unsigned short> *>::Node"*, %"struct.xalanc_1_10::XalanList<xalanc_1_10::ReusableArenaBlock<xalanc_1_10::XalanDOMString, unsigned short> *>::Node"** %m_listHead3, align 8, !dbg !3256
  %m_listHead4 = getelementptr inbounds %"class.xalanc_1_10::XalanList", %"class.xalanc_1_10::XalanList"* %this1, i32 0, i32 1, !dbg !3257
  %2 = load %"struct.xalanc_1_10::XalanList<xalanc_1_10::ReusableArenaBlock<xalanc_1_10::XalanDOMString, unsigned short> *>::Node"*, %"struct.xalanc_1_10::XalanList<xalanc_1_10::ReusableArenaBlock<xalanc_1_10::XalanDOMString, unsigned short> *>::Node"** %m_listHead4, align 8, !dbg !3257
  %next = getelementptr inbounds %"struct.xalanc_1_10::XalanList<xalanc_1_10::ReusableArenaBlock<xalanc_1_10::XalanDOMString, unsigned short> *>::Node", %"struct.xalanc_1_10::XalanList<xalanc_1_10::ReusableArenaBlock<xalanc_1_10::XalanDOMString, unsigned short> *>::Node"* %2, i32 0, i32 2, !dbg !3258
  store %"struct.xalanc_1_10::XalanList<xalanc_1_10::ReusableArenaBlock<xalanc_1_10::XalanDOMString, unsigned short> *>::Node"* %1, %"struct.xalanc_1_10::XalanList<xalanc_1_10::ReusableArenaBlock<xalanc_1_10::XalanDOMString, unsigned short> *>::Node"** %next, align 8, !dbg !3259
  %m_listHead5 = getelementptr inbounds %"class.xalanc_1_10::XalanList", %"class.xalanc_1_10::XalanList"* %this1, i32 0, i32 1, !dbg !3260
  %3 = load %"struct.xalanc_1_10::XalanList<xalanc_1_10::ReusableArenaBlock<xalanc_1_10::XalanDOMString, unsigned short> *>::Node"*, %"struct.xalanc_1_10::XalanList<xalanc_1_10::ReusableArenaBlock<xalanc_1_10::XalanDOMString, unsigned short> *>::Node"** %m_listHead5, align 8, !dbg !3260
  %m_listHead6 = getelementptr inbounds %"class.xalanc_1_10::XalanList", %"class.xalanc_1_10::XalanList"* %this1, i32 0, i32 1, !dbg !3261
  %4 = load %"struct.xalanc_1_10::XalanList<xalanc_1_10::ReusableArenaBlock<xalanc_1_10::XalanDOMString, unsigned short> *>::Node"*, %"struct.xalanc_1_10::XalanList<xalanc_1_10::ReusableArenaBlock<xalanc_1_10::XalanDOMString, unsigned short> *>::Node"** %m_listHead6, align 8, !dbg !3261
  %prev = getelementptr inbounds %"struct.xalanc_1_10::XalanList<xalanc_1_10::ReusableArenaBlock<xalanc_1_10::XalanDOMString, unsigned short> *>::Node", %"struct.xalanc_1_10::XalanList<xalanc_1_10::ReusableArenaBlock<xalanc_1_10::XalanDOMString, unsigned short> *>::Node"* %4, i32 0, i32 1, !dbg !3262
  store %"struct.xalanc_1_10::XalanList<xalanc_1_10::ReusableArenaBlock<xalanc_1_10::XalanDOMString, unsigned short> *>::Node"* %3, %"struct.xalanc_1_10::XalanList<xalanc_1_10::ReusableArenaBlock<xalanc_1_10::XalanDOMString, unsigned short> *>::Node"** %prev, align 8, !dbg !3263
  br label %if.end, !dbg !3264

if.end:                                           ; preds = %if.then, %entry
  %m_listHead7 = getelementptr inbounds %"class.xalanc_1_10::XalanList", %"class.xalanc_1_10::XalanList"* %this1, i32 0, i32 1, !dbg !3265
  %5 = load %"struct.xalanc_1_10::XalanList<xalanc_1_10::ReusableArenaBlock<xalanc_1_10::XalanDOMString, unsigned short> *>::Node"*, %"struct.xalanc_1_10::XalanList<xalanc_1_10::ReusableArenaBlock<xalanc_1_10::XalanDOMString, unsigned short> *>::Node"** %m_listHead7, align 8, !dbg !3265
  ret %"struct.xalanc_1_10::XalanList<xalanc_1_10::ReusableArenaBlock<xalanc_1_10::XalanDOMString, unsigned short> *>::Node"* %5, !dbg !3266
}

; Function Attrs: noinline uwtable
define linkonce_odr dso_local %"struct.xalanc_1_10::XalanList<xalanc_1_10::ReusableArenaBlock<xalanc_1_10::XalanDOMString, unsigned short> *>::Node"* @_ZN11xalanc_1_109XalanListIPNS_18ReusableArenaBlockINS_14XalanDOMStringEtEEE8allocateEm(%"class.xalanc_1_10::XalanList"* %this, i64 %size) #0 comdat align 2 !dbg !3267 {
entry:
  %this.addr = alloca %"class.xalanc_1_10::XalanList"*, align 8
  %size.addr = alloca i64, align 8
  %theBytesNeeded = alloca i64, align 8
  %pointer = alloca i8*, align 8
  store %"class.xalanc_1_10::XalanList"* %this, %"class.xalanc_1_10::XalanList"** %this.addr, align 8
  call void @llvm.dbg.declare(metadata %"class.xalanc_1_10::XalanList"** %this.addr, metadata !3268, metadata !DIExpression()), !dbg !3269
  store i64 %size, i64* %size.addr, align 8
  call void @llvm.dbg.declare(metadata i64* %size.addr, metadata !3270, metadata !DIExpression()), !dbg !3271
  %this1 = load %"class.xalanc_1_10::XalanList"*, %"class.xalanc_1_10::XalanList"** %this.addr, align 8
  call void @llvm.dbg.declare(metadata i64* %theBytesNeeded, metadata !3272, metadata !DIExpression()), !dbg !3274
  %0 = load i64, i64* %size.addr, align 8, !dbg !3275
  %mul = mul i64 %0, 24, !dbg !3276
  store i64 %mul, i64* %theBytesNeeded, align 8, !dbg !3274
  call void @llvm.dbg.declare(metadata i8** %pointer, metadata !3277, metadata !DIExpression()), !dbg !3278
  %m_memoryManager = getelementptr inbounds %"class.xalanc_1_10::XalanList", %"class.xalanc_1_10::XalanList"* %this1, i32 0, i32 0, !dbg !3279
  %1 = load %"class.xercesc_2_7::MemoryManager"*, %"class.xercesc_2_7::MemoryManager"** %m_memoryManager, align 8, !dbg !3279
  %2 = load i64, i64* %theBytesNeeded, align 8, !dbg !3280
  %3 = bitcast %"class.xercesc_2_7::MemoryManager"* %1 to i8* (%"class.xercesc_2_7::MemoryManager"*, i64)***, !dbg !3281
  %vtable = load i8* (%"class.xercesc_2_7::MemoryManager"*, i64)**, i8* (%"class.xercesc_2_7::MemoryManager"*, i64)*** %3, align 8, !dbg !3281
  %vfn = getelementptr inbounds i8* (%"class.xercesc_2_7::MemoryManager"*, i64)*, i8* (%"class.xercesc_2_7::MemoryManager"*, i64)** %vtable, i64 2, !dbg !3281
  %4 = load i8* (%"class.xercesc_2_7::MemoryManager"*, i64)*, i8* (%"class.xercesc_2_7::MemoryManager"*, i64)** %vfn, align 8, !dbg !3281
  %call = call i8* %4(%"class.xercesc_2_7::MemoryManager"* %1, i64 %2), !dbg !3281
  store i8* %call, i8** %pointer, align 8, !dbg !3278
  %5 = load i8*, i8** %pointer, align 8, !dbg !3282
  %6 = bitcast i8* %5 to %"struct.xalanc_1_10::XalanList<xalanc_1_10::ReusableArenaBlock<xalanc_1_10::XalanDOMString, unsigned short> *>::Node"*, !dbg !3283
  ret %"struct.xalanc_1_10::XalanList<xalanc_1_10::ReusableArenaBlock<xalanc_1_10::XalanDOMString, unsigned short> *>::Node"* %6, !dbg !3284
}

; Function Attrs: noinline nounwind uwtable
define linkonce_odr dso_local void @_ZN11xalanc_1_1021XalanListIteratorBaseINS_23XalanListIteratorTraitsIPNS_18ReusableArenaBlockINS_14XalanDOMStringEtEEEENS_9XalanListIS5_E4NodeEEC2ERS9_(%"struct.xalanc_1_10::XalanListIteratorBase"* %this, %"struct.xalanc_1_10::XalanList<xalanc_1_10::ReusableArenaBlock<xalanc_1_10::XalanDOMString, unsigned short> *>::Node"* dereferenceable(24) %node) unnamed_addr #3 comdat align 2 !dbg !3285 {
entry:
  %this.addr = alloca %"struct.xalanc_1_10::XalanListIteratorBase"*, align 8
  %node.addr = alloca %"struct.xalanc_1_10::XalanList<xalanc_1_10::ReusableArenaBlock<xalanc_1_10::XalanDOMString, unsigned short> *>::Node"*, align 8
  store %"struct.xalanc_1_10::XalanListIteratorBase"* %this, %"struct.xalanc_1_10::XalanListIteratorBase"** %this.addr, align 8
  call void @llvm.dbg.declare(metadata %"struct.xalanc_1_10::XalanListIteratorBase"** %this.addr, metadata !3286, metadata !DIExpression()), !dbg !3287
  store %"struct.xalanc_1_10::XalanList<xalanc_1_10::ReusableArenaBlock<xalanc_1_10::XalanDOMString, unsigned short> *>::Node"* %node, %"struct.xalanc_1_10::XalanList<xalanc_1_10::ReusableArenaBlock<xalanc_1_10::XalanDOMString, unsigned short> *>::Node"** %node.addr, align 8
  call void @llvm.dbg.declare(metadata %"struct.xalanc_1_10::XalanList<xalanc_1_10::ReusableArenaBlock<xalanc_1_10::XalanDOMString, unsigned short> *>::Node"** %node.addr, metadata !3288, metadata !DIExpression()), !dbg !3289
  %this1 = load %"struct.xalanc_1_10::XalanListIteratorBase"*, %"struct.xalanc_1_10::XalanListIteratorBase"** %this.addr, align 8
  %currentNode = getelementptr inbounds %"struct.xalanc_1_10::XalanListIteratorBase", %"struct.xalanc_1_10::XalanListIteratorBase"* %this1, i32 0, i32 0, !dbg !3290
  %0 = load %"struct.xalanc_1_10::XalanList<xalanc_1_10::ReusableArenaBlock<xalanc_1_10::XalanDOMString, unsigned short> *>::Node"*, %"struct.xalanc_1_10::XalanList<xalanc_1_10::ReusableArenaBlock<xalanc_1_10::XalanDOMString, unsigned short> *>::Node"** %node.addr, align 8, !dbg !3291
  store %"struct.xalanc_1_10::XalanList<xalanc_1_10::ReusableArenaBlock<xalanc_1_10::XalanDOMString, unsigned short> *>::Node"* %0, %"struct.xalanc_1_10::XalanList<xalanc_1_10::ReusableArenaBlock<xalanc_1_10::XalanDOMString, unsigned short> *>::Node"** %currentNode, align 8, !dbg !3290
  ret void, !dbg !3292
}

; Function Attrs: noinline nounwind uwtable
define linkonce_odr dso_local zeroext i1 @_ZNK11xalanc_1_1021XalanListIteratorBaseINS_23XalanListIteratorTraitsIPNS_18ReusableArenaBlockINS_14XalanDOMStringEtEEEENS_9XalanListIS5_E4NodeEEeqERKSA_(%"struct.xalanc_1_10::XalanListIteratorBase"* %this, %"struct.xalanc_1_10::XalanListIteratorBase"* dereferenceable(8) %theRhs) #3 comdat align 2 !dbg !3293 {
entry:
  %this.addr = alloca %"struct.xalanc_1_10::XalanListIteratorBase"*, align 8
  %theRhs.addr = alloca %"struct.xalanc_1_10::XalanListIteratorBase"*, align 8
  store %"struct.xalanc_1_10::XalanListIteratorBase"* %this, %"struct.xalanc_1_10::XalanListIteratorBase"** %this.addr, align 8
  call void @llvm.dbg.declare(metadata %"struct.xalanc_1_10::XalanListIteratorBase"** %this.addr, metadata !3294, metadata !DIExpression()), !dbg !3295
  store %"struct.xalanc_1_10::XalanListIteratorBase"* %theRhs, %"struct.xalanc_1_10::XalanListIteratorBase"** %theRhs.addr, align 8
  call void @llvm.dbg.declare(metadata %"struct.xalanc_1_10::XalanListIteratorBase"** %theRhs.addr, metadata !3296, metadata !DIExpression()), !dbg !3297
  %this1 = load %"struct.xalanc_1_10::XalanListIteratorBase"*, %"struct.xalanc_1_10::XalanListIteratorBase"** %this.addr, align 8
  %currentNode = getelementptr inbounds %"struct.xalanc_1_10::XalanListIteratorBase", %"struct.xalanc_1_10::XalanListIteratorBase"* %this1, i32 0, i32 0, !dbg !3298
  %0 = load %"struct.xalanc_1_10::XalanList<xalanc_1_10::ReusableArenaBlock<xalanc_1_10::XalanDOMString, unsigned short> *>::Node"*, %"struct.xalanc_1_10::XalanList<xalanc_1_10::ReusableArenaBlock<xalanc_1_10::XalanDOMString, unsigned short> *>::Node"** %currentNode, align 8, !dbg !3298
  %1 = load %"struct.xalanc_1_10::XalanListIteratorBase"*, %"struct.xalanc_1_10::XalanListIteratorBase"** %theRhs.addr, align 8, !dbg !3299
  %currentNode2 = getelementptr inbounds %"struct.xalanc_1_10::XalanListIteratorBase", %"struct.xalanc_1_10::XalanListIteratorBase"* %1, i32 0, i32 0, !dbg !3300
  %2 = load %"struct.xalanc_1_10::XalanList<xalanc_1_10::ReusableArenaBlock<xalanc_1_10::XalanDOMString, unsigned short> *>::Node"*, %"struct.xalanc_1_10::XalanList<xalanc_1_10::ReusableArenaBlock<xalanc_1_10::XalanDOMString, unsigned short> *>::Node"** %currentNode2, align 8, !dbg !3300
  %cmp = icmp eq %"struct.xalanc_1_10::XalanList<xalanc_1_10::ReusableArenaBlock<xalanc_1_10::XalanDOMString, unsigned short> *>::Node"* %0, %2, !dbg !3301
  ret i1 %cmp, !dbg !3302
}

; Function Attrs: noinline nounwind uwtable
define linkonce_odr dso_local zeroext i1 @_ZNK11xalanc_1_1014ArenaBlockBaseINS_14XalanDOMStringEtE11isInBordersEPKS1_t(%"class.xalanc_1_10::ArenaBlockBase"* %this, %"class.xalanc_1_10::XalanDOMString"* %theObject, i16 zeroext %rightBoundary) #3 comdat align 2 !dbg !3303 {
entry:
  %retval = alloca i1, align 1
  %this.addr = alloca %"class.xalanc_1_10::ArenaBlockBase"*, align 8
  %theObject.addr = alloca %"class.xalanc_1_10::XalanDOMString"*, align 8
  %rightBoundary.addr = alloca i16, align 2
  %functor = alloca %"struct.std::less", align 1
  store %"class.xalanc_1_10::ArenaBlockBase"* %this, %"class.xalanc_1_10::ArenaBlockBase"** %this.addr, align 8
  call void @llvm.dbg.declare(metadata %"class.xalanc_1_10::ArenaBlockBase"** %this.addr, metadata !3304, metadata !DIExpression()), !dbg !3305
  store %"class.xalanc_1_10::XalanDOMString"* %theObject, %"class.xalanc_1_10::XalanDOMString"** %theObject.addr, align 8
  call void @llvm.dbg.declare(metadata %"class.xalanc_1_10::XalanDOMString"** %theObject.addr, metadata !3306, metadata !DIExpression()), !dbg !3307
  store i16 %rightBoundary, i16* %rightBoundary.addr, align 2
  call void @llvm.dbg.declare(metadata i16* %rightBoundary.addr, metadata !3308, metadata !DIExpression()), !dbg !3309
  %this1 = load %"class.xalanc_1_10::ArenaBlockBase"*, %"class.xalanc_1_10::ArenaBlockBase"** %this.addr, align 8
  %0 = load i16, i16* %rightBoundary.addr, align 2, !dbg !3310
  %conv = zext i16 %0 to i32, !dbg !3310
  %m_blockSize = getelementptr inbounds %"class.xalanc_1_10::ArenaBlockBase", %"class.xalanc_1_10::ArenaBlockBase"* %this1, i32 0, i32 2, !dbg !3312
  %1 = load i16, i16* %m_blockSize, align 2, !dbg !3312
  %conv2 = zext i16 %1 to i32, !dbg !3312
  %cmp = icmp sgt i32 %conv, %conv2, !dbg !3313
  br i1 %cmp, label %if.then, label %if.end, !dbg !3314

if.then:                                          ; preds = %entry
  %m_blockSize3 = getelementptr inbounds %"class.xalanc_1_10::ArenaBlockBase", %"class.xalanc_1_10::ArenaBlockBase"* %this1, i32 0, i32 2, !dbg !3315
  %2 = load i16, i16* %m_blockSize3, align 2, !dbg !3315
  store i16 %2, i16* %rightBoundary.addr, align 2, !dbg !3317
  br label %if.end, !dbg !3318

if.end:                                           ; preds = %if.then, %entry
  call void @llvm.dbg.declare(metadata %"struct.std::less"* %functor, metadata !3319, metadata !DIExpression()), !dbg !3335
  %3 = load %"class.xalanc_1_10::XalanDOMString"*, %"class.xalanc_1_10::XalanDOMString"** %theObject.addr, align 8, !dbg !3336
  %m_objectBlock = getelementptr inbounds %"class.xalanc_1_10::ArenaBlockBase", %"class.xalanc_1_10::ArenaBlockBase"* %this1, i32 0, i32 3, !dbg !3338
  %4 = load %"class.xalanc_1_10::XalanDOMString"*, %"class.xalanc_1_10::XalanDOMString"** %m_objectBlock, align 8, !dbg !3338
  %call = call zeroext i1 @_ZNKSt4lessIPKN11xalanc_1_1014XalanDOMStringEEclES3_S3_(%"struct.std::less"* %functor, %"class.xalanc_1_10::XalanDOMString"* %3, %"class.xalanc_1_10::XalanDOMString"* %4) #7, !dbg !3339
  %conv4 = zext i1 %call to i32, !dbg !3339
  %cmp5 = icmp eq i32 %conv4, 0, !dbg !3340
  br i1 %cmp5, label %land.lhs.true, label %if.else, !dbg !3341

land.lhs.true:                                    ; preds = %if.end
  %5 = load %"class.xalanc_1_10::XalanDOMString"*, %"class.xalanc_1_10::XalanDOMString"** %theObject.addr, align 8, !dbg !3342
  %m_objectBlock6 = getelementptr inbounds %"class.xalanc_1_10::ArenaBlockBase", %"class.xalanc_1_10::ArenaBlockBase"* %this1, i32 0, i32 3, !dbg !3343
  %6 = load %"class.xalanc_1_10::XalanDOMString"*, %"class.xalanc_1_10::XalanDOMString"** %m_objectBlock6, align 8, !dbg !3343
  %7 = load i16, i16* %rightBoundary.addr, align 2, !dbg !3344
  %conv7 = zext i16 %7 to i32, !dbg !3344
  %idx.ext = sext i32 %conv7 to i64, !dbg !3345
  %add.ptr = getelementptr inbounds %"class.xalanc_1_10::XalanDOMString", %"class.xalanc_1_10::XalanDOMString"* %6, i64 %idx.ext, !dbg !3345
  %call8 = call zeroext i1 @_ZNKSt4lessIPKN11xalanc_1_1014XalanDOMStringEEclES3_S3_(%"struct.std::less"* %functor, %"class.xalanc_1_10::XalanDOMString"* %5, %"class.xalanc_1_10::XalanDOMString"* %add.ptr) #7, !dbg !3346
  %conv9 = zext i1 %call8 to i32, !dbg !3346
  %cmp10 = icmp eq i32 %conv9, 1, !dbg !3347
  br i1 %cmp10, label %if.then11, label %if.else, !dbg !3348

if.then11:                                        ; preds = %land.lhs.true
  store i1 true, i1* %retval, align 1, !dbg !3349
  br label %return, !dbg !3349

if.else:                                          ; preds = %land.lhs.true, %if.end
  store i1 false, i1* %retval, align 1, !dbg !3351
  br label %return, !dbg !3351

return:                                           ; preds = %if.else, %if.then11
  %8 = load i1, i1* %retval, align 1, !dbg !3353
  ret i1 %8, !dbg !3353
}

; Function Attrs: noinline nounwind uwtable
define linkonce_odr dso_local zeroext i1 @_ZNKSt4lessIPKN11xalanc_1_1014XalanDOMStringEEclES3_S3_(%"struct.std::less"* %this, %"class.xalanc_1_10::XalanDOMString"* %__x, %"class.xalanc_1_10::XalanDOMString"* %__y) #3 comdat align 2 !dbg !3354 {
entry:
  %this.addr = alloca %"struct.std::less"*, align 8
  %__x.addr = alloca %"class.xalanc_1_10::XalanDOMString"*, align 8
  %__y.addr = alloca %"class.xalanc_1_10::XalanDOMString"*, align 8
  store %"struct.std::less"* %this, %"struct.std::less"** %this.addr, align 8
  call void @llvm.dbg.declare(metadata %"struct.std::less"** %this.addr, metadata !3355, metadata !DIExpression()), !dbg !3357
  store %"class.xalanc_1_10::XalanDOMString"* %__x, %"class.xalanc_1_10::XalanDOMString"** %__x.addr, align 8
  call void @llvm.dbg.declare(metadata %"class.xalanc_1_10::XalanDOMString"** %__x.addr, metadata !3358, metadata !DIExpression()), !dbg !3359
  store %"class.xalanc_1_10::XalanDOMString"* %__y, %"class.xalanc_1_10::XalanDOMString"** %__y.addr, align 8
  call void @llvm.dbg.declare(metadata %"class.xalanc_1_10::XalanDOMString"** %__y.addr, metadata !3360, metadata !DIExpression()), !dbg !3361
  %this1 = load %"struct.std::less"*, %"struct.std::less"** %this.addr, align 8
  %0 = load %"class.xalanc_1_10::XalanDOMString"*, %"class.xalanc_1_10::XalanDOMString"** %__x.addr, align 8, !dbg !3362
  %1 = ptrtoint %"class.xalanc_1_10::XalanDOMString"* %0 to i64, !dbg !3363
  %2 = load %"class.xalanc_1_10::XalanDOMString"*, %"class.xalanc_1_10::XalanDOMString"** %__y.addr, align 8, !dbg !3364
  %3 = ptrtoint %"class.xalanc_1_10::XalanDOMString"* %2 to i64, !dbg !3365
  %cmp = icmp ult i64 %1, %3, !dbg !3366
  ret i1 %cmp, !dbg !3367
}

; Function Attrs: noinline nounwind uwtable
define linkonce_odr dso_local void @_ZN11xalanc_1_1018ReusableArenaBlockINS_14XalanDOMStringEtE9NextBlockC2Et(%"struct.xalanc_1_10::ReusableArenaBlock<xalanc_1_10::XalanDOMString, unsigned short>::NextBlock"* %this, i16 zeroext %_next) unnamed_addr #3 comdat align 2 !dbg !3368 {
entry:
  %this.addr = alloca %"struct.xalanc_1_10::ReusableArenaBlock<xalanc_1_10::XalanDOMString, unsigned short>::NextBlock"*, align 8
  %_next.addr = alloca i16, align 2
  store %"struct.xalanc_1_10::ReusableArenaBlock<xalanc_1_10::XalanDOMString, unsigned short>::NextBlock"* %this, %"struct.xalanc_1_10::ReusableArenaBlock<xalanc_1_10::XalanDOMString, unsigned short>::NextBlock"** %this.addr, align 8
  call void @llvm.dbg.declare(metadata %"struct.xalanc_1_10::ReusableArenaBlock<xalanc_1_10::XalanDOMString, unsigned short>::NextBlock"** %this.addr, metadata !3369, metadata !DIExpression()), !dbg !3370
  store i16 %_next, i16* %_next.addr, align 2
  call void @llvm.dbg.declare(metadata i16* %_next.addr, metadata !3371, metadata !DIExpression()), !dbg !3372
  %this1 = load %"struct.xalanc_1_10::ReusableArenaBlock<xalanc_1_10::XalanDOMString, unsigned short>::NextBlock"*, %"struct.xalanc_1_10::ReusableArenaBlock<xalanc_1_10::XalanDOMString, unsigned short>::NextBlock"** %this.addr, align 8
  %next = getelementptr inbounds %"struct.xalanc_1_10::ReusableArenaBlock<xalanc_1_10::XalanDOMString, unsigned short>::NextBlock", %"struct.xalanc_1_10::ReusableArenaBlock<xalanc_1_10::XalanDOMString, unsigned short>::NextBlock"* %this1, i32 0, i32 0, !dbg !3373
  %0 = load i16, i16* %_next.addr, align 2, !dbg !3374
  store i16 %0, i16* %next, align 4, !dbg !3373
  %verificationStamp = getelementptr inbounds %"struct.xalanc_1_10::ReusableArenaBlock<xalanc_1_10::XalanDOMString, unsigned short>::NextBlock", %"struct.xalanc_1_10::ReusableArenaBlock<xalanc_1_10::XalanDOMString, unsigned short>::NextBlock"* %this1, i32 0, i32 1, !dbg !3375
  store i32 -2228259, i32* %verificationStamp, align 4, !dbg !3375
  ret void, !dbg !3376
}

; Function Attrs: noinline nounwind uwtable
define linkonce_odr dso_local void @_ZN11xalanc_1_1012XalanDestroyINS_14XalanDOMStringEEEvRT_(%"class.xalanc_1_10::XalanDOMString"* dereferenceable(40) %theArg) #3 comdat !dbg !3377 {
entry:
  %theArg.addr = alloca %"class.xalanc_1_10::XalanDOMString"*, align 8
  store %"class.xalanc_1_10::XalanDOMString"* %theArg, %"class.xalanc_1_10::XalanDOMString"** %theArg.addr, align 8
  call void @llvm.dbg.declare(metadata %"class.xalanc_1_10::XalanDOMString"** %theArg.addr, metadata !3380, metadata !DIExpression()), !dbg !3381
  %0 = load %"class.xalanc_1_10::XalanDOMString"*, %"class.xalanc_1_10::XalanDOMString"** %theArg.addr, align 8, !dbg !3382
  call void @_ZN11xalanc_1_1014XalanDOMStringD2Ev(%"class.xalanc_1_10::XalanDOMString"* %0) #7, !dbg !3383
  ret void, !dbg !3384
}

; Function Attrs: noinline nounwind uwtable
define linkonce_odr dso_local void @_ZN11xalanc_1_1014XalanDOMStringD2Ev(%"class.xalanc_1_10::XalanDOMString"* %this) unnamed_addr #3 comdat align 2 !dbg !3385 {
entry:
  %this.addr = alloca %"class.xalanc_1_10::XalanDOMString"*, align 8
  store %"class.xalanc_1_10::XalanDOMString"* %this, %"class.xalanc_1_10::XalanDOMString"** %this.addr, align 8
  call void @llvm.dbg.declare(metadata %"class.xalanc_1_10::XalanDOMString"** %this.addr, metadata !3386, metadata !DIExpression()), !dbg !3387
  %this1 = load %"class.xalanc_1_10::XalanDOMString"*, %"class.xalanc_1_10::XalanDOMString"** %this.addr, align 8
  %m_data = getelementptr inbounds %"class.xalanc_1_10::XalanDOMString", %"class.xalanc_1_10::XalanDOMString"* %this1, i32 0, i32 0, !dbg !3388
  call void @_ZN11xalanc_1_1011XalanVectorItNS_31MemoryManagedConstructionTraitsItEEED2Ev(%"class.xalanc_1_10::XalanVector.0"* %m_data) #7, !dbg !3388
  ret void, !dbg !3390
}

; Function Attrs: noinline nounwind uwtable
define linkonce_odr dso_local void @_ZN11xalanc_1_1011XalanVectorItNS_31MemoryManagedConstructionTraitsItEEED2Ev(%"class.xalanc_1_10::XalanVector.0"* %this) unnamed_addr #3 comdat align 2 personality i8* bitcast (i32 (...)* @__gxx_personality_v0 to i8*) !dbg !3391 {
entry:
  %this.addr = alloca %"class.xalanc_1_10::XalanVector.0"*, align 8
  store %"class.xalanc_1_10::XalanVector.0"* %this, %"class.xalanc_1_10::XalanVector.0"** %this.addr, align 8
  call void @llvm.dbg.declare(metadata %"class.xalanc_1_10::XalanVector.0"** %this.addr, metadata !3392, metadata !DIExpression()), !dbg !3393
  %this1 = load %"class.xalanc_1_10::XalanVector.0"*, %"class.xalanc_1_10::XalanVector.0"** %this.addr, align 8
  invoke void @_ZNK11xalanc_1_1011XalanVectorItNS_31MemoryManagedConstructionTraitsItEEE10invariantsEv(%"class.xalanc_1_10::XalanVector.0"* %this1)
          to label %invoke.cont unwind label %terminate.lpad, !dbg !3394

invoke.cont:                                      ; preds = %entry
  %m_allocation = getelementptr inbounds %"class.xalanc_1_10::XalanVector.0", %"class.xalanc_1_10::XalanVector.0"* %this1, i32 0, i32 2, !dbg !3396
  %0 = load i64, i64* %m_allocation, align 8, !dbg !3396
  %cmp = icmp ne i64 %0, 0, !dbg !3398
  br i1 %cmp, label %if.then, label %if.end, !dbg !3399

if.then:                                          ; preds = %invoke.cont
  %call = invoke i16* @_ZN11xalanc_1_1011XalanVectorItNS_31MemoryManagedConstructionTraitsItEEE5beginEv(%"class.xalanc_1_10::XalanVector.0"* %this1)
          to label %invoke.cont2 unwind label %terminate.lpad, !dbg !3400

invoke.cont2:                                     ; preds = %if.then
  %call4 = invoke i16* @_ZN11xalanc_1_1011XalanVectorItNS_31MemoryManagedConstructionTraitsItEEE3endEv(%"class.xalanc_1_10::XalanVector.0"* %this1)
          to label %invoke.cont3 unwind label %terminate.lpad, !dbg !3402

invoke.cont3:                                     ; preds = %invoke.cont2
  invoke void @_ZN11xalanc_1_1011XalanVectorItNS_31MemoryManagedConstructionTraitsItEEE7destroyEPtS4_(i16* %call, i16* %call4)
          to label %invoke.cont5 unwind label %terminate.lpad, !dbg !3403

invoke.cont5:                                     ; preds = %invoke.cont3
  %m_data = getelementptr inbounds %"class.xalanc_1_10::XalanVector.0", %"class.xalanc_1_10::XalanVector.0"* %this1, i32 0, i32 3, !dbg !3404
  %1 = load i16*, i16** %m_data, align 8, !dbg !3404
  invoke void @_ZN11xalanc_1_1011XalanVectorItNS_31MemoryManagedConstructionTraitsItEEE10deallocateEPt(%"class.xalanc_1_10::XalanVector.0"* %this1, i16* %1)
          to label %invoke.cont6 unwind label %terminate.lpad, !dbg !3405

invoke.cont6:                                     ; preds = %invoke.cont5
  br label %if.end, !dbg !3406

if.end:                                           ; preds = %invoke.cont6, %invoke.cont
  ret void, !dbg !3407

terminate.lpad:                                   ; preds = %invoke.cont5, %invoke.cont3, %invoke.cont2, %if.then, %entry
  %2 = landingpad { i8*, i32 }
          catch i8* null, !dbg !3394
  %3 = extractvalue { i8*, i32 } %2, 0, !dbg !3394
  call void @__clang_call_terminate(i8* %3) #8, !dbg !3394
  unreachable, !dbg !3394
}

; Function Attrs: noinline nounwind uwtable
define linkonce_odr dso_local void @_ZNK11xalanc_1_1011XalanVectorItNS_31MemoryManagedConstructionTraitsItEEE10invariantsEv(%"class.xalanc_1_10::XalanVector.0"* %this) #3 comdat align 2 !dbg !3408 {
entry:
  %this.addr = alloca %"class.xalanc_1_10::XalanVector.0"*, align 8
  store %"class.xalanc_1_10::XalanVector.0"* %this, %"class.xalanc_1_10::XalanVector.0"** %this.addr, align 8
  call void @llvm.dbg.declare(metadata %"class.xalanc_1_10::XalanVector.0"** %this.addr, metadata !3409, metadata !DIExpression()), !dbg !3411
  %this1 = load %"class.xalanc_1_10::XalanVector.0"*, %"class.xalanc_1_10::XalanVector.0"** %this.addr, align 8
  ret void, !dbg !3412
}

; Function Attrs: noinline uwtable
define linkonce_odr dso_local void @_ZN11xalanc_1_1011XalanVectorItNS_31MemoryManagedConstructionTraitsItEEE7destroyEPtS4_(i16* %theFirst, i16* %theLast) #0 comdat align 2 !dbg !3413 {
entry:
  %theFirst.addr = alloca i16*, align 8
  %theLast.addr = alloca i16*, align 8
  store i16* %theFirst, i16** %theFirst.addr, align 8
  call void @llvm.dbg.declare(metadata i16** %theFirst.addr, metadata !3414, metadata !DIExpression()), !dbg !3415
  store i16* %theLast, i16** %theLast.addr, align 8
  call void @llvm.dbg.declare(metadata i16** %theLast.addr, metadata !3416, metadata !DIExpression()), !dbg !3417
  br label %for.cond, !dbg !3418

for.cond:                                         ; preds = %for.inc, %entry
  %0 = load i16*, i16** %theFirst.addr, align 8, !dbg !3419
  %1 = load i16*, i16** %theLast.addr, align 8, !dbg !3422
  %cmp = icmp ne i16* %0, %1, !dbg !3423
  br i1 %cmp, label %for.body, label %for.end, !dbg !3424

for.body:                                         ; preds = %for.cond
  %2 = load i16*, i16** %theFirst.addr, align 8, !dbg !3425
  call void @_ZN11xalanc_1_1011XalanVectorItNS_31MemoryManagedConstructionTraitsItEEE7destroyERt(i16* dereferenceable(2) %2), !dbg !3427
  br label %for.inc, !dbg !3428

for.inc:                                          ; preds = %for.body
  %3 = load i16*, i16** %theFirst.addr, align 8, !dbg !3429
  %incdec.ptr = getelementptr inbounds i16, i16* %3, i32 1, !dbg !3429
  store i16* %incdec.ptr, i16** %theFirst.addr, align 8, !dbg !3429
  br label %for.cond, !dbg !3430, !llvm.loop !3431

for.end:                                          ; preds = %for.cond
  ret void, !dbg !3433
}

; Function Attrs: noinline nounwind uwtable
define linkonce_odr dso_local i16* @_ZN11xalanc_1_1011XalanVectorItNS_31MemoryManagedConstructionTraitsItEEE5beginEv(%"class.xalanc_1_10::XalanVector.0"* %this) #3 comdat align 2 !dbg !3434 {
entry:
  %this.addr = alloca %"class.xalanc_1_10::XalanVector.0"*, align 8
  store %"class.xalanc_1_10::XalanVector.0"* %this, %"class.xalanc_1_10::XalanVector.0"** %this.addr, align 8
  call void @llvm.dbg.declare(metadata %"class.xalanc_1_10::XalanVector.0"** %this.addr, metadata !3435, metadata !DIExpression()), !dbg !3436
  %this1 = load %"class.xalanc_1_10::XalanVector.0"*, %"class.xalanc_1_10::XalanVector.0"** %this.addr, align 8
  call void @_ZNK11xalanc_1_1011XalanVectorItNS_31MemoryManagedConstructionTraitsItEEE10invariantsEv(%"class.xalanc_1_10::XalanVector.0"* %this1), !dbg !3437
  %m_data = getelementptr inbounds %"class.xalanc_1_10::XalanVector.0", %"class.xalanc_1_10::XalanVector.0"* %this1, i32 0, i32 3, !dbg !3438
  %0 = load i16*, i16** %m_data, align 8, !dbg !3438
  ret i16* %0, !dbg !3439
}

; Function Attrs: noinline uwtable
define linkonce_odr dso_local i16* @_ZN11xalanc_1_1011XalanVectorItNS_31MemoryManagedConstructionTraitsItEEE3endEv(%"class.xalanc_1_10::XalanVector.0"* %this) #0 comdat align 2 !dbg !3440 {
entry:
  %this.addr = alloca %"class.xalanc_1_10::XalanVector.0"*, align 8
  store %"class.xalanc_1_10::XalanVector.0"* %this, %"class.xalanc_1_10::XalanVector.0"** %this.addr, align 8
  call void @llvm.dbg.declare(metadata %"class.xalanc_1_10::XalanVector.0"** %this.addr, metadata !3441, metadata !DIExpression()), !dbg !3442
  %this1 = load %"class.xalanc_1_10::XalanVector.0"*, %"class.xalanc_1_10::XalanVector.0"** %this.addr, align 8
  call void @_ZNK11xalanc_1_1011XalanVectorItNS_31MemoryManagedConstructionTraitsItEEE10invariantsEv(%"class.xalanc_1_10::XalanVector.0"* %this1), !dbg !3443
  %call = call i16* @_ZN11xalanc_1_1011XalanVectorItNS_31MemoryManagedConstructionTraitsItEEE10endPointerEv(%"class.xalanc_1_10::XalanVector.0"* %this1), !dbg !3444
  ret i16* %call, !dbg !3445
}

; Function Attrs: noinline uwtable
define linkonce_odr dso_local void @_ZN11xalanc_1_1011XalanVectorItNS_31MemoryManagedConstructionTraitsItEEE10deallocateEPt(%"class.xalanc_1_10::XalanVector.0"* %this, i16* %pointer) #0 comdat align 2 !dbg !3446 {
entry:
  %this.addr = alloca %"class.xalanc_1_10::XalanVector.0"*, align 8
  %pointer.addr = alloca i16*, align 8
  store %"class.xalanc_1_10::XalanVector.0"* %this, %"class.xalanc_1_10::XalanVector.0"** %this.addr, align 8
  call void @llvm.dbg.declare(metadata %"class.xalanc_1_10::XalanVector.0"** %this.addr, metadata !3447, metadata !DIExpression()), !dbg !3448
  store i16* %pointer, i16** %pointer.addr, align 8
  call void @llvm.dbg.declare(metadata i16** %pointer.addr, metadata !3449, metadata !DIExpression()), !dbg !3450
  %this1 = load %"class.xalanc_1_10::XalanVector.0"*, %"class.xalanc_1_10::XalanVector.0"** %this.addr, align 8
  %m_memoryManager = getelementptr inbounds %"class.xalanc_1_10::XalanVector.0", %"class.xalanc_1_10::XalanVector.0"* %this1, i32 0, i32 0, !dbg !3451
  %0 = load %"class.xercesc_2_7::MemoryManager"*, %"class.xercesc_2_7::MemoryManager"** %m_memoryManager, align 8, !dbg !3451
  %1 = load i16*, i16** %pointer.addr, align 8, !dbg !3452
  %2 = bitcast i16* %1 to i8*, !dbg !3452
  %3 = bitcast %"class.xercesc_2_7::MemoryManager"* %0 to void (%"class.xercesc_2_7::MemoryManager"*, i8*)***, !dbg !3453
  %vtable = load void (%"class.xercesc_2_7::MemoryManager"*, i8*)**, void (%"class.xercesc_2_7::MemoryManager"*, i8*)*** %3, align 8, !dbg !3453
  %vfn = getelementptr inbounds void (%"class.xercesc_2_7::MemoryManager"*, i8*)*, void (%"class.xercesc_2_7::MemoryManager"*, i8*)** %vtable, i64 3, !dbg !3453
  %4 = load void (%"class.xercesc_2_7::MemoryManager"*, i8*)*, void (%"class.xercesc_2_7::MemoryManager"*, i8*)** %vfn, align 8, !dbg !3453
  call void %4(%"class.xercesc_2_7::MemoryManager"* %0, i8* %2), !dbg !3453
  ret void, !dbg !3454
}

; Function Attrs: noinline nounwind uwtable
define linkonce_odr dso_local void @_ZN11xalanc_1_1011XalanVectorItNS_31MemoryManagedConstructionTraitsItEEE7destroyERt(i16* dereferenceable(2) %theValue) #3 comdat align 2 !dbg !3455 {
entry:
  %theValue.addr = alloca i16*, align 8
  store i16* %theValue, i16** %theValue.addr, align 8
  call void @llvm.dbg.declare(metadata i16** %theValue.addr, metadata !3456, metadata !DIExpression()), !dbg !3457
  %0 = load i16*, i16** %theValue.addr, align 8, !dbg !3458
  ret void, !dbg !3459
}

; Function Attrs: noinline nounwind uwtable
define linkonce_odr dso_local i16* @_ZN11xalanc_1_1011XalanVectorItNS_31MemoryManagedConstructionTraitsItEEE10endPointerEv(%"class.xalanc_1_10::XalanVector.0"* %this) #3 comdat align 2 !dbg !3460 {
entry:
  %this.addr = alloca %"class.xalanc_1_10::XalanVector.0"*, align 8
  store %"class.xalanc_1_10::XalanVector.0"* %this, %"class.xalanc_1_10::XalanVector.0"** %this.addr, align 8
  call void @llvm.dbg.declare(metadata %"class.xalanc_1_10::XalanVector.0"** %this.addr, metadata !3461, metadata !DIExpression()), !dbg !3462
  %this1 = load %"class.xalanc_1_10::XalanVector.0"*, %"class.xalanc_1_10::XalanVector.0"** %this.addr, align 8
  %m_data = getelementptr inbounds %"class.xalanc_1_10::XalanVector.0", %"class.xalanc_1_10::XalanVector.0"* %this1, i32 0, i32 3, !dbg !3463
  %0 = load i16*, i16** %m_data, align 8, !dbg !3463
  %m_size = getelementptr inbounds %"class.xalanc_1_10::XalanVector.0", %"class.xalanc_1_10::XalanVector.0"* %this1, i32 0, i32 1, !dbg !3464
  %1 = load i64, i64* %m_size, align 8, !dbg !3464
  %add.ptr = getelementptr inbounds i16, i16* %0, i64 %1, !dbg !3465
  ret i16* %add.ptr, !dbg !3466
}

; Function Attrs: noinline nounwind uwtable
define linkonce_odr dso_local void @_ZN11xalanc_1_109XalanListIPNS_18ReusableArenaBlockINS_14XalanDOMStringEtEEE8freeNodeERNS5_4NodeE(%"class.xalanc_1_10::XalanList"* %this, %"struct.xalanc_1_10::XalanList<xalanc_1_10::ReusableArenaBlock<xalanc_1_10::XalanDOMString, unsigned short> *>::Node"* dereferenceable(24) %node) #3 comdat align 2 !dbg !3467 {
entry:
  %this.addr = alloca %"class.xalanc_1_10::XalanList"*, align 8
  %node.addr = alloca %"struct.xalanc_1_10::XalanList<xalanc_1_10::ReusableArenaBlock<xalanc_1_10::XalanDOMString, unsigned short> *>::Node"*, align 8
  store %"class.xalanc_1_10::XalanList"* %this, %"class.xalanc_1_10::XalanList"** %this.addr, align 8
  call void @llvm.dbg.declare(metadata %"class.xalanc_1_10::XalanList"** %this.addr, metadata !3468, metadata !DIExpression()), !dbg !3469
  store %"struct.xalanc_1_10::XalanList<xalanc_1_10::ReusableArenaBlock<xalanc_1_10::XalanDOMString, unsigned short> *>::Node"* %node, %"struct.xalanc_1_10::XalanList<xalanc_1_10::ReusableArenaBlock<xalanc_1_10::XalanDOMString, unsigned short> *>::Node"** %node.addr, align 8
  call void @llvm.dbg.declare(metadata %"struct.xalanc_1_10::XalanList<xalanc_1_10::ReusableArenaBlock<xalanc_1_10::XalanDOMString, unsigned short> *>::Node"** %node.addr, metadata !3470, metadata !DIExpression()), !dbg !3471
  %this1 = load %"class.xalanc_1_10::XalanList"*, %"class.xalanc_1_10::XalanList"** %this.addr, align 8
  %0 = load %"struct.xalanc_1_10::XalanList<xalanc_1_10::ReusableArenaBlock<xalanc_1_10::XalanDOMString, unsigned short> *>::Node"*, %"struct.xalanc_1_10::XalanList<xalanc_1_10::ReusableArenaBlock<xalanc_1_10::XalanDOMString, unsigned short> *>::Node"** %node.addr, align 8, !dbg !3472
  %next = getelementptr inbounds %"struct.xalanc_1_10::XalanList<xalanc_1_10::ReusableArenaBlock<xalanc_1_10::XalanDOMString, unsigned short> *>::Node", %"struct.xalanc_1_10::XalanList<xalanc_1_10::ReusableArenaBlock<xalanc_1_10::XalanDOMString, unsigned short> *>::Node"* %0, i32 0, i32 2, !dbg !3473
  %1 = load %"struct.xalanc_1_10::XalanList<xalanc_1_10::ReusableArenaBlock<xalanc_1_10::XalanDOMString, unsigned short> *>::Node"*, %"struct.xalanc_1_10::XalanList<xalanc_1_10::ReusableArenaBlock<xalanc_1_10::XalanDOMString, unsigned short> *>::Node"** %next, align 8, !dbg !3473
  %2 = load %"struct.xalanc_1_10::XalanList<xalanc_1_10::ReusableArenaBlock<xalanc_1_10::XalanDOMString, unsigned short> *>::Node"*, %"struct.xalanc_1_10::XalanList<xalanc_1_10::ReusableArenaBlock<xalanc_1_10::XalanDOMString, unsigned short> *>::Node"** %node.addr, align 8, !dbg !3474
  %prev = getelementptr inbounds %"struct.xalanc_1_10::XalanList<xalanc_1_10::ReusableArenaBlock<xalanc_1_10::XalanDOMString, unsigned short> *>::Node", %"struct.xalanc_1_10::XalanList<xalanc_1_10::ReusableArenaBlock<xalanc_1_10::XalanDOMString, unsigned short> *>::Node"* %2, i32 0, i32 1, !dbg !3475
  %3 = load %"struct.xalanc_1_10::XalanList<xalanc_1_10::ReusableArenaBlock<xalanc_1_10::XalanDOMString, unsigned short> *>::Node"*, %"struct.xalanc_1_10::XalanList<xalanc_1_10::ReusableArenaBlock<xalanc_1_10::XalanDOMString, unsigned short> *>::Node"** %prev, align 8, !dbg !3475
  %next2 = getelementptr inbounds %"struct.xalanc_1_10::XalanList<xalanc_1_10::ReusableArenaBlock<xalanc_1_10::XalanDOMString, unsigned short> *>::Node", %"struct.xalanc_1_10::XalanList<xalanc_1_10::ReusableArenaBlock<xalanc_1_10::XalanDOMString, unsigned short> *>::Node"* %3, i32 0, i32 2, !dbg !3476
  store %"struct.xalanc_1_10::XalanList<xalanc_1_10::ReusableArenaBlock<xalanc_1_10::XalanDOMString, unsigned short> *>::Node"* %1, %"struct.xalanc_1_10::XalanList<xalanc_1_10::ReusableArenaBlock<xalanc_1_10::XalanDOMString, unsigned short> *>::Node"** %next2, align 8, !dbg !3477
  %4 = load %"struct.xalanc_1_10::XalanList<xalanc_1_10::ReusableArenaBlock<xalanc_1_10::XalanDOMString, unsigned short> *>::Node"*, %"struct.xalanc_1_10::XalanList<xalanc_1_10::ReusableArenaBlock<xalanc_1_10::XalanDOMString, unsigned short> *>::Node"** %node.addr, align 8, !dbg !3478
  %prev3 = getelementptr inbounds %"struct.xalanc_1_10::XalanList<xalanc_1_10::ReusableArenaBlock<xalanc_1_10::XalanDOMString, unsigned short> *>::Node", %"struct.xalanc_1_10::XalanList<xalanc_1_10::ReusableArenaBlock<xalanc_1_10::XalanDOMString, unsigned short> *>::Node"* %4, i32 0, i32 1, !dbg !3479
  %5 = load %"struct.xalanc_1_10::XalanList<xalanc_1_10::ReusableArenaBlock<xalanc_1_10::XalanDOMString, unsigned short> *>::Node"*, %"struct.xalanc_1_10::XalanList<xalanc_1_10::ReusableArenaBlock<xalanc_1_10::XalanDOMString, unsigned short> *>::Node"** %prev3, align 8, !dbg !3479
  %6 = load %"struct.xalanc_1_10::XalanList<xalanc_1_10::ReusableArenaBlock<xalanc_1_10::XalanDOMString, unsigned short> *>::Node"*, %"struct.xalanc_1_10::XalanList<xalanc_1_10::ReusableArenaBlock<xalanc_1_10::XalanDOMString, unsigned short> *>::Node"** %node.addr, align 8, !dbg !3480
  %next4 = getelementptr inbounds %"struct.xalanc_1_10::XalanList<xalanc_1_10::ReusableArenaBlock<xalanc_1_10::XalanDOMString, unsigned short> *>::Node", %"struct.xalanc_1_10::XalanList<xalanc_1_10::ReusableArenaBlock<xalanc_1_10::XalanDOMString, unsigned short> *>::Node"* %6, i32 0, i32 2, !dbg !3481
  %7 = load %"struct.xalanc_1_10::XalanList<xalanc_1_10::ReusableArenaBlock<xalanc_1_10::XalanDOMString, unsigned short> *>::Node"*, %"struct.xalanc_1_10::XalanList<xalanc_1_10::ReusableArenaBlock<xalanc_1_10::XalanDOMString, unsigned short> *>::Node"** %next4, align 8, !dbg !3481
  %prev5 = getelementptr inbounds %"struct.xalanc_1_10::XalanList<xalanc_1_10::ReusableArenaBlock<xalanc_1_10::XalanDOMString, unsigned short> *>::Node", %"struct.xalanc_1_10::XalanList<xalanc_1_10::ReusableArenaBlock<xalanc_1_10::XalanDOMString, unsigned short> *>::Node"* %7, i32 0, i32 1, !dbg !3482
  store %"struct.xalanc_1_10::XalanList<xalanc_1_10::ReusableArenaBlock<xalanc_1_10::XalanDOMString, unsigned short> *>::Node"* %5, %"struct.xalanc_1_10::XalanList<xalanc_1_10::ReusableArenaBlock<xalanc_1_10::XalanDOMString, unsigned short> *>::Node"** %prev5, align 8, !dbg !3483
  %8 = load %"struct.xalanc_1_10::XalanList<xalanc_1_10::ReusableArenaBlock<xalanc_1_10::XalanDOMString, unsigned short> *>::Node"*, %"struct.xalanc_1_10::XalanList<xalanc_1_10::ReusableArenaBlock<xalanc_1_10::XalanDOMString, unsigned short> *>::Node"** %node.addr, align 8, !dbg !3484
  %9 = load %"struct.xalanc_1_10::XalanList<xalanc_1_10::ReusableArenaBlock<xalanc_1_10::XalanDOMString, unsigned short> *>::Node"*, %"struct.xalanc_1_10::XalanList<xalanc_1_10::ReusableArenaBlock<xalanc_1_10::XalanDOMString, unsigned short> *>::Node"** %node.addr, align 8, !dbg !3485
  %prev6 = getelementptr inbounds %"struct.xalanc_1_10::XalanList<xalanc_1_10::ReusableArenaBlock<xalanc_1_10::XalanDOMString, unsigned short> *>::Node", %"struct.xalanc_1_10::XalanList<xalanc_1_10::ReusableArenaBlock<xalanc_1_10::XalanDOMString, unsigned short> *>::Node"* %9, i32 0, i32 1, !dbg !3486
  store %"struct.xalanc_1_10::XalanList<xalanc_1_10::ReusableArenaBlock<xalanc_1_10::XalanDOMString, unsigned short> *>::Node"* null, %"struct.xalanc_1_10::XalanList<xalanc_1_10::ReusableArenaBlock<xalanc_1_10::XalanDOMString, unsigned short> *>::Node"** %prev6, align 8, !dbg !3487
  %m_freeListHeadPtr = getelementptr inbounds %"class.xalanc_1_10::XalanList", %"class.xalanc_1_10::XalanList"* %this1, i32 0, i32 2, !dbg !3488
  %10 = load %"struct.xalanc_1_10::XalanList<xalanc_1_10::ReusableArenaBlock<xalanc_1_10::XalanDOMString, unsigned short> *>::Node"*, %"struct.xalanc_1_10::XalanList<xalanc_1_10::ReusableArenaBlock<xalanc_1_10::XalanDOMString, unsigned short> *>::Node"** %m_freeListHeadPtr, align 8, !dbg !3488
  %11 = load %"struct.xalanc_1_10::XalanList<xalanc_1_10::ReusableArenaBlock<xalanc_1_10::XalanDOMString, unsigned short> *>::Node"*, %"struct.xalanc_1_10::XalanList<xalanc_1_10::ReusableArenaBlock<xalanc_1_10::XalanDOMString, unsigned short> *>::Node"** %node.addr, align 8, !dbg !3489
  %next7 = getelementptr inbounds %"struct.xalanc_1_10::XalanList<xalanc_1_10::ReusableArenaBlock<xalanc_1_10::XalanDOMString, unsigned short> *>::Node", %"struct.xalanc_1_10::XalanList<xalanc_1_10::ReusableArenaBlock<xalanc_1_10::XalanDOMString, unsigned short> *>::Node"* %11, i32 0, i32 2, !dbg !3490
  store %"struct.xalanc_1_10::XalanList<xalanc_1_10::ReusableArenaBlock<xalanc_1_10::XalanDOMString, unsigned short> *>::Node"* %10, %"struct.xalanc_1_10::XalanList<xalanc_1_10::ReusableArenaBlock<xalanc_1_10::XalanDOMString, unsigned short> *>::Node"** %next7, align 8, !dbg !3491
  %12 = load %"struct.xalanc_1_10::XalanList<xalanc_1_10::ReusableArenaBlock<xalanc_1_10::XalanDOMString, unsigned short> *>::Node"*, %"struct.xalanc_1_10::XalanList<xalanc_1_10::ReusableArenaBlock<xalanc_1_10::XalanDOMString, unsigned short> *>::Node"** %node.addr, align 8, !dbg !3492
  %m_freeListHeadPtr8 = getelementptr inbounds %"class.xalanc_1_10::XalanList", %"class.xalanc_1_10::XalanList"* %this1, i32 0, i32 2, !dbg !3493
  store %"struct.xalanc_1_10::XalanList<xalanc_1_10::ReusableArenaBlock<xalanc_1_10::XalanDOMString, unsigned short> *>::Node"* %12, %"struct.xalanc_1_10::XalanList<xalanc_1_10::ReusableArenaBlock<xalanc_1_10::XalanDOMString, unsigned short> *>::Node"** %m_freeListHeadPtr8, align 8, !dbg !3494
  ret void, !dbg !3495
}

; Function Attrs: noinline nounwind uwtable
define linkonce_odr dso_local dereferenceable(24) %"struct.xalanc_1_10::XalanList<xalanc_1_10::ReusableArenaBlock<xalanc_1_10::XalanDOMString, unsigned short> *>::Node"* @_ZN11xalanc_1_1021XalanListIteratorBaseINS_23XalanListIteratorTraitsIPNS_18ReusableArenaBlockINS_14XalanDOMStringEtEEEENS_9XalanListIS5_E4NodeEE4nodeEv(%"struct.xalanc_1_10::XalanListIteratorBase"* %this) #3 comdat align 2 !dbg !3496 {
entry:
  %this.addr = alloca %"struct.xalanc_1_10::XalanListIteratorBase"*, align 8
  store %"struct.xalanc_1_10::XalanListIteratorBase"* %this, %"struct.xalanc_1_10::XalanListIteratorBase"** %this.addr, align 8
  call void @llvm.dbg.declare(metadata %"struct.xalanc_1_10::XalanListIteratorBase"** %this.addr, metadata !3497, metadata !DIExpression()), !dbg !3498
  %this1 = load %"struct.xalanc_1_10::XalanListIteratorBase"*, %"struct.xalanc_1_10::XalanListIteratorBase"** %this.addr, align 8
  %currentNode = getelementptr inbounds %"struct.xalanc_1_10::XalanListIteratorBase", %"struct.xalanc_1_10::XalanListIteratorBase"* %this1, i32 0, i32 0, !dbg !3499
  %0 = load %"struct.xalanc_1_10::XalanList<xalanc_1_10::ReusableArenaBlock<xalanc_1_10::XalanDOMString, unsigned short> *>::Node"*, %"struct.xalanc_1_10::XalanList<xalanc_1_10::ReusableArenaBlock<xalanc_1_10::XalanDOMString, unsigned short> *>::Node"** %currentNode, align 8, !dbg !3499
  ret %"struct.xalanc_1_10::XalanList<xalanc_1_10::ReusableArenaBlock<xalanc_1_10::XalanDOMString, unsigned short> *>::Node"* %0, !dbg !3500
}

; Function Attrs: noinline uwtable
define linkonce_odr dso_local dereferenceable(24) %"struct.xalanc_1_10::XalanList<xalanc_1_10::ReusableArenaBlock<xalanc_1_10::XalanDOMString, unsigned short> *>::Node"* @_ZN11xalanc_1_109XalanListIPNS_18ReusableArenaBlockINS_14XalanDOMStringEtEEE13constructNodeERKS4_NS_21XalanListIteratorBaseINS_23XalanListIteratorTraitsIS4_EENS5_4NodeEEE(%"class.xalanc_1_10::XalanList"* %this, %"class.xalanc_1_10::ReusableArenaBlock"** dereferenceable(8) %data, %"struct.xalanc_1_10::XalanListIteratorBase"* %pos) #0 comdat align 2 !dbg !3501 {
entry:
  %this.addr = alloca %"class.xalanc_1_10::XalanList"*, align 8
  %data.addr = alloca %"class.xalanc_1_10::ReusableArenaBlock"**, align 8
  %newNode = alloca %"struct.xalanc_1_10::XalanList<xalanc_1_10::ReusableArenaBlock<xalanc_1_10::XalanDOMString, unsigned short> *>::Node"*, align 8
  %nextFreeNode = alloca %"struct.xalanc_1_10::XalanList<xalanc_1_10::ReusableArenaBlock<xalanc_1_10::XalanDOMString, unsigned short> *>::Node"*, align 8
  store %"class.xalanc_1_10::XalanList"* %this, %"class.xalanc_1_10::XalanList"** %this.addr, align 8
  call void @llvm.dbg.declare(metadata %"class.xalanc_1_10::XalanList"** %this.addr, metadata !3502, metadata !DIExpression()), !dbg !3503
  store %"class.xalanc_1_10::ReusableArenaBlock"** %data, %"class.xalanc_1_10::ReusableArenaBlock"*** %data.addr, align 8
  call void @llvm.dbg.declare(metadata %"class.xalanc_1_10::ReusableArenaBlock"*** %data.addr, metadata !3504, metadata !DIExpression()), !dbg !3505
  call void @llvm.dbg.declare(metadata %"struct.xalanc_1_10::XalanListIteratorBase"* %pos, metadata !3506, metadata !DIExpression()), !dbg !3507
  %this1 = load %"class.xalanc_1_10::XalanList"*, %"class.xalanc_1_10::XalanList"** %this.addr, align 8
  call void @llvm.dbg.declare(metadata %"struct.xalanc_1_10::XalanList<xalanc_1_10::ReusableArenaBlock<xalanc_1_10::XalanDOMString, unsigned short> *>::Node"** %newNode, metadata !3508, metadata !DIExpression()), !dbg !3509
  store %"struct.xalanc_1_10::XalanList<xalanc_1_10::ReusableArenaBlock<xalanc_1_10::XalanDOMString, unsigned short> *>::Node"* null, %"struct.xalanc_1_10::XalanList<xalanc_1_10::ReusableArenaBlock<xalanc_1_10::XalanDOMString, unsigned short> *>::Node"** %newNode, align 8, !dbg !3509
  call void @llvm.dbg.declare(metadata %"struct.xalanc_1_10::XalanList<xalanc_1_10::ReusableArenaBlock<xalanc_1_10::XalanDOMString, unsigned short> *>::Node"** %nextFreeNode, metadata !3510, metadata !DIExpression()), !dbg !3511
  store %"struct.xalanc_1_10::XalanList<xalanc_1_10::ReusableArenaBlock<xalanc_1_10::XalanDOMString, unsigned short> *>::Node"* null, %"struct.xalanc_1_10::XalanList<xalanc_1_10::ReusableArenaBlock<xalanc_1_10::XalanDOMString, unsigned short> *>::Node"** %nextFreeNode, align 8, !dbg !3511
  %m_freeListHeadPtr = getelementptr inbounds %"class.xalanc_1_10::XalanList", %"class.xalanc_1_10::XalanList"* %this1, i32 0, i32 2, !dbg !3512
  %0 = load %"struct.xalanc_1_10::XalanList<xalanc_1_10::ReusableArenaBlock<xalanc_1_10::XalanDOMString, unsigned short> *>::Node"*, %"struct.xalanc_1_10::XalanList<xalanc_1_10::ReusableArenaBlock<xalanc_1_10::XalanDOMString, unsigned short> *>::Node"** %m_freeListHeadPtr, align 8, !dbg !3512
  %cmp = icmp ne %"struct.xalanc_1_10::XalanList<xalanc_1_10::ReusableArenaBlock<xalanc_1_10::XalanDOMString, unsigned short> *>::Node"* %0, null, !dbg !3514
  br i1 %cmp, label %if.then, label %if.else, !dbg !3515

if.then:                                          ; preds = %entry
  %m_freeListHeadPtr2 = getelementptr inbounds %"class.xalanc_1_10::XalanList", %"class.xalanc_1_10::XalanList"* %this1, i32 0, i32 2, !dbg !3516
  %1 = load %"struct.xalanc_1_10::XalanList<xalanc_1_10::ReusableArenaBlock<xalanc_1_10::XalanDOMString, unsigned short> *>::Node"*, %"struct.xalanc_1_10::XalanList<xalanc_1_10::ReusableArenaBlock<xalanc_1_10::XalanDOMString, unsigned short> *>::Node"** %m_freeListHeadPtr2, align 8, !dbg !3516
  store %"struct.xalanc_1_10::XalanList<xalanc_1_10::ReusableArenaBlock<xalanc_1_10::XalanDOMString, unsigned short> *>::Node"* %1, %"struct.xalanc_1_10::XalanList<xalanc_1_10::ReusableArenaBlock<xalanc_1_10::XalanDOMString, unsigned short> *>::Node"** %newNode, align 8, !dbg !3518
  %m_freeListHeadPtr3 = getelementptr inbounds %"class.xalanc_1_10::XalanList", %"class.xalanc_1_10::XalanList"* %this1, i32 0, i32 2, !dbg !3519
  %2 = load %"struct.xalanc_1_10::XalanList<xalanc_1_10::ReusableArenaBlock<xalanc_1_10::XalanDOMString, unsigned short> *>::Node"*, %"struct.xalanc_1_10::XalanList<xalanc_1_10::ReusableArenaBlock<xalanc_1_10::XalanDOMString, unsigned short> *>::Node"** %m_freeListHeadPtr3, align 8, !dbg !3519
  %next = getelementptr inbounds %"struct.xalanc_1_10::XalanList<xalanc_1_10::ReusableArenaBlock<xalanc_1_10::XalanDOMString, unsigned short> *>::Node", %"struct.xalanc_1_10::XalanList<xalanc_1_10::ReusableArenaBlock<xalanc_1_10::XalanDOMString, unsigned short> *>::Node"* %2, i32 0, i32 2, !dbg !3520
  %3 = load %"struct.xalanc_1_10::XalanList<xalanc_1_10::ReusableArenaBlock<xalanc_1_10::XalanDOMString, unsigned short> *>::Node"*, %"struct.xalanc_1_10::XalanList<xalanc_1_10::ReusableArenaBlock<xalanc_1_10::XalanDOMString, unsigned short> *>::Node"** %next, align 8, !dbg !3520
  store %"struct.xalanc_1_10::XalanList<xalanc_1_10::ReusableArenaBlock<xalanc_1_10::XalanDOMString, unsigned short> *>::Node"* %3, %"struct.xalanc_1_10::XalanList<xalanc_1_10::ReusableArenaBlock<xalanc_1_10::XalanDOMString, unsigned short> *>::Node"** %nextFreeNode, align 8, !dbg !3521
  br label %if.end, !dbg !3522

if.else:                                          ; preds = %entry
  %call = call %"struct.xalanc_1_10::XalanList<xalanc_1_10::ReusableArenaBlock<xalanc_1_10::XalanDOMString, unsigned short> *>::Node"* @_ZN11xalanc_1_109XalanListIPNS_18ReusableArenaBlockINS_14XalanDOMStringEtEEE8allocateEm(%"class.xalanc_1_10::XalanList"* %this1, i64 1), !dbg !3523
  %m_freeListHeadPtr4 = getelementptr inbounds %"class.xalanc_1_10::XalanList", %"class.xalanc_1_10::XalanList"* %this1, i32 0, i32 2, !dbg !3525
  store %"struct.xalanc_1_10::XalanList<xalanc_1_10::ReusableArenaBlock<xalanc_1_10::XalanDOMString, unsigned short> *>::Node"* %call, %"struct.xalanc_1_10::XalanList<xalanc_1_10::ReusableArenaBlock<xalanc_1_10::XalanDOMString, unsigned short> *>::Node"** %m_freeListHeadPtr4, align 8, !dbg !3526
  %m_freeListHeadPtr5 = getelementptr inbounds %"class.xalanc_1_10::XalanList", %"class.xalanc_1_10::XalanList"* %this1, i32 0, i32 2, !dbg !3527
  %4 = load %"struct.xalanc_1_10::XalanList<xalanc_1_10::ReusableArenaBlock<xalanc_1_10::XalanDOMString, unsigned short> *>::Node"*, %"struct.xalanc_1_10::XalanList<xalanc_1_10::ReusableArenaBlock<xalanc_1_10::XalanDOMString, unsigned short> *>::Node"** %m_freeListHeadPtr5, align 8, !dbg !3527
  store %"struct.xalanc_1_10::XalanList<xalanc_1_10::ReusableArenaBlock<xalanc_1_10::XalanDOMString, unsigned short> *>::Node"* %4, %"struct.xalanc_1_10::XalanList<xalanc_1_10::ReusableArenaBlock<xalanc_1_10::XalanDOMString, unsigned short> *>::Node"** %newNode, align 8, !dbg !3528
  br label %if.end

if.end:                                           ; preds = %if.else, %if.then
  %5 = load %"struct.xalanc_1_10::XalanList<xalanc_1_10::ReusableArenaBlock<xalanc_1_10::XalanDOMString, unsigned short> *>::Node"*, %"struct.xalanc_1_10::XalanList<xalanc_1_10::ReusableArenaBlock<xalanc_1_10::XalanDOMString, unsigned short> *>::Node"** %newNode, align 8, !dbg !3529
  %value = getelementptr inbounds %"struct.xalanc_1_10::XalanList<xalanc_1_10::ReusableArenaBlock<xalanc_1_10::XalanDOMString, unsigned short> *>::Node", %"struct.xalanc_1_10::XalanList<xalanc_1_10::ReusableArenaBlock<xalanc_1_10::XalanDOMString, unsigned short> *>::Node"* %5, i32 0, i32 0, !dbg !3530
  %6 = load %"class.xalanc_1_10::ReusableArenaBlock"**, %"class.xalanc_1_10::ReusableArenaBlock"*** %data.addr, align 8, !dbg !3531
  %m_memoryManager = getelementptr inbounds %"class.xalanc_1_10::XalanList", %"class.xalanc_1_10::XalanList"* %this1, i32 0, i32 0, !dbg !3532
  %7 = load %"class.xercesc_2_7::MemoryManager"*, %"class.xercesc_2_7::MemoryManager"** %m_memoryManager, align 8, !dbg !3532
  %call6 = call %"class.xalanc_1_10::ReusableArenaBlock"** @_ZN11xalanc_1_1028ConstructWithNoMemoryManagerIPNS_18ReusableArenaBlockINS_14XalanDOMStringEtEEE9constructEPS4_RKS4_RN11xercesc_2_713MemoryManagerE(%"class.xalanc_1_10::ReusableArenaBlock"** %value, %"class.xalanc_1_10::ReusableArenaBlock"** dereferenceable(8) %6, %"class.xercesc_2_7::MemoryManager"* dereferenceable(8) %7), !dbg !3533
  %8 = load %"struct.xalanc_1_10::XalanList<xalanc_1_10::ReusableArenaBlock<xalanc_1_10::XalanDOMString, unsigned short> *>::Node"*, %"struct.xalanc_1_10::XalanList<xalanc_1_10::ReusableArenaBlock<xalanc_1_10::XalanDOMString, unsigned short> *>::Node"** %newNode, align 8, !dbg !3534
  %prev = getelementptr inbounds %"struct.xalanc_1_10::XalanList<xalanc_1_10::ReusableArenaBlock<xalanc_1_10::XalanDOMString, unsigned short> *>::Node", %"struct.xalanc_1_10::XalanList<xalanc_1_10::ReusableArenaBlock<xalanc_1_10::XalanDOMString, unsigned short> *>::Node"* %8, i32 0, i32 1, !dbg !3535
  %9 = bitcast %"struct.xalanc_1_10::XalanList<xalanc_1_10::ReusableArenaBlock<xalanc_1_10::XalanDOMString, unsigned short> *>::Node"** %prev to i8*, !dbg !3536
  %10 = bitcast i8* %9 to %"struct.xalanc_1_10::XalanList<xalanc_1_10::ReusableArenaBlock<xalanc_1_10::XalanDOMString, unsigned short> *>::Node"**, !dbg !3536
  %call7 = call dereferenceable(24) %"struct.xalanc_1_10::XalanList<xalanc_1_10::ReusableArenaBlock<xalanc_1_10::XalanDOMString, unsigned short> *>::Node"* @_ZN11xalanc_1_1021XalanListIteratorBaseINS_23XalanListIteratorTraitsIPNS_18ReusableArenaBlockINS_14XalanDOMStringEtEEEENS_9XalanListIS5_E4NodeEE4nodeEv(%"struct.xalanc_1_10::XalanListIteratorBase"* %pos), !dbg !3537
  %prev8 = getelementptr inbounds %"struct.xalanc_1_10::XalanList<xalanc_1_10::ReusableArenaBlock<xalanc_1_10::XalanDOMString, unsigned short> *>::Node", %"struct.xalanc_1_10::XalanList<xalanc_1_10::ReusableArenaBlock<xalanc_1_10::XalanDOMString, unsigned short> *>::Node"* %call7, i32 0, i32 1, !dbg !3538
  %11 = load %"struct.xalanc_1_10::XalanList<xalanc_1_10::ReusableArenaBlock<xalanc_1_10::XalanDOMString, unsigned short> *>::Node"*, %"struct.xalanc_1_10::XalanList<xalanc_1_10::ReusableArenaBlock<xalanc_1_10::XalanDOMString, unsigned short> *>::Node"** %prev8, align 8, !dbg !3538
  store %"struct.xalanc_1_10::XalanList<xalanc_1_10::ReusableArenaBlock<xalanc_1_10::XalanDOMString, unsigned short> *>::Node"* %11, %"struct.xalanc_1_10::XalanList<xalanc_1_10::ReusableArenaBlock<xalanc_1_10::XalanDOMString, unsigned short> *>::Node"** %10, align 8, !dbg !3536
  %12 = load %"struct.xalanc_1_10::XalanList<xalanc_1_10::ReusableArenaBlock<xalanc_1_10::XalanDOMString, unsigned short> *>::Node"*, %"struct.xalanc_1_10::XalanList<xalanc_1_10::ReusableArenaBlock<xalanc_1_10::XalanDOMString, unsigned short> *>::Node"** %newNode, align 8, !dbg !3539
  %next9 = getelementptr inbounds %"struct.xalanc_1_10::XalanList<xalanc_1_10::ReusableArenaBlock<xalanc_1_10::XalanDOMString, unsigned short> *>::Node", %"struct.xalanc_1_10::XalanList<xalanc_1_10::ReusableArenaBlock<xalanc_1_10::XalanDOMString, unsigned short> *>::Node"* %12, i32 0, i32 2, !dbg !3540
  %13 = bitcast %"struct.xalanc_1_10::XalanList<xalanc_1_10::ReusableArenaBlock<xalanc_1_10::XalanDOMString, unsigned short> *>::Node"** %next9 to i8*, !dbg !3541
  %14 = bitcast i8* %13 to %"struct.xalanc_1_10::XalanList<xalanc_1_10::ReusableArenaBlock<xalanc_1_10::XalanDOMString, unsigned short> *>::Node"**, !dbg !3541
  %call10 = call dereferenceable(24) %"struct.xalanc_1_10::XalanList<xalanc_1_10::ReusableArenaBlock<xalanc_1_10::XalanDOMString, unsigned short> *>::Node"* @_ZN11xalanc_1_1021XalanListIteratorBaseINS_23XalanListIteratorTraitsIPNS_18ReusableArenaBlockINS_14XalanDOMStringEtEEEENS_9XalanListIS5_E4NodeEE4nodeEv(%"struct.xalanc_1_10::XalanListIteratorBase"* %pos), !dbg !3542
  store %"struct.xalanc_1_10::XalanList<xalanc_1_10::ReusableArenaBlock<xalanc_1_10::XalanDOMString, unsigned short> *>::Node"* %call10, %"struct.xalanc_1_10::XalanList<xalanc_1_10::ReusableArenaBlock<xalanc_1_10::XalanDOMString, unsigned short> *>::Node"** %14, align 8, !dbg !3541
  %15 = load %"struct.xalanc_1_10::XalanList<xalanc_1_10::ReusableArenaBlock<xalanc_1_10::XalanDOMString, unsigned short> *>::Node"*, %"struct.xalanc_1_10::XalanList<xalanc_1_10::ReusableArenaBlock<xalanc_1_10::XalanDOMString, unsigned short> *>::Node"** %newNode, align 8, !dbg !3543
  %call11 = call dereferenceable(24) %"struct.xalanc_1_10::XalanList<xalanc_1_10::ReusableArenaBlock<xalanc_1_10::XalanDOMString, unsigned short> *>::Node"* @_ZN11xalanc_1_1021XalanListIteratorBaseINS_23XalanListIteratorTraitsIPNS_18ReusableArenaBlockINS_14XalanDOMStringEtEEEENS_9XalanListIS5_E4NodeEE4nodeEv(%"struct.xalanc_1_10::XalanListIteratorBase"* %pos), !dbg !3544
  %prev12 = getelementptr inbounds %"struct.xalanc_1_10::XalanList<xalanc_1_10::ReusableArenaBlock<xalanc_1_10::XalanDOMString, unsigned short> *>::Node", %"struct.xalanc_1_10::XalanList<xalanc_1_10::ReusableArenaBlock<xalanc_1_10::XalanDOMString, unsigned short> *>::Node"* %call11, i32 0, i32 1, !dbg !3545
  %16 = load %"struct.xalanc_1_10::XalanList<xalanc_1_10::ReusableArenaBlock<xalanc_1_10::XalanDOMString, unsigned short> *>::Node"*, %"struct.xalanc_1_10::XalanList<xalanc_1_10::ReusableArenaBlock<xalanc_1_10::XalanDOMString, unsigned short> *>::Node"** %prev12, align 8, !dbg !3545
  %next13 = getelementptr inbounds %"struct.xalanc_1_10::XalanList<xalanc_1_10::ReusableArenaBlock<xalanc_1_10::XalanDOMString, unsigned short> *>::Node", %"struct.xalanc_1_10::XalanList<xalanc_1_10::ReusableArenaBlock<xalanc_1_10::XalanDOMString, unsigned short> *>::Node"* %16, i32 0, i32 2, !dbg !3546
  store %"struct.xalanc_1_10::XalanList<xalanc_1_10::ReusableArenaBlock<xalanc_1_10::XalanDOMString, unsigned short> *>::Node"* %15, %"struct.xalanc_1_10::XalanList<xalanc_1_10::ReusableArenaBlock<xalanc_1_10::XalanDOMString, unsigned short> *>::Node"** %next13, align 8, !dbg !3547
  %17 = load %"struct.xalanc_1_10::XalanList<xalanc_1_10::ReusableArenaBlock<xalanc_1_10::XalanDOMString, unsigned short> *>::Node"*, %"struct.xalanc_1_10::XalanList<xalanc_1_10::ReusableArenaBlock<xalanc_1_10::XalanDOMString, unsigned short> *>::Node"** %newNode, align 8, !dbg !3548
  %call14 = call dereferenceable(24) %"struct.xalanc_1_10::XalanList<xalanc_1_10::ReusableArenaBlock<xalanc_1_10::XalanDOMString, unsigned short> *>::Node"* @_ZN11xalanc_1_1021XalanListIteratorBaseINS_23XalanListIteratorTraitsIPNS_18ReusableArenaBlockINS_14XalanDOMStringEtEEEENS_9XalanListIS5_E4NodeEE4nodeEv(%"struct.xalanc_1_10::XalanListIteratorBase"* %pos), !dbg !3549
  %prev15 = getelementptr inbounds %"struct.xalanc_1_10::XalanList<xalanc_1_10::ReusableArenaBlock<xalanc_1_10::XalanDOMString, unsigned short> *>::Node", %"struct.xalanc_1_10::XalanList<xalanc_1_10::ReusableArenaBlock<xalanc_1_10::XalanDOMString, unsigned short> *>::Node"* %call14, i32 0, i32 1, !dbg !3550
  store %"struct.xalanc_1_10::XalanList<xalanc_1_10::ReusableArenaBlock<xalanc_1_10::XalanDOMString, unsigned short> *>::Node"* %17, %"struct.xalanc_1_10::XalanList<xalanc_1_10::ReusableArenaBlock<xalanc_1_10::XalanDOMString, unsigned short> *>::Node"** %prev15, align 8, !dbg !3551
  %18 = load %"struct.xalanc_1_10::XalanList<xalanc_1_10::ReusableArenaBlock<xalanc_1_10::XalanDOMString, unsigned short> *>::Node"*, %"struct.xalanc_1_10::XalanList<xalanc_1_10::ReusableArenaBlock<xalanc_1_10::XalanDOMString, unsigned short> *>::Node"** %nextFreeNode, align 8, !dbg !3552
  %m_freeListHeadPtr16 = getelementptr inbounds %"class.xalanc_1_10::XalanList", %"class.xalanc_1_10::XalanList"* %this1, i32 0, i32 2, !dbg !3553
  store %"struct.xalanc_1_10::XalanList<xalanc_1_10::ReusableArenaBlock<xalanc_1_10::XalanDOMString, unsigned short> *>::Node"* %18, %"struct.xalanc_1_10::XalanList<xalanc_1_10::ReusableArenaBlock<xalanc_1_10::XalanDOMString, unsigned short> *>::Node"** %m_freeListHeadPtr16, align 8, !dbg !3554
  %19 = load %"struct.xalanc_1_10::XalanList<xalanc_1_10::ReusableArenaBlock<xalanc_1_10::XalanDOMString, unsigned short> *>::Node"*, %"struct.xalanc_1_10::XalanList<xalanc_1_10::ReusableArenaBlock<xalanc_1_10::XalanDOMString, unsigned short> *>::Node"** %newNode, align 8, !dbg !3555
  ret %"struct.xalanc_1_10::XalanList<xalanc_1_10::ReusableArenaBlock<xalanc_1_10::XalanDOMString, unsigned short> *>::Node"* %19, !dbg !3556
}

; Function Attrs: noinline nounwind uwtable
define linkonce_odr dso_local %"class.xalanc_1_10::ReusableArenaBlock"** @_ZN11xalanc_1_1028ConstructWithNoMemoryManagerIPNS_18ReusableArenaBlockINS_14XalanDOMStringEtEEE9constructEPS4_RKS4_RN11xercesc_2_713MemoryManagerE(%"class.xalanc_1_10::ReusableArenaBlock"** %address, %"class.xalanc_1_10::ReusableArenaBlock"** dereferenceable(8) %theRhs, %"class.xercesc_2_7::MemoryManager"* dereferenceable(8) %0) #3 comdat align 2 !dbg !3557 {
entry:
  %address.addr = alloca %"class.xalanc_1_10::ReusableArenaBlock"**, align 8
  %theRhs.addr = alloca %"class.xalanc_1_10::ReusableArenaBlock"**, align 8
  %.addr = alloca %"class.xercesc_2_7::MemoryManager"*, align 8
  store %"class.xalanc_1_10::ReusableArenaBlock"** %address, %"class.xalanc_1_10::ReusableArenaBlock"*** %address.addr, align 8
  call void @llvm.dbg.declare(metadata %"class.xalanc_1_10::ReusableArenaBlock"*** %address.addr, metadata !3568, metadata !DIExpression()), !dbg !3569
  store %"class.xalanc_1_10::ReusableArenaBlock"** %theRhs, %"class.xalanc_1_10::ReusableArenaBlock"*** %theRhs.addr, align 8
  call void @llvm.dbg.declare(metadata %"class.xalanc_1_10::ReusableArenaBlock"*** %theRhs.addr, metadata !3570, metadata !DIExpression()), !dbg !3571
  store %"class.xercesc_2_7::MemoryManager"* %0, %"class.xercesc_2_7::MemoryManager"** %.addr, align 8
  call void @llvm.dbg.declare(metadata %"class.xercesc_2_7::MemoryManager"** %.addr, metadata !3572, metadata !DIExpression()), !dbg !3573
  %1 = load %"class.xalanc_1_10::ReusableArenaBlock"**, %"class.xalanc_1_10::ReusableArenaBlock"*** %address.addr, align 8, !dbg !3574
  %2 = bitcast %"class.xalanc_1_10::ReusableArenaBlock"** %1 to i8*, !dbg !3575
  %3 = bitcast i8* %2 to %"class.xalanc_1_10::ReusableArenaBlock"**, !dbg !3575
  %4 = load %"class.xalanc_1_10::ReusableArenaBlock"**, %"class.xalanc_1_10::ReusableArenaBlock"*** %theRhs.addr, align 8, !dbg !3576
  %5 = load %"class.xalanc_1_10::ReusableArenaBlock"*, %"class.xalanc_1_10::ReusableArenaBlock"** %4, align 8, !dbg !3576
  store %"class.xalanc_1_10::ReusableArenaBlock"* %5, %"class.xalanc_1_10::ReusableArenaBlock"** %3, align 8, !dbg !3575
  ret %"class.xalanc_1_10::ReusableArenaBlock"** %3, !dbg !3577
}

; Function Attrs: noinline nounwind uwtable
define linkonce_odr dso_local void @_ZN11xalanc_1_1021XalanListIteratorBaseINS_28XalanListConstIteratorTraitsIPNS_18ReusableArenaBlockINS_14XalanDOMStringEtEEEENS_9XalanListIS5_E4NodeEEC2ERKNS0_INS_23XalanListIteratorTraitsIS5_EES9_EE(%"struct.xalanc_1_10::XalanListIteratorBase.1"* %this, %"struct.xalanc_1_10::XalanListIteratorBase"* dereferenceable(8) %theRhs) unnamed_addr #3 comdat align 2 !dbg !3578 {
entry:
  %this.addr = alloca %"struct.xalanc_1_10::XalanListIteratorBase.1"*, align 8
  %theRhs.addr = alloca %"struct.xalanc_1_10::XalanListIteratorBase"*, align 8
  store %"struct.xalanc_1_10::XalanListIteratorBase.1"* %this, %"struct.xalanc_1_10::XalanListIteratorBase.1"** %this.addr, align 8
  call void @llvm.dbg.declare(metadata %"struct.xalanc_1_10::XalanListIteratorBase.1"** %this.addr, metadata !3579, metadata !DIExpression()), !dbg !3580
  store %"struct.xalanc_1_10::XalanListIteratorBase"* %theRhs, %"struct.xalanc_1_10::XalanListIteratorBase"** %theRhs.addr, align 8
  call void @llvm.dbg.declare(metadata %"struct.xalanc_1_10::XalanListIteratorBase"** %theRhs.addr, metadata !3581, metadata !DIExpression()), !dbg !3582
  %this1 = load %"struct.xalanc_1_10::XalanListIteratorBase.1"*, %"struct.xalanc_1_10::XalanListIteratorBase.1"** %this.addr, align 8
  %currentNode = getelementptr inbounds %"struct.xalanc_1_10::XalanListIteratorBase.1", %"struct.xalanc_1_10::XalanListIteratorBase.1"* %this1, i32 0, i32 0, !dbg !3583
  %0 = load %"struct.xalanc_1_10::XalanListIteratorBase"*, %"struct.xalanc_1_10::XalanListIteratorBase"** %theRhs.addr, align 8, !dbg !3584
  %currentNode2 = getelementptr inbounds %"struct.xalanc_1_10::XalanListIteratorBase", %"struct.xalanc_1_10::XalanListIteratorBase"* %0, i32 0, i32 0, !dbg !3585
  %1 = load %"struct.xalanc_1_10::XalanList<xalanc_1_10::ReusableArenaBlock<xalanc_1_10::XalanDOMString, unsigned short> *>::Node"*, %"struct.xalanc_1_10::XalanList<xalanc_1_10::ReusableArenaBlock<xalanc_1_10::XalanDOMString, unsigned short> *>::Node"** %currentNode2, align 8, !dbg !3585
  store %"struct.xalanc_1_10::XalanList<xalanc_1_10::ReusableArenaBlock<xalanc_1_10::XalanDOMString, unsigned short> *>::Node"* %1, %"struct.xalanc_1_10::XalanList<xalanc_1_10::ReusableArenaBlock<xalanc_1_10::XalanDOMString, unsigned short> *>::Node"** %currentNode, align 8, !dbg !3583
  ret void, !dbg !3586
}

; Function Attrs: noinline nounwind uwtable
define linkonce_odr dso_local dereferenceable(8) %"class.xalanc_1_10::ReusableArenaBlock"** @_ZNK11xalanc_1_1021XalanListIteratorBaseINS_28XalanListConstIteratorTraitsIPNS_18ReusableArenaBlockINS_14XalanDOMStringEtEEEENS_9XalanListIS5_E4NodeEEdeEv(%"struct.xalanc_1_10::XalanListIteratorBase.1"* %this) #3 comdat align 2 !dbg !3587 {
entry:
  %this.addr = alloca %"struct.xalanc_1_10::XalanListIteratorBase.1"*, align 8
  store %"struct.xalanc_1_10::XalanListIteratorBase.1"* %this, %"struct.xalanc_1_10::XalanListIteratorBase.1"** %this.addr, align 8
  call void @llvm.dbg.declare(metadata %"struct.xalanc_1_10::XalanListIteratorBase.1"** %this.addr, metadata !3588, metadata !DIExpression()), !dbg !3589
  %this1 = load %"struct.xalanc_1_10::XalanListIteratorBase.1"*, %"struct.xalanc_1_10::XalanListIteratorBase.1"** %this.addr, align 8
  %currentNode = getelementptr inbounds %"struct.xalanc_1_10::XalanListIteratorBase.1", %"struct.xalanc_1_10::XalanListIteratorBase.1"* %this1, i32 0, i32 0, !dbg !3590
  %0 = load %"struct.xalanc_1_10::XalanList<xalanc_1_10::ReusableArenaBlock<xalanc_1_10::XalanDOMString, unsigned short> *>::Node"*, %"struct.xalanc_1_10::XalanList<xalanc_1_10::ReusableArenaBlock<xalanc_1_10::XalanDOMString, unsigned short> *>::Node"** %currentNode, align 8, !dbg !3590
  %value = getelementptr inbounds %"struct.xalanc_1_10::XalanList<xalanc_1_10::ReusableArenaBlock<xalanc_1_10::XalanDOMString, unsigned short> *>::Node", %"struct.xalanc_1_10::XalanList<xalanc_1_10::ReusableArenaBlock<xalanc_1_10::XalanDOMString, unsigned short> *>::Node"* %0, i32 0, i32 0, !dbg !3591
  ret %"class.xalanc_1_10::ReusableArenaBlock"** %value, !dbg !3592
}

; Function Attrs: noinline nounwind uwtable
define linkonce_odr dso_local zeroext i1 @_ZNK11xalanc_1_1014ArenaBlockBaseINS_14XalanDOMStringEtE7isEmptyEv(%"class.xalanc_1_10::ArenaBlockBase"* %this) #3 comdat align 2 !dbg !3593 {
entry:
  %this.addr = alloca %"class.xalanc_1_10::ArenaBlockBase"*, align 8
  store %"class.xalanc_1_10::ArenaBlockBase"* %this, %"class.xalanc_1_10::ArenaBlockBase"** %this.addr, align 8
  call void @llvm.dbg.declare(metadata %"class.xalanc_1_10::ArenaBlockBase"** %this.addr, metadata !3594, metadata !DIExpression()), !dbg !3595
  %this1 = load %"class.xalanc_1_10::ArenaBlockBase"*, %"class.xalanc_1_10::ArenaBlockBase"** %this.addr, align 8
  %m_objectCount = getelementptr inbounds %"class.xalanc_1_10::ArenaBlockBase", %"class.xalanc_1_10::ArenaBlockBase"* %this1, i32 0, i32 1, !dbg !3596
  %0 = load i16, i16* %m_objectCount, align 8, !dbg !3596
  %conv = zext i16 %0 to i32, !dbg !3596
  %cmp = icmp eq i32 %conv, 0, !dbg !3597
  %1 = zext i1 %cmp to i64, !dbg !3596
  %cond = select i1 %cmp, i1 true, i1 false, !dbg !3596
  ret i1 %cond, !dbg !3598
}

; Function Attrs: noinline nounwind uwtable
define linkonce_odr dso_local %"struct.xalanc_1_10::XalanList<xalanc_1_10::ReusableArenaBlock<xalanc_1_10::XalanDOMString, unsigned short> *>::Node"* @_ZN11xalanc_1_1021XalanListIteratorBaseINS_28XalanListConstIteratorTraitsIPNS_18ReusableArenaBlockINS_14XalanDOMStringEtEEEENS_9XalanListIS5_E4NodeEEppEv(%"struct.xalanc_1_10::XalanListIteratorBase.1"* %this) #3 comdat align 2 !dbg !3599 {
entry:
  %retval = alloca %"struct.xalanc_1_10::XalanListIteratorBase.1", align 8
  %this.addr = alloca %"struct.xalanc_1_10::XalanListIteratorBase.1"*, align 8
  store %"struct.xalanc_1_10::XalanListIteratorBase.1"* %this, %"struct.xalanc_1_10::XalanListIteratorBase.1"** %this.addr, align 8
  call void @llvm.dbg.declare(metadata %"struct.xalanc_1_10::XalanListIteratorBase.1"** %this.addr, metadata !3600, metadata !DIExpression()), !dbg !3601
  %this1 = load %"struct.xalanc_1_10::XalanListIteratorBase.1"*, %"struct.xalanc_1_10::XalanListIteratorBase.1"** %this.addr, align 8
  %currentNode = getelementptr inbounds %"struct.xalanc_1_10::XalanListIteratorBase.1", %"struct.xalanc_1_10::XalanListIteratorBase.1"* %this1, i32 0, i32 0, !dbg !3602
  %0 = load %"struct.xalanc_1_10::XalanList<xalanc_1_10::ReusableArenaBlock<xalanc_1_10::XalanDOMString, unsigned short> *>::Node"*, %"struct.xalanc_1_10::XalanList<xalanc_1_10::ReusableArenaBlock<xalanc_1_10::XalanDOMString, unsigned short> *>::Node"** %currentNode, align 8, !dbg !3602
  %next = getelementptr inbounds %"struct.xalanc_1_10::XalanList<xalanc_1_10::ReusableArenaBlock<xalanc_1_10::XalanDOMString, unsigned short> *>::Node", %"struct.xalanc_1_10::XalanList<xalanc_1_10::ReusableArenaBlock<xalanc_1_10::XalanDOMString, unsigned short> *>::Node"* %0, i32 0, i32 2, !dbg !3603
  %1 = load %"struct.xalanc_1_10::XalanList<xalanc_1_10::ReusableArenaBlock<xalanc_1_10::XalanDOMString, unsigned short> *>::Node"*, %"struct.xalanc_1_10::XalanList<xalanc_1_10::ReusableArenaBlock<xalanc_1_10::XalanDOMString, unsigned short> *>::Node"** %next, align 8, !dbg !3603
  %currentNode2 = getelementptr inbounds %"struct.xalanc_1_10::XalanListIteratorBase.1", %"struct.xalanc_1_10::XalanListIteratorBase.1"* %this1, i32 0, i32 0, !dbg !3604
  store %"struct.xalanc_1_10::XalanList<xalanc_1_10::ReusableArenaBlock<xalanc_1_10::XalanDOMString, unsigned short> *>::Node"* %1, %"struct.xalanc_1_10::XalanList<xalanc_1_10::ReusableArenaBlock<xalanc_1_10::XalanDOMString, unsigned short> *>::Node"** %currentNode2, align 8, !dbg !3605
  %2 = bitcast %"struct.xalanc_1_10::XalanListIteratorBase.1"* %retval to i8*, !dbg !3606
  %3 = bitcast %"struct.xalanc_1_10::XalanListIteratorBase.1"* %this1 to i8*, !dbg !3606
  call void @llvm.memcpy.p0i8.p0i8.i64(i8* align 8 %2, i8* align 8 %3, i64 8, i1 false), !dbg !3606
  %coerce.dive = getelementptr inbounds %"struct.xalanc_1_10::XalanListIteratorBase.1", %"struct.xalanc_1_10::XalanListIteratorBase.1"* %retval, i32 0, i32 0, !dbg !3607
  %4 = load %"struct.xalanc_1_10::XalanList<xalanc_1_10::ReusableArenaBlock<xalanc_1_10::XalanDOMString, unsigned short> *>::Node"*, %"struct.xalanc_1_10::XalanList<xalanc_1_10::ReusableArenaBlock<xalanc_1_10::XalanDOMString, unsigned short> *>::Node"** %coerce.dive, align 8, !dbg !3607
  ret %"struct.xalanc_1_10::XalanList<xalanc_1_10::ReusableArenaBlock<xalanc_1_10::XalanDOMString, unsigned short> *>::Node"* %4, !dbg !3607
}

; Function Attrs: noinline uwtable
define linkonce_odr dso_local void @_ZN11xalanc_1_109XalanListIPNS_18ReusableArenaBlockINS_14XalanDOMStringEtEEE9pop_frontEv(%"class.xalanc_1_10::XalanList"* %this) #0 comdat align 2 !dbg !3608 {
entry:
  %this.addr = alloca %"class.xalanc_1_10::XalanList"*, align 8
  %agg.tmp = alloca %"struct.xalanc_1_10::XalanListIteratorBase", align 8
  store %"class.xalanc_1_10::XalanList"* %this, %"class.xalanc_1_10::XalanList"** %this.addr, align 8
  call void @llvm.dbg.declare(metadata %"class.xalanc_1_10::XalanList"** %this.addr, metadata !3609, metadata !DIExpression()), !dbg !3610
  %this1 = load %"class.xalanc_1_10::XalanList"*, %"class.xalanc_1_10::XalanList"** %this.addr, align 8
  call void @_ZN11xalanc_1_109XalanListIPNS_18ReusableArenaBlockINS_14XalanDOMStringEtEEE5beginEv(%"struct.xalanc_1_10::XalanListIteratorBase"* sret %agg.tmp, %"class.xalanc_1_10::XalanList"* %this1), !dbg !3611
  call void @_ZN11xalanc_1_109XalanListIPNS_18ReusableArenaBlockINS_14XalanDOMStringEtEEE5eraseENS_21XalanListIteratorBaseINS_23XalanListIteratorTraitsIS4_EENS5_4NodeEEE(%"class.xalanc_1_10::XalanList"* %this1, %"struct.xalanc_1_10::XalanListIteratorBase"* %agg.tmp), !dbg !3612
  ret void, !dbg !3613
}

; Function Attrs: argmemonly nounwind willreturn
declare void @llvm.memcpy.p0i8.p0i8.i64(i8* noalias nocapture writeonly, i8* noalias nocapture readonly, i64, i1 immarg) #6

; Function Attrs: noinline uwtable
define linkonce_odr dso_local void @_ZNSt16reverse_iteratorIN11xalanc_1_1021XalanListIteratorBaseINS0_23XalanListIteratorTraitsIPNS0_18ReusableArenaBlockINS0_14XalanDOMStringEtEEEENS0_9XalanListIS6_E4NodeEEEEC2ESB_(%"class.std::reverse_iterator"* %this, %"struct.xalanc_1_10::XalanListIteratorBase"* %__x) unnamed_addr #0 comdat align 2 !dbg !3614 {
entry:
  %this.addr = alloca %"class.std::reverse_iterator"*, align 8
  store %"class.std::reverse_iterator"* %this, %"class.std::reverse_iterator"** %this.addr, align 8
  call void @llvm.dbg.declare(metadata %"class.std::reverse_iterator"** %this.addr, metadata !3615, metadata !DIExpression()), !dbg !3616
  call void @llvm.dbg.declare(metadata %"struct.xalanc_1_10::XalanListIteratorBase"* %__x, metadata !3617, metadata !DIExpression()), !dbg !3618
  %this1 = load %"class.std::reverse_iterator"*, %"class.std::reverse_iterator"** %this.addr, align 8
  %0 = bitcast %"class.std::reverse_iterator"* %this1 to %"struct.std::iterator"*, !dbg !3619
  %current = getelementptr inbounds %"class.std::reverse_iterator", %"class.std::reverse_iterator"* %this1, i32 0, i32 0, !dbg !3620
  call void @_ZN11xalanc_1_1021XalanListIteratorBaseINS_23XalanListIteratorTraitsIPNS_18ReusableArenaBlockINS_14XalanDOMStringEtEEEENS_9XalanListIS5_E4NodeEEC2ERKSA_(%"struct.xalanc_1_10::XalanListIteratorBase"* %current, %"struct.xalanc_1_10::XalanListIteratorBase"* dereferenceable(8) %__x), !dbg !3620
  ret void, !dbg !3621
}

; Function Attrs: noinline uwtable
define linkonce_odr dso_local zeroext i1 @_ZSteqIN11xalanc_1_1021XalanListIteratorBaseINS0_23XalanListIteratorTraitsIPNS0_18ReusableArenaBlockINS0_14XalanDOMStringEtEEEENS0_9XalanListIS6_E4NodeEEEEbRKSt16reverse_iteratorIT_ESG_(%"class.std::reverse_iterator"* dereferenceable(8) %__x, %"class.std::reverse_iterator"* dereferenceable(8) %__y) #0 comdat !dbg !3622 {
entry:
  %__x.addr = alloca %"class.std::reverse_iterator"*, align 8
  %__y.addr = alloca %"class.std::reverse_iterator"*, align 8
  %ref.tmp = alloca %"struct.xalanc_1_10::XalanListIteratorBase", align 8
  %ref.tmp1 = alloca %"struct.xalanc_1_10::XalanListIteratorBase", align 8
  store %"class.std::reverse_iterator"* %__x, %"class.std::reverse_iterator"** %__x.addr, align 8
  call void @llvm.dbg.declare(metadata %"class.std::reverse_iterator"** %__x.addr, metadata !3623, metadata !DIExpression()), !dbg !3624
  store %"class.std::reverse_iterator"* %__y, %"class.std::reverse_iterator"** %__y.addr, align 8
  call void @llvm.dbg.declare(metadata %"class.std::reverse_iterator"** %__y.addr, metadata !3625, metadata !DIExpression()), !dbg !3626
  %0 = load %"class.std::reverse_iterator"*, %"class.std::reverse_iterator"** %__x.addr, align 8, !dbg !3627
  call void @_ZNKSt16reverse_iteratorIN11xalanc_1_1021XalanListIteratorBaseINS0_23XalanListIteratorTraitsIPNS0_18ReusableArenaBlockINS0_14XalanDOMStringEtEEEENS0_9XalanListIS6_E4NodeEEEE4baseEv(%"struct.xalanc_1_10::XalanListIteratorBase"* sret %ref.tmp, %"class.std::reverse_iterator"* %0), !dbg !3628
  %1 = load %"class.std::reverse_iterator"*, %"class.std::reverse_iterator"** %__y.addr, align 8, !dbg !3629
  call void @_ZNKSt16reverse_iteratorIN11xalanc_1_1021XalanListIteratorBaseINS0_23XalanListIteratorTraitsIPNS0_18ReusableArenaBlockINS0_14XalanDOMStringEtEEEENS0_9XalanListIS6_E4NodeEEEE4baseEv(%"struct.xalanc_1_10::XalanListIteratorBase"* sret %ref.tmp1, %"class.std::reverse_iterator"* %1), !dbg !3630
  %call = call zeroext i1 @_ZNK11xalanc_1_1021XalanListIteratorBaseINS_23XalanListIteratorTraitsIPNS_18ReusableArenaBlockINS_14XalanDOMStringEtEEEENS_9XalanListIS5_E4NodeEEeqERKSA_(%"struct.xalanc_1_10::XalanListIteratorBase"* %ref.tmp, %"struct.xalanc_1_10::XalanListIteratorBase"* dereferenceable(8) %ref.tmp1), !dbg !3631
  ret i1 %call, !dbg !3632
}

; Function Attrs: noinline uwtable
define linkonce_odr dso_local void @_ZNKSt16reverse_iteratorIN11xalanc_1_1021XalanListIteratorBaseINS0_23XalanListIteratorTraitsIPNS0_18ReusableArenaBlockINS0_14XalanDOMStringEtEEEENS0_9XalanListIS6_E4NodeEEEE4baseEv(%"struct.xalanc_1_10::XalanListIteratorBase"* noalias sret %agg.result, %"class.std::reverse_iterator"* %this) #0 comdat align 2 !dbg !3633 {
entry:
  %result.ptr = alloca i8*, align 8
  %this.addr = alloca %"class.std::reverse_iterator"*, align 8
  %0 = bitcast %"struct.xalanc_1_10::XalanListIteratorBase"* %agg.result to i8*
  store i8* %0, i8** %result.ptr, align 8
  store %"class.std::reverse_iterator"* %this, %"class.std::reverse_iterator"** %this.addr, align 8
  call void @llvm.dbg.declare(metadata %"class.std::reverse_iterator"** %this.addr, metadata !3634, metadata !DIExpression()), !dbg !3635
  %this1 = load %"class.std::reverse_iterator"*, %"class.std::reverse_iterator"** %this.addr, align 8
  %current = getelementptr inbounds %"class.std::reverse_iterator", %"class.std::reverse_iterator"* %this1, i32 0, i32 0, !dbg !3636
  call void @_ZN11xalanc_1_1021XalanListIteratorBaseINS_23XalanListIteratorTraitsIPNS_18ReusableArenaBlockINS_14XalanDOMStringEtEEEENS_9XalanListIS5_E4NodeEEC2ERKSA_(%"struct.xalanc_1_10::XalanListIteratorBase"* %agg.result, %"struct.xalanc_1_10::XalanListIteratorBase"* dereferenceable(8) %current), !dbg !3636
  ret void, !dbg !3637
}

; Function Attrs: noinline uwtable
define linkonce_odr dso_local void @_ZN11xalanc_1_1021XalanListIteratorBaseINS_23XalanListIteratorTraitsIPNS_18ReusableArenaBlockINS_14XalanDOMStringEtEEEENS_9XalanListIS5_E4NodeEEmmEv(%"struct.xalanc_1_10::XalanListIteratorBase"* noalias sret %agg.result, %"struct.xalanc_1_10::XalanListIteratorBase"* %this) #0 comdat align 2 !dbg !3638 {
entry:
  %result.ptr = alloca i8*, align 8
  %this.addr = alloca %"struct.xalanc_1_10::XalanListIteratorBase"*, align 8
  %0 = bitcast %"struct.xalanc_1_10::XalanListIteratorBase"* %agg.result to i8*
  store i8* %0, i8** %result.ptr, align 8
  store %"struct.xalanc_1_10::XalanListIteratorBase"* %this, %"struct.xalanc_1_10::XalanListIteratorBase"** %this.addr, align 8
  call void @llvm.dbg.declare(metadata %"struct.xalanc_1_10::XalanListIteratorBase"** %this.addr, metadata !3639, metadata !DIExpression()), !dbg !3640
  %this1 = load %"struct.xalanc_1_10::XalanListIteratorBase"*, %"struct.xalanc_1_10::XalanListIteratorBase"** %this.addr, align 8
  %currentNode = getelementptr inbounds %"struct.xalanc_1_10::XalanListIteratorBase", %"struct.xalanc_1_10::XalanListIteratorBase"* %this1, i32 0, i32 0, !dbg !3641
  %1 = load %"struct.xalanc_1_10::XalanList<xalanc_1_10::ReusableArenaBlock<xalanc_1_10::XalanDOMString, unsigned short> *>::Node"*, %"struct.xalanc_1_10::XalanList<xalanc_1_10::ReusableArenaBlock<xalanc_1_10::XalanDOMString, unsigned short> *>::Node"** %currentNode, align 8, !dbg !3641
  %prev = getelementptr inbounds %"struct.xalanc_1_10::XalanList<xalanc_1_10::ReusableArenaBlock<xalanc_1_10::XalanDOMString, unsigned short> *>::Node", %"struct.xalanc_1_10::XalanList<xalanc_1_10::ReusableArenaBlock<xalanc_1_10::XalanDOMString, unsigned short> *>::Node"* %1, i32 0, i32 1, !dbg !3642
  %2 = load %"struct.xalanc_1_10::XalanList<xalanc_1_10::ReusableArenaBlock<xalanc_1_10::XalanDOMString, unsigned short> *>::Node"*, %"struct.xalanc_1_10::XalanList<xalanc_1_10::ReusableArenaBlock<xalanc_1_10::XalanDOMString, unsigned short> *>::Node"** %prev, align 8, !dbg !3642
  %currentNode2 = getelementptr inbounds %"struct.xalanc_1_10::XalanListIteratorBase", %"struct.xalanc_1_10::XalanListIteratorBase"* %this1, i32 0, i32 0, !dbg !3643
  store %"struct.xalanc_1_10::XalanList<xalanc_1_10::ReusableArenaBlock<xalanc_1_10::XalanDOMString, unsigned short> *>::Node"* %2, %"struct.xalanc_1_10::XalanList<xalanc_1_10::ReusableArenaBlock<xalanc_1_10::XalanDOMString, unsigned short> *>::Node"** %currentNode2, align 8, !dbg !3644
  call void @_ZN11xalanc_1_1021XalanListIteratorBaseINS_23XalanListIteratorTraitsIPNS_18ReusableArenaBlockINS_14XalanDOMStringEtEEEENS_9XalanListIS5_E4NodeEEC2ERKSA_(%"struct.xalanc_1_10::XalanListIteratorBase"* %agg.result, %"struct.xalanc_1_10::XalanListIteratorBase"* dereferenceable(8) %this1), !dbg !3645
  ret void, !dbg !3646
}

; Function Attrs: noinline uwtable
define linkonce_odr dso_local void @_ZN11xalanc_1_1014ArenaAllocatorINS_14XalanDOMStringENS_18ReusableArenaBlockIS1_tEEE5resetEv(%"class.xalanc_1_10::ArenaAllocator"* %this) unnamed_addr #0 comdat align 2 !dbg !3647 {
entry:
  %this.addr = alloca %"class.xalanc_1_10::ArenaAllocator"*, align 8
  %agg.tmp = alloca %"struct.xalanc_1_10::XalanListIteratorBase", align 8
  %agg.tmp2 = alloca %"struct.xalanc_1_10::XalanListIteratorBase", align 8
  %agg.tmp4 = alloca %"struct.xalanc_1_10::DeleteFunctor", align 8
  %coerce = alloca %"struct.xalanc_1_10::DeleteFunctor", align 8
  store %"class.xalanc_1_10::ArenaAllocator"* %this, %"class.xalanc_1_10::ArenaAllocator"** %this.addr, align 8
  call void @llvm.dbg.declare(metadata %"class.xalanc_1_10::ArenaAllocator"** %this.addr, metadata !3654, metadata !DIExpression()), !dbg !3656
  %this1 = load %"class.xalanc_1_10::ArenaAllocator"*, %"class.xalanc_1_10::ArenaAllocator"** %this.addr, align 8
  %m_blocks = getelementptr inbounds %"class.xalanc_1_10::ArenaAllocator", %"class.xalanc_1_10::ArenaAllocator"* %this1, i32 0, i32 2, !dbg !3657
  call void @_ZN11xalanc_1_109XalanListIPNS_18ReusableArenaBlockINS_14XalanDOMStringEtEEE5beginEv(%"struct.xalanc_1_10::XalanListIteratorBase"* sret %agg.tmp, %"class.xalanc_1_10::XalanList"* %m_blocks), !dbg !3658
  %m_blocks3 = getelementptr inbounds %"class.xalanc_1_10::ArenaAllocator", %"class.xalanc_1_10::ArenaAllocator"* %this1, i32 0, i32 2, !dbg !3659
  call void @_ZN11xalanc_1_109XalanListIPNS_18ReusableArenaBlockINS_14XalanDOMStringEtEEE3endEv(%"struct.xalanc_1_10::XalanListIteratorBase"* sret %agg.tmp2, %"class.xalanc_1_10::XalanList"* %m_blocks3), !dbg !3660
  %m_blocks5 = getelementptr inbounds %"class.xalanc_1_10::ArenaAllocator", %"class.xalanc_1_10::ArenaAllocator"* %this1, i32 0, i32 2, !dbg !3661
  %call = call dereferenceable(8) %"class.xercesc_2_7::MemoryManager"* @_ZN11xalanc_1_109XalanListIPNS_18ReusableArenaBlockINS_14XalanDOMStringEtEEE16getMemoryManagerEv(%"class.xalanc_1_10::XalanList"* %m_blocks5), !dbg !3662
  call void @_ZN11xalanc_1_1013DeleteFunctorINS_18ReusableArenaBlockINS_14XalanDOMStringEtEEEC2ERN11xercesc_2_713MemoryManagerE(%"struct.xalanc_1_10::DeleteFunctor"* %agg.tmp4, %"class.xercesc_2_7::MemoryManager"* dereferenceable(8) %call), !dbg !3663
  %coerce.dive = getelementptr inbounds %"struct.xalanc_1_10::DeleteFunctor", %"struct.xalanc_1_10::DeleteFunctor"* %agg.tmp4, i32 0, i32 0, !dbg !3664
  %0 = load %"class.xercesc_2_7::MemoryManager"*, %"class.xercesc_2_7::MemoryManager"** %coerce.dive, align 8, !dbg !3664
  %call6 = call %"class.xercesc_2_7::MemoryManager"* @_ZSt8for_eachIN11xalanc_1_1021XalanListIteratorBaseINS0_23XalanListIteratorTraitsIPNS0_18ReusableArenaBlockINS0_14XalanDOMStringEtEEEENS0_9XalanListIS6_E4NodeEEENS0_13DeleteFunctorIS5_EEET0_T_SF_SE_(%"struct.xalanc_1_10::XalanListIteratorBase"* %agg.tmp, %"struct.xalanc_1_10::XalanListIteratorBase"* %agg.tmp2, %"class.xercesc_2_7::MemoryManager"* %0), !dbg !3664
  %coerce.dive7 = getelementptr inbounds %"struct.xalanc_1_10::DeleteFunctor", %"struct.xalanc_1_10::DeleteFunctor"* %coerce, i32 0, i32 0, !dbg !3664
  store %"class.xercesc_2_7::MemoryManager"* %call6, %"class.xercesc_2_7::MemoryManager"** %coerce.dive7, align 8, !dbg !3664
  %m_blocks8 = getelementptr inbounds %"class.xalanc_1_10::ArenaAllocator", %"class.xalanc_1_10::ArenaAllocator"* %this1, i32 0, i32 2, !dbg !3665
  call void @_ZN11xalanc_1_109XalanListIPNS_18ReusableArenaBlockINS_14XalanDOMStringEtEEE5clearEv(%"class.xalanc_1_10::XalanList"* %m_blocks8), !dbg !3666
  ret void, !dbg !3667
}

; Function Attrs: noinline uwtable
define linkonce_odr dso_local %"class.xercesc_2_7::MemoryManager"* @_ZSt8for_eachIN11xalanc_1_1021XalanListIteratorBaseINS0_23XalanListIteratorTraitsIPNS0_18ReusableArenaBlockINS0_14XalanDOMStringEtEEEENS0_9XalanListIS6_E4NodeEEENS0_13DeleteFunctorIS5_EEET0_T_SF_SE_(%"struct.xalanc_1_10::XalanListIteratorBase"* %__first, %"struct.xalanc_1_10::XalanListIteratorBase"* %__last, %"class.xercesc_2_7::MemoryManager"* %__f.coerce) #0 comdat !dbg !3668 {
entry:
  %retval = alloca %"struct.xalanc_1_10::DeleteFunctor", align 8
  %__f = alloca %"struct.xalanc_1_10::DeleteFunctor", align 8
  %tmp = alloca %"struct.xalanc_1_10::XalanListIteratorBase", align 8
  %coerce.dive = getelementptr inbounds %"struct.xalanc_1_10::DeleteFunctor", %"struct.xalanc_1_10::DeleteFunctor"* %__f, i32 0, i32 0
  store %"class.xercesc_2_7::MemoryManager"* %__f.coerce, %"class.xercesc_2_7::MemoryManager"** %coerce.dive, align 8
  call void @llvm.dbg.declare(metadata %"struct.xalanc_1_10::XalanListIteratorBase"* %__first, metadata !3674, metadata !DIExpression()), !dbg !3675
  call void @llvm.dbg.declare(metadata %"struct.xalanc_1_10::XalanListIteratorBase"* %__last, metadata !3676, metadata !DIExpression()), !dbg !3677
  call void @llvm.dbg.declare(metadata %"struct.xalanc_1_10::DeleteFunctor"* %__f, metadata !3678, metadata !DIExpression()), !dbg !3679
  br label %for.cond, !dbg !3680

for.cond:                                         ; preds = %for.inc, %entry
  %call = call zeroext i1 @_ZNK11xalanc_1_1021XalanListIteratorBaseINS_23XalanListIteratorTraitsIPNS_18ReusableArenaBlockINS_14XalanDOMStringEtEEEENS_9XalanListIS5_E4NodeEEneERKSA_(%"struct.xalanc_1_10::XalanListIteratorBase"* %__first, %"struct.xalanc_1_10::XalanListIteratorBase"* dereferenceable(8) %__last), !dbg !3681
  br i1 %call, label %for.body, label %for.end, !dbg !3684

for.body:                                         ; preds = %for.cond
  %call1 = call dereferenceable(8) %"class.xalanc_1_10::ReusableArenaBlock"** @_ZNK11xalanc_1_1021XalanListIteratorBaseINS_23XalanListIteratorTraitsIPNS_18ReusableArenaBlockINS_14XalanDOMStringEtEEEENS_9XalanListIS5_E4NodeEEdeEv(%"struct.xalanc_1_10::XalanListIteratorBase"* %__first), !dbg !3685
  %0 = load %"class.xalanc_1_10::ReusableArenaBlock"*, %"class.xalanc_1_10::ReusableArenaBlock"** %call1, align 8, !dbg !3685
  call void @_ZNK11xalanc_1_1013DeleteFunctorINS_18ReusableArenaBlockINS_14XalanDOMStringEtEEEclEPKS3_(%"struct.xalanc_1_10::DeleteFunctor"* %__f, %"class.xalanc_1_10::ReusableArenaBlock"* %0), !dbg !3686
  br label %for.inc, !dbg !3686

for.inc:                                          ; preds = %for.body
  call void @_ZN11xalanc_1_1021XalanListIteratorBaseINS_23XalanListIteratorTraitsIPNS_18ReusableArenaBlockINS_14XalanDOMStringEtEEEENS_9XalanListIS5_E4NodeEEppEv(%"struct.xalanc_1_10::XalanListIteratorBase"* sret %tmp, %"struct.xalanc_1_10::XalanListIteratorBase"* %__first), !dbg !3687
  br label %for.cond, !dbg !3688, !llvm.loop !3689

for.end:                                          ; preds = %for.cond
  %1 = bitcast %"struct.xalanc_1_10::DeleteFunctor"* %retval to i8*, !dbg !3691
  %2 = bitcast %"struct.xalanc_1_10::DeleteFunctor"* %__f to i8*, !dbg !3691
  call void @llvm.memcpy.p0i8.p0i8.i64(i8* align 8 %1, i8* align 8 %2, i64 8, i1 false), !dbg !3691
  %coerce.dive2 = getelementptr inbounds %"struct.xalanc_1_10::DeleteFunctor", %"struct.xalanc_1_10::DeleteFunctor"* %retval, i32 0, i32 0, !dbg !3692
  %3 = load %"class.xercesc_2_7::MemoryManager"*, %"class.xercesc_2_7::MemoryManager"** %coerce.dive2, align 8, !dbg !3692
  ret %"class.xercesc_2_7::MemoryManager"* %3, !dbg !3692
}

; Function Attrs: noinline nounwind uwtable
define linkonce_odr dso_local dereferenceable(8) %"class.xercesc_2_7::MemoryManager"* @_ZN11xalanc_1_109XalanListIPNS_18ReusableArenaBlockINS_14XalanDOMStringEtEEE16getMemoryManagerEv(%"class.xalanc_1_10::XalanList"* %this) #3 comdat align 2 !dbg !3693 {
entry:
  %this.addr = alloca %"class.xalanc_1_10::XalanList"*, align 8
  store %"class.xalanc_1_10::XalanList"* %this, %"class.xalanc_1_10::XalanList"** %this.addr, align 8
  call void @llvm.dbg.declare(metadata %"class.xalanc_1_10::XalanList"** %this.addr, metadata !3694, metadata !DIExpression()), !dbg !3695
  %this1 = load %"class.xalanc_1_10::XalanList"*, %"class.xalanc_1_10::XalanList"** %this.addr, align 8
  %m_memoryManager = getelementptr inbounds %"class.xalanc_1_10::XalanList", %"class.xalanc_1_10::XalanList"* %this1, i32 0, i32 0, !dbg !3696
  %0 = load %"class.xercesc_2_7::MemoryManager"*, %"class.xercesc_2_7::MemoryManager"** %m_memoryManager, align 8, !dbg !3696
  ret %"class.xercesc_2_7::MemoryManager"* %0, !dbg !3697
}

; Function Attrs: noinline nounwind uwtable
define linkonce_odr dso_local void @_ZN11xalanc_1_1013DeleteFunctorINS_18ReusableArenaBlockINS_14XalanDOMStringEtEEEC2ERN11xercesc_2_713MemoryManagerE(%"struct.xalanc_1_10::DeleteFunctor"* %this, %"class.xercesc_2_7::MemoryManager"* dereferenceable(8) %theManager) unnamed_addr #3 comdat align 2 !dbg !3698 {
entry:
  %this.addr = alloca %"struct.xalanc_1_10::DeleteFunctor"*, align 8
  %theManager.addr = alloca %"class.xercesc_2_7::MemoryManager"*, align 8
  store %"struct.xalanc_1_10::DeleteFunctor"* %this, %"struct.xalanc_1_10::DeleteFunctor"** %this.addr, align 8
  call void @llvm.dbg.declare(metadata %"struct.xalanc_1_10::DeleteFunctor"** %this.addr, metadata !3699, metadata !DIExpression()), !dbg !3701
  store %"class.xercesc_2_7::MemoryManager"* %theManager, %"class.xercesc_2_7::MemoryManager"** %theManager.addr, align 8
  call void @llvm.dbg.declare(metadata %"class.xercesc_2_7::MemoryManager"** %theManager.addr, metadata !3702, metadata !DIExpression()), !dbg !3703
  %this1 = load %"struct.xalanc_1_10::DeleteFunctor"*, %"struct.xalanc_1_10::DeleteFunctor"** %this.addr, align 8
  %0 = bitcast %"struct.xalanc_1_10::DeleteFunctor"* %this1 to %"struct.std::unary_function"*, !dbg !3704
  %m_memoryManager = getelementptr inbounds %"struct.xalanc_1_10::DeleteFunctor", %"struct.xalanc_1_10::DeleteFunctor"* %this1, i32 0, i32 0, !dbg !3705
  %1 = load %"class.xercesc_2_7::MemoryManager"*, %"class.xercesc_2_7::MemoryManager"** %theManager.addr, align 8, !dbg !3706
  store %"class.xercesc_2_7::MemoryManager"* %1, %"class.xercesc_2_7::MemoryManager"** %m_memoryManager, align 8, !dbg !3705
  ret void, !dbg !3707
}

; Function Attrs: noinline uwtable
