; ModuleID = 'Constants.cpp'
source_filename = "Constants.cpp"
target datalayout = "e-m:e-p270:32:32-p271:32:32-p272:64:64-i64:64-f80:128-n8:16:32:64-S128"
target triple = "x86_64-unknown-linux-gnu"

%"class.xalanc_1_10::XalanDOMString" = type <{ %"class.xalanc_1_10::XalanVector", i32, [4 x i8] }>
%"class.xalanc_1_10::XalanVector" = type { %"class.xercesc_2_7::MemoryManager"*, i64, i64, i16* }
%"class.xercesc_2_7::MemoryManager" = type { i32 (...)** }

$_ZN11xalanc_1_1014XalanDOMStringD2Ev = comdat any

$_ZN11xalanc_1_1013releaseMemoryERNS_14XalanDOMStringERN11xercesc_2_713MemoryManagerE = comdat any

$_ZN11xalanc_1_1011XalanVectorItNS_31MemoryManagedConstructionTraitsItEEED2Ev = comdat any

$_ZNK11xalanc_1_1011XalanVectorItNS_31MemoryManagedConstructionTraitsItEEE10invariantsEv = comdat any

$__clang_call_terminate = comdat any

$_ZN11xalanc_1_1011XalanVectorItNS_31MemoryManagedConstructionTraitsItEEE7destroyEPtS4_ = comdat any

$_ZN11xalanc_1_1011XalanVectorItNS_31MemoryManagedConstructionTraitsItEEE5beginEv = comdat any

$_ZN11xalanc_1_1011XalanVectorItNS_31MemoryManagedConstructionTraitsItEEE3endEv = comdat any

$_ZN11xalanc_1_1011XalanVectorItNS_31MemoryManagedConstructionTraitsItEEE10deallocateEPt = comdat any

$_ZN11xalanc_1_1011XalanVectorItNS_31MemoryManagedConstructionTraitsItEEE7destroyERt = comdat any

$_ZN11xalanc_1_1011XalanVectorItNS_31MemoryManagedConstructionTraitsItEEE10endPointerEv = comdat any

$_ZN11xalanc_1_1014XalanDOMString4swapERS0_ = comdat any

$_ZNK11xalanc_1_1014XalanDOMString10invariantsEv = comdat any

$_ZN11xalanc_1_1011XalanVectorItNS_31MemoryManagedConstructionTraitsItEEE4swapERS3_ = comdat any

$_ZSt4swapIjENSt9enable_ifIXsr6__and_ISt6__not_ISt15__is_tuple_likeIT_EESt21is_move_constructibleIS3_ESt18is_move_assignableIS3_EEE5valueEvE4typeERS3_SC_ = comdat any

$_ZSt4moveIRjEONSt16remove_referenceIT_E4typeEOS2_ = comdat any

@_ZL18ATTRNAME_CASEORDER = internal global %"class.xalanc_1_10::XalanDOMString" zeroinitializer, align 8, !dbg !0
@__dso_handle = external hidden global i8
@_ZL14ATTRNAME_COUNT = internal global %"class.xalanc_1_10::XalanDOMString" zeroinitializer, align 8, !dbg !779
@_ZL17ATTRNAME_DATATYPE = internal global %"class.xalanc_1_10::XalanDOMString" zeroinitializer, align 8, !dbg !781
@_ZL25ATTRNAME_DECIMALSEPARATOR = internal global %"class.xalanc_1_10::XalanDOMString" zeroinitializer, align 8, !dbg !783
@_ZL16ATTRNAME_DEFAULT = internal global %"class.xalanc_1_10::XalanDOMString" zeroinitializer, align 8, !dbg !785
@_ZL21ATTRNAME_DEFAULTSPACE = internal global %"class.xalanc_1_10::XalanDOMString" zeroinitializer, align 8, !dbg !787
@_ZL14ATTRNAME_DIGIT = internal global %"class.xalanc_1_10::XalanDOMString" zeroinitializer, align 8, !dbg !789
@_ZL22ATTRNAME_DIGITGROUPSEP = internal global %"class.xalanc_1_10::XalanDOMString" zeroinitializer, align 8, !dbg !791
@_ZL32ATTRNAME_DISABLE_OUTPUT_ESCAPING = internal global %"class.xalanc_1_10::XalanDOMString" zeroinitializer, align 8, !dbg !793
@_ZL17ATTRNAME_ELEMENTS = internal global %"class.xalanc_1_10::XalanDOMString" zeroinitializer, align 8, !dbg !795
@_ZL32ATTRNAME_EXCLUDE_RESULT_PREFIXES = internal global %"class.xalanc_1_10::XalanDOMString" zeroinitializer, align 8, !dbg !797
@_ZL33ATTRNAME_EXTENSIONELEMENTPREFIXES = internal global %"class.xalanc_1_10::XalanDOMString" zeroinitializer, align 8, !dbg !799
@_ZL20ATTRNAME_ESCAPE_URLS = internal global %"class.xalanc_1_10::XalanDOMString" zeroinitializer, align 8, !dbg !801
@_ZL15ATTRNAME_FORMAT = internal global %"class.xalanc_1_10::XalanDOMString" zeroinitializer, align 8, !dbg !803
@_ZL13ATTRNAME_FROM = internal global %"class.xalanc_1_10::XalanDOMString" zeroinitializer, align 8, !dbg !805
@_ZL26ATTRNAME_GROUPINGSEPARATOR = internal global %"class.xalanc_1_10::XalanDOMString" zeroinitializer, align 8, !dbg !807
@_ZL21ATTRNAME_GROUPINGSIZE = internal global %"class.xalanc_1_10::XalanDOMString" zeroinitializer, align 8, !dbg !809
@_ZL13ATTRNAME_HREF = internal global %"class.xalanc_1_10::XalanDOMString" zeroinitializer, align 8, !dbg !811
@_ZL11ATTRNAME_ID = internal global %"class.xalanc_1_10::XalanDOMString" zeroinitializer, align 8, !dbg !813
@_ZL21ATTRNAME_INDENTAMOUNT = internal global %"class.xalanc_1_10::XalanDOMString" zeroinitializer, align 8, !dbg !815
@_ZL21ATTRNAME_INDENTRESULT = internal global %"class.xalanc_1_10::XalanDOMString" zeroinitializer, align 8, !dbg !817
@_ZL17ATTRNAME_INFINITY = internal global %"class.xalanc_1_10::XalanDOMString" zeroinitializer, align 8, !dbg !819
@_ZL13ATTRNAME_LANG = internal global %"class.xalanc_1_10::XalanDOMString" zeroinitializer, align 8, !dbg !821
@_ZL20ATTRNAME_LETTERVALUE = internal global %"class.xalanc_1_10::XalanDOMString" zeroinitializer, align 8, !dbg !823
@_ZL14ATTRNAME_MATCH = internal global %"class.xalanc_1_10::XalanDOMString" zeroinitializer, align 8, !dbg !825
@_ZL18ATTRNAME_MINUSSIGN = internal global %"class.xalanc_1_10::XalanDOMString" zeroinitializer, align 8, !dbg !827
@_ZL13ATTRNAME_MODE = internal global %"class.xalanc_1_10::XalanDOMString" zeroinitializer, align 8, !dbg !829
@_ZL13ATTRNAME_NAME = internal global %"class.xalanc_1_10::XalanDOMString" zeroinitializer, align 8, !dbg !831
@_ZL18ATTRNAME_NAMESPACE = internal global %"class.xalanc_1_10::XalanDOMString" zeroinitializer, align 8, !dbg !833
@_ZL12ATTRNAME_NAN = internal global %"class.xalanc_1_10::XalanDOMString" zeroinitializer, align 8, !dbg !835
@_ZL24ATTRNAME_NDIGITSPERGROUP = internal global %"class.xalanc_1_10::XalanDOMString" zeroinitializer, align 8, !dbg !837
@_ZL22ATTRNAME_OMIT_META_TAG = internal global %"class.xalanc_1_10::XalanDOMString" zeroinitializer, align 8, !dbg !839
@_ZL14ATTRNAME_ORDER = internal global %"class.xalanc_1_10::XalanDOMString" zeroinitializer, align 8, !dbg !841
@_ZL38ATTRNAME_OUTPUT_CDATA_SECTION_ELEMENTS = internal global %"class.xalanc_1_10::XalanDOMString" zeroinitializer, align 8, !dbg !843
@_ZL30ATTRNAME_OUTPUT_DOCTYPE_PUBLIC = internal global %"class.xalanc_1_10::XalanDOMString" zeroinitializer, align 8, !dbg !845
@_ZL30ATTRNAME_OUTPUT_DOCTYPE_SYSTEM = internal global %"class.xalanc_1_10::XalanDOMString" zeroinitializer, align 8, !dbg !847
@_ZL24ATTRNAME_OUTPUT_ENCODING = internal global %"class.xalanc_1_10::XalanDOMString" zeroinitializer, align 8, !dbg !849
@_ZL22ATTRNAME_OUTPUT_INDENT = internal global %"class.xalanc_1_10::XalanDOMString" zeroinitializer, align 8, !dbg !851
@_ZL25ATTRNAME_OUTPUT_MEDIATYPE = internal global %"class.xalanc_1_10::XalanDOMString" zeroinitializer, align 8, !dbg !853
@_ZL22ATTRNAME_OUTPUT_METHOD = internal global %"class.xalanc_1_10::XalanDOMString" zeroinitializer, align 8, !dbg !855
@_ZL27ATTRNAME_OUTPUT_OMITXMLDECL = internal global %"class.xalanc_1_10::XalanDOMString" zeroinitializer, align 8, !dbg !857
@_ZL26ATTRNAME_OUTPUT_STANDALONE = internal global %"class.xalanc_1_10::XalanDOMString" zeroinitializer, align 8, !dbg !859
@_ZL23ATTRNAME_OUTPUT_VERSION = internal global %"class.xalanc_1_10::XalanDOMString" zeroinitializer, align 8, !dbg !861
@_ZL25ATTRNAME_PATTERNSEPARATOR = internal global %"class.xalanc_1_10::XalanDOMString" zeroinitializer, align 8, !dbg !863
@_ZL16ATTRNAME_PERCENT = internal global %"class.xalanc_1_10::XalanDOMString" zeroinitializer, align 8, !dbg !865
@_ZL17ATTRNAME_PERMILLE = internal global %"class.xalanc_1_10::XalanDOMString" zeroinitializer, align 8, !dbg !867
@_ZL15ATTRNAME_PREFIX = internal global %"class.xalanc_1_10::XalanDOMString" zeroinitializer, align 8, !dbg !869
@_ZL17ATTRNAME_PRIORITY = internal global %"class.xalanc_1_10::XalanDOMString" zeroinitializer, align 8, !dbg !871
@_ZL17ATTRNAME_RESULTNS = internal global %"class.xalanc_1_10::XalanDOMString" zeroinitializer, align 8, !dbg !873
@_ZL22ATTRNAME_RESULT_PREFIX = internal global %"class.xalanc_1_10::XalanDOMString" zeroinitializer, align 8, !dbg !875
@_ZL15ATTRNAME_SELECT = internal global %"class.xalanc_1_10::XalanDOMString" zeroinitializer, align 8, !dbg !877
@_ZL26ATTRNAME_STYLESHEET_PREFIX = internal global %"class.xalanc_1_10::XalanDOMString" zeroinitializer, align 8, !dbg !879
@_ZL18ATTRNAME_TERMINATE = internal global %"class.xalanc_1_10::XalanDOMString" zeroinitializer, align 8, !dbg !881
@_ZL13ATTRNAME_TEST = internal global %"class.xalanc_1_10::XalanDOMString" zeroinitializer, align 8, !dbg !883
@_ZL13ATTRNAME_TYPE = internal global %"class.xalanc_1_10::XalanDOMString" zeroinitializer, align 8, !dbg !885
@_ZL12ATTRNAME_USE = internal global %"class.xalanc_1_10::XalanDOMString" zeroinitializer, align 8, !dbg !887
@_ZL25ATTRNAME_USEATTRIBUTESETS = internal global %"class.xalanc_1_10::XalanDOMString" zeroinitializer, align 8, !dbg !889
@_ZL14ATTRNAME_VALUE = internal global %"class.xalanc_1_10::XalanDOMString" zeroinitializer, align 8, !dbg !891
@_ZL16ATTRNAME_VERSION = internal global %"class.xalanc_1_10::XalanDOMString" zeroinitializer, align 8, !dbg !893
@_ZL14ATTRNAME_SPACE = internal global %"class.xalanc_1_10::XalanDOMString" zeroinitializer, align 8, !dbg !895
@_ZL17ATTRNAME_XMLSPACE = internal global %"class.xalanc_1_10::XalanDOMString" zeroinitializer, align 8, !dbg !897
@_ZL18ATTRNAME_ZERODIGIT = internal global %"class.xalanc_1_10::XalanDOMString" zeroinitializer, align 8, !dbg !899
@_ZL14ATTRTYPE_CDATA = internal global %"class.xalanc_1_10::XalanDOMString" zeroinitializer, align 8, !dbg !901
@_ZL23ATTRVAL_CASEORDER_LOWER = internal global %"class.xalanc_1_10::XalanDOMString" zeroinitializer, align 8, !dbg !903
@_ZL23ATTRVAL_CASEORDER_UPPER = internal global %"class.xalanc_1_10::XalanDOMString" zeroinitializer, align 8, !dbg !905
@_ZL23ATTRVAL_DATATYPE_NUMBER = internal global %"class.xalanc_1_10::XalanDOMString" zeroinitializer, align 8, !dbg !907
@_ZL21ATTRVAL_DATATYPE_TEXT = internal global %"class.xalanc_1_10::XalanDOMString" zeroinitializer, align 8, !dbg !909
@_ZL15ATTRVAL_DEFAULT = internal global %"class.xalanc_1_10::XalanDOMString" zeroinitializer, align 8, !dbg !911
@_ZL22ATTRVAL_DEFAULT_PREFIX = internal global %"class.xalanc_1_10::XalanDOMString" zeroinitializer, align 8, !dbg !913
@_ZL25ATTRVAL_DEFAULT_TEXT_RULE = internal global %"class.xalanc_1_10::XalanDOMString" zeroinitializer, align 8, !dbg !915
@_ZL16ATTRVAL_INFINITY = internal global %"class.xalanc_1_10::XalanDOMString" zeroinitializer, align 8, !dbg !917
@_ZL11ATTRVAL_NAN = internal global %"class.xalanc_1_10::XalanDOMString" zeroinitializer, align 8, !dbg !919
@_ZL10ATTRVAL_NO = internal global %"class.xalanc_1_10::XalanDOMString" zeroinitializer, align 8, !dbg !921
@_ZL23ATTRVAL_ORDER_ASCENDING = internal global %"class.xalanc_1_10::XalanDOMString" zeroinitializer, align 8, !dbg !923
@_ZL24ATTRVAL_ORDER_DESCENDING = internal global %"class.xalanc_1_10::XalanDOMString" zeroinitializer, align 8, !dbg !925
@_ZL26ATTRVAL_OUTPUT_METHOD_HTML = internal global %"class.xalanc_1_10::XalanDOMString" zeroinitializer, align 8, !dbg !927
@_ZL26ATTRVAL_OUTPUT_METHOD_TEXT = internal global %"class.xalanc_1_10::XalanDOMString" zeroinitializer, align 8, !dbg !929
@_ZL25ATTRVAL_OUTPUT_METHOD_XML = internal global %"class.xalanc_1_10::XalanDOMString" zeroinitializer, align 8, !dbg !931
@_ZL16ATTRVAL_PRESERVE = internal global %"class.xalanc_1_10::XalanDOMString" zeroinitializer, align 8, !dbg !933
@_ZL14ATTRVAL_SIMPLE = internal global %"class.xalanc_1_10::XalanDOMString" zeroinitializer, align 8, !dbg !935
@_ZL13ATTRVAL_STRIP = internal global %"class.xalanc_1_10::XalanDOMString" zeroinitializer, align 8, !dbg !937
@_ZL12ATTRVAL_THIS = internal global %"class.xalanc_1_10::XalanDOMString" zeroinitializer, align 8, !dbg !939
@_ZL11ATTRVAL_YES = internal global %"class.xalanc_1_10::XalanDOMString" zeroinitializer, align 8, !dbg !941
@_ZL35DEFAULT_WHITESPACE_SEPARATOR_STRING = internal global %"class.xalanc_1_10::XalanDOMString" zeroinitializer, align 8, !dbg !943
@_ZL19ELEMNAME_ANY_STRING = internal global %"class.xalanc_1_10::XalanDOMString" zeroinitializer, align 8, !dbg !945
@_ZL41ELEMNAME_APPLY_IMPORTS_WITH_PREFIX_STRING = internal global %"class.xalanc_1_10::XalanDOMString" zeroinitializer, align 8, !dbg !947
@_ZL43ELEMNAME_APPLY_TEMPLATES_WITH_PREFIX_STRING = internal global %"class.xalanc_1_10::XalanDOMString" zeroinitializer, align 8, !dbg !949
@_ZL40ELEMNAME_ATTRIBUTESET_WITH_PREFIX_STRING = internal global %"class.xalanc_1_10::XalanDOMString" zeroinitializer, align 8, !dbg !951
@_ZL37ELEMNAME_ATTRIBUTE_WITH_PREFIX_STRING = internal global %"class.xalanc_1_10::XalanDOMString" zeroinitializer, align 8, !dbg !953
@_ZL40ELEMNAME_CALLTEMPLATE_WITH_PREFIX_STRING = internal global %"class.xalanc_1_10::XalanDOMString" zeroinitializer, align 8, !dbg !955
@_ZL34ELEMNAME_CHOOSE_WITH_PREFIX_STRING = internal global %"class.xalanc_1_10::XalanDOMString" zeroinitializer, align 8, !dbg !957
@_ZL35ELEMNAME_COMMENT_WITH_PREFIX_STRING = internal global %"class.xalanc_1_10::XalanDOMString" zeroinitializer, align 8, !dbg !959
@_ZL35ELEMNAME_COPY_OF_WITH_PREFIX_STRING = internal global %"class.xalanc_1_10::XalanDOMString" zeroinitializer, align 8, !dbg !961
@_ZL32ELEMNAME_COPY_WITH_PREFIX_STRING = internal global %"class.xalanc_1_10::XalanDOMString" zeroinitializer, align 8, !dbg !963
@_ZL41ELEMNAME_DECIMALFORMAT_WITH_PREFIX_STRING = internal global %"class.xalanc_1_10::XalanDOMString" zeroinitializer, align 8, !dbg !965
@_ZL25ELEMNAME_DISPLAYIF_STRING = internal global %"class.xalanc_1_10::XalanDOMString" zeroinitializer, align 8, !dbg !967
@_ZL35ELEMNAME_ELEMENT_WITH_PREFIX_STRING = internal global %"class.xalanc_1_10::XalanDOMString" zeroinitializer, align 8, !dbg !969
@_ZL36ELEMNAME_FALLBACK_WITH_PREFIX_STRING = internal global %"class.xalanc_1_10::XalanDOMString" zeroinitializer, align 8, !dbg !971
@_ZL35ELEMNAME_FOREACH_WITH_PREFIX_STRING = internal global %"class.xalanc_1_10::XalanDOMString" zeroinitializer, align 8, !dbg !973
@_ZL20ELEMNAME_HTML_STRING = internal global %"class.xalanc_1_10::XalanDOMString" zeroinitializer, align 8, !dbg !975
@_ZL30ELEMNAME_IF_WITH_PREFIX_STRING = internal global %"class.xalanc_1_10::XalanDOMString" zeroinitializer, align 8, !dbg !977
@_ZL34ELEMNAME_IMPORT_WITH_PREFIX_STRING = internal global %"class.xalanc_1_10::XalanDOMString" zeroinitializer, align 8, !dbg !979
@_ZL35ELEMNAME_INCLUDE_WITH_PREFIX_STRING = internal global %"class.xalanc_1_10::XalanDOMString" zeroinitializer, align 8, !dbg !981
@_ZL31ELEMNAME_KEY_WITH_PREFIX_STRING = internal global %"class.xalanc_1_10::XalanDOMString" zeroinitializer, align 8, !dbg !983
@_ZL35ELEMNAME_MESSAGE_WITH_PREFIX_STRING = internal global %"class.xalanc_1_10::XalanDOMString" zeroinitializer, align 8, !dbg !985
@_ZL34ELEMNAME_NUMBER_WITH_PREFIX_STRING = internal global %"class.xalanc_1_10::XalanDOMString" zeroinitializer, align 8, !dbg !987
@_ZL37ELEMNAME_OTHERWISE_WITH_PREFIX_STRING = internal global %"class.xalanc_1_10::XalanDOMString" zeroinitializer, align 8, !dbg !989
@_ZL33ELEMNAME_PARAM_WITH_PREFIX_STRING = internal global %"class.xalanc_1_10::XalanDOMString" zeroinitializer, align 8, !dbg !991
@_ZL30ELEMNAME_PI_WITH_PREFIX_STRING = internal global %"class.xalanc_1_10::XalanDOMString" zeroinitializer, align 8, !dbg !993
@_ZL41ELEMNAME_PRESERVESPACE_WITH_PREFIX_STRING = internal global %"class.xalanc_1_10::XalanDOMString" zeroinitializer, align 8, !dbg !995
@_ZL32ELEMNAME_SORT_WITH_PREFIX_STRING = internal global %"class.xalanc_1_10::XalanDOMString" zeroinitializer, align 8, !dbg !997
@_ZL38ELEMNAME_STRIPSPACE_WITH_PREFIX_STRING = internal global %"class.xalanc_1_10::XalanDOMString" zeroinitializer, align 8, !dbg !999
@_ZL36ELEMNAME_TEMPLATE_WITH_PREFIX_STRING = internal global %"class.xalanc_1_10::XalanDOMString" zeroinitializer, align 8, !dbg !1001
@_ZL32ELEMNAME_TEXT_WITH_PREFIX_STRING = internal global %"class.xalanc_1_10::XalanDOMString" zeroinitializer, align 8, !dbg !1003
@_ZL35ELEMNAME_VALUEOF_WITH_PREFIX_STRING = internal global %"class.xalanc_1_10::XalanDOMString" zeroinitializer, align 8, !dbg !1005
@_ZL36ELEMNAME_VARIABLE_WITH_PREFIX_STRING = internal global %"class.xalanc_1_10::XalanDOMString" zeroinitializer, align 8, !dbg !1007
@_ZL32ELEMNAME_WHEN_WITH_PREFIX_STRING = internal global %"class.xalanc_1_10::XalanDOMString" zeroinitializer, align 8, !dbg !1009
@_ZL37ELEMNAME_WITHPARAM_WITH_PREFIX_STRING = internal global %"class.xalanc_1_10::XalanDOMString" zeroinitializer, align 8, !dbg !1011
@_ZL15PSEUDONAME_NODE = internal global %"class.xalanc_1_10::XalanDOMString" zeroinitializer, align 8, !dbg !1013
@_ZN11xalanc_1_109Constants18ATTRNAME_CASEORDERE = dso_local constant %"class.xalanc_1_10::XalanDOMString"* @_ZL18ATTRNAME_CASEORDER, align 8, !dbg !1015
@_ZN11xalanc_1_109Constants14ATTRNAME_COUNTE = dso_local constant %"class.xalanc_1_10::XalanDOMString"* @_ZL14ATTRNAME_COUNT, align 8, !dbg !1142
@_ZN11xalanc_1_109Constants17ATTRNAME_DATATYPEE = dso_local constant %"class.xalanc_1_10::XalanDOMString"* @_ZL17ATTRNAME_DATATYPE, align 8, !dbg !1144
@_ZN11xalanc_1_109Constants25ATTRNAME_DECIMALSEPARATORE = dso_local constant %"class.xalanc_1_10::XalanDOMString"* @_ZL25ATTRNAME_DECIMALSEPARATOR, align 8, !dbg !1146
@_ZN11xalanc_1_109Constants16ATTRNAME_DEFAULTE = dso_local constant %"class.xalanc_1_10::XalanDOMString"* @_ZL16ATTRNAME_DEFAULT, align 8, !dbg !1148
@_ZN11xalanc_1_109Constants21ATTRNAME_DEFAULTSPACEE = dso_local constant %"class.xalanc_1_10::XalanDOMString"* @_ZL21ATTRNAME_DEFAULTSPACE, align 8, !dbg !1150
@_ZN11xalanc_1_109Constants14ATTRNAME_DIGITE = dso_local constant %"class.xalanc_1_10::XalanDOMString"* @_ZL14ATTRNAME_DIGIT, align 8, !dbg !1152
@_ZN11xalanc_1_109Constants22ATTRNAME_DIGITGROUPSEPE = dso_local constant %"class.xalanc_1_10::XalanDOMString"* @_ZL22ATTRNAME_DIGITGROUPSEP, align 8, !dbg !1154
@_ZN11xalanc_1_109Constants32ATTRNAME_DISABLE_OUTPUT_ESCAPINGE = dso_local constant %"class.xalanc_1_10::XalanDOMString"* @_ZL32ATTRNAME_DISABLE_OUTPUT_ESCAPING, align 8, !dbg !1156
@_ZN11xalanc_1_109Constants17ATTRNAME_ELEMENTSE = dso_local constant %"class.xalanc_1_10::XalanDOMString"* @_ZL17ATTRNAME_ELEMENTS, align 8, !dbg !1158
@_ZN11xalanc_1_109Constants20ATTRNAME_ESCAPE_URLSE = dso_local constant %"class.xalanc_1_10::XalanDOMString"* @_ZL20ATTRNAME_ESCAPE_URLS, align 8, !dbg !1160
@_ZN11xalanc_1_109Constants32ATTRNAME_EXCLUDE_RESULT_PREFIXESE = dso_local constant %"class.xalanc_1_10::XalanDOMString"* @_ZL32ATTRNAME_EXCLUDE_RESULT_PREFIXES, align 8, !dbg !1162
@_ZN11xalanc_1_109Constants33ATTRNAME_EXTENSIONELEMENTPREFIXESE = dso_local constant %"class.xalanc_1_10::XalanDOMString"* @_ZL33ATTRNAME_EXTENSIONELEMENTPREFIXES, align 8, !dbg !1164
@_ZN11xalanc_1_109Constants15ATTRNAME_FORMATE = dso_local constant %"class.xalanc_1_10::XalanDOMString"* @_ZL15ATTRNAME_FORMAT, align 8, !dbg !1166
@_ZN11xalanc_1_109Constants13ATTRNAME_FROME = dso_local constant %"class.xalanc_1_10::XalanDOMString"* @_ZL13ATTRNAME_FROM, align 8, !dbg !1168
@_ZN11xalanc_1_109Constants26ATTRNAME_GROUPINGSEPARATORE = dso_local constant %"class.xalanc_1_10::XalanDOMString"* @_ZL26ATTRNAME_GROUPINGSEPARATOR, align 8, !dbg !1170
@_ZN11xalanc_1_109Constants21ATTRNAME_GROUPINGSIZEE = dso_local constant %"class.xalanc_1_10::XalanDOMString"* @_ZL21ATTRNAME_GROUPINGSIZE, align 8, !dbg !1172
@_ZN11xalanc_1_109Constants13ATTRNAME_HREFE = dso_local constant %"class.xalanc_1_10::XalanDOMString"* @_ZL13ATTRNAME_HREF, align 8, !dbg !1174
@_ZN11xalanc_1_109Constants11ATTRNAME_IDE = dso_local constant %"class.xalanc_1_10::XalanDOMString"* @_ZL11ATTRNAME_ID, align 8, !dbg !1176
@_ZN11xalanc_1_109Constants21ATTRNAME_INDENTAMOUNTE = dso_local constant %"class.xalanc_1_10::XalanDOMString"* @_ZL21ATTRNAME_INDENTAMOUNT, align 8, !dbg !1178
@_ZN11xalanc_1_109Constants21ATTRNAME_INDENTRESULTE = dso_local constant %"class.xalanc_1_10::XalanDOMString"* @_ZL21ATTRNAME_INDENTRESULT, align 8, !dbg !1180
@_ZN11xalanc_1_109Constants17ATTRNAME_INFINITYE = dso_local constant %"class.xalanc_1_10::XalanDOMString"* @_ZL17ATTRNAME_INFINITY, align 8, !dbg !1182
@_ZN11xalanc_1_109Constants13ATTRNAME_LANGE = dso_local constant %"class.xalanc_1_10::XalanDOMString"* @_ZL13ATTRNAME_LANG, align 8, !dbg !1184
@_ZN11xalanc_1_109Constants20ATTRNAME_LETTERVALUEE = dso_local constant %"class.xalanc_1_10::XalanDOMString"* @_ZL20ATTRNAME_LETTERVALUE, align 8, !dbg !1186
@_ZN11xalanc_1_109Constants14ATTRNAME_MATCHE = dso_local constant %"class.xalanc_1_10::XalanDOMString"* @_ZL14ATTRNAME_MATCH, align 8, !dbg !1188
@_ZN11xalanc_1_109Constants18ATTRNAME_MINUSSIGNE = dso_local constant %"class.xalanc_1_10::XalanDOMString"* @_ZL18ATTRNAME_MINUSSIGN, align 8, !dbg !1190
@_ZN11xalanc_1_109Constants13ATTRNAME_MODEE = dso_local constant %"class.xalanc_1_10::XalanDOMString"* @_ZL13ATTRNAME_MODE, align 8, !dbg !1192
@_ZN11xalanc_1_109Constants13ATTRNAME_NAMEE = dso_local constant %"class.xalanc_1_10::XalanDOMString"* @_ZL13ATTRNAME_NAME, align 8, !dbg !1194
@_ZN11xalanc_1_109Constants18ATTRNAME_NAMESPACEE = dso_local constant %"class.xalanc_1_10::XalanDOMString"* @_ZL18ATTRNAME_NAMESPACE, align 8, !dbg !1196
@_ZN11xalanc_1_109Constants12ATTRNAME_NANE = dso_local constant %"class.xalanc_1_10::XalanDOMString"* @_ZL12ATTRNAME_NAN, align 8, !dbg !1198
@_ZN11xalanc_1_109Constants24ATTRNAME_NDIGITSPERGROUPE = dso_local constant %"class.xalanc_1_10::XalanDOMString"* @_ZL24ATTRNAME_NDIGITSPERGROUP, align 8, !dbg !1200
@_ZN11xalanc_1_109Constants22ATTRNAME_OMIT_META_TAGE = dso_local constant %"class.xalanc_1_10::XalanDOMString"* @_ZL22ATTRNAME_OMIT_META_TAG, align 8, !dbg !1202
@_ZN11xalanc_1_109Constants14ATTRNAME_ORDERE = dso_local constant %"class.xalanc_1_10::XalanDOMString"* @_ZL14ATTRNAME_ORDER, align 8, !dbg !1204
@_ZN11xalanc_1_109Constants38ATTRNAME_OUTPUT_CDATA_SECTION_ELEMENTSE = dso_local constant %"class.xalanc_1_10::XalanDOMString"* @_ZL38ATTRNAME_OUTPUT_CDATA_SECTION_ELEMENTS, align 8, !dbg !1206
@_ZN11xalanc_1_109Constants30ATTRNAME_OUTPUT_DOCTYPE_PUBLICE = dso_local constant %"class.xalanc_1_10::XalanDOMString"* @_ZL30ATTRNAME_OUTPUT_DOCTYPE_PUBLIC, align 8, !dbg !1208
@_ZN11xalanc_1_109Constants30ATTRNAME_OUTPUT_DOCTYPE_SYSTEME = dso_local constant %"class.xalanc_1_10::XalanDOMString"* @_ZL30ATTRNAME_OUTPUT_DOCTYPE_SYSTEM, align 8, !dbg !1210
@_ZN11xalanc_1_109Constants24ATTRNAME_OUTPUT_ENCODINGE = dso_local constant %"class.xalanc_1_10::XalanDOMString"* @_ZL24ATTRNAME_OUTPUT_ENCODING, align 8, !dbg !1212
@_ZN11xalanc_1_109Constants22ATTRNAME_OUTPUT_INDENTE = dso_local constant %"class.xalanc_1_10::XalanDOMString"* @_ZL22ATTRNAME_OUTPUT_INDENT, align 8, !dbg !1214
@_ZN11xalanc_1_109Constants25ATTRNAME_OUTPUT_MEDIATYPEE = dso_local constant %"class.xalanc_1_10::XalanDOMString"* @_ZL25ATTRNAME_OUTPUT_MEDIATYPE, align 8, !dbg !1216
@_ZN11xalanc_1_109Constants22ATTRNAME_OUTPUT_METHODE = dso_local constant %"class.xalanc_1_10::XalanDOMString"* @_ZL22ATTRNAME_OUTPUT_METHOD, align 8, !dbg !1218
@_ZN11xalanc_1_109Constants27ATTRNAME_OUTPUT_OMITXMLDECLE = dso_local constant %"class.xalanc_1_10::XalanDOMString"* @_ZL27ATTRNAME_OUTPUT_OMITXMLDECL, align 8, !dbg !1220
@_ZN11xalanc_1_109Constants26ATTRNAME_OUTPUT_STANDALONEE = dso_local constant %"class.xalanc_1_10::XalanDOMString"* @_ZL26ATTRNAME_OUTPUT_STANDALONE, align 8, !dbg !1222
@_ZN11xalanc_1_109Constants23ATTRNAME_OUTPUT_VERSIONE = dso_local constant %"class.xalanc_1_10::XalanDOMString"* @_ZL23ATTRNAME_OUTPUT_VERSION, align 8, !dbg !1224
@_ZN11xalanc_1_109Constants25ATTRNAME_PATTERNSEPARATORE = dso_local constant %"class.xalanc_1_10::XalanDOMString"* @_ZL25ATTRNAME_PATTERNSEPARATOR, align 8, !dbg !1226
@_ZN11xalanc_1_109Constants16ATTRNAME_PERCENTE = dso_local constant %"class.xalanc_1_10::XalanDOMString"* @_ZL16ATTRNAME_PERCENT, align 8, !dbg !1228
@_ZN11xalanc_1_109Constants17ATTRNAME_PERMILLEE = dso_local constant %"class.xalanc_1_10::XalanDOMString"* @_ZL17ATTRNAME_PERMILLE, align 8, !dbg !1230
@_ZN11xalanc_1_109Constants15ATTRNAME_PREFIXE = dso_local constant %"class.xalanc_1_10::XalanDOMString"* @_ZL15ATTRNAME_PREFIX, align 8, !dbg !1232
@_ZN11xalanc_1_109Constants17ATTRNAME_PRIORITYE = dso_local constant %"class.xalanc_1_10::XalanDOMString"* @_ZL17ATTRNAME_PRIORITY, align 8, !dbg !1234
@_ZN11xalanc_1_109Constants17ATTRNAME_RESULTNSE = dso_local constant %"class.xalanc_1_10::XalanDOMString"* @_ZL17ATTRNAME_RESULTNS, align 8, !dbg !1236
@_ZN11xalanc_1_109Constants22ATTRNAME_RESULT_PREFIXE = dso_local constant %"class.xalanc_1_10::XalanDOMString"* @_ZL22ATTRNAME_RESULT_PREFIX, align 8, !dbg !1238
@_ZN11xalanc_1_109Constants15ATTRNAME_SELECTE = dso_local constant %"class.xalanc_1_10::XalanDOMString"* @_ZL15ATTRNAME_SELECT, align 8, !dbg !1240
@_ZN11xalanc_1_109Constants26ATTRNAME_STYLESHEET_PREFIXE = dso_local constant %"class.xalanc_1_10::XalanDOMString"* @_ZL26ATTRNAME_STYLESHEET_PREFIX, align 8, !dbg !1242
@_ZN11xalanc_1_109Constants18ATTRNAME_TERMINATEE = dso_local constant %"class.xalanc_1_10::XalanDOMString"* @_ZL18ATTRNAME_TERMINATE, align 8, !dbg !1244
@_ZN11xalanc_1_109Constants13ATTRNAME_TESTE = dso_local constant %"class.xalanc_1_10::XalanDOMString"* @_ZL13ATTRNAME_TEST, align 8, !dbg !1246
@_ZN11xalanc_1_109Constants13ATTRNAME_TYPEE = dso_local constant %"class.xalanc_1_10::XalanDOMString"* @_ZL13ATTRNAME_TYPE, align 8, !dbg !1248
@_ZN11xalanc_1_109Constants12ATTRNAME_USEE = dso_local constant %"class.xalanc_1_10::XalanDOMString"* @_ZL12ATTRNAME_USE, align 8, !dbg !1250
@_ZN11xalanc_1_109Constants25ATTRNAME_USEATTRIBUTESETSE = dso_local constant %"class.xalanc_1_10::XalanDOMString"* @_ZL25ATTRNAME_USEATTRIBUTESETS, align 8, !dbg !1252
@_ZN11xalanc_1_109Constants14ATTRNAME_VALUEE = dso_local constant %"class.xalanc_1_10::XalanDOMString"* @_ZL14ATTRNAME_VALUE, align 8, !dbg !1254
@_ZN11xalanc_1_109Constants16ATTRNAME_VERSIONE = dso_local constant %"class.xalanc_1_10::XalanDOMString"* @_ZL16ATTRNAME_VERSION, align 8, !dbg !1256
@_ZN11xalanc_1_109Constants14ATTRNAME_SPACEE = dso_local constant %"class.xalanc_1_10::XalanDOMString"* @_ZL14ATTRNAME_SPACE, align 8, !dbg !1258
@_ZN11xalanc_1_109Constants17ATTRNAME_XMLSPACEE = dso_local constant %"class.xalanc_1_10::XalanDOMString"* @_ZL17ATTRNAME_XMLSPACE, align 8, !dbg !1260
@_ZN11xalanc_1_109Constants18ATTRNAME_ZERODIGITE = dso_local constant %"class.xalanc_1_10::XalanDOMString"* @_ZL18ATTRNAME_ZERODIGIT, align 8, !dbg !1262
@_ZN11xalanc_1_109Constants14ATTRTYPE_CDATAE = dso_local constant %"class.xalanc_1_10::XalanDOMString"* @_ZL14ATTRTYPE_CDATA, align 8, !dbg !1264
@_ZN11xalanc_1_109Constants23ATTRVAL_CASEORDER_LOWERE = dso_local constant %"class.xalanc_1_10::XalanDOMString"* @_ZL23ATTRVAL_CASEORDER_LOWER, align 8, !dbg !1266
@_ZN11xalanc_1_109Constants23ATTRVAL_CASEORDER_UPPERE = dso_local constant %"class.xalanc_1_10::XalanDOMString"* @_ZL23ATTRVAL_CASEORDER_UPPER, align 8, !dbg !1268
@_ZN11xalanc_1_109Constants23ATTRVAL_DATATYPE_NUMBERE = dso_local constant %"class.xalanc_1_10::XalanDOMString"* @_ZL23ATTRVAL_DATATYPE_NUMBER, align 8, !dbg !1270
@_ZN11xalanc_1_109Constants21ATTRVAL_DATATYPE_TEXTE = dso_local constant %"class.xalanc_1_10::XalanDOMString"* @_ZL21ATTRVAL_DATATYPE_TEXT, align 8, !dbg !1272
@_ZN11xalanc_1_109Constants15ATTRVAL_DEFAULTE = dso_local constant %"class.xalanc_1_10::XalanDOMString"* @_ZL15ATTRVAL_DEFAULT, align 8, !dbg !1274
@_ZN11xalanc_1_109Constants22ATTRVAL_DEFAULT_PREFIXE = dso_local constant %"class.xalanc_1_10::XalanDOMString"* @_ZL22ATTRVAL_DEFAULT_PREFIX, align 8, !dbg !1276
@_ZN11xalanc_1_109Constants25ATTRVAL_DEFAULT_TEXT_RULEE = dso_local constant %"class.xalanc_1_10::XalanDOMString"* @_ZL25ATTRVAL_DEFAULT_TEXT_RULE, align 8, !dbg !1278
@_ZN11xalanc_1_109Constants16ATTRVAL_INFINITYE = dso_local constant %"class.xalanc_1_10::XalanDOMString"* @_ZL16ATTRVAL_INFINITY, align 8, !dbg !1280
@_ZN11xalanc_1_109Constants11ATTRVAL_NANE = dso_local constant %"class.xalanc_1_10::XalanDOMString"* @_ZL11ATTRVAL_NAN, align 8, !dbg !1282
@_ZN11xalanc_1_109Constants10ATTRVAL_NOE = dso_local constant %"class.xalanc_1_10::XalanDOMString"* @_ZL10ATTRVAL_NO, align 8, !dbg !1284
@_ZN11xalanc_1_109Constants23ATTRVAL_ORDER_ASCENDINGE = dso_local constant %"class.xalanc_1_10::XalanDOMString"* @_ZL23ATTRVAL_ORDER_ASCENDING, align 8, !dbg !1286
@_ZN11xalanc_1_109Constants24ATTRVAL_ORDER_DESCENDINGE = dso_local constant %"class.xalanc_1_10::XalanDOMString"* @_ZL24ATTRVAL_ORDER_DESCENDING, align 8, !dbg !1288
@_ZN11xalanc_1_109Constants26ATTRVAL_OUTPUT_METHOD_HTMLE = dso_local constant %"class.xalanc_1_10::XalanDOMString"* @_ZL26ATTRVAL_OUTPUT_METHOD_HTML, align 8, !dbg !1290
@_ZN11xalanc_1_109Constants26ATTRVAL_OUTPUT_METHOD_TEXTE = dso_local constant %"class.xalanc_1_10::XalanDOMString"* @_ZL26ATTRVAL_OUTPUT_METHOD_TEXT, align 8, !dbg !1292
@_ZN11xalanc_1_109Constants25ATTRVAL_OUTPUT_METHOD_XMLE = dso_local constant %"class.xalanc_1_10::XalanDOMString"* @_ZL25ATTRVAL_OUTPUT_METHOD_XML, align 8, !dbg !1294
@_ZN11xalanc_1_109Constants16ATTRVAL_PRESERVEE = dso_local constant %"class.xalanc_1_10::XalanDOMString"* @_ZL16ATTRVAL_PRESERVE, align 8, !dbg !1296
@_ZN11xalanc_1_109Constants14ATTRVAL_SIMPLEE = dso_local constant %"class.xalanc_1_10::XalanDOMString"* @_ZL14ATTRVAL_SIMPLE, align 8, !dbg !1298
@_ZN11xalanc_1_109Constants13ATTRVAL_STRIPE = dso_local constant %"class.xalanc_1_10::XalanDOMString"* @_ZL13ATTRVAL_STRIP, align 8, !dbg !1300
@_ZN11xalanc_1_109Constants12ATTRVAL_THISE = dso_local constant %"class.xalanc_1_10::XalanDOMString"* @_ZL12ATTRVAL_THIS, align 8, !dbg !1302
@_ZN11xalanc_1_109Constants11ATTRVAL_YESE = dso_local constant %"class.xalanc_1_10::XalanDOMString"* @_ZL11ATTRVAL_YES, align 8, !dbg !1304
@_ZN11xalanc_1_109Constants35DEFAULT_WHITESPACE_SEPARATOR_STRINGE = dso_local constant %"class.xalanc_1_10::XalanDOMString"* @_ZL35DEFAULT_WHITESPACE_SEPARATOR_STRING, align 8, !dbg !1306
@_ZN11xalanc_1_109Constants19ELEMNAME_ANY_STRINGE = dso_local constant %"class.xalanc_1_10::XalanDOMString"* @_ZL19ELEMNAME_ANY_STRING, align 8, !dbg !1308
@_ZN11xalanc_1_109Constants41ELEMNAME_APPLY_IMPORTS_WITH_PREFIX_STRINGE = dso_local constant %"class.xalanc_1_10::XalanDOMString"* @_ZL41ELEMNAME_APPLY_IMPORTS_WITH_PREFIX_STRING, align 8, !dbg !1310
@_ZN11xalanc_1_109Constants43ELEMNAME_APPLY_TEMPLATES_WITH_PREFIX_STRINGE = dso_local constant %"class.xalanc_1_10::XalanDOMString"* @_ZL43ELEMNAME_APPLY_TEMPLATES_WITH_PREFIX_STRING, align 8, !dbg !1312
@_ZN11xalanc_1_109Constants40ELEMNAME_ATTRIBUTESET_WITH_PREFIX_STRINGE = dso_local constant %"class.xalanc_1_10::XalanDOMString"* @_ZL40ELEMNAME_ATTRIBUTESET_WITH_PREFIX_STRING, align 8, !dbg !1314
@_ZN11xalanc_1_109Constants37ELEMNAME_ATTRIBUTE_WITH_PREFIX_STRINGE = dso_local constant %"class.xalanc_1_10::XalanDOMString"* @_ZL37ELEMNAME_ATTRIBUTE_WITH_PREFIX_STRING, align 8, !dbg !1316
@_ZN11xalanc_1_109Constants40ELEMNAME_CALLTEMPLATE_WITH_PREFIX_STRINGE = dso_local constant %"class.xalanc_1_10::XalanDOMString"* @_ZL40ELEMNAME_CALLTEMPLATE_WITH_PREFIX_STRING, align 8, !dbg !1318
@_ZN11xalanc_1_109Constants34ELEMNAME_CHOOSE_WITH_PREFIX_STRINGE = dso_local constant %"class.xalanc_1_10::XalanDOMString"* @_ZL34ELEMNAME_CHOOSE_WITH_PREFIX_STRING, align 8, !dbg !1320
@_ZN11xalanc_1_109Constants35ELEMNAME_COMMENT_WITH_PREFIX_STRINGE = dso_local constant %"class.xalanc_1_10::XalanDOMString"* @_ZL35ELEMNAME_COMMENT_WITH_PREFIX_STRING, align 8, !dbg !1322
@_ZN11xalanc_1_109Constants35ELEMNAME_COPY_OF_WITH_PREFIX_STRINGE = dso_local constant %"class.xalanc_1_10::XalanDOMString"* @_ZL35ELEMNAME_COPY_OF_WITH_PREFIX_STRING, align 8, !dbg !1324
@_ZN11xalanc_1_109Constants32ELEMNAME_COPY_WITH_PREFIX_STRINGE = dso_local constant %"class.xalanc_1_10::XalanDOMString"* @_ZL32ELEMNAME_COPY_WITH_PREFIX_STRING, align 8, !dbg !1326
@_ZN11xalanc_1_109Constants41ELEMNAME_DECIMALFORMAT_WITH_PREFIX_STRINGE = dso_local constant %"class.xalanc_1_10::XalanDOMString"* @_ZL41ELEMNAME_DECIMALFORMAT_WITH_PREFIX_STRING, align 8, !dbg !1328
@_ZN11xalanc_1_109Constants35ELEMNAME_ELEMENT_WITH_PREFIX_STRINGE = dso_local constant %"class.xalanc_1_10::XalanDOMString"* @_ZL35ELEMNAME_ELEMENT_WITH_PREFIX_STRING, align 8, !dbg !1330
@_ZN11xalanc_1_109Constants36ELEMNAME_FALLBACK_WITH_PREFIX_STRINGE = dso_local constant %"class.xalanc_1_10::XalanDOMString"* @_ZL36ELEMNAME_FALLBACK_WITH_PREFIX_STRING, align 8, !dbg !1332
@_ZN11xalanc_1_109Constants35ELEMNAME_FOREACH_WITH_PREFIX_STRINGE = dso_local constant %"class.xalanc_1_10::XalanDOMString"* @_ZL35ELEMNAME_FOREACH_WITH_PREFIX_STRING, align 8, !dbg !1334
@_ZN11xalanc_1_109Constants20ELEMNAME_HTML_STRINGE = dso_local constant %"class.xalanc_1_10::XalanDOMString"* @_ZL20ELEMNAME_HTML_STRING, align 8, !dbg !1336
@_ZN11xalanc_1_109Constants30ELEMNAME_IF_WITH_PREFIX_STRINGE = dso_local constant %"class.xalanc_1_10::XalanDOMString"* @_ZL30ELEMNAME_IF_WITH_PREFIX_STRING, align 8, !dbg !1338
@_ZN11xalanc_1_109Constants34ELEMNAME_IMPORT_WITH_PREFIX_STRINGE = dso_local constant %"class.xalanc_1_10::XalanDOMString"* @_ZL34ELEMNAME_IMPORT_WITH_PREFIX_STRING, align 8, !dbg !1340
@_ZN11xalanc_1_109Constants35ELEMNAME_INCLUDE_WITH_PREFIX_STRINGE = dso_local constant %"class.xalanc_1_10::XalanDOMString"* @_ZL35ELEMNAME_INCLUDE_WITH_PREFIX_STRING, align 8, !dbg !1342
@_ZN11xalanc_1_109Constants31ELEMNAME_KEY_WITH_PREFIX_STRINGE = dso_local constant %"class.xalanc_1_10::XalanDOMString"* @_ZL31ELEMNAME_KEY_WITH_PREFIX_STRING, align 8, !dbg !1344
@_ZN11xalanc_1_109Constants35ELEMNAME_MESSAGE_WITH_PREFIX_STRINGE = dso_local constant %"class.xalanc_1_10::XalanDOMString"* @_ZL35ELEMNAME_MESSAGE_WITH_PREFIX_STRING, align 8, !dbg !1346
@_ZN11xalanc_1_109Constants34ELEMNAME_NUMBER_WITH_PREFIX_STRINGE = dso_local constant %"class.xalanc_1_10::XalanDOMString"* @_ZL34ELEMNAME_NUMBER_WITH_PREFIX_STRING, align 8, !dbg !1348
@_ZN11xalanc_1_109Constants37ELEMNAME_OTHERWISE_WITH_PREFIX_STRINGE = dso_local constant %"class.xalanc_1_10::XalanDOMString"* @_ZL37ELEMNAME_OTHERWISE_WITH_PREFIX_STRING, align 8, !dbg !1350
@_ZN11xalanc_1_109Constants33ELEMNAME_PARAM_WITH_PREFIX_STRINGE = dso_local constant %"class.xalanc_1_10::XalanDOMString"* @_ZL33ELEMNAME_PARAM_WITH_PREFIX_STRING, align 8, !dbg !1352
@_ZN11xalanc_1_109Constants30ELEMNAME_PI_WITH_PREFIX_STRINGE = dso_local constant %"class.xalanc_1_10::XalanDOMString"* @_ZL30ELEMNAME_PI_WITH_PREFIX_STRING, align 8, !dbg !1354
@_ZN11xalanc_1_109Constants41ELEMNAME_PRESERVESPACE_WITH_PREFIX_STRINGE = dso_local constant %"class.xalanc_1_10::XalanDOMString"* @_ZL41ELEMNAME_PRESERVESPACE_WITH_PREFIX_STRING, align 8, !dbg !1356
@_ZN11xalanc_1_109Constants32ELEMNAME_SORT_WITH_PREFIX_STRINGE = dso_local constant %"class.xalanc_1_10::XalanDOMString"* @_ZL32ELEMNAME_SORT_WITH_PREFIX_STRING, align 8, !dbg !1358
@_ZN11xalanc_1_109Constants38ELEMNAME_STRIPSPACE_WITH_PREFIX_STRINGE = dso_local constant %"class.xalanc_1_10::XalanDOMString"* @_ZL38ELEMNAME_STRIPSPACE_WITH_PREFIX_STRING, align 8, !dbg !1360
@_ZN11xalanc_1_109Constants36ELEMNAME_TEMPLATE_WITH_PREFIX_STRINGE = dso_local constant %"class.xalanc_1_10::XalanDOMString"* @_ZL36ELEMNAME_TEMPLATE_WITH_PREFIX_STRING, align 8, !dbg !1362
@_ZN11xalanc_1_109Constants32ELEMNAME_TEXT_WITH_PREFIX_STRINGE = dso_local constant %"class.xalanc_1_10::XalanDOMString"* @_ZL32ELEMNAME_TEXT_WITH_PREFIX_STRING, align 8, !dbg !1364
@_ZN11xalanc_1_109Constants35ELEMNAME_VALUEOF_WITH_PREFIX_STRINGE = dso_local constant %"class.xalanc_1_10::XalanDOMString"* @_ZL35ELEMNAME_VALUEOF_WITH_PREFIX_STRING, align 8, !dbg !1366
@_ZN11xalanc_1_109Constants36ELEMNAME_VARIABLE_WITH_PREFIX_STRINGE = dso_local constant %"class.xalanc_1_10::XalanDOMString"* @_ZL36ELEMNAME_VARIABLE_WITH_PREFIX_STRING, align 8, !dbg !1368
@_ZN11xalanc_1_109Constants32ELEMNAME_WHEN_WITH_PREFIX_STRINGE = dso_local constant %"class.xalanc_1_10::XalanDOMString"* @_ZL32ELEMNAME_WHEN_WITH_PREFIX_STRING, align 8, !dbg !1370
@_ZN11xalanc_1_109Constants37ELEMNAME_WITHPARAM_WITH_PREFIX_STRINGE = dso_local constant %"class.xalanc_1_10::XalanDOMString"* @_ZL37ELEMNAME_WITHPARAM_WITH_PREFIX_STRING, align 8, !dbg !1372
@_ZN11xalanc_1_109Constants15PSEUDONAME_NODEE = dso_local constant %"class.xalanc_1_10::XalanDOMString"* @_ZL15PSEUDONAME_NODE, align 8, !dbg !1374
@.str = private unnamed_addr constant [11 x i8] c"case-order\00", align 1
@.str.119 = private unnamed_addr constant [6 x i8] c"count\00", align 1
@.str.120 = private unnamed_addr constant [10 x i8] c"data-type\00", align 1
@.str.121 = private unnamed_addr constant [18 x i8] c"decimal-separator\00", align 1
@.str.122 = private unnamed_addr constant [8 x i8] c"default\00", align 1
@.str.123 = private unnamed_addr constant [14 x i8] c"default-space\00", align 1
@.str.124 = private unnamed_addr constant [6 x i8] c"digit\00", align 1
@.str.125 = private unnamed_addr constant [16 x i8] c"digit-group-sep\00", align 1
@.str.126 = private unnamed_addr constant [24 x i8] c"disable-output-escaping\00", align 1
@.str.127 = private unnamed_addr constant [9 x i8] c"elements\00", align 1
@.str.128 = private unnamed_addr constant [17 x i8] c"use-url-escaping\00", align 1
@.str.129 = private unnamed_addr constant [24 x i8] c"exclude-result-prefixes\00", align 1
@.str.130 = private unnamed_addr constant [27 x i8] c"extension-element-prefixes\00", align 1
@.str.131 = private unnamed_addr constant [7 x i8] c"format\00", align 1
@.str.132 = private unnamed_addr constant [5 x i8] c"from\00", align 1
@.str.133 = private unnamed_addr constant [19 x i8] c"grouping-separator\00", align 1
@.str.134 = private unnamed_addr constant [14 x i8] c"grouping-size\00", align 1
@.str.135 = private unnamed_addr constant [5 x i8] c"href\00", align 1
@.str.136 = private unnamed_addr constant [3 x i8] c"id\00", align 1
@.str.137 = private unnamed_addr constant [14 x i8] c"indent-amount\00", align 1
@.str.138 = private unnamed_addr constant [14 x i8] c"indent-result\00", align 1
@.str.139 = private unnamed_addr constant [9 x i8] c"infinity\00", align 1
@.str.140 = private unnamed_addr constant [5 x i8] c"lang\00", align 1
@.str.141 = private unnamed_addr constant [13 x i8] c"letter-value\00", align 1
@.str.142 = private unnamed_addr constant [6 x i8] c"match\00", align 1
@.str.143 = private unnamed_addr constant [11 x i8] c"minus-sign\00", align 1
@.str.144 = private unnamed_addr constant [5 x i8] c"mode\00", align 1
@.str.145 = private unnamed_addr constant [5 x i8] c"name\00", align 1
@.str.146 = private unnamed_addr constant [10 x i8] c"namespace\00", align 1
@.str.147 = private unnamed_addr constant [4 x i8] c"NaN\00", align 1
@.str.148 = private unnamed_addr constant [19 x i8] c"n-digits-per-group\00", align 1
@.str.149 = private unnamed_addr constant [14 x i8] c"omit-meta-tag\00", align 1
@.str.150 = private unnamed_addr constant [6 x i8] c"order\00", align 1
@.str.151 = private unnamed_addr constant [23 x i8] c"cdata-section-elements\00", align 1
@.str.152 = private unnamed_addr constant [15 x i8] c"doctype-public\00", align 1
@.str.153 = private unnamed_addr constant [15 x i8] c"doctype-system\00", align 1
@.str.154 = private unnamed_addr constant [9 x i8] c"encoding\00", align 1
@.str.155 = private unnamed_addr constant [7 x i8] c"indent\00", align 1
@.str.156 = private unnamed_addr constant [11 x i8] c"media-type\00", align 1
@.str.157 = private unnamed_addr constant [7 x i8] c"method\00", align 1
@.str.158 = private unnamed_addr constant [21 x i8] c"omit-xml-declaration\00", align 1
@.str.159 = private unnamed_addr constant [11 x i8] c"standalone\00", align 1
@.str.160 = private unnamed_addr constant [8 x i8] c"version\00", align 1
@.str.161 = private unnamed_addr constant [18 x i8] c"pattern-separator\00", align 1
@.str.162 = private unnamed_addr constant [8 x i8] c"percent\00", align 1
@.str.163 = private unnamed_addr constant [10 x i8] c"per-mille\00", align 1
@.str.164 = private unnamed_addr constant [7 x i8] c"prefix\00", align 1
@.str.165 = private unnamed_addr constant [9 x i8] c"priority\00", align 1
@.str.166 = private unnamed_addr constant [10 x i8] c"result-ns\00", align 1
@.str.167 = private unnamed_addr constant [14 x i8] c"result-prefix\00", align 1
@.str.168 = private unnamed_addr constant [7 x i8] c"select\00", align 1
@.str.169 = private unnamed_addr constant [18 x i8] c"stylesheet-prefix\00", align 1
@.str.170 = private unnamed_addr constant [10 x i8] c"terminate\00", align 1
@.str.171 = private unnamed_addr constant [5 x i8] c"test\00", align 1
@.str.172 = private unnamed_addr constant [5 x i8] c"type\00", align 1
@.str.173 = private unnamed_addr constant [4 x i8] c"use\00", align 1
@.str.174 = private unnamed_addr constant [19 x i8] c"use-attribute-sets\00", align 1
@.str.175 = private unnamed_addr constant [6 x i8] c"value\00", align 1
@.str.176 = private unnamed_addr constant [6 x i8] c"space\00", align 1
@.str.177 = private unnamed_addr constant [10 x i8] c"xml:space\00", align 1
@.str.178 = private unnamed_addr constant [11 x i8] c"zero-digit\00", align 1
@.str.179 = private unnamed_addr constant [6 x i8] c"CDATA\00", align 1
@.str.180 = private unnamed_addr constant [12 x i8] c"lower-first\00", align 1
@.str.181 = private unnamed_addr constant [12 x i8] c"upper-first\00", align 1
@.str.182 = private unnamed_addr constant [7 x i8] c"number\00", align 1
@.str.183 = private unnamed_addr constant [5 x i8] c"text\00", align 1
@.str.184 = private unnamed_addr constant [9 x i8] c"#default\00", align 1
@.str.185 = private unnamed_addr constant [12 x i8] c"text() | @*\00", align 1
@.str.186 = private unnamed_addr constant [9 x i8] c"Infinity\00", align 1
@.str.187 = private unnamed_addr constant [3 x i8] c"no\00", align 1
@.str.188 = private unnamed_addr constant [10 x i8] c"ascending\00", align 1
@.str.189 = private unnamed_addr constant [11 x i8] c"descending\00", align 1
@.str.190 = private unnamed_addr constant [5 x i8] c"html\00", align 1
@.str.191 = private unnamed_addr constant [4 x i8] c"xml\00", align 1
@.str.192 = private unnamed_addr constant [9 x i8] c"preserve\00", align 1
@.str.193 = private unnamed_addr constant [7 x i8] c"simple\00", align 1
@.str.194 = private unnamed_addr constant [6 x i8] c"strip\00", align 1
@.str.195 = private unnamed_addr constant [2 x i8] c".\00", align 1
@.str.196 = private unnamed_addr constant [4 x i8] c"yes\00", align 1
@.str.197 = private unnamed_addr constant [5 x i8] c" \09\0A\0D\00", align 1
@.str.198 = private unnamed_addr constant [4 x i8] c"any\00", align 1
@.str.199 = private unnamed_addr constant [18 x i8] c"xsl:apply-imports\00", align 1
@.str.200 = private unnamed_addr constant [20 x i8] c"xsl:apply-templates\00", align 1
@.str.201 = private unnamed_addr constant [18 x i8] c"xsl:attribute-set\00", align 1
@.str.202 = private unnamed_addr constant [14 x i8] c"xsl:attribute\00", align 1
@.str.203 = private unnamed_addr constant [18 x i8] c"xsl:call-template\00", align 1
@.str.204 = private unnamed_addr constant [11 x i8] c"xsl:choose\00", align 1
@.str.205 = private unnamed_addr constant [12 x i8] c"xsl:comment\00", align 1
@.str.206 = private unnamed_addr constant [12 x i8] c"xsl:copy-of\00", align 1
@.str.207 = private unnamed_addr constant [9 x i8] c"xsl:copy\00", align 1
@.str.208 = private unnamed_addr constant [19 x i8] c"xsl:decimal-format\00", align 1
@.str.209 = private unnamed_addr constant [11 x i8] c"display-if\00", align 1
@.str.210 = private unnamed_addr constant [12 x i8] c"xsl:element\00", align 1
@.str.211 = private unnamed_addr constant [13 x i8] c"xsl:fallback\00", align 1
@.str.212 = private unnamed_addr constant [13 x i8] c"xsl:for-each\00", align 1
@.str.213 = private unnamed_addr constant [5 x i8] c"HTML\00", align 1
@.str.214 = private unnamed_addr constant [7 x i8] c"xsl:if\00", align 1
@.str.215 = private unnamed_addr constant [11 x i8] c"xsl:import\00", align 1
@.str.216 = private unnamed_addr constant [12 x i8] c"xsl:include\00", align 1
@.str.217 = private unnamed_addr constant [8 x i8] c"xsl:key\00", align 1
@.str.218 = private unnamed_addr constant [12 x i8] c"xsl:message\00", align 1
@.str.219 = private unnamed_addr constant [11 x i8] c"xsl:number\00", align 1
@.str.220 = private unnamed_addr constant [14 x i8] c"xsl:otherwise\00", align 1
@.str.221 = private unnamed_addr constant [10 x i8] c"xsl:param\00", align 1
@.str.222 = private unnamed_addr constant [27 x i8] c"xsl:processing-instruction\00", align 1
@.str.223 = private unnamed_addr constant [19 x i8] c"xsl:preserve-space\00", align 1
@.str.224 = private unnamed_addr constant [9 x i8] c"xsl:sort\00", align 1
@.str.225 = private unnamed_addr constant [16 x i8] c"xsl:strip-space\00", align 1
@.str.226 = private unnamed_addr constant [13 x i8] c"xsl:template\00", align 1
@.str.227 = private unnamed_addr constant [9 x i8] c"xsl:text\00", align 1
@.str.228 = private unnamed_addr constant [13 x i8] c"xsl:value-of\00", align 1
@.str.229 = private unnamed_addr constant [13 x i8] c"xsl:variable\00", align 1
@.str.230 = private unnamed_addr constant [9 x i8] c"xsl:when\00", align 1
@.str.231 = private unnamed_addr constant [15 x i8] c"xsl:with-param\00", align 1
@.str.232 = private unnamed_addr constant [7 x i8] c"node()\00", align 1
@llvm.global_ctors = appending global [1 x { i32, void ()*, i8* }] [{ i32, void ()*, i8* } { i32 65535, void ()* @_GLOBAL__sub_I_Constants.cpp, i8* null }]

; Function Attrs: noinline uwtable
define internal void @__cxx_global_var_init() #0 section ".text.startup" !dbg !2266 {
entry:
  %call = call dereferenceable(8) %"class.xercesc_2_7::MemoryManager"* @_ZN11xalanc_1_1012XalanMemMgrs14getDummyMemMgrEv(), !dbg !2267
  call void @_ZN11xalanc_1_1014XalanDOMStringC1ERN11xercesc_2_713MemoryManagerE(%"class.xalanc_1_10::XalanDOMString"* @_ZL18ATTRNAME_CASEORDER, %"class.xercesc_2_7::MemoryManager"* dereferenceable(8) %call), !dbg !2268
  %0 = call i32 @__cxa_atexit(void (i8*)* bitcast (void (%"class.xalanc_1_10::XalanDOMString"*)* @_ZN11xalanc_1_1014XalanDOMStringD2Ev to void (i8*)*), i8* bitcast (%"class.xalanc_1_10::XalanDOMString"* @_ZL18ATTRNAME_CASEORDER to i8*), i8* @__dso_handle) #3, !dbg !2268
  ret void, !dbg !2267
}

declare dso_local dereferenceable(8) %"class.xercesc_2_7::MemoryManager"* @_ZN11xalanc_1_1012XalanMemMgrs14getDummyMemMgrEv() #1

declare dso_local void @_ZN11xalanc_1_1014XalanDOMStringC1ERN11xercesc_2_713MemoryManagerE(%"class.xalanc_1_10::XalanDOMString"*, %"class.xercesc_2_7::MemoryManager"* dereferenceable(8)) unnamed_addr #1

; Function Attrs: noinline nounwind uwtable
define linkonce_odr dso_local void @_ZN11xalanc_1_1014XalanDOMStringD2Ev(%"class.xalanc_1_10::XalanDOMString"* %this) unnamed_addr #2 comdat align 2 !dbg !2269 {
entry:
  %this.addr = alloca %"class.xalanc_1_10::XalanDOMString"*, align 8
  store %"class.xalanc_1_10::XalanDOMString"* %this, %"class.xalanc_1_10::XalanDOMString"** %this.addr, align 8
  call void @llvm.dbg.declare(metadata %"class.xalanc_1_10::XalanDOMString"** %this.addr, metadata !2270, metadata !DIExpression()), !dbg !2271
  %this1 = load %"class.xalanc_1_10::XalanDOMString"*, %"class.xalanc_1_10::XalanDOMString"** %this.addr, align 8
  %m_data = getelementptr inbounds %"class.xalanc_1_10::XalanDOMString", %"class.xalanc_1_10::XalanDOMString"* %this1, i32 0, i32 0, !dbg !2272
  call void @_ZN11xalanc_1_1011XalanVectorItNS_31MemoryManagedConstructionTraitsItEEED2Ev(%"class.xalanc_1_10::XalanVector"* %m_data) #3, !dbg !2272
  ret void, !dbg !2274
}

; Function Attrs: nounwind
declare dso_local i32 @__cxa_atexit(void (i8*)*, i8*, i8*) #3

; Function Attrs: noinline uwtable
define internal void @__cxx_global_var_init.1() #0 section ".text.startup" !dbg !2275 {
entry:
  %call = call dereferenceable(8) %"class.xercesc_2_7::MemoryManager"* @_ZN11xalanc_1_1012XalanMemMgrs14getDummyMemMgrEv(), !dbg !2276
  call void @_ZN11xalanc_1_1014XalanDOMStringC1ERN11xercesc_2_713MemoryManagerE(%"class.xalanc_1_10::XalanDOMString"* @_ZL14ATTRNAME_COUNT, %"class.xercesc_2_7::MemoryManager"* dereferenceable(8) %call), !dbg !2277
  %0 = call i32 @__cxa_atexit(void (i8*)* bitcast (void (%"class.xalanc_1_10::XalanDOMString"*)* @_ZN11xalanc_1_1014XalanDOMStringD2Ev to void (i8*)*), i8* bitcast (%"class.xalanc_1_10::XalanDOMString"* @_ZL14ATTRNAME_COUNT to i8*), i8* @__dso_handle) #3, !dbg !2277
  ret void, !dbg !2276
}

; Function Attrs: noinline uwtable
define internal void @__cxx_global_var_init.2() #0 section ".text.startup" !dbg !2278 {
entry:
  %call = call dereferenceable(8) %"class.xercesc_2_7::MemoryManager"* @_ZN11xalanc_1_1012XalanMemMgrs14getDummyMemMgrEv(), !dbg !2279
  call void @_ZN11xalanc_1_1014XalanDOMStringC1ERN11xercesc_2_713MemoryManagerE(%"class.xalanc_1_10::XalanDOMString"* @_ZL17ATTRNAME_DATATYPE, %"class.xercesc_2_7::MemoryManager"* dereferenceable(8) %call), !dbg !2280
  %0 = call i32 @__cxa_atexit(void (i8*)* bitcast (void (%"class.xalanc_1_10::XalanDOMString"*)* @_ZN11xalanc_1_1014XalanDOMStringD2Ev to void (i8*)*), i8* bitcast (%"class.xalanc_1_10::XalanDOMString"* @_ZL17ATTRNAME_DATATYPE to i8*), i8* @__dso_handle) #3, !dbg !2280
  ret void, !dbg !2279
}

; Function Attrs: noinline uwtable
define internal void @__cxx_global_var_init.3() #0 section ".text.startup" !dbg !2281 {
entry:
  %call = call dereferenceable(8) %"class.xercesc_2_7::MemoryManager"* @_ZN11xalanc_1_1012XalanMemMgrs14getDummyMemMgrEv(), !dbg !2282
  call void @_ZN11xalanc_1_1014XalanDOMStringC1ERN11xercesc_2_713MemoryManagerE(%"class.xalanc_1_10::XalanDOMString"* @_ZL25ATTRNAME_DECIMALSEPARATOR, %"class.xercesc_2_7::MemoryManager"* dereferenceable(8) %call), !dbg !2283
  %0 = call i32 @__cxa_atexit(void (i8*)* bitcast (void (%"class.xalanc_1_10::XalanDOMString"*)* @_ZN11xalanc_1_1014XalanDOMStringD2Ev to void (i8*)*), i8* bitcast (%"class.xalanc_1_10::XalanDOMString"* @_ZL25ATTRNAME_DECIMALSEPARATOR to i8*), i8* @__dso_handle) #3, !dbg !2283
  ret void, !dbg !2282
}

; Function Attrs: noinline uwtable
define internal void @__cxx_global_var_init.4() #0 section ".text.startup" !dbg !2284 {
entry:
  %call = call dereferenceable(8) %"class.xercesc_2_7::MemoryManager"* @_ZN11xalanc_1_1012XalanMemMgrs14getDummyMemMgrEv(), !dbg !2285
  call void @_ZN11xalanc_1_1014XalanDOMStringC1ERN11xercesc_2_713MemoryManagerE(%"class.xalanc_1_10::XalanDOMString"* @_ZL16ATTRNAME_DEFAULT, %"class.xercesc_2_7::MemoryManager"* dereferenceable(8) %call), !dbg !2286
  %0 = call i32 @__cxa_atexit(void (i8*)* bitcast (void (%"class.xalanc_1_10::XalanDOMString"*)* @_ZN11xalanc_1_1014XalanDOMStringD2Ev to void (i8*)*), i8* bitcast (%"class.xalanc_1_10::XalanDOMString"* @_ZL16ATTRNAME_DEFAULT to i8*), i8* @__dso_handle) #3, !dbg !2286
  ret void, !dbg !2285
}

; Function Attrs: noinline uwtable
define internal void @__cxx_global_var_init.5() #0 section ".text.startup" !dbg !2287 {
entry:
  %call = call dereferenceable(8) %"class.xercesc_2_7::MemoryManager"* @_ZN11xalanc_1_1012XalanMemMgrs14getDummyMemMgrEv(), !dbg !2288
  call void @_ZN11xalanc_1_1014XalanDOMStringC1ERN11xercesc_2_713MemoryManagerE(%"class.xalanc_1_10::XalanDOMString"* @_ZL21ATTRNAME_DEFAULTSPACE, %"class.xercesc_2_7::MemoryManager"* dereferenceable(8) %call), !dbg !2289
  %0 = call i32 @__cxa_atexit(void (i8*)* bitcast (void (%"class.xalanc_1_10::XalanDOMString"*)* @_ZN11xalanc_1_1014XalanDOMStringD2Ev to void (i8*)*), i8* bitcast (%"class.xalanc_1_10::XalanDOMString"* @_ZL21ATTRNAME_DEFAULTSPACE to i8*), i8* @__dso_handle) #3, !dbg !2289
  ret void, !dbg !2288
}

; Function Attrs: noinline uwtable
define internal void @__cxx_global_var_init.6() #0 section ".text.startup" !dbg !2290 {
entry:
  %call = call dereferenceable(8) %"class.xercesc_2_7::MemoryManager"* @_ZN11xalanc_1_1012XalanMemMgrs14getDummyMemMgrEv(), !dbg !2291
  call void @_ZN11xalanc_1_1014XalanDOMStringC1ERN11xercesc_2_713MemoryManagerE(%"class.xalanc_1_10::XalanDOMString"* @_ZL14ATTRNAME_DIGIT, %"class.xercesc_2_7::MemoryManager"* dereferenceable(8) %call), !dbg !2292
  %0 = call i32 @__cxa_atexit(void (i8*)* bitcast (void (%"class.xalanc_1_10::XalanDOMString"*)* @_ZN11xalanc_1_1014XalanDOMStringD2Ev to void (i8*)*), i8* bitcast (%"class.xalanc_1_10::XalanDOMString"* @_ZL14ATTRNAME_DIGIT to i8*), i8* @__dso_handle) #3, !dbg !2292
  ret void, !dbg !2291
}

; Function Attrs: noinline uwtable
define internal void @__cxx_global_var_init.7() #0 section ".text.startup" !dbg !2293 {
entry:
  %call = call dereferenceable(8) %"class.xercesc_2_7::MemoryManager"* @_ZN11xalanc_1_1012XalanMemMgrs14getDummyMemMgrEv(), !dbg !2294
  call void @_ZN11xalanc_1_1014XalanDOMStringC1ERN11xercesc_2_713MemoryManagerE(%"class.xalanc_1_10::XalanDOMString"* @_ZL22ATTRNAME_DIGITGROUPSEP, %"class.xercesc_2_7::MemoryManager"* dereferenceable(8) %call), !dbg !2295
  %0 = call i32 @__cxa_atexit(void (i8*)* bitcast (void (%"class.xalanc_1_10::XalanDOMString"*)* @_ZN11xalanc_1_1014XalanDOMStringD2Ev to void (i8*)*), i8* bitcast (%"class.xalanc_1_10::XalanDOMString"* @_ZL22ATTRNAME_DIGITGROUPSEP to i8*), i8* @__dso_handle) #3, !dbg !2295
  ret void, !dbg !2294
}

; Function Attrs: noinline uwtable
define internal void @__cxx_global_var_init.8() #0 section ".text.startup" !dbg !2296 {
entry:
  %call = call dereferenceable(8) %"class.xercesc_2_7::MemoryManager"* @_ZN11xalanc_1_1012XalanMemMgrs14getDummyMemMgrEv(), !dbg !2297
  call void @_ZN11xalanc_1_1014XalanDOMStringC1ERN11xercesc_2_713MemoryManagerE(%"class.xalanc_1_10::XalanDOMString"* @_ZL32ATTRNAME_DISABLE_OUTPUT_ESCAPING, %"class.xercesc_2_7::MemoryManager"* dereferenceable(8) %call), !dbg !2298
  %0 = call i32 @__cxa_atexit(void (i8*)* bitcast (void (%"class.xalanc_1_10::XalanDOMString"*)* @_ZN11xalanc_1_1014XalanDOMStringD2Ev to void (i8*)*), i8* bitcast (%"class.xalanc_1_10::XalanDOMString"* @_ZL32ATTRNAME_DISABLE_OUTPUT_ESCAPING to i8*), i8* @__dso_handle) #3, !dbg !2298
  ret void, !dbg !2297
}

; Function Attrs: noinline uwtable
define internal void @__cxx_global_var_init.9() #0 section ".text.startup" !dbg !2299 {
entry:
  %call = call dereferenceable(8) %"class.xercesc_2_7::MemoryManager"* @_ZN11xalanc_1_1012XalanMemMgrs14getDummyMemMgrEv(), !dbg !2300
  call void @_ZN11xalanc_1_1014XalanDOMStringC1ERN11xercesc_2_713MemoryManagerE(%"class.xalanc_1_10::XalanDOMString"* @_ZL17ATTRNAME_ELEMENTS, %"class.xercesc_2_7::MemoryManager"* dereferenceable(8) %call), !dbg !2301
  %0 = call i32 @__cxa_atexit(void (i8*)* bitcast (void (%"class.xalanc_1_10::XalanDOMString"*)* @_ZN11xalanc_1_1014XalanDOMStringD2Ev to void (i8*)*), i8* bitcast (%"class.xalanc_1_10::XalanDOMString"* @_ZL17ATTRNAME_ELEMENTS to i8*), i8* @__dso_handle) #3, !dbg !2301
  ret void, !dbg !2300
}

; Function Attrs: noinline uwtable
define internal void @__cxx_global_var_init.10() #0 section ".text.startup" !dbg !2302 {
entry:
  %call = call dereferenceable(8) %"class.xercesc_2_7::MemoryManager"* @_ZN11xalanc_1_1012XalanMemMgrs14getDummyMemMgrEv(), !dbg !2303
  call void @_ZN11xalanc_1_1014XalanDOMStringC1ERN11xercesc_2_713MemoryManagerE(%"class.xalanc_1_10::XalanDOMString"* @_ZL32ATTRNAME_EXCLUDE_RESULT_PREFIXES, %"class.xercesc_2_7::MemoryManager"* dereferenceable(8) %call), !dbg !2304
  %0 = call i32 @__cxa_atexit(void (i8*)* bitcast (void (%"class.xalanc_1_10::XalanDOMString"*)* @_ZN11xalanc_1_1014XalanDOMStringD2Ev to void (i8*)*), i8* bitcast (%"class.xalanc_1_10::XalanDOMString"* @_ZL32ATTRNAME_EXCLUDE_RESULT_PREFIXES to i8*), i8* @__dso_handle) #3, !dbg !2304
  ret void, !dbg !2303
}

; Function Attrs: noinline uwtable
define internal void @__cxx_global_var_init.11() #0 section ".text.startup" !dbg !2305 {
entry:
  %call = call dereferenceable(8) %"class.xercesc_2_7::MemoryManager"* @_ZN11xalanc_1_1012XalanMemMgrs14getDummyMemMgrEv(), !dbg !2306
  call void @_ZN11xalanc_1_1014XalanDOMStringC1ERN11xercesc_2_713MemoryManagerE(%"class.xalanc_1_10::XalanDOMString"* @_ZL33ATTRNAME_EXTENSIONELEMENTPREFIXES, %"class.xercesc_2_7::MemoryManager"* dereferenceable(8) %call), !dbg !2307
  %0 = call i32 @__cxa_atexit(void (i8*)* bitcast (void (%"class.xalanc_1_10::XalanDOMString"*)* @_ZN11xalanc_1_1014XalanDOMStringD2Ev to void (i8*)*), i8* bitcast (%"class.xalanc_1_10::XalanDOMString"* @_ZL33ATTRNAME_EXTENSIONELEMENTPREFIXES to i8*), i8* @__dso_handle) #3, !dbg !2307
  ret void, !dbg !2306
}

; Function Attrs: noinline uwtable
define internal void @__cxx_global_var_init.12() #0 section ".text.startup" !dbg !2308 {
entry:
  %call = call dereferenceable(8) %"class.xercesc_2_7::MemoryManager"* @_ZN11xalanc_1_1012XalanMemMgrs14getDummyMemMgrEv(), !dbg !2309
  call void @_ZN11xalanc_1_1014XalanDOMStringC1ERN11xercesc_2_713MemoryManagerE(%"class.xalanc_1_10::XalanDOMString"* @_ZL20ATTRNAME_ESCAPE_URLS, %"class.xercesc_2_7::MemoryManager"* dereferenceable(8) %call), !dbg !2310
  %0 = call i32 @__cxa_atexit(void (i8*)* bitcast (void (%"class.xalanc_1_10::XalanDOMString"*)* @_ZN11xalanc_1_1014XalanDOMStringD2Ev to void (i8*)*), i8* bitcast (%"class.xalanc_1_10::XalanDOMString"* @_ZL20ATTRNAME_ESCAPE_URLS to i8*), i8* @__dso_handle) #3, !dbg !2310
  ret void, !dbg !2309
}

; Function Attrs: noinline uwtable
define internal void @__cxx_global_var_init.13() #0 section ".text.startup" !dbg !2311 {
entry:
  %call = call dereferenceable(8) %"class.xercesc_2_7::MemoryManager"* @_ZN11xalanc_1_1012XalanMemMgrs14getDummyMemMgrEv(), !dbg !2312
  call void @_ZN11xalanc_1_1014XalanDOMStringC1ERN11xercesc_2_713MemoryManagerE(%"class.xalanc_1_10::XalanDOMString"* @_ZL15ATTRNAME_FORMAT, %"class.xercesc_2_7::MemoryManager"* dereferenceable(8) %call), !dbg !2313
  %0 = call i32 @__cxa_atexit(void (i8*)* bitcast (void (%"class.xalanc_1_10::XalanDOMString"*)* @_ZN11xalanc_1_1014XalanDOMStringD2Ev to void (i8*)*), i8* bitcast (%"class.xalanc_1_10::XalanDOMString"* @_ZL15ATTRNAME_FORMAT to i8*), i8* @__dso_handle) #3, !dbg !2313
  ret void, !dbg !2312
}

; Function Attrs: noinline uwtable
define internal void @__cxx_global_var_init.14() #0 section ".text.startup" !dbg !2314 {
entry:
  %call = call dereferenceable(8) %"class.xercesc_2_7::MemoryManager"* @_ZN11xalanc_1_1012XalanMemMgrs14getDummyMemMgrEv(), !dbg !2315
  call void @_ZN11xalanc_1_1014XalanDOMStringC1ERN11xercesc_2_713MemoryManagerE(%"class.xalanc_1_10::XalanDOMString"* @_ZL13ATTRNAME_FROM, %"class.xercesc_2_7::MemoryManager"* dereferenceable(8) %call), !dbg !2316
  %0 = call i32 @__cxa_atexit(void (i8*)* bitcast (void (%"class.xalanc_1_10::XalanDOMString"*)* @_ZN11xalanc_1_1014XalanDOMStringD2Ev to void (i8*)*), i8* bitcast (%"class.xalanc_1_10::XalanDOMString"* @_ZL13ATTRNAME_FROM to i8*), i8* @__dso_handle) #3, !dbg !2316
  ret void, !dbg !2315
}

; Function Attrs: noinline uwtable
define internal void @__cxx_global_var_init.15() #0 section ".text.startup" !dbg !2317 {
entry:
  %call = call dereferenceable(8) %"class.xercesc_2_7::MemoryManager"* @_ZN11xalanc_1_1012XalanMemMgrs14getDummyMemMgrEv(), !dbg !2318
  call void @_ZN11xalanc_1_1014XalanDOMStringC1ERN11xercesc_2_713MemoryManagerE(%"class.xalanc_1_10::XalanDOMString"* @_ZL26ATTRNAME_GROUPINGSEPARATOR, %"class.xercesc_2_7::MemoryManager"* dereferenceable(8) %call), !dbg !2319
  %0 = call i32 @__cxa_atexit(void (i8*)* bitcast (void (%"class.xalanc_1_10::XalanDOMString"*)* @_ZN11xalanc_1_1014XalanDOMStringD2Ev to void (i8*)*), i8* bitcast (%"class.xalanc_1_10::XalanDOMString"* @_ZL26ATTRNAME_GROUPINGSEPARATOR to i8*), i8* @__dso_handle) #3, !dbg !2319
  ret void, !dbg !2318
}

; Function Attrs: noinline uwtable
define internal void @__cxx_global_var_init.16() #0 section ".text.startup" !dbg !2320 {
entry:
  %call = call dereferenceable(8) %"class.xercesc_2_7::MemoryManager"* @_ZN11xalanc_1_1012XalanMemMgrs14getDummyMemMgrEv(), !dbg !2321
  call void @_ZN11xalanc_1_1014XalanDOMStringC1ERN11xercesc_2_713MemoryManagerE(%"class.xalanc_1_10::XalanDOMString"* @_ZL21ATTRNAME_GROUPINGSIZE, %"class.xercesc_2_7::MemoryManager"* dereferenceable(8) %call), !dbg !2322
  %0 = call i32 @__cxa_atexit(void (i8*)* bitcast (void (%"class.xalanc_1_10::XalanDOMString"*)* @_ZN11xalanc_1_1014XalanDOMStringD2Ev to void (i8*)*), i8* bitcast (%"class.xalanc_1_10::XalanDOMString"* @_ZL21ATTRNAME_GROUPINGSIZE to i8*), i8* @__dso_handle) #3, !dbg !2322
  ret void, !dbg !2321
}

; Function Attrs: noinline uwtable
define internal void @__cxx_global_var_init.17() #0 section ".text.startup" !dbg !2323 {
entry:
  %call = call dereferenceable(8) %"class.xercesc_2_7::MemoryManager"* @_ZN11xalanc_1_1012XalanMemMgrs14getDummyMemMgrEv(), !dbg !2324
  call void @_ZN11xalanc_1_1014XalanDOMStringC1ERN11xercesc_2_713MemoryManagerE(%"class.xalanc_1_10::XalanDOMString"* @_ZL13ATTRNAME_HREF, %"class.xercesc_2_7::MemoryManager"* dereferenceable(8) %call), !dbg !2325
  %0 = call i32 @__cxa_atexit(void (i8*)* bitcast (void (%"class.xalanc_1_10::XalanDOMString"*)* @_ZN11xalanc_1_1014XalanDOMStringD2Ev to void (i8*)*), i8* bitcast (%"class.xalanc_1_10::XalanDOMString"* @_ZL13ATTRNAME_HREF to i8*), i8* @__dso_handle) #3, !dbg !2325
  ret void, !dbg !2324
}

; Function Attrs: noinline uwtable
define internal void @__cxx_global_var_init.18() #0 section ".text.startup" !dbg !2326 {
entry:
  %call = call dereferenceable(8) %"class.xercesc_2_7::MemoryManager"* @_ZN11xalanc_1_1012XalanMemMgrs14getDummyMemMgrEv(), !dbg !2327
  call void @_ZN11xalanc_1_1014XalanDOMStringC1ERN11xercesc_2_713MemoryManagerE(%"class.xalanc_1_10::XalanDOMString"* @_ZL11ATTRNAME_ID, %"class.xercesc_2_7::MemoryManager"* dereferenceable(8) %call), !dbg !2328
  %0 = call i32 @__cxa_atexit(void (i8*)* bitcast (void (%"class.xalanc_1_10::XalanDOMString"*)* @_ZN11xalanc_1_1014XalanDOMStringD2Ev to void (i8*)*), i8* bitcast (%"class.xalanc_1_10::XalanDOMString"* @_ZL11ATTRNAME_ID to i8*), i8* @__dso_handle) #3, !dbg !2328
  ret void, !dbg !2327
}

; Function Attrs: noinline uwtable
define internal void @__cxx_global_var_init.19() #0 section ".text.startup" !dbg !2329 {
entry:
  %call = call dereferenceable(8) %"class.xercesc_2_7::MemoryManager"* @_ZN11xalanc_1_1012XalanMemMgrs14getDummyMemMgrEv(), !dbg !2330
  call void @_ZN11xalanc_1_1014XalanDOMStringC1ERN11xercesc_2_713MemoryManagerE(%"class.xalanc_1_10::XalanDOMString"* @_ZL21ATTRNAME_INDENTAMOUNT, %"class.xercesc_2_7::MemoryManager"* dereferenceable(8) %call), !dbg !2331
  %0 = call i32 @__cxa_atexit(void (i8*)* bitcast (void (%"class.xalanc_1_10::XalanDOMString"*)* @_ZN11xalanc_1_1014XalanDOMStringD2Ev to void (i8*)*), i8* bitcast (%"class.xalanc_1_10::XalanDOMString"* @_ZL21ATTRNAME_INDENTAMOUNT to i8*), i8* @__dso_handle) #3, !dbg !2331
  ret void, !dbg !2330
}

; Function Attrs: noinline uwtable
define internal void @__cxx_global_var_init.20() #0 section ".text.startup" !dbg !2332 {
entry:
  %call = call dereferenceable(8) %"class.xercesc_2_7::MemoryManager"* @_ZN11xalanc_1_1012XalanMemMgrs14getDummyMemMgrEv(), !dbg !2333
  call void @_ZN11xalanc_1_1014XalanDOMStringC1ERN11xercesc_2_713MemoryManagerE(%"class.xalanc_1_10::XalanDOMString"* @_ZL21ATTRNAME_INDENTRESULT, %"class.xercesc_2_7::MemoryManager"* dereferenceable(8) %call), !dbg !2334
  %0 = call i32 @__cxa_atexit(void (i8*)* bitcast (void (%"class.xalanc_1_10::XalanDOMString"*)* @_ZN11xalanc_1_1014XalanDOMStringD2Ev to void (i8*)*), i8* bitcast (%"class.xalanc_1_10::XalanDOMString"* @_ZL21ATTRNAME_INDENTRESULT to i8*), i8* @__dso_handle) #3, !dbg !2334
  ret void, !dbg !2333
}

; Function Attrs: noinline uwtable
define internal void @__cxx_global_var_init.21() #0 section ".text.startup" !dbg !2335 {
entry:
  %call = call dereferenceable(8) %"class.xercesc_2_7::MemoryManager"* @_ZN11xalanc_1_1012XalanMemMgrs14getDummyMemMgrEv(), !dbg !2336
  call void @_ZN11xalanc_1_1014XalanDOMStringC1ERN11xercesc_2_713MemoryManagerE(%"class.xalanc_1_10::XalanDOMString"* @_ZL17ATTRNAME_INFINITY, %"class.xercesc_2_7::MemoryManager"* dereferenceable(8) %call), !dbg !2337
  %0 = call i32 @__cxa_atexit(void (i8*)* bitcast (void (%"class.xalanc_1_10::XalanDOMString"*)* @_ZN11xalanc_1_1014XalanDOMStringD2Ev to void (i8*)*), i8* bitcast (%"class.xalanc_1_10::XalanDOMString"* @_ZL17ATTRNAME_INFINITY to i8*), i8* @__dso_handle) #3, !dbg !2337
  ret void, !dbg !2336
}

; Function Attrs: noinline uwtable
define internal void @__cxx_global_var_init.22() #0 section ".text.startup" !dbg !2338 {
entry:
  %call = call dereferenceable(8) %"class.xercesc_2_7::MemoryManager"* @_ZN11xalanc_1_1012XalanMemMgrs14getDummyMemMgrEv(), !dbg !2339
  call void @_ZN11xalanc_1_1014XalanDOMStringC1ERN11xercesc_2_713MemoryManagerE(%"class.xalanc_1_10::XalanDOMString"* @_ZL13ATTRNAME_LANG, %"class.xercesc_2_7::MemoryManager"* dereferenceable(8) %call), !dbg !2340
  %0 = call i32 @__cxa_atexit(void (i8*)* bitcast (void (%"class.xalanc_1_10::XalanDOMString"*)* @_ZN11xalanc_1_1014XalanDOMStringD2Ev to void (i8*)*), i8* bitcast (%"class.xalanc_1_10::XalanDOMString"* @_ZL13ATTRNAME_LANG to i8*), i8* @__dso_handle) #3, !dbg !2340
  ret void, !dbg !2339
}

; Function Attrs: noinline uwtable
define internal void @__cxx_global_var_init.23() #0 section ".text.startup" !dbg !2341 {
entry:
  %call = call dereferenceable(8) %"class.xercesc_2_7::MemoryManager"* @_ZN11xalanc_1_1012XalanMemMgrs14getDummyMemMgrEv(), !dbg !2342
  call void @_ZN11xalanc_1_1014XalanDOMStringC1ERN11xercesc_2_713MemoryManagerE(%"class.xalanc_1_10::XalanDOMString"* @_ZL20ATTRNAME_LETTERVALUE, %"class.xercesc_2_7::MemoryManager"* dereferenceable(8) %call), !dbg !2343
  %0 = call i32 @__cxa_atexit(void (i8*)* bitcast (void (%"class.xalanc_1_10::XalanDOMString"*)* @_ZN11xalanc_1_1014XalanDOMStringD2Ev to void (i8*)*), i8* bitcast (%"class.xalanc_1_10::XalanDOMString"* @_ZL20ATTRNAME_LETTERVALUE to i8*), i8* @__dso_handle) #3, !dbg !2343
  ret void, !dbg !2342
}

; Function Attrs: noinline uwtable
define internal void @__cxx_global_var_init.24() #0 section ".text.startup" !dbg !2344 {
entry:
  %call = call dereferenceable(8) %"class.xercesc_2_7::MemoryManager"* @_ZN11xalanc_1_1012XalanMemMgrs14getDummyMemMgrEv(), !dbg !2345
  call void @_ZN11xalanc_1_1014XalanDOMStringC1ERN11xercesc_2_713MemoryManagerE(%"class.xalanc_1_10::XalanDOMString"* @_ZL14ATTRNAME_MATCH, %"class.xercesc_2_7::MemoryManager"* dereferenceable(8) %call), !dbg !2346
  %0 = call i32 @__cxa_atexit(void (i8*)* bitcast (void (%"class.xalanc_1_10::XalanDOMString"*)* @_ZN11xalanc_1_1014XalanDOMStringD2Ev to void (i8*)*), i8* bitcast (%"class.xalanc_1_10::XalanDOMString"* @_ZL14ATTRNAME_MATCH to i8*), i8* @__dso_handle) #3, !dbg !2346
  ret void, !dbg !2345
}

; Function Attrs: noinline uwtable
define internal void @__cxx_global_var_init.25() #0 section ".text.startup" !dbg !2347 {
entry:
  %call = call dereferenceable(8) %"class.xercesc_2_7::MemoryManager"* @_ZN11xalanc_1_1012XalanMemMgrs14getDummyMemMgrEv(), !dbg !2348
  call void @_ZN11xalanc_1_1014XalanDOMStringC1ERN11xercesc_2_713MemoryManagerE(%"class.xalanc_1_10::XalanDOMString"* @_ZL18ATTRNAME_MINUSSIGN, %"class.xercesc_2_7::MemoryManager"* dereferenceable(8) %call), !dbg !2349
  %0 = call i32 @__cxa_atexit(void (i8*)* bitcast (void (%"class.xalanc_1_10::XalanDOMString"*)* @_ZN11xalanc_1_1014XalanDOMStringD2Ev to void (i8*)*), i8* bitcast (%"class.xalanc_1_10::XalanDOMString"* @_ZL18ATTRNAME_MINUSSIGN to i8*), i8* @__dso_handle) #3, !dbg !2349
  ret void, !dbg !2348
}

; Function Attrs: noinline uwtable
define internal void @__cxx_global_var_init.26() #0 section ".text.startup" !dbg !2350 {
entry:
  %call = call dereferenceable(8) %"class.xercesc_2_7::MemoryManager"* @_ZN11xalanc_1_1012XalanMemMgrs14getDummyMemMgrEv(), !dbg !2351
  call void @_ZN11xalanc_1_1014XalanDOMStringC1ERN11xercesc_2_713MemoryManagerE(%"class.xalanc_1_10::XalanDOMString"* @_ZL13ATTRNAME_MODE, %"class.xercesc_2_7::MemoryManager"* dereferenceable(8) %call), !dbg !2352
  %0 = call i32 @__cxa_atexit(void (i8*)* bitcast (void (%"class.xalanc_1_10::XalanDOMString"*)* @_ZN11xalanc_1_1014XalanDOMStringD2Ev to void (i8*)*), i8* bitcast (%"class.xalanc_1_10::XalanDOMString"* @_ZL13ATTRNAME_MODE to i8*), i8* @__dso_handle) #3, !dbg !2352
  ret void, !dbg !2351
}

; Function Attrs: noinline uwtable
define internal void @__cxx_global_var_init.27() #0 section ".text.startup" !dbg !2353 {
entry:
  %call = call dereferenceable(8) %"class.xercesc_2_7::MemoryManager"* @_ZN11xalanc_1_1012XalanMemMgrs14getDummyMemMgrEv(), !dbg !2354
  call void @_ZN11xalanc_1_1014XalanDOMStringC1ERN11xercesc_2_713MemoryManagerE(%"class.xalanc_1_10::XalanDOMString"* @_ZL13ATTRNAME_NAME, %"class.xercesc_2_7::MemoryManager"* dereferenceable(8) %call), !dbg !2355
  %0 = call i32 @__cxa_atexit(void (i8*)* bitcast (void (%"class.xalanc_1_10::XalanDOMString"*)* @_ZN11xalanc_1_1014XalanDOMStringD2Ev to void (i8*)*), i8* bitcast (%"class.xalanc_1_10::XalanDOMString"* @_ZL13ATTRNAME_NAME to i8*), i8* @__dso_handle) #3, !dbg !2355
  ret void, !dbg !2354
}

; Function Attrs: noinline uwtable
define internal void @__cxx_global_var_init.28() #0 section ".text.startup" !dbg !2356 {
entry:
  %call = call dereferenceable(8) %"class.xercesc_2_7::MemoryManager"* @_ZN11xalanc_1_1012XalanMemMgrs14getDummyMemMgrEv(), !dbg !2357
  call void @_ZN11xalanc_1_1014XalanDOMStringC1ERN11xercesc_2_713MemoryManagerE(%"class.xalanc_1_10::XalanDOMString"* @_ZL18ATTRNAME_NAMESPACE, %"class.xercesc_2_7::MemoryManager"* dereferenceable(8) %call), !dbg !2358
  %0 = call i32 @__cxa_atexit(void (i8*)* bitcast (void (%"class.xalanc_1_10::XalanDOMString"*)* @_ZN11xalanc_1_1014XalanDOMStringD2Ev to void (i8*)*), i8* bitcast (%"class.xalanc_1_10::XalanDOMString"* @_ZL18ATTRNAME_NAMESPACE to i8*), i8* @__dso_handle) #3, !dbg !2358
  ret void, !dbg !2357
}

; Function Attrs: noinline uwtable
define internal void @__cxx_global_var_init.29() #0 section ".text.startup" !dbg !2359 {
entry:
  %call = call dereferenceable(8) %"class.xercesc_2_7::MemoryManager"* @_ZN11xalanc_1_1012XalanMemMgrs14getDummyMemMgrEv(), !dbg !2360
  call void @_ZN11xalanc_1_1014XalanDOMStringC1ERN11xercesc_2_713MemoryManagerE(%"class.xalanc_1_10::XalanDOMString"* @_ZL12ATTRNAME_NAN, %"class.xercesc_2_7::MemoryManager"* dereferenceable(8) %call), !dbg !2361
  %0 = call i32 @__cxa_atexit(void (i8*)* bitcast (void (%"class.xalanc_1_10::XalanDOMString"*)* @_ZN11xalanc_1_1014XalanDOMStringD2Ev to void (i8*)*), i8* bitcast (%"class.xalanc_1_10::XalanDOMString"* @_ZL12ATTRNAME_NAN to i8*), i8* @__dso_handle) #3, !dbg !2361
  ret void, !dbg !2360
}

; Function Attrs: noinline uwtable
define internal void @__cxx_global_var_init.30() #0 section ".text.startup" !dbg !2362 {
entry:
  %call = call dereferenceable(8) %"class.xercesc_2_7::MemoryManager"* @_ZN11xalanc_1_1012XalanMemMgrs14getDummyMemMgrEv(), !dbg !2363
  call void @_ZN11xalanc_1_1014XalanDOMStringC1ERN11xercesc_2_713MemoryManagerE(%"class.xalanc_1_10::XalanDOMString"* @_ZL24ATTRNAME_NDIGITSPERGROUP, %"class.xercesc_2_7::MemoryManager"* dereferenceable(8) %call), !dbg !2364
  %0 = call i32 @__cxa_atexit(void (i8*)* bitcast (void (%"class.xalanc_1_10::XalanDOMString"*)* @_ZN11xalanc_1_1014XalanDOMStringD2Ev to void (i8*)*), i8* bitcast (%"class.xalanc_1_10::XalanDOMString"* @_ZL24ATTRNAME_NDIGITSPERGROUP to i8*), i8* @__dso_handle) #3, !dbg !2364
  ret void, !dbg !2363
}

; Function Attrs: noinline uwtable
define internal void @__cxx_global_var_init.31() #0 section ".text.startup" !dbg !2365 {
entry:
  %call = call dereferenceable(8) %"class.xercesc_2_7::MemoryManager"* @_ZN11xalanc_1_1012XalanMemMgrs14getDummyMemMgrEv(), !dbg !2366
  call void @_ZN11xalanc_1_1014XalanDOMStringC1ERN11xercesc_2_713MemoryManagerE(%"class.xalanc_1_10::XalanDOMString"* @_ZL22ATTRNAME_OMIT_META_TAG, %"class.xercesc_2_7::MemoryManager"* dereferenceable(8) %call), !dbg !2367
  %0 = call i32 @__cxa_atexit(void (i8*)* bitcast (void (%"class.xalanc_1_10::XalanDOMString"*)* @_ZN11xalanc_1_1014XalanDOMStringD2Ev to void (i8*)*), i8* bitcast (%"class.xalanc_1_10::XalanDOMString"* @_ZL22ATTRNAME_OMIT_META_TAG to i8*), i8* @__dso_handle) #3, !dbg !2367
  ret void, !dbg !2366
}

; Function Attrs: noinline uwtable
define internal void @__cxx_global_var_init.32() #0 section ".text.startup" !dbg !2368 {
entry:
  %call = call dereferenceable(8) %"class.xercesc_2_7::MemoryManager"* @_ZN11xalanc_1_1012XalanMemMgrs14getDummyMemMgrEv(), !dbg !2369
  call void @_ZN11xalanc_1_1014XalanDOMStringC1ERN11xercesc_2_713MemoryManagerE(%"class.xalanc_1_10::XalanDOMString"* @_ZL14ATTRNAME_ORDER, %"class.xercesc_2_7::MemoryManager"* dereferenceable(8) %call), !dbg !2370
  %0 = call i32 @__cxa_atexit(void (i8*)* bitcast (void (%"class.xalanc_1_10::XalanDOMString"*)* @_ZN11xalanc_1_1014XalanDOMStringD2Ev to void (i8*)*), i8* bitcast (%"class.xalanc_1_10::XalanDOMString"* @_ZL14ATTRNAME_ORDER to i8*), i8* @__dso_handle) #3, !dbg !2370
  ret void, !dbg !2369
}

; Function Attrs: noinline uwtable
define internal void @__cxx_global_var_init.33() #0 section ".text.startup" !dbg !2371 {
entry:
  %call = call dereferenceable(8) %"class.xercesc_2_7::MemoryManager"* @_ZN11xalanc_1_1012XalanMemMgrs14getDummyMemMgrEv(), !dbg !2372
  call void @_ZN11xalanc_1_1014XalanDOMStringC1ERN11xercesc_2_713MemoryManagerE(%"class.xalanc_1_10::XalanDOMString"* @_ZL38ATTRNAME_OUTPUT_CDATA_SECTION_ELEMENTS, %"class.xercesc_2_7::MemoryManager"* dereferenceable(8) %call), !dbg !2373
  %0 = call i32 @__cxa_atexit(void (i8*)* bitcast (void (%"class.xalanc_1_10::XalanDOMString"*)* @_ZN11xalanc_1_1014XalanDOMStringD2Ev to void (i8*)*), i8* bitcast (%"class.xalanc_1_10::XalanDOMString"* @_ZL38ATTRNAME_OUTPUT_CDATA_SECTION_ELEMENTS to i8*), i8* @__dso_handle) #3, !dbg !2373
  ret void, !dbg !2372
}

; Function Attrs: noinline uwtable
define internal void @__cxx_global_var_init.34() #0 section ".text.startup" !dbg !2374 {
entry:
  %call = call dereferenceable(8) %"class.xercesc_2_7::MemoryManager"* @_ZN11xalanc_1_1012XalanMemMgrs14getDummyMemMgrEv(), !dbg !2375
  call void @_ZN11xalanc_1_1014XalanDOMStringC1ERN11xercesc_2_713MemoryManagerE(%"class.xalanc_1_10::XalanDOMString"* @_ZL30ATTRNAME_OUTPUT_DOCTYPE_PUBLIC, %"class.xercesc_2_7::MemoryManager"* dereferenceable(8) %call), !dbg !2376
  %0 = call i32 @__cxa_atexit(void (i8*)* bitcast (void (%"class.xalanc_1_10::XalanDOMString"*)* @_ZN11xalanc_1_1014XalanDOMStringD2Ev to void (i8*)*), i8* bitcast (%"class.xalanc_1_10::XalanDOMString"* @_ZL30ATTRNAME_OUTPUT_DOCTYPE_PUBLIC to i8*), i8* @__dso_handle) #3, !dbg !2376
  ret void, !dbg !2375
}

; Function Attrs: noinline uwtable
define internal void @__cxx_global_var_init.35() #0 section ".text.startup" !dbg !2377 {
entry:
  %call = call dereferenceable(8) %"class.xercesc_2_7::MemoryManager"* @_ZN11xalanc_1_1012XalanMemMgrs14getDummyMemMgrEv(), !dbg !2378
  call void @_ZN11xalanc_1_1014XalanDOMStringC1ERN11xercesc_2_713MemoryManagerE(%"class.xalanc_1_10::XalanDOMString"* @_ZL30ATTRNAME_OUTPUT_DOCTYPE_SYSTEM, %"class.xercesc_2_7::MemoryManager"* dereferenceable(8) %call), !dbg !2379
  %0 = call i32 @__cxa_atexit(void (i8*)* bitcast (void (%"class.xalanc_1_10::XalanDOMString"*)* @_ZN11xalanc_1_1014XalanDOMStringD2Ev to void (i8*)*), i8* bitcast (%"class.xalanc_1_10::XalanDOMString"* @_ZL30ATTRNAME_OUTPUT_DOCTYPE_SYSTEM to i8*), i8* @__dso_handle) #3, !dbg !2379
  ret void, !dbg !2378
}

; Function Attrs: noinline uwtable
define internal void @__cxx_global_var_init.36() #0 section ".text.startup" !dbg !2380 {
entry:
  %call = call dereferenceable(8) %"class.xercesc_2_7::MemoryManager"* @_ZN11xalanc_1_1012XalanMemMgrs14getDummyMemMgrEv(), !dbg !2381
  call void @_ZN11xalanc_1_1014XalanDOMStringC1ERN11xercesc_2_713MemoryManagerE(%"class.xalanc_1_10::XalanDOMString"* @_ZL24ATTRNAME_OUTPUT_ENCODING, %"class.xercesc_2_7::MemoryManager"* dereferenceable(8) %call), !dbg !2382
  %0 = call i32 @__cxa_atexit(void (i8*)* bitcast (void (%"class.xalanc_1_10::XalanDOMString"*)* @_ZN11xalanc_1_1014XalanDOMStringD2Ev to void (i8*)*), i8* bitcast (%"class.xalanc_1_10::XalanDOMString"* @_ZL24ATTRNAME_OUTPUT_ENCODING to i8*), i8* @__dso_handle) #3, !dbg !2382
  ret void, !dbg !2381
}

; Function Attrs: noinline uwtable
define internal void @__cxx_global_var_init.37() #0 section ".text.startup" !dbg !2383 {
entry:
  %call = call dereferenceable(8) %"class.xercesc_2_7::MemoryManager"* @_ZN11xalanc_1_1012XalanMemMgrs14getDummyMemMgrEv(), !dbg !2384
  call void @_ZN11xalanc_1_1014XalanDOMStringC1ERN11xercesc_2_713MemoryManagerE(%"class.xalanc_1_10::XalanDOMString"* @_ZL22ATTRNAME_OUTPUT_INDENT, %"class.xercesc_2_7::MemoryManager"* dereferenceable(8) %call), !dbg !2385
  %0 = call i32 @__cxa_atexit(void (i8*)* bitcast (void (%"class.xalanc_1_10::XalanDOMString"*)* @_ZN11xalanc_1_1014XalanDOMStringD2Ev to void (i8*)*), i8* bitcast (%"class.xalanc_1_10::XalanDOMString"* @_ZL22ATTRNAME_OUTPUT_INDENT to i8*), i8* @__dso_handle) #3, !dbg !2385
  ret void, !dbg !2384
}

; Function Attrs: noinline uwtable
define internal void @__cxx_global_var_init.38() #0 section ".text.startup" !dbg !2386 {
entry:
  %call = call dereferenceable(8) %"class.xercesc_2_7::MemoryManager"* @_ZN11xalanc_1_1012XalanMemMgrs14getDummyMemMgrEv(), !dbg !2387
  call void @_ZN11xalanc_1_1014XalanDOMStringC1ERN11xercesc_2_713MemoryManagerE(%"class.xalanc_1_10::XalanDOMString"* @_ZL25ATTRNAME_OUTPUT_MEDIATYPE, %"class.xercesc_2_7::MemoryManager"* dereferenceable(8) %call), !dbg !2388
  %0 = call i32 @__cxa_atexit(void (i8*)* bitcast (void (%"class.xalanc_1_10::XalanDOMString"*)* @_ZN11xalanc_1_1014XalanDOMStringD2Ev to void (i8*)*), i8* bitcast (%"class.xalanc_1_10::XalanDOMString"* @_ZL25ATTRNAME_OUTPUT_MEDIATYPE to i8*), i8* @__dso_handle) #3, !dbg !2388
  ret void, !dbg !2387
}

; Function Attrs: noinline uwtable
define internal void @__cxx_global_var_init.39() #0 section ".text.startup" !dbg !2389 {
entry:
  %call = call dereferenceable(8) %"class.xercesc_2_7::MemoryManager"* @_ZN11xalanc_1_1012XalanMemMgrs14getDummyMemMgrEv(), !dbg !2390
  call void @_ZN11xalanc_1_1014XalanDOMStringC1ERN11xercesc_2_713MemoryManagerE(%"class.xalanc_1_10::XalanDOMString"* @_ZL22ATTRNAME_OUTPUT_METHOD, %"class.xercesc_2_7::MemoryManager"* dereferenceable(8) %call), !dbg !2391
  %0 = call i32 @__cxa_atexit(void (i8*)* bitcast (void (%"class.xalanc_1_10::XalanDOMString"*)* @_ZN11xalanc_1_1014XalanDOMStringD2Ev to void (i8*)*), i8* bitcast (%"class.xalanc_1_10::XalanDOMString"* @_ZL22ATTRNAME_OUTPUT_METHOD to i8*), i8* @__dso_handle) #3, !dbg !2391
  ret void, !dbg !2390
}

; Function Attrs: noinline uwtable
define internal void @__cxx_global_var_init.40() #0 section ".text.startup" !dbg !2392 {
entry:
  %call = call dereferenceable(8) %"class.xercesc_2_7::MemoryManager"* @_ZN11xalanc_1_1012XalanMemMgrs14getDummyMemMgrEv(), !dbg !2393
  call void @_ZN11xalanc_1_1014XalanDOMStringC1ERN11xercesc_2_713MemoryManagerE(%"class.xalanc_1_10::XalanDOMString"* @_ZL27ATTRNAME_OUTPUT_OMITXMLDECL, %"class.xercesc_2_7::MemoryManager"* dereferenceable(8) %call), !dbg !2394
  %0 = call i32 @__cxa_atexit(void (i8*)* bitcast (void (%"class.xalanc_1_10::XalanDOMString"*)* @_ZN11xalanc_1_1014XalanDOMStringD2Ev to void (i8*)*), i8* bitcast (%"class.xalanc_1_10::XalanDOMString"* @_ZL27ATTRNAME_OUTPUT_OMITXMLDECL to i8*), i8* @__dso_handle) #3, !dbg !2394
  ret void, !dbg !2393
}

; Function Attrs: noinline uwtable
define internal void @__cxx_global_var_init.41() #0 section ".text.startup" !dbg !2395 {
entry:
  %call = call dereferenceable(8) %"class.xercesc_2_7::MemoryManager"* @_ZN11xalanc_1_1012XalanMemMgrs14getDummyMemMgrEv(), !dbg !2396
  call void @_ZN11xalanc_1_1014XalanDOMStringC1ERN11xercesc_2_713MemoryManagerE(%"class.xalanc_1_10::XalanDOMString"* @_ZL26ATTRNAME_OUTPUT_STANDALONE, %"class.xercesc_2_7::MemoryManager"* dereferenceable(8) %call), !dbg !2397
  %0 = call i32 @__cxa_atexit(void (i8*)* bitcast (void (%"class.xalanc_1_10::XalanDOMString"*)* @_ZN11xalanc_1_1014XalanDOMStringD2Ev to void (i8*)*), i8* bitcast (%"class.xalanc_1_10::XalanDOMString"* @_ZL26ATTRNAME_OUTPUT_STANDALONE to i8*), i8* @__dso_handle) #3, !dbg !2397
  ret void, !dbg !2396
}

; Function Attrs: noinline uwtable
define internal void @__cxx_global_var_init.42() #0 section ".text.startup" !dbg !2398 {
entry:
  %call = call dereferenceable(8) %"class.xercesc_2_7::MemoryManager"* @_ZN11xalanc_1_1012XalanMemMgrs14getDummyMemMgrEv(), !dbg !2399
  call void @_ZN11xalanc_1_1014XalanDOMStringC1ERN11xercesc_2_713MemoryManagerE(%"class.xalanc_1_10::XalanDOMString"* @_ZL23ATTRNAME_OUTPUT_VERSION, %"class.xercesc_2_7::MemoryManager"* dereferenceable(8) %call), !dbg !2400
  %0 = call i32 @__cxa_atexit(void (i8*)* bitcast (void (%"class.xalanc_1_10::XalanDOMString"*)* @_ZN11xalanc_1_1014XalanDOMStringD2Ev to void (i8*)*), i8* bitcast (%"class.xalanc_1_10::XalanDOMString"* @_ZL23ATTRNAME_OUTPUT_VERSION to i8*), i8* @__dso_handle) #3, !dbg !2400
  ret void, !dbg !2399
}

; Function Attrs: noinline uwtable
define internal void @__cxx_global_var_init.43() #0 section ".text.startup" !dbg !2401 {
entry:
  %call = call dereferenceable(8) %"class.xercesc_2_7::MemoryManager"* @_ZN11xalanc_1_1012XalanMemMgrs14getDummyMemMgrEv(), !dbg !2402
  call void @_ZN11xalanc_1_1014XalanDOMStringC1ERN11xercesc_2_713MemoryManagerE(%"class.xalanc_1_10::XalanDOMString"* @_ZL25ATTRNAME_PATTERNSEPARATOR, %"class.xercesc_2_7::MemoryManager"* dereferenceable(8) %call), !dbg !2403
  %0 = call i32 @__cxa_atexit(void (i8*)* bitcast (void (%"class.xalanc_1_10::XalanDOMString"*)* @_ZN11xalanc_1_1014XalanDOMStringD2Ev to void (i8*)*), i8* bitcast (%"class.xalanc_1_10::XalanDOMString"* @_ZL25ATTRNAME_PATTERNSEPARATOR to i8*), i8* @__dso_handle) #3, !dbg !2403
  ret void, !dbg !2402
}

; Function Attrs: noinline uwtable
define internal void @__cxx_global_var_init.44() #0 section ".text.startup" !dbg !2404 {
entry:
  %call = call dereferenceable(8) %"class.xercesc_2_7::MemoryManager"* @_ZN11xalanc_1_1012XalanMemMgrs14getDummyMemMgrEv(), !dbg !2405
  call void @_ZN11xalanc_1_1014XalanDOMStringC1ERN11xercesc_2_713MemoryManagerE(%"class.xalanc_1_10::XalanDOMString"* @_ZL16ATTRNAME_PERCENT, %"class.xercesc_2_7::MemoryManager"* dereferenceable(8) %call), !dbg !2406
  %0 = call i32 @__cxa_atexit(void (i8*)* bitcast (void (%"class.xalanc_1_10::XalanDOMString"*)* @_ZN11xalanc_1_1014XalanDOMStringD2Ev to void (i8*)*), i8* bitcast (%"class.xalanc_1_10::XalanDOMString"* @_ZL16ATTRNAME_PERCENT to i8*), i8* @__dso_handle) #3, !dbg !2406
  ret void, !dbg !2405
}

; Function Attrs: noinline uwtable
define internal void @__cxx_global_var_init.45() #0 section ".text.startup" !dbg !2407 {
entry:
  %call = call dereferenceable(8) %"class.xercesc_2_7::MemoryManager"* @_ZN11xalanc_1_1012XalanMemMgrs14getDummyMemMgrEv(), !dbg !2408
  call void @_ZN11xalanc_1_1014XalanDOMStringC1ERN11xercesc_2_713MemoryManagerE(%"class.xalanc_1_10::XalanDOMString"* @_ZL17ATTRNAME_PERMILLE, %"class.xercesc_2_7::MemoryManager"* dereferenceable(8) %call), !dbg !2409
  %0 = call i32 @__cxa_atexit(void (i8*)* bitcast (void (%"class.xalanc_1_10::XalanDOMString"*)* @_ZN11xalanc_1_1014XalanDOMStringD2Ev to void (i8*)*), i8* bitcast (%"class.xalanc_1_10::XalanDOMString"* @_ZL17ATTRNAME_PERMILLE to i8*), i8* @__dso_handle) #3, !dbg !2409
  ret void, !dbg !2408
}

; Function Attrs: noinline uwtable
define internal void @__cxx_global_var_init.46() #0 section ".text.startup" !dbg !2410 {
entry:
  %call = call dereferenceable(8) %"class.xercesc_2_7::MemoryManager"* @_ZN11xalanc_1_1012XalanMemMgrs14getDummyMemMgrEv(), !dbg !2411
  call void @_ZN11xalanc_1_1014XalanDOMStringC1ERN11xercesc_2_713MemoryManagerE(%"class.xalanc_1_10::XalanDOMString"* @_ZL15ATTRNAME_PREFIX, %"class.xercesc_2_7::MemoryManager"* dereferenceable(8) %call), !dbg !2412
  %0 = call i32 @__cxa_atexit(void (i8*)* bitcast (void (%"class.xalanc_1_10::XalanDOMString"*)* @_ZN11xalanc_1_1014XalanDOMStringD2Ev to void (i8*)*), i8* bitcast (%"class.xalanc_1_10::XalanDOMString"* @_ZL15ATTRNAME_PREFIX to i8*), i8* @__dso_handle) #3, !dbg !2412
  ret void, !dbg !2411
}

; Function Attrs: noinline uwtable
define internal void @__cxx_global_var_init.47() #0 section ".text.startup" !dbg !2413 {
entry:
  %call = call dereferenceable(8) %"class.xercesc_2_7::MemoryManager"* @_ZN11xalanc_1_1012XalanMemMgrs14getDummyMemMgrEv(), !dbg !2414
  call void @_ZN11xalanc_1_1014XalanDOMStringC1ERN11xercesc_2_713MemoryManagerE(%"class.xalanc_1_10::XalanDOMString"* @_ZL17ATTRNAME_PRIORITY, %"class.xercesc_2_7::MemoryManager"* dereferenceable(8) %call), !dbg !2415
  %0 = call i32 @__cxa_atexit(void (i8*)* bitcast (void (%"class.xalanc_1_10::XalanDOMString"*)* @_ZN11xalanc_1_1014XalanDOMStringD2Ev to void (i8*)*), i8* bitcast (%"class.xalanc_1_10::XalanDOMString"* @_ZL17ATTRNAME_PRIORITY to i8*), i8* @__dso_handle) #3, !dbg !2415
  ret void, !dbg !2414
}

; Function Attrs: noinline uwtable
define internal void @__cxx_global_var_init.48() #0 section ".text.startup" !dbg !2416 {
entry:
  %call = call dereferenceable(8) %"class.xercesc_2_7::MemoryManager"* @_ZN11xalanc_1_1012XalanMemMgrs14getDummyMemMgrEv(), !dbg !2417
  call void @_ZN11xalanc_1_1014XalanDOMStringC1ERN11xercesc_2_713MemoryManagerE(%"class.xalanc_1_10::XalanDOMString"* @_ZL17ATTRNAME_RESULTNS, %"class.xercesc_2_7::MemoryManager"* dereferenceable(8) %call), !dbg !2418
  %0 = call i32 @__cxa_atexit(void (i8*)* bitcast (void (%"class.xalanc_1_10::XalanDOMString"*)* @_ZN11xalanc_1_1014XalanDOMStringD2Ev to void (i8*)*), i8* bitcast (%"class.xalanc_1_10::XalanDOMString"* @_ZL17ATTRNAME_RESULTNS to i8*), i8* @__dso_handle) #3, !dbg !2418
  ret void, !dbg !2417
}

; Function Attrs: noinline uwtable
define internal void @__cxx_global_var_init.49() #0 section ".text.startup" !dbg !2419 {
entry:
  %call = call dereferenceable(8) %"class.xercesc_2_7::MemoryManager"* @_ZN11xalanc_1_1012XalanMemMgrs14getDummyMemMgrEv(), !dbg !2420
  call void @_ZN11xalanc_1_1014XalanDOMStringC1ERN11xercesc_2_713MemoryManagerE(%"class.xalanc_1_10::XalanDOMString"* @_ZL22ATTRNAME_RESULT_PREFIX, %"class.xercesc_2_7::MemoryManager"* dereferenceable(8) %call), !dbg !2421
  %0 = call i32 @__cxa_atexit(void (i8*)* bitcast (void (%"class.xalanc_1_10::XalanDOMString"*)* @_ZN11xalanc_1_1014XalanDOMStringD2Ev to void (i8*)*), i8* bitcast (%"class.xalanc_1_10::XalanDOMString"* @_ZL22ATTRNAME_RESULT_PREFIX to i8*), i8* @__dso_handle) #3, !dbg !2421
  ret void, !dbg !2420
}

; Function Attrs: noinline uwtable
define internal void @__cxx_global_var_init.50() #0 section ".text.startup" !dbg !2422 {
entry:
  %call = call dereferenceable(8) %"class.xercesc_2_7::MemoryManager"* @_ZN11xalanc_1_1012XalanMemMgrs14getDummyMemMgrEv(), !dbg !2423
  call void @_ZN11xalanc_1_1014XalanDOMStringC1ERN11xercesc_2_713MemoryManagerE(%"class.xalanc_1_10::XalanDOMString"* @_ZL15ATTRNAME_SELECT, %"class.xercesc_2_7::MemoryManager"* dereferenceable(8) %call), !dbg !2424
  %0 = call i32 @__cxa_atexit(void (i8*)* bitcast (void (%"class.xalanc_1_10::XalanDOMString"*)* @_ZN11xalanc_1_1014XalanDOMStringD2Ev to void (i8*)*), i8* bitcast (%"class.xalanc_1_10::XalanDOMString"* @_ZL15ATTRNAME_SELECT to i8*), i8* @__dso_handle) #3, !dbg !2424
  ret void, !dbg !2423
}

; Function Attrs: noinline uwtable
define internal void @__cxx_global_var_init.51() #0 section ".text.startup" !dbg !2425 {
entry:
  %call = call dereferenceable(8) %"class.xercesc_2_7::MemoryManager"* @_ZN11xalanc_1_1012XalanMemMgrs14getDummyMemMgrEv(), !dbg !2426
  call void @_ZN11xalanc_1_1014XalanDOMStringC1ERN11xercesc_2_713MemoryManagerE(%"class.xalanc_1_10::XalanDOMString"* @_ZL26ATTRNAME_STYLESHEET_PREFIX, %"class.xercesc_2_7::MemoryManager"* dereferenceable(8) %call), !dbg !2427
  %0 = call i32 @__cxa_atexit(void (i8*)* bitcast (void (%"class.xalanc_1_10::XalanDOMString"*)* @_ZN11xalanc_1_1014XalanDOMStringD2Ev to void (i8*)*), i8* bitcast (%"class.xalanc_1_10::XalanDOMString"* @_ZL26ATTRNAME_STYLESHEET_PREFIX to i8*), i8* @__dso_handle) #3, !dbg !2427
  ret void, !dbg !2426
}

; Function Attrs: noinline uwtable
define internal void @__cxx_global_var_init.52() #0 section ".text.startup" !dbg !2428 {
entry:
  %call = call dereferenceable(8) %"class.xercesc_2_7::MemoryManager"* @_ZN11xalanc_1_1012XalanMemMgrs14getDummyMemMgrEv(), !dbg !2429
  call void @_ZN11xalanc_1_1014XalanDOMStringC1ERN11xercesc_2_713MemoryManagerE(%"class.xalanc_1_10::XalanDOMString"* @_ZL18ATTRNAME_TERMINATE, %"class.xercesc_2_7::MemoryManager"* dereferenceable(8) %call), !dbg !2430
  %0 = call i32 @__cxa_atexit(void (i8*)* bitcast (void (%"class.xalanc_1_10::XalanDOMString"*)* @_ZN11xalanc_1_1014XalanDOMStringD2Ev to void (i8*)*), i8* bitcast (%"class.xalanc_1_10::XalanDOMString"* @_ZL18ATTRNAME_TERMINATE to i8*), i8* @__dso_handle) #3, !dbg !2430
  ret void, !dbg !2429
}

; Function Attrs: noinline uwtable
define internal void @__cxx_global_var_init.53() #0 section ".text.startup" !dbg !2431 {
entry:
  %call = call dereferenceable(8) %"class.xercesc_2_7::MemoryManager"* @_ZN11xalanc_1_1012XalanMemMgrs14getDummyMemMgrEv(), !dbg !2432
  call void @_ZN11xalanc_1_1014XalanDOMStringC1ERN11xercesc_2_713MemoryManagerE(%"class.xalanc_1_10::XalanDOMString"* @_ZL13ATTRNAME_TEST, %"class.xercesc_2_7::MemoryManager"* dereferenceable(8) %call), !dbg !2433
  %0 = call i32 @__cxa_atexit(void (i8*)* bitcast (void (%"class.xalanc_1_10::XalanDOMString"*)* @_ZN11xalanc_1_1014XalanDOMStringD2Ev to void (i8*)*), i8* bitcast (%"class.xalanc_1_10::XalanDOMString"* @_ZL13ATTRNAME_TEST to i8*), i8* @__dso_handle) #3, !dbg !2433
  ret void, !dbg !2432
}

; Function Attrs: noinline uwtable
define internal void @__cxx_global_var_init.54() #0 section ".text.startup" !dbg !2434 {
entry:
  %call = call dereferenceable(8) %"class.xercesc_2_7::MemoryManager"* @_ZN11xalanc_1_1012XalanMemMgrs14getDummyMemMgrEv(), !dbg !2435
  call void @_ZN11xalanc_1_1014XalanDOMStringC1ERN11xercesc_2_713MemoryManagerE(%"class.xalanc_1_10::XalanDOMString"* @_ZL13ATTRNAME_TYPE, %"class.xercesc_2_7::MemoryManager"* dereferenceable(8) %call), !dbg !2436
  %0 = call i32 @__cxa_atexit(void (i8*)* bitcast (void (%"class.xalanc_1_10::XalanDOMString"*)* @_ZN11xalanc_1_1014XalanDOMStringD2Ev to void (i8*)*), i8* bitcast (%"class.xalanc_1_10::XalanDOMString"* @_ZL13ATTRNAME_TYPE to i8*), i8* @__dso_handle) #3, !dbg !2436
  ret void, !dbg !2435
}

; Function Attrs: noinline uwtable
define internal void @__cxx_global_var_init.55() #0 section ".text.startup" !dbg !2437 {
entry:
  %call = call dereferenceable(8) %"class.xercesc_2_7::MemoryManager"* @_ZN11xalanc_1_1012XalanMemMgrs14getDummyMemMgrEv(), !dbg !2438
  call void @_ZN11xalanc_1_1014XalanDOMStringC1ERN11xercesc_2_713MemoryManagerE(%"class.xalanc_1_10::XalanDOMString"* @_ZL12ATTRNAME_USE, %"class.xercesc_2_7::MemoryManager"* dereferenceable(8) %call), !dbg !2439
  %0 = call i32 @__cxa_atexit(void (i8*)* bitcast (void (%"class.xalanc_1_10::XalanDOMString"*)* @_ZN11xalanc_1_1014XalanDOMStringD2Ev to void (i8*)*), i8* bitcast (%"class.xalanc_1_10::XalanDOMString"* @_ZL12ATTRNAME_USE to i8*), i8* @__dso_handle) #3, !dbg !2439
  ret void, !dbg !2438
}

; Function Attrs: noinline uwtable
define internal void @__cxx_global_var_init.56() #0 section ".text.startup" !dbg !2440 {
entry:
  %call = call dereferenceable(8) %"class.xercesc_2_7::MemoryManager"* @_ZN11xalanc_1_1012XalanMemMgrs14getDummyMemMgrEv(), !dbg !2441
  call void @_ZN11xalanc_1_1014XalanDOMStringC1ERN11xercesc_2_713MemoryManagerE(%"class.xalanc_1_10::XalanDOMString"* @_ZL25ATTRNAME_USEATTRIBUTESETS, %"class.xercesc_2_7::MemoryManager"* dereferenceable(8) %call), !dbg !2442
  %0 = call i32 @__cxa_atexit(void (i8*)* bitcast (void (%"class.xalanc_1_10::XalanDOMString"*)* @_ZN11xalanc_1_1014XalanDOMStringD2Ev to void (i8*)*), i8* bitcast (%"class.xalanc_1_10::XalanDOMString"* @_ZL25ATTRNAME_USEATTRIBUTESETS to i8*), i8* @__dso_handle) #3, !dbg !2442
  ret void, !dbg !2441
}

; Function Attrs: noinline uwtable
define internal void @__cxx_global_var_init.57() #0 section ".text.startup" !dbg !2443 {
entry:
  %call = call dereferenceable(8) %"class.xercesc_2_7::MemoryManager"* @_ZN11xalanc_1_1012XalanMemMgrs14getDummyMemMgrEv(), !dbg !2444
  call void @_ZN11xalanc_1_1014XalanDOMStringC1ERN11xercesc_2_713MemoryManagerE(%"class.xalanc_1_10::XalanDOMString"* @_ZL14ATTRNAME_VALUE, %"class.xercesc_2_7::MemoryManager"* dereferenceable(8) %call), !dbg !2445
  %0 = call i32 @__cxa_atexit(void (i8*)* bitcast (void (%"class.xalanc_1_10::XalanDOMString"*)* @_ZN11xalanc_1_1014XalanDOMStringD2Ev to void (i8*)*), i8* bitcast (%"class.xalanc_1_10::XalanDOMString"* @_ZL14ATTRNAME_VALUE to i8*), i8* @__dso_handle) #3, !dbg !2445
  ret void, !dbg !2444
}

; Function Attrs: noinline uwtable
define internal void @__cxx_global_var_init.58() #0 section ".text.startup" !dbg !2446 {
entry:
  %call = call dereferenceable(8) %"class.xercesc_2_7::MemoryManager"* @_ZN11xalanc_1_1012XalanMemMgrs14getDummyMemMgrEv(), !dbg !2447
  call void @_ZN11xalanc_1_1014XalanDOMStringC1ERN11xercesc_2_713MemoryManagerE(%"class.xalanc_1_10::XalanDOMString"* @_ZL16ATTRNAME_VERSION, %"class.xercesc_2_7::MemoryManager"* dereferenceable(8) %call), !dbg !2448
  %0 = call i32 @__cxa_atexit(void (i8*)* bitcast (void (%"class.xalanc_1_10::XalanDOMString"*)* @_ZN11xalanc_1_1014XalanDOMStringD2Ev to void (i8*)*), i8* bitcast (%"class.xalanc_1_10::XalanDOMString"* @_ZL16ATTRNAME_VERSION to i8*), i8* @__dso_handle) #3, !dbg !2448
  ret void, !dbg !2447
}

; Function Attrs: noinline uwtable
define internal void @__cxx_global_var_init.59() #0 section ".text.startup" !dbg !2449 {
entry:
  %call = call dereferenceable(8) %"class.xercesc_2_7::MemoryManager"* @_ZN11xalanc_1_1012XalanMemMgrs14getDummyMemMgrEv(), !dbg !2450
  call void @_ZN11xalanc_1_1014XalanDOMStringC1ERN11xercesc_2_713MemoryManagerE(%"class.xalanc_1_10::XalanDOMString"* @_ZL14ATTRNAME_SPACE, %"class.xercesc_2_7::MemoryManager"* dereferenceable(8) %call), !dbg !2451
  %0 = call i32 @__cxa_atexit(void (i8*)* bitcast (void (%"class.xalanc_1_10::XalanDOMString"*)* @_ZN11xalanc_1_1014XalanDOMStringD2Ev to void (i8*)*), i8* bitcast (%"class.xalanc_1_10::XalanDOMString"* @_ZL14ATTRNAME_SPACE to i8*), i8* @__dso_handle) #3, !dbg !2451
  ret void, !dbg !2450
}

; Function Attrs: noinline uwtable
define internal void @__cxx_global_var_init.60() #0 section ".text.startup" !dbg !2452 {
entry:
  %call = call dereferenceable(8) %"class.xercesc_2_7::MemoryManager"* @_ZN11xalanc_1_1012XalanMemMgrs14getDummyMemMgrEv(), !dbg !2453
  call void @_ZN11xalanc_1_1014XalanDOMStringC1ERN11xercesc_2_713MemoryManagerE(%"class.xalanc_1_10::XalanDOMString"* @_ZL17ATTRNAME_XMLSPACE, %"class.xercesc_2_7::MemoryManager"* dereferenceable(8) %call), !dbg !2454
  %0 = call i32 @__cxa_atexit(void (i8*)* bitcast (void (%"class.xalanc_1_10::XalanDOMString"*)* @_ZN11xalanc_1_1014XalanDOMStringD2Ev to void (i8*)*), i8* bitcast (%"class.xalanc_1_10::XalanDOMString"* @_ZL17ATTRNAME_XMLSPACE to i8*), i8* @__dso_handle) #3, !dbg !2454
  ret void, !dbg !2453
}

; Function Attrs: noinline uwtable
define internal void @__cxx_global_var_init.61() #0 section ".text.startup" !dbg !2455 {
entry:
  %call = call dereferenceable(8) %"class.xercesc_2_7::MemoryManager"* @_ZN11xalanc_1_1012XalanMemMgrs14getDummyMemMgrEv(), !dbg !2456
  call void @_ZN11xalanc_1_1014XalanDOMStringC1ERN11xercesc_2_713MemoryManagerE(%"class.xalanc_1_10::XalanDOMString"* @_ZL18ATTRNAME_ZERODIGIT, %"class.xercesc_2_7::MemoryManager"* dereferenceable(8) %call), !dbg !2457
  %0 = call i32 @__cxa_atexit(void (i8*)* bitcast (void (%"class.xalanc_1_10::XalanDOMString"*)* @_ZN11xalanc_1_1014XalanDOMStringD2Ev to void (i8*)*), i8* bitcast (%"class.xalanc_1_10::XalanDOMString"* @_ZL18ATTRNAME_ZERODIGIT to i8*), i8* @__dso_handle) #3, !dbg !2457
  ret void, !dbg !2456
}

; Function Attrs: noinline uwtable
define internal void @__cxx_global_var_init.62() #0 section ".text.startup" !dbg !2458 {
entry:
  %call = call dereferenceable(8) %"class.xercesc_2_7::MemoryManager"* @_ZN11xalanc_1_1012XalanMemMgrs14getDummyMemMgrEv(), !dbg !2459
  call void @_ZN11xalanc_1_1014XalanDOMStringC1ERN11xercesc_2_713MemoryManagerE(%"class.xalanc_1_10::XalanDOMString"* @_ZL14ATTRTYPE_CDATA, %"class.xercesc_2_7::MemoryManager"* dereferenceable(8) %call), !dbg !2460
  %0 = call i32 @__cxa_atexit(void (i8*)* bitcast (void (%"class.xalanc_1_10::XalanDOMString"*)* @_ZN11xalanc_1_1014XalanDOMStringD2Ev to void (i8*)*), i8* bitcast (%"class.xalanc_1_10::XalanDOMString"* @_ZL14ATTRTYPE_CDATA to i8*), i8* @__dso_handle) #3, !dbg !2460
  ret void, !dbg !2459
}

; Function Attrs: noinline uwtable
define internal void @__cxx_global_var_init.63() #0 section ".text.startup" !dbg !2461 {
entry:
  %call = call dereferenceable(8) %"class.xercesc_2_7::MemoryManager"* @_ZN11xalanc_1_1012XalanMemMgrs14getDummyMemMgrEv(), !dbg !2462
  call void @_ZN11xalanc_1_1014XalanDOMStringC1ERN11xercesc_2_713MemoryManagerE(%"class.xalanc_1_10::XalanDOMString"* @_ZL23ATTRVAL_CASEORDER_LOWER, %"class.xercesc_2_7::MemoryManager"* dereferenceable(8) %call), !dbg !2463
  %0 = call i32 @__cxa_atexit(void (i8*)* bitcast (void (%"class.xalanc_1_10::XalanDOMString"*)* @_ZN11xalanc_1_1014XalanDOMStringD2Ev to void (i8*)*), i8* bitcast (%"class.xalanc_1_10::XalanDOMString"* @_ZL23ATTRVAL_CASEORDER_LOWER to i8*), i8* @__dso_handle) #3, !dbg !2463
  ret void, !dbg !2462
}

; Function Attrs: noinline uwtable
define internal void @__cxx_global_var_init.64() #0 section ".text.startup" !dbg !2464 {
entry:
  %call = call dereferenceable(8) %"class.xercesc_2_7::MemoryManager"* @_ZN11xalanc_1_1012XalanMemMgrs14getDummyMemMgrEv(), !dbg !2465
  call void @_ZN11xalanc_1_1014XalanDOMStringC1ERN11xercesc_2_713MemoryManagerE(%"class.xalanc_1_10::XalanDOMString"* @_ZL23ATTRVAL_CASEORDER_UPPER, %"class.xercesc_2_7::MemoryManager"* dereferenceable(8) %call), !dbg !2466
  %0 = call i32 @__cxa_atexit(void (i8*)* bitcast (void (%"class.xalanc_1_10::XalanDOMString"*)* @_ZN11xalanc_1_1014XalanDOMStringD2Ev to void (i8*)*), i8* bitcast (%"class.xalanc_1_10::XalanDOMString"* @_ZL23ATTRVAL_CASEORDER_UPPER to i8*), i8* @__dso_handle) #3, !dbg !2466
  ret void, !dbg !2465
}

; Function Attrs: noinline uwtable
define internal void @__cxx_global_var_init.65() #0 section ".text.startup" !dbg !2467 {
entry:
  %call = call dereferenceable(8) %"class.xercesc_2_7::MemoryManager"* @_ZN11xalanc_1_1012XalanMemMgrs14getDummyMemMgrEv(), !dbg !2468
  call void @_ZN11xalanc_1_1014XalanDOMStringC1ERN11xercesc_2_713MemoryManagerE(%"class.xalanc_1_10::XalanDOMString"* @_ZL23ATTRVAL_DATATYPE_NUMBER, %"class.xercesc_2_7::MemoryManager"* dereferenceable(8) %call), !dbg !2469
  %0 = call i32 @__cxa_atexit(void (i8*)* bitcast (void (%"class.xalanc_1_10::XalanDOMString"*)* @_ZN11xalanc_1_1014XalanDOMStringD2Ev to void (i8*)*), i8* bitcast (%"class.xalanc_1_10::XalanDOMString"* @_ZL23ATTRVAL_DATATYPE_NUMBER to i8*), i8* @__dso_handle) #3, !dbg !2469
  ret void, !dbg !2468
}

; Function Attrs: noinline uwtable
define internal void @__cxx_global_var_init.66() #0 section ".text.startup" !dbg !2470 {
entry:
  %call = call dereferenceable(8) %"class.xercesc_2_7::MemoryManager"* @_ZN11xalanc_1_1012XalanMemMgrs14getDummyMemMgrEv(), !dbg !2471
  call void @_ZN11xalanc_1_1014XalanDOMStringC1ERN11xercesc_2_713MemoryManagerE(%"class.xalanc_1_10::XalanDOMString"* @_ZL21ATTRVAL_DATATYPE_TEXT, %"class.xercesc_2_7::MemoryManager"* dereferenceable(8) %call), !dbg !2472
  %0 = call i32 @__cxa_atexit(void (i8*)* bitcast (void (%"class.xalanc_1_10::XalanDOMString"*)* @_ZN11xalanc_1_1014XalanDOMStringD2Ev to void (i8*)*), i8* bitcast (%"class.xalanc_1_10::XalanDOMString"* @_ZL21ATTRVAL_DATATYPE_TEXT to i8*), i8* @__dso_handle) #3, !dbg !2472
  ret void, !dbg !2471
}

; Function Attrs: noinline uwtable
define internal void @__cxx_global_var_init.67() #0 section ".text.startup" !dbg !2473 {
entry:
  %call = call dereferenceable(8) %"class.xercesc_2_7::MemoryManager"* @_ZN11xalanc_1_1012XalanMemMgrs14getDummyMemMgrEv(), !dbg !2474
  call void @_ZN11xalanc_1_1014XalanDOMStringC1ERN11xercesc_2_713MemoryManagerE(%"class.xalanc_1_10::XalanDOMString"* @_ZL15ATTRVAL_DEFAULT, %"class.xercesc_2_7::MemoryManager"* dereferenceable(8) %call), !dbg !2475
  %0 = call i32 @__cxa_atexit(void (i8*)* bitcast (void (%"class.xalanc_1_10::XalanDOMString"*)* @_ZN11xalanc_1_1014XalanDOMStringD2Ev to void (i8*)*), i8* bitcast (%"class.xalanc_1_10::XalanDOMString"* @_ZL15ATTRVAL_DEFAULT to i8*), i8* @__dso_handle) #3, !dbg !2475
  ret void, !dbg !2474
}

; Function Attrs: noinline uwtable
define internal void @__cxx_global_var_init.68() #0 section ".text.startup" !dbg !2476 {
entry:
  %call = call dereferenceable(8) %"class.xercesc_2_7::MemoryManager"* @_ZN11xalanc_1_1012XalanMemMgrs14getDummyMemMgrEv(), !dbg !2477
  call void @_ZN11xalanc_1_1014XalanDOMStringC1ERN11xercesc_2_713MemoryManagerE(%"class.xalanc_1_10::XalanDOMString"* @_ZL22ATTRVAL_DEFAULT_PREFIX, %"class.xercesc_2_7::MemoryManager"* dereferenceable(8) %call), !dbg !2478
  %0 = call i32 @__cxa_atexit(void (i8*)* bitcast (void (%"class.xalanc_1_10::XalanDOMString"*)* @_ZN11xalanc_1_1014XalanDOMStringD2Ev to void (i8*)*), i8* bitcast (%"class.xalanc_1_10::XalanDOMString"* @_ZL22ATTRVAL_DEFAULT_PREFIX to i8*), i8* @__dso_handle) #3, !dbg !2478
  ret void, !dbg !2477
}

; Function Attrs: noinline uwtable
define internal void @__cxx_global_var_init.69() #0 section ".text.startup" !dbg !2479 {
entry:
  %call = call dereferenceable(8) %"class.xercesc_2_7::MemoryManager"* @_ZN11xalanc_1_1012XalanMemMgrs14getDummyMemMgrEv(), !dbg !2480
  call void @_ZN11xalanc_1_1014XalanDOMStringC1ERN11xercesc_2_713MemoryManagerE(%"class.xalanc_1_10::XalanDOMString"* @_ZL25ATTRVAL_DEFAULT_TEXT_RULE, %"class.xercesc_2_7::MemoryManager"* dereferenceable(8) %call), !dbg !2481
  %0 = call i32 @__cxa_atexit(void (i8*)* bitcast (void (%"class.xalanc_1_10::XalanDOMString"*)* @_ZN11xalanc_1_1014XalanDOMStringD2Ev to void (i8*)*), i8* bitcast (%"class.xalanc_1_10::XalanDOMString"* @_ZL25ATTRVAL_DEFAULT_TEXT_RULE to i8*), i8* @__dso_handle) #3, !dbg !2481
  ret void, !dbg !2480
}

; Function Attrs: noinline uwtable
define internal void @__cxx_global_var_init.70() #0 section ".text.startup" !dbg !2482 {
entry:
  %call = call dereferenceable(8) %"class.xercesc_2_7::MemoryManager"* @_ZN11xalanc_1_1012XalanMemMgrs14getDummyMemMgrEv(), !dbg !2483
  call void @_ZN11xalanc_1_1014XalanDOMStringC1ERN11xercesc_2_713MemoryManagerE(%"class.xalanc_1_10::XalanDOMString"* @_ZL16ATTRVAL_INFINITY, %"class.xercesc_2_7::MemoryManager"* dereferenceable(8) %call), !dbg !2484
  %0 = call i32 @__cxa_atexit(void (i8*)* bitcast (void (%"class.xalanc_1_10::XalanDOMString"*)* @_ZN11xalanc_1_1014XalanDOMStringD2Ev to void (i8*)*), i8* bitcast (%"class.xalanc_1_10::XalanDOMString"* @_ZL16ATTRVAL_INFINITY to i8*), i8* @__dso_handle) #3, !dbg !2484
  ret void, !dbg !2483
}

; Function Attrs: noinline uwtable
define internal void @__cxx_global_var_init.71() #0 section ".text.startup" !dbg !2485 {
entry:
  %call = call dereferenceable(8) %"class.xercesc_2_7::MemoryManager"* @_ZN11xalanc_1_1012XalanMemMgrs14getDummyMemMgrEv(), !dbg !2486
  call void @_ZN11xalanc_1_1014XalanDOMStringC1ERN11xercesc_2_713MemoryManagerE(%"class.xalanc_1_10::XalanDOMString"* @_ZL11ATTRVAL_NAN, %"class.xercesc_2_7::MemoryManager"* dereferenceable(8) %call), !dbg !2487
  %0 = call i32 @__cxa_atexit(void (i8*)* bitcast (void (%"class.xalanc_1_10::XalanDOMString"*)* @_ZN11xalanc_1_1014XalanDOMStringD2Ev to void (i8*)*), i8* bitcast (%"class.xalanc_1_10::XalanDOMString"* @_ZL11ATTRVAL_NAN to i8*), i8* @__dso_handle) #3, !dbg !2487
  ret void, !dbg !2486
}

; Function Attrs: noinline uwtable
define internal void @__cxx_global_var_init.72() #0 section ".text.startup" !dbg !2488 {
entry:
  %call = call dereferenceable(8) %"class.xercesc_2_7::MemoryManager"* @_ZN11xalanc_1_1012XalanMemMgrs14getDummyMemMgrEv(), !dbg !2489
  call void @_ZN11xalanc_1_1014XalanDOMStringC1ERN11xercesc_2_713MemoryManagerE(%"class.xalanc_1_10::XalanDOMString"* @_ZL10ATTRVAL_NO, %"class.xercesc_2_7::MemoryManager"* dereferenceable(8) %call), !dbg !2490
  %0 = call i32 @__cxa_atexit(void (i8*)* bitcast (void (%"class.xalanc_1_10::XalanDOMString"*)* @_ZN11xalanc_1_1014XalanDOMStringD2Ev to void (i8*)*), i8* bitcast (%"class.xalanc_1_10::XalanDOMString"* @_ZL10ATTRVAL_NO to i8*), i8* @__dso_handle) #3, !dbg !2490
  ret void, !dbg !2489
}

; Function Attrs: noinline uwtable
define internal void @__cxx_global_var_init.73() #0 section ".text.startup" !dbg !2491 {
entry:
  %call = call dereferenceable(8) %"class.xercesc_2_7::MemoryManager"* @_ZN11xalanc_1_1012XalanMemMgrs14getDummyMemMgrEv(), !dbg !2492
  call void @_ZN11xalanc_1_1014XalanDOMStringC1ERN11xercesc_2_713MemoryManagerE(%"class.xalanc_1_10::XalanDOMString"* @_ZL23ATTRVAL_ORDER_ASCENDING, %"class.xercesc_2_7::MemoryManager"* dereferenceable(8) %call), !dbg !2493
  %0 = call i32 @__cxa_atexit(void (i8*)* bitcast (void (%"class.xalanc_1_10::XalanDOMString"*)* @_ZN11xalanc_1_1014XalanDOMStringD2Ev to void (i8*)*), i8* bitcast (%"class.xalanc_1_10::XalanDOMString"* @_ZL23ATTRVAL_ORDER_ASCENDING to i8*), i8* @__dso_handle) #3, !dbg !2493
  ret void, !dbg !2492
}

; Function Attrs: noinline uwtable
define internal void @__cxx_global_var_init.74() #0 section ".text.startup" !dbg !2494 {
entry:
  %call = call dereferenceable(8) %"class.xercesc_2_7::MemoryManager"* @_ZN11xalanc_1_1012XalanMemMgrs14getDummyMemMgrEv(), !dbg !2495
  call void @_ZN11xalanc_1_1014XalanDOMStringC1ERN11xercesc_2_713MemoryManagerE(%"class.xalanc_1_10::XalanDOMString"* @_ZL24ATTRVAL_ORDER_DESCENDING, %"class.xercesc_2_7::MemoryManager"* dereferenceable(8) %call), !dbg !2496
  %0 = call i32 @__cxa_atexit(void (i8*)* bitcast (void (%"class.xalanc_1_10::XalanDOMString"*)* @_ZN11xalanc_1_1014XalanDOMStringD2Ev to void (i8*)*), i8* bitcast (%"class.xalanc_1_10::XalanDOMString"* @_ZL24ATTRVAL_ORDER_DESCENDING to i8*), i8* @__dso_handle) #3, !dbg !2496
  ret void, !dbg !2495
}

; Function Attrs: noinline uwtable
define internal void @__cxx_global_var_init.75() #0 section ".text.startup" !dbg !2497 {
entry:
  %call = call dereferenceable(8) %"class.xercesc_2_7::MemoryManager"* @_ZN11xalanc_1_1012XalanMemMgrs14getDummyMemMgrEv(), !dbg !2498
  call void @_ZN11xalanc_1_1014XalanDOMStringC1ERN11xercesc_2_713MemoryManagerE(%"class.xalanc_1_10::XalanDOMString"* @_ZL26ATTRVAL_OUTPUT_METHOD_HTML, %"class.xercesc_2_7::MemoryManager"* dereferenceable(8) %call), !dbg !2499
  %0 = call i32 @__cxa_atexit(void (i8*)* bitcast (void (%"class.xalanc_1_10::XalanDOMString"*)* @_ZN11xalanc_1_1014XalanDOMStringD2Ev to void (i8*)*), i8* bitcast (%"class.xalanc_1_10::XalanDOMString"* @_ZL26ATTRVAL_OUTPUT_METHOD_HTML to i8*), i8* @__dso_handle) #3, !dbg !2499
  ret void, !dbg !2498
}

; Function Attrs: noinline uwtable
define internal void @__cxx_global_var_init.76() #0 section ".text.startup" !dbg !2500 {
entry:
  %call = call dereferenceable(8) %"class.xercesc_2_7::MemoryManager"* @_ZN11xalanc_1_1012XalanMemMgrs14getDummyMemMgrEv(), !dbg !2501
  call void @_ZN11xalanc_1_1014XalanDOMStringC1ERN11xercesc_2_713MemoryManagerE(%"class.xalanc_1_10::XalanDOMString"* @_ZL26ATTRVAL_OUTPUT_METHOD_TEXT, %"class.xercesc_2_7::MemoryManager"* dereferenceable(8) %call), !dbg !2502
  %0 = call i32 @__cxa_atexit(void (i8*)* bitcast (void (%"class.xalanc_1_10::XalanDOMString"*)* @_ZN11xalanc_1_1014XalanDOMStringD2Ev to void (i8*)*), i8* bitcast (%"class.xalanc_1_10::XalanDOMString"* @_ZL26ATTRVAL_OUTPUT_METHOD_TEXT to i8*), i8* @__dso_handle) #3, !dbg !2502
  ret void, !dbg !2501
}

; Function Attrs: noinline uwtable
define internal void @__cxx_global_var_init.77() #0 section ".text.startup" !dbg !2503 {
entry:
  %call = call dereferenceable(8) %"class.xercesc_2_7::MemoryManager"* @_ZN11xalanc_1_1012XalanMemMgrs14getDummyMemMgrEv(), !dbg !2504
  call void @_ZN11xalanc_1_1014XalanDOMStringC1ERN11xercesc_2_713MemoryManagerE(%"class.xalanc_1_10::XalanDOMString"* @_ZL25ATTRVAL_OUTPUT_METHOD_XML, %"class.xercesc_2_7::MemoryManager"* dereferenceable(8) %call), !dbg !2505
  %0 = call i32 @__cxa_atexit(void (i8*)* bitcast (void (%"class.xalanc_1_10::XalanDOMString"*)* @_ZN11xalanc_1_1014XalanDOMStringD2Ev to void (i8*)*), i8* bitcast (%"class.xalanc_1_10::XalanDOMString"* @_ZL25ATTRVAL_OUTPUT_METHOD_XML to i8*), i8* @__dso_handle) #3, !dbg !2505
  ret void, !dbg !2504
}

; Function Attrs: noinline uwtable
define internal void @__cxx_global_var_init.78() #0 section ".text.startup" !dbg !2506 {
entry:
  %call = call dereferenceable(8) %"class.xercesc_2_7::MemoryManager"* @_ZN11xalanc_1_1012XalanMemMgrs14getDummyMemMgrEv(), !dbg !2507
  call void @_ZN11xalanc_1_1014XalanDOMStringC1ERN11xercesc_2_713MemoryManagerE(%"class.xalanc_1_10::XalanDOMString"* @_ZL16ATTRVAL_PRESERVE, %"class.xercesc_2_7::MemoryManager"* dereferenceable(8) %call), !dbg !2508
  %0 = call i32 @__cxa_atexit(void (i8*)* bitcast (void (%"class.xalanc_1_10::XalanDOMString"*)* @_ZN11xalanc_1_1014XalanDOMStringD2Ev to void (i8*)*), i8* bitcast (%"class.xalanc_1_10::XalanDOMString"* @_ZL16ATTRVAL_PRESERVE to i8*), i8* @__dso_handle) #3, !dbg !2508
  ret void, !dbg !2507
}

; Function Attrs: noinline uwtable
define internal void @__cxx_global_var_init.79() #0 section ".text.startup" !dbg !2509 {
entry:
  %call = call dereferenceable(8) %"class.xercesc_2_7::MemoryManager"* @_ZN11xalanc_1_1012XalanMemMgrs14getDummyMemMgrEv(), !dbg !2510
  call void @_ZN11xalanc_1_1014XalanDOMStringC1ERN11xercesc_2_713MemoryManagerE(%"class.xalanc_1_10::XalanDOMString"* @_ZL14ATTRVAL_SIMPLE, %"class.xercesc_2_7::MemoryManager"* dereferenceable(8) %call), !dbg !2511
  %0 = call i32 @__cxa_atexit(void (i8*)* bitcast (void (%"class.xalanc_1_10::XalanDOMString"*)* @_ZN11xalanc_1_1014XalanDOMStringD2Ev to void (i8*)*), i8* bitcast (%"class.xalanc_1_10::XalanDOMString"* @_ZL14ATTRVAL_SIMPLE to i8*), i8* @__dso_handle) #3, !dbg !2511
  ret void, !dbg !2510
}

; Function Attrs: noinline uwtable
define internal void @__cxx_global_var_init.80() #0 section ".text.startup" !dbg !2512 {
entry:
  %call = call dereferenceable(8) %"class.xercesc_2_7::MemoryManager"* @_ZN11xalanc_1_1012XalanMemMgrs14getDummyMemMgrEv(), !dbg !2513
  call void @_ZN11xalanc_1_1014XalanDOMStringC1ERN11xercesc_2_713MemoryManagerE(%"class.xalanc_1_10::XalanDOMString"* @_ZL13ATTRVAL_STRIP, %"class.xercesc_2_7::MemoryManager"* dereferenceable(8) %call), !dbg !2514
  %0 = call i32 @__cxa_atexit(void (i8*)* bitcast (void (%"class.xalanc_1_10::XalanDOMString"*)* @_ZN11xalanc_1_1014XalanDOMStringD2Ev to void (i8*)*), i8* bitcast (%"class.xalanc_1_10::XalanDOMString"* @_ZL13ATTRVAL_STRIP to i8*), i8* @__dso_handle) #3, !dbg !2514
  ret void, !dbg !2513
}

; Function Attrs: noinline uwtable
define internal void @__cxx_global_var_init.81() #0 section ".text.startup" !dbg !2515 {
entry:
  %call = call dereferenceable(8) %"class.xercesc_2_7::MemoryManager"* @_ZN11xalanc_1_1012XalanMemMgrs14getDummyMemMgrEv(), !dbg !2516
  call void @_ZN11xalanc_1_1014XalanDOMStringC1ERN11xercesc_2_713MemoryManagerE(%"class.xalanc_1_10::XalanDOMString"* @_ZL12ATTRVAL_THIS, %"class.xercesc_2_7::MemoryManager"* dereferenceable(8) %call), !dbg !2517
  %0 = call i32 @__cxa_atexit(void (i8*)* bitcast (void (%"class.xalanc_1_10::XalanDOMString"*)* @_ZN11xalanc_1_1014XalanDOMStringD2Ev to void (i8*)*), i8* bitcast (%"class.xalanc_1_10::XalanDOMString"* @_ZL12ATTRVAL_THIS to i8*), i8* @__dso_handle) #3, !dbg !2517
  ret void, !dbg !2516
}

; Function Attrs: noinline uwtable
define internal void @__cxx_global_var_init.82() #0 section ".text.startup" !dbg !2518 {
entry:
  %call = call dereferenceable(8) %"class.xercesc_2_7::MemoryManager"* @_ZN11xalanc_1_1012XalanMemMgrs14getDummyMemMgrEv(), !dbg !2519
  call void @_ZN11xalanc_1_1014XalanDOMStringC1ERN11xercesc_2_713MemoryManagerE(%"class.xalanc_1_10::XalanDOMString"* @_ZL11ATTRVAL_YES, %"class.xercesc_2_7::MemoryManager"* dereferenceable(8) %call), !dbg !2520
  %0 = call i32 @__cxa_atexit(void (i8*)* bitcast (void (%"class.xalanc_1_10::XalanDOMString"*)* @_ZN11xalanc_1_1014XalanDOMStringD2Ev to void (i8*)*), i8* bitcast (%"class.xalanc_1_10::XalanDOMString"* @_ZL11ATTRVAL_YES to i8*), i8* @__dso_handle) #3, !dbg !2520
  ret void, !dbg !2519
}

; Function Attrs: noinline uwtable
define internal void @__cxx_global_var_init.83() #0 section ".text.startup" !dbg !2521 {
entry:
  %call = call dereferenceable(8) %"class.xercesc_2_7::MemoryManager"* @_ZN11xalanc_1_1012XalanMemMgrs14getDummyMemMgrEv(), !dbg !2522
  call void @_ZN11xalanc_1_1014XalanDOMStringC1ERN11xercesc_2_713MemoryManagerE(%"class.xalanc_1_10::XalanDOMString"* @_ZL35DEFAULT_WHITESPACE_SEPARATOR_STRING, %"class.xercesc_2_7::MemoryManager"* dereferenceable(8) %call), !dbg !2523
  %0 = call i32 @__cxa_atexit(void (i8*)* bitcast (void (%"class.xalanc_1_10::XalanDOMString"*)* @_ZN11xalanc_1_1014XalanDOMStringD2Ev to void (i8*)*), i8* bitcast (%"class.xalanc_1_10::XalanDOMString"* @_ZL35DEFAULT_WHITESPACE_SEPARATOR_STRING to i8*), i8* @__dso_handle) #3, !dbg !2523
  ret void, !dbg !2522
}

; Function Attrs: noinline uwtable
define internal void @__cxx_global_var_init.84() #0 section ".text.startup" !dbg !2524 {
entry:
  %call = call dereferenceable(8) %"class.xercesc_2_7::MemoryManager"* @_ZN11xalanc_1_1012XalanMemMgrs14getDummyMemMgrEv(), !dbg !2525
  call void @_ZN11xalanc_1_1014XalanDOMStringC1ERN11xercesc_2_713MemoryManagerE(%"class.xalanc_1_10::XalanDOMString"* @_ZL19ELEMNAME_ANY_STRING, %"class.xercesc_2_7::MemoryManager"* dereferenceable(8) %call), !dbg !2526
  %0 = call i32 @__cxa_atexit(void (i8*)* bitcast (void (%"class.xalanc_1_10::XalanDOMString"*)* @_ZN11xalanc_1_1014XalanDOMStringD2Ev to void (i8*)*), i8* bitcast (%"class.xalanc_1_10::XalanDOMString"* @_ZL19ELEMNAME_ANY_STRING to i8*), i8* @__dso_handle) #3, !dbg !2526
  ret void, !dbg !2525
}

; Function Attrs: noinline uwtable
define internal void @__cxx_global_var_init.85() #0 section ".text.startup" !dbg !2527 {
entry:
  %call = call dereferenceable(8) %"class.xercesc_2_7::MemoryManager"* @_ZN11xalanc_1_1012XalanMemMgrs14getDummyMemMgrEv(), !dbg !2528
  call void @_ZN11xalanc_1_1014XalanDOMStringC1ERN11xercesc_2_713MemoryManagerE(%"class.xalanc_1_10::XalanDOMString"* @_ZL41ELEMNAME_APPLY_IMPORTS_WITH_PREFIX_STRING, %"class.xercesc_2_7::MemoryManager"* dereferenceable(8) %call), !dbg !2529
  %0 = call i32 @__cxa_atexit(void (i8*)* bitcast (void (%"class.xalanc_1_10::XalanDOMString"*)* @_ZN11xalanc_1_1014XalanDOMStringD2Ev to void (i8*)*), i8* bitcast (%"class.xalanc_1_10::XalanDOMString"* @_ZL41ELEMNAME_APPLY_IMPORTS_WITH_PREFIX_STRING to i8*), i8* @__dso_handle) #3, !dbg !2529
  ret void, !dbg !2528
}

; Function Attrs: noinline uwtable
define internal void @__cxx_global_var_init.86() #0 section ".text.startup" !dbg !2530 {
entry:
  %call = call dereferenceable(8) %"class.xercesc_2_7::MemoryManager"* @_ZN11xalanc_1_1012XalanMemMgrs14getDummyMemMgrEv(), !dbg !2531
  call void @_ZN11xalanc_1_1014XalanDOMStringC1ERN11xercesc_2_713MemoryManagerE(%"class.xalanc_1_10::XalanDOMString"* @_ZL43ELEMNAME_APPLY_TEMPLATES_WITH_PREFIX_STRING, %"class.xercesc_2_7::MemoryManager"* dereferenceable(8) %call), !dbg !2532
  %0 = call i32 @__cxa_atexit(void (i8*)* bitcast (void (%"class.xalanc_1_10::XalanDOMString"*)* @_ZN11xalanc_1_1014XalanDOMStringD2Ev to void (i8*)*), i8* bitcast (%"class.xalanc_1_10::XalanDOMString"* @_ZL43ELEMNAME_APPLY_TEMPLATES_WITH_PREFIX_STRING to i8*), i8* @__dso_handle) #3, !dbg !2532
  ret void, !dbg !2531
}

; Function Attrs: noinline uwtable
define internal void @__cxx_global_var_init.87() #0 section ".text.startup" !dbg !2533 {
entry:
  %call = call dereferenceable(8) %"class.xercesc_2_7::MemoryManager"* @_ZN11xalanc_1_1012XalanMemMgrs14getDummyMemMgrEv(), !dbg !2534
  call void @_ZN11xalanc_1_1014XalanDOMStringC1ERN11xercesc_2_713MemoryManagerE(%"class.xalanc_1_10::XalanDOMString"* @_ZL40ELEMNAME_ATTRIBUTESET_WITH_PREFIX_STRING, %"class.xercesc_2_7::MemoryManager"* dereferenceable(8) %call), !dbg !2535
  %0 = call i32 @__cxa_atexit(void (i8*)* bitcast (void (%"class.xalanc_1_10::XalanDOMString"*)* @_ZN11xalanc_1_1014XalanDOMStringD2Ev to void (i8*)*), i8* bitcast (%"class.xalanc_1_10::XalanDOMString"* @_ZL40ELEMNAME_ATTRIBUTESET_WITH_PREFIX_STRING to i8*), i8* @__dso_handle) #3, !dbg !2535
  ret void, !dbg !2534
}

; Function Attrs: noinline uwtable
define internal void @__cxx_global_var_init.88() #0 section ".text.startup" !dbg !2536 {
entry:
  %call = call dereferenceable(8) %"class.xercesc_2_7::MemoryManager"* @_ZN11xalanc_1_1012XalanMemMgrs14getDummyMemMgrEv(), !dbg !2537
  call void @_ZN11xalanc_1_1014XalanDOMStringC1ERN11xercesc_2_713MemoryManagerE(%"class.xalanc_1_10::XalanDOMString"* @_ZL37ELEMNAME_ATTRIBUTE_WITH_PREFIX_STRING, %"class.xercesc_2_7::MemoryManager"* dereferenceable(8) %call), !dbg !2538
  %0 = call i32 @__cxa_atexit(void (i8*)* bitcast (void (%"class.xalanc_1_10::XalanDOMString"*)* @_ZN11xalanc_1_1014XalanDOMStringD2Ev to void (i8*)*), i8* bitcast (%"class.xalanc_1_10::XalanDOMString"* @_ZL37ELEMNAME_ATTRIBUTE_WITH_PREFIX_STRING to i8*), i8* @__dso_handle) #3, !dbg !2538
  ret void, !dbg !2537
}

; Function Attrs: noinline uwtable
define internal void @__cxx_global_var_init.89() #0 section ".text.startup" !dbg !2539 {
entry:
  %call = call dereferenceable(8) %"class.xercesc_2_7::MemoryManager"* @_ZN11xalanc_1_1012XalanMemMgrs14getDummyMemMgrEv(), !dbg !2540
  call void @_ZN11xalanc_1_1014XalanDOMStringC1ERN11xercesc_2_713MemoryManagerE(%"class.xalanc_1_10::XalanDOMString"* @_ZL40ELEMNAME_CALLTEMPLATE_WITH_PREFIX_STRING, %"class.xercesc_2_7::MemoryManager"* dereferenceable(8) %call), !dbg !2541
  %0 = call i32 @__cxa_atexit(void (i8*)* bitcast (void (%"class.xalanc_1_10::XalanDOMString"*)* @_ZN11xalanc_1_1014XalanDOMStringD2Ev to void (i8*)*), i8* bitcast (%"class.xalanc_1_10::XalanDOMString"* @_ZL40ELEMNAME_CALLTEMPLATE_WITH_PREFIX_STRING to i8*), i8* @__dso_handle) #3, !dbg !2541
  ret void, !dbg !2540
}

; Function Attrs: noinline uwtable
define internal void @__cxx_global_var_init.90() #0 section ".text.startup" !dbg !2542 {
entry:
  %call = call dereferenceable(8) %"class.xercesc_2_7::MemoryManager"* @_ZN11xalanc_1_1012XalanMemMgrs14getDummyMemMgrEv(), !dbg !2543
  call void @_ZN11xalanc_1_1014XalanDOMStringC1ERN11xercesc_2_713MemoryManagerE(%"class.xalanc_1_10::XalanDOMString"* @_ZL34ELEMNAME_CHOOSE_WITH_PREFIX_STRING, %"class.xercesc_2_7::MemoryManager"* dereferenceable(8) %call), !dbg !2544
  %0 = call i32 @__cxa_atexit(void (i8*)* bitcast (void (%"class.xalanc_1_10::XalanDOMString"*)* @_ZN11xalanc_1_1014XalanDOMStringD2Ev to void (i8*)*), i8* bitcast (%"class.xalanc_1_10::XalanDOMString"* @_ZL34ELEMNAME_CHOOSE_WITH_PREFIX_STRING to i8*), i8* @__dso_handle) #3, !dbg !2544
  ret void, !dbg !2543
}

; Function Attrs: noinline uwtable
define internal void @__cxx_global_var_init.91() #0 section ".text.startup" !dbg !2545 {
entry:
  %call = call dereferenceable(8) %"class.xercesc_2_7::MemoryManager"* @_ZN11xalanc_1_1012XalanMemMgrs14getDummyMemMgrEv(), !dbg !2546
  call void @_ZN11xalanc_1_1014XalanDOMStringC1ERN11xercesc_2_713MemoryManagerE(%"class.xalanc_1_10::XalanDOMString"* @_ZL35ELEMNAME_COMMENT_WITH_PREFIX_STRING, %"class.xercesc_2_7::MemoryManager"* dereferenceable(8) %call), !dbg !2547
  %0 = call i32 @__cxa_atexit(void (i8*)* bitcast (void (%"class.xalanc_1_10::XalanDOMString"*)* @_ZN11xalanc_1_1014XalanDOMStringD2Ev to void (i8*)*), i8* bitcast (%"class.xalanc_1_10::XalanDOMString"* @_ZL35ELEMNAME_COMMENT_WITH_PREFIX_STRING to i8*), i8* @__dso_handle) #3, !dbg !2547
  ret void, !dbg !2546
}

; Function Attrs: noinline uwtable
define internal void @__cxx_global_var_init.92() #0 section ".text.startup" !dbg !2548 {
entry:
  %call = call dereferenceable(8) %"class.xercesc_2_7::MemoryManager"* @_ZN11xalanc_1_1012XalanMemMgrs14getDummyMemMgrEv(), !dbg !2549
  call void @_ZN11xalanc_1_1014XalanDOMStringC1ERN11xercesc_2_713MemoryManagerE(%"class.xalanc_1_10::XalanDOMString"* @_ZL35ELEMNAME_COPY_OF_WITH_PREFIX_STRING, %"class.xercesc_2_7::MemoryManager"* dereferenceable(8) %call), !dbg !2550
  %0 = call i32 @__cxa_atexit(void (i8*)* bitcast (void (%"class.xalanc_1_10::XalanDOMString"*)* @_ZN11xalanc_1_1014XalanDOMStringD2Ev to void (i8*)*), i8* bitcast (%"class.xalanc_1_10::XalanDOMString"* @_ZL35ELEMNAME_COPY_OF_WITH_PREFIX_STRING to i8*), i8* @__dso_handle) #3, !dbg !2550
  ret void, !dbg !2549
}

; Function Attrs: noinline uwtable
define internal void @__cxx_global_var_init.93() #0 section ".text.startup" !dbg !2551 {
entry:
  %call = call dereferenceable(8) %"class.xercesc_2_7::MemoryManager"* @_ZN11xalanc_1_1012XalanMemMgrs14getDummyMemMgrEv(), !dbg !2552
  call void @_ZN11xalanc_1_1014XalanDOMStringC1ERN11xercesc_2_713MemoryManagerE(%"class.xalanc_1_10::XalanDOMString"* @_ZL32ELEMNAME_COPY_WITH_PREFIX_STRING, %"class.xercesc_2_7::MemoryManager"* dereferenceable(8) %call), !dbg !2553
  %0 = call i32 @__cxa_atexit(void (i8*)* bitcast (void (%"class.xalanc_1_10::XalanDOMString"*)* @_ZN11xalanc_1_1014XalanDOMStringD2Ev to void (i8*)*), i8* bitcast (%"class.xalanc_1_10::XalanDOMString"* @_ZL32ELEMNAME_COPY_WITH_PREFIX_STRING to i8*), i8* @__dso_handle) #3, !dbg !2553
  ret void, !dbg !2552
}

; Function Attrs: noinline uwtable
define internal void @__cxx_global_var_init.94() #0 section ".text.startup" !dbg !2554 {
entry:
  %call = call dereferenceable(8) %"class.xercesc_2_7::MemoryManager"* @_ZN11xalanc_1_1012XalanMemMgrs14getDummyMemMgrEv(), !dbg !2555
  call void @_ZN11xalanc_1_1014XalanDOMStringC1ERN11xercesc_2_713MemoryManagerE(%"class.xalanc_1_10::XalanDOMString"* @_ZL41ELEMNAME_DECIMALFORMAT_WITH_PREFIX_STRING, %"class.xercesc_2_7::MemoryManager"* dereferenceable(8) %call), !dbg !2556
  %0 = call i32 @__cxa_atexit(void (i8*)* bitcast (void (%"class.xalanc_1_10::XalanDOMString"*)* @_ZN11xalanc_1_1014XalanDOMStringD2Ev to void (i8*)*), i8* bitcast (%"class.xalanc_1_10::XalanDOMString"* @_ZL41ELEMNAME_DECIMALFORMAT_WITH_PREFIX_STRING to i8*), i8* @__dso_handle) #3, !dbg !2556
  ret void, !dbg !2555
}

; Function Attrs: noinline uwtable
define internal void @__cxx_global_var_init.95() #0 section ".text.startup" !dbg !2557 {
entry:
  %call = call dereferenceable(8) %"class.xercesc_2_7::MemoryManager"* @_ZN11xalanc_1_1012XalanMemMgrs14getDummyMemMgrEv(), !dbg !2558
  call void @_ZN11xalanc_1_1014XalanDOMStringC1ERN11xercesc_2_713MemoryManagerE(%"class.xalanc_1_10::XalanDOMString"* @_ZL25ELEMNAME_DISPLAYIF_STRING, %"class.xercesc_2_7::MemoryManager"* dereferenceable(8) %call), !dbg !2559
  %0 = call i32 @__cxa_atexit(void (i8*)* bitcast (void (%"class.xalanc_1_10::XalanDOMString"*)* @_ZN11xalanc_1_1014XalanDOMStringD2Ev to void (i8*)*), i8* bitcast (%"class.xalanc_1_10::XalanDOMString"* @_ZL25ELEMNAME_DISPLAYIF_STRING to i8*), i8* @__dso_handle) #3, !dbg !2559
  ret void, !dbg !2558
}

; Function Attrs: noinline uwtable
define internal void @__cxx_global_var_init.96() #0 section ".text.startup" !dbg !2560 {
entry:
  %call = call dereferenceable(8) %"class.xercesc_2_7::MemoryManager"* @_ZN11xalanc_1_1012XalanMemMgrs14getDummyMemMgrEv(), !dbg !2561
  call void @_ZN11xalanc_1_1014XalanDOMStringC1ERN11xercesc_2_713MemoryManagerE(%"class.xalanc_1_10::XalanDOMString"* @_ZL35ELEMNAME_ELEMENT_WITH_PREFIX_STRING, %"class.xercesc_2_7::MemoryManager"* dereferenceable(8) %call), !dbg !2562
  %0 = call i32 @__cxa_atexit(void (i8*)* bitcast (void (%"class.xalanc_1_10::XalanDOMString"*)* @_ZN11xalanc_1_1014XalanDOMStringD2Ev to void (i8*)*), i8* bitcast (%"class.xalanc_1_10::XalanDOMString"* @_ZL35ELEMNAME_ELEMENT_WITH_PREFIX_STRING to i8*), i8* @__dso_handle) #3, !dbg !2562
  ret void, !dbg !2561
}

; Function Attrs: noinline uwtable
define internal void @__cxx_global_var_init.97() #0 section ".text.startup" !dbg !2563 {
entry:
  %call = call dereferenceable(8) %"class.xercesc_2_7::MemoryManager"* @_ZN11xalanc_1_1012XalanMemMgrs14getDummyMemMgrEv(), !dbg !2564
  call void @_ZN11xalanc_1_1014XalanDOMStringC1ERN11xercesc_2_713MemoryManagerE(%"class.xalanc_1_10::XalanDOMString"* @_ZL36ELEMNAME_FALLBACK_WITH_PREFIX_STRING, %"class.xercesc_2_7::MemoryManager"* dereferenceable(8) %call), !dbg !2565
  %0 = call i32 @__cxa_atexit(void (i8*)* bitcast (void (%"class.xalanc_1_10::XalanDOMString"*)* @_ZN11xalanc_1_1014XalanDOMStringD2Ev to void (i8*)*), i8* bitcast (%"class.xalanc_1_10::XalanDOMString"* @_ZL36ELEMNAME_FALLBACK_WITH_PREFIX_STRING to i8*), i8* @__dso_handle) #3, !dbg !2565
  ret void, !dbg !2564
}

; Function Attrs: noinline uwtable
define internal void @__cxx_global_var_init.98() #0 section ".text.startup" !dbg !2566 {
entry:
  %call = call dereferenceable(8) %"class.xercesc_2_7::MemoryManager"* @_ZN11xalanc_1_1012XalanMemMgrs14getDummyMemMgrEv(), !dbg !2567
  call void @_ZN11xalanc_1_1014XalanDOMStringC1ERN11xercesc_2_713MemoryManagerE(%"class.xalanc_1_10::XalanDOMString"* @_ZL35ELEMNAME_FOREACH_WITH_PREFIX_STRING, %"class.xercesc_2_7::MemoryManager"* dereferenceable(8) %call), !dbg !2568
  %0 = call i32 @__cxa_atexit(void (i8*)* bitcast (void (%"class.xalanc_1_10::XalanDOMString"*)* @_ZN11xalanc_1_1014XalanDOMStringD2Ev to void (i8*)*), i8* bitcast (%"class.xalanc_1_10::XalanDOMString"* @_ZL35ELEMNAME_FOREACH_WITH_PREFIX_STRING to i8*), i8* @__dso_handle) #3, !dbg !2568
  ret void, !dbg !2567
}

; Function Attrs: noinline uwtable
define internal void @__cxx_global_var_init.99() #0 section ".text.startup" !dbg !2569 {
entry:
  %call = call dereferenceable(8) %"class.xercesc_2_7::MemoryManager"* @_ZN11xalanc_1_1012XalanMemMgrs14getDummyMemMgrEv(), !dbg !2570
  call void @_ZN11xalanc_1_1014XalanDOMStringC1ERN11xercesc_2_713MemoryManagerE(%"class.xalanc_1_10::XalanDOMString"* @_ZL20ELEMNAME_HTML_STRING, %"class.xercesc_2_7::MemoryManager"* dereferenceable(8) %call), !dbg !2571
  %0 = call i32 @__cxa_atexit(void (i8*)* bitcast (void (%"class.xalanc_1_10::XalanDOMString"*)* @_ZN11xalanc_1_1014XalanDOMStringD2Ev to void (i8*)*), i8* bitcast (%"class.xalanc_1_10::XalanDOMString"* @_ZL20ELEMNAME_HTML_STRING to i8*), i8* @__dso_handle) #3, !dbg !2571
  ret void, !dbg !2570
}

; Function Attrs: noinline uwtable
define internal void @__cxx_global_var_init.100() #0 section ".text.startup" !dbg !2572 {
entry:
  %call = call dereferenceable(8) %"class.xercesc_2_7::MemoryManager"* @_ZN11xalanc_1_1012XalanMemMgrs14getDummyMemMgrEv(), !dbg !2573
  call void @_ZN11xalanc_1_1014XalanDOMStringC1ERN11xercesc_2_713MemoryManagerE(%"class.xalanc_1_10::XalanDOMString"* @_ZL30ELEMNAME_IF_WITH_PREFIX_STRING, %"class.xercesc_2_7::MemoryManager"* dereferenceable(8) %call), !dbg !2574
  %0 = call i32 @__cxa_atexit(void (i8*)* bitcast (void (%"class.xalanc_1_10::XalanDOMString"*)* @_ZN11xalanc_1_1014XalanDOMStringD2Ev to void (i8*)*), i8* bitcast (%"class.xalanc_1_10::XalanDOMString"* @_ZL30ELEMNAME_IF_WITH_PREFIX_STRING to i8*), i8* @__dso_handle) #3, !dbg !2574
  ret void, !dbg !2573
}

; Function Attrs: noinline uwtable
define internal void @__cxx_global_var_init.101() #0 section ".text.startup" !dbg !2575 {
entry:
  %call = call dereferenceable(8) %"class.xercesc_2_7::MemoryManager"* @_ZN11xalanc_1_1012XalanMemMgrs14getDummyMemMgrEv(), !dbg !2576
  call void @_ZN11xalanc_1_1014XalanDOMStringC1ERN11xercesc_2_713MemoryManagerE(%"class.xalanc_1_10::XalanDOMString"* @_ZL34ELEMNAME_IMPORT_WITH_PREFIX_STRING, %"class.xercesc_2_7::MemoryManager"* dereferenceable(8) %call), !dbg !2577
  %0 = call i32 @__cxa_atexit(void (i8*)* bitcast (void (%"class.xalanc_1_10::XalanDOMString"*)* @_ZN11xalanc_1_1014XalanDOMStringD2Ev to void (i8*)*), i8* bitcast (%"class.xalanc_1_10::XalanDOMString"* @_ZL34ELEMNAME_IMPORT_WITH_PREFIX_STRING to i8*), i8* @__dso_handle) #3, !dbg !2577
  ret void, !dbg !2576
}

; Function Attrs: noinline uwtable
define internal void @__cxx_global_var_init.102() #0 section ".text.startup" !dbg !2578 {
entry:
  %call = call dereferenceable(8) %"class.xercesc_2_7::MemoryManager"* @_ZN11xalanc_1_1012XalanMemMgrs14getDummyMemMgrEv(), !dbg !2579
  call void @_ZN11xalanc_1_1014XalanDOMStringC1ERN11xercesc_2_713MemoryManagerE(%"class.xalanc_1_10::XalanDOMString"* @_ZL35ELEMNAME_INCLUDE_WITH_PREFIX_STRING, %"class.xercesc_2_7::MemoryManager"* dereferenceable(8) %call), !dbg !2580
  %0 = call i32 @__cxa_atexit(void (i8*)* bitcast (void (%"class.xalanc_1_10::XalanDOMString"*)* @_ZN11xalanc_1_1014XalanDOMStringD2Ev to void (i8*)*), i8* bitcast (%"class.xalanc_1_10::XalanDOMString"* @_ZL35ELEMNAME_INCLUDE_WITH_PREFIX_STRING to i8*), i8* @__dso_handle) #3, !dbg !2580
  ret void, !dbg !2579
}

; Function Attrs: noinline uwtable
define internal void @__cxx_global_var_init.103() #0 section ".text.startup" !dbg !2581 {
entry:
  %call = call dereferenceable(8) %"class.xercesc_2_7::MemoryManager"* @_ZN11xalanc_1_1012XalanMemMgrs14getDummyMemMgrEv(), !dbg !2582
  call void @_ZN11xalanc_1_1014XalanDOMStringC1ERN11xercesc_2_713MemoryManagerE(%"class.xalanc_1_10::XalanDOMString"* @_ZL31ELEMNAME_KEY_WITH_PREFIX_STRING, %"class.xercesc_2_7::MemoryManager"* dereferenceable(8) %call), !dbg !2583
  %0 = call i32 @__cxa_atexit(void (i8*)* bitcast (void (%"class.xalanc_1_10::XalanDOMString"*)* @_ZN11xalanc_1_1014XalanDOMStringD2Ev to void (i8*)*), i8* bitcast (%"class.xalanc_1_10::XalanDOMString"* @_ZL31ELEMNAME_KEY_WITH_PREFIX_STRING to i8*), i8* @__dso_handle) #3, !dbg !2583
  ret void, !dbg !2582
}

; Function Attrs: noinline uwtable
define internal void @__cxx_global_var_init.104() #0 section ".text.startup" !dbg !2584 {
entry:
  %call = call dereferenceable(8) %"class.xercesc_2_7::MemoryManager"* @_ZN11xalanc_1_1012XalanMemMgrs14getDummyMemMgrEv(), !dbg !2585
  call void @_ZN11xalanc_1_1014XalanDOMStringC1ERN11xercesc_2_713MemoryManagerE(%"class.xalanc_1_10::XalanDOMString"* @_ZL35ELEMNAME_MESSAGE_WITH_PREFIX_STRING, %"class.xercesc_2_7::MemoryManager"* dereferenceable(8) %call), !dbg !2586
  %0 = call i32 @__cxa_atexit(void (i8*)* bitcast (void (%"class.xalanc_1_10::XalanDOMString"*)* @_ZN11xalanc_1_1014XalanDOMStringD2Ev to void (i8*)*), i8* bitcast (%"class.xalanc_1_10::XalanDOMString"* @_ZL35ELEMNAME_MESSAGE_WITH_PREFIX_STRING to i8*), i8* @__dso_handle) #3, !dbg !2586
  ret void, !dbg !2585
}

; Function Attrs: noinline uwtable
define internal void @__cxx_global_var_init.105() #0 section ".text.startup" !dbg !2587 {
entry:
  %call = call dereferenceable(8) %"class.xercesc_2_7::MemoryManager"* @_ZN11xalanc_1_1012XalanMemMgrs14getDummyMemMgrEv(), !dbg !2588
  call void @_ZN11xalanc_1_1014XalanDOMStringC1ERN11xercesc_2_713MemoryManagerE(%"class.xalanc_1_10::XalanDOMString"* @_ZL34ELEMNAME_NUMBER_WITH_PREFIX_STRING, %"class.xercesc_2_7::MemoryManager"* dereferenceable(8) %call), !dbg !2589
  %0 = call i32 @__cxa_atexit(void (i8*)* bitcast (void (%"class.xalanc_1_10::XalanDOMString"*)* @_ZN11xalanc_1_1014XalanDOMStringD2Ev to void (i8*)*), i8* bitcast (%"class.xalanc_1_10::XalanDOMString"* @_ZL34ELEMNAME_NUMBER_WITH_PREFIX_STRING to i8*), i8* @__dso_handle) #3, !dbg !2589
  ret void, !dbg !2588
}

; Function Attrs: noinline uwtable
define internal void @__cxx_global_var_init.106() #0 section ".text.startup" !dbg !2590 {
entry:
  %call = call dereferenceable(8) %"class.xercesc_2_7::MemoryManager"* @_ZN11xalanc_1_1012XalanMemMgrs14getDummyMemMgrEv(), !dbg !2591
  call void @_ZN11xalanc_1_1014XalanDOMStringC1ERN11xercesc_2_713MemoryManagerE(%"class.xalanc_1_10::XalanDOMString"* @_ZL37ELEMNAME_OTHERWISE_WITH_PREFIX_STRING, %"class.xercesc_2_7::MemoryManager"* dereferenceable(8) %call), !dbg !2592
  %0 = call i32 @__cxa_atexit(void (i8*)* bitcast (void (%"class.xalanc_1_10::XalanDOMString"*)* @_ZN11xalanc_1_1014XalanDOMStringD2Ev to void (i8*)*), i8* bitcast (%"class.xalanc_1_10::XalanDOMString"* @_ZL37ELEMNAME_OTHERWISE_WITH_PREFIX_STRING to i8*), i8* @__dso_handle) #3, !dbg !2592
  ret void, !dbg !2591
}

; Function Attrs: noinline uwtable
define internal void @__cxx_global_var_init.107() #0 section ".text.startup" !dbg !2593 {
entry:
  %call = call dereferenceable(8) %"class.xercesc_2_7::MemoryManager"* @_ZN11xalanc_1_1012XalanMemMgrs14getDummyMemMgrEv(), !dbg !2594
  call void @_ZN11xalanc_1_1014XalanDOMStringC1ERN11xercesc_2_713MemoryManagerE(%"class.xalanc_1_10::XalanDOMString"* @_ZL33ELEMNAME_PARAM_WITH_PREFIX_STRING, %"class.xercesc_2_7::MemoryManager"* dereferenceable(8) %call), !dbg !2595
  %0 = call i32 @__cxa_atexit(void (i8*)* bitcast (void (%"class.xalanc_1_10::XalanDOMString"*)* @_ZN11xalanc_1_1014XalanDOMStringD2Ev to void (i8*)*), i8* bitcast (%"class.xalanc_1_10::XalanDOMString"* @_ZL33ELEMNAME_PARAM_WITH_PREFIX_STRING to i8*), i8* @__dso_handle) #3, !dbg !2595
  ret void, !dbg !2594
}

; Function Attrs: noinline uwtable
define internal void @__cxx_global_var_init.108() #0 section ".text.startup" !dbg !2596 {
entry:
  %call = call dereferenceable(8) %"class.xercesc_2_7::MemoryManager"* @_ZN11xalanc_1_1012XalanMemMgrs14getDummyMemMgrEv(), !dbg !2597
  call void @_ZN11xalanc_1_1014XalanDOMStringC1ERN11xercesc_2_713MemoryManagerE(%"class.xalanc_1_10::XalanDOMString"* @_ZL30ELEMNAME_PI_WITH_PREFIX_STRING, %"class.xercesc_2_7::MemoryManager"* dereferenceable(8) %call), !dbg !2598
  %0 = call i32 @__cxa_atexit(void (i8*)* bitcast (void (%"class.xalanc_1_10::XalanDOMString"*)* @_ZN11xalanc_1_1014XalanDOMStringD2Ev to void (i8*)*), i8* bitcast (%"class.xalanc_1_10::XalanDOMString"* @_ZL30ELEMNAME_PI_WITH_PREFIX_STRING to i8*), i8* @__dso_handle) #3, !dbg !2598
  ret void, !dbg !2597
}

; Function Attrs: noinline uwtable
define internal void @__cxx_global_var_init.109() #0 section ".text.startup" !dbg !2599 {
entry:
  %call = call dereferenceable(8) %"class.xercesc_2_7::MemoryManager"* @_ZN11xalanc_1_1012XalanMemMgrs14getDummyMemMgrEv(), !dbg !2600
  call void @_ZN11xalanc_1_1014XalanDOMStringC1ERN11xercesc_2_713MemoryManagerE(%"class.xalanc_1_10::XalanDOMString"* @_ZL41ELEMNAME_PRESERVESPACE_WITH_PREFIX_STRING, %"class.xercesc_2_7::MemoryManager"* dereferenceable(8) %call), !dbg !2601
  %0 = call i32 @__cxa_atexit(void (i8*)* bitcast (void (%"class.xalanc_1_10::XalanDOMString"*)* @_ZN11xalanc_1_1014XalanDOMStringD2Ev to void (i8*)*), i8* bitcast (%"class.xalanc_1_10::XalanDOMString"* @_ZL41ELEMNAME_PRESERVESPACE_WITH_PREFIX_STRING to i8*), i8* @__dso_handle) #3, !dbg !2601
  ret void, !dbg !2600
}

; Function Attrs: noinline uwtable
define internal void @__cxx_global_var_init.110() #0 section ".text.startup" !dbg !2602 {
entry:
  %call = call dereferenceable(8) %"class.xercesc_2_7::MemoryManager"* @_ZN11xalanc_1_1012XalanMemMgrs14getDummyMemMgrEv(), !dbg !2603
  call void @_ZN11xalanc_1_1014XalanDOMStringC1ERN11xercesc_2_713MemoryManagerE(%"class.xalanc_1_10::XalanDOMString"* @_ZL32ELEMNAME_SORT_WITH_PREFIX_STRING, %"class.xercesc_2_7::MemoryManager"* dereferenceable(8) %call), !dbg !2604
  %0 = call i32 @__cxa_atexit(void (i8*)* bitcast (void (%"class.xalanc_1_10::XalanDOMString"*)* @_ZN11xalanc_1_1014XalanDOMStringD2Ev to void (i8*)*), i8* bitcast (%"class.xalanc_1_10::XalanDOMString"* @_ZL32ELEMNAME_SORT_WITH_PREFIX_STRING to i8*), i8* @__dso_handle) #3, !dbg !2604
  ret void, !dbg !2603
}

; Function Attrs: noinline uwtable
define internal void @__cxx_global_var_init.111() #0 section ".text.startup" !dbg !2605 {
entry:
  %call = call dereferenceable(8) %"class.xercesc_2_7::MemoryManager"* @_ZN11xalanc_1_1012XalanMemMgrs14getDummyMemMgrEv(), !dbg !2606
  call void @_ZN11xalanc_1_1014XalanDOMStringC1ERN11xercesc_2_713MemoryManagerE(%"class.xalanc_1_10::XalanDOMString"* @_ZL38ELEMNAME_STRIPSPACE_WITH_PREFIX_STRING, %"class.xercesc_2_7::MemoryManager"* dereferenceable(8) %call), !dbg !2607
  %0 = call i32 @__cxa_atexit(void (i8*)* bitcast (void (%"class.xalanc_1_10::XalanDOMString"*)* @_ZN11xalanc_1_1014XalanDOMStringD2Ev to void (i8*)*), i8* bitcast (%"class.xalanc_1_10::XalanDOMString"* @_ZL38ELEMNAME_STRIPSPACE_WITH_PREFIX_STRING to i8*), i8* @__dso_handle) #3, !dbg !2607
  ret void, !dbg !2606
}

; Function Attrs: noinline uwtable
define internal void @__cxx_global_var_init.112() #0 section ".text.startup" !dbg !2608 {
entry:
  %call = call dereferenceable(8) %"class.xercesc_2_7::MemoryManager"* @_ZN11xalanc_1_1012XalanMemMgrs14getDummyMemMgrEv(), !dbg !2609
  call void @_ZN11xalanc_1_1014XalanDOMStringC1ERN11xercesc_2_713MemoryManagerE(%"class.xalanc_1_10::XalanDOMString"* @_ZL36ELEMNAME_TEMPLATE_WITH_PREFIX_STRING, %"class.xercesc_2_7::MemoryManager"* dereferenceable(8) %call), !dbg !2610
  %0 = call i32 @__cxa_atexit(void (i8*)* bitcast (void (%"class.xalanc_1_10::XalanDOMString"*)* @_ZN11xalanc_1_1014XalanDOMStringD2Ev to void (i8*)*), i8* bitcast (%"class.xalanc_1_10::XalanDOMString"* @_ZL36ELEMNAME_TEMPLATE_WITH_PREFIX_STRING to i8*), i8* @__dso_handle) #3, !dbg !2610
  ret void, !dbg !2609
}

; Function Attrs: noinline uwtable
define internal void @__cxx_global_var_init.113() #0 section ".text.startup" !dbg !2611 {
entry:
  %call = call dereferenceable(8) %"class.xercesc_2_7::MemoryManager"* @_ZN11xalanc_1_1012XalanMemMgrs14getDummyMemMgrEv(), !dbg !2612
  call void @_ZN11xalanc_1_1014XalanDOMStringC1ERN11xercesc_2_713MemoryManagerE(%"class.xalanc_1_10::XalanDOMString"* @_ZL32ELEMNAME_TEXT_WITH_PREFIX_STRING, %"class.xercesc_2_7::MemoryManager"* dereferenceable(8) %call), !dbg !2613
  %0 = call i32 @__cxa_atexit(void (i8*)* bitcast (void (%"class.xalanc_1_10::XalanDOMString"*)* @_ZN11xalanc_1_1014XalanDOMStringD2Ev to void (i8*)*), i8* bitcast (%"class.xalanc_1_10::XalanDOMString"* @_ZL32ELEMNAME_TEXT_WITH_PREFIX_STRING to i8*), i8* @__dso_handle) #3, !dbg !2613
  ret void, !dbg !2612
}

; Function Attrs: noinline uwtable
define internal void @__cxx_global_var_init.114() #0 section ".text.startup" !dbg !2614 {
entry:
  %call = call dereferenceable(8) %"class.xercesc_2_7::MemoryManager"* @_ZN11xalanc_1_1012XalanMemMgrs14getDummyMemMgrEv(), !dbg !2615
  call void @_ZN11xalanc_1_1014XalanDOMStringC1ERN11xercesc_2_713MemoryManagerE(%"class.xalanc_1_10::XalanDOMString"* @_ZL35ELEMNAME_VALUEOF_WITH_PREFIX_STRING, %"class.xercesc_2_7::MemoryManager"* dereferenceable(8) %call), !dbg !2616
  %0 = call i32 @__cxa_atexit(void (i8*)* bitcast (void (%"class.xalanc_1_10::XalanDOMString"*)* @_ZN11xalanc_1_1014XalanDOMStringD2Ev to void (i8*)*), i8* bitcast (%"class.xalanc_1_10::XalanDOMString"* @_ZL35ELEMNAME_VALUEOF_WITH_PREFIX_STRING to i8*), i8* @__dso_handle) #3, !dbg !2616
  ret void, !dbg !2615
}

; Function Attrs: noinline uwtable
define internal void @__cxx_global_var_init.115() #0 section ".text.startup" !dbg !2617 {
entry:
  %call = call dereferenceable(8) %"class.xercesc_2_7::MemoryManager"* @_ZN11xalanc_1_1012XalanMemMgrs14getDummyMemMgrEv(), !dbg !2618
  call void @_ZN11xalanc_1_1014XalanDOMStringC1ERN11xercesc_2_713MemoryManagerE(%"class.xalanc_1_10::XalanDOMString"* @_ZL36ELEMNAME_VARIABLE_WITH_PREFIX_STRING, %"class.xercesc_2_7::MemoryManager"* dereferenceable(8) %call), !dbg !2619
  %0 = call i32 @__cxa_atexit(void (i8*)* bitcast (void (%"class.xalanc_1_10::XalanDOMString"*)* @_ZN11xalanc_1_1014XalanDOMStringD2Ev to void (i8*)*), i8* bitcast (%"class.xalanc_1_10::XalanDOMString"* @_ZL36ELEMNAME_VARIABLE_WITH_PREFIX_STRING to i8*), i8* @__dso_handle) #3, !dbg !2619
  ret void, !dbg !2618
}

; Function Attrs: noinline uwtable
define internal void @__cxx_global_var_init.116() #0 section ".text.startup" !dbg !2620 {
entry:
  %call = call dereferenceable(8) %"class.xercesc_2_7::MemoryManager"* @_ZN11xalanc_1_1012XalanMemMgrs14getDummyMemMgrEv(), !dbg !2621
  call void @_ZN11xalanc_1_1014XalanDOMStringC1ERN11xercesc_2_713MemoryManagerE(%"class.xalanc_1_10::XalanDOMString"* @_ZL32ELEMNAME_WHEN_WITH_PREFIX_STRING, %"class.xercesc_2_7::MemoryManager"* dereferenceable(8) %call), !dbg !2622
  %0 = call i32 @__cxa_atexit(void (i8*)* bitcast (void (%"class.xalanc_1_10::XalanDOMString"*)* @_ZN11xalanc_1_1014XalanDOMStringD2Ev to void (i8*)*), i8* bitcast (%"class.xalanc_1_10::XalanDOMString"* @_ZL32ELEMNAME_WHEN_WITH_PREFIX_STRING to i8*), i8* @__dso_handle) #3, !dbg !2622
  ret void, !dbg !2621
}

; Function Attrs: noinline uwtable
define internal void @__cxx_global_var_init.117() #0 section ".text.startup" !dbg !2623 {
entry:
  %call = call dereferenceable(8) %"class.xercesc_2_7::MemoryManager"* @_ZN11xalanc_1_1012XalanMemMgrs14getDummyMemMgrEv(), !dbg !2624
  call void @_ZN11xalanc_1_1014XalanDOMStringC1ERN11xercesc_2_713MemoryManagerE(%"class.xalanc_1_10::XalanDOMString"* @_ZL37ELEMNAME_WITHPARAM_WITH_PREFIX_STRING, %"class.xercesc_2_7::MemoryManager"* dereferenceable(8) %call), !dbg !2625
  %0 = call i32 @__cxa_atexit(void (i8*)* bitcast (void (%"class.xalanc_1_10::XalanDOMString"*)* @_ZN11xalanc_1_1014XalanDOMStringD2Ev to void (i8*)*), i8* bitcast (%"class.xalanc_1_10::XalanDOMString"* @_ZL37ELEMNAME_WITHPARAM_WITH_PREFIX_STRING to i8*), i8* @__dso_handle) #3, !dbg !2625
  ret void, !dbg !2624
}

; Function Attrs: noinline uwtable
define internal void @__cxx_global_var_init.118() #0 section ".text.startup" !dbg !2626 {
entry:
  %call = call dereferenceable(8) %"class.xercesc_2_7::MemoryManager"* @_ZN11xalanc_1_1012XalanMemMgrs14getDummyMemMgrEv(), !dbg !2627
  call void @_ZN11xalanc_1_1014XalanDOMStringC1ERN11xercesc_2_713MemoryManagerE(%"class.xalanc_1_10::XalanDOMString"* @_ZL15PSEUDONAME_NODE, %"class.xercesc_2_7::MemoryManager"* dereferenceable(8) %call), !dbg !2628
  %0 = call i32 @__cxa_atexit(void (i8*)* bitcast (void (%"class.xalanc_1_10::XalanDOMString"*)* @_ZN11xalanc_1_1014XalanDOMStringD2Ev to void (i8*)*), i8* bitcast (%"class.xalanc_1_10::XalanDOMString"* @_ZL15PSEUDONAME_NODE to i8*), i8* @__dso_handle) #3, !dbg !2628
  ret void, !dbg !2627
}

; Function Attrs: noinline uwtable
define dso_local void @_ZN11xalanc_1_109Constants10initializeERN11xercesc_2_713MemoryManagerE(%"class.xercesc_2_7::MemoryManager"* dereferenceable(8) %theManager) #0 align 2 !dbg !2629 {
entry:
  %theManager.addr = alloca %"class.xercesc_2_7::MemoryManager"*, align 8
  store %"class.xercesc_2_7::MemoryManager"* %theManager, %"class.xercesc_2_7::MemoryManager"** %theManager.addr, align 8
  call void @llvm.dbg.declare(metadata %"class.xercesc_2_7::MemoryManager"** %theManager.addr, metadata !2630, metadata !DIExpression()), !dbg !2631
  %0 = load %"class.xercesc_2_7::MemoryManager"*, %"class.xercesc_2_7::MemoryManager"** %theManager.addr, align 8, !dbg !2632
  call void @_ZN11xalanc_1_1014XalanDOMString5resetERN11xercesc_2_713MemoryManagerEPKc(%"class.xalanc_1_10::XalanDOMString"* @_ZL18ATTRNAME_CASEORDER, %"class.xercesc_2_7::MemoryManager"* dereferenceable(8) %0, i8* getelementptr inbounds ([11 x i8], [11 x i8]* @.str, i64 0, i64 0)), !dbg !2633
  %1 = load %"class.xercesc_2_7::MemoryManager"*, %"class.xercesc_2_7::MemoryManager"** %theManager.addr, align 8, !dbg !2634
  call void @_ZN11xalanc_1_1014XalanDOMString5resetERN11xercesc_2_713MemoryManagerEPKc(%"class.xalanc_1_10::XalanDOMString"* @_ZL14ATTRNAME_COUNT, %"class.xercesc_2_7::MemoryManager"* dereferenceable(8) %1, i8* getelementptr inbounds ([6 x i8], [6 x i8]* @.str.119, i64 0, i64 0)), !dbg !2635
  %2 = load %"class.xercesc_2_7::MemoryManager"*, %"class.xercesc_2_7::MemoryManager"** %theManager.addr, align 8, !dbg !2636
  call void @_ZN11xalanc_1_1014XalanDOMString5resetERN11xercesc_2_713MemoryManagerEPKc(%"class.xalanc_1_10::XalanDOMString"* @_ZL17ATTRNAME_DATATYPE, %"class.xercesc_2_7::MemoryManager"* dereferenceable(8) %2, i8* getelementptr inbounds ([10 x i8], [10 x i8]* @.str.120, i64 0, i64 0)), !dbg !2637
  %3 = load %"class.xercesc_2_7::MemoryManager"*, %"class.xercesc_2_7::MemoryManager"** %theManager.addr, align 8, !dbg !2638
  call void @_ZN11xalanc_1_1014XalanDOMString5resetERN11xercesc_2_713MemoryManagerEPKc(%"class.xalanc_1_10::XalanDOMString"* @_ZL25ATTRNAME_DECIMALSEPARATOR, %"class.xercesc_2_7::MemoryManager"* dereferenceable(8) %3, i8* getelementptr inbounds ([18 x i8], [18 x i8]* @.str.121, i64 0, i64 0)), !dbg !2639
  %4 = load %"class.xercesc_2_7::MemoryManager"*, %"class.xercesc_2_7::MemoryManager"** %theManager.addr, align 8, !dbg !2640
  call void @_ZN11xalanc_1_1014XalanDOMString5resetERN11xercesc_2_713MemoryManagerEPKc(%"class.xalanc_1_10::XalanDOMString"* @_ZL16ATTRNAME_DEFAULT, %"class.xercesc_2_7::MemoryManager"* dereferenceable(8) %4, i8* getelementptr inbounds ([8 x i8], [8 x i8]* @.str.122, i64 0, i64 0)), !dbg !2641
  %5 = load %"class.xercesc_2_7::MemoryManager"*, %"class.xercesc_2_7::MemoryManager"** %theManager.addr, align 8, !dbg !2642
  call void @_ZN11xalanc_1_1014XalanDOMString5resetERN11xercesc_2_713MemoryManagerEPKc(%"class.xalanc_1_10::XalanDOMString"* @_ZL21ATTRNAME_DEFAULTSPACE, %"class.xercesc_2_7::MemoryManager"* dereferenceable(8) %5, i8* getelementptr inbounds ([14 x i8], [14 x i8]* @.str.123, i64 0, i64 0)), !dbg !2643
  %6 = load %"class.xercesc_2_7::MemoryManager"*, %"class.xercesc_2_7::MemoryManager"** %theManager.addr, align 8, !dbg !2644
  call void @_ZN11xalanc_1_1014XalanDOMString5resetERN11xercesc_2_713MemoryManagerEPKc(%"class.xalanc_1_10::XalanDOMString"* @_ZL14ATTRNAME_DIGIT, %"class.xercesc_2_7::MemoryManager"* dereferenceable(8) %6, i8* getelementptr inbounds ([6 x i8], [6 x i8]* @.str.124, i64 0, i64 0)), !dbg !2645
  %7 = load %"class.xercesc_2_7::MemoryManager"*, %"class.xercesc_2_7::MemoryManager"** %theManager.addr, align 8, !dbg !2646
  call void @_ZN11xalanc_1_1014XalanDOMString5resetERN11xercesc_2_713MemoryManagerEPKc(%"class.xalanc_1_10::XalanDOMString"* @_ZL22ATTRNAME_DIGITGROUPSEP, %"class.xercesc_2_7::MemoryManager"* dereferenceable(8) %7, i8* getelementptr inbounds ([16 x i8], [16 x i8]* @.str.125, i64 0, i64 0)), !dbg !2647
  %8 = load %"class.xercesc_2_7::MemoryManager"*, %"class.xercesc_2_7::MemoryManager"** %theManager.addr, align 8, !dbg !2648
  call void @_ZN11xalanc_1_1014XalanDOMString5resetERN11xercesc_2_713MemoryManagerEPKc(%"class.xalanc_1_10::XalanDOMString"* @_ZL32ATTRNAME_DISABLE_OUTPUT_ESCAPING, %"class.xercesc_2_7::MemoryManager"* dereferenceable(8) %8, i8* getelementptr inbounds ([24 x i8], [24 x i8]* @.str.126, i64 0, i64 0)), !dbg !2649
  %9 = load %"class.xercesc_2_7::MemoryManager"*, %"class.xercesc_2_7::MemoryManager"** %theManager.addr, align 8, !dbg !2650
  call void @_ZN11xalanc_1_1014XalanDOMString5resetERN11xercesc_2_713MemoryManagerEPKc(%"class.xalanc_1_10::XalanDOMString"* @_ZL17ATTRNAME_ELEMENTS, %"class.xercesc_2_7::MemoryManager"* dereferenceable(8) %9, i8* getelementptr inbounds ([9 x i8], [9 x i8]* @.str.127, i64 0, i64 0)), !dbg !2651
  %10 = load %"class.xercesc_2_7::MemoryManager"*, %"class.xercesc_2_7::MemoryManager"** %theManager.addr, align 8, !dbg !2652
  call void @_ZN11xalanc_1_1014XalanDOMString5resetERN11xercesc_2_713MemoryManagerEPKc(%"class.xalanc_1_10::XalanDOMString"* @_ZL20ATTRNAME_ESCAPE_URLS, %"class.xercesc_2_7::MemoryManager"* dereferenceable(8) %10, i8* getelementptr inbounds ([17 x i8], [17 x i8]* @.str.128, i64 0, i64 0)), !dbg !2653
  %11 = load %"class.xercesc_2_7::MemoryManager"*, %"class.xercesc_2_7::MemoryManager"** %theManager.addr, align 8, !dbg !2654
  call void @_ZN11xalanc_1_1014XalanDOMString5resetERN11xercesc_2_713MemoryManagerEPKc(%"class.xalanc_1_10::XalanDOMString"* @_ZL32ATTRNAME_EXCLUDE_RESULT_PREFIXES, %"class.xercesc_2_7::MemoryManager"* dereferenceable(8) %11, i8* getelementptr inbounds ([24 x i8], [24 x i8]* @.str.129, i64 0, i64 0)), !dbg !2655
  %12 = load %"class.xercesc_2_7::MemoryManager"*, %"class.xercesc_2_7::MemoryManager"** %theManager.addr, align 8, !dbg !2656
  call void @_ZN11xalanc_1_1014XalanDOMString5resetERN11xercesc_2_713MemoryManagerEPKc(%"class.xalanc_1_10::XalanDOMString"* @_ZL33ATTRNAME_EXTENSIONELEMENTPREFIXES, %"class.xercesc_2_7::MemoryManager"* dereferenceable(8) %12, i8* getelementptr inbounds ([27 x i8], [27 x i8]* @.str.130, i64 0, i64 0)), !dbg !2657
  %13 = load %"class.xercesc_2_7::MemoryManager"*, %"class.xercesc_2_7::MemoryManager"** %theManager.addr, align 8, !dbg !2658
  call void @_ZN11xalanc_1_1014XalanDOMString5resetERN11xercesc_2_713MemoryManagerEPKc(%"class.xalanc_1_10::XalanDOMString"* @_ZL15ATTRNAME_FORMAT, %"class.xercesc_2_7::MemoryManager"* dereferenceable(8) %13, i8* getelementptr inbounds ([7 x i8], [7 x i8]* @.str.131, i64 0, i64 0)), !dbg !2659
  %14 = load %"class.xercesc_2_7::MemoryManager"*, %"class.xercesc_2_7::MemoryManager"** %theManager.addr, align 8, !dbg !2660
  call void @_ZN11xalanc_1_1014XalanDOMString5resetERN11xercesc_2_713MemoryManagerEPKc(%"class.xalanc_1_10::XalanDOMString"* @_ZL13ATTRNAME_FROM, %"class.xercesc_2_7::MemoryManager"* dereferenceable(8) %14, i8* getelementptr inbounds ([5 x i8], [5 x i8]* @.str.132, i64 0, i64 0)), !dbg !2661
  %15 = load %"class.xercesc_2_7::MemoryManager"*, %"class.xercesc_2_7::MemoryManager"** %theManager.addr, align 8, !dbg !2662
  call void @_ZN11xalanc_1_1014XalanDOMString5resetERN11xercesc_2_713MemoryManagerEPKc(%"class.xalanc_1_10::XalanDOMString"* @_ZL26ATTRNAME_GROUPINGSEPARATOR, %"class.xercesc_2_7::MemoryManager"* dereferenceable(8) %15, i8* getelementptr inbounds ([19 x i8], [19 x i8]* @.str.133, i64 0, i64 0)), !dbg !2663
  %16 = load %"class.xercesc_2_7::MemoryManager"*, %"class.xercesc_2_7::MemoryManager"** %theManager.addr, align 8, !dbg !2664
  call void @_ZN11xalanc_1_1014XalanDOMString5resetERN11xercesc_2_713MemoryManagerEPKc(%"class.xalanc_1_10::XalanDOMString"* @_ZL21ATTRNAME_GROUPINGSIZE, %"class.xercesc_2_7::MemoryManager"* dereferenceable(8) %16, i8* getelementptr inbounds ([14 x i8], [14 x i8]* @.str.134, i64 0, i64 0)), !dbg !2665
  %17 = load %"class.xercesc_2_7::MemoryManager"*, %"class.xercesc_2_7::MemoryManager"** %theManager.addr, align 8, !dbg !2666
  call void @_ZN11xalanc_1_1014XalanDOMString5resetERN11xercesc_2_713MemoryManagerEPKc(%"class.xalanc_1_10::XalanDOMString"* @_ZL13ATTRNAME_HREF, %"class.xercesc_2_7::MemoryManager"* dereferenceable(8) %17, i8* getelementptr inbounds ([5 x i8], [5 x i8]* @.str.135, i64 0, i64 0)), !dbg !2667
  %18 = load %"class.xercesc_2_7::MemoryManager"*, %"class.xercesc_2_7::MemoryManager"** %theManager.addr, align 8, !dbg !2668
  call void @_ZN11xalanc_1_1014XalanDOMString5resetERN11xercesc_2_713MemoryManagerEPKc(%"class.xalanc_1_10::XalanDOMString"* @_ZL11ATTRNAME_ID, %"class.xercesc_2_7::MemoryManager"* dereferenceable(8) %18, i8* getelementptr inbounds ([3 x i8], [3 x i8]* @.str.136, i64 0, i64 0)), !dbg !2669
  %19 = load %"class.xercesc_2_7::MemoryManager"*, %"class.xercesc_2_7::MemoryManager"** %theManager.addr, align 8, !dbg !2670
  call void @_ZN11xalanc_1_1014XalanDOMString5resetERN11xercesc_2_713MemoryManagerEPKc(%"class.xalanc_1_10::XalanDOMString"* @_ZL21ATTRNAME_INDENTAMOUNT, %"class.xercesc_2_7::MemoryManager"* dereferenceable(8) %19, i8* getelementptr inbounds ([14 x i8], [14 x i8]* @.str.137, i64 0, i64 0)), !dbg !2671
  %20 = load %"class.xercesc_2_7::MemoryManager"*, %"class.xercesc_2_7::MemoryManager"** %theManager.addr, align 8, !dbg !2672
  call void @_ZN11xalanc_1_1014XalanDOMString5resetERN11xercesc_2_713MemoryManagerEPKc(%"class.xalanc_1_10::XalanDOMString"* @_ZL21ATTRNAME_INDENTRESULT, %"class.xercesc_2_7::MemoryManager"* dereferenceable(8) %20, i8* getelementptr inbounds ([14 x i8], [14 x i8]* @.str.138, i64 0, i64 0)), !dbg !2673
  %21 = load %"class.xercesc_2_7::MemoryManager"*, %"class.xercesc_2_7::MemoryManager"** %theManager.addr, align 8, !dbg !2674
  call void @_ZN11xalanc_1_1014XalanDOMString5resetERN11xercesc_2_713MemoryManagerEPKc(%"class.xalanc_1_10::XalanDOMString"* @_ZL17ATTRNAME_INFINITY, %"class.xercesc_2_7::MemoryManager"* dereferenceable(8) %21, i8* getelementptr inbounds ([9 x i8], [9 x i8]* @.str.139, i64 0, i64 0)), !dbg !2675
  %22 = load %"class.xercesc_2_7::MemoryManager"*, %"class.xercesc_2_7::MemoryManager"** %theManager.addr, align 8, !dbg !2676
  call void @_ZN11xalanc_1_1014XalanDOMString5resetERN11xercesc_2_713MemoryManagerEPKc(%"class.xalanc_1_10::XalanDOMString"* @_ZL13ATTRNAME_LANG, %"class.xercesc_2_7::MemoryManager"* dereferenceable(8) %22, i8* getelementptr inbounds ([5 x i8], [5 x i8]* @.str.140, i64 0, i64 0)), !dbg !2677
  %23 = load %"class.xercesc_2_7::MemoryManager"*, %"class.xercesc_2_7::MemoryManager"** %theManager.addr, align 8, !dbg !2678
  call void @_ZN11xalanc_1_1014XalanDOMString5resetERN11xercesc_2_713MemoryManagerEPKc(%"class.xalanc_1_10::XalanDOMString"* @_ZL20ATTRNAME_LETTERVALUE, %"class.xercesc_2_7::MemoryManager"* dereferenceable(8) %23, i8* getelementptr inbounds ([13 x i8], [13 x i8]* @.str.141, i64 0, i64 0)), !dbg !2679
  %24 = load %"class.xercesc_2_7::MemoryManager"*, %"class.xercesc_2_7::MemoryManager"** %theManager.addr, align 8, !dbg !2680
  call void @_ZN11xalanc_1_1014XalanDOMString5resetERN11xercesc_2_713MemoryManagerEPKc(%"class.xalanc_1_10::XalanDOMString"* @_ZL14ATTRNAME_MATCH, %"class.xercesc_2_7::MemoryManager"* dereferenceable(8) %24, i8* getelementptr inbounds ([6 x i8], [6 x i8]* @.str.142, i64 0, i64 0)), !dbg !2681
  %25 = load %"class.xercesc_2_7::MemoryManager"*, %"class.xercesc_2_7::MemoryManager"** %theManager.addr, align 8, !dbg !2682
  call void @_ZN11xalanc_1_1014XalanDOMString5resetERN11xercesc_2_713MemoryManagerEPKc(%"class.xalanc_1_10::XalanDOMString"* @_ZL18ATTRNAME_MINUSSIGN, %"class.xercesc_2_7::MemoryManager"* dereferenceable(8) %25, i8* getelementptr inbounds ([11 x i8], [11 x i8]* @.str.143, i64 0, i64 0)), !dbg !2683
  %26 = load %"class.xercesc_2_7::MemoryManager"*, %"class.xercesc_2_7::MemoryManager"** %theManager.addr, align 8, !dbg !2684
  call void @_ZN11xalanc_1_1014XalanDOMString5resetERN11xercesc_2_713MemoryManagerEPKc(%"class.xalanc_1_10::XalanDOMString"* @_ZL13ATTRNAME_MODE, %"class.xercesc_2_7::MemoryManager"* dereferenceable(8) %26, i8* getelementptr inbounds ([5 x i8], [5 x i8]* @.str.144, i64 0, i64 0)), !dbg !2685
  %27 = load %"class.xercesc_2_7::MemoryManager"*, %"class.xercesc_2_7::MemoryManager"** %theManager.addr, align 8, !dbg !2686
  call void @_ZN11xalanc_1_1014XalanDOMString5resetERN11xercesc_2_713MemoryManagerEPKc(%"class.xalanc_1_10::XalanDOMString"* @_ZL13ATTRNAME_NAME, %"class.xercesc_2_7::MemoryManager"* dereferenceable(8) %27, i8* getelementptr inbounds ([5 x i8], [5 x i8]* @.str.145, i64 0, i64 0)), !dbg !2687
  %28 = load %"class.xercesc_2_7::MemoryManager"*, %"class.xercesc_2_7::MemoryManager"** %theManager.addr, align 8, !dbg !2688
  call void @_ZN11xalanc_1_1014XalanDOMString5resetERN11xercesc_2_713MemoryManagerEPKc(%"class.xalanc_1_10::XalanDOMString"* @_ZL18ATTRNAME_NAMESPACE, %"class.xercesc_2_7::MemoryManager"* dereferenceable(8) %28, i8* getelementptr inbounds ([10 x i8], [10 x i8]* @.str.146, i64 0, i64 0)), !dbg !2689
  %29 = load %"class.xercesc_2_7::MemoryManager"*, %"class.xercesc_2_7::MemoryManager"** %theManager.addr, align 8, !dbg !2690
  call void @_ZN11xalanc_1_1014XalanDOMString5resetERN11xercesc_2_713MemoryManagerEPKc(%"class.xalanc_1_10::XalanDOMString"* @_ZL12ATTRNAME_NAN, %"class.xercesc_2_7::MemoryManager"* dereferenceable(8) %29, i8* getelementptr inbounds ([4 x i8], [4 x i8]* @.str.147, i64 0, i64 0)), !dbg !2691
  %30 = load %"class.xercesc_2_7::MemoryManager"*, %"class.xercesc_2_7::MemoryManager"** %theManager.addr, align 8, !dbg !2692
  call void @_ZN11xalanc_1_1014XalanDOMString5resetERN11xercesc_2_713MemoryManagerEPKc(%"class.xalanc_1_10::XalanDOMString"* @_ZL24ATTRNAME_NDIGITSPERGROUP, %"class.xercesc_2_7::MemoryManager"* dereferenceable(8) %30, i8* getelementptr inbounds ([19 x i8], [19 x i8]* @.str.148, i64 0, i64 0)), !dbg !2693
  %31 = load %"class.xercesc_2_7::MemoryManager"*, %"class.xercesc_2_7::MemoryManager"** %theManager.addr, align 8, !dbg !2694
  call void @_ZN11xalanc_1_1014XalanDOMString5resetERN11xercesc_2_713MemoryManagerEPKc(%"class.xalanc_1_10::XalanDOMString"* @_ZL22ATTRNAME_OMIT_META_TAG, %"class.xercesc_2_7::MemoryManager"* dereferenceable(8) %31, i8* getelementptr inbounds ([14 x i8], [14 x i8]* @.str.149, i64 0, i64 0)), !dbg !2695
  %32 = load %"class.xercesc_2_7::MemoryManager"*, %"class.xercesc_2_7::MemoryManager"** %theManager.addr, align 8, !dbg !2696
  call void @_ZN11xalanc_1_1014XalanDOMString5resetERN11xercesc_2_713MemoryManagerEPKc(%"class.xalanc_1_10::XalanDOMString"* @_ZL14ATTRNAME_ORDER, %"class.xercesc_2_7::MemoryManager"* dereferenceable(8) %32, i8* getelementptr inbounds ([6 x i8], [6 x i8]* @.str.150, i64 0, i64 0)), !dbg !2697
  %33 = load %"class.xercesc_2_7::MemoryManager"*, %"class.xercesc_2_7::MemoryManager"** %theManager.addr, align 8, !dbg !2698
  call void @_ZN11xalanc_1_1014XalanDOMString5resetERN11xercesc_2_713MemoryManagerEPKc(%"class.xalanc_1_10::XalanDOMString"* @_ZL38ATTRNAME_OUTPUT_CDATA_SECTION_ELEMENTS, %"class.xercesc_2_7::MemoryManager"* dereferenceable(8) %33, i8* getelementptr inbounds ([23 x i8], [23 x i8]* @.str.151, i64 0, i64 0)), !dbg !2699
  %34 = load %"class.xercesc_2_7::MemoryManager"*, %"class.xercesc_2_7::MemoryManager"** %theManager.addr, align 8, !dbg !2700
  call void @_ZN11xalanc_1_1014XalanDOMString5resetERN11xercesc_2_713MemoryManagerEPKc(%"class.xalanc_1_10::XalanDOMString"* @_ZL30ATTRNAME_OUTPUT_DOCTYPE_PUBLIC, %"class.xercesc_2_7::MemoryManager"* dereferenceable(8) %34, i8* getelementptr inbounds ([15 x i8], [15 x i8]* @.str.152, i64 0, i64 0)), !dbg !2701
  %35 = load %"class.xercesc_2_7::MemoryManager"*, %"class.xercesc_2_7::MemoryManager"** %theManager.addr, align 8, !dbg !2702
  call void @_ZN11xalanc_1_1014XalanDOMString5resetERN11xercesc_2_713MemoryManagerEPKc(%"class.xalanc_1_10::XalanDOMString"* @_ZL30ATTRNAME_OUTPUT_DOCTYPE_SYSTEM, %"class.xercesc_2_7::MemoryManager"* dereferenceable(8) %35, i8* getelementptr inbounds ([15 x i8], [15 x i8]* @.str.153, i64 0, i64 0)), !dbg !2703
  %36 = load %"class.xercesc_2_7::MemoryManager"*, %"class.xercesc_2_7::MemoryManager"** %theManager.addr, align 8, !dbg !2704
  call void @_ZN11xalanc_1_1014XalanDOMString5resetERN11xercesc_2_713MemoryManagerEPKc(%"class.xalanc_1_10::XalanDOMString"* @_ZL24ATTRNAME_OUTPUT_ENCODING, %"class.xercesc_2_7::MemoryManager"* dereferenceable(8) %36, i8* getelementptr inbounds ([9 x i8], [9 x i8]* @.str.154, i64 0, i64 0)), !dbg !2705
  %37 = load %"class.xercesc_2_7::MemoryManager"*, %"class.xercesc_2_7::MemoryManager"** %theManager.addr, align 8, !dbg !2706
  call void @_ZN11xalanc_1_1014XalanDOMString5resetERN11xercesc_2_713MemoryManagerEPKc(%"class.xalanc_1_10::XalanDOMString"* @_ZL22ATTRNAME_OUTPUT_INDENT, %"class.xercesc_2_7::MemoryManager"* dereferenceable(8) %37, i8* getelementptr inbounds ([7 x i8], [7 x i8]* @.str.155, i64 0, i64 0)), !dbg !2707
  %38 = load %"class.xercesc_2_7::MemoryManager"*, %"class.xercesc_2_7::MemoryManager"** %theManager.addr, align 8, !dbg !2708
  call void @_ZN11xalanc_1_1014XalanDOMString5resetERN11xercesc_2_713MemoryManagerEPKc(%"class.xalanc_1_10::XalanDOMString"* @_ZL25ATTRNAME_OUTPUT_MEDIATYPE, %"class.xercesc_2_7::MemoryManager"* dereferenceable(8) %38, i8* getelementptr inbounds ([11 x i8], [11 x i8]* @.str.156, i64 0, i64 0)), !dbg !2709
  %39 = load %"class.xercesc_2_7::MemoryManager"*, %"class.xercesc_2_7::MemoryManager"** %theManager.addr, align 8, !dbg !2710
  call void @_ZN11xalanc_1_1014XalanDOMString5resetERN11xercesc_2_713MemoryManagerEPKc(%"class.xalanc_1_10::XalanDOMString"* @_ZL22ATTRNAME_OUTPUT_METHOD, %"class.xercesc_2_7::MemoryManager"* dereferenceable(8) %39, i8* getelementptr inbounds ([7 x i8], [7 x i8]* @.str.157, i64 0, i64 0)), !dbg !2711
  %40 = load %"class.xercesc_2_7::MemoryManager"*, %"class.xercesc_2_7::MemoryManager"** %theManager.addr, align 8, !dbg !2712
  call void @_ZN11xalanc_1_1014XalanDOMString5resetERN11xercesc_2_713MemoryManagerEPKc(%"class.xalanc_1_10::XalanDOMString"* @_ZL27ATTRNAME_OUTPUT_OMITXMLDECL, %"class.xercesc_2_7::MemoryManager"* dereferenceable(8) %40, i8* getelementptr inbounds ([21 x i8], [21 x i8]* @.str.158, i64 0, i64 0)), !dbg !2713
  %41 = load %"class.xercesc_2_7::MemoryManager"*, %"class.xercesc_2_7::MemoryManager"** %theManager.addr, align 8, !dbg !2714
  call void @_ZN11xalanc_1_1014XalanDOMString5resetERN11xercesc_2_713MemoryManagerEPKc(%"class.xalanc_1_10::XalanDOMString"* @_ZL26ATTRNAME_OUTPUT_STANDALONE, %"class.xercesc_2_7::MemoryManager"* dereferenceable(8) %41, i8* getelementptr inbounds ([11 x i8], [11 x i8]* @.str.159, i64 0, i64 0)), !dbg !2715
  %42 = load %"class.xercesc_2_7::MemoryManager"*, %"class.xercesc_2_7::MemoryManager"** %theManager.addr, align 8, !dbg !2716
  call void @_ZN11xalanc_1_1014XalanDOMString5resetERN11xercesc_2_713MemoryManagerEPKc(%"class.xalanc_1_10::XalanDOMString"* @_ZL23ATTRNAME_OUTPUT_VERSION, %"class.xercesc_2_7::MemoryManager"* dereferenceable(8) %42, i8* getelementptr inbounds ([8 x i8], [8 x i8]* @.str.160, i64 0, i64 0)), !dbg !2717
  %43 = load %"class.xercesc_2_7::MemoryManager"*, %"class.xercesc_2_7::MemoryManager"** %theManager.addr, align 8, !dbg !2718
  call void @_ZN11xalanc_1_1014XalanDOMString5resetERN11xercesc_2_713MemoryManagerEPKc(%"class.xalanc_1_10::XalanDOMString"* @_ZL25ATTRNAME_PATTERNSEPARATOR, %"class.xercesc_2_7::MemoryManager"* dereferenceable(8) %43, i8* getelementptr inbounds ([18 x i8], [18 x i8]* @.str.161, i64 0, i64 0)), !dbg !2719
  %44 = load %"class.xercesc_2_7::MemoryManager"*, %"class.xercesc_2_7::MemoryManager"** %theManager.addr, align 8, !dbg !2720
  call void @_ZN11xalanc_1_1014XalanDOMString5resetERN11xercesc_2_713MemoryManagerEPKc(%"class.xalanc_1_10::XalanDOMString"* @_ZL16ATTRNAME_PERCENT, %"class.xercesc_2_7::MemoryManager"* dereferenceable(8) %44, i8* getelementptr inbounds ([8 x i8], [8 x i8]* @.str.162, i64 0, i64 0)), !dbg !2721
  %45 = load %"class.xercesc_2_7::MemoryManager"*, %"class.xercesc_2_7::MemoryManager"** %theManager.addr, align 8, !dbg !2722
  call void @_ZN11xalanc_1_1014XalanDOMString5resetERN11xercesc_2_713MemoryManagerEPKc(%"class.xalanc_1_10::XalanDOMString"* @_ZL17ATTRNAME_PERMILLE, %"class.xercesc_2_7::MemoryManager"* dereferenceable(8) %45, i8* getelementptr inbounds ([10 x i8], [10 x i8]* @.str.163, i64 0, i64 0)), !dbg !2723
  %46 = load %"class.xercesc_2_7::MemoryManager"*, %"class.xercesc_2_7::MemoryManager"** %theManager.addr, align 8, !dbg !2724
  call void @_ZN11xalanc_1_1014XalanDOMString5resetERN11xercesc_2_713MemoryManagerEPKc(%"class.xalanc_1_10::XalanDOMString"* @_ZL15ATTRNAME_PREFIX, %"class.xercesc_2_7::MemoryManager"* dereferenceable(8) %46, i8* getelementptr inbounds ([7 x i8], [7 x i8]* @.str.164, i64 0, i64 0)), !dbg !2725
  %47 = load %"class.xercesc_2_7::MemoryManager"*, %"class.xercesc_2_7::MemoryManager"** %theManager.addr, align 8, !dbg !2726
  call void @_ZN11xalanc_1_1014XalanDOMString5resetERN11xercesc_2_713MemoryManagerEPKc(%"class.xalanc_1_10::XalanDOMString"* @_ZL17ATTRNAME_PRIORITY, %"class.xercesc_2_7::MemoryManager"* dereferenceable(8) %47, i8* getelementptr inbounds ([9 x i8], [9 x i8]* @.str.165, i64 0, i64 0)), !dbg !2727
  %48 = load %"class.xercesc_2_7::MemoryManager"*, %"class.xercesc_2_7::MemoryManager"** %theManager.addr, align 8, !dbg !2728
  call void @_ZN11xalanc_1_1014XalanDOMString5resetERN11xercesc_2_713MemoryManagerEPKc(%"class.xalanc_1_10::XalanDOMString"* @_ZL17ATTRNAME_RESULTNS, %"class.xercesc_2_7::MemoryManager"* dereferenceable(8) %48, i8* getelementptr inbounds ([10 x i8], [10 x i8]* @.str.166, i64 0, i64 0)), !dbg !2729
  %49 = load %"class.xercesc_2_7::MemoryManager"*, %"class.xercesc_2_7::MemoryManager"** %theManager.addr, align 8, !dbg !2730
  call void @_ZN11xalanc_1_1014XalanDOMString5resetERN11xercesc_2_713MemoryManagerEPKc(%"class.xalanc_1_10::XalanDOMString"* @_ZL22ATTRNAME_RESULT_PREFIX, %"class.xercesc_2_7::MemoryManager"* dereferenceable(8) %49, i8* getelementptr inbounds ([14 x i8], [14 x i8]* @.str.167, i64 0, i64 0)), !dbg !2731
  %50 = load %"class.xercesc_2_7::MemoryManager"*, %"class.xercesc_2_7::MemoryManager"** %theManager.addr, align 8, !dbg !2732
  call void @_ZN11xalanc_1_1014XalanDOMString5resetERN11xercesc_2_713MemoryManagerEPKc(%"class.xalanc_1_10::XalanDOMString"* @_ZL15ATTRNAME_SELECT, %"class.xercesc_2_7::MemoryManager"* dereferenceable(8) %50, i8* getelementptr inbounds ([7 x i8], [7 x i8]* @.str.168, i64 0, i64 0)), !dbg !2733
  %51 = load %"class.xercesc_2_7::MemoryManager"*, %"class.xercesc_2_7::MemoryManager"** %theManager.addr, align 8, !dbg !2734
  call void @_ZN11xalanc_1_1014XalanDOMString5resetERN11xercesc_2_713MemoryManagerEPKc(%"class.xalanc_1_10::XalanDOMString"* @_ZL26ATTRNAME_STYLESHEET_PREFIX, %"class.xercesc_2_7::MemoryManager"* dereferenceable(8) %51, i8* getelementptr inbounds ([18 x i8], [18 x i8]* @.str.169, i64 0, i64 0)), !dbg !2735
  %52 = load %"class.xercesc_2_7::MemoryManager"*, %"class.xercesc_2_7::MemoryManager"** %theManager.addr, align 8, !dbg !2736
  call void @_ZN11xalanc_1_1014XalanDOMString5resetERN11xercesc_2_713MemoryManagerEPKc(%"class.xalanc_1_10::XalanDOMString"* @_ZL18ATTRNAME_TERMINATE, %"class.xercesc_2_7::MemoryManager"* dereferenceable(8) %52, i8* getelementptr inbounds ([10 x i8], [10 x i8]* @.str.170, i64 0, i64 0)), !dbg !2737
  %53 = load %"class.xercesc_2_7::MemoryManager"*, %"class.xercesc_2_7::MemoryManager"** %theManager.addr, align 8, !dbg !2738
  call void @_ZN11xalanc_1_1014XalanDOMString5resetERN11xercesc_2_713MemoryManagerEPKc(%"class.xalanc_1_10::XalanDOMString"* @_ZL13ATTRNAME_TEST, %"class.xercesc_2_7::MemoryManager"* dereferenceable(8) %53, i8* getelementptr inbounds ([5 x i8], [5 x i8]* @.str.171, i64 0, i64 0)), !dbg !2739
  %54 = load %"class.xercesc_2_7::MemoryManager"*, %"class.xercesc_2_7::MemoryManager"** %theManager.addr, align 8, !dbg !2740
  call void @_ZN11xalanc_1_1014XalanDOMString5resetERN11xercesc_2_713MemoryManagerEPKc(%"class.xalanc_1_10::XalanDOMString"* @_ZL13ATTRNAME_TYPE, %"class.xercesc_2_7::MemoryManager"* dereferenceable(8) %54, i8* getelementptr inbounds ([5 x i8], [5 x i8]* @.str.172, i64 0, i64 0)), !dbg !2741
  %55 = load %"class.xercesc_2_7::MemoryManager"*, %"class.xercesc_2_7::MemoryManager"** %theManager.addr, align 8, !dbg !2742
  call void @_ZN11xalanc_1_1014XalanDOMString5resetERN11xercesc_2_713MemoryManagerEPKc(%"class.xalanc_1_10::XalanDOMString"* @_ZL12ATTRNAME_USE, %"class.xercesc_2_7::MemoryManager"* dereferenceable(8) %55, i8* getelementptr inbounds ([4 x i8], [4 x i8]* @.str.173, i64 0, i64 0)), !dbg !2743
  %56 = load %"class.xercesc_2_7::MemoryManager"*, %"class.xercesc_2_7::MemoryManager"** %theManager.addr, align 8, !dbg !2744
  call void @_ZN11xalanc_1_1014XalanDOMString5resetERN11xercesc_2_713MemoryManagerEPKc(%"class.xalanc_1_10::XalanDOMString"* @_ZL25ATTRNAME_USEATTRIBUTESETS, %"class.xercesc_2_7::MemoryManager"* dereferenceable(8) %56, i8* getelementptr inbounds ([19 x i8], [19 x i8]* @.str.174, i64 0, i64 0)), !dbg !2745
  %57 = load %"class.xercesc_2_7::MemoryManager"*, %"class.xercesc_2_7::MemoryManager"** %theManager.addr, align 8, !dbg !2746
  call void @_ZN11xalanc_1_1014XalanDOMString5resetERN11xercesc_2_713MemoryManagerEPKc(%"class.xalanc_1_10::XalanDOMString"* @_ZL14ATTRNAME_VALUE, %"class.xercesc_2_7::MemoryManager"* dereferenceable(8) %57, i8* getelementptr inbounds ([6 x i8], [6 x i8]* @.str.175, i64 0, i64 0)), !dbg !2747
  %58 = load %"class.xercesc_2_7::MemoryManager"*, %"class.xercesc_2_7::MemoryManager"** %theManager.addr, align 8, !dbg !2748
  call void @_ZN11xalanc_1_1014XalanDOMString5resetERN11xercesc_2_713MemoryManagerEPKc(%"class.xalanc_1_10::XalanDOMString"* @_ZL16ATTRNAME_VERSION, %"class.xercesc_2_7::MemoryManager"* dereferenceable(8) %58, i8* getelementptr inbounds ([8 x i8], [8 x i8]* @.str.160, i64 0, i64 0)), !dbg !2749
  %59 = load %"class.xercesc_2_7::MemoryManager"*, %"class.xercesc_2_7::MemoryManager"** %theManager.addr, align 8, !dbg !2750
  call void @_ZN11xalanc_1_1014XalanDOMString5resetERN11xercesc_2_713MemoryManagerEPKc(%"class.xalanc_1_10::XalanDOMString"* @_ZL14ATTRNAME_SPACE, %"class.xercesc_2_7::MemoryManager"* dereferenceable(8) %59, i8* getelementptr inbounds ([6 x i8], [6 x i8]* @.str.176, i64 0, i64 0)), !dbg !2751
  %60 = load %"class.xercesc_2_7::MemoryManager"*, %"class.xercesc_2_7::MemoryManager"** %theManager.addr, align 8, !dbg !2752
  call void @_ZN11xalanc_1_1014XalanDOMString5resetERN11xercesc_2_713MemoryManagerEPKc(%"class.xalanc_1_10::XalanDOMString"* @_ZL17ATTRNAME_XMLSPACE, %"class.xercesc_2_7::MemoryManager"* dereferenceable(8) %60, i8* getelementptr inbounds ([10 x i8], [10 x i8]* @.str.177, i64 0, i64 0)), !dbg !2753
  %61 = load %"class.xercesc_2_7::MemoryManager"*, %"class.xercesc_2_7::MemoryManager"** %theManager.addr, align 8, !dbg !2754
  call void @_ZN11xalanc_1_1014XalanDOMString5resetERN11xercesc_2_713MemoryManagerEPKc(%"class.xalanc_1_10::XalanDOMString"* @_ZL18ATTRNAME_ZERODIGIT, %"class.xercesc_2_7::MemoryManager"* dereferenceable(8) %61, i8* getelementptr inbounds ([11 x i8], [11 x i8]* @.str.178, i64 0, i64 0)), !dbg !2755
  %62 = load %"class.xercesc_2_7::MemoryManager"*, %"class.xercesc_2_7::MemoryManager"** %theManager.addr, align 8, !dbg !2756
  call void @_ZN11xalanc_1_1014XalanDOMString5resetERN11xercesc_2_713MemoryManagerEPKc(%"class.xalanc_1_10::XalanDOMString"* @_ZL14ATTRTYPE_CDATA, %"class.xercesc_2_7::MemoryManager"* dereferenceable(8) %62, i8* getelementptr inbounds ([6 x i8], [6 x i8]* @.str.179, i64 0, i64 0)), !dbg !2757
  %63 = load %"class.xercesc_2_7::MemoryManager"*, %"class.xercesc_2_7::MemoryManager"** %theManager.addr, align 8, !dbg !2758
  call void @_ZN11xalanc_1_1014XalanDOMString5resetERN11xercesc_2_713MemoryManagerEPKc(%"class.xalanc_1_10::XalanDOMString"* @_ZL23ATTRVAL_CASEORDER_LOWER, %"class.xercesc_2_7::MemoryManager"* dereferenceable(8) %63, i8* getelementptr inbounds ([12 x i8], [12 x i8]* @.str.180, i64 0, i64 0)), !dbg !2759
  %64 = load %"class.xercesc_2_7::MemoryManager"*, %"class.xercesc_2_7::MemoryManager"** %theManager.addr, align 8, !dbg !2760
  call void @_ZN11xalanc_1_1014XalanDOMString5resetERN11xercesc_2_713MemoryManagerEPKc(%"class.xalanc_1_10::XalanDOMString"* @_ZL23ATTRVAL_CASEORDER_UPPER, %"class.xercesc_2_7::MemoryManager"* dereferenceable(8) %64, i8* getelementptr inbounds ([12 x i8], [12 x i8]* @.str.181, i64 0, i64 0)), !dbg !2761
  %65 = load %"class.xercesc_2_7::MemoryManager"*, %"class.xercesc_2_7::MemoryManager"** %theManager.addr, align 8, !dbg !2762
  call void @_ZN11xalanc_1_1014XalanDOMString5resetERN11xercesc_2_713MemoryManagerEPKc(%"class.xalanc_1_10::XalanDOMString"* @_ZL23ATTRVAL_DATATYPE_NUMBER, %"class.xercesc_2_7::MemoryManager"* dereferenceable(8) %65, i8* getelementptr inbounds ([7 x i8], [7 x i8]* @.str.182, i64 0, i64 0)), !dbg !2763
  %66 = load %"class.xercesc_2_7::MemoryManager"*, %"class.xercesc_2_7::MemoryManager"** %theManager.addr, align 8, !dbg !2764
  call void @_ZN11xalanc_1_1014XalanDOMString5resetERN11xercesc_2_713MemoryManagerEPKc(%"class.xalanc_1_10::XalanDOMString"* @_ZL21ATTRVAL_DATATYPE_TEXT, %"class.xercesc_2_7::MemoryManager"* dereferenceable(8) %66, i8* getelementptr inbounds ([5 x i8], [5 x i8]* @.str.183, i64 0, i64 0)), !dbg !2765
  %67 = load %"class.xercesc_2_7::MemoryManager"*, %"class.xercesc_2_7::MemoryManager"** %theManager.addr, align 8, !dbg !2766
  call void @_ZN11xalanc_1_1014XalanDOMString5resetERN11xercesc_2_713MemoryManagerEPKc(%"class.xalanc_1_10::XalanDOMString"* @_ZL15ATTRVAL_DEFAULT, %"class.xercesc_2_7::MemoryManager"* dereferenceable(8) %67, i8* getelementptr inbounds ([8 x i8], [8 x i8]* @.str.122, i64 0, i64 0)), !dbg !2767
  %68 = load %"class.xercesc_2_7::MemoryManager"*, %"class.xercesc_2_7::MemoryManager"** %theManager.addr, align 8, !dbg !2768
  call void @_ZN11xalanc_1_1014XalanDOMString5resetERN11xercesc_2_713MemoryManagerEPKc(%"class.xalanc_1_10::XalanDOMString"* @_ZL22ATTRVAL_DEFAULT_PREFIX, %"class.xercesc_2_7::MemoryManager"* dereferenceable(8) %68, i8* getelementptr inbounds ([9 x i8], [9 x i8]* @.str.184, i64 0, i64 0)), !dbg !2769
  %69 = load %"class.xercesc_2_7::MemoryManager"*, %"class.xercesc_2_7::MemoryManager"** %theManager.addr, align 8, !dbg !2770
  call void @_ZN11xalanc_1_1014XalanDOMString5resetERN11xercesc_2_713MemoryManagerEPKc(%"class.xalanc_1_10::XalanDOMString"* @_ZL25ATTRVAL_DEFAULT_TEXT_RULE, %"class.xercesc_2_7::MemoryManager"* dereferenceable(8) %69, i8* getelementptr inbounds ([12 x i8], [12 x i8]* @.str.185, i64 0, i64 0)), !dbg !2771
  %70 = load %"class.xercesc_2_7::MemoryManager"*, %"class.xercesc_2_7::MemoryManager"** %theManager.addr, align 8, !dbg !2772
  call void @_ZN11xalanc_1_1014XalanDOMString5resetERN11xercesc_2_713MemoryManagerEPKc(%"class.xalanc_1_10::XalanDOMString"* @_ZL16ATTRVAL_INFINITY, %"class.xercesc_2_7::MemoryManager"* dereferenceable(8) %70, i8* getelementptr inbounds ([9 x i8], [9 x i8]* @.str.186, i64 0, i64 0)), !dbg !2773
  %71 = load %"class.xercesc_2_7::MemoryManager"*, %"class.xercesc_2_7::MemoryManager"** %theManager.addr, align 8, !dbg !2774
  call void @_ZN11xalanc_1_1014XalanDOMString5resetERN11xercesc_2_713MemoryManagerEPKc(%"class.xalanc_1_10::XalanDOMString"* @_ZL11ATTRVAL_NAN, %"class.xercesc_2_7::MemoryManager"* dereferenceable(8) %71, i8* getelementptr inbounds ([4 x i8], [4 x i8]* @.str.147, i64 0, i64 0)), !dbg !2775
  %72 = load %"class.xercesc_2_7::MemoryManager"*, %"class.xercesc_2_7::MemoryManager"** %theManager.addr, align 8, !dbg !2776
  call void @_ZN11xalanc_1_1014XalanDOMString5resetERN11xercesc_2_713MemoryManagerEPKc(%"class.xalanc_1_10::XalanDOMString"* @_ZL10ATTRVAL_NO, %"class.xercesc_2_7::MemoryManager"* dereferenceable(8) %72, i8* getelementptr inbounds ([3 x i8], [3 x i8]* @.str.187, i64 0, i64 0)), !dbg !2777
  %73 = load %"class.xercesc_2_7::MemoryManager"*, %"class.xercesc_2_7::MemoryManager"** %theManager.addr, align 8, !dbg !2778
  call void @_ZN11xalanc_1_1014XalanDOMString5resetERN11xercesc_2_713MemoryManagerEPKc(%"class.xalanc_1_10::XalanDOMString"* @_ZL23ATTRVAL_ORDER_ASCENDING, %"class.xercesc_2_7::MemoryManager"* dereferenceable(8) %73, i8* getelementptr inbounds ([10 x i8], [10 x i8]* @.str.188, i64 0, i64 0)), !dbg !2779
  %74 = load %"class.xercesc_2_7::MemoryManager"*, %"class.xercesc_2_7::MemoryManager"** %theManager.addr, align 8, !dbg !2780
  call void @_ZN11xalanc_1_1014XalanDOMString5resetERN11xercesc_2_713MemoryManagerEPKc(%"class.xalanc_1_10::XalanDOMString"* @_ZL24ATTRVAL_ORDER_DESCENDING, %"class.xercesc_2_7::MemoryManager"* dereferenceable(8) %74, i8* getelementptr inbounds ([11 x i8], [11 x i8]* @.str.189, i64 0, i64 0)), !dbg !2781
  %75 = load %"class.xercesc_2_7::MemoryManager"*, %"class.xercesc_2_7::MemoryManager"** %theManager.addr, align 8, !dbg !2782
  call void @_ZN11xalanc_1_1014XalanDOMString5resetERN11xercesc_2_713MemoryManagerEPKc(%"class.xalanc_1_10::XalanDOMString"* @_ZL26ATTRVAL_OUTPUT_METHOD_HTML, %"class.xercesc_2_7::MemoryManager"* dereferenceable(8) %75, i8* getelementptr inbounds ([5 x i8], [5 x i8]* @.str.190, i64 0, i64 0)), !dbg !2783
  %76 = load %"class.xercesc_2_7::MemoryManager"*, %"class.xercesc_2_7::MemoryManager"** %theManager.addr, align 8, !dbg !2784
  call void @_ZN11xalanc_1_1014XalanDOMString5resetERN11xercesc_2_713MemoryManagerEPKc(%"class.xalanc_1_10::XalanDOMString"* @_ZL26ATTRVAL_OUTPUT_METHOD_TEXT, %"class.xercesc_2_7::MemoryManager"* dereferenceable(8) %76, i8* getelementptr inbounds ([5 x i8], [5 x i8]* @.str.183, i64 0, i64 0)), !dbg !2785
  %77 = load %"class.xercesc_2_7::MemoryManager"*, %"class.xercesc_2_7::MemoryManager"** %theManager.addr, align 8, !dbg !2786
  call void @_ZN11xalanc_1_1014XalanDOMString5resetERN11xercesc_2_713MemoryManagerEPKc(%"class.xalanc_1_10::XalanDOMString"* @_ZL25ATTRVAL_OUTPUT_METHOD_XML, %"class.xercesc_2_7::MemoryManager"* dereferenceable(8) %77, i8* getelementptr inbounds ([4 x i8], [4 x i8]* @.str.191, i64 0, i64 0)), !dbg !2787
  %78 = load %"class.xercesc_2_7::MemoryManager"*, %"class.xercesc_2_7::MemoryManager"** %theManager.addr, align 8, !dbg !2788
  call void @_ZN11xalanc_1_1014XalanDOMString5resetERN11xercesc_2_713MemoryManagerEPKc(%"class.xalanc_1_10::XalanDOMString"* @_ZL16ATTRVAL_PRESERVE, %"class.xercesc_2_7::MemoryManager"* dereferenceable(8) %78, i8* getelementptr inbounds ([9 x i8], [9 x i8]* @.str.192, i64 0, i64 0)), !dbg !2789
  %79 = load %"class.xercesc_2_7::MemoryManager"*, %"class.xercesc_2_7::MemoryManager"** %theManager.addr, align 8, !dbg !2790
  call void @_ZN11xalanc_1_1014XalanDOMString5resetERN11xercesc_2_713MemoryManagerEPKc(%"class.xalanc_1_10::XalanDOMString"* @_ZL14ATTRVAL_SIMPLE, %"class.xercesc_2_7::MemoryManager"* dereferenceable(8) %79, i8* getelementptr inbounds ([7 x i8], [7 x i8]* @.str.193, i64 0, i64 0)), !dbg !2791
  %80 = load %"class.xercesc_2_7::MemoryManager"*, %"class.xercesc_2_7::MemoryManager"** %theManager.addr, align 8, !dbg !2792
  call void @_ZN11xalanc_1_1014XalanDOMString5resetERN11xercesc_2_713MemoryManagerEPKc(%"class.xalanc_1_10::XalanDOMString"* @_ZL13ATTRVAL_STRIP, %"class.xercesc_2_7::MemoryManager"* dereferenceable(8) %80, i8* getelementptr inbounds ([6 x i8], [6 x i8]* @.str.194, i64 0, i64 0)), !dbg !2793
  %81 = load %"class.xercesc_2_7::MemoryManager"*, %"class.xercesc_2_7::MemoryManager"** %theManager.addr, align 8, !dbg !2794
  call void @_ZN11xalanc_1_1014XalanDOMString5resetERN11xercesc_2_713MemoryManagerEPKc(%"class.xalanc_1_10::XalanDOMString"* @_ZL12ATTRVAL_THIS, %"class.xercesc_2_7::MemoryManager"* dereferenceable(8) %81, i8* getelementptr inbounds ([2 x i8], [2 x i8]* @.str.195, i64 0, i64 0)), !dbg !2795
  %82 = load %"class.xercesc_2_7::MemoryManager"*, %"class.xercesc_2_7::MemoryManager"** %theManager.addr, align 8, !dbg !2796
  call void @_ZN11xalanc_1_1014XalanDOMString5resetERN11xercesc_2_713MemoryManagerEPKc(%"class.xalanc_1_10::XalanDOMString"* @_ZL11ATTRVAL_YES, %"class.xercesc_2_7::MemoryManager"* dereferenceable(8) %82, i8* getelementptr inbounds ([4 x i8], [4 x i8]* @.str.196, i64 0, i64 0)), !dbg !2797
  %83 = load %"class.xercesc_2_7::MemoryManager"*, %"class.xercesc_2_7::MemoryManager"** %theManager.addr, align 8, !dbg !2798
  call void @_ZN11xalanc_1_1014XalanDOMString5resetERN11xercesc_2_713MemoryManagerEPKc(%"class.xalanc_1_10::XalanDOMString"* @_ZL35DEFAULT_WHITESPACE_SEPARATOR_STRING, %"class.xercesc_2_7::MemoryManager"* dereferenceable(8) %83, i8* getelementptr inbounds ([5 x i8], [5 x i8]* @.str.197, i64 0, i64 0)), !dbg !2799
  %84 = load %"class.xercesc_2_7::MemoryManager"*, %"class.xercesc_2_7::MemoryManager"** %theManager.addr, align 8, !dbg !2800
  call void @_ZN11xalanc_1_1014XalanDOMString5resetERN11xercesc_2_713MemoryManagerEPKc(%"class.xalanc_1_10::XalanDOMString"* @_ZL19ELEMNAME_ANY_STRING, %"class.xercesc_2_7::MemoryManager"* dereferenceable(8) %84, i8* getelementptr inbounds ([4 x i8], [4 x i8]* @.str.198, i64 0, i64 0)), !dbg !2801
  %85 = load %"class.xercesc_2_7::MemoryManager"*, %"class.xercesc_2_7::MemoryManager"** %theManager.addr, align 8, !dbg !2802
  call void @_ZN11xalanc_1_1014XalanDOMString5resetERN11xercesc_2_713MemoryManagerEPKc(%"class.xalanc_1_10::XalanDOMString"* @_ZL41ELEMNAME_APPLY_IMPORTS_WITH_PREFIX_STRING, %"class.xercesc_2_7::MemoryManager"* dereferenceable(8) %85, i8* getelementptr inbounds ([18 x i8], [18 x i8]* @.str.199, i64 0, i64 0)), !dbg !2803
  %86 = load %"class.xercesc_2_7::MemoryManager"*, %"class.xercesc_2_7::MemoryManager"** %theManager.addr, align 8, !dbg !2804
  call void @_ZN11xalanc_1_1014XalanDOMString5resetERN11xercesc_2_713MemoryManagerEPKc(%"class.xalanc_1_10::XalanDOMString"* @_ZL43ELEMNAME_APPLY_TEMPLATES_WITH_PREFIX_STRING, %"class.xercesc_2_7::MemoryManager"* dereferenceable(8) %86, i8* getelementptr inbounds ([20 x i8], [20 x i8]* @.str.200, i64 0, i64 0)), !dbg !2805
  %87 = load %"class.xercesc_2_7::MemoryManager"*, %"class.xercesc_2_7::MemoryManager"** %theManager.addr, align 8, !dbg !2806
  call void @_ZN11xalanc_1_1014XalanDOMString5resetERN11xercesc_2_713MemoryManagerEPKc(%"class.xalanc_1_10::XalanDOMString"* @_ZL40ELEMNAME_ATTRIBUTESET_WITH_PREFIX_STRING, %"class.xercesc_2_7::MemoryManager"* dereferenceable(8) %87, i8* getelementptr inbounds ([18 x i8], [18 x i8]* @.str.201, i64 0, i64 0)), !dbg !2807
  %88 = load %"class.xercesc_2_7::MemoryManager"*, %"class.xercesc_2_7::MemoryManager"** %theManager.addr, align 8, !dbg !2808
  call void @_ZN11xalanc_1_1014XalanDOMString5resetERN11xercesc_2_713MemoryManagerEPKc(%"class.xalanc_1_10::XalanDOMString"* @_ZL37ELEMNAME_ATTRIBUTE_WITH_PREFIX_STRING, %"class.xercesc_2_7::MemoryManager"* dereferenceable(8) %88, i8* getelementptr inbounds ([14 x i8], [14 x i8]* @.str.202, i64 0, i64 0)), !dbg !2809
  %89 = load %"class.xercesc_2_7::MemoryManager"*, %"class.xercesc_2_7::MemoryManager"** %theManager.addr, align 8, !dbg !2810
  call void @_ZN11xalanc_1_1014XalanDOMString5resetERN11xercesc_2_713MemoryManagerEPKc(%"class.xalanc_1_10::XalanDOMString"* @_ZL40ELEMNAME_CALLTEMPLATE_WITH_PREFIX_STRING, %"class.xercesc_2_7::MemoryManager"* dereferenceable(8) %89, i8* getelementptr inbounds ([18 x i8], [18 x i8]* @.str.203, i64 0, i64 0)), !dbg !2811
  %90 = load %"class.xercesc_2_7::MemoryManager"*, %"class.xercesc_2_7::MemoryManager"** %theManager.addr, align 8, !dbg !2812
  call void @_ZN11xalanc_1_1014XalanDOMString5resetERN11xercesc_2_713MemoryManagerEPKc(%"class.xalanc_1_10::XalanDOMString"* @_ZL34ELEMNAME_CHOOSE_WITH_PREFIX_STRING, %"class.xercesc_2_7::MemoryManager"* dereferenceable(8) %90, i8* getelementptr inbounds ([11 x i8], [11 x i8]* @.str.204, i64 0, i64 0)), !dbg !2813
  %91 = load %"class.xercesc_2_7::MemoryManager"*, %"class.xercesc_2_7::MemoryManager"** %theManager.addr, align 8, !dbg !2814
  call void @_ZN11xalanc_1_1014XalanDOMString5resetERN11xercesc_2_713MemoryManagerEPKc(%"class.xalanc_1_10::XalanDOMString"* @_ZL35ELEMNAME_COMMENT_WITH_PREFIX_STRING, %"class.xercesc_2_7::MemoryManager"* dereferenceable(8) %91, i8* getelementptr inbounds ([12 x i8], [12 x i8]* @.str.205, i64 0, i64 0)), !dbg !2815
  %92 = load %"class.xercesc_2_7::MemoryManager"*, %"class.xercesc_2_7::MemoryManager"** %theManager.addr, align 8, !dbg !2816
  call void @_ZN11xalanc_1_1014XalanDOMString5resetERN11xercesc_2_713MemoryManagerEPKc(%"class.xalanc_1_10::XalanDOMString"* @_ZL35ELEMNAME_COPY_OF_WITH_PREFIX_STRING, %"class.xercesc_2_7::MemoryManager"* dereferenceable(8) %92, i8* getelementptr inbounds ([12 x i8], [12 x i8]* @.str.206, i64 0, i64 0)), !dbg !2817
  %93 = load %"class.xercesc_2_7::MemoryManager"*, %"class.xercesc_2_7::MemoryManager"** %theManager.addr, align 8, !dbg !2818
  call void @_ZN11xalanc_1_1014XalanDOMString5resetERN11xercesc_2_713MemoryManagerEPKc(%"class.xalanc_1_10::XalanDOMString"* @_ZL32ELEMNAME_COPY_WITH_PREFIX_STRING, %"class.xercesc_2_7::MemoryManager"* dereferenceable(8) %93, i8* getelementptr inbounds ([9 x i8], [9 x i8]* @.str.207, i64 0, i64 0)), !dbg !2819
  %94 = load %"class.xercesc_2_7::MemoryManager"*, %"class.xercesc_2_7::MemoryManager"** %theManager.addr, align 8, !dbg !2820
  call void @_ZN11xalanc_1_1014XalanDOMString5resetERN11xercesc_2_713MemoryManagerEPKc(%"class.xalanc_1_10::XalanDOMString"* @_ZL41ELEMNAME_DECIMALFORMAT_WITH_PREFIX_STRING, %"class.xercesc_2_7::MemoryManager"* dereferenceable(8) %94, i8* getelementptr inbounds ([19 x i8], [19 x i8]* @.str.208, i64 0, i64 0)), !dbg !2821
  %95 = load %"class.xercesc_2_7::MemoryManager"*, %"class.xercesc_2_7::MemoryManager"** %theManager.addr, align 8, !dbg !2822
  call void @_ZN11xalanc_1_1014XalanDOMString5resetERN11xercesc_2_713MemoryManagerEPKc(%"class.xalanc_1_10::XalanDOMString"* @_ZL25ELEMNAME_DISPLAYIF_STRING, %"class.xercesc_2_7::MemoryManager"* dereferenceable(8) %95, i8* getelementptr inbounds ([11 x i8], [11 x i8]* @.str.209, i64 0, i64 0)), !dbg !2823
  %96 = load %"class.xercesc_2_7::MemoryManager"*, %"class.xercesc_2_7::MemoryManager"** %theManager.addr, align 8, !dbg !2824
  call void @_ZN11xalanc_1_1014XalanDOMString5resetERN11xercesc_2_713MemoryManagerEPKc(%"class.xalanc_1_10::XalanDOMString"* @_ZL35ELEMNAME_ELEMENT_WITH_PREFIX_STRING, %"class.xercesc_2_7::MemoryManager"* dereferenceable(8) %96, i8* getelementptr inbounds ([12 x i8], [12 x i8]* @.str.210, i64 0, i64 0)), !dbg !2825
  %97 = load %"class.xercesc_2_7::MemoryManager"*, %"class.xercesc_2_7::MemoryManager"** %theManager.addr, align 8, !dbg !2826
  call void @_ZN11xalanc_1_1014XalanDOMString5resetERN11xercesc_2_713MemoryManagerEPKc(%"class.xalanc_1_10::XalanDOMString"* @_ZL36ELEMNAME_FALLBACK_WITH_PREFIX_STRING, %"class.xercesc_2_7::MemoryManager"* dereferenceable(8) %97, i8* getelementptr inbounds ([13 x i8], [13 x i8]* @.str.211, i64 0, i64 0)), !dbg !2827
  %98 = load %"class.xercesc_2_7::MemoryManager"*, %"class.xercesc_2_7::MemoryManager"** %theManager.addr, align 8, !dbg !2828
  call void @_ZN11xalanc_1_1014XalanDOMString5resetERN11xercesc_2_713MemoryManagerEPKc(%"class.xalanc_1_10::XalanDOMString"* @_ZL35ELEMNAME_FOREACH_WITH_PREFIX_STRING, %"class.xercesc_2_7::MemoryManager"* dereferenceable(8) %98, i8* getelementptr inbounds ([13 x i8], [13 x i8]* @.str.212, i64 0, i64 0)), !dbg !2829
  %99 = load %"class.xercesc_2_7::MemoryManager"*, %"class.xercesc_2_7::MemoryManager"** %theManager.addr, align 8, !dbg !2830
  call void @_ZN11xalanc_1_1014XalanDOMString5resetERN11xercesc_2_713MemoryManagerEPKc(%"class.xalanc_1_10::XalanDOMString"* @_ZL20ELEMNAME_HTML_STRING, %"class.xercesc_2_7::MemoryManager"* dereferenceable(8) %99, i8* getelementptr inbounds ([5 x i8], [5 x i8]* @.str.213, i64 0, i64 0)), !dbg !2831
  %100 = load %"class.xercesc_2_7::MemoryManager"*, %"class.xercesc_2_7::MemoryManager"** %theManager.addr, align 8, !dbg !2832
  call void @_ZN11xalanc_1_1014XalanDOMString5resetERN11xercesc_2_713MemoryManagerEPKc(%"class.xalanc_1_10::XalanDOMString"* @_ZL30ELEMNAME_IF_WITH_PREFIX_STRING, %"class.xercesc_2_7::MemoryManager"* dereferenceable(8) %100, i8* getelementptr inbounds ([7 x i8], [7 x i8]* @.str.214, i64 0, i64 0)), !dbg !2833
  %101 = load %"class.xercesc_2_7::MemoryManager"*, %"class.xercesc_2_7::MemoryManager"** %theManager.addr, align 8, !dbg !2834
  call void @_ZN11xalanc_1_1014XalanDOMString5resetERN11xercesc_2_713MemoryManagerEPKc(%"class.xalanc_1_10::XalanDOMString"* @_ZL34ELEMNAME_IMPORT_WITH_PREFIX_STRING, %"class.xercesc_2_7::MemoryManager"* dereferenceable(8) %101, i8* getelementptr inbounds ([11 x i8], [11 x i8]* @.str.215, i64 0, i64 0)), !dbg !2835
  %102 = load %"class.xercesc_2_7::MemoryManager"*, %"class.xercesc_2_7::MemoryManager"** %theManager.addr, align 8, !dbg !2836
  call void @_ZN11xalanc_1_1014XalanDOMString5resetERN11xercesc_2_713MemoryManagerEPKc(%"class.xalanc_1_10::XalanDOMString"* @_ZL35ELEMNAME_INCLUDE_WITH_PREFIX_STRING, %"class.xercesc_2_7::MemoryManager"* dereferenceable(8) %102, i8* getelementptr inbounds ([12 x i8], [12 x i8]* @.str.216, i64 0, i64 0)), !dbg !2837
  %103 = load %"class.xercesc_2_7::MemoryManager"*, %"class.xercesc_2_7::MemoryManager"** %theManager.addr, align 8, !dbg !2838
  call void @_ZN11xalanc_1_1014XalanDOMString5resetERN11xercesc_2_713MemoryManagerEPKc(%"class.xalanc_1_10::XalanDOMString"* @_ZL31ELEMNAME_KEY_WITH_PREFIX_STRING, %"class.xercesc_2_7::MemoryManager"* dereferenceable(8) %103, i8* getelementptr inbounds ([8 x i8], [8 x i8]* @.str.217, i64 0, i64 0)), !dbg !2839
  %104 = load %"class.xercesc_2_7::MemoryManager"*, %"class.xercesc_2_7::MemoryManager"** %theManager.addr, align 8, !dbg !2840
  call void @_ZN11xalanc_1_1014XalanDOMString5resetERN11xercesc_2_713MemoryManagerEPKc(%"class.xalanc_1_10::XalanDOMString"* @_ZL35ELEMNAME_MESSAGE_WITH_PREFIX_STRING, %"class.xercesc_2_7::MemoryManager"* dereferenceable(8) %104, i8* getelementptr inbounds ([12 x i8], [12 x i8]* @.str.218, i64 0, i64 0)), !dbg !2841
  %105 = load %"class.xercesc_2_7::MemoryManager"*, %"class.xercesc_2_7::MemoryManager"** %theManager.addr, align 8, !dbg !2842
  call void @_ZN11xalanc_1_1014XalanDOMString5resetERN11xercesc_2_713MemoryManagerEPKc(%"class.xalanc_1_10::XalanDOMString"* @_ZL34ELEMNAME_NUMBER_WITH_PREFIX_STRING, %"class.xercesc_2_7::MemoryManager"* dereferenceable(8) %105, i8* getelementptr inbounds ([11 x i8], [11 x i8]* @.str.219, i64 0, i64 0)), !dbg !2843
  %106 = load %"class.xercesc_2_7::MemoryManager"*, %"class.xercesc_2_7::MemoryManager"** %theManager.addr, align 8, !dbg !2844
  call void @_ZN11xalanc_1_1014XalanDOMString5resetERN11xercesc_2_713MemoryManagerEPKc(%"class.xalanc_1_10::XalanDOMString"* @_ZL37ELEMNAME_OTHERWISE_WITH_PREFIX_STRING, %"class.xercesc_2_7::MemoryManager"* dereferenceable(8) %106, i8* getelementptr inbounds ([14 x i8], [14 x i8]* @.str.220, i64 0, i64 0)), !dbg !2845
  %107 = load %"class.xercesc_2_7::MemoryManager"*, %"class.xercesc_2_7::MemoryManager"** %theManager.addr, align 8, !dbg !2846
  call void @_ZN11xalanc_1_1014XalanDOMString5resetERN11xercesc_2_713MemoryManagerEPKc(%"class.xalanc_1_10::XalanDOMString"* @_ZL33ELEMNAME_PARAM_WITH_PREFIX_STRING, %"class.xercesc_2_7::MemoryManager"* dereferenceable(8) %107, i8* getelementptr inbounds ([10 x i8], [10 x i8]* @.str.221, i64 0, i64 0)), !dbg !2847
  %108 = load %"class.xercesc_2_7::MemoryManager"*, %"class.xercesc_2_7::MemoryManager"** %theManager.addr, align 8, !dbg !2848
  call void @_ZN11xalanc_1_1014XalanDOMString5resetERN11xercesc_2_713MemoryManagerEPKc(%"class.xalanc_1_10::XalanDOMString"* @_ZL30ELEMNAME_PI_WITH_PREFIX_STRING, %"class.xercesc_2_7::MemoryManager"* dereferenceable(8) %108, i8* getelementptr inbounds ([27 x i8], [27 x i8]* @.str.222, i64 0, i64 0)), !dbg !2849
  %109 = load %"class.xercesc_2_7::MemoryManager"*, %"class.xercesc_2_7::MemoryManager"** %theManager.addr, align 8, !dbg !2850
  call void @_ZN11xalanc_1_1014XalanDOMString5resetERN11xercesc_2_713MemoryManagerEPKc(%"class.xalanc_1_10::XalanDOMString"* @_ZL41ELEMNAME_PRESERVESPACE_WITH_PREFIX_STRING, %"class.xercesc_2_7::MemoryManager"* dereferenceable(8) %109, i8* getelementptr inbounds ([19 x i8], [19 x i8]* @.str.223, i64 0, i64 0)), !dbg !2851
  %110 = load %"class.xercesc_2_7::MemoryManager"*, %"class.xercesc_2_7::MemoryManager"** %theManager.addr, align 8, !dbg !2852
  call void @_ZN11xalanc_1_1014XalanDOMString5resetERN11xercesc_2_713MemoryManagerEPKc(%"class.xalanc_1_10::XalanDOMString"* @_ZL32ELEMNAME_SORT_WITH_PREFIX_STRING, %"class.xercesc_2_7::MemoryManager"* dereferenceable(8) %110, i8* getelementptr inbounds ([9 x i8], [9 x i8]* @.str.224, i64 0, i64 0)), !dbg !2853
  %111 = load %"class.xercesc_2_7::MemoryManager"*, %"class.xercesc_2_7::MemoryManager"** %theManager.addr, align 8, !dbg !2854
  call void @_ZN11xalanc_1_1014XalanDOMString5resetERN11xercesc_2_713MemoryManagerEPKc(%"class.xalanc_1_10::XalanDOMString"* @_ZL38ELEMNAME_STRIPSPACE_WITH_PREFIX_STRING, %"class.xercesc_2_7::MemoryManager"* dereferenceable(8) %111, i8* getelementptr inbounds ([16 x i8], [16 x i8]* @.str.225, i64 0, i64 0)), !dbg !2855
  %112 = load %"class.xercesc_2_7::MemoryManager"*, %"class.xercesc_2_7::MemoryManager"** %theManager.addr, align 8, !dbg !2856
  call void @_ZN11xalanc_1_1014XalanDOMString5resetERN11xercesc_2_713MemoryManagerEPKc(%"class.xalanc_1_10::XalanDOMString"* @_ZL36ELEMNAME_TEMPLATE_WITH_PREFIX_STRING, %"class.xercesc_2_7::MemoryManager"* dereferenceable(8) %112, i8* getelementptr inbounds ([13 x i8], [13 x i8]* @.str.226, i64 0, i64 0)), !dbg !2857
  %113 = load %"class.xercesc_2_7::MemoryManager"*, %"class.xercesc_2_7::MemoryManager"** %theManager.addr, align 8, !dbg !2858
  call void @_ZN11xalanc_1_1014XalanDOMString5resetERN11xercesc_2_713MemoryManagerEPKc(%"class.xalanc_1_10::XalanDOMString"* @_ZL32ELEMNAME_TEXT_WITH_PREFIX_STRING, %"class.xercesc_2_7::MemoryManager"* dereferenceable(8) %113, i8* getelementptr inbounds ([9 x i8], [9 x i8]* @.str.227, i64 0, i64 0)), !dbg !2859
  %114 = load %"class.xercesc_2_7::MemoryManager"*, %"class.xercesc_2_7::MemoryManager"** %theManager.addr, align 8, !dbg !2860
  call void @_ZN11xalanc_1_1014XalanDOMString5resetERN11xercesc_2_713MemoryManagerEPKc(%"class.xalanc_1_10::XalanDOMString"* @_ZL35ELEMNAME_VALUEOF_WITH_PREFIX_STRING, %"class.xercesc_2_7::MemoryManager"* dereferenceable(8) %114, i8* getelementptr inbounds ([13 x i8], [13 x i8]* @.str.228, i64 0, i64 0)), !dbg !2861
  %115 = load %"class.xercesc_2_7::MemoryManager"*, %"class.xercesc_2_7::MemoryManager"** %theManager.addr, align 8, !dbg !2862
  call void @_ZN11xalanc_1_1014XalanDOMString5resetERN11xercesc_2_713MemoryManagerEPKc(%"class.xalanc_1_10::XalanDOMString"* @_ZL36ELEMNAME_VARIABLE_WITH_PREFIX_STRING, %"class.xercesc_2_7::MemoryManager"* dereferenceable(8) %115, i8* getelementptr inbounds ([13 x i8], [13 x i8]* @.str.229, i64 0, i64 0)), !dbg !2863
  %116 = load %"class.xercesc_2_7::MemoryManager"*, %"class.xercesc_2_7::MemoryManager"** %theManager.addr, align 8, !dbg !2864
  call void @_ZN11xalanc_1_1014XalanDOMString5resetERN11xercesc_2_713MemoryManagerEPKc(%"class.xalanc_1_10::XalanDOMString"* @_ZL32ELEMNAME_WHEN_WITH_PREFIX_STRING, %"class.xercesc_2_7::MemoryManager"* dereferenceable(8) %116, i8* getelementptr inbounds ([9 x i8], [9 x i8]* @.str.230, i64 0, i64 0)), !dbg !2865
  %117 = load %"class.xercesc_2_7::MemoryManager"*, %"class.xercesc_2_7::MemoryManager"** %theManager.addr, align 8, !dbg !2866
  call void @_ZN11xalanc_1_1014XalanDOMString5resetERN11xercesc_2_713MemoryManagerEPKc(%"class.xalanc_1_10::XalanDOMString"* @_ZL37ELEMNAME_WITHPARAM_WITH_PREFIX_STRING, %"class.xercesc_2_7::MemoryManager"* dereferenceable(8) %117, i8* getelementptr inbounds ([15 x i8], [15 x i8]* @.str.231, i64 0, i64 0)), !dbg !2867
  %118 = load %"class.xercesc_2_7::MemoryManager"*, %"class.xercesc_2_7::MemoryManager"** %theManager.addr, align 8, !dbg !2868
  call void @_ZN11xalanc_1_1014XalanDOMString5resetERN11xercesc_2_713MemoryManagerEPKc(%"class.xalanc_1_10::XalanDOMString"* @_ZL15PSEUDONAME_NODE, %"class.xercesc_2_7::MemoryManager"* dereferenceable(8) %118, i8* getelementptr inbounds ([7 x i8], [7 x i8]* @.str.232, i64 0, i64 0)), !dbg !2869
  ret void, !dbg !2870
}

; Function Attrs: nounwind readnone speculatable willreturn
declare void @llvm.dbg.declare(metadata, metadata, metadata) #4

declare dso_local void @_ZN11xalanc_1_1014XalanDOMString5resetERN11xercesc_2_713MemoryManagerEPKc(%"class.xalanc_1_10::XalanDOMString"*, %"class.xercesc_2_7::MemoryManager"* dereferenceable(8), i8*) #1

; Function Attrs: noinline uwtable
define dso_local void @_ZN11xalanc_1_109Constants9terminateEv() #0 align 2 !dbg !2871 {
entry:
  %theManager = alloca %"class.xercesc_2_7::MemoryManager"*, align 8
  call void @llvm.dbg.declare(metadata %"class.xercesc_2_7::MemoryManager"** %theManager, metadata !2872, metadata !DIExpression()), !dbg !2873
  %call = call dereferenceable(8) %"class.xercesc_2_7::MemoryManager"* @_ZN11xalanc_1_1012XalanMemMgrs14getDummyMemMgrEv(), !dbg !2874
  store %"class.xercesc_2_7::MemoryManager"* %call, %"class.xercesc_2_7::MemoryManager"** %theManager, align 8, !dbg !2873
  %0 = load %"class.xercesc_2_7::MemoryManager"*, %"class.xercesc_2_7::MemoryManager"** %theManager, align 8, !dbg !2875
  call void @_ZN11xalanc_1_1013releaseMemoryERNS_14XalanDOMStringERN11xercesc_2_713MemoryManagerE(%"class.xalanc_1_10::XalanDOMString"* dereferenceable(40) @_ZL18ATTRNAME_CASEORDER, %"class.xercesc_2_7::MemoryManager"* dereferenceable(8) %0), !dbg !2876
  %1 = load %"class.xercesc_2_7::MemoryManager"*, %"class.xercesc_2_7::MemoryManager"** %theManager, align 8, !dbg !2877
  call void @_ZN11xalanc_1_1013releaseMemoryERNS_14XalanDOMStringERN11xercesc_2_713MemoryManagerE(%"class.xalanc_1_10::XalanDOMString"* dereferenceable(40) @_ZL14ATTRNAME_COUNT, %"class.xercesc_2_7::MemoryManager"* dereferenceable(8) %1), !dbg !2878
  %2 = load %"class.xercesc_2_7::MemoryManager"*, %"class.xercesc_2_7::MemoryManager"** %theManager, align 8, !dbg !2879
  call void @_ZN11xalanc_1_1013releaseMemoryERNS_14XalanDOMStringERN11xercesc_2_713MemoryManagerE(%"class.xalanc_1_10::XalanDOMString"* dereferenceable(40) @_ZL17ATTRNAME_DATATYPE, %"class.xercesc_2_7::MemoryManager"* dereferenceable(8) %2), !dbg !2880
  %3 = load %"class.xercesc_2_7::MemoryManager"*, %"class.xercesc_2_7::MemoryManager"** %theManager, align 8, !dbg !2881
  call void @_ZN11xalanc_1_1013releaseMemoryERNS_14XalanDOMStringERN11xercesc_2_713MemoryManagerE(%"class.xalanc_1_10::XalanDOMString"* dereferenceable(40) @_ZL25ATTRNAME_DECIMALSEPARATOR, %"class.xercesc_2_7::MemoryManager"* dereferenceable(8) %3), !dbg !2882
  %4 = load %"class.xercesc_2_7::MemoryManager"*, %"class.xercesc_2_7::MemoryManager"** %theManager, align 8, !dbg !2883
  call void @_ZN11xalanc_1_1013releaseMemoryERNS_14XalanDOMStringERN11xercesc_2_713MemoryManagerE(%"class.xalanc_1_10::XalanDOMString"* dereferenceable(40) @_ZL16ATTRNAME_DEFAULT, %"class.xercesc_2_7::MemoryManager"* dereferenceable(8) %4), !dbg !2884
  %5 = load %"class.xercesc_2_7::MemoryManager"*, %"class.xercesc_2_7::MemoryManager"** %theManager, align 8, !dbg !2885
  call void @_ZN11xalanc_1_1013releaseMemoryERNS_14XalanDOMStringERN11xercesc_2_713MemoryManagerE(%"class.xalanc_1_10::XalanDOMString"* dereferenceable(40) @_ZL21ATTRNAME_DEFAULTSPACE, %"class.xercesc_2_7::MemoryManager"* dereferenceable(8) %5), !dbg !2886
  %6 = load %"class.xercesc_2_7::MemoryManager"*, %"class.xercesc_2_7::MemoryManager"** %theManager, align 8, !dbg !2887
  call void @_ZN11xalanc_1_1013releaseMemoryERNS_14XalanDOMStringERN11xercesc_2_713MemoryManagerE(%"class.xalanc_1_10::XalanDOMString"* dereferenceable(40) @_ZL14ATTRNAME_DIGIT, %"class.xercesc_2_7::MemoryManager"* dereferenceable(8) %6), !dbg !2888
  %7 = load %"class.xercesc_2_7::MemoryManager"*, %"class.xercesc_2_7::MemoryManager"** %theManager, align 8, !dbg !2889
  call void @_ZN11xalanc_1_1013releaseMemoryERNS_14XalanDOMStringERN11xercesc_2_713MemoryManagerE(%"class.xalanc_1_10::XalanDOMString"* dereferenceable(40) @_ZL22ATTRNAME_DIGITGROUPSEP, %"class.xercesc_2_7::MemoryManager"* dereferenceable(8) %7), !dbg !2890
  %8 = load %"class.xercesc_2_7::MemoryManager"*, %"class.xercesc_2_7::MemoryManager"** %theManager, align 8, !dbg !2891
  call void @_ZN11xalanc_1_1013releaseMemoryERNS_14XalanDOMStringERN11xercesc_2_713MemoryManagerE(%"class.xalanc_1_10::XalanDOMString"* dereferenceable(40) @_ZL32ATTRNAME_DISABLE_OUTPUT_ESCAPING, %"class.xercesc_2_7::MemoryManager"* dereferenceable(8) %8), !dbg !2892
  %9 = load %"class.xercesc_2_7::MemoryManager"*, %"class.xercesc_2_7::MemoryManager"** %theManager, align 8, !dbg !2893
  call void @_ZN11xalanc_1_1013releaseMemoryERNS_14XalanDOMStringERN11xercesc_2_713MemoryManagerE(%"class.xalanc_1_10::XalanDOMString"* dereferenceable(40) @_ZL17ATTRNAME_ELEMENTS, %"class.xercesc_2_7::MemoryManager"* dereferenceable(8) %9), !dbg !2894
  %10 = load %"class.xercesc_2_7::MemoryManager"*, %"class.xercesc_2_7::MemoryManager"** %theManager, align 8, !dbg !2895
  call void @_ZN11xalanc_1_1013releaseMemoryERNS_14XalanDOMStringERN11xercesc_2_713MemoryManagerE(%"class.xalanc_1_10::XalanDOMString"* dereferenceable(40) @_ZL20ATTRNAME_ESCAPE_URLS, %"class.xercesc_2_7::MemoryManager"* dereferenceable(8) %10), !dbg !2896
  %11 = load %"class.xercesc_2_7::MemoryManager"*, %"class.xercesc_2_7::MemoryManager"** %theManager, align 8, !dbg !2897
  call void @_ZN11xalanc_1_1013releaseMemoryERNS_14XalanDOMStringERN11xercesc_2_713MemoryManagerE(%"class.xalanc_1_10::XalanDOMString"* dereferenceable(40) @_ZL32ATTRNAME_EXCLUDE_RESULT_PREFIXES, %"class.xercesc_2_7::MemoryManager"* dereferenceable(8) %11), !dbg !2898
  %12 = load %"class.xercesc_2_7::MemoryManager"*, %"class.xercesc_2_7::MemoryManager"** %theManager, align 8, !dbg !2899
  call void @_ZN11xalanc_1_1013releaseMemoryERNS_14XalanDOMStringERN11xercesc_2_713MemoryManagerE(%"class.xalanc_1_10::XalanDOMString"* dereferenceable(40) @_ZL33ATTRNAME_EXTENSIONELEMENTPREFIXES, %"class.xercesc_2_7::MemoryManager"* dereferenceable(8) %12), !dbg !2900
  %13 = load %"class.xercesc_2_7::MemoryManager"*, %"class.xercesc_2_7::MemoryManager"** %theManager, align 8, !dbg !2901
  call void @_ZN11xalanc_1_1013releaseMemoryERNS_14XalanDOMStringERN11xercesc_2_713MemoryManagerE(%"class.xalanc_1_10::XalanDOMString"* dereferenceable(40) @_ZL15ATTRNAME_FORMAT, %"class.xercesc_2_7::MemoryManager"* dereferenceable(8) %13), !dbg !2902
  %14 = load %"class.xercesc_2_7::MemoryManager"*, %"class.xercesc_2_7::MemoryManager"** %theManager, align 8, !dbg !2903
  call void @_ZN11xalanc_1_1013releaseMemoryERNS_14XalanDOMStringERN11xercesc_2_713MemoryManagerE(%"class.xalanc_1_10::XalanDOMString"* dereferenceable(40) @_ZL13ATTRNAME_FROM, %"class.xercesc_2_7::MemoryManager"* dereferenceable(8) %14), !dbg !2904
  %15 = load %"class.xercesc_2_7::MemoryManager"*, %"class.xercesc_2_7::MemoryManager"** %theManager, align 8, !dbg !2905
  call void @_ZN11xalanc_1_1013releaseMemoryERNS_14XalanDOMStringERN11xercesc_2_713MemoryManagerE(%"class.xalanc_1_10::XalanDOMString"* dereferenceable(40) @_ZL26ATTRNAME_GROUPINGSEPARATOR, %"class.xercesc_2_7::MemoryManager"* dereferenceable(8) %15), !dbg !2906
  %16 = load %"class.xercesc_2_7::MemoryManager"*, %"class.xercesc_2_7::MemoryManager"** %theManager, align 8, !dbg !2907
  call void @_ZN11xalanc_1_1013releaseMemoryERNS_14XalanDOMStringERN11xercesc_2_713MemoryManagerE(%"class.xalanc_1_10::XalanDOMString"* dereferenceable(40) @_ZL21ATTRNAME_GROUPINGSIZE, %"class.xercesc_2_7::MemoryManager"* dereferenceable(8) %16), !dbg !2908
  %17 = load %"class.xercesc_2_7::MemoryManager"*, %"class.xercesc_2_7::MemoryManager"** %theManager, align 8, !dbg !2909
  call void @_ZN11xalanc_1_1013releaseMemoryERNS_14XalanDOMStringERN11xercesc_2_713MemoryManagerE(%"class.xalanc_1_10::XalanDOMString"* dereferenceable(40) @_ZL13ATTRNAME_HREF, %"class.xercesc_2_7::MemoryManager"* dereferenceable(8) %17), !dbg !2910
  %18 = load %"class.xercesc_2_7::MemoryManager"*, %"class.xercesc_2_7::MemoryManager"** %theManager, align 8, !dbg !2911
  call void @_ZN11xalanc_1_1013releaseMemoryERNS_14XalanDOMStringERN11xercesc_2_713MemoryManagerE(%"class.xalanc_1_10::XalanDOMString"* dereferenceable(40) @_ZL11ATTRNAME_ID, %"class.xercesc_2_7::MemoryManager"* dereferenceable(8) %18), !dbg !2912
  %19 = load %"class.xercesc_2_7::MemoryManager"*, %"class.xercesc_2_7::MemoryManager"** %theManager, align 8, !dbg !2913
  call void @_ZN11xalanc_1_1013releaseMemoryERNS_14XalanDOMStringERN11xercesc_2_713MemoryManagerE(%"class.xalanc_1_10::XalanDOMString"* dereferenceable(40) @_ZL21ATTRNAME_INDENTAMOUNT, %"class.xercesc_2_7::MemoryManager"* dereferenceable(8) %19), !dbg !2914
  %20 = load %"class.xercesc_2_7::MemoryManager"*, %"class.xercesc_2_7::MemoryManager"** %theManager, align 8, !dbg !2915
  call void @_ZN11xalanc_1_1013releaseMemoryERNS_14XalanDOMStringERN11xercesc_2_713MemoryManagerE(%"class.xalanc_1_10::XalanDOMString"* dereferenceable(40) @_ZL21ATTRNAME_INDENTRESULT, %"class.xercesc_2_7::MemoryManager"* dereferenceable(8) %20), !dbg !2916
  %21 = load %"class.xercesc_2_7::MemoryManager"*, %"class.xercesc_2_7::MemoryManager"** %theManager, align 8, !dbg !2917
  call void @_ZN11xalanc_1_1013releaseMemoryERNS_14XalanDOMStringERN11xercesc_2_713MemoryManagerE(%"class.xalanc_1_10::XalanDOMString"* dereferenceable(40) @_ZL17ATTRNAME_INFINITY, %"class.xercesc_2_7::MemoryManager"* dereferenceable(8) %21), !dbg !2918
  %22 = load %"class.xercesc_2_7::MemoryManager"*, %"class.xercesc_2_7::MemoryManager"** %theManager, align 8, !dbg !2919
  call void @_ZN11xalanc_1_1013releaseMemoryERNS_14XalanDOMStringERN11xercesc_2_713MemoryManagerE(%"class.xalanc_1_10::XalanDOMString"* dereferenceable(40) @_ZL13ATTRNAME_LANG, %"class.xercesc_2_7::MemoryManager"* dereferenceable(8) %22), !dbg !2920
  %23 = load %"class.xercesc_2_7::MemoryManager"*, %"class.xercesc_2_7::MemoryManager"** %theManager, align 8, !dbg !2921
  call void @_ZN11xalanc_1_1013releaseMemoryERNS_14XalanDOMStringERN11xercesc_2_713MemoryManagerE(%"class.xalanc_1_10::XalanDOMString"* dereferenceable(40) @_ZL20ATTRNAME_LETTERVALUE, %"class.xercesc_2_7::MemoryManager"* dereferenceable(8) %23), !dbg !2922
  %24 = load %"class.xercesc_2_7::MemoryManager"*, %"class.xercesc_2_7::MemoryManager"** %theManager, align 8, !dbg !2923
  call void @_ZN11xalanc_1_1013releaseMemoryERNS_14XalanDOMStringERN11xercesc_2_713MemoryManagerE(%"class.xalanc_1_10::XalanDOMString"* dereferenceable(40) @_ZL14ATTRNAME_MATCH, %"class.xercesc_2_7::MemoryManager"* dereferenceable(8) %24), !dbg !2924
  %25 = load %"class.xercesc_2_7::MemoryManager"*, %"class.xercesc_2_7::MemoryManager"** %theManager, align 8, !dbg !2925
  call void @_ZN11xalanc_1_1013releaseMemoryERNS_14XalanDOMStringERN11xercesc_2_713MemoryManagerE(%"class.xalanc_1_10::XalanDOMString"* dereferenceable(40) @_ZL18ATTRNAME_MINUSSIGN, %"class.xercesc_2_7::MemoryManager"* dereferenceable(8) %25), !dbg !2926
  %26 = load %"class.xercesc_2_7::MemoryManager"*, %"class.xercesc_2_7::MemoryManager"** %theManager, align 8, !dbg !2927
  call void @_ZN11xalanc_1_1013releaseMemoryERNS_14XalanDOMStringERN11xercesc_2_713MemoryManagerE(%"class.xalanc_1_10::XalanDOMString"* dereferenceable(40) @_ZL13ATTRNAME_MODE, %"class.xercesc_2_7::MemoryManager"* dereferenceable(8) %26), !dbg !2928
  %27 = load %"class.xercesc_2_7::MemoryManager"*, %"class.xercesc_2_7::MemoryManager"** %theManager, align 8, !dbg !2929
  call void @_ZN11xalanc_1_1013releaseMemoryERNS_14XalanDOMStringERN11xercesc_2_713MemoryManagerE(%"class.xalanc_1_10::XalanDOMString"* dereferenceable(40) @_ZL13ATTRNAME_NAME, %"class.xercesc_2_7::MemoryManager"* dereferenceable(8) %27), !dbg !2930
  %28 = load %"class.xercesc_2_7::MemoryManager"*, %"class.xercesc_2_7::MemoryManager"** %theManager, align 8, !dbg !2931
  call void @_ZN11xalanc_1_1013releaseMemoryERNS_14XalanDOMStringERN11xercesc_2_713MemoryManagerE(%"class.xalanc_1_10::XalanDOMString"* dereferenceable(40) @_ZL18ATTRNAME_NAMESPACE, %"class.xercesc_2_7::MemoryManager"* dereferenceable(8) %28), !dbg !2932
  %29 = load %"class.xercesc_2_7::MemoryManager"*, %"class.xercesc_2_7::MemoryManager"** %theManager, align 8, !dbg !2933
  call void @_ZN11xalanc_1_1013releaseMemoryERNS_14XalanDOMStringERN11xercesc_2_713MemoryManagerE(%"class.xalanc_1_10::XalanDOMString"* dereferenceable(40) @_ZL12ATTRNAME_NAN, %"class.xercesc_2_7::MemoryManager"* dereferenceable(8) %29), !dbg !2934
  %30 = load %"class.xercesc_2_7::MemoryManager"*, %"class.xercesc_2_7::MemoryManager"** %theManager, align 8, !dbg !2935
  call void @_ZN11xalanc_1_1013releaseMemoryERNS_14XalanDOMStringERN11xercesc_2_713MemoryManagerE(%"class.xalanc_1_10::XalanDOMString"* dereferenceable(40) @_ZL24ATTRNAME_NDIGITSPERGROUP, %"class.xercesc_2_7::MemoryManager"* dereferenceable(8) %30), !dbg !2936
  %31 = load %"class.xercesc_2_7::MemoryManager"*, %"class.xercesc_2_7::MemoryManager"** %theManager, align 8, !dbg !2937
  call void @_ZN11xalanc_1_1013releaseMemoryERNS_14XalanDOMStringERN11xercesc_2_713MemoryManagerE(%"class.xalanc_1_10::XalanDOMString"* dereferenceable(40) @_ZL22ATTRNAME_OMIT_META_TAG, %"class.xercesc_2_7::MemoryManager"* dereferenceable(8) %31), !dbg !2938
  %32 = load %"class.xercesc_2_7::MemoryManager"*, %"class.xercesc_2_7::MemoryManager"** %theManager, align 8, !dbg !2939
  call void @_ZN11xalanc_1_1013releaseMemoryERNS_14XalanDOMStringERN11xercesc_2_713MemoryManagerE(%"class.xalanc_1_10::XalanDOMString"* dereferenceable(40) @_ZL14ATTRNAME_ORDER, %"class.xercesc_2_7::MemoryManager"* dereferenceable(8) %32), !dbg !2940
  %33 = load %"class.xercesc_2_7::MemoryManager"*, %"class.xercesc_2_7::MemoryManager"** %theManager, align 8, !dbg !2941
  call void @_ZN11xalanc_1_1013releaseMemoryERNS_14XalanDOMStringERN11xercesc_2_713MemoryManagerE(%"class.xalanc_1_10::XalanDOMString"* dereferenceable(40) @_ZL38ATTRNAME_OUTPUT_CDATA_SECTION_ELEMENTS, %"class.xercesc_2_7::MemoryManager"* dereferenceable(8) %33), !dbg !2942
  %34 = load %"class.xercesc_2_7::MemoryManager"*, %"class.xercesc_2_7::MemoryManager"** %theManager, align 8, !dbg !2943
  call void @_ZN11xalanc_1_1013releaseMemoryERNS_14XalanDOMStringERN11xercesc_2_713MemoryManagerE(%"class.xalanc_1_10::XalanDOMString"* dereferenceable(40) @_ZL30ATTRNAME_OUTPUT_DOCTYPE_PUBLIC, %"class.xercesc_2_7::MemoryManager"* dereferenceable(8) %34), !dbg !2944
  %35 = load %"class.xercesc_2_7::MemoryManager"*, %"class.xercesc_2_7::MemoryManager"** %theManager, align 8, !dbg !2945
  call void @_ZN11xalanc_1_1013releaseMemoryERNS_14XalanDOMStringERN11xercesc_2_713MemoryManagerE(%"class.xalanc_1_10::XalanDOMString"* dereferenceable(40) @_ZL30ATTRNAME_OUTPUT_DOCTYPE_SYSTEM, %"class.xercesc_2_7::MemoryManager"* dereferenceable(8) %35), !dbg !2946
  %36 = load %"class.xercesc_2_7::MemoryManager"*, %"class.xercesc_2_7::MemoryManager"** %theManager, align 8, !dbg !2947
  call void @_ZN11xalanc_1_1013releaseMemoryERNS_14XalanDOMStringERN11xercesc_2_713MemoryManagerE(%"class.xalanc_1_10::XalanDOMString"* dereferenceable(40) @_ZL24ATTRNAME_OUTPUT_ENCODING, %"class.xercesc_2_7::MemoryManager"* dereferenceable(8) %36), !dbg !2948
  %37 = load %"class.xercesc_2_7::MemoryManager"*, %"class.xercesc_2_7::MemoryManager"** %theManager, align 8, !dbg !2949
  call void @_ZN11xalanc_1_1013releaseMemoryERNS_14XalanDOMStringERN11xercesc_2_713MemoryManagerE(%"class.xalanc_1_10::XalanDOMString"* dereferenceable(40) @_ZL22ATTRNAME_OUTPUT_INDENT, %"class.xercesc_2_7::MemoryManager"* dereferenceable(8) %37), !dbg !2950
  %38 = load %"class.xercesc_2_7::MemoryManager"*, %"class.xercesc_2_7::MemoryManager"** %theManager, align 8, !dbg !2951
  call void @_ZN11xalanc_1_1013releaseMemoryERNS_14XalanDOMStringERN11xercesc_2_713MemoryManagerE(%"class.xalanc_1_10::XalanDOMString"* dereferenceable(40) @_ZL25ATTRNAME_OUTPUT_MEDIATYPE, %"class.xercesc_2_7::MemoryManager"* dereferenceable(8) %38), !dbg !2952
  %39 = load %"class.xercesc_2_7::MemoryManager"*, %"class.xercesc_2_7::MemoryManager"** %theManager, align 8, !dbg !2953
  call void @_ZN11xalanc_1_1013releaseMemoryERNS_14XalanDOMStringERN11xercesc_2_713MemoryManagerE(%"class.xalanc_1_10::XalanDOMString"* dereferenceable(40) @_ZL22ATTRNAME_OUTPUT_METHOD, %"class.xercesc_2_7::MemoryManager"* dereferenceable(8) %39), !dbg !2954
  %40 = load %"class.xercesc_2_7::MemoryManager"*, %"class.xercesc_2_7::MemoryManager"** %theManager, align 8, !dbg !2955
  call void @_ZN11xalanc_1_1013releaseMemoryERNS_14XalanDOMStringERN11xercesc_2_713MemoryManagerE(%"class.xalanc_1_10::XalanDOMString"* dereferenceable(40) @_ZL27ATTRNAME_OUTPUT_OMITXMLDECL, %"class.xercesc_2_7::MemoryManager"* dereferenceable(8) %40), !dbg !2956
  %41 = load %"class.xercesc_2_7::MemoryManager"*, %"class.xercesc_2_7::MemoryManager"** %theManager, align 8, !dbg !2957
  call void @_ZN11xalanc_1_1013releaseMemoryERNS_14XalanDOMStringERN11xercesc_2_713MemoryManagerE(%"class.xalanc_1_10::XalanDOMString"* dereferenceable(40) @_ZL26ATTRNAME_OUTPUT_STANDALONE, %"class.xercesc_2_7::MemoryManager"* dereferenceable(8) %41), !dbg !2958
  %42 = load %"class.xercesc_2_7::MemoryManager"*, %"class.xercesc_2_7::MemoryManager"** %theManager, align 8, !dbg !2959
  call void @_ZN11xalanc_1_1013releaseMemoryERNS_14XalanDOMStringERN11xercesc_2_713MemoryManagerE(%"class.xalanc_1_10::XalanDOMString"* dereferenceable(40) @_ZL23ATTRNAME_OUTPUT_VERSION, %"class.xercesc_2_7::MemoryManager"* dereferenceable(8) %42), !dbg !2960
  %43 = load %"class.xercesc_2_7::MemoryManager"*, %"class.xercesc_2_7::MemoryManager"** %theManager, align 8, !dbg !2961
  call void @_ZN11xalanc_1_1013releaseMemoryERNS_14XalanDOMStringERN11xercesc_2_713MemoryManagerE(%"class.xalanc_1_10::XalanDOMString"* dereferenceable(40) @_ZL25ATTRNAME_PATTERNSEPARATOR, %"class.xercesc_2_7::MemoryManager"* dereferenceable(8) %43), !dbg !2962
  %44 = load %"class.xercesc_2_7::MemoryManager"*, %"class.xercesc_2_7::MemoryManager"** %theManager, align 8, !dbg !2963
  call void @_ZN11xalanc_1_1013releaseMemoryERNS_14XalanDOMStringERN11xercesc_2_713MemoryManagerE(%"class.xalanc_1_10::XalanDOMString"* dereferenceable(40) @_ZL16ATTRNAME_PERCENT, %"class.xercesc_2_7::MemoryManager"* dereferenceable(8) %44), !dbg !2964
  %45 = load %"class.xercesc_2_7::MemoryManager"*, %"class.xercesc_2_7::MemoryManager"** %theManager, align 8, !dbg !2965
  call void @_ZN11xalanc_1_1013releaseMemoryERNS_14XalanDOMStringERN11xercesc_2_713MemoryManagerE(%"class.xalanc_1_10::XalanDOMString"* dereferenceable(40) @_ZL17ATTRNAME_PERMILLE, %"class.xercesc_2_7::MemoryManager"* dereferenceable(8) %45), !dbg !2966
  %46 = load %"class.xercesc_2_7::MemoryManager"*, %"class.xercesc_2_7::MemoryManager"** %theManager, align 8, !dbg !2967
  call void @_ZN11xalanc_1_1013releaseMemoryERNS_14XalanDOMStringERN11xercesc_2_713MemoryManagerE(%"class.xalanc_1_10::XalanDOMString"* dereferenceable(40) @_ZL15ATTRNAME_PREFIX, %"class.xercesc_2_7::MemoryManager"* dereferenceable(8) %46), !dbg !2968
  %47 = load %"class.xercesc_2_7::MemoryManager"*, %"class.xercesc_2_7::MemoryManager"** %theManager, align 8, !dbg !2969
  call void @_ZN11xalanc_1_1013releaseMemoryERNS_14XalanDOMStringERN11xercesc_2_713MemoryManagerE(%"class.xalanc_1_10::XalanDOMString"* dereferenceable(40) @_ZL17ATTRNAME_PRIORITY, %"class.xercesc_2_7::MemoryManager"* dereferenceable(8) %47), !dbg !2970
  %48 = load %"class.xercesc_2_7::MemoryManager"*, %"class.xercesc_2_7::MemoryManager"** %theManager, align 8, !dbg !2971
  call void @_ZN11xalanc_1_1013releaseMemoryERNS_14XalanDOMStringERN11xercesc_2_713MemoryManagerE(%"class.xalanc_1_10::XalanDOMString"* dereferenceable(40) @_ZL17ATTRNAME_RESULTNS, %"class.xercesc_2_7::MemoryManager"* dereferenceable(8) %48), !dbg !2972
  %49 = load %"class.xercesc_2_7::MemoryManager"*, %"class.xercesc_2_7::MemoryManager"** %theManager, align 8, !dbg !2973
  call void @_ZN11xalanc_1_1013releaseMemoryERNS_14XalanDOMStringERN11xercesc_2_713MemoryManagerE(%"class.xalanc_1_10::XalanDOMString"* dereferenceable(40) @_ZL22ATTRNAME_RESULT_PREFIX, %"class.xercesc_2_7::MemoryManager"* dereferenceable(8) %49), !dbg !2974
  %50 = load %"class.xercesc_2_7::MemoryManager"*, %"class.xercesc_2_7::MemoryManager"** %theManager, align 8, !dbg !2975
  call void @_ZN11xalanc_1_1013releaseMemoryERNS_14XalanDOMStringERN11xercesc_2_713MemoryManagerE(%"class.xalanc_1_10::XalanDOMString"* dereferenceable(40) @_ZL15ATTRNAME_SELECT, %"class.xercesc_2_7::MemoryManager"* dereferenceable(8) %50), !dbg !2976
  %51 = load %"class.xercesc_2_7::MemoryManager"*, %"class.xercesc_2_7::MemoryManager"** %theManager, align 8, !dbg !2977
  call void @_ZN11xalanc_1_1013releaseMemoryERNS_14XalanDOMStringERN11xercesc_2_713MemoryManagerE(%"class.xalanc_1_10::XalanDOMString"* dereferenceable(40) @_ZL26ATTRNAME_STYLESHEET_PREFIX, %"class.xercesc_2_7::MemoryManager"* dereferenceable(8) %51), !dbg !2978
  %52 = load %"class.xercesc_2_7::MemoryManager"*, %"class.xercesc_2_7::MemoryManager"** %theManager, align 8, !dbg !2979
  call void @_ZN11xalanc_1_1013releaseMemoryERNS_14XalanDOMStringERN11xercesc_2_713MemoryManagerE(%"class.xalanc_1_10::XalanDOMString"* dereferenceable(40) @_ZL18ATTRNAME_TERMINATE, %"class.xercesc_2_7::MemoryManager"* dereferenceable(8) %52), !dbg !2980
  %53 = load %"class.xercesc_2_7::MemoryManager"*, %"class.xercesc_2_7::MemoryManager"** %theManager, align 8, !dbg !2981
  call void @_ZN11xalanc_1_1013releaseMemoryERNS_14XalanDOMStringERN11xercesc_2_713MemoryManagerE(%"class.xalanc_1_10::XalanDOMString"* dereferenceable(40) @_ZL13ATTRNAME_TEST, %"class.xercesc_2_7::MemoryManager"* dereferenceable(8) %53), !dbg !2982
  %54 = load %"class.xercesc_2_7::MemoryManager"*, %"class.xercesc_2_7::MemoryManager"** %theManager, align 8, !dbg !2983
  call void @_ZN11xalanc_1_1013releaseMemoryERNS_14XalanDOMStringERN11xercesc_2_713MemoryManagerE(%"class.xalanc_1_10::XalanDOMString"* dereferenceable(40) @_ZL13ATTRNAME_TYPE, %"class.xercesc_2_7::MemoryManager"* dereferenceable(8) %54), !dbg !2984
  %55 = load %"class.xercesc_2_7::MemoryManager"*, %"class.xercesc_2_7::MemoryManager"** %theManager, align 8, !dbg !2985
  call void @_ZN11xalanc_1_1013releaseMemoryERNS_14XalanDOMStringERN11xercesc_2_713MemoryManagerE(%"class.xalanc_1_10::XalanDOMString"* dereferenceable(40) @_ZL12ATTRNAME_USE, %"class.xercesc_2_7::MemoryManager"* dereferenceable(8) %55), !dbg !2986
  %56 = load %"class.xercesc_2_7::MemoryManager"*, %"class.xercesc_2_7::MemoryManager"** %theManager, align 8, !dbg !2987
  call void @_ZN11xalanc_1_1013releaseMemoryERNS_14XalanDOMStringERN11xercesc_2_713MemoryManagerE(%"class.xalanc_1_10::XalanDOMString"* dereferenceable(40) @_ZL25ATTRNAME_USEATTRIBUTESETS, %"class.xercesc_2_7::MemoryManager"* dereferenceable(8) %56), !dbg !2988
  %57 = load %"class.xercesc_2_7::MemoryManager"*, %"class.xercesc_2_7::MemoryManager"** %theManager, align 8, !dbg !2989
  call void @_ZN11xalanc_1_1013releaseMemoryERNS_14XalanDOMStringERN11xercesc_2_713MemoryManagerE(%"class.xalanc_1_10::XalanDOMString"* dereferenceable(40) @_ZL14ATTRNAME_VALUE, %"class.xercesc_2_7::MemoryManager"* dereferenceable(8) %57), !dbg !2990
  %58 = load %"class.xercesc_2_7::MemoryManager"*, %"class.xercesc_2_7::MemoryManager"** %theManager, align 8, !dbg !2991
  call void @_ZN11xalanc_1_1013releaseMemoryERNS_14XalanDOMStringERN11xercesc_2_713MemoryManagerE(%"class.xalanc_1_10::XalanDOMString"* dereferenceable(40) @_ZL16ATTRNAME_VERSION, %"class.xercesc_2_7::MemoryManager"* dereferenceable(8) %58), !dbg !2992
  %59 = load %"class.xercesc_2_7::MemoryManager"*, %"class.xercesc_2_7::MemoryManager"** %theManager, align 8, !dbg !2993
  call void @_ZN11xalanc_1_1013releaseMemoryERNS_14XalanDOMStringERN11xercesc_2_713MemoryManagerE(%"class.xalanc_1_10::XalanDOMString"* dereferenceable(40) @_ZL14ATTRNAME_SPACE, %"class.xercesc_2_7::MemoryManager"* dereferenceable(8) %59), !dbg !2994
  %60 = load %"class.xercesc_2_7::MemoryManager"*, %"class.xercesc_2_7::MemoryManager"** %theManager, align 8, !dbg !2995
  call void @_ZN11xalanc_1_1013releaseMemoryERNS_14XalanDOMStringERN11xercesc_2_713MemoryManagerE(%"class.xalanc_1_10::XalanDOMString"* dereferenceable(40) @_ZL17ATTRNAME_XMLSPACE, %"class.xercesc_2_7::MemoryManager"* dereferenceable(8) %60), !dbg !2996
  %61 = load %"class.xercesc_2_7::MemoryManager"*, %"class.xercesc_2_7::MemoryManager"** %theManager, align 8, !dbg !2997
  call void @_ZN11xalanc_1_1013releaseMemoryERNS_14XalanDOMStringERN11xercesc_2_713MemoryManagerE(%"class.xalanc_1_10::XalanDOMString"* dereferenceable(40) @_ZL18ATTRNAME_ZERODIGIT, %"class.xercesc_2_7::MemoryManager"* dereferenceable(8) %61), !dbg !2998
  %62 = load %"class.xercesc_2_7::MemoryManager"*, %"class.xercesc_2_7::MemoryManager"** %theManager, align 8, !dbg !2999
  call void @_ZN11xalanc_1_1013releaseMemoryERNS_14XalanDOMStringERN11xercesc_2_713MemoryManagerE(%"class.xalanc_1_10::XalanDOMString"* dereferenceable(40) @_ZL14ATTRTYPE_CDATA, %"class.xercesc_2_7::MemoryManager"* dereferenceable(8) %62), !dbg !3000
  %63 = load %"class.xercesc_2_7::MemoryManager"*, %"class.xercesc_2_7::MemoryManager"** %theManager, align 8, !dbg !3001
  call void @_ZN11xalanc_1_1013releaseMemoryERNS_14XalanDOMStringERN11xercesc_2_713MemoryManagerE(%"class.xalanc_1_10::XalanDOMString"* dereferenceable(40) @_ZL23ATTRVAL_CASEORDER_LOWER, %"class.xercesc_2_7::MemoryManager"* dereferenceable(8) %63), !dbg !3002
  %64 = load %"class.xercesc_2_7::MemoryManager"*, %"class.xercesc_2_7::MemoryManager"** %theManager, align 8, !dbg !3003
  call void @_ZN11xalanc_1_1013releaseMemoryERNS_14XalanDOMStringERN11xercesc_2_713MemoryManagerE(%"class.xalanc_1_10::XalanDOMString"* dereferenceable(40) @_ZL23ATTRVAL_CASEORDER_UPPER, %"class.xercesc_2_7::MemoryManager"* dereferenceable(8) %64), !dbg !3004
  %65 = load %"class.xercesc_2_7::MemoryManager"*, %"class.xercesc_2_7::MemoryManager"** %theManager, align 8, !dbg !3005
  call void @_ZN11xalanc_1_1013releaseMemoryERNS_14XalanDOMStringERN11xercesc_2_713MemoryManagerE(%"class.xalanc_1_10::XalanDOMString"* dereferenceable(40) @_ZL23ATTRVAL_DATATYPE_NUMBER, %"class.xercesc_2_7::MemoryManager"* dereferenceable(8) %65), !dbg !3006
  %66 = load %"class.xercesc_2_7::MemoryManager"*, %"class.xercesc_2_7::MemoryManager"** %theManager, align 8, !dbg !3007
  call void @_ZN11xalanc_1_1013releaseMemoryERNS_14XalanDOMStringERN11xercesc_2_713MemoryManagerE(%"class.xalanc_1_10::XalanDOMString"* dereferenceable(40) @_ZL21ATTRVAL_DATATYPE_TEXT, %"class.xercesc_2_7::MemoryManager"* dereferenceable(8) %66), !dbg !3008
  %67 = load %"class.xercesc_2_7::MemoryManager"*, %"class.xercesc_2_7::MemoryManager"** %theManager, align 8, !dbg !3009
  call void @_ZN11xalanc_1_1013releaseMemoryERNS_14XalanDOMStringERN11xercesc_2_713MemoryManagerE(%"class.xalanc_1_10::XalanDOMString"* dereferenceable(40) @_ZL15ATTRVAL_DEFAULT, %"class.xercesc_2_7::MemoryManager"* dereferenceable(8) %67), !dbg !3010
  %68 = load %"class.xercesc_2_7::MemoryManager"*, %"class.xercesc_2_7::MemoryManager"** %theManager, align 8, !dbg !3011
  call void @_ZN11xalanc_1_1013releaseMemoryERNS_14XalanDOMStringERN11xercesc_2_713MemoryManagerE(%"class.xalanc_1_10::XalanDOMString"* dereferenceable(40) @_ZL22ATTRVAL_DEFAULT_PREFIX, %"class.xercesc_2_7::MemoryManager"* dereferenceable(8) %68), !dbg !3012
  %69 = load %"class.xercesc_2_7::MemoryManager"*, %"class.xercesc_2_7::MemoryManager"** %theManager, align 8, !dbg !3013
  call void @_ZN11xalanc_1_1013releaseMemoryERNS_14XalanDOMStringERN11xercesc_2_713MemoryManagerE(%"class.xalanc_1_10::XalanDOMString"* dereferenceable(40) @_ZL25ATTRVAL_DEFAULT_TEXT_RULE, %"class.xercesc_2_7::MemoryManager"* dereferenceable(8) %69), !dbg !3014
  %70 = load %"class.xercesc_2_7::MemoryManager"*, %"class.xercesc_2_7::MemoryManager"** %theManager, align 8, !dbg !3015
  call void @_ZN11xalanc_1_1013releaseMemoryERNS_14XalanDOMStringERN11xercesc_2_713MemoryManagerE(%"class.xalanc_1_10::XalanDOMString"* dereferenceable(40) @_ZL16ATTRVAL_INFINITY, %"class.xercesc_2_7::MemoryManager"* dereferenceable(8) %70), !dbg !3016
  %71 = load %"class.xercesc_2_7::MemoryManager"*, %"class.xercesc_2_7::MemoryManager"** %theManager, align 8, !dbg !3017
  call void @_ZN11xalanc_1_1013releaseMemoryERNS_14XalanDOMStringERN11xercesc_2_713MemoryManagerE(%"class.xalanc_1_10::XalanDOMString"* dereferenceable(40) @_ZL11ATTRVAL_NAN, %"class.xercesc_2_7::MemoryManager"* dereferenceable(8) %71), !dbg !3018
  %72 = load %"class.xercesc_2_7::MemoryManager"*, %"class.xercesc_2_7::MemoryManager"** %theManager, align 8, !dbg !3019
  call void @_ZN11xalanc_1_1013releaseMemoryERNS_14XalanDOMStringERN11xercesc_2_713MemoryManagerE(%"class.xalanc_1_10::XalanDOMString"* dereferenceable(40) @_ZL10ATTRVAL_NO, %"class.xercesc_2_7::MemoryManager"* dereferenceable(8) %72), !dbg !3020
  %73 = load %"class.xercesc_2_7::MemoryManager"*, %"class.xercesc_2_7::MemoryManager"** %theManager, align 8, !dbg !3021
  call void @_ZN11xalanc_1_1013releaseMemoryERNS_14XalanDOMStringERN11xercesc_2_713MemoryManagerE(%"class.xalanc_1_10::XalanDOMString"* dereferenceable(40) @_ZL23ATTRVAL_ORDER_ASCENDING, %"class.xercesc_2_7::MemoryManager"* dereferenceable(8) %73), !dbg !3022
  %74 = load %"class.xercesc_2_7::MemoryManager"*, %"class.xercesc_2_7::MemoryManager"** %theManager, align 8, !dbg !3023
  call void @_ZN11xalanc_1_1013releaseMemoryERNS_14XalanDOMStringERN11xercesc_2_713MemoryManagerE(%"class.xalanc_1_10::XalanDOMString"* dereferenceable(40) @_ZL24ATTRVAL_ORDER_DESCENDING, %"class.xercesc_2_7::MemoryManager"* dereferenceable(8) %74), !dbg !3024
  %75 = load %"class.xercesc_2_7::MemoryManager"*, %"class.xercesc_2_7::MemoryManager"** %theManager, align 8, !dbg !3025
  call void @_ZN11xalanc_1_1013releaseMemoryERNS_14XalanDOMStringERN11xercesc_2_713MemoryManagerE(%"class.xalanc_1_10::XalanDOMString"* dereferenceable(40) @_ZL26ATTRVAL_OUTPUT_METHOD_HTML, %"class.xercesc_2_7::MemoryManager"* dereferenceable(8) %75), !dbg !3026
  %76 = load %"class.xercesc_2_7::MemoryManager"*, %"class.xercesc_2_7::MemoryManager"** %theManager, align 8, !dbg !3027
  call void @_ZN11xalanc_1_1013releaseMemoryERNS_14XalanDOMStringERN11xercesc_2_713MemoryManagerE(%"class.xalanc_1_10::XalanDOMString"* dereferenceable(40) @_ZL26ATTRVAL_OUTPUT_METHOD_TEXT, %"class.xercesc_2_7::MemoryManager"* dereferenceable(8) %76), !dbg !3028
  %77 = load %"class.xercesc_2_7::MemoryManager"*, %"class.xercesc_2_7::MemoryManager"** %theManager, align 8, !dbg !3029
  call void @_ZN11xalanc_1_1013releaseMemoryERNS_14XalanDOMStringERN11xercesc_2_713MemoryManagerE(%"class.xalanc_1_10::XalanDOMString"* dereferenceable(40) @_ZL25ATTRVAL_OUTPUT_METHOD_XML, %"class.xercesc_2_7::MemoryManager"* dereferenceable(8) %77), !dbg !3030
  %78 = load %"class.xercesc_2_7::MemoryManager"*, %"class.xercesc_2_7::MemoryManager"** %theManager, align 8, !dbg !3031
  call void @_ZN11xalanc_1_1013releaseMemoryERNS_14XalanDOMStringERN11xercesc_2_713MemoryManagerE(%"class.xalanc_1_10::XalanDOMString"* dereferenceable(40) @_ZL16ATTRVAL_PRESERVE, %"class.xercesc_2_7::MemoryManager"* dereferenceable(8) %78), !dbg !3032
  %79 = load %"class.xercesc_2_7::MemoryManager"*, %"class.xercesc_2_7::MemoryManager"** %theManager, align 8, !dbg !3033
  call void @_ZN11xalanc_1_1013releaseMemoryERNS_14XalanDOMStringERN11xercesc_2_713MemoryManagerE(%"class.xalanc_1_10::XalanDOMString"* dereferenceable(40) @_ZL14ATTRVAL_SIMPLE, %"class.xercesc_2_7::MemoryManager"* dereferenceable(8) %79), !dbg !3034
  %80 = load %"class.xercesc_2_7::MemoryManager"*, %"class.xercesc_2_7::MemoryManager"** %theManager, align 8, !dbg !3035
  call void @_ZN11xalanc_1_1013releaseMemoryERNS_14XalanDOMStringERN11xercesc_2_713MemoryManagerE(%"class.xalanc_1_10::XalanDOMString"* dereferenceable(40) @_ZL13ATTRVAL_STRIP, %"class.xercesc_2_7::MemoryManager"* dereferenceable(8) %80), !dbg !3036
  %81 = load %"class.xercesc_2_7::MemoryManager"*, %"class.xercesc_2_7::MemoryManager"** %theManager, align 8, !dbg !3037
  call void @_ZN11xalanc_1_1013releaseMemoryERNS_14XalanDOMStringERN11xercesc_2_713MemoryManagerE(%"class.xalanc_1_10::XalanDOMString"* dereferenceable(40) @_ZL12ATTRVAL_THIS, %"class.xercesc_2_7::MemoryManager"* dereferenceable(8) %81), !dbg !3038
  %82 = load %"class.xercesc_2_7::MemoryManager"*, %"class.xercesc_2_7::MemoryManager"** %theManager, align 8, !dbg !3039
  call void @_ZN11xalanc_1_1013releaseMemoryERNS_14XalanDOMStringERN11xercesc_2_713MemoryManagerE(%"class.xalanc_1_10::XalanDOMString"* dereferenceable(40) @_ZL11ATTRVAL_YES, %"class.xercesc_2_7::MemoryManager"* dereferenceable(8) %82), !dbg !3040
  %83 = load %"class.xercesc_2_7::MemoryManager"*, %"class.xercesc_2_7::MemoryManager"** %theManager, align 8, !dbg !3041
  call void @_ZN11xalanc_1_1013releaseMemoryERNS_14XalanDOMStringERN11xercesc_2_713MemoryManagerE(%"class.xalanc_1_10::XalanDOMString"* dereferenceable(40) @_ZL35DEFAULT_WHITESPACE_SEPARATOR_STRING, %"class.xercesc_2_7::MemoryManager"* dereferenceable(8) %83), !dbg !3042
  %84 = load %"class.xercesc_2_7::MemoryManager"*, %"class.xercesc_2_7::MemoryManager"** %theManager, align 8, !dbg !3043
  call void @_ZN11xalanc_1_1013releaseMemoryERNS_14XalanDOMStringERN11xercesc_2_713MemoryManagerE(%"class.xalanc_1_10::XalanDOMString"* dereferenceable(40) @_ZL19ELEMNAME_ANY_STRING, %"class.xercesc_2_7::MemoryManager"* dereferenceable(8) %84), !dbg !3044
  %85 = load %"class.xercesc_2_7::MemoryManager"*, %"class.xercesc_2_7::MemoryManager"** %theManager, align 8, !dbg !3045
  call void @_ZN11xalanc_1_1013releaseMemoryERNS_14XalanDOMStringERN11xercesc_2_713MemoryManagerE(%"class.xalanc_1_10::XalanDOMString"* dereferenceable(40) @_ZL41ELEMNAME_APPLY_IMPORTS_WITH_PREFIX_STRING, %"class.xercesc_2_7::MemoryManager"* dereferenceable(8) %85), !dbg !3046
  %86 = load %"class.xercesc_2_7::MemoryManager"*, %"class.xercesc_2_7::MemoryManager"** %theManager, align 8, !dbg !3047
  call void @_ZN11xalanc_1_1013releaseMemoryERNS_14XalanDOMStringERN11xercesc_2_713MemoryManagerE(%"class.xalanc_1_10::XalanDOMString"* dereferenceable(40) @_ZL43ELEMNAME_APPLY_TEMPLATES_WITH_PREFIX_STRING, %"class.xercesc_2_7::MemoryManager"* dereferenceable(8) %86), !dbg !3048
  %87 = load %"class.xercesc_2_7::MemoryManager"*, %"class.xercesc_2_7::MemoryManager"** %theManager, align 8, !dbg !3049
  call void @_ZN11xalanc_1_1013releaseMemoryERNS_14XalanDOMStringERN11xercesc_2_713MemoryManagerE(%"class.xalanc_1_10::XalanDOMString"* dereferenceable(40) @_ZL40ELEMNAME_ATTRIBUTESET_WITH_PREFIX_STRING, %"class.xercesc_2_7::MemoryManager"* dereferenceable(8) %87), !dbg !3050
  %88 = load %"class.xercesc_2_7::MemoryManager"*, %"class.xercesc_2_7::MemoryManager"** %theManager, align 8, !dbg !3051
  call void @_ZN11xalanc_1_1013releaseMemoryERNS_14XalanDOMStringERN11xercesc_2_713MemoryManagerE(%"class.xalanc_1_10::XalanDOMString"* dereferenceable(40) @_ZL37ELEMNAME_ATTRIBUTE_WITH_PREFIX_STRING, %"class.xercesc_2_7::MemoryManager"* dereferenceable(8) %88), !dbg !3052
  %89 = load %"class.xercesc_2_7::MemoryManager"*, %"class.xercesc_2_7::MemoryManager"** %theManager, align 8, !dbg !3053
  call void @_ZN11xalanc_1_1013releaseMemoryERNS_14XalanDOMStringERN11xercesc_2_713MemoryManagerE(%"class.xalanc_1_10::XalanDOMString"* dereferenceable(40) @_ZL40ELEMNAME_CALLTEMPLATE_WITH_PREFIX_STRING, %"class.xercesc_2_7::MemoryManager"* dereferenceable(8) %89), !dbg !3054
  %90 = load %"class.xercesc_2_7::MemoryManager"*, %"class.xercesc_2_7::MemoryManager"** %theManager, align 8, !dbg !3055
  call void @_ZN11xalanc_1_1013releaseMemoryERNS_14XalanDOMStringERN11xercesc_2_713MemoryManagerE(%"class.xalanc_1_10::XalanDOMString"* dereferenceable(40) @_ZL34ELEMNAME_CHOOSE_WITH_PREFIX_STRING, %"class.xercesc_2_7::MemoryManager"* dereferenceable(8) %90), !dbg !3056
  %91 = load %"class.xercesc_2_7::MemoryManager"*, %"class.xercesc_2_7::MemoryManager"** %theManager, align 8, !dbg !3057
  call void @_ZN11xalanc_1_1013releaseMemoryERNS_14XalanDOMStringERN11xercesc_2_713MemoryManagerE(%"class.xalanc_1_10::XalanDOMString"* dereferenceable(40) @_ZL35ELEMNAME_COMMENT_WITH_PREFIX_STRING, %"class.xercesc_2_7::MemoryManager"* dereferenceable(8) %91), !dbg !3058
  %92 = load %"class.xercesc_2_7::MemoryManager"*, %"class.xercesc_2_7::MemoryManager"** %theManager, align 8, !dbg !3059
  call void @_ZN11xalanc_1_1013releaseMemoryERNS_14XalanDOMStringERN11xercesc_2_713MemoryManagerE(%"class.xalanc_1_10::XalanDOMString"* dereferenceable(40) @_ZL35ELEMNAME_COPY_OF_WITH_PREFIX_STRING, %"class.xercesc_2_7::MemoryManager"* dereferenceable(8) %92), !dbg !3060
  %93 = load %"class.xercesc_2_7::MemoryManager"*, %"class.xercesc_2_7::MemoryManager"** %theManager, align 8, !dbg !3061
  call void @_ZN11xalanc_1_1013releaseMemoryERNS_14XalanDOMStringERN11xercesc_2_713MemoryManagerE(%"class.xalanc_1_10::XalanDOMString"* dereferenceable(40) @_ZL32ELEMNAME_COPY_WITH_PREFIX_STRING, %"class.xercesc_2_7::MemoryManager"* dereferenceable(8) %93), !dbg !3062
  %94 = load %"class.xercesc_2_7::MemoryManager"*, %"class.xercesc_2_7::MemoryManager"** %theManager, align 8, !dbg !3063
  call void @_ZN11xalanc_1_1013releaseMemoryERNS_14XalanDOMStringERN11xercesc_2_713MemoryManagerE(%"class.xalanc_1_10::XalanDOMString"* dereferenceable(40) @_ZL41ELEMNAME_DECIMALFORMAT_WITH_PREFIX_STRING, %"class.xercesc_2_7::MemoryManager"* dereferenceable(8) %94), !dbg !3064
  %95 = load %"class.xercesc_2_7::MemoryManager"*, %"class.xercesc_2_7::MemoryManager"** %theManager, align 8, !dbg !3065
  call void @_ZN11xalanc_1_1013releaseMemoryERNS_14XalanDOMStringERN11xercesc_2_713MemoryManagerE(%"class.xalanc_1_10::XalanDOMString"* dereferenceable(40) @_ZL25ELEMNAME_DISPLAYIF_STRING, %"class.xercesc_2_7::MemoryManager"* dereferenceable(8) %95), !dbg !3066
  %96 = load %"class.xercesc_2_7::MemoryManager"*, %"class.xercesc_2_7::MemoryManager"** %theManager, align 8, !dbg !3067
  call void @_ZN11xalanc_1_1013releaseMemoryERNS_14XalanDOMStringERN11xercesc_2_713MemoryManagerE(%"class.xalanc_1_10::XalanDOMString"* dereferenceable(40) @_ZL35ELEMNAME_ELEMENT_WITH_PREFIX_STRING, %"class.xercesc_2_7::MemoryManager"* dereferenceable(8) %96), !dbg !3068
  %97 = load %"class.xercesc_2_7::MemoryManager"*, %"class.xercesc_2_7::MemoryManager"** %theManager, align 8, !dbg !3069
  call void @_ZN11xalanc_1_1013releaseMemoryERNS_14XalanDOMStringERN11xercesc_2_713MemoryManagerE(%"class.xalanc_1_10::XalanDOMString"* dereferenceable(40) @_ZL36ELEMNAME_FALLBACK_WITH_PREFIX_STRING, %"class.xercesc_2_7::MemoryManager"* dereferenceable(8) %97), !dbg !3070
  %98 = load %"class.xercesc_2_7::MemoryManager"*, %"class.xercesc_2_7::MemoryManager"** %theManager, align 8, !dbg !3071
  call void @_ZN11xalanc_1_1013releaseMemoryERNS_14XalanDOMStringERN11xercesc_2_713MemoryManagerE(%"class.xalanc_1_10::XalanDOMString"* dereferenceable(40) @_ZL35ELEMNAME_FOREACH_WITH_PREFIX_STRING, %"class.xercesc_2_7::MemoryManager"* dereferenceable(8) %98), !dbg !3072
  %99 = load %"class.xercesc_2_7::MemoryManager"*, %"class.xercesc_2_7::MemoryManager"** %theManager, align 8, !dbg !3073
  call void @_ZN11xalanc_1_1013releaseMemoryERNS_14XalanDOMStringERN11xercesc_2_713MemoryManagerE(%"class.xalanc_1_10::XalanDOMString"* dereferenceable(40) @_ZL20ELEMNAME_HTML_STRING, %"class.xercesc_2_7::MemoryManager"* dereferenceable(8) %99), !dbg !3074
  %100 = load %"class.xercesc_2_7::MemoryManager"*, %"class.xercesc_2_7::MemoryManager"** %theManager, align 8, !dbg !3075
  call void @_ZN11xalanc_1_1013releaseMemoryERNS_14XalanDOMStringERN11xercesc_2_713MemoryManagerE(%"class.xalanc_1_10::XalanDOMString"* dereferenceable(40) @_ZL30ELEMNAME_IF_WITH_PREFIX_STRING, %"class.xercesc_2_7::MemoryManager"* dereferenceable(8) %100), !dbg !3076
  %101 = load %"class.xercesc_2_7::MemoryManager"*, %"class.xercesc_2_7::MemoryManager"** %theManager, align 8, !dbg !3077
  call void @_ZN11xalanc_1_1013releaseMemoryERNS_14XalanDOMStringERN11xercesc_2_713MemoryManagerE(%"class.xalanc_1_10::XalanDOMString"* dereferenceable(40) @_ZL34ELEMNAME_IMPORT_WITH_PREFIX_STRING, %"class.xercesc_2_7::MemoryManager"* dereferenceable(8) %101), !dbg !3078
  %102 = load %"class.xercesc_2_7::MemoryManager"*, %"class.xercesc_2_7::MemoryManager"** %theManager, align 8, !dbg !3079
  call void @_ZN11xalanc_1_1013releaseMemoryERNS_14XalanDOMStringERN11xercesc_2_713MemoryManagerE(%"class.xalanc_1_10::XalanDOMString"* dereferenceable(40) @_ZL35ELEMNAME_INCLUDE_WITH_PREFIX_STRING, %"class.xercesc_2_7::MemoryManager"* dereferenceable(8) %102), !dbg !3080
  %103 = load %"class.xercesc_2_7::MemoryManager"*, %"class.xercesc_2_7::MemoryManager"** %theManager, align 8, !dbg !3081
  call void @_ZN11xalanc_1_1013releaseMemoryERNS_14XalanDOMStringERN11xercesc_2_713MemoryManagerE(%"class.xalanc_1_10::XalanDOMString"* dereferenceable(40) @_ZL31ELEMNAME_KEY_WITH_PREFIX_STRING, %"class.xercesc_2_7::MemoryManager"* dereferenceable(8) %103), !dbg !3082
  %104 = load %"class.xercesc_2_7::MemoryManager"*, %"class.xercesc_2_7::MemoryManager"** %theManager, align 8, !dbg !3083
  call void @_ZN11xalanc_1_1013releaseMemoryERNS_14XalanDOMStringERN11xercesc_2_713MemoryManagerE(%"class.xalanc_1_10::XalanDOMString"* dereferenceable(40) @_ZL35ELEMNAME_MESSAGE_WITH_PREFIX_STRING, %"class.xercesc_2_7::MemoryManager"* dereferenceable(8) %104), !dbg !3084
  %105 = load %"class.xercesc_2_7::MemoryManager"*, %"class.xercesc_2_7::MemoryManager"** %theManager, align 8, !dbg !3085
  call void @_ZN11xalanc_1_1013releaseMemoryERNS_14XalanDOMStringERN11xercesc_2_713MemoryManagerE(%"class.xalanc_1_10::XalanDOMString"* dereferenceable(40) @_ZL34ELEMNAME_NUMBER_WITH_PREFIX_STRING, %"class.xercesc_2_7::MemoryManager"* dereferenceable(8) %105), !dbg !3086
  %106 = load %"class.xercesc_2_7::MemoryManager"*, %"class.xercesc_2_7::MemoryManager"** %theManager, align 8, !dbg !3087
  call void @_ZN11xalanc_1_1013releaseMemoryERNS_14XalanDOMStringERN11xercesc_2_713MemoryManagerE(%"class.xalanc_1_10::XalanDOMString"* dereferenceable(40) @_ZL37ELEMNAME_OTHERWISE_WITH_PREFIX_STRING, %"class.xercesc_2_7::MemoryManager"* dereferenceable(8) %106), !dbg !3088
  %107 = load %"class.xercesc_2_7::MemoryManager"*, %"class.xercesc_2_7::MemoryManager"** %theManager, align 8, !dbg !3089
  call void @_ZN11xalanc_1_1013releaseMemoryERNS_14XalanDOMStringERN11xercesc_2_713MemoryManagerE(%"class.xalanc_1_10::XalanDOMString"* dereferenceable(40) @_ZL33ELEMNAME_PARAM_WITH_PREFIX_STRING, %"class.xercesc_2_7::MemoryManager"* dereferenceable(8) %107), !dbg !3090
  %108 = load %"class.xercesc_2_7::MemoryManager"*, %"class.xercesc_2_7::MemoryManager"** %theManager, align 8, !dbg !3091
  call void @_ZN11xalanc_1_1013releaseMemoryERNS_14XalanDOMStringERN11xercesc_2_713MemoryManagerE(%"class.xalanc_1_10::XalanDOMString"* dereferenceable(40) @_ZL30ELEMNAME_PI_WITH_PREFIX_STRING, %"class.xercesc_2_7::MemoryManager"* dereferenceable(8) %108), !dbg !3092
  %109 = load %"class.xercesc_2_7::MemoryManager"*, %"class.xercesc_2_7::MemoryManager"** %theManager, align 8, !dbg !3093
  call void @_ZN11xalanc_1_1013releaseMemoryERNS_14XalanDOMStringERN11xercesc_2_713MemoryManagerE(%"class.xalanc_1_10::XalanDOMString"* dereferenceable(40) @_ZL41ELEMNAME_PRESERVESPACE_WITH_PREFIX_STRING, %"class.xercesc_2_7::MemoryManager"* dereferenceable(8) %109), !dbg !3094
  %110 = load %"class.xercesc_2_7::MemoryManager"*, %"class.xercesc_2_7::MemoryManager"** %theManager, align 8, !dbg !3095
  call void @_ZN11xalanc_1_1013releaseMemoryERNS_14XalanDOMStringERN11xercesc_2_713MemoryManagerE(%"class.xalanc_1_10::XalanDOMString"* dereferenceable(40) @_ZL32ELEMNAME_SORT_WITH_PREFIX_STRING, %"class.xercesc_2_7::MemoryManager"* dereferenceable(8) %110), !dbg !3096
  %111 = load %"class.xercesc_2_7::MemoryManager"*, %"class.xercesc_2_7::MemoryManager"** %theManager, align 8, !dbg !3097
  call void @_ZN11xalanc_1_1013releaseMemoryERNS_14XalanDOMStringERN11xercesc_2_713MemoryManagerE(%"class.xalanc_1_10::XalanDOMString"* dereferenceable(40) @_ZL38ELEMNAME_STRIPSPACE_WITH_PREFIX_STRING, %"class.xercesc_2_7::MemoryManager"* dereferenceable(8) %111), !dbg !3098
  %112 = load %"class.xercesc_2_7::MemoryManager"*, %"class.xercesc_2_7::MemoryManager"** %theManager, align 8, !dbg !3099
  call void @_ZN11xalanc_1_1013releaseMemoryERNS_14XalanDOMStringERN11xercesc_2_713MemoryManagerE(%"class.xalanc_1_10::XalanDOMString"* dereferenceable(40) @_ZL36ELEMNAME_TEMPLATE_WITH_PREFIX_STRING, %"class.xercesc_2_7::MemoryManager"* dereferenceable(8) %112), !dbg !3100
  %113 = load %"class.xercesc_2_7::MemoryManager"*, %"class.xercesc_2_7::MemoryManager"** %theManager, align 8, !dbg !3101
  call void @_ZN11xalanc_1_1013releaseMemoryERNS_14XalanDOMStringERN11xercesc_2_713MemoryManagerE(%"class.xalanc_1_10::XalanDOMString"* dereferenceable(40) @_ZL32ELEMNAME_TEXT_WITH_PREFIX_STRING, %"class.xercesc_2_7::MemoryManager"* dereferenceable(8) %113), !dbg !3102
  %114 = load %"class.xercesc_2_7::MemoryManager"*, %"class.xercesc_2_7::MemoryManager"** %theManager, align 8, !dbg !3103
  call void @_ZN11xalanc_1_1013releaseMemoryERNS_14XalanDOMStringERN11xercesc_2_713MemoryManagerE(%"class.xalanc_1_10::XalanDOMString"* dereferenceable(40) @_ZL35ELEMNAME_VALUEOF_WITH_PREFIX_STRING, %"class.xercesc_2_7::MemoryManager"* dereferenceable(8) %114), !dbg !3104
  %115 = load %"class.xercesc_2_7::MemoryManager"*, %"class.xercesc_2_7::MemoryManager"** %theManager, align 8, !dbg !3105
  call void @_ZN11xalanc_1_1013releaseMemoryERNS_14XalanDOMStringERN11xercesc_2_713MemoryManagerE(%"class.xalanc_1_10::XalanDOMString"* dereferenceable(40) @_ZL36ELEMNAME_VARIABLE_WITH_PREFIX_STRING, %"class.xercesc_2_7::MemoryManager"* dereferenceable(8) %115), !dbg !3106
  %116 = load %"class.xercesc_2_7::MemoryManager"*, %"class.xercesc_2_7::MemoryManager"** %theManager, align 8, !dbg !3107
  call void @_ZN11xalanc_1_1013releaseMemoryERNS_14XalanDOMStringERN11xercesc_2_713MemoryManagerE(%"class.xalanc_1_10::XalanDOMString"* dereferenceable(40) @_ZL32ELEMNAME_WHEN_WITH_PREFIX_STRING, %"class.xercesc_2_7::MemoryManager"* dereferenceable(8) %116), !dbg !3108
  %117 = load %"class.xercesc_2_7::MemoryManager"*, %"class.xercesc_2_7::MemoryManager"** %theManager, align 8, !dbg !3109
  call void @_ZN11xalanc_1_1013releaseMemoryERNS_14XalanDOMStringERN11xercesc_2_713MemoryManagerE(%"class.xalanc_1_10::XalanDOMString"* dereferenceable(40) @_ZL37ELEMNAME_WITHPARAM_WITH_PREFIX_STRING, %"class.xercesc_2_7::MemoryManager"* dereferenceable(8) %117), !dbg !3110
  %118 = load %"class.xercesc_2_7::MemoryManager"*, %"class.xercesc_2_7::MemoryManager"** %theManager, align 8, !dbg !3111
  call void @_ZN11xalanc_1_1013releaseMemoryERNS_14XalanDOMStringERN11xercesc_2_713MemoryManagerE(%"class.xalanc_1_10::XalanDOMString"* dereferenceable(40) @_ZL15PSEUDONAME_NODE, %"class.xercesc_2_7::MemoryManager"* dereferenceable(8) %118), !dbg !3112
  ret void, !dbg !3113
}

; Function Attrs: noinline uwtable
define linkonce_odr dso_local void @_ZN11xalanc_1_1013releaseMemoryERNS_14XalanDOMStringERN11xercesc_2_713MemoryManagerE(%"class.xalanc_1_10::XalanDOMString"* dereferenceable(40) %theString, %"class.xercesc_2_7::MemoryManager"* dereferenceable(8) %theManager) #0 comdat personality i8* bitcast (i32 (...)* @__gxx_personality_v0 to i8*) !dbg !3114 {
entry:
  %theString.addr = alloca %"class.xalanc_1_10::XalanDOMString"*, align 8
  %theManager.addr = alloca %"class.xercesc_2_7::MemoryManager"*, align 8
  %ref.tmp = alloca %"class.xalanc_1_10::XalanDOMString", align 8
  %exn.slot = alloca i8*
  %ehselector.slot = alloca i32
  store %"class.xalanc_1_10::XalanDOMString"* %theString, %"class.xalanc_1_10::XalanDOMString"** %theString.addr, align 8
  call void @llvm.dbg.declare(metadata %"class.xalanc_1_10::XalanDOMString"** %theString.addr, metadata !3117, metadata !DIExpression()), !dbg !3118
  store %"class.xercesc_2_7::MemoryManager"* %theManager, %"class.xercesc_2_7::MemoryManager"** %theManager.addr, align 8
  call void @llvm.dbg.declare(metadata %"class.xercesc_2_7::MemoryManager"** %theManager.addr, metadata !3119, metadata !DIExpression()), !dbg !3120
  %0 = load %"class.xercesc_2_7::MemoryManager"*, %"class.xercesc_2_7::MemoryManager"** %theManager.addr, align 8, !dbg !3121
  call void @_ZN11xalanc_1_1014XalanDOMStringC1ERN11xercesc_2_713MemoryManagerE(%"class.xalanc_1_10::XalanDOMString"* %ref.tmp, %"class.xercesc_2_7::MemoryManager"* dereferenceable(8) %0), !dbg !3122
  %1 = load %"class.xalanc_1_10::XalanDOMString"*, %"class.xalanc_1_10::XalanDOMString"** %theString.addr, align 8, !dbg !3123
  invoke void @_ZN11xalanc_1_1014XalanDOMString4swapERS0_(%"class.xalanc_1_10::XalanDOMString"* %ref.tmp, %"class.xalanc_1_10::XalanDOMString"* dereferenceable(40) %1)
          to label %invoke.cont unwind label %lpad, !dbg !3124

invoke.cont:                                      ; preds = %entry
  call void @_ZN11xalanc_1_1014XalanDOMStringD2Ev(%"class.xalanc_1_10::XalanDOMString"* %ref.tmp) #3, !dbg !3122
  ret void, !dbg !3125

lpad:                                             ; preds = %entry
  %2 = landingpad { i8*, i32 }
          cleanup, !dbg !3125
  %3 = extractvalue { i8*, i32 } %2, 0, !dbg !3125
  store i8* %3, i8** %exn.slot, align 8, !dbg !3125
  %4 = extractvalue { i8*, i32 } %2, 1, !dbg !3125
  store i32 %4, i32* %ehselector.slot, align 4, !dbg !3125
  call void @_ZN11xalanc_1_1014XalanDOMStringD2Ev(%"class.xalanc_1_10::XalanDOMString"* %ref.tmp) #3, !dbg !3122
  br label %eh.resume, !dbg !3122

eh.resume:                                        ; preds = %lpad
  %exn = load i8*, i8** %exn.slot, align 8, !dbg !3122
  %sel = load i32, i32* %ehselector.slot, align 4, !dbg !3122
  %lpad.val = insertvalue { i8*, i32 } undef, i8* %exn, 0, !dbg !3122
  %lpad.val1 = insertvalue { i8*, i32 } %lpad.val, i32 %sel, 1, !dbg !3122
  resume { i8*, i32 } %lpad.val1, !dbg !3122
}

; Function Attrs: noinline nounwind uwtable
define linkonce_odr dso_local void @_ZN11xalanc_1_1011XalanVectorItNS_31MemoryManagedConstructionTraitsItEEED2Ev(%"class.xalanc_1_10::XalanVector"* %this) unnamed_addr #2 comdat align 2 personality i8* bitcast (i32 (...)* @__gxx_personality_v0 to i8*) !dbg !3126 {
entry:
  %this.addr = alloca %"class.xalanc_1_10::XalanVector"*, align 8
  store %"class.xalanc_1_10::XalanVector"* %this, %"class.xalanc_1_10::XalanVector"** %this.addr, align 8
  call void @llvm.dbg.declare(metadata %"class.xalanc_1_10::XalanVector"** %this.addr, metadata !3127, metadata !DIExpression()), !dbg !3128
  %this1 = load %"class.xalanc_1_10::XalanVector"*, %"class.xalanc_1_10::XalanVector"** %this.addr, align 8
  invoke void @_ZNK11xalanc_1_1011XalanVectorItNS_31MemoryManagedConstructionTraitsItEEE10invariantsEv(%"class.xalanc_1_10::XalanVector"* %this1)
          to label %invoke.cont unwind label %terminate.lpad, !dbg !3129

invoke.cont:                                      ; preds = %entry
  %m_allocation = getelementptr inbounds %"class.xalanc_1_10::XalanVector", %"class.xalanc_1_10::XalanVector"* %this1, i32 0, i32 2, !dbg !3131
  %0 = load i64, i64* %m_allocation, align 8, !dbg !3131
  %cmp = icmp ne i64 %0, 0, !dbg !3133
  br i1 %cmp, label %if.then, label %if.end, !dbg !3134

if.then:                                          ; preds = %invoke.cont
  %call = invoke i16* @_ZN11xalanc_1_1011XalanVectorItNS_31MemoryManagedConstructionTraitsItEEE5beginEv(%"class.xalanc_1_10::XalanVector"* %this1)
          to label %invoke.cont2 unwind label %terminate.lpad, !dbg !3135

invoke.cont2:                                     ; preds = %if.then
  %call4 = invoke i16* @_ZN11xalanc_1_1011XalanVectorItNS_31MemoryManagedConstructionTraitsItEEE3endEv(%"class.xalanc_1_10::XalanVector"* %this1)
          to label %invoke.cont3 unwind label %terminate.lpad, !dbg !3137

invoke.cont3:                                     ; preds = %invoke.cont2
  invoke void @_ZN11xalanc_1_1011XalanVectorItNS_31MemoryManagedConstructionTraitsItEEE7destroyEPtS4_(i16* %call, i16* %call4)
          to label %invoke.cont5 unwind label %terminate.lpad, !dbg !3138

invoke.cont5:                                     ; preds = %invoke.cont3
  %m_data = getelementptr inbounds %"class.xalanc_1_10::XalanVector", %"class.xalanc_1_10::XalanVector"* %this1, i32 0, i32 3, !dbg !3139
  %1 = load i16*, i16** %m_data, align 8, !dbg !3139
  invoke void @_ZN11xalanc_1_1011XalanVectorItNS_31MemoryManagedConstructionTraitsItEEE10deallocateEPt(%"class.xalanc_1_10::XalanVector"* %this1, i16* %1)
          to label %invoke.cont6 unwind label %terminate.lpad, !dbg !3140

invoke.cont6:                                     ; preds = %invoke.cont5
  br label %if.end, !dbg !3141

if.end:                                           ; preds = %invoke.cont6, %invoke.cont
  ret void, !dbg !3142

terminate.lpad:                                   ; preds = %invoke.cont5, %invoke.cont3, %invoke.cont2, %if.then, %entry
  %2 = landingpad { i8*, i32 }
          catch i8* null, !dbg !3129
  %3 = extractvalue { i8*, i32 } %2, 0, !dbg !3129
  call void @__clang_call_terminate(i8* %3) #6, !dbg !3129
  unreachable, !dbg !3129
}

; Function Attrs: noinline nounwind uwtable
define linkonce_odr dso_local void @_ZNK11xalanc_1_1011XalanVectorItNS_31MemoryManagedConstructionTraitsItEEE10invariantsEv(%"class.xalanc_1_10::XalanVector"* %this) #2 comdat align 2 !dbg !3143 {
entry:
  %this.addr = alloca %"class.xalanc_1_10::XalanVector"*, align 8
  store %"class.xalanc_1_10::XalanVector"* %this, %"class.xalanc_1_10::XalanVector"** %this.addr, align 8
  call void @llvm.dbg.declare(metadata %"class.xalanc_1_10::XalanVector"** %this.addr, metadata !3144, metadata !DIExpression()), !dbg !3146
  %this1 = load %"class.xalanc_1_10::XalanVector"*, %"class.xalanc_1_10::XalanVector"** %this.addr, align 8
  ret void, !dbg !3147
}

declare dso_local i32 @__gxx_personality_v0(...)

; Function Attrs: noinline noreturn nounwind
define linkonce_odr hidden void @__clang_call_terminate(i8* %0) #5 comdat {
  %2 = call i8* @__cxa_begin_catch(i8* %0) #3
  call void @_ZSt9terminatev() #6
  unreachable
}

declare dso_local i8* @__cxa_begin_catch(i8*)

declare dso_local void @_ZSt9terminatev()

; Function Attrs: noinline uwtable
define linkonce_odr dso_local void @_ZN11xalanc_1_1011XalanVectorItNS_31MemoryManagedConstructionTraitsItEEE7destroyEPtS4_(i16* %theFirst, i16* %theLast) #0 comdat align 2 !dbg !3148 {
entry:
  %theFirst.addr = alloca i16*, align 8
  %theLast.addr = alloca i16*, align 8
  store i16* %theFirst, i16** %theFirst.addr, align 8
  call void @llvm.dbg.declare(metadata i16** %theFirst.addr, metadata !3149, metadata !DIExpression()), !dbg !3150
  store i16* %theLast, i16** %theLast.addr, align 8
  call void @llvm.dbg.declare(metadata i16** %theLast.addr, metadata !3151, metadata !DIExpression()), !dbg !3152
  br label %for.cond, !dbg !3153

for.cond:                                         ; preds = %for.inc, %entry
  %0 = load i16*, i16** %theFirst.addr, align 8, !dbg !3154
  %1 = load i16*, i16** %theLast.addr, align 8, !dbg !3157
  %cmp = icmp ne i16* %0, %1, !dbg !3158
  br i1 %cmp, label %for.body, label %for.end, !dbg !3159

for.body:                                         ; preds = %for.cond
  %2 = load i16*, i16** %theFirst.addr, align 8, !dbg !3160
  call void @_ZN11xalanc_1_1011XalanVectorItNS_31MemoryManagedConstructionTraitsItEEE7destroyERt(i16* dereferenceable(2) %2), !dbg !3162
  br label %for.inc, !dbg !3163

for.inc:                                          ; preds = %for.body
  %3 = load i16*, i16** %theFirst.addr, align 8, !dbg !3164
  %incdec.ptr = getelementptr inbounds i16, i16* %3, i32 1, !dbg !3164
  store i16* %incdec.ptr, i16** %theFirst.addr, align 8, !dbg !3164
  br label %for.cond, !dbg !3165, !llvm.loop !3166

for.end:                                          ; preds = %for.cond
  ret void, !dbg !3168
}

; Function Attrs: noinline nounwind uwtable
define linkonce_odr dso_local i16* @_ZN11xalanc_1_1011XalanVectorItNS_31MemoryManagedConstructionTraitsItEEE5beginEv(%"class.xalanc_1_10::XalanVector"* %this) #2 comdat align 2 !dbg !3169 {
entry:
  %this.addr = alloca %"class.xalanc_1_10::XalanVector"*, align 8
  store %"class.xalanc_1_10::XalanVector"* %this, %"class.xalanc_1_10::XalanVector"** %this.addr, align 8
  call void @llvm.dbg.declare(metadata %"class.xalanc_1_10::XalanVector"** %this.addr, metadata !3170, metadata !DIExpression()), !dbg !3171
  %this1 = load %"class.xalanc_1_10::XalanVector"*, %"class.xalanc_1_10::XalanVector"** %this.addr, align 8
  call void @_ZNK11xalanc_1_1011XalanVectorItNS_31MemoryManagedConstructionTraitsItEEE10invariantsEv(%"class.xalanc_1_10::XalanVector"* %this1), !dbg !3172
  %m_data = getelementptr inbounds %"class.xalanc_1_10::XalanVector", %"class.xalanc_1_10::XalanVector"* %this1, i32 0, i32 3, !dbg !3173
  %0 = load i16*, i16** %m_data, align 8, !dbg !3173
  ret i16* %0, !dbg !3174
}

; Function Attrs: noinline uwtable
define linkonce_odr dso_local i16* @_ZN11xalanc_1_1011XalanVectorItNS_31MemoryManagedConstructionTraitsItEEE3endEv(%"class.xalanc_1_10::XalanVector"* %this) #0 comdat align 2 !dbg !3175 {
entry:
  %this.addr = alloca %"class.xalanc_1_10::XalanVector"*, align 8
  store %"class.xalanc_1_10::XalanVector"* %this, %"class.xalanc_1_10::XalanVector"** %this.addr, align 8
  call void @llvm.dbg.declare(metadata %"class.xalanc_1_10::XalanVector"** %this.addr, metadata !3176, metadata !DIExpression()), !dbg !3177
  %this1 = load %"class.xalanc_1_10::XalanVector"*, %"class.xalanc_1_10::XalanVector"** %this.addr, align 8
