; ModuleID = 'XalanSourceTreeElementA.cpp'
source_filename = "XalanSourceTreeElementA.cpp"
target datalayout = "e-m:e-p270:32:32-p271:32:32-p272:64:64-i64:64-f80:128-n8:16:32:64-S128"
target triple = "x86_64-unknown-linux-gnu"

%"class.xalanc_1_10::XalanDOMString" = type <{ %"class.xalanc_1_10::XalanVector", i32, [4 x i8] }>
%"class.xalanc_1_10::XalanVector" = type { %"class.xercesc_2_7::MemoryManager"*, i64, i64, i16* }
%"class.xercesc_2_7::MemoryManager" = type { i32 (...)** }
%"class.xalanc_1_10::XalanSourceTreeElementA" = type { %"class.xalanc_1_10::XalanSourceTreeElement", %"class.xalanc_1_10::XalanNamedNodeMap", %"class.xalanc_1_10::XalanSourceTreeAttr"**, i64 }
%"class.xalanc_1_10::XalanSourceTreeElement" = type { %"class.xalanc_1_10::XalanElement", %"class.xalanc_1_10::XalanDOMString"*, %"class.xercesc_2_7::MemoryManager"*, %"class.xalanc_1_10::XalanSourceTreeDocument"*, %"class.xalanc_1_10::XalanNode"*, %"class.xalanc_1_10::XalanNode"*, %"class.xalanc_1_10::XalanNode"*, %"class.xalanc_1_10::XalanNode"*, i64 }
%"class.xalanc_1_10::XalanElement" = type { %"class.xalanc_1_10::XalanNode" }
%"class.xalanc_1_10::XalanNode" = type { i32 (...)** }
%"class.xalanc_1_10::XalanNamedNodeMap" = type { i32 (...)** }
%"class.xalanc_1_10::XalanSourceTreeDocument" = type opaque
%"class.xalanc_1_10::XalanSourceTreeAttr" = type { %"class.xalanc_1_10::XalanAttr", %"class.xalanc_1_10::XalanDOMString"*, %"class.xalanc_1_10::XalanDOMString"*, %"class.xalanc_1_10::XalanSourceTreeElement"*, i64 }
%"class.xalanc_1_10::XalanAttr" = type { %"class.xalanc_1_10::XalanNode" }
%"class.xalanc_1_10::XalanMemMgrAutoPtr" = type { %"class.xalanc_1_10::XalanMemMgrAutoPtr<xalanc_1_10::XalanSourceTreeElementA, false>::MemMgrAutoPtrData" }
%"class.xalanc_1_10::XalanMemMgrAutoPtr<xalanc_1_10::XalanSourceTreeElementA, false>::MemMgrAutoPtrData" = type { %"struct.std::pair" }
%"struct.std::pair" = type { %"class.xercesc_2_7::MemoryManager"*, %"class.xalanc_1_10::XalanSourceTreeElementA"* }
%"class.xalanc_1_10::XalanDOMException" = type <{ i32 (...)**, i32, [4 x i8] }>
%"class.xalanc_1_10::XalanNodeList" = type opaque
%"class.xalanc_1_10::XalanDocument" = type opaque
%"class.std::__pair_base" = type { i8 }

$_ZN11xalanc_1_1014XalanDOMStringD2Ev = comdat any

$_ZN11xalanc_1_1018XalanMemMgrAutoPtrINS_23XalanSourceTreeElementAELb0EEC2ERN11xercesc_2_713MemoryManagerEPS1_ = comdat any

$_ZNK11xalanc_1_1018XalanMemMgrAutoPtrINS_23XalanSourceTreeElementAELb0EE3getEv = comdat any

$_ZN11xalanc_1_1018XalanMemMgrAutoPtrINS_23XalanSourceTreeElementAELb0EE7releaseEv = comdat any

$_ZN11xalanc_1_1018XalanMemMgrAutoPtrINS_23XalanSourceTreeElementAELb0EED2Ev = comdat any

$_ZN11xalanc_1_10eqERKNS_14XalanDOMStringES2_ = comdat any

$_ZN11xalanc_1_1011XalanVectorItNS_31MemoryManagedConstructionTraitsItEEED2Ev = comdat any

$_ZNK11xalanc_1_1011XalanVectorItNS_31MemoryManagedConstructionTraitsItEEE10invariantsEv = comdat any

$__clang_call_terminate = comdat any

$_ZN11xalanc_1_1011XalanVectorItNS_31MemoryManagedConstructionTraitsItEEE7destroyEPtS4_ = comdat any

$_ZN11xalanc_1_1011XalanVectorItNS_31MemoryManagedConstructionTraitsItEEE5beginEv = comdat any

$_ZN11xalanc_1_1011XalanVectorItNS_31MemoryManagedConstructionTraitsItEEE3endEv = comdat any

$_ZN11xalanc_1_1011XalanVectorItNS_31MemoryManagedConstructionTraitsItEEE10deallocateEPt = comdat any

$_ZN11xalanc_1_1011XalanVectorItNS_31MemoryManagedConstructionTraitsItEEE7destroyERt = comdat any

$_ZN11xalanc_1_1011XalanVectorItNS_31MemoryManagedConstructionTraitsItEEE10endPointerEv = comdat any

$_ZN11xalanc_1_1018XalanMemMgrAutoPtrINS_23XalanSourceTreeElementAELb0EE17MemMgrAutoPtrDataC2EPN11xercesc_2_713MemoryManagerEPS1_ = comdat any

$_ZNSt4pairIPN11xercesc_2_713MemoryManagerEPN11xalanc_1_1023XalanSourceTreeElementAEEC2IRS2_RS5_Lb1EEEOT_OT0_ = comdat any

$_ZNK11xalanc_1_1018XalanMemMgrAutoPtrINS_23XalanSourceTreeElementAELb0EE17MemMgrAutoPtrData10invariantsEv = comdat any

$_ZSt7forwardIRPN11xercesc_2_713MemoryManagerEEOT_RNSt16remove_referenceIS4_E4typeE = comdat any

$_ZSt7forwardIRPN11xalanc_1_1023XalanSourceTreeElementAEEOT_RNSt16remove_referenceIS4_E4typeE = comdat any

$_ZN11xalanc_1_1018XalanMemMgrAutoPtrINS_23XalanSourceTreeElementAELb0EE17MemMgrAutoPtrData10deallocateEv = comdat any

$_ZNK11xalanc_1_1018XalanMemMgrAutoPtrINS_23XalanSourceTreeElementAELb0EE17MemMgrAutoPtrData12isInitilizedEv = comdat any

$_ZN11xalanc_1_1018XalanMemMgrAutoPtrINS_23XalanSourceTreeElementAELb0EE17MemMgrAutoPtrData5resetEPN11xercesc_2_713MemoryManagerEPS1_ = comdat any

@_ZN11xalanc_1_10L13s_emptyStringE = internal global %"class.xalanc_1_10::XalanDOMString" zeroinitializer, align 8, !dbg !0
@__dso_handle = external hidden global i8
@_ZTVN11xalanc_1_1023XalanSourceTreeElementAE = dso_local unnamed_addr constant { [52 x i8*], [12 x i8*] } { [52 x i8*] [i8* null, i8* bitcast ({ i8*, i8*, i32, i32, i8*, i64, i8*, i64 }* @_ZTIN11xalanc_1_1023XalanSourceTreeElementAE to i8*), i8* bitcast (void (%"class.xalanc_1_10::XalanSourceTreeElementA"*)* @_ZN11xalanc_1_1023XalanSourceTreeElementAD1Ev to i8*), i8* bitcast (void (%"class.xalanc_1_10::XalanSourceTreeElementA"*)* @_ZN11xalanc_1_1023XalanSourceTreeElementAD0Ev to i8*), i8* bitcast (%"class.xalanc_1_10::XalanDOMString"* (%"class.xalanc_1_10::XalanSourceTreeElement"*)* @_ZNK11xalanc_1_1022XalanSourceTreeElement11getNodeNameEv to i8*), i8* bitcast (%"class.xalanc_1_10::XalanDOMString"* (%"class.xalanc_1_10::XalanSourceTreeElement"*)* @_ZNK11xalanc_1_1022XalanSourceTreeElement12getNodeValueEv to i8*), i8* bitcast (i32 (%"class.xalanc_1_10::XalanSourceTreeElement"*)* @_ZNK11xalanc_1_1022XalanSourceTreeElement11getNodeTypeEv to i8*), i8* bitcast (%"class.xalanc_1_10::XalanNode"* (%"class.xalanc_1_10::XalanSourceTreeElement"*)* @_ZNK11xalanc_1_1022XalanSourceTreeElement13getParentNodeEv to i8*), i8* bitcast (%"class.xalanc_1_10::XalanNodeList"* (%"class.xalanc_1_10::XalanSourceTreeElement"*)* @_ZNK11xalanc_1_1022XalanSourceTreeElement13getChildNodesEv to i8*), i8* bitcast (%"class.xalanc_1_10::XalanNode"* (%"class.xalanc_1_10::XalanSourceTreeElement"*)* @_ZNK11xalanc_1_1022XalanSourceTreeElement13getFirstChildEv to i8*), i8* bitcast (%"class.xalanc_1_10::XalanNode"* (%"class.xalanc_1_10::XalanSourceTreeElement"*)* @_ZNK11xalanc_1_1022XalanSourceTreeElement12getLastChildEv to i8*), i8* bitcast (%"class.xalanc_1_10::XalanNode"* (%"class.xalanc_1_10::XalanSourceTreeElement"*)* @_ZNK11xalanc_1_1022XalanSourceTreeElement18getPreviousSiblingEv to i8*), i8* bitcast (%"class.xalanc_1_10::XalanNode"* (%"class.xalanc_1_10::XalanSourceTreeElement"*)* @_ZNK11xalanc_1_1022XalanSourceTreeElement14getNextSiblingEv to i8*), i8* bitcast (%"class.xalanc_1_10::XalanNamedNodeMap"* (%"class.xalanc_1_10::XalanSourceTreeElementA"*)* @_ZNK11xalanc_1_1023XalanSourceTreeElementA13getAttributesEv to i8*), i8* bitcast (%"class.xalanc_1_10::XalanDocument"* (%"class.xalanc_1_10::XalanSourceTreeElement"*)* @_ZNK11xalanc_1_1022XalanSourceTreeElement16getOwnerDocumentEv to i8*), i8* bitcast (%"class.xalanc_1_10::XalanSourceTreeElementA"* (%"class.xalanc_1_10::XalanSourceTreeElementA"*, i1)* @_ZNK11xalanc_1_1023XalanSourceTreeElementA9cloneNodeEb to i8*), i8* bitcast (%"class.xalanc_1_10::XalanNode"* (%"class.xalanc_1_10::XalanSourceTreeElement"*, %"class.xalanc_1_10::XalanNode"*, %"class.xalanc_1_10::XalanNode"*)* @_ZN11xalanc_1_1022XalanSourceTreeElement12insertBeforeEPNS_9XalanNodeES2_ to i8*), i8* bitcast (%"class.xalanc_1_10::XalanNode"* (%"class.xalanc_1_10::XalanSourceTreeElement"*, %"class.xalanc_1_10::XalanNode"*, %"class.xalanc_1_10::XalanNode"*)* @_ZN11xalanc_1_1022XalanSourceTreeElement12replaceChildEPNS_9XalanNodeES2_ to i8*), i8* bitcast (%"class.xalanc_1_10::XalanNode"* (%"class.xalanc_1_10::XalanSourceTreeElement"*, %"class.xalanc_1_10::XalanNode"*)* @_ZN11xalanc_1_1022XalanSourceTreeElement11removeChildEPNS_9XalanNodeE to i8*), i8* bitcast (%"class.xalanc_1_10::XalanNode"* (%"class.xalanc_1_10::XalanSourceTreeElement"*, %"class.xalanc_1_10::XalanNode"*)* @_ZN11xalanc_1_1022XalanSourceTreeElement11appendChildEPNS_9XalanNodeE to i8*), i8* bitcast (i1 (%"class.xalanc_1_10::XalanSourceTreeElement"*)* @_ZNK11xalanc_1_1022XalanSourceTreeElement13hasChildNodesEv to i8*), i8* bitcast (void (%"class.xalanc_1_10::XalanSourceTreeElement"*, %"class.xalanc_1_10::XalanDOMString"*)* @_ZN11xalanc_1_1022XalanSourceTreeElement12setNodeValueERKNS_14XalanDOMStringE to i8*), i8* bitcast (void (%"class.xalanc_1_10::XalanSourceTreeElement"*)* @_ZN11xalanc_1_1022XalanSourceTreeElement9normalizeEv to i8*), i8* bitcast (i1 (%"class.xalanc_1_10::XalanSourceTreeElement"*, %"class.xalanc_1_10::XalanDOMString"*, %"class.xalanc_1_10::XalanDOMString"*)* @_ZNK11xalanc_1_1022XalanSourceTreeElement11isSupportedERKNS_14XalanDOMStringES3_ to i8*), i8* bitcast (%"class.xalanc_1_10::XalanDOMString"* (%"class.xalanc_1_10::XalanSourceTreeElementA"*)* @_ZNK11xalanc_1_1023XalanSourceTreeElementA15getNamespaceURIEv to i8*), i8* bitcast (%"class.xalanc_1_10::XalanDOMString"* (%"class.xalanc_1_10::XalanSourceTreeElementA"*)* @_ZNK11xalanc_1_1023XalanSourceTreeElementA9getPrefixEv to i8*), i8* bitcast (%"class.xalanc_1_10::XalanDOMString"* (%"class.xalanc_1_10::XalanSourceTreeElementA"*)* @_ZNK11xalanc_1_1023XalanSourceTreeElementA12getLocalNameEv to i8*), i8* bitcast (void (%"class.xalanc_1_10::XalanSourceTreeElement"*, %"class.xalanc_1_10::XalanDOMString"*)* @_ZN11xalanc_1_1022XalanSourceTreeElement9setPrefixERKNS_14XalanDOMStringE to i8*), i8* bitcast (i1 (%"class.xalanc_1_10::XalanSourceTreeElement"*)* @_ZNK11xalanc_1_1022XalanSourceTreeElement9isIndexedEv to i8*), i8* bitcast (i64 (%"class.xalanc_1_10::XalanSourceTreeElement"*)* @_ZNK11xalanc_1_1022XalanSourceTreeElement8getIndexEv to i8*), i8* bitcast (%"class.xalanc_1_10::XalanDOMString"* (%"class.xalanc_1_10::XalanSourceTreeElement"*)* @_ZNK11xalanc_1_1022XalanSourceTreeElement10getTagNameEv to i8*), i8* bitcast (%"class.xalanc_1_10::XalanDOMString"* (%"class.xalanc_1_10::XalanSourceTreeElementA"*, %"class.xalanc_1_10::XalanDOMString"*)* @_ZNK11xalanc_1_1023XalanSourceTreeElementA12getAttributeERKNS_14XalanDOMStringE to i8*), i8* bitcast (%"class.xalanc_1_10::XalanAttr"* (%"class.xalanc_1_10::XalanSourceTreeElementA"*, %"class.xalanc_1_10::XalanDOMString"*)* @_ZNK11xalanc_1_1023XalanSourceTreeElementA16getAttributeNodeERKNS_14XalanDOMStringE to i8*), i8* bitcast (%"class.xalanc_1_10::XalanNodeList"* (%"class.xalanc_1_10::XalanSourceTreeElement"*, %"class.xalanc_1_10::XalanDOMString"*)* @_ZNK11xalanc_1_1022XalanSourceTreeElement20getElementsByTagNameERKNS_14XalanDOMStringE to i8*), i8* bitcast (void (%"class.xalanc_1_10::XalanSourceTreeElement"*, %"class.xalanc_1_10::XalanDOMString"*, %"class.xalanc_1_10::XalanDOMString"*)* @_ZN11xalanc_1_1022XalanSourceTreeElement12setAttributeERKNS_14XalanDOMStringES3_ to i8*), i8* bitcast (%"class.xalanc_1_10::XalanAttr"* (%"class.xalanc_1_10::XalanSourceTreeElement"*, %"class.xalanc_1_10::XalanAttr"*)* @_ZN11xalanc_1_1022XalanSourceTreeElement16setAttributeNodeEPNS_9XalanAttrE to i8*), i8* bitcast (%"class.xalanc_1_10::XalanAttr"* (%"class.xalanc_1_10::XalanSourceTreeElement"*, %"class.xalanc_1_10::XalanAttr"*)* @_ZN11xalanc_1_1022XalanSourceTreeElement19removeAttributeNodeEPNS_9XalanAttrE to i8*), i8* bitcast (void (%"class.xalanc_1_10::XalanSourceTreeElement"*, %"class.xalanc_1_10::XalanDOMString"*)* @_ZN11xalanc_1_1022XalanSourceTreeElement15removeAttributeERKNS_14XalanDOMStringE to i8*), i8* bitcast (%"class.xalanc_1_10::XalanDOMString"* (%"class.xalanc_1_10::XalanSourceTreeElementA"*, %"class.xalanc_1_10::XalanDOMString"*, %"class.xalanc_1_10::XalanDOMString"*)* @_ZNK11xalanc_1_1023XalanSourceTreeElementA14getAttributeNSERKNS_14XalanDOMStringES3_ to i8*), i8* bitcast (void (%"class.xalanc_1_10::XalanSourceTreeElement"*, %"class.xalanc_1_10::XalanDOMString"*, %"class.xalanc_1_10::XalanDOMString"*, %"class.xalanc_1_10::XalanDOMString"*)* @_ZN11xalanc_1_1022XalanSourceTreeElement14setAttributeNSERKNS_14XalanDOMStringES3_S3_ to i8*), i8* bitcast (void (%"class.xalanc_1_10::XalanSourceTreeElement"*, %"class.xalanc_1_10::XalanDOMString"*, %"class.xalanc_1_10::XalanDOMString"*)* @_ZN11xalanc_1_1022XalanSourceTreeElement17removeAttributeNSERKNS_14XalanDOMStringES3_ to i8*), i8* bitcast (%"class.xalanc_1_10::XalanAttr"* (%"class.xalanc_1_10::XalanSourceTreeElementA"*, %"class.xalanc_1_10::XalanDOMString"*, %"class.xalanc_1_10::XalanDOMString"*)* @_ZNK11xalanc_1_1023XalanSourceTreeElementA18getAttributeNodeNSERKNS_14XalanDOMStringES3_ to i8*), i8* bitcast (%"class.xalanc_1_10::XalanAttr"* (%"class.xalanc_1_10::XalanSourceTreeElement"*, %"class.xalanc_1_10::XalanAttr"*)* @_ZN11xalanc_1_1022XalanSourceTreeElement18setAttributeNodeNSEPNS_9XalanAttrE to i8*), i8* bitcast (%"class.xalanc_1_10::XalanNodeList"* (%"class.xalanc_1_10::XalanSourceTreeElement"*, %"class.xalanc_1_10::XalanDOMString"*, %"class.xalanc_1_10::XalanDOMString"*)* @_ZNK11xalanc_1_1022XalanSourceTreeElement22getElementsByTagNameNSERKNS_14XalanDOMStringES3_ to i8*), i8* bitcast (%"class.xalanc_1_10::XalanNode"* (%"class.xalanc_1_10::XalanSourceTreeElementA"*, %"class.xalanc_1_10::XalanNode"*)* @_ZN11xalanc_1_1023XalanSourceTreeElementA12setNamedItemEPNS_9XalanNodeE to i8*), i8* bitcast (%"class.xalanc_1_10::XalanNode"* (%"class.xalanc_1_10::XalanSourceTreeElementA"*, i32)* @_ZNK11xalanc_1_1023XalanSourceTreeElementA4itemEj to i8*), i8* bitcast (%"class.xalanc_1_10::XalanNode"* (%"class.xalanc_1_10::XalanSourceTreeElementA"*, %"class.xalanc_1_10::XalanDOMString"*)* @_ZNK11xalanc_1_1023XalanSourceTreeElementA12getNamedItemERKNS_14XalanDOMStringE to i8*), i8* bitcast (i32 (%"class.xalanc_1_10::XalanSourceTreeElementA"*)* @_ZNK11xalanc_1_1023XalanSourceTreeElementA9getLengthEv to i8*), i8* bitcast (%"class.xalanc_1_10::XalanNode"* (%"class.xalanc_1_10::XalanSourceTreeElementA"*, %"class.xalanc_1_10::XalanDOMString"*)* @_ZN11xalanc_1_1023XalanSourceTreeElementA15removeNamedItemERKNS_14XalanDOMStringE to i8*), i8* bitcast (%"class.xalanc_1_10::XalanNode"* (%"class.xalanc_1_10::XalanSourceTreeElementA"*, %"class.xalanc_1_10::XalanDOMString"*, %"class.xalanc_1_10::XalanDOMString"*)* @_ZNK11xalanc_1_1023XalanSourceTreeElementA14getNamedItemNSERKNS_14XalanDOMStringES3_ to i8*), i8* bitcast (%"class.xalanc_1_10::XalanNode"* (%"class.xalanc_1_10::XalanSourceTreeElementA"*, %"class.xalanc_1_10::XalanNode"*)* @_ZN11xalanc_1_1023XalanSourceTreeElementA14setNamedItemNSEPNS_9XalanNodeE to i8*), i8* bitcast (%"class.xalanc_1_10::XalanNode"* (%"class.xalanc_1_10::XalanSourceTreeElementA"*, %"class.xalanc_1_10::XalanDOMString"*, %"class.xalanc_1_10::XalanDOMString"*)* @_ZN11xalanc_1_1023XalanSourceTreeElementA17removeNamedItemNSERKNS_14XalanDOMStringES3_ to i8*)], [12 x i8*] [i8* inttoptr (i64 -72 to i8*), i8* bitcast ({ i8*, i8*, i32, i32, i8*, i64, i8*, i64 }* @_ZTIN11xalanc_1_1023XalanSourceTreeElementAE to i8*), i8* bitcast (void (%"class.xalanc_1_10::XalanSourceTreeElementA"*)* @_ZThn72_N11xalanc_1_1023XalanSourceTreeElementAD1Ev to i8*), i8* bitcast (void (%"class.xalanc_1_10::XalanSourceTreeElementA"*)* @_ZThn72_N11xalanc_1_1023XalanSourceTreeElementAD0Ev to i8*), i8* bitcast (%"class.xalanc_1_10::XalanNode"* (%"class.xalanc_1_10::XalanSourceTreeElementA"*, %"class.xalanc_1_10::XalanNode"*)* @_ZThn72_N11xalanc_1_1023XalanSourceTreeElementA12setNamedItemEPNS_9XalanNodeE to i8*), i8* bitcast (%"class.xalanc_1_10::XalanNode"* (%"class.xalanc_1_10::XalanSourceTreeElementA"*, i32)* @_ZThn72_NK11xalanc_1_1023XalanSourceTreeElementA4itemEj to i8*), i8* bitcast (%"class.xalanc_1_10::XalanNode"* (%"class.xalanc_1_10::XalanSourceTreeElementA"*, %"class.xalanc_1_10::XalanDOMString"*)* @_ZThn72_NK11xalanc_1_1023XalanSourceTreeElementA12getNamedItemERKNS_14XalanDOMStringE to i8*), i8* bitcast (i32 (%"class.xalanc_1_10::XalanSourceTreeElementA"*)* @_ZThn72_NK11xalanc_1_1023XalanSourceTreeElementA9getLengthEv to i8*), i8* bitcast (%"class.xalanc_1_10::XalanNode"* (%"class.xalanc_1_10::XalanSourceTreeElementA"*, %"class.xalanc_1_10::XalanDOMString"*)* @_ZThn72_N11xalanc_1_1023XalanSourceTreeElementA15removeNamedItemERKNS_14XalanDOMStringE to i8*), i8* bitcast (%"class.xalanc_1_10::XalanNode"* (%"class.xalanc_1_10::XalanSourceTreeElementA"*, %"class.xalanc_1_10::XalanDOMString"*, %"class.xalanc_1_10::XalanDOMString"*)* @_ZThn72_NK11xalanc_1_1023XalanSourceTreeElementA14getNamedItemNSERKNS_14XalanDOMStringES3_ to i8*), i8* bitcast (%"class.xalanc_1_10::XalanNode"* (%"class.xalanc_1_10::XalanSourceTreeElementA"*, %"class.xalanc_1_10::XalanNode"*)* @_ZThn72_N11xalanc_1_1023XalanSourceTreeElementA14setNamedItemNSEPNS_9XalanNodeE to i8*), i8* bitcast (%"class.xalanc_1_10::XalanNode"* (%"class.xalanc_1_10::XalanSourceTreeElementA"*, %"class.xalanc_1_10::XalanDOMString"*, %"class.xalanc_1_10::XalanDOMString"*)* @_ZThn72_N11xalanc_1_1023XalanSourceTreeElementA17removeNamedItemNSERKNS_14XalanDOMStringES3_ to i8*)] }, align 8
@_ZTIN11xalanc_1_1017XalanDOMExceptionE = external dso_local constant i8*
@_ZN11xalanc_1_1022XalanSourceTreeElement13s_emptyStringE = external dso_local global %"class.xalanc_1_10::XalanDOMString", align 8
@_ZTVN10__cxxabiv121__vmi_class_type_infoE = external dso_local global i8*
@_ZTSN11xalanc_1_1023XalanSourceTreeElementAE = dso_local constant [41 x i8] c"N11xalanc_1_1023XalanSourceTreeElementAE\00", align 1
@_ZTIN11xalanc_1_1022XalanSourceTreeElementE = external dso_local constant i8*
@_ZTIN11xalanc_1_1017XalanNamedNodeMapE = external dso_local constant i8*
@_ZTIN11xalanc_1_1023XalanSourceTreeElementAE = dso_local constant { i8*, i8*, i32, i32, i8*, i64, i8*, i64 } { i8* bitcast (i8** getelementptr inbounds (i8*, i8** @_ZTVN10__cxxabiv121__vmi_class_type_infoE, i64 2) to i8*), i8* getelementptr inbounds ([41 x i8], [41 x i8]* @_ZTSN11xalanc_1_1023XalanSourceTreeElementAE, i32 0, i32 0), i32 0, i32 2, i8* bitcast (i8** @_ZTIN11xalanc_1_1022XalanSourceTreeElementE to i8*), i64 2, i8* bitcast (i8** @_ZTIN11xalanc_1_1017XalanNamedNodeMapE to i8*), i64 18432 }, align 8
@llvm.global_ctors = appending global [1 x { i32, void ()*, i8* }] [{ i32, void ()*, i8* } { i32 65535, void ()* @_GLOBAL__sub_I_XalanSourceTreeElementA.cpp, i8* null }]

@_ZN11xalanc_1_1023XalanSourceTreeElementAC1ERN11xercesc_2_713MemoryManagerERKNS_14XalanDOMStringEPNS_23XalanSourceTreeDocumentEPPNS_19XalanSourceTreeAttrEmPNS_9XalanNodeESD_SD_m = dso_local unnamed_addr alias void (%"class.xalanc_1_10::XalanSourceTreeElementA"*, %"class.xercesc_2_7::MemoryManager"*, %"class.xalanc_1_10::XalanDOMString"*, %"class.xalanc_1_10::XalanSourceTreeDocument"*, %"class.xalanc_1_10::XalanSourceTreeAttr"**, i64, %"class.xalanc_1_10::XalanNode"*, %"class.xalanc_1_10::XalanNode"*, %"class.xalanc_1_10::XalanNode"*, i64), void (%"class.xalanc_1_10::XalanSourceTreeElementA"*, %"class.xercesc_2_7::MemoryManager"*, %"class.xalanc_1_10::XalanDOMString"*, %"class.xalanc_1_10::XalanSourceTreeDocument"*, %"class.xalanc_1_10::XalanSourceTreeAttr"**, i64, %"class.xalanc_1_10::XalanNode"*, %"class.xalanc_1_10::XalanNode"*, %"class.xalanc_1_10::XalanNode"*, i64)* @_ZN11xalanc_1_1023XalanSourceTreeElementAC2ERN11xercesc_2_713MemoryManagerERKNS_14XalanDOMStringEPNS_23XalanSourceTreeDocumentEPPNS_19XalanSourceTreeAttrEmPNS_9XalanNodeESD_SD_m
@_ZN11xalanc_1_1023XalanSourceTreeElementAD1Ev = dso_local unnamed_addr alias void (%"class.xalanc_1_10::XalanSourceTreeElementA"*), void (%"class.xalanc_1_10::XalanSourceTreeElementA"*)* @_ZN11xalanc_1_1023XalanSourceTreeElementAD2Ev
@_ZN11xalanc_1_1023XalanSourceTreeElementAC1ERN11xercesc_2_713MemoryManagerERKS0_b = dso_local unnamed_addr alias void (%"class.xalanc_1_10::XalanSourceTreeElementA"*, %"class.xercesc_2_7::MemoryManager"*, %"class.xalanc_1_10::XalanSourceTreeElementA"*, i1), void (%"class.xalanc_1_10::XalanSourceTreeElementA"*, %"class.xercesc_2_7::MemoryManager"*, %"class.xalanc_1_10::XalanSourceTreeElementA"*, i1)* @_ZN11xalanc_1_1023XalanSourceTreeElementAC2ERN11xercesc_2_713MemoryManagerERKS0_b

; Function Attrs: noinline uwtable
define internal void @__cxx_global_var_init() #0 section ".text.startup" !dbg !1914 {
entry:
  %call = call dereferenceable(8) %"class.xercesc_2_7::MemoryManager"* @_ZN11xalanc_1_1012XalanMemMgrs14getDummyMemMgrEv(), !dbg !1915
  call void @_ZN11xalanc_1_1014XalanDOMStringC1ERN11xercesc_2_713MemoryManagerE(%"class.xalanc_1_10::XalanDOMString"* @_ZN11xalanc_1_10L13s_emptyStringE, %"class.xercesc_2_7::MemoryManager"* dereferenceable(8) %call), !dbg !1916
  %0 = call i32 @__cxa_atexit(void (i8*)* bitcast (void (%"class.xalanc_1_10::XalanDOMString"*)* @_ZN11xalanc_1_1014XalanDOMStringD2Ev to void (i8*)*), i8* bitcast (%"class.xalanc_1_10::XalanDOMString"* @_ZN11xalanc_1_10L13s_emptyStringE to i8*), i8* @__dso_handle) #3, !dbg !1916
  ret void, !dbg !1915
}

declare dso_local dereferenceable(8) %"class.xercesc_2_7::MemoryManager"* @_ZN11xalanc_1_1012XalanMemMgrs14getDummyMemMgrEv() #1

declare dso_local void @_ZN11xalanc_1_1014XalanDOMStringC1ERN11xercesc_2_713MemoryManagerE(%"class.xalanc_1_10::XalanDOMString"*, %"class.xercesc_2_7::MemoryManager"* dereferenceable(8)) unnamed_addr #1

; Function Attrs: noinline nounwind uwtable
define linkonce_odr dso_local void @_ZN11xalanc_1_1014XalanDOMStringD2Ev(%"class.xalanc_1_10::XalanDOMString"* %this) unnamed_addr #2 comdat align 2 !dbg !1917 {
entry:
  %this.addr = alloca %"class.xalanc_1_10::XalanDOMString"*, align 8
  store %"class.xalanc_1_10::XalanDOMString"* %this, %"class.xalanc_1_10::XalanDOMString"** %this.addr, align 8
  call void @llvm.dbg.declare(metadata %"class.xalanc_1_10::XalanDOMString"** %this.addr, metadata !1918, metadata !DIExpression()), !dbg !1919
  %this1 = load %"class.xalanc_1_10::XalanDOMString"*, %"class.xalanc_1_10::XalanDOMString"** %this.addr, align 8
  %m_data = getelementptr inbounds %"class.xalanc_1_10::XalanDOMString", %"class.xalanc_1_10::XalanDOMString"* %this1, i32 0, i32 0, !dbg !1920
  call void @_ZN11xalanc_1_1011XalanVectorItNS_31MemoryManagedConstructionTraitsItEEED2Ev(%"class.xalanc_1_10::XalanVector"* %m_data) #3, !dbg !1920
  ret void, !dbg !1922
}

; Function Attrs: nounwind
declare dso_local i32 @__cxa_atexit(void (i8*)*, i8*, i8*) #3

; Function Attrs: noinline uwtable
define dso_local void @_ZN11xalanc_1_1023XalanSourceTreeElementAC2ERN11xercesc_2_713MemoryManagerERKNS_14XalanDOMStringEPNS_23XalanSourceTreeDocumentEPPNS_19XalanSourceTreeAttrEmPNS_9XalanNodeESD_SD_m(%"class.xalanc_1_10::XalanSourceTreeElementA"* %this, %"class.xercesc_2_7::MemoryManager"* dereferenceable(8) %theManager, %"class.xalanc_1_10::XalanDOMString"* dereferenceable(40) %theTagName, %"class.xalanc_1_10::XalanSourceTreeDocument"* %theOwnerDocument, %"class.xalanc_1_10::XalanSourceTreeAttr"** %theAttributes, i64 %theAttributeCount, %"class.xalanc_1_10::XalanNode"* %theParentNode, %"class.xalanc_1_10::XalanNode"* %thePreviousSibling, %"class.xalanc_1_10::XalanNode"* %theNextSibling, i64 %theIndex) unnamed_addr #0 align 2 personality i8* bitcast (i32 (...)* @__gxx_personality_v0 to i8*) !dbg !1923 {
entry:
  %this.addr = alloca %"class.xalanc_1_10::XalanSourceTreeElementA"*, align 8
  %theManager.addr = alloca %"class.xercesc_2_7::MemoryManager"*, align 8
  %theTagName.addr = alloca %"class.xalanc_1_10::XalanDOMString"*, align 8
  %theOwnerDocument.addr = alloca %"class.xalanc_1_10::XalanSourceTreeDocument"*, align 8
  %theAttributes.addr = alloca %"class.xalanc_1_10::XalanSourceTreeAttr"**, align 8
  %theAttributeCount.addr = alloca i64, align 8
  %theParentNode.addr = alloca %"class.xalanc_1_10::XalanNode"*, align 8
  %thePreviousSibling.addr = alloca %"class.xalanc_1_10::XalanNode"*, align 8
  %theNextSibling.addr = alloca %"class.xalanc_1_10::XalanNode"*, align 8
  %theIndex.addr = alloca i64, align 8
  %exn.slot = alloca i8*
  %ehselector.slot = alloca i32
  store %"class.xalanc_1_10::XalanSourceTreeElementA"* %this, %"class.xalanc_1_10::XalanSourceTreeElementA"** %this.addr, align 8
  call void @llvm.dbg.declare(metadata %"class.xalanc_1_10::XalanSourceTreeElementA"** %this.addr, metadata !1924, metadata !DIExpression()), !dbg !1925
  store %"class.xercesc_2_7::MemoryManager"* %theManager, %"class.xercesc_2_7::MemoryManager"** %theManager.addr, align 8
  call void @llvm.dbg.declare(metadata %"class.xercesc_2_7::MemoryManager"** %theManager.addr, metadata !1926, metadata !DIExpression()), !dbg !1927
  store %"class.xalanc_1_10::XalanDOMString"* %theTagName, %"class.xalanc_1_10::XalanDOMString"** %theTagName.addr, align 8
  call void @llvm.dbg.declare(metadata %"class.xalanc_1_10::XalanDOMString"** %theTagName.addr, metadata !1928, metadata !DIExpression()), !dbg !1929
  store %"class.xalanc_1_10::XalanSourceTreeDocument"* %theOwnerDocument, %"class.xalanc_1_10::XalanSourceTreeDocument"** %theOwnerDocument.addr, align 8
  call void @llvm.dbg.declare(metadata %"class.xalanc_1_10::XalanSourceTreeDocument"** %theOwnerDocument.addr, metadata !1930, metadata !DIExpression()), !dbg !1931
  store %"class.xalanc_1_10::XalanSourceTreeAttr"** %theAttributes, %"class.xalanc_1_10::XalanSourceTreeAttr"*** %theAttributes.addr, align 8
  call void @llvm.dbg.declare(metadata %"class.xalanc_1_10::XalanSourceTreeAttr"*** %theAttributes.addr, metadata !1932, metadata !DIExpression()), !dbg !1933
  store i64 %theAttributeCount, i64* %theAttributeCount.addr, align 8
  call void @llvm.dbg.declare(metadata i64* %theAttributeCount.addr, metadata !1934, metadata !DIExpression()), !dbg !1935
  store %"class.xalanc_1_10::XalanNode"* %theParentNode, %"class.xalanc_1_10::XalanNode"** %theParentNode.addr, align 8
  call void @llvm.dbg.declare(metadata %"class.xalanc_1_10::XalanNode"** %theParentNode.addr, metadata !1936, metadata !DIExpression()), !dbg !1937
  store %"class.xalanc_1_10::XalanNode"* %thePreviousSibling, %"class.xalanc_1_10::XalanNode"** %thePreviousSibling.addr, align 8
  call void @llvm.dbg.declare(metadata %"class.xalanc_1_10::XalanNode"** %thePreviousSibling.addr, metadata !1938, metadata !DIExpression()), !dbg !1939
  store %"class.xalanc_1_10::XalanNode"* %theNextSibling, %"class.xalanc_1_10::XalanNode"** %theNextSibling.addr, align 8
  call void @llvm.dbg.declare(metadata %"class.xalanc_1_10::XalanNode"** %theNextSibling.addr, metadata !1940, metadata !DIExpression()), !dbg !1941
  store i64 %theIndex, i64* %theIndex.addr, align 8
  call void @llvm.dbg.declare(metadata i64* %theIndex.addr, metadata !1942, metadata !DIExpression()), !dbg !1943
  %this1 = load %"class.xalanc_1_10::XalanSourceTreeElementA"*, %"class.xalanc_1_10::XalanSourceTreeElementA"** %this.addr, align 8
  %0 = bitcast %"class.xalanc_1_10::XalanSourceTreeElementA"* %this1 to %"class.xalanc_1_10::XalanSourceTreeElement"*, !dbg !1944
  %1 = load %"class.xercesc_2_7::MemoryManager"*, %"class.xercesc_2_7::MemoryManager"** %theManager.addr, align 8, !dbg !1945
  %2 = load %"class.xalanc_1_10::XalanDOMString"*, %"class.xalanc_1_10::XalanDOMString"** %theTagName.addr, align 8, !dbg !1946
  %3 = load %"class.xalanc_1_10::XalanSourceTreeDocument"*, %"class.xalanc_1_10::XalanSourceTreeDocument"** %theOwnerDocument.addr, align 8, !dbg !1947
  %4 = load %"class.xalanc_1_10::XalanNode"*, %"class.xalanc_1_10::XalanNode"** %theParentNode.addr, align 8, !dbg !1948
  %5 = load %"class.xalanc_1_10::XalanNode"*, %"class.xalanc_1_10::XalanNode"** %thePreviousSibling.addr, align 8, !dbg !1949
  %6 = load %"class.xalanc_1_10::XalanNode"*, %"class.xalanc_1_10::XalanNode"** %theNextSibling.addr, align 8, !dbg !1950
  %7 = load i64, i64* %theIndex.addr, align 8, !dbg !1951
  call void @_ZN11xalanc_1_1022XalanSourceTreeElementC2ERN11xercesc_2_713MemoryManagerERKNS_14XalanDOMStringEPNS_23XalanSourceTreeDocumentEPNS_9XalanNodeESA_SA_m(%"class.xalanc_1_10::XalanSourceTreeElement"* %0, %"class.xercesc_2_7::MemoryManager"* dereferenceable(8) %1, %"class.xalanc_1_10::XalanDOMString"* dereferenceable(40) %2, %"class.xalanc_1_10::XalanSourceTreeDocument"* %3, %"class.xalanc_1_10::XalanNode"* %4, %"class.xalanc_1_10::XalanNode"* %5, %"class.xalanc_1_10::XalanNode"* %6, i64 %7), !dbg !1952
  %8 = bitcast %"class.xalanc_1_10::XalanSourceTreeElementA"* %this1 to i8*, !dbg !1944
  %9 = getelementptr inbounds i8, i8* %8, i64 72, !dbg !1944
  %10 = bitcast i8* %9 to %"class.xalanc_1_10::XalanNamedNodeMap"*, !dbg !1944
  invoke void @_ZN11xalanc_1_1017XalanNamedNodeMapC2Ev(%"class.xalanc_1_10::XalanNamedNodeMap"* %10)
          to label %invoke.cont unwind label %lpad, !dbg !1953

invoke.cont:                                      ; preds = %entry
  %11 = bitcast %"class.xalanc_1_10::XalanSourceTreeElementA"* %this1 to i32 (...)***, !dbg !1944
  store i32 (...)** bitcast (i8** getelementptr inbounds ({ [52 x i8*], [12 x i8*] }, { [52 x i8*], [12 x i8*] }* @_ZTVN11xalanc_1_1023XalanSourceTreeElementAE, i32 0, inrange i32 0, i32 2) to i32 (...)**), i32 (...)*** %11, align 8, !dbg !1944
  %12 = bitcast %"class.xalanc_1_10::XalanSourceTreeElementA"* %this1 to i8*, !dbg !1944
  %add.ptr = getelementptr inbounds i8, i8* %12, i64 72, !dbg !1944
  %13 = bitcast i8* %add.ptr to i32 (...)***, !dbg !1944
  store i32 (...)** bitcast (i8** getelementptr inbounds ({ [52 x i8*], [12 x i8*] }, { [52 x i8*], [12 x i8*] }* @_ZTVN11xalanc_1_1023XalanSourceTreeElementAE, i32 0, inrange i32 1, i32 2) to i32 (...)**), i32 (...)*** %13, align 8, !dbg !1944
  %m_attributes = getelementptr inbounds %"class.xalanc_1_10::XalanSourceTreeElementA", %"class.xalanc_1_10::XalanSourceTreeElementA"* %this1, i32 0, i32 2, !dbg !1954
  %14 = load %"class.xalanc_1_10::XalanSourceTreeAttr"**, %"class.xalanc_1_10::XalanSourceTreeAttr"*** %theAttributes.addr, align 8, !dbg !1955
  store %"class.xalanc_1_10::XalanSourceTreeAttr"** %14, %"class.xalanc_1_10::XalanSourceTreeAttr"*** %m_attributes, align 8, !dbg !1954
  %m_attributeCount = getelementptr inbounds %"class.xalanc_1_10::XalanSourceTreeElementA", %"class.xalanc_1_10::XalanSourceTreeElementA"* %this1, i32 0, i32 3, !dbg !1956
  %15 = load i64, i64* %theAttributeCount.addr, align 8, !dbg !1957
  store i64 %15, i64* %m_attributeCount, align 8, !dbg !1956
  ret void, !dbg !1958

lpad:                                             ; preds = %entry
  %16 = landingpad { i8*, i32 }
          cleanup, !dbg !1958
  %17 = extractvalue { i8*, i32 } %16, 0, !dbg !1958
  store i8* %17, i8** %exn.slot, align 8, !dbg !1958
  %18 = extractvalue { i8*, i32 } %16, 1, !dbg !1958
  store i32 %18, i32* %ehselector.slot, align 4, !dbg !1958
  %19 = bitcast %"class.xalanc_1_10::XalanSourceTreeElementA"* %this1 to %"class.xalanc_1_10::XalanSourceTreeElement"*, !dbg !1959
  call void @_ZN11xalanc_1_1022XalanSourceTreeElementD2Ev(%"class.xalanc_1_10::XalanSourceTreeElement"* %19) #3, !dbg !1959
  br label %eh.resume, !dbg !1959

eh.resume:                                        ; preds = %lpad
  %exn = load i8*, i8** %exn.slot, align 8, !dbg !1959
  %sel = load i32, i32* %ehselector.slot, align 4, !dbg !1959
  %lpad.val = insertvalue { i8*, i32 } undef, i8* %exn, 0, !dbg !1959
  %lpad.val2 = insertvalue { i8*, i32 } %lpad.val, i32 %sel, 1, !dbg !1959
  resume { i8*, i32 } %lpad.val2, !dbg !1959
}

; Function Attrs: nounwind readnone speculatable willreturn
declare void @llvm.dbg.declare(metadata, metadata, metadata) #4

declare dso_local void @_ZN11xalanc_1_1022XalanSourceTreeElementC2ERN11xercesc_2_713MemoryManagerERKNS_14XalanDOMStringEPNS_23XalanSourceTreeDocumentEPNS_9XalanNodeESA_SA_m(%"class.xalanc_1_10::XalanSourceTreeElement"*, %"class.xercesc_2_7::MemoryManager"* dereferenceable(8), %"class.xalanc_1_10::XalanDOMString"* dereferenceable(40), %"class.xalanc_1_10::XalanSourceTreeDocument"*, %"class.xalanc_1_10::XalanNode"*, %"class.xalanc_1_10::XalanNode"*, %"class.xalanc_1_10::XalanNode"*, i64) unnamed_addr #1

declare dso_local void @_ZN11xalanc_1_1017XalanNamedNodeMapC2Ev(%"class.xalanc_1_10::XalanNamedNodeMap"*) unnamed_addr #1

declare dso_local i32 @__gxx_personality_v0(...)

; Function Attrs: nounwind
declare dso_local void @_ZN11xalanc_1_1022XalanSourceTreeElementD2Ev(%"class.xalanc_1_10::XalanSourceTreeElement"*) unnamed_addr #5

; Function Attrs: noinline nounwind uwtable
define dso_local void @_ZN11xalanc_1_1023XalanSourceTreeElementAD2Ev(%"class.xalanc_1_10::XalanSourceTreeElementA"* %this) unnamed_addr #2 align 2 !dbg !1961 {
entry:
  %this.addr = alloca %"class.xalanc_1_10::XalanSourceTreeElementA"*, align 8
  store %"class.xalanc_1_10::XalanSourceTreeElementA"* %this, %"class.xalanc_1_10::XalanSourceTreeElementA"** %this.addr, align 8
  call void @llvm.dbg.declare(metadata %"class.xalanc_1_10::XalanSourceTreeElementA"** %this.addr, metadata !1962, metadata !DIExpression()), !dbg !1963
  %this1 = load %"class.xalanc_1_10::XalanSourceTreeElementA"*, %"class.xalanc_1_10::XalanSourceTreeElementA"** %this.addr, align 8
  %0 = bitcast %"class.xalanc_1_10::XalanSourceTreeElementA"* %this1 to i8*, !dbg !1964
  %1 = getelementptr inbounds i8, i8* %0, i64 72, !dbg !1964
  %2 = bitcast i8* %1 to %"class.xalanc_1_10::XalanNamedNodeMap"*, !dbg !1964
  call void @_ZN11xalanc_1_1017XalanNamedNodeMapD2Ev(%"class.xalanc_1_10::XalanNamedNodeMap"* %2) #3, !dbg !1964
  %3 = bitcast %"class.xalanc_1_10::XalanSourceTreeElementA"* %this1 to %"class.xalanc_1_10::XalanSourceTreeElement"*, !dbg !1964
  call void @_ZN11xalanc_1_1022XalanSourceTreeElementD2Ev(%"class.xalanc_1_10::XalanSourceTreeElement"* %3) #3, !dbg !1964
  ret void, !dbg !1966
}

; Function Attrs: nounwind
declare dso_local void @_ZN11xalanc_1_1017XalanNamedNodeMapD2Ev(%"class.xalanc_1_10::XalanNamedNodeMap"*) unnamed_addr #5

; Function Attrs: noinline nounwind uwtable
define dso_local void @_ZThn72_N11xalanc_1_1023XalanSourceTreeElementAD1Ev(%"class.xalanc_1_10::XalanSourceTreeElementA"* %this) unnamed_addr #2 align 2 !dbg !1967 {
entry:
  %this.addr = alloca %"class.xalanc_1_10::XalanSourceTreeElementA"*, align 8
  store %"class.xalanc_1_10::XalanSourceTreeElementA"* %this, %"class.xalanc_1_10::XalanSourceTreeElementA"** %this.addr, align 8
  %this1 = load %"class.xalanc_1_10::XalanSourceTreeElementA"*, %"class.xalanc_1_10::XalanSourceTreeElementA"** %this.addr, align 8, !dbg !1969
  %0 = bitcast %"class.xalanc_1_10::XalanSourceTreeElementA"* %this1 to i8*, !dbg !1969
  %1 = getelementptr inbounds i8, i8* %0, i64 -72, !dbg !1969
  %2 = bitcast i8* %1 to %"class.xalanc_1_10::XalanSourceTreeElementA"*, !dbg !1969
  tail call void @_ZN11xalanc_1_1023XalanSourceTreeElementAD1Ev(%"class.xalanc_1_10::XalanSourceTreeElementA"* %2) #3, !dbg !1969
  ret void, !dbg !1969
}

; Function Attrs: noinline nounwind uwtable
define dso_local void @_ZN11xalanc_1_1023XalanSourceTreeElementAD0Ev(%"class.xalanc_1_10::XalanSourceTreeElementA"* %this) unnamed_addr #2 align 2 !dbg !1970 {
entry:
  %this.addr = alloca %"class.xalanc_1_10::XalanSourceTreeElementA"*, align 8
  store %"class.xalanc_1_10::XalanSourceTreeElementA"* %this, %"class.xalanc_1_10::XalanSourceTreeElementA"** %this.addr, align 8
  call void @llvm.dbg.declare(metadata %"class.xalanc_1_10::XalanSourceTreeElementA"** %this.addr, metadata !1971, metadata !DIExpression()), !dbg !1972
  %this1 = load %"class.xalanc_1_10::XalanSourceTreeElementA"*, %"class.xalanc_1_10::XalanSourceTreeElementA"** %this.addr, align 8
  call void @_ZN11xalanc_1_1023XalanSourceTreeElementAD1Ev(%"class.xalanc_1_10::XalanSourceTreeElementA"* %this1) #3, !dbg !1973
  %0 = bitcast %"class.xalanc_1_10::XalanSourceTreeElementA"* %this1 to i8*, !dbg !1973
  call void @_ZdlPv(i8* %0) #9, !dbg !1973
  ret void, !dbg !1974
}

; Function Attrs: nobuiltin nounwind
declare dso_local void @_ZdlPv(i8*) #6

; Function Attrs: noinline nounwind uwtable
define dso_local void @_ZThn72_N11xalanc_1_1023XalanSourceTreeElementAD0Ev(%"class.xalanc_1_10::XalanSourceTreeElementA"* %this) unnamed_addr #2 align 2 !dbg !1975 {
entry:
  %this.addr = alloca %"class.xalanc_1_10::XalanSourceTreeElementA"*, align 8
  store %"class.xalanc_1_10::XalanSourceTreeElementA"* %this, %"class.xalanc_1_10::XalanSourceTreeElementA"** %this.addr, align 8
  %this1 = load %"class.xalanc_1_10::XalanSourceTreeElementA"*, %"class.xalanc_1_10::XalanSourceTreeElementA"** %this.addr, align 8, !dbg !1976
  %0 = bitcast %"class.xalanc_1_10::XalanSourceTreeElementA"* %this1 to i8*, !dbg !1976
  %1 = getelementptr inbounds i8, i8* %0, i64 -72, !dbg !1976
  %2 = bitcast i8* %1 to %"class.xalanc_1_10::XalanSourceTreeElementA"*, !dbg !1976
  tail call void @_ZN11xalanc_1_1023XalanSourceTreeElementAD0Ev(%"class.xalanc_1_10::XalanSourceTreeElementA"* %2) #3, !dbg !1976
  ret void, !dbg !1976
}

; Function Attrs: noinline uwtable
define dso_local void @_ZN11xalanc_1_1023XalanSourceTreeElementAC2ERN11xercesc_2_713MemoryManagerERKS0_b(%"class.xalanc_1_10::XalanSourceTreeElementA"* %this, %"class.xercesc_2_7::MemoryManager"* dereferenceable(8) %theManager, %"class.xalanc_1_10::XalanSourceTreeElementA"* dereferenceable(96) %theSource, i1 zeroext %deep) unnamed_addr #0 align 2 personality i8* bitcast (i32 (...)* @__gxx_personality_v0 to i8*) !dbg !1977 {
entry:
  %this.addr = alloca %"class.xalanc_1_10::XalanSourceTreeElementA"*, align 8
  %theManager.addr = alloca %"class.xercesc_2_7::MemoryManager"*, align 8
  %theSource.addr = alloca %"class.xalanc_1_10::XalanSourceTreeElementA"*, align 8
  %deep.addr = alloca i8, align 1
  %exn.slot = alloca i8*
  %ehselector.slot = alloca i32
  store %"class.xalanc_1_10::XalanSourceTreeElementA"* %this, %"class.xalanc_1_10::XalanSourceTreeElementA"** %this.addr, align 8
  call void @llvm.dbg.declare(metadata %"class.xalanc_1_10::XalanSourceTreeElementA"** %this.addr, metadata !1978, metadata !DIExpression()), !dbg !1979
  store %"class.xercesc_2_7::MemoryManager"* %theManager, %"class.xercesc_2_7::MemoryManager"** %theManager.addr, align 8
  call void @llvm.dbg.declare(metadata %"class.xercesc_2_7::MemoryManager"** %theManager.addr, metadata !1980, metadata !DIExpression()), !dbg !1981
  store %"class.xalanc_1_10::XalanSourceTreeElementA"* %theSource, %"class.xalanc_1_10::XalanSourceTreeElementA"** %theSource.addr, align 8
  call void @llvm.dbg.declare(metadata %"class.xalanc_1_10::XalanSourceTreeElementA"** %theSource.addr, metadata !1982, metadata !DIExpression()), !dbg !1983
  %frombool = zext i1 %deep to i8
  store i8 %frombool, i8* %deep.addr, align 1
  call void @llvm.dbg.declare(metadata i8* %deep.addr, metadata !1984, metadata !DIExpression()), !dbg !1985
  %this1 = load %"class.xalanc_1_10::XalanSourceTreeElementA"*, %"class.xalanc_1_10::XalanSourceTreeElementA"** %this.addr, align 8
  %0 = bitcast %"class.xalanc_1_10::XalanSourceTreeElementA"* %this1 to %"class.xalanc_1_10::XalanSourceTreeElement"*, !dbg !1986
  %1 = load %"class.xercesc_2_7::MemoryManager"*, %"class.xercesc_2_7::MemoryManager"** %theManager.addr, align 8, !dbg !1987
  %2 = load %"class.xalanc_1_10::XalanSourceTreeElementA"*, %"class.xalanc_1_10::XalanSourceTreeElementA"** %theSource.addr, align 8, !dbg !1988
  %3 = bitcast %"class.xalanc_1_10::XalanSourceTreeElementA"* %2 to %"class.xalanc_1_10::XalanSourceTreeElement"*, !dbg !1988
  %4 = load i8, i8* %deep.addr, align 1, !dbg !1989
  %tobool = trunc i8 %4 to i1, !dbg !1989
  call void @_ZN11xalanc_1_1022XalanSourceTreeElementC2ERN11xercesc_2_713MemoryManagerERKS0_b(%"class.xalanc_1_10::XalanSourceTreeElement"* %0, %"class.xercesc_2_7::MemoryManager"* dereferenceable(8) %1, %"class.xalanc_1_10::XalanSourceTreeElement"* dereferenceable(72) %3, i1 zeroext %tobool), !dbg !1990
  %5 = bitcast %"class.xalanc_1_10::XalanSourceTreeElementA"* %this1 to i8*, !dbg !1986
  %6 = getelementptr inbounds i8, i8* %5, i64 72, !dbg !1986
  %7 = bitcast i8* %6 to %"class.xalanc_1_10::XalanNamedNodeMap"*, !dbg !1986
  invoke void @_ZN11xalanc_1_1017XalanNamedNodeMapC2Ev(%"class.xalanc_1_10::XalanNamedNodeMap"* %7)
          to label %invoke.cont unwind label %lpad, !dbg !1991

invoke.cont:                                      ; preds = %entry
  %8 = bitcast %"class.xalanc_1_10::XalanSourceTreeElementA"* %this1 to i32 (...)***, !dbg !1986
  store i32 (...)** bitcast (i8** getelementptr inbounds ({ [52 x i8*], [12 x i8*] }, { [52 x i8*], [12 x i8*] }* @_ZTVN11xalanc_1_1023XalanSourceTreeElementAE, i32 0, inrange i32 0, i32 2) to i32 (...)**), i32 (...)*** %8, align 8, !dbg !1986
  %9 = bitcast %"class.xalanc_1_10::XalanSourceTreeElementA"* %this1 to i8*, !dbg !1986
  %add.ptr = getelementptr inbounds i8, i8* %9, i64 72, !dbg !1986
  %10 = bitcast i8* %add.ptr to i32 (...)***, !dbg !1986
  store i32 (...)** bitcast (i8** getelementptr inbounds ({ [52 x i8*], [12 x i8*] }, { [52 x i8*], [12 x i8*] }* @_ZTVN11xalanc_1_1023XalanSourceTreeElementAE, i32 0, inrange i32 1, i32 2) to i32 (...)**), i32 (...)*** %10, align 8, !dbg !1986
  %m_attributes = getelementptr inbounds %"class.xalanc_1_10::XalanSourceTreeElementA", %"class.xalanc_1_10::XalanSourceTreeElementA"* %this1, i32 0, i32 2, !dbg !1992
  %11 = load %"class.xalanc_1_10::XalanSourceTreeElementA"*, %"class.xalanc_1_10::XalanSourceTreeElementA"** %theSource.addr, align 8, !dbg !1993
  %m_attributes2 = getelementptr inbounds %"class.xalanc_1_10::XalanSourceTreeElementA", %"class.xalanc_1_10::XalanSourceTreeElementA"* %11, i32 0, i32 2, !dbg !1994
  %12 = load %"class.xalanc_1_10::XalanSourceTreeAttr"**, %"class.xalanc_1_10::XalanSourceTreeAttr"*** %m_attributes2, align 8, !dbg !1994
  store %"class.xalanc_1_10::XalanSourceTreeAttr"** %12, %"class.xalanc_1_10::XalanSourceTreeAttr"*** %m_attributes, align 8, !dbg !1992
  %m_attributeCount = getelementptr inbounds %"class.xalanc_1_10::XalanSourceTreeElementA", %"class.xalanc_1_10::XalanSourceTreeElementA"* %this1, i32 0, i32 3, !dbg !1995
  %13 = load %"class.xalanc_1_10::XalanSourceTreeElementA"*, %"class.xalanc_1_10::XalanSourceTreeElementA"** %theSource.addr, align 8, !dbg !1996
  %m_attributeCount3 = getelementptr inbounds %"class.xalanc_1_10::XalanSourceTreeElementA", %"class.xalanc_1_10::XalanSourceTreeElementA"* %13, i32 0, i32 3, !dbg !1997
  %14 = load i64, i64* %m_attributeCount3, align 8, !dbg !1997
  store i64 %14, i64* %m_attributeCount, align 8, !dbg !1995
  ret void, !dbg !1998

lpad:                                             ; preds = %entry
  %15 = landingpad { i8*, i32 }
          cleanup, !dbg !1998
  %16 = extractvalue { i8*, i32 } %15, 0, !dbg !1998
  store i8* %16, i8** %exn.slot, align 8, !dbg !1998
  %17 = extractvalue { i8*, i32 } %15, 1, !dbg !1998
  store i32 %17, i32* %ehselector.slot, align 4, !dbg !1998
  %18 = bitcast %"class.xalanc_1_10::XalanSourceTreeElementA"* %this1 to %"class.xalanc_1_10::XalanSourceTreeElement"*, !dbg !1999
  call void @_ZN11xalanc_1_1022XalanSourceTreeElementD2Ev(%"class.xalanc_1_10::XalanSourceTreeElement"* %18) #3, !dbg !1999
  br label %eh.resume, !dbg !1999

eh.resume:                                        ; preds = %lpad
  %exn = load i8*, i8** %exn.slot, align 8, !dbg !1999
  %sel = load i32, i32* %ehselector.slot, align 4, !dbg !1999
  %lpad.val = insertvalue { i8*, i32 } undef, i8* %exn, 0, !dbg !1999
  %lpad.val4 = insertvalue { i8*, i32 } %lpad.val, i32 %sel, 1, !dbg !1999
  resume { i8*, i32 } %lpad.val4, !dbg !1999
}

declare dso_local void @_ZN11xalanc_1_1022XalanSourceTreeElementC2ERN11xercesc_2_713MemoryManagerERKS0_b(%"class.xalanc_1_10::XalanSourceTreeElement"*, %"class.xercesc_2_7::MemoryManager"* dereferenceable(8), %"class.xalanc_1_10::XalanSourceTreeElement"* dereferenceable(72), i1 zeroext) unnamed_addr #1

; Function Attrs: noinline uwtable
define dso_local %"class.xalanc_1_10::XalanSourceTreeElementA"* @_ZN11xalanc_1_1023XalanSourceTreeElementA6createERN11xercesc_2_713MemoryManagerERKS0_b(%"class.xercesc_2_7::MemoryManager"* dereferenceable(8) %theManager, %"class.xalanc_1_10::XalanSourceTreeElementA"* dereferenceable(96) %theSource, i1 zeroext %deep) #0 align 2 personality i8* bitcast (i32 (...)* @__gxx_personality_v0 to i8*) !dbg !802 {
entry:
  %theManager.addr = alloca %"class.xercesc_2_7::MemoryManager"*, align 8
  %theSource.addr = alloca %"class.xalanc_1_10::XalanSourceTreeElementA"*, align 8
  %deep.addr = alloca i8, align 1
  %theGuard = alloca %"class.xalanc_1_10::XalanMemMgrAutoPtr", align 8
  %theResult = alloca %"class.xalanc_1_10::XalanSourceTreeElementA"*, align 8
  %exn.slot = alloca i8*
  %ehselector.slot = alloca i32
  %coerce = alloca %"class.xalanc_1_10::XalanMemMgrAutoPtr<xalanc_1_10::XalanSourceTreeElementA, false>::MemMgrAutoPtrData", align 8
  store %"class.xercesc_2_7::MemoryManager"* %theManager, %"class.xercesc_2_7::MemoryManager"** %theManager.addr, align 8
  call void @llvm.dbg.declare(metadata %"class.xercesc_2_7::MemoryManager"** %theManager.addr, metadata !2001, metadata !DIExpression()), !dbg !2002
  store %"class.xalanc_1_10::XalanSourceTreeElementA"* %theSource, %"class.xalanc_1_10::XalanSourceTreeElementA"** %theSource.addr, align 8
  call void @llvm.dbg.declare(metadata %"class.xalanc_1_10::XalanSourceTreeElementA"** %theSource.addr, metadata !2003, metadata !DIExpression()), !dbg !2004
  %frombool = zext i1 %deep to i8
  store i8 %frombool, i8* %deep.addr, align 1
  call void @llvm.dbg.declare(metadata i8* %deep.addr, metadata !2005, metadata !DIExpression()), !dbg !2006
  call void @llvm.dbg.declare(metadata %"class.xalanc_1_10::XalanMemMgrAutoPtr"* %theGuard, metadata !2007, metadata !DIExpression()), !dbg !2008
  %0 = load %"class.xercesc_2_7::MemoryManager"*, %"class.xercesc_2_7::MemoryManager"** %theManager.addr, align 8, !dbg !2009
  %1 = load %"class.xercesc_2_7::MemoryManager"*, %"class.xercesc_2_7::MemoryManager"** %theManager.addr, align 8, !dbg !2010
  %2 = bitcast %"class.xercesc_2_7::MemoryManager"* %1 to i8* (%"class.xercesc_2_7::MemoryManager"*, i64)***, !dbg !2011
  %vtable = load i8* (%"class.xercesc_2_7::MemoryManager"*, i64)**, i8* (%"class.xercesc_2_7::MemoryManager"*, i64)*** %2, align 8, !dbg !2011
  %vfn = getelementptr inbounds i8* (%"class.xercesc_2_7::MemoryManager"*, i64)*, i8* (%"class.xercesc_2_7::MemoryManager"*, i64)** %vtable, i64 2, !dbg !2011
  %3 = load i8* (%"class.xercesc_2_7::MemoryManager"*, i64)*, i8* (%"class.xercesc_2_7::MemoryManager"*, i64)** %vfn, align 8, !dbg !2011
  %call = call i8* %3(%"class.xercesc_2_7::MemoryManager"* %1, i64 96), !dbg !2011
  %4 = bitcast i8* %call to %"class.xalanc_1_10::XalanSourceTreeElementA"*, !dbg !2012
  call void @_ZN11xalanc_1_1018XalanMemMgrAutoPtrINS_23XalanSourceTreeElementAELb0EEC2ERN11xercesc_2_713MemoryManagerEPS1_(%"class.xalanc_1_10::XalanMemMgrAutoPtr"* %theGuard, %"class.xercesc_2_7::MemoryManager"* dereferenceable(8) %0, %"class.xalanc_1_10::XalanSourceTreeElementA"* %4), !dbg !2008
  call void @llvm.dbg.declare(metadata %"class.xalanc_1_10::XalanSourceTreeElementA"** %theResult, metadata !2013, metadata !DIExpression()), !dbg !2014
  %call1 = invoke %"class.xalanc_1_10::XalanSourceTreeElementA"* @_ZNK11xalanc_1_1018XalanMemMgrAutoPtrINS_23XalanSourceTreeElementAELb0EE3getEv(%"class.xalanc_1_10::XalanMemMgrAutoPtr"* %theGuard)
          to label %invoke.cont unwind label %lpad, !dbg !2015

invoke.cont:                                      ; preds = %entry
  store %"class.xalanc_1_10::XalanSourceTreeElementA"* %call1, %"class.xalanc_1_10::XalanSourceTreeElementA"** %theResult, align 8, !dbg !2014
  %5 = load %"class.xalanc_1_10::XalanSourceTreeElementA"*, %"class.xalanc_1_10::XalanSourceTreeElementA"** %theResult, align 8, !dbg !2016
  %6 = bitcast %"class.xalanc_1_10::XalanSourceTreeElementA"* %5 to i8*, !dbg !2017
  %7 = bitcast i8* %6 to %"class.xalanc_1_10::XalanSourceTreeElementA"*, !dbg !2017
  %8 = load %"class.xercesc_2_7::MemoryManager"*, %"class.xercesc_2_7::MemoryManager"** %theManager.addr, align 8, !dbg !2018
  %9 = load %"class.xalanc_1_10::XalanSourceTreeElementA"*, %"class.xalanc_1_10::XalanSourceTreeElementA"** %theSource.addr, align 8, !dbg !2019
  %10 = load i8, i8* %deep.addr, align 1, !dbg !2020
  %tobool = trunc i8 %10 to i1, !dbg !2020
  invoke void @_ZN11xalanc_1_1023XalanSourceTreeElementAC1ERN11xercesc_2_713MemoryManagerERKS0_b(%"class.xalanc_1_10::XalanSourceTreeElementA"* %7, %"class.xercesc_2_7::MemoryManager"* dereferenceable(8) %8, %"class.xalanc_1_10::XalanSourceTreeElementA"* dereferenceable(96) %9, i1 zeroext %tobool)
          to label %invoke.cont2 unwind label %lpad, !dbg !2021

invoke.cont2:                                     ; preds = %invoke.cont
  %call4 = invoke { %"class.xercesc_2_7::MemoryManager"*, %"class.xalanc_1_10::XalanSourceTreeElementA"* } @_ZN11xalanc_1_1018XalanMemMgrAutoPtrINS_23XalanSourceTreeElementAELb0EE7releaseEv(%"class.xalanc_1_10::XalanMemMgrAutoPtr"* %theGuard)
          to label %invoke.cont3 unwind label %lpad, !dbg !2022

invoke.cont3:                                     ; preds = %invoke.cont2
  %coerce.dive = getelementptr inbounds %"class.xalanc_1_10::XalanMemMgrAutoPtr<xalanc_1_10::XalanSourceTreeElementA, false>::MemMgrAutoPtrData", %"class.xalanc_1_10::XalanMemMgrAutoPtr<xalanc_1_10::XalanSourceTreeElementA, false>::MemMgrAutoPtrData"* %coerce, i32 0, i32 0, !dbg !2022
  %11 = bitcast %"struct.std::pair"* %coerce.dive to { %"class.xercesc_2_7::MemoryManager"*, %"class.xalanc_1_10::XalanSourceTreeElementA"* }*, !dbg !2022
  %12 = getelementptr inbounds { %"class.xercesc_2_7::MemoryManager"*, %"class.xalanc_1_10::XalanSourceTreeElementA"* }, { %"class.xercesc_2_7::MemoryManager"*, %"class.xalanc_1_10::XalanSourceTreeElementA"* }* %11, i32 0, i32 0, !dbg !2022
  %13 = extractvalue { %"class.xercesc_2_7::MemoryManager"*, %"class.xalanc_1_10::XalanSourceTreeElementA"* } %call4, 0, !dbg !2022
  store %"class.xercesc_2_7::MemoryManager"* %13, %"class.xercesc_2_7::MemoryManager"** %12, align 8, !dbg !2022
  %14 = getelementptr inbounds { %"class.xercesc_2_7::MemoryManager"*, %"class.xalanc_1_10::XalanSourceTreeElementA"* }, { %"class.xercesc_2_7::MemoryManager"*, %"class.xalanc_1_10::XalanSourceTreeElementA"* }* %11, i32 0, i32 1, !dbg !2022
  %15 = extractvalue { %"class.xercesc_2_7::MemoryManager"*, %"class.xalanc_1_10::XalanSourceTreeElementA"* } %call4, 1, !dbg !2022
  store %"class.xalanc_1_10::XalanSourceTreeElementA"* %15, %"class.xalanc_1_10::XalanSourceTreeElementA"** %14, align 8, !dbg !2022
  %16 = load %"class.xalanc_1_10::XalanSourceTreeElementA"*, %"class.xalanc_1_10::XalanSourceTreeElementA"** %theResult, align 8, !dbg !2023
  call void @_ZN11xalanc_1_1018XalanMemMgrAutoPtrINS_23XalanSourceTreeElementAELb0EED2Ev(%"class.xalanc_1_10::XalanMemMgrAutoPtr"* %theGuard) #3, !dbg !2024
  ret %"class.xalanc_1_10::XalanSourceTreeElementA"* %16, !dbg !2024

lpad:                                             ; preds = %invoke.cont2, %invoke.cont, %entry
  %17 = landingpad { i8*, i32 }
          cleanup, !dbg !2024
  %18 = extractvalue { i8*, i32 } %17, 0, !dbg !2024
  store i8* %18, i8** %exn.slot, align 8, !dbg !2024
  %19 = extractvalue { i8*, i32 } %17, 1, !dbg !2024
  store i32 %19, i32* %ehselector.slot, align 4, !dbg !2024
  call void @_ZN11xalanc_1_1018XalanMemMgrAutoPtrINS_23XalanSourceTreeElementAELb0EED2Ev(%"class.xalanc_1_10::XalanMemMgrAutoPtr"* %theGuard) #3, !dbg !2024
  br label %eh.resume, !dbg !2024

eh.resume:                                        ; preds = %lpad
  %exn = load i8*, i8** %exn.slot, align 8, !dbg !2024
  %sel = load i32, i32* %ehselector.slot, align 4, !dbg !2024
  %lpad.val = insertvalue { i8*, i32 } undef, i8* %exn, 0, !dbg !2024
  %lpad.val5 = insertvalue { i8*, i32 } %lpad.val, i32 %sel, 1, !dbg !2024
  resume { i8*, i32 } %lpad.val5, !dbg !2024
}

; Function Attrs: noinline uwtable
define linkonce_odr dso_local void @_ZN11xalanc_1_1018XalanMemMgrAutoPtrINS_23XalanSourceTreeElementAELb0EEC2ERN11xercesc_2_713MemoryManagerEPS1_(%"class.xalanc_1_10::XalanMemMgrAutoPtr"* %this, %"class.xercesc_2_7::MemoryManager"* dereferenceable(8) %theManager, %"class.xalanc_1_10::XalanSourceTreeElementA"* %ptr) unnamed_addr #0 comdat align 2 !dbg !2025 {
entry:
  %this.addr = alloca %"class.xalanc_1_10::XalanMemMgrAutoPtr"*, align 8
  %theManager.addr = alloca %"class.xercesc_2_7::MemoryManager"*, align 8
  %ptr.addr = alloca %"class.xalanc_1_10::XalanSourceTreeElementA"*, align 8
  store %"class.xalanc_1_10::XalanMemMgrAutoPtr"* %this, %"class.xalanc_1_10::XalanMemMgrAutoPtr"** %this.addr, align 8
  call void @llvm.dbg.declare(metadata %"class.xalanc_1_10::XalanMemMgrAutoPtr"** %this.addr, metadata !2026, metadata !DIExpression()), !dbg !2028
  store %"class.xercesc_2_7::MemoryManager"* %theManager, %"class.xercesc_2_7::MemoryManager"** %theManager.addr, align 8
  call void @llvm.dbg.declare(metadata %"class.xercesc_2_7::MemoryManager"** %theManager.addr, metadata !2029, metadata !DIExpression()), !dbg !2030
  store %"class.xalanc_1_10::XalanSourceTreeElementA"* %ptr, %"class.xalanc_1_10::XalanSourceTreeElementA"** %ptr.addr, align 8
  call void @llvm.dbg.declare(metadata %"class.xalanc_1_10::XalanSourceTreeElementA"** %ptr.addr, metadata !2031, metadata !DIExpression()), !dbg !2032
  %this1 = load %"class.xalanc_1_10::XalanMemMgrAutoPtr"*, %"class.xalanc_1_10::XalanMemMgrAutoPtr"** %this.addr, align 8
  %m_pointerInfo = getelementptr inbounds %"class.xalanc_1_10::XalanMemMgrAutoPtr", %"class.xalanc_1_10::XalanMemMgrAutoPtr"* %this1, i32 0, i32 0, !dbg !2033
  %0 = load %"class.xercesc_2_7::MemoryManager"*, %"class.xercesc_2_7::MemoryManager"** %theManager.addr, align 8, !dbg !2034
  %1 = load %"class.xalanc_1_10::XalanSourceTreeElementA"*, %"class.xalanc_1_10::XalanSourceTreeElementA"** %ptr.addr, align 8, !dbg !2035
  call void @_ZN11xalanc_1_1018XalanMemMgrAutoPtrINS_23XalanSourceTreeElementAELb0EE17MemMgrAutoPtrDataC2EPN11xercesc_2_713MemoryManagerEPS1_(%"class.xalanc_1_10::XalanMemMgrAutoPtr<xalanc_1_10::XalanSourceTreeElementA, false>::MemMgrAutoPtrData"* %m_pointerInfo, %"class.xercesc_2_7::MemoryManager"* %0, %"class.xalanc_1_10::XalanSourceTreeElementA"* %1), !dbg !2033
  ret void, !dbg !2036
}

; Function Attrs: noinline nounwind uwtable
define linkonce_odr dso_local %"class.xalanc_1_10::XalanSourceTreeElementA"* @_ZNK11xalanc_1_1018XalanMemMgrAutoPtrINS_23XalanSourceTreeElementAELb0EE3getEv(%"class.xalanc_1_10::XalanMemMgrAutoPtr"* %this) #2 comdat align 2 !dbg !2037 {
entry:
  %this.addr = alloca %"class.xalanc_1_10::XalanMemMgrAutoPtr"*, align 8
  store %"class.xalanc_1_10::XalanMemMgrAutoPtr"* %this, %"class.xalanc_1_10::XalanMemMgrAutoPtr"** %this.addr, align 8
  call void @llvm.dbg.declare(metadata %"class.xalanc_1_10::XalanMemMgrAutoPtr"** %this.addr, metadata !2038, metadata !DIExpression()), !dbg !2040
  %this1 = load %"class.xalanc_1_10::XalanMemMgrAutoPtr"*, %"class.xalanc_1_10::XalanMemMgrAutoPtr"** %this.addr, align 8
  %m_pointerInfo = getelementptr inbounds %"class.xalanc_1_10::XalanMemMgrAutoPtr", %"class.xalanc_1_10::XalanMemMgrAutoPtr"* %this1, i32 0, i32 0, !dbg !2041
  %0 = bitcast %"class.xalanc_1_10::XalanMemMgrAutoPtr<xalanc_1_10::XalanSourceTreeElementA, false>::MemMgrAutoPtrData"* %m_pointerInfo to %"struct.std::pair"*, !dbg !2041
  %second = getelementptr inbounds %"struct.std::pair", %"struct.std::pair"* %0, i32 0, i32 1, !dbg !2042
  %1 = load %"class.xalanc_1_10::XalanSourceTreeElementA"*, %"class.xalanc_1_10::XalanSourceTreeElementA"** %second, align 8, !dbg !2042
  ret %"class.xalanc_1_10::XalanSourceTreeElementA"* %1, !dbg !2043
}

; Function Attrs: noinline uwtable
define linkonce_odr dso_local { %"class.xercesc_2_7::MemoryManager"*, %"class.xalanc_1_10::XalanSourceTreeElementA"* } @_ZN11xalanc_1_1018XalanMemMgrAutoPtrINS_23XalanSourceTreeElementAELb0EE7releaseEv(%"class.xalanc_1_10::XalanMemMgrAutoPtr"* %this) #0 comdat align 2 !dbg !2044 {
entry:
  %retval = alloca %"class.xalanc_1_10::XalanMemMgrAutoPtr<xalanc_1_10::XalanSourceTreeElementA, false>::MemMgrAutoPtrData", align 8
  %this.addr = alloca %"class.xalanc_1_10::XalanMemMgrAutoPtr"*, align 8
  %tmp = alloca %"class.xalanc_1_10::XalanMemMgrAutoPtr<xalanc_1_10::XalanSourceTreeElementA, false>::MemMgrAutoPtrData", align 8
  store %"class.xalanc_1_10::XalanMemMgrAutoPtr"* %this, %"class.xalanc_1_10::XalanMemMgrAutoPtr"** %this.addr, align 8
  call void @llvm.dbg.declare(metadata %"class.xalanc_1_10::XalanMemMgrAutoPtr"** %this.addr, metadata !2045, metadata !DIExpression()), !dbg !2046
  %this1 = load %"class.xalanc_1_10::XalanMemMgrAutoPtr"*, %"class.xalanc_1_10::XalanMemMgrAutoPtr"** %this.addr, align 8
  call void @llvm.dbg.declare(metadata %"class.xalanc_1_10::XalanMemMgrAutoPtr<xalanc_1_10::XalanSourceTreeElementA, false>::MemMgrAutoPtrData"* %tmp, metadata !2047, metadata !DIExpression()), !dbg !2048
  %m_pointerInfo = getelementptr inbounds %"class.xalanc_1_10::XalanMemMgrAutoPtr", %"class.xalanc_1_10::XalanMemMgrAutoPtr"* %this1, i32 0, i32 0, !dbg !2049
  %0 = bitcast %"class.xalanc_1_10::XalanMemMgrAutoPtr<xalanc_1_10::XalanSourceTreeElementA, false>::MemMgrAutoPtrData"* %tmp to i8*, !dbg !2049
  %1 = bitcast %"class.xalanc_1_10::XalanMemMgrAutoPtr<xalanc_1_10::XalanSourceTreeElementA, false>::MemMgrAutoPtrData"* %m_pointerInfo to i8*, !dbg !2049
  call void @llvm.memcpy.p0i8.p0i8.i64(i8* align 8 %0, i8* align 8 %1, i64 16, i1 false), !dbg !2049
  %m_pointerInfo2 = getelementptr inbounds %"class.xalanc_1_10::XalanMemMgrAutoPtr", %"class.xalanc_1_10::XalanMemMgrAutoPtr"* %this1, i32 0, i32 0, !dbg !2050
  call void @_ZN11xalanc_1_1018XalanMemMgrAutoPtrINS_23XalanSourceTreeElementAELb0EE17MemMgrAutoPtrData5resetEPN11xercesc_2_713MemoryManagerEPS1_(%"class.xalanc_1_10::XalanMemMgrAutoPtr<xalanc_1_10::XalanSourceTreeElementA, false>::MemMgrAutoPtrData"* %m_pointerInfo2, %"class.xercesc_2_7::MemoryManager"* null, %"class.xalanc_1_10::XalanSourceTreeElementA"* null), !dbg !2051
  %2 = bitcast %"class.xalanc_1_10::XalanMemMgrAutoPtr<xalanc_1_10::XalanSourceTreeElementA, false>::MemMgrAutoPtrData"* %retval to i8*, !dbg !2052
  %3 = bitcast %"class.xalanc_1_10::XalanMemMgrAutoPtr<xalanc_1_10::XalanSourceTreeElementA, false>::MemMgrAutoPtrData"* %tmp to i8*, !dbg !2052
  call void @llvm.memcpy.p0i8.p0i8.i64(i8* align 8 %2, i8* align 8 %3, i64 16, i1 false), !dbg !2052
  %coerce.dive = getelementptr inbounds %"class.xalanc_1_10::XalanMemMgrAutoPtr<xalanc_1_10::XalanSourceTreeElementA, false>::MemMgrAutoPtrData", %"class.xalanc_1_10::XalanMemMgrAutoPtr<xalanc_1_10::XalanSourceTreeElementA, false>::MemMgrAutoPtrData"* %retval, i32 0, i32 0, !dbg !2053
  %4 = bitcast %"struct.std::pair"* %coerce.dive to { %"class.xercesc_2_7::MemoryManager"*, %"class.xalanc_1_10::XalanSourceTreeElementA"* }*, !dbg !2053
  %5 = load { %"class.xercesc_2_7::MemoryManager"*, %"class.xalanc_1_10::XalanSourceTreeElementA"* }, { %"class.xercesc_2_7::MemoryManager"*, %"class.xalanc_1_10::XalanSourceTreeElementA"* }* %4, align 8, !dbg !2053
  ret { %"class.xercesc_2_7::MemoryManager"*, %"class.xalanc_1_10::XalanSourceTreeElementA"* } %5, !dbg !2053
}

; Function Attrs: noinline nounwind uwtable
define linkonce_odr dso_local void @_ZN11xalanc_1_1018XalanMemMgrAutoPtrINS_23XalanSourceTreeElementAELb0EED2Ev(%"class.xalanc_1_10::XalanMemMgrAutoPtr"* %this) unnamed_addr #2 comdat align 2 personality i8* bitcast (i32 (...)* @__gxx_personality_v0 to i8*) !dbg !2054 {
entry:
  %this.addr = alloca %"class.xalanc_1_10::XalanMemMgrAutoPtr"*, align 8
  store %"class.xalanc_1_10::XalanMemMgrAutoPtr"* %this, %"class.xalanc_1_10::XalanMemMgrAutoPtr"** %this.addr, align 8
  call void @llvm.dbg.declare(metadata %"class.xalanc_1_10::XalanMemMgrAutoPtr"** %this.addr, metadata !2055, metadata !DIExpression()), !dbg !2056
  %this1 = load %"class.xalanc_1_10::XalanMemMgrAutoPtr"*, %"class.xalanc_1_10::XalanMemMgrAutoPtr"** %this.addr, align 8
  %m_pointerInfo = getelementptr inbounds %"class.xalanc_1_10::XalanMemMgrAutoPtr", %"class.xalanc_1_10::XalanMemMgrAutoPtr"* %this1, i32 0, i32 0, !dbg !2057
  invoke void @_ZN11xalanc_1_1018XalanMemMgrAutoPtrINS_23XalanSourceTreeElementAELb0EE17MemMgrAutoPtrData10deallocateEv(%"class.xalanc_1_10::XalanMemMgrAutoPtr<xalanc_1_10::XalanSourceTreeElementA, false>::MemMgrAutoPtrData"* %m_pointerInfo)
          to label %invoke.cont unwind label %terminate.lpad, !dbg !2059

invoke.cont:                                      ; preds = %entry
  ret void, !dbg !2060

terminate.lpad:                                   ; preds = %entry
  %0 = landingpad { i8*, i32 }
          catch i8* null, !dbg !2059
  %1 = extractvalue { i8*, i32 } %0, 0, !dbg !2059
  call void @__clang_call_terminate(i8* %1) #10, !dbg !2059
  unreachable, !dbg !2059
}

; Function Attrs: noinline nounwind uwtable
define dso_local %"class.xalanc_1_10::XalanNamedNodeMap"* @_ZNK11xalanc_1_1023XalanSourceTreeElementA13getAttributesEv(%"class.xalanc_1_10::XalanSourceTreeElementA"* %this) unnamed_addr #2 align 2 !dbg !2061 {
entry:
  %this.addr = alloca %"class.xalanc_1_10::XalanSourceTreeElementA"*, align 8
  store %"class.xalanc_1_10::XalanSourceTreeElementA"* %this, %"class.xalanc_1_10::XalanSourceTreeElementA"** %this.addr, align 8
  call void @llvm.dbg.declare(metadata %"class.xalanc_1_10::XalanSourceTreeElementA"** %this.addr, metadata !2062, metadata !DIExpression()), !dbg !2064
  %this1 = load %"class.xalanc_1_10::XalanSourceTreeElementA"*, %"class.xalanc_1_10::XalanSourceTreeElementA"** %this.addr, align 8
  %0 = bitcast %"class.xalanc_1_10::XalanSourceTreeElementA"* %this1 to i8*, !dbg !2065
  %add.ptr = getelementptr inbounds i8, i8* %0, i64 72, !dbg !2065
  %1 = bitcast i8* %add.ptr to %"class.xalanc_1_10::XalanNamedNodeMap"*, !dbg !2065
  ret %"class.xalanc_1_10::XalanNamedNodeMap"* %1, !dbg !2066
}

; Function Attrs: noinline uwtable
define dso_local %"class.xalanc_1_10::XalanSourceTreeElementA"* @_ZNK11xalanc_1_1023XalanSourceTreeElementA9cloneNodeEb(%"class.xalanc_1_10::XalanSourceTreeElementA"* %this, i1 zeroext %0) unnamed_addr #0 align 2 personality i8* bitcast (i32 (...)* @__gxx_personality_v0 to i8*) !dbg !2067 {
entry:
  %this.addr = alloca %"class.xalanc_1_10::XalanSourceTreeElementA"*, align 8
  %.addr = alloca i8, align 1
  %exn.slot = alloca i8*
  %ehselector.slot = alloca i32
  store %"class.xalanc_1_10::XalanSourceTreeElementA"* %this, %"class.xalanc_1_10::XalanSourceTreeElementA"** %this.addr, align 8
  call void @llvm.dbg.declare(metadata %"class.xalanc_1_10::XalanSourceTreeElementA"** %this.addr, metadata !2068, metadata !DIExpression()), !dbg !2069
  %frombool = zext i1 %0 to i8
  store i8 %frombool, i8* %.addr, align 1
  call void @llvm.dbg.declare(metadata i8* %.addr, metadata !2070, metadata !DIExpression()), !dbg !2071
  %this1 = load %"class.xalanc_1_10::XalanSourceTreeElementA"*, %"class.xalanc_1_10::XalanSourceTreeElementA"** %this.addr, align 8
  %exception = call i8* @__cxa_allocate_exception(i64 16) #3, !dbg !2072
  %1 = bitcast i8* %exception to %"class.xalanc_1_10::XalanDOMException"*, !dbg !2072
  invoke void @_ZN11xalanc_1_1017XalanDOMExceptionC1ENS0_13ExceptionCodeE(%"class.xalanc_1_10::XalanDOMException"* %1, i32 9)
          to label %invoke.cont unwind label %lpad, !dbg !2073

invoke.cont:                                      ; preds = %entry
  call void @__cxa_throw(i8* %exception, i8* bitcast (i8** @_ZTIN11xalanc_1_1017XalanDOMExceptionE to i8*), i8* bitcast (void (%"class.xalanc_1_10::XalanDOMException"*)* @_ZN11xalanc_1_1017XalanDOMExceptionD1Ev to i8*)) #11, !dbg !2072
  unreachable, !dbg !2072

lpad:                                             ; preds = %entry
  %2 = landingpad { i8*, i32 }
          cleanup, !dbg !2074
  %3 = extractvalue { i8*, i32 } %2, 0, !dbg !2074
  store i8* %3, i8** %exn.slot, align 8, !dbg !2074
  %4 = extractvalue { i8*, i32 } %2, 1, !dbg !2074
  store i32 %4, i32* %ehselector.slot, align 4, !dbg !2074
  call void @__cxa_free_exception(i8* %exception) #3, !dbg !2072
  br label %eh.resume, !dbg !2072

eh.resume:                                        ; preds = %lpad
  %exn = load i8*, i8** %exn.slot, align 8, !dbg !2072
  %sel = load i32, i32* %ehselector.slot, align 4, !dbg !2072
  %lpad.val = insertvalue { i8*, i32 } undef, i8* %exn, 0, !dbg !2072
  %lpad.val2 = insertvalue { i8*, i32 } %lpad.val, i32 %sel, 1, !dbg !2072
  resume { i8*, i32 } %lpad.val2, !dbg !2072
}

declare dso_local i8* @__cxa_allocate_exception(i64)

declare dso_local void @_ZN11xalanc_1_1017XalanDOMExceptionC1ENS0_13ExceptionCodeE(%"class.xalanc_1_10::XalanDOMException"*, i32) unnamed_addr #1

declare dso_local void @__cxa_free_exception(i8*)

; Function Attrs: nounwind
declare dso_local void @_ZN11xalanc_1_1017XalanDOMExceptionD1Ev(%"class.xalanc_1_10::XalanDOMException"*) unnamed_addr #5

declare dso_local void @__cxa_throw(i8*, i8*, i8*)

; Function Attrs: noinline nounwind uwtable
define dso_local dereferenceable(40) %"class.xalanc_1_10::XalanDOMString"* @_ZNK11xalanc_1_1023XalanSourceTreeElementA15getNamespaceURIEv(%"class.xalanc_1_10::XalanSourceTreeElementA"* %this) unnamed_addr #2 align 2 !dbg !2075 {
entry:
  %this.addr = alloca %"class.xalanc_1_10::XalanSourceTreeElementA"*, align 8
  store %"class.xalanc_1_10::XalanSourceTreeElementA"* %this, %"class.xalanc_1_10::XalanSourceTreeElementA"** %this.addr, align 8
  call void @llvm.dbg.declare(metadata %"class.xalanc_1_10::XalanSourceTreeElementA"** %this.addr, metadata !2076, metadata !DIExpression()), !dbg !2077
  %this1 = load %"class.xalanc_1_10::XalanSourceTreeElementA"*, %"class.xalanc_1_10::XalanSourceTreeElementA"** %this.addr, align 8
  ret %"class.xalanc_1_10::XalanDOMString"* @_ZN11xalanc_1_1022XalanSourceTreeElement13s_emptyStringE, !dbg !2078
}

; Function Attrs: noinline nounwind uwtable
define dso_local dereferenceable(40) %"class.xalanc_1_10::XalanDOMString"* @_ZNK11xalanc_1_1023XalanSourceTreeElementA9getPrefixEv(%"class.xalanc_1_10::XalanSourceTreeElementA"* %this) unnamed_addr #2 align 2 !dbg !2079 {
entry:
  %this.addr = alloca %"class.xalanc_1_10::XalanSourceTreeElementA"*, align 8
  store %"class.xalanc_1_10::XalanSourceTreeElementA"* %this, %"class.xalanc_1_10::XalanSourceTreeElementA"** %this.addr, align 8
  call void @llvm.dbg.declare(metadata %"class.xalanc_1_10::XalanSourceTreeElementA"** %this.addr, metadata !2080, metadata !DIExpression()), !dbg !2081
  %this1 = load %"class.xalanc_1_10::XalanSourceTreeElementA"*, %"class.xalanc_1_10::XalanSourceTreeElementA"** %this.addr, align 8
  ret %"class.xalanc_1_10::XalanDOMString"* @_ZN11xalanc_1_1022XalanSourceTreeElement13s_emptyStringE, !dbg !2082
}

; Function Attrs: noinline nounwind uwtable
define dso_local dereferenceable(40) %"class.xalanc_1_10::XalanDOMString"* @_ZNK11xalanc_1_1023XalanSourceTreeElementA12getLocalNameEv(%"class.xalanc_1_10::XalanSourceTreeElementA"* %this) unnamed_addr #2 align 2 !dbg !2083 {
entry:
  %this.addr = alloca %"class.xalanc_1_10::XalanSourceTreeElementA"*, align 8
  store %"class.xalanc_1_10::XalanSourceTreeElementA"* %this, %"class.xalanc_1_10::XalanSourceTreeElementA"** %this.addr, align 8
  call void @llvm.dbg.declare(metadata %"class.xalanc_1_10::XalanSourceTreeElementA"** %this.addr, metadata !2084, metadata !DIExpression()), !dbg !2085
  %this1 = load %"class.xalanc_1_10::XalanSourceTreeElementA"*, %"class.xalanc_1_10::XalanSourceTreeElementA"** %this.addr, align 8
  %0 = bitcast %"class.xalanc_1_10::XalanSourceTreeElementA"* %this1 to %"class.xalanc_1_10::XalanSourceTreeElement"*, !dbg !2086
  %m_tagName = getelementptr inbounds %"class.xalanc_1_10::XalanSourceTreeElement", %"class.xalanc_1_10::XalanSourceTreeElement"* %0, i32 0, i32 1, !dbg !2086
  %1 = load %"class.xalanc_1_10::XalanDOMString"*, %"class.xalanc_1_10::XalanDOMString"** %m_tagName, align 8, !dbg !2086
  ret %"class.xalanc_1_10::XalanDOMString"* %1, !dbg !2087
}

; Function Attrs: noinline uwtable
define dso_local dereferenceable(40) %"class.xalanc_1_10::XalanDOMString"* @_ZNK11xalanc_1_1023XalanSourceTreeElementA12getAttributeERKNS_14XalanDOMStringE(%"class.xalanc_1_10::XalanSourceTreeElementA"* %this, %"class.xalanc_1_10::XalanDOMString"* dereferenceable(40) %name) unnamed_addr #0 align 2 !dbg !2088 {
entry:
  %this.addr = alloca %"class.xalanc_1_10::XalanSourceTreeElementA"*, align 8
  %name.addr = alloca %"class.xalanc_1_10::XalanDOMString"*, align 8
  %theAttr = alloca %"class.xalanc_1_10::XalanAttr"*, align 8
  store %"class.xalanc_1_10::XalanSourceTreeElementA"* %this, %"class.xalanc_1_10::XalanSourceTreeElementA"** %this.addr, align 8
  call void @llvm.dbg.declare(metadata %"class.xalanc_1_10::XalanSourceTreeElementA"** %this.addr, metadata !2089, metadata !DIExpression()), !dbg !2090
  store %"class.xalanc_1_10::XalanDOMString"* %name, %"class.xalanc_1_10::XalanDOMString"** %name.addr, align 8
  call void @llvm.dbg.declare(metadata %"class.xalanc_1_10::XalanDOMString"** %name.addr, metadata !2091, metadata !DIExpression()), !dbg !2092
  %this1 = load %"class.xalanc_1_10::XalanSourceTreeElementA"*, %"class.xalanc_1_10::XalanSourceTreeElementA"** %this.addr, align 8
  call void @llvm.dbg.declare(metadata %"class.xalanc_1_10::XalanAttr"** %theAttr, metadata !2093, metadata !DIExpression()), !dbg !2095
  %0 = load %"class.xalanc_1_10::XalanDOMString"*, %"class.xalanc_1_10::XalanDOMString"** %name.addr, align 8, !dbg !2096
  %1 = bitcast %"class.xalanc_1_10::XalanSourceTreeElementA"* %this1 to %"class.xalanc_1_10::XalanAttr"* (%"class.xalanc_1_10::XalanSourceTreeElementA"*, %"class.xalanc_1_10::XalanDOMString"*)***, !dbg !2097
  %vtable = load %"class.xalanc_1_10::XalanAttr"* (%"class.xalanc_1_10::XalanSourceTreeElementA"*, %"class.xalanc_1_10::XalanDOMString"*)**, %"class.xalanc_1_10::XalanAttr"* (%"class.xalanc_1_10::XalanSourceTreeElementA"*, %"class.xalanc_1_10::XalanDOMString"*)*** %1, align 8, !dbg !2097
  %vfn = getelementptr inbounds %"class.xalanc_1_10::XalanAttr"* (%"class.xalanc_1_10::XalanSourceTreeElementA"*, %"class.xalanc_1_10::XalanDOMString"*)*, %"class.xalanc_1_10::XalanAttr"* (%"class.xalanc_1_10::XalanSourceTreeElementA"*, %"class.xalanc_1_10::XalanDOMString"*)** %vtable, i64 30, !dbg !2097
  %2 = load %"class.xalanc_1_10::XalanAttr"* (%"class.xalanc_1_10::XalanSourceTreeElementA"*, %"class.xalanc_1_10::XalanDOMString"*)*, %"class.xalanc_1_10::XalanAttr"* (%"class.xalanc_1_10::XalanSourceTreeElementA"*, %"class.xalanc_1_10::XalanDOMString"*)** %vfn, align 8, !dbg !2097
  %call = call %"class.xalanc_1_10::XalanAttr"* %2(%"class.xalanc_1_10::XalanSourceTreeElementA"* %this1, %"class.xalanc_1_10::XalanDOMString"* dereferenceable(40) %0), !dbg !2097
  store %"class.xalanc_1_10::XalanAttr"* %call, %"class.xalanc_1_10::XalanAttr"** %theAttr, align 8, !dbg !2095
  %3 = load %"class.xalanc_1_10::XalanAttr"*, %"class.xalanc_1_10::XalanAttr"** %theAttr, align 8, !dbg !2098
  %cmp = icmp eq %"class.xalanc_1_10::XalanAttr"* %3, null, !dbg !2099
  br i1 %cmp, label %cond.true, label %cond.false, !dbg !2098

cond.true:                                        ; preds = %entry
  br label %cond.end, !dbg !2098

cond.false:                                       ; preds = %entry
  %4 = load %"class.xalanc_1_10::XalanAttr"*, %"class.xalanc_1_10::XalanAttr"** %theAttr, align 8, !dbg !2100
  %5 = bitcast %"class.xalanc_1_10::XalanAttr"* %4 to %"class.xalanc_1_10::XalanDOMString"* (%"class.xalanc_1_10::XalanAttr"*)***, !dbg !2101
  %vtable2 = load %"class.xalanc_1_10::XalanDOMString"* (%"class.xalanc_1_10::XalanAttr"*)**, %"class.xalanc_1_10::XalanDOMString"* (%"class.xalanc_1_10::XalanAttr"*)*** %5, align 8, !dbg !2101
  %vfn3 = getelementptr inbounds %"class.xalanc_1_10::XalanDOMString"* (%"class.xalanc_1_10::XalanAttr"*)*, %"class.xalanc_1_10::XalanDOMString"* (%"class.xalanc_1_10::XalanAttr"*)** %vtable2, i64 30, !dbg !2101
  %6 = load %"class.xalanc_1_10::XalanDOMString"* (%"class.xalanc_1_10::XalanAttr"*)*, %"class.xalanc_1_10::XalanDOMString"* (%"class.xalanc_1_10::XalanAttr"*)** %vfn3, align 8, !dbg !2101
  %call4 = call dereferenceable(40) %"class.xalanc_1_10::XalanDOMString"* %6(%"class.xalanc_1_10::XalanAttr"* %4), !dbg !2101
  br label %cond.end, !dbg !2098

cond.end:                                         ; preds = %cond.false, %cond.true
  %cond-lvalue = phi %"class.xalanc_1_10::XalanDOMString"* [ @_ZN11xalanc_1_1022XalanSourceTreeElement13s_emptyStringE, %cond.true ], [ %call4, %cond.false ], !dbg !2098
  ret %"class.xalanc_1_10::XalanDOMString"* %cond-lvalue, !dbg !2102
}

; Function Attrs: noinline uwtable
define dso_local %"class.xalanc_1_10::XalanAttr"* @_ZNK11xalanc_1_1023XalanSourceTreeElementA16getAttributeNodeERKNS_14XalanDOMStringE(%"class.xalanc_1_10::XalanSourceTreeElementA"* %this, %"class.xalanc_1_10::XalanDOMString"* dereferenceable(40) %name) unnamed_addr #0 align 2 !dbg !2103 {
entry:
  %retval = alloca %"class.xalanc_1_10::XalanAttr"*, align 8
  %this.addr = alloca %"class.xalanc_1_10::XalanSourceTreeElementA"*, align 8
  %name.addr = alloca %"class.xalanc_1_10::XalanDOMString"*, align 8
  %i = alloca i32, align 4
  store %"class.xalanc_1_10::XalanSourceTreeElementA"* %this, %"class.xalanc_1_10::XalanSourceTreeElementA"** %this.addr, align 8
  call void @llvm.dbg.declare(metadata %"class.xalanc_1_10::XalanSourceTreeElementA"** %this.addr, metadata !2104, metadata !DIExpression()), !dbg !2105
  store %"class.xalanc_1_10::XalanDOMString"* %name, %"class.xalanc_1_10::XalanDOMString"** %name.addr, align 8
  call void @llvm.dbg.declare(metadata %"class.xalanc_1_10::XalanDOMString"** %name.addr, metadata !2106, metadata !DIExpression()), !dbg !2107
  %this1 = load %"class.xalanc_1_10::XalanSourceTreeElementA"*, %"class.xalanc_1_10::XalanSourceTreeElementA"** %this.addr, align 8
  call void @llvm.dbg.declare(metadata i32* %i, metadata !2108, metadata !DIExpression()), !dbg !2110
  store i32 0, i32* %i, align 4, !dbg !2110
  br label %for.cond, !dbg !2111

for.cond:                                         ; preds = %for.inc, %entry
  %0 = load i32, i32* %i, align 4, !dbg !2112
  %conv = zext i32 %0 to i64, !dbg !2112
  %m_attributeCount = getelementptr inbounds %"class.xalanc_1_10::XalanSourceTreeElementA", %"class.xalanc_1_10::XalanSourceTreeElementA"* %this1, i32 0, i32 3, !dbg !2114
  %1 = load i64, i64* %m_attributeCount, align 8, !dbg !2114
  %cmp = icmp ult i64 %conv, %1, !dbg !2115
  br i1 %cmp, label %for.body, label %for.end, !dbg !2116

for.body:                                         ; preds = %for.cond
  %m_attributes = getelementptr inbounds %"class.xalanc_1_10::XalanSourceTreeElementA", %"class.xalanc_1_10::XalanSourceTreeElementA"* %this1, i32 0, i32 2, !dbg !2117
  %2 = load %"class.xalanc_1_10::XalanSourceTreeAttr"**, %"class.xalanc_1_10::XalanSourceTreeAttr"*** %m_attributes, align 8, !dbg !2117
  %3 = load i32, i32* %i, align 4, !dbg !2120
  %idxprom = zext i32 %3 to i64, !dbg !2117
  %arrayidx = getelementptr inbounds %"class.xalanc_1_10::XalanSourceTreeAttr"*, %"class.xalanc_1_10::XalanSourceTreeAttr"** %2, i64 %idxprom, !dbg !2117
  %4 = load %"class.xalanc_1_10::XalanSourceTreeAttr"*, %"class.xalanc_1_10::XalanSourceTreeAttr"** %arrayidx, align 8, !dbg !2117
  %5 = bitcast %"class.xalanc_1_10::XalanSourceTreeAttr"* %4 to %"class.xalanc_1_10::XalanDOMString"* (%"class.xalanc_1_10::XalanSourceTreeAttr"*)***, !dbg !2121
  %vtable = load %"class.xalanc_1_10::XalanDOMString"* (%"class.xalanc_1_10::XalanSourceTreeAttr"*)**, %"class.xalanc_1_10::XalanDOMString"* (%"class.xalanc_1_10::XalanSourceTreeAttr"*)*** %5, align 8, !dbg !2121
  %vfn = getelementptr inbounds %"class.xalanc_1_10::XalanDOMString"* (%"class.xalanc_1_10::XalanSourceTreeAttr"*)*, %"class.xalanc_1_10::XalanDOMString"* (%"class.xalanc_1_10::XalanSourceTreeAttr"*)** %vtable, i64 2, !dbg !2121
  %6 = load %"class.xalanc_1_10::XalanDOMString"* (%"class.xalanc_1_10::XalanSourceTreeAttr"*)*, %"class.xalanc_1_10::XalanDOMString"* (%"class.xalanc_1_10::XalanSourceTreeAttr"*)** %vfn, align 8, !dbg !2121
  %call = call dereferenceable(40) %"class.xalanc_1_10::XalanDOMString"* %6(%"class.xalanc_1_10::XalanSourceTreeAttr"* %4), !dbg !2121
  %7 = load %"class.xalanc_1_10::XalanDOMString"*, %"class.xalanc_1_10::XalanDOMString"** %name.addr, align 8, !dbg !2122
  %call2 = call zeroext i1 @_ZN11xalanc_1_10eqERKNS_14XalanDOMStringES2_(%"class.xalanc_1_10::XalanDOMString"* dereferenceable(40) %call, %"class.xalanc_1_10::XalanDOMString"* dereferenceable(40) %7), !dbg !2123
  br i1 %call2, label %if.then, label %if.end, !dbg !2124

if.then:                                          ; preds = %for.body
  %m_attributes3 = getelementptr inbounds %"class.xalanc_1_10::XalanSourceTreeElementA", %"class.xalanc_1_10::XalanSourceTreeElementA"* %this1, i32 0, i32 2, !dbg !2125
  %8 = load %"class.xalanc_1_10::XalanSourceTreeAttr"**, %"class.xalanc_1_10::XalanSourceTreeAttr"*** %m_attributes3, align 8, !dbg !2125
  %9 = load i32, i32* %i, align 4, !dbg !2127
  %idxprom4 = zext i32 %9 to i64, !dbg !2125
  %arrayidx5 = getelementptr inbounds %"class.xalanc_1_10::XalanSourceTreeAttr"*, %"class.xalanc_1_10::XalanSourceTreeAttr"** %8, i64 %idxprom4, !dbg !2125
  %10 = load %"class.xalanc_1_10::XalanSourceTreeAttr"*, %"class.xalanc_1_10::XalanSourceTreeAttr"** %arrayidx5, align 8, !dbg !2125
  %11 = bitcast %"class.xalanc_1_10::XalanSourceTreeAttr"* %10 to %"class.xalanc_1_10::XalanAttr"*, !dbg !2125
  store %"class.xalanc_1_10::XalanAttr"* %11, %"class.xalanc_1_10::XalanAttr"** %retval, align 8, !dbg !2128
  br label %return, !dbg !2128

if.end:                                           ; preds = %for.body
  br label %for.inc, !dbg !2129

for.inc:                                          ; preds = %if.end
  %12 = load i32, i32* %i, align 4, !dbg !2130
  %inc = add i32 %12, 1, !dbg !2130
  store i32 %inc, i32* %i, align 4, !dbg !2130
  br label %for.cond, !dbg !2131, !llvm.loop !2132

for.end:                                          ; preds = %for.cond
  store %"class.xalanc_1_10::XalanAttr"* null, %"class.xalanc_1_10::XalanAttr"** %retval, align 8, !dbg !2134
  br label %return, !dbg !2134

return:                                           ; preds = %for.end, %if.then
  %13 = load %"class.xalanc_1_10::XalanAttr"*, %"class.xalanc_1_10::XalanAttr"** %retval, align 8, !dbg !2135
  ret %"class.xalanc_1_10::XalanAttr"* %13, !dbg !2135
}

; Function Attrs: noinline uwtable
define linkonce_odr dso_local zeroext i1 @_ZN11xalanc_1_10eqERKNS_14XalanDOMStringES2_(%"class.xalanc_1_10::XalanDOMString"* dereferenceable(40) %theLHS, %"class.xalanc_1_10::XalanDOMString"* dereferenceable(40) %theRHS) #0 comdat !dbg !2136 {
entry:
  %theLHS.addr = alloca %"class.xalanc_1_10::XalanDOMString"*, align 8
  %theRHS.addr = alloca %"class.xalanc_1_10::XalanDOMString"*, align 8
  store %"class.xalanc_1_10::XalanDOMString"* %theLHS, %"class.xalanc_1_10::XalanDOMString"** %theLHS.addr, align 8
  call void @llvm.dbg.declare(metadata %"class.xalanc_1_10::XalanDOMString"** %theLHS.addr, metadata !2137, metadata !DIExpression()), !dbg !2138
  store %"class.xalanc_1_10::XalanDOMString"* %theRHS, %"class.xalanc_1_10::XalanDOMString"** %theRHS.addr, align 8
  call void @llvm.dbg.declare(metadata %"class.xalanc_1_10::XalanDOMString"** %theRHS.addr, metadata !2139, metadata !DIExpression()), !dbg !2140
  %0 = load %"class.xalanc_1_10::XalanDOMString"*, %"class.xalanc_1_10::XalanDOMString"** %theLHS.addr, align 8, !dbg !2141
  %1 = load %"class.xalanc_1_10::XalanDOMString"*, %"class.xalanc_1_10::XalanDOMString"** %theRHS.addr, align 8, !dbg !2142
  %call = call zeroext i1 @_ZN11xalanc_1_1014XalanDOMString6equalsERKS0_S2_(%"class.xalanc_1_10::XalanDOMString"* dereferenceable(40) %0, %"class.xalanc_1_10::XalanDOMString"* dereferenceable(40) %1), !dbg !2143
  ret i1 %call, !dbg !2144
}

; Function Attrs: noinline uwtable
define dso_local dereferenceable(40) %"class.xalanc_1_10::XalanDOMString"* @_ZNK11xalanc_1_1023XalanSourceTreeElementA14getAttributeNSERKNS_14XalanDOMStringES3_(%"class.xalanc_1_10::XalanSourceTreeElementA"* %this, %"class.xalanc_1_10::XalanDOMString"* dereferenceable(40) %namespaceURI, %"class.xalanc_1_10::XalanDOMString"* dereferenceable(40) %localName) unnamed_addr #0 align 2 !dbg !2145 {
entry:
  %this.addr = alloca %"class.xalanc_1_10::XalanSourceTreeElementA"*, align 8
  %namespaceURI.addr = alloca %"class.xalanc_1_10::XalanDOMString"*, align 8
  %localName.addr = alloca %"class.xalanc_1_10::XalanDOMString"*, align 8
  %theAttr = alloca %"class.xalanc_1_10::XalanAttr"*, align 8
  store %"class.xalanc_1_10::XalanSourceTreeElementA"* %this, %"class.xalanc_1_10::XalanSourceTreeElementA"** %this.addr, align 8
  call void @llvm.dbg.declare(metadata %"class.xalanc_1_10::XalanSourceTreeElementA"** %this.addr, metadata !2146, metadata !DIExpression()), !dbg !2147
  store %"class.xalanc_1_10::XalanDOMString"* %namespaceURI, %"class.xalanc_1_10::XalanDOMString"** %namespaceURI.addr, align 8
  call void @llvm.dbg.declare(metadata %"class.xalanc_1_10::XalanDOMString"** %namespaceURI.addr, metadata !2148, metadata !DIExpression()), !dbg !2149
  store %"class.xalanc_1_10::XalanDOMString"* %localName, %"class.xalanc_1_10::XalanDOMString"** %localName.addr, align 8
  call void @llvm.dbg.declare(metadata %"class.xalanc_1_10::XalanDOMString"** %localName.addr, metadata !2150, metadata !DIExpression()), !dbg !2151
  %this1 = load %"class.xalanc_1_10::XalanSourceTreeElementA"*, %"class.xalanc_1_10::XalanSourceTreeElementA"** %this.addr, align 8
  call void @llvm.dbg.declare(metadata %"class.xalanc_1_10::XalanAttr"** %theAttr, metadata !2152, metadata !DIExpression()), !dbg !2153
  %0 = load %"class.xalanc_1_10::XalanDOMString"*, %"class.xalanc_1_10::XalanDOMString"** %namespaceURI.addr, align 8, !dbg !2154
  %1 = load %"class.xalanc_1_10::XalanDOMString"*, %"class.xalanc_1_10::XalanDOMString"** %localName.addr, align 8, !dbg !2155
  %2 = bitcast %"class.xalanc_1_10::XalanSourceTreeElementA"* %this1 to %"class.xalanc_1_10::XalanAttr"* (%"class.xalanc_1_10::XalanSourceTreeElementA"*, %"class.xalanc_1_10::XalanDOMString"*, %"class.xalanc_1_10::XalanDOMString"*)***, !dbg !2156
  %vtable = load %"class.xalanc_1_10::XalanAttr"* (%"class.xalanc_1_10::XalanSourceTreeElementA"*, %"class.xalanc_1_10::XalanDOMString"*, %"class.xalanc_1_10::XalanDOMString"*)**, %"class.xalanc_1_10::XalanAttr"* (%"class.xalanc_1_10::XalanSourceTreeElementA"*, %"class.xalanc_1_10::XalanDOMString"*, %"class.xalanc_1_10::XalanDOMString"*)*** %2, align 8, !dbg !2156
  %vfn = getelementptr inbounds %"class.xalanc_1_10::XalanAttr"* (%"class.xalanc_1_10::XalanSourceTreeElementA"*, %"class.xalanc_1_10::XalanDOMString"*, %"class.xalanc_1_10::XalanDOMString"*)*, %"class.xalanc_1_10::XalanAttr"* (%"class.xalanc_1_10::XalanSourceTreeElementA"*, %"class.xalanc_1_10::XalanDOMString"*, %"class.xalanc_1_10::XalanDOMString"*)** %vtable, i64 39, !dbg !2156
  %3 = load %"class.xalanc_1_10::XalanAttr"* (%"class.xalanc_1_10::XalanSourceTreeElementA"*, %"class.xalanc_1_10::XalanDOMString"*, %"class.xalanc_1_10::XalanDOMString"*)*, %"class.xalanc_1_10::XalanAttr"* (%"class.xalanc_1_10::XalanSourceTreeElementA"*, %"class.xalanc_1_10::XalanDOMString"*, %"class.xalanc_1_10::XalanDOMString"*)** %vfn, align 8, !dbg !2156
  %call = call %"class.xalanc_1_10::XalanAttr"* %3(%"class.xalanc_1_10::XalanSourceTreeElementA"* %this1, %"class.xalanc_1_10::XalanDOMString"* dereferenceable(40) %0, %"class.xalanc_1_10::XalanDOMString"* dereferenceable(40) %1), !dbg !2156
  store %"class.xalanc_1_10::XalanAttr"* %call, %"class.xalanc_1_10::XalanAttr"** %theAttr, align 8, !dbg !2153
  %4 = load %"class.xalanc_1_10::XalanAttr"*, %"class.xalanc_1_10::XalanAttr"** %theAttr, align 8, !dbg !2157
  %cmp = icmp eq %"class.xalanc_1_10::XalanAttr"* %4, null, !dbg !2158
  br i1 %cmp, label %cond.true, label %cond.false, !dbg !2157

cond.true:                                        ; preds = %entry
  br label %cond.end, !dbg !2157

cond.false:                                       ; preds = %entry
  %5 = load %"class.xalanc_1_10::XalanAttr"*, %"class.xalanc_1_10::XalanAttr"** %theAttr, align 8, !dbg !2159
  %6 = bitcast %"class.xalanc_1_10::XalanAttr"* %5 to %"class.xalanc_1_10::XalanDOMString"* (%"class.xalanc_1_10::XalanAttr"*)***, !dbg !2160
  %vtable2 = load %"class.xalanc_1_10::XalanDOMString"* (%"class.xalanc_1_10::XalanAttr"*)**, %"class.xalanc_1_10::XalanDOMString"* (%"class.xalanc_1_10::XalanAttr"*)*** %6, align 8, !dbg !2160
  %vfn3 = getelementptr inbounds %"class.xalanc_1_10::XalanDOMString"* (%"class.xalanc_1_10::XalanAttr"*)*, %"class.xalanc_1_10::XalanDOMString"* (%"class.xalanc_1_10::XalanAttr"*)** %vtable2, i64 30, !dbg !2160
  %7 = load %"class.xalanc_1_10::XalanDOMString"* (%"class.xalanc_1_10::XalanAttr"*)*, %"class.xalanc_1_10::XalanDOMString"* (%"class.xalanc_1_10::XalanAttr"*)** %vfn3, align 8, !dbg !2160
  %call4 = call dereferenceable(40) %"class.xalanc_1_10::XalanDOMString"* %7(%"class.xalanc_1_10::XalanAttr"* %5), !dbg !2160
  br label %cond.end, !dbg !2157

cond.end:                                         ; preds = %cond.false, %cond.true
  %cond-lvalue = phi %"class.xalanc_1_10::XalanDOMString"* [ @_ZN11xalanc_1_1022XalanSourceTreeElement13s_emptyStringE, %cond.true ], [ %call4, %cond.false ], !dbg !2157
  ret %"class.xalanc_1_10::XalanDOMString"* %cond-lvalue, !dbg !2161
}

; Function Attrs: noinline uwtable
define dso_local %"class.xalanc_1_10::XalanAttr"* @_ZNK11xalanc_1_1023XalanSourceTreeElementA18getAttributeNodeNSERKNS_14XalanDOMStringES3_(%"class.xalanc_1_10::XalanSourceTreeElementA"* %this, %"class.xalanc_1_10::XalanDOMString"* dereferenceable(40) %namespaceURI, %"class.xalanc_1_10::XalanDOMString"* dereferenceable(40) %localName) unnamed_addr #0 align 2 !dbg !2162 {
entry:
  %retval = alloca %"class.xalanc_1_10::XalanAttr"*, align 8
  %this.addr = alloca %"class.xalanc_1_10::XalanSourceTreeElementA"*, align 8
  %namespaceURI.addr = alloca %"class.xalanc_1_10::XalanDOMString"*, align 8
  %localName.addr = alloca %"class.xalanc_1_10::XalanDOMString"*, align 8
  %i = alloca i32, align 4
  store %"class.xalanc_1_10::XalanSourceTreeElementA"* %this, %"class.xalanc_1_10::XalanSourceTreeElementA"** %this.addr, align 8
  call void @llvm.dbg.declare(metadata %"class.xalanc_1_10::XalanSourceTreeElementA"** %this.addr, metadata !2163, metadata !DIExpression()), !dbg !2164
  store %"class.xalanc_1_10::XalanDOMString"* %namespaceURI, %"class.xalanc_1_10::XalanDOMString"** %namespaceURI.addr, align 8
  call void @llvm.dbg.declare(metadata %"class.xalanc_1_10::XalanDOMString"** %namespaceURI.addr, metadata !2165, metadata !DIExpression()), !dbg !2166
  store %"class.xalanc_1_10::XalanDOMString"* %localName, %"class.xalanc_1_10::XalanDOMString"** %localName.addr, align 8
  call void @llvm.dbg.declare(metadata %"class.xalanc_1_10::XalanDOMString"** %localName.addr, metadata !2167, metadata !DIExpression()), !dbg !2168
  %this1 = load %"class.xalanc_1_10::XalanSourceTreeElementA"*, %"class.xalanc_1_10::XalanSourceTreeElementA"** %this.addr, align 8
  call void @llvm.dbg.declare(metadata i32* %i, metadata !2169, metadata !DIExpression()), !dbg !2171
  store i32 0, i32* %i, align 4, !dbg !2171
  br label %for.cond, !dbg !2172

for.cond:                                         ; preds = %for.inc, %entry
  %0 = load i32, i32* %i, align 4, !dbg !2173
  %conv = zext i32 %0 to i64, !dbg !2173
  %m_attributeCount = getelementptr inbounds %"class.xalanc_1_10::XalanSourceTreeElementA", %"class.xalanc_1_10::XalanSourceTreeElementA"* %this1, i32 0, i32 3, !dbg !2175
  %1 = load i64, i64* %m_attributeCount, align 8, !dbg !2175
  %cmp = icmp ult i64 %conv, %1, !dbg !2176
  br i1 %cmp, label %for.body, label %for.end, !dbg !2177

for.body:                                         ; preds = %for.cond
  %m_attributes = getelementptr inbounds %"class.xalanc_1_10::XalanSourceTreeElementA", %"class.xalanc_1_10::XalanSourceTreeElementA"* %this1, i32 0, i32 2, !dbg !2178
  %2 = load %"class.xalanc_1_10::XalanSourceTreeAttr"**, %"class.xalanc_1_10::XalanSourceTreeAttr"*** %m_attributes, align 8, !dbg !2178
  %3 = load i32, i32* %i, align 4, !dbg !2181
  %idxprom = zext i32 %3 to i64, !dbg !2178
  %arrayidx = getelementptr inbounds %"class.xalanc_1_10::XalanSourceTreeAttr"*, %"class.xalanc_1_10::XalanSourceTreeAttr"** %2, i64 %idxprom, !dbg !2178
  %4 = load %"class.xalanc_1_10::XalanSourceTreeAttr"*, %"class.xalanc_1_10::XalanSourceTreeAttr"** %arrayidx, align 8, !dbg !2178
  %5 = bitcast %"class.xalanc_1_10::XalanSourceTreeAttr"* %4 to %"class.xalanc_1_10::XalanDOMString"* (%"class.xalanc_1_10::XalanSourceTreeAttr"*)***, !dbg !2182
  %vtable = load %"class.xalanc_1_10::XalanDOMString"* (%"class.xalanc_1_10::XalanSourceTreeAttr"*)**, %"class.xalanc_1_10::XalanDOMString"* (%"class.xalanc_1_10::XalanSourceTreeAttr"*)*** %5, align 8, !dbg !2182
  %vfn = getelementptr inbounds %"class.xalanc_1_10::XalanDOMString"* (%"class.xalanc_1_10::XalanSourceTreeAttr"*)*, %"class.xalanc_1_10::XalanDOMString"* (%"class.xalanc_1_10::XalanSourceTreeAttr"*)** %vtable, i64 24, !dbg !2182
  %6 = load %"class.xalanc_1_10::XalanDOMString"* (%"class.xalanc_1_10::XalanSourceTreeAttr"*)*, %"class.xalanc_1_10::XalanDOMString"* (%"class.xalanc_1_10::XalanSourceTreeAttr"*)** %vfn, align 8, !dbg !2182
  %call = call dereferenceable(40) %"class.xalanc_1_10::XalanDOMString"* %6(%"class.xalanc_1_10::XalanSourceTreeAttr"* %4), !dbg !2182
  %7 = load %"class.xalanc_1_10::XalanDOMString"*, %"class.xalanc_1_10::XalanDOMString"** %localName.addr, align 8, !dbg !2183
  %call2 = call zeroext i1 @_ZN11xalanc_1_10eqERKNS_14XalanDOMStringES2_(%"class.xalanc_1_10::XalanDOMString"* dereferenceable(40) %call, %"class.xalanc_1_10::XalanDOMString"* dereferenceable(40) %7), !dbg !2184
  br i1 %call2, label %land.lhs.true, label %if.end, !dbg !2185

land.lhs.true:                                    ; preds = %for.body
  %m_attributes3 = getelementptr inbounds %"class.xalanc_1_10::XalanSourceTreeElementA", %"class.xalanc_1_10::XalanSourceTreeElementA"* %this1, i32 0, i32 2, !dbg !2186
  %8 = load %"class.xalanc_1_10::XalanSourceTreeAttr"**, %"class.xalanc_1_10::XalanSourceTreeAttr"*** %m_attributes3, align 8, !dbg !2186
  %9 = load i32, i32* %i, align 4, !dbg !2187
  %idxprom4 = zext i32 %9 to i64, !dbg !2186
  %arrayidx5 = getelementptr inbounds %"class.xalanc_1_10::XalanSourceTreeAttr"*, %"class.xalanc_1_10::XalanSourceTreeAttr"** %8, i64 %idxprom4, !dbg !2186
  %10 = load %"class.xalanc_1_10::XalanSourceTreeAttr"*, %"class.xalanc_1_10::XalanSourceTreeAttr"** %arrayidx5, align 8, !dbg !2186
  %11 = bitcast %"class.xalanc_1_10::XalanSourceTreeAttr"* %10 to %"class.xalanc_1_10::XalanDOMString"* (%"class.xalanc_1_10::XalanSourceTreeAttr"*)***, !dbg !2188
  %vtable6 = load %"class.xalanc_1_10::XalanDOMString"* (%"class.xalanc_1_10::XalanSourceTreeAttr"*)**, %"class.xalanc_1_10::XalanDOMString"* (%"class.xalanc_1_10::XalanSourceTreeAttr"*)*** %11, align 8, !dbg !2188
  %vfn7 = getelementptr inbounds %"class.xalanc_1_10::XalanDOMString"* (%"class.xalanc_1_10::XalanSourceTreeAttr"*)*, %"class.xalanc_1_10::XalanDOMString"* (%"class.xalanc_1_10::XalanSourceTreeAttr"*)** %vtable6, i64 22, !dbg !2188
  %12 = load %"class.xalanc_1_10::XalanDOMString"* (%"class.xalanc_1_10::XalanSourceTreeAttr"*)*, %"class.xalanc_1_10::XalanDOMString"* (%"class.xalanc_1_10::XalanSourceTreeAttr"*)** %vfn7, align 8, !dbg !2188
  %call8 = call dereferenceable(40) %"class.xalanc_1_10::XalanDOMString"* %12(%"class.xalanc_1_10::XalanSourceTreeAttr"* %10), !dbg !2188
  %13 = load %"class.xalanc_1_10::XalanDOMString"*, %"class.xalanc_1_10::XalanDOMString"** %namespaceURI.addr, align 8, !dbg !2189
  %call9 = call zeroext i1 @_ZN11xalanc_1_10eqERKNS_14XalanDOMStringES2_(%"class.xalanc_1_10::XalanDOMString"* dereferenceable(40) %call8, %"class.xalanc_1_10::XalanDOMString"* dereferenceable(40) %13), !dbg !2190
  br i1 %call9, label %if.then, label %if.end, !dbg !2191

if.then:                                          ; preds = %land.lhs.true
  %m_attributes10 = getelementptr inbounds %"class.xalanc_1_10::XalanSourceTreeElementA", %"class.xalanc_1_10::XalanSourceTreeElementA"* %this1, i32 0, i32 2, !dbg !2192
  %14 = load %"class.xalanc_1_10::XalanSourceTreeAttr"**, %"class.xalanc_1_10::XalanSourceTreeAttr"*** %m_attributes10, align 8, !dbg !2192
  %15 = load i32, i32* %i, align 4, !dbg !2194
  %idxprom11 = zext i32 %15 to i64, !dbg !2192
  %arrayidx12 = getelementptr inbounds %"class.xalanc_1_10::XalanSourceTreeAttr"*, %"class.xalanc_1_10::XalanSourceTreeAttr"** %14, i64 %idxprom11, !dbg !2192
  %16 = load %"class.xalanc_1_10::XalanSourceTreeAttr"*, %"class.xalanc_1_10::XalanSourceTreeAttr"** %arrayidx12, align 8, !dbg !2192
  %17 = bitcast %"class.xalanc_1_10::XalanSourceTreeAttr"* %16 to %"class.xalanc_1_10::XalanAttr"*, !dbg !2192
  store %"class.xalanc_1_10::XalanAttr"* %17, %"class.xalanc_1_10::XalanAttr"** %retval, align 8, !dbg !2195
  br label %return, !dbg !2195

if.end:                                           ; preds = %land.lhs.true, %for.body
  br label %for.inc, !dbg !2196

for.inc:                                          ; preds = %if.end
  %18 = load i32, i32* %i, align 4, !dbg !2197
  %inc = add i32 %18, 1, !dbg !2197
  store i32 %inc, i32* %i, align 4, !dbg !2197
  br label %for.cond, !dbg !2198, !llvm.loop !2199

for.end:                                          ; preds = %for.cond
  store %"class.xalanc_1_10::XalanAttr"* null, %"class.xalanc_1_10::XalanAttr"** %retval, align 8, !dbg !2201
  br label %return, !dbg !2201

return:                                           ; preds = %for.end, %if.then
  %19 = load %"class.xalanc_1_10::XalanAttr"*, %"class.xalanc_1_10::XalanAttr"** %retval, align 8, !dbg !2202
  ret %"class.xalanc_1_10::XalanAttr"* %19, !dbg !2202
}

; Function Attrs: noinline uwtable
define dso_local %"class.xalanc_1_10::XalanNode"* @_ZN11xalanc_1_1023XalanSourceTreeElementA12setNamedItemEPNS_9XalanNodeE(%"class.xalanc_1_10::XalanSourceTreeElementA"* %this, %"class.xalanc_1_10::XalanNode"* %0) unnamed_addr #0 align 2 personality i8* bitcast (i32 (...)* @__gxx_personality_v0 to i8*) !dbg !2203 {
entry:
  %this.addr = alloca %"class.xalanc_1_10::XalanSourceTreeElementA"*, align 8
  %.addr = alloca %"class.xalanc_1_10::XalanNode"*, align 8
  %exn.slot = alloca i8*
  %ehselector.slot = alloca i32
  store %"class.xalanc_1_10::XalanSourceTreeElementA"* %this, %"class.xalanc_1_10::XalanSourceTreeElementA"** %this.addr, align 8
  call void @llvm.dbg.declare(metadata %"class.xalanc_1_10::XalanSourceTreeElementA"** %this.addr, metadata !2204, metadata !DIExpression()), !dbg !2205
  store %"class.xalanc_1_10::XalanNode"* %0, %"class.xalanc_1_10::XalanNode"** %.addr, align 8
  call void @llvm.dbg.declare(metadata %"class.xalanc_1_10::XalanNode"** %.addr, metadata !2206, metadata !DIExpression()), !dbg !2207
  %this1 = load %"class.xalanc_1_10::XalanSourceTreeElementA"*, %"class.xalanc_1_10::XalanSourceTreeElementA"** %this.addr, align 8
  %exception = call i8* @__cxa_allocate_exception(i64 16) #3, !dbg !2208
  %1 = bitcast i8* %exception to %"class.xalanc_1_10::XalanDOMException"*, !dbg !2208
  invoke void @_ZN11xalanc_1_1017XalanDOMExceptionC1ENS0_13ExceptionCodeE(%"class.xalanc_1_10::XalanDOMException"* %1, i32 7)
          to label %invoke.cont unwind label %lpad, !dbg !2209

invoke.cont:                                      ; preds = %entry
  call void @__cxa_throw(i8* %exception, i8* bitcast (i8** @_ZTIN11xalanc_1_1017XalanDOMExceptionE to i8*), i8* bitcast (void (%"class.xalanc_1_10::XalanDOMException"*)* @_ZN11xalanc_1_1017XalanDOMExceptionD1Ev to i8*)) #11, !dbg !2208
  unreachable, !dbg !2208

lpad:                                             ; preds = %entry
  %2 = landingpad { i8*, i32 }
          cleanup, !dbg !2210
  %3 = extractvalue { i8*, i32 } %2, 0, !dbg !2210
  store i8* %3, i8** %exn.slot, align 8, !dbg !2210
  %4 = extractvalue { i8*, i32 } %2, 1, !dbg !2210
  store i32 %4, i32* %ehselector.slot, align 4, !dbg !2210
  call void @__cxa_free_exception(i8* %exception) #3, !dbg !2208
  br label %eh.resume, !dbg !2208

eh.resume:                                        ; preds = %lpad
  %exn = load i8*, i8** %exn.slot, align 8, !dbg !2208
  %sel = load i32, i32* %ehselector.slot, align 4, !dbg !2208
  %lpad.val = insertvalue { i8*, i32 } undef, i8* %exn, 0, !dbg !2208
  %lpad.val2 = insertvalue { i8*, i32 } %lpad.val, i32 %sel, 1, !dbg !2208
  resume { i8*, i32 } %lpad.val2, !dbg !2208
}

; Function Attrs: noinline uwtable
define dso_local %"class.xalanc_1_10::XalanNode"* @_ZThn72_N11xalanc_1_1023XalanSourceTreeElementA12setNamedItemEPNS_9XalanNodeE(%"class.xalanc_1_10::XalanSourceTreeElementA"* %this, %"class.xalanc_1_10::XalanNode"* %0) unnamed_addr #0 align 2 !dbg !2211 {
entry:
  %this.addr = alloca %"class.xalanc_1_10::XalanSourceTreeElementA"*, align 8
  %.addr = alloca %"class.xalanc_1_10::XalanNode"*, align 8
  store %"class.xalanc_1_10::XalanSourceTreeElementA"* %this, %"class.xalanc_1_10::XalanSourceTreeElementA"** %this.addr, align 8
  store %"class.xalanc_1_10::XalanNode"* %0, %"class.xalanc_1_10::XalanNode"** %.addr, align 8
  %this1 = load %"class.xalanc_1_10::XalanSourceTreeElementA"*, %"class.xalanc_1_10::XalanSourceTreeElementA"** %this.addr, align 8, !dbg !2212
  %1 = bitcast %"class.xalanc_1_10::XalanSourceTreeElementA"* %this1 to i8*, !dbg !2212
  %2 = getelementptr inbounds i8, i8* %1, i64 -72, !dbg !2212
  %3 = bitcast i8* %2 to %"class.xalanc_1_10::XalanSourceTreeElementA"*, !dbg !2212
  %4 = load %"class.xalanc_1_10::XalanNode"*, %"class.xalanc_1_10::XalanNode"** %.addr, align 8, !dbg !2212
  %call = tail call %"class.xalanc_1_10::XalanNode"* @_ZN11xalanc_1_1023XalanSourceTreeElementA12setNamedItemEPNS_9XalanNodeE(%"class.xalanc_1_10::XalanSourceTreeElementA"* %3, %"class.xalanc_1_10::XalanNode"* %4), !dbg !2212
  ret %"class.xalanc_1_10::XalanNode"* %call, !dbg !2212
}

; Function Attrs: noinline nounwind uwtable
define dso_local %"class.xalanc_1_10::XalanNode"* @_ZNK11xalanc_1_1023XalanSourceTreeElementA4itemEj(%"class.xalanc_1_10::XalanSourceTreeElementA"* %this, i32 %index) unnamed_addr #2 align 2 !dbg !2213 {
entry:
  %this.addr = alloca %"class.xalanc_1_10::XalanSourceTreeElementA"*, align 8
  %index.addr = alloca i32, align 4
  store %"class.xalanc_1_10::XalanSourceTreeElementA"* %this, %"class.xalanc_1_10::XalanSourceTreeElementA"** %this.addr, align 8
  call void @llvm.dbg.declare(metadata %"class.xalanc_1_10::XalanSourceTreeElementA"** %this.addr, metadata !2214, metadata !DIExpression()), !dbg !2215
  store i32 %index, i32* %index.addr, align 4
  call void @llvm.dbg.declare(metadata i32* %index.addr, metadata !2216, metadata !DIExpression()), !dbg !2217
  %this1 = load %"class.xalanc_1_10::XalanSourceTreeElementA"*, %"class.xalanc_1_10::XalanSourceTreeElementA"** %this.addr, align 8
  %0 = load i32, i32* %index.addr, align 4, !dbg !2218
  %conv = zext i32 %0 to i64, !dbg !2218
  %m_attributeCount = getelementptr inbounds %"class.xalanc_1_10::XalanSourceTreeElementA", %"class.xalanc_1_10::XalanSourceTreeElementA"* %this1, i32 0, i32 3, !dbg !2219
  %1 = load i64, i64* %m_attributeCount, align 8, !dbg !2219
  %cmp = icmp ult i64 %conv, %1, !dbg !2220
  br i1 %cmp, label %cond.true, label %cond.false, !dbg !2218

cond.true:                                        ; preds = %entry
  %m_attributes = getelementptr inbounds %"class.xalanc_1_10::XalanSourceTreeElementA", %"class.xalanc_1_10::XalanSourceTreeElementA"* %this1, i32 0, i32 2, !dbg !2221
  %2 = load %"class.xalanc_1_10::XalanSourceTreeAttr"**, %"class.xalanc_1_10::XalanSourceTreeAttr"*** %m_attributes, align 8, !dbg !2221
  %3 = load i32, i32* %index.addr, align 4, !dbg !2222
  %idxprom = zext i32 %3 to i64, !dbg !2221
  %arrayidx = getelementptr inbounds %"class.xalanc_1_10::XalanSourceTreeAttr"*, %"class.xalanc_1_10::XalanSourceTreeAttr"** %2, i64 %idxprom, !dbg !2221
  %4 = load %"class.xalanc_1_10::XalanSourceTreeAttr"*, %"class.xalanc_1_10::XalanSourceTreeAttr"** %arrayidx, align 8, !dbg !2221
  br label %cond.end, !dbg !2218

cond.false:                                       ; preds = %entry
  br label %cond.end, !dbg !2218

cond.end:                                         ; preds = %cond.false, %cond.true
  %cond = phi %"class.xalanc_1_10::XalanSourceTreeAttr"* [ %4, %cond.true ], [ null, %cond.false ], !dbg !2218
  %5 = bitcast %"class.xalanc_1_10::XalanSourceTreeAttr"* %cond to %"class.xalanc_1_10::XalanNode"*, !dbg !2218
  ret %"class.xalanc_1_10::XalanNode"* %5, !dbg !2223
}

; Function Attrs: noinline uwtable
define dso_local %"class.xalanc_1_10::XalanNode"* @_ZThn72_NK11xalanc_1_1023XalanSourceTreeElementA4itemEj(%"class.xalanc_1_10::XalanSourceTreeElementA"* %this, i32 %index) unnamed_addr #0 align 2 !dbg !2224 {
entry:
  %this.addr = alloca %"class.xalanc_1_10::XalanSourceTreeElementA"*, align 8
  %index.addr = alloca i32, align 4
  store %"class.xalanc_1_10::XalanSourceTreeElementA"* %this, %"class.xalanc_1_10::XalanSourceTreeElementA"** %this.addr, align 8
  store i32 %index, i32* %index.addr, align 4
  %this1 = load %"class.xalanc_1_10::XalanSourceTreeElementA"*, %"class.xalanc_1_10::XalanSourceTreeElementA"** %this.addr, align 8, !dbg !2225
  %0 = bitcast %"class.xalanc_1_10::XalanSourceTreeElementA"* %this1 to i8*, !dbg !2225
  %1 = getelementptr inbounds i8, i8* %0, i64 -72, !dbg !2225
  %2 = bitcast i8* %1 to %"class.xalanc_1_10::XalanSourceTreeElementA"*, !dbg !2225
  %3 = load i32, i32* %index.addr, align 4, !dbg !2225
  %call = tail call %"class.xalanc_1_10::XalanNode"* @_ZNK11xalanc_1_1023XalanSourceTreeElementA4itemEj(%"class.xalanc_1_10::XalanSourceTreeElementA"* %2, i32 %3), !dbg !2225
  ret %"class.xalanc_1_10::XalanNode"* %call, !dbg !2225
}

; Function Attrs: noinline uwtable
define dso_local %"class.xalanc_1_10::XalanNode"* @_ZNK11xalanc_1_1023XalanSourceTreeElementA12getNamedItemERKNS_14XalanDOMStringE(%"class.xalanc_1_10::XalanSourceTreeElementA"* %this, %"class.xalanc_1_10::XalanDOMString"* dereferenceable(40) %name) unnamed_addr #0 align 2 !dbg !2226 {
entry:
  %this.addr = alloca %"class.xalanc_1_10::XalanSourceTreeElementA"*, align 8
  %name.addr = alloca %"class.xalanc_1_10::XalanDOMString"*, align 8
  store %"class.xalanc_1_10::XalanSourceTreeElementA"* %this, %"class.xalanc_1_10::XalanSourceTreeElementA"** %this.addr, align 8
  call void @llvm.dbg.declare(metadata %"class.xalanc_1_10::XalanSourceTreeElementA"** %this.addr, metadata !2227, metadata !DIExpression()), !dbg !2228
  store %"class.xalanc_1_10::XalanDOMString"* %name, %"class.xalanc_1_10::XalanDOMString"** %name.addr, align 8
  call void @llvm.dbg.declare(metadata %"class.xalanc_1_10::XalanDOMString"** %name.addr, metadata !2229, metadata !DIExpression()), !dbg !2230
  %this1 = load %"class.xalanc_1_10::XalanSourceTreeElementA"*, %"class.xalanc_1_10::XalanSourceTreeElementA"** %this.addr, align 8
  %0 = load %"class.xalanc_1_10::XalanDOMString"*, %"class.xalanc_1_10::XalanDOMString"** %name.addr, align 8, !dbg !2231
  %1 = bitcast %"class.xalanc_1_10::XalanSourceTreeElementA"* %this1 to %"class.xalanc_1_10::XalanAttr"* (%"class.xalanc_1_10::XalanSourceTreeElementA"*, %"class.xalanc_1_10::XalanDOMString"*)***, !dbg !2232
  %vtable = load %"class.xalanc_1_10::XalanAttr"* (%"class.xalanc_1_10::XalanSourceTreeElementA"*, %"class.xalanc_1_10::XalanDOMString"*)**, %"class.xalanc_1_10::XalanAttr"* (%"class.xalanc_1_10::XalanSourceTreeElementA"*, %"class.xalanc_1_10::XalanDOMString"*)*** %1, align 8, !dbg !2232
  %vfn = getelementptr inbounds %"class.xalanc_1_10::XalanAttr"* (%"class.xalanc_1_10::XalanSourceTreeElementA"*, %"class.xalanc_1_10::XalanDOMString"*)*, %"class.xalanc_1_10::XalanAttr"* (%"class.xalanc_1_10::XalanSourceTreeElementA"*, %"class.xalanc_1_10::XalanDOMString"*)** %vtable, i64 30, !dbg !2232
  %2 = load %"class.xalanc_1_10::XalanAttr"* (%"class.xalanc_1_10::XalanSourceTreeElementA"*, %"class.xalanc_1_10::XalanDOMString"*)*, %"class.xalanc_1_10::XalanAttr"* (%"class.xalanc_1_10::XalanSourceTreeElementA"*, %"class.xalanc_1_10::XalanDOMString"*)** %vfn, align 8, !dbg !2232
  %call = call %"class.xalanc_1_10::XalanAttr"* %2(%"class.xalanc_1_10::XalanSourceTreeElementA"* %this1, %"class.xalanc_1_10::XalanDOMString"* dereferenceable(40) %0), !dbg !2232
  %3 = bitcast %"class.xalanc_1_10::XalanAttr"* %call to %"class.xalanc_1_10::XalanNode"*, !dbg !2232
  ret %"class.xalanc_1_10::XalanNode"* %3, !dbg !2233
}

; Function Attrs: noinline uwtable
define dso_local %"class.xalanc_1_10::XalanNode"* @_ZThn72_NK11xalanc_1_1023XalanSourceTreeElementA12getNamedItemERKNS_14XalanDOMStringE(%"class.xalanc_1_10::XalanSourceTreeElementA"* %this, %"class.xalanc_1_10::XalanDOMString"* dereferenceable(40) %name) unnamed_addr #0 align 2 !dbg !2234 {
entry:
  %this.addr = alloca %"class.xalanc_1_10::XalanSourceTreeElementA"*, align 8
  %name.addr = alloca %"class.xalanc_1_10::XalanDOMString"*, align 8
  store %"class.xalanc_1_10::XalanSourceTreeElementA"* %this, %"class.xalanc_1_10::XalanSourceTreeElementA"** %this.addr, align 8
  store %"class.xalanc_1_10::XalanDOMString"* %name, %"class.xalanc_1_10::XalanDOMString"** %name.addr, align 8
  %this1 = load %"class.xalanc_1_10::XalanSourceTreeElementA"*, %"class.xalanc_1_10::XalanSourceTreeElementA"** %this.addr, align 8, !dbg !2235
  %0 = bitcast %"class.xalanc_1_10::XalanSourceTreeElementA"* %this1 to i8*, !dbg !2235
  %1 = getelementptr inbounds i8, i8* %0, i64 -72, !dbg !2235
  %2 = bitcast i8* %1 to %"class.xalanc_1_10::XalanSourceTreeElementA"*, !dbg !2235
  %3 = load %"class.xalanc_1_10::XalanDOMString"*, %"class.xalanc_1_10::XalanDOMString"** %name.addr, align 8, !dbg !2235
  %call = tail call %"class.xalanc_1_10::XalanNode"* @_ZNK11xalanc_1_1023XalanSourceTreeElementA12getNamedItemERKNS_14XalanDOMStringE(%"class.xalanc_1_10::XalanSourceTreeElementA"* %2, %"class.xalanc_1_10::XalanDOMString"* dereferenceable(40) %3), !dbg !2235
  ret %"class.xalanc_1_10::XalanNode"* %call, !dbg !2235
}

; Function Attrs: noinline nounwind uwtable
define dso_local i32 @_ZNK11xalanc_1_1023XalanSourceTreeElementA9getLengthEv(%"class.xalanc_1_10::XalanSourceTreeElementA"* %this) unnamed_addr #2 align 2 !dbg !2236 {
entry:
  %this.addr = alloca %"class.xalanc_1_10::XalanSourceTreeElementA"*, align 8
  store %"class.xalanc_1_10::XalanSourceTreeElementA"* %this, %"class.xalanc_1_10::XalanSourceTreeElementA"** %this.addr, align 8
  call void @llvm.dbg.declare(metadata %"class.xalanc_1_10::XalanSourceTreeElementA"** %this.addr, metadata !2237, metadata !DIExpression()), !dbg !2238
  %this1 = load %"class.xalanc_1_10::XalanSourceTreeElementA"*, %"class.xalanc_1_10::XalanSourceTreeElementA"** %this.addr, align 8
  %m_attributeCount = getelementptr inbounds %"class.xalanc_1_10::XalanSourceTreeElementA", %"class.xalanc_1_10::XalanSourceTreeElementA"* %this1, i32 0, i32 3, !dbg !2239
  %0 = load i64, i64* %m_attributeCount, align 8, !dbg !2239
  %conv = trunc i64 %0 to i32, !dbg !2239
  ret i32 %conv, !dbg !2240
}

; Function Attrs: noinline uwtable
define dso_local i32 @_ZThn72_NK11xalanc_1_1023XalanSourceTreeElementA9getLengthEv(%"class.xalanc_1_10::XalanSourceTreeElementA"* %this) unnamed_addr #0 align 2 !dbg !2241 {
entry:
  %this.addr = alloca %"class.xalanc_1_10::XalanSourceTreeElementA"*, align 8
  store %"class.xalanc_1_10::XalanSourceTreeElementA"* %this, %"class.xalanc_1_10::XalanSourceTreeElementA"** %this.addr, align 8
  %this1 = load %"class.xalanc_1_10::XalanSourceTreeElementA"*, %"class.xalanc_1_10::XalanSourceTreeElementA"** %this.addr, align 8, !dbg !2242
  %0 = bitcast %"class.xalanc_1_10::XalanSourceTreeElementA"* %this1 to i8*, !dbg !2242
  %1 = getelementptr inbounds i8, i8* %0, i64 -72, !dbg !2242
  %2 = bitcast i8* %1 to %"class.xalanc_1_10::XalanSourceTreeElementA"*, !dbg !2242
  %call = tail call i32 @_ZNK11xalanc_1_1023XalanSourceTreeElementA9getLengthEv(%"class.xalanc_1_10::XalanSourceTreeElementA"* %2), !dbg !2242
  ret i32 %call, !dbg !2242
}

; Function Attrs: noinline uwtable
define dso_local %"class.xalanc_1_10::XalanNode"* @_ZN11xalanc_1_1023XalanSourceTreeElementA15removeNamedItemERKNS_14XalanDOMStringE(%"class.xalanc_1_10::XalanSourceTreeElementA"* %this, %"class.xalanc_1_10::XalanDOMString"* dereferenceable(40) %0) unnamed_addr #0 align 2 personality i8* bitcast (i32 (...)* @__gxx_personality_v0 to i8*) !dbg !2243 {
entry:
  %this.addr = alloca %"class.xalanc_1_10::XalanSourceTreeElementA"*, align 8
  %.addr = alloca %"class.xalanc_1_10::XalanDOMString"*, align 8
  %exn.slot = alloca i8*
  %ehselector.slot = alloca i32
  store %"class.xalanc_1_10::XalanSourceTreeElementA"* %this, %"class.xalanc_1_10::XalanSourceTreeElementA"** %this.addr, align 8
  call void @llvm.dbg.declare(metadata %"class.xalanc_1_10::XalanSourceTreeElementA"** %this.addr, metadata !2244, metadata !DIExpression()), !dbg !2245
  store %"class.xalanc_1_10::XalanDOMString"* %0, %"class.xalanc_1_10::XalanDOMString"** %.addr, align 8
  call void @llvm.dbg.declare(metadata %"class.xalanc_1_10::XalanDOMString"** %.addr, metadata !2246, metadata !DIExpression()), !dbg !2247
  %this1 = load %"class.xalanc_1_10::XalanSourceTreeElementA"*, %"class.xalanc_1_10::XalanSourceTreeElementA"** %this.addr, align 8
  %exception = call i8* @__cxa_allocate_exception(i64 16) #3, !dbg !2248
  %1 = bitcast i8* %exception to %"class.xalanc_1_10::XalanDOMException"*, !dbg !2248
  invoke void @_ZN11xalanc_1_1017XalanDOMExceptionC1ENS0_13ExceptionCodeE(%"class.xalanc_1_10::XalanDOMException"* %1, i32 7)
          to label %invoke.cont unwind label %lpad, !dbg !2249

invoke.cont:                                      ; preds = %entry
  call void @__cxa_throw(i8* %exception, i8* bitcast (i8** @_ZTIN11xalanc_1_1017XalanDOMExceptionE to i8*), i8* bitcast (void (%"class.xalanc_1_10::XalanDOMException"*)* @_ZN11xalanc_1_1017XalanDOMExceptionD1Ev to i8*)) #11, !dbg !2248
  unreachable, !dbg !2248

lpad:                                             ; preds = %entry
  %2 = landingpad { i8*, i32 }
          cleanup, !dbg !2250
  %3 = extractvalue { i8*, i32 } %2, 0, !dbg !2250
  store i8* %3, i8** %exn.slot, align 8, !dbg !2250
  %4 = extractvalue { i8*, i32 } %2, 1, !dbg !2250
  store i32 %4, i32* %ehselector.slot, align 4, !dbg !2250
  call void @__cxa_free_exception(i8* %exception) #3, !dbg !2248
  br label %eh.resume, !dbg !2248

eh.resume:                                        ; preds = %lpad
  %exn = load i8*, i8** %exn.slot, align 8, !dbg !2248
  %sel = load i32, i32* %ehselector.slot, align 4, !dbg !2248
  %lpad.val = insertvalue { i8*, i32 } undef, i8* %exn, 0, !dbg !2248
  %lpad.val2 = insertvalue { i8*, i32 } %lpad.val, i32 %sel, 1, !dbg !2248
  resume { i8*, i32 } %lpad.val2, !dbg !2248
}

; Function Attrs: noinline uwtable
define dso_local %"class.xalanc_1_10::XalanNode"* @_ZThn72_N11xalanc_1_1023XalanSourceTreeElementA15removeNamedItemERKNS_14XalanDOMStringE(%"class.xalanc_1_10::XalanSourceTreeElementA"* %this, %"class.xalanc_1_10::XalanDOMString"* dereferenceable(40) %0) unnamed_addr #0 align 2 !dbg !2251 {
entry:
  %this.addr = alloca %"class.xalanc_1_10::XalanSourceTreeElementA"*, align 8
  %.addr = alloca %"class.xalanc_1_10::XalanDOMString"*, align 8
  store %"class.xalanc_1_10::XalanSourceTreeElementA"* %this, %"class.xalanc_1_10::XalanSourceTreeElementA"** %this.addr, align 8
  store %"class.xalanc_1_10::XalanDOMString"* %0, %"class.xalanc_1_10::XalanDOMString"** %.addr, align 8
  %this1 = load %"class.xalanc_1_10::XalanSourceTreeElementA"*, %"class.xalanc_1_10::XalanSourceTreeElementA"** %this.addr, align 8, !dbg !2252
  %1 = bitcast %"class.xalanc_1_10::XalanSourceTreeElementA"* %this1 to i8*, !dbg !2252
  %2 = getelementptr inbounds i8, i8* %1, i64 -72, !dbg !2252
  %3 = bitcast i8* %2 to %"class.xalanc_1_10::XalanSourceTreeElementA"*, !dbg !2252
  %4 = load %"class.xalanc_1_10::XalanDOMString"*, %"class.xalanc_1_10::XalanDOMString"** %.addr, align 8, !dbg !2252
  %call = tail call %"class.xalanc_1_10::XalanNode"* @_ZN11xalanc_1_1023XalanSourceTreeElementA15removeNamedItemERKNS_14XalanDOMStringE(%"class.xalanc_1_10::XalanSourceTreeElementA"* %3, %"class.xalanc_1_10::XalanDOMString"* dereferenceable(40) %4), !dbg !2252
  ret %"class.xalanc_1_10::XalanNode"* %call, !dbg !2252
}

; Function Attrs: noinline uwtable
define dso_local %"class.xalanc_1_10::XalanNode"* @_ZNK11xalanc_1_1023XalanSourceTreeElementA14getNamedItemNSERKNS_14XalanDOMStringES3_(%"class.xalanc_1_10::XalanSourceTreeElementA"* %this, %"class.xalanc_1_10::XalanDOMString"* dereferenceable(40) %namespaceURI, %"class.xalanc_1_10::XalanDOMString"* dereferenceable(40) %localName) unnamed_addr #0 align 2 !dbg !2253 {
entry:
  %this.addr = alloca %"class.xalanc_1_10::XalanSourceTreeElementA"*, align 8
  %namespaceURI.addr = alloca %"class.xalanc_1_10::XalanDOMString"*, align 8
  %localName.addr = alloca %"class.xalanc_1_10::XalanDOMString"*, align 8
  store %"class.xalanc_1_10::XalanSourceTreeElementA"* %this, %"class.xalanc_1_10::XalanSourceTreeElementA"** %this.addr, align 8
  call void @llvm.dbg.declare(metadata %"class.xalanc_1_10::XalanSourceTreeElementA"** %this.addr, metadata !2254, metadata !DIExpression()), !dbg !2255
  store %"class.xalanc_1_10::XalanDOMString"* %namespaceURI, %"class.xalanc_1_10::XalanDOMString"** %namespaceURI.addr, align 8
  call void @llvm.dbg.declare(metadata %"class.xalanc_1_10::XalanDOMString"** %namespaceURI.addr, metadata !2256, metadata !DIExpression()), !dbg !2257
  store %"class.xalanc_1_10::XalanDOMString"* %localName, %"class.xalanc_1_10::XalanDOMString"** %localName.addr, align 8
  call void @llvm.dbg.declare(metadata %"class.xalanc_1_10::XalanDOMString"** %localName.addr, metadata !2258, metadata !DIExpression()), !dbg !2259
  %this1 = load %"class.xalanc_1_10::XalanSourceTreeElementA"*, %"class.xalanc_1_10::XalanSourceTreeElementA"** %this.addr, align 8
  %0 = load %"class.xalanc_1_10::XalanDOMString"*, %"class.xalanc_1_10::XalanDOMString"** %namespaceURI.addr, align 8, !dbg !2260
  %1 = load %"class.xalanc_1_10::XalanDOMString"*, %"class.xalanc_1_10::XalanDOMString"** %localName.addr, align 8, !dbg !2261
  %2 = bitcast %"class.xalanc_1_10::XalanSourceTreeElementA"* %this1 to %"class.xalanc_1_10::XalanAttr"* (%"class.xalanc_1_10::XalanSourceTreeElementA"*, %"class.xalanc_1_10::XalanDOMString"*, %"class.xalanc_1_10::XalanDOMString"*)***, !dbg !2262
  %vtable = load %"class.xalanc_1_10::XalanAttr"* (%"class.xalanc_1_10::XalanSourceTreeElementA"*, %"class.xalanc_1_10::XalanDOMString"*, %"class.xalanc_1_10::XalanDOMString"*)**, %"class.xalanc_1_10::XalanAttr"* (%"class.xalanc_1_10::XalanSourceTreeElementA"*, %"class.xalanc_1_10::XalanDOMString"*, %"class.xalanc_1_10::XalanDOMString"*)*** %2, align 8, !dbg !2262
  %vfn = getelementptr inbounds %"class.xalanc_1_10::XalanAttr"* (%"class.xalanc_1_10::XalanSourceTreeElementA"*, %"class.xalanc_1_10::XalanDOMString"*, %"class.xalanc_1_10::XalanDOMString"*)*, %"class.xalanc_1_10::XalanAttr"* (%"class.xalanc_1_10::XalanSourceTreeElementA"*, %"class.xalanc_1_10::XalanDOMString"*, %"class.xalanc_1_10::XalanDOMString"*)** %vtable, i64 39, !dbg !2262
  %3 = load %"class.xalanc_1_10::XalanAttr"* (%"class.xalanc_1_10::XalanSourceTreeElementA"*, %"class.xalanc_1_10::XalanDOMString"*, %"class.xalanc_1_10::XalanDOMString"*)*, %"class.xalanc_1_10::XalanAttr"* (%"class.xalanc_1_10::XalanSourceTreeElementA"*, %"class.xalanc_1_10::XalanDOMString"*, %"class.xalanc_1_10::XalanDOMString"*)** %vfn, align 8, !dbg !2262
  %call = call %"class.xalanc_1_10::XalanAttr"* %3(%"class.xalanc_1_10::XalanSourceTreeElementA"* %this1, %"class.xalanc_1_10::XalanDOMString"* dereferenceable(40) %0, %"class.xalanc_1_10::XalanDOMString"* dereferenceable(40) %1), !dbg !2262
  %4 = bitcast %"class.xalanc_1_10::XalanAttr"* %call to %"class.xalanc_1_10::XalanNode"*, !dbg !2262
  ret %"class.xalanc_1_10::XalanNode"* %4, !dbg !2263
}

; Function Attrs: noinline uwtable
define dso_local %"class.xalanc_1_10::XalanNode"* @_ZThn72_NK11xalanc_1_1023XalanSourceTreeElementA14getNamedItemNSERKNS_14XalanDOMStringES3_(%"class.xalanc_1_10::XalanSourceTreeElementA"* %this, %"class.xalanc_1_10::XalanDOMString"* dereferenceable(40) %namespaceURI, %"class.xalanc_1_10::XalanDOMString"* dereferenceable(40) %localName) unnamed_addr #0 align 2 !dbg !2264 {
entry:
  %this.addr = alloca %"class.xalanc_1_10::XalanSourceTreeElementA"*, align 8
  %namespaceURI.addr = alloca %"class.xalanc_1_10::XalanDOMString"*, align 8
  %localName.addr = alloca %"class.xalanc_1_10::XalanDOMString"*, align 8
  store %"class.xalanc_1_10::XalanSourceTreeElementA"* %this, %"class.xalanc_1_10::XalanSourceTreeElementA"** %this.addr, align 8
  store %"class.xalanc_1_10::XalanDOMString"* %namespaceURI, %"class.xalanc_1_10::XalanDOMString"** %namespaceURI.addr, align 8
  store %"class.xalanc_1_10::XalanDOMString"* %localName, %"class.xalanc_1_10::XalanDOMString"** %localName.addr, align 8
  %this1 = load %"class.xalanc_1_10::XalanSourceTreeElementA"*, %"class.xalanc_1_10::XalanSourceTreeElementA"** %this.addr, align 8, !dbg !2265
  %0 = bitcast %"class.xalanc_1_10::XalanSourceTreeElementA"* %this1 to i8*, !dbg !2265
  %1 = getelementptr inbounds i8, i8* %0, i64 -72, !dbg !2265
  %2 = bitcast i8* %1 to %"class.xalanc_1_10::XalanSourceTreeElementA"*, !dbg !2265
  %3 = load %"class.xalanc_1_10::XalanDOMString"*, %"class.xalanc_1_10::XalanDOMString"** %namespaceURI.addr, align 8, !dbg !2265
  %4 = load %"class.xalanc_1_10::XalanDOMString"*, %"class.xalanc_1_10::XalanDOMString"** %localName.addr, align 8, !dbg !2265
  %call = tail call %"class.xalanc_1_10::XalanNode"* @_ZNK11xalanc_1_1023XalanSourceTreeElementA14getNamedItemNSERKNS_14XalanDOMStringES3_(%"class.xalanc_1_10::XalanSourceTreeElementA"* %2, %"class.xalanc_1_10::XalanDOMString"* dereferenceable(40) %3, %"class.xalanc_1_10::XalanDOMString"* dereferenceable(40) %4), !dbg !2265
  ret %"class.xalanc_1_10::XalanNode"* %call, !dbg !2265
}

; Function Attrs: noinline uwtable
define dso_local %"class.xalanc_1_10::XalanNode"* @_ZN11xalanc_1_1023XalanSourceTreeElementA14setNamedItemNSEPNS_9XalanNodeE(%"class.xalanc_1_10::XalanSourceTreeElementA"* %this, %"class.xalanc_1_10::XalanNode"* %0) unnamed_addr #0 align 2 personality i8* bitcast (i32 (...)* @__gxx_personality_v0 to i8*) !dbg !2266 {
entry:
  %this.addr = alloca %"class.xalanc_1_10::XalanSourceTreeElementA"*, align 8
  %.addr = alloca %"class.xalanc_1_10::XalanNode"*, align 8
  %exn.slot = alloca i8*
  %ehselector.slot = alloca i32
  store %"class.xalanc_1_10::XalanSourceTreeElementA"* %this, %"class.xalanc_1_10::XalanSourceTreeElementA"** %this.addr, align 8
  call void @llvm.dbg.declare(metadata %"class.xalanc_1_10::XalanSourceTreeElementA"** %this.addr, metadata !2267, metadata !DIExpression()), !dbg !2268
  store %"class.xalanc_1_10::XalanNode"* %0, %"class.xalanc_1_10::XalanNode"** %.addr, align 8
  call void @llvm.dbg.declare(metadata %"class.xalanc_1_10::XalanNode"** %.addr, metadata !2269, metadata !DIExpression()), !dbg !2270
  %this1 = load %"class.xalanc_1_10::XalanSourceTreeElementA"*, %"class.xalanc_1_10::XalanSourceTreeElementA"** %this.addr, align 8
  %exception = call i8* @__cxa_allocate_exception(i64 16) #3, !dbg !2271
  %1 = bitcast i8* %exception to %"class.xalanc_1_10::XalanDOMException"*, !dbg !2271
  invoke void @_ZN11xalanc_1_1017XalanDOMExceptionC1ENS0_13ExceptionCodeE(%"class.xalanc_1_10::XalanDOMException"* %1, i32 7)
          to label %invoke.cont unwind label %lpad, !dbg !2272

invoke.cont:                                      ; preds = %entry
  call void @__cxa_throw(i8* %exception, i8* bitcast (i8** @_ZTIN11xalanc_1_1017XalanDOMExceptionE to i8*), i8* bitcast (void (%"class.xalanc_1_10::XalanDOMException"*)* @_ZN11xalanc_1_1017XalanDOMExceptionD1Ev to i8*)) #11, !dbg !2271
  unreachable, !dbg !2271

lpad:                                             ; preds = %entry
  %2 = landingpad { i8*, i32 }
          cleanup, !dbg !2273
  %3 = extractvalue { i8*, i32 } %2, 0, !dbg !2273
  store i8* %3, i8** %exn.slot, align 8, !dbg !2273
  %4 = extractvalue { i8*, i32 } %2, 1, !dbg !2273
  store i32 %4, i32* %ehselector.slot, align 4, !dbg !2273
  call void @__cxa_free_exception(i8* %exception) #3, !dbg !2271
  br label %eh.resume, !dbg !2271

eh.resume:                                        ; preds = %lpad
  %exn = load i8*, i8** %exn.slot, align 8, !dbg !2271
  %sel = load i32, i32* %ehselector.slot, align 4, !dbg !2271
  %lpad.val = insertvalue { i8*, i32 } undef, i8* %exn, 0, !dbg !2271
  %lpad.val2 = insertvalue { i8*, i32 } %lpad.val, i32 %sel, 1, !dbg !2271
  resume { i8*, i32 } %lpad.val2, !dbg !2271
}

; Function Attrs: noinline uwtable
define dso_local %"class.xalanc_1_10::XalanNode"* @_ZThn72_N11xalanc_1_1023XalanSourceTreeElementA14setNamedItemNSEPNS_9XalanNodeE(%"class.xalanc_1_10::XalanSourceTreeElementA"* %this, %"class.xalanc_1_10::XalanNode"* %0) unnamed_addr #0 align 2 !dbg !2274 {
entry:
  %this.addr = alloca %"class.xalanc_1_10::XalanSourceTreeElementA"*, align 8
  %.addr = alloca %"class.xalanc_1_10::XalanNode"*, align 8
  store %"class.xalanc_1_10::XalanSourceTreeElementA"* %this, %"class.xalanc_1_10::XalanSourceTreeElementA"** %this.addr, align 8
  store %"class.xalanc_1_10::XalanNode"* %0, %"class.xalanc_1_10::XalanNode"** %.addr, align 8
  %this1 = load %"class.xalanc_1_10::XalanSourceTreeElementA"*, %"class.xalanc_1_10::XalanSourceTreeElementA"** %this.addr, align 8, !dbg !2275
  %1 = bitcast %"class.xalanc_1_10::XalanSourceTreeElementA"* %this1 to i8*, !dbg !2275
  %2 = getelementptr inbounds i8, i8* %1, i64 -72, !dbg !2275
  %3 = bitcast i8* %2 to %"class.xalanc_1_10::XalanSourceTreeElementA"*, !dbg !2275
  %4 = load %"class.xalanc_1_10::XalanNode"*, %"class.xalanc_1_10::XalanNode"** %.addr, align 8, !dbg !2275
  %call = tail call %"class.xalanc_1_10::XalanNode"* @_ZN11xalanc_1_1023XalanSourceTreeElementA14setNamedItemNSEPNS_9XalanNodeE(%"class.xalanc_1_10::XalanSourceTreeElementA"* %3, %"class.xalanc_1_10::XalanNode"* %4), !dbg !2275
  ret %"class.xalanc_1_10::XalanNode"* %call, !dbg !2275
}

; Function Attrs: noinline uwtable
define dso_local %"class.xalanc_1_10::XalanNode"* @_ZN11xalanc_1_1023XalanSourceTreeElementA17removeNamedItemNSERKNS_14XalanDOMStringES3_(%"class.xalanc_1_10::XalanSourceTreeElementA"* %this, %"class.xalanc_1_10::XalanDOMString"* dereferenceable(40) %0, %"class.xalanc_1_10::XalanDOMString"* dereferenceable(40) %1) unnamed_addr #0 align 2 personality i8* bitcast (i32 (...)* @__gxx_personality_v0 to i8*) !dbg !2276 {
entry:
  %this.addr = alloca %"class.xalanc_1_10::XalanSourceTreeElementA"*, align 8
  %.addr = alloca %"class.xalanc_1_10::XalanDOMString"*, align 8
  %.addr1 = alloca %"class.xalanc_1_10::XalanDOMString"*, align 8
  %exn.slot = alloca i8*
  %ehselector.slot = alloca i32
  store %"class.xalanc_1_10::XalanSourceTreeElementA"* %this, %"class.xalanc_1_10::XalanSourceTreeElementA"** %this.addr, align 8
  call void @llvm.dbg.declare(metadata %"class.xalanc_1_10::XalanSourceTreeElementA"** %this.addr, metadata !2277, metadata !DIExpression()), !dbg !2278
  store %"class.xalanc_1_10::XalanDOMString"* %0, %"class.xalanc_1_10::XalanDOMString"** %.addr, align 8
  call void @llvm.dbg.declare(metadata %"class.xalanc_1_10::XalanDOMString"** %.addr, metadata !2279, metadata !DIExpression()), !dbg !2280
  store %"class.xalanc_1_10::XalanDOMString"* %1, %"class.xalanc_1_10::XalanDOMString"** %.addr1, align 8
  call void @llvm.dbg.declare(metadata %"class.xalanc_1_10::XalanDOMString"** %.addr1, metadata !2281, metadata !DIExpression()), !dbg !2282
  %this2 = load %"class.xalanc_1_10::XalanSourceTreeElementA"*, %"class.xalanc_1_10::XalanSourceTreeElementA"** %this.addr, align 8
  %exception = call i8* @__cxa_allocate_exception(i64 16) #3, !dbg !2283
  %2 = bitcast i8* %exception to %"class.xalanc_1_10::XalanDOMException"*, !dbg !2283
  invoke void @_ZN11xalanc_1_1017XalanDOMExceptionC1ENS0_13ExceptionCodeE(%"class.xalanc_1_10::XalanDOMException"* %2, i32 7)
          to label %invoke.cont unwind label %lpad, !dbg !2284

invoke.cont:                                      ; preds = %entry
  call void @__cxa_throw(i8* %exception, i8* bitcast (i8** @_ZTIN11xalanc_1_1017XalanDOMExceptionE to i8*), i8* bitcast (void (%"class.xalanc_1_10::XalanDOMException"*)* @_ZN11xalanc_1_1017XalanDOMExceptionD1Ev to i8*)) #11, !dbg !2283
  unreachable, !dbg !2283

lpad:                                             ; preds = %entry
  %3 = landingpad { i8*, i32 }
          cleanup, !dbg !2285
  %4 = extractvalue { i8*, i32 } %3, 0, !dbg !2285
  store i8* %4, i8** %exn.slot, align 8, !dbg !2285
  %5 = extractvalue { i8*, i32 } %3, 1, !dbg !2285
  store i32 %5, i32* %ehselector.slot, align 4, !dbg !2285
  call void @__cxa_free_exception(i8* %exception) #3, !dbg !2283
  br label %eh.resume, !dbg !2283

eh.resume:                                        ; preds = %lpad
  %exn = load i8*, i8** %exn.slot, align 8, !dbg !2283
  %sel = load i32, i32* %ehselector.slot, align 4, !dbg !2283
  %lpad.val = insertvalue { i8*, i32 } undef, i8* %exn, 0, !dbg !2283
  %lpad.val3 = insertvalue { i8*, i32 } %lpad.val, i32 %sel, 1, !dbg !2283
  resume { i8*, i32 } %lpad.val3, !dbg !2283
}

; Function Attrs: noinline uwtable
define dso_local %"class.xalanc_1_10::XalanNode"* @_ZThn72_N11xalanc_1_1023XalanSourceTreeElementA17removeNamedItemNSERKNS_14XalanDOMStringES3_(%"class.xalanc_1_10::XalanSourceTreeElementA"* %this, %"class.xalanc_1_10::XalanDOMString"* dereferenceable(40) %0, %"class.xalanc_1_10::XalanDOMString"* dereferenceable(40) %1) unnamed_addr #0 align 2 !dbg !2286 {
entry:
  %this.addr = alloca %"class.xalanc_1_10::XalanSourceTreeElementA"*, align 8
  %.addr = alloca %"class.xalanc_1_10::XalanDOMString"*, align 8
  %.addr1 = alloca %"class.xalanc_1_10::XalanDOMString"*, align 8
  store %"class.xalanc_1_10::XalanSourceTreeElementA"* %this, %"class.xalanc_1_10::XalanSourceTreeElementA"** %this.addr, align 8
  store %"class.xalanc_1_10::XalanDOMString"* %0, %"class.xalanc_1_10::XalanDOMString"** %.addr, align 8
  store %"class.xalanc_1_10::XalanDOMString"* %1, %"class.xalanc_1_10::XalanDOMString"** %.addr1, align 8
  %this2 = load %"class.xalanc_1_10::XalanSourceTreeElementA"*, %"class.xalanc_1_10::XalanSourceTreeElementA"** %this.addr, align 8, !dbg !2287
  %2 = bitcast %"class.xalanc_1_10::XalanSourceTreeElementA"* %this2 to i8*, !dbg !2287
  %3 = getelementptr inbounds i8, i8* %2, i64 -72, !dbg !2287
  %4 = bitcast i8* %3 to %"class.xalanc_1_10::XalanSourceTreeElementA"*, !dbg !2287
  %5 = load %"class.xalanc_1_10::XalanDOMString"*, %"class.xalanc_1_10::XalanDOMString"** %.addr, align 8, !dbg !2287
  %6 = load %"class.xalanc_1_10::XalanDOMString"*, %"class.xalanc_1_10::XalanDOMString"** %.addr1, align 8, !dbg !2287
  %call = tail call %"class.xalanc_1_10::XalanNode"* @_ZN11xalanc_1_1023XalanSourceTreeElementA17removeNamedItemNSERKNS_14XalanDOMStringES3_(%"class.xalanc_1_10::XalanSourceTreeElementA"* %4, %"class.xalanc_1_10::XalanDOMString"* dereferenceable(40) %5, %"class.xalanc_1_10::XalanDOMString"* dereferenceable(40) %6), !dbg !2287
  ret %"class.xalanc_1_10::XalanNode"* %call, !dbg !2287
}

declare dso_local dereferenceable(40) %"class.xalanc_1_10::XalanDOMString"* @_ZNK11xalanc_1_1022XalanSourceTreeElement11getNodeNameEv(%"class.xalanc_1_10::XalanSourceTreeElement"*) unnamed_addr #1

declare dso_local dereferenceable(40) %"class.xalanc_1_10::XalanDOMString"* @_ZNK11xalanc_1_1022XalanSourceTreeElement12getNodeValueEv(%"class.xalanc_1_10::XalanSourceTreeElement"*) unnamed_addr #1

declare dso_local i32 @_ZNK11xalanc_1_1022XalanSourceTreeElement11getNodeTypeEv(%"class.xalanc_1_10::XalanSourceTreeElement"*) unnamed_addr #1

declare dso_local %"class.xalanc_1_10::XalanNode"* @_ZNK11xalanc_1_1022XalanSourceTreeElement13getParentNodeEv(%"class.xalanc_1_10::XalanSourceTreeElement"*) unnamed_addr #1

declare dso_local %"class.xalanc_1_10::XalanNodeList"* @_ZNK11xalanc_1_1022XalanSourceTreeElement13getChildNodesEv(%"class.xalanc_1_10::XalanSourceTreeElement"*) unnamed_addr #1

declare dso_local %"class.xalanc_1_10::XalanNode"* @_ZNK11xalanc_1_1022XalanSourceTreeElement13getFirstChildEv(%"class.xalanc_1_10::XalanSourceTreeElement"*) unnamed_addr #1

declare dso_local %"class.xalanc_1_10::XalanNode"* @_ZNK11xalanc_1_1022XalanSourceTreeElement12getLastChildEv(%"class.xalanc_1_10::XalanSourceTreeElement"*) unnamed_addr #1

declare dso_local %"class.xalanc_1_10::XalanNode"* @_ZNK11xalanc_1_1022XalanSourceTreeElement18getPreviousSiblingEv(%"class.xalanc_1_10::XalanSourceTreeElement"*) unnamed_addr #1

declare dso_local %"class.xalanc_1_10::XalanNode"* @_ZNK11xalanc_1_1022XalanSourceTreeElement14getNextSiblingEv(%"class.xalanc_1_10::XalanSourceTreeElement"*) unnamed_addr #1

declare dso_local %"class.xalanc_1_10::XalanDocument"* @_ZNK11xalanc_1_1022XalanSourceTreeElement16getOwnerDocumentEv(%"class.xalanc_1_10::XalanSourceTreeElement"*) unnamed_addr #1

declare dso_local %"class.xalanc_1_10::XalanNode"* @_ZN11xalanc_1_1022XalanSourceTreeElement12insertBeforeEPNS_9XalanNodeES2_(%"class.xalanc_1_10::XalanSourceTreeElement"*, %"class.xalanc_1_10::XalanNode"*, %"class.xalanc_1_10::XalanNode"*) unnamed_addr #1

declare dso_local %"class.xalanc_1_10::XalanNode"* @_ZN11xalanc_1_1022XalanSourceTreeElement12replaceChildEPNS_9XalanNodeES2_(%"class.xalanc_1_10::XalanSourceTreeElement"*, %"class.xalanc_1_10::XalanNode"*, %"class.xalanc_1_10::XalanNode"*) unnamed_addr #1

declare dso_local %"class.xalanc_1_10::XalanNode"* @_ZN11xalanc_1_1022XalanSourceTreeElement11removeChildEPNS_9XalanNodeE(%"class.xalanc_1_10::XalanSourceTreeElement"*, %"class.xalanc_1_10::XalanNode"*) unnamed_addr #1

declare dso_local %"class.xalanc_1_10::XalanNode"* @_ZN11xalanc_1_1022XalanSourceTreeElement11appendChildEPNS_9XalanNodeE(%"class.xalanc_1_10::XalanSourceTreeElement"*, %"class.xalanc_1_10::XalanNode"*) unnamed_addr #1

declare dso_local zeroext i1 @_ZNK11xalanc_1_1022XalanSourceTreeElement13hasChildNodesEv(%"class.xalanc_1_10::XalanSourceTreeElement"*) unnamed_addr #1

declare dso_local void @_ZN11xalanc_1_1022XalanSourceTreeElement12setNodeValueERKNS_14XalanDOMStringE(%"class.xalanc_1_10::XalanSourceTreeElement"*, %"class.xalanc_1_10::XalanDOMString"* dereferenceable(40)) unnamed_addr #1

declare dso_local void @_ZN11xalanc_1_1022XalanSourceTreeElement9normalizeEv(%"class.xalanc_1_10::XalanSourceTreeElement"*) unnamed_addr #1

declare dso_local zeroext i1 @_ZNK11xalanc_1_1022XalanSourceTreeElement11isSupportedERKNS_14XalanDOMStringES3_(%"class.xalanc_1_10::XalanSourceTreeElement"*, %"class.xalanc_1_10::XalanDOMString"* dereferenceable(40), %"class.xalanc_1_10::XalanDOMString"* dereferenceable(40)) unnamed_addr #1

declare dso_local void @_ZN11xalanc_1_1022XalanSourceTreeElement9setPrefixERKNS_14XalanDOMStringE(%"class.xalanc_1_10::XalanSourceTreeElement"*, %"class.xalanc_1_10::XalanDOMString"* dereferenceable(40)) unnamed_addr #1

declare dso_local zeroext i1 @_ZNK11xalanc_1_1022XalanSourceTreeElement9isIndexedEv(%"class.xalanc_1_10::XalanSourceTreeElement"*) unnamed_addr #1

declare dso_local i64 @_ZNK11xalanc_1_1022XalanSourceTreeElement8getIndexEv(%"class.xalanc_1_10::XalanSourceTreeElement"*) unnamed_addr #1

declare dso_local dereferenceable(40) %"class.xalanc_1_10::XalanDOMString"* @_ZNK11xalanc_1_1022XalanSourceTreeElement10getTagNameEv(%"class.xalanc_1_10::XalanSourceTreeElement"*) unnamed_addr #1

declare dso_local %"class.xalanc_1_10::XalanNodeList"* @_ZNK11xalanc_1_1022XalanSourceTreeElement20getElementsByTagNameERKNS_14XalanDOMStringE(%"class.xalanc_1_10::XalanSourceTreeElement"*, %"class.xalanc_1_10::XalanDOMString"* dereferenceable(40)) unnamed_addr #1

declare dso_local void @_ZN11xalanc_1_1022XalanSourceTreeElement12setAttributeERKNS_14XalanDOMStringES3_(%"class.xalanc_1_10::XalanSourceTreeElement"*, %"class.xalanc_1_10::XalanDOMString"* dereferenceable(40), %"class.xalanc_1_10::XalanDOMString"* dereferenceable(40)) unnamed_addr #1

declare dso_local %"class.xalanc_1_10::XalanAttr"* @_ZN11xalanc_1_1022XalanSourceTreeElement16setAttributeNodeEPNS_9XalanAttrE(%"class.xalanc_1_10::XalanSourceTreeElement"*, %"class.xalanc_1_10::XalanAttr"*) unnamed_addr #1

declare dso_local %"class.xalanc_1_10::XalanAttr"* @_ZN11xalanc_1_1022XalanSourceTreeElement19removeAttributeNodeEPNS_9XalanAttrE(%"class.xalanc_1_10::XalanSourceTreeElement"*, %"class.xalanc_1_10::XalanAttr"*) unnamed_addr #1

declare dso_local void @_ZN11xalanc_1_1022XalanSourceTreeElement15removeAttributeERKNS_14XalanDOMStringE(%"class.xalanc_1_10::XalanSourceTreeElement"*, %"class.xalanc_1_10::XalanDOMString"* dereferenceable(40)) unnamed_addr #1

declare dso_local void @_ZN11xalanc_1_1022XalanSourceTreeElement14setAttributeNSERKNS_14XalanDOMStringES3_S3_(%"class.xalanc_1_10::XalanSourceTreeElement"*, %"class.xalanc_1_10::XalanDOMString"* dereferenceable(40), %"class.xalanc_1_10::XalanDOMString"* dereferenceable(40), %"class.xalanc_1_10::XalanDOMString"* dereferenceable(40)) unnamed_addr #1

declare dso_local void @_ZN11xalanc_1_1022XalanSourceTreeElement17removeAttributeNSERKNS_14XalanDOMStringES3_(%"class.xalanc_1_10::XalanSourceTreeElement"*, %"class.xalanc_1_10::XalanDOMString"* dereferenceable(40), %"class.xalanc_1_10::XalanDOMString"* dereferenceable(40)) unnamed_addr #1

declare dso_local %"class.xalanc_1_10::XalanAttr"* @_ZN11xalanc_1_1022XalanSourceTreeElement18setAttributeNodeNSEPNS_9XalanAttrE(%"class.xalanc_1_10::XalanSourceTreeElement"*, %"class.xalanc_1_10::XalanAttr"*) unnamed_addr #1

declare dso_local %"class.xalanc_1_10::XalanNodeList"* @_ZNK11xalanc_1_1022XalanSourceTreeElement22getElementsByTagNameNSERKNS_14XalanDOMStringES3_(%"class.xalanc_1_10::XalanSourceTreeElement"*, %"class.xalanc_1_10::XalanDOMString"* dereferenceable(40), %"class.xalanc_1_10::XalanDOMString"* dereferenceable(40)) unnamed_addr #1

; Function Attrs: noinline nounwind uwtable
define linkonce_odr dso_local void @_ZN11xalanc_1_1011XalanVectorItNS_31MemoryManagedConstructionTraitsItEEED2Ev(%"class.xalanc_1_10::XalanVector"* %this) unnamed_addr #2 comdat align 2 personality i8* bitcast (i32 (...)* @__gxx_personality_v0 to i8*) !dbg !2288 {
entry:
  %this.addr = alloca %"class.xalanc_1_10::XalanVector"*, align 8
  store %"class.xalanc_1_10::XalanVector"* %this, %"class.xalanc_1_10::XalanVector"** %this.addr, align 8
  call void @llvm.dbg.declare(metadata %"class.xalanc_1_10::XalanVector"** %this.addr, metadata !2289, metadata !DIExpression()), !dbg !2290
  %this1 = load %"class.xalanc_1_10::XalanVector"*, %"class.xalanc_1_10::XalanVector"** %this.addr, align 8
  invoke void @_ZNK11xalanc_1_1011XalanVectorItNS_31MemoryManagedConstructionTraitsItEEE10invariantsEv(%"class.xalanc_1_10::XalanVector"* %this1)
          to label %invoke.cont unwind label %terminate.lpad, !dbg !2291

invoke.cont:                                      ; preds = %entry
  %m_allocation = getelementptr inbounds %"class.xalanc_1_10::XalanVector", %"class.xalanc_1_10::XalanVector"* %this1, i32 0, i32 2, !dbg !2293
  %0 = load i64, i64* %m_allocation, align 8, !dbg !2293
  %cmp = icmp ne i64 %0, 0, !dbg !2295
  br i1 %cmp, label %if.then, label %if.end, !dbg !2296

if.then:                                          ; preds = %invoke.cont
  %call = invoke i16* @_ZN11xalanc_1_1011XalanVectorItNS_31MemoryManagedConstructionTraitsItEEE5beginEv(%"class.xalanc_1_10::XalanVector"* %this1)
          to label %invoke.cont2 unwind label %terminate.lpad, !dbg !2297

invoke.cont2:                                     ; preds = %if.then
  %call4 = invoke i16* @_ZN11xalanc_1_1011XalanVectorItNS_31MemoryManagedConstructionTraitsItEEE3endEv(%"class.xalanc_1_10::XalanVector"* %this1)
          to label %invoke.cont3 unwind label %terminate.lpad, !dbg !2299

invoke.cont3:                                     ; preds = %invoke.cont2
  invoke void @_ZN11xalanc_1_1011XalanVectorItNS_31MemoryManagedConstructionTraitsItEEE7destroyEPtS4_(i16* %call, i16* %call4)
          to label %invoke.cont5 unwind label %terminate.lpad, !dbg !2300

invoke.cont5:                                     ; preds = %invoke.cont3
  %m_data = getelementptr inbounds %"class.xalanc_1_10::XalanVector", %"class.xalanc_1_10::XalanVector"* %this1, i32 0, i32 3, !dbg !2301
  %1 = load i16*, i16** %m_data, align 8, !dbg !2301
  invoke void @_ZN11xalanc_1_1011XalanVectorItNS_31MemoryManagedConstructionTraitsItEEE10deallocateEPt(%"class.xalanc_1_10::XalanVector"* %this1, i16* %1)
          to label %invoke.cont6 unwind label %terminate.lpad, !dbg !2302

invoke.cont6:                                     ; preds = %invoke.cont5
  br label %if.end, !dbg !2303

if.end:                                           ; preds = %invoke.cont6, %invoke.cont
  ret void, !dbg !2304

terminate.lpad:                                   ; preds = %invoke.cont5, %invoke.cont3, %invoke.cont2, %if.then, %entry
  %2 = landingpad { i8*, i32 }
          catch i8* null, !dbg !2291
  %3 = extractvalue { i8*, i32 } %2, 0, !dbg !2291
  call void @__clang_call_terminate(i8* %3) #10, !dbg !2291
  unreachable, !dbg !2291
}

; Function Attrs: noinline nounwind uwtable
define linkonce_odr dso_local void @_ZNK11xalanc_1_1011XalanVectorItNS_31MemoryManagedConstructionTraitsItEEE10invariantsEv(%"class.xalanc_1_10::XalanVector"* %this) #2 comdat align 2 !dbg !2305 {
entry:
  %this.addr = alloca %"class.xalanc_1_10::XalanVector"*, align 8
  store %"class.xalanc_1_10::XalanVector"* %this, %"class.xalanc_1_10::XalanVector"** %this.addr, align 8
  call void @llvm.dbg.declare(metadata %"class.xalanc_1_10::XalanVector"** %this.addr, metadata !2306, metadata !DIExpression()), !dbg !2308
  %this1 = load %"class.xalanc_1_10::XalanVector"*, %"class.xalanc_1_10::XalanVector"** %this.addr, align 8
  ret void, !dbg !2309
}

; Function Attrs: noinline noreturn nounwind
define linkonce_odr hidden void @__clang_call_terminate(i8* %0) #7 comdat {
  %2 = call i8* @__cxa_begin_catch(i8* %0) #3
  call void @_ZSt9terminatev() #10
  unreachable
}

declare dso_local i8* @__cxa_begin_catch(i8*)

declare dso_local void @_ZSt9terminatev()

; Function Attrs: noinline uwtable
define linkonce_odr dso_local void @_ZN11xalanc_1_1011XalanVectorItNS_31MemoryManagedConstructionTraitsItEEE7destroyEPtS4_(i16* %theFirst, i16* %theLast) #0 comdat align 2 !dbg !2310 {
entry:
  %theFirst.addr = alloca i16*, align 8
  %theLast.addr = alloca i16*, align 8
  store i16* %theFirst, i16** %theFirst.addr, align 8
  call void @llvm.dbg.declare(metadata i16** %theFirst.addr, metadata !2311, metadata !DIExpression()), !dbg !2312
  store i16* %theLast, i16** %theLast.addr, align 8
  call void @llvm.dbg.declare(metadata i16** %theLast.addr, metadata !2313, metadata !DIExpression()), !dbg !2314
  br label %for.cond, !dbg !2315

for.cond:                                         ; preds = %for.inc, %entry
  %0 = load i16*, i16** %theFirst.addr, align 8, !dbg !2316
  %1 = load i16*, i16** %theLast.addr, align 8, !dbg !2319
  %cmp = icmp ne i16* %0, %1, !dbg !2320
  br i1 %cmp, label %for.body, label %for.end, !dbg !2321

for.body:                                         ; preds = %for.cond
  %2 = load i16*, i16** %theFirst.addr, align 8, !dbg !2322
  call void @_ZN11xalanc_1_1011XalanVectorItNS_31MemoryManagedConstructionTraitsItEEE7destroyERt(i16* dereferenceable(2) %2), !dbg !2324
  br label %for.inc, !dbg !2325

for.inc:                                          ; preds = %for.body
  %3 = load i16*, i16** %theFirst.addr, align 8, !dbg !2326
  %incdec.ptr = getelementptr inbounds i16, i16* %3, i32 1, !dbg !2326
  store i16* %incdec.ptr, i16** %theFirst.addr, align 8, !dbg !2326
  br label %for.cond, !dbg !2327, !llvm.loop !2328

for.end:                                          ; preds = %for.cond
  ret void, !dbg !2330
}

; Function Attrs: noinline nounwind uwtable
define linkonce_odr dso_local i16* @_ZN11xalanc_1_1011XalanVectorItNS_31MemoryManagedConstructionTraitsItEEE5beginEv(%"class.xalanc_1_10::XalanVector"* %this) #2 comdat align 2 !dbg !2331 {
entry:
  %this.addr = alloca %"class.xalanc_1_10::XalanVector"*, align 8
  store %"class.xalanc_1_10::XalanVector"* %this, %"class.xalanc_1_10::XalanVector"** %this.addr, align 8
  call void @llvm.dbg.declare(metadata %"class.xalanc_1_10::XalanVector"** %this.addr, metadata !2332, metadata !DIExpression()), !dbg !2333
  %this1 = load %"class.xalanc_1_10::XalanVector"*, %"class.xalanc_1_10::XalanVector"** %this.addr, align 8
  call void @_ZNK11xalanc_1_1011XalanVectorItNS_31MemoryManagedConstructionTraitsItEEE10invariantsEv(%"class.xalanc_1_10::XalanVector"* %this1), !dbg !2334
  %m_data = getelementptr inbounds %"class.xalanc_1_10::XalanVector", %"class.xalanc_1_10::XalanVector"* %this1, i32 0, i32 3, !dbg !2335
  %0 = load i16*, i16** %m_data, align 8, !dbg !2335
  ret i16* %0, !dbg !2336
}

; Function Attrs: noinline uwtable
define linkonce_odr dso_local i16* @_ZN11xalanc_1_1011XalanVectorItNS_31MemoryManagedConstructionTraitsItEEE3endEv(%"class.xalanc_1_10::XalanVector"* %this) #0 comdat align 2 !dbg !2337 {
entry:
  %this.addr = alloca %"class.xalanc_1_10::XalanVector"*, align 8
  store %"class.xalanc_1_10::XalanVector"* %this, %"class.xalanc_1_10::XalanVector"** %this.addr, align 8
  call void @llvm.dbg.declare(metadata %"class.xalanc_1_10::XalanVector"** %this.addr, metadata !2338, metadata !DIExpression()), !dbg !2339
  %this1 = load %"class.xalanc_1_10::XalanVector"*, %"class.xalanc_1_10::XalanVector"** %this.addr, align 8
  call void @_ZNK11xalanc_1_1011XalanVectorItNS_31MemoryManagedConstructionTraitsItEEE10invariantsEv(%"class.xalanc_1_10::XalanVector"* %this1), !dbg !2340
  %call = call i16* @_ZN11xalanc_1_1011XalanVectorItNS_31MemoryManagedConstructionTraitsItEEE10endPointerEv(%"class.xalanc_1_10::XalanVector"* %this1), !dbg !2341
  ret i16* %call, !dbg !2342
}

; Function Attrs: noinline uwtable
define linkonce_odr dso_local void @_ZN11xalanc_1_1011XalanVectorItNS_31MemoryManagedConstructionTraitsItEEE10deallocateEPt(%"class.xalanc_1_10::XalanVector"* %this, i16* %pointer) #0 comdat align 2 !dbg !2343 {
entry:
  %this.addr = alloca %"class.xalanc_1_10::XalanVector"*, align 8
  %pointer.addr = alloca i16*, align 8
  store %"class.xalanc_1_10::XalanVector"* %this, %"class.xalanc_1_10::XalanVector"** %this.addr, align 8
  call void @llvm.dbg.declare(metadata %"class.xalanc_1_10::XalanVector"** %this.addr, metadata !2344, metadata !DIExpression()), !dbg !2345
  store i16* %pointer, i16** %pointer.addr, align 8
  call void @llvm.dbg.declare(metadata i16** %pointer.addr, metadata !2346, metadata !DIExpression()), !dbg !2347
  %this1 = load %"class.xalanc_1_10::XalanVector"*, %"class.xalanc_1_10::XalanVector"** %this.addr, align 8
  %m_memoryManager = getelementptr inbounds %"class.xalanc_1_10::XalanVector", %"class.xalanc_1_10::XalanVector"* %this1, i32 0, i32 0, !dbg !2348
  %0 = load %"class.xercesc_2_7::MemoryManager"*, %"class.xercesc_2_7::MemoryManager"** %m_memoryManager, align 8, !dbg !2348
  %1 = load i16*, i16** %pointer.addr, align 8, !dbg !2349
  %2 = bitcast i16* %1 to i8*, !dbg !2349
  %3 = bitcast %"class.xercesc_2_7::MemoryManager"* %0 to void (%"class.xercesc_2_7::MemoryManager"*, i8*)***, !dbg !2350
  %vtable = load void (%"class.xercesc_2_7::MemoryManager"*, i8*)**, void (%"class.xercesc_2_7::MemoryManager"*, i8*)*** %3, align 8, !dbg !2350
  %vfn = getelementptr inbounds void (%"class.xercesc_2_7::MemoryManager"*, i8*)*, void (%"class.xercesc_2_7::MemoryManager"*, i8*)** %vtable, i64 3, !dbg !2350
  %4 = load void (%"class.xercesc_2_7::MemoryManager"*, i8*)*, void (%"class.xercesc_2_7::MemoryManager"*, i8*)** %vfn, align 8, !dbg !2350
  call void %4(%"class.xercesc_2_7::MemoryManager"* %0, i8* %2), !dbg !2350
  ret void, !dbg !2351
}

; Function Attrs: noinline nounwind uwtable
define linkonce_odr dso_local void @_ZN11xalanc_1_1011XalanVectorItNS_31MemoryManagedConstructionTraitsItEEE7destroyERt(i16* dereferenceable(2) %theValue) #2 comdat align 2 !dbg !2352 {
entry:
  %theValue.addr = alloca i16*, align 8
  store i16* %theValue, i16** %theValue.addr, align 8
  call void @llvm.dbg.declare(metadata i16** %theValue.addr, metadata !2353, metadata !DIExpression()), !dbg !2354
  %0 = load i16*, i16** %theValue.addr, align 8, !dbg !2355
  ret void, !dbg !2356
}

; Function Attrs: noinline nounwind uwtable
define linkonce_odr dso_local i16* @_ZN11xalanc_1_1011XalanVectorItNS_31MemoryManagedConstructionTraitsItEEE10endPointerEv(%"class.xalanc_1_10::XalanVector"* %this) #2 comdat align 2 !dbg !2357 {
entry:
  %this.addr = alloca %"class.xalanc_1_10::XalanVector"*, align 8
  store %"class.xalanc_1_10::XalanVector"* %this, %"class.xalanc_1_10::XalanVector"** %this.addr, align 8
  call void @llvm.dbg.declare(metadata %"class.xalanc_1_10::XalanVector"** %this.addr, metadata !2358, metadata !DIExpression()), !dbg !2359
  %this1 = load %"class.xalanc_1_10::XalanVector"*, %"class.xalanc_1_10::XalanVector"** %this.addr, align 8
  %m_data = getelementptr inbounds %"class.xalanc_1_10::XalanVector", %"class.xalanc_1_10::XalanVector"* %this1, i32 0, i32 3, !dbg !2360
  %0 = load i16*, i16** %m_data, align 8, !dbg !2360
  %m_size = getelementptr inbounds %"class.xalanc_1_10::XalanVector", %"class.xalanc_1_10::XalanVector"* %this1, i32 0, i32 1, !dbg !2361
  %1 = load i64, i64* %m_size, align 8, !dbg !2361
  %add.ptr = getelementptr inbounds i16, i16* %0, i64 %1, !dbg !2362
  ret i16* %add.ptr, !dbg !2363
}

declare dso_local zeroext i1 @_ZN11xalanc_1_1014XalanDOMString6equalsERKS0_S2_(%"class.xalanc_1_10::XalanDOMString"* dereferenceable(40), %"class.xalanc_1_10::XalanDOMString"* dereferenceable(40)) #1

; Function Attrs: noinline uwtable
define linkonce_odr dso_local void @_ZN11xalanc_1_1018XalanMemMgrAutoPtrINS_23XalanSourceTreeElementAELb0EE17MemMgrAutoPtrDataC2EPN11xercesc_2_713MemoryManagerEPS1_(%"class.xalanc_1_10::XalanMemMgrAutoPtr<xalanc_1_10::XalanSourceTreeElementA, false>::MemMgrAutoPtrData"* %this, %"class.xercesc_2_7::MemoryManager"* %memoryManager, %"class.xalanc_1_10::XalanSourceTreeElementA"* %dataPointer) unnamed_addr #0 comdat align 2 !dbg !2364 {
entry:
  %this.addr = alloca %"class.xalanc_1_10::XalanMemMgrAutoPtr<xalanc_1_10::XalanSourceTreeElementA, false>::MemMgrAutoPtrData"*, align 8
  %memoryManager.addr = alloca %"class.xercesc_2_7::MemoryManager"*, align 8
  %dataPointer.addr = alloca %"class.xalanc_1_10::XalanSourceTreeElementA"*, align 8
  store %"class.xalanc_1_10::XalanMemMgrAutoPtr<xalanc_1_10::XalanSourceTreeElementA, false>::MemMgrAutoPtrData"* %this, %"class.xalanc_1_10::XalanMemMgrAutoPtr<xalanc_1_10::XalanSourceTreeElementA, false>::MemMgrAutoPtrData"** %this.addr, align 8
  call void @llvm.dbg.declare(metadata %"class.xalanc_1_10::XalanMemMgrAutoPtr<xalanc_1_10::XalanSourceTreeElementA, false>::MemMgrAutoPtrData"** %this.addr, metadata !2365, metadata !DIExpression()), !dbg !2367
  store %"class.xercesc_2_7::MemoryManager"* %memoryManager, %"class.xercesc_2_7::MemoryManager"** %memoryManager.addr, align 8
  call void @llvm.dbg.declare(metadata %"class.xercesc_2_7::MemoryManager"** %memoryManager.addr, metadata !2368, metadata !DIExpression()), !dbg !2369
  store %"class.xalanc_1_10::XalanSourceTreeElementA"* %dataPointer, %"class.xalanc_1_10::XalanSourceTreeElementA"** %dataPointer.addr, align 8
  call void @llvm.dbg.declare(metadata %"class.xalanc_1_10::XalanSourceTreeElementA"** %dataPointer.addr, metadata !2370, metadata !DIExpression()), !dbg !2371
  %this1 = load %"class.xalanc_1_10::XalanMemMgrAutoPtr<xalanc_1_10::XalanSourceTreeElementA, false>::MemMgrAutoPtrData"*, %"class.xalanc_1_10::XalanMemMgrAutoPtr<xalanc_1_10::XalanSourceTreeElementA, false>::MemMgrAutoPtrData"** %this.addr, align 8
  %0 = bitcast %"class.xalanc_1_10::XalanMemMgrAutoPtr<xalanc_1_10::XalanSourceTreeElementA, false>::MemMgrAutoPtrData"* %this1 to %"struct.std::pair"*, !dbg !2372
  call void @_ZNSt4pairIPN11xercesc_2_713MemoryManagerEPN11xalanc_1_1023XalanSourceTreeElementAEEC2IRS2_RS5_Lb1EEEOT_OT0_(%"struct.std::pair"* %0, %"class.xercesc_2_7::MemoryManager"** dereferenceable(8) %memoryManager.addr, %"class.xalanc_1_10::XalanSourceTreeElementA"** dereferenceable(8) %dataPointer.addr), !dbg !2373
  call void @_ZNK11xalanc_1_1018XalanMemMgrAutoPtrINS_23XalanSourceTreeElementAELb0EE17MemMgrAutoPtrData10invariantsEv(%"class.xalanc_1_10::XalanMemMgrAutoPtr<xalanc_1_10::XalanSourceTreeElementA, false>::MemMgrAutoPtrData"* %this1), !dbg !2374
  ret void, !dbg !2376
}

; Function Attrs: noinline nounwind uwtable
define linkonce_odr dso_local void @_ZNSt4pairIPN11xercesc_2_713MemoryManagerEPN11xalanc_1_1023XalanSourceTreeElementAEEC2IRS2_RS5_Lb1EEEOT_OT0_(%"struct.std::pair"* %this, %"class.xercesc_2_7::MemoryManager"** dereferenceable(8) %__x, %"class.xalanc_1_10::XalanSourceTreeElementA"** dereferenceable(8) %__y) unnamed_addr #2 comdat align 2 !dbg !2377 {
entry:
  %this.addr = alloca %"struct.std::pair"*, align 8
  %__x.addr = alloca %"class.xercesc_2_7::MemoryManager"**, align 8
  %__y.addr = alloca %"class.xalanc_1_10::XalanSourceTreeElementA"**, align 8
  store %"struct.std::pair"* %this, %"struct.std::pair"** %this.addr, align 8
  call void @llvm.dbg.declare(metadata %"struct.std::pair"** %this.addr, metadata !2387, metadata !DIExpression()), !dbg !2389
  store %"class.xercesc_2_7::MemoryManager"** %__x, %"class.xercesc_2_7::MemoryManager"*** %__x.addr, align 8
  call void @llvm.dbg.declare(metadata %"class.xercesc_2_7::MemoryManager"*** %__x.addr, metadata !2390, metadata !DIExpression()), !dbg !2391
  store %"class.xalanc_1_10::XalanSourceTreeElementA"** %__y, %"class.xalanc_1_10::XalanSourceTreeElementA"*** %__y.addr, align 8
  call void @llvm.dbg.declare(metadata %"class.xalanc_1_10::XalanSourceTreeElementA"*** %__y.addr, metadata !2392, metadata !DIExpression()), !dbg !2393
  %this1 = load %"struct.std::pair"*, %"struct.std::pair"** %this.addr, align 8
  %0 = bitcast %"struct.std::pair"* %this1 to %"class.std::__pair_base"*, !dbg !2394
  %first = getelementptr inbounds %"struct.std::pair", %"struct.std::pair"* %this1, i32 0, i32 0, !dbg !2395
  %1 = load %"class.xercesc_2_7::MemoryManager"**, %"class.xercesc_2_7::MemoryManager"*** %__x.addr, align 8, !dbg !2396
  %call = call dereferenceable(8) %"class.xercesc_2_7::MemoryManager"** @_ZSt7forwardIRPN11xercesc_2_713MemoryManagerEEOT_RNSt16remove_referenceIS4_E4typeE(%"class.xercesc_2_7::MemoryManager"** dereferenceable(8) %1) #3, !dbg !2397
  %2 = load %"class.xercesc_2_7::MemoryManager"*, %"class.xercesc_2_7::MemoryManager"** %call, align 8, !dbg !2397
  store %"class.xercesc_2_7::MemoryManager"* %2, %"class.xercesc_2_7::MemoryManager"** %first, align 8, !dbg !2395
  %second = getelementptr inbounds %"struct.std::pair", %"struct.std::pair"* %this1, i32 0, i32 1, !dbg !2398
  %3 = load %"class.xalanc_1_10::XalanSourceTreeElementA"**, %"class.xalanc_1_10::XalanSourceTreeElementA"*** %__y.addr, align 8, !dbg !2399
  %call2 = call dereferenceable(8) %"class.xalanc_1_10::XalanSourceTreeElementA"** @_ZSt7forwardIRPN11xalanc_1_1023XalanSourceTreeElementAEEOT_RNSt16remove_referenceIS4_E4typeE(%"class.xalanc_1_10::XalanSourceTreeElementA"** dereferenceable(8) %3) #3, !dbg !2400
  %4 = load %"class.xalanc_1_10::XalanSourceTreeElementA"*, %"class.xalanc_1_10::XalanSourceTreeElementA"** %call2, align 8, !dbg !2400
  store %"class.xalanc_1_10::XalanSourceTreeElementA"* %4, %"class.xalanc_1_10::XalanSourceTreeElementA"** %second, align 8, !dbg !2398
  ret void, !dbg !2401
}

; Function Attrs: noinline nounwind uwtable
define linkonce_odr dso_local void @_ZNK11xalanc_1_1018XalanMemMgrAutoPtrINS_23XalanSourceTreeElementAELb0EE17MemMgrAutoPtrData10invariantsEv(%"class.xalanc_1_10::XalanMemMgrAutoPtr<xalanc_1_10::XalanSourceTreeElementA, false>::MemMgrAutoPtrData"* %this) #2 comdat align 2 !dbg !2402 {
entry:
  %this.addr = alloca %"class.xalanc_1_10::XalanMemMgrAutoPtr<xalanc_1_10::XalanSourceTreeElementA, false>::MemMgrAutoPtrData"*, align 8
  store %"class.xalanc_1_10::XalanMemMgrAutoPtr<xalanc_1_10::XalanSourceTreeElementA, false>::MemMgrAutoPtrData"* %this, %"class.xalanc_1_10::XalanMemMgrAutoPtr<xalanc_1_10::XalanSourceTreeElementA, false>::MemMgrAutoPtrData"** %this.addr, align 8
  call void @llvm.dbg.declare(metadata %"class.xalanc_1_10::XalanMemMgrAutoPtr<xalanc_1_10::XalanSourceTreeElementA, false>::MemMgrAutoPtrData"** %this.addr, metadata !2403, metadata !DIExpression()), !dbg !2405
  %this1 = load %"class.xalanc_1_10::XalanMemMgrAutoPtr<xalanc_1_10::XalanSourceTreeElementA, false>::MemMgrAutoPtrData"*, %"class.xalanc_1_10::XalanMemMgrAutoPtr<xalanc_1_10::XalanSourceTreeElementA, false>::MemMgrAutoPtrData"** %this.addr, align 8
  ret void, !dbg !2406
}

; Function Attrs: noinline nounwind uwtable
define linkonce_odr dso_local dereferenceable(8) %"class.xercesc_2_7::MemoryManager"** @_ZSt7forwardIRPN11xercesc_2_713MemoryManagerEEOT_RNSt16remove_referenceIS4_E4typeE(%"class.xercesc_2_7::MemoryManager"** dereferenceable(8) %__t) #2 comdat !dbg !2407 {
entry:
  %__t.addr = alloca %"class.xercesc_2_7::MemoryManager"**, align 8
  store %"class.xercesc_2_7::MemoryManager"** %__t, %"class.xercesc_2_7::MemoryManager"*** %__t.addr, align 8
  call void @llvm.dbg.declare(metadata %"class.xercesc_2_7::MemoryManager"*** %__t.addr, metadata !2416, metadata !DIExpression()), !dbg !2417
  %0 = load %"class.xercesc_2_7::MemoryManager"**, %"class.xercesc_2_7::MemoryManager"*** %__t.addr, align 8, !dbg !2418
  ret %"class.xercesc_2_7::MemoryManager"** %0, !dbg !2419
}

; Function Attrs: noinline nounwind uwtable
define linkonce_odr dso_local dereferenceable(8) %"class.xalanc_1_10::XalanSourceTreeElementA"** @_ZSt7forwardIRPN11xalanc_1_1023XalanSourceTreeElementAEEOT_RNSt16remove_referenceIS4_E4typeE(%"class.xalanc_1_10::XalanSourceTreeElementA"** dereferenceable(8) %__t) #2 comdat !dbg !2420 {
entry:
  %__t.addr = alloca %"class.xalanc_1_10::XalanSourceTreeElementA"**, align 8
  store %"class.xalanc_1_10::XalanSourceTreeElementA"** %__t, %"class.xalanc_1_10::XalanSourceTreeElementA"*** %__t.addr, align 8
  call void @llvm.dbg.declare(metadata %"class.xalanc_1_10::XalanSourceTreeElementA"*** %__t.addr, metadata !2428, metadata !DIExpression()), !dbg !2429
  %0 = load %"class.xalanc_1_10::XalanSourceTreeElementA"**, %"class.xalanc_1_10::XalanSourceTreeElementA"*** %__t.addr, align 8, !dbg !2430
  ret %"class.xalanc_1_10::XalanSourceTreeElementA"** %0, !dbg !2431
}

; Function Attrs: noinline uwtable
define linkonce_odr dso_local void @_ZN11xalanc_1_1018XalanMemMgrAutoPtrINS_23XalanSourceTreeElementAELb0EE17MemMgrAutoPtrData10deallocateEv(%"class.xalanc_1_10::XalanMemMgrAutoPtr<xalanc_1_10::XalanSourceTreeElementA, false>::MemMgrAutoPtrData"* %this) #0 comdat align 2 !dbg !2432 {
entry:
  %this.addr = alloca %"class.xalanc_1_10::XalanMemMgrAutoPtr<xalanc_1_10::XalanSourceTreeElementA, false>::MemMgrAutoPtrData"*, align 8
  store %"class.xalanc_1_10::XalanMemMgrAutoPtr<xalanc_1_10::XalanSourceTreeElementA, false>::MemMgrAutoPtrData"* %this, %"class.xalanc_1_10::XalanMemMgrAutoPtr<xalanc_1_10::XalanSourceTreeElementA, false>::MemMgrAutoPtrData"** %this.addr, align 8
  call void @llvm.dbg.declare(metadata %"class.xalanc_1_10::XalanMemMgrAutoPtr<xalanc_1_10::XalanSourceTreeElementA, false>::MemMgrAutoPtrData"** %this.addr, metadata !2433, metadata !DIExpression()), !dbg !2434
  %this1 = load %"class.xalanc_1_10::XalanMemMgrAutoPtr<xalanc_1_10::XalanSourceTreeElementA, false>::MemMgrAutoPtrData"*, %"class.xalanc_1_10::XalanMemMgrAutoPtr<xalanc_1_10::XalanSourceTreeElementA, false>::MemMgrAutoPtrData"** %this.addr, align 8
  call void @_ZNK11xalanc_1_1018XalanMemMgrAutoPtrINS_23XalanSourceTreeElementAELb0EE17MemMgrAutoPtrData10invariantsEv(%"class.xalanc_1_10::XalanMemMgrAutoPtr<xalanc_1_10::XalanSourceTreeElementA, false>::MemMgrAutoPtrData"* %this1), !dbg !2435
  %call = call zeroext i1 @_ZNK11xalanc_1_1018XalanMemMgrAutoPtrINS_23XalanSourceTreeElementAELb0EE17MemMgrAutoPtrData12isInitilizedEv(%"class.xalanc_1_10::XalanMemMgrAutoPtr<xalanc_1_10::XalanSourceTreeElementA, false>::MemMgrAutoPtrData"* %this1), !dbg !2436
  br i1 %call, label %if.then, label %if.end, !dbg !2438

if.then:                                          ; preds = %entry
  %0 = bitcast %"class.xalanc_1_10::XalanMemMgrAutoPtr<xalanc_1_10::XalanSourceTreeElementA, false>::MemMgrAutoPtrData"* %this1 to %"struct.std::pair"*, !dbg !2439
  %first = getelementptr inbounds %"struct.std::pair", %"struct.std::pair"* %0, i32 0, i32 0, !dbg !2439
  %1 = load %"class.xercesc_2_7::MemoryManager"*, %"class.xercesc_2_7::MemoryManager"** %first, align 8, !dbg !2439
  %2 = bitcast %"class.xalanc_1_10::XalanMemMgrAutoPtr<xalanc_1_10::XalanSourceTreeElementA, false>::MemMgrAutoPtrData"* %this1 to %"struct.std::pair"*, !dbg !2441
  %second = getelementptr inbounds %"struct.std::pair", %"struct.std::pair"* %2, i32 0, i32 1, !dbg !2441
  %3 = load %"class.xalanc_1_10::XalanSourceTreeElementA"*, %"class.xalanc_1_10::XalanSourceTreeElementA"** %second, align 8, !dbg !2441
  %4 = bitcast %"class.xalanc_1_10::XalanSourceTreeElementA"* %3 to i8*, !dbg !2442
  %5 = bitcast %"class.xercesc_2_7::MemoryManager"* %1 to void (%"class.xercesc_2_7::MemoryManager"*, i8*)***, !dbg !2443
  %vtable = load void (%"class.xercesc_2_7::MemoryManager"*, i8*)**, void (%"class.xercesc_2_7::MemoryManager"*, i8*)*** %5, align 8, !dbg !2443
  %vfn = getelementptr inbounds void (%"class.xercesc_2_7::MemoryManager"*, i8*)*, void (%"class.xercesc_2_7::MemoryManager"*, i8*)** %vtable, i64 3, !dbg !2443
  %6 = load void (%"class.xercesc_2_7::MemoryManager"*, i8*)*, void (%"class.xercesc_2_7::MemoryManager"*, i8*)** %vfn, align 8, !dbg !2443
  call void %6(%"class.xercesc_2_7::MemoryManager"* %1, i8* %4), !dbg !2443
  br label %if.end, !dbg !2444

if.end:                                           ; preds = %if.then, %entry
  ret void, !dbg !2445
}

; Function Attrs: noinline nounwind uwtable
define linkonce_odr dso_local zeroext i1 @_ZNK11xalanc_1_1018XalanMemMgrAutoPtrINS_23XalanSourceTreeElementAELb0EE17MemMgrAutoPtrData12isInitilizedEv(%"class.xalanc_1_10::XalanMemMgrAutoPtr<xalanc_1_10::XalanSourceTreeElementA, false>::MemMgrAutoPtrData"* %this) #2 comdat align 2 !dbg !2446 {
entry:
  %this.addr = alloca %"class.xalanc_1_10::XalanMemMgrAutoPtr<xalanc_1_10::XalanSourceTreeElementA, false>::MemMgrAutoPtrData"*, align 8
  store %"class.xalanc_1_10::XalanMemMgrAutoPtr<xalanc_1_10::XalanSourceTreeElementA, false>::MemMgrAutoPtrData"* %this, %"class.xalanc_1_10::XalanMemMgrAutoPtr<xalanc_1_10::XalanSourceTreeElementA, false>::MemMgrAutoPtrData"** %this.addr, align 8
  call void @llvm.dbg.declare(metadata %"class.xalanc_1_10::XalanMemMgrAutoPtr<xalanc_1_10::XalanSourceTreeElementA, false>::MemMgrAutoPtrData"** %this.addr, metadata !2447, metadata !DIExpression()), !dbg !2448
  %this1 = load %"class.xalanc_1_10::XalanMemMgrAutoPtr<xalanc_1_10::XalanSourceTreeElementA, false>::MemMgrAutoPtrData"*, %"class.xalanc_1_10::XalanMemMgrAutoPtr<xalanc_1_10::XalanSourceTreeElementA, false>::MemMgrAutoPtrData"** %this.addr, align 8
  %0 = bitcast %"class.xalanc_1_10::XalanMemMgrAutoPtr<xalanc_1_10::XalanSourceTreeElementA, false>::MemMgrAutoPtrData"* %this1 to %"struct.std::pair"*, !dbg !2449
  %first = getelementptr inbounds %"struct.std::pair", %"struct.std::pair"* %0, i32 0, i32 0, !dbg !2449
  %1 = load %"class.xercesc_2_7::MemoryManager"*, %"class.xercesc_2_7::MemoryManager"** %first, align 8, !dbg !2449
  %cmp = icmp ne %"class.xercesc_2_7::MemoryManager"* %1, null, !dbg !2450
  br i1 %cmp, label %land.rhs, label %land.end, !dbg !2451

land.rhs:                                         ; preds = %entry
  %2 = bitcast %"class.xalanc_1_10::XalanMemMgrAutoPtr<xalanc_1_10::XalanSourceTreeElementA, false>::MemMgrAutoPtrData"* %this1 to %"struct.std::pair"*, !dbg !2452
  %second = getelementptr inbounds %"struct.std::pair", %"struct.std::pair"* %2, i32 0, i32 1, !dbg !2452
  %3 = load %"class.xalanc_1_10::XalanSourceTreeElementA"*, %"class.xalanc_1_10::XalanSourceTreeElementA"** %second, align 8, !dbg !2452
  %cmp2 = icmp ne %"class.xalanc_1_10::XalanSourceTreeElementA"* %3, null, !dbg !2453
  br label %land.end

land.end:                                         ; preds = %land.rhs, %entry
  %4 = phi i1 [ false, %entry ], [ %cmp2, %land.rhs ], !dbg !2448
  ret i1 %4, !dbg !2454
}

; Function Attrs: argmemonly nounwind willreturn
declare void @llvm.memcpy.p0i8.p0i8.i64(i8* noalias nocapture writeonly, i8* noalias nocapture readonly, i64, i1 immarg) #8

; Function Attrs: noinline nounwind uwtable
define linkonce_odr dso_local void @_ZN11xalanc_1_1018XalanMemMgrAutoPtrINS_23XalanSourceTreeElementAELb0EE17MemMgrAutoPtrData5resetEPN11xercesc_2_713MemoryManagerEPS1_(%"class.xalanc_1_10::XalanMemMgrAutoPtr<xalanc_1_10::XalanSourceTreeElementA, false>::MemMgrAutoPtrData"* %this, %"class.xercesc_2_7::MemoryManager"* %memoryManager, %"class.xalanc_1_10::XalanSourceTreeElementA"* %dataPointer) #2 comdat align 2 !dbg !2455 {
entry:
  %this.addr = alloca %"class.xalanc_1_10::XalanMemMgrAutoPtr<xalanc_1_10::XalanSourceTreeElementA, false>::MemMgrAutoPtrData"*, align 8
  %memoryManager.addr = alloca %"class.xercesc_2_7::MemoryManager"*, align 8
  %dataPointer.addr = alloca %"class.xalanc_1_10::XalanSourceTreeElementA"*, align 8
  store %"class.xalanc_1_10::XalanMemMgrAutoPtr<xalanc_1_10::XalanSourceTreeElementA, false>::MemMgrAutoPtrData"* %this, %"class.xalanc_1_10::XalanMemMgrAutoPtr<xalanc_1_10::XalanSourceTreeElementA, false>::MemMgrAutoPtrData"** %this.addr, align 8
  call void @llvm.dbg.declare(metadata %"class.xalanc_1_10::XalanMemMgrAutoPtr<xalanc_1_10::XalanSourceTreeElementA, false>::MemMgrAutoPtrData"** %this.addr, metadata !2456, metadata !DIExpression()), !dbg !2457
  store %"class.xercesc_2_7::MemoryManager"* %memoryManager, %"class.xercesc_2_7::MemoryManager"** %memoryManager.addr, align 8
  call void @llvm.dbg.declare(metadata %"class.xercesc_2_7::MemoryManager"** %memoryManager.addr, metadata !2458, metadata !DIExpression()), !dbg !2459
  store %"class.xalanc_1_10::XalanSourceTreeElementA"* %dataPointer, %"class.xalanc_1_10::XalanSourceTreeElementA"** %dataPointer.addr, align 8
  call void @llvm.dbg.declare(metadata %"class.xalanc_1_10::XalanSourceTreeElementA"** %dataPointer.addr, metadata !2460, metadata !DIExpression()), !dbg !2461
  %this1 = load %"class.xalanc_1_10::XalanMemMgrAutoPtr<xalanc_1_10::XalanSourceTreeElementA, false>::MemMgrAutoPtrData"*, %"class.xalanc_1_10::XalanMemMgrAutoPtr<xalanc_1_10::XalanSourceTreeElementA, false>::MemMgrAutoPtrData"** %this.addr, align 8
  call void @_ZNK11xalanc_1_1018XalanMemMgrAutoPtrINS_23XalanSourceTreeElementAELb0EE17MemMgrAutoPtrData10invariantsEv(%"class.xalanc_1_10::XalanMemMgrAutoPtr<xalanc_1_10::XalanSourceTreeElementA, false>::MemMgrAutoPtrData"* %this1), !dbg !2462
  %0 = load %"class.xercesc_2_7::MemoryManager"*, %"class.xercesc_2_7::MemoryManager"** %memoryManager.addr, align 8, !dbg !2463
  %1 = bitcast %"class.xalanc_1_10::XalanMemMgrAutoPtr<xalanc_1_10::XalanSourceTreeElementA, false>::MemMgrAutoPtrData"* %this1 to %"struct.std::pair"*, !dbg !2464
  %first = getelementptr inbounds %"struct.std::pair", %"struct.std::pair"* %1, i32 0, i32 0, !dbg !2464
  store %"class.xercesc_2_7::MemoryManager"* %0, %"class.xercesc_2_7::MemoryManager"** %first, align 8, !dbg !2465
  %2 = load %"class.xalanc_1_10::XalanSourceTreeElementA"*, %"class.xalanc_1_10::XalanSourceTreeElementA"** %dataPointer.addr, align 8, !dbg !2466
  %3 = bitcast %"class.xalanc_1_10::XalanMemMgrAutoPtr<xalanc_1_10::XalanSourceTreeElementA, false>::MemMgrAutoPtrData"* %this1 to %"struct.std::pair"*, !dbg !2467
  %second = getelementptr inbounds %"struct.std::pair", %"struct.std::pair"* %3, i32 0, i32 1, !dbg !2467
  store %"class.xalanc_1_10::XalanSourceTreeElementA"* %2, %"class.xalanc_1_10::XalanSourceTreeElementA"** %second, align 8, !dbg !2468
  call void @_ZNK11xalanc_1_1018XalanMemMgrAutoPtrINS_23XalanSourceTreeElementAELb0EE17MemMgrAutoPtrData10invariantsEv(%"class.xalanc_1_10::XalanMemMgrAutoPtr<xalanc_1_10::XalanSourceTreeElementA, false>::MemMgrAutoPtrData"* %this1), !dbg !2469
  ret void, !dbg !2470
}

; Function Attrs: noinline uwtable
define internal void @_GLOBAL__sub_I_XalanSourceTreeElementA.cpp() #0 section ".text.startup" !dbg !2471 {
entry:
  call void @__cxx_global_var_init(), !dbg !2472
  ret void
}

attributes #0 = { noinline uwtable "correctly-rounded-divide-sqrt-fp-math"="false" "disable-tail-calls"="false" "frame-pointer"="all" "less-precise-fpmad"="false" "min-legal-vector-width"="0" "no-infs-fp-math"="false" "no-jump-tables"="false" "no-nans-fp-math"="false" "no-signed-zeros-fp-math"="false" "no-trapping-math"="false" "stack-protector-buffer-size"="8" "target-cpu"="x86-64" "target-features"="+cx8,+fxsr,+mmx,+sse,+sse2,+x87" "unsafe-fp-math"="false" "use-soft-float"="false" }
attributes #1 = { "correctly-rounded-divide-sqrt-fp-math"="false" "disable-tail-calls"="false" "frame-pointer"="all" "less-precise-fpmad"="false" "no-infs-fp-math"="false" "no-nans-fp-math"="false" "no-signed-zeros-fp-math"="false" "no-trapping-math"="false" "stack-protector-buffer-size"="8" "target-cpu"="x86-64" "target-features"="+cx8,+fxsr,+mmx,+sse,+sse2,+x87" "unsafe-fp-math"="false" "use-soft-float"="false" }
attributes #2 = { noinline nounwind uwtable "correctly-rounded-divide-sqrt-fp-math"="false" "disable-tail-calls"="false" "frame-pointer"="all" "less-precise-fpmad"="false" "min-legal-vector-width"="0" "no-infs-fp-math"="false" "no-jump-tables"="false" "no-nans-fp-math"="false" "no-signed-zeros-fp-math"="false" "no-trapping-math"="false" "stack-protector-buffer-size"="8" "target-cpu"="x86-64" "target-features"="+cx8,+fxsr,+mmx,+sse,+sse2,+x87" "unsafe-fp-math"="false" "use-soft-float"="false" }
attributes #3 = { nounwind }
attributes #4 = { nounwind readnone speculatable willreturn }
attributes #5 = { nounwind "correctly-rounded-divide-sqrt-fp-math"="false" "disable-tail-calls"="false" "frame-pointer"="all" "less-precise-fpmad"="false" "no-infs-fp-math"="false" "no-nans-fp-math"="false" "no-signed-zeros-fp-math"="false" "no-trapping-math"="false" "stack-protector-buffer-size"="8" "target-cpu"="x86-64" "target-features"="+cx8,+fxsr,+mmx,+sse,+sse2,+x87" "unsafe-fp-math"="false" "use-soft-float"="false" }
attributes #6 = { nobuiltin nounwind "correctly-rounded-divide-sqrt-fp-math"="false" "disable-tail-calls"="false" "frame-pointer"="all" "less-precise-fpmad"="false" "no-infs-fp-math"="false" "no-nans-fp-math"="false" "no-signed-zeros-fp-math"="false" "no-trapping-math"="false" "stack-protector-buffer-size"="8" "target-cpu"="x86-64" "target-features"="+cx8,+fxsr,+mmx,+sse,+sse2,+x87" "unsafe-fp-math"="false" "use-soft-float"="false" }
attributes #7 = { noinline noreturn nounwind }
attributes #8 = { argmemonly nounwind willreturn }
attributes #9 = { builtin nounwind }
attributes #10 = { noreturn nounwind }
attributes #11 = { noreturn }

!llvm.dbg.cu = !{!776}
!llvm.module.flags = !{!1910, !1911, !1912}
!llvm.ident = !{!1913}

!0 = !DIGlobalVariableExpression(var: !1, expr: !DIExpression())
!1 = distinct !DIGlobalVariable(name: "s_emptyString", linkageName: "_ZN11xalanc_1_10L13s_emptyStringE", scope: !2, file: !3, line: 34, type: !4, isLocal: true, isDefinition: true)
!2 = !DINamespace(name: "xalanc_1_10", scope: null)
!3 = !DIFile(filename: "XalanSourceTreeElementA.cpp", directory: "/home/venkat/IF-DV/spec_build_release/CPU_2017/benchspec/CPU/523.xalancbmk_r/build/build_base_ld-loop-ext-m64.0000")
!4 = !DIDerivedType(tag: DW_TAG_const_type, baseType: !5)
!5 = distinct !DICompositeType(tag: DW_TAG_class_type, name: "XalanDOMString", scope: !2, file: !6, line: 42, size: 320, flags: DIFlagTypePassByReference | DIFlagNonTrivial, elements: !7, identifier: "_ZTSN11xalanc_1_1014XalanDOMStringE")
!6 = !DIFile(filename: "./xalanc/XalanDOM/XalanDOMString.hpp", directory: "/home/venkat/IF-DV/spec_build_release/CPU_2017/benchspec/CPU/523.xalancbmk_r/build/build_base_ld-loop-ext-m64.0000")
!7 = !{!8, !12, !363, !364, !368, !374, !380, !384, !388, !391, !395, !398, !402, !405, !408, !411, !415, !420, !421, !422, !426, !430, !431, !432, !435, !436, !437, !440, !443, !444, !445, !446, !449, !452, !457, !462, !463, !464, !467, !468, !471, !472, !473, !474, !475, !478, !479, !482, !485, !486, !489, !492, !493, !494, !495, !496, !497, !498, !499, !502, !505, !508, !511, !514, !517, !520, !523, !526, !529, !532, !535, !538, !541, !544, !547, !550, !737, !740, !741, !744, !747, !750, !753, !756, !759, !762, !765, !768, !769, !770, !773}
!8 = !DIDerivedType(tag: DW_TAG_member, name: "npos", scope: !5, file: !6, line: 61, baseType: !9, flags: DIFlagPublic | DIFlagStaticMember, extraData: i32 -1)
!9 = !DIDerivedType(tag: DW_TAG_const_type, baseType: !10)
!10 = !DIDerivedType(tag: DW_TAG_typedef, name: "size_type", scope: !5, file: !6, line: 53, baseType: !11)
!11 = !DIBasicType(name: "unsigned int", size: 32, encoding: DW_ATE_unsigned)
!12 = !DIDerivedType(tag: DW_TAG_member, name: "m_data", scope: !5, file: !6, line: 793, baseType: !13, size: 256)
!13 = !DIDerivedType(tag: DW_TAG_typedef, name: "XalanDOMCharVectorType", scope: !5, file: !6, line: 45, baseType: !14)
!14 = distinct !DICompositeType(tag: DW_TAG_class_type, name: "XalanVector<unsigned short, xalanc_1_10::MemoryManagedConstructionTraits<unsigned short> >", scope: !2, file: !15, line: 61, size: 256, flags: DIFlagTypePassByReference | DIFlagNonTrivial, elements: !16, templateParams: !356, identifier: "_ZTSN11xalanc_1_1011XalanVectorItNS_31MemoryManagedConstructionTraitsItEEEE")
!15 = !DIFile(filename: "./xalanc/Include/XalanVector.hpp", directory: "/home/venkat/IF-DV/spec_build_release/CPU_2017/benchspec/CPU/523.xalancbmk_r/build/build_base_ld-loop-ext-m64.0000")
!16 = !{!17, !22, !27, !28, !32, !37, !41, !47, !53, !56, !60, !63, !66, !67, !71, !74, !77, !80, !83, !86, !89, !92, !97, !98, !101, !102, !103, !107, !108, !113, !117, !118, !119, !122, !125, !126, !127, !218, !289, !290, !291, !294, !297, !298, !299, !300, !304, !307, !312, !315, !319, !322, !326, !329, !332, !335, !338, !339, !342, !343, !344, !348, !351, !352, !353}
!17 = !DIDerivedType(tag: DW_TAG_member, name: "m_memoryManager", scope: !14, file: !15, line: 1087, baseType: !18, size: 64)
!18 = !DIDerivedType(tag: DW_TAG_pointer_type, baseType: !19, size: 64)
!19 = !DICompositeType(tag: DW_TAG_class_type, name: "MemoryManager", scope: !21, file: !20, line: 38, flags: DIFlagFwdDecl, identifier: "_ZTSN11xercesc_2_713MemoryManagerE")
!20 = !DIFile(filename: "./xercesc/framework/MemoryManager.hpp", directory: "/home/venkat/IF-DV/spec_build_release/CPU_2017/benchspec/CPU/523.xalancbmk_r/build/build_base_ld-loop-ext-m64.0000")
!21 = !DINamespace(name: "xercesc_2_7", scope: null)
!22 = !DIDerivedType(tag: DW_TAG_member, name: "m_size", scope: !14, file: !15, line: 1089, baseType: !23, size: 64, offset: 64)
!23 = !DIDerivedType(tag: DW_TAG_typedef, name: "size_type", file: !15, line: 71, baseType: !24)
!24 = !DIDerivedType(tag: DW_TAG_typedef, name: "size_t", file: !25, line: 46, baseType: !26)
!25 = !DIFile(filename: "Rohit/IR2Vec-LoopOptimizationFramework/build_REL_AsrtON/lib/clang/10.0.1/include/stddef.h", directory: "/home/venkat/IF-DV")
!26 = !DIBasicType(name: "long unsigned int", size: 64, encoding: DW_ATE_unsigned)
!27 = !DIDerivedType(tag: DW_TAG_member, name: "m_allocation", scope: !14, file: !15, line: 1091, baseType: !23, size: 64, offset: 128)
!28 = !DIDerivedType(tag: DW_TAG_member, name: "m_data", scope: !14, file: !15, line: 1093, baseType: !29, size: 64, offset: 192)
!29 = !DIDerivedType(tag: DW_TAG_pointer_type, baseType: !30, size: 64)
!30 = !DIDerivedType(tag: DW_TAG_typedef, name: "value_type", scope: !14, file: !15, line: 66, baseType: !31)
!31 = !DIBasicType(name: "unsigned short", size: 16, encoding: DW_ATE_unsigned)
!32 = !DISubprogram(name: "XalanVector", scope: !14, file: !15, line: 120, type: !33, scopeLine: 120, flags: DIFlagPublic | DIFlagPrototyped, spFlags: 0)
!33 = !DISubroutineType(types: !34)
!34 = !{null, !35, !36, !23}
!35 = !DIDerivedType(tag: DW_TAG_pointer_type, baseType: !14, size: 64, flags: DIFlagArtificial | DIFlagObjectPointer)
!36 = !DIDerivedType(tag: DW_TAG_reference_type, baseType: !19, size: 64)
!37 = !DISubprogram(name: "create", linkageName: "_ZN11xalanc_1_1011XalanVectorItNS_31MemoryManagedConstructionTraitsItEEE6createERN11xercesc_2_713MemoryManagerEm", scope: !14, file: !15, line: 132, type: !38, scopeLine: 132, flags: DIFlagPublic | DIFlagPrototyped | DIFlagStaticMember, spFlags: 0)
!38 = !DISubroutineType(types: !39)
!39 = !{!40, !36, !23}
!40 = !DIDerivedType(tag: DW_TAG_pointer_type, baseType: !14, size: 64)
!41 = !DISubprogram(name: "XalanVector", scope: !14, file: !15, line: 149, type: !42, scopeLine: 149, flags: DIFlagPublic | DIFlagPrototyped, spFlags: 0)
!42 = !DISubroutineType(types: !43)
!43 = !{null, !35, !44, !36, !23}
!44 = !DIDerivedType(tag: DW_TAG_reference_type, baseType: !45, size: 64)
!45 = !DIDerivedType(tag: DW_TAG_const_type, baseType: !46)
!46 = !DIDerivedType(tag: DW_TAG_typedef, name: "ThisType", scope: !14, file: !15, line: 115, baseType: !14)
!47 = !DISubprogram(name: "XalanVector", scope: !14, file: !15, line: 177, type: !48, scopeLine: 177, flags: DIFlagPublic | DIFlagPrototyped, spFlags: 0)
!48 = !DISubroutineType(types: !49)
!49 = !{null, !35, !50, !50, !36}
!50 = !DIDerivedType(tag: DW_TAG_typedef, name: "const_iterator", scope: !14, file: !15, line: 92, baseType: !51)
!51 = !DIDerivedType(tag: DW_TAG_pointer_type, baseType: !52, size: 64)
!52 = !DIDerivedType(tag: DW_TAG_const_type, baseType: !30)
!53 = !DISubprogram(name: "create", linkageName: "_ZN11xalanc_1_1011XalanVectorItNS_31MemoryManagedConstructionTraitsItEEE6createEPKtS5_RN11xercesc_2_713MemoryManagerE", scope: !14, file: !15, line: 197, type: !54, scopeLine: 197, flags: DIFlagPublic | DIFlagPrototyped | DIFlagStaticMember, spFlags: 0)
!54 = !DISubroutineType(types: !55)
!55 = !{!40, !50, !50, !36}
!56 = !DISubprogram(name: "XalanVector", scope: !14, file: !15, line: 215, type: !57, scopeLine: 215, flags: DIFlagPublic | DIFlagPrototyped, spFlags: 0)
!57 = !DISubroutineType(types: !58)
!58 = !{null, !35, !23, !59, !36}
!59 = !DIDerivedType(tag: DW_TAG_reference_type, baseType: !52, size: 64)
!60 = !DISubprogram(name: "~XalanVector", scope: !14, file: !15, line: 233, type: !61, scopeLine: 233, flags: DIFlagPublic | DIFlagPrototyped, spFlags: 0)
!61 = !DISubroutineType(types: !62)
!62 = !{null, !35}
!63 = !DISubprogram(name: "push_back", linkageName: "_ZN11xalanc_1_1011XalanVectorItNS_31MemoryManagedConstructionTraitsItEEE9push_backERKt", scope: !14, file: !15, line: 246, type: !64, scopeLine: 246, flags: DIFlagPublic | DIFlagPrototyped, spFlags: 0)
!64 = !DISubroutineType(types: !65)
!65 = !{null, !35, !59}
!66 = !DISubprogram(name: "pop_back", linkageName: "_ZN11xalanc_1_1011XalanVectorItNS_31MemoryManagedConstructionTraitsItEEE8pop_backEv", scope: !14, file: !15, line: 256, type: !61, scopeLine: 256, flags: DIFlagPublic | DIFlagPrototyped, spFlags: 0)
!67 = !DISubprogram(name: "erase", linkageName: "_ZN11xalanc_1_1011XalanVectorItNS_31MemoryManagedConstructionTraitsItEEE5eraseEPtS4_", scope: !14, file: !15, line: 268, type: !68, scopeLine: 268, flags: DIFlagPublic | DIFlagPrototyped, spFlags: 0)
!68 = !DISubroutineType(types: !69)
!69 = !{!70, !35, !70, !70}
!70 = !DIDerivedType(tag: DW_TAG_typedef, name: "iterator", scope: !14, file: !15, line: 91, baseType: !29)
!71 = !DISubprogram(name: "erase", linkageName: "_ZN11xalanc_1_1011XalanVectorItNS_31MemoryManagedConstructionTraitsItEEE5eraseEPt", scope: !14, file: !15, line: 290, type: !72, scopeLine: 290, flags: DIFlagPublic | DIFlagPrototyped, spFlags: 0)
!72 = !DISubroutineType(types: !73)
!73 = !{!70, !35, !70}
!74 = !DISubprogram(name: "insert", linkageName: "_ZN11xalanc_1_1011XalanVectorItNS_31MemoryManagedConstructionTraitsItEEE6insertEPtPKtS6_", scope: !14, file: !15, line: 296, type: !75, scopeLine: 296, flags: DIFlagPublic | DIFlagPrototyped, spFlags: 0)
!75 = !DISubroutineType(types: !76)
!76 = !{null, !35, !70, !50, !50}
!77 = !DISubprogram(name: "insert", linkageName: "_ZN11xalanc_1_1011XalanVectorItNS_31MemoryManagedConstructionTraitsItEEE6insertEPtmRKt", scope: !14, file: !15, line: 415, type: !78, scopeLine: 415, flags: DIFlagPublic | DIFlagPrototyped, spFlags: 0)
!78 = !DISubroutineType(types: !79)
!79 = !{null, !35, !70, !23, !59}
!80 = !DISubprogram(name: "insert", linkageName: "_ZN11xalanc_1_1011XalanVectorItNS_31MemoryManagedConstructionTraitsItEEE6insertEPtRKt", scope: !14, file: !15, line: 516, type: !81, scopeLine: 516, flags: DIFlagPublic | DIFlagPrototyped, spFlags: 0)
!81 = !DISubroutineType(types: !82)
!82 = !{!70, !35, !70, !59}
!83 = !DISubprogram(name: "assign", linkageName: "_ZN11xalanc_1_1011XalanVectorItNS_31MemoryManagedConstructionTraitsItEEE6assignEPKtS5_", scope: !14, file: !15, line: 538, type: !84, scopeLine: 538, flags: DIFlagPublic | DIFlagPrototyped, spFlags: 0)
!84 = !DISubroutineType(types: !85)
!85 = !{null, !35, !50, !50}
!86 = !DISubprogram(name: "assign", linkageName: "_ZN11xalanc_1_1011XalanVectorItNS_31MemoryManagedConstructionTraitsItEEE6assignEPtS4_", scope: !14, file: !15, line: 551, type: !87, scopeLine: 551, flags: DIFlagPublic | DIFlagPrototyped, spFlags: 0)
!87 = !DISubroutineType(types: !88)
!88 = !{null, !35, !70, !70}
!89 = !DISubprogram(name: "assign", linkageName: "_ZN11xalanc_1_1011XalanVectorItNS_31MemoryManagedConstructionTraitsItEEE6assignEmRKt", scope: !14, file: !15, line: 561, type: !90, scopeLine: 561, flags: DIFlagPublic | DIFlagPrototyped, spFlags: 0)
!90 = !DISubroutineType(types: !91)
!91 = !{null, !35, !23, !59}
!92 = !DISubprogram(name: "size", linkageName: "_ZNK11xalanc_1_1011XalanVectorItNS_31MemoryManagedConstructionTraitsItEEE4sizeEv", scope: !14, file: !15, line: 571, type: !93, scopeLine: 571, flags: DIFlagPublic | DIFlagPrototyped, spFlags: 0)
!93 = !DISubroutineType(types: !94)
!94 = !{!23, !95}
!95 = !DIDerivedType(tag: DW_TAG_pointer_type, baseType: !96, size: 64, flags: DIFlagArtificial | DIFlagObjectPointer)
!96 = !DIDerivedType(tag: DW_TAG_const_type, baseType: !14)
!97 = !DISubprogram(name: "max_size", linkageName: "_ZNK11xalanc_1_1011XalanVectorItNS_31MemoryManagedConstructionTraitsItEEE8max_sizeEv", scope: !14, file: !15, line: 579, type: !93, scopeLine: 579, flags: DIFlagPublic | DIFlagPrototyped, spFlags: 0)
!98 = !DISubprogram(name: "resize", linkageName: "_ZN11xalanc_1_1011XalanVectorItNS_31MemoryManagedConstructionTraitsItEEE6resizeEm", scope: !14, file: !15, line: 587, type: !99, scopeLine: 587, flags: DIFlagPublic | DIFlagPrototyped, spFlags: 0)
!99 = !DISubroutineType(types: !100)
!100 = !{null, !35, !23}
!101 = !DISubprogram(name: "resize", linkageName: "_ZN11xalanc_1_1011XalanVectorItNS_31MemoryManagedConstructionTraitsItEEE6resizeEmRKt", scope: !14, file: !15, line: 595, type: !90, scopeLine: 595, flags: DIFlagPublic | DIFlagPrototyped, spFlags: 0)
!102 = !DISubprogram(name: "capacity", linkageName: "_ZNK11xalanc_1_1011XalanVectorItNS_31MemoryManagedConstructionTraitsItEEE8capacityEv", scope: !14, file: !15, line: 628, type: !93, scopeLine: 628, flags: DIFlagPublic | DIFlagPrototyped, spFlags: 0)
!103 = !DISubprogram(name: "empty", linkageName: "_ZNK11xalanc_1_1011XalanVectorItNS_31MemoryManagedConstructionTraitsItEEE5emptyEv", scope: !14, file: !15, line: 636, type: !104, scopeLine: 636, flags: DIFlagPublic | DIFlagPrototyped, spFlags: 0)
!104 = !DISubroutineType(types: !105)
!105 = !{!106, !95}
!106 = !DIBasicType(name: "bool", size: 8, encoding: DW_ATE_boolean)
!107 = !DISubprogram(name: "reserve", linkageName: "_ZN11xalanc_1_1011XalanVectorItNS_31MemoryManagedConstructionTraitsItEEE7reserveEm", scope: !14, file: !15, line: 644, type: !99, scopeLine: 644, flags: DIFlagPublic | DIFlagPrototyped, spFlags: 0)
!108 = !DISubprogram(name: "front", linkageName: "_ZN11xalanc_1_1011XalanVectorItNS_31MemoryManagedConstructionTraitsItEEE5frontEv", scope: !14, file: !15, line: 657, type: !109, scopeLine: 657, flags: DIFlagPublic | DIFlagPrototyped, spFlags: 0)
!109 = !DISubroutineType(types: !110)
!110 = !{!111, !35}
!111 = !DIDerivedType(tag: DW_TAG_typedef, name: "reference", scope: !14, file: !15, line: 69, baseType: !112)
!112 = !DIDerivedType(tag: DW_TAG_reference_type, baseType: !30, size: 64)
!113 = !DISubprogram(name: "front", linkageName: "_ZNK11xalanc_1_1011XalanVectorItNS_31MemoryManagedConstructionTraitsItEEE5frontEv", scope: !14, file: !15, line: 665, type: !114, scopeLine: 665, flags: DIFlagPublic | DIFlagPrototyped, spFlags: 0)
!114 = !DISubroutineType(types: !115)
!115 = !{!116, !95}
!116 = !DIDerivedType(tag: DW_TAG_typedef, name: "const_reference", scope: !14, file: !15, line: 70, baseType: !59)
!117 = !DISubprogram(name: "back", linkageName: "_ZN11xalanc_1_1011XalanVectorItNS_31MemoryManagedConstructionTraitsItEEE4backEv", scope: !14, file: !15, line: 673, type: !109, scopeLine: 673, flags: DIFlagPublic | DIFlagPrototyped, spFlags: 0)
!118 = !DISubprogram(name: "back", linkageName: "_ZNK11xalanc_1_1011XalanVectorItNS_31MemoryManagedConstructionTraitsItEEE4backEv", scope: !14, file: !15, line: 679, type: !114, scopeLine: 679, flags: DIFlagPublic | DIFlagPrototyped, spFlags: 0)
!119 = !DISubprogram(name: "begin", linkageName: "_ZN11xalanc_1_1011XalanVectorItNS_31MemoryManagedConstructionTraitsItEEE5beginEv", scope: !14, file: !15, line: 685, type: !120, scopeLine: 685, flags: DIFlagPublic | DIFlagPrototyped, spFlags: 0)
!120 = !DISubroutineType(types: !121)
!121 = !{!70, !35}
!122 = !DISubprogram(name: "begin", linkageName: "_ZNK11xalanc_1_1011XalanVectorItNS_31MemoryManagedConstructionTraitsItEEE5beginEv", scope: !14, file: !15, line: 693, type: !123, scopeLine: 693, flags: DIFlagPublic | DIFlagPrototyped, spFlags: 0)
!123 = !DISubroutineType(types: !124)
!124 = !{!50, !95}
!125 = !DISubprogram(name: "end", linkageName: "_ZN11xalanc_1_1011XalanVectorItNS_31MemoryManagedConstructionTraitsItEEE3endEv", scope: !14, file: !15, line: 701, type: !120, scopeLine: 701, flags: DIFlagPublic | DIFlagPrototyped, spFlags: 0)
!126 = !DISubprogram(name: "end", linkageName: "_ZNK11xalanc_1_1011XalanVectorItNS_31MemoryManagedConstructionTraitsItEEE3endEv", scope: !14, file: !15, line: 709, type: !123, scopeLine: 709, flags: DIFlagPublic | DIFlagPrototyped, spFlags: 0)
!127 = !DISubprogram(name: "rbegin", linkageName: "_ZN11xalanc_1_1011XalanVectorItNS_31MemoryManagedConstructionTraitsItEEE6rbeginEv", scope: !14, file: !15, line: 717, type: !128, scopeLine: 717, flags: DIFlagPublic | DIFlagPrototyped, spFlags: 0)
!128 = !DISubroutineType(types: !129)
!129 = !{!130, !35}
!130 = !DIDerivedType(tag: DW_TAG_typedef, name: "reverse_iterator", scope: !14, file: !15, line: 112, baseType: !131)
!131 = !DIDerivedType(tag: DW_TAG_typedef, name: "reverse_iterator_", scope: !14, file: !15, line: 96, baseType: !132)
!132 = distinct !DICompositeType(tag: DW_TAG_class_type, name: "reverse_iterator<unsigned short *>", scope: !134, file: !133, line: 125, size: 64, flags: DIFlagTypePassByReference | DIFlagNonTrivial, elements: !135, templateParams: !187, identifier: "_ZTSSt16reverse_iteratorIPtE")
!133 = !DIFile(filename: "/usr/lib/gcc/x86_64-linux-gnu/10/../../../../include/c++/10/bits/stl_iterator.h", directory: "")
!134 = !DINamespace(name: "std", scope: null)
!135 = !{!136, !159, !160, !164, !168, !173, !177, !181, !189, !194, !197, !201, !202, !203, !210, !213, !214, !215}
!136 = !DIDerivedType(tag: DW_TAG_inheritance, scope: !132, baseType: !137, flags: DIFlagPublic, extraData: i32 0)
!137 = distinct !DICompositeType(tag: DW_TAG_structure_type, name: "iterator<std::random_access_iterator_tag, unsigned short, long, unsigned short *, unsigned short &>", scope: !134, file: !138, line: 127, size: 8, flags: DIFlagTypePassByValue, elements: !139, templateParams: !140, identifier: "_ZTSSt8iteratorISt26random_access_iterator_tagtlPtRtE")
!138 = !DIFile(filename: "/usr/lib/gcc/x86_64-linux-gnu/10/../../../../include/c++/10/bits/stl_iterator_base_types.h", directory: "")
!139 = !{}
!140 = !{!141, !152, !153, !155, !157}
!141 = !DITemplateTypeParameter(name: "_Category", type: !142)
!142 = distinct !DICompositeType(tag: DW_TAG_structure_type, name: "random_access_iterator_tag", scope: !134, file: !138, line: 107, size: 8, flags: DIFlagTypePassByValue, elements: !143, identifier: "_ZTSSt26random_access_iterator_tag")
!143 = !{!144}
!144 = !DIDerivedType(tag: DW_TAG_inheritance, scope: !142, baseType: !145, extraData: i32 0)
!145 = distinct !DICompositeType(tag: DW_TAG_structure_type, name: "bidirectional_iterator_tag", scope: !134, file: !138, line: 103, size: 8, flags: DIFlagTypePassByValue, elements: !146, identifier: "_ZTSSt26bidirectional_iterator_tag")
!146 = !{!147}
!147 = !DIDerivedType(tag: DW_TAG_inheritance, scope: !145, baseType: !148, extraData: i32 0)
!148 = distinct !DICompositeType(tag: DW_TAG_structure_type, name: "forward_iterator_tag", scope: !134, file: !138, line: 99, size: 8, flags: DIFlagTypePassByValue, elements: !149, identifier: "_ZTSSt20forward_iterator_tag")
!149 = !{!150}
!150 = !DIDerivedType(tag: DW_TAG_inheritance, scope: !148, baseType: !151, extraData: i32 0)
!151 = distinct !DICompositeType(tag: DW_TAG_structure_type, name: "input_iterator_tag", scope: !134, file: !138, line: 93, size: 8, flags: DIFlagTypePassByValue, elements: !139, identifier: "_ZTSSt18input_iterator_tag")
!152 = !DITemplateTypeParameter(name: "_Tp", type: !31)
!153 = !DITemplateTypeParameter(name: "_Distance", type: !154)
!154 = !DIBasicType(name: "long int", size: 64, encoding: DW_ATE_signed)
!155 = !DITemplateTypeParameter(name: "_Pointer", type: !156)
!156 = !DIDerivedType(tag: DW_TAG_pointer_type, baseType: !31, size: 64)
!157 = !DITemplateTypeParameter(name: "_Reference", type: !158)
!158 = !DIDerivedType(tag: DW_TAG_reference_type, baseType: !31, size: 64)
!159 = !DIDerivedType(tag: DW_TAG_member, name: "current", scope: !132, file: !133, line: 133, baseType: !156, size: 64, flags: DIFlagProtected)
!160 = !DISubprogram(name: "reverse_iterator", scope: !132, file: !133, line: 161, type: !161, scopeLine: 161, flags: DIFlagPublic | DIFlagPrototyped, spFlags: 0)
!161 = !DISubroutineType(types: !162)
!162 = !{null, !163}
!163 = !DIDerivedType(tag: DW_TAG_pointer_type, baseType: !132, size: 64, flags: DIFlagArtificial | DIFlagObjectPointer)
!164 = !DISubprogram(name: "reverse_iterator", scope: !132, file: !133, line: 167, type: !165, scopeLine: 167, flags: DIFlagPublic | DIFlagExplicit | DIFlagPrototyped, spFlags: 0)
!165 = !DISubroutineType(types: !166)
!166 = !{null, !163, !167}
!167 = !DIDerivedType(tag: DW_TAG_typedef, name: "iterator_type", scope: !132, file: !133, line: 138, baseType: !156)
!168 = !DISubprogram(name: "reverse_iterator", scope: !132, file: !133, line: 173, type: !169, scopeLine: 173, flags: DIFlagPublic | DIFlagPrototyped, spFlags: 0)
!169 = !DISubroutineType(types: !170)
!170 = !{null, !163, !171}
!171 = !DIDerivedType(tag: DW_TAG_reference_type, baseType: !172, size: 64)
!172 = !DIDerivedType(tag: DW_TAG_const_type, baseType: !132)
!173 = !DISubprogram(name: "operator=", linkageName: "_ZNSt16reverse_iteratorIPtEaSERKS1_", scope: !132, file: !133, line: 177, type: !174, scopeLine: 177, flags: DIFlagPublic | DIFlagPrototyped, spFlags: 0)
!174 = !DISubroutineType(types: !175)
!175 = !{!176, !163, !171}
!176 = !DIDerivedType(tag: DW_TAG_reference_type, baseType: !132, size: 64)
!177 = !DISubprogram(name: "base", linkageName: "_ZNKSt16reverse_iteratorIPtE4baseEv", scope: !132, file: !133, line: 193, type: !178, scopeLine: 193, flags: DIFlagPublic | DIFlagPrototyped, spFlags: 0)
!178 = !DISubroutineType(types: !179)
!179 = !{!167, !180}
!180 = !DIDerivedType(tag: DW_TAG_pointer_type, baseType: !172, size: 64, flags: DIFlagArtificial | DIFlagObjectPointer)
!181 = !DISubprogram(name: "operator*", linkageName: "_ZNKSt16reverse_iteratorIPtEdeEv", scope: !132, file: !133, line: 207, type: !182, scopeLine: 207, flags: DIFlagPublic | DIFlagPrototyped, spFlags: 0)
!182 = !DISubroutineType(types: !183)
!183 = !{!184, !180}
!184 = !DIDerivedType(tag: DW_TAG_typedef, name: "reference", scope: !132, file: !133, line: 141, baseType: !185)
!185 = !DIDerivedType(tag: DW_TAG_typedef, name: "reference", scope: !186, file: !138, line: 216, baseType: !158)
!186 = distinct !DICompositeType(tag: DW_TAG_structure_type, name: "iterator_traits<unsigned short *>", scope: !134, file: !138, line: 210, size: 8, flags: DIFlagTypePassByValue, elements: !139, templateParams: !187, identifier: "_ZTSSt15iterator_traitsIPtE")
!187 = !{!188}
!188 = !DITemplateTypeParameter(name: "_Iterator", type: !156)
!189 = !DISubprogram(name: "operator->", linkageName: "_ZNKSt16reverse_iteratorIPtEptEv", scope: !132, file: !133, line: 219, type: !190, scopeLine: 219, flags: DIFlagPublic | DIFlagPrototyped, spFlags: 0)
!190 = !DISubroutineType(types: !191)
!191 = !{!192, !180}
!192 = !DIDerivedType(tag: DW_TAG_typedef, name: "pointer", scope: !132, file: !133, line: 140, baseType: !193)
!193 = !DIDerivedType(tag: DW_TAG_typedef, name: "pointer", scope: !186, file: !138, line: 215, baseType: !156)
!194 = !DISubprogram(name: "operator++", linkageName: "_ZNSt16reverse_iteratorIPtEppEv", scope: !132, file: !133, line: 238, type: !195, scopeLine: 238, flags: DIFlagPublic | DIFlagPrototyped, spFlags: 0)
!195 = !DISubroutineType(types: !196)
!196 = !{!176, !163}
!197 = !DISubprogram(name: "operator++", linkageName: "_ZNSt16reverse_iteratorIPtEppEi", scope: !132, file: !133, line: 250, type: !198, scopeLine: 250, flags: DIFlagPublic | DIFlagPrototyped, spFlags: 0)
!198 = !DISubroutineType(types: !199)
!199 = !{!132, !163, !200}
!200 = !DIBasicType(name: "int", size: 32, encoding: DW_ATE_signed)
!201 = !DISubprogram(name: "operator--", linkageName: "_ZNSt16reverse_iteratorIPtEmmEv", scope: !132, file: !133, line: 263, type: !195, scopeLine: 263, flags: DIFlagPublic | DIFlagPrototyped, spFlags: 0)
!202 = !DISubprogram(name: "operator--", linkageName: "_ZNSt16reverse_iteratorIPtEmmEi", scope: !132, file: !133, line: 275, type: !198, scopeLine: 275, flags: DIFlagPublic | DIFlagPrototyped, spFlags: 0)
!203 = !DISubprogram(name: "operator+", linkageName: "_ZNKSt16reverse_iteratorIPtEplEl", scope: !132, file: !133, line: 288, type: !204, scopeLine: 288, flags: DIFlagPublic | DIFlagPrototyped, spFlags: 0)
!204 = !DISubroutineType(types: !205)
!205 = !{!132, !180, !206}
!206 = !DIDerivedType(tag: DW_TAG_typedef, name: "difference_type", scope: !132, file: !133, line: 139, baseType: !207)
!207 = !DIDerivedType(tag: DW_TAG_typedef, name: "difference_type", scope: !186, file: !138, line: 214, baseType: !208)
!208 = !DIDerivedType(tag: DW_TAG_typedef, name: "ptrdiff_t", scope: !134, file: !209, line: 261, baseType: !154)
!209 = !DIFile(filename: "/usr/lib/gcc/x86_64-linux-gnu/10/../../../../include/x86_64-linux-gnu/c++/10/bits/c++config.h", directory: "")
!210 = !DISubprogram(name: "operator+=", linkageName: "_ZNSt16reverse_iteratorIPtEpLEl", scope: !132, file: !133, line: 298, type: !211, scopeLine: 298, flags: DIFlagPublic | DIFlagPrototyped, spFlags: 0)
!211 = !DISubroutineType(types: !212)
!212 = !{!176, !163, !206}
!213 = !DISubprogram(name: "operator-", linkageName: "_ZNKSt16reverse_iteratorIPtEmiEl", scope: !132, file: !133, line: 310, type: !204, scopeLine: 310, flags: DIFlagPublic | DIFlagPrototyped, spFlags: 0)
!214 = !DISubprogram(name: "operator-=", linkageName: "_ZNSt16reverse_iteratorIPtEmIEl", scope: !132, file: !133, line: 320, type: !211, scopeLine: 320, flags: DIFlagPublic | DIFlagPrototyped, spFlags: 0)
!215 = !DISubprogram(name: "operator[]", linkageName: "_ZNKSt16reverse_iteratorIPtEixEl", scope: !132, file: !133, line: 332, type: !216, scopeLine: 332, flags: DIFlagPublic | DIFlagPrototyped, spFlags: 0)
!216 = !DISubroutineType(types: !217)
!217 = !{!184, !180, !206}
!218 = !DISubprogram(name: "rbegin", linkageName: "_ZNK11xalanc_1_1011XalanVectorItNS_31MemoryManagedConstructionTraitsItEEE6rbeginEv", scope: !14, file: !15, line: 725, type: !219, scopeLine: 725, flags: DIFlagPublic | DIFlagPrototyped, spFlags: 0)
!219 = !DISubroutineType(types: !220)
!220 = !{!221, !95}
!221 = !DIDerivedType(tag: DW_TAG_typedef, name: "const_reverse_iterator", scope: !14, file: !15, line: 113, baseType: !222)
!222 = !DIDerivedType(tag: DW_TAG_typedef, name: "const_reverse_iterator_", scope: !14, file: !15, line: 97, baseType: !223)
!223 = distinct !DICompositeType(tag: DW_TAG_class_type, name: "reverse_iterator<const unsigned short *>", scope: !134, file: !133, line: 125, size: 64, flags: DIFlagTypePassByReference | DIFlagNonTrivial, elements: !224, templateParams: !261, identifier: "_ZTSSt16reverse_iteratorIPKtE")
!224 = !{!225, !233, !234, !238, !242, !247, !251, !255, !263, !268, !271, !274, !275, !276, !281, !284, !285, !286}
!225 = !DIDerivedType(tag: DW_TAG_inheritance, scope: !223, baseType: !226, flags: DIFlagPublic, extraData: i32 0)
!226 = distinct !DICompositeType(tag: DW_TAG_structure_type, name: "iterator<std::random_access_iterator_tag, unsigned short, long, const unsigned short *, const unsigned short &>", scope: !134, file: !138, line: 127, size: 8, flags: DIFlagTypePassByValue, elements: !139, templateParams: !227, identifier: "_ZTSSt8iteratorISt26random_access_iterator_tagtlPKtRS1_E")
!227 = !{!141, !152, !153, !228, !231}
!228 = !DITemplateTypeParameter(name: "_Pointer", type: !229)
!229 = !DIDerivedType(tag: DW_TAG_pointer_type, baseType: !230, size: 64)
!230 = !DIDerivedType(tag: DW_TAG_const_type, baseType: !31)
!231 = !DITemplateTypeParameter(name: "_Reference", type: !232)
!232 = !DIDerivedType(tag: DW_TAG_reference_type, baseType: !230, size: 64)
!233 = !DIDerivedType(tag: DW_TAG_member, name: "current", scope: !223, file: !133, line: 133, baseType: !229, size: 64, flags: DIFlagProtected)
!234 = !DISubprogram(name: "reverse_iterator", scope: !223, file: !133, line: 161, type: !235, scopeLine: 161, flags: DIFlagPublic | DIFlagPrototyped, spFlags: 0)
!235 = !DISubroutineType(types: !236)
!236 = !{null, !237}
!237 = !DIDerivedType(tag: DW_TAG_pointer_type, baseType: !223, size: 64, flags: DIFlagArtificial | DIFlagObjectPointer)
!238 = !DISubprogram(name: "reverse_iterator", scope: !223, file: !133, line: 167, type: !239, scopeLine: 167, flags: DIFlagPublic | DIFlagExplicit | DIFlagPrototyped, spFlags: 0)
!239 = !DISubroutineType(types: !240)
!240 = !{null, !237, !241}
!241 = !DIDerivedType(tag: DW_TAG_typedef, name: "iterator_type", scope: !223, file: !133, line: 138, baseType: !229)
!242 = !DISubprogram(name: "reverse_iterator", scope: !223, file: !133, line: 173, type: !243, scopeLine: 173, flags: DIFlagPublic | DIFlagPrototyped, spFlags: 0)
!243 = !DISubroutineType(types: !244)
!244 = !{null, !237, !245}
!245 = !DIDerivedType(tag: DW_TAG_reference_type, baseType: !246, size: 64)
!246 = !DIDerivedType(tag: DW_TAG_const_type, baseType: !223)
!247 = !DISubprogram(name: "operator=", linkageName: "_ZNSt16reverse_iteratorIPKtEaSERKS2_", scope: !223, file: !133, line: 177, type: !248, scopeLine: 177, flags: DIFlagPublic | DIFlagPrototyped, spFlags: 0)
!248 = !DISubroutineType(types: !249)
!249 = !{!250, !237, !245}
!250 = !DIDerivedType(tag: DW_TAG_reference_type, baseType: !223, size: 64)
!251 = !DISubprogram(name: "base", linkageName: "_ZNKSt16reverse_iteratorIPKtE4baseEv", scope: !223, file: !133, line: 193, type: !252, scopeLine: 193, flags: DIFlagPublic | DIFlagPrototyped, spFlags: 0)
!252 = !DISubroutineType(types: !253)
!253 = !{!241, !254}
!254 = !DIDerivedType(tag: DW_TAG_pointer_type, baseType: !246, size: 64, flags: DIFlagArtificial | DIFlagObjectPointer)
!255 = !DISubprogram(name: "operator*", linkageName: "_ZNKSt16reverse_iteratorIPKtEdeEv", scope: !223, file: !133, line: 207, type: !256, scopeLine: 207, flags: DIFlagPublic | DIFlagPrototyped, spFlags: 0)
!256 = !DISubroutineType(types: !257)
!257 = !{!258, !254}
!258 = !DIDerivedType(tag: DW_TAG_typedef, name: "reference", scope: !223, file: !133, line: 141, baseType: !259)
!259 = !DIDerivedType(tag: DW_TAG_typedef, name: "reference", scope: !260, file: !138, line: 227, baseType: !232)
!260 = distinct !DICompositeType(tag: DW_TAG_structure_type, name: "iterator_traits<const unsigned short *>", scope: !134, file: !138, line: 221, size: 8, flags: DIFlagTypePassByValue, elements: !139, templateParams: !261, identifier: "_ZTSSt15iterator_traitsIPKtE")
!261 = !{!262}
!262 = !DITemplateTypeParameter(name: "_Iterator", type: !229)
!263 = !DISubprogram(name: "operator->", linkageName: "_ZNKSt16reverse_iteratorIPKtEptEv", scope: !223, file: !133, line: 219, type: !264, scopeLine: 219, flags: DIFlagPublic | DIFlagPrototyped, spFlags: 0)
!264 = !DISubroutineType(types: !265)
!265 = !{!266, !254}
!266 = !DIDerivedType(tag: DW_TAG_typedef, name: "pointer", scope: !223, file: !133, line: 140, baseType: !267)
!267 = !DIDerivedType(tag: DW_TAG_typedef, name: "pointer", scope: !260, file: !138, line: 226, baseType: !229)
!268 = !DISubprogram(name: "operator++", linkageName: "_ZNSt16reverse_iteratorIPKtEppEv", scope: !223, file: !133, line: 238, type: !269, scopeLine: 238, flags: DIFlagPublic | DIFlagPrototyped, spFlags: 0)
!269 = !DISubroutineType(types: !270)
!270 = !{!250, !237}
!271 = !DISubprogram(name: "operator++", linkageName: "_ZNSt16reverse_iteratorIPKtEppEi", scope: !223, file: !133, line: 250, type: !272, scopeLine: 250, flags: DIFlagPublic | DIFlagPrototyped, spFlags: 0)
!272 = !DISubroutineType(types: !273)
!273 = !{!223, !237, !200}
!274 = !DISubprogram(name: "operator--", linkageName: "_ZNSt16reverse_iteratorIPKtEmmEv", scope: !223, file: !133, line: 263, type: !269, scopeLine: 263, flags: DIFlagPublic | DIFlagPrototyped, spFlags: 0)
!275 = !DISubprogram(name: "operator--", linkageName: "_ZNSt16reverse_iteratorIPKtEmmEi", scope: !223, file: !133, line: 275, type: !272, scopeLine: 275, flags: DIFlagPublic | DIFlagPrototyped, spFlags: 0)
!276 = !DISubprogram(name: "operator+", linkageName: "_ZNKSt16reverse_iteratorIPKtEplEl", scope: !223, file: !133, line: 288, type: !277, scopeLine: 288, flags: DIFlagPublic | DIFlagPrototyped, spFlags: 0)
!277 = !DISubroutineType(types: !278)
!278 = !{!223, !254, !279}
!279 = !DIDerivedType(tag: DW_TAG_typedef, name: "difference_type", scope: !223, file: !133, line: 139, baseType: !280)
!280 = !DIDerivedType(tag: DW_TAG_typedef, name: "difference_type", scope: !260, file: !138, line: 225, baseType: !208)
!281 = !DISubprogram(name: "operator+=", linkageName: "_ZNSt16reverse_iteratorIPKtEpLEl", scope: !223, file: !133, line: 298, type: !282, scopeLine: 298, flags: DIFlagPublic | DIFlagPrototyped, spFlags: 0)
!282 = !DISubroutineType(types: !283)
!283 = !{!250, !237, !279}
!284 = !DISubprogram(name: "operator-", linkageName: "_ZNKSt16reverse_iteratorIPKtEmiEl", scope: !223, file: !133, line: 310, type: !277, scopeLine: 310, flags: DIFlagPublic | DIFlagPrototyped, spFlags: 0)
!285 = !DISubprogram(name: "operator-=", linkageName: "_ZNSt16reverse_iteratorIPKtEmIEl", scope: !223, file: !133, line: 320, type: !282, scopeLine: 320, flags: DIFlagPublic | DIFlagPrototyped, spFlags: 0)
!286 = !DISubprogram(name: "operator[]", linkageName: "_ZNKSt16reverse_iteratorIPKtEixEl", scope: !223, file: !133, line: 332, type: !287, scopeLine: 332, flags: DIFlagPublic | DIFlagPrototyped, spFlags: 0)
!287 = !DISubroutineType(types: !288)
!288 = !{!258, !254, !279}
!289 = !DISubprogram(name: "rend", linkageName: "_ZN11xalanc_1_1011XalanVectorItNS_31MemoryManagedConstructionTraitsItEEE4rendEv", scope: !14, file: !15, line: 733, type: !128, scopeLine: 733, flags: DIFlagPublic | DIFlagPrototyped, spFlags: 0)
!290 = !DISubprogram(name: "rend", linkageName: "_ZNK11xalanc_1_1011XalanVectorItNS_31MemoryManagedConstructionTraitsItEEE4rendEv", scope: !14, file: !15, line: 741, type: !219, scopeLine: 741, flags: DIFlagPublic | DIFlagPrototyped, spFlags: 0)
!291 = !DISubprogram(name: "at", linkageName: "_ZN11xalanc_1_1011XalanVectorItNS_31MemoryManagedConstructionTraitsItEEE2atEm", scope: !14, file: !15, line: 750, type: !292, scopeLine: 750, flags: DIFlagPublic | DIFlagPrototyped, spFlags: 0)
!292 = !DISubroutineType(types: !293)
!293 = !{!111, !35, !23}
!294 = !DISubprogram(name: "at", linkageName: "_ZNK11xalanc_1_1011XalanVectorItNS_31MemoryManagedConstructionTraitsItEEE2atEm", scope: !14, file: !15, line: 761, type: !295, scopeLine: 761, flags: DIFlagPublic | DIFlagPrototyped, spFlags: 0)
!295 = !DISubroutineType(types: !296)
!296 = !{!116, !95, !23}
!297 = !DISubprogram(name: "operator[]", linkageName: "_ZN11xalanc_1_1011XalanVectorItNS_31MemoryManagedConstructionTraitsItEEEixEm", scope: !14, file: !15, line: 772, type: !292, scopeLine: 772, flags: DIFlagPublic | DIFlagPrototyped, spFlags: 0)
!298 = !DISubprogram(name: "operator[]", linkageName: "_ZNK11xalanc_1_1011XalanVectorItNS_31MemoryManagedConstructionTraitsItEEEixEm", scope: !14, file: !15, line: 780, type: !295, scopeLine: 780, flags: DIFlagPublic | DIFlagPrototyped, spFlags: 0)
!299 = !DISubprogram(name: "clear", linkageName: "_ZN11xalanc_1_1011XalanVectorItNS_31MemoryManagedConstructionTraitsItEEE5clearEv", scope: !14, file: !15, line: 788, type: !61, scopeLine: 788, flags: DIFlagPublic | DIFlagPrototyped, spFlags: 0)
!300 = !DISubprogram(name: "operator=", linkageName: "_ZN11xalanc_1_1011XalanVectorItNS_31MemoryManagedConstructionTraitsItEEEaSERKS3_", scope: !14, file: !15, line: 802, type: !301, scopeLine: 802, flags: DIFlagPublic | DIFlagPrototyped, spFlags: 0)
!301 = !DISubroutineType(types: !302)
!302 = !{!303, !35, !44}
!303 = !DIDerivedType(tag: DW_TAG_reference_type, baseType: !46, size: 64)
!304 = !DISubprogram(name: "swap", linkageName: "_ZN11xalanc_1_1011XalanVectorItNS_31MemoryManagedConstructionTraitsItEEE4swapERS3_", scope: !14, file: !15, line: 848, type: !305, scopeLine: 848, flags: DIFlagPublic | DIFlagPrototyped, spFlags: 0)
!305 = !DISubroutineType(types: !306)
!306 = !{null, !35, !303}
!307 = !DISubprogram(name: "getMemoryManager", linkageName: "_ZNK11xalanc_1_1011XalanVectorItNS_31MemoryManagedConstructionTraitsItEEE16getMemoryManagerEv", scope: !14, file: !15, line: 871, type: !308, scopeLine: 871, flags: DIFlagPublic | DIFlagPrototyped, spFlags: 0)
!308 = !DISubroutineType(types: !309)
!309 = !{!310, !95}
!310 = !DIDerivedType(tag: DW_TAG_pointer_type, baseType: !311, size: 64)
!311 = !DIDerivedType(tag: DW_TAG_const_type, baseType: !19)
!312 = !DISubprogram(name: "getMemoryManager", linkageName: "_ZN11xalanc_1_1011XalanVectorItNS_31MemoryManagedConstructionTraitsItEEE16getMemoryManagerEv", scope: !14, file: !15, line: 877, type: !313, scopeLine: 877, flags: DIFlagPublic | DIFlagPrototyped, spFlags: 0)
!313 = !DISubroutineType(types: !314)
!314 = !{!36, !35}
!315 = !DISubprogram(name: "detach", linkageName: "_ZN11xalanc_1_1011XalanVectorItNS_31MemoryManagedConstructionTraitsItEEE6detachEv", scope: !14, file: !15, line: 889, type: !316, scopeLine: 889, flags: DIFlagPublic | DIFlagPrototyped, spFlags: 0)
!316 = !DISubroutineType(types: !317)
!317 = !{!318, !35}
!318 = !DIDerivedType(tag: DW_TAG_typedef, name: "pointer", scope: !14, file: !15, line: 67, baseType: !29)
!319 = !DISubprogram(name: "invariants", linkageName: "_ZNK11xalanc_1_1011XalanVectorItNS_31MemoryManagedConstructionTraitsItEEE10invariantsEv", scope: !14, file: !15, line: 905, type: !320, scopeLine: 905, flags: DIFlagPrototyped, spFlags: 0)
!320 = !DISubroutineType(types: !321)
!321 = !{null, !95}
!322 = !DISubprogram(name: "local_distance", linkageName: "_ZN11xalanc_1_1011XalanVectorItNS_31MemoryManagedConstructionTraitsItEEE14local_distanceEPKtS5_", scope: !14, file: !15, line: 918, type: !323, scopeLine: 918, flags: DIFlagPrototyped, spFlags: 0)
!323 = !DISubroutineType(types: !324)
!324 = !{!325, !35, !50, !50}
!325 = !DIDerivedType(tag: DW_TAG_typedef, name: "size_type", scope: !14, file: !15, line: 71, baseType: !24)
!326 = !DISubprogram(name: "allocate", linkageName: "_ZN11xalanc_1_1011XalanVectorItNS_31MemoryManagedConstructionTraitsItEEE8allocateEm", scope: !14, file: !15, line: 938, type: !327, scopeLine: 938, flags: DIFlagPrototyped, spFlags: 0)
!327 = !DISubroutineType(types: !328)
!328 = !{!29, !35, !23}
!329 = !DISubprogram(name: "deallocate", linkageName: "_ZN11xalanc_1_1011XalanVectorItNS_31MemoryManagedConstructionTraitsItEEE10deallocateEPt", scope: !14, file: !15, line: 952, type: !330, scopeLine: 952, flags: DIFlagPrototyped, spFlags: 0)
!330 = !DISubroutineType(types: !331)
!331 = !{null, !35, !29}
!332 = !DISubprogram(name: "destroy", linkageName: "_ZN11xalanc_1_1011XalanVectorItNS_31MemoryManagedConstructionTraitsItEEE7destroyERt", scope: !14, file: !15, line: 961, type: !333, scopeLine: 961, flags: DIFlagPrototyped | DIFlagStaticMember, spFlags: 0)
!333 = !DISubroutineType(types: !334)
!334 = !{null, !112}
!335 = !DISubprogram(name: "destroy", linkageName: "_ZN11xalanc_1_1011XalanVectorItNS_31MemoryManagedConstructionTraitsItEEE7destroyEPtS4_", scope: !14, file: !15, line: 967, type: !336, scopeLine: 967, flags: DIFlagPrototyped | DIFlagStaticMember, spFlags: 0)
!336 = !DISubroutineType(types: !337)
!337 = !{null, !70, !70}
!338 = !DISubprogram(name: "doPushBack", linkageName: "_ZN11xalanc_1_1011XalanVectorItNS_31MemoryManagedConstructionTraitsItEEE10doPushBackERKt", scope: !14, file: !15, line: 978, type: !64, scopeLine: 978, flags: DIFlagPrototyped, spFlags: 0)
!339 = !DISubprogram(name: "ensureCapacity", linkageName: "_ZN11xalanc_1_1011XalanVectorItNS_31MemoryManagedConstructionTraitsItEEE14ensureCapacityEm", scope: !14, file: !15, line: 1006, type: !340, scopeLine: 1006, flags: DIFlagPrototyped, spFlags: 0)
!340 = !DISubroutineType(types: !341)
!341 = !{!318, !35, !23}
!342 = !DISubprogram(name: "doReserve", linkageName: "_ZN11xalanc_1_1011XalanVectorItNS_31MemoryManagedConstructionTraitsItEEE9doReserveEm", scope: !14, file: !15, line: 1017, type: !99, scopeLine: 1017, flags: DIFlagPrototyped, spFlags: 0)
!343 = !DISubprogram(name: "endPointer", linkageName: "_ZN11xalanc_1_1011XalanVectorItNS_31MemoryManagedConstructionTraitsItEEE10endPointerEv", scope: !14, file: !15, line: 1031, type: !316, scopeLine: 1031, flags: DIFlagPrototyped, spFlags: 0)
!344 = !DISubprogram(name: "endPointer", linkageName: "_ZNK11xalanc_1_1011XalanVectorItNS_31MemoryManagedConstructionTraitsItEEE10endPointerEv", scope: !14, file: !15, line: 1037, type: !345, scopeLine: 1037, flags: DIFlagPrototyped, spFlags: 0)
!345 = !DISubroutineType(types: !346)
!346 = !{!347, !95}
!347 = !DIDerivedType(tag: DW_TAG_typedef, name: "const_pointer", scope: !14, file: !15, line: 68, baseType: !51)
!348 = !DISubprogram(name: "outOfRange", linkageName: "_ZN11xalanc_1_1011XalanVectorItNS_31MemoryManagedConstructionTraitsItEEE10outOfRangeEv", scope: !14, file: !15, line: 1043, type: !349, scopeLine: 1043, flags: DIFlagPrototyped | DIFlagStaticMember, spFlags: 0)
!349 = !DISubroutineType(types: !350)
!350 = !{null}
!351 = !DISubprogram(name: "shrinkToSize", linkageName: "_ZN11xalanc_1_1011XalanVectorItNS_31MemoryManagedConstructionTraitsItEEE12shrinkToSizeEm", scope: !14, file: !15, line: 1049, type: !99, scopeLine: 1049, flags: DIFlagPrototyped, spFlags: 0)
!352 = !DISubprogram(name: "shrinkCount", linkageName: "_ZN11xalanc_1_1011XalanVectorItNS_31MemoryManagedConstructionTraitsItEEE11shrinkCountEm", scope: !14, file: !15, line: 1060, type: !99, scopeLine: 1060, flags: DIFlagPrototyped, spFlags: 0)
!353 = !DISubprogram(name: "local_max", linkageName: "_ZN11xalanc_1_1011XalanVectorItNS_31MemoryManagedConstructionTraitsItEEE9local_maxEmm", scope: !14, file: !15, line: 1073, type: !354, scopeLine: 1073, flags: DIFlagPrototyped, spFlags: 0)
!354 = !DISubroutineType(types: !355)
!355 = !{!325, !35, !23, !23}
!356 = !{!357, !358}
!357 = !DITemplateTypeParameter(name: "Type", type: !31)
!358 = !DITemplateTypeParameter(name: "ConstructionTraits", type: !359)
!359 = distinct !DICompositeType(tag: DW_TAG_structure_type, name: "MemoryManagedConstructionTraits<unsigned short>", scope: !2, file: !360, line: 462, size: 8, flags: DIFlagTypePassByValue, elements: !139, templateParams: !361, identifier: "_ZTSN11xalanc_1_1031MemoryManagedConstructionTraitsItEE")
!360 = !DIFile(filename: "./xalanc/Include/XalanMemoryManagement.hpp", directory: "/home/venkat/IF-DV/spec_build_release/CPU_2017/benchspec/CPU/523.xalancbmk_r/build/build_base_ld-loop-ext-m64.0000")
!361 = !{!362}
!362 = !DITemplateTypeParameter(name: "C", type: !31)
!363 = !DIDerivedType(tag: DW_TAG_member, name: "m_size", scope: !5, file: !6, line: 795, baseType: !10, size: 32, offset: 256)
!364 = !DIDerivedType(tag: DW_TAG_member, name: "s_empty", scope: !5, file: !6, line: 797, baseType: !365, flags: DIFlagStaticMember)
!365 = !DIDerivedType(tag: DW_TAG_const_type, baseType: !366)
!366 = !DIDerivedType(tag: DW_TAG_typedef, name: "XalanDOMChar", scope: !2, file: !367, line: 127, baseType: !31)
!367 = !DIFile(filename: "./xalanc/Include/PlatformDefinitions.hpp", directory: "/home/venkat/IF-DV/spec_build_release/CPU_2017/benchspec/CPU/523.xalancbmk_r/build/build_base_ld-loop-ext-m64.0000")
!368 = !DISubprogram(name: "XalanDOMString", scope: !5, file: !6, line: 66, type: !369, scopeLine: 66, flags: DIFlagPublic | DIFlagPrototyped, spFlags: 0)
!369 = !DISubroutineType(types: !370)
!370 = !{null, !371, !372}
!371 = !DIDerivedType(tag: DW_TAG_pointer_type, baseType: !5, size: 64, flags: DIFlagArtificial | DIFlagObjectPointer)
!372 = !DIDerivedType(tag: DW_TAG_reference_type, baseType: !373, size: 64)
!373 = !DIDerivedType(tag: DW_TAG_typedef, name: "MemoryManagerType", scope: !2, file: !360, line: 39, baseType: !19)
!374 = !DISubprogram(name: "XalanDOMString", scope: !5, file: !6, line: 69, type: !375, scopeLine: 69, flags: DIFlagPublic | DIFlagExplicit | DIFlagPrototyped, spFlags: 0)
!375 = !DISubroutineType(types: !376)
!376 = !{null, !371, !377, !372, !10}
!377 = !DIDerivedType(tag: DW_TAG_pointer_type, baseType: !378, size: 64)
!378 = !DIDerivedType(tag: DW_TAG_const_type, baseType: !379)
!379 = !DIBasicType(name: "char", size: 8, encoding: DW_ATE_signed_char)
!380 = !DISubprogram(name: "XalanDOMString", scope: !5, file: !6, line: 74, type: !381, scopeLine: 74, flags: DIFlagPublic | DIFlagPrototyped, spFlags: 0)
!381 = !DISubroutineType(types: !382)
!382 = !{null, !371, !383, !372, !10, !10}
!383 = !DIDerivedType(tag: DW_TAG_reference_type, baseType: !4, size: 64)
!384 = !DISubprogram(name: "XalanDOMString", scope: !5, file: !6, line: 81, type: !385, scopeLine: 81, flags: DIFlagPublic | DIFlagExplicit | DIFlagPrototyped, spFlags: 0)
!385 = !DISubroutineType(types: !386)
!386 = !{null, !371, !387, !372, !10}
!387 = !DIDerivedType(tag: DW_TAG_pointer_type, baseType: !365, size: 64)
!388 = !DISubprogram(name: "XalanDOMString", scope: !5, file: !6, line: 86, type: !389, scopeLine: 86, flags: DIFlagPublic | DIFlagPrototyped, spFlags: 0)
!389 = !DISubroutineType(types: !390)
!390 = !{null, !371, !10, !366, !372}
!391 = !DISubprogram(name: "clone", linkageName: "_ZN11xalanc_1_1014XalanDOMString5cloneERN11xercesc_2_713MemoryManagerE", scope: !5, file: !6, line: 92, type: !392, scopeLine: 92, flags: DIFlagPublic | DIFlagPrototyped, spFlags: 0)
!392 = !DISubroutineType(types: !393)
!393 = !{!394, !371, !372}
!394 = !DIDerivedType(tag: DW_TAG_pointer_type, baseType: !5, size: 64)
!395 = !DISubprogram(name: "~XalanDOMString", scope: !5, file: !6, line: 94, type: !396, scopeLine: 94, flags: DIFlagPublic | DIFlagPrototyped, spFlags: 0)
!396 = !DISubroutineType(types: !397)
!397 = !{null, !371}
!398 = !DISubprogram(name: "operator=", linkageName: "_ZN11xalanc_1_1014XalanDOMStringaSERKS0_", scope: !5, file: !6, line: 99, type: !399, scopeLine: 99, flags: DIFlagPublic | DIFlagPrototyped, spFlags: 0)
!399 = !DISubroutineType(types: !400)
!400 = !{!401, !371, !383}
!401 = !DIDerivedType(tag: DW_TAG_reference_type, baseType: !5, size: 64)
!402 = !DISubprogram(name: "operator=", linkageName: "_ZN11xalanc_1_1014XalanDOMStringaSEPKt", scope: !5, file: !6, line: 105, type: !403, scopeLine: 105, flags: DIFlagPublic | DIFlagPrototyped, spFlags: 0)
!403 = !DISubroutineType(types: !404)
!404 = !{!401, !371, !387}
!405 = !DISubprogram(name: "operator=", linkageName: "_ZN11xalanc_1_1014XalanDOMStringaSEPKc", scope: !5, file: !6, line: 111, type: !406, scopeLine: 111, flags: DIFlagPublic | DIFlagPrototyped, spFlags: 0)
!406 = !DISubroutineType(types: !407)
!407 = !{!401, !371, !377}
!408 = !DISubprogram(name: "operator=", linkageName: "_ZN11xalanc_1_1014XalanDOMStringaSEt", scope: !5, file: !6, line: 117, type: !409, scopeLine: 117, flags: DIFlagPublic | DIFlagPrototyped, spFlags: 0)
!409 = !DISubroutineType(types: !410)
!410 = !{!401, !371, !366}
!411 = !DISubprogram(name: "begin", linkageName: "_ZN11xalanc_1_1014XalanDOMString5beginEv", scope: !5, file: !6, line: 123, type: !412, scopeLine: 123, flags: DIFlagPublic | DIFlagPrototyped, spFlags: 0)
!412 = !DISubroutineType(types: !413)
!413 = !{!414, !371}
!414 = !DIDerivedType(tag: DW_TAG_typedef, name: "iterator", scope: !5, file: !6, line: 55, baseType: !70)
!415 = !DISubprogram(name: "begin", linkageName: "_ZNK11xalanc_1_1014XalanDOMString5beginEv", scope: !5, file: !6, line: 131, type: !416, scopeLine: 131, flags: DIFlagPublic | DIFlagPrototyped, spFlags: 0)
!416 = !DISubroutineType(types: !417)
!417 = !{!418, !419}
!418 = !DIDerivedType(tag: DW_TAG_typedef, name: "const_iterator", scope: !5, file: !6, line: 56, baseType: !50)
!419 = !DIDerivedType(tag: DW_TAG_pointer_type, baseType: !4, size: 64, flags: DIFlagArtificial | DIFlagObjectPointer)
!420 = !DISubprogram(name: "end", linkageName: "_ZN11xalanc_1_1014XalanDOMString3endEv", scope: !5, file: !6, line: 139, type: !412, scopeLine: 139, flags: DIFlagPublic | DIFlagPrototyped, spFlags: 0)
!421 = !DISubprogram(name: "end", linkageName: "_ZNK11xalanc_1_1014XalanDOMString3endEv", scope: !5, file: !6, line: 147, type: !416, scopeLine: 147, flags: DIFlagPublic | DIFlagPrototyped, spFlags: 0)
!422 = !DISubprogram(name: "rbegin", linkageName: "_ZN11xalanc_1_1014XalanDOMString6rbeginEv", scope: !5, file: !6, line: 155, type: !423, scopeLine: 155, flags: DIFlagPublic | DIFlagPrototyped, spFlags: 0)
!423 = !DISubroutineType(types: !424)
!424 = !{!425, !371}
!425 = !DIDerivedType(tag: DW_TAG_typedef, name: "reverse_iterator", scope: !5, file: !6, line: 57, baseType: !130)
!426 = !DISubprogram(name: "rbegin", linkageName: "_ZNK11xalanc_1_1014XalanDOMString6rbeginEv", scope: !5, file: !6, line: 170, type: !427, scopeLine: 170, flags: DIFlagPublic | DIFlagPrototyped, spFlags: 0)
!427 = !DISubroutineType(types: !428)
!428 = !{!429, !419}
!429 = !DIDerivedType(tag: DW_TAG_typedef, name: "const_reverse_iterator", scope: !5, file: !6, line: 58, baseType: !221)
!430 = !DISubprogram(name: "rend", linkageName: "_ZN11xalanc_1_1014XalanDOMString4rendEv", scope: !5, file: !6, line: 185, type: !423, scopeLine: 185, flags: DIFlagPublic | DIFlagPrototyped, spFlags: 0)
!431 = !DISubprogram(name: "rend", linkageName: "_ZNK11xalanc_1_1014XalanDOMString4rendEv", scope: !5, file: !6, line: 193, type: !427, scopeLine: 193, flags: DIFlagPublic | DIFlagPrototyped, spFlags: 0)
!432 = !DISubprogram(name: "size", linkageName: "_ZNK11xalanc_1_1014XalanDOMString4sizeEv", scope: !5, file: !6, line: 201, type: !433, scopeLine: 201, flags: DIFlagPublic | DIFlagPrototyped, spFlags: 0)
!433 = !DISubroutineType(types: !434)
!434 = !{!10, !419}
!435 = !DISubprogram(name: "length", linkageName: "_ZNK11xalanc_1_1014XalanDOMString6lengthEv", scope: !5, file: !6, line: 209, type: !433, scopeLine: 209, flags: DIFlagPublic | DIFlagPrototyped, spFlags: 0)
!436 = !DISubprogram(name: "max_size", linkageName: "_ZNK11xalanc_1_1014XalanDOMString8max_sizeEv", scope: !5, file: !6, line: 217, type: !433, scopeLine: 217, flags: DIFlagPublic | DIFlagPrototyped, spFlags: 0)
!437 = !DISubprogram(name: "resize", linkageName: "_ZN11xalanc_1_1014XalanDOMString6resizeEjt", scope: !5, file: !6, line: 225, type: !438, scopeLine: 225, flags: DIFlagPublic | DIFlagPrototyped, spFlags: 0)
!438 = !DISubroutineType(types: !439)
!439 = !{null, !371, !10, !366}
!440 = !DISubprogram(name: "resize", linkageName: "_ZN11xalanc_1_1014XalanDOMString6resizeEj", scope: !5, file: !6, line: 230, type: !441, scopeLine: 230, flags: DIFlagPublic | DIFlagPrototyped, spFlags: 0)
!441 = !DISubroutineType(types: !442)
!442 = !{null, !371, !10}
!443 = !DISubprogram(name: "capacity", linkageName: "_ZNK11xalanc_1_1014XalanDOMString8capacityEv", scope: !5, file: !6, line: 238, type: !433, scopeLine: 238, flags: DIFlagPublic | DIFlagPrototyped, spFlags: 0)
!444 = !DISubprogram(name: "reserve", linkageName: "_ZN11xalanc_1_1014XalanDOMString7reserveEj", scope: !5, file: !6, line: 249, type: !441, scopeLine: 249, flags: DIFlagPublic | DIFlagPrototyped, spFlags: 0)
!445 = !DISubprogram(name: "clear", linkageName: "_ZN11xalanc_1_1014XalanDOMString5clearEv", scope: !5, file: !6, line: 257, type: !396, scopeLine: 257, flags: DIFlagPublic | DIFlagPrototyped, spFlags: 0)
!446 = !DISubprogram(name: "erase", linkageName: "_ZN11xalanc_1_1014XalanDOMString5eraseEjj", scope: !5, file: !6, line: 269, type: !447, scopeLine: 269, flags: DIFlagPublic | DIFlagPrototyped, spFlags: 0)
!447 = !DISubroutineType(types: !448)
!448 = !{null, !371, !10, !10}
!449 = !DISubprogram(name: "empty", linkageName: "_ZNK11xalanc_1_1014XalanDOMString5emptyEv", scope: !5, file: !6, line: 274, type: !450, scopeLine: 274, flags: DIFlagPublic | DIFlagPrototyped, spFlags: 0)
!450 = !DISubroutineType(types: !451)
!451 = !{!106, !419}
!452 = !DISubprogram(name: "operator[]", linkageName: "_ZNK11xalanc_1_1014XalanDOMStringixEj", scope: !5, file: !6, line: 282, type: !453, scopeLine: 282, flags: DIFlagPublic | DIFlagPrototyped, spFlags: 0)
!453 = !DISubroutineType(types: !454)
!454 = !{!455, !419, !10}
!455 = !DIDerivedType(tag: DW_TAG_typedef, name: "const_reference", scope: !5, file: !6, line: 51, baseType: !456)
!456 = !DIDerivedType(tag: DW_TAG_reference_type, baseType: !365, size: 64)
!457 = !DISubprogram(name: "operator[]", linkageName: "_ZN11xalanc_1_1014XalanDOMStringixEj", scope: !5, file: !6, line: 290, type: !458, scopeLine: 290, flags: DIFlagPublic | DIFlagPrototyped, spFlags: 0)
!458 = !DISubroutineType(types: !459)
!459 = !{!460, !371, !10}
!460 = !DIDerivedType(tag: DW_TAG_typedef, name: "reference", scope: !5, file: !6, line: 50, baseType: !461)
!461 = !DIDerivedType(tag: DW_TAG_reference_type, baseType: !366, size: 64)
!462 = !DISubprogram(name: "at", linkageName: "_ZNK11xalanc_1_1014XalanDOMString2atEj", scope: !5, file: !6, line: 298, type: !453, scopeLine: 298, flags: DIFlagPublic | DIFlagPrototyped, spFlags: 0)
!463 = !DISubprogram(name: "at", linkageName: "_ZN11xalanc_1_1014XalanDOMString2atEj", scope: !5, file: !6, line: 306, type: !458, scopeLine: 306, flags: DIFlagPublic | DIFlagPrototyped, spFlags: 0)
!464 = !DISubprogram(name: "c_str", linkageName: "_ZNK11xalanc_1_1014XalanDOMString5c_strEv", scope: !5, file: !6, line: 314, type: !465, scopeLine: 314, flags: DIFlagPublic | DIFlagPrototyped, spFlags: 0)
!465 = !DISubroutineType(types: !466)
!466 = !{!387, !419}
!467 = !DISubprogram(name: "data", linkageName: "_ZNK11xalanc_1_1014XalanDOMString4dataEv", scope: !5, file: !6, line: 322, type: !465, scopeLine: 322, flags: DIFlagPublic | DIFlagPrototyped, spFlags: 0)
!468 = !DISubprogram(name: "swap", linkageName: "_ZN11xalanc_1_1014XalanDOMString4swapERS0_", scope: !5, file: !6, line: 330, type: !469, scopeLine: 330, flags: DIFlagPublic | DIFlagPrototyped, spFlags: 0)
!469 = !DISubroutineType(types: !470)
!470 = !{null, !371, !401}
!471 = !DISubprogram(name: "operator+=", linkageName: "_ZN11xalanc_1_1014XalanDOMStringpLERKS0_", scope: !5, file: !6, line: 344, type: !399, scopeLine: 344, flags: DIFlagPublic | DIFlagPrototyped, spFlags: 0)
!472 = !DISubprogram(name: "operator+=", linkageName: "_ZN11xalanc_1_1014XalanDOMStringpLEPKt", scope: !5, file: !6, line: 350, type: !403, scopeLine: 350, flags: DIFlagPublic | DIFlagPrototyped, spFlags: 0)
!473 = !DISubprogram(name: "operator+=", linkageName: "_ZN11xalanc_1_1014XalanDOMStringpLEt", scope: !5, file: !6, line: 356, type: !409, scopeLine: 356, flags: DIFlagPublic | DIFlagPrototyped, spFlags: 0)
!474 = !DISubprogram(name: "assign", linkageName: "_ZN11xalanc_1_1014XalanDOMString6assignEPKt", scope: !5, file: !6, line: 364, type: !403, scopeLine: 364, flags: DIFlagPublic | DIFlagPrototyped, spFlags: 0)
!475 = !DISubprogram(name: "assign", linkageName: "_ZN11xalanc_1_1014XalanDOMString6assignEPKtj", scope: !5, file: !6, line: 376, type: !476, scopeLine: 376, flags: DIFlagPublic | DIFlagPrototyped, spFlags: 0)
!476 = !DISubroutineType(types: !477)
!477 = !{!401, !371, !387, !10}
!478 = !DISubprogram(name: "assign", linkageName: "_ZN11xalanc_1_1014XalanDOMString6assignEPKc", scope: !5, file: !6, line: 390, type: !406, scopeLine: 390, flags: DIFlagPublic | DIFlagPrototyped, spFlags: 0)
!479 = !DISubprogram(name: "assign", linkageName: "_ZN11xalanc_1_1014XalanDOMString6assignEPKcj", scope: !5, file: !6, line: 402, type: !480, scopeLine: 402, flags: DIFlagPublic | DIFlagPrototyped, spFlags: 0)
!480 = !DISubroutineType(types: !481)
!481 = !{!401, !371, !377, !10}
!482 = !DISubprogram(name: "assign", linkageName: "_ZN11xalanc_1_1014XalanDOMString6assignERKS0_jj", scope: !5, file: !6, line: 416, type: !483, scopeLine: 416, flags: DIFlagPublic | DIFlagPrototyped, spFlags: 0)
!483 = !DISubroutineType(types: !484)
!484 = !{!401, !371, !383, !10, !10}
!485 = !DISubprogram(name: "assign", linkageName: "_ZN11xalanc_1_1014XalanDOMString6assignERKS0_", scope: !5, file: !6, line: 422, type: !399, scopeLine: 422, flags: DIFlagPublic | DIFlagPrototyped, spFlags: 0)
!486 = !DISubprogram(name: "assign", linkageName: "_ZN11xalanc_1_1014XalanDOMString6assignEjt", scope: !5, file: !6, line: 439, type: !487, scopeLine: 439, flags: DIFlagPublic | DIFlagPrototyped, spFlags: 0)
!487 = !DISubroutineType(types: !488)
!488 = !{!401, !371, !10, !366}
!489 = !DISubprogram(name: "assign", linkageName: "_ZN11xalanc_1_1014XalanDOMString6assignEPtS1_", scope: !5, file: !6, line: 453, type: !490, scopeLine: 453, flags: DIFlagPublic | DIFlagPrototyped, spFlags: 0)
!490 = !DISubroutineType(types: !491)
!491 = !{!401, !371, !414, !414}
!492 = !DISubprogram(name: "append", linkageName: "_ZN11xalanc_1_1014XalanDOMString6appendERKS0_", scope: !5, file: !6, line: 458, type: !399, scopeLine: 458, flags: DIFlagPublic | DIFlagPrototyped, spFlags: 0)
!493 = !DISubprogram(name: "append", linkageName: "_ZN11xalanc_1_1014XalanDOMString6appendERKS0_jj", scope: !5, file: !6, line: 464, type: !483, scopeLine: 464, flags: DIFlagPublic | DIFlagPrototyped, spFlags: 0)
!494 = !DISubprogram(name: "append", linkageName: "_ZN11xalanc_1_1014XalanDOMString6appendEPKtj", scope: !5, file: !6, line: 476, type: !476, scopeLine: 476, flags: DIFlagPublic | DIFlagPrototyped, spFlags: 0)
!495 = !DISubprogram(name: "append", linkageName: "_ZN11xalanc_1_1014XalanDOMString6appendEPKt", scope: !5, file: !6, line: 481, type: !403, scopeLine: 481, flags: DIFlagPublic | DIFlagPrototyped, spFlags: 0)
!496 = !DISubprogram(name: "append", linkageName: "_ZN11xalanc_1_1014XalanDOMString6appendEPKcj", scope: !5, file: !6, line: 487, type: !480, scopeLine: 487, flags: DIFlagPublic | DIFlagPrototyped, spFlags: 0)
!497 = !DISubprogram(name: "append", linkageName: "_ZN11xalanc_1_1014XalanDOMString6appendEPKc", scope: !5, file: !6, line: 492, type: !406, scopeLine: 492, flags: DIFlagPublic | DIFlagPrototyped, spFlags: 0)
!498 = !DISubprogram(name: "append", linkageName: "_ZN11xalanc_1_1014XalanDOMString6appendEjt", scope: !5, file: !6, line: 498, type: !487, scopeLine: 498, flags: DIFlagPublic | DIFlagPrototyped, spFlags: 0)
!499 = !DISubprogram(name: "push_back", linkageName: "_ZN11xalanc_1_1014XalanDOMString9push_backEt", scope: !5, file: !6, line: 503, type: !500, scopeLine: 503, flags: DIFlagPublic | DIFlagPrototyped, spFlags: 0)
!500 = !DISubroutineType(types: !501)
!501 = !{null, !371, !366}
!502 = !DISubprogram(name: "insert", linkageName: "_ZN11xalanc_1_1014XalanDOMString6insertEjRKS0_", scope: !5, file: !6, line: 513, type: !503, scopeLine: 513, flags: DIFlagPublic | DIFlagPrototyped, spFlags: 0)
!503 = !DISubroutineType(types: !504)
!504 = !{!401, !371, !10, !383}
!505 = !DISubprogram(name: "insert", linkageName: "_ZN11xalanc_1_1014XalanDOMString6insertEjRKS0_jj", scope: !5, file: !6, line: 521, type: !506, scopeLine: 521, flags: DIFlagPublic | DIFlagPrototyped, spFlags: 0)
!506 = !DISubroutineType(types: !507)
!507 = !{!401, !371, !10, !383, !10, !10}
!508 = !DISubprogram(name: "insert", linkageName: "_ZN11xalanc_1_1014XalanDOMString6insertEjPKtj", scope: !5, file: !6, line: 531, type: !509, scopeLine: 531, flags: DIFlagPublic | DIFlagPrototyped, spFlags: 0)
!509 = !DISubroutineType(types: !510)
!510 = !{!401, !371, !10, !387, !10}
!511 = !DISubprogram(name: "insert", linkageName: "_ZN11xalanc_1_1014XalanDOMString6insertEjPKt", scope: !5, file: !6, line: 537, type: !512, scopeLine: 537, flags: DIFlagPublic | DIFlagPrototyped, spFlags: 0)
!512 = !DISubroutineType(types: !513)
!513 = !{!401, !371, !10, !387}
!514 = !DISubprogram(name: "insert", linkageName: "_ZN11xalanc_1_1014XalanDOMString6insertEjjt", scope: !5, file: !6, line: 545, type: !515, scopeLine: 545, flags: DIFlagPublic | DIFlagPrototyped, spFlags: 0)
!515 = !DISubroutineType(types: !516)
!516 = !{!401, !371, !10, !10, !366}
!517 = !DISubprogram(name: "insert", linkageName: "_ZN11xalanc_1_1014XalanDOMString6insertEPtt", scope: !5, file: !6, line: 551, type: !518, scopeLine: 551, flags: DIFlagPublic | DIFlagPrototyped, spFlags: 0)
!518 = !DISubroutineType(types: !519)
!519 = !{!414, !371, !414, !366}
!520 = !DISubprogram(name: "insert", linkageName: "_ZN11xalanc_1_1014XalanDOMString6insertEPtjt", scope: !5, file: !6, line: 556, type: !521, scopeLine: 556, flags: DIFlagPublic | DIFlagPrototyped, spFlags: 0)
!521 = !DISubroutineType(types: !522)
!522 = !{null, !371, !414, !10, !366}
!523 = !DISubprogram(name: "insert", linkageName: "_ZN11xalanc_1_1014XalanDOMString6insertEPtS1_S1_", scope: !5, file: !6, line: 562, type: !524, scopeLine: 562, flags: DIFlagPublic | DIFlagPrototyped, spFlags: 0)
!524 = !DISubroutineType(types: !525)
!525 = !{null, !371, !414, !414, !414}
!526 = !DISubprogram(name: "substr", linkageName: "_ZNK11xalanc_1_1014XalanDOMString6substrERS0_jj", scope: !5, file: !6, line: 569, type: !527, scopeLine: 569, flags: DIFlagPublic | DIFlagPrototyped, spFlags: 0)
!527 = !DISubroutineType(types: !528)
!528 = !{!401, !419, !401, !10, !10}
!529 = !DISubprogram(name: "compare", linkageName: "_ZNK11xalanc_1_1014XalanDOMString7compareERKS0_", scope: !5, file: !6, line: 583, type: !530, scopeLine: 583, flags: DIFlagPublic | DIFlagPrototyped, spFlags: 0)
!530 = !DISubroutineType(types: !531)
!531 = !{!200, !419, !383}
!532 = !DISubprogram(name: "compare", linkageName: "_ZNK11xalanc_1_1014XalanDOMString7compareEjjRKS0_", scope: !5, file: !6, line: 591, type: !533, scopeLine: 591, flags: DIFlagPublic | DIFlagPrototyped, spFlags: 0)
!533 = !DISubroutineType(types: !534)
!534 = !{!200, !419, !10, !10, !383}
!535 = !DISubprogram(name: "compare", linkageName: "_ZNK11xalanc_1_1014XalanDOMString7compareEjjRKS0_jj", scope: !5, file: !6, line: 602, type: !536, scopeLine: 602, flags: DIFlagPublic | DIFlagPrototyped, spFlags: 0)
!536 = !DISubroutineType(types: !537)
!537 = !{!200, !419, !10, !10, !383, !10, !10}
!538 = !DISubprogram(name: "compare", linkageName: "_ZNK11xalanc_1_1014XalanDOMString7compareEPKt", scope: !5, file: !6, line: 615, type: !539, scopeLine: 615, flags: DIFlagPublic | DIFlagPrototyped, spFlags: 0)
!539 = !DISubroutineType(types: !540)
!540 = !{!200, !419, !387}
!541 = !DISubprogram(name: "compare", linkageName: "_ZNK11xalanc_1_1014XalanDOMString7compareEjjPKtj", scope: !5, file: !6, line: 618, type: !542, scopeLine: 618, flags: DIFlagPublic | DIFlagPrototyped, spFlags: 0)
!542 = !DISubroutineType(types: !543)
!543 = !{!200, !419, !10, !10, !387, !10}
!544 = !DISubprogram(name: "reset", linkageName: "_ZN11xalanc_1_1014XalanDOMString5resetERN11xercesc_2_713MemoryManagerEPKc", scope: !5, file: !6, line: 626, type: !545, scopeLine: 626, flags: DIFlagPublic | DIFlagPrototyped, spFlags: 0)
!545 = !DISubroutineType(types: !546)
!546 = !{null, !371, !372, !377}
!547 = !DISubprogram(name: "reset", linkageName: "_ZN11xalanc_1_1014XalanDOMString5resetERN11xercesc_2_713MemoryManagerEPKt", scope: !5, file: !6, line: 629, type: !548, scopeLine: 629, flags: DIFlagPublic | DIFlagPrototyped, spFlags: 0)
!548 = !DISubroutineType(types: !549)
!549 = !{null, !371, !372, !387}
!550 = !DISubprogram(name: "transcode", linkageName: "_ZNK11xalanc_1_1014XalanDOMString9transcodeERNS_11XalanVectorIcNS_31MemoryManagedConstructionTraitsIcEEEE", scope: !5, file: !6, line: 656, type: !551, scopeLine: 656, flags: DIFlagPublic | DIFlagPrototyped, spFlags: 0)
!551 = !DISubroutineType(types: !552)
!552 = !{null, !419, !553}
!553 = !DIDerivedType(tag: DW_TAG_reference_type, baseType: !554, size: 64)
!554 = !DIDerivedType(tag: DW_TAG_typedef, name: "CharVectorType", scope: !5, file: !6, line: 46, baseType: !555)
!555 = distinct !DICompositeType(tag: DW_TAG_class_type, name: "XalanVector<char, xalanc_1_10::MemoryManagedConstructionTraits<char> >", scope: !2, file: !15, line: 61, size: 256, flags: DIFlagTypePassByReference | DIFlagNonTrivial, elements: !556, templateParams: !731, identifier: "_ZTSN11xalanc_1_1011XalanVectorIcNS_31MemoryManagedConstructionTraitsIcEEEE")
!556 = !{!557, !558, !559, !560, !563, !567, !571, !577, !583, !586, !590, !593, !596, !597, !601, !604, !607, !610, !613, !616, !619, !622, !627, !628, !631, !632, !633, !636, !637, !642, !646, !647, !648, !651, !654, !655, !656, !662, !668, !669, !670, !673, !676, !677, !678, !679, !683, !686, !689, !692, !696, !699, !703, !706, !709, !712, !715, !716, !719, !720, !721, !725, !726, !727, !728}
!557 = !DIDerivedType(tag: DW_TAG_member, name: "m_memoryManager", scope: !555, file: !15, line: 1087, baseType: !18, size: 64)
!558 = !DIDerivedType(tag: DW_TAG_member, name: "m_size", scope: !555, file: !15, line: 1089, baseType: !23, size: 64, offset: 64)
!559 = !DIDerivedType(tag: DW_TAG_member, name: "m_allocation", scope: !555, file: !15, line: 1091, baseType: !23, size: 64, offset: 128)
!560 = !DIDerivedType(tag: DW_TAG_member, name: "m_data", scope: !555, file: !15, line: 1093, baseType: !561, size: 64, offset: 192)
!561 = !DIDerivedType(tag: DW_TAG_pointer_type, baseType: !562, size: 64)
!562 = !DIDerivedType(tag: DW_TAG_typedef, name: "value_type", scope: !555, file: !15, line: 66, baseType: !379)
!563 = !DISubprogram(name: "XalanVector", scope: !555, file: !15, line: 120, type: !564, scopeLine: 120, flags: DIFlagPublic | DIFlagPrototyped, spFlags: 0)
!564 = !DISubroutineType(types: !565)
!565 = !{null, !566, !36, !23}
!566 = !DIDerivedType(tag: DW_TAG_pointer_type, baseType: !555, size: 64, flags: DIFlagArtificial | DIFlagObjectPointer)
!567 = !DISubprogram(name: "create", linkageName: "_ZN11xalanc_1_1011XalanVectorIcNS_31MemoryManagedConstructionTraitsIcEEE6createERN11xercesc_2_713MemoryManagerEm", scope: !555, file: !15, line: 132, type: !568, scopeLine: 132, flags: DIFlagPublic | DIFlagPrototyped | DIFlagStaticMember, spFlags: 0)
!568 = !DISubroutineType(types: !569)
!569 = !{!570, !36, !23}
!570 = !DIDerivedType(tag: DW_TAG_pointer_type, baseType: !555, size: 64)
!571 = !DISubprogram(name: "XalanVector", scope: !555, file: !15, line: 149, type: !572, scopeLine: 149, flags: DIFlagPublic | DIFlagPrototyped, spFlags: 0)
!572 = !DISubroutineType(types: !573)
!573 = !{null, !566, !574, !36, !23}
!574 = !DIDerivedType(tag: DW_TAG_reference_type, baseType: !575, size: 64)
!575 = !DIDerivedType(tag: DW_TAG_const_type, baseType: !576)
!576 = !DIDerivedType(tag: DW_TAG_typedef, name: "ThisType", scope: !555, file: !15, line: 115, baseType: !555)
!577 = !DISubprogram(name: "XalanVector", scope: !555, file: !15, line: 177, type: !578, scopeLine: 177, flags: DIFlagPublic | DIFlagPrototyped, spFlags: 0)
!578 = !DISubroutineType(types: !579)
!579 = !{null, !566, !580, !580, !36}
!580 = !DIDerivedType(tag: DW_TAG_typedef, name: "const_iterator", scope: !555, file: !15, line: 92, baseType: !581)
!581 = !DIDerivedType(tag: DW_TAG_pointer_type, baseType: !582, size: 64)
!582 = !DIDerivedType(tag: DW_TAG_const_type, baseType: !562)
!583 = !DISubprogram(name: "create", linkageName: "_ZN11xalanc_1_1011XalanVectorIcNS_31MemoryManagedConstructionTraitsIcEEE6createEPKcS5_RN11xercesc_2_713MemoryManagerE", scope: !555, file: !15, line: 197, type: !584, scopeLine: 197, flags: DIFlagPublic | DIFlagPrototyped | DIFlagStaticMember, spFlags: 0)
!584 = !DISubroutineType(types: !585)
!585 = !{!570, !580, !580, !36}
!586 = !DISubprogram(name: "XalanVector", scope: !555, file: !15, line: 215, type: !587, scopeLine: 215, flags: DIFlagPublic | DIFlagPrototyped, spFlags: 0)
!587 = !DISubroutineType(types: !588)
!588 = !{null, !566, !23, !589, !36}
!589 = !DIDerivedType(tag: DW_TAG_reference_type, baseType: !582, size: 64)
!590 = !DISubprogram(name: "~XalanVector", scope: !555, file: !15, line: 233, type: !591, scopeLine: 233, flags: DIFlagPublic | DIFlagPrototyped, spFlags: 0)
!591 = !DISubroutineType(types: !592)
!592 = !{null, !566}
!593 = !DISubprogram(name: "push_back", linkageName: "_ZN11xalanc_1_1011XalanVectorIcNS_31MemoryManagedConstructionTraitsIcEEE9push_backERKc", scope: !555, file: !15, line: 246, type: !594, scopeLine: 246, flags: DIFlagPublic | DIFlagPrototyped, spFlags: 0)
!594 = !DISubroutineType(types: !595)
!595 = !{null, !566, !589}
!596 = !DISubprogram(name: "pop_back", linkageName: "_ZN11xalanc_1_1011XalanVectorIcNS_31MemoryManagedConstructionTraitsIcEEE8pop_backEv", scope: !555, file: !15, line: 256, type: !591, scopeLine: 256, flags: DIFlagPublic | DIFlagPrototyped, spFlags: 0)
!597 = !DISubprogram(name: "erase", linkageName: "_ZN11xalanc_1_1011XalanVectorIcNS_31MemoryManagedConstructionTraitsIcEEE5eraseEPcS4_", scope: !555, file: !15, line: 268, type: !598, scopeLine: 268, flags: DIFlagPublic | DIFlagPrototyped, spFlags: 0)
!598 = !DISubroutineType(types: !599)
!599 = !{!600, !566, !600, !600}
!600 = !DIDerivedType(tag: DW_TAG_typedef, name: "iterator", scope: !555, file: !15, line: 91, baseType: !561)
!601 = !DISubprogram(name: "erase", linkageName: "_ZN11xalanc_1_1011XalanVectorIcNS_31MemoryManagedConstructionTraitsIcEEE5eraseEPc", scope: !555, file: !15, line: 290, type: !602, scopeLine: 290, flags: DIFlagPublic | DIFlagPrototyped, spFlags: 0)
!602 = !DISubroutineType(types: !603)
!603 = !{!600, !566, !600}
!604 = !DISubprogram(name: "insert", linkageName: "_ZN11xalanc_1_1011XalanVectorIcNS_31MemoryManagedConstructionTraitsIcEEE6insertEPcPKcS6_", scope: !555, file: !15, line: 296, type: !605, scopeLine: 296, flags: DIFlagPublic | DIFlagPrototyped, spFlags: 0)
!605 = !DISubroutineType(types: !606)
!606 = !{null, !566, !600, !580, !580}
!607 = !DISubprogram(name: "insert", linkageName: "_ZN11xalanc_1_1011XalanVectorIcNS_31MemoryManagedConstructionTraitsIcEEE6insertEPcmRKc", scope: !555, file: !15, line: 415, type: !608, scopeLine: 415, flags: DIFlagPublic | DIFlagPrototyped, spFlags: 0)
!608 = !DISubroutineType(types: !609)
!609 = !{null, !566, !600, !23, !589}
!610 = !DISubprogram(name: "insert", linkageName: "_ZN11xalanc_1_1011XalanVectorIcNS_31MemoryManagedConstructionTraitsIcEEE6insertEPcRKc", scope: !555, file: !15, line: 516, type: !611, scopeLine: 516, flags: DIFlagPublic | DIFlagPrototyped, spFlags: 0)
!611 = !DISubroutineType(types: !612)
!612 = !{!600, !566, !600, !589}
!613 = !DISubprogram(name: "assign", linkageName: "_ZN11xalanc_1_1011XalanVectorIcNS_31MemoryManagedConstructionTraitsIcEEE6assignEPKcS5_", scope: !555, file: !15, line: 538, type: !614, scopeLine: 538, flags: DIFlagPublic | DIFlagPrototyped, spFlags: 0)
!614 = !DISubroutineType(types: !615)
!615 = !{null, !566, !580, !580}
!616 = !DISubprogram(name: "assign", linkageName: "_ZN11xalanc_1_1011XalanVectorIcNS_31MemoryManagedConstructionTraitsIcEEE6assignEPcS4_", scope: !555, file: !15, line: 551, type: !617, scopeLine: 551, flags: DIFlagPublic | DIFlagPrototyped, spFlags: 0)
!617 = !DISubroutineType(types: !618)
!618 = !{null, !566, !600, !600}
!619 = !DISubprogram(name: "assign", linkageName: "_ZN11xalanc_1_1011XalanVectorIcNS_31MemoryManagedConstructionTraitsIcEEE6assignEmRKc", scope: !555, file: !15, line: 561, type: !620, scopeLine: 561, flags: DIFlagPublic | DIFlagPrototyped, spFlags: 0)
!620 = !DISubroutineType(types: !621)
!621 = !{null, !566, !23, !589}
!622 = !DISubprogram(name: "size", linkageName: "_ZNK11xalanc_1_1011XalanVectorIcNS_31MemoryManagedConstructionTraitsIcEEE4sizeEv", scope: !555, file: !15, line: 571, type: !623, scopeLine: 571, flags: DIFlagPublic | DIFlagPrototyped, spFlags: 0)
!623 = !DISubroutineType(types: !624)
!624 = !{!23, !625}
!625 = !DIDerivedType(tag: DW_TAG_pointer_type, baseType: !626, size: 64, flags: DIFlagArtificial | DIFlagObjectPointer)
!626 = !DIDerivedType(tag: DW_TAG_const_type, baseType: !555)
!627 = !DISubprogram(name: "max_size", linkageName: "_ZNK11xalanc_1_1011XalanVectorIcNS_31MemoryManagedConstructionTraitsIcEEE8max_sizeEv", scope: !555, file: !15, line: 579, type: !623, scopeLine: 579, flags: DIFlagPublic | DIFlagPrototyped, spFlags: 0)
!628 = !DISubprogram(name: "resize", linkageName: "_ZN11xalanc_1_1011XalanVectorIcNS_31MemoryManagedConstructionTraitsIcEEE6resizeEm", scope: !555, file: !15, line: 587, type: !629, scopeLine: 587, flags: DIFlagPublic | DIFlagPrototyped, spFlags: 0)
!629 = !DISubroutineType(types: !630)
!630 = !{null, !566, !23}
!631 = !DISubprogram(name: "resize", linkageName: "_ZN11xalanc_1_1011XalanVectorIcNS_31MemoryManagedConstructionTraitsIcEEE6resizeEmRKc", scope: !555, file: !15, line: 595, type: !620, scopeLine: 595, flags: DIFlagPublic | DIFlagPrototyped, spFlags: 0)
!632 = !DISubprogram(name: "capacity", linkageName: "_ZNK11xalanc_1_1011XalanVectorIcNS_31MemoryManagedConstructionTraitsIcEEE8capacityEv", scope: !555, file: !15, line: 628, type: !623, scopeLine: 628, flags: DIFlagPublic | DIFlagPrototyped, spFlags: 0)
!633 = !DISubprogram(name: "empty", linkageName: "_ZNK11xalanc_1_1011XalanVectorIcNS_31MemoryManagedConstructionTraitsIcEEE5emptyEv", scope: !555, file: !15, line: 636, type: !634, scopeLine: 636, flags: DIFlagPublic | DIFlagPrototyped, spFlags: 0)
!634 = !DISubroutineType(types: !635)
!635 = !{!106, !625}
!636 = !DISubprogram(name: "reserve", linkageName: "_ZN11xalanc_1_1011XalanVectorIcNS_31MemoryManagedConstructionTraitsIcEEE7reserveEm", scope: !555, file: !15, line: 644, type: !629, scopeLine: 644, flags: DIFlagPublic | DIFlagPrototyped, spFlags: 0)
!637 = !DISubprogram(name: "front", linkageName: "_ZN11xalanc_1_1011XalanVectorIcNS_31MemoryManagedConstructionTraitsIcEEE5frontEv", scope: !555, file: !15, line: 657, type: !638, scopeLine: 657, flags: DIFlagPublic | DIFlagPrototyped, spFlags: 0)
!638 = !DISubroutineType(types: !639)
!639 = !{!640, !566}
!640 = !DIDerivedType(tag: DW_TAG_typedef, name: "reference", scope: !555, file: !15, line: 69, baseType: !641)
!641 = !DIDerivedType(tag: DW_TAG_reference_type, baseType: !562, size: 64)
!642 = !DISubprogram(name: "front", linkageName: "_ZNK11xalanc_1_1011XalanVectorIcNS_31MemoryManagedConstructionTraitsIcEEE5frontEv", scope: !555, file: !15, line: 665, type: !643, scopeLine: 665, flags: DIFlagPublic | DIFlagPrototyped, spFlags: 0)
!643 = !DISubroutineType(types: !644)
!644 = !{!645, !625}
!645 = !DIDerivedType(tag: DW_TAG_typedef, name: "const_reference", scope: !555, file: !15, line: 70, baseType: !589)
!646 = !DISubprogram(name: "back", linkageName: "_ZN11xalanc_1_1011XalanVectorIcNS_31MemoryManagedConstructionTraitsIcEEE4backEv", scope: !555, file: !15, line: 673, type: !638, scopeLine: 673, flags: DIFlagPublic | DIFlagPrototyped, spFlags: 0)
!647 = !DISubprogram(name: "back", linkageName: "_ZNK11xalanc_1_1011XalanVectorIcNS_31MemoryManagedConstructionTraitsIcEEE4backEv", scope: !555, file: !15, line: 679, type: !643, scopeLine: 679, flags: DIFlagPublic | DIFlagPrototyped, spFlags: 0)
!648 = !DISubprogram(name: "begin", linkageName: "_ZN11xalanc_1_1011XalanVectorIcNS_31MemoryManagedConstructionTraitsIcEEE5beginEv", scope: !555, file: !15, line: 685, type: !649, scopeLine: 685, flags: DIFlagPublic | DIFlagPrototyped, spFlags: 0)
!649 = !DISubroutineType(types: !650)
!650 = !{!600, !566}
!651 = !DISubprogram(name: "begin", linkageName: "_ZNK11xalanc_1_1011XalanVectorIcNS_31MemoryManagedConstructionTraitsIcEEE5beginEv", scope: !555, file: !15, line: 693, type: !652, scopeLine: 693, flags: DIFlagPublic | DIFlagPrototyped, spFlags: 0)
!652 = !DISubroutineType(types: !653)
!653 = !{!580, !625}
!654 = !DISubprogram(name: "end", linkageName: "_ZN11xalanc_1_1011XalanVectorIcNS_31MemoryManagedConstructionTraitsIcEEE3endEv", scope: !555, file: !15, line: 701, type: !649, scopeLine: 701, flags: DIFlagPublic | DIFlagPrototyped, spFlags: 0)
!655 = !DISubprogram(name: "end", linkageName: "_ZNK11xalanc_1_1011XalanVectorIcNS_31MemoryManagedConstructionTraitsIcEEE3endEv", scope: !555, file: !15, line: 709, type: !652, scopeLine: 709, flags: DIFlagPublic | DIFlagPrototyped, spFlags: 0)
!656 = !DISubprogram(name: "rbegin", linkageName: "_ZN11xalanc_1_1011XalanVectorIcNS_31MemoryManagedConstructionTraitsIcEEE6rbeginEv", scope: !555, file: !15, line: 717, type: !657, scopeLine: 717, flags: DIFlagPublic | DIFlagPrototyped, spFlags: 0)
!657 = !DISubroutineType(types: !658)
!658 = !{!659, !566}
!659 = !DIDerivedType(tag: DW_TAG_typedef, name: "reverse_iterator", scope: !555, file: !15, line: 112, baseType: !660)
!660 = !DIDerivedType(tag: DW_TAG_typedef, name: "reverse_iterator_", scope: !555, file: !15, line: 96, baseType: !661)
!661 = !DICompositeType(tag: DW_TAG_class_type, name: "reverse_iterator<char *>", scope: !134, file: !133, line: 125, flags: DIFlagFwdDecl, identifier: "_ZTSSt16reverse_iteratorIPcE")
!662 = !DISubprogram(name: "rbegin", linkageName: "_ZNK11xalanc_1_1011XalanVectorIcNS_31MemoryManagedConstructionTraitsIcEEE6rbeginEv", scope: !555, file: !15, line: 725, type: !663, scopeLine: 725, flags: DIFlagPublic | DIFlagPrototyped, spFlags: 0)
!663 = !DISubroutineType(types: !664)
!664 = !{!665, !625}
!665 = !DIDerivedType(tag: DW_TAG_typedef, name: "const_reverse_iterator", scope: !555, file: !15, line: 113, baseType: !666)
!666 = !DIDerivedType(tag: DW_TAG_typedef, name: "const_reverse_iterator_", scope: !555, file: !15, line: 97, baseType: !667)
!667 = !DICompositeType(tag: DW_TAG_class_type, name: "reverse_iterator<const char *>", scope: !134, file: !133, line: 125, flags: DIFlagFwdDecl, identifier: "_ZTSSt16reverse_iteratorIPKcE")
!668 = !DISubprogram(name: "rend", linkageName: "_ZN11xalanc_1_1011XalanVectorIcNS_31MemoryManagedConstructionTraitsIcEEE4rendEv", scope: !555, file: !15, line: 733, type: !657, scopeLine: 733, flags: DIFlagPublic | DIFlagPrototyped, spFlags: 0)
!669 = !DISubprogram(name: "rend", linkageName: "_ZNK11xalanc_1_1011XalanVectorIcNS_31MemoryManagedConstructionTraitsIcEEE4rendEv", scope: !555, file: !15, line: 741, type: !663, scopeLine: 741, flags: DIFlagPublic | DIFlagPrototyped, spFlags: 0)
!670 = !DISubprogram(name: "at", linkageName: "_ZN11xalanc_1_1011XalanVectorIcNS_31MemoryManagedConstructionTraitsIcEEE2atEm", scope: !555, file: !15, line: 750, type: !671, scopeLine: 750, flags: DIFlagPublic | DIFlagPrototyped, spFlags: 0)
!671 = !DISubroutineType(types: !672)
!672 = !{!640, !566, !23}
!673 = !DISubprogram(name: "at", linkageName: "_ZNK11xalanc_1_1011XalanVectorIcNS_31MemoryManagedConstructionTraitsIcEEE2atEm", scope: !555, file: !15, line: 761, type: !674, scopeLine: 761, flags: DIFlagPublic | DIFlagPrototyped, spFlags: 0)
!674 = !DISubroutineType(types: !675)
!675 = !{!645, !625, !23}
!676 = !DISubprogram(name: "operator[]", linkageName: "_ZN11xalanc_1_1011XalanVectorIcNS_31MemoryManagedConstructionTraitsIcEEEixEm", scope: !555, file: !15, line: 772, type: !671, scopeLine: 772, flags: DIFlagPublic | DIFlagPrototyped, spFlags: 0)
!677 = !DISubprogram(name: "operator[]", linkageName: "_ZNK11xalanc_1_1011XalanVectorIcNS_31MemoryManagedConstructionTraitsIcEEEixEm", scope: !555, file: !15, line: 780, type: !674, scopeLine: 780, flags: DIFlagPublic | DIFlagPrototyped, spFlags: 0)
!678 = !DISubprogram(name: "clear", linkageName: "_ZN11xalanc_1_1011XalanVectorIcNS_31MemoryManagedConstructionTraitsIcEEE5clearEv", scope: !555, file: !15, line: 788, type: !591, scopeLine: 788, flags: DIFlagPublic | DIFlagPrototyped, spFlags: 0)
!679 = !DISubprogram(name: "operator=", linkageName: "_ZN11xalanc_1_1011XalanVectorIcNS_31MemoryManagedConstructionTraitsIcEEEaSERKS3_", scope: !555, file: !15, line: 802, type: !680, scopeLine: 802, flags: DIFlagPublic | DIFlagPrototyped, spFlags: 0)
!680 = !DISubroutineType(types: !681)
!681 = !{!682, !566, !574}
!682 = !DIDerivedType(tag: DW_TAG_reference_type, baseType: !576, size: 64)
!683 = !DISubprogram(name: "swap", linkageName: "_ZN11xalanc_1_1011XalanVectorIcNS_31MemoryManagedConstructionTraitsIcEEE4swapERS3_", scope: !555, file: !15, line: 848, type: !684, scopeLine: 848, flags: DIFlagPublic | DIFlagPrototyped, spFlags: 0)
!684 = !DISubroutineType(types: !685)
!685 = !{null, !566, !682}
!686 = !DISubprogram(name: "getMemoryManager", linkageName: "_ZNK11xalanc_1_1011XalanVectorIcNS_31MemoryManagedConstructionTraitsIcEEE16getMemoryManagerEv", scope: !555, file: !15, line: 871, type: !687, scopeLine: 871, flags: DIFlagPublic | DIFlagPrototyped, spFlags: 0)
!687 = !DISubroutineType(types: !688)
!688 = !{!310, !625}
!689 = !DISubprogram(name: "getMemoryManager", linkageName: "_ZN11xalanc_1_1011XalanVectorIcNS_31MemoryManagedConstructionTraitsIcEEE16getMemoryManagerEv", scope: !555, file: !15, line: 877, type: !690, scopeLine: 877, flags: DIFlagPublic | DIFlagPrototyped, spFlags: 0)
!690 = !DISubroutineType(types: !691)
!691 = !{!36, !566}
!692 = !DISubprogram(name: "detach", linkageName: "_ZN11xalanc_1_1011XalanVectorIcNS_31MemoryManagedConstructionTraitsIcEEE6detachEv", scope: !555, file: !15, line: 889, type: !693, scopeLine: 889, flags: DIFlagPublic | DIFlagPrototyped, spFlags: 0)
!693 = !DISubroutineType(types: !694)
!694 = !{!695, !566}
!695 = !DIDerivedType(tag: DW_TAG_typedef, name: "pointer", scope: !555, file: !15, line: 67, baseType: !561)
!696 = !DISubprogram(name: "invariants", linkageName: "_ZNK11xalanc_1_1011XalanVectorIcNS_31MemoryManagedConstructionTraitsIcEEE10invariantsEv", scope: !555, file: !15, line: 905, type: !697, scopeLine: 905, flags: DIFlagPrototyped, spFlags: 0)
!697 = !DISubroutineType(types: !698)
!698 = !{null, !625}
!699 = !DISubprogram(name: "local_distance", linkageName: "_ZN11xalanc_1_1011XalanVectorIcNS_31MemoryManagedConstructionTraitsIcEEE14local_distanceEPKcS5_", scope: !555, file: !15, line: 918, type: !700, scopeLine: 918, flags: DIFlagPrototyped, spFlags: 0)
!700 = !DISubroutineType(types: !701)
!701 = !{!702, !566, !580, !580}
!702 = !DIDerivedType(tag: DW_TAG_typedef, name: "size_type", scope: !555, file: !15, line: 71, baseType: !24)
!703 = !DISubprogram(name: "allocate", linkageName: "_ZN11xalanc_1_1011XalanVectorIcNS_31MemoryManagedConstructionTraitsIcEEE8allocateEm", scope: !555, file: !15, line: 938, type: !704, scopeLine: 938, flags: DIFlagPrototyped, spFlags: 0)
!704 = !DISubroutineType(types: !705)
!705 = !{!561, !566, !23}
!706 = !DISubprogram(name: "deallocate", linkageName: "_ZN11xalanc_1_1011XalanVectorIcNS_31MemoryManagedConstructionTraitsIcEEE10deallocateEPc", scope: !555, file: !15, line: 952, type: !707, scopeLine: 952, flags: DIFlagPrototyped, spFlags: 0)
!707 = !DISubroutineType(types: !708)
!708 = !{null, !566, !561}
!709 = !DISubprogram(name: "destroy", linkageName: "_ZN11xalanc_1_1011XalanVectorIcNS_31MemoryManagedConstructionTraitsIcEEE7destroyERc", scope: !555, file: !15, line: 961, type: !710, scopeLine: 961, flags: DIFlagPrototyped | DIFlagStaticMember, spFlags: 0)
!710 = !DISubroutineType(types: !711)
!711 = !{null, !641}
!712 = !DISubprogram(name: "destroy", linkageName: "_ZN11xalanc_1_1011XalanVectorIcNS_31MemoryManagedConstructionTraitsIcEEE7destroyEPcS4_", scope: !555, file: !15, line: 967, type: !713, scopeLine: 967, flags: DIFlagPrototyped | DIFlagStaticMember, spFlags: 0)
!713 = !DISubroutineType(types: !714)
!714 = !{null, !600, !600}
!715 = !DISubprogram(name: "doPushBack", linkageName: "_ZN11xalanc_1_1011XalanVectorIcNS_31MemoryManagedConstructionTraitsIcEEE10doPushBackERKc", scope: !555, file: !15, line: 978, type: !594, scopeLine: 978, flags: DIFlagPrototyped, spFlags: 0)
!716 = !DISubprogram(name: "ensureCapacity", linkageName: "_ZN11xalanc_1_1011XalanVectorIcNS_31MemoryManagedConstructionTraitsIcEEE14ensureCapacityEm", scope: !555, file: !15, line: 1006, type: !717, scopeLine: 1006, flags: DIFlagPrototyped, spFlags: 0)
!717 = !DISubroutineType(types: !718)
!718 = !{!695, !566, !23}
!719 = !DISubprogram(name: "doReserve", linkageName: "_ZN11xalanc_1_1011XalanVectorIcNS_31MemoryManagedConstructionTraitsIcEEE9doReserveEm", scope: !555, file: !15, line: 1017, type: !629, scopeLine: 1017, flags: DIFlagPrototyped, spFlags: 0)
!720 = !DISubprogram(name: "endPointer", linkageName: "_ZN11xalanc_1_1011XalanVectorIcNS_31MemoryManagedConstructionTraitsIcEEE10endPointerEv", scope: !555, file: !15, line: 1031, type: !693, scopeLine: 1031, flags: DIFlagPrototyped, spFlags: 0)
!721 = !DISubprogram(name: "endPointer", linkageName: "_ZNK11xalanc_1_1011XalanVectorIcNS_31MemoryManagedConstructionTraitsIcEEE10endPointerEv", scope: !555, file: !15, line: 1037, type: !722, scopeLine: 1037, flags: DIFlagPrototyped, spFlags: 0)
!722 = !DISubroutineType(types: !723)
!723 = !{!724, !625}
!724 = !DIDerivedType(tag: DW_TAG_typedef, name: "const_pointer", scope: !555, file: !15, line: 68, baseType: !581)
!725 = !DISubprogram(name: "outOfRange", linkageName: "_ZN11xalanc_1_1011XalanVectorIcNS_31MemoryManagedConstructionTraitsIcEEE10outOfRangeEv", scope: !555, file: !15, line: 1043, type: !349, scopeLine: 1043, flags: DIFlagPrototyped | DIFlagStaticMember, spFlags: 0)
!726 = !DISubprogram(name: "shrinkToSize", linkageName: "_ZN11xalanc_1_1011XalanVectorIcNS_31MemoryManagedConstructionTraitsIcEEE12shrinkToSizeEm", scope: !555, file: !15, line: 1049, type: !629, scopeLine: 1049, flags: DIFlagPrototyped, spFlags: 0)
