; ModuleID = 'ElementImpl.cpp'
source_filename = "ElementImpl.cpp"
target datalayout = "e-m:e-p270:32:32-p271:32:32-p272:64:64-i64:64-f80:128-n8:16:32:64-S128"
target triple = "x86_64-unknown-linux-gnu"

%"class.xercesc_2_7::XMLRegisterCleanup" = type { void ()*, %"class.xercesc_2_7::XMLRegisterCleanup"*, %"class.xercesc_2_7::XMLRegisterCleanup"* }
%"class.xercesc_2_7::DOMString" = type { %"class.xercesc_2_7::DOMStringHandle"* }
%"class.xercesc_2_7::DOMStringHandle" = type opaque
%"class.xercesc_2_7::ElementImpl" = type { %"class.xercesc_2_7::ParentNode.base", %"class.xercesc_2_7::DOMString", %"class.xercesc_2_7::AttrMapImpl"* }
%"class.xercesc_2_7::ParentNode.base" = type <{ %"class.xercesc_2_7::ChildNode", %"class.xercesc_2_7::DocumentImpl"*, %"class.xercesc_2_7::ChildNode"*, i32, [4 x i8], %"class.xercesc_2_7::ChildNode"*, i32 }>
%"class.xercesc_2_7::ChildNode" = type { %"class.xercesc_2_7::NodeImpl.base", %"class.xercesc_2_7::ChildNode"*, %"class.xercesc_2_7::ChildNode"* }
%"class.xercesc_2_7::NodeImpl.base" = type <{ %"class.xercesc_2_7::NodeListImpl.base", [4 x i8], %"class.xercesc_2_7::NodeImpl"*, i16 }>
%"class.xercesc_2_7::NodeListImpl.base" = type { %"class.xercesc_2_7::RefCountedImpl.base" }
%"class.xercesc_2_7::RefCountedImpl.base" = type <{ i32 (...)**, i32 }>
%"class.xercesc_2_7::NodeImpl" = type <{ %"class.xercesc_2_7::NodeListImpl.base", [4 x i8], %"class.xercesc_2_7::NodeImpl"*, i16, [6 x i8] }>
%"class.xercesc_2_7::AttrMapImpl" = type <{ %"class.xercesc_2_7::NamedNodeMapImpl", i8, [7 x i8] }>
%"class.xercesc_2_7::NamedNodeMapImpl" = type { i32 (...)**, %"class.xercesc_2_7::NodeVector"*, %"class.xercesc_2_7::NodeImpl"*, i8, i32 }
%"class.xercesc_2_7::NodeVector" = type { %"class.xercesc_2_7::NodeImpl"**, i32, i32, %"class.xercesc_2_7::MemoryManager"* }
%"class.xercesc_2_7::MemoryManager" = type { i32 (...)** }
%"class.xercesc_2_7::DocumentImpl" = type { %"class.xercesc_2_7::ParentNode.base", %"class.xercesc_2_7::DocumentTypeImpl"*, %"class.xercesc_2_7::ElementImpl"*, %"class.xercesc_2_7::DStringPool"*, %"class.xercesc_2_7::NodeIDMap"*, %"class.xercesc_2_7::RefVectorOf"*, %"class.xercesc_2_7::RefVectorOf.0"*, %"class.xercesc_2_7::RefHashTableOf"*, %"class.xercesc_2_7::RefVectorOf.1"*, i32, i8, %"class.xercesc_2_7::MemoryManager"* }
%"class.xercesc_2_7::DocumentTypeImpl" = type <{ %"class.xercesc_2_7::ParentNode.base", [4 x i8], %"class.xercesc_2_7::DOMString", %"class.xercesc_2_7::NamedNodeMapImpl"*, %"class.xercesc_2_7::NamedNodeMapImpl"*, %"class.xercesc_2_7::NamedNodeMapImpl"*, %"class.xercesc_2_7::DOMString", %"class.xercesc_2_7::DOMString", %"class.xercesc_2_7::DOMString", i8, [7 x i8] }>
%"class.xercesc_2_7::DStringPool" = type { %"struct.xercesc_2_7::DStringPoolEntry"**, i32, %"class.xercesc_2_7::MemoryManager"* }
%"struct.xercesc_2_7::DStringPoolEntry" = type opaque
%"class.xercesc_2_7::NodeIDMap" = type opaque
%"class.xercesc_2_7::RefVectorOf" = type opaque
%"class.xercesc_2_7::RefVectorOf.0" = type opaque
%"class.xercesc_2_7::RefHashTableOf" = type opaque
%"class.xercesc_2_7::RefVectorOf.1" = type opaque
%"class.xercesc_2_7::XMLDeleter" = type { i32 (...)** }
%"class.xercesc_2_7::ParentNode" = type <{ %"class.xercesc_2_7::ChildNode", %"class.xercesc_2_7::DocumentImpl"*, %"class.xercesc_2_7::ChildNode"*, i32, [4 x i8], %"class.xercesc_2_7::ChildNode"*, i32, [4 x i8] }>
%"class.xercesc_2_7::AttrImpl" = type { %"class.xercesc_2_7::NodeImpl.base", %"class.xercesc_2_7::DOMString", %union.anon }
%union.anon = type { %"class.xercesc_2_7::ChildNode"* }
%"class.xercesc_2_7::DeepNodeListImpl" = type <{ %"class.xercesc_2_7::NodeListImpl.base", [4 x i8], %"class.xercesc_2_7::NodeImpl"*, %"class.xercesc_2_7::DOMString", i8, [3 x i8], i32, %"class.xercesc_2_7::NodeVector"*, %"class.xercesc_2_7::DOMString", i8, i8, [6 x i8] }>
%"class.xercesc_2_7::DOM_DOMException" = type { i32 (...)**, i32, %"class.xercesc_2_7::DOMString" }
%"class.xercesc_2_7::RefCountedImpl" = type <{ i32 (...)**, i32, [4 x i8] }>
%"class.xercesc_2_7::NodeListImpl" = type { %"class.xercesc_2_7::RefCountedImpl.base", [4 x i8] }

$_ZN11xercesc_2_710XMLDeleterD0Ev = comdat any

$_ZN11xercesc_2_710XMLDeleterD2Ev = comdat any

$_ZN11xercesc_2_710ParentNodeD2Ev = comdat any

$__clang_call_terminate = comdat any

$_ZNK11xercesc_2_712DocumentImpl16getMemoryManagerEv = comdat any

$_ZN11xercesc_2_712DocumentImpl16getErrorCheckingEv = comdat any

$_ZNK11xercesc_2_78NodeImpl10isReadOnlyEv = comdat any

$_ZTVN11xercesc_2_710XMLDeleterE = comdat any

$_ZTSN11xercesc_2_710XMLDeleterE = comdat any

$_ZTIN11xercesc_2_710XMLDeleterE = comdat any

@_ZN11xercesc_2_7L18emptyStringCleanupE = internal global %"class.xercesc_2_7::XMLRegisterCleanup" zeroinitializer, align 8, !dbg !0
@_ZTVN11xercesc_2_711ElementImplE = dso_local unnamed_addr constant { [81 x i8*] } { [81 x i8*] [i8* null, i8* bitcast ({ i8*, i8*, i8* }* @_ZTIN11xercesc_2_711ElementImplE to i8*), i8* bitcast (void (%"class.xercesc_2_7::ElementImpl"*)* @_ZN11xercesc_2_711ElementImplD1Ev to i8*), i8* bitcast (void (%"class.xercesc_2_7::ElementImpl"*)* @_ZN11xercesc_2_711ElementImplD0Ev to i8*), i8* bitcast (void (%"class.xercesc_2_7::NodeImpl"*)* @_ZN11xercesc_2_78NodeImpl10referencedEv to i8*), i8* bitcast (void (%"class.xercesc_2_7::NodeImpl"*)* @_ZN11xercesc_2_78NodeImpl12unreferencedEv to i8*), i8* bitcast (%"class.xercesc_2_7::NodeImpl"* (%"class.xercesc_2_7::ParentNode"*, i32)* @_ZN11xercesc_2_710ParentNode4itemEj to i8*), i8* bitcast (i32 (%"class.xercesc_2_7::ParentNode"*)* @_ZN11xercesc_2_710ParentNode9getLengthEv to i8*), i8* bitcast (i1 (%"class.xercesc_2_7::NodeImpl"*)* @_ZN11xercesc_2_78NodeImpl10isAttrImplEv to i8*), i8* bitcast (i1 (%"class.xercesc_2_7::NodeImpl"*)* @_ZN11xercesc_2_78NodeImpl18isCDATASectionImplEv to i8*), i8* bitcast (i1 (%"class.xercesc_2_7::NodeImpl"*)* @_ZN11xercesc_2_78NodeImpl22isDocumentFragmentImplEv to i8*), i8* bitcast (i1 (%"class.xercesc_2_7::NodeImpl"*)* @_ZN11xercesc_2_78NodeImpl14isDocumentImplEv to i8*), i8* bitcast (i1 (%"class.xercesc_2_7::NodeImpl"*)* @_ZN11xercesc_2_78NodeImpl18isDocumentTypeImplEv to i8*), i8* bitcast (i1 (%"class.xercesc_2_7::ElementImpl"*)* @_ZN11xercesc_2_711ElementImpl13isElementImplEv to i8*), i8* bitcast (i1 (%"class.xercesc_2_7::NodeImpl"*)* @_ZN11xercesc_2_78NodeImpl17isEntityReferenceEv to i8*), i8* bitcast (i1 (%"class.xercesc_2_7::NodeImpl"*)* @_ZN11xercesc_2_78NodeImpl10isTextImplEv to i8*), i8* bitcast (void (%"class.xercesc_2_7::NodeImpl"*)* @_ZN11xercesc_2_78NodeImpl7changedEv to i8*), i8* bitcast (i32 (%"class.xercesc_2_7::NodeImpl"*)* @_ZN11xercesc_2_78NodeImpl7changesEv to i8*), i8* bitcast (%"class.xercesc_2_7::NodeImpl"* (%"class.xercesc_2_7::NodeImpl"*, %"class.xercesc_2_7::NodeImpl"*)* @_ZN11xercesc_2_78NodeImpl11appendChildEPS0_ to i8*), i8* bitcast (%"class.xercesc_2_7::NodeImpl"* (%"class.xercesc_2_7::ElementImpl"*, i1)* @_ZN11xercesc_2_711ElementImpl9cloneNodeEb to i8*), i8* bitcast (%"class.xercesc_2_7::NamedNodeMapImpl"* (%"class.xercesc_2_7::ElementImpl"*)* @_ZN11xercesc_2_711ElementImpl13getAttributesEv to i8*), i8* bitcast (%"class.xercesc_2_7::NodeListImpl"* (%"class.xercesc_2_7::ParentNode"*)* @_ZN11xercesc_2_710ParentNode13getChildNodesEv to i8*), i8* bitcast (%"class.xercesc_2_7::NodeImpl"* (%"class.xercesc_2_7::ParentNode"*)* @_ZN11xercesc_2_710ParentNode13getFirstChildEv to i8*), i8* bitcast (%"class.xercesc_2_7::NodeImpl"* (%"class.xercesc_2_7::ParentNode"*)* @_ZN11xercesc_2_710ParentNode12getLastChildEv to i8*), i8* bitcast (%"class.xercesc_2_7::NodeImpl"* (%"class.xercesc_2_7::ChildNode"*)* @_ZN11xercesc_2_79ChildNode14getNextSiblingEv to i8*), i8* bitcast (void (%"class.xercesc_2_7::DOMString"*, %"class.xercesc_2_7::ElementImpl"*)* @_ZN11xercesc_2_711ElementImpl11getNodeNameEv to i8*), i8* bitcast (i16 (%"class.xercesc_2_7::ElementImpl"*)* @_ZN11xercesc_2_711ElementImpl11getNodeTypeEv to i8*), i8* bitcast (void (%"class.xercesc_2_7::DOMString"*, %"class.xercesc_2_7::NodeImpl"*)* @_ZN11xercesc_2_78NodeImpl12getNodeValueEv to i8*), i8* bitcast (%"class.xercesc_2_7::DocumentImpl"* (%"class.xercesc_2_7::ParentNode"*)* @_ZN11xercesc_2_710ParentNode16getOwnerDocumentEv to i8*), i8* bitcast (%"class.xercesc_2_7::NodeImpl"* (%"class.xercesc_2_7::ChildNode"*)* @_ZN11xercesc_2_79ChildNode13getParentNodeEv to i8*), i8* bitcast (%"class.xercesc_2_7::NodeImpl"* (%"class.xercesc_2_7::ChildNode"*)* @_ZN11xercesc_2_79ChildNode18getPreviousSiblingEv to i8*), i8* bitcast (i8* (%"class.xercesc_2_7::NodeImpl"*)* @_ZN11xercesc_2_78NodeImpl11getUserDataEv to i8*), i8* bitcast (i1 (%"class.xercesc_2_7::ParentNode"*)* @_ZN11xercesc_2_710ParentNode13hasChildNodesEv to i8*), i8* bitcast (%"class.xercesc_2_7::NodeImpl"* (%"class.xercesc_2_7::ParentNode"*, %"class.xercesc_2_7::NodeImpl"*, %"class.xercesc_2_7::NodeImpl"*)* @_ZN11xercesc_2_710ParentNode12insertBeforeEPNS_8NodeImplES2_ to i8*), i8* bitcast (%"class.xercesc_2_7::NodeImpl"* (%"class.xercesc_2_7::ParentNode"*, %"class.xercesc_2_7::NodeImpl"*)* @_ZN11xercesc_2_710ParentNode11removeChildEPNS_8NodeImplE to i8*), i8* bitcast (%"class.xercesc_2_7::NodeImpl"* (%"class.xercesc_2_7::ParentNode"*, %"class.xercesc_2_7::NodeImpl"*, %"class.xercesc_2_7::NodeImpl"*)* @_ZN11xercesc_2_710ParentNode12replaceChildEPNS_8NodeImplES2_ to i8*), i8* bitcast (void (%"class.xercesc_2_7::NodeImpl"*, %"class.xercesc_2_7::DOMString"*)* @_ZN11xercesc_2_78NodeImpl12setNodeValueERKNS_9DOMStringE to i8*), i8* bitcast (void (%"class.xercesc_2_7::ElementImpl"*, i1, i1)* @_ZN11xercesc_2_711ElementImpl11setReadOnlyEbb to i8*), i8* bitcast (void (%"class.xercesc_2_7::NodeImpl"*, i8*)* @_ZN11xercesc_2_78NodeImpl11setUserDataEPv to i8*), i8* bitcast (void (%"class.xercesc_2_7::DOMString"*, %"class.xercesc_2_7::NodeImpl"*)* @_ZN11xercesc_2_78NodeImpl8toStringEv to i8*), i8* bitcast (void (%"class.xercesc_2_7::ParentNode"*)* @_ZN11xercesc_2_710ParentNode9normalizeEv to i8*), i8* bitcast (i1 (%"class.xercesc_2_7::NodeImpl"*, %"class.xercesc_2_7::DOMString"*, %"class.xercesc_2_7::DOMString"*)* @_ZN11xercesc_2_78NodeImpl11isSupportedERKNS_9DOMStringES3_ to i8*), i8* bitcast (void (%"class.xercesc_2_7::DOMString"*, %"class.xercesc_2_7::NodeImpl"*)* @_ZN11xercesc_2_78NodeImpl15getNamespaceURIEv to i8*), i8* bitcast (void (%"class.xercesc_2_7::DOMString"*, %"class.xercesc_2_7::NodeImpl"*)* @_ZN11xercesc_2_78NodeImpl9getPrefixEv to i8*), i8* bitcast (void (%"class.xercesc_2_7::DOMString"*, %"class.xercesc_2_7::NodeImpl"*)* @_ZN11xercesc_2_78NodeImpl12getLocalNameEv to i8*), i8* bitcast (void (%"class.xercesc_2_7::NodeImpl"*, %"class.xercesc_2_7::DOMString"*)* @_ZN11xercesc_2_78NodeImpl9setPrefixERKNS_9DOMStringE to i8*), i8* bitcast (i1 (%"class.xercesc_2_7::ElementImpl"*)* @_ZN11xercesc_2_711ElementImpl13hasAttributesEv to i8*), i8* bitcast (void (%"class.xercesc_2_7::ElementImpl"*, %"class.xercesc_2_7::DocumentImpl"*)* @_ZN11xercesc_2_711ElementImpl16setOwnerDocumentEPNS_12DocumentImplE to i8*), i8* bitcast (%"class.xercesc_2_7::DocumentImpl"* (%"class.xercesc_2_7::ParentNode"*)* @_ZN11xercesc_2_710ParentNode11getDocumentEv to i8*), i8* bitcast (void (%"class.xercesc_2_7::DOMString"*, %"class.xercesc_2_7::ElementImpl"*, %"class.xercesc_2_7::DOMString"*)* @_ZN11xercesc_2_711ElementImpl12getAttributeERKNS_9DOMStringE to i8*), i8* bitcast (%"class.xercesc_2_7::AttrImpl"* (%"class.xercesc_2_7::ElementImpl"*, %"class.xercesc_2_7::DOMString"*)* @_ZN11xercesc_2_711ElementImpl16getAttributeNodeERKNS_9DOMStringE to i8*), i8* bitcast (%"class.xercesc_2_7::DeepNodeListImpl"* (%"class.xercesc_2_7::ElementImpl"*, %"class.xercesc_2_7::DOMString"*)* @_ZN11xercesc_2_711ElementImpl20getElementsByTagNameERKNS_9DOMStringE to i8*), i8* bitcast (void (%"class.xercesc_2_7::DOMString"*, %"class.xercesc_2_7::ElementImpl"*)* @_ZN11xercesc_2_711ElementImpl10getTagNameEv to i8*), i8* bitcast (void (%"class.xercesc_2_7::ElementImpl"*, %"class.xercesc_2_7::DOMString"*)* @_ZN11xercesc_2_711ElementImpl15removeAttributeERKNS_9DOMStringE to i8*), i8* bitcast (%"class.xercesc_2_7::AttrImpl"* (%"class.xercesc_2_7::ElementImpl"*, %"class.xercesc_2_7::AttrImpl"*)* @_ZN11xercesc_2_711ElementImpl19removeAttributeNodeEPNS_8AttrImplE to i8*), i8* bitcast (%"class.xercesc_2_7::AttrImpl"* (%"class.xercesc_2_7::ElementImpl"*, %"class.xercesc_2_7::DOMString"*, %"class.xercesc_2_7::DOMString"*)* @_ZN11xercesc_2_711ElementImpl12setAttributeERKNS_9DOMStringES3_ to i8*), i8* bitcast (%"class.xercesc_2_7::AttrImpl"* (%"class.xercesc_2_7::ElementImpl"*, %"class.xercesc_2_7::AttrImpl"*)* @_ZN11xercesc_2_711ElementImpl16setAttributeNodeEPNS_8AttrImplE to i8*), i8* bitcast (void (%"class.xercesc_2_7::DOMString"*, %"class.xercesc_2_7::ElementImpl"*, %"class.xercesc_2_7::DOMString"*, %"class.xercesc_2_7::DOMString"*)* @_ZN11xercesc_2_711ElementImpl14getAttributeNSERKNS_9DOMStringES3_ to i8*), i8* bitcast (%"class.xercesc_2_7::AttrImpl"* (%"class.xercesc_2_7::ElementImpl"*, %"class.xercesc_2_7::DOMString"*, %"class.xercesc_2_7::DOMString"*, %"class.xercesc_2_7::DOMString"*)* @_ZN11xercesc_2_711ElementImpl14setAttributeNSERKNS_9DOMStringES3_S3_ to i8*), i8* bitcast (void (%"class.xercesc_2_7::ElementImpl"*, %"class.xercesc_2_7::DOMString"*, %"class.xercesc_2_7::DOMString"*)* @_ZN11xercesc_2_711ElementImpl17removeAttributeNSERKNS_9DOMStringES3_ to i8*), i8* bitcast (%"class.xercesc_2_7::AttrImpl"* (%"class.xercesc_2_7::ElementImpl"*, %"class.xercesc_2_7::DOMString"*, %"class.xercesc_2_7::DOMString"*)* @_ZN11xercesc_2_711ElementImpl18getAttributeNodeNSERKNS_9DOMStringES3_ to i8*), i8* bitcast (%"class.xercesc_2_7::AttrImpl"* (%"class.xercesc_2_7::ElementImpl"*, %"class.xercesc_2_7::AttrImpl"*)* @_ZN11xercesc_2_711ElementImpl18setAttributeNodeNSEPNS_8AttrImplE to i8*), i8* bitcast (%"class.xercesc_2_7::DeepNodeListImpl"* (%"class.xercesc_2_7::ElementImpl"*, %"class.xercesc_2_7::DOMString"*, %"class.xercesc_2_7::DOMString"*)* @_ZN11xercesc_2_711ElementImpl22getElementsByTagNameNSERKNS_9DOMStringES3_ to i8*), i8* bitcast (i1 (%"class.xercesc_2_7::ElementImpl"*, %"class.xercesc_2_7::DOMString"*)* @_ZN11xercesc_2_711ElementImpl12hasAttributeERKNS_9DOMStringE to i8*), i8* bitcast (i1 (%"class.xercesc_2_7::ElementImpl"*, %"class.xercesc_2_7::DOMString"*, %"class.xercesc_2_7::DOMString"*)* @_ZN11xercesc_2_711ElementImpl14hasAttributeNSERKNS_9DOMStringES3_ to i8*), i8* bitcast (%"class.xercesc_2_7::NamedNodeMapImpl"* (%"class.xercesc_2_7::ElementImpl"*, %"class.xercesc_2_7::NodeImpl"*)* @_ZN11xercesc_2_711ElementImpl12NNM_cloneMapEPNS_8NodeImplE to i8*), i8* bitcast (i32 (%"class.xercesc_2_7::ElementImpl"*, %"class.xercesc_2_7::DOMString"*)* @_ZN11xercesc_2_711ElementImpl17NNM_findNamePointERKNS_9DOMStringE to i8*), i8* bitcast (i32 (%"class.xercesc_2_7::ElementImpl"*)* @_ZN11xercesc_2_711ElementImpl13NNM_getLengthEv to i8*), i8* bitcast (%"class.xercesc_2_7::NodeImpl"* (%"class.xercesc_2_7::ElementImpl"*, %"class.xercesc_2_7::DOMString"*)* @_ZN11xercesc_2_711ElementImpl16NNM_getNamedItemERKNS_9DOMStringE to i8*), i8* bitcast (%"class.xercesc_2_7::NodeImpl"* (%"class.xercesc_2_7::ElementImpl"*, i32)* @_ZN11xercesc_2_711ElementImpl8NNM_itemEj to i8*), i8* bitcast (void (%"class.xercesc_2_7::ElementImpl"*)* @_ZN11xercesc_2_711ElementImpl13NNM_removeAllEv to i8*), i8* bitcast (%"class.xercesc_2_7::NodeImpl"* (%"class.xercesc_2_7::ElementImpl"*, %"class.xercesc_2_7::DOMString"*)* @_ZN11xercesc_2_711ElementImpl19NNM_removeNamedItemERKNS_9DOMStringE to i8*), i8* bitcast (%"class.xercesc_2_7::NodeImpl"* (%"class.xercesc_2_7::ElementImpl"*, %"class.xercesc_2_7::NodeImpl"*)* @_ZN11xercesc_2_711ElementImpl16NNM_setNamedItemEPNS_8NodeImplE to i8*), i8* bitcast (void (%"class.xercesc_2_7::ElementImpl"*, i1, i1)* @_ZN11xercesc_2_711ElementImpl15NNM_setReadOnlyEbb to i8*), i8* bitcast (i32 (%"class.xercesc_2_7::ElementImpl"*, %"class.xercesc_2_7::DOMString"*, %"class.xercesc_2_7::DOMString"*)* @_ZN11xercesc_2_711ElementImpl17NNM_findNamePointERKNS_9DOMStringES3_ to i8*), i8* bitcast (%"class.xercesc_2_7::NodeImpl"* (%"class.xercesc_2_7::ElementImpl"*, %"class.xercesc_2_7::DOMString"*, %"class.xercesc_2_7::DOMString"*)* @_ZN11xercesc_2_711ElementImpl18NNM_getNamedItemNSERKNS_9DOMStringES3_ to i8*), i8* bitcast (%"class.xercesc_2_7::NodeImpl"* (%"class.xercesc_2_7::ElementImpl"*, %"class.xercesc_2_7::NodeImpl"*)* @_ZN11xercesc_2_711ElementImpl18NNM_setNamedItemNSEPNS_8NodeImplE to i8*), i8* bitcast (%"class.xercesc_2_7::NodeImpl"* (%"class.xercesc_2_7::ElementImpl"*, %"class.xercesc_2_7::DOMString"*, %"class.xercesc_2_7::DOMString"*)* @_ZN11xercesc_2_711ElementImpl21NNM_removeNamedItemNSERKNS_9DOMStringES3_ to i8*), i8* bitcast (void (%"class.xercesc_2_7::ElementImpl"*, %"class.xercesc_2_7::DocumentImpl"*)* @_ZN11xercesc_2_711ElementImpl20NNM_setOwnerDocumentEPNS_12DocumentImplE to i8*), i8* bitcast (%"class.xercesc_2_7::AttrMapImpl"* (%"class.xercesc_2_7::ElementImpl"*)* @_ZN11xercesc_2_711ElementImpl20getDefaultAttributesEv to i8*), i8* bitcast (void (%"class.xercesc_2_7::ElementImpl"*)* @_ZN11xercesc_2_711ElementImpl22setupDefaultAttributesEv to i8*)] }, align 8
@.str = private unnamed_addr constant [1 x i8] zeroinitializer, align 1
@_ZN11xercesc_2_7L12gEmptyStringE = internal global %"class.xercesc_2_7::DOMString"* null, align 8, !dbg !34
@_ZTIN11xercesc_2_716DOM_DOMExceptionE = external dso_local constant i8*
@_ZTVN11xercesc_2_710XMLDeleterE = linkonce_odr dso_local unnamed_addr constant { [4 x i8*] } { [4 x i8*] [i8* null, i8* bitcast ({ i8*, i8* }* @_ZTIN11xercesc_2_710XMLDeleterE to i8*), i8* bitcast (void (%"class.xercesc_2_7::XMLDeleter"*)* @_ZN11xercesc_2_710XMLDeleterD2Ev to i8*), i8* bitcast (void (%"class.xercesc_2_7::XMLDeleter"*)* @_ZN11xercesc_2_710XMLDeleterD0Ev to i8*)] }, comdat, align 8
@_ZTVN10__cxxabiv117__class_type_infoE = external dso_local global i8*
@_ZTSN11xercesc_2_710XMLDeleterE = linkonce_odr dso_local constant [28 x i8] c"N11xercesc_2_710XMLDeleterE\00", comdat, align 1
@_ZTIN11xercesc_2_710XMLDeleterE = linkonce_odr dso_local constant { i8*, i8* } { i8* bitcast (i8** getelementptr inbounds (i8*, i8** @_ZTVN10__cxxabiv117__class_type_infoE, i64 2) to i8*), i8* getelementptr inbounds ([28 x i8], [28 x i8]* @_ZTSN11xercesc_2_710XMLDeleterE, i32 0, i32 0) }, comdat, align 8
@_ZTVN10__cxxabiv120__si_class_type_infoE = external dso_local global i8*
@_ZTSN11xercesc_2_711ElementImplE = dso_local constant [29 x i8] c"N11xercesc_2_711ElementImplE\00", align 1
@_ZTIN11xercesc_2_710ParentNodeE = external dso_local constant i8*
@_ZTIN11xercesc_2_711ElementImplE = dso_local constant { i8*, i8*, i8* } { i8* bitcast (i8** getelementptr inbounds (i8*, i8** @_ZTVN10__cxxabiv120__si_class_type_infoE, i64 2) to i8*), i8* getelementptr inbounds ([29 x i8], [29 x i8]* @_ZTSN11xercesc_2_711ElementImplE, i32 0, i32 0), i8* bitcast (i8** @_ZTIN11xercesc_2_710ParentNodeE to i8*) }, align 8
@_ZN11xercesc_2_78NodeImpl8READONLYE = external dso_local constant i16, align 2
@llvm.global_ctors = appending global [1 x { i32, void ()*, i8* }] [{ i32, void ()*, i8* } { i32 65535, void ()* @_GLOBAL__sub_I_ElementImpl.cpp, i8* null }]

@_ZN11xercesc_2_711ElementImplC1EPNS_12DocumentImplERKNS_9DOMStringE = dso_local unnamed_addr alias void (%"class.xercesc_2_7::ElementImpl"*, %"class.xercesc_2_7::DocumentImpl"*, %"class.xercesc_2_7::DOMString"*), void (%"class.xercesc_2_7::ElementImpl"*, %"class.xercesc_2_7::DocumentImpl"*, %"class.xercesc_2_7::DOMString"*)* @_ZN11xercesc_2_711ElementImplC2EPNS_12DocumentImplERKNS_9DOMStringE
@_ZN11xercesc_2_711ElementImplC1ERKS0_b = dso_local unnamed_addr alias void (%"class.xercesc_2_7::ElementImpl"*, %"class.xercesc_2_7::ElementImpl"*, i1), void (%"class.xercesc_2_7::ElementImpl"*, %"class.xercesc_2_7::ElementImpl"*, i1)* @_ZN11xercesc_2_711ElementImplC2ERKS0_b
@_ZN11xercesc_2_711ElementImplD1Ev = dso_local unnamed_addr alias void (%"class.xercesc_2_7::ElementImpl"*), void (%"class.xercesc_2_7::ElementImpl"*)* @_ZN11xercesc_2_711ElementImplD2Ev

; Function Attrs: nounwind readnone speculatable willreturn
declare void @llvm.dbg.declare(metadata, metadata, metadata) #0

; Function Attrs: noinline nounwind uwtable
define linkonce_odr dso_local void @_ZN11xercesc_2_710XMLDeleterD0Ev(%"class.xercesc_2_7::XMLDeleter"* %this) unnamed_addr #1 comdat align 2 !dbg !708 {
entry:
  %this.addr = alloca %"class.xercesc_2_7::XMLDeleter"*, align 8
  store %"class.xercesc_2_7::XMLDeleter"* %this, %"class.xercesc_2_7::XMLDeleter"** %this.addr, align 8
  call void @llvm.dbg.declare(metadata %"class.xercesc_2_7::XMLDeleter"** %this.addr, metadata !730, metadata !DIExpression()), !dbg !732
  %this1 = load %"class.xercesc_2_7::XMLDeleter"*, %"class.xercesc_2_7::XMLDeleter"** %this.addr, align 8
  call void @_ZN11xercesc_2_710XMLDeleterD2Ev(%"class.xercesc_2_7::XMLDeleter"* %this1) #7, !dbg !733
  %0 = bitcast %"class.xercesc_2_7::XMLDeleter"* %this1 to i8*, !dbg !733
  call void @_ZdlPv(i8* %0) #8, !dbg !733
  ret void, !dbg !734
}

; Function Attrs: noinline nounwind uwtable
define linkonce_odr dso_local void @_ZN11xercesc_2_710XMLDeleterD2Ev(%"class.xercesc_2_7::XMLDeleter"* %this) unnamed_addr #1 comdat align 2 !dbg !735 {
entry:
  %this.addr = alloca %"class.xercesc_2_7::XMLDeleter"*, align 8
  store %"class.xercesc_2_7::XMLDeleter"* %this, %"class.xercesc_2_7::XMLDeleter"** %this.addr, align 8
  call void @llvm.dbg.declare(metadata %"class.xercesc_2_7::XMLDeleter"** %this.addr, metadata !736, metadata !DIExpression()), !dbg !737
  %this1 = load %"class.xercesc_2_7::XMLDeleter"*, %"class.xercesc_2_7::XMLDeleter"** %this.addr, align 8
  ret void, !dbg !738
}

; Function Attrs: nobuiltin nounwind
declare dso_local void @_ZdlPv(i8*) #2

; Function Attrs: noinline uwtable
define internal void @__cxx_global_var_init() #3 section ".text.startup" !dbg !739 {
entry:
  call void @_ZN11xercesc_2_718XMLRegisterCleanupC1Ev(%"class.xercesc_2_7::XMLRegisterCleanup"* @_ZN11xercesc_2_7L18emptyStringCleanupE), !dbg !740
  ret void, !dbg !740
}

declare dso_local void @_ZN11xercesc_2_718XMLRegisterCleanupC1Ev(%"class.xercesc_2_7::XMLRegisterCleanup"*) unnamed_addr #4

; Function Attrs: noinline uwtable
define dso_local void @_ZN11xercesc_2_711ElementImplC2EPNS_12DocumentImplERKNS_9DOMStringE(%"class.xercesc_2_7::ElementImpl"* %this, %"class.xercesc_2_7::DocumentImpl"* %ownerDoc, %"class.xercesc_2_7::DOMString"* dereferenceable(8) %eName) unnamed_addr #3 align 2 personality i8* bitcast (i32 (...)* @__gxx_personality_v0 to i8*) !dbg !741 {
entry:
  %this.addr = alloca %"class.xercesc_2_7::ElementImpl"*, align 8
  %ownerDoc.addr = alloca %"class.xercesc_2_7::DocumentImpl"*, align 8
  %eName.addr = alloca %"class.xercesc_2_7::DOMString"*, align 8
  %exn.slot = alloca i8*
  %ehselector.slot = alloca i32
  %ref.tmp = alloca %"class.xercesc_2_7::DOMString", align 8
  store %"class.xercesc_2_7::ElementImpl"* %this, %"class.xercesc_2_7::ElementImpl"** %this.addr, align 8
  call void @llvm.dbg.declare(metadata %"class.xercesc_2_7::ElementImpl"** %this.addr, metadata !870, metadata !DIExpression()), !dbg !872
  store %"class.xercesc_2_7::DocumentImpl"* %ownerDoc, %"class.xercesc_2_7::DocumentImpl"** %ownerDoc.addr, align 8
  call void @llvm.dbg.declare(metadata %"class.xercesc_2_7::DocumentImpl"** %ownerDoc.addr, metadata !873, metadata !DIExpression()), !dbg !874
  store %"class.xercesc_2_7::DOMString"* %eName, %"class.xercesc_2_7::DOMString"** %eName.addr, align 8
  call void @llvm.dbg.declare(metadata %"class.xercesc_2_7::DOMString"** %eName.addr, metadata !875, metadata !DIExpression()), !dbg !876
  %this1 = load %"class.xercesc_2_7::ElementImpl"*, %"class.xercesc_2_7::ElementImpl"** %this.addr, align 8
  %0 = bitcast %"class.xercesc_2_7::ElementImpl"* %this1 to %"class.xercesc_2_7::ParentNode"*, !dbg !877
  %1 = load %"class.xercesc_2_7::DocumentImpl"*, %"class.xercesc_2_7::DocumentImpl"** %ownerDoc.addr, align 8, !dbg !878
  call void @_ZN11xercesc_2_710ParentNodeC2EPNS_12DocumentImplE(%"class.xercesc_2_7::ParentNode"* %0, %"class.xercesc_2_7::DocumentImpl"* %1), !dbg !879
  %2 = bitcast %"class.xercesc_2_7::ElementImpl"* %this1 to i32 (...)***, !dbg !877
  store i32 (...)** bitcast (i8** getelementptr inbounds ({ [81 x i8*] }, { [81 x i8*] }* @_ZTVN11xercesc_2_711ElementImplE, i32 0, inrange i32 0, i32 2) to i32 (...)**), i32 (...)*** %2, align 8, !dbg !877
  %name = getelementptr inbounds %"class.xercesc_2_7::ElementImpl", %"class.xercesc_2_7::ElementImpl"* %this1, i32 0, i32 1, !dbg !880
  invoke void @_ZN11xercesc_2_79DOMStringC1Ev(%"class.xercesc_2_7::DOMString"* %name)
          to label %invoke.cont unwind label %lpad, !dbg !880

invoke.cont:                                      ; preds = %entry
  %3 = load %"class.xercesc_2_7::DOMString"*, %"class.xercesc_2_7::DOMString"** %eName.addr, align 8, !dbg !881
  invoke void @_ZNK11xercesc_2_79DOMString5cloneEv(%"class.xercesc_2_7::DOMString"* sret %ref.tmp, %"class.xercesc_2_7::DOMString"* %3)
          to label %invoke.cont3 unwind label %lpad2, !dbg !883

invoke.cont3:                                     ; preds = %invoke.cont
  %name4 = getelementptr inbounds %"class.xercesc_2_7::ElementImpl", %"class.xercesc_2_7::ElementImpl"* %this1, i32 0, i32 1, !dbg !884
  %call = invoke dereferenceable(8) %"class.xercesc_2_7::DOMString"* @_ZN11xercesc_2_79DOMStringaSERKS0_(%"class.xercesc_2_7::DOMString"* %name4, %"class.xercesc_2_7::DOMString"* dereferenceable(8) %ref.tmp)
          to label %invoke.cont6 unwind label %lpad5, !dbg !885

invoke.cont6:                                     ; preds = %invoke.cont3
  call void @_ZN11xercesc_2_79DOMStringD1Ev(%"class.xercesc_2_7::DOMString"* %ref.tmp) #7, !dbg !884
  %attributes = getelementptr inbounds %"class.xercesc_2_7::ElementImpl", %"class.xercesc_2_7::ElementImpl"* %this1, i32 0, i32 2, !dbg !886
  store %"class.xercesc_2_7::AttrMapImpl"* null, %"class.xercesc_2_7::AttrMapImpl"** %attributes, align 8, !dbg !887
  %4 = bitcast %"class.xercesc_2_7::ElementImpl"* %this1 to void (%"class.xercesc_2_7::ElementImpl"*)***, !dbg !888
  %vtable = load void (%"class.xercesc_2_7::ElementImpl"*)**, void (%"class.xercesc_2_7::ElementImpl"*)*** %4, align 8, !dbg !888
  %vfn = getelementptr inbounds void (%"class.xercesc_2_7::ElementImpl"*)*, void (%"class.xercesc_2_7::ElementImpl"*)** %vtable, i64 78, !dbg !888
  %5 = load void (%"class.xercesc_2_7::ElementImpl"*)*, void (%"class.xercesc_2_7::ElementImpl"*)** %vfn, align 8, !dbg !888
  invoke void %5(%"class.xercesc_2_7::ElementImpl"* %this1)
          to label %invoke.cont7 unwind label %lpad2, !dbg !888

invoke.cont7:                                     ; preds = %invoke.cont6
  ret void, !dbg !889

lpad:                                             ; preds = %entry
  %6 = landingpad { i8*, i32 }
          cleanup, !dbg !889
  %7 = extractvalue { i8*, i32 } %6, 0, !dbg !889
  store i8* %7, i8** %exn.slot, align 8, !dbg !889
  %8 = extractvalue { i8*, i32 } %6, 1, !dbg !889
  store i32 %8, i32* %ehselector.slot, align 4, !dbg !889
  br label %ehcleanup8, !dbg !889

lpad2:                                            ; preds = %invoke.cont6, %invoke.cont
  %9 = landingpad { i8*, i32 }
          cleanup, !dbg !890
  %10 = extractvalue { i8*, i32 } %9, 0, !dbg !890
  store i8* %10, i8** %exn.slot, align 8, !dbg !890
  %11 = extractvalue { i8*, i32 } %9, 1, !dbg !890
  store i32 %11, i32* %ehselector.slot, align 4, !dbg !890
  br label %ehcleanup, !dbg !890

lpad5:                                            ; preds = %invoke.cont3
  %12 = landingpad { i8*, i32 }
          cleanup, !dbg !890
  %13 = extractvalue { i8*, i32 } %12, 0, !dbg !890
  store i8* %13, i8** %exn.slot, align 8, !dbg !890
  %14 = extractvalue { i8*, i32 } %12, 1, !dbg !890
  store i32 %14, i32* %ehselector.slot, align 4, !dbg !890
  call void @_ZN11xercesc_2_79DOMStringD1Ev(%"class.xercesc_2_7::DOMString"* %ref.tmp) #7, !dbg !884
  br label %ehcleanup, !dbg !884

ehcleanup:                                        ; preds = %lpad5, %lpad2
  call void @_ZN11xercesc_2_79DOMStringD1Ev(%"class.xercesc_2_7::DOMString"* %name) #7, !dbg !890
  br label %ehcleanup8, !dbg !890

ehcleanup8:                                       ; preds = %ehcleanup, %lpad
  %15 = bitcast %"class.xercesc_2_7::ElementImpl"* %this1 to %"class.xercesc_2_7::ParentNode"*, !dbg !890
  call void @_ZN11xercesc_2_710ParentNodeD2Ev(%"class.xercesc_2_7::ParentNode"* %15) #7, !dbg !890
  br label %eh.resume, !dbg !890

eh.resume:                                        ; preds = %ehcleanup8
  %exn = load i8*, i8** %exn.slot, align 8, !dbg !890
  %sel = load i32, i32* %ehselector.slot, align 4, !dbg !890
  %lpad.val = insertvalue { i8*, i32 } undef, i8* %exn, 0, !dbg !890
  %lpad.val9 = insertvalue { i8*, i32 } %lpad.val, i32 %sel, 1, !dbg !890
  resume { i8*, i32 } %lpad.val9, !dbg !890
}

declare dso_local void @_ZN11xercesc_2_710ParentNodeC2EPNS_12DocumentImplE(%"class.xercesc_2_7::ParentNode"*, %"class.xercesc_2_7::DocumentImpl"*) unnamed_addr #4

declare dso_local void @_ZN11xercesc_2_79DOMStringC1Ev(%"class.xercesc_2_7::DOMString"*) unnamed_addr #4

declare dso_local i32 @__gxx_personality_v0(...)

declare dso_local void @_ZNK11xercesc_2_79DOMString5cloneEv(%"class.xercesc_2_7::DOMString"* sret, %"class.xercesc_2_7::DOMString"*) #4

declare dso_local dereferenceable(8) %"class.xercesc_2_7::DOMString"* @_ZN11xercesc_2_79DOMStringaSERKS0_(%"class.xercesc_2_7::DOMString"*, %"class.xercesc_2_7::DOMString"* dereferenceable(8)) #4

; Function Attrs: nounwind
declare dso_local void @_ZN11xercesc_2_79DOMStringD1Ev(%"class.xercesc_2_7::DOMString"*) unnamed_addr #5

; Function Attrs: noinline nounwind uwtable
define linkonce_odr dso_local void @_ZN11xercesc_2_710ParentNodeD2Ev(%"class.xercesc_2_7::ParentNode"* %this) unnamed_addr #1 comdat align 2 !dbg !891 {
entry:
  %this.addr = alloca %"class.xercesc_2_7::ParentNode"*, align 8
  store %"class.xercesc_2_7::ParentNode"* %this, %"class.xercesc_2_7::ParentNode"** %this.addr, align 8
  call void @llvm.dbg.declare(metadata %"class.xercesc_2_7::ParentNode"** %this.addr, metadata !896, metadata !DIExpression()), !dbg !898
  %this1 = load %"class.xercesc_2_7::ParentNode"*, %"class.xercesc_2_7::ParentNode"** %this.addr, align 8
  %0 = bitcast %"class.xercesc_2_7::ParentNode"* %this1 to %"class.xercesc_2_7::ChildNode"*, !dbg !899
  call void @_ZN11xercesc_2_79ChildNodeD2Ev(%"class.xercesc_2_7::ChildNode"* %0) #7, !dbg !899
  ret void, !dbg !901
}

; Function Attrs: noinline uwtable
define dso_local void @_ZN11xercesc_2_711ElementImplC2ERKS0_b(%"class.xercesc_2_7::ElementImpl"* %this, %"class.xercesc_2_7::ElementImpl"* dereferenceable(104) %other, i1 zeroext %deep) unnamed_addr #3 align 2 personality i8* bitcast (i32 (...)* @__gxx_personality_v0 to i8*) !dbg !902 {
entry:
  %this.addr = alloca %"class.xercesc_2_7::ElementImpl"*, align 8
  %other.addr = alloca %"class.xercesc_2_7::ElementImpl"*, align 8
  %deep.addr = alloca i8, align 1
  %exn.slot = alloca i8*
  %ehselector.slot = alloca i32
  %ref.tmp = alloca %"class.xercesc_2_7::DOMString", align 8
  store %"class.xercesc_2_7::ElementImpl"* %this, %"class.xercesc_2_7::ElementImpl"** %this.addr, align 8
  call void @llvm.dbg.declare(metadata %"class.xercesc_2_7::ElementImpl"** %this.addr, metadata !903, metadata !DIExpression()), !dbg !904
  store %"class.xercesc_2_7::ElementImpl"* %other, %"class.xercesc_2_7::ElementImpl"** %other.addr, align 8
  call void @llvm.dbg.declare(metadata %"class.xercesc_2_7::ElementImpl"** %other.addr, metadata !905, metadata !DIExpression()), !dbg !906
  %frombool = zext i1 %deep to i8
  store i8 %frombool, i8* %deep.addr, align 1
  call void @llvm.dbg.declare(metadata i8* %deep.addr, metadata !907, metadata !DIExpression()), !dbg !908
  %this1 = load %"class.xercesc_2_7::ElementImpl"*, %"class.xercesc_2_7::ElementImpl"** %this.addr, align 8
  %0 = bitcast %"class.xercesc_2_7::ElementImpl"* %this1 to %"class.xercesc_2_7::ParentNode"*, !dbg !909
  %1 = load %"class.xercesc_2_7::ElementImpl"*, %"class.xercesc_2_7::ElementImpl"** %other.addr, align 8, !dbg !910
  %2 = bitcast %"class.xercesc_2_7::ElementImpl"* %1 to %"class.xercesc_2_7::ParentNode"*, !dbg !910
  call void @_ZN11xercesc_2_710ParentNodeC2ERKS0_(%"class.xercesc_2_7::ParentNode"* %0, %"class.xercesc_2_7::ParentNode"* dereferenceable(88) %2), !dbg !911
  %3 = bitcast %"class.xercesc_2_7::ElementImpl"* %this1 to i32 (...)***, !dbg !909
  store i32 (...)** bitcast (i8** getelementptr inbounds ({ [81 x i8*] }, { [81 x i8*] }* @_ZTVN11xercesc_2_711ElementImplE, i32 0, inrange i32 0, i32 2) to i32 (...)**), i32 (...)*** %3, align 8, !dbg !909
  %name = getelementptr inbounds %"class.xercesc_2_7::ElementImpl", %"class.xercesc_2_7::ElementImpl"* %this1, i32 0, i32 1, !dbg !912
  invoke void @_ZN11xercesc_2_79DOMStringC1Ev(%"class.xercesc_2_7::DOMString"* %name)
          to label %invoke.cont unwind label %lpad, !dbg !912

invoke.cont:                                      ; preds = %entry
  %4 = load %"class.xercesc_2_7::ElementImpl"*, %"class.xercesc_2_7::ElementImpl"** %other.addr, align 8, !dbg !913
  %name2 = getelementptr inbounds %"class.xercesc_2_7::ElementImpl", %"class.xercesc_2_7::ElementImpl"* %4, i32 0, i32 1, !dbg !915
  invoke void @_ZNK11xercesc_2_79DOMString5cloneEv(%"class.xercesc_2_7::DOMString"* sret %ref.tmp, %"class.xercesc_2_7::DOMString"* %name2)
          to label %invoke.cont4 unwind label %lpad3, !dbg !916

invoke.cont4:                                     ; preds = %invoke.cont
  %name5 = getelementptr inbounds %"class.xercesc_2_7::ElementImpl", %"class.xercesc_2_7::ElementImpl"* %this1, i32 0, i32 1, !dbg !917
  %call = invoke dereferenceable(8) %"class.xercesc_2_7::DOMString"* @_ZN11xercesc_2_79DOMStringaSERKS0_(%"class.xercesc_2_7::DOMString"* %name5, %"class.xercesc_2_7::DOMString"* dereferenceable(8) %ref.tmp)
          to label %invoke.cont7 unwind label %lpad6, !dbg !918

invoke.cont7:                                     ; preds = %invoke.cont4
  call void @_ZN11xercesc_2_79DOMStringD1Ev(%"class.xercesc_2_7::DOMString"* %ref.tmp) #7, !dbg !917
  %attributes = getelementptr inbounds %"class.xercesc_2_7::ElementImpl", %"class.xercesc_2_7::ElementImpl"* %this1, i32 0, i32 2, !dbg !919
  store %"class.xercesc_2_7::AttrMapImpl"* null, %"class.xercesc_2_7::AttrMapImpl"** %attributes, align 8, !dbg !920
  %5 = bitcast %"class.xercesc_2_7::ElementImpl"* %this1 to void (%"class.xercesc_2_7::ElementImpl"*)***, !dbg !921
  %vtable = load void (%"class.xercesc_2_7::ElementImpl"*)**, void (%"class.xercesc_2_7::ElementImpl"*)*** %5, align 8, !dbg !921
  %vfn = getelementptr inbounds void (%"class.xercesc_2_7::ElementImpl"*)*, void (%"class.xercesc_2_7::ElementImpl"*)** %vtable, i64 78, !dbg !921
  %6 = load void (%"class.xercesc_2_7::ElementImpl"*)*, void (%"class.xercesc_2_7::ElementImpl"*)** %vfn, align 8, !dbg !921
  invoke void %6(%"class.xercesc_2_7::ElementImpl"* %this1)
          to label %invoke.cont8 unwind label %lpad3, !dbg !921

invoke.cont8:                                     ; preds = %invoke.cont7
  %7 = load i8, i8* %deep.addr, align 1, !dbg !922
  %tobool = trunc i8 %7 to i1, !dbg !922
  br i1 %tobool, label %if.then, label %if.end, !dbg !924

if.then:                                          ; preds = %invoke.cont8
  %8 = bitcast %"class.xercesc_2_7::ElementImpl"* %this1 to %"class.xercesc_2_7::ParentNode"*, !dbg !925
  %9 = load %"class.xercesc_2_7::ElementImpl"*, %"class.xercesc_2_7::ElementImpl"** %other.addr, align 8, !dbg !926
  %10 = bitcast %"class.xercesc_2_7::ElementImpl"* %9 to %"class.xercesc_2_7::NodeImpl"*, !dbg !926
  invoke void @_ZN11xercesc_2_710ParentNode13cloneChildrenERKNS_8NodeImplE(%"class.xercesc_2_7::ParentNode"* %8, %"class.xercesc_2_7::NodeImpl"* dereferenceable(32) %10)
          to label %invoke.cont9 unwind label %lpad3, !dbg !925

invoke.cont9:                                     ; preds = %if.then
  br label %if.end, !dbg !925

lpad:                                             ; preds = %entry
  %11 = landingpad { i8*, i32 }
          cleanup, !dbg !927
  %12 = extractvalue { i8*, i32 } %11, 0, !dbg !927
  store i8* %12, i8** %exn.slot, align 8, !dbg !927
  %13 = extractvalue { i8*, i32 } %11, 1, !dbg !927
  store i32 %13, i32* %ehselector.slot, align 4, !dbg !927
  br label %ehcleanup29, !dbg !927

lpad3:                                            ; preds = %if.end21, %invoke.cont18, %if.then14, %if.then, %invoke.cont7, %invoke.cont
  %14 = landingpad { i8*, i32 }
          cleanup, !dbg !928
  %15 = extractvalue { i8*, i32 } %14, 0, !dbg !928
  store i8* %15, i8** %exn.slot, align 8, !dbg !928
  %16 = extractvalue { i8*, i32 } %14, 1, !dbg !928
  store i32 %16, i32* %ehselector.slot, align 4, !dbg !928
  br label %ehcleanup, !dbg !928

lpad6:                                            ; preds = %invoke.cont4
  %17 = landingpad { i8*, i32 }
          cleanup, !dbg !928
  %18 = extractvalue { i8*, i32 } %17, 0, !dbg !928
  store i8* %18, i8** %exn.slot, align 8, !dbg !928
  %19 = extractvalue { i8*, i32 } %17, 1, !dbg !928
  store i32 %19, i32* %ehselector.slot, align 4, !dbg !928
  call void @_ZN11xercesc_2_79DOMStringD1Ev(%"class.xercesc_2_7::DOMString"* %ref.tmp) #7, !dbg !917
  br label %ehcleanup, !dbg !917

if.end:                                           ; preds = %invoke.cont9, %invoke.cont8
  %20 = load %"class.xercesc_2_7::ElementImpl"*, %"class.xercesc_2_7::ElementImpl"** %other.addr, align 8, !dbg !929
  %attributes10 = getelementptr inbounds %"class.xercesc_2_7::ElementImpl", %"class.xercesc_2_7::ElementImpl"* %20, i32 0, i32 2, !dbg !931
  %21 = load %"class.xercesc_2_7::AttrMapImpl"*, %"class.xercesc_2_7::AttrMapImpl"** %attributes10, align 8, !dbg !931
  %cmp = icmp ne %"class.xercesc_2_7::AttrMapImpl"* %21, null, !dbg !932
  br i1 %cmp, label %if.then11, label %if.end28, !dbg !933

if.then11:                                        ; preds = %if.end
  %attributes12 = getelementptr inbounds %"class.xercesc_2_7::ElementImpl", %"class.xercesc_2_7::ElementImpl"* %this1, i32 0, i32 2, !dbg !934
  %22 = load %"class.xercesc_2_7::AttrMapImpl"*, %"class.xercesc_2_7::AttrMapImpl"** %attributes12, align 8, !dbg !934
  %tobool13 = icmp ne %"class.xercesc_2_7::AttrMapImpl"* %22, null, !dbg !934
  br i1 %tobool13, label %if.then14, label %if.end21, !dbg !937

if.then14:                                        ; preds = %if.then11
  %attributes15 = getelementptr inbounds %"class.xercesc_2_7::ElementImpl", %"class.xercesc_2_7::ElementImpl"* %this1, i32 0, i32 2, !dbg !938
  %23 = load %"class.xercesc_2_7::AttrMapImpl"*, %"class.xercesc_2_7::AttrMapImpl"** %attributes15, align 8, !dbg !938
  %24 = bitcast %"class.xercesc_2_7::AttrMapImpl"* %23 to %"class.xercesc_2_7::NamedNodeMapImpl"*, !dbg !940
  %25 = bitcast %"class.xercesc_2_7::NamedNodeMapImpl"* %24 to void (%"class.xercesc_2_7::NamedNodeMapImpl"*)***, !dbg !940
  %vtable16 = load void (%"class.xercesc_2_7::NamedNodeMapImpl"*)**, void (%"class.xercesc_2_7::NamedNodeMapImpl"*)*** %25, align 8, !dbg !940
  %vfn17 = getelementptr inbounds void (%"class.xercesc_2_7::NamedNodeMapImpl"*)*, void (%"class.xercesc_2_7::NamedNodeMapImpl"*)** %vtable16, i64 8, !dbg !940
  %26 = load void (%"class.xercesc_2_7::NamedNodeMapImpl"*)*, void (%"class.xercesc_2_7::NamedNodeMapImpl"*)** %vfn17, align 8, !dbg !940
  invoke void %26(%"class.xercesc_2_7::NamedNodeMapImpl"* %24)
          to label %invoke.cont18 unwind label %lpad3, !dbg !940

invoke.cont18:                                    ; preds = %if.then14
  %attributes19 = getelementptr inbounds %"class.xercesc_2_7::ElementImpl", %"class.xercesc_2_7::ElementImpl"* %this1, i32 0, i32 2, !dbg !941
  %27 = load %"class.xercesc_2_7::AttrMapImpl"*, %"class.xercesc_2_7::AttrMapImpl"** %attributes19, align 8, !dbg !941
  %28 = bitcast %"class.xercesc_2_7::AttrMapImpl"* %27 to %"class.xercesc_2_7::NamedNodeMapImpl"*, !dbg !941
  invoke void @_ZN11xercesc_2_716NamedNodeMapImpl9removeRefEPS0_(%"class.xercesc_2_7::NamedNodeMapImpl"* %28)
          to label %invoke.cont20 unwind label %lpad3, !dbg !942

invoke.cont20:                                    ; preds = %invoke.cont18
  br label %if.end21, !dbg !943

if.end21:                                         ; preds = %invoke.cont20, %if.then11
  %29 = load %"class.xercesc_2_7::ElementImpl"*, %"class.xercesc_2_7::ElementImpl"** %other.addr, align 8, !dbg !944
  %attributes22 = getelementptr inbounds %"class.xercesc_2_7::ElementImpl", %"class.xercesc_2_7::ElementImpl"* %29, i32 0, i32 2, !dbg !945
  %30 = load %"class.xercesc_2_7::AttrMapImpl"*, %"class.xercesc_2_7::AttrMapImpl"** %attributes22, align 8, !dbg !945
  %31 = bitcast %"class.xercesc_2_7::ElementImpl"* %this1 to %"class.xercesc_2_7::NodeImpl"*, !dbg !946
  %32 = bitcast %"class.xercesc_2_7::AttrMapImpl"* %30 to %"class.xercesc_2_7::AttrMapImpl"* (%"class.xercesc_2_7::AttrMapImpl"*, %"class.xercesc_2_7::NodeImpl"*)***, !dbg !947
  %vtable23 = load %"class.xercesc_2_7::AttrMapImpl"* (%"class.xercesc_2_7::AttrMapImpl"*, %"class.xercesc_2_7::NodeImpl"*)**, %"class.xercesc_2_7::AttrMapImpl"* (%"class.xercesc_2_7::AttrMapImpl"*, %"class.xercesc_2_7::NodeImpl"*)*** %32, align 8, !dbg !947
  %vfn24 = getelementptr inbounds %"class.xercesc_2_7::AttrMapImpl"* (%"class.xercesc_2_7::AttrMapImpl"*, %"class.xercesc_2_7::NodeImpl"*)*, %"class.xercesc_2_7::AttrMapImpl"* (%"class.xercesc_2_7::AttrMapImpl"*, %"class.xercesc_2_7::NodeImpl"*)** %vtable23, i64 17, !dbg !947
  %33 = load %"class.xercesc_2_7::AttrMapImpl"* (%"class.xercesc_2_7::AttrMapImpl"*, %"class.xercesc_2_7::NodeImpl"*)*, %"class.xercesc_2_7::AttrMapImpl"* (%"class.xercesc_2_7::AttrMapImpl"*, %"class.xercesc_2_7::NodeImpl"*)** %vfn24, align 8, !dbg !947
  %call26 = invoke %"class.xercesc_2_7::AttrMapImpl"* %33(%"class.xercesc_2_7::AttrMapImpl"* %30, %"class.xercesc_2_7::NodeImpl"* %31)
          to label %invoke.cont25 unwind label %lpad3, !dbg !947

invoke.cont25:                                    ; preds = %if.end21
  %attributes27 = getelementptr inbounds %"class.xercesc_2_7::ElementImpl", %"class.xercesc_2_7::ElementImpl"* %this1, i32 0, i32 2, !dbg !948
  store %"class.xercesc_2_7::AttrMapImpl"* %call26, %"class.xercesc_2_7::AttrMapImpl"** %attributes27, align 8, !dbg !949
  br label %if.end28, !dbg !950

if.end28:                                         ; preds = %invoke.cont25, %if.end
  ret void, !dbg !927

ehcleanup:                                        ; preds = %lpad6, %lpad3
  call void @_ZN11xercesc_2_79DOMStringD1Ev(%"class.xercesc_2_7::DOMString"* %name) #7, !dbg !928
  br label %ehcleanup29, !dbg !928

ehcleanup29:                                      ; preds = %ehcleanup, %lpad
  %34 = bitcast %"class.xercesc_2_7::ElementImpl"* %this1 to %"class.xercesc_2_7::ParentNode"*, !dbg !928
  call void @_ZN11xercesc_2_710ParentNodeD2Ev(%"class.xercesc_2_7::ParentNode"* %34) #7, !dbg !928
  br label %eh.resume, !dbg !928

eh.resume:                                        ; preds = %ehcleanup29
  %exn = load i8*, i8** %exn.slot, align 8, !dbg !928
  %sel = load i32, i32* %ehselector.slot, align 4, !dbg !928
  %lpad.val = insertvalue { i8*, i32 } undef, i8* %exn, 0, !dbg !928
  %lpad.val30 = insertvalue { i8*, i32 } %lpad.val, i32 %sel, 1, !dbg !928
  resume { i8*, i32 } %lpad.val30, !dbg !928
}

declare dso_local void @_ZN11xercesc_2_710ParentNodeC2ERKS0_(%"class.xercesc_2_7::ParentNode"*, %"class.xercesc_2_7::ParentNode"* dereferenceable(88)) unnamed_addr #4

declare dso_local void @_ZN11xercesc_2_710ParentNode13cloneChildrenERKNS_8NodeImplE(%"class.xercesc_2_7::ParentNode"*, %"class.xercesc_2_7::NodeImpl"* dereferenceable(32)) #4

declare dso_local void @_ZN11xercesc_2_716NamedNodeMapImpl9removeRefEPS0_(%"class.xercesc_2_7::NamedNodeMapImpl"*) #4

; Function Attrs: noinline nounwind uwtable
define dso_local void @_ZN11xercesc_2_711ElementImplD2Ev(%"class.xercesc_2_7::ElementImpl"* %this) unnamed_addr #1 align 2 personality i8* bitcast (i32 (...)* @__gxx_personality_v0 to i8*) !dbg !951 {
entry:
  %this.addr = alloca %"class.xercesc_2_7::ElementImpl"*, align 8
  %exn.slot = alloca i8*
  %ehselector.slot = alloca i32
  store %"class.xercesc_2_7::ElementImpl"* %this, %"class.xercesc_2_7::ElementImpl"** %this.addr, align 8
  call void @llvm.dbg.declare(metadata %"class.xercesc_2_7::ElementImpl"** %this.addr, metadata !952, metadata !DIExpression()), !dbg !953
  %this1 = load %"class.xercesc_2_7::ElementImpl"*, %"class.xercesc_2_7::ElementImpl"** %this.addr, align 8
  %0 = bitcast %"class.xercesc_2_7::ElementImpl"* %this1 to i32 (...)***, !dbg !954
  store i32 (...)** bitcast (i8** getelementptr inbounds ({ [81 x i8*] }, { [81 x i8*] }* @_ZTVN11xercesc_2_711ElementImplE, i32 0, inrange i32 0, i32 2) to i32 (...)**), i32 (...)*** %0, align 8, !dbg !954
  %attributes = getelementptr inbounds %"class.xercesc_2_7::ElementImpl", %"class.xercesc_2_7::ElementImpl"* %this1, i32 0, i32 2, !dbg !955
  %1 = load %"class.xercesc_2_7::AttrMapImpl"*, %"class.xercesc_2_7::AttrMapImpl"** %attributes, align 8, !dbg !955
  %tobool = icmp ne %"class.xercesc_2_7::AttrMapImpl"* %1, null, !dbg !955
  br i1 %tobool, label %if.then, label %if.end, !dbg !958

if.then:                                          ; preds = %entry
  %attributes2 = getelementptr inbounds %"class.xercesc_2_7::ElementImpl", %"class.xercesc_2_7::ElementImpl"* %this1, i32 0, i32 2, !dbg !959
  %2 = load %"class.xercesc_2_7::AttrMapImpl"*, %"class.xercesc_2_7::AttrMapImpl"** %attributes2, align 8, !dbg !959
  %3 = bitcast %"class.xercesc_2_7::AttrMapImpl"* %2 to %"class.xercesc_2_7::NamedNodeMapImpl"*, !dbg !961
  %4 = bitcast %"class.xercesc_2_7::NamedNodeMapImpl"* %3 to void (%"class.xercesc_2_7::NamedNodeMapImpl"*)***, !dbg !961
  %vtable = load void (%"class.xercesc_2_7::NamedNodeMapImpl"*)**, void (%"class.xercesc_2_7::NamedNodeMapImpl"*)*** %4, align 8, !dbg !961
  %vfn = getelementptr inbounds void (%"class.xercesc_2_7::NamedNodeMapImpl"*)*, void (%"class.xercesc_2_7::NamedNodeMapImpl"*)** %vtable, i64 8, !dbg !961
  %5 = load void (%"class.xercesc_2_7::NamedNodeMapImpl"*)*, void (%"class.xercesc_2_7::NamedNodeMapImpl"*)** %vfn, align 8, !dbg !961
  invoke void %5(%"class.xercesc_2_7::NamedNodeMapImpl"* %3)
          to label %invoke.cont unwind label %lpad, !dbg !961

invoke.cont:                                      ; preds = %if.then
  %attributes3 = getelementptr inbounds %"class.xercesc_2_7::ElementImpl", %"class.xercesc_2_7::ElementImpl"* %this1, i32 0, i32 2, !dbg !962
  %6 = load %"class.xercesc_2_7::AttrMapImpl"*, %"class.xercesc_2_7::AttrMapImpl"** %attributes3, align 8, !dbg !962
  %7 = bitcast %"class.xercesc_2_7::AttrMapImpl"* %6 to %"class.xercesc_2_7::NamedNodeMapImpl"*, !dbg !962
  invoke void @_ZN11xercesc_2_716NamedNodeMapImpl9removeRefEPS0_(%"class.xercesc_2_7::NamedNodeMapImpl"* %7)
          to label %invoke.cont4 unwind label %lpad, !dbg !963

invoke.cont4:                                     ; preds = %invoke.cont
  br label %if.end, !dbg !964

lpad:                                             ; preds = %invoke.cont, %if.then
  %8 = landingpad { i8*, i32 }
          catch i8* null, !dbg !965
  %9 = extractvalue { i8*, i32 } %8, 0, !dbg !965
  store i8* %9, i8** %exn.slot, align 8, !dbg !965
  %10 = extractvalue { i8*, i32 } %8, 1, !dbg !965
  store i32 %10, i32* %ehselector.slot, align 4, !dbg !965
  %name5 = getelementptr inbounds %"class.xercesc_2_7::ElementImpl", %"class.xercesc_2_7::ElementImpl"* %this1, i32 0, i32 1, !dbg !966
  call void @_ZN11xercesc_2_79DOMStringD1Ev(%"class.xercesc_2_7::DOMString"* %name5) #7, !dbg !966
  %11 = bitcast %"class.xercesc_2_7::ElementImpl"* %this1 to %"class.xercesc_2_7::ParentNode"*, !dbg !966
  call void @_ZN11xercesc_2_710ParentNodeD2Ev(%"class.xercesc_2_7::ParentNode"* %11) #7, !dbg !966
  br label %terminate.handler, !dbg !966

if.end:                                           ; preds = %invoke.cont4, %entry
  %name = getelementptr inbounds %"class.xercesc_2_7::ElementImpl", %"class.xercesc_2_7::ElementImpl"* %this1, i32 0, i32 1, !dbg !966
  call void @_ZN11xercesc_2_79DOMStringD1Ev(%"class.xercesc_2_7::DOMString"* %name) #7, !dbg !966
  %12 = bitcast %"class.xercesc_2_7::ElementImpl"* %this1 to %"class.xercesc_2_7::ParentNode"*, !dbg !966
  call void @_ZN11xercesc_2_710ParentNodeD2Ev(%"class.xercesc_2_7::ParentNode"* %12) #7, !dbg !966
  ret void, !dbg !967

terminate.handler:                                ; preds = %lpad
  %exn = load i8*, i8** %exn.slot, align 8, !dbg !966
  call void @__clang_call_terminate(i8* %exn) #9, !dbg !966
  unreachable, !dbg !966
}

; Function Attrs: noinline noreturn nounwind
define linkonce_odr hidden void @__clang_call_terminate(i8* %0) #6 comdat {
  %2 = call i8* @__cxa_begin_catch(i8* %0) #7
  call void @_ZSt9terminatev() #9
  unreachable
}

declare dso_local i8* @__cxa_begin_catch(i8*)

declare dso_local void @_ZSt9terminatev()

; Function Attrs: noinline nounwind uwtable
define dso_local void @_ZN11xercesc_2_711ElementImplD0Ev(%"class.xercesc_2_7::ElementImpl"* %this) unnamed_addr #1 align 2 !dbg !968 {
entry:
  %this.addr = alloca %"class.xercesc_2_7::ElementImpl"*, align 8
  store %"class.xercesc_2_7::ElementImpl"* %this, %"class.xercesc_2_7::ElementImpl"** %this.addr, align 8
  call void @llvm.dbg.declare(metadata %"class.xercesc_2_7::ElementImpl"** %this.addr, metadata !969, metadata !DIExpression()), !dbg !970
  %this1 = load %"class.xercesc_2_7::ElementImpl"*, %"class.xercesc_2_7::ElementImpl"** %this.addr, align 8
  call void @_ZN11xercesc_2_711ElementImplD1Ev(%"class.xercesc_2_7::ElementImpl"* %this1) #7, !dbg !971
  %0 = bitcast %"class.xercesc_2_7::ElementImpl"* %this1 to i8*, !dbg !971
  call void @_ZN11xercesc_2_77XMemorydlEPv(i8* %0) #7, !dbg !971
  ret void, !dbg !972
}

; Function Attrs: nounwind
declare dso_local void @_ZN11xercesc_2_77XMemorydlEPv(i8*) #5

; Function Attrs: noinline uwtable
define dso_local %"class.xercesc_2_7::NodeImpl"* @_ZN11xercesc_2_711ElementImpl9cloneNodeEb(%"class.xercesc_2_7::ElementImpl"* %this, i1 zeroext %deep) unnamed_addr #3 align 2 personality i8* bitcast (i32 (...)* @__gxx_personality_v0 to i8*) !dbg !973 {
entry:
  %this.addr = alloca %"class.xercesc_2_7::ElementImpl"*, align 8
  %deep.addr = alloca i8, align 1
  %exn.slot = alloca i8*
  %ehselector.slot = alloca i32
  store %"class.xercesc_2_7::ElementImpl"* %this, %"class.xercesc_2_7::ElementImpl"** %this.addr, align 8
  call void @llvm.dbg.declare(metadata %"class.xercesc_2_7::ElementImpl"** %this.addr, metadata !974, metadata !DIExpression()), !dbg !975
  %frombool = zext i1 %deep to i8
  store i8 %frombool, i8* %deep.addr, align 1
  call void @llvm.dbg.declare(metadata i8* %deep.addr, metadata !976, metadata !DIExpression()), !dbg !977
  %this1 = load %"class.xercesc_2_7::ElementImpl"*, %"class.xercesc_2_7::ElementImpl"** %this.addr, align 8
  %0 = bitcast %"class.xercesc_2_7::ElementImpl"* %this1 to %"class.xercesc_2_7::ParentNode"*, !dbg !978
  %1 = bitcast %"class.xercesc_2_7::ParentNode"* %0 to %"class.xercesc_2_7::DocumentImpl"* (%"class.xercesc_2_7::ParentNode"*)***, !dbg !978
  %vtable = load %"class.xercesc_2_7::DocumentImpl"* (%"class.xercesc_2_7::ParentNode"*)**, %"class.xercesc_2_7::DocumentImpl"* (%"class.xercesc_2_7::ParentNode"*)*** %1, align 8, !dbg !978
  %vfn = getelementptr inbounds %"class.xercesc_2_7::DocumentImpl"* (%"class.xercesc_2_7::ParentNode"*)*, %"class.xercesc_2_7::DocumentImpl"* (%"class.xercesc_2_7::ParentNode"*)** %vtable, i64 26, !dbg !978
  %2 = load %"class.xercesc_2_7::DocumentImpl"* (%"class.xercesc_2_7::ParentNode"*)*, %"class.xercesc_2_7::DocumentImpl"* (%"class.xercesc_2_7::ParentNode"*)** %vfn, align 8, !dbg !978
  %call = call %"class.xercesc_2_7::DocumentImpl"* %2(%"class.xercesc_2_7::ParentNode"* %0), !dbg !978
  %call2 = call %"class.xercesc_2_7::MemoryManager"* @_ZNK11xercesc_2_712DocumentImpl16getMemoryManagerEv(%"class.xercesc_2_7::DocumentImpl"* %call), !dbg !979
  %call3 = call i8* @_ZN11xercesc_2_77XMemorynwEmPNS_13MemoryManagerE(i64 104, %"class.xercesc_2_7::MemoryManager"* %call2), !dbg !980
  %3 = bitcast i8* %call3 to %"class.xercesc_2_7::ElementImpl"*, !dbg !980
  %4 = load i8, i8* %deep.addr, align 1, !dbg !981
  %tobool = trunc i8 %4 to i1, !dbg !981
  invoke void @_ZN11xercesc_2_711ElementImplC1ERKS0_b(%"class.xercesc_2_7::ElementImpl"* %3, %"class.xercesc_2_7::ElementImpl"* dereferenceable(104) %this1, i1 zeroext %tobool)
          to label %invoke.cont unwind label %lpad, !dbg !982

invoke.cont:                                      ; preds = %entry
  %5 = bitcast %"class.xercesc_2_7::ElementImpl"* %3 to %"class.xercesc_2_7::NodeImpl"*, !dbg !980
  ret %"class.xercesc_2_7::NodeImpl"* %5, !dbg !983

lpad:                                             ; preds = %entry
  %6 = landingpad { i8*, i32 }
          cleanup, !dbg !984
  %7 = extractvalue { i8*, i32 } %6, 0, !dbg !984
  store i8* %7, i8** %exn.slot, align 8, !dbg !984
  %8 = extractvalue { i8*, i32 } %6, 1, !dbg !984
  store i32 %8, i32* %ehselector.slot, align 4, !dbg !984
  call void @_ZN11xercesc_2_77XMemorydlEPvPNS_13MemoryManagerE(i8* %call3, %"class.xercesc_2_7::MemoryManager"* %call2) #7, !dbg !980
  br label %eh.resume, !dbg !980

eh.resume:                                        ; preds = %lpad
  %exn = load i8*, i8** %exn.slot, align 8, !dbg !980
  %sel = load i32, i32* %ehselector.slot, align 4, !dbg !980
  %lpad.val = insertvalue { i8*, i32 } undef, i8* %exn, 0, !dbg !980
  %lpad.val4 = insertvalue { i8*, i32 } %lpad.val, i32 %sel, 1, !dbg !980
  resume { i8*, i32 } %lpad.val4, !dbg !980
}

; Function Attrs: noinline nounwind uwtable
define linkonce_odr dso_local %"class.xercesc_2_7::MemoryManager"* @_ZNK11xercesc_2_712DocumentImpl16getMemoryManagerEv(%"class.xercesc_2_7::DocumentImpl"* %this) #1 comdat align 2 !dbg !985 {
entry:
  %this.addr = alloca %"class.xercesc_2_7::DocumentImpl"*, align 8
  store %"class.xercesc_2_7::DocumentImpl"* %this, %"class.xercesc_2_7::DocumentImpl"** %this.addr, align 8
  call void @llvm.dbg.declare(metadata %"class.xercesc_2_7::DocumentImpl"** %this.addr, metadata !991, metadata !DIExpression()), !dbg !993
  %this1 = load %"class.xercesc_2_7::DocumentImpl"*, %"class.xercesc_2_7::DocumentImpl"** %this.addr, align 8
  %fMemoryManager = getelementptr inbounds %"class.xercesc_2_7::DocumentImpl", %"class.xercesc_2_7::DocumentImpl"* %this1, i32 0, i32 11, !dbg !994
  %0 = load %"class.xercesc_2_7::MemoryManager"*, %"class.xercesc_2_7::MemoryManager"** %fMemoryManager, align 8, !dbg !994
  ret %"class.xercesc_2_7::MemoryManager"* %0, !dbg !995
}

declare dso_local i8* @_ZN11xercesc_2_77XMemorynwEmPNS_13MemoryManagerE(i64, %"class.xercesc_2_7::MemoryManager"*) #4

; Function Attrs: nounwind
declare dso_local void @_ZN11xercesc_2_77XMemorydlEPvPNS_13MemoryManagerE(i8*, %"class.xercesc_2_7::MemoryManager"*) #5

; Function Attrs: noinline uwtable
define dso_local void @_ZN11xercesc_2_711ElementImpl16setOwnerDocumentEPNS_12DocumentImplE(%"class.xercesc_2_7::ElementImpl"* %this, %"class.xercesc_2_7::DocumentImpl"* %doc) unnamed_addr #3 align 2 !dbg !996 {
entry:
  %this.addr = alloca %"class.xercesc_2_7::ElementImpl"*, align 8
  %doc.addr = alloca %"class.xercesc_2_7::DocumentImpl"*, align 8
  store %"class.xercesc_2_7::ElementImpl"* %this, %"class.xercesc_2_7::ElementImpl"** %this.addr, align 8
  call void @llvm.dbg.declare(metadata %"class.xercesc_2_7::ElementImpl"** %this.addr, metadata !997, metadata !DIExpression()), !dbg !998
  store %"class.xercesc_2_7::DocumentImpl"* %doc, %"class.xercesc_2_7::DocumentImpl"** %doc.addr, align 8
  call void @llvm.dbg.declare(metadata %"class.xercesc_2_7::DocumentImpl"** %doc.addr, metadata !999, metadata !DIExpression()), !dbg !1000
  %this1 = load %"class.xercesc_2_7::ElementImpl"*, %"class.xercesc_2_7::ElementImpl"** %this.addr, align 8
  %0 = bitcast %"class.xercesc_2_7::ElementImpl"* %this1 to %"class.xercesc_2_7::ParentNode"*, !dbg !1001
  %1 = load %"class.xercesc_2_7::DocumentImpl"*, %"class.xercesc_2_7::DocumentImpl"** %doc.addr, align 8, !dbg !1002
  call void @_ZN11xercesc_2_710ParentNode16setOwnerDocumentEPNS_12DocumentImplE(%"class.xercesc_2_7::ParentNode"* %0, %"class.xercesc_2_7::DocumentImpl"* %1), !dbg !1001
  %attributes = getelementptr inbounds %"class.xercesc_2_7::ElementImpl", %"class.xercesc_2_7::ElementImpl"* %this1, i32 0, i32 2, !dbg !1003
  %2 = load %"class.xercesc_2_7::AttrMapImpl"*, %"class.xercesc_2_7::AttrMapImpl"** %attributes, align 8, !dbg !1003
  %cmp = icmp ne %"class.xercesc_2_7::AttrMapImpl"* %2, null, !dbg !1005
  br i1 %cmp, label %if.then, label %if.end, !dbg !1006

if.then:                                          ; preds = %entry
  %attributes2 = getelementptr inbounds %"class.xercesc_2_7::ElementImpl", %"class.xercesc_2_7::ElementImpl"* %this1, i32 0, i32 2, !dbg !1007
  %3 = load %"class.xercesc_2_7::AttrMapImpl"*, %"class.xercesc_2_7::AttrMapImpl"** %attributes2, align 8, !dbg !1007
  %4 = bitcast %"class.xercesc_2_7::AttrMapImpl"* %3 to %"class.xercesc_2_7::NamedNodeMapImpl"*, !dbg !1008
  %5 = load %"class.xercesc_2_7::DocumentImpl"*, %"class.xercesc_2_7::DocumentImpl"** %doc.addr, align 8, !dbg !1009
  %6 = bitcast %"class.xercesc_2_7::NamedNodeMapImpl"* %4 to void (%"class.xercesc_2_7::NamedNodeMapImpl"*, %"class.xercesc_2_7::DocumentImpl"*)***, !dbg !1008
  %vtable = load void (%"class.xercesc_2_7::NamedNodeMapImpl"*, %"class.xercesc_2_7::DocumentImpl"*)**, void (%"class.xercesc_2_7::NamedNodeMapImpl"*, %"class.xercesc_2_7::DocumentImpl"*)*** %6, align 8, !dbg !1008
  %vfn = getelementptr inbounds void (%"class.xercesc_2_7::NamedNodeMapImpl"*, %"class.xercesc_2_7::DocumentImpl"*)*, void (%"class.xercesc_2_7::NamedNodeMapImpl"*, %"class.xercesc_2_7::DocumentImpl"*)** %vtable, i64 16, !dbg !1008
  %7 = load void (%"class.xercesc_2_7::NamedNodeMapImpl"*, %"class.xercesc_2_7::DocumentImpl"*)*, void (%"class.xercesc_2_7::NamedNodeMapImpl"*, %"class.xercesc_2_7::DocumentImpl"*)** %vfn, align 8, !dbg !1008
  call void %7(%"class.xercesc_2_7::NamedNodeMapImpl"* %4, %"class.xercesc_2_7::DocumentImpl"* %5), !dbg !1008
  br label %if.end, !dbg !1007

if.end:                                           ; preds = %if.then, %entry
  ret void, !dbg !1010
}

declare dso_local void @_ZN11xercesc_2_710ParentNode16setOwnerDocumentEPNS_12DocumentImplE(%"class.xercesc_2_7::ParentNode"*, %"class.xercesc_2_7::DocumentImpl"*) unnamed_addr #4

; Function Attrs: noinline uwtable
define dso_local void @_ZN11xercesc_2_711ElementImpl11getNodeNameEv(%"class.xercesc_2_7::DOMString"* noalias sret %agg.result, %"class.xercesc_2_7::ElementImpl"* %this) unnamed_addr #3 align 2 !dbg !1011 {
entry:
  %result.ptr = alloca i8*, align 8
  %this.addr = alloca %"class.xercesc_2_7::ElementImpl"*, align 8
  %0 = bitcast %"class.xercesc_2_7::DOMString"* %agg.result to i8*
  store i8* %0, i8** %result.ptr, align 8
  store %"class.xercesc_2_7::ElementImpl"* %this, %"class.xercesc_2_7::ElementImpl"** %this.addr, align 8
  call void @llvm.dbg.declare(metadata %"class.xercesc_2_7::ElementImpl"** %this.addr, metadata !1012, metadata !DIExpression()), !dbg !1013
  %this1 = load %"class.xercesc_2_7::ElementImpl"*, %"class.xercesc_2_7::ElementImpl"** %this.addr, align 8
  %name = getelementptr inbounds %"class.xercesc_2_7::ElementImpl", %"class.xercesc_2_7::ElementImpl"* %this1, i32 0, i32 1, !dbg !1014
  call void @_ZN11xercesc_2_79DOMStringC1ERKS0_(%"class.xercesc_2_7::DOMString"* %agg.result, %"class.xercesc_2_7::DOMString"* dereferenceable(8) %name), !dbg !1014
  ret void, !dbg !1015
}

declare dso_local void @_ZN11xercesc_2_79DOMStringC1ERKS0_(%"class.xercesc_2_7::DOMString"*, %"class.xercesc_2_7::DOMString"* dereferenceable(8)) unnamed_addr #4

; Function Attrs: noinline nounwind uwtable
define dso_local signext i16 @_ZN11xercesc_2_711ElementImpl11getNodeTypeEv(%"class.xercesc_2_7::ElementImpl"* %this) unnamed_addr #1 align 2 !dbg !1016 {
entry:
  %this.addr = alloca %"class.xercesc_2_7::ElementImpl"*, align 8
  store %"class.xercesc_2_7::ElementImpl"* %this, %"class.xercesc_2_7::ElementImpl"** %this.addr, align 8
  call void @llvm.dbg.declare(metadata %"class.xercesc_2_7::ElementImpl"** %this.addr, metadata !1017, metadata !DIExpression()), !dbg !1018
  %this1 = load %"class.xercesc_2_7::ElementImpl"*, %"class.xercesc_2_7::ElementImpl"** %this.addr, align 8
  ret i16 1, !dbg !1019
}

; Function Attrs: noinline uwtable
define dso_local void @_ZN11xercesc_2_711ElementImpl12getAttributeERKNS_9DOMStringE(%"class.xercesc_2_7::DOMString"* noalias sret %agg.result, %"class.xercesc_2_7::ElementImpl"* %this, %"class.xercesc_2_7::DOMString"* dereferenceable(8) %nam) unnamed_addr #3 align 2 !dbg !1020 {
entry:
  %result.ptr = alloca i8*, align 8
  %this.addr = alloca %"class.xercesc_2_7::ElementImpl"*, align 8
  %nam.addr = alloca %"class.xercesc_2_7::DOMString"*, align 8
  %attr = alloca %"class.xercesc_2_7::AttrImpl"*, align 8
  %0 = bitcast %"class.xercesc_2_7::DOMString"* %agg.result to i8*
  store i8* %0, i8** %result.ptr, align 8
  store %"class.xercesc_2_7::ElementImpl"* %this, %"class.xercesc_2_7::ElementImpl"** %this.addr, align 8
  call void @llvm.dbg.declare(metadata %"class.xercesc_2_7::ElementImpl"** %this.addr, metadata !1021, metadata !DIExpression()), !dbg !1022
  store %"class.xercesc_2_7::DOMString"* %nam, %"class.xercesc_2_7::DOMString"** %nam.addr, align 8
  call void @llvm.dbg.declare(metadata %"class.xercesc_2_7::DOMString"** %nam.addr, metadata !1023, metadata !DIExpression()), !dbg !1024
  %this1 = load %"class.xercesc_2_7::ElementImpl"*, %"class.xercesc_2_7::ElementImpl"** %this.addr, align 8
  call void @llvm.dbg.declare(metadata %"class.xercesc_2_7::AttrImpl"** %attr, metadata !1025, metadata !DIExpression()), !dbg !1026
  store %"class.xercesc_2_7::AttrImpl"* null, %"class.xercesc_2_7::AttrImpl"** %attr, align 8, !dbg !1026
  %attributes = getelementptr inbounds %"class.xercesc_2_7::ElementImpl", %"class.xercesc_2_7::ElementImpl"* %this1, i32 0, i32 2, !dbg !1027
  %1 = load %"class.xercesc_2_7::AttrMapImpl"*, %"class.xercesc_2_7::AttrMapImpl"** %attributes, align 8, !dbg !1027
  %cmp = icmp ne %"class.xercesc_2_7::AttrMapImpl"* %1, null, !dbg !1029
  br i1 %cmp, label %if.then, label %if.end, !dbg !1030

if.then:                                          ; preds = %entry
  %attributes2 = getelementptr inbounds %"class.xercesc_2_7::ElementImpl", %"class.xercesc_2_7::ElementImpl"* %this1, i32 0, i32 2, !dbg !1031
  %2 = load %"class.xercesc_2_7::AttrMapImpl"*, %"class.xercesc_2_7::AttrMapImpl"** %attributes2, align 8, !dbg !1031
  %3 = bitcast %"class.xercesc_2_7::AttrMapImpl"* %2 to %"class.xercesc_2_7::NamedNodeMapImpl"*, !dbg !1032
  %4 = load %"class.xercesc_2_7::DOMString"*, %"class.xercesc_2_7::DOMString"** %nam.addr, align 8, !dbg !1033
  %5 = bitcast %"class.xercesc_2_7::NamedNodeMapImpl"* %3 to %"class.xercesc_2_7::NodeImpl"* (%"class.xercesc_2_7::NamedNodeMapImpl"*, %"class.xercesc_2_7::DOMString"*)***, !dbg !1032
  %vtable = load %"class.xercesc_2_7::NodeImpl"* (%"class.xercesc_2_7::NamedNodeMapImpl"*, %"class.xercesc_2_7::DOMString"*)**, %"class.xercesc_2_7::NodeImpl"* (%"class.xercesc_2_7::NamedNodeMapImpl"*, %"class.xercesc_2_7::DOMString"*)*** %5, align 8, !dbg !1032
  %vfn = getelementptr inbounds %"class.xercesc_2_7::NodeImpl"* (%"class.xercesc_2_7::NamedNodeMapImpl"*, %"class.xercesc_2_7::DOMString"*)*, %"class.xercesc_2_7::NodeImpl"* (%"class.xercesc_2_7::NamedNodeMapImpl"*, %"class.xercesc_2_7::DOMString"*)** %vtable, i64 6, !dbg !1032
  %6 = load %"class.xercesc_2_7::NodeImpl"* (%"class.xercesc_2_7::NamedNodeMapImpl"*, %"class.xercesc_2_7::DOMString"*)*, %"class.xercesc_2_7::NodeImpl"* (%"class.xercesc_2_7::NamedNodeMapImpl"*, %"class.xercesc_2_7::DOMString"*)** %vfn, align 8, !dbg !1032
  %call = call %"class.xercesc_2_7::NodeImpl"* %6(%"class.xercesc_2_7::NamedNodeMapImpl"* %3, %"class.xercesc_2_7::DOMString"* dereferenceable(8) %4), !dbg !1032
  %7 = bitcast %"class.xercesc_2_7::NodeImpl"* %call to %"class.xercesc_2_7::AttrImpl"*, !dbg !1034
  store %"class.xercesc_2_7::AttrImpl"* %7, %"class.xercesc_2_7::AttrImpl"** %attr, align 8, !dbg !1035
  br label %if.end, !dbg !1036

if.end:                                           ; preds = %if.then, %entry
  %8 = load %"class.xercesc_2_7::AttrImpl"*, %"class.xercesc_2_7::AttrImpl"** %attr, align 8, !dbg !1037
  %cmp3 = icmp eq %"class.xercesc_2_7::AttrImpl"* %8, null, !dbg !1038
  br i1 %cmp3, label %cond.true, label %cond.false, !dbg !1039

cond.true:                                        ; preds = %if.end
  %call4 = call dereferenceable(8) %"class.xercesc_2_7::DOMString"* @_ZN11xercesc_2_711DStringPool15getStaticStringEPKcPPNS_9DOMStringEPFvvERNS_18XMLRegisterCleanupE(i8* getelementptr inbounds ([1 x i8], [1 x i8]* @.str, i64 0, i64 0), %"class.xercesc_2_7::DOMString"** @_ZN11xercesc_2_7L12gEmptyStringE, void ()* @_ZN11xercesc_2_711ElementImpl17reinitElementImplEv, %"class.xercesc_2_7::XMLRegisterCleanup"* dereferenceable(24) @_ZN11xercesc_2_7L18emptyStringCleanupE), !dbg !1040
  call void @_ZN11xercesc_2_79DOMStringC1ERKS0_(%"class.xercesc_2_7::DOMString"* %agg.result, %"class.xercesc_2_7::DOMString"* dereferenceable(8) %call4), !dbg !1040
  br label %cond.end, !dbg !1039

cond.false:                                       ; preds = %if.end
  %9 = load %"class.xercesc_2_7::AttrImpl"*, %"class.xercesc_2_7::AttrImpl"** %attr, align 8, !dbg !1041
  %10 = bitcast %"class.xercesc_2_7::AttrImpl"* %9 to void (%"class.xercesc_2_7::DOMString"*, %"class.xercesc_2_7::AttrImpl"*)***, !dbg !1042
  %vtable5 = load void (%"class.xercesc_2_7::DOMString"*, %"class.xercesc_2_7::AttrImpl"*)**, void (%"class.xercesc_2_7::DOMString"*, %"class.xercesc_2_7::AttrImpl"*)*** %10, align 8, !dbg !1042
  %vfn6 = getelementptr inbounds void (%"class.xercesc_2_7::DOMString"*, %"class.xercesc_2_7::AttrImpl"*)*, void (%"class.xercesc_2_7::DOMString"*, %"class.xercesc_2_7::AttrImpl"*)** %vtable5, i64 49, !dbg !1042
  %11 = load void (%"class.xercesc_2_7::DOMString"*, %"class.xercesc_2_7::AttrImpl"*)*, void (%"class.xercesc_2_7::DOMString"*, %"class.xercesc_2_7::AttrImpl"*)** %vfn6, align 8, !dbg !1042
  call void %11(%"class.xercesc_2_7::DOMString"* sret %agg.result, %"class.xercesc_2_7::AttrImpl"* %9), !dbg !1042
  br label %cond.end, !dbg !1039

cond.end:                                         ; preds = %cond.false, %cond.true
  ret void, !dbg !1043
}

declare dso_local dereferenceable(8) %"class.xercesc_2_7::DOMString"* @_ZN11xercesc_2_711DStringPool15getStaticStringEPKcPPNS_9DOMStringEPFvvERNS_18XMLRegisterCleanupE(i8*, %"class.xercesc_2_7::DOMString"**, void ()*, %"class.xercesc_2_7::XMLRegisterCleanup"* dereferenceable(24)) #4

; Function Attrs: noinline nounwind uwtable
define dso_local void @_ZN11xercesc_2_711ElementImpl17reinitElementImplEv() #1 align 2 !dbg !1044 {
entry:
  %0 = load %"class.xercesc_2_7::DOMString"*, %"class.xercesc_2_7::DOMString"** @_ZN11xercesc_2_7L12gEmptyStringE, align 8, !dbg !1045
  %isnull = icmp eq %"class.xercesc_2_7::DOMString"* %0, null, !dbg !1046
  br i1 %isnull, label %delete.end, label %delete.notnull, !dbg !1046

delete.notnull:                                   ; preds = %entry
  call void @_ZN11xercesc_2_79DOMStringD1Ev(%"class.xercesc_2_7::DOMString"* %0) #7, !dbg !1046
  %1 = bitcast %"class.xercesc_2_7::DOMString"* %0 to i8*, !dbg !1046
  call void @_ZN11xercesc_2_77XMemorydlEPv(i8* %1) #7, !dbg !1046
  br label %delete.end, !dbg !1046

delete.end:                                       ; preds = %delete.notnull, %entry
  store %"class.xercesc_2_7::DOMString"* null, %"class.xercesc_2_7::DOMString"** @_ZN11xercesc_2_7L12gEmptyStringE, align 8, !dbg !1047
  ret void, !dbg !1048
}

; Function Attrs: noinline uwtable
define dso_local %"class.xercesc_2_7::AttrImpl"* @_ZN11xercesc_2_711ElementImpl16getAttributeNodeERKNS_9DOMStringE(%"class.xercesc_2_7::ElementImpl"* %this, %"class.xercesc_2_7::DOMString"* dereferenceable(8) %nam) unnamed_addr #3 align 2 !dbg !1049 {
entry:
  %this.addr = alloca %"class.xercesc_2_7::ElementImpl"*, align 8
  %nam.addr = alloca %"class.xercesc_2_7::DOMString"*, align 8
  store %"class.xercesc_2_7::ElementImpl"* %this, %"class.xercesc_2_7::ElementImpl"** %this.addr, align 8
  call void @llvm.dbg.declare(metadata %"class.xercesc_2_7::ElementImpl"** %this.addr, metadata !1050, metadata !DIExpression()), !dbg !1051
  store %"class.xercesc_2_7::DOMString"* %nam, %"class.xercesc_2_7::DOMString"** %nam.addr, align 8
  call void @llvm.dbg.declare(metadata %"class.xercesc_2_7::DOMString"** %nam.addr, metadata !1052, metadata !DIExpression()), !dbg !1053
  %this1 = load %"class.xercesc_2_7::ElementImpl"*, %"class.xercesc_2_7::ElementImpl"** %this.addr, align 8
  %attributes = getelementptr inbounds %"class.xercesc_2_7::ElementImpl", %"class.xercesc_2_7::ElementImpl"* %this1, i32 0, i32 2, !dbg !1054
  %0 = load %"class.xercesc_2_7::AttrMapImpl"*, %"class.xercesc_2_7::AttrMapImpl"** %attributes, align 8, !dbg !1054
  %cmp = icmp eq %"class.xercesc_2_7::AttrMapImpl"* %0, null, !dbg !1055
  br i1 %cmp, label %cond.true, label %cond.false, !dbg !1056

cond.true:                                        ; preds = %entry
  br label %cond.end, !dbg !1056

cond.false:                                       ; preds = %entry
  %attributes2 = getelementptr inbounds %"class.xercesc_2_7::ElementImpl", %"class.xercesc_2_7::ElementImpl"* %this1, i32 0, i32 2, !dbg !1057
  %1 = load %"class.xercesc_2_7::AttrMapImpl"*, %"class.xercesc_2_7::AttrMapImpl"** %attributes2, align 8, !dbg !1057
  %2 = bitcast %"class.xercesc_2_7::AttrMapImpl"* %1 to %"class.xercesc_2_7::NamedNodeMapImpl"*, !dbg !1058
  %3 = load %"class.xercesc_2_7::DOMString"*, %"class.xercesc_2_7::DOMString"** %nam.addr, align 8, !dbg !1059
  %4 = bitcast %"class.xercesc_2_7::NamedNodeMapImpl"* %2 to %"class.xercesc_2_7::NodeImpl"* (%"class.xercesc_2_7::NamedNodeMapImpl"*, %"class.xercesc_2_7::DOMString"*)***, !dbg !1058
  %vtable = load %"class.xercesc_2_7::NodeImpl"* (%"class.xercesc_2_7::NamedNodeMapImpl"*, %"class.xercesc_2_7::DOMString"*)**, %"class.xercesc_2_7::NodeImpl"* (%"class.xercesc_2_7::NamedNodeMapImpl"*, %"class.xercesc_2_7::DOMString"*)*** %4, align 8, !dbg !1058
  %vfn = getelementptr inbounds %"class.xercesc_2_7::NodeImpl"* (%"class.xercesc_2_7::NamedNodeMapImpl"*, %"class.xercesc_2_7::DOMString"*)*, %"class.xercesc_2_7::NodeImpl"* (%"class.xercesc_2_7::NamedNodeMapImpl"*, %"class.xercesc_2_7::DOMString"*)** %vtable, i64 6, !dbg !1058
  %5 = load %"class.xercesc_2_7::NodeImpl"* (%"class.xercesc_2_7::NamedNodeMapImpl"*, %"class.xercesc_2_7::DOMString"*)*, %"class.xercesc_2_7::NodeImpl"* (%"class.xercesc_2_7::NamedNodeMapImpl"*, %"class.xercesc_2_7::DOMString"*)** %vfn, align 8, !dbg !1058
  %call = call %"class.xercesc_2_7::NodeImpl"* %5(%"class.xercesc_2_7::NamedNodeMapImpl"* %2, %"class.xercesc_2_7::DOMString"* dereferenceable(8) %3), !dbg !1058
  %6 = bitcast %"class.xercesc_2_7::NodeImpl"* %call to %"class.xercesc_2_7::AttrImpl"*, !dbg !1060
  br label %cond.end, !dbg !1056

cond.end:                                         ; preds = %cond.false, %cond.true
  %cond = phi %"class.xercesc_2_7::AttrImpl"* [ null, %cond.true ], [ %6, %cond.false ], !dbg !1056
  ret %"class.xercesc_2_7::AttrImpl"* %cond, !dbg !1061
}

; Function Attrs: noinline nounwind uwtable
define dso_local %"class.xercesc_2_7::NamedNodeMapImpl"* @_ZN11xercesc_2_711ElementImpl13getAttributesEv(%"class.xercesc_2_7::ElementImpl"* %this) unnamed_addr #1 align 2 !dbg !1062 {
entry:
  %this.addr = alloca %"class.xercesc_2_7::ElementImpl"*, align 8
  store %"class.xercesc_2_7::ElementImpl"* %this, %"class.xercesc_2_7::ElementImpl"** %this.addr, align 8
  call void @llvm.dbg.declare(metadata %"class.xercesc_2_7::ElementImpl"** %this.addr, metadata !1063, metadata !DIExpression()), !dbg !1064
  %this1 = load %"class.xercesc_2_7::ElementImpl"*, %"class.xercesc_2_7::ElementImpl"** %this.addr, align 8
  %attributes = getelementptr inbounds %"class.xercesc_2_7::ElementImpl", %"class.xercesc_2_7::ElementImpl"* %this1, i32 0, i32 2, !dbg !1065
  %0 = load %"class.xercesc_2_7::AttrMapImpl"*, %"class.xercesc_2_7::AttrMapImpl"** %attributes, align 8, !dbg !1065
  %1 = bitcast %"class.xercesc_2_7::AttrMapImpl"* %0 to %"class.xercesc_2_7::NamedNodeMapImpl"*, !dbg !1065
  ret %"class.xercesc_2_7::NamedNodeMapImpl"* %1, !dbg !1066
}

; Function Attrs: noinline uwtable
define dso_local %"class.xercesc_2_7::DeepNodeListImpl"* @_ZN11xercesc_2_711ElementImpl20getElementsByTagNameERKNS_9DOMStringE(%"class.xercesc_2_7::ElementImpl"* %this, %"class.xercesc_2_7::DOMString"* dereferenceable(8) %tagname) unnamed_addr #3 align 2 personality i8* bitcast (i32 (...)* @__gxx_personality_v0 to i8*) !dbg !1067 {
entry:
  %this.addr = alloca %"class.xercesc_2_7::ElementImpl"*, align 8
  %tagname.addr = alloca %"class.xercesc_2_7::DOMString"*, align 8
  %exn.slot = alloca i8*
  %ehselector.slot = alloca i32
  store %"class.xercesc_2_7::ElementImpl"* %this, %"class.xercesc_2_7::ElementImpl"** %this.addr, align 8
  call void @llvm.dbg.declare(metadata %"class.xercesc_2_7::ElementImpl"** %this.addr, metadata !1068, metadata !DIExpression()), !dbg !1069
  store %"class.xercesc_2_7::DOMString"* %tagname, %"class.xercesc_2_7::DOMString"** %tagname.addr, align 8
  call void @llvm.dbg.declare(metadata %"class.xercesc_2_7::DOMString"** %tagname.addr, metadata !1070, metadata !DIExpression()), !dbg !1071
  %this1 = load %"class.xercesc_2_7::ElementImpl"*, %"class.xercesc_2_7::ElementImpl"** %this.addr, align 8
  %0 = bitcast %"class.xercesc_2_7::ElementImpl"* %this1 to %"class.xercesc_2_7::ParentNode"*, !dbg !1072
  %1 = bitcast %"class.xercesc_2_7::ParentNode"* %0 to %"class.xercesc_2_7::DocumentImpl"* (%"class.xercesc_2_7::ParentNode"*)***, !dbg !1072
  %vtable = load %"class.xercesc_2_7::DocumentImpl"* (%"class.xercesc_2_7::ParentNode"*)**, %"class.xercesc_2_7::DocumentImpl"* (%"class.xercesc_2_7::ParentNode"*)*** %1, align 8, !dbg !1072
  %vfn = getelementptr inbounds %"class.xercesc_2_7::DocumentImpl"* (%"class.xercesc_2_7::ParentNode"*)*, %"class.xercesc_2_7::DocumentImpl"* (%"class.xercesc_2_7::ParentNode"*)** %vtable, i64 26, !dbg !1072
  %2 = load %"class.xercesc_2_7::DocumentImpl"* (%"class.xercesc_2_7::ParentNode"*)*, %"class.xercesc_2_7::DocumentImpl"* (%"class.xercesc_2_7::ParentNode"*)** %vfn, align 8, !dbg !1072
  %call = call %"class.xercesc_2_7::DocumentImpl"* %2(%"class.xercesc_2_7::ParentNode"* %0), !dbg !1072
  %call2 = call %"class.xercesc_2_7::MemoryManager"* @_ZNK11xercesc_2_712DocumentImpl16getMemoryManagerEv(%"class.xercesc_2_7::DocumentImpl"* %call), !dbg !1073
  %call3 = call i8* @_ZN11xercesc_2_77XMemorynwEmPNS_13MemoryManagerE(i64 64, %"class.xercesc_2_7::MemoryManager"* %call2), !dbg !1074
  %3 = bitcast i8* %call3 to %"class.xercesc_2_7::DeepNodeListImpl"*, !dbg !1074
  %4 = bitcast %"class.xercesc_2_7::ElementImpl"* %this1 to %"class.xercesc_2_7::NodeImpl"*, !dbg !1075
  %5 = load %"class.xercesc_2_7::DOMString"*, %"class.xercesc_2_7::DOMString"** %tagname.addr, align 8, !dbg !1076
  invoke void @_ZN11xercesc_2_716DeepNodeListImplC1EPNS_8NodeImplERKNS_9DOMStringE(%"class.xercesc_2_7::DeepNodeListImpl"* %3, %"class.xercesc_2_7::NodeImpl"* %4, %"class.xercesc_2_7::DOMString"* dereferenceable(8) %5)
          to label %invoke.cont unwind label %lpad, !dbg !1077

invoke.cont:                                      ; preds = %entry
  ret %"class.xercesc_2_7::DeepNodeListImpl"* %3, !dbg !1078

lpad:                                             ; preds = %entry
  %6 = landingpad { i8*, i32 }
          cleanup, !dbg !1079
  %7 = extractvalue { i8*, i32 } %6, 0, !dbg !1079
  store i8* %7, i8** %exn.slot, align 8, !dbg !1079
  %8 = extractvalue { i8*, i32 } %6, 1, !dbg !1079
  store i32 %8, i32* %ehselector.slot, align 4, !dbg !1079
  call void @_ZN11xercesc_2_77XMemorydlEPvPNS_13MemoryManagerE(i8* %call3, %"class.xercesc_2_7::MemoryManager"* %call2) #7, !dbg !1074
  br label %eh.resume, !dbg !1074

eh.resume:                                        ; preds = %lpad
  %exn = load i8*, i8** %exn.slot, align 8, !dbg !1074
  %sel = load i32, i32* %ehselector.slot, align 4, !dbg !1074
  %lpad.val = insertvalue { i8*, i32 } undef, i8* %exn, 0, !dbg !1074
  %lpad.val4 = insertvalue { i8*, i32 } %lpad.val, i32 %sel, 1, !dbg !1074
  resume { i8*, i32 } %lpad.val4, !dbg !1074
}

declare dso_local void @_ZN11xercesc_2_716DeepNodeListImplC1EPNS_8NodeImplERKNS_9DOMStringE(%"class.xercesc_2_7::DeepNodeListImpl"*, %"class.xercesc_2_7::NodeImpl"*, %"class.xercesc_2_7::DOMString"* dereferenceable(8)) unnamed_addr #4

; Function Attrs: noinline uwtable
define dso_local void @_ZN11xercesc_2_711ElementImpl10getTagNameEv(%"class.xercesc_2_7::DOMString"* noalias sret %agg.result, %"class.xercesc_2_7::ElementImpl"* %this) unnamed_addr #3 align 2 !dbg !1080 {
entry:
  %result.ptr = alloca i8*, align 8
  %this.addr = alloca %"class.xercesc_2_7::ElementImpl"*, align 8
  %0 = bitcast %"class.xercesc_2_7::DOMString"* %agg.result to i8*
  store i8* %0, i8** %result.ptr, align 8
  store %"class.xercesc_2_7::ElementImpl"* %this, %"class.xercesc_2_7::ElementImpl"** %this.addr, align 8
  call void @llvm.dbg.declare(metadata %"class.xercesc_2_7::ElementImpl"** %this.addr, metadata !1081, metadata !DIExpression()), !dbg !1082
  %this1 = load %"class.xercesc_2_7::ElementImpl"*, %"class.xercesc_2_7::ElementImpl"** %this.addr, align 8
  %name = getelementptr inbounds %"class.xercesc_2_7::ElementImpl", %"class.xercesc_2_7::ElementImpl"* %this1, i32 0, i32 1, !dbg !1083
  call void @_ZN11xercesc_2_79DOMStringC1ERKS0_(%"class.xercesc_2_7::DOMString"* %agg.result, %"class.xercesc_2_7::DOMString"* dereferenceable(8) %name), !dbg !1083
  ret void, !dbg !1084
}

; Function Attrs: noinline nounwind uwtable
define dso_local zeroext i1 @_ZN11xercesc_2_711ElementImpl13isElementImplEv(%"class.xercesc_2_7::ElementImpl"* %this) unnamed_addr #1 align 2 !dbg !1085 {
entry:
  %this.addr = alloca %"class.xercesc_2_7::ElementImpl"*, align 8
  store %"class.xercesc_2_7::ElementImpl"* %this, %"class.xercesc_2_7::ElementImpl"** %this.addr, align 8
  call void @llvm.dbg.declare(metadata %"class.xercesc_2_7::ElementImpl"** %this.addr, metadata !1086, metadata !DIExpression()), !dbg !1087
  %this1 = load %"class.xercesc_2_7::ElementImpl"*, %"class.xercesc_2_7::ElementImpl"** %this.addr, align 8
  ret i1 true, !dbg !1088
}

; Function Attrs: noinline uwtable
define dso_local void @_ZN11xercesc_2_711ElementImpl15removeAttributeERKNS_9DOMStringE(%"class.xercesc_2_7::ElementImpl"* %this, %"class.xercesc_2_7::DOMString"* dereferenceable(8) %nam) unnamed_addr #3 align 2 personality i8* bitcast (i32 (...)* @__gxx_personality_v0 to i8*) !dbg !1089 {
entry:
  %this.addr = alloca %"class.xercesc_2_7::ElementImpl"*, align 8
  %nam.addr = alloca %"class.xercesc_2_7::DOMString"*, align 8
  %ref.tmp = alloca %"class.xercesc_2_7::DOMString", align 8
  %exn.slot = alloca i8*
  %ehselector.slot = alloca i32
  %cleanup.isactive = alloca i1, align 1
  %att = alloca %"class.xercesc_2_7::AttrImpl"*, align 8
  store %"class.xercesc_2_7::ElementImpl"* %this, %"class.xercesc_2_7::ElementImpl"** %this.addr, align 8
  call void @llvm.dbg.declare(metadata %"class.xercesc_2_7::ElementImpl"** %this.addr, metadata !1090, metadata !DIExpression()), !dbg !1091
  store %"class.xercesc_2_7::DOMString"* %nam, %"class.xercesc_2_7::DOMString"** %nam.addr, align 8
  call void @llvm.dbg.declare(metadata %"class.xercesc_2_7::DOMString"** %nam.addr, metadata !1092, metadata !DIExpression()), !dbg !1093
  %this1 = load %"class.xercesc_2_7::ElementImpl"*, %"class.xercesc_2_7::ElementImpl"** %this.addr, align 8
  %0 = bitcast %"class.xercesc_2_7::ElementImpl"* %this1 to %"class.xercesc_2_7::ParentNode"*, !dbg !1094
  %1 = bitcast %"class.xercesc_2_7::ParentNode"* %0 to %"class.xercesc_2_7::DocumentImpl"* (%"class.xercesc_2_7::ParentNode"*)***, !dbg !1094
  %vtable = load %"class.xercesc_2_7::DocumentImpl"* (%"class.xercesc_2_7::ParentNode"*)**, %"class.xercesc_2_7::DocumentImpl"* (%"class.xercesc_2_7::ParentNode"*)*** %1, align 8, !dbg !1094
  %vfn = getelementptr inbounds %"class.xercesc_2_7::DocumentImpl"* (%"class.xercesc_2_7::ParentNode"*)*, %"class.xercesc_2_7::DocumentImpl"* (%"class.xercesc_2_7::ParentNode"*)** %vtable, i64 26, !dbg !1094
  %2 = load %"class.xercesc_2_7::DocumentImpl"* (%"class.xercesc_2_7::ParentNode"*)*, %"class.xercesc_2_7::DocumentImpl"* (%"class.xercesc_2_7::ParentNode"*)** %vfn, align 8, !dbg !1094
  %call = call %"class.xercesc_2_7::DocumentImpl"* %2(%"class.xercesc_2_7::ParentNode"* %0), !dbg !1094
  %call2 = call zeroext i1 @_ZN11xercesc_2_712DocumentImpl16getErrorCheckingEv(%"class.xercesc_2_7::DocumentImpl"* %call), !dbg !1096
  br i1 %call2, label %land.lhs.true, label %if.end, !dbg !1097

land.lhs.true:                                    ; preds = %entry
  %3 = bitcast %"class.xercesc_2_7::ElementImpl"* %this1 to %"class.xercesc_2_7::NodeImpl"*, !dbg !1098
  %call3 = call zeroext i1 @_ZNK11xercesc_2_78NodeImpl10isReadOnlyEv(%"class.xercesc_2_7::NodeImpl"* %3), !dbg !1098
  br i1 %call3, label %if.then, label %if.end, !dbg !1099

if.then:                                          ; preds = %land.lhs.true
  %exception = call i8* @__cxa_allocate_exception(i64 24) #7, !dbg !1100
  store i1 true, i1* %cleanup.isactive, align 1
  %4 = bitcast i8* %exception to %"class.xercesc_2_7::DOM_DOMException"*, !dbg !1100
  invoke void @_ZN11xercesc_2_79DOMStringC1Ei(%"class.xercesc_2_7::DOMString"* %ref.tmp, i32 0)
          to label %invoke.cont unwind label %lpad, !dbg !1102

invoke.cont:                                      ; preds = %if.then
  invoke void @_ZN11xercesc_2_716DOM_DOMExceptionC1EsRKNS_9DOMStringE(%"class.xercesc_2_7::DOM_DOMException"* %4, i16 signext 7, %"class.xercesc_2_7::DOMString"* dereferenceable(8) %ref.tmp)
          to label %invoke.cont5 unwind label %lpad4, !dbg !1103

invoke.cont5:                                     ; preds = %invoke.cont
  store i1 false, i1* %cleanup.isactive, align 1, !dbg !1100
  invoke void @__cxa_throw(i8* %exception, i8* bitcast (i8** @_ZTIN11xercesc_2_716DOM_DOMExceptionE to i8*), i8* bitcast (void (%"class.xercesc_2_7::DOM_DOMException"*)* @_ZN11xercesc_2_716DOM_DOMExceptionD1Ev to i8*)) #10
          to label %unreachable unwind label %lpad4, !dbg !1100

lpad:                                             ; preds = %if.then
  %5 = landingpad { i8*, i32 }
          cleanup, !dbg !1104
  %6 = extractvalue { i8*, i32 } %5, 0, !dbg !1104
  store i8* %6, i8** %exn.slot, align 8, !dbg !1104
  %7 = extractvalue { i8*, i32 } %5, 1, !dbg !1104
  store i32 %7, i32* %ehselector.slot, align 4, !dbg !1104
  br label %ehcleanup, !dbg !1104

lpad4:                                            ; preds = %invoke.cont5, %invoke.cont
  %8 = landingpad { i8*, i32 }
          cleanup, !dbg !1104
  %9 = extractvalue { i8*, i32 } %8, 0, !dbg !1104
  store i8* %9, i8** %exn.slot, align 8, !dbg !1104
  %10 = extractvalue { i8*, i32 } %8, 1, !dbg !1104
  store i32 %10, i32* %ehselector.slot, align 4, !dbg !1104
  call void @_ZN11xercesc_2_79DOMStringD1Ev(%"class.xercesc_2_7::DOMString"* %ref.tmp) #7, !dbg !1100
  br label %ehcleanup, !dbg !1100

ehcleanup:                                        ; preds = %lpad4, %lpad
  %cleanup.is_active = load i1, i1* %cleanup.isactive, align 1, !dbg !1100
  br i1 %cleanup.is_active, label %cleanup.action, label %cleanup.done, !dbg !1100

cleanup.action:                                   ; preds = %ehcleanup
  call void @__cxa_free_exception(i8* %exception) #7, !dbg !1100
  br label %cleanup.done, !dbg !1100

cleanup.done:                                     ; preds = %cleanup.action, %ehcleanup
  br label %eh.resume, !dbg !1100

if.end:                                           ; preds = %land.lhs.true, %entry
  %attributes = getelementptr inbounds %"class.xercesc_2_7::ElementImpl", %"class.xercesc_2_7::ElementImpl"* %this1, i32 0, i32 2, !dbg !1105
  %11 = load %"class.xercesc_2_7::AttrMapImpl"*, %"class.xercesc_2_7::AttrMapImpl"** %attributes, align 8, !dbg !1105
  %cmp = icmp ne %"class.xercesc_2_7::AttrMapImpl"* %11, null, !dbg !1107
  br i1 %cmp, label %if.then6, label %if.end21, !dbg !1108

if.then6:                                         ; preds = %if.end
  call void @llvm.dbg.declare(metadata %"class.xercesc_2_7::AttrImpl"** %att, metadata !1109, metadata !DIExpression()), !dbg !1111
  %attributes7 = getelementptr inbounds %"class.xercesc_2_7::ElementImpl", %"class.xercesc_2_7::ElementImpl"* %this1, i32 0, i32 2, !dbg !1112
  %12 = load %"class.xercesc_2_7::AttrMapImpl"*, %"class.xercesc_2_7::AttrMapImpl"** %attributes7, align 8, !dbg !1112
  %13 = bitcast %"class.xercesc_2_7::AttrMapImpl"* %12 to %"class.xercesc_2_7::NamedNodeMapImpl"*, !dbg !1113
  %14 = load %"class.xercesc_2_7::DOMString"*, %"class.xercesc_2_7::DOMString"** %nam.addr, align 8, !dbg !1114
  %15 = bitcast %"class.xercesc_2_7::NamedNodeMapImpl"* %13 to %"class.xercesc_2_7::NodeImpl"* (%"class.xercesc_2_7::NamedNodeMapImpl"*, %"class.xercesc_2_7::DOMString"*)***, !dbg !1113
  %vtable8 = load %"class.xercesc_2_7::NodeImpl"* (%"class.xercesc_2_7::NamedNodeMapImpl"*, %"class.xercesc_2_7::DOMString"*)**, %"class.xercesc_2_7::NodeImpl"* (%"class.xercesc_2_7::NamedNodeMapImpl"*, %"class.xercesc_2_7::DOMString"*)*** %15, align 8, !dbg !1113
  %vfn9 = getelementptr inbounds %"class.xercesc_2_7::NodeImpl"* (%"class.xercesc_2_7::NamedNodeMapImpl"*, %"class.xercesc_2_7::DOMString"*)*, %"class.xercesc_2_7::NodeImpl"* (%"class.xercesc_2_7::NamedNodeMapImpl"*, %"class.xercesc_2_7::DOMString"*)** %vtable8, i64 6, !dbg !1113
  %16 = load %"class.xercesc_2_7::NodeImpl"* (%"class.xercesc_2_7::NamedNodeMapImpl"*, %"class.xercesc_2_7::DOMString"*)*, %"class.xercesc_2_7::NodeImpl"* (%"class.xercesc_2_7::NamedNodeMapImpl"*, %"class.xercesc_2_7::DOMString"*)** %vfn9, align 8, !dbg !1113
  %call10 = call %"class.xercesc_2_7::NodeImpl"* %16(%"class.xercesc_2_7::NamedNodeMapImpl"* %13, %"class.xercesc_2_7::DOMString"* dereferenceable(8) %14), !dbg !1113
  %17 = bitcast %"class.xercesc_2_7::NodeImpl"* %call10 to %"class.xercesc_2_7::AttrImpl"*, !dbg !1115
  store %"class.xercesc_2_7::AttrImpl"* %17, %"class.xercesc_2_7::AttrImpl"** %att, align 8, !dbg !1111
  %18 = load %"class.xercesc_2_7::AttrImpl"*, %"class.xercesc_2_7::AttrImpl"** %att, align 8, !dbg !1116
  %cmp11 = icmp ne %"class.xercesc_2_7::AttrImpl"* %18, null, !dbg !1118
  br i1 %cmp11, label %if.then12, label %if.end20, !dbg !1119

if.then12:                                        ; preds = %if.then6
  %attributes13 = getelementptr inbounds %"class.xercesc_2_7::ElementImpl", %"class.xercesc_2_7::ElementImpl"* %this1, i32 0, i32 2, !dbg !1120
  %19 = load %"class.xercesc_2_7::AttrMapImpl"*, %"class.xercesc_2_7::AttrMapImpl"** %attributes13, align 8, !dbg !1120
  %20 = load %"class.xercesc_2_7::DOMString"*, %"class.xercesc_2_7::DOMString"** %nam.addr, align 8, !dbg !1122
  %21 = bitcast %"class.xercesc_2_7::AttrMapImpl"* %19 to %"class.xercesc_2_7::NodeImpl"* (%"class.xercesc_2_7::AttrMapImpl"*, %"class.xercesc_2_7::DOMString"*)***, !dbg !1123
  %vtable14 = load %"class.xercesc_2_7::NodeImpl"* (%"class.xercesc_2_7::AttrMapImpl"*, %"class.xercesc_2_7::DOMString"*)**, %"class.xercesc_2_7::NodeImpl"* (%"class.xercesc_2_7::AttrMapImpl"*, %"class.xercesc_2_7::DOMString"*)*** %21, align 8, !dbg !1123
  %vfn15 = getelementptr inbounds %"class.xercesc_2_7::NodeImpl"* (%"class.xercesc_2_7::AttrMapImpl"*, %"class.xercesc_2_7::DOMString"*)*, %"class.xercesc_2_7::NodeImpl"* (%"class.xercesc_2_7::AttrMapImpl"*, %"class.xercesc_2_7::DOMString"*)** %vtable14, i64 9, !dbg !1123
  %22 = load %"class.xercesc_2_7::NodeImpl"* (%"class.xercesc_2_7::AttrMapImpl"*, %"class.xercesc_2_7::DOMString"*)*, %"class.xercesc_2_7::NodeImpl"* (%"class.xercesc_2_7::AttrMapImpl"*, %"class.xercesc_2_7::DOMString"*)** %vfn15, align 8, !dbg !1123
  %call16 = call %"class.xercesc_2_7::NodeImpl"* %22(%"class.xercesc_2_7::AttrMapImpl"* %19, %"class.xercesc_2_7::DOMString"* dereferenceable(8) %20), !dbg !1123
  %23 = load %"class.xercesc_2_7::AttrImpl"*, %"class.xercesc_2_7::AttrImpl"** %att, align 8, !dbg !1124
  %24 = bitcast %"class.xercesc_2_7::AttrImpl"* %23 to %"class.xercesc_2_7::RefCountedImpl"*, !dbg !1126
  %nodeRefCount = getelementptr inbounds %"class.xercesc_2_7::RefCountedImpl", %"class.xercesc_2_7::RefCountedImpl"* %24, i32 0, i32 1, !dbg !1126
  %25 = load i32, i32* %nodeRefCount, align 8, !dbg !1126
  %cmp17 = icmp eq i32 %25, 0, !dbg !1127
  br i1 %cmp17, label %if.then18, label %if.end19, !dbg !1128

if.then18:                                        ; preds = %if.then12
  %26 = load %"class.xercesc_2_7::AttrImpl"*, %"class.xercesc_2_7::AttrImpl"** %att, align 8, !dbg !1129
  %27 = bitcast %"class.xercesc_2_7::AttrImpl"* %26 to %"class.xercesc_2_7::NodeImpl"*, !dbg !1129
  call void @_ZN11xercesc_2_78NodeImpl8deleteIfEPS0_(%"class.xercesc_2_7::NodeImpl"* %27), !dbg !1130
  br label %if.end19, !dbg !1130

if.end19:                                         ; preds = %if.then18, %if.then12
  br label %if.end20, !dbg !1131

if.end20:                                         ; preds = %if.end19, %if.then6
  br label %if.end21, !dbg !1132

if.end21:                                         ; preds = %if.end20, %if.end
  ret void, !dbg !1133

eh.resume:                                        ; preds = %cleanup.done
  %exn = load i8*, i8** %exn.slot, align 8, !dbg !1100
  %sel = load i32, i32* %ehselector.slot, align 4, !dbg !1100
  %lpad.val = insertvalue { i8*, i32 } undef, i8* %exn, 0, !dbg !1100
  %lpad.val22 = insertvalue { i8*, i32 } %lpad.val, i32 %sel, 1, !dbg !1100
  resume { i8*, i32 } %lpad.val22, !dbg !1100

unreachable:                                      ; preds = %invoke.cont5
  unreachable
}

; Function Attrs: noinline nounwind uwtable
define linkonce_odr dso_local zeroext i1 @_ZN11xercesc_2_712DocumentImpl16getErrorCheckingEv(%"class.xercesc_2_7::DocumentImpl"* %this) #1 comdat align 2 !dbg !1134 {
entry:
  %this.addr = alloca %"class.xercesc_2_7::DocumentImpl"*, align 8
  store %"class.xercesc_2_7::DocumentImpl"* %this, %"class.xercesc_2_7::DocumentImpl"** %this.addr, align 8
  call void @llvm.dbg.declare(metadata %"class.xercesc_2_7::DocumentImpl"** %this.addr, metadata !1139, metadata !DIExpression()), !dbg !1140
  %this1 = load %"class.xercesc_2_7::DocumentImpl"*, %"class.xercesc_2_7::DocumentImpl"** %this.addr, align 8
  %errorChecking = getelementptr inbounds %"class.xercesc_2_7::DocumentImpl", %"class.xercesc_2_7::DocumentImpl"* %this1, i32 0, i32 10, !dbg !1141
  %0 = load i8, i8* %errorChecking, align 4, !dbg !1141
  %tobool = trunc i8 %0 to i1, !dbg !1141
  ret i1 %tobool, !dbg !1142
}

; Function Attrs: noinline nounwind uwtable
define linkonce_odr dso_local zeroext i1 @_ZNK11xercesc_2_78NodeImpl10isReadOnlyEv(%"class.xercesc_2_7::NodeImpl"* %this) #1 comdat align 2 !dbg !1143 {
entry:
  %this.addr = alloca %"class.xercesc_2_7::NodeImpl"*, align 8
  store %"class.xercesc_2_7::NodeImpl"* %this, %"class.xercesc_2_7::NodeImpl"** %this.addr, align 8
  call void @llvm.dbg.declare(metadata %"class.xercesc_2_7::NodeImpl"** %this.addr, metadata !1149, metadata !DIExpression()), !dbg !1151
  %this1 = load %"class.xercesc_2_7::NodeImpl"*, %"class.xercesc_2_7::NodeImpl"** %this.addr, align 8
  %flags = getelementptr inbounds %"class.xercesc_2_7::NodeImpl", %"class.xercesc_2_7::NodeImpl"* %this1, i32 0, i32 3, !dbg !1152
  %0 = load i16, i16* %flags, align 8, !dbg !1152
  %conv = zext i16 %0 to i32, !dbg !1152
  %1 = load i16, i16* @_ZN11xercesc_2_78NodeImpl8READONLYE, align 2, !dbg !1153
  %conv2 = zext i16 %1 to i32, !dbg !1153
  %and = and i32 %conv, %conv2, !dbg !1154
  %cmp = icmp ne i32 %and, 0, !dbg !1155
  ret i1 %cmp, !dbg !1156
}

declare dso_local i8* @__cxa_allocate_exception(i64)

declare dso_local void @_ZN11xercesc_2_79DOMStringC1Ei(%"class.xercesc_2_7::DOMString"*, i32) unnamed_addr #4

declare dso_local void @_ZN11xercesc_2_716DOM_DOMExceptionC1EsRKNS_9DOMStringE(%"class.xercesc_2_7::DOM_DOMException"*, i16 signext, %"class.xercesc_2_7::DOMString"* dereferenceable(8)) unnamed_addr #4

; Function Attrs: nounwind
declare dso_local void @_ZN11xercesc_2_716DOM_DOMExceptionD1Ev(%"class.xercesc_2_7::DOM_DOMException"*) unnamed_addr #5

declare dso_local void @__cxa_throw(i8*, i8*, i8*)

declare dso_local void @__cxa_free_exception(i8*)

declare dso_local void @_ZN11xercesc_2_78NodeImpl8deleteIfEPS0_(%"class.xercesc_2_7::NodeImpl"*) #4

; Function Attrs: noinline uwtable
define dso_local %"class.xercesc_2_7::AttrImpl"* @_ZN11xercesc_2_711ElementImpl19removeAttributeNodeEPNS_8AttrImplE(%"class.xercesc_2_7::ElementImpl"* %this, %"class.xercesc_2_7::AttrImpl"* %oldAttr) unnamed_addr #3 align 2 personality i8* bitcast (i32 (...)* @__gxx_personality_v0 to i8*) !dbg !1157 {
entry:
  %retval = alloca %"class.xercesc_2_7::AttrImpl"*, align 8
  %this.addr = alloca %"class.xercesc_2_7::ElementImpl"*, align 8
  %oldAttr.addr = alloca %"class.xercesc_2_7::AttrImpl"*, align 8
  %ref.tmp = alloca %"class.xercesc_2_7::DOMString", align 8
  %exn.slot = alloca i8*
  %ehselector.slot = alloca i32
  %cleanup.isactive = alloca i1, align 1
  %found = alloca %"class.xercesc_2_7::AttrImpl"*, align 8
  %ref.tmp8 = alloca %"class.xercesc_2_7::DOMString", align 8
  %ref.tmp20 = alloca %"class.xercesc_2_7::DOMString", align 8
  %ref.tmp30 = alloca %"class.xercesc_2_7::DOMString", align 8
  %cleanup.isactive35 = alloca i1, align 1
  store %"class.xercesc_2_7::ElementImpl"* %this, %"class.xercesc_2_7::ElementImpl"** %this.addr, align 8
  call void @llvm.dbg.declare(metadata %"class.xercesc_2_7::ElementImpl"** %this.addr, metadata !1158, metadata !DIExpression()), !dbg !1159
  store %"class.xercesc_2_7::AttrImpl"* %oldAttr, %"class.xercesc_2_7::AttrImpl"** %oldAttr.addr, align 8
  call void @llvm.dbg.declare(metadata %"class.xercesc_2_7::AttrImpl"** %oldAttr.addr, metadata !1160, metadata !DIExpression()), !dbg !1161
  %this1 = load %"class.xercesc_2_7::ElementImpl"*, %"class.xercesc_2_7::ElementImpl"** %this.addr, align 8
  %0 = bitcast %"class.xercesc_2_7::ElementImpl"* %this1 to %"class.xercesc_2_7::ParentNode"*, !dbg !1162
  %1 = bitcast %"class.xercesc_2_7::ParentNode"* %0 to %"class.xercesc_2_7::DocumentImpl"* (%"class.xercesc_2_7::ParentNode"*)***, !dbg !1162
  %vtable = load %"class.xercesc_2_7::DocumentImpl"* (%"class.xercesc_2_7::ParentNode"*)**, %"class.xercesc_2_7::DocumentImpl"* (%"class.xercesc_2_7::ParentNode"*)*** %1, align 8, !dbg !1162
  %vfn = getelementptr inbounds %"class.xercesc_2_7::DocumentImpl"* (%"class.xercesc_2_7::ParentNode"*)*, %"class.xercesc_2_7::DocumentImpl"* (%"class.xercesc_2_7::ParentNode"*)** %vtable, i64 26, !dbg !1162
  %2 = load %"class.xercesc_2_7::DocumentImpl"* (%"class.xercesc_2_7::ParentNode"*)*, %"class.xercesc_2_7::DocumentImpl"* (%"class.xercesc_2_7::ParentNode"*)** %vfn, align 8, !dbg !1162
  %call = call %"class.xercesc_2_7::DocumentImpl"* %2(%"class.xercesc_2_7::ParentNode"* %0), !dbg !1162
  %call2 = call zeroext i1 @_ZN11xercesc_2_712DocumentImpl16getErrorCheckingEv(%"class.xercesc_2_7::DocumentImpl"* %call), !dbg !1164
  br i1 %call2, label %land.lhs.true, label %if.end, !dbg !1165

land.lhs.true:                                    ; preds = %entry
  %3 = bitcast %"class.xercesc_2_7::ElementImpl"* %this1 to %"class.xercesc_2_7::NodeImpl"*, !dbg !1166
  %call3 = call zeroext i1 @_ZNK11xercesc_2_78NodeImpl10isReadOnlyEv(%"class.xercesc_2_7::NodeImpl"* %3), !dbg !1166
  br i1 %call3, label %if.then, label %if.end, !dbg !1167

if.then:                                          ; preds = %land.lhs.true
  %exception = call i8* @__cxa_allocate_exception(i64 24) #7, !dbg !1168
  store i1 true, i1* %cleanup.isactive, align 1
  %4 = bitcast i8* %exception to %"class.xercesc_2_7::DOM_DOMException"*, !dbg !1168
  invoke void @_ZN11xercesc_2_79DOMStringC1Ei(%"class.xercesc_2_7::DOMString"* %ref.tmp, i32 0)
          to label %invoke.cont unwind label %lpad, !dbg !1170

invoke.cont:                                      ; preds = %if.then
  invoke void @_ZN11xercesc_2_716DOM_DOMExceptionC1EsRKNS_9DOMStringE(%"class.xercesc_2_7::DOM_DOMException"* %4, i16 signext 7, %"class.xercesc_2_7::DOMString"* dereferenceable(8) %ref.tmp)
          to label %invoke.cont5 unwind label %lpad4, !dbg !1171

invoke.cont5:                                     ; preds = %invoke.cont
  store i1 false, i1* %cleanup.isactive, align 1, !dbg !1168
  invoke void @__cxa_throw(i8* %exception, i8* bitcast (i8** @_ZTIN11xercesc_2_716DOM_DOMExceptionE to i8*), i8* bitcast (void (%"class.xercesc_2_7::DOM_DOMException"*)* @_ZN11xercesc_2_716DOM_DOMExceptionD1Ev to i8*)) #10
          to label %unreachable unwind label %lpad4, !dbg !1168

lpad:                                             ; preds = %if.then
  %5 = landingpad { i8*, i32 }
          cleanup, !dbg !1172
  %6 = extractvalue { i8*, i32 } %5, 0, !dbg !1172
  store i8* %6, i8** %exn.slot, align 8, !dbg !1172
  %7 = extractvalue { i8*, i32 } %5, 1, !dbg !1172
  store i32 %7, i32* %ehselector.slot, align 4, !dbg !1172
  br label %ehcleanup, !dbg !1172

lpad4:                                            ; preds = %invoke.cont5, %invoke.cont
  %8 = landingpad { i8*, i32 }
          cleanup, !dbg !1172
  %9 = extractvalue { i8*, i32 } %8, 0, !dbg !1172
  store i8* %9, i8** %exn.slot, align 8, !dbg !1172
  %10 = extractvalue { i8*, i32 } %8, 1, !dbg !1172
  store i32 %10, i32* %ehselector.slot, align 4, !dbg !1172
  call void @_ZN11xercesc_2_79DOMStringD1Ev(%"class.xercesc_2_7::DOMString"* %ref.tmp) #7, !dbg !1168
  br label %ehcleanup, !dbg !1168

ehcleanup:                                        ; preds = %lpad4, %lpad
  %cleanup.is_active = load i1, i1* %cleanup.isactive, align 1, !dbg !1168
  br i1 %cleanup.is_active, label %cleanup.action, label %cleanup.done, !dbg !1168

cleanup.action:                                   ; preds = %ehcleanup
  call void @__cxa_free_exception(i8* %exception) #7, !dbg !1168
  br label %cleanup.done, !dbg !1168

cleanup.done:                                     ; preds = %cleanup.action, %ehcleanup
  br label %eh.resume, !dbg !1168

if.end:                                           ; preds = %land.lhs.true, %entry
  %attributes = getelementptr inbounds %"class.xercesc_2_7::ElementImpl", %"class.xercesc_2_7::ElementImpl"* %this1, i32 0, i32 2, !dbg !1173
  %11 = load %"class.xercesc_2_7::AttrMapImpl"*, %"class.xercesc_2_7::AttrMapImpl"** %attributes, align 8, !dbg !1173
  %cmp = icmp ne %"class.xercesc_2_7::AttrMapImpl"* %11, null, !dbg !1175
  br i1 %cmp, label %if.then6, label %if.end42, !dbg !1176

if.then6:                                         ; preds = %if.end
  call void @llvm.dbg.declare(metadata %"class.xercesc_2_7::AttrImpl"** %found, metadata !1177, metadata !DIExpression()), !dbg !1179
  %attributes7 = getelementptr inbounds %"class.xercesc_2_7::ElementImpl", %"class.xercesc_2_7::ElementImpl"* %this1, i32 0, i32 2, !dbg !1180
  %12 = load %"class.xercesc_2_7::AttrMapImpl"*, %"class.xercesc_2_7::AttrMapImpl"** %attributes7, align 8, !dbg !1180
  %13 = bitcast %"class.xercesc_2_7::AttrMapImpl"* %12 to %"class.xercesc_2_7::NamedNodeMapImpl"*, !dbg !1181
  %14 = load %"class.xercesc_2_7::AttrImpl"*, %"class.xercesc_2_7::AttrImpl"** %oldAttr.addr, align 8, !dbg !1182
  %15 = bitcast %"class.xercesc_2_7::AttrImpl"* %14 to void (%"class.xercesc_2_7::DOMString"*, %"class.xercesc_2_7::AttrImpl"*)***, !dbg !1183
  %vtable9 = load void (%"class.xercesc_2_7::DOMString"*, %"class.xercesc_2_7::AttrImpl"*)**, void (%"class.xercesc_2_7::DOMString"*, %"class.xercesc_2_7::AttrImpl"*)*** %15, align 8, !dbg !1183
  %vfn10 = getelementptr inbounds void (%"class.xercesc_2_7::DOMString"*, %"class.xercesc_2_7::AttrImpl"*)*, void (%"class.xercesc_2_7::DOMString"*, %"class.xercesc_2_7::AttrImpl"*)** %vtable9, i64 47, !dbg !1183
  %16 = load void (%"class.xercesc_2_7::DOMString"*, %"class.xercesc_2_7::AttrImpl"*)*, void (%"class.xercesc_2_7::DOMString"*, %"class.xercesc_2_7::AttrImpl"*)** %vfn10, align 8, !dbg !1183
  call void %16(%"class.xercesc_2_7::DOMString"* sret %ref.tmp8, %"class.xercesc_2_7::AttrImpl"* %14), !dbg !1183
  %17 = bitcast %"class.xercesc_2_7::NamedNodeMapImpl"* %13 to %"class.xercesc_2_7::NodeImpl"* (%"class.xercesc_2_7::NamedNodeMapImpl"*, %"class.xercesc_2_7::DOMString"*)***, !dbg !1181
  %vtable11 = load %"class.xercesc_2_7::NodeImpl"* (%"class.xercesc_2_7::NamedNodeMapImpl"*, %"class.xercesc_2_7::DOMString"*)**, %"class.xercesc_2_7::NodeImpl"* (%"class.xercesc_2_7::NamedNodeMapImpl"*, %"class.xercesc_2_7::DOMString"*)*** %17, align 8, !dbg !1181
  %vfn12 = getelementptr inbounds %"class.xercesc_2_7::NodeImpl"* (%"class.xercesc_2_7::NamedNodeMapImpl"*, %"class.xercesc_2_7::DOMString"*)*, %"class.xercesc_2_7::NodeImpl"* (%"class.xercesc_2_7::NamedNodeMapImpl"*, %"class.xercesc_2_7::DOMString"*)** %vtable11, i64 6, !dbg !1181
  %18 = load %"class.xercesc_2_7::NodeImpl"* (%"class.xercesc_2_7::NamedNodeMapImpl"*, %"class.xercesc_2_7::DOMString"*)*, %"class.xercesc_2_7::NodeImpl"* (%"class.xercesc_2_7::NamedNodeMapImpl"*, %"class.xercesc_2_7::DOMString"*)** %vfn12, align 8, !dbg !1181
  %call15 = invoke %"class.xercesc_2_7::NodeImpl"* %18(%"class.xercesc_2_7::NamedNodeMapImpl"* %13, %"class.xercesc_2_7::DOMString"* dereferenceable(8) %ref.tmp8)
          to label %invoke.cont14 unwind label %lpad13, !dbg !1181

invoke.cont14:                                    ; preds = %if.then6
  %19 = bitcast %"class.xercesc_2_7::NodeImpl"* %call15 to %"class.xercesc_2_7::AttrImpl"*, !dbg !1184
  call void @_ZN11xercesc_2_79DOMStringD1Ev(%"class.xercesc_2_7::DOMString"* %ref.tmp8) #7, !dbg !1184
  store %"class.xercesc_2_7::AttrImpl"* %19, %"class.xercesc_2_7::AttrImpl"** %found, align 8, !dbg !1179
  %20 = load %"class.xercesc_2_7::AttrImpl"*, %"class.xercesc_2_7::AttrImpl"** %found, align 8, !dbg !1185
  %21 = load %"class.xercesc_2_7::AttrImpl"*, %"class.xercesc_2_7::AttrImpl"** %oldAttr.addr, align 8, !dbg !1187
  %cmp17 = icmp eq %"class.xercesc_2_7::AttrImpl"* %20, %21, !dbg !1188
  br i1 %cmp17, label %if.then18, label %if.else, !dbg !1189

if.then18:                                        ; preds = %invoke.cont14
  %attributes19 = getelementptr inbounds %"class.xercesc_2_7::ElementImpl", %"class.xercesc_2_7::ElementImpl"* %this1, i32 0, i32 2, !dbg !1190
  %22 = load %"class.xercesc_2_7::AttrMapImpl"*, %"class.xercesc_2_7::AttrMapImpl"** %attributes19, align 8, !dbg !1190
  %23 = load %"class.xercesc_2_7::AttrImpl"*, %"class.xercesc_2_7::AttrImpl"** %oldAttr.addr, align 8, !dbg !1191
  %24 = bitcast %"class.xercesc_2_7::AttrImpl"* %23 to void (%"class.xercesc_2_7::DOMString"*, %"class.xercesc_2_7::AttrImpl"*)***, !dbg !1192
  %vtable21 = load void (%"class.xercesc_2_7::DOMString"*, %"class.xercesc_2_7::AttrImpl"*)**, void (%"class.xercesc_2_7::DOMString"*, %"class.xercesc_2_7::AttrImpl"*)*** %24, align 8, !dbg !1192
  %vfn22 = getelementptr inbounds void (%"class.xercesc_2_7::DOMString"*, %"class.xercesc_2_7::AttrImpl"*)*, void (%"class.xercesc_2_7::DOMString"*, %"class.xercesc_2_7::AttrImpl"*)** %vtable21, i64 47, !dbg !1192
  %25 = load void (%"class.xercesc_2_7::DOMString"*, %"class.xercesc_2_7::AttrImpl"*)*, void (%"class.xercesc_2_7::DOMString"*, %"class.xercesc_2_7::AttrImpl"*)** %vfn22, align 8, !dbg !1192
  call void %25(%"class.xercesc_2_7::DOMString"* sret %ref.tmp20, %"class.xercesc_2_7::AttrImpl"* %23), !dbg !1192
  %26 = bitcast %"class.xercesc_2_7::AttrMapImpl"* %22 to %"class.xercesc_2_7::NodeImpl"* (%"class.xercesc_2_7::AttrMapImpl"*, %"class.xercesc_2_7::DOMString"*)***, !dbg !1193
  %vtable23 = load %"class.xercesc_2_7::NodeImpl"* (%"class.xercesc_2_7::AttrMapImpl"*, %"class.xercesc_2_7::DOMString"*)**, %"class.xercesc_2_7::NodeImpl"* (%"class.xercesc_2_7::AttrMapImpl"*, %"class.xercesc_2_7::DOMString"*)*** %26, align 8, !dbg !1193
  %vfn24 = getelementptr inbounds %"class.xercesc_2_7::NodeImpl"* (%"class.xercesc_2_7::AttrMapImpl"*, %"class.xercesc_2_7::DOMString"*)*, %"class.xercesc_2_7::NodeImpl"* (%"class.xercesc_2_7::AttrMapImpl"*, %"class.xercesc_2_7::DOMString"*)** %vtable23, i64 9, !dbg !1193
  %27 = load %"class.xercesc_2_7::NodeImpl"* (%"class.xercesc_2_7::AttrMapImpl"*, %"class.xercesc_2_7::DOMString"*)*, %"class.xercesc_2_7::NodeImpl"* (%"class.xercesc_2_7::AttrMapImpl"*, %"class.xercesc_2_7::DOMString"*)** %vfn24, align 8, !dbg !1193
  %call27 = invoke %"class.xercesc_2_7::NodeImpl"* %27(%"class.xercesc_2_7::AttrMapImpl"* %22, %"class.xercesc_2_7::DOMString"* dereferenceable(8) %ref.tmp20)
          to label %invoke.cont26 unwind label %lpad25, !dbg !1193

invoke.cont26:                                    ; preds = %if.then18
  call void @_ZN11xercesc_2_79DOMStringD1Ev(%"class.xercesc_2_7::DOMString"* %ref.tmp20) #7, !dbg !1190
  br label %if.end41, !dbg !1190

lpad13:                                           ; preds = %if.then6
  %28 = landingpad { i8*, i32 }
          cleanup, !dbg !1194
  %29 = extractvalue { i8*, i32 } %28, 0, !dbg !1194
  store i8* %29, i8** %exn.slot, align 8, !dbg !1194
  %30 = extractvalue { i8*, i32 } %28, 1, !dbg !1194
  store i32 %30, i32* %ehselector.slot, align 4, !dbg !1194
  call void @_ZN11xercesc_2_79DOMStringD1Ev(%"class.xercesc_2_7::DOMString"* %ref.tmp8) #7, !dbg !1184
  br label %eh.resume, !dbg !1184

lpad25:                                           ; preds = %if.then18
  %31 = landingpad { i8*, i32 }
          cleanup, !dbg !1195
  %32 = extractvalue { i8*, i32 } %31, 0, !dbg !1195
  store i8* %32, i8** %exn.slot, align 8, !dbg !1195
  %33 = extractvalue { i8*, i32 } %31, 1, !dbg !1195
  store i32 %33, i32* %ehselector.slot, align 4, !dbg !1195
  call void @_ZN11xercesc_2_79DOMStringD1Ev(%"class.xercesc_2_7::DOMString"* %ref.tmp20) #7, !dbg !1190
  br label %eh.resume, !dbg !1190

if.else:                                          ; preds = %invoke.cont14
  %exception29 = call i8* @__cxa_allocate_exception(i64 24) #7, !dbg !1196
  store i1 true, i1* %cleanup.isactive35, align 1
  %34 = bitcast i8* %exception29 to %"class.xercesc_2_7::DOM_DOMException"*, !dbg !1196
  invoke void @_ZN11xercesc_2_79DOMStringC1Ei(%"class.xercesc_2_7::DOMString"* %ref.tmp30, i32 0)
          to label %invoke.cont32 unwind label %lpad31, !dbg !1197

invoke.cont32:                                    ; preds = %if.else
  invoke void @_ZN11xercesc_2_716DOM_DOMExceptionC1EsRKNS_9DOMStringE(%"class.xercesc_2_7::DOM_DOMException"* %34, i16 signext 8, %"class.xercesc_2_7::DOMString"* dereferenceable(8) %ref.tmp30)
          to label %invoke.cont34 unwind label %lpad33, !dbg !1198

invoke.cont34:                                    ; preds = %invoke.cont32
  store i1 false, i1* %cleanup.isactive35, align 1, !dbg !1196
  invoke void @__cxa_throw(i8* %exception29, i8* bitcast (i8** @_ZTIN11xercesc_2_716DOM_DOMExceptionE to i8*), i8* bitcast (void (%"class.xercesc_2_7::DOM_DOMException"*)* @_ZN11xercesc_2_716DOM_DOMExceptionD1Ev to i8*)) #10
          to label %unreachable unwind label %lpad33, !dbg !1196

lpad31:                                           ; preds = %if.else
  %35 = landingpad { i8*, i32 }
          cleanup, !dbg !1195
  %36 = extractvalue { i8*, i32 } %35, 0, !dbg !1195
  store i8* %36, i8** %exn.slot, align 8, !dbg !1195
  %37 = extractvalue { i8*, i32 } %35, 1, !dbg !1195
  store i32 %37, i32* %ehselector.slot, align 4, !dbg !1195
  br label %ehcleanup37, !dbg !1195

lpad33:                                           ; preds = %invoke.cont34, %invoke.cont32
  %38 = landingpad { i8*, i32 }
          cleanup, !dbg !1195
  %39 = extractvalue { i8*, i32 } %38, 0, !dbg !1195
  store i8* %39, i8** %exn.slot, align 8, !dbg !1195
  %40 = extractvalue { i8*, i32 } %38, 1, !dbg !1195
  store i32 %40, i32* %ehselector.slot, align 4, !dbg !1195
  call void @_ZN11xercesc_2_79DOMStringD1Ev(%"class.xercesc_2_7::DOMString"* %ref.tmp30) #7, !dbg !1196
  br label %ehcleanup37, !dbg !1196

ehcleanup37:                                      ; preds = %lpad33, %lpad31
  %cleanup.is_active38 = load i1, i1* %cleanup.isactive35, align 1, !dbg !1196
  br i1 %cleanup.is_active38, label %cleanup.action39, label %cleanup.done40, !dbg !1196

cleanup.action39:                                 ; preds = %ehcleanup37
  call void @__cxa_free_exception(i8* %exception29) #7, !dbg !1196
  br label %cleanup.done40, !dbg !1196

cleanup.done40:                                   ; preds = %cleanup.action39, %ehcleanup37
  br label %eh.resume, !dbg !1196

if.end41:                                         ; preds = %invoke.cont26
  %41 = load %"class.xercesc_2_7::AttrImpl"*, %"class.xercesc_2_7::AttrImpl"** %found, align 8, !dbg !1199
  store %"class.xercesc_2_7::AttrImpl"* %41, %"class.xercesc_2_7::AttrImpl"** %retval, align 8, !dbg !1200
  br label %return, !dbg !1200

if.end42:                                         ; preds = %if.end
  store %"class.xercesc_2_7::AttrImpl"* null, %"class.xercesc_2_7::AttrImpl"** %retval, align 8, !dbg !1201
  br label %return, !dbg !1201

return:                                           ; preds = %if.end42, %if.end41
  %42 = load %"class.xercesc_2_7::AttrImpl"*, %"class.xercesc_2_7::AttrImpl"** %retval, align 8, !dbg !1202
  ret %"class.xercesc_2_7::AttrImpl"* %42, !dbg !1202

eh.resume:                                        ; preds = %cleanup.done40, %lpad25, %lpad13, %cleanup.done
  %exn = load i8*, i8** %exn.slot, align 8, !dbg !1168
  %sel = load i32, i32* %ehselector.slot, align 4, !dbg !1168
  %lpad.val = insertvalue { i8*, i32 } undef, i8* %exn, 0, !dbg !1168
  %lpad.val43 = insertvalue { i8*, i32 } %lpad.val, i32 %sel, 1, !dbg !1168
  resume { i8*, i32 } %lpad.val43, !dbg !1168

unreachable:                                      ; preds = %invoke.cont34, %invoke.cont5
  unreachable
}

; Function Attrs: noinline uwtable
define dso_local %"class.xercesc_2_7::AttrImpl"* @_ZN11xercesc_2_711ElementImpl12setAttributeERKNS_9DOMStringES3_(%"class.xercesc_2_7::ElementImpl"* %this, %"class.xercesc_2_7::DOMString"* dereferenceable(8) %nam, %"class.xercesc_2_7::DOMString"* dereferenceable(8) %val) unnamed_addr #3 align 2 personality i8* bitcast (i32 (...)* @__gxx_personality_v0 to i8*) !dbg !1203 {
entry:
  %this.addr = alloca %"class.xercesc_2_7::ElementImpl"*, align 8
  %nam.addr = alloca %"class.xercesc_2_7::DOMString"*, align 8
  %val.addr = alloca %"class.xercesc_2_7::DOMString"*, align 8
  %ref.tmp = alloca %"class.xercesc_2_7::DOMString", align 8
  %exn.slot = alloca i8*
  %ehselector.slot = alloca i32
  %cleanup.isactive = alloca i1, align 1
  %newAttr = alloca %"class.xercesc_2_7::AttrImpl"*, align 8
  store %"class.xercesc_2_7::ElementImpl"* %this, %"class.xercesc_2_7::ElementImpl"** %this.addr, align 8
  call void @llvm.dbg.declare(metadata %"class.xercesc_2_7::ElementImpl"** %this.addr, metadata !1204, metadata !DIExpression()), !dbg !1205
  store %"class.xercesc_2_7::DOMString"* %nam, %"class.xercesc_2_7::DOMString"** %nam.addr, align 8
  call void @llvm.dbg.declare(metadata %"class.xercesc_2_7::DOMString"** %nam.addr, metadata !1206, metadata !DIExpression()), !dbg !1207
  store %"class.xercesc_2_7::DOMString"* %val, %"class.xercesc_2_7::DOMString"** %val.addr, align 8
  call void @llvm.dbg.declare(metadata %"class.xercesc_2_7::DOMString"** %val.addr, metadata !1208, metadata !DIExpression()), !dbg !1209
  %this1 = load %"class.xercesc_2_7::ElementImpl"*, %"class.xercesc_2_7::ElementImpl"** %this.addr, align 8
  %0 = bitcast %"class.xercesc_2_7::ElementImpl"* %this1 to %"class.xercesc_2_7::ParentNode"*, !dbg !1210
  %1 = bitcast %"class.xercesc_2_7::ParentNode"* %0 to %"class.xercesc_2_7::DocumentImpl"* (%"class.xercesc_2_7::ParentNode"*)***, !dbg !1210
  %vtable = load %"class.xercesc_2_7::DocumentImpl"* (%"class.xercesc_2_7::ParentNode"*)**, %"class.xercesc_2_7::DocumentImpl"* (%"class.xercesc_2_7::ParentNode"*)*** %1, align 8, !dbg !1210
  %vfn = getelementptr inbounds %"class.xercesc_2_7::DocumentImpl"* (%"class.xercesc_2_7::ParentNode"*)*, %"class.xercesc_2_7::DocumentImpl"* (%"class.xercesc_2_7::ParentNode"*)** %vtable, i64 26, !dbg !1210
  %2 = load %"class.xercesc_2_7::DocumentImpl"* (%"class.xercesc_2_7::ParentNode"*)*, %"class.xercesc_2_7::DocumentImpl"* (%"class.xercesc_2_7::ParentNode"*)** %vfn, align 8, !dbg !1210
  %call = call %"class.xercesc_2_7::DocumentImpl"* %2(%"class.xercesc_2_7::ParentNode"* %0), !dbg !1210
  %call2 = call zeroext i1 @_ZN11xercesc_2_712DocumentImpl16getErrorCheckingEv(%"class.xercesc_2_7::DocumentImpl"* %call), !dbg !1212
  br i1 %call2, label %land.lhs.true, label %if.end, !dbg !1213

land.lhs.true:                                    ; preds = %entry
  %3 = bitcast %"class.xercesc_2_7::ElementImpl"* %this1 to %"class.xercesc_2_7::NodeImpl"*, !dbg !1214
  %call3 = call zeroext i1 @_ZNK11xercesc_2_78NodeImpl10isReadOnlyEv(%"class.xercesc_2_7::NodeImpl"* %3), !dbg !1214
  br i1 %call3, label %if.then, label %if.end, !dbg !1215

if.then:                                          ; preds = %land.lhs.true
  %exception = call i8* @__cxa_allocate_exception(i64 24) #7, !dbg !1216
  store i1 true, i1* %cleanup.isactive, align 1
  %4 = bitcast i8* %exception to %"class.xercesc_2_7::DOM_DOMException"*, !dbg !1216
  invoke void @_ZN11xercesc_2_79DOMStringC1Ei(%"class.xercesc_2_7::DOMString"* %ref.tmp, i32 0)
          to label %invoke.cont unwind label %lpad, !dbg !1218

invoke.cont:                                      ; preds = %if.then
  invoke void @_ZN11xercesc_2_716DOM_DOMExceptionC1EsRKNS_9DOMStringE(%"class.xercesc_2_7::DOM_DOMException"* %4, i16 signext 7, %"class.xercesc_2_7::DOMString"* dereferenceable(8) %ref.tmp)
          to label %invoke.cont5 unwind label %lpad4, !dbg !1219

invoke.cont5:                                     ; preds = %invoke.cont
  store i1 false, i1* %cleanup.isactive, align 1, !dbg !1216
  invoke void @__cxa_throw(i8* %exception, i8* bitcast (i8** @_ZTIN11xercesc_2_716DOM_DOMExceptionE to i8*), i8* bitcast (void (%"class.xercesc_2_7::DOM_DOMException"*)* @_ZN11xercesc_2_716DOM_DOMExceptionD1Ev to i8*)) #10
          to label %unreachable unwind label %lpad4, !dbg !1216

lpad:                                             ; preds = %if.then
  %5 = landingpad { i8*, i32 }
          cleanup, !dbg !1220
  %6 = extractvalue { i8*, i32 } %5, 0, !dbg !1220
  store i8* %6, i8** %exn.slot, align 8, !dbg !1220
  %7 = extractvalue { i8*, i32 } %5, 1, !dbg !1220
  store i32 %7, i32* %ehselector.slot, align 4, !dbg !1220
  br label %ehcleanup, !dbg !1220

lpad4:                                            ; preds = %invoke.cont5, %invoke.cont
  %8 = landingpad { i8*, i32 }
          cleanup, !dbg !1220
  %9 = extractvalue { i8*, i32 } %8, 0, !dbg !1220
  store i8* %9, i8** %exn.slot, align 8, !dbg !1220
  %10 = extractvalue { i8*, i32 } %8, 1, !dbg !1220
  store i32 %10, i32* %ehselector.slot, align 4, !dbg !1220
  call void @_ZN11xercesc_2_79DOMStringD1Ev(%"class.xercesc_2_7::DOMString"* %ref.tmp) #7, !dbg !1216
  br label %ehcleanup, !dbg !1216

ehcleanup:                                        ; preds = %lpad4, %lpad
  %cleanup.is_active = load i1, i1* %cleanup.isactive, align 1, !dbg !1216
  br i1 %cleanup.is_active, label %cleanup.action, label %cleanup.done, !dbg !1216

cleanup.action:                                   ; preds = %ehcleanup
  call void @__cxa_free_exception(i8* %exception) #7, !dbg !1216
  br label %cleanup.done, !dbg !1216

cleanup.done:                                     ; preds = %cleanup.action, %ehcleanup
  br label %eh.resume, !dbg !1216

if.end:                                           ; preds = %land.lhs.true, %entry
  call void @llvm.dbg.declare(metadata %"class.xercesc_2_7::AttrImpl"** %newAttr, metadata !1221, metadata !DIExpression()), !dbg !1222
  %11 = load %"class.xercesc_2_7::DOMString"*, %"class.xercesc_2_7::DOMString"** %nam.addr, align 8, !dbg !1223
  %12 = bitcast %"class.xercesc_2_7::ElementImpl"* %this1 to %"class.xercesc_2_7::AttrImpl"* (%"class.xercesc_2_7::ElementImpl"*, %"class.xercesc_2_7::DOMString"*)***, !dbg !1224
  %vtable6 = load %"class.xercesc_2_7::AttrImpl"* (%"class.xercesc_2_7::ElementImpl"*, %"class.xercesc_2_7::DOMString"*)**, %"class.xercesc_2_7::AttrImpl"* (%"class.xercesc_2_7::ElementImpl"*, %"class.xercesc_2_7::DOMString"*)*** %12, align 8, !dbg !1224
  %vfn7 = getelementptr inbounds %"class.xercesc_2_7::AttrImpl"* (%"class.xercesc_2_7::ElementImpl"*, %"class.xercesc_2_7::DOMString"*)*, %"class.xercesc_2_7::AttrImpl"* (%"class.xercesc_2_7::ElementImpl"*, %"class.xercesc_2_7::DOMString"*)** %vtable6, i64 48, !dbg !1224
  %13 = load %"class.xercesc_2_7::AttrImpl"* (%"class.xercesc_2_7::ElementImpl"*, %"class.xercesc_2_7::DOMString"*)*, %"class.xercesc_2_7::AttrImpl"* (%"class.xercesc_2_7::ElementImpl"*, %"class.xercesc_2_7::DOMString"*)** %vfn7, align 8, !dbg !1224
  %call8 = call %"class.xercesc_2_7::AttrImpl"* %13(%"class.xercesc_2_7::ElementImpl"* %this1, %"class.xercesc_2_7::DOMString"* dereferenceable(8) %11), !dbg !1224
  store %"class.xercesc_2_7::AttrImpl"* %call8, %"class.xercesc_2_7::AttrImpl"** %newAttr, align 8, !dbg !1222
  %14 = load %"class.xercesc_2_7::AttrImpl"*, %"class.xercesc_2_7::AttrImpl"** %newAttr, align 8, !dbg !1225
  %tobool = icmp ne %"class.xercesc_2_7::AttrImpl"* %14, null, !dbg !1225
  br i1 %tobool, label %if.end28, label %if.then9, !dbg !1227

if.then9:                                         ; preds = %if.end
  %attributes = getelementptr inbounds %"class.xercesc_2_7::ElementImpl", %"class.xercesc_2_7::ElementImpl"* %this1, i32 0, i32 2, !dbg !1228
  %15 = load %"class.xercesc_2_7::AttrMapImpl"*, %"class.xercesc_2_7::AttrMapImpl"** %attributes, align 8, !dbg !1228
  %cmp = icmp eq %"class.xercesc_2_7::AttrMapImpl"* %15, null, !dbg !1231
  br i1 %cmp, label %if.then10, label %if.end20, !dbg !1232

if.then10:                                        ; preds = %if.then9
  %16 = bitcast %"class.xercesc_2_7::ElementImpl"* %this1 to %"class.xercesc_2_7::ParentNode"*, !dbg !1233
  %17 = bitcast %"class.xercesc_2_7::ParentNode"* %16 to %"class.xercesc_2_7::DocumentImpl"* (%"class.xercesc_2_7::ParentNode"*)***, !dbg !1233
  %vtable11 = load %"class.xercesc_2_7::DocumentImpl"* (%"class.xercesc_2_7::ParentNode"*)**, %"class.xercesc_2_7::DocumentImpl"* (%"class.xercesc_2_7::ParentNode"*)*** %17, align 8, !dbg !1233
  %vfn12 = getelementptr inbounds %"class.xercesc_2_7::DocumentImpl"* (%"class.xercesc_2_7::ParentNode"*)*, %"class.xercesc_2_7::DocumentImpl"* (%"class.xercesc_2_7::ParentNode"*)** %vtable11, i64 26, !dbg !1233
  %18 = load %"class.xercesc_2_7::DocumentImpl"* (%"class.xercesc_2_7::ParentNode"*)*, %"class.xercesc_2_7::DocumentImpl"* (%"class.xercesc_2_7::ParentNode"*)** %vfn12, align 8, !dbg !1233
  %call13 = call %"class.xercesc_2_7::DocumentImpl"* %18(%"class.xercesc_2_7::ParentNode"* %16), !dbg !1233
  %call14 = call %"class.xercesc_2_7::MemoryManager"* @_ZNK11xercesc_2_712DocumentImpl16getMemoryManagerEv(%"class.xercesc_2_7::DocumentImpl"* %call13), !dbg !1235
  %call15 = call i8* @_ZN11xercesc_2_77XMemorynwEmPNS_13MemoryManagerE(i64 40, %"class.xercesc_2_7::MemoryManager"* %call14), !dbg !1236
  %19 = bitcast i8* %call15 to %"class.xercesc_2_7::AttrMapImpl"*, !dbg !1236
  %20 = bitcast %"class.xercesc_2_7::ElementImpl"* %this1 to %"class.xercesc_2_7::NodeImpl"*, !dbg !1237
  invoke void @_ZN11xercesc_2_711AttrMapImplC1EPNS_8NodeImplEPNS_16NamedNodeMapImplE(%"class.xercesc_2_7::AttrMapImpl"* %19, %"class.xercesc_2_7::NodeImpl"* %20, %"class.xercesc_2_7::NamedNodeMapImpl"* null)
          to label %invoke.cont17 unwind label %lpad16, !dbg !1238

invoke.cont17:                                    ; preds = %if.then10
  %attributes19 = getelementptr inbounds %"class.xercesc_2_7::ElementImpl", %"class.xercesc_2_7::ElementImpl"* %this1, i32 0, i32 2, !dbg !1239
  store %"class.xercesc_2_7::AttrMapImpl"* %19, %"class.xercesc_2_7::AttrMapImpl"** %attributes19, align 8, !dbg !1240
  br label %if.end20, !dbg !1241

lpad16:                                           ; preds = %if.then10
  %21 = landingpad { i8*, i32 }
          cleanup, !dbg !1242
  %22 = extractvalue { i8*, i32 } %21, 0, !dbg !1242
  store i8* %22, i8** %exn.slot, align 8, !dbg !1242
  %23 = extractvalue { i8*, i32 } %21, 1, !dbg !1242
  store i32 %23, i32* %ehselector.slot, align 4, !dbg !1242
  call void @_ZN11xercesc_2_77XMemorydlEPvPNS_13MemoryManagerE(i8* %call15, %"class.xercesc_2_7::MemoryManager"* %call14) #7, !dbg !1236
  br label %eh.resume, !dbg !1236

if.end20:                                         ; preds = %invoke.cont17, %if.then9
  %24 = bitcast %"class.xercesc_2_7::ElementImpl"* %this1 to %"class.xercesc_2_7::ParentNode"*, !dbg !1243
  %ownerDocument = getelementptr inbounds %"class.xercesc_2_7::ParentNode", %"class.xercesc_2_7::ParentNode"* %24, i32 0, i32 1, !dbg !1243
  %25 = load %"class.xercesc_2_7::DocumentImpl"*, %"class.xercesc_2_7::DocumentImpl"** %ownerDocument, align 8, !dbg !1243
  %26 = load %"class.xercesc_2_7::DOMString"*, %"class.xercesc_2_7::DOMString"** %nam.addr, align 8, !dbg !1244
  %27 = bitcast %"class.xercesc_2_7::DocumentImpl"* %25 to %"class.xercesc_2_7::AttrImpl"* (%"class.xercesc_2_7::DocumentImpl"*, %"class.xercesc_2_7::DOMString"*)***, !dbg !1245
  %vtable21 = load %"class.xercesc_2_7::AttrImpl"* (%"class.xercesc_2_7::DocumentImpl"*, %"class.xercesc_2_7::DOMString"*)**, %"class.xercesc_2_7::AttrImpl"* (%"class.xercesc_2_7::DocumentImpl"*, %"class.xercesc_2_7::DOMString"*)*** %27, align 8, !dbg !1245
  %vfn22 = getelementptr inbounds %"class.xercesc_2_7::AttrImpl"* (%"class.xercesc_2_7::DocumentImpl"*, %"class.xercesc_2_7::DOMString"*)*, %"class.xercesc_2_7::AttrImpl"* (%"class.xercesc_2_7::DocumentImpl"*, %"class.xercesc_2_7::DOMString"*)** %vtable21, i64 47, !dbg !1245
  %28 = load %"class.xercesc_2_7::AttrImpl"* (%"class.xercesc_2_7::DocumentImpl"*, %"class.xercesc_2_7::DOMString"*)*, %"class.xercesc_2_7::AttrImpl"* (%"class.xercesc_2_7::DocumentImpl"*, %"class.xercesc_2_7::DOMString"*)** %vfn22, align 8, !dbg !1245
  %call23 = call %"class.xercesc_2_7::AttrImpl"* %28(%"class.xercesc_2_7::DocumentImpl"* %25, %"class.xercesc_2_7::DOMString"* dereferenceable(8) %26), !dbg !1245
  store %"class.xercesc_2_7::AttrImpl"* %call23, %"class.xercesc_2_7::AttrImpl"** %newAttr, align 8, !dbg !1246
  %attributes24 = getelementptr inbounds %"class.xercesc_2_7::ElementImpl", %"class.xercesc_2_7::ElementImpl"* %this1, i32 0, i32 2, !dbg !1247
  %29 = load %"class.xercesc_2_7::AttrMapImpl"*, %"class.xercesc_2_7::AttrMapImpl"** %attributes24, align 8, !dbg !1247
  %30 = bitcast %"class.xercesc_2_7::AttrMapImpl"* %29 to %"class.xercesc_2_7::NamedNodeMapImpl"*, !dbg !1248
  %31 = load %"class.xercesc_2_7::AttrImpl"*, %"class.xercesc_2_7::AttrImpl"** %newAttr, align 8, !dbg !1249
  %32 = bitcast %"class.xercesc_2_7::AttrImpl"* %31 to %"class.xercesc_2_7::NodeImpl"*, !dbg !1249
  %33 = bitcast %"class.xercesc_2_7::NamedNodeMapImpl"* %30 to %"class.xercesc_2_7::NodeImpl"* (%"class.xercesc_2_7::NamedNodeMapImpl"*, %"class.xercesc_2_7::NodeImpl"*)***, !dbg !1248
  %vtable25 = load %"class.xercesc_2_7::NodeImpl"* (%"class.xercesc_2_7::NamedNodeMapImpl"*, %"class.xercesc_2_7::NodeImpl"*)**, %"class.xercesc_2_7::NodeImpl"* (%"class.xercesc_2_7::NamedNodeMapImpl"*, %"class.xercesc_2_7::NodeImpl"*)*** %33, align 8, !dbg !1248
  %vfn26 = getelementptr inbounds %"class.xercesc_2_7::NodeImpl"* (%"class.xercesc_2_7::NamedNodeMapImpl"*, %"class.xercesc_2_7::NodeImpl"*)*, %"class.xercesc_2_7::NodeImpl"* (%"class.xercesc_2_7::NamedNodeMapImpl"*, %"class.xercesc_2_7::NodeImpl"*)** %vtable25, i64 10, !dbg !1248
  %34 = load %"class.xercesc_2_7::NodeImpl"* (%"class.xercesc_2_7::NamedNodeMapImpl"*, %"class.xercesc_2_7::NodeImpl"*)*, %"class.xercesc_2_7::NodeImpl"* (%"class.xercesc_2_7::NamedNodeMapImpl"*, %"class.xercesc_2_7::NodeImpl"*)** %vfn26, align 8, !dbg !1248
  %call27 = call %"class.xercesc_2_7::NodeImpl"* %34(%"class.xercesc_2_7::NamedNodeMapImpl"* %30, %"class.xercesc_2_7::NodeImpl"* %32), !dbg !1248
  br label %if.end28, !dbg !1250

if.end28:                                         ; preds = %if.end20, %if.end
  %35 = load %"class.xercesc_2_7::AttrImpl"*, %"class.xercesc_2_7::AttrImpl"** %newAttr, align 8, !dbg !1251
  %36 = load %"class.xercesc_2_7::DOMString"*, %"class.xercesc_2_7::DOMString"** %val.addr, align 8, !dbg !1252
  %37 = bitcast %"class.xercesc_2_7::AttrImpl"* %35 to void (%"class.xercesc_2_7::AttrImpl"*, %"class.xercesc_2_7::DOMString"*)***, !dbg !1253
  %vtable29 = load void (%"class.xercesc_2_7::AttrImpl"*, %"class.xercesc_2_7::DOMString"*)**, void (%"class.xercesc_2_7::AttrImpl"*, %"class.xercesc_2_7::DOMString"*)*** %37, align 8, !dbg !1253
  %vfn30 = getelementptr inbounds void (%"class.xercesc_2_7::AttrImpl"*, %"class.xercesc_2_7::DOMString"*)*, void (%"class.xercesc_2_7::AttrImpl"*, %"class.xercesc_2_7::DOMString"*)** %vtable29, i64 34, !dbg !1253
  %38 = load void (%"class.xercesc_2_7::AttrImpl"*, %"class.xercesc_2_7::DOMString"*)*, void (%"class.xercesc_2_7::AttrImpl"*, %"class.xercesc_2_7::DOMString"*)** %vfn30, align 8, !dbg !1253
  call void %38(%"class.xercesc_2_7::AttrImpl"* %35, %"class.xercesc_2_7::DOMString"* dereferenceable(8) %36), !dbg !1253
  %39 = load %"class.xercesc_2_7::AttrImpl"*, %"class.xercesc_2_7::AttrImpl"** %newAttr, align 8, !dbg !1254
  ret %"class.xercesc_2_7::AttrImpl"* %39, !dbg !1255

eh.resume:                                        ; preds = %lpad16, %cleanup.done
  %exn = load i8*, i8** %exn.slot, align 8, !dbg !1216
  %sel = load i32, i32* %ehselector.slot, align 4, !dbg !1216
  %lpad.val = insertvalue { i8*, i32 } undef, i8* %exn, 0, !dbg !1216
  %lpad.val31 = insertvalue { i8*, i32 } %lpad.val, i32 %sel, 1, !dbg !1216
  resume { i8*, i32 } %lpad.val31, !dbg !1216

unreachable:                                      ; preds = %invoke.cont5
  unreachable
}

declare dso_local void @_ZN11xercesc_2_711AttrMapImplC1EPNS_8NodeImplEPNS_16NamedNodeMapImplE(%"class.xercesc_2_7::AttrMapImpl"*, %"class.xercesc_2_7::NodeImpl"*, %"class.xercesc_2_7::NamedNodeMapImpl"*) unnamed_addr #4

; Function Attrs: noinline uwtable
define dso_local %"class.xercesc_2_7::AttrImpl"* @_ZN11xercesc_2_711ElementImpl16setAttributeNodeEPNS_8AttrImplE(%"class.xercesc_2_7::ElementImpl"* %this, %"class.xercesc_2_7::AttrImpl"* %newAttr) unnamed_addr #3 align 2 personality i8* bitcast (i32 (...)* @__gxx_personality_v0 to i8*) !dbg !1256 {
entry:
  %this.addr = alloca %"class.xercesc_2_7::ElementImpl"*, align 8
  %newAttr.addr = alloca %"class.xercesc_2_7::AttrImpl"*, align 8
  %ref.tmp = alloca %"class.xercesc_2_7::DOMString", align 8
  %exn.slot = alloca i8*
  %ehselector.slot = alloca i32
  %cleanup.isactive = alloca i1, align 1
  %ref.tmp11 = alloca %"class.xercesc_2_7::DOMString", align 8
  %cleanup.isactive16 = alloca i1, align 1
  %oldAttr = alloca %"class.xercesc_2_7::AttrImpl"*, align 8
  %ref.tmp35 = alloca %"class.xercesc_2_7::DOMString", align 8
  store %"class.xercesc_2_7::ElementImpl"* %this, %"class.xercesc_2_7::ElementImpl"** %this.addr, align 8
  call void @llvm.dbg.declare(metadata %"class.xercesc_2_7::ElementImpl"** %this.addr, metadata !1257, metadata !DIExpression()), !dbg !1258
  store %"class.xercesc_2_7::AttrImpl"* %newAttr, %"class.xercesc_2_7::AttrImpl"** %newAttr.addr, align 8
  call void @llvm.dbg.declare(metadata %"class.xercesc_2_7::AttrImpl"** %newAttr.addr, metadata !1259, metadata !DIExpression()), !dbg !1260
  %this1 = load %"class.xercesc_2_7::ElementImpl"*, %"class.xercesc_2_7::ElementImpl"** %this.addr, align 8
  %0 = bitcast %"class.xercesc_2_7::ElementImpl"* %this1 to %"class.xercesc_2_7::ParentNode"*, !dbg !1261
  %1 = bitcast %"class.xercesc_2_7::ParentNode"* %0 to %"class.xercesc_2_7::DocumentImpl"* (%"class.xercesc_2_7::ParentNode"*)***, !dbg !1261
  %vtable = load %"class.xercesc_2_7::DocumentImpl"* (%"class.xercesc_2_7::ParentNode"*)**, %"class.xercesc_2_7::DocumentImpl"* (%"class.xercesc_2_7::ParentNode"*)*** %1, align 8, !dbg !1261
  %vfn = getelementptr inbounds %"class.xercesc_2_7::DocumentImpl"* (%"class.xercesc_2_7::ParentNode"*)*, %"class.xercesc_2_7::DocumentImpl"* (%"class.xercesc_2_7::ParentNode"*)** %vtable, i64 26, !dbg !1261
  %2 = load %"class.xercesc_2_7::DocumentImpl"* (%"class.xercesc_2_7::ParentNode"*)*, %"class.xercesc_2_7::DocumentImpl"* (%"class.xercesc_2_7::ParentNode"*)** %vfn, align 8, !dbg !1261
  %call = call %"class.xercesc_2_7::DocumentImpl"* %2(%"class.xercesc_2_7::ParentNode"* %0), !dbg !1261
  %call2 = call zeroext i1 @_ZN11xercesc_2_712DocumentImpl16getErrorCheckingEv(%"class.xercesc_2_7::DocumentImpl"* %call), !dbg !1263
  br i1 %call2, label %land.lhs.true, label %if.end, !dbg !1264

land.lhs.true:                                    ; preds = %entry
  %3 = bitcast %"class.xercesc_2_7::ElementImpl"* %this1 to %"class.xercesc_2_7::NodeImpl"*, !dbg !1265
  %call3 = call zeroext i1 @_ZNK11xercesc_2_78NodeImpl10isReadOnlyEv(%"class.xercesc_2_7::NodeImpl"* %3), !dbg !1265
  br i1 %call3, label %if.then, label %if.end, !dbg !1266

if.then:                                          ; preds = %land.lhs.true
  %exception = call i8* @__cxa_allocate_exception(i64 24) #7, !dbg !1267
  store i1 true, i1* %cleanup.isactive, align 1
  %4 = bitcast i8* %exception to %"class.xercesc_2_7::DOM_DOMException"*, !dbg !1267
  invoke void @_ZN11xercesc_2_79DOMStringC1Ei(%"class.xercesc_2_7::DOMString"* %ref.tmp, i32 0)
          to label %invoke.cont unwind label %lpad, !dbg !1269

invoke.cont:                                      ; preds = %if.then
  invoke void @_ZN11xercesc_2_716DOM_DOMExceptionC1EsRKNS_9DOMStringE(%"class.xercesc_2_7::DOM_DOMException"* %4, i16 signext 7, %"class.xercesc_2_7::DOMString"* dereferenceable(8) %ref.tmp)
          to label %invoke.cont5 unwind label %lpad4, !dbg !1270

invoke.cont5:                                     ; preds = %invoke.cont
  store i1 false, i1* %cleanup.isactive, align 1, !dbg !1267
  invoke void @__cxa_throw(i8* %exception, i8* bitcast (i8** @_ZTIN11xercesc_2_716DOM_DOMExceptionE to i8*), i8* bitcast (void (%"class.xercesc_2_7::DOM_DOMException"*)* @_ZN11xercesc_2_716DOM_DOMExceptionD1Ev to i8*)) #10
          to label %unreachable unwind label %lpad4, !dbg !1267

lpad:                                             ; preds = %if.then
  %5 = landingpad { i8*, i32 }
          cleanup, !dbg !1271
  %6 = extractvalue { i8*, i32 } %5, 0, !dbg !1271
  store i8* %6, i8** %exn.slot, align 8, !dbg !1271
  %7 = extractvalue { i8*, i32 } %5, 1, !dbg !1271
  store i32 %7, i32* %ehselector.slot, align 4, !dbg !1271
  br label %ehcleanup, !dbg !1271

lpad4:                                            ; preds = %invoke.cont5, %invoke.cont
  %8 = landingpad { i8*, i32 }
          cleanup, !dbg !1271
  %9 = extractvalue { i8*, i32 } %8, 0, !dbg !1271
  store i8* %9, i8** %exn.slot, align 8, !dbg !1271
  %10 = extractvalue { i8*, i32 } %8, 1, !dbg !1271
  store i32 %10, i32* %ehselector.slot, align 4, !dbg !1271
  call void @_ZN11xercesc_2_79DOMStringD1Ev(%"class.xercesc_2_7::DOMString"* %ref.tmp) #7, !dbg !1267
  br label %ehcleanup, !dbg !1267

ehcleanup:                                        ; preds = %lpad4, %lpad
  %cleanup.is_active = load i1, i1* %cleanup.isactive, align 1, !dbg !1267
  br i1 %cleanup.is_active, label %cleanup.action, label %cleanup.done, !dbg !1267

cleanup.action:                                   ; preds = %ehcleanup
  call void @__cxa_free_exception(i8* %exception) #7, !dbg !1267
  br label %cleanup.done, !dbg !1267

cleanup.done:                                     ; preds = %cleanup.action, %ehcleanup
  br label %eh.resume, !dbg !1267

if.end:                                           ; preds = %land.lhs.true, %entry
  %11 = load %"class.xercesc_2_7::AttrImpl"*, %"class.xercesc_2_7::AttrImpl"** %newAttr.addr, align 8, !dbg !1272
  %12 = bitcast %"class.xercesc_2_7::AttrImpl"* %11 to i1 (%"class.xercesc_2_7::AttrImpl"*)***, !dbg !1274
  %vtable6 = load i1 (%"class.xercesc_2_7::AttrImpl"*)**, i1 (%"class.xercesc_2_7::AttrImpl"*)*** %12, align 8, !dbg !1274
  %vfn7 = getelementptr inbounds i1 (%"class.xercesc_2_7::AttrImpl"*)*, i1 (%"class.xercesc_2_7::AttrImpl"*)** %vtable6, i64 6, !dbg !1274
  %13 = load i1 (%"class.xercesc_2_7::AttrImpl"*)*, i1 (%"class.xercesc_2_7::AttrImpl"*)** %vfn7, align 8, !dbg !1274
  %call8 = call zeroext i1 %13(%"class.xercesc_2_7::AttrImpl"* %11), !dbg !1274
  br i1 %call8, label %if.end22, label %if.then9, !dbg !1275

if.then9:                                         ; preds = %if.end
  %exception10 = call i8* @__cxa_allocate_exception(i64 24) #7, !dbg !1276
  store i1 true, i1* %cleanup.isactive16, align 1
  %14 = bitcast i8* %exception10 to %"class.xercesc_2_7::DOM_DOMException"*, !dbg !1276
  invoke void @_ZN11xercesc_2_79DOMStringC1Ei(%"class.xercesc_2_7::DOMString"* %ref.tmp11, i32 0)
          to label %invoke.cont13 unwind label %lpad12, !dbg !1277

invoke.cont13:                                    ; preds = %if.then9
  invoke void @_ZN11xercesc_2_716DOM_DOMExceptionC1EsRKNS_9DOMStringE(%"class.xercesc_2_7::DOM_DOMException"* %14, i16 signext 4, %"class.xercesc_2_7::DOMString"* dereferenceable(8) %ref.tmp11)
          to label %invoke.cont15 unwind label %lpad14, !dbg !1278

invoke.cont15:                                    ; preds = %invoke.cont13
  store i1 false, i1* %cleanup.isactive16, align 1, !dbg !1276
  invoke void @__cxa_throw(i8* %exception10, i8* bitcast (i8** @_ZTIN11xercesc_2_716DOM_DOMExceptionE to i8*), i8* bitcast (void (%"class.xercesc_2_7::DOM_DOMException"*)* @_ZN11xercesc_2_716DOM_DOMExceptionD1Ev to i8*)) #10
          to label %unreachable unwind label %lpad14, !dbg !1276

lpad12:                                           ; preds = %if.then9
  %15 = landingpad { i8*, i32 }
          cleanup, !dbg !1279
  %16 = extractvalue { i8*, i32 } %15, 0, !dbg !1279
  store i8* %16, i8** %exn.slot, align 8, !dbg !1279
  %17 = extractvalue { i8*, i32 } %15, 1, !dbg !1279
  store i32 %17, i32* %ehselector.slot, align 4, !dbg !1279
  br label %ehcleanup18, !dbg !1279

lpad14:                                           ; preds = %invoke.cont15, %invoke.cont13
  %18 = landingpad { i8*, i32 }
          cleanup, !dbg !1279
  %19 = extractvalue { i8*, i32 } %18, 0, !dbg !1279
  store i8* %19, i8** %exn.slot, align 8, !dbg !1279
  %20 = extractvalue { i8*, i32 } %18, 1, !dbg !1279
  store i32 %20, i32* %ehselector.slot, align 4, !dbg !1279
  call void @_ZN11xercesc_2_79DOMStringD1Ev(%"class.xercesc_2_7::DOMString"* %ref.tmp11) #7, !dbg !1276
  br label %ehcleanup18, !dbg !1276

ehcleanup18:                                      ; preds = %lpad14, %lpad12
  %cleanup.is_active19 = load i1, i1* %cleanup.isactive16, align 1, !dbg !1276
  br i1 %cleanup.is_active19, label %cleanup.action20, label %cleanup.done21, !dbg !1276

cleanup.action20:                                 ; preds = %ehcleanup18
  call void @__cxa_free_exception(i8* %exception10) #7, !dbg !1276
  br label %cleanup.done21, !dbg !1276

cleanup.done21:                                   ; preds = %cleanup.action20, %ehcleanup18
  br label %eh.resume, !dbg !1276

if.end22:                                         ; preds = %if.end
  %attributes = getelementptr inbounds %"class.xercesc_2_7::ElementImpl", %"class.xercesc_2_7::ElementImpl"* %this1, i32 0, i32 2, !dbg !1280
  %21 = load %"class.xercesc_2_7::AttrMapImpl"*, %"class.xercesc_2_7::AttrMapImpl"** %attributes, align 8, !dbg !1280
  %cmp = icmp eq %"class.xercesc_2_7::AttrMapImpl"* %21, null, !dbg !1282
  br i1 %cmp, label %if.then23, label %if.end33, !dbg !1283

if.then23:                                        ; preds = %if.end22
  %22 = bitcast %"class.xercesc_2_7::ElementImpl"* %this1 to %"class.xercesc_2_7::ParentNode"*, !dbg !1284
  %23 = bitcast %"class.xercesc_2_7::ParentNode"* %22 to %"class.xercesc_2_7::DocumentImpl"* (%"class.xercesc_2_7::ParentNode"*)***, !dbg !1284
  %vtable24 = load %"class.xercesc_2_7::DocumentImpl"* (%"class.xercesc_2_7::ParentNode"*)**, %"class.xercesc_2_7::DocumentImpl"* (%"class.xercesc_2_7::ParentNode"*)*** %23, align 8, !dbg !1284
  %vfn25 = getelementptr inbounds %"class.xercesc_2_7::DocumentImpl"* (%"class.xercesc_2_7::ParentNode"*)*, %"class.xercesc_2_7::DocumentImpl"* (%"class.xercesc_2_7::ParentNode"*)** %vtable24, i64 26, !dbg !1284
  %24 = load %"class.xercesc_2_7::DocumentImpl"* (%"class.xercesc_2_7::ParentNode"*)*, %"class.xercesc_2_7::DocumentImpl"* (%"class.xercesc_2_7::ParentNode"*)** %vfn25, align 8, !dbg !1284
  %call26 = call %"class.xercesc_2_7::DocumentImpl"* %24(%"class.xercesc_2_7::ParentNode"* %22), !dbg !1284
  %call27 = call %"class.xercesc_2_7::MemoryManager"* @_ZNK11xercesc_2_712DocumentImpl16getMemoryManagerEv(%"class.xercesc_2_7::DocumentImpl"* %call26), !dbg !1286
  %call28 = call i8* @_ZN11xercesc_2_77XMemorynwEmPNS_13MemoryManagerE(i64 40, %"class.xercesc_2_7::MemoryManager"* %call27), !dbg !1287
  %25 = bitcast i8* %call28 to %"class.xercesc_2_7::AttrMapImpl"*, !dbg !1287
  %26 = bitcast %"class.xercesc_2_7::ElementImpl"* %this1 to %"class.xercesc_2_7::NodeImpl"*, !dbg !1288
  invoke void @_ZN11xercesc_2_711AttrMapImplC1EPNS_8NodeImplEPNS_16NamedNodeMapImplE(%"class.xercesc_2_7::AttrMapImpl"* %25, %"class.xercesc_2_7::NodeImpl"* %26, %"class.xercesc_2_7::NamedNodeMapImpl"* null)
          to label %invoke.cont30 unwind label %lpad29, !dbg !1289

invoke.cont30:                                    ; preds = %if.then23
  %attributes32 = getelementptr inbounds %"class.xercesc_2_7::ElementImpl", %"class.xercesc_2_7::ElementImpl"* %this1, i32 0, i32 2, !dbg !1290
  store %"class.xercesc_2_7::AttrMapImpl"* %25, %"class.xercesc_2_7::AttrMapImpl"** %attributes32, align 8, !dbg !1291
  br label %if.end33, !dbg !1292

lpad29:                                           ; preds = %if.then23
  %27 = landingpad { i8*, i32 }
          cleanup, !dbg !1293
  %28 = extractvalue { i8*, i32 } %27, 0, !dbg !1293
  store i8* %28, i8** %exn.slot, align 8, !dbg !1293
  %29 = extractvalue { i8*, i32 } %27, 1, !dbg !1293
  store i32 %29, i32* %ehselector.slot, align 4, !dbg !1293
  call void @_ZN11xercesc_2_77XMemorydlEPvPNS_13MemoryManagerE(i8* %call28, %"class.xercesc_2_7::MemoryManager"* %call27) #7, !dbg !1287
  br label %eh.resume, !dbg !1287

if.end33:                                         ; preds = %invoke.cont30, %if.end22
  call void @llvm.dbg.declare(metadata %"class.xercesc_2_7::AttrImpl"** %oldAttr, metadata !1294, metadata !DIExpression()), !dbg !1295
  %attributes34 = getelementptr inbounds %"class.xercesc_2_7::ElementImpl", %"class.xercesc_2_7::ElementImpl"* %this1, i32 0, i32 2, !dbg !1296
  %30 = load %"class.xercesc_2_7::AttrMapImpl"*, %"class.xercesc_2_7::AttrMapImpl"** %attributes34, align 8, !dbg !1296
  %31 = bitcast %"class.xercesc_2_7::AttrMapImpl"* %30 to %"class.xercesc_2_7::NamedNodeMapImpl"*, !dbg !1297
  %32 = load %"class.xercesc_2_7::AttrImpl"*, %"class.xercesc_2_7::AttrImpl"** %newAttr.addr, align 8, !dbg !1298
  %33 = bitcast %"class.xercesc_2_7::AttrImpl"* %32 to void (%"class.xercesc_2_7::DOMString"*, %"class.xercesc_2_7::AttrImpl"*)***, !dbg !1299
  %vtable36 = load void (%"class.xercesc_2_7::DOMString"*, %"class.xercesc_2_7::AttrImpl"*)**, void (%"class.xercesc_2_7::DOMString"*, %"class.xercesc_2_7::AttrImpl"*)*** %33, align 8, !dbg !1299
  %vfn37 = getelementptr inbounds void (%"class.xercesc_2_7::DOMString"*, %"class.xercesc_2_7::AttrImpl"*)*, void (%"class.xercesc_2_7::DOMString"*, %"class.xercesc_2_7::AttrImpl"*)** %vtable36, i64 47, !dbg !1299
  %34 = load void (%"class.xercesc_2_7::DOMString"*, %"class.xercesc_2_7::AttrImpl"*)*, void (%"class.xercesc_2_7::DOMString"*, %"class.xercesc_2_7::AttrImpl"*)** %vfn37, align 8, !dbg !1299
  call void %34(%"class.xercesc_2_7::DOMString"* sret %ref.tmp35, %"class.xercesc_2_7::AttrImpl"* %32), !dbg !1299
  %35 = bitcast %"class.xercesc_2_7::NamedNodeMapImpl"* %31 to %"class.xercesc_2_7::NodeImpl"* (%"class.xercesc_2_7::NamedNodeMapImpl"*, %"class.xercesc_2_7::DOMString"*)***, !dbg !1297
  %vtable38 = load %"class.xercesc_2_7::NodeImpl"* (%"class.xercesc_2_7::NamedNodeMapImpl"*, %"class.xercesc_2_7::DOMString"*)**, %"class.xercesc_2_7::NodeImpl"* (%"class.xercesc_2_7::NamedNodeMapImpl"*, %"class.xercesc_2_7::DOMString"*)*** %35, align 8, !dbg !1297
  %vfn39 = getelementptr inbounds %"class.xercesc_2_7::NodeImpl"* (%"class.xercesc_2_7::NamedNodeMapImpl"*, %"class.xercesc_2_7::DOMString"*)*, %"class.xercesc_2_7::NodeImpl"* (%"class.xercesc_2_7::NamedNodeMapImpl"*, %"class.xercesc_2_7::DOMString"*)** %vtable38, i64 6, !dbg !1297
  %36 = load %"class.xercesc_2_7::NodeImpl"* (%"class.xercesc_2_7::NamedNodeMapImpl"*, %"class.xercesc_2_7::DOMString"*)*, %"class.xercesc_2_7::NodeImpl"* (%"class.xercesc_2_7::NamedNodeMapImpl"*, %"class.xercesc_2_7::DOMString"*)** %vfn39, align 8, !dbg !1297
  %call42 = invoke %"class.xercesc_2_7::NodeImpl"* %36(%"class.xercesc_2_7::NamedNodeMapImpl"* %31, %"class.xercesc_2_7::DOMString"* dereferenceable(8) %ref.tmp35)
          to label %invoke.cont41 unwind label %lpad40, !dbg !1297

invoke.cont41:                                    ; preds = %if.end33
  %37 = bitcast %"class.xercesc_2_7::NodeImpl"* %call42 to %"class.xercesc_2_7::AttrImpl"*, !dbg !1300
  call void @_ZN11xercesc_2_79DOMStringD1Ev(%"class.xercesc_2_7::DOMString"* %ref.tmp35) #7, !dbg !1300
  store %"class.xercesc_2_7::AttrImpl"* %37, %"class.xercesc_2_7::AttrImpl"** %oldAttr, align 8, !dbg !1295
  %attributes44 = getelementptr inbounds %"class.xercesc_2_7::ElementImpl", %"class.xercesc_2_7::ElementImpl"* %this1, i32 0, i32 2, !dbg !1301
  %38 = load %"class.xercesc_2_7::AttrMapImpl"*, %"class.xercesc_2_7::AttrMapImpl"** %attributes44, align 8, !dbg !1301
  %39 = bitcast %"class.xercesc_2_7::AttrMapImpl"* %38 to %"class.xercesc_2_7::NamedNodeMapImpl"*, !dbg !1302
  %40 = load %"class.xercesc_2_7::AttrImpl"*, %"class.xercesc_2_7::AttrImpl"** %newAttr.addr, align 8, !dbg !1303
  %41 = bitcast %"class.xercesc_2_7::AttrImpl"* %40 to %"class.xercesc_2_7::NodeImpl"*, !dbg !1303
  %42 = bitcast %"class.xercesc_2_7::NamedNodeMapImpl"* %39 to %"class.xercesc_2_7::NodeImpl"* (%"class.xercesc_2_7::NamedNodeMapImpl"*, %"class.xercesc_2_7::NodeImpl"*)***, !dbg !1302
  %vtable45 = load %"class.xercesc_2_7::NodeImpl"* (%"class.xercesc_2_7::NamedNodeMapImpl"*, %"class.xercesc_2_7::NodeImpl"*)**, %"class.xercesc_2_7::NodeImpl"* (%"class.xercesc_2_7::NamedNodeMapImpl"*, %"class.xercesc_2_7::NodeImpl"*)*** %42, align 8, !dbg !1302
  %vfn46 = getelementptr inbounds %"class.xercesc_2_7::NodeImpl"* (%"class.xercesc_2_7::NamedNodeMapImpl"*, %"class.xercesc_2_7::NodeImpl"*)*, %"class.xercesc_2_7::NodeImpl"* (%"class.xercesc_2_7::NamedNodeMapImpl"*, %"class.xercesc_2_7::NodeImpl"*)** %vtable45, i64 10, !dbg !1302
  %43 = load %"class.xercesc_2_7::NodeImpl"* (%"class.xercesc_2_7::NamedNodeMapImpl"*, %"class.xercesc_2_7::NodeImpl"*)*, %"class.xercesc_2_7::NodeImpl"* (%"class.xercesc_2_7::NamedNodeMapImpl"*, %"class.xercesc_2_7::NodeImpl"*)** %vfn46, align 8, !dbg !1302
  %call47 = call %"class.xercesc_2_7::NodeImpl"* %43(%"class.xercesc_2_7::NamedNodeMapImpl"* %39, %"class.xercesc_2_7::NodeImpl"* %41), !dbg !1302
  %44 = load %"class.xercesc_2_7::AttrImpl"*, %"class.xercesc_2_7::AttrImpl"** %oldAttr, align 8, !dbg !1304
  ret %"class.xercesc_2_7::AttrImpl"* %44, !dbg !1305

lpad40:                                           ; preds = %if.end33
  %45 = landingpad { i8*, i32 }
          cleanup, !dbg !1306
  %46 = extractvalue { i8*, i32 } %45, 0, !dbg !1306
  store i8* %46, i8** %exn.slot, align 8, !dbg !1306
  %47 = extractvalue { i8*, i32 } %45, 1, !dbg !1306
  store i32 %47, i32* %ehselector.slot, align 4, !dbg !1306
  call void @_ZN11xercesc_2_79DOMStringD1Ev(%"class.xercesc_2_7::DOMString"* %ref.tmp35) #7, !dbg !1300
  br label %eh.resume, !dbg !1300

eh.resume:                                        ; preds = %lpad40, %lpad29, %cleanup.done21, %cleanup.done
  %exn = load i8*, i8** %exn.slot, align 8, !dbg !1267
  %sel = load i32, i32* %ehselector.slot, align 4, !dbg !1267
  %lpad.val = insertvalue { i8*, i32 } undef, i8* %exn, 0, !dbg !1267
  %lpad.val48 = insertvalue { i8*, i32 } %lpad.val, i32 %sel, 1, !dbg !1267
  resume { i8*, i32 } %lpad.val48, !dbg !1267

unreachable:                                      ; preds = %invoke.cont15, %invoke.cont5
  unreachable
}

; Function Attrs: noinline uwtable
define dso_local void @_ZN11xercesc_2_711ElementImpl11setReadOnlyEbb(%"class.xercesc_2_7::ElementImpl"* %this, i1 zeroext %readOnl, i1 zeroext %deep) unnamed_addr #3 align 2 !dbg !1307 {
entry:
  %this.addr = alloca %"class.xercesc_2_7::ElementImpl"*, align 8
  %readOnl.addr = alloca i8, align 1
  %deep.addr = alloca i8, align 1
  store %"class.xercesc_2_7::ElementImpl"* %this, %"class.xercesc_2_7::ElementImpl"** %this.addr, align 8
  call void @llvm.dbg.declare(metadata %"class.xercesc_2_7::ElementImpl"** %this.addr, metadata !1308, metadata !DIExpression()), !dbg !1309
  %frombool = zext i1 %readOnl to i8
  store i8 %frombool, i8* %readOnl.addr, align 1
  call void @llvm.dbg.declare(metadata i8* %readOnl.addr, metadata !1310, metadata !DIExpression()), !dbg !1311
  %frombool1 = zext i1 %deep to i8
  store i8 %frombool1, i8* %deep.addr, align 1
  call void @llvm.dbg.declare(metadata i8* %deep.addr, metadata !1312, metadata !DIExpression()), !dbg !1313
  %this2 = load %"class.xercesc_2_7::ElementImpl"*, %"class.xercesc_2_7::ElementImpl"** %this.addr, align 8
  %0 = bitcast %"class.xercesc_2_7::ElementImpl"* %this2 to %"class.xercesc_2_7::ParentNode"*, !dbg !1314
  %1 = load i8, i8* %readOnl.addr, align 1, !dbg !1315
  %tobool = trunc i8 %1 to i1, !dbg !1315
  %2 = load i8, i8* %deep.addr, align 1, !dbg !1316
  %tobool3 = trunc i8 %2 to i1, !dbg !1316
  call void @_ZN11xercesc_2_710ParentNode11setReadOnlyEbb(%"class.xercesc_2_7::ParentNode"* %0, i1 zeroext %tobool, i1 zeroext %tobool3), !dbg !1314
  %attributes = getelementptr inbounds %"class.xercesc_2_7::ElementImpl", %"class.xercesc_2_7::ElementImpl"* %this2, i32 0, i32 2, !dbg !1317
  %3 = load %"class.xercesc_2_7::AttrMapImpl"*, %"class.xercesc_2_7::AttrMapImpl"** %attributes, align 8, !dbg !1317
  %cmp = icmp ne %"class.xercesc_2_7::AttrMapImpl"* %3, null, !dbg !1319
  br i1 %cmp, label %if.then, label %if.end, !dbg !1320

if.then:                                          ; preds = %entry
  %attributes4 = getelementptr inbounds %"class.xercesc_2_7::ElementImpl", %"class.xercesc_2_7::ElementImpl"* %this2, i32 0, i32 2, !dbg !1321
  %4 = load %"class.xercesc_2_7::AttrMapImpl"*, %"class.xercesc_2_7::AttrMapImpl"** %attributes4, align 8, !dbg !1321
  %5 = bitcast %"class.xercesc_2_7::AttrMapImpl"* %4 to %"class.xercesc_2_7::NamedNodeMapImpl"*, !dbg !1322
  %6 = load i8, i8* %readOnl.addr, align 1, !dbg !1323
  %tobool5 = trunc i8 %6 to i1, !dbg !1323
  %7 = bitcast %"class.xercesc_2_7::NamedNodeMapImpl"* %5 to void (%"class.xercesc_2_7::NamedNodeMapImpl"*, i1, i1)***, !dbg !1322
  %vtable = load void (%"class.xercesc_2_7::NamedNodeMapImpl"*, i1, i1)**, void (%"class.xercesc_2_7::NamedNodeMapImpl"*, i1, i1)*** %7, align 8, !dbg !1322
  %vfn = getelementptr inbounds void (%"class.xercesc_2_7::NamedNodeMapImpl"*, i1, i1)*, void (%"class.xercesc_2_7::NamedNodeMapImpl"*, i1, i1)** %vtable, i64 11, !dbg !1322
  %8 = load void (%"class.xercesc_2_7::NamedNodeMapImpl"*, i1, i1)*, void (%"class.xercesc_2_7::NamedNodeMapImpl"*, i1, i1)** %vfn, align 8, !dbg !1322
  call void %8(%"class.xercesc_2_7::NamedNodeMapImpl"* %5, i1 zeroext %tobool5, i1 zeroext true), !dbg !1322
  br label %if.end, !dbg !1321

if.end:                                           ; preds = %if.then, %entry
  ret void, !dbg !1324
}

declare dso_local void @_ZN11xercesc_2_710ParentNode11setReadOnlyEbb(%"class.xercesc_2_7::ParentNode"*, i1 zeroext, i1 zeroext) unnamed_addr #4

; Function Attrs: noinline uwtable
define dso_local void @_ZN11xercesc_2_711ElementImpl14getAttributeNSERKNS_9DOMStringES3_(%"class.xercesc_2_7::DOMString"* noalias sret %agg.result, %"class.xercesc_2_7::ElementImpl"* %this, %"class.xercesc_2_7::DOMString"* dereferenceable(8) %fNamespaceURI, %"class.xercesc_2_7::DOMString"* dereferenceable(8) %fLocalName) unnamed_addr #3 align 2 !dbg !1325 {
entry:
  %result.ptr = alloca i8*, align 8
  %this.addr = alloca %"class.xercesc_2_7::ElementImpl"*, align 8
  %fNamespaceURI.addr = alloca %"class.xercesc_2_7::DOMString"*, align 8
  %fLocalName.addr = alloca %"class.xercesc_2_7::DOMString"*, align 8
  %attr = alloca %"class.xercesc_2_7::AttrImpl"*, align 8
  %0 = bitcast %"class.xercesc_2_7::DOMString"* %agg.result to i8*
  store i8* %0, i8** %result.ptr, align 8
  store %"class.xercesc_2_7::ElementImpl"* %this, %"class.xercesc_2_7::ElementImpl"** %this.addr, align 8
  call void @llvm.dbg.declare(metadata %"class.xercesc_2_7::ElementImpl"** %this.addr, metadata !1326, metadata !DIExpression()), !dbg !1327
  store %"class.xercesc_2_7::DOMString"* %fNamespaceURI, %"class.xercesc_2_7::DOMString"** %fNamespaceURI.addr, align 8
  call void @llvm.dbg.declare(metadata %"class.xercesc_2_7::DOMString"** %fNamespaceURI.addr, metadata !1328, metadata !DIExpression()), !dbg !1329
  store %"class.xercesc_2_7::DOMString"* %fLocalName, %"class.xercesc_2_7::DOMString"** %fLocalName.addr, align 8
  call void @llvm.dbg.declare(metadata %"class.xercesc_2_7::DOMString"** %fLocalName.addr, metadata !1330, metadata !DIExpression()), !dbg !1331
  %this1 = load %"class.xercesc_2_7::ElementImpl"*, %"class.xercesc_2_7::ElementImpl"** %this.addr, align 8
  call void @llvm.dbg.declare(metadata %"class.xercesc_2_7::AttrImpl"** %attr, metadata !1332, metadata !DIExpression()), !dbg !1333
  %attributes = getelementptr inbounds %"class.xercesc_2_7::ElementImpl", %"class.xercesc_2_7::ElementImpl"* %this1, i32 0, i32 2, !dbg !1334
  %1 = load %"class.xercesc_2_7::AttrMapImpl"*, %"class.xercesc_2_7::AttrMapImpl"** %attributes, align 8, !dbg !1334
  %cmp = icmp ne %"class.xercesc_2_7::AttrMapImpl"* %1, null, !dbg !1335
  br i1 %cmp, label %cond.true, label %cond.false, !dbg !1336

cond.true:                                        ; preds = %entry
  %attributes2 = getelementptr inbounds %"class.xercesc_2_7::ElementImpl", %"class.xercesc_2_7::ElementImpl"* %this1, i32 0, i32 2, !dbg !1337
  %2 = load %"class.xercesc_2_7::AttrMapImpl"*, %"class.xercesc_2_7::AttrMapImpl"** %attributes2, align 8, !dbg !1337
  %3 = bitcast %"class.xercesc_2_7::AttrMapImpl"* %2 to %"class.xercesc_2_7::NamedNodeMapImpl"*, !dbg !1338
  %4 = load %"class.xercesc_2_7::DOMString"*, %"class.xercesc_2_7::DOMString"** %fNamespaceURI.addr, align 8, !dbg !1339
  %5 = load %"class.xercesc_2_7::DOMString"*, %"class.xercesc_2_7::DOMString"** %fLocalName.addr, align 8, !dbg !1340
  %6 = bitcast %"class.xercesc_2_7::NamedNodeMapImpl"* %3 to %"class.xercesc_2_7::NodeImpl"* (%"class.xercesc_2_7::NamedNodeMapImpl"*, %"class.xercesc_2_7::DOMString"*, %"class.xercesc_2_7::DOMString"*)***, !dbg !1338
  %vtable = load %"class.xercesc_2_7::NodeImpl"* (%"class.xercesc_2_7::NamedNodeMapImpl"*, %"class.xercesc_2_7::DOMString"*, %"class.xercesc_2_7::DOMString"*)**, %"class.xercesc_2_7::NodeImpl"* (%"class.xercesc_2_7::NamedNodeMapImpl"*, %"class.xercesc_2_7::DOMString"*, %"class.xercesc_2_7::DOMString"*)*** %6, align 8, !dbg !1338
  %vfn = getelementptr inbounds %"class.xercesc_2_7::NodeImpl"* (%"class.xercesc_2_7::NamedNodeMapImpl"*, %"class.xercesc_2_7::DOMString"*, %"class.xercesc_2_7::DOMString"*)*, %"class.xercesc_2_7::NodeImpl"* (%"class.xercesc_2_7::NamedNodeMapImpl"*, %"class.xercesc_2_7::DOMString"*, %"class.xercesc_2_7::DOMString"*)** %vtable, i64 13, !dbg !1338
  %7 = load %"class.xercesc_2_7::NodeImpl"* (%"class.xercesc_2_7::NamedNodeMapImpl"*, %"class.xercesc_2_7::DOMString"*, %"class.xercesc_2_7::DOMString"*)*, %"class.xercesc_2_7::NodeImpl"* (%"class.xercesc_2_7::NamedNodeMapImpl"*, %"class.xercesc_2_7::DOMString"*, %"class.xercesc_2_7::DOMString"*)** %vfn, align 8, !dbg !1338
  %call = call %"class.xercesc_2_7::NodeImpl"* %7(%"class.xercesc_2_7::NamedNodeMapImpl"* %3, %"class.xercesc_2_7::DOMString"* dereferenceable(8) %4, %"class.xercesc_2_7::DOMString"* dereferenceable(8) %5), !dbg !1338
  %8 = bitcast %"class.xercesc_2_7::NodeImpl"* %call to %"class.xercesc_2_7::AttrImpl"*, !dbg !1341
  br label %cond.end, !dbg !1336

cond.false:                                       ; preds = %entry
  br label %cond.end, !dbg !1336

cond.end:                                         ; preds = %cond.false, %cond.true
  %cond = phi %"class.xercesc_2_7::AttrImpl"* [ %8, %cond.true ], [ null, %cond.false ], !dbg !1336
  store %"class.xercesc_2_7::AttrImpl"* %cond, %"class.xercesc_2_7::AttrImpl"** %attr, align 8, !dbg !1333
  %9 = load %"class.xercesc_2_7::AttrImpl"*, %"class.xercesc_2_7::AttrImpl"** %attr, align 8, !dbg !1342
  %cmp3 = icmp eq %"class.xercesc_2_7::AttrImpl"* %9, null, !dbg !1343
  br i1 %cmp3, label %cond.true4, label %cond.false5, !dbg !1344

cond.true4:                                       ; preds = %cond.end
  call void @_ZN11xercesc_2_79DOMStringC1Ei(%"class.xercesc_2_7::DOMString"* %agg.result, i32 0), !dbg !1345
  br label %cond.end8, !dbg !1344

cond.false5:                                      ; preds = %cond.end
  %10 = load %"class.xercesc_2_7::AttrImpl"*, %"class.xercesc_2_7::AttrImpl"** %attr, align 8, !dbg !1346
  %11 = bitcast %"class.xercesc_2_7::AttrImpl"* %10 to void (%"class.xercesc_2_7::DOMString"*, %"class.xercesc_2_7::AttrImpl"*)***, !dbg !1347
  %vtable6 = load void (%"class.xercesc_2_7::DOMString"*, %"class.xercesc_2_7::AttrImpl"*)**, void (%"class.xercesc_2_7::DOMString"*, %"class.xercesc_2_7::AttrImpl"*)*** %11, align 8, !dbg !1347
  %vfn7 = getelementptr inbounds void (%"class.xercesc_2_7::DOMString"*, %"class.xercesc_2_7::AttrImpl"*)*, void (%"class.xercesc_2_7::DOMString"*, %"class.xercesc_2_7::AttrImpl"*)** %vtable6, i64 49, !dbg !1347
  %12 = load void (%"class.xercesc_2_7::DOMString"*, %"class.xercesc_2_7::AttrImpl"*)*, void (%"class.xercesc_2_7::DOMString"*, %"class.xercesc_2_7::AttrImpl"*)** %vfn7, align 8, !dbg !1347
  call void %12(%"class.xercesc_2_7::DOMString"* sret %agg.result, %"class.xercesc_2_7::AttrImpl"* %10), !dbg !1347
  br label %cond.end8, !dbg !1344

cond.end8:                                        ; preds = %cond.false5, %cond.true4
  ret void, !dbg !1348
}

; Function Attrs: noinline uwtable
define dso_local %"class.xercesc_2_7::AttrImpl"* @_ZN11xercesc_2_711ElementImpl14setAttributeNSERKNS_9DOMStringES3_S3_(%"class.xercesc_2_7::ElementImpl"* %this, %"class.xercesc_2_7::DOMString"* dereferenceable(8) %fNamespaceURI, %"class.xercesc_2_7::DOMString"* dereferenceable(8) %qualifiedName, %"class.xercesc_2_7::DOMString"* dereferenceable(8) %fValue) unnamed_addr #3 align 2 personality i8* bitcast (i32 (...)* @__gxx_personality_v0 to i8*) !dbg !1349 {
entry:
  %this.addr = alloca %"class.xercesc_2_7::ElementImpl"*, align 8
  %fNamespaceURI.addr = alloca %"class.xercesc_2_7::DOMString"*, align 8
  %qualifiedName.addr = alloca %"class.xercesc_2_7::DOMString"*, align 8
  %fValue.addr = alloca %"class.xercesc_2_7::DOMString"*, align 8
  %ref.tmp = alloca %"class.xercesc_2_7::DOMString", align 8
  %exn.slot = alloca i8*
  %ehselector.slot = alloca i32
  %cleanup.isactive = alloca i1, align 1
  %newAttr = alloca %"class.xercesc_2_7::AttrImpl"*, align 8
  %oldAttr = alloca %"class.xercesc_2_7::AttrImpl"*, align 8
  store %"class.xercesc_2_7::ElementImpl"* %this, %"class.xercesc_2_7::ElementImpl"** %this.addr, align 8
  call void @llvm.dbg.declare(metadata %"class.xercesc_2_7::ElementImpl"** %this.addr, metadata !1350, metadata !DIExpression()), !dbg !1351
  store %"class.xercesc_2_7::DOMString"* %fNamespaceURI, %"class.xercesc_2_7::DOMString"** %fNamespaceURI.addr, align 8
  call void @llvm.dbg.declare(metadata %"class.xercesc_2_7::DOMString"** %fNamespaceURI.addr, metadata !1352, metadata !DIExpression()), !dbg !1353
  store %"class.xercesc_2_7::DOMString"* %qualifiedName, %"class.xercesc_2_7::DOMString"** %qualifiedName.addr, align 8
  call void @llvm.dbg.declare(metadata %"class.xercesc_2_7::DOMString"** %qualifiedName.addr, metadata !1354, metadata !DIExpression()), !dbg !1355
  store %"class.xercesc_2_7::DOMString"* %fValue, %"class.xercesc_2_7::DOMString"** %fValue.addr, align 8
  call void @llvm.dbg.declare(metadata %"class.xercesc_2_7::DOMString"** %fValue.addr, metadata !1356, metadata !DIExpression()), !dbg !1357
  %this1 = load %"class.xercesc_2_7::ElementImpl"*, %"class.xercesc_2_7::ElementImpl"** %this.addr, align 8
  %0 = bitcast %"class.xercesc_2_7::ElementImpl"* %this1 to %"class.xercesc_2_7::ParentNode"*, !dbg !1358
  %1 = bitcast %"class.xercesc_2_7::ParentNode"* %0 to %"class.xercesc_2_7::DocumentImpl"* (%"class.xercesc_2_7::ParentNode"*)***, !dbg !1358
  %vtable = load %"class.xercesc_2_7::DocumentImpl"* (%"class.xercesc_2_7::ParentNode"*)**, %"class.xercesc_2_7::DocumentImpl"* (%"class.xercesc_2_7::ParentNode"*)*** %1, align 8, !dbg !1358
  %vfn = getelementptr inbounds %"class.xercesc_2_7::DocumentImpl"* (%"class.xercesc_2_7::ParentNode"*)*, %"class.xercesc_2_7::DocumentImpl"* (%"class.xercesc_2_7::ParentNode"*)** %vtable, i64 26, !dbg !1358
  %2 = load %"class.xercesc_2_7::DocumentImpl"* (%"class.xercesc_2_7::ParentNode"*)*, %"class.xercesc_2_7::DocumentImpl"* (%"class.xercesc_2_7::ParentNode"*)** %vfn, align 8, !dbg !1358
  %call = call %"class.xercesc_2_7::DocumentImpl"* %2(%"class.xercesc_2_7::ParentNode"* %0), !dbg !1358
  %call2 = call zeroext i1 @_ZN11xercesc_2_712DocumentImpl16getErrorCheckingEv(%"class.xercesc_2_7::DocumentImpl"* %call), !dbg !1360
  br i1 %call2, label %land.lhs.true, label %if.end, !dbg !1361

land.lhs.true:                                    ; preds = %entry
  %3 = bitcast %"class.xercesc_2_7::ElementImpl"* %this1 to %"class.xercesc_2_7::NodeImpl"*, !dbg !1362
  %call3 = call zeroext i1 @_ZNK11xercesc_2_78NodeImpl10isReadOnlyEv(%"class.xercesc_2_7::NodeImpl"* %3), !dbg !1362
  br i1 %call3, label %if.then, label %if.end, !dbg !1363

if.then:                                          ; preds = %land.lhs.true
  %exception = call i8* @__cxa_allocate_exception(i64 24) #7, !dbg !1364
  store i1 true, i1* %cleanup.isactive, align 1
  %4 = bitcast i8* %exception to %"class.xercesc_2_7::DOM_DOMException"*, !dbg !1364
  invoke void @_ZN11xercesc_2_79DOMStringC1Ei(%"class.xercesc_2_7::DOMString"* %ref.tmp, i32 0)
          to label %invoke.cont unwind label %lpad, !dbg !1366

invoke.cont:                                      ; preds = %if.then
  invoke void @_ZN11xercesc_2_716DOM_DOMExceptionC1EsRKNS_9DOMStringE(%"class.xercesc_2_7::DOM_DOMException"* %4, i16 signext 7, %"class.xercesc_2_7::DOMString"* dereferenceable(8) %ref.tmp)
          to label %invoke.cont5 unwind label %lpad4, !dbg !1367

invoke.cont5:                                     ; preds = %invoke.cont
  store i1 false, i1* %cleanup.isactive, align 1, !dbg !1364
  invoke void @__cxa_throw(i8* %exception, i8* bitcast (i8** @_ZTIN11xercesc_2_716DOM_DOMExceptionE to i8*), i8* bitcast (void (%"class.xercesc_2_7::DOM_DOMException"*)* @_ZN11xercesc_2_716DOM_DOMExceptionD1Ev to i8*)) #10
          to label %unreachable unwind label %lpad4, !dbg !1364

lpad:                                             ; preds = %if.then
  %5 = landingpad { i8*, i32 }
          cleanup, !dbg !1368
  %6 = extractvalue { i8*, i32 } %5, 0, !dbg !1368
  store i8* %6, i8** %exn.slot, align 8, !dbg !1368
  %7 = extractvalue { i8*, i32 } %5, 1, !dbg !1368
  store i32 %7, i32* %ehselector.slot, align 4, !dbg !1368
  br label %ehcleanup, !dbg !1368

lpad4:                                            ; preds = %invoke.cont5, %invoke.cont
  %8 = landingpad { i8*, i32 }
          cleanup, !dbg !1368
  %9 = extractvalue { i8*, i32 } %8, 0, !dbg !1368
  store i8* %9, i8** %exn.slot, align 8, !dbg !1368
  %10 = extractvalue { i8*, i32 } %8, 1, !dbg !1368
  store i32 %10, i32* %ehselector.slot, align 4, !dbg !1368
  call void @_ZN11xercesc_2_79DOMStringD1Ev(%"class.xercesc_2_7::DOMString"* %ref.tmp) #7, !dbg !1364
  br label %ehcleanup, !dbg !1364

ehcleanup:                                        ; preds = %lpad4, %lpad
  %cleanup.is_active = load i1, i1* %cleanup.isactive, align 1, !dbg !1364
  br i1 %cleanup.is_active, label %cleanup.action, label %cleanup.done, !dbg !1364

cleanup.action:                                   ; preds = %ehcleanup
  call void @__cxa_free_exception(i8* %exception) #7, !dbg !1364
  br label %cleanup.done, !dbg !1364

cleanup.done:                                     ; preds = %cleanup.action, %ehcleanup
  br label %eh.resume, !dbg !1364

if.end:                                           ; preds = %land.lhs.true, %entry
  call void @llvm.dbg.declare(metadata %"class.xercesc_2_7::AttrImpl"** %newAttr, metadata !1369, metadata !DIExpression()), !dbg !1370
  %11 = bitcast %"class.xercesc_2_7::ElementImpl"* %this1 to %"class.xercesc_2_7::ParentNode"*, !dbg !1371
  %ownerDocument = getelementptr inbounds %"class.xercesc_2_7::ParentNode", %"class.xercesc_2_7::ParentNode"* %11, i32 0, i32 1, !dbg !1371
  %12 = load %"class.xercesc_2_7::DocumentImpl"*, %"class.xercesc_2_7::DocumentImpl"** %ownerDocument, align 8, !dbg !1371
  %13 = load %"class.xercesc_2_7::DOMString"*, %"class.xercesc_2_7::DOMString"** %fNamespaceURI.addr, align 8, !dbg !1372
  %14 = load %"class.xercesc_2_7::DOMString"*, %"class.xercesc_2_7::DOMString"** %qualifiedName.addr, align 8, !dbg !1373
  %15 = bitcast %"class.xercesc_2_7::DocumentImpl"* %12 to %"class.xercesc_2_7::AttrImpl"* (%"class.xercesc_2_7::DocumentImpl"*, %"class.xercesc_2_7::DOMString"*, %"class.xercesc_2_7::DOMString"*)***, !dbg !1374
  %vtable6 = load %"class.xercesc_2_7::AttrImpl"* (%"class.xercesc_2_7::DocumentImpl"*, %"class.xercesc_2_7::DOMString"*, %"class.xercesc_2_7::DOMString"*)**, %"class.xercesc_2_7::AttrImpl"* (%"class.xercesc_2_7::DocumentImpl"*, %"class.xercesc_2_7::DOMString"*, %"class.xercesc_2_7::DOMString"*)*** %15, align 8, !dbg !1374
  %vfn7 = getelementptr inbounds %"class.xercesc_2_7::AttrImpl"* (%"class.xercesc_2_7::DocumentImpl"*, %"class.xercesc_2_7::DOMString"*, %"class.xercesc_2_7::DOMString"*)*, %"class.xercesc_2_7::AttrImpl"* (%"class.xercesc_2_7::DocumentImpl"*, %"class.xercesc_2_7::DOMString"*, %"class.xercesc_2_7::DOMString"*)** %vtable6, i64 71, !dbg !1374
  %16 = load %"class.xercesc_2_7::AttrImpl"* (%"class.xercesc_2_7::DocumentImpl"*, %"class.xercesc_2_7::DOMString"*, %"class.xercesc_2_7::DOMString"*)*, %"class.xercesc_2_7::AttrImpl"* (%"class.xercesc_2_7::DocumentImpl"*, %"class.xercesc_2_7::DOMString"*, %"class.xercesc_2_7::DOMString"*)** %vfn7, align 8, !dbg !1374
  %call8 = call %"class.xercesc_2_7::AttrImpl"* %16(%"class.xercesc_2_7::DocumentImpl"* %12, %"class.xercesc_2_7::DOMString"* dereferenceable(8) %13, %"class.xercesc_2_7::DOMString"* dereferenceable(8) %14), !dbg !1374
  store %"class.xercesc_2_7::AttrImpl"* %call8, %"class.xercesc_2_7::AttrImpl"** %newAttr, align 8, !dbg !1370
  %17 = load %"class.xercesc_2_7::AttrImpl"*, %"class.xercesc_2_7::AttrImpl"** %newAttr, align 8, !dbg !1375
  %18 = load %"class.xercesc_2_7::DOMString"*, %"class.xercesc_2_7::DOMString"** %fValue.addr, align 8, !dbg !1376
  %19 = bitcast %"class.xercesc_2_7::AttrImpl"* %17 to void (%"class.xercesc_2_7::AttrImpl"*, %"class.xercesc_2_7::DOMString"*)***, !dbg !1377
  %vtable9 = load void (%"class.xercesc_2_7::AttrImpl"*, %"class.xercesc_2_7::DOMString"*)**, void (%"class.xercesc_2_7::AttrImpl"*, %"class.xercesc_2_7::DOMString"*)*** %19, align 8, !dbg !1377
  %vfn10 = getelementptr inbounds void (%"class.xercesc_2_7::AttrImpl"*, %"class.xercesc_2_7::DOMString"*)*, void (%"class.xercesc_2_7::AttrImpl"*, %"class.xercesc_2_7::DOMString"*)** %vtable9, i64 34, !dbg !1377
  %20 = load void (%"class.xercesc_2_7::AttrImpl"*, %"class.xercesc_2_7::DOMString"*)*, void (%"class.xercesc_2_7::AttrImpl"*, %"class.xercesc_2_7::DOMString"*)** %vfn10, align 8, !dbg !1377
  call void %20(%"class.xercesc_2_7::AttrImpl"* %17, %"class.xercesc_2_7::DOMString"* dereferenceable(8) %18), !dbg !1377
  %attributes = getelementptr inbounds %"class.xercesc_2_7::ElementImpl", %"class.xercesc_2_7::ElementImpl"* %this1, i32 0, i32 2, !dbg !1378
  %21 = load %"class.xercesc_2_7::AttrMapImpl"*, %"class.xercesc_2_7::AttrMapImpl"** %attributes, align 8, !dbg !1378
  %cmp = icmp eq %"class.xercesc_2_7::AttrMapImpl"* %21, null, !dbg !1380
  br i1 %cmp, label %if.then11, label %if.end21, !dbg !1381

if.then11:                                        ; preds = %if.end
  %22 = bitcast %"class.xercesc_2_7::ElementImpl"* %this1 to %"class.xercesc_2_7::ParentNode"*, !dbg !1382
  %23 = bitcast %"class.xercesc_2_7::ParentNode"* %22 to %"class.xercesc_2_7::DocumentImpl"* (%"class.xercesc_2_7::ParentNode"*)***, !dbg !1382
  %vtable12 = load %"class.xercesc_2_7::DocumentImpl"* (%"class.xercesc_2_7::ParentNode"*)**, %"class.xercesc_2_7::DocumentImpl"* (%"class.xercesc_2_7::ParentNode"*)*** %23, align 8, !dbg !1382
  %vfn13 = getelementptr inbounds %"class.xercesc_2_7::DocumentImpl"* (%"class.xercesc_2_7::ParentNode"*)*, %"class.xercesc_2_7::DocumentImpl"* (%"class.xercesc_2_7::ParentNode"*)** %vtable12, i64 26, !dbg !1382
  %24 = load %"class.xercesc_2_7::DocumentImpl"* (%"class.xercesc_2_7::ParentNode"*)*, %"class.xercesc_2_7::DocumentImpl"* (%"class.xercesc_2_7::ParentNode"*)** %vfn13, align 8, !dbg !1382
  %call14 = call %"class.xercesc_2_7::DocumentImpl"* %24(%"class.xercesc_2_7::ParentNode"* %22), !dbg !1382
  %call15 = call %"class.xercesc_2_7::MemoryManager"* @_ZNK11xercesc_2_712DocumentImpl16getMemoryManagerEv(%"class.xercesc_2_7::DocumentImpl"* %call14), !dbg !1384
  %call16 = call i8* @_ZN11xercesc_2_77XMemorynwEmPNS_13MemoryManagerE(i64 40, %"class.xercesc_2_7::MemoryManager"* %call15), !dbg !1385
  %25 = bitcast i8* %call16 to %"class.xercesc_2_7::AttrMapImpl"*, !dbg !1385
  %26 = bitcast %"class.xercesc_2_7::ElementImpl"* %this1 to %"class.xercesc_2_7::NodeImpl"*, !dbg !1386
  invoke void @_ZN11xercesc_2_711AttrMapImplC1EPNS_8NodeImplEPNS_16NamedNodeMapImplE(%"class.xercesc_2_7::AttrMapImpl"* %25, %"class.xercesc_2_7::NodeImpl"* %26, %"class.xercesc_2_7::NamedNodeMapImpl"* null)
          to label %invoke.cont18 unwind label %lpad17, !dbg !1387

invoke.cont18:                                    ; preds = %if.then11
  %attributes20 = getelementptr inbounds %"class.xercesc_2_7::ElementImpl", %"class.xercesc_2_7::ElementImpl"* %this1, i32 0, i32 2, !dbg !1388
  store %"class.xercesc_2_7::AttrMapImpl"* %25, %"class.xercesc_2_7::AttrMapImpl"** %attributes20, align 8, !dbg !1389
  br label %if.end21, !dbg !1390

lpad17:                                           ; preds = %if.then11
  %27 = landingpad { i8*, i32 }
          cleanup, !dbg !1391
  %28 = extractvalue { i8*, i32 } %27, 0, !dbg !1391
  store i8* %28, i8** %exn.slot, align 8, !dbg !1391
  %29 = extractvalue { i8*, i32 } %27, 1, !dbg !1391
  store i32 %29, i32* %ehselector.slot, align 4, !dbg !1391
  call void @_ZN11xercesc_2_77XMemorydlEPvPNS_13MemoryManagerE(i8* %call16, %"class.xercesc_2_7::MemoryManager"* %call15) #7, !dbg !1385
  br label %eh.resume, !dbg !1385

if.end21:                                         ; preds = %invoke.cont18, %if.end
  call void @llvm.dbg.declare(metadata %"class.xercesc_2_7::AttrImpl"** %oldAttr, metadata !1392, metadata !DIExpression()), !dbg !1393
  %attributes22 = getelementptr inbounds %"class.xercesc_2_7::ElementImpl", %"class.xercesc_2_7::ElementImpl"* %this1, i32 0, i32 2, !dbg !1394
  %30 = load %"class.xercesc_2_7::AttrMapImpl"*, %"class.xercesc_2_7::AttrMapImpl"** %attributes22, align 8, !dbg !1394
  %31 = bitcast %"class.xercesc_2_7::AttrMapImpl"* %30 to %"class.xercesc_2_7::NamedNodeMapImpl"*, !dbg !1395
  %32 = load %"class.xercesc_2_7::AttrImpl"*, %"class.xercesc_2_7::AttrImpl"** %newAttr, align 8, !dbg !1396
  %33 = bitcast %"class.xercesc_2_7::AttrImpl"* %32 to %"class.xercesc_2_7::NodeImpl"*, !dbg !1396
  %34 = bitcast %"class.xercesc_2_7::NamedNodeMapImpl"* %31 to %"class.xercesc_2_7::NodeImpl"* (%"class.xercesc_2_7::NamedNodeMapImpl"*, %"class.xercesc_2_7::NodeImpl"*)***, !dbg !1395
  %vtable23 = load %"class.xercesc_2_7::NodeImpl"* (%"class.xercesc_2_7::NamedNodeMapImpl"*, %"class.xercesc_2_7::NodeImpl"*)**, %"class.xercesc_2_7::NodeImpl"* (%"class.xercesc_2_7::NamedNodeMapImpl"*, %"class.xercesc_2_7::NodeImpl"*)*** %34, align 8, !dbg !1395
  %vfn24 = getelementptr inbounds %"class.xercesc_2_7::NodeImpl"* (%"class.xercesc_2_7::NamedNodeMapImpl"*, %"class.xercesc_2_7::NodeImpl"*)*, %"class.xercesc_2_7::NodeImpl"* (%"class.xercesc_2_7::NamedNodeMapImpl"*, %"class.xercesc_2_7::NodeImpl"*)** %vtable23, i64 10, !dbg !1395
  %35 = load %"class.xercesc_2_7::NodeImpl"* (%"class.xercesc_2_7::NamedNodeMapImpl"*, %"class.xercesc_2_7::NodeImpl"*)*, %"class.xercesc_2_7::NodeImpl"* (%"class.xercesc_2_7::NamedNodeMapImpl"*, %"class.xercesc_2_7::NodeImpl"*)** %vfn24, align 8, !dbg !1395
  %call25 = call %"class.xercesc_2_7::NodeImpl"* %35(%"class.xercesc_2_7::NamedNodeMapImpl"* %31, %"class.xercesc_2_7::NodeImpl"* %33), !dbg !1395
  %36 = bitcast %"class.xercesc_2_7::NodeImpl"* %call25 to %"class.xercesc_2_7::AttrImpl"*, !dbg !1397
  store %"class.xercesc_2_7::AttrImpl"* %36, %"class.xercesc_2_7::AttrImpl"** %oldAttr, align 8, !dbg !1393
  %37 = load %"class.xercesc_2_7::AttrImpl"*, %"class.xercesc_2_7::AttrImpl"** %oldAttr, align 8, !dbg !1398
  %tobool = icmp ne %"class.xercesc_2_7::AttrImpl"* %37, null, !dbg !1398
  br i1 %tobool, label %if.then26, label %if.end30, !dbg !1400

if.then26:                                        ; preds = %if.end21
  %38 = load %"class.xercesc_2_7::AttrImpl"*, %"class.xercesc_2_7::AttrImpl"** %oldAttr, align 8, !dbg !1401
  %39 = bitcast %"class.xercesc_2_7::AttrImpl"* %38 to %"class.xercesc_2_7::RefCountedImpl"*, !dbg !1404
  %nodeRefCount = getelementptr inbounds %"class.xercesc_2_7::RefCountedImpl", %"class.xercesc_2_7::RefCountedImpl"* %39, i32 0, i32 1, !dbg !1404
  %40 = load i32, i32* %nodeRefCount, align 8, !dbg !1404
  %cmp27 = icmp eq i32 %40, 0, !dbg !1405
  br i1 %cmp27, label %if.then28, label %if.end29, !dbg !1406

if.then28:                                        ; preds = %if.then26
  %41 = load %"class.xercesc_2_7::AttrImpl"*, %"class.xercesc_2_7::AttrImpl"** %oldAttr, align 8, !dbg !1407
  %42 = bitcast %"class.xercesc_2_7::AttrImpl"* %41 to %"class.xercesc_2_7::NodeImpl"*, !dbg !1407
  call void @_ZN11xercesc_2_78NodeImpl8deleteIfEPS0_(%"class.xercesc_2_7::NodeImpl"* %42), !dbg !1408
  br label %if.end29, !dbg !1408

if.end29:                                         ; preds = %if.then28, %if.then26
  br label %if.end30, !dbg !1409

if.end30:                                         ; preds = %if.end29, %if.end21
  %43 = load %"class.xercesc_2_7::AttrImpl"*, %"class.xercesc_2_7::AttrImpl"** %newAttr, align 8, !dbg !1410
  ret %"class.xercesc_2_7::AttrImpl"* %43, !dbg !1411

eh.resume:                                        ; preds = %lpad17, %cleanup.done
  %exn = load i8*, i8** %exn.slot, align 8, !dbg !1364
  %sel = load i32, i32* %ehselector.slot, align 4, !dbg !1364
  %lpad.val = insertvalue { i8*, i32 } undef, i8* %exn, 0, !dbg !1364
  %lpad.val31 = insertvalue { i8*, i32 } %lpad.val, i32 %sel, 1, !dbg !1364
  resume { i8*, i32 } %lpad.val31, !dbg !1364

unreachable:                                      ; preds = %invoke.cont5
  unreachable
}

; Function Attrs: noinline uwtable
define dso_local void @_ZN11xercesc_2_711ElementImpl17removeAttributeNSERKNS_9DOMStringES3_(%"class.xercesc_2_7::ElementImpl"* %this, %"class.xercesc_2_7::DOMString"* dereferenceable(8) %fNamespaceURI, %"class.xercesc_2_7::DOMString"* dereferenceable(8) %fLocalName) unnamed_addr #3 align 2 personality i8* bitcast (i32 (...)* @__gxx_personality_v0 to i8*) !dbg !1412 {
entry:
  %this.addr = alloca %"class.xercesc_2_7::ElementImpl"*, align 8
  %fNamespaceURI.addr = alloca %"class.xercesc_2_7::DOMString"*, align 8
  %fLocalName.addr = alloca %"class.xercesc_2_7::DOMString"*, align 8
  %ref.tmp = alloca %"class.xercesc_2_7::DOMString", align 8
  %exn.slot = alloca i8*
  %ehselector.slot = alloca i32
  %cleanup.isactive = alloca i1, align 1
  %att = alloca %"class.xercesc_2_7::AttrImpl"*, align 8
  store %"class.xercesc_2_7::ElementImpl"* %this, %"class.xercesc_2_7::ElementImpl"** %this.addr, align 8
  call void @llvm.dbg.declare(metadata %"class.xercesc_2_7::ElementImpl"** %this.addr, metadata !1413, metadata !DIExpression()), !dbg !1414
  store %"class.xercesc_2_7::DOMString"* %fNamespaceURI, %"class.xercesc_2_7::DOMString"** %fNamespaceURI.addr, align 8
  call void @llvm.dbg.declare(metadata %"class.xercesc_2_7::DOMString"** %fNamespaceURI.addr, metadata !1415, metadata !DIExpression()), !dbg !1416
  store %"class.xercesc_2_7::DOMString"* %fLocalName, %"class.xercesc_2_7::DOMString"** %fLocalName.addr, align 8
  call void @llvm.dbg.declare(metadata %"class.xercesc_2_7::DOMString"** %fLocalName.addr, metadata !1417, metadata !DIExpression()), !dbg !1418
  %this1 = load %"class.xercesc_2_7::ElementImpl"*, %"class.xercesc_2_7::ElementImpl"** %this.addr, align 8
  %0 = bitcast %"class.xercesc_2_7::ElementImpl"* %this1 to %"class.xercesc_2_7::ParentNode"*, !dbg !1419
  %1 = bitcast %"class.xercesc_2_7::ParentNode"* %0 to %"class.xercesc_2_7::DocumentImpl"* (%"class.xercesc_2_7::ParentNode"*)***, !dbg !1419
  %vtable = load %"class.xercesc_2_7::DocumentImpl"* (%"class.xercesc_2_7::ParentNode"*)**, %"class.xercesc_2_7::DocumentImpl"* (%"class.xercesc_2_7::ParentNode"*)*** %1, align 8, !dbg !1419
  %vfn = getelementptr inbounds %"class.xercesc_2_7::DocumentImpl"* (%"class.xercesc_2_7::ParentNode"*)*, %"class.xercesc_2_7::DocumentImpl"* (%"class.xercesc_2_7::ParentNode"*)** %vtable, i64 26, !dbg !1419
  %2 = load %"class.xercesc_2_7::DocumentImpl"* (%"class.xercesc_2_7::ParentNode"*)*, %"class.xercesc_2_7::DocumentImpl"* (%"class.xercesc_2_7::ParentNode"*)** %vfn, align 8, !dbg !1419
  %call = call %"class.xercesc_2_7::DocumentImpl"* %2(%"class.xercesc_2_7::ParentNode"* %0), !dbg !1419
  %call2 = call zeroext i1 @_ZN11xercesc_2_712DocumentImpl16getErrorCheckingEv(%"class.xercesc_2_7::DocumentImpl"* %call), !dbg !1421
  br i1 %call2, label %land.lhs.true, label %if.end, !dbg !1422

land.lhs.true:                                    ; preds = %entry
  %3 = bitcast %"class.xercesc_2_7::ElementImpl"* %this1 to %"class.xercesc_2_7::NodeImpl"*, !dbg !1423
  %call3 = call zeroext i1 @_ZNK11xercesc_2_78NodeImpl10isReadOnlyEv(%"class.xercesc_2_7::NodeImpl"* %3), !dbg !1423
  br i1 %call3, label %if.then, label %if.end, !dbg !1424

if.then:                                          ; preds = %land.lhs.true
  %exception = call i8* @__cxa_allocate_exception(i64 24) #7, !dbg !1425
  store i1 true, i1* %cleanup.isactive, align 1
  %4 = bitcast i8* %exception to %"class.xercesc_2_7::DOM_DOMException"*, !dbg !1425
  invoke void @_ZN11xercesc_2_79DOMStringC1Ei(%"class.xercesc_2_7::DOMString"* %ref.tmp, i32 0)
          to label %invoke.cont unwind label %lpad, !dbg !1427

invoke.cont:                                      ; preds = %if.then
  invoke void @_ZN11xercesc_2_716DOM_DOMExceptionC1EsRKNS_9DOMStringE(%"class.xercesc_2_7::DOM_DOMException"* %4, i16 signext 7, %"class.xercesc_2_7::DOMString"* dereferenceable(8) %ref.tmp)
          to label %invoke.cont5 unwind label %lpad4, !dbg !1428

invoke.cont5:                                     ; preds = %invoke.cont
  store i1 false, i1* %cleanup.isactive, align 1, !dbg !1425
  invoke void @__cxa_throw(i8* %exception, i8* bitcast (i8** @_ZTIN11xercesc_2_716DOM_DOMExceptionE to i8*), i8* bitcast (void (%"class.xercesc_2_7::DOM_DOMException"*)* @_ZN11xercesc_2_716DOM_DOMExceptionD1Ev to i8*)) #10
          to label %unreachable unwind label %lpad4, !dbg !1425

lpad:                                             ; preds = %if.then
  %5 = landingpad { i8*, i32 }
          cleanup, !dbg !1429
  %6 = extractvalue { i8*, i32 } %5, 0, !dbg !1429
  store i8* %6, i8** %exn.slot, align 8, !dbg !1429
  %7 = extractvalue { i8*, i32 } %5, 1, !dbg !1429
  store i32 %7, i32* %ehselector.slot, align 4, !dbg !1429
  br label %ehcleanup, !dbg !1429

lpad4:                                            ; preds = %invoke.cont5, %invoke.cont
  %8 = landingpad { i8*, i32 }
          cleanup, !dbg !1429
  %9 = extractvalue { i8*, i32 } %8, 0, !dbg !1429
  store i8* %9, i8** %exn.slot, align 8, !dbg !1429
  %10 = extractvalue { i8*, i32 } %8, 1, !dbg !1429
  store i32 %10, i32* %ehselector.slot, align 4, !dbg !1429
  call void @_ZN11xercesc_2_79DOMStringD1Ev(%"class.xercesc_2_7::DOMString"* %ref.tmp) #7, !dbg !1425
  br label %ehcleanup, !dbg !1425

ehcleanup:                                        ; preds = %lpad4, %lpad
  %cleanup.is_active = load i1, i1* %cleanup.isactive, align 1, !dbg !1425
  br i1 %cleanup.is_active, label %cleanup.action, label %cleanup.done, !dbg !1425

cleanup.action:                                   ; preds = %ehcleanup
  call void @__cxa_free_exception(i8* %exception) #7, !dbg !1425
  br label %cleanup.done, !dbg !1425

cleanup.done:                                     ; preds = %cleanup.action, %ehcleanup
  br label %eh.resume, !dbg !1425

if.end:                                           ; preds = %land.lhs.true, %entry
  %attributes = getelementptr inbounds %"class.xercesc_2_7::ElementImpl", %"class.xercesc_2_7::ElementImpl"* %this1, i32 0, i32 2, !dbg !1430
  %11 = load %"class.xercesc_2_7::AttrMapImpl"*, %"class.xercesc_2_7::AttrMapImpl"** %attributes, align 8, !dbg !1430
  %cmp = icmp ne %"class.xercesc_2_7::AttrMapImpl"* %11, null, !dbg !1432
  br i1 %cmp, label %if.then6, label %if.end21, !dbg !1433

if.then6:                                         ; preds = %if.end
  call void @llvm.dbg.declare(metadata %"class.xercesc_2_7::AttrImpl"** %att, metadata !1434, metadata !DIExpression()), !dbg !1436
  %attributes7 = getelementptr inbounds %"class.xercesc_2_7::ElementImpl", %"class.xercesc_2_7::ElementImpl"* %this1, i32 0, i32 2, !dbg !1437
  %12 = load %"class.xercesc_2_7::AttrMapImpl"*, %"class.xercesc_2_7::AttrMapImpl"** %attributes7, align 8, !dbg !1437
  %13 = bitcast %"class.xercesc_2_7::AttrMapImpl"* %12 to %"class.xercesc_2_7::NamedNodeMapImpl"*, !dbg !1438
  %14 = load %"class.xercesc_2_7::DOMString"*, %"class.xercesc_2_7::DOMString"** %fNamespaceURI.addr, align 8, !dbg !1439
  %15 = load %"class.xercesc_2_7::DOMString"*, %"class.xercesc_2_7::DOMString"** %fLocalName.addr, align 8, !dbg !1440
  %16 = bitcast %"class.xercesc_2_7::NamedNodeMapImpl"* %13 to %"class.xercesc_2_7::NodeImpl"* (%"class.xercesc_2_7::NamedNodeMapImpl"*, %"class.xercesc_2_7::DOMString"*, %"class.xercesc_2_7::DOMString"*)***, !dbg !1438
  %vtable8 = load %"class.xercesc_2_7::NodeImpl"* (%"class.xercesc_2_7::NamedNodeMapImpl"*, %"class.xercesc_2_7::DOMString"*, %"class.xercesc_2_7::DOMString"*)**, %"class.xercesc_2_7::NodeImpl"* (%"class.xercesc_2_7::NamedNodeMapImpl"*, %"class.xercesc_2_7::DOMString"*, %"class.xercesc_2_7::DOMString"*)*** %16, align 8, !dbg !1438
  %vfn9 = getelementptr inbounds %"class.xercesc_2_7::NodeImpl"* (%"class.xercesc_2_7::NamedNodeMapImpl"*, %"class.xercesc_2_7::DOMString"*, %"class.xercesc_2_7::DOMString"*)*, %"class.xercesc_2_7::NodeImpl"* (%"class.xercesc_2_7::NamedNodeMapImpl"*, %"class.xercesc_2_7::DOMString"*, %"class.xercesc_2_7::DOMString"*)** %vtable8, i64 13, !dbg !1438
  %17 = load %"class.xercesc_2_7::NodeImpl"* (%"class.xercesc_2_7::NamedNodeMapImpl"*, %"class.xercesc_2_7::DOMString"*, %"class.xercesc_2_7::DOMString"*)*, %"class.xercesc_2_7::NodeImpl"* (%"class.xercesc_2_7::NamedNodeMapImpl"*, %"class.xercesc_2_7::DOMString"*, %"class.xercesc_2_7::DOMString"*)** %vfn9, align 8, !dbg !1438
  %call10 = call %"class.xercesc_2_7::NodeImpl"* %17(%"class.xercesc_2_7::NamedNodeMapImpl"* %13, %"class.xercesc_2_7::DOMString"* dereferenceable(8) %14, %"class.xercesc_2_7::DOMString"* dereferenceable(8) %15), !dbg !1438
  %18 = bitcast %"class.xercesc_2_7::NodeImpl"* %call10 to %"class.xercesc_2_7::AttrImpl"*, !dbg !1441
  store %"class.xercesc_2_7::AttrImpl"* %18, %"class.xercesc_2_7::AttrImpl"** %att, align 8, !dbg !1436
  %19 = load %"class.xercesc_2_7::AttrImpl"*, %"class.xercesc_2_7::AttrImpl"** %att, align 8, !dbg !1442
  %cmp11 = icmp ne %"class.xercesc_2_7::AttrImpl"* %19, null, !dbg !1444
  br i1 %cmp11, label %if.then12, label %if.end20, !dbg !1445

if.then12:                                        ; preds = %if.then6
  %attributes13 = getelementptr inbounds %"class.xercesc_2_7::ElementImpl", %"class.xercesc_2_7::ElementImpl"* %this1, i32 0, i32 2, !dbg !1446
  %20 = load %"class.xercesc_2_7::AttrMapImpl"*, %"class.xercesc_2_7::AttrMapImpl"** %attributes13, align 8, !dbg !1446
  %21 = load %"class.xercesc_2_7::DOMString"*, %"class.xercesc_2_7::DOMString"** %fNamespaceURI.addr, align 8, !dbg !1448
  %22 = load %"class.xercesc_2_7::DOMString"*, %"class.xercesc_2_7::DOMString"** %fLocalName.addr, align 8, !dbg !1449
  %23 = bitcast %"class.xercesc_2_7::AttrMapImpl"* %20 to %"class.xercesc_2_7::NodeImpl"* (%"class.xercesc_2_7::AttrMapImpl"*, %"class.xercesc_2_7::DOMString"*, %"class.xercesc_2_7::DOMString"*)***, !dbg !1450
  %vtable14 = load %"class.xercesc_2_7::NodeImpl"* (%"class.xercesc_2_7::AttrMapImpl"*, %"class.xercesc_2_7::DOMString"*, %"class.xercesc_2_7::DOMString"*)**, %"class.xercesc_2_7::NodeImpl"* (%"class.xercesc_2_7::AttrMapImpl"*, %"class.xercesc_2_7::DOMString"*, %"class.xercesc_2_7::DOMString"*)*** %23, align 8, !dbg !1450
  %vfn15 = getelementptr inbounds %"class.xercesc_2_7::NodeImpl"* (%"class.xercesc_2_7::AttrMapImpl"*, %"class.xercesc_2_7::DOMString"*, %"class.xercesc_2_7::DOMString"*)*, %"class.xercesc_2_7::NodeImpl"* (%"class.xercesc_2_7::AttrMapImpl"*, %"class.xercesc_2_7::DOMString"*, %"class.xercesc_2_7::DOMString"*)** %vtable14, i64 15, !dbg !1450
  %24 = load %"class.xercesc_2_7::NodeImpl"* (%"class.xercesc_2_7::AttrMapImpl"*, %"class.xercesc_2_7::DOMString"*, %"class.xercesc_2_7::DOMString"*)*, %"class.xercesc_2_7::NodeImpl"* (%"class.xercesc_2_7::AttrMapImpl"*, %"class.xercesc_2_7::DOMString"*, %"class.xercesc_2_7::DOMString"*)** %vfn15, align 8, !dbg !1450
  %call16 = call %"class.xercesc_2_7::NodeImpl"* %24(%"class.xercesc_2_7::AttrMapImpl"* %20, %"class.xercesc_2_7::DOMString"* dereferenceable(8) %21, %"class.xercesc_2_7::DOMString"* dereferenceable(8) %22), !dbg !1450
  %25 = load %"class.xercesc_2_7::AttrImpl"*, %"class.xercesc_2_7::AttrImpl"** %att, align 8, !dbg !1451
  %26 = bitcast %"class.xercesc_2_7::AttrImpl"* %25 to %"class.xercesc_2_7::RefCountedImpl"*, !dbg !1453
  %nodeRefCount = getelementptr inbounds %"class.xercesc_2_7::RefCountedImpl", %"class.xercesc_2_7::RefCountedImpl"* %26, i32 0, i32 1, !dbg !1453
  %27 = load i32, i32* %nodeRefCount, align 8, !dbg !1453
  %cmp17 = icmp eq i32 %27, 0, !dbg !1454
  br i1 %cmp17, label %if.then18, label %if.end19, !dbg !1455

if.then18:                                        ; preds = %if.then12
  %28 = load %"class.xercesc_2_7::AttrImpl"*, %"class.xercesc_2_7::AttrImpl"** %att, align 8, !dbg !1456
  %29 = bitcast %"class.xercesc_2_7::AttrImpl"* %28 to %"class.xercesc_2_7::NodeImpl"*, !dbg !1456
  call void @_ZN11xercesc_2_78NodeImpl8deleteIfEPS0_(%"class.xercesc_2_7::NodeImpl"* %29), !dbg !1457
  br label %if.end19, !dbg !1457

if.end19:                                         ; preds = %if.then18, %if.then12
  br label %if.end20, !dbg !1458

if.end20:                                         ; preds = %if.end19, %if.then6
  br label %if.end21, !dbg !1459

if.end21:                                         ; preds = %if.end20, %if.end
  ret void, !dbg !1460

eh.resume:                                        ; preds = %cleanup.done
  %exn = load i8*, i8** %exn.slot, align 8, !dbg !1425
  %sel = load i32, i32* %ehselector.slot, align 4, !dbg !1425
  %lpad.val = insertvalue { i8*, i32 } undef, i8* %exn, 0, !dbg !1425
  %lpad.val22 = insertvalue { i8*, i32 } %lpad.val, i32 %sel, 1, !dbg !1425
  resume { i8*, i32 } %lpad.val22, !dbg !1425

unreachable:                                      ; preds = %invoke.cont5
  unreachable
}

; Function Attrs: noinline uwtable
define dso_local %"class.xercesc_2_7::AttrImpl"* @_ZN11xercesc_2_711ElementImpl18getAttributeNodeNSERKNS_9DOMStringES3_(%"class.xercesc_2_7::ElementImpl"* %this, %"class.xercesc_2_7::DOMString"* dereferenceable(8) %fNamespaceURI, %"class.xercesc_2_7::DOMString"* dereferenceable(8) %fLocalName) unnamed_addr #3 align 2 !dbg !1461 {
entry:
  %this.addr = alloca %"class.xercesc_2_7::ElementImpl"*, align 8
  %fNamespaceURI.addr = alloca %"class.xercesc_2_7::DOMString"*, align 8
  %fLocalName.addr = alloca %"class.xercesc_2_7::DOMString"*, align 8
  store %"class.xercesc_2_7::ElementImpl"* %this, %"class.xercesc_2_7::ElementImpl"** %this.addr, align 8
  call void @llvm.dbg.declare(metadata %"class.xercesc_2_7::ElementImpl"** %this.addr, metadata !1462, metadata !DIExpression()), !dbg !1463
  store %"class.xercesc_2_7::DOMString"* %fNamespaceURI, %"class.xercesc_2_7::DOMString"** %fNamespaceURI.addr, align 8
  call void @llvm.dbg.declare(metadata %"class.xercesc_2_7::DOMString"** %fNamespaceURI.addr, metadata !1464, metadata !DIExpression()), !dbg !1465
  store %"class.xercesc_2_7::DOMString"* %fLocalName, %"class.xercesc_2_7::DOMString"** %fLocalName.addr, align 8
  call void @llvm.dbg.declare(metadata %"class.xercesc_2_7::DOMString"** %fLocalName.addr, metadata !1466, metadata !DIExpression()), !dbg !1467
  %this1 = load %"class.xercesc_2_7::ElementImpl"*, %"class.xercesc_2_7::ElementImpl"** %this.addr, align 8
  %attributes = getelementptr inbounds %"class.xercesc_2_7::ElementImpl", %"class.xercesc_2_7::ElementImpl"* %this1, i32 0, i32 2, !dbg !1468
  %0 = load %"class.xercesc_2_7::AttrMapImpl"*, %"class.xercesc_2_7::AttrMapImpl"** %attributes, align 8, !dbg !1468
  %cmp = icmp eq %"class.xercesc_2_7::AttrMapImpl"* %0, null, !dbg !1469
  br i1 %cmp, label %cond.true, label %cond.false, !dbg !1470

cond.true:                                        ; preds = %entry
  br label %cond.end, !dbg !1470

cond.false:                                       ; preds = %entry
  %attributes2 = getelementptr inbounds %"class.xercesc_2_7::ElementImpl", %"class.xercesc_2_7::ElementImpl"* %this1, i32 0, i32 2, !dbg !1471
  %1 = load %"class.xercesc_2_7::AttrMapImpl"*, %"class.xercesc_2_7::AttrMapImpl"** %attributes2, align 8, !dbg !1471
  %2 = bitcast %"class.xercesc_2_7::AttrMapImpl"* %1 to %"class.xercesc_2_7::NamedNodeMapImpl"*, !dbg !1472
  %3 = load %"class.xercesc_2_7::DOMString"*, %"class.xercesc_2_7::DOMString"** %fNamespaceURI.addr, align 8, !dbg !1473
  %4 = load %"class.xercesc_2_7::DOMString"*, %"class.xercesc_2_7::DOMString"** %fLocalName.addr, align 8, !dbg !1474
  %5 = bitcast %"class.xercesc_2_7::NamedNodeMapImpl"* %2 to %"class.xercesc_2_7::NodeImpl"* (%"class.xercesc_2_7::NamedNodeMapImpl"*, %"class.xercesc_2_7::DOMString"*, %"class.xercesc_2_7::DOMString"*)***, !dbg !1472
  %vtable = load %"class.xercesc_2_7::NodeImpl"* (%"class.xercesc_2_7::NamedNodeMapImpl"*, %"class.xercesc_2_7::DOMString"*, %"class.xercesc_2_7::DOMString"*)**, %"class.xercesc_2_7::NodeImpl"* (%"class.xercesc_2_7::NamedNodeMapImpl"*, %"class.xercesc_2_7::DOMString"*, %"class.xercesc_2_7::DOMString"*)*** %5, align 8, !dbg !1472
  %vfn = getelementptr inbounds %"class.xercesc_2_7::NodeImpl"* (%"class.xercesc_2_7::NamedNodeMapImpl"*, %"class.xercesc_2_7::DOMString"*, %"class.xercesc_2_7::DOMString"*)*, %"class.xercesc_2_7::NodeImpl"* (%"class.xercesc_2_7::NamedNodeMapImpl"*, %"class.xercesc_2_7::DOMString"*, %"class.xercesc_2_7::DOMString"*)** %vtable, i64 13, !dbg !1472
  %6 = load %"class.xercesc_2_7::NodeImpl"* (%"class.xercesc_2_7::NamedNodeMapImpl"*, %"class.xercesc_2_7::DOMString"*, %"class.xercesc_2_7::DOMString"*)*, %"class.xercesc_2_7::NodeImpl"* (%"class.xercesc_2_7::NamedNodeMapImpl"*, %"class.xercesc_2_7::DOMString"*, %"class.xercesc_2_7::DOMString"*)** %vfn, align 8, !dbg !1472
  %call = call %"class.xercesc_2_7::NodeImpl"* %6(%"class.xercesc_2_7::NamedNodeMapImpl"* %2, %"class.xercesc_2_7::DOMString"* dereferenceable(8) %3, %"class.xercesc_2_7::DOMString"* dereferenceable(8) %4), !dbg !1472
  %7 = bitcast %"class.xercesc_2_7::NodeImpl"* %call to %"class.xercesc_2_7::AttrImpl"*, !dbg !1475
  br label %cond.end, !dbg !1470

cond.end:                                         ; preds = %cond.false, %cond.true
  %cond = phi %"class.xercesc_2_7::AttrImpl"* [ null, %cond.true ], [ %7, %cond.false ], !dbg !1470
  ret %"class.xercesc_2_7::AttrImpl"* %cond, !dbg !1476
}

; Function Attrs: noinline uwtable
define dso_local %"class.xercesc_2_7::AttrImpl"* @_ZN11xercesc_2_711ElementImpl18setAttributeNodeNSEPNS_8AttrImplE(%"class.xercesc_2_7::ElementImpl"* %this, %"class.xercesc_2_7::AttrImpl"* %newAttr) unnamed_addr #3 align 2 personality i8* bitcast (i32 (...)* @__gxx_personality_v0 to i8*) !dbg !1477 {
entry:
  %this.addr = alloca %"class.xercesc_2_7::ElementImpl"*, align 8
  %newAttr.addr = alloca %"class.xercesc_2_7::AttrImpl"*, align 8
  %ref.tmp = alloca %"class.xercesc_2_7::DOMString", align 8
  %exn.slot = alloca i8*
  %ehselector.slot = alloca i32
  %cleanup.isactive = alloca i1, align 1
  %ref.tmp15 = alloca %"class.xercesc_2_7::DOMString", align 8
  %cleanup.isactive20 = alloca i1, align 1
  %oldAttr = alloca %"class.xercesc_2_7::AttrImpl"*, align 8
  %ref.tmp41 = alloca %"class.xercesc_2_7::DOMString", align 8
  %ref.tmp44 = alloca %"class.xercesc_2_7::DOMString", align 8
  store %"class.xercesc_2_7::ElementImpl"* %this, %"class.xercesc_2_7::ElementImpl"** %this.addr, align 8
  call void @llvm.dbg.declare(metadata %"class.xercesc_2_7::ElementImpl"** %this.addr, metadata !1478, metadata !DIExpression()), !dbg !1479
  store %"class.xercesc_2_7::AttrImpl"* %newAttr, %"class.xercesc_2_7::AttrImpl"** %newAttr.addr, align 8
  call void @llvm.dbg.declare(metadata %"class.xercesc_2_7::AttrImpl"** %newAttr.addr, metadata !1480, metadata !DIExpression()), !dbg !1481
  %this1 = load %"class.xercesc_2_7::ElementImpl"*, %"class.xercesc_2_7::ElementImpl"** %this.addr, align 8
  %0 = bitcast %"class.xercesc_2_7::ElementImpl"* %this1 to %"class.xercesc_2_7::ParentNode"*, !dbg !1482
  %1 = bitcast %"class.xercesc_2_7::ParentNode"* %0 to %"class.xercesc_2_7::DocumentImpl"* (%"class.xercesc_2_7::ParentNode"*)***, !dbg !1482
  %vtable = load %"class.xercesc_2_7::DocumentImpl"* (%"class.xercesc_2_7::ParentNode"*)**, %"class.xercesc_2_7::DocumentImpl"* (%"class.xercesc_2_7::ParentNode"*)*** %1, align 8, !dbg !1482
  %vfn = getelementptr inbounds %"class.xercesc_2_7::DocumentImpl"* (%"class.xercesc_2_7::ParentNode"*)*, %"class.xercesc_2_7::DocumentImpl"* (%"class.xercesc_2_7::ParentNode"*)** %vtable, i64 26, !dbg !1482
  %2 = load %"class.xercesc_2_7::DocumentImpl"* (%"class.xercesc_2_7::ParentNode"*)*, %"class.xercesc_2_7::DocumentImpl"* (%"class.xercesc_2_7::ParentNode"*)** %vfn, align 8, !dbg !1482
  %call = call %"class.xercesc_2_7::DocumentImpl"* %2(%"class.xercesc_2_7::ParentNode"* %0), !dbg !1482
  %call2 = call zeroext i1 @_ZN11xercesc_2_712DocumentImpl16getErrorCheckingEv(%"class.xercesc_2_7::DocumentImpl"* %call), !dbg !1484
  br i1 %call2, label %if.then, label %if.end27, !dbg !1485

if.then:                                          ; preds = %entry
  %3 = bitcast %"class.xercesc_2_7::ElementImpl"* %this1 to %"class.xercesc_2_7::NodeImpl"*, !dbg !1486
  %call3 = call zeroext i1 @_ZNK11xercesc_2_78NodeImpl10isReadOnlyEv(%"class.xercesc_2_7::NodeImpl"* %3), !dbg !1486
  br i1 %call3, label %if.then4, label %if.end, !dbg !1489

if.then4:                                         ; preds = %if.then
  %exception = call i8* @__cxa_allocate_exception(i64 24) #7, !dbg !1490
  store i1 true, i1* %cleanup.isactive, align 1
  %4 = bitcast i8* %exception to %"class.xercesc_2_7::DOM_DOMException"*, !dbg !1490
  invoke void @_ZN11xercesc_2_79DOMStringC1Ei(%"class.xercesc_2_7::DOMString"* %ref.tmp, i32 0)
          to label %invoke.cont unwind label %lpad, !dbg !1492

invoke.cont:                                      ; preds = %if.then4
  invoke void @_ZN11xercesc_2_716DOM_DOMExceptionC1EsRKNS_9DOMStringE(%"class.xercesc_2_7::DOM_DOMException"* %4, i16 signext 7, %"class.xercesc_2_7::DOMString"* dereferenceable(8) %ref.tmp)
          to label %invoke.cont6 unwind label %lpad5, !dbg !1493

invoke.cont6:                                     ; preds = %invoke.cont
  store i1 false, i1* %cleanup.isactive, align 1, !dbg !1490
  invoke void @__cxa_throw(i8* %exception, i8* bitcast (i8** @_ZTIN11xercesc_2_716DOM_DOMExceptionE to i8*), i8* bitcast (void (%"class.xercesc_2_7::DOM_DOMException"*)* @_ZN11xercesc_2_716DOM_DOMExceptionD1Ev to i8*)) #10
          to label %unreachable unwind label %lpad5, !dbg !1490

lpad:                                             ; preds = %if.then4
  %5 = landingpad { i8*, i32 }
          cleanup, !dbg !1494
  %6 = extractvalue { i8*, i32 } %5, 0, !dbg !1494
  store i8* %6, i8** %exn.slot, align 8, !dbg !1494
  %7 = extractvalue { i8*, i32 } %5, 1, !dbg !1494
  store i32 %7, i32* %ehselector.slot, align 4, !dbg !1494
  br label %ehcleanup, !dbg !1494

lpad5:                                            ; preds = %invoke.cont6, %invoke.cont
  %8 = landingpad { i8*, i32 }
          cleanup, !dbg !1494
  %9 = extractvalue { i8*, i32 } %8, 0, !dbg !1494
  store i8* %9, i8** %exn.slot, align 8, !dbg !1494
  %10 = extractvalue { i8*, i32 } %8, 1, !dbg !1494
  store i32 %10, i32* %ehselector.slot, align 4, !dbg !1494
  call void @_ZN11xercesc_2_79DOMStringD1Ev(%"class.xercesc_2_7::DOMString"* %ref.tmp) #7, !dbg !1490
  br label %ehcleanup, !dbg !1490

ehcleanup:                                        ; preds = %lpad5, %lpad
  %cleanup.is_active = load i1, i1* %cleanup.isactive, align 1, !dbg !1490
  br i1 %cleanup.is_active, label %cleanup.action, label %cleanup.done, !dbg !1490

cleanup.action:                                   ; preds = %ehcleanup
  call void @__cxa_free_exception(i8* %exception) #7, !dbg !1490
  br label %cleanup.done, !dbg !1490

cleanup.done:                                     ; preds = %cleanup.action, %ehcleanup
  br label %eh.resume, !dbg !1490

if.end:                                           ; preds = %if.then
  %11 = load %"class.xercesc_2_7::AttrImpl"*, %"class.xercesc_2_7::AttrImpl"** %newAttr.addr, align 8, !dbg !1495
  %12 = bitcast %"class.xercesc_2_7::AttrImpl"* %11 to %"class.xercesc_2_7::NodeImpl"*, !dbg !1497
  %13 = bitcast %"class.xercesc_2_7::NodeImpl"* %12 to %"class.xercesc_2_7::DocumentImpl"* (%"class.xercesc_2_7::NodeImpl"*)***, !dbg !1497
  %vtable7 = load %"class.xercesc_2_7::DocumentImpl"* (%"class.xercesc_2_7::NodeImpl"*)**, %"class.xercesc_2_7::DocumentImpl"* (%"class.xercesc_2_7::NodeImpl"*)*** %13, align 8, !dbg !1497
  %vfn8 = getelementptr inbounds %"class.xercesc_2_7::DocumentImpl"* (%"class.xercesc_2_7::NodeImpl"*)*, %"class.xercesc_2_7::DocumentImpl"* (%"class.xercesc_2_7::NodeImpl"*)** %vtable7, i64 26, !dbg !1497
  %14 = load %"class.xercesc_2_7::DocumentImpl"* (%"class.xercesc_2_7::NodeImpl"*)*, %"class.xercesc_2_7::DocumentImpl"* (%"class.xercesc_2_7::NodeImpl"*)** %vfn8, align 8, !dbg !1497
  %call9 = call %"class.xercesc_2_7::DocumentImpl"* %14(%"class.xercesc_2_7::NodeImpl"* %12), !dbg !1497
  %15 = bitcast %"class.xercesc_2_7::ElementImpl"* %this1 to %"class.xercesc_2_7::ParentNode"*, !dbg !1498
  %16 = bitcast %"class.xercesc_2_7::ParentNode"* %15 to %"class.xercesc_2_7::DocumentImpl"* (%"class.xercesc_2_7::ParentNode"*)***, !dbg !1498
  %vtable10 = load %"class.xercesc_2_7::DocumentImpl"* (%"class.xercesc_2_7::ParentNode"*)**, %"class.xercesc_2_7::DocumentImpl"* (%"class.xercesc_2_7::ParentNode"*)*** %16, align 8, !dbg !1498
  %vfn11 = getelementptr inbounds %"class.xercesc_2_7::DocumentImpl"* (%"class.xercesc_2_7::ParentNode"*)*, %"class.xercesc_2_7::DocumentImpl"* (%"class.xercesc_2_7::ParentNode"*)** %vtable10, i64 26, !dbg !1498
  %17 = load %"class.xercesc_2_7::DocumentImpl"* (%"class.xercesc_2_7::ParentNode"*)*, %"class.xercesc_2_7::DocumentImpl"* (%"class.xercesc_2_7::ParentNode"*)** %vfn11, align 8, !dbg !1498
  %call12 = call %"class.xercesc_2_7::DocumentImpl"* %17(%"class.xercesc_2_7::ParentNode"* %15), !dbg !1498
  %cmp = icmp ne %"class.xercesc_2_7::DocumentImpl"* %call9, %call12, !dbg !1499
  br i1 %cmp, label %if.then13, label %if.end26, !dbg !1500

if.then13:                                        ; preds = %if.end
  %exception14 = call i8* @__cxa_allocate_exception(i64 24) #7, !dbg !1501
  store i1 true, i1* %cleanup.isactive20, align 1
  %18 = bitcast i8* %exception14 to %"class.xercesc_2_7::DOM_DOMException"*, !dbg !1501
  invoke void @_ZN11xercesc_2_79DOMStringC1Ei(%"class.xercesc_2_7::DOMString"* %ref.tmp15, i32 0)
          to label %invoke.cont17 unwind label %lpad16, !dbg !1503

invoke.cont17:                                    ; preds = %if.then13
  invoke void @_ZN11xercesc_2_716DOM_DOMExceptionC1EsRKNS_9DOMStringE(%"class.xercesc_2_7::DOM_DOMException"* %18, i16 signext 4, %"class.xercesc_2_7::DOMString"* dereferenceable(8) %ref.tmp15)
          to label %invoke.cont19 unwind label %lpad18, !dbg !1504

invoke.cont19:                                    ; preds = %invoke.cont17
  store i1 false, i1* %cleanup.isactive20, align 1, !dbg !1501
  invoke void @__cxa_throw(i8* %exception14, i8* bitcast (i8** @_ZTIN11xercesc_2_716DOM_DOMExceptionE to i8*), i8* bitcast (void (%"class.xercesc_2_7::DOM_DOMException"*)* @_ZN11xercesc_2_716DOM_DOMExceptionD1Ev to i8*)) #10
          to label %unreachable unwind label %lpad18, !dbg !1501

lpad16:                                           ; preds = %if.then13
  %19 = landingpad { i8*, i32 }
          cleanup, !dbg !1505
  %20 = extractvalue { i8*, i32 } %19, 0, !dbg !1505
  store i8* %20, i8** %exn.slot, align 8, !dbg !1505
  %21 = extractvalue { i8*, i32 } %19, 1, !dbg !1505
  store i32 %21, i32* %ehselector.slot, align 4, !dbg !1505
  br label %ehcleanup22, !dbg !1505

lpad18:                                           ; preds = %invoke.cont19, %invoke.cont17
  %22 = landingpad { i8*, i32 }
          cleanup, !dbg !1505
  %23 = extractvalue { i8*, i32 } %22, 0, !dbg !1505
  store i8* %23, i8** %exn.slot, align 8, !dbg !1505
  %24 = extractvalue { i8*, i32 } %22, 1, !dbg !1505
  store i32 %24, i32* %ehselector.slot, align 4, !dbg !1505
  call void @_ZN11xercesc_2_79DOMStringD1Ev(%"class.xercesc_2_7::DOMString"* %ref.tmp15) #7, !dbg !1501
  br label %ehcleanup22, !dbg !1501

ehcleanup22:                                      ; preds = %lpad18, %lpad16
  %cleanup.is_active23 = load i1, i1* %cleanup.isactive20, align 1, !dbg !1501
  br i1 %cleanup.is_active23, label %cleanup.action24, label %cleanup.done25, !dbg !1501

cleanup.action24:                                 ; preds = %ehcleanup22
  call void @__cxa_free_exception(i8* %exception14) #7, !dbg !1501
  br label %cleanup.done25, !dbg !1501

cleanup.done25:                                   ; preds = %cleanup.action24, %ehcleanup22
  br label %eh.resume, !dbg !1501

if.end26:                                         ; preds = %if.end
  br label %if.end27, !dbg !1506

if.end27:                                         ; preds = %if.end26, %entry
  %attributes = getelementptr inbounds %"class.xercesc_2_7::ElementImpl", %"class.xercesc_2_7::ElementImpl"* %this1, i32 0, i32 2, !dbg !1507
  %25 = load %"class.xercesc_2_7::AttrMapImpl"*, %"class.xercesc_2_7::AttrMapImpl"** %attributes, align 8, !dbg !1507
  %cmp28 = icmp eq %"class.xercesc_2_7::AttrMapImpl"* %25, null, !dbg !1509
  br i1 %cmp28, label %if.then29, label %if.end39, !dbg !1510

if.then29:                                        ; preds = %if.end27
  %26 = bitcast %"class.xercesc_2_7::ElementImpl"* %this1 to %"class.xercesc_2_7::ParentNode"*, !dbg !1511
  %27 = bitcast %"class.xercesc_2_7::ParentNode"* %26 to %"class.xercesc_2_7::DocumentImpl"* (%"class.xercesc_2_7::ParentNode"*)***, !dbg !1511
  %vtable30 = load %"class.xercesc_2_7::DocumentImpl"* (%"class.xercesc_2_7::ParentNode"*)**, %"class.xercesc_2_7::DocumentImpl"* (%"class.xercesc_2_7::ParentNode"*)*** %27, align 8, !dbg !1511
  %vfn31 = getelementptr inbounds %"class.xercesc_2_7::DocumentImpl"* (%"class.xercesc_2_7::ParentNode"*)*, %"class.xercesc_2_7::DocumentImpl"* (%"class.xercesc_2_7::ParentNode"*)** %vtable30, i64 26, !dbg !1511
  %28 = load %"class.xercesc_2_7::DocumentImpl"* (%"class.xercesc_2_7::ParentNode"*)*, %"class.xercesc_2_7::DocumentImpl"* (%"class.xercesc_2_7::ParentNode"*)** %vfn31, align 8, !dbg !1511
  %call32 = call %"class.xercesc_2_7::DocumentImpl"* %28(%"class.xercesc_2_7::ParentNode"* %26), !dbg !1511
  %call33 = call %"class.xercesc_2_7::MemoryManager"* @_ZNK11xercesc_2_712DocumentImpl16getMemoryManagerEv(%"class.xercesc_2_7::DocumentImpl"* %call32), !dbg !1513
  %call34 = call i8* @_ZN11xercesc_2_77XMemorynwEmPNS_13MemoryManagerE(i64 40, %"class.xercesc_2_7::MemoryManager"* %call33), !dbg !1514
  %29 = bitcast i8* %call34 to %"class.xercesc_2_7::AttrMapImpl"*, !dbg !1514
  %30 = bitcast %"class.xercesc_2_7::ElementImpl"* %this1 to %"class.xercesc_2_7::NodeImpl"*, !dbg !1515
  invoke void @_ZN11xercesc_2_711AttrMapImplC1EPNS_8NodeImplEPNS_16NamedNodeMapImplE(%"class.xercesc_2_7::AttrMapImpl"* %29, %"class.xercesc_2_7::NodeImpl"* %30, %"class.xercesc_2_7::NamedNodeMapImpl"* null)
          to label %invoke.cont36 unwind label %lpad35, !dbg !1516

invoke.cont36:                                    ; preds = %if.then29
  %attributes38 = getelementptr inbounds %"class.xercesc_2_7::ElementImpl", %"class.xercesc_2_7::ElementImpl"* %this1, i32 0, i32 2, !dbg !1517
  store %"class.xercesc_2_7::AttrMapImpl"* %29, %"class.xercesc_2_7::AttrMapImpl"** %attributes38, align 8, !dbg !1518
  br label %if.end39, !dbg !1519

lpad35:                                           ; preds = %if.then29
  %31 = landingpad { i8*, i32 }
          cleanup, !dbg !1520
  %32 = extractvalue { i8*, i32 } %31, 0, !dbg !1520
  store i8* %32, i8** %exn.slot, align 8, !dbg !1520
  %33 = extractvalue { i8*, i32 } %31, 1, !dbg !1520
  store i32 %33, i32* %ehselector.slot, align 4, !dbg !1520
  call void @_ZN11xercesc_2_77XMemorydlEPvPNS_13MemoryManagerE(i8* %call34, %"class.xercesc_2_7::MemoryManager"* %call33) #7, !dbg !1514
  br label %eh.resume, !dbg !1514

if.end39:                                         ; preds = %invoke.cont36, %if.end27
  call void @llvm.dbg.declare(metadata %"class.xercesc_2_7::AttrImpl"** %oldAttr, metadata !1521, metadata !DIExpression()), !dbg !1522
  %attributes40 = getelementptr inbounds %"class.xercesc_2_7::ElementImpl", %"class.xercesc_2_7::ElementImpl"* %this1, i32 0, i32 2, !dbg !1523
  %34 = load %"class.xercesc_2_7::AttrMapImpl"*, %"class.xercesc_2_7::AttrMapImpl"** %attributes40, align 8, !dbg !1523
  %35 = bitcast %"class.xercesc_2_7::AttrMapImpl"* %34 to %"class.xercesc_2_7::NamedNodeMapImpl"*, !dbg !1524
  %36 = load %"class.xercesc_2_7::AttrImpl"*, %"class.xercesc_2_7::AttrImpl"** %newAttr.addr, align 8, !dbg !1525
  %37 = bitcast %"class.xercesc_2_7::AttrImpl"* %36 to %"class.xercesc_2_7::NodeImpl"*, !dbg !1526
  %38 = bitcast %"class.xercesc_2_7::NodeImpl"* %37 to void (%"class.xercesc_2_7::DOMString"*, %"class.xercesc_2_7::NodeImpl"*)***, !dbg !1526
  %vtable42 = load void (%"class.xercesc_2_7::DOMString"*, %"class.xercesc_2_7::NodeImpl"*)**, void (%"class.xercesc_2_7::DOMString"*, %"class.xercesc_2_7::NodeImpl"*)*** %38, align 8, !dbg !1526
  %vfn43 = getelementptr inbounds void (%"class.xercesc_2_7::DOMString"*, %"class.xercesc_2_7::NodeImpl"*)*, void (%"class.xercesc_2_7::DOMString"*, %"class.xercesc_2_7::NodeImpl"*)** %vtable42, i64 40, !dbg !1526
  %39 = load void (%"class.xercesc_2_7::DOMString"*, %"class.xercesc_2_7::NodeImpl"*)*, void (%"class.xercesc_2_7::DOMString"*, %"class.xercesc_2_7::NodeImpl"*)** %vfn43, align 8, !dbg !1526
  call void %39(%"class.xercesc_2_7::DOMString"* sret %ref.tmp41, %"class.xercesc_2_7::NodeImpl"* %37), !dbg !1526
  %40 = load %"class.xercesc_2_7::AttrImpl"*, %"class.xercesc_2_7::AttrImpl"** %newAttr.addr, align 8, !dbg !1527
  %41 = bitcast %"class.xercesc_2_7::AttrImpl"* %40 to %"class.xercesc_2_7::NodeImpl"*, !dbg !1528
  %42 = bitcast %"class.xercesc_2_7::NodeImpl"* %41 to void (%"class.xercesc_2_7::DOMString"*, %"class.xercesc_2_7::NodeImpl"*)***, !dbg !1528
  %vtable45 = load void (%"class.xercesc_2_7::DOMString"*, %"class.xercesc_2_7::NodeImpl"*)**, void (%"class.xercesc_2_7::DOMString"*, %"class.xercesc_2_7::NodeImpl"*)*** %42, align 8, !dbg !1528
  %vfn46 = getelementptr inbounds void (%"class.xercesc_2_7::DOMString"*, %"class.xercesc_2_7::NodeImpl"*)*, void (%"class.xercesc_2_7::DOMString"*, %"class.xercesc_2_7::NodeImpl"*)** %vtable45, i64 42, !dbg !1528
  %43 = load void (%"class.xercesc_2_7::DOMString"*, %"class.xercesc_2_7::NodeImpl"*)*, void (%"class.xercesc_2_7::DOMString"*, %"class.xercesc_2_7::NodeImpl"*)** %vfn46, align 8, !dbg !1528
  invoke void %43(%"class.xercesc_2_7::DOMString"* sret %ref.tmp44, %"class.xercesc_2_7::NodeImpl"* %41)
          to label %invoke.cont48 unwind label %lpad47, !dbg !1528

invoke.cont48:                                    ; preds = %if.end39
  %44 = bitcast %"class.xercesc_2_7::NamedNodeMapImpl"* %35 to %"class.xercesc_2_7::NodeImpl"* (%"class.xercesc_2_7::NamedNodeMapImpl"*, %"class.xercesc_2_7::DOMString"*, %"class.xercesc_2_7::DOMString"*)***, !dbg !1524
  %vtable49 = load %"class.xercesc_2_7::NodeImpl"* (%"class.xercesc_2_7::NamedNodeMapImpl"*, %"class.xercesc_2_7::DOMString"*, %"class.xercesc_2_7::DOMString"*)**, %"class.xercesc_2_7::NodeImpl"* (%"class.xercesc_2_7::NamedNodeMapImpl"*, %"class.xercesc_2_7::DOMString"*, %"class.xercesc_2_7::DOMString"*)*** %44, align 8, !dbg !1524
  %vfn50 = getelementptr inbounds %"class.xercesc_2_7::NodeImpl"* (%"class.xercesc_2_7::NamedNodeMapImpl"*, %"class.xercesc_2_7::DOMString"*, %"class.xercesc_2_7::DOMString"*)*, %"class.xercesc_2_7::NodeImpl"* (%"class.xercesc_2_7::NamedNodeMapImpl"*, %"class.xercesc_2_7::DOMString"*, %"class.xercesc_2_7::DOMString"*)** %vtable49, i64 13, !dbg !1524
  %45 = load %"class.xercesc_2_7::NodeImpl"* (%"class.xercesc_2_7::NamedNodeMapImpl"*, %"class.xercesc_2_7::DOMString"*, %"class.xercesc_2_7::DOMString"*)*, %"class.xercesc_2_7::NodeImpl"* (%"class.xercesc_2_7::NamedNodeMapImpl"*, %"class.xercesc_2_7::DOMString"*, %"class.xercesc_2_7::DOMString"*)** %vfn50, align 8, !dbg !1524
  %call53 = invoke %"class.xercesc_2_7::NodeImpl"* %45(%"class.xercesc_2_7::NamedNodeMapImpl"* %35, %"class.xercesc_2_7::DOMString"* dereferenceable(8) %ref.tmp41, %"class.xercesc_2_7::DOMString"* dereferenceable(8) %ref.tmp44)
          to label %invoke.cont52 unwind label %lpad51, !dbg !1524

invoke.cont52:                                    ; preds = %invoke.cont48
  %46 = bitcast %"class.xercesc_2_7::NodeImpl"* %call53 to %"class.xercesc_2_7::AttrImpl"*, !dbg !1529
  call void @_ZN11xercesc_2_79DOMStringD1Ev(%"class.xercesc_2_7::DOMString"* %ref.tmp44) #7, !dbg !1529
  call void @_ZN11xercesc_2_79DOMStringD1Ev(%"class.xercesc_2_7::DOMString"* %ref.tmp41) #7, !dbg !1529
  store %"class.xercesc_2_7::AttrImpl"* %46, %"class.xercesc_2_7::AttrImpl"** %oldAttr, align 8, !dbg !1522
  %attributes56 = getelementptr inbounds %"class.xercesc_2_7::ElementImpl", %"class.xercesc_2_7::ElementImpl"* %this1, i32 0, i32 2, !dbg !1530
  %47 = load %"class.xercesc_2_7::AttrMapImpl"*, %"class.xercesc_2_7::AttrMapImpl"** %attributes56, align 8, !dbg !1530
  %48 = bitcast %"class.xercesc_2_7::AttrMapImpl"* %47 to %"class.xercesc_2_7::NamedNodeMapImpl"*, !dbg !1531
  %49 = load %"class.xercesc_2_7::AttrImpl"*, %"class.xercesc_2_7::AttrImpl"** %newAttr.addr, align 8, !dbg !1532
  %50 = bitcast %"class.xercesc_2_7::AttrImpl"* %49 to %"class.xercesc_2_7::NodeImpl"*, !dbg !1532
  %51 = bitcast %"class.xercesc_2_7::NamedNodeMapImpl"* %48 to %"class.xercesc_2_7::NodeImpl"* (%"class.xercesc_2_7::NamedNodeMapImpl"*, %"class.xercesc_2_7::NodeImpl"*)***, !dbg !1531
  %vtable57 = load %"class.xercesc_2_7::NodeImpl"* (%"class.xercesc_2_7::NamedNodeMapImpl"*, %"class.xercesc_2_7::NodeImpl"*)**, %"class.xercesc_2_7::NodeImpl"* (%"class.xercesc_2_7::NamedNodeMapImpl"*, %"class.xercesc_2_7::NodeImpl"*)*** %51, align 8, !dbg !1531
  %vfn58 = getelementptr inbounds %"class.xercesc_2_7::NodeImpl"* (%"class.xercesc_2_7::NamedNodeMapImpl"*, %"class.xercesc_2_7::NodeImpl"*)*, %"class.xercesc_2_7::NodeImpl"* (%"class.xercesc_2_7::NamedNodeMapImpl"*, %"class.xercesc_2_7::NodeImpl"*)** %vtable57, i64 14, !dbg !1531
  %52 = load %"class.xercesc_2_7::NodeImpl"* (%"class.xercesc_2_7::NamedNodeMapImpl"*, %"class.xercesc_2_7::NodeImpl"*)*, %"class.xercesc_2_7::NodeImpl"* (%"class.xercesc_2_7::NamedNodeMapImpl"*, %"class.xercesc_2_7::NodeImpl"*)** %vfn58, align 8, !dbg !1531
  %call59 = call %"class.xercesc_2_7::NodeImpl"* %52(%"class.xercesc_2_7::NamedNodeMapImpl"* %48, %"class.xercesc_2_7::NodeImpl"* %50), !dbg !1531
  %53 = load %"class.xercesc_2_7::AttrImpl"*, %"class.xercesc_2_7::AttrImpl"** %oldAttr, align 8, !dbg !1533
  ret %"class.xercesc_2_7::AttrImpl"* %53, !dbg !1534

lpad47:                                           ; preds = %if.end39
  %54 = landingpad { i8*, i32 }
          cleanup, !dbg !1535
  %55 = extractvalue { i8*, i32 } %54, 0, !dbg !1535
  store i8* %55, i8** %exn.slot, align 8, !dbg !1535
  %56 = extractvalue { i8*, i32 } %54, 1, !dbg !1535
  store i32 %56, i32* %ehselector.slot, align 4, !dbg !1535
  br label %ehcleanup55, !dbg !1535

lpad51:                                           ; preds = %invoke.cont48
  %57 = landingpad { i8*, i32 }
          cleanup, !dbg !1535
  %58 = extractvalue { i8*, i32 } %57, 0, !dbg !1535
  store i8* %58, i8** %exn.slot, align 8, !dbg !1535
  %59 = extractvalue { i8*, i32 } %57, 1, !dbg !1535
  store i32 %59, i32* %ehselector.slot, align 4, !dbg !1535
  call void @_ZN11xercesc_2_79DOMStringD1Ev(%"class.xercesc_2_7::DOMString"* %ref.tmp44) #7, !dbg !1529
  br label %ehcleanup55, !dbg !1529

ehcleanup55:                                      ; preds = %lpad51, %lpad47
  call void @_ZN11xercesc_2_79DOMStringD1Ev(%"class.xercesc_2_7::DOMString"* %ref.tmp41) #7, !dbg !1529
  br label %eh.resume, !dbg !1529

eh.resume:                                        ; preds = %ehcleanup55, %lpad35, %cleanup.done25, %cleanup.done
  %exn = load i8*, i8** %exn.slot, align 8, !dbg !1490
  %sel = load i32, i32* %ehselector.slot, align 4, !dbg !1490
  %lpad.val = insertvalue { i8*, i32 } undef, i8* %exn, 0, !dbg !1490
  %lpad.val60 = insertvalue { i8*, i32 } %lpad.val, i32 %sel, 1, !dbg !1490
  resume { i8*, i32 } %lpad.val60, !dbg !1490

unreachable:                                      ; preds = %invoke.cont19, %invoke.cont6
  unreachable
}

; Function Attrs: noinline uwtable
define dso_local %"class.xercesc_2_7::DeepNodeListImpl"* @_ZN11xercesc_2_711ElementImpl22getElementsByTagNameNSERKNS_9DOMStringES3_(%"class.xercesc_2_7::ElementImpl"* %this, %"class.xercesc_2_7::DOMString"* dereferenceable(8) %fNamespaceURI, %"class.xercesc_2_7::DOMString"* dereferenceable(8) %fLocalName) unnamed_addr #3 align 2 personality i8* bitcast (i32 (...)* @__gxx_personality_v0 to i8*) !dbg !1536 {
entry:
  %this.addr = alloca %"class.xercesc_2_7::ElementImpl"*, align 8
  %fNamespaceURI.addr = alloca %"class.xercesc_2_7::DOMString"*, align 8
  %fLocalName.addr = alloca %"class.xercesc_2_7::DOMString"*, align 8
  %exn.slot = alloca i8*
  %ehselector.slot = alloca i32
  store %"class.xercesc_2_7::ElementImpl"* %this, %"class.xercesc_2_7::ElementImpl"** %this.addr, align 8
  call void @llvm.dbg.declare(metadata %"class.xercesc_2_7::ElementImpl"** %this.addr, metadata !1537, metadata !DIExpression()), !dbg !1538
  store %"class.xercesc_2_7::DOMString"* %fNamespaceURI, %"class.xercesc_2_7::DOMString"** %fNamespaceURI.addr, align 8
  call void @llvm.dbg.declare(metadata %"class.xercesc_2_7::DOMString"** %fNamespaceURI.addr, metadata !1539, metadata !DIExpression()), !dbg !1540
  store %"class.xercesc_2_7::DOMString"* %fLocalName, %"class.xercesc_2_7::DOMString"** %fLocalName.addr, align 8
  call void @llvm.dbg.declare(metadata %"class.xercesc_2_7::DOMString"** %fLocalName.addr, metadata !1541, metadata !DIExpression()), !dbg !1542
  %this1 = load %"class.xercesc_2_7::ElementImpl"*, %"class.xercesc_2_7::ElementImpl"** %this.addr, align 8
  %0 = bitcast %"class.xercesc_2_7::ElementImpl"* %this1 to %"class.xercesc_2_7::ParentNode"*, !dbg !1543
  %1 = bitcast %"class.xercesc_2_7::ParentNode"* %0 to %"class.xercesc_2_7::DocumentImpl"* (%"class.xercesc_2_7::ParentNode"*)***, !dbg !1543
  %vtable = load %"class.xercesc_2_7::DocumentImpl"* (%"class.xercesc_2_7::ParentNode"*)**, %"class.xercesc_2_7::DocumentImpl"* (%"class.xercesc_2_7::ParentNode"*)*** %1, align 8, !dbg !1543
  %vfn = getelementptr inbounds %"class.xercesc_2_7::DocumentImpl"* (%"class.xercesc_2_7::ParentNode"*)*, %"class.xercesc_2_7::DocumentImpl"* (%"class.xercesc_2_7::ParentNode"*)** %vtable, i64 26, !dbg !1543
  %2 = load %"class.xercesc_2_7::DocumentImpl"* (%"class.xercesc_2_7::ParentNode"*)*, %"class.xercesc_2_7::DocumentImpl"* (%"class.xercesc_2_7::ParentNode"*)** %vfn, align 8, !dbg !1543
  %call = call %"class.xercesc_2_7::DocumentImpl"* %2(%"class.xercesc_2_7::ParentNode"* %0), !dbg !1543
  %call2 = call %"class.xercesc_2_7::MemoryManager"* @_ZNK11xercesc_2_712DocumentImpl16getMemoryManagerEv(%"class.xercesc_2_7::DocumentImpl"* %call), !dbg !1544
  %call3 = call i8* @_ZN11xercesc_2_77XMemorynwEmPNS_13MemoryManagerE(i64 64, %"class.xercesc_2_7::MemoryManager"* %call2), !dbg !1545
  %3 = bitcast i8* %call3 to %"class.xercesc_2_7::DeepNodeListImpl"*, !dbg !1545
  %4 = bitcast %"class.xercesc_2_7::ElementImpl"* %this1 to %"class.xercesc_2_7::NodeImpl"*, !dbg !1546
  %5 = load %"class.xercesc_2_7::DOMString"*, %"class.xercesc_2_7::DOMString"** %fNamespaceURI.addr, align 8, !dbg !1547
  %6 = load %"class.xercesc_2_7::DOMString"*, %"class.xercesc_2_7::DOMString"** %fLocalName.addr, align 8, !dbg !1548
  invoke void @_ZN11xercesc_2_716DeepNodeListImplC1EPNS_8NodeImplERKNS_9DOMStringES5_(%"class.xercesc_2_7::DeepNodeListImpl"* %3, %"class.xercesc_2_7::NodeImpl"* %4, %"class.xercesc_2_7::DOMString"* dereferenceable(8) %5, %"class.xercesc_2_7::DOMString"* dereferenceable(8) %6)
          to label %invoke.cont unwind label %lpad, !dbg !1549

invoke.cont:                                      ; preds = %entry
  ret %"class.xercesc_2_7::DeepNodeListImpl"* %3, !dbg !1550

lpad:                                             ; preds = %entry
  %7 = landingpad { i8*, i32 }
          cleanup, !dbg !1551
  %8 = extractvalue { i8*, i32 } %7, 0, !dbg !1551
  store i8* %8, i8** %exn.slot, align 8, !dbg !1551
  %9 = extractvalue { i8*, i32 } %7, 1, !dbg !1551
  store i32 %9, i32* %ehselector.slot, align 4, !dbg !1551
  call void @_ZN11xercesc_2_77XMemorydlEPvPNS_13MemoryManagerE(i8* %call3, %"class.xercesc_2_7::MemoryManager"* %call2) #7, !dbg !1545
  br label %eh.resume, !dbg !1545

eh.resume:                                        ; preds = %lpad
  %exn = load i8*, i8** %exn.slot, align 8, !dbg !1545
  %sel = load i32, i32* %ehselector.slot, align 4, !dbg !1545
  %lpad.val = insertvalue { i8*, i32 } undef, i8* %exn, 0, !dbg !1545
  %lpad.val4 = insertvalue { i8*, i32 } %lpad.val, i32 %sel, 1, !dbg !1545
  resume { i8*, i32 } %lpad.val4, !dbg !1545
}

declare dso_local void @_ZN11xercesc_2_716DeepNodeListImplC1EPNS_8NodeImplERKNS_9DOMStringES5_(%"class.xercesc_2_7::DeepNodeListImpl"*, %"class.xercesc_2_7::NodeImpl"*, %"class.xercesc_2_7::DOMString"* dereferenceable(8), %"class.xercesc_2_7::DOMString"* dereferenceable(8)) unnamed_addr #4

; Function Attrs: noinline uwtable
define dso_local zeroext i1 @_ZN11xercesc_2_711ElementImpl13hasAttributesEv(%"class.xercesc_2_7::ElementImpl"* %this) unnamed_addr #3 align 2 !dbg !1552 {
entry:
  %this.addr = alloca %"class.xercesc_2_7::ElementImpl"*, align 8
  store %"class.xercesc_2_7::ElementImpl"* %this, %"class.xercesc_2_7::ElementImpl"** %this.addr, align 8
  call void @llvm.dbg.declare(metadata %"class.xercesc_2_7::ElementImpl"** %this.addr, metadata !1553, metadata !DIExpression()), !dbg !1554
  %this1 = load %"class.xercesc_2_7::ElementImpl"*, %"class.xercesc_2_7::ElementImpl"** %this.addr, align 8
  %attributes = getelementptr inbounds %"class.xercesc_2_7::ElementImpl", %"class.xercesc_2_7::ElementImpl"* %this1, i32 0, i32 2, !dbg !1555
  %0 = load %"class.xercesc_2_7::AttrMapImpl"*, %"class.xercesc_2_7::AttrMapImpl"** %attributes, align 8, !dbg !1555
  %cmp = icmp ne %"class.xercesc_2_7::AttrMapImpl"* %0, null, !dbg !1556
  br i1 %cmp, label %land.rhs, label %land.end, !dbg !1557

land.rhs:                                         ; preds = %entry
  %attributes2 = getelementptr inbounds %"class.xercesc_2_7::ElementImpl", %"class.xercesc_2_7::ElementImpl"* %this1, i32 0, i32 2, !dbg !1558
  %1 = load %"class.xercesc_2_7::AttrMapImpl"*, %"class.xercesc_2_7::AttrMapImpl"** %attributes2, align 8, !dbg !1558
  %2 = bitcast %"class.xercesc_2_7::AttrMapImpl"* %1 to %"class.xercesc_2_7::NamedNodeMapImpl"*, !dbg !1559
  %3 = bitcast %"class.xercesc_2_7::NamedNodeMapImpl"* %2 to i32 (%"class.xercesc_2_7::NamedNodeMapImpl"*)***, !dbg !1559
  %vtable = load i32 (%"class.xercesc_2_7::NamedNodeMapImpl"*)**, i32 (%"class.xercesc_2_7::NamedNodeMapImpl"*)*** %3, align 8, !dbg !1559
  %vfn = getelementptr inbounds i32 (%"class.xercesc_2_7::NamedNodeMapImpl"*)*, i32 (%"class.xercesc_2_7::NamedNodeMapImpl"*)** %vtable, i64 5, !dbg !1559
  %4 = load i32 (%"class.xercesc_2_7::NamedNodeMapImpl"*)*, i32 (%"class.xercesc_2_7::NamedNodeMapImpl"*)** %vfn, align 8, !dbg !1559
  %call = call i32 %4(%"class.xercesc_2_7::NamedNodeMapImpl"* %2), !dbg !1559
  %cmp3 = icmp ne i32 %call, 0, !dbg !1560
  br label %land.end

land.end:                                         ; preds = %land.rhs, %entry
  %5 = phi i1 [ false, %entry ], [ %cmp3, %land.rhs ], !dbg !1554
  ret i1 %5, !dbg !1561
}

; Function Attrs: noinline uwtable
define dso_local zeroext i1 @_ZN11xercesc_2_711ElementImpl12hasAttributeERKNS_9DOMStringE(%"class.xercesc_2_7::ElementImpl"* %this, %"class.xercesc_2_7::DOMString"* dereferenceable(8) %name) unnamed_addr #3 align 2 !dbg !1562 {
entry:
  %this.addr = alloca %"class.xercesc_2_7::ElementImpl"*, align 8
  %name.addr = alloca %"class.xercesc_2_7::DOMString"*, align 8
  store %"class.xercesc_2_7::ElementImpl"* %this, %"class.xercesc_2_7::ElementImpl"** %this.addr, align 8
  call void @llvm.dbg.declare(metadata %"class.xercesc_2_7::ElementImpl"** %this.addr, metadata !1563, metadata !DIExpression()), !dbg !1564
  store %"class.xercesc_2_7::DOMString"* %name, %"class.xercesc_2_7::DOMString"** %name.addr, align 8
  call void @llvm.dbg.declare(metadata %"class.xercesc_2_7::DOMString"** %name.addr, metadata !1565, metadata !DIExpression()), !dbg !1566
  %this1 = load %"class.xercesc_2_7::ElementImpl"*, %"class.xercesc_2_7::ElementImpl"** %this.addr, align 8
  %0 = load %"class.xercesc_2_7::DOMString"*, %"class.xercesc_2_7::DOMString"** %name.addr, align 8, !dbg !1567
  %1 = bitcast %"class.xercesc_2_7::ElementImpl"* %this1 to %"class.xercesc_2_7::AttrImpl"* (%"class.xercesc_2_7::ElementImpl"*, %"class.xercesc_2_7::DOMString"*)***, !dbg !1568
  %vtable = load %"class.xercesc_2_7::AttrImpl"* (%"class.xercesc_2_7::ElementImpl"*, %"class.xercesc_2_7::DOMString"*)**, %"class.xercesc_2_7::AttrImpl"* (%"class.xercesc_2_7::ElementImpl"*, %"class.xercesc_2_7::DOMString"*)*** %1, align 8, !dbg !1568
  %vfn = getelementptr inbounds %"class.xercesc_2_7::AttrImpl"* (%"class.xercesc_2_7::ElementImpl"*, %"class.xercesc_2_7::DOMString"*)*, %"class.xercesc_2_7::AttrImpl"* (%"class.xercesc_2_7::ElementImpl"*, %"class.xercesc_2_7::DOMString"*)** %vtable, i64 48, !dbg !1568
  %2 = load %"class.xercesc_2_7::AttrImpl"* (%"class.xercesc_2_7::ElementImpl"*, %"class.xercesc_2_7::DOMString"*)*, %"class.xercesc_2_7::AttrImpl"* (%"class.xercesc_2_7::ElementImpl"*, %"class.xercesc_2_7::DOMString"*)** %vfn, align 8, !dbg !1568
  %call = call %"class.xercesc_2_7::AttrImpl"* %2(%"class.xercesc_2_7::ElementImpl"* %this1, %"class.xercesc_2_7::DOMString"* dereferenceable(8) %0), !dbg !1568
  %cmp = icmp ne %"class.xercesc_2_7::AttrImpl"* %call, null, !dbg !1569
  ret i1 %cmp, !dbg !1570
}

; Function Attrs: noinline uwtable
define dso_local zeroext i1 @_ZN11xercesc_2_711ElementImpl14hasAttributeNSERKNS_9DOMStringES3_(%"class.xercesc_2_7::ElementImpl"* %this, %"class.xercesc_2_7::DOMString"* dereferenceable(8) %namespaceURI, %"class.xercesc_2_7::DOMString"* dereferenceable(8) %localName) unnamed_addr #3 align 2 !dbg !1571 {
entry:
  %this.addr = alloca %"class.xercesc_2_7::ElementImpl"*, align 8
  %namespaceURI.addr = alloca %"class.xercesc_2_7::DOMString"*, align 8
  %localName.addr = alloca %"class.xercesc_2_7::DOMString"*, align 8
  store %"class.xercesc_2_7::ElementImpl"* %this, %"class.xercesc_2_7::ElementImpl"** %this.addr, align 8
  call void @llvm.dbg.declare(metadata %"class.xercesc_2_7::ElementImpl"** %this.addr, metadata !1572, metadata !DIExpression()), !dbg !1573
  store %"class.xercesc_2_7::DOMString"* %namespaceURI, %"class.xercesc_2_7::DOMString"** %namespaceURI.addr, align 8
  call void @llvm.dbg.declare(metadata %"class.xercesc_2_7::DOMString"** %namespaceURI.addr, metadata !1574, metadata !DIExpression()), !dbg !1575
  store %"class.xercesc_2_7::DOMString"* %localName, %"class.xercesc_2_7::DOMString"** %localName.addr, align 8
  call void @llvm.dbg.declare(metadata %"class.xercesc_2_7::DOMString"** %localName.addr, metadata !1576, metadata !DIExpression()), !dbg !1577
  %this1 = load %"class.xercesc_2_7::ElementImpl"*, %"class.xercesc_2_7::ElementImpl"** %this.addr, align 8
  %0 = load %"class.xercesc_2_7::DOMString"*, %"class.xercesc_2_7::DOMString"** %namespaceURI.addr, align 8, !dbg !1578
  %1 = load %"class.xercesc_2_7::DOMString"*, %"class.xercesc_2_7::DOMString"** %localName.addr, align 8, !dbg !1579
  %2 = bitcast %"class.xercesc_2_7::ElementImpl"* %this1 to %"class.xercesc_2_7::AttrImpl"* (%"class.xercesc_2_7::ElementImpl"*, %"class.xercesc_2_7::DOMString"*, %"class.xercesc_2_7::DOMString"*)***, !dbg !1580
  %vtable = load %"class.xercesc_2_7::AttrImpl"* (%"class.xercesc_2_7::ElementImpl"*, %"class.xercesc_2_7::DOMString"*, %"class.xercesc_2_7::DOMString"*)**, %"class.xercesc_2_7::AttrImpl"* (%"class.xercesc_2_7::ElementImpl"*, %"class.xercesc_2_7::DOMString"*, %"class.xercesc_2_7::DOMString"*)*** %2, align 8, !dbg !1580
  %vfn = getelementptr inbounds %"class.xercesc_2_7::AttrImpl"* (%"class.xercesc_2_7::ElementImpl"*, %"class.xercesc_2_7::DOMString"*, %"class.xercesc_2_7::DOMString"*)*, %"class.xercesc_2_7::AttrImpl"* (%"class.xercesc_2_7::ElementImpl"*, %"class.xercesc_2_7::DOMString"*, %"class.xercesc_2_7::DOMString"*)** %vtable, i64 58, !dbg !1580
  %3 = load %"class.xercesc_2_7::AttrImpl"* (%"class.xercesc_2_7::ElementImpl"*, %"class.xercesc_2_7::DOMString"*, %"class.xercesc_2_7::DOMString"*)*, %"class.xercesc_2_7::AttrImpl"* (%"class.xercesc_2_7::ElementImpl"*, %"class.xercesc_2_7::DOMString"*, %"class.xercesc_2_7::DOMString"*)** %vfn, align 8, !dbg !1580
  %call = call %"class.xercesc_2_7::AttrImpl"* %3(%"class.xercesc_2_7::ElementImpl"* %this1, %"class.xercesc_2_7::DOMString"* dereferenceable(8) %0, %"class.xercesc_2_7::DOMString"* dereferenceable(8) %1), !dbg !1580
  %cmp = icmp ne %"class.xercesc_2_7::AttrImpl"* %call, null, !dbg !1581
  ret i1 %cmp, !dbg !1582
}

; Function Attrs: noinline uwtable
define dso_local %"class.xercesc_2_7::NamedNodeMapImpl"* @_ZN11xercesc_2_711ElementImpl12NNM_cloneMapEPNS_8NodeImplE(%"class.xercesc_2_7::ElementImpl"* %this, %"class.xercesc_2_7::NodeImpl"* %nnm_ownerNode) unnamed_addr #3 align 2 !dbg !1583 {
entry:
  %this.addr = alloca %"class.xercesc_2_7::ElementImpl"*, align 8
  %nnm_ownerNode.addr = alloca %"class.xercesc_2_7::NodeImpl"*, align 8
  store %"class.xercesc_2_7::ElementImpl"* %this, %"class.xercesc_2_7::ElementImpl"** %this.addr, align 8
  call void @llvm.dbg.declare(metadata %"class.xercesc_2_7::ElementImpl"** %this.addr, metadata !1584, metadata !DIExpression()), !dbg !1585
  store %"class.xercesc_2_7::NodeImpl"* %nnm_ownerNode, %"class.xercesc_2_7::NodeImpl"** %nnm_ownerNode.addr, align 8
  call void @llvm.dbg.declare(metadata %"class.xercesc_2_7::NodeImpl"** %nnm_ownerNode.addr, metadata !1586, metadata !DIExpression()), !dbg !1587
  %this1 = load %"class.xercesc_2_7::ElementImpl"*, %"class.xercesc_2_7::ElementImpl"** %this.addr, align 8
  %0 = bitcast %"class.xercesc_2_7::ElementImpl"* %this1 to %"class.xercesc_2_7::NamedNodeMapImpl"* (%"class.xercesc_2_7::ElementImpl"*)***, !dbg !1588
  %vtable = load %"class.xercesc_2_7::NamedNodeMapImpl"* (%"class.xercesc_2_7::ElementImpl"*)**, %"class.xercesc_2_7::NamedNodeMapImpl"* (%"class.xercesc_2_7::ElementImpl"*)*** %0, align 8, !dbg !1588
  %vfn = getelementptr inbounds %"class.xercesc_2_7::NamedNodeMapImpl"* (%"class.xercesc_2_7::ElementImpl"*)*, %"class.xercesc_2_7::NamedNodeMapImpl"* (%"class.xercesc_2_7::ElementImpl"*)** %vtable, i64 18, !dbg !1588
  %1 = load %"class.xercesc_2_7::NamedNodeMapImpl"* (%"class.xercesc_2_7::ElementImpl"*)*, %"class.xercesc_2_7::NamedNodeMapImpl"* (%"class.xercesc_2_7::ElementImpl"*)** %vfn, align 8, !dbg !1588
  %call = call %"class.xercesc_2_7::NamedNodeMapImpl"* %1(%"class.xercesc_2_7::ElementImpl"* %this1), !dbg !1588
  %cmp = icmp eq %"class.xercesc_2_7::NamedNodeMapImpl"* %call, null, !dbg !1589
  br i1 %cmp, label %cond.true, label %cond.false, !dbg !1590

cond.true:                                        ; preds = %entry
  br label %cond.end, !dbg !1590

cond.false:                                       ; preds = %entry
  %2 = load %"class.xercesc_2_7::NodeImpl"*, %"class.xercesc_2_7::NodeImpl"** %nnm_ownerNode.addr, align 8, !dbg !1591
  %3 = bitcast %"class.xercesc_2_7::NodeImpl"* %2 to %"class.xercesc_2_7::NamedNodeMapImpl"* (%"class.xercesc_2_7::NodeImpl"*)***, !dbg !1592
  %vtable2 = load %"class.xercesc_2_7::NamedNodeMapImpl"* (%"class.xercesc_2_7::NodeImpl"*)**, %"class.xercesc_2_7::NamedNodeMapImpl"* (%"class.xercesc_2_7::NodeImpl"*)*** %3, align 8, !dbg !1592
  %vfn3 = getelementptr inbounds %"class.xercesc_2_7::NamedNodeMapImpl"* (%"class.xercesc_2_7::NodeImpl"*)*, %"class.xercesc_2_7::NamedNodeMapImpl"* (%"class.xercesc_2_7::NodeImpl"*)** %vtable2, i64 18, !dbg !1592
  %4 = load %"class.xercesc_2_7::NamedNodeMapImpl"* (%"class.xercesc_2_7::NodeImpl"*)*, %"class.xercesc_2_7::NamedNodeMapImpl"* (%"class.xercesc_2_7::NodeImpl"*)** %vfn3, align 8, !dbg !1592
  %call4 = call %"class.xercesc_2_7::NamedNodeMapImpl"* %4(%"class.xercesc_2_7::NodeImpl"* %2), !dbg !1592
  %5 = load %"class.xercesc_2_7::NodeImpl"*, %"class.xercesc_2_7::NodeImpl"** %nnm_ownerNode.addr, align 8, !dbg !1593
  %6 = bitcast %"class.xercesc_2_7::NamedNodeMapImpl"* %call4 to %"class.xercesc_2_7::NamedNodeMapImpl"* (%"class.xercesc_2_7::NamedNodeMapImpl"*, %"class.xercesc_2_7::NodeImpl"*)***, !dbg !1594
  %vtable5 = load %"class.xercesc_2_7::NamedNodeMapImpl"* (%"class.xercesc_2_7::NamedNodeMapImpl"*, %"class.xercesc_2_7::NodeImpl"*)**, %"class.xercesc_2_7::NamedNodeMapImpl"* (%"class.xercesc_2_7::NamedNodeMapImpl"*, %"class.xercesc_2_7::NodeImpl"*)*** %6, align 8, !dbg !1594
  %vfn6 = getelementptr inbounds %"class.xercesc_2_7::NamedNodeMapImpl"* (%"class.xercesc_2_7::NamedNodeMapImpl"*, %"class.xercesc_2_7::NodeImpl"*)*, %"class.xercesc_2_7::NamedNodeMapImpl"* (%"class.xercesc_2_7::NamedNodeMapImpl"*, %"class.xercesc_2_7::NodeImpl"*)** %vtable5, i64 3, !dbg !1594
  %7 = load %"class.xercesc_2_7::NamedNodeMapImpl"* (%"class.xercesc_2_7::NamedNodeMapImpl"*, %"class.xercesc_2_7::NodeImpl"*)*, %"class.xercesc_2_7::NamedNodeMapImpl"* (%"class.xercesc_2_7::NamedNodeMapImpl"*, %"class.xercesc_2_7::NodeImpl"*)** %vfn6, align 8, !dbg !1594
  %call7 = call %"class.xercesc_2_7::NamedNodeMapImpl"* %7(%"class.xercesc_2_7::NamedNodeMapImpl"* %call4, %"class.xercesc_2_7::NodeImpl"* %5), !dbg !1594
  br label %cond.end, !dbg !1590

cond.end:                                         ; preds = %cond.false, %cond.true
  %cond = phi %"class.xercesc_2_7::NamedNodeMapImpl"* [ null, %cond.true ], [ %call7, %cond.false ], !dbg !1590
  ret %"class.xercesc_2_7::NamedNodeMapImpl"* %cond, !dbg !1595
}

; Function Attrs: noinline uwtable
define dso_local i32 @_ZN11xercesc_2_711ElementImpl17NNM_findNamePointERKNS_9DOMStringE(%"class.xercesc_2_7::ElementImpl"* %this, %"class.xercesc_2_7::DOMString"* dereferenceable(8) %nnm_name) unnamed_addr #3 align 2 !dbg !1596 {
entry:
  %this.addr = alloca %"class.xercesc_2_7::ElementImpl"*, align 8
  %nnm_name.addr = alloca %"class.xercesc_2_7::DOMString"*, align 8
  store %"class.xercesc_2_7::ElementImpl"* %this, %"class.xercesc_2_7::ElementImpl"** %this.addr, align 8
  call void @llvm.dbg.declare(metadata %"class.xercesc_2_7::ElementImpl"** %this.addr, metadata !1597, metadata !DIExpression()), !dbg !1598
  store %"class.xercesc_2_7::DOMString"* %nnm_name, %"class.xercesc_2_7::DOMString"** %nnm_name.addr, align 8
  call void @llvm.dbg.declare(metadata %"class.xercesc_2_7::DOMString"** %nnm_name.addr, metadata !1599, metadata !DIExpression()), !dbg !1600
  %this1 = load %"class.xercesc_2_7::ElementImpl"*, %"class.xercesc_2_7::ElementImpl"** %this.addr, align 8
  %0 = bitcast %"class.xercesc_2_7::ElementImpl"* %this1 to %"class.xercesc_2_7::NamedNodeMapImpl"* (%"class.xercesc_2_7::ElementImpl"*)***, !dbg !1601
  %vtable = load %"class.xercesc_2_7::NamedNodeMapImpl"* (%"class.xercesc_2_7::ElementImpl"*)**, %"class.xercesc_2_7::NamedNodeMapImpl"* (%"class.xercesc_2_7::ElementImpl"*)*** %0, align 8, !dbg !1601
  %vfn = getelementptr inbounds %"class.xercesc_2_7::NamedNodeMapImpl"* (%"class.xercesc_2_7::ElementImpl"*)*, %"class.xercesc_2_7::NamedNodeMapImpl"* (%"class.xercesc_2_7::ElementImpl"*)** %vtable, i64 18, !dbg !1601
  %1 = load %"class.xercesc_2_7::NamedNodeMapImpl"* (%"class.xercesc_2_7::ElementImpl"*)*, %"class.xercesc_2_7::NamedNodeMapImpl"* (%"class.xercesc_2_7::ElementImpl"*)** %vfn, align 8, !dbg !1601
  %call = call %"class.xercesc_2_7::NamedNodeMapImpl"* %1(%"class.xercesc_2_7::ElementImpl"* %this1), !dbg !1601
  %cmp = icmp eq %"class.xercesc_2_7::NamedNodeMapImpl"* %call, null, !dbg !1602
  br i1 %cmp, label %cond.true, label %cond.false, !dbg !1603

cond.true:                                        ; preds = %entry
  br label %cond.end, !dbg !1603

cond.false:                                       ; preds = %entry
  %2 = bitcast %"class.xercesc_2_7::ElementImpl"* %this1 to %"class.xercesc_2_7::NamedNodeMapImpl"* (%"class.xercesc_2_7::ElementImpl"*)***, !dbg !1604
  %vtable2 = load %"class.xercesc_2_7::NamedNodeMapImpl"* (%"class.xercesc_2_7::ElementImpl"*)**, %"class.xercesc_2_7::NamedNodeMapImpl"* (%"class.xercesc_2_7::ElementImpl"*)*** %2, align 8, !dbg !1604
  %vfn3 = getelementptr inbounds %"class.xercesc_2_7::NamedNodeMapImpl"* (%"class.xercesc_2_7::ElementImpl"*)*, %"class.xercesc_2_7::NamedNodeMapImpl"* (%"class.xercesc_2_7::ElementImpl"*)** %vtable2, i64 18, !dbg !1604
  %3 = load %"class.xercesc_2_7::NamedNodeMapImpl"* (%"class.xercesc_2_7::ElementImpl"*)*, %"class.xercesc_2_7::NamedNodeMapImpl"* (%"class.xercesc_2_7::ElementImpl"*)** %vfn3, align 8, !dbg !1604
  %call4 = call %"class.xercesc_2_7::NamedNodeMapImpl"* %3(%"class.xercesc_2_7::ElementImpl"* %this1), !dbg !1604
  %4 = load %"class.xercesc_2_7::DOMString"*, %"class.xercesc_2_7::DOMString"** %nnm_name.addr, align 8, !dbg !1605
  %5 = bitcast %"class.xercesc_2_7::NamedNodeMapImpl"* %call4 to i32 (%"class.xercesc_2_7::NamedNodeMapImpl"*, %"class.xercesc_2_7::DOMString"*)***, !dbg !1606
  %vtable5 = load i32 (%"class.xercesc_2_7::NamedNodeMapImpl"*, %"class.xercesc_2_7::DOMString"*)**, i32 (%"class.xercesc_2_7::NamedNodeMapImpl"*, %"class.xercesc_2_7::DOMString"*)*** %5, align 8, !dbg !1606
  %vfn6 = getelementptr inbounds i32 (%"class.xercesc_2_7::NamedNodeMapImpl"*, %"class.xercesc_2_7::DOMString"*)*, i32 (%"class.xercesc_2_7::NamedNodeMapImpl"*, %"class.xercesc_2_7::DOMString"*)** %vtable5, i64 4, !dbg !1606
  %6 = load i32 (%"class.xercesc_2_7::NamedNodeMapImpl"*, %"class.xercesc_2_7::DOMString"*)*, i32 (%"class.xercesc_2_7::NamedNodeMapImpl"*, %"class.xercesc_2_7::DOMString"*)** %vfn6, align 8, !dbg !1606
  %call7 = call i32 %6(%"class.xercesc_2_7::NamedNodeMapImpl"* %call4, %"class.xercesc_2_7::DOMString"* dereferenceable(8) %4), !dbg !1606
  br label %cond.end, !dbg !1603

cond.end:                                         ; preds = %cond.false, %cond.true
  %cond = phi i32 [ -1, %cond.true ], [ %call7, %cond.false ], !dbg !1603
  ret i32 %cond, !dbg !1607
}

; Function Attrs: noinline uwtable
define dso_local i32 @_ZN11xercesc_2_711ElementImpl13NNM_getLengthEv(%"class.xercesc_2_7::ElementImpl"* %this) unnamed_addr #3 align 2 !dbg !1608 {
entry:
  %this.addr = alloca %"class.xercesc_2_7::ElementImpl"*, align 8
  store %"class.xercesc_2_7::ElementImpl"* %this, %"class.xercesc_2_7::ElementImpl"** %this.addr, align 8
  call void @llvm.dbg.declare(metadata %"class.xercesc_2_7::ElementImpl"** %this.addr, metadata !1609, metadata !DIExpression()), !dbg !1610
  %this1 = load %"class.xercesc_2_7::ElementImpl"*, %"class.xercesc_2_7::ElementImpl"** %this.addr, align 8
  %0 = bitcast %"class.xercesc_2_7::ElementImpl"* %this1 to %"class.xercesc_2_7::NamedNodeMapImpl"* (%"class.xercesc_2_7::ElementImpl"*)***, !dbg !1611
  %vtable = load %"class.xercesc_2_7::NamedNodeMapImpl"* (%"class.xercesc_2_7::ElementImpl"*)**, %"class.xercesc_2_7::NamedNodeMapImpl"* (%"class.xercesc_2_7::ElementImpl"*)*** %0, align 8, !dbg !1611
  %vfn = getelementptr inbounds %"class.xercesc_2_7::NamedNodeMapImpl"* (%"class.xercesc_2_7::ElementImpl"*)*, %"class.xercesc_2_7::NamedNodeMapImpl"* (%"class.xercesc_2_7::ElementImpl"*)** %vtable, i64 18, !dbg !1611
  %1 = load %"class.xercesc_2_7::NamedNodeMapImpl"* (%"class.xercesc_2_7::ElementImpl"*)*, %"class.xercesc_2_7::NamedNodeMapImpl"* (%"class.xercesc_2_7::ElementImpl"*)** %vfn, align 8, !dbg !1611
  %call = call %"class.xercesc_2_7::NamedNodeMapImpl"* %1(%"class.xercesc_2_7::ElementImpl"* %this1), !dbg !1611
  %cmp = icmp eq %"class.xercesc_2_7::NamedNodeMapImpl"* %call, null, !dbg !1612
  br i1 %cmp, label %cond.true, label %cond.false, !dbg !1613

cond.true:                                        ; preds = %entry
  br label %cond.end, !dbg !1613

cond.false:                                       ; preds = %entry
  %2 = bitcast %"class.xercesc_2_7::ElementImpl"* %this1 to %"class.xercesc_2_7::NamedNodeMapImpl"* (%"class.xercesc_2_7::ElementImpl"*)***, !dbg !1614
  %vtable2 = load %"class.xercesc_2_7::NamedNodeMapImpl"* (%"class.xercesc_2_7::ElementImpl"*)**, %"class.xercesc_2_7::NamedNodeMapImpl"* (%"class.xercesc_2_7::ElementImpl"*)*** %2, align 8, !dbg !1614
  %vfn3 = getelementptr inbounds %"class.xercesc_2_7::NamedNodeMapImpl"* (%"class.xercesc_2_7::ElementImpl"*)*, %"class.xercesc_2_7::NamedNodeMapImpl"* (%"class.xercesc_2_7::ElementImpl"*)** %vtable2, i64 18, !dbg !1614
  %3 = load %"class.xercesc_2_7::NamedNodeMapImpl"* (%"class.xercesc_2_7::ElementImpl"*)*, %"class.xercesc_2_7::NamedNodeMapImpl"* (%"class.xercesc_2_7::ElementImpl"*)** %vfn3, align 8, !dbg !1614
  %call4 = call %"class.xercesc_2_7::NamedNodeMapImpl"* %3(%"class.xercesc_2_7::ElementImpl"* %this1), !dbg !1614
  %4 = bitcast %"class.xercesc_2_7::NamedNodeMapImpl"* %call4 to i32 (%"class.xercesc_2_7::NamedNodeMapImpl"*)***, !dbg !1615
  %vtable5 = load i32 (%"class.xercesc_2_7::NamedNodeMapImpl"*)**, i32 (%"class.xercesc_2_7::NamedNodeMapImpl"*)*** %4, align 8, !dbg !1615
  %vfn6 = getelementptr inbounds i32 (%"class.xercesc_2_7::NamedNodeMapImpl"*)*, i32 (%"class.xercesc_2_7::NamedNodeMapImpl"*)** %vtable5, i64 5, !dbg !1615
  %5 = load i32 (%"class.xercesc_2_7::NamedNodeMapImpl"*)*, i32 (%"class.xercesc_2_7::NamedNodeMapImpl"*)** %vfn6, align 8, !dbg !1615
  %call7 = call i32 %5(%"class.xercesc_2_7::NamedNodeMapImpl"* %call4), !dbg !1615
  br label %cond.end, !dbg !1613

cond.end:                                         ; preds = %cond.false, %cond.true
  %cond = phi i32 [ 0, %cond.true ], [ %call7, %cond.false ], !dbg !1613
  ret i32 %cond, !dbg !1616
}

; Function Attrs: noinline uwtable
define dso_local %"class.xercesc_2_7::NodeImpl"* @_ZN11xercesc_2_711ElementImpl16NNM_getNamedItemERKNS_9DOMStringE(%"class.xercesc_2_7::ElementImpl"* %this, %"class.xercesc_2_7::DOMString"* dereferenceable(8) %nnm_name) unnamed_addr #3 align 2 !dbg !1617 {
entry:
  %this.addr = alloca %"class.xercesc_2_7::ElementImpl"*, align 8
  %nnm_name.addr = alloca %"class.xercesc_2_7::DOMString"*, align 8
  store %"class.xercesc_2_7::ElementImpl"* %this, %"class.xercesc_2_7::ElementImpl"** %this.addr, align 8
  call void @llvm.dbg.declare(metadata %"class.xercesc_2_7::ElementImpl"** %this.addr, metadata !1618, metadata !DIExpression()), !dbg !1619
  store %"class.xercesc_2_7::DOMString"* %nnm_name, %"class.xercesc_2_7::DOMString"** %nnm_name.addr, align 8
  call void @llvm.dbg.declare(metadata %"class.xercesc_2_7::DOMString"** %nnm_name.addr, metadata !1620, metadata !DIExpression()), !dbg !1621
  %this1 = load %"class.xercesc_2_7::ElementImpl"*, %"class.xercesc_2_7::ElementImpl"** %this.addr, align 8
  %0 = bitcast %"class.xercesc_2_7::ElementImpl"* %this1 to %"class.xercesc_2_7::NamedNodeMapImpl"* (%"class.xercesc_2_7::ElementImpl"*)***, !dbg !1622
  %vtable = load %"class.xercesc_2_7::NamedNodeMapImpl"* (%"class.xercesc_2_7::ElementImpl"*)**, %"class.xercesc_2_7::NamedNodeMapImpl"* (%"class.xercesc_2_7::ElementImpl"*)*** %0, align 8, !dbg !1622
  %vfn = getelementptr inbounds %"class.xercesc_2_7::NamedNodeMapImpl"* (%"class.xercesc_2_7::ElementImpl"*)*, %"class.xercesc_2_7::NamedNodeMapImpl"* (%"class.xercesc_2_7::ElementImpl"*)** %vtable, i64 18, !dbg !1622
  %1 = load %"class.xercesc_2_7::NamedNodeMapImpl"* (%"class.xercesc_2_7::ElementImpl"*)*, %"class.xercesc_2_7::NamedNodeMapImpl"* (%"class.xercesc_2_7::ElementImpl"*)** %vfn, align 8, !dbg !1622
  %call = call %"class.xercesc_2_7::NamedNodeMapImpl"* %1(%"class.xercesc_2_7::ElementImpl"* %this1), !dbg !1622
  %cmp = icmp eq %"class.xercesc_2_7::NamedNodeMapImpl"* %call, null, !dbg !1623
  br i1 %cmp, label %cond.true, label %cond.false, !dbg !1624

cond.true:                                        ; preds = %entry
  br label %cond.end, !dbg !1624

cond.false:                                       ; preds = %entry
  %2 = bitcast %"class.xercesc_2_7::ElementImpl"* %this1 to %"class.xercesc_2_7::NamedNodeMapImpl"* (%"class.xercesc_2_7::ElementImpl"*)***, !dbg !1625
  %vtable2 = load %"class.xercesc_2_7::NamedNodeMapImpl"* (%"class.xercesc_2_7::ElementImpl"*)**, %"class.xercesc_2_7::NamedNodeMapImpl"* (%"class.xercesc_2_7::ElementImpl"*)*** %2, align 8, !dbg !1625
  %vfn3 = getelementptr inbounds %"class.xercesc_2_7::NamedNodeMapImpl"* (%"class.xercesc_2_7::ElementImpl"*)*, %"class.xercesc_2_7::NamedNodeMapImpl"* (%"class.xercesc_2_7::ElementImpl"*)** %vtable2, i64 18, !dbg !1625
  %3 = load %"class.xercesc_2_7::NamedNodeMapImpl"* (%"class.xercesc_2_7::ElementImpl"*)*, %"class.xercesc_2_7::NamedNodeMapImpl"* (%"class.xercesc_2_7::ElementImpl"*)** %vfn3, align 8, !dbg !1625
  %call4 = call %"class.xercesc_2_7::NamedNodeMapImpl"* %3(%"class.xercesc_2_7::ElementImpl"* %this1), !dbg !1625
  %4 = load %"class.xercesc_2_7::DOMString"*, %"class.xercesc_2_7::DOMString"** %nnm_name.addr, align 8, !dbg !1626
  %5 = bitcast %"class.xercesc_2_7::NamedNodeMapImpl"* %call4 to %"class.xercesc_2_7::NodeImpl"* (%"class.xercesc_2_7::NamedNodeMapImpl"*, %"class.xercesc_2_7::DOMString"*)***, !dbg !1627
  %vtable5 = load %"class.xercesc_2_7::NodeImpl"* (%"class.xercesc_2_7::NamedNodeMapImpl"*, %"class.xercesc_2_7::DOMString"*)**, %"class.xercesc_2_7::NodeImpl"* (%"class.xercesc_2_7::NamedNodeMapImpl"*, %"class.xercesc_2_7::DOMString"*)*** %5, align 8, !dbg !1627
  %vfn6 = getelementptr inbounds %"class.xercesc_2_7::NodeImpl"* (%"class.xercesc_2_7::NamedNodeMapImpl"*, %"class.xercesc_2_7::DOMString"*)*, %"class.xercesc_2_7::NodeImpl"* (%"class.xercesc_2_7::NamedNodeMapImpl"*, %"class.xercesc_2_7::DOMString"*)** %vtable5, i64 6, !dbg !1627
  %6 = load %"class.xercesc_2_7::NodeImpl"* (%"class.xercesc_2_7::NamedNodeMapImpl"*, %"class.xercesc_2_7::DOMString"*)*, %"class.xercesc_2_7::NodeImpl"* (%"class.xercesc_2_7::NamedNodeMapImpl"*, %"class.xercesc_2_7::DOMString"*)** %vfn6, align 8, !dbg !1627
  %call7 = call %"class.xercesc_2_7::NodeImpl"* %6(%"class.xercesc_2_7::NamedNodeMapImpl"* %call4, %"class.xercesc_2_7::DOMString"* dereferenceable(8) %4), !dbg !1627
  br label %cond.end, !dbg !1624

cond.end:                                         ; preds = %cond.false, %cond.true
  %cond = phi %"class.xercesc_2_7::NodeImpl"* [ null, %cond.true ], [ %call7, %cond.false ], !dbg !1624
  ret %"class.xercesc_2_7::NodeImpl"* %cond, !dbg !1628
}

; Function Attrs: noinline uwtable
define dso_local %"class.xercesc_2_7::NodeImpl"* @_ZN11xercesc_2_711ElementImpl8NNM_itemEj(%"class.xercesc_2_7::ElementImpl"* %this, i32 %nnm_index) unnamed_addr #3 align 2 !dbg !1629 {
entry:
  %this.addr = alloca %"class.xercesc_2_7::ElementImpl"*, align 8
  %nnm_index.addr = alloca i32, align 4
  store %"class.xercesc_2_7::ElementImpl"* %this, %"class.xercesc_2_7::ElementImpl"** %this.addr, align 8
  call void @llvm.dbg.declare(metadata %"class.xercesc_2_7::ElementImpl"** %this.addr, metadata !1630, metadata !DIExpression()), !dbg !1631
  store i32 %nnm_index, i32* %nnm_index.addr, align 4
  call void @llvm.dbg.declare(metadata i32* %nnm_index.addr, metadata !1632, metadata !DIExpression()), !dbg !1633
  %this1 = load %"class.xercesc_2_7::ElementImpl"*, %"class.xercesc_2_7::ElementImpl"** %this.addr, align 8
  %0 = bitcast %"class.xercesc_2_7::ElementImpl"* %this1 to %"class.xercesc_2_7::NamedNodeMapImpl"* (%"class.xercesc_2_7::ElementImpl"*)***, !dbg !1634
  %vtable = load %"class.xercesc_2_7::NamedNodeMapImpl"* (%"class.xercesc_2_7::ElementImpl"*)**, %"class.xercesc_2_7::NamedNodeMapImpl"* (%"class.xercesc_2_7::ElementImpl"*)*** %0, align 8, !dbg !1634
  %vfn = getelementptr inbounds %"class.xercesc_2_7::NamedNodeMapImpl"* (%"class.xercesc_2_7::ElementImpl"*)*, %"class.xercesc_2_7::NamedNodeMapImpl"* (%"class.xercesc_2_7::ElementImpl"*)** %vtable, i64 18, !dbg !1634
  %1 = load %"class.xercesc_2_7::NamedNodeMapImpl"* (%"class.xercesc_2_7::ElementImpl"*)*, %"class.xercesc_2_7::NamedNodeMapImpl"* (%"class.xercesc_2_7::ElementImpl"*)** %vfn, align 8, !dbg !1634
  %call = call %"class.xercesc_2_7::NamedNodeMapImpl"* %1(%"class.xercesc_2_7::ElementImpl"* %this1), !dbg !1634
  %cmp = icmp eq %"class.xercesc_2_7::NamedNodeMapImpl"* %call, null, !dbg !1635
  br i1 %cmp, label %cond.true, label %cond.false, !dbg !1636

cond.true:                                        ; preds = %entry
  br label %cond.end, !dbg !1636

cond.false:                                       ; preds = %entry
  %2 = bitcast %"class.xercesc_2_7::ElementImpl"* %this1 to %"class.xercesc_2_7::NamedNodeMapImpl"* (%"class.xercesc_2_7::ElementImpl"*)***, !dbg !1637
  %vtable2 = load %"class.xercesc_2_7::NamedNodeMapImpl"* (%"class.xercesc_2_7::ElementImpl"*)**, %"class.xercesc_2_7::NamedNodeMapImpl"* (%"class.xercesc_2_7::ElementImpl"*)*** %2, align 8, !dbg !1637
  %vfn3 = getelementptr inbounds %"class.xercesc_2_7::NamedNodeMapImpl"* (%"class.xercesc_2_7::ElementImpl"*)*, %"class.xercesc_2_7::NamedNodeMapImpl"* (%"class.xercesc_2_7::ElementImpl"*)** %vtable2, i64 18, !dbg !1637
  %3 = load %"class.xercesc_2_7::NamedNodeMapImpl"* (%"class.xercesc_2_7::ElementImpl"*)*, %"class.xercesc_2_7::NamedNodeMapImpl"* (%"class.xercesc_2_7::ElementImpl"*)** %vfn3, align 8, !dbg !1637
  %call4 = call %"class.xercesc_2_7::NamedNodeMapImpl"* %3(%"class.xercesc_2_7::ElementImpl"* %this1), !dbg !1637
  %4 = load i32, i32* %nnm_index.addr, align 4, !dbg !1638
  %5 = bitcast %"class.xercesc_2_7::NamedNodeMapImpl"* %call4 to %"class.xercesc_2_7::NodeImpl"* (%"class.xercesc_2_7::NamedNodeMapImpl"*, i32)***, !dbg !1639
  %vtable5 = load %"class.xercesc_2_7::NodeImpl"* (%"class.xercesc_2_7::NamedNodeMapImpl"*, i32)**, %"class.xercesc_2_7::NodeImpl"* (%"class.xercesc_2_7::NamedNodeMapImpl"*, i32)*** %5, align 8, !dbg !1639
  %vfn6 = getelementptr inbounds %"class.xercesc_2_7::NodeImpl"* (%"class.xercesc_2_7::NamedNodeMapImpl"*, i32)*, %"class.xercesc_2_7::NodeImpl"* (%"class.xercesc_2_7::NamedNodeMapImpl"*, i32)** %vtable5, i64 7, !dbg !1639
  %6 = load %"class.xercesc_2_7::NodeImpl"* (%"class.xercesc_2_7::NamedNodeMapImpl"*, i32)*, %"class.xercesc_2_7::NodeImpl"* (%"class.xercesc_2_7::NamedNodeMapImpl"*, i32)** %vfn6, align 8, !dbg !1639
  %call7 = call %"class.xercesc_2_7::NodeImpl"* %6(%"class.xercesc_2_7::NamedNodeMapImpl"* %call4, i32 %4), !dbg !1639
  br label %cond.end, !dbg !1636

cond.end:                                         ; preds = %cond.false, %cond.true
  %cond = phi %"class.xercesc_2_7::NodeImpl"* [ null, %cond.true ], [ %call7, %cond.false ], !dbg !1636
  ret %"class.xercesc_2_7::NodeImpl"* %cond, !dbg !1640
}

; Function Attrs: noinline uwtable
define dso_local void @_ZN11xercesc_2_711ElementImpl13NNM_removeAllEv(%"class.xercesc_2_7::ElementImpl"* %this) unnamed_addr #3 align 2 !dbg !1641 {
entry:
  %this.addr = alloca %"class.xercesc_2_7::ElementImpl"*, align 8
  store %"class.xercesc_2_7::ElementImpl"* %this, %"class.xercesc_2_7::ElementImpl"** %this.addr, align 8
  call void @llvm.dbg.declare(metadata %"class.xercesc_2_7::ElementImpl"** %this.addr, metadata !1642, metadata !DIExpression()), !dbg !1643
  %this1 = load %"class.xercesc_2_7::ElementImpl"*, %"class.xercesc_2_7::ElementImpl"** %this.addr, align 8
  %0 = bitcast %"class.xercesc_2_7::ElementImpl"* %this1 to %"class.xercesc_2_7::NamedNodeMapImpl"* (%"class.xercesc_2_7::ElementImpl"*)***, !dbg !1644
  %vtable = load %"class.xercesc_2_7::NamedNodeMapImpl"* (%"class.xercesc_2_7::ElementImpl"*)**, %"class.xercesc_2_7::NamedNodeMapImpl"* (%"class.xercesc_2_7::ElementImpl"*)*** %0, align 8, !dbg !1644
  %vfn = getelementptr inbounds %"class.xercesc_2_7::NamedNodeMapImpl"* (%"class.xercesc_2_7::ElementImpl"*)*, %"class.xercesc_2_7::NamedNodeMapImpl"* (%"class.xercesc_2_7::ElementImpl"*)** %vtable, i64 18, !dbg !1644
  %1 = load %"class.xercesc_2_7::NamedNodeMapImpl"* (%"class.xercesc_2_7::ElementImpl"*)*, %"class.xercesc_2_7::NamedNodeMapImpl"* (%"class.xercesc_2_7::ElementImpl"*)** %vfn, align 8, !dbg !1644
  %call = call %"class.xercesc_2_7::NamedNodeMapImpl"* %1(%"class.xercesc_2_7::ElementImpl"* %this1), !dbg !1644
  %cmp = icmp ne %"class.xercesc_2_7::NamedNodeMapImpl"* %call, null, !dbg !1646
  br i1 %cmp, label %if.then, label %if.end, !dbg !1647

if.then:                                          ; preds = %entry
  %2 = bitcast %"class.xercesc_2_7::ElementImpl"* %this1 to %"class.xercesc_2_7::NamedNodeMapImpl"* (%"class.xercesc_2_7::ElementImpl"*)***, !dbg !1648
  %vtable2 = load %"class.xercesc_2_7::NamedNodeMapImpl"* (%"class.xercesc_2_7::ElementImpl"*)**, %"class.xercesc_2_7::NamedNodeMapImpl"* (%"class.xercesc_2_7::ElementImpl"*)*** %2, align 8, !dbg !1648
  %vfn3 = getelementptr inbounds %"class.xercesc_2_7::NamedNodeMapImpl"* (%"class.xercesc_2_7::ElementImpl"*)*, %"class.xercesc_2_7::NamedNodeMapImpl"* (%"class.xercesc_2_7::ElementImpl"*)** %vtable2, i64 18, !dbg !1648
  %3 = load %"class.xercesc_2_7::NamedNodeMapImpl"* (%"class.xercesc_2_7::ElementImpl"*)*, %"class.xercesc_2_7::NamedNodeMapImpl"* (%"class.xercesc_2_7::ElementImpl"*)** %vfn3, align 8, !dbg !1648
  %call4 = call %"class.xercesc_2_7::NamedNodeMapImpl"* %3(%"class.xercesc_2_7::ElementImpl"* %this1), !dbg !1648
  %4 = bitcast %"class.xercesc_2_7::NamedNodeMapImpl"* %call4 to void (%"class.xercesc_2_7::NamedNodeMapImpl"*)***, !dbg !1649
  %vtable5 = load void (%"class.xercesc_2_7::NamedNodeMapImpl"*)**, void (%"class.xercesc_2_7::NamedNodeMapImpl"*)*** %4, align 8, !dbg !1649
  %vfn6 = getelementptr inbounds void (%"class.xercesc_2_7::NamedNodeMapImpl"*)*, void (%"class.xercesc_2_7::NamedNodeMapImpl"*)** %vtable5, i64 8, !dbg !1649
  %5 = load void (%"class.xercesc_2_7::NamedNodeMapImpl"*)*, void (%"class.xercesc_2_7::NamedNodeMapImpl"*)** %vfn6, align 8, !dbg !1649
  call void %5(%"class.xercesc_2_7::NamedNodeMapImpl"* %call4), !dbg !1649
  br label %if.end, !dbg !1648

if.end:                                           ; preds = %if.then, %entry
  ret void, !dbg !1650
}

; Function Attrs: noinline uwtable
define dso_local %"class.xercesc_2_7::NodeImpl"* @_ZN11xercesc_2_711ElementImpl19NNM_removeNamedItemERKNS_9DOMStringE(%"class.xercesc_2_7::ElementImpl"* %this, %"class.xercesc_2_7::DOMString"* dereferenceable(8) %nnm_name) unnamed_addr #3 align 2 personality i8* bitcast (i32 (...)* @__gxx_personality_v0 to i8*) !dbg !1651 {
entry:
  %this.addr = alloca %"class.xercesc_2_7::ElementImpl"*, align 8
  %nnm_name.addr = alloca %"class.xercesc_2_7::DOMString"*, align 8
  %ref.tmp = alloca %"class.xercesc_2_7::DOMString", align 8
  %exn.slot = alloca i8*
  %ehselector.slot = alloca i32
  %cleanup.isactive = alloca i1, align 1
  store %"class.xercesc_2_7::ElementImpl"* %this, %"class.xercesc_2_7::ElementImpl"** %this.addr, align 8
  call void @llvm.dbg.declare(metadata %"class.xercesc_2_7::ElementImpl"** %this.addr, metadata !1652, metadata !DIExpression()), !dbg !1653
  store %"class.xercesc_2_7::DOMString"* %nnm_name, %"class.xercesc_2_7::DOMString"** %nnm_name.addr, align 8
  call void @llvm.dbg.declare(metadata %"class.xercesc_2_7::DOMString"** %nnm_name.addr, metadata !1654, metadata !DIExpression()), !dbg !1655
  %this1 = load %"class.xercesc_2_7::ElementImpl"*, %"class.xercesc_2_7::ElementImpl"** %this.addr, align 8
  %0 = bitcast %"class.xercesc_2_7::ElementImpl"* %this1 to %"class.xercesc_2_7::NamedNodeMapImpl"* (%"class.xercesc_2_7::ElementImpl"*)***, !dbg !1656
  %vtable = load %"class.xercesc_2_7::NamedNodeMapImpl"* (%"class.xercesc_2_7::ElementImpl"*)**, %"class.xercesc_2_7::NamedNodeMapImpl"* (%"class.xercesc_2_7::ElementImpl"*)*** %0, align 8, !dbg !1656
