; ModuleID = 'XalanDOMStringReusableAllocator.cpp'
source_filename = "XalanDOMStringReusableAllocator.cpp"
target datalayout = "e-m:e-p270:32:32-p271:32:32-p272:64:64-i64:64-f80:128-n8:16:32:64-S128"
target triple = "x86_64-unknown-linux-gnu"

%"class.xalanc_1_10::XalanDOMStringReusableAllocator" = type { %"class.xalanc_1_10::ReusableArenaAllocator" }
%"class.xalanc_1_10::ReusableArenaAllocator" = type <{ %"class.xalanc_1_10::ArenaAllocator", i8, [7 x i8] }>
%"class.xalanc_1_10::ArenaAllocator" = type { i32 (...)**, i16, %"class.xalanc_1_10::XalanList" }
%"class.xalanc_1_10::XalanList" = type { %"class.xercesc_2_7::MemoryManager"*, %"struct.xalanc_1_10::XalanList<xalanc_1_10::ReusableArenaBlock<xalanc_1_10::XalanDOMString, unsigned short> *>::Node"*, %"struct.xalanc_1_10::XalanList<xalanc_1_10::ReusableArenaBlock<xalanc_1_10::XalanDOMString, unsigned short> *>::Node"* }
%"struct.xalanc_1_10::XalanList<xalanc_1_10::ReusableArenaBlock<xalanc_1_10::XalanDOMString, unsigned short> *>::Node" = type { %"class.xalanc_1_10::ReusableArenaBlock"*, %"struct.xalanc_1_10::XalanList<xalanc_1_10::ReusableArenaBlock<xalanc_1_10::XalanDOMString, unsigned short> *>::Node"*, %"struct.xalanc_1_10::XalanList<xalanc_1_10::ReusableArenaBlock<xalanc_1_10::XalanDOMString, unsigned short> *>::Node"* }
%"class.xalanc_1_10::ReusableArenaBlock" = type <{ %"class.xalanc_1_10::ArenaBlockBase", i16, i16, [4 x i8] }>
%"class.xalanc_1_10::ArenaBlockBase" = type { %"class.xalanc_1_10::XalanAllocator", i16, i16, %"class.xalanc_1_10::XalanDOMString"* }
%"class.xalanc_1_10::XalanAllocator" = type { %"class.xercesc_2_7::MemoryManager"* }
%"class.xalanc_1_10::XalanDOMString" = type <{ %"class.xalanc_1_10::XalanVector", i32, [4 x i8] }>
%"class.xalanc_1_10::XalanVector" = type { %"class.xercesc_2_7::MemoryManager"*, i64, i64, i16* }
%"class.xercesc_2_7::MemoryManager" = type { i32 (...)** }
%"struct.xalanc_1_10::XalanListIteratorBase.0" = type { %"struct.xalanc_1_10::XalanList<xalanc_1_10::ReusableArenaBlock<xalanc_1_10::XalanDOMString, unsigned short> *>::Node"* }
%"class.std::reverse_iterator" = type { %"struct.xalanc_1_10::XalanListIteratorBase.0" }
%"struct.xalanc_1_10::XalanListIteratorBase" = type { %"struct.xalanc_1_10::XalanList<xalanc_1_10::ReusableArenaBlock<xalanc_1_10::XalanDOMString, unsigned short> *>::Node"* }
%"struct.xalanc_1_10::DeleteFunctor" = type { %"class.xercesc_2_7::MemoryManager"* }
%"struct.xalanc_1_10::ReusableArenaBlock<xalanc_1_10::XalanDOMString, unsigned short>::NextBlock" = type { i16, i32 }
%"class.xalanc_1_10::XalanAllocationGuard" = type { %"class.xercesc_2_7::MemoryManager"*, i8* }
%"struct.xalanc_1_10::XalanCompileErrorBoolean" = type { [1 x i8] }
%"struct.std::iterator" = type { i8 }
%"struct.std::less" = type { i8 }
%"struct.std::unary_function" = type { i8 }
%"struct.xalanc_1_10::XalanDestroyFunctor" = type { i8 }

$_ZN11xalanc_1_1022ReusableArenaAllocatorINS_14XalanDOMStringEEC2ERN11xercesc_2_713MemoryManagerEtb = comdat any

$_ZN11xalanc_1_1022ReusableArenaAllocatorINS_14XalanDOMStringEED2Ev = comdat any

$_ZN11xalanc_1_1022ReusableArenaAllocatorINS_14XalanDOMStringEE13allocateBlockEv = comdat any

$_ZN11xalanc_1_1031XalanDOMStringReusableAllocator16getMemoryManagerEv = comdat any

$_ZN11xalanc_1_1022ReusableArenaAllocatorINS_14XalanDOMStringEE16commitAllocationEPS1_ = comdat any

$_ZN11xalanc_1_1014ArenaAllocatorINS_14XalanDOMStringENS_18ReusableArenaBlockIS1_tEEE16getMemoryManagerEv = comdat any

$_ZN11xalanc_1_109XalanListIPNS_18ReusableArenaBlockINS_14XalanDOMStringEtEEE16getMemoryManagerEv = comdat any

$_ZN11xalanc_1_1014ArenaAllocatorINS_14XalanDOMStringENS_18ReusableArenaBlockIS1_tEEEC2ERN11xercesc_2_713MemoryManagerEt = comdat any

$_ZN11xalanc_1_1022ReusableArenaAllocatorINS_14XalanDOMStringEED0Ev = comdat any

$_ZNK11xalanc_1_1022ReusableArenaAllocatorINS_14XalanDOMStringEE10ownsObjectEPKS1_ = comdat any

$_ZN11xalanc_1_1014ArenaAllocatorINS_14XalanDOMStringENS_18ReusableArenaBlockIS1_tEEE5resetEv = comdat any

$_ZN11xalanc_1_109XalanListIPNS_18ReusableArenaBlockINS_14XalanDOMStringEtEEEC2ERN11xercesc_2_713MemoryManagerE = comdat any

$_ZN11xalanc_1_1014ArenaAllocatorINS_14XalanDOMStringENS_18ReusableArenaBlockIS1_tEEED2Ev = comdat any

$_ZN11xalanc_1_1014ArenaAllocatorINS_14XalanDOMStringENS_18ReusableArenaBlockIS1_tEEED0Ev = comdat any

$_ZN11xalanc_1_1014ArenaAllocatorINS_14XalanDOMStringENS_18ReusableArenaBlockIS1_tEEE13allocateBlockEv = comdat any

$_ZN11xalanc_1_1014ArenaAllocatorINS_14XalanDOMStringENS_18ReusableArenaBlockIS1_tEEE16commitAllocationEPS1_ = comdat any

$_ZNK11xalanc_1_1014ArenaAllocatorINS_14XalanDOMStringENS_18ReusableArenaBlockIS1_tEEE10ownsObjectEPKS1_ = comdat any

$_ZN11xalanc_1_109XalanListIPNS_18ReusableArenaBlockINS_14XalanDOMStringEtEEED2Ev = comdat any

$__clang_call_terminate = comdat any

$_ZN11xalanc_1_109XalanListIPNS_18ReusableArenaBlockINS_14XalanDOMStringEtEEE5beginEv = comdat any

$_ZNK11xalanc_1_1021XalanListIteratorBaseINS_23XalanListIteratorTraitsIPNS_18ReusableArenaBlockINS_14XalanDOMStringEtEEEENS_9XalanListIS5_E4NodeEEneERKSA_ = comdat any

$_ZN11xalanc_1_109XalanListIPNS_18ReusableArenaBlockINS_14XalanDOMStringEtEEE3endEv = comdat any

$_ZN11xalanc_1_109XalanListIPNS_18ReusableArenaBlockINS_14XalanDOMStringEtEEE11destroyNodeERNS5_4NodeE = comdat any

$_ZN11xalanc_1_1021XalanListIteratorBaseINS_23XalanListIteratorTraitsIPNS_18ReusableArenaBlockINS_14XalanDOMStringEtEEEENS_9XalanListIS5_E4NodeEEppEi = comdat any

$_ZN11xalanc_1_1021XalanListIteratorBaseINS_23XalanListIteratorTraitsIPNS_18ReusableArenaBlockINS_14XalanDOMStringEtEEEENS_9XalanListIS5_E4NodeEE4nodeEv = comdat any

$_ZN11xalanc_1_109XalanListIPNS_18ReusableArenaBlockINS_14XalanDOMStringEtEEE10deallocateEPNS5_4NodeE = comdat any

$_ZN11xalanc_1_109XalanListIPNS_18ReusableArenaBlockINS_14XalanDOMStringEtEEE11getListHeadEv = comdat any

$_ZN11xalanc_1_1021XalanListIteratorBaseINS_23XalanListIteratorTraitsIPNS_18ReusableArenaBlockINS_14XalanDOMStringEtEEEENS_9XalanListIS5_E4NodeEEC2ERS9_ = comdat any

$_ZN11xalanc_1_109XalanListIPNS_18ReusableArenaBlockINS_14XalanDOMStringEtEEE8allocateEm = comdat any

$_ZNK11xalanc_1_1021XalanListIteratorBaseINS_23XalanListIteratorTraitsIPNS_18ReusableArenaBlockINS_14XalanDOMStringEtEEEENS_9XalanListIS5_E4NodeEEeqERKSA_ = comdat any

$_ZNK11xalanc_1_109XalanListIPNS_18ReusableArenaBlockINS_14XalanDOMStringEtEEE5emptyEv = comdat any

$_ZN11xalanc_1_109XalanListIPNS_18ReusableArenaBlockINS_14XalanDOMStringEtEEE4backEv = comdat any

$_ZNK11xalanc_1_1014ArenaBlockBaseINS_14XalanDOMStringEtE14blockAvailableEv = comdat any

$_ZN11xalanc_1_109XalanListIPNS_18ReusableArenaBlockINS_14XalanDOMStringEtEEE9push_backERKS4_ = comdat any

$_ZN11xalanc_1_1018ReusableArenaBlockINS_14XalanDOMStringEtE6createERN11xercesc_2_713MemoryManagerEt = comdat any

$_ZN11xalanc_1_1018ReusableArenaBlockINS_14XalanDOMStringEtE13allocateBlockEv = comdat any

$_ZNK11xalanc_1_109XalanListIPNS_18ReusableArenaBlockINS_14XalanDOMStringEtEEE5beginEv = comdat any

$_ZNK11xalanc_1_1021XalanListIteratorBaseINS_28XalanListConstIteratorTraitsIPNS_18ReusableArenaBlockINS_14XalanDOMStringEtEEEENS_9XalanListIS5_E4NodeEEeqERKSA_ = comdat any

$_ZNK11xalanc_1_109XalanListIPNS_18ReusableArenaBlockINS_14XalanDOMStringEtEEE3endEv = comdat any

$_ZNK11xalanc_1_109XalanListIPNS_18ReusableArenaBlockINS_14XalanDOMStringEtEEE11getListHeadEv = comdat any

$_ZN11xalanc_1_1021XalanListIteratorBaseINS_28XalanListConstIteratorTraitsIPNS_18ReusableArenaBlockINS_14XalanDOMStringEtEEEENS_9XalanListIS5_E4NodeEEC2ERS9_ = comdat any

$_ZN11xalanc_1_1021XalanListIteratorBaseINS_23XalanListIteratorTraitsIPNS_18ReusableArenaBlockINS_14XalanDOMStringEtEEEENS_9XalanListIS5_E4NodeEEmmEv = comdat any

$_ZNK11xalanc_1_1021XalanListIteratorBaseINS_23XalanListIteratorTraitsIPNS_18ReusableArenaBlockINS_14XalanDOMStringEtEEEENS_9XalanListIS5_E4NodeEEdeEv = comdat any

$_ZN11xalanc_1_1021XalanListIteratorBaseINS_23XalanListIteratorTraitsIPNS_18ReusableArenaBlockINS_14XalanDOMStringEtEEEENS_9XalanListIS5_E4NodeEEC2ERKSA_ = comdat any

$_ZN11xalanc_1_109XalanListIPNS_18ReusableArenaBlockINS_14XalanDOMStringEtEEE13constructNodeERKS4_NS_21XalanListIteratorBaseINS_23XalanListIteratorTraitsIS4_EENS5_4NodeEEE = comdat any

$_ZN11xalanc_1_1028ConstructWithNoMemoryManagerIPNS_18ReusableArenaBlockINS_14XalanDOMStringEtEEE9constructEPS4_RKS4_RN11xercesc_2_713MemoryManagerE = comdat any

$_ZN11xalanc_1_1014XalanConstructINS_18ReusableArenaBlockINS_14XalanDOMStringEtEEN11xercesc_2_713MemoryManagerEtEEPT_RS5_RS7_RT0_RKT1_ = comdat any

$_ZN11xalanc_1_1020XalanAllocationGuardC2ERN11xercesc_2_713MemoryManagerEm = comdat any

$_ZNK11xalanc_1_1020XalanAllocationGuard3getEv = comdat any

$_ZN11xalanc_1_1018ReusableArenaBlockINS_14XalanDOMStringEtEC2ERN11xercesc_2_713MemoryManagerEt = comdat any

$_ZN11xalanc_1_1020XalanAllocationGuard7releaseEv = comdat any

$_ZN11xalanc_1_1020XalanAllocationGuardD2Ev = comdat any

$_ZN11xalanc_1_1014ArenaBlockBaseINS_14XalanDOMStringEtEC2ERN11xercesc_2_713MemoryManagerEt = comdat any

$_ZN11xalanc_1_1018ReusableArenaBlockINS_14XalanDOMStringEtE9NextBlockC2Et = comdat any

$_ZN11xalanc_1_1014ArenaBlockBaseINS_14XalanDOMStringEtED2Ev = comdat any

$_ZN11xalanc_1_1014XalanAllocatorINS_14XalanDOMStringEEC2ERN11xercesc_2_713MemoryManagerE = comdat any

$_ZN11xalanc_1_1014XalanAllocatorINS_14XalanDOMStringEE8allocateEmPKv = comdat any

$_ZN11xalanc_1_1014XalanAllocatorINS_14XalanDOMStringEED2Ev = comdat any

$_ZN11xalanc_1_1014XalanAllocatorINS_14XalanDOMStringEE10deallocateEPS1_m = comdat any

$_ZN11xalanc_1_1018ReusableArenaBlockINS_14XalanDOMStringEtE9NextBlock4castEPv = comdat any

$_ZN11xalanc_1_1018ReusableArenaBlockINS_14XalanDOMStringEtE16commitAllocationEPS1_ = comdat any

$_ZNK11xalanc_1_109XalanListIPNS_18ReusableArenaBlockINS_14XalanDOMStringEtEEE4rendEv = comdat any

$_ZNK11xalanc_1_109XalanListIPNS_18ReusableArenaBlockINS_14XalanDOMStringEtEEE6rbeginEv = comdat any

$_ZStneIN11xalanc_1_1021XalanListIteratorBaseINS0_28XalanListConstIteratorTraitsIPNS0_18ReusableArenaBlockINS0_14XalanDOMStringEtEEEENS0_9XalanListIS6_E4NodeEEEEbRKSt16reverse_iteratorIT_ESG_ = comdat any

$_ZNKSt16reverse_iteratorIN11xalanc_1_1021XalanListIteratorBaseINS0_28XalanListConstIteratorTraitsIPNS0_18ReusableArenaBlockINS0_14XalanDOMStringEtEEEENS0_9XalanListIS6_E4NodeEEEEdeEv = comdat any

$_ZNK11xalanc_1_1018ReusableArenaBlockINS_14XalanDOMStringEtE10ownsObjectEPKS1_ = comdat any

$_ZNSt16reverse_iteratorIN11xalanc_1_1021XalanListIteratorBaseINS0_28XalanListConstIteratorTraitsIPNS0_18ReusableArenaBlockINS0_14XalanDOMStringEtEEEENS0_9XalanListIS6_E4NodeEEEEppEv = comdat any

$_ZNSt16reverse_iteratorIN11xalanc_1_1021XalanListIteratorBaseINS0_28XalanListConstIteratorTraitsIPNS0_18ReusableArenaBlockINS0_14XalanDOMStringEtEEEENS0_9XalanListIS6_E4NodeEEEEC2ESB_ = comdat any

$_ZSteqIN11xalanc_1_1021XalanListIteratorBaseINS0_28XalanListConstIteratorTraitsIPNS0_18ReusableArenaBlockINS0_14XalanDOMStringEtEEEENS0_9XalanListIS6_E4NodeEEEEbRKSt16reverse_iteratorIT_ESG_ = comdat any

$_ZNKSt16reverse_iteratorIN11xalanc_1_1021XalanListIteratorBaseINS0_28XalanListConstIteratorTraitsIPNS0_18ReusableArenaBlockINS0_14XalanDOMStringEtEEEENS0_9XalanListIS6_E4NodeEEEE4baseEv = comdat any

$_ZN11xalanc_1_1021XalanListIteratorBaseINS_28XalanListConstIteratorTraitsIPNS_18ReusableArenaBlockINS_14XalanDOMStringEtEEEENS_9XalanListIS5_E4NodeEEmmEv = comdat any

$_ZNK11xalanc_1_1021XalanListIteratorBaseINS_28XalanListConstIteratorTraitsIPNS_18ReusableArenaBlockINS_14XalanDOMStringEtEEEENS_9XalanListIS5_E4NodeEEdeEv = comdat any

$_ZNK11xalanc_1_1018ReusableArenaBlockINS_14XalanDOMStringEtE15isOccupiedBlockEPKNS2_9NextBlockE = comdat any

$_ZN11xalanc_1_1018ReusableArenaBlockINS_14XalanDOMStringEtE9NextBlock4castEPKv = comdat any

$_ZNK11xalanc_1_1014ArenaBlockBaseINS_14XalanDOMStringEtE9ownsBlockEPKS1_ = comdat any

$_ZNK11xalanc_1_1018ReusableArenaBlockINS_14XalanDOMStringEtE9NextBlock10isValidForEt = comdat any

$_ZNK11xalanc_1_1014ArenaBlockBaseINS_14XalanDOMStringEtE11isInBordersEPKS1_t = comdat any

$_ZNKSt4lessIPKN11xalanc_1_1014XalanDOMStringEEclES3_S3_ = comdat any

$_ZNK11xalanc_1_1021XalanListIteratorBaseINS_28XalanListConstIteratorTraitsIPNS_18ReusableArenaBlockINS_14XalanDOMStringEtEEEENS_9XalanListIS5_E4NodeEEneERKSA_ = comdat any

$_ZN11xalanc_1_1021XalanListIteratorBaseINS_28XalanListConstIteratorTraitsIPNS_18ReusableArenaBlockINS_14XalanDOMStringEtEEEENS_9XalanListIS5_E4NodeEEppEv = comdat any

$_ZSt8for_eachIN11xalanc_1_1021XalanListIteratorBaseINS0_23XalanListIteratorTraitsIPNS0_18ReusableArenaBlockINS0_14XalanDOMStringEtEEEENS0_9XalanListIS6_E4NodeEEENS0_13DeleteFunctorIS5_EEET0_T_SF_SE_ = comdat any

$_ZN11xalanc_1_1013DeleteFunctorINS_18ReusableArenaBlockINS_14XalanDOMStringEtEEEC2ERN11xercesc_2_713MemoryManagerE = comdat any

$_ZN11xalanc_1_109XalanListIPNS_18ReusableArenaBlockINS_14XalanDOMStringEtEEE5clearEv = comdat any

$_ZNK11xalanc_1_1013DeleteFunctorINS_18ReusableArenaBlockINS_14XalanDOMStringEtEEEclEPKS3_ = comdat any

$_ZN11xalanc_1_1021XalanListIteratorBaseINS_23XalanListIteratorTraitsIPNS_18ReusableArenaBlockINS_14XalanDOMStringEtEEEENS_9XalanListIS5_E4NodeEEppEv = comdat any

$_ZN11xalanc_1_1023makeXalanDestroyFunctorINS_18ReusableArenaBlockINS_14XalanDOMStringEtEEEENS_19XalanDestroyFunctorIT_EEPKS5_ = comdat any

$_ZN11xalanc_1_1019XalanDestroyFunctorINS_18ReusableArenaBlockINS_14XalanDOMStringEtEEEclEPKS3_RN11xercesc_2_713MemoryManagerE = comdat any

$_ZN11xalanc_1_1019XalanDestroyFunctorINS_18ReusableArenaBlockINS_14XalanDOMStringEtEEEclEPS3_RN11xercesc_2_713MemoryManagerE = comdat any

$_ZN11xalanc_1_1019XalanDestroyFunctorINS_18ReusableArenaBlockINS_14XalanDOMStringEtEEEclERS3_ = comdat any

$_ZN11xalanc_1_1018ReusableArenaBlockINS_14XalanDOMStringEtED2Ev = comdat any

$_ZN11xalanc_1_1014XalanDOMStringD2Ev = comdat any

$_ZN11xalanc_1_1011XalanVectorItNS_31MemoryManagedConstructionTraitsItEEED2Ev = comdat any

$_ZNK11xalanc_1_1011XalanVectorItNS_31MemoryManagedConstructionTraitsItEEE10invariantsEv = comdat any

$_ZN11xalanc_1_1011XalanVectorItNS_31MemoryManagedConstructionTraitsItEEE7destroyEPtS4_ = comdat any

$_ZN11xalanc_1_1011XalanVectorItNS_31MemoryManagedConstructionTraitsItEEE5beginEv = comdat any

$_ZN11xalanc_1_1011XalanVectorItNS_31MemoryManagedConstructionTraitsItEEE3endEv = comdat any

$_ZN11xalanc_1_1011XalanVectorItNS_31MemoryManagedConstructionTraitsItEEE10deallocateEPt = comdat any

$_ZN11xalanc_1_1011XalanVectorItNS_31MemoryManagedConstructionTraitsItEEE7destroyERt = comdat any

$_ZN11xalanc_1_1011XalanVectorItNS_31MemoryManagedConstructionTraitsItEEE10endPointerEv = comdat any

$_ZN11xalanc_1_109XalanListIPNS_18ReusableArenaBlockINS_14XalanDOMStringEtEEE8freeNodeERNS5_4NodeE = comdat any

$_ZN11xalanc_1_109XalanListIPNS_18ReusableArenaBlockINS_14XalanDOMStringEtEEE5frontEv = comdat any

$_ZN11xalanc_1_109XalanListIPNS_18ReusableArenaBlockINS_14XalanDOMStringEtEEE10push_frontERKS4_ = comdat any

$_ZN11xalanc_1_109XalanListIPNS_18ReusableArenaBlockINS_14XalanDOMStringEtEEE9pop_frontEv = comdat any

$_ZN11xalanc_1_109XalanListIPNS_18ReusableArenaBlockINS_14XalanDOMStringEtEEE5eraseENS_21XalanListIteratorBaseINS_23XalanListIteratorTraitsIS4_EENS5_4NodeEEE = comdat any

$_ZTVN11xalanc_1_1022ReusableArenaAllocatorINS_14XalanDOMStringEEE = comdat any

$_ZTSN11xalanc_1_1022ReusableArenaAllocatorINS_14XalanDOMStringEEE = comdat any

$_ZTSN11xalanc_1_1014ArenaAllocatorINS_14XalanDOMStringENS_18ReusableArenaBlockIS1_tEEEE = comdat any

$_ZTIN11xalanc_1_1014ArenaAllocatorINS_14XalanDOMStringENS_18ReusableArenaBlockIS1_tEEEE = comdat any

$_ZTIN11xalanc_1_1022ReusableArenaAllocatorINS_14XalanDOMStringEEE = comdat any

$_ZTVN11xalanc_1_1014ArenaAllocatorINS_14XalanDOMStringENS_18ReusableArenaBlockIS1_tEEEE = comdat any

@_ZTVN11xalanc_1_1022ReusableArenaAllocatorINS_14XalanDOMStringEEE = linkonce_odr dso_local unnamed_addr constant { [8 x i8*] } { [8 x i8*] [i8* null, i8* bitcast ({ i8*, i8*, i8* }* @_ZTIN11xalanc_1_1022ReusableArenaAllocatorINS_14XalanDOMStringEEE to i8*), i8* bitcast (void (%"class.xalanc_1_10::ReusableArenaAllocator"*)* @_ZN11xalanc_1_1022ReusableArenaAllocatorINS_14XalanDOMStringEED2Ev to i8*), i8* bitcast (void (%"class.xalanc_1_10::ReusableArenaAllocator"*)* @_ZN11xalanc_1_1022ReusableArenaAllocatorINS_14XalanDOMStringEED0Ev to i8*), i8* bitcast (%"class.xalanc_1_10::XalanDOMString"* (%"class.xalanc_1_10::ReusableArenaAllocator"*)* @_ZN11xalanc_1_1022ReusableArenaAllocatorINS_14XalanDOMStringEE13allocateBlockEv to i8*), i8* bitcast (void (%"class.xalanc_1_10::ReusableArenaAllocator"*, %"class.xalanc_1_10::XalanDOMString"*)* @_ZN11xalanc_1_1022ReusableArenaAllocatorINS_14XalanDOMStringEE16commitAllocationEPS1_ to i8*), i8* bitcast (i1 (%"class.xalanc_1_10::ReusableArenaAllocator"*, %"class.xalanc_1_10::XalanDOMString"*)* @_ZNK11xalanc_1_1022ReusableArenaAllocatorINS_14XalanDOMStringEE10ownsObjectEPKS1_ to i8*), i8* bitcast (void (%"class.xalanc_1_10::ArenaAllocator"*)* @_ZN11xalanc_1_1014ArenaAllocatorINS_14XalanDOMStringENS_18ReusableArenaBlockIS1_tEEE5resetEv to i8*)] }, comdat, align 8
@_ZTVN10__cxxabiv120__si_class_type_infoE = external dso_local global i8*
@_ZTSN11xalanc_1_1022ReusableArenaAllocatorINS_14XalanDOMStringEEE = linkonce_odr dso_local constant [62 x i8] c"N11xalanc_1_1022ReusableArenaAllocatorINS_14XalanDOMStringEEE\00", comdat, align 1
@_ZTVN10__cxxabiv117__class_type_infoE = external dso_local global i8*
@_ZTSN11xalanc_1_1014ArenaAllocatorINS_14XalanDOMStringENS_18ReusableArenaBlockIS1_tEEEE = linkonce_odr dso_local constant [84 x i8] c"N11xalanc_1_1014ArenaAllocatorINS_14XalanDOMStringENS_18ReusableArenaBlockIS1_tEEEE\00", comdat, align 1
@_ZTIN11xalanc_1_1014ArenaAllocatorINS_14XalanDOMStringENS_18ReusableArenaBlockIS1_tEEEE = linkonce_odr dso_local constant { i8*, i8* } { i8* bitcast (i8** getelementptr inbounds (i8*, i8** @_ZTVN10__cxxabiv117__class_type_infoE, i64 2) to i8*), i8* getelementptr inbounds ([84 x i8], [84 x i8]* @_ZTSN11xalanc_1_1014ArenaAllocatorINS_14XalanDOMStringENS_18ReusableArenaBlockIS1_tEEEE, i32 0, i32 0) }, comdat, align 8
@_ZTIN11xalanc_1_1022ReusableArenaAllocatorINS_14XalanDOMStringEEE = linkonce_odr dso_local constant { i8*, i8*, i8* } { i8* bitcast (i8** getelementptr inbounds (i8*, i8** @_ZTVN10__cxxabiv120__si_class_type_infoE, i64 2) to i8*), i8* getelementptr inbounds ([62 x i8], [62 x i8]* @_ZTSN11xalanc_1_1022ReusableArenaAllocatorINS_14XalanDOMStringEEE, i32 0, i32 0), i8* bitcast ({ i8*, i8* }* @_ZTIN11xalanc_1_1014ArenaAllocatorINS_14XalanDOMStringENS_18ReusableArenaBlockIS1_tEEEE to i8*) }, comdat, align 8
@_ZTVN11xalanc_1_1014ArenaAllocatorINS_14XalanDOMStringENS_18ReusableArenaBlockIS1_tEEEE = linkonce_odr dso_local unnamed_addr constant { [8 x i8*] } { [8 x i8*] [i8* null, i8* bitcast ({ i8*, i8* }* @_ZTIN11xalanc_1_1014ArenaAllocatorINS_14XalanDOMStringENS_18ReusableArenaBlockIS1_tEEEE to i8*), i8* bitcast (void (%"class.xalanc_1_10::ArenaAllocator"*)* @_ZN11xalanc_1_1014ArenaAllocatorINS_14XalanDOMStringENS_18ReusableArenaBlockIS1_tEEED2Ev to i8*), i8* bitcast (void (%"class.xalanc_1_10::ArenaAllocator"*)* @_ZN11xalanc_1_1014ArenaAllocatorINS_14XalanDOMStringENS_18ReusableArenaBlockIS1_tEEED0Ev to i8*), i8* bitcast (%"class.xalanc_1_10::XalanDOMString"* (%"class.xalanc_1_10::ArenaAllocator"*)* @_ZN11xalanc_1_1014ArenaAllocatorINS_14XalanDOMStringENS_18ReusableArenaBlockIS1_tEEE13allocateBlockEv to i8*), i8* bitcast (void (%"class.xalanc_1_10::ArenaAllocator"*, %"class.xalanc_1_10::XalanDOMString"*)* @_ZN11xalanc_1_1014ArenaAllocatorINS_14XalanDOMStringENS_18ReusableArenaBlockIS1_tEEE16commitAllocationEPS1_ to i8*), i8* bitcast (i1 (%"class.xalanc_1_10::ArenaAllocator"*, %"class.xalanc_1_10::XalanDOMString"*)* @_ZNK11xalanc_1_1014ArenaAllocatorINS_14XalanDOMStringENS_18ReusableArenaBlockIS1_tEEE10ownsObjectEPKS1_ to i8*), i8* bitcast (void (%"class.xalanc_1_10::ArenaAllocator"*)* @_ZN11xalanc_1_1014ArenaAllocatorINS_14XalanDOMStringENS_18ReusableArenaBlockIS1_tEEE5resetEv to i8*)] }, comdat, align 8

@_ZN11xalanc_1_1031XalanDOMStringReusableAllocatorC1ERN11xercesc_2_713MemoryManagerEt = dso_local unnamed_addr alias void (%"class.xalanc_1_10::XalanDOMStringReusableAllocator"*, %"class.xercesc_2_7::MemoryManager"*, i16), void (%"class.xalanc_1_10::XalanDOMStringReusableAllocator"*, %"class.xercesc_2_7::MemoryManager"*, i16)* @_ZN11xalanc_1_1031XalanDOMStringReusableAllocatorC2ERN11xercesc_2_713MemoryManagerEt
@_ZN11xalanc_1_1031XalanDOMStringReusableAllocatorD1Ev = dso_local unnamed_addr alias void (%"class.xalanc_1_10::XalanDOMStringReusableAllocator"*), void (%"class.xalanc_1_10::XalanDOMStringReusableAllocator"*)* @_ZN11xalanc_1_1031XalanDOMStringReusableAllocatorD2Ev

; Function Attrs: noinline uwtable
define dso_local void @_ZN11xalanc_1_1031XalanDOMStringReusableAllocatorC2ERN11xercesc_2_713MemoryManagerEt(%"class.xalanc_1_10::XalanDOMStringReusableAllocator"* %this, %"class.xercesc_2_7::MemoryManager"* dereferenceable(8) %theManager, i16 zeroext %theBlockCount) unnamed_addr #0 align 2 !dbg !2231 {
entry:
  %this.addr = alloca %"class.xalanc_1_10::XalanDOMStringReusableAllocator"*, align 8
  %theManager.addr = alloca %"class.xercesc_2_7::MemoryManager"*, align 8
  %theBlockCount.addr = alloca i16, align 2
  store %"class.xalanc_1_10::XalanDOMStringReusableAllocator"* %this, %"class.xalanc_1_10::XalanDOMStringReusableAllocator"** %this.addr, align 8
  call void @llvm.dbg.declare(metadata %"class.xalanc_1_10::XalanDOMStringReusableAllocator"** %this.addr, metadata !2389, metadata !DIExpression()), !dbg !2391
  store %"class.xercesc_2_7::MemoryManager"* %theManager, %"class.xercesc_2_7::MemoryManager"** %theManager.addr, align 8
  call void @llvm.dbg.declare(metadata %"class.xercesc_2_7::MemoryManager"** %theManager.addr, metadata !2392, metadata !DIExpression()), !dbg !2393
  store i16 %theBlockCount, i16* %theBlockCount.addr, align 2
  call void @llvm.dbg.declare(metadata i16* %theBlockCount.addr, metadata !2394, metadata !DIExpression()), !dbg !2395
  %this1 = load %"class.xalanc_1_10::XalanDOMStringReusableAllocator"*, %"class.xalanc_1_10::XalanDOMStringReusableAllocator"** %this.addr, align 8
  %m_allocator = getelementptr inbounds %"class.xalanc_1_10::XalanDOMStringReusableAllocator", %"class.xalanc_1_10::XalanDOMStringReusableAllocator"* %this1, i32 0, i32 0, !dbg !2396
  %0 = load %"class.xercesc_2_7::MemoryManager"*, %"class.xercesc_2_7::MemoryManager"** %theManager.addr, align 8, !dbg !2397
  %1 = load i16, i16* %theBlockCount.addr, align 2, !dbg !2398
  call void @_ZN11xalanc_1_1022ReusableArenaAllocatorINS_14XalanDOMStringEEC2ERN11xercesc_2_713MemoryManagerEtb(%"class.xalanc_1_10::ReusableArenaAllocator"* %m_allocator, %"class.xercesc_2_7::MemoryManager"* dereferenceable(8) %0, i16 zeroext %1, i1 zeroext false), !dbg !2396
  ret void, !dbg !2399
}

; Function Attrs: nounwind readnone speculatable willreturn
declare void @llvm.dbg.declare(metadata, metadata, metadata) #1

; Function Attrs: noinline uwtable
define linkonce_odr dso_local void @_ZN11xalanc_1_1022ReusableArenaAllocatorINS_14XalanDOMStringEEC2ERN11xercesc_2_713MemoryManagerEtb(%"class.xalanc_1_10::ReusableArenaAllocator"* %this, %"class.xercesc_2_7::MemoryManager"* dereferenceable(8) %theManager, i16 zeroext %theBlockSize, i1 zeroext %destroyBlocks) unnamed_addr #0 comdat align 2 !dbg !2400 {
entry:
  %this.addr = alloca %"class.xalanc_1_10::ReusableArenaAllocator"*, align 8
  %theManager.addr = alloca %"class.xercesc_2_7::MemoryManager"*, align 8
  %theBlockSize.addr = alloca i16, align 2
  %destroyBlocks.addr = alloca i8, align 1
  store %"class.xalanc_1_10::ReusableArenaAllocator"* %this, %"class.xalanc_1_10::ReusableArenaAllocator"** %this.addr, align 8
  call void @llvm.dbg.declare(metadata %"class.xalanc_1_10::ReusableArenaAllocator"** %this.addr, metadata !2401, metadata !DIExpression()), !dbg !2403
  store %"class.xercesc_2_7::MemoryManager"* %theManager, %"class.xercesc_2_7::MemoryManager"** %theManager.addr, align 8
  call void @llvm.dbg.declare(metadata %"class.xercesc_2_7::MemoryManager"** %theManager.addr, metadata !2404, metadata !DIExpression()), !dbg !2405
  store i16 %theBlockSize, i16* %theBlockSize.addr, align 2
  call void @llvm.dbg.declare(metadata i16* %theBlockSize.addr, metadata !2406, metadata !DIExpression()), !dbg !2407
  %frombool = zext i1 %destroyBlocks to i8
  store i8 %frombool, i8* %destroyBlocks.addr, align 1
  call void @llvm.dbg.declare(metadata i8* %destroyBlocks.addr, metadata !2408, metadata !DIExpression()), !dbg !2409
  %this1 = load %"class.xalanc_1_10::ReusableArenaAllocator"*, %"class.xalanc_1_10::ReusableArenaAllocator"** %this.addr, align 8
  %0 = bitcast %"class.xalanc_1_10::ReusableArenaAllocator"* %this1 to %"class.xalanc_1_10::ArenaAllocator"*, !dbg !2410
  %1 = load %"class.xercesc_2_7::MemoryManager"*, %"class.xercesc_2_7::MemoryManager"** %theManager.addr, align 8, !dbg !2411
  %2 = load i16, i16* %theBlockSize.addr, align 2, !dbg !2412
  call void @_ZN11xalanc_1_1014ArenaAllocatorINS_14XalanDOMStringENS_18ReusableArenaBlockIS1_tEEEC2ERN11xercesc_2_713MemoryManagerEt(%"class.xalanc_1_10::ArenaAllocator"* %0, %"class.xercesc_2_7::MemoryManager"* dereferenceable(8) %1, i16 zeroext %2), !dbg !2413
  %3 = bitcast %"class.xalanc_1_10::ReusableArenaAllocator"* %this1 to i32 (...)***, !dbg !2410
  store i32 (...)** bitcast (i8** getelementptr inbounds ({ [8 x i8*] }, { [8 x i8*] }* @_ZTVN11xalanc_1_1022ReusableArenaAllocatorINS_14XalanDOMStringEEE, i32 0, inrange i32 0, i32 2) to i32 (...)**), i32 (...)*** %3, align 8, !dbg !2410
  %m_destroyBlocks = getelementptr inbounds %"class.xalanc_1_10::ReusableArenaAllocator", %"class.xalanc_1_10::ReusableArenaAllocator"* %this1, i32 0, i32 1, !dbg !2414
  %4 = load i8, i8* %destroyBlocks.addr, align 1, !dbg !2415
  %tobool = trunc i8 %4 to i1, !dbg !2415
  %frombool2 = zext i1 %tobool to i8, !dbg !2414
  store i8 %frombool2, i8* %m_destroyBlocks, align 8, !dbg !2414
  ret void, !dbg !2416
}

; Function Attrs: noinline nounwind uwtable
define dso_local void @_ZN11xalanc_1_1031XalanDOMStringReusableAllocatorD2Ev(%"class.xalanc_1_10::XalanDOMStringReusableAllocator"* %this) unnamed_addr #2 align 2 !dbg !2417 {
entry:
  %this.addr = alloca %"class.xalanc_1_10::XalanDOMStringReusableAllocator"*, align 8
  store %"class.xalanc_1_10::XalanDOMStringReusableAllocator"* %this, %"class.xalanc_1_10::XalanDOMStringReusableAllocator"** %this.addr, align 8
  call void @llvm.dbg.declare(metadata %"class.xalanc_1_10::XalanDOMStringReusableAllocator"** %this.addr, metadata !2418, metadata !DIExpression()), !dbg !2419
  %this1 = load %"class.xalanc_1_10::XalanDOMStringReusableAllocator"*, %"class.xalanc_1_10::XalanDOMStringReusableAllocator"** %this.addr, align 8
  %m_allocator = getelementptr inbounds %"class.xalanc_1_10::XalanDOMStringReusableAllocator", %"class.xalanc_1_10::XalanDOMStringReusableAllocator"* %this1, i32 0, i32 0, !dbg !2420
  call void @_ZN11xalanc_1_1022ReusableArenaAllocatorINS_14XalanDOMStringEED2Ev(%"class.xalanc_1_10::ReusableArenaAllocator"* %m_allocator) #7, !dbg !2420
  ret void, !dbg !2422
}

; Function Attrs: noinline nounwind uwtable
define linkonce_odr dso_local void @_ZN11xalanc_1_1022ReusableArenaAllocatorINS_14XalanDOMStringEED2Ev(%"class.xalanc_1_10::ReusableArenaAllocator"* %this) unnamed_addr #2 comdat align 2 !dbg !2423 {
entry:
  %this.addr = alloca %"class.xalanc_1_10::ReusableArenaAllocator"*, align 8
  store %"class.xalanc_1_10::ReusableArenaAllocator"* %this, %"class.xalanc_1_10::ReusableArenaAllocator"** %this.addr, align 8
  call void @llvm.dbg.declare(metadata %"class.xalanc_1_10::ReusableArenaAllocator"** %this.addr, metadata !2424, metadata !DIExpression()), !dbg !2425
  %this1 = load %"class.xalanc_1_10::ReusableArenaAllocator"*, %"class.xalanc_1_10::ReusableArenaAllocator"** %this.addr, align 8
  %0 = bitcast %"class.xalanc_1_10::ReusableArenaAllocator"* %this1 to %"class.xalanc_1_10::ArenaAllocator"*, !dbg !2426
  call void @_ZN11xalanc_1_1014ArenaAllocatorINS_14XalanDOMStringENS_18ReusableArenaBlockIS1_tEEED2Ev(%"class.xalanc_1_10::ArenaAllocator"* %0) #7, !dbg !2426
  ret void, !dbg !2428
}

; Function Attrs: noinline uwtable
define dso_local dereferenceable(40) %"class.xalanc_1_10::XalanDOMString"* @_ZN11xalanc_1_1031XalanDOMStringReusableAllocator6createEv(%"class.xalanc_1_10::XalanDOMStringReusableAllocator"* %this) #0 align 2 !dbg !2429 {
entry:
  %this.addr = alloca %"class.xalanc_1_10::XalanDOMStringReusableAllocator"*, align 8
  %theBlock = alloca %"class.xalanc_1_10::XalanDOMString"*, align 8
  %theResult = alloca %"class.xalanc_1_10::XalanDOMString"*, align 8
  store %"class.xalanc_1_10::XalanDOMStringReusableAllocator"* %this, %"class.xalanc_1_10::XalanDOMStringReusableAllocator"** %this.addr, align 8
  call void @llvm.dbg.declare(metadata %"class.xalanc_1_10::XalanDOMStringReusableAllocator"** %this.addr, metadata !2430, metadata !DIExpression()), !dbg !2431
  %this1 = load %"class.xalanc_1_10::XalanDOMStringReusableAllocator"*, %"class.xalanc_1_10::XalanDOMStringReusableAllocator"** %this.addr, align 8
  call void @llvm.dbg.declare(metadata %"class.xalanc_1_10::XalanDOMString"** %theBlock, metadata !2432, metadata !DIExpression()), !dbg !2435
  %m_allocator = getelementptr inbounds %"class.xalanc_1_10::XalanDOMStringReusableAllocator", %"class.xalanc_1_10::XalanDOMStringReusableAllocator"* %this1, i32 0, i32 0, !dbg !2436
  %call = call %"class.xalanc_1_10::XalanDOMString"* @_ZN11xalanc_1_1022ReusableArenaAllocatorINS_14XalanDOMStringEE13allocateBlockEv(%"class.xalanc_1_10::ReusableArenaAllocator"* %m_allocator), !dbg !2437
  store %"class.xalanc_1_10::XalanDOMString"* %call, %"class.xalanc_1_10::XalanDOMString"** %theBlock, align 8, !dbg !2435
  call void @llvm.dbg.declare(metadata %"class.xalanc_1_10::XalanDOMString"** %theResult, metadata !2438, metadata !DIExpression()), !dbg !2439
  %0 = load %"class.xalanc_1_10::XalanDOMString"*, %"class.xalanc_1_10::XalanDOMString"** %theBlock, align 8, !dbg !2440
  %1 = bitcast %"class.xalanc_1_10::XalanDOMString"* %0 to i8*, !dbg !2441
  %2 = bitcast i8* %1 to %"class.xalanc_1_10::XalanDOMString"*, !dbg !2441
  %call2 = call dereferenceable(8) %"class.xercesc_2_7::MemoryManager"* @_ZN11xalanc_1_1031XalanDOMStringReusableAllocator16getMemoryManagerEv(%"class.xalanc_1_10::XalanDOMStringReusableAllocator"* %this1), !dbg !2442
  call void @_ZN11xalanc_1_1014XalanDOMStringC1ERN11xercesc_2_713MemoryManagerE(%"class.xalanc_1_10::XalanDOMString"* %2, %"class.xercesc_2_7::MemoryManager"* dereferenceable(8) %call2), !dbg !2443
  store %"class.xalanc_1_10::XalanDOMString"* %2, %"class.xalanc_1_10::XalanDOMString"** %theResult, align 8, !dbg !2439
  %m_allocator3 = getelementptr inbounds %"class.xalanc_1_10::XalanDOMStringReusableAllocator", %"class.xalanc_1_10::XalanDOMStringReusableAllocator"* %this1, i32 0, i32 0, !dbg !2444
  %3 = load %"class.xalanc_1_10::XalanDOMString"*, %"class.xalanc_1_10::XalanDOMString"** %theBlock, align 8, !dbg !2445
  call void @_ZN11xalanc_1_1022ReusableArenaAllocatorINS_14XalanDOMStringEE16commitAllocationEPS1_(%"class.xalanc_1_10::ReusableArenaAllocator"* %m_allocator3, %"class.xalanc_1_10::XalanDOMString"* %3), !dbg !2446
  %4 = load %"class.xalanc_1_10::XalanDOMString"*, %"class.xalanc_1_10::XalanDOMString"** %theResult, align 8, !dbg !2447
  ret %"class.xalanc_1_10::XalanDOMString"* %4, !dbg !2448
}

; Function Attrs: noinline uwtable
define linkonce_odr dso_local %"class.xalanc_1_10::XalanDOMString"* @_ZN11xalanc_1_1022ReusableArenaAllocatorINS_14XalanDOMStringEE13allocateBlockEv(%"class.xalanc_1_10::ReusableArenaAllocator"* %this) unnamed_addr #0 comdat align 2 !dbg !2449 {
entry:
  %this.addr = alloca %"class.xalanc_1_10::ReusableArenaAllocator"*, align 8
  %ref.tmp = alloca %"class.xalanc_1_10::ReusableArenaBlock"*, align 8
  store %"class.xalanc_1_10::ReusableArenaAllocator"* %this, %"class.xalanc_1_10::ReusableArenaAllocator"** %this.addr, align 8
  call void @llvm.dbg.declare(metadata %"class.xalanc_1_10::ReusableArenaAllocator"** %this.addr, metadata !2450, metadata !DIExpression()), !dbg !2451
  %this1 = load %"class.xalanc_1_10::ReusableArenaAllocator"*, %"class.xalanc_1_10::ReusableArenaAllocator"** %this.addr, align 8
  %0 = bitcast %"class.xalanc_1_10::ReusableArenaAllocator"* %this1 to %"class.xalanc_1_10::ArenaAllocator"*, !dbg !2452
  %m_blocks = getelementptr inbounds %"class.xalanc_1_10::ArenaAllocator", %"class.xalanc_1_10::ArenaAllocator"* %0, i32 0, i32 2, !dbg !2452
  %call = call zeroext i1 @_ZNK11xalanc_1_109XalanListIPNS_18ReusableArenaBlockINS_14XalanDOMStringEtEEE5emptyEv(%"class.xalanc_1_10::XalanList"* %m_blocks), !dbg !2454
  br i1 %call, label %if.then, label %lor.lhs.false, !dbg !2455

lor.lhs.false:                                    ; preds = %entry
  %1 = bitcast %"class.xalanc_1_10::ReusableArenaAllocator"* %this1 to %"class.xalanc_1_10::ArenaAllocator"*, !dbg !2456
  %m_blocks2 = getelementptr inbounds %"class.xalanc_1_10::ArenaAllocator", %"class.xalanc_1_10::ArenaAllocator"* %1, i32 0, i32 2, !dbg !2456
  %call3 = call dereferenceable(8) %"class.xalanc_1_10::ReusableArenaBlock"** @_ZN11xalanc_1_109XalanListIPNS_18ReusableArenaBlockINS_14XalanDOMStringEtEEE5frontEv(%"class.xalanc_1_10::XalanList"* %m_blocks2), !dbg !2457
  %2 = load %"class.xalanc_1_10::ReusableArenaBlock"*, %"class.xalanc_1_10::ReusableArenaBlock"** %call3, align 8, !dbg !2457
  %3 = bitcast %"class.xalanc_1_10::ReusableArenaBlock"* %2 to %"class.xalanc_1_10::ArenaBlockBase"*, !dbg !2458
  %call4 = call zeroext i1 @_ZNK11xalanc_1_1014ArenaBlockBaseINS_14XalanDOMStringEtE14blockAvailableEv(%"class.xalanc_1_10::ArenaBlockBase"* %3), !dbg !2458
  br i1 %call4, label %if.end, label %if.then, !dbg !2459

if.then:                                          ; preds = %lor.lhs.false, %entry
  %4 = bitcast %"class.xalanc_1_10::ReusableArenaAllocator"* %this1 to %"class.xalanc_1_10::ArenaAllocator"*, !dbg !2460
  %m_blocks5 = getelementptr inbounds %"class.xalanc_1_10::ArenaAllocator", %"class.xalanc_1_10::ArenaAllocator"* %4, i32 0, i32 2, !dbg !2460
  %5 = bitcast %"class.xalanc_1_10::ReusableArenaAllocator"* %this1 to %"class.xalanc_1_10::ArenaAllocator"*, !dbg !2462
  %call6 = call dereferenceable(8) %"class.xercesc_2_7::MemoryManager"* @_ZN11xalanc_1_1014ArenaAllocatorINS_14XalanDOMStringENS_18ReusableArenaBlockIS1_tEEE16getMemoryManagerEv(%"class.xalanc_1_10::ArenaAllocator"* %5), !dbg !2462
  %6 = bitcast %"class.xalanc_1_10::ReusableArenaAllocator"* %this1 to %"class.xalanc_1_10::ArenaAllocator"*, !dbg !2463
  %m_blockSize = getelementptr inbounds %"class.xalanc_1_10::ArenaAllocator", %"class.xalanc_1_10::ArenaAllocator"* %6, i32 0, i32 1, !dbg !2463
  %7 = load i16, i16* %m_blockSize, align 8, !dbg !2463
  %call7 = call %"class.xalanc_1_10::ReusableArenaBlock"* @_ZN11xalanc_1_1018ReusableArenaBlockINS_14XalanDOMStringEtE6createERN11xercesc_2_713MemoryManagerEt(%"class.xercesc_2_7::MemoryManager"* dereferenceable(8) %call6, i16 zeroext %7), !dbg !2464
  store %"class.xalanc_1_10::ReusableArenaBlock"* %call7, %"class.xalanc_1_10::ReusableArenaBlock"** %ref.tmp, align 8, !dbg !2464
  call void @_ZN11xalanc_1_109XalanListIPNS_18ReusableArenaBlockINS_14XalanDOMStringEtEEE10push_frontERKS4_(%"class.xalanc_1_10::XalanList"* %m_blocks5, %"class.xalanc_1_10::ReusableArenaBlock"** dereferenceable(8) %ref.tmp), !dbg !2465
  br label %if.end, !dbg !2466

if.end:                                           ; preds = %if.then, %lor.lhs.false
  %8 = bitcast %"class.xalanc_1_10::ReusableArenaAllocator"* %this1 to %"class.xalanc_1_10::ArenaAllocator"*, !dbg !2467
  %m_blocks8 = getelementptr inbounds %"class.xalanc_1_10::ArenaAllocator", %"class.xalanc_1_10::ArenaAllocator"* %8, i32 0, i32 2, !dbg !2467
  %call9 = call dereferenceable(8) %"class.xalanc_1_10::ReusableArenaBlock"** @_ZN11xalanc_1_109XalanListIPNS_18ReusableArenaBlockINS_14XalanDOMStringEtEEE5frontEv(%"class.xalanc_1_10::XalanList"* %m_blocks8), !dbg !2468
  %9 = load %"class.xalanc_1_10::ReusableArenaBlock"*, %"class.xalanc_1_10::ReusableArenaBlock"** %call9, align 8, !dbg !2468
  %call10 = call %"class.xalanc_1_10::XalanDOMString"* @_ZN11xalanc_1_1018ReusableArenaBlockINS_14XalanDOMStringEtE13allocateBlockEv(%"class.xalanc_1_10::ReusableArenaBlock"* %9), !dbg !2469
  ret %"class.xalanc_1_10::XalanDOMString"* %call10, !dbg !2470
}

; Function Attrs: noinline uwtable
define linkonce_odr dso_local dereferenceable(8) %"class.xercesc_2_7::MemoryManager"* @_ZN11xalanc_1_1031XalanDOMStringReusableAllocator16getMemoryManagerEv(%"class.xalanc_1_10::XalanDOMStringReusableAllocator"* %this) #0 comdat align 2 !dbg !2471 {
entry:
  %this.addr = alloca %"class.xalanc_1_10::XalanDOMStringReusableAllocator"*, align 8
  store %"class.xalanc_1_10::XalanDOMStringReusableAllocator"* %this, %"class.xalanc_1_10::XalanDOMStringReusableAllocator"** %this.addr, align 8
  call void @llvm.dbg.declare(metadata %"class.xalanc_1_10::XalanDOMStringReusableAllocator"** %this.addr, metadata !2472, metadata !DIExpression()), !dbg !2473
  %this1 = load %"class.xalanc_1_10::XalanDOMStringReusableAllocator"*, %"class.xalanc_1_10::XalanDOMStringReusableAllocator"** %this.addr, align 8
  %m_allocator = getelementptr inbounds %"class.xalanc_1_10::XalanDOMStringReusableAllocator", %"class.xalanc_1_10::XalanDOMStringReusableAllocator"* %this1, i32 0, i32 0, !dbg !2474
  %0 = bitcast %"class.xalanc_1_10::ReusableArenaAllocator"* %m_allocator to %"class.xalanc_1_10::ArenaAllocator"*, !dbg !2474
  %call = call dereferenceable(8) %"class.xercesc_2_7::MemoryManager"* @_ZN11xalanc_1_1014ArenaAllocatorINS_14XalanDOMStringENS_18ReusableArenaBlockIS1_tEEE16getMemoryManagerEv(%"class.xalanc_1_10::ArenaAllocator"* %0), !dbg !2475
  ret %"class.xercesc_2_7::MemoryManager"* %call, !dbg !2476
}

declare dso_local void @_ZN11xalanc_1_1014XalanDOMStringC1ERN11xercesc_2_713MemoryManagerE(%"class.xalanc_1_10::XalanDOMString"*, %"class.xercesc_2_7::MemoryManager"* dereferenceable(8)) unnamed_addr #3

; Function Attrs: noinline uwtable
define linkonce_odr dso_local void @_ZN11xalanc_1_1022ReusableArenaAllocatorINS_14XalanDOMStringEE16commitAllocationEPS1_(%"class.xalanc_1_10::ReusableArenaAllocator"* %this, %"class.xalanc_1_10::XalanDOMString"* %theObject) unnamed_addr #0 comdat align 2 !dbg !2477 {
entry:
  %this.addr = alloca %"class.xalanc_1_10::ReusableArenaAllocator"*, align 8
  %theObject.addr = alloca %"class.xalanc_1_10::XalanDOMString"*, align 8
  %fullBlock = alloca %"class.xalanc_1_10::ReusableArenaBlock"*, align 8
  store %"class.xalanc_1_10::ReusableArenaAllocator"* %this, %"class.xalanc_1_10::ReusableArenaAllocator"** %this.addr, align 8
  call void @llvm.dbg.declare(metadata %"class.xalanc_1_10::ReusableArenaAllocator"** %this.addr, metadata !2478, metadata !DIExpression()), !dbg !2479
  store %"class.xalanc_1_10::XalanDOMString"* %theObject, %"class.xalanc_1_10::XalanDOMString"** %theObject.addr, align 8
  call void @llvm.dbg.declare(metadata %"class.xalanc_1_10::XalanDOMString"** %theObject.addr, metadata !2480, metadata !DIExpression()), !dbg !2481
  %this1 = load %"class.xalanc_1_10::ReusableArenaAllocator"*, %"class.xalanc_1_10::ReusableArenaAllocator"** %this.addr, align 8
  %0 = bitcast %"class.xalanc_1_10::ReusableArenaAllocator"* %this1 to %"class.xalanc_1_10::ArenaAllocator"*, !dbg !2482
  %m_blocks = getelementptr inbounds %"class.xalanc_1_10::ArenaAllocator", %"class.xalanc_1_10::ArenaAllocator"* %0, i32 0, i32 2, !dbg !2482
  %call = call dereferenceable(8) %"class.xalanc_1_10::ReusableArenaBlock"** @_ZN11xalanc_1_109XalanListIPNS_18ReusableArenaBlockINS_14XalanDOMStringEtEEE5frontEv(%"class.xalanc_1_10::XalanList"* %m_blocks), !dbg !2483
  %1 = load %"class.xalanc_1_10::ReusableArenaBlock"*, %"class.xalanc_1_10::ReusableArenaBlock"** %call, align 8, !dbg !2483
  %2 = load %"class.xalanc_1_10::XalanDOMString"*, %"class.xalanc_1_10::XalanDOMString"** %theObject.addr, align 8, !dbg !2484
  call void @_ZN11xalanc_1_1018ReusableArenaBlockINS_14XalanDOMStringEtE16commitAllocationEPS1_(%"class.xalanc_1_10::ReusableArenaBlock"* %1, %"class.xalanc_1_10::XalanDOMString"* %2), !dbg !2485
  %3 = bitcast %"class.xalanc_1_10::ReusableArenaAllocator"* %this1 to %"class.xalanc_1_10::ArenaAllocator"*, !dbg !2486
  %m_blocks2 = getelementptr inbounds %"class.xalanc_1_10::ArenaAllocator", %"class.xalanc_1_10::ArenaAllocator"* %3, i32 0, i32 2, !dbg !2486
  %call3 = call dereferenceable(8) %"class.xalanc_1_10::ReusableArenaBlock"** @_ZN11xalanc_1_109XalanListIPNS_18ReusableArenaBlockINS_14XalanDOMStringEtEEE5frontEv(%"class.xalanc_1_10::XalanList"* %m_blocks2), !dbg !2488
  %4 = load %"class.xalanc_1_10::ReusableArenaBlock"*, %"class.xalanc_1_10::ReusableArenaBlock"** %call3, align 8, !dbg !2488
  %5 = bitcast %"class.xalanc_1_10::ReusableArenaBlock"* %4 to %"class.xalanc_1_10::ArenaBlockBase"*, !dbg !2489
  %call4 = call zeroext i1 @_ZNK11xalanc_1_1014ArenaBlockBaseINS_14XalanDOMStringEtE14blockAvailableEv(%"class.xalanc_1_10::ArenaBlockBase"* %5), !dbg !2489
  br i1 %call4, label %if.end, label %if.then, !dbg !2490

if.then:                                          ; preds = %entry
  call void @llvm.dbg.declare(metadata %"class.xalanc_1_10::ReusableArenaBlock"** %fullBlock, metadata !2491, metadata !DIExpression()), !dbg !2495
  %6 = bitcast %"class.xalanc_1_10::ReusableArenaAllocator"* %this1 to %"class.xalanc_1_10::ArenaAllocator"*, !dbg !2496
  %m_blocks5 = getelementptr inbounds %"class.xalanc_1_10::ArenaAllocator", %"class.xalanc_1_10::ArenaAllocator"* %6, i32 0, i32 2, !dbg !2496
  %call6 = call dereferenceable(8) %"class.xalanc_1_10::ReusableArenaBlock"** @_ZN11xalanc_1_109XalanListIPNS_18ReusableArenaBlockINS_14XalanDOMStringEtEEE5frontEv(%"class.xalanc_1_10::XalanList"* %m_blocks5), !dbg !2497
  %7 = load %"class.xalanc_1_10::ReusableArenaBlock"*, %"class.xalanc_1_10::ReusableArenaBlock"** %call6, align 8, !dbg !2497
  store %"class.xalanc_1_10::ReusableArenaBlock"* %7, %"class.xalanc_1_10::ReusableArenaBlock"** %fullBlock, align 8, !dbg !2495
  %8 = bitcast %"class.xalanc_1_10::ReusableArenaAllocator"* %this1 to %"class.xalanc_1_10::ArenaAllocator"*, !dbg !2498
  %m_blocks7 = getelementptr inbounds %"class.xalanc_1_10::ArenaAllocator", %"class.xalanc_1_10::ArenaAllocator"* %8, i32 0, i32 2, !dbg !2498
  call void @_ZN11xalanc_1_109XalanListIPNS_18ReusableArenaBlockINS_14XalanDOMStringEtEEE9pop_frontEv(%"class.xalanc_1_10::XalanList"* %m_blocks7), !dbg !2499
  %9 = bitcast %"class.xalanc_1_10::ReusableArenaAllocator"* %this1 to %"class.xalanc_1_10::ArenaAllocator"*, !dbg !2500
  %m_blocks8 = getelementptr inbounds %"class.xalanc_1_10::ArenaAllocator", %"class.xalanc_1_10::ArenaAllocator"* %9, i32 0, i32 2, !dbg !2500
  call void @_ZN11xalanc_1_109XalanListIPNS_18ReusableArenaBlockINS_14XalanDOMStringEtEEE9push_backERKS4_(%"class.xalanc_1_10::XalanList"* %m_blocks8, %"class.xalanc_1_10::ReusableArenaBlock"** dereferenceable(8) %fullBlock), !dbg !2501
  br label %if.end, !dbg !2502

if.end:                                           ; preds = %if.then, %entry
  ret void, !dbg !2503
}

; Function Attrs: noinline uwtable
define dso_local dereferenceable(40) %"class.xalanc_1_10::XalanDOMString"* @_ZN11xalanc_1_1031XalanDOMStringReusableAllocator6createEPKcj(%"class.xalanc_1_10::XalanDOMStringReusableAllocator"* %this, i8* %theString, i32 %theCount) #0 align 2 !dbg !2504 {
entry:
  %this.addr = alloca %"class.xalanc_1_10::XalanDOMStringReusableAllocator"*, align 8
  %theString.addr = alloca i8*, align 8
  %theCount.addr = alloca i32, align 4
  %theBlock = alloca %"class.xalanc_1_10::XalanDOMString"*, align 8
  %theResult = alloca %"class.xalanc_1_10::XalanDOMString"*, align 8
  store %"class.xalanc_1_10::XalanDOMStringReusableAllocator"* %this, %"class.xalanc_1_10::XalanDOMStringReusableAllocator"** %this.addr, align 8
  call void @llvm.dbg.declare(metadata %"class.xalanc_1_10::XalanDOMStringReusableAllocator"** %this.addr, metadata !2505, metadata !DIExpression()), !dbg !2506
  store i8* %theString, i8** %theString.addr, align 8
  call void @llvm.dbg.declare(metadata i8** %theString.addr, metadata !2507, metadata !DIExpression()), !dbg !2508
  store i32 %theCount, i32* %theCount.addr, align 4
  call void @llvm.dbg.declare(metadata i32* %theCount.addr, metadata !2509, metadata !DIExpression()), !dbg !2510
  %this1 = load %"class.xalanc_1_10::XalanDOMStringReusableAllocator"*, %"class.xalanc_1_10::XalanDOMStringReusableAllocator"** %this.addr, align 8
  call void @llvm.dbg.declare(metadata %"class.xalanc_1_10::XalanDOMString"** %theBlock, metadata !2511, metadata !DIExpression()), !dbg !2512
  %m_allocator = getelementptr inbounds %"class.xalanc_1_10::XalanDOMStringReusableAllocator", %"class.xalanc_1_10::XalanDOMStringReusableAllocator"* %this1, i32 0, i32 0, !dbg !2513
  %call = call %"class.xalanc_1_10::XalanDOMString"* @_ZN11xalanc_1_1022ReusableArenaAllocatorINS_14XalanDOMStringEE13allocateBlockEv(%"class.xalanc_1_10::ReusableArenaAllocator"* %m_allocator), !dbg !2514
  store %"class.xalanc_1_10::XalanDOMString"* %call, %"class.xalanc_1_10::XalanDOMString"** %theBlock, align 8, !dbg !2512
  call void @llvm.dbg.declare(metadata %"class.xalanc_1_10::XalanDOMString"** %theResult, metadata !2515, metadata !DIExpression()), !dbg !2516
  %0 = load %"class.xalanc_1_10::XalanDOMString"*, %"class.xalanc_1_10::XalanDOMString"** %theBlock, align 8, !dbg !2517
  %1 = bitcast %"class.xalanc_1_10::XalanDOMString"* %0 to i8*, !dbg !2518
  %2 = bitcast i8* %1 to %"class.xalanc_1_10::XalanDOMString"*, !dbg !2518
  %3 = load i8*, i8** %theString.addr, align 8, !dbg !2519
  %call2 = call dereferenceable(8) %"class.xercesc_2_7::MemoryManager"* @_ZN11xalanc_1_1031XalanDOMStringReusableAllocator16getMemoryManagerEv(%"class.xalanc_1_10::XalanDOMStringReusableAllocator"* %this1), !dbg !2520
  %4 = load i32, i32* %theCount.addr, align 4, !dbg !2521
  call void @_ZN11xalanc_1_1014XalanDOMStringC1EPKcRN11xercesc_2_713MemoryManagerEj(%"class.xalanc_1_10::XalanDOMString"* %2, i8* %3, %"class.xercesc_2_7::MemoryManager"* dereferenceable(8) %call2, i32 %4), !dbg !2522
  store %"class.xalanc_1_10::XalanDOMString"* %2, %"class.xalanc_1_10::XalanDOMString"** %theResult, align 8, !dbg !2516
  %m_allocator3 = getelementptr inbounds %"class.xalanc_1_10::XalanDOMStringReusableAllocator", %"class.xalanc_1_10::XalanDOMStringReusableAllocator"* %this1, i32 0, i32 0, !dbg !2523
  %5 = load %"class.xalanc_1_10::XalanDOMString"*, %"class.xalanc_1_10::XalanDOMString"** %theBlock, align 8, !dbg !2524
  call void @_ZN11xalanc_1_1022ReusableArenaAllocatorINS_14XalanDOMStringEE16commitAllocationEPS1_(%"class.xalanc_1_10::ReusableArenaAllocator"* %m_allocator3, %"class.xalanc_1_10::XalanDOMString"* %5), !dbg !2525
  %6 = load %"class.xalanc_1_10::XalanDOMString"*, %"class.xalanc_1_10::XalanDOMString"** %theResult, align 8, !dbg !2526
  ret %"class.xalanc_1_10::XalanDOMString"* %6, !dbg !2527
}

declare dso_local void @_ZN11xalanc_1_1014XalanDOMStringC1EPKcRN11xercesc_2_713MemoryManagerEj(%"class.xalanc_1_10::XalanDOMString"*, i8*, %"class.xercesc_2_7::MemoryManager"* dereferenceable(8), i32) unnamed_addr #3

; Function Attrs: noinline uwtable
define dso_local dereferenceable(40) %"class.xalanc_1_10::XalanDOMString"* @_ZN11xalanc_1_1031XalanDOMStringReusableAllocator6createERKNS_14XalanDOMStringEjj(%"class.xalanc_1_10::XalanDOMStringReusableAllocator"* %this, %"class.xalanc_1_10::XalanDOMString"* dereferenceable(40) %theSource, i32 %theStartPosition, i32 %theCount) #0 align 2 !dbg !2528 {
entry:
  %this.addr = alloca %"class.xalanc_1_10::XalanDOMStringReusableAllocator"*, align 8
  %theSource.addr = alloca %"class.xalanc_1_10::XalanDOMString"*, align 8
  %theStartPosition.addr = alloca i32, align 4
  %theCount.addr = alloca i32, align 4
  %theBlock = alloca %"class.xalanc_1_10::XalanDOMString"*, align 8
  %theResult = alloca %"class.xalanc_1_10::XalanDOMString"*, align 8
  store %"class.xalanc_1_10::XalanDOMStringReusableAllocator"* %this, %"class.xalanc_1_10::XalanDOMStringReusableAllocator"** %this.addr, align 8
  call void @llvm.dbg.declare(metadata %"class.xalanc_1_10::XalanDOMStringReusableAllocator"** %this.addr, metadata !2529, metadata !DIExpression()), !dbg !2530
  store %"class.xalanc_1_10::XalanDOMString"* %theSource, %"class.xalanc_1_10::XalanDOMString"** %theSource.addr, align 8
  call void @llvm.dbg.declare(metadata %"class.xalanc_1_10::XalanDOMString"** %theSource.addr, metadata !2531, metadata !DIExpression()), !dbg !2532
  store i32 %theStartPosition, i32* %theStartPosition.addr, align 4
  call void @llvm.dbg.declare(metadata i32* %theStartPosition.addr, metadata !2533, metadata !DIExpression()), !dbg !2534
  store i32 %theCount, i32* %theCount.addr, align 4
  call void @llvm.dbg.declare(metadata i32* %theCount.addr, metadata !2535, metadata !DIExpression()), !dbg !2536
  %this1 = load %"class.xalanc_1_10::XalanDOMStringReusableAllocator"*, %"class.xalanc_1_10::XalanDOMStringReusableAllocator"** %this.addr, align 8
  call void @llvm.dbg.declare(metadata %"class.xalanc_1_10::XalanDOMString"** %theBlock, metadata !2537, metadata !DIExpression()), !dbg !2538
  %m_allocator = getelementptr inbounds %"class.xalanc_1_10::XalanDOMStringReusableAllocator", %"class.xalanc_1_10::XalanDOMStringReusableAllocator"* %this1, i32 0, i32 0, !dbg !2539
  %call = call %"class.xalanc_1_10::XalanDOMString"* @_ZN11xalanc_1_1022ReusableArenaAllocatorINS_14XalanDOMStringEE13allocateBlockEv(%"class.xalanc_1_10::ReusableArenaAllocator"* %m_allocator), !dbg !2540
  store %"class.xalanc_1_10::XalanDOMString"* %call, %"class.xalanc_1_10::XalanDOMString"** %theBlock, align 8, !dbg !2538
  call void @llvm.dbg.declare(metadata %"class.xalanc_1_10::XalanDOMString"** %theResult, metadata !2541, metadata !DIExpression()), !dbg !2542
  %0 = load %"class.xalanc_1_10::XalanDOMString"*, %"class.xalanc_1_10::XalanDOMString"** %theBlock, align 8, !dbg !2543
  %1 = bitcast %"class.xalanc_1_10::XalanDOMString"* %0 to i8*, !dbg !2544
  %2 = bitcast i8* %1 to %"class.xalanc_1_10::XalanDOMString"*, !dbg !2544
  %3 = load %"class.xalanc_1_10::XalanDOMString"*, %"class.xalanc_1_10::XalanDOMString"** %theSource.addr, align 8, !dbg !2545
  %call2 = call dereferenceable(8) %"class.xercesc_2_7::MemoryManager"* @_ZN11xalanc_1_1031XalanDOMStringReusableAllocator16getMemoryManagerEv(%"class.xalanc_1_10::XalanDOMStringReusableAllocator"* %this1), !dbg !2546
  %4 = load i32, i32* %theStartPosition.addr, align 4, !dbg !2547
  %5 = load i32, i32* %theCount.addr, align 4, !dbg !2548
  call void @_ZN11xalanc_1_1014XalanDOMStringC1ERKS0_RN11xercesc_2_713MemoryManagerEjj(%"class.xalanc_1_10::XalanDOMString"* %2, %"class.xalanc_1_10::XalanDOMString"* dereferenceable(40) %3, %"class.xercesc_2_7::MemoryManager"* dereferenceable(8) %call2, i32 %4, i32 %5), !dbg !2549
  store %"class.xalanc_1_10::XalanDOMString"* %2, %"class.xalanc_1_10::XalanDOMString"** %theResult, align 8, !dbg !2542
  %m_allocator3 = getelementptr inbounds %"class.xalanc_1_10::XalanDOMStringReusableAllocator", %"class.xalanc_1_10::XalanDOMStringReusableAllocator"* %this1, i32 0, i32 0, !dbg !2550
  %6 = load %"class.xalanc_1_10::XalanDOMString"*, %"class.xalanc_1_10::XalanDOMString"** %theBlock, align 8, !dbg !2551
  call void @_ZN11xalanc_1_1022ReusableArenaAllocatorINS_14XalanDOMStringEE16commitAllocationEPS1_(%"class.xalanc_1_10::ReusableArenaAllocator"* %m_allocator3, %"class.xalanc_1_10::XalanDOMString"* %6), !dbg !2552
  %7 = load %"class.xalanc_1_10::XalanDOMString"*, %"class.xalanc_1_10::XalanDOMString"** %theResult, align 8, !dbg !2553
  ret %"class.xalanc_1_10::XalanDOMString"* %7, !dbg !2554
}

declare dso_local void @_ZN11xalanc_1_1014XalanDOMStringC1ERKS0_RN11xercesc_2_713MemoryManagerEjj(%"class.xalanc_1_10::XalanDOMString"*, %"class.xalanc_1_10::XalanDOMString"* dereferenceable(40), %"class.xercesc_2_7::MemoryManager"* dereferenceable(8), i32, i32) unnamed_addr #3

; Function Attrs: noinline uwtable
define dso_local dereferenceable(40) %"class.xalanc_1_10::XalanDOMString"* @_ZN11xalanc_1_1031XalanDOMStringReusableAllocator6createEPKtj(%"class.xalanc_1_10::XalanDOMStringReusableAllocator"* %this, i16* %theString, i32 %theCount) #0 align 2 !dbg !2555 {
entry:
  %this.addr = alloca %"class.xalanc_1_10::XalanDOMStringReusableAllocator"*, align 8
  %theString.addr = alloca i16*, align 8
  %theCount.addr = alloca i32, align 4
  %theBlock = alloca %"class.xalanc_1_10::XalanDOMString"*, align 8
  %theResult = alloca %"class.xalanc_1_10::XalanDOMString"*, align 8
  store %"class.xalanc_1_10::XalanDOMStringReusableAllocator"* %this, %"class.xalanc_1_10::XalanDOMStringReusableAllocator"** %this.addr, align 8
  call void @llvm.dbg.declare(metadata %"class.xalanc_1_10::XalanDOMStringReusableAllocator"** %this.addr, metadata !2556, metadata !DIExpression()), !dbg !2557
  store i16* %theString, i16** %theString.addr, align 8
  call void @llvm.dbg.declare(metadata i16** %theString.addr, metadata !2558, metadata !DIExpression()), !dbg !2559
  store i32 %theCount, i32* %theCount.addr, align 4
  call void @llvm.dbg.declare(metadata i32* %theCount.addr, metadata !2560, metadata !DIExpression()), !dbg !2561
  %this1 = load %"class.xalanc_1_10::XalanDOMStringReusableAllocator"*, %"class.xalanc_1_10::XalanDOMStringReusableAllocator"** %this.addr, align 8
  call void @llvm.dbg.declare(metadata %"class.xalanc_1_10::XalanDOMString"** %theBlock, metadata !2562, metadata !DIExpression()), !dbg !2563
  %m_allocator = getelementptr inbounds %"class.xalanc_1_10::XalanDOMStringReusableAllocator", %"class.xalanc_1_10::XalanDOMStringReusableAllocator"* %this1, i32 0, i32 0, !dbg !2564
  %call = call %"class.xalanc_1_10::XalanDOMString"* @_ZN11xalanc_1_1022ReusableArenaAllocatorINS_14XalanDOMStringEE13allocateBlockEv(%"class.xalanc_1_10::ReusableArenaAllocator"* %m_allocator), !dbg !2565
  store %"class.xalanc_1_10::XalanDOMString"* %call, %"class.xalanc_1_10::XalanDOMString"** %theBlock, align 8, !dbg !2563
  call void @llvm.dbg.declare(metadata %"class.xalanc_1_10::XalanDOMString"** %theResult, metadata !2566, metadata !DIExpression()), !dbg !2567
  %0 = load %"class.xalanc_1_10::XalanDOMString"*, %"class.xalanc_1_10::XalanDOMString"** %theBlock, align 8, !dbg !2568
  %1 = bitcast %"class.xalanc_1_10::XalanDOMString"* %0 to i8*, !dbg !2569
  %2 = bitcast i8* %1 to %"class.xalanc_1_10::XalanDOMString"*, !dbg !2569
  %3 = load i16*, i16** %theString.addr, align 8, !dbg !2570
  %call2 = call dereferenceable(8) %"class.xercesc_2_7::MemoryManager"* @_ZN11xalanc_1_1031XalanDOMStringReusableAllocator16getMemoryManagerEv(%"class.xalanc_1_10::XalanDOMStringReusableAllocator"* %this1), !dbg !2571
  %4 = load i32, i32* %theCount.addr, align 4, !dbg !2572
  call void @_ZN11xalanc_1_1014XalanDOMStringC1EPKtRN11xercesc_2_713MemoryManagerEj(%"class.xalanc_1_10::XalanDOMString"* %2, i16* %3, %"class.xercesc_2_7::MemoryManager"* dereferenceable(8) %call2, i32 %4), !dbg !2573
  store %"class.xalanc_1_10::XalanDOMString"* %2, %"class.xalanc_1_10::XalanDOMString"** %theResult, align 8, !dbg !2567
  %m_allocator3 = getelementptr inbounds %"class.xalanc_1_10::XalanDOMStringReusableAllocator", %"class.xalanc_1_10::XalanDOMStringReusableAllocator"* %this1, i32 0, i32 0, !dbg !2574
  %5 = load %"class.xalanc_1_10::XalanDOMString"*, %"class.xalanc_1_10::XalanDOMString"** %theBlock, align 8, !dbg !2575
  call void @_ZN11xalanc_1_1022ReusableArenaAllocatorINS_14XalanDOMStringEE16commitAllocationEPS1_(%"class.xalanc_1_10::ReusableArenaAllocator"* %m_allocator3, %"class.xalanc_1_10::XalanDOMString"* %5), !dbg !2576
  %6 = load %"class.xalanc_1_10::XalanDOMString"*, %"class.xalanc_1_10::XalanDOMString"** %theResult, align 8, !dbg !2577
  ret %"class.xalanc_1_10::XalanDOMString"* %6, !dbg !2578
}

declare dso_local void @_ZN11xalanc_1_1014XalanDOMStringC1EPKtRN11xercesc_2_713MemoryManagerEj(%"class.xalanc_1_10::XalanDOMString"*, i16*, %"class.xercesc_2_7::MemoryManager"* dereferenceable(8), i32) unnamed_addr #3

; Function Attrs: noinline uwtable
define dso_local dereferenceable(40) %"class.xalanc_1_10::XalanDOMString"* @_ZN11xalanc_1_1031XalanDOMStringReusableAllocator6createEjt(%"class.xalanc_1_10::XalanDOMStringReusableAllocator"* %this, i32 %theCount, i16 zeroext %theChar) #0 align 2 !dbg !2579 {
entry:
  %this.addr = alloca %"class.xalanc_1_10::XalanDOMStringReusableAllocator"*, align 8
  %theCount.addr = alloca i32, align 4
  %theChar.addr = alloca i16, align 2
  %theBlock = alloca %"class.xalanc_1_10::XalanDOMString"*, align 8
  %theResult = alloca %"class.xalanc_1_10::XalanDOMString"*, align 8
  store %"class.xalanc_1_10::XalanDOMStringReusableAllocator"* %this, %"class.xalanc_1_10::XalanDOMStringReusableAllocator"** %this.addr, align 8
  call void @llvm.dbg.declare(metadata %"class.xalanc_1_10::XalanDOMStringReusableAllocator"** %this.addr, metadata !2580, metadata !DIExpression()), !dbg !2581
  store i32 %theCount, i32* %theCount.addr, align 4
  call void @llvm.dbg.declare(metadata i32* %theCount.addr, metadata !2582, metadata !DIExpression()), !dbg !2583
  store i16 %theChar, i16* %theChar.addr, align 2
  call void @llvm.dbg.declare(metadata i16* %theChar.addr, metadata !2584, metadata !DIExpression()), !dbg !2585
  %this1 = load %"class.xalanc_1_10::XalanDOMStringReusableAllocator"*, %"class.xalanc_1_10::XalanDOMStringReusableAllocator"** %this.addr, align 8
  call void @llvm.dbg.declare(metadata %"class.xalanc_1_10::XalanDOMString"** %theBlock, metadata !2586, metadata !DIExpression()), !dbg !2587
  %m_allocator = getelementptr inbounds %"class.xalanc_1_10::XalanDOMStringReusableAllocator", %"class.xalanc_1_10::XalanDOMStringReusableAllocator"* %this1, i32 0, i32 0, !dbg !2588
  %call = call %"class.xalanc_1_10::XalanDOMString"* @_ZN11xalanc_1_1022ReusableArenaAllocatorINS_14XalanDOMStringEE13allocateBlockEv(%"class.xalanc_1_10::ReusableArenaAllocator"* %m_allocator), !dbg !2589
  store %"class.xalanc_1_10::XalanDOMString"* %call, %"class.xalanc_1_10::XalanDOMString"** %theBlock, align 8, !dbg !2587
  call void @llvm.dbg.declare(metadata %"class.xalanc_1_10::XalanDOMString"** %theResult, metadata !2590, metadata !DIExpression()), !dbg !2591
  %0 = load %"class.xalanc_1_10::XalanDOMString"*, %"class.xalanc_1_10::XalanDOMString"** %theBlock, align 8, !dbg !2592
  %1 = bitcast %"class.xalanc_1_10::XalanDOMString"* %0 to i8*, !dbg !2593
  %2 = bitcast i8* %1 to %"class.xalanc_1_10::XalanDOMString"*, !dbg !2593
  %3 = load i32, i32* %theCount.addr, align 4, !dbg !2594
  %4 = load i16, i16* %theChar.addr, align 2, !dbg !2595
  %call2 = call dereferenceable(8) %"class.xercesc_2_7::MemoryManager"* @_ZN11xalanc_1_1031XalanDOMStringReusableAllocator16getMemoryManagerEv(%"class.xalanc_1_10::XalanDOMStringReusableAllocator"* %this1), !dbg !2596
  call void @_ZN11xalanc_1_1014XalanDOMStringC1EjtRN11xercesc_2_713MemoryManagerE(%"class.xalanc_1_10::XalanDOMString"* %2, i32 %3, i16 zeroext %4, %"class.xercesc_2_7::MemoryManager"* dereferenceable(8) %call2), !dbg !2597
  store %"class.xalanc_1_10::XalanDOMString"* %2, %"class.xalanc_1_10::XalanDOMString"** %theResult, align 8, !dbg !2591
  %m_allocator3 = getelementptr inbounds %"class.xalanc_1_10::XalanDOMStringReusableAllocator", %"class.xalanc_1_10::XalanDOMStringReusableAllocator"* %this1, i32 0, i32 0, !dbg !2598
  %5 = load %"class.xalanc_1_10::XalanDOMString"*, %"class.xalanc_1_10::XalanDOMString"** %theBlock, align 8, !dbg !2599
  call void @_ZN11xalanc_1_1022ReusableArenaAllocatorINS_14XalanDOMStringEE16commitAllocationEPS1_(%"class.xalanc_1_10::ReusableArenaAllocator"* %m_allocator3, %"class.xalanc_1_10::XalanDOMString"* %5), !dbg !2600
  %6 = load %"class.xalanc_1_10::XalanDOMString"*, %"class.xalanc_1_10::XalanDOMString"** %theResult, align 8, !dbg !2601
  ret %"class.xalanc_1_10::XalanDOMString"* %6, !dbg !2602
}

declare dso_local void @_ZN11xalanc_1_1014XalanDOMStringC1EjtRN11xercesc_2_713MemoryManagerE(%"class.xalanc_1_10::XalanDOMString"*, i32, i16 zeroext, %"class.xercesc_2_7::MemoryManager"* dereferenceable(8)) unnamed_addr #3

; Function Attrs: noinline uwtable
define linkonce_odr dso_local dereferenceable(8) %"class.xercesc_2_7::MemoryManager"* @_ZN11xalanc_1_1014ArenaAllocatorINS_14XalanDOMStringENS_18ReusableArenaBlockIS1_tEEE16getMemoryManagerEv(%"class.xalanc_1_10::ArenaAllocator"* %this) #0 comdat align 2 !dbg !2603 {
entry:
  %this.addr = alloca %"class.xalanc_1_10::ArenaAllocator"*, align 8
  store %"class.xalanc_1_10::ArenaAllocator"* %this, %"class.xalanc_1_10::ArenaAllocator"** %this.addr, align 8
  call void @llvm.dbg.declare(metadata %"class.xalanc_1_10::ArenaAllocator"** %this.addr, metadata !2604, metadata !DIExpression()), !dbg !2606
  %this1 = load %"class.xalanc_1_10::ArenaAllocator"*, %"class.xalanc_1_10::ArenaAllocator"** %this.addr, align 8
  %m_blocks = getelementptr inbounds %"class.xalanc_1_10::ArenaAllocator", %"class.xalanc_1_10::ArenaAllocator"* %this1, i32 0, i32 2, !dbg !2607
  %call = call dereferenceable(8) %"class.xercesc_2_7::MemoryManager"* @_ZN11xalanc_1_109XalanListIPNS_18ReusableArenaBlockINS_14XalanDOMStringEtEEE16getMemoryManagerEv(%"class.xalanc_1_10::XalanList"* %m_blocks), !dbg !2608
  ret %"class.xercesc_2_7::MemoryManager"* %call, !dbg !2609
}

; Function Attrs: noinline nounwind uwtable
define linkonce_odr dso_local dereferenceable(8) %"class.xercesc_2_7::MemoryManager"* @_ZN11xalanc_1_109XalanListIPNS_18ReusableArenaBlockINS_14XalanDOMStringEtEEE16getMemoryManagerEv(%"class.xalanc_1_10::XalanList"* %this) #2 comdat align 2 !dbg !2610 {
entry:
  %this.addr = alloca %"class.xalanc_1_10::XalanList"*, align 8
  store %"class.xalanc_1_10::XalanList"* %this, %"class.xalanc_1_10::XalanList"** %this.addr, align 8
  call void @llvm.dbg.declare(metadata %"class.xalanc_1_10::XalanList"** %this.addr, metadata !2611, metadata !DIExpression()), !dbg !2612
  %this1 = load %"class.xalanc_1_10::XalanList"*, %"class.xalanc_1_10::XalanList"** %this.addr, align 8
  %m_memoryManager = getelementptr inbounds %"class.xalanc_1_10::XalanList", %"class.xalanc_1_10::XalanList"* %this1, i32 0, i32 0, !dbg !2613
  %0 = load %"class.xercesc_2_7::MemoryManager"*, %"class.xercesc_2_7::MemoryManager"** %m_memoryManager, align 8, !dbg !2613
  ret %"class.xercesc_2_7::MemoryManager"* %0, !dbg !2614
}

; Function Attrs: noinline uwtable
define linkonce_odr dso_local void @_ZN11xalanc_1_1014ArenaAllocatorINS_14XalanDOMStringENS_18ReusableArenaBlockIS1_tEEEC2ERN11xercesc_2_713MemoryManagerEt(%"class.xalanc_1_10::ArenaAllocator"* %this, %"class.xercesc_2_7::MemoryManager"* dereferenceable(8) %theManager, i16 zeroext %theBlockSize) unnamed_addr #0 comdat align 2 !dbg !2615 {
entry:
  %this.addr = alloca %"class.xalanc_1_10::ArenaAllocator"*, align 8
  %theManager.addr = alloca %"class.xercesc_2_7::MemoryManager"*, align 8
  %theBlockSize.addr = alloca i16, align 2
  store %"class.xalanc_1_10::ArenaAllocator"* %this, %"class.xalanc_1_10::ArenaAllocator"** %this.addr, align 8
  call void @llvm.dbg.declare(metadata %"class.xalanc_1_10::ArenaAllocator"** %this.addr, metadata !2616, metadata !DIExpression()), !dbg !2617
  store %"class.xercesc_2_7::MemoryManager"* %theManager, %"class.xercesc_2_7::MemoryManager"** %theManager.addr, align 8
  call void @llvm.dbg.declare(metadata %"class.xercesc_2_7::MemoryManager"** %theManager.addr, metadata !2618, metadata !DIExpression()), !dbg !2619
  store i16 %theBlockSize, i16* %theBlockSize.addr, align 2
  call void @llvm.dbg.declare(metadata i16* %theBlockSize.addr, metadata !2620, metadata !DIExpression()), !dbg !2621
  %this1 = load %"class.xalanc_1_10::ArenaAllocator"*, %"class.xalanc_1_10::ArenaAllocator"** %this.addr, align 8
  %0 = bitcast %"class.xalanc_1_10::ArenaAllocator"* %this1 to i32 (...)***, !dbg !2622
  store i32 (...)** bitcast (i8** getelementptr inbounds ({ [8 x i8*] }, { [8 x i8*] }* @_ZTVN11xalanc_1_1014ArenaAllocatorINS_14XalanDOMStringENS_18ReusableArenaBlockIS1_tEEEE, i32 0, inrange i32 0, i32 2) to i32 (...)**), i32 (...)*** %0, align 8, !dbg !2622
  %m_blockSize = getelementptr inbounds %"class.xalanc_1_10::ArenaAllocator", %"class.xalanc_1_10::ArenaAllocator"* %this1, i32 0, i32 1, !dbg !2623
  %1 = load i16, i16* %theBlockSize.addr, align 2, !dbg !2624
  store i16 %1, i16* %m_blockSize, align 8, !dbg !2623
  %m_blocks = getelementptr inbounds %"class.xalanc_1_10::ArenaAllocator", %"class.xalanc_1_10::ArenaAllocator"* %this1, i32 0, i32 2, !dbg !2625
  %2 = load %"class.xercesc_2_7::MemoryManager"*, %"class.xercesc_2_7::MemoryManager"** %theManager.addr, align 8, !dbg !2626
  call void @_ZN11xalanc_1_109XalanListIPNS_18ReusableArenaBlockINS_14XalanDOMStringEtEEEC2ERN11xercesc_2_713MemoryManagerE(%"class.xalanc_1_10::XalanList"* %m_blocks, %"class.xercesc_2_7::MemoryManager"* dereferenceable(8) %2), !dbg !2625
  ret void, !dbg !2627
}

; Function Attrs: noinline nounwind uwtable
define linkonce_odr dso_local void @_ZN11xalanc_1_1022ReusableArenaAllocatorINS_14XalanDOMStringEED0Ev(%"class.xalanc_1_10::ReusableArenaAllocator"* %this) unnamed_addr #2 comdat align 2 !dbg !2628 {
entry:
  %this.addr = alloca %"class.xalanc_1_10::ReusableArenaAllocator"*, align 8
  store %"class.xalanc_1_10::ReusableArenaAllocator"* %this, %"class.xalanc_1_10::ReusableArenaAllocator"** %this.addr, align 8
  call void @llvm.dbg.declare(metadata %"class.xalanc_1_10::ReusableArenaAllocator"** %this.addr, metadata !2629, metadata !DIExpression()), !dbg !2630
  %this1 = load %"class.xalanc_1_10::ReusableArenaAllocator"*, %"class.xalanc_1_10::ReusableArenaAllocator"** %this.addr, align 8
  call void @_ZN11xalanc_1_1022ReusableArenaAllocatorINS_14XalanDOMStringEED2Ev(%"class.xalanc_1_10::ReusableArenaAllocator"* %this1) #7, !dbg !2631
  %0 = bitcast %"class.xalanc_1_10::ReusableArenaAllocator"* %this1 to i8*, !dbg !2631
  call void @_ZdlPv(i8* %0) #8, !dbg !2631
  ret void, !dbg !2632
}

; Function Attrs: noinline uwtable
define linkonce_odr dso_local zeroext i1 @_ZNK11xalanc_1_1022ReusableArenaAllocatorINS_14XalanDOMStringEE10ownsObjectEPKS1_(%"class.xalanc_1_10::ReusableArenaAllocator"* %this, %"class.xalanc_1_10::XalanDOMString"* %theObject) unnamed_addr #0 comdat align 2 !dbg !2633 {
entry:
  %retval = alloca i1, align 1
  %this.addr = alloca %"class.xalanc_1_10::ReusableArenaAllocator"*, align 8
  %theObject.addr = alloca %"class.xalanc_1_10::XalanDOMString"*, align 8
  %iTerator = alloca %"struct.xalanc_1_10::XalanListIteratorBase.0", align 8
  %iEnd = alloca %"struct.xalanc_1_10::XalanListIteratorBase.0", align 8
  %coerce = alloca %"struct.xalanc_1_10::XalanListIteratorBase.0", align 8
  %rIterator = alloca %"class.std::reverse_iterator", align 8
  %rEnd = alloca %"class.std::reverse_iterator", align 8
  store %"class.xalanc_1_10::ReusableArenaAllocator"* %this, %"class.xalanc_1_10::ReusableArenaAllocator"** %this.addr, align 8
  call void @llvm.dbg.declare(metadata %"class.xalanc_1_10::ReusableArenaAllocator"** %this.addr, metadata !2634, metadata !DIExpression()), !dbg !2636
  store %"class.xalanc_1_10::XalanDOMString"* %theObject, %"class.xalanc_1_10::XalanDOMString"** %theObject.addr, align 8
  call void @llvm.dbg.declare(metadata %"class.xalanc_1_10::XalanDOMString"** %theObject.addr, metadata !2637, metadata !DIExpression()), !dbg !2638
  %this1 = load %"class.xalanc_1_10::ReusableArenaAllocator"*, %"class.xalanc_1_10::ReusableArenaAllocator"** %this.addr, align 8
  %0 = bitcast %"class.xalanc_1_10::ReusableArenaAllocator"* %this1 to %"class.xalanc_1_10::ArenaAllocator"*, !dbg !2639
  %m_blocks = getelementptr inbounds %"class.xalanc_1_10::ArenaAllocator", %"class.xalanc_1_10::ArenaAllocator"* %0, i32 0, i32 2, !dbg !2639
  %call = call zeroext i1 @_ZNK11xalanc_1_109XalanListIPNS_18ReusableArenaBlockINS_14XalanDOMStringEtEEE5emptyEv(%"class.xalanc_1_10::XalanList"* %m_blocks), !dbg !2641
  br i1 %call, label %if.then, label %if.end, !dbg !2642

if.then:                                          ; preds = %entry
  store i1 false, i1* %retval, align 1, !dbg !2643
  br label %return, !dbg !2643

if.end:                                           ; preds = %entry
  call void @llvm.dbg.declare(metadata %"struct.xalanc_1_10::XalanListIteratorBase.0"* %iTerator, metadata !2644, metadata !DIExpression()), !dbg !2646
  %1 = bitcast %"class.xalanc_1_10::ReusableArenaAllocator"* %this1 to %"class.xalanc_1_10::ArenaAllocator"*, !dbg !2647
  %m_blocks2 = getelementptr inbounds %"class.xalanc_1_10::ArenaAllocator", %"class.xalanc_1_10::ArenaAllocator"* %1, i32 0, i32 2, !dbg !2647
  %call3 = call %"struct.xalanc_1_10::XalanList<xalanc_1_10::ReusableArenaBlock<xalanc_1_10::XalanDOMString, unsigned short> *>::Node"* @_ZNK11xalanc_1_109XalanListIPNS_18ReusableArenaBlockINS_14XalanDOMStringEtEEE5beginEv(%"class.xalanc_1_10::XalanList"* %m_blocks2), !dbg !2648
  %coerce.dive = getelementptr inbounds %"struct.xalanc_1_10::XalanListIteratorBase.0", %"struct.xalanc_1_10::XalanListIteratorBase.0"* %iTerator, i32 0, i32 0, !dbg !2648
  store %"struct.xalanc_1_10::XalanList<xalanc_1_10::ReusableArenaBlock<xalanc_1_10::XalanDOMString, unsigned short> *>::Node"* %call3, %"struct.xalanc_1_10::XalanList<xalanc_1_10::ReusableArenaBlock<xalanc_1_10::XalanDOMString, unsigned short> *>::Node"** %coerce.dive, align 8, !dbg !2648
  call void @llvm.dbg.declare(metadata %"struct.xalanc_1_10::XalanListIteratorBase.0"* %iEnd, metadata !2649, metadata !DIExpression()), !dbg !2650
  %2 = bitcast %"class.xalanc_1_10::ReusableArenaAllocator"* %this1 to %"class.xalanc_1_10::ArenaAllocator"*, !dbg !2651
  %m_blocks4 = getelementptr inbounds %"class.xalanc_1_10::ArenaAllocator", %"class.xalanc_1_10::ArenaAllocator"* %2, i32 0, i32 2, !dbg !2651
  %call5 = call %"struct.xalanc_1_10::XalanList<xalanc_1_10::ReusableArenaBlock<xalanc_1_10::XalanDOMString, unsigned short> *>::Node"* @_ZNK11xalanc_1_109XalanListIPNS_18ReusableArenaBlockINS_14XalanDOMStringEtEEE3endEv(%"class.xalanc_1_10::XalanList"* %m_blocks4), !dbg !2652
  %coerce.dive6 = getelementptr inbounds %"struct.xalanc_1_10::XalanListIteratorBase.0", %"struct.xalanc_1_10::XalanListIteratorBase.0"* %iEnd, i32 0, i32 0, !dbg !2652
  store %"struct.xalanc_1_10::XalanList<xalanc_1_10::ReusableArenaBlock<xalanc_1_10::XalanDOMString, unsigned short> *>::Node"* %call5, %"struct.xalanc_1_10::XalanList<xalanc_1_10::ReusableArenaBlock<xalanc_1_10::XalanDOMString, unsigned short> *>::Node"** %coerce.dive6, align 8, !dbg !2652
  br label %while.cond, !dbg !2653

while.cond:                                       ; preds = %if.end13, %if.end
  %call7 = call zeroext i1 @_ZNK11xalanc_1_1021XalanListIteratorBaseINS_28XalanListConstIteratorTraitsIPNS_18ReusableArenaBlockINS_14XalanDOMStringEtEEEENS_9XalanListIS5_E4NodeEEneERKSA_(%"struct.xalanc_1_10::XalanListIteratorBase.0"* %iTerator, %"struct.xalanc_1_10::XalanListIteratorBase.0"* dereferenceable(8) %iEnd), !dbg !2654
  br i1 %call7, label %land.rhs, label %land.end, !dbg !2655

land.rhs:                                         ; preds = %while.cond
  %call8 = call dereferenceable(8) %"class.xalanc_1_10::ReusableArenaBlock"** @_ZNK11xalanc_1_1021XalanListIteratorBaseINS_28XalanListConstIteratorTraitsIPNS_18ReusableArenaBlockINS_14XalanDOMStringEtEEEENS_9XalanListIS5_E4NodeEEdeEv(%"struct.xalanc_1_10::XalanListIteratorBase.0"* %iTerator), !dbg !2656
  %3 = load %"class.xalanc_1_10::ReusableArenaBlock"*, %"class.xalanc_1_10::ReusableArenaBlock"** %call8, align 8, !dbg !2656
  %4 = bitcast %"class.xalanc_1_10::ReusableArenaBlock"* %3 to %"class.xalanc_1_10::ArenaBlockBase"*, !dbg !2657
  %call9 = call zeroext i1 @_ZNK11xalanc_1_1014ArenaBlockBaseINS_14XalanDOMStringEtE14blockAvailableEv(%"class.xalanc_1_10::ArenaBlockBase"* %4), !dbg !2657
  br label %land.end

land.end:                                         ; preds = %land.rhs, %while.cond
  %5 = phi i1 [ false, %while.cond ], [ %call9, %land.rhs ], !dbg !2636
  br i1 %5, label %while.body, label %while.end, !dbg !2653

while.body:                                       ; preds = %land.end
  %call10 = call dereferenceable(8) %"class.xalanc_1_10::ReusableArenaBlock"** @_ZNK11xalanc_1_1021XalanListIteratorBaseINS_28XalanListConstIteratorTraitsIPNS_18ReusableArenaBlockINS_14XalanDOMStringEtEEEENS_9XalanListIS5_E4NodeEEdeEv(%"struct.xalanc_1_10::XalanListIteratorBase.0"* %iTerator), !dbg !2658
  %6 = load %"class.xalanc_1_10::ReusableArenaBlock"*, %"class.xalanc_1_10::ReusableArenaBlock"** %call10, align 8, !dbg !2658
  %7 = bitcast %"class.xalanc_1_10::ReusableArenaBlock"* %6 to %"class.xalanc_1_10::ArenaBlockBase"*, !dbg !2661
  %8 = load %"class.xalanc_1_10::XalanDOMString"*, %"class.xalanc_1_10::XalanDOMString"** %theObject.addr, align 8, !dbg !2662
  %call11 = call zeroext i1 @_ZNK11xalanc_1_1014ArenaBlockBaseINS_14XalanDOMStringEtE9ownsBlockEPKS1_(%"class.xalanc_1_10::ArenaBlockBase"* %7, %"class.xalanc_1_10::XalanDOMString"* %8), !dbg !2661
  br i1 %call11, label %if.then12, label %if.end13, !dbg !2663

if.then12:                                        ; preds = %while.body
  store i1 true, i1* %retval, align 1, !dbg !2664
  br label %return, !dbg !2664

if.end13:                                         ; preds = %while.body
  %call14 = call %"struct.xalanc_1_10::XalanList<xalanc_1_10::ReusableArenaBlock<xalanc_1_10::XalanDOMString, unsigned short> *>::Node"* @_ZN11xalanc_1_1021XalanListIteratorBaseINS_28XalanListConstIteratorTraitsIPNS_18ReusableArenaBlockINS_14XalanDOMStringEtEEEENS_9XalanListIS5_E4NodeEEppEv(%"struct.xalanc_1_10::XalanListIteratorBase.0"* %iTerator), !dbg !2666
  %coerce.dive15 = getelementptr inbounds %"struct.xalanc_1_10::XalanListIteratorBase.0", %"struct.xalanc_1_10::XalanListIteratorBase.0"* %coerce, i32 0, i32 0, !dbg !2666
  store %"struct.xalanc_1_10::XalanList<xalanc_1_10::ReusableArenaBlock<xalanc_1_10::XalanDOMString, unsigned short> *>::Node"* %call14, %"struct.xalanc_1_10::XalanList<xalanc_1_10::ReusableArenaBlock<xalanc_1_10::XalanDOMString, unsigned short> *>::Node"** %coerce.dive15, align 8, !dbg !2666
  br label %while.cond, !dbg !2653, !llvm.loop !2667

while.end:                                        ; preds = %land.end
  call void @llvm.dbg.declare(metadata %"class.std::reverse_iterator"* %rIterator, metadata !2669, metadata !DIExpression()), !dbg !2671
  %9 = bitcast %"class.xalanc_1_10::ReusableArenaAllocator"* %this1 to %"class.xalanc_1_10::ArenaAllocator"*, !dbg !2672
  %m_blocks16 = getelementptr inbounds %"class.xalanc_1_10::ArenaAllocator", %"class.xalanc_1_10::ArenaAllocator"* %9, i32 0, i32 2, !dbg !2672
  call void @_ZNK11xalanc_1_109XalanListIPNS_18ReusableArenaBlockINS_14XalanDOMStringEtEEE6rbeginEv(%"class.std::reverse_iterator"* sret %rIterator, %"class.xalanc_1_10::XalanList"* %m_blocks16), !dbg !2673
  call void @llvm.dbg.declare(metadata %"class.std::reverse_iterator"* %rEnd, metadata !2674, metadata !DIExpression()), !dbg !2675
  %10 = bitcast %"class.xalanc_1_10::ReusableArenaAllocator"* %this1 to %"class.xalanc_1_10::ArenaAllocator"*, !dbg !2676
  %m_blocks17 = getelementptr inbounds %"class.xalanc_1_10::ArenaAllocator", %"class.xalanc_1_10::ArenaAllocator"* %10, i32 0, i32 2, !dbg !2676
  call void @_ZNK11xalanc_1_109XalanListIPNS_18ReusableArenaBlockINS_14XalanDOMStringEtEEE4rendEv(%"class.std::reverse_iterator"* sret %rEnd, %"class.xalanc_1_10::XalanList"* %m_blocks17), !dbg !2677
  br label %while.cond18, !dbg !2678

while.cond18:                                     ; preds = %if.end29, %while.end
  %call19 = call zeroext i1 @_ZStneIN11xalanc_1_1021XalanListIteratorBaseINS0_28XalanListConstIteratorTraitsIPNS0_18ReusableArenaBlockINS0_14XalanDOMStringEtEEEENS0_9XalanListIS6_E4NodeEEEEbRKSt16reverse_iteratorIT_ESG_(%"class.std::reverse_iterator"* dereferenceable(8) %rIterator, %"class.std::reverse_iterator"* dereferenceable(8) %rEnd), !dbg !2679
  br i1 %call19, label %while.body20, label %while.end30, !dbg !2678

while.body20:                                     ; preds = %while.cond18
  %call21 = call dereferenceable(8) %"class.xalanc_1_10::ReusableArenaBlock"** @_ZNKSt16reverse_iteratorIN11xalanc_1_1021XalanListIteratorBaseINS0_28XalanListConstIteratorTraitsIPNS0_18ReusableArenaBlockINS0_14XalanDOMStringEtEEEENS0_9XalanListIS6_E4NodeEEEEdeEv(%"class.std::reverse_iterator"* %rIterator), !dbg !2680
  %11 = load %"class.xalanc_1_10::ReusableArenaBlock"*, %"class.xalanc_1_10::ReusableArenaBlock"** %call21, align 8, !dbg !2680
  %12 = bitcast %"class.xalanc_1_10::ReusableArenaBlock"* %11 to %"class.xalanc_1_10::ArenaBlockBase"*, !dbg !2683
  %13 = load %"class.xalanc_1_10::XalanDOMString"*, %"class.xalanc_1_10::XalanDOMString"** %theObject.addr, align 8, !dbg !2684
  %call22 = call zeroext i1 @_ZNK11xalanc_1_1014ArenaBlockBaseINS_14XalanDOMStringEtE9ownsBlockEPKS1_(%"class.xalanc_1_10::ArenaBlockBase"* %12, %"class.xalanc_1_10::XalanDOMString"* %13), !dbg !2683
  br i1 %call22, label %if.then23, label %if.end24, !dbg !2685

if.then23:                                        ; preds = %while.body20
  store i1 true, i1* %retval, align 1, !dbg !2686
  br label %return, !dbg !2686

if.end24:                                         ; preds = %while.body20
  %call25 = call dereferenceable(8) %"class.xalanc_1_10::ReusableArenaBlock"** @_ZNK11xalanc_1_1021XalanListIteratorBaseINS_28XalanListConstIteratorTraitsIPNS_18ReusableArenaBlockINS_14XalanDOMStringEtEEEENS_9XalanListIS5_E4NodeEEdeEv(%"struct.xalanc_1_10::XalanListIteratorBase.0"* %iTerator), !dbg !2688
  %14 = load %"class.xalanc_1_10::ReusableArenaBlock"*, %"class.xalanc_1_10::ReusableArenaBlock"** %call25, align 8, !dbg !2688
  %call26 = call dereferenceable(8) %"class.xalanc_1_10::ReusableArenaBlock"** @_ZNKSt16reverse_iteratorIN11xalanc_1_1021XalanListIteratorBaseINS0_28XalanListConstIteratorTraitsIPNS0_18ReusableArenaBlockINS0_14XalanDOMStringEtEEEENS0_9XalanListIS6_E4NodeEEEEdeEv(%"class.std::reverse_iterator"* %rIterator), !dbg !2690
  %15 = load %"class.xalanc_1_10::ReusableArenaBlock"*, %"class.xalanc_1_10::ReusableArenaBlock"** %call26, align 8, !dbg !2690
  %cmp = icmp eq %"class.xalanc_1_10::ReusableArenaBlock"* %14, %15, !dbg !2691
  br i1 %cmp, label %if.then27, label %if.else, !dbg !2692

if.then27:                                        ; preds = %if.end24
  br label %while.end30, !dbg !2693

if.else:                                          ; preds = %if.end24
  %call28 = call dereferenceable(8) %"class.std::reverse_iterator"* @_ZNSt16reverse_iteratorIN11xalanc_1_1021XalanListIteratorBaseINS0_28XalanListConstIteratorTraitsIPNS0_18ReusableArenaBlockINS0_14XalanDOMStringEtEEEENS0_9XalanListIS6_E4NodeEEEEppEv(%"class.std::reverse_iterator"* %rIterator), !dbg !2695
  br label %if.end29

if.end29:                                         ; preds = %if.else
  br label %while.cond18, !dbg !2678, !llvm.loop !2697

while.end30:                                      ; preds = %if.then27, %while.cond18
  store i1 false, i1* %retval, align 1, !dbg !2699
  br label %return, !dbg !2699

return:                                           ; preds = %while.end30, %if.then23, %if.then12, %if.then
  %16 = load i1, i1* %retval, align 1, !dbg !2700
  ret i1 %16, !dbg !2700
}

; Function Attrs: noinline uwtable
define linkonce_odr dso_local void @_ZN11xalanc_1_1014ArenaAllocatorINS_14XalanDOMStringENS_18ReusableArenaBlockIS1_tEEE5resetEv(%"class.xalanc_1_10::ArenaAllocator"* %this) unnamed_addr #0 comdat align 2 !dbg !2701 {
entry:
  %this.addr = alloca %"class.xalanc_1_10::ArenaAllocator"*, align 8
  %agg.tmp = alloca %"struct.xalanc_1_10::XalanListIteratorBase", align 8
  %agg.tmp2 = alloca %"struct.xalanc_1_10::XalanListIteratorBase", align 8
  %agg.tmp4 = alloca %"struct.xalanc_1_10::DeleteFunctor", align 8
  %coerce = alloca %"struct.xalanc_1_10::DeleteFunctor", align 8
  store %"class.xalanc_1_10::ArenaAllocator"* %this, %"class.xalanc_1_10::ArenaAllocator"** %this.addr, align 8
  call void @llvm.dbg.declare(metadata %"class.xalanc_1_10::ArenaAllocator"** %this.addr, metadata !2702, metadata !DIExpression()), !dbg !2703
  %this1 = load %"class.xalanc_1_10::ArenaAllocator"*, %"class.xalanc_1_10::ArenaAllocator"** %this.addr, align 8
  %m_blocks = getelementptr inbounds %"class.xalanc_1_10::ArenaAllocator", %"class.xalanc_1_10::ArenaAllocator"* %this1, i32 0, i32 2, !dbg !2704
  call void @_ZN11xalanc_1_109XalanListIPNS_18ReusableArenaBlockINS_14XalanDOMStringEtEEE5beginEv(%"struct.xalanc_1_10::XalanListIteratorBase"* sret %agg.tmp, %"class.xalanc_1_10::XalanList"* %m_blocks), !dbg !2705
  %m_blocks3 = getelementptr inbounds %"class.xalanc_1_10::ArenaAllocator", %"class.xalanc_1_10::ArenaAllocator"* %this1, i32 0, i32 2, !dbg !2706
  call void @_ZN11xalanc_1_109XalanListIPNS_18ReusableArenaBlockINS_14XalanDOMStringEtEEE3endEv(%"struct.xalanc_1_10::XalanListIteratorBase"* sret %agg.tmp2, %"class.xalanc_1_10::XalanList"* %m_blocks3), !dbg !2707
  %m_blocks5 = getelementptr inbounds %"class.xalanc_1_10::ArenaAllocator", %"class.xalanc_1_10::ArenaAllocator"* %this1, i32 0, i32 2, !dbg !2708
  %call = call dereferenceable(8) %"class.xercesc_2_7::MemoryManager"* @_ZN11xalanc_1_109XalanListIPNS_18ReusableArenaBlockINS_14XalanDOMStringEtEEE16getMemoryManagerEv(%"class.xalanc_1_10::XalanList"* %m_blocks5), !dbg !2709
  call void @_ZN11xalanc_1_1013DeleteFunctorINS_18ReusableArenaBlockINS_14XalanDOMStringEtEEEC2ERN11xercesc_2_713MemoryManagerE(%"struct.xalanc_1_10::DeleteFunctor"* %agg.tmp4, %"class.xercesc_2_7::MemoryManager"* dereferenceable(8) %call), !dbg !2710
  %coerce.dive = getelementptr inbounds %"struct.xalanc_1_10::DeleteFunctor", %"struct.xalanc_1_10::DeleteFunctor"* %agg.tmp4, i32 0, i32 0, !dbg !2711
  %0 = load %"class.xercesc_2_7::MemoryManager"*, %"class.xercesc_2_7::MemoryManager"** %coerce.dive, align 8, !dbg !2711
  %call6 = call %"class.xercesc_2_7::MemoryManager"* @_ZSt8for_eachIN11xalanc_1_1021XalanListIteratorBaseINS0_23XalanListIteratorTraitsIPNS0_18ReusableArenaBlockINS0_14XalanDOMStringEtEEEENS0_9XalanListIS6_E4NodeEEENS0_13DeleteFunctorIS5_EEET0_T_SF_SE_(%"struct.xalanc_1_10::XalanListIteratorBase"* %agg.tmp, %"struct.xalanc_1_10::XalanListIteratorBase"* %agg.tmp2, %"class.xercesc_2_7::MemoryManager"* %0), !dbg !2711
  %coerce.dive7 = getelementptr inbounds %"struct.xalanc_1_10::DeleteFunctor", %"struct.xalanc_1_10::DeleteFunctor"* %coerce, i32 0, i32 0, !dbg !2711
  store %"class.xercesc_2_7::MemoryManager"* %call6, %"class.xercesc_2_7::MemoryManager"** %coerce.dive7, align 8, !dbg !2711
  %m_blocks8 = getelementptr inbounds %"class.xalanc_1_10::ArenaAllocator", %"class.xalanc_1_10::ArenaAllocator"* %this1, i32 0, i32 2, !dbg !2712
  call void @_ZN11xalanc_1_109XalanListIPNS_18ReusableArenaBlockINS_14XalanDOMStringEtEEE5clearEv(%"class.xalanc_1_10::XalanList"* %m_blocks8), !dbg !2713
  ret void, !dbg !2714
}

; Function Attrs: noinline nounwind uwtable
define linkonce_odr dso_local void @_ZN11xalanc_1_109XalanListIPNS_18ReusableArenaBlockINS_14XalanDOMStringEtEEEC2ERN11xercesc_2_713MemoryManagerE(%"class.xalanc_1_10::XalanList"* %this, %"class.xercesc_2_7::MemoryManager"* dereferenceable(8) %theManager) unnamed_addr #2 comdat align 2 !dbg !2715 {
entry:
  %this.addr = alloca %"class.xalanc_1_10::XalanList"*, align 8
  %theManager.addr = alloca %"class.xercesc_2_7::MemoryManager"*, align 8
  store %"class.xalanc_1_10::XalanList"* %this, %"class.xalanc_1_10::XalanList"** %this.addr, align 8
  call void @llvm.dbg.declare(metadata %"class.xalanc_1_10::XalanList"** %this.addr, metadata !2716, metadata !DIExpression()), !dbg !2717
  store %"class.xercesc_2_7::MemoryManager"* %theManager, %"class.xercesc_2_7::MemoryManager"** %theManager.addr, align 8
  call void @llvm.dbg.declare(metadata %"class.xercesc_2_7::MemoryManager"** %theManager.addr, metadata !2718, metadata !DIExpression()), !dbg !2719
  %this1 = load %"class.xalanc_1_10::XalanList"*, %"class.xalanc_1_10::XalanList"** %this.addr, align 8
  %m_memoryManager = getelementptr inbounds %"class.xalanc_1_10::XalanList", %"class.xalanc_1_10::XalanList"* %this1, i32 0, i32 0, !dbg !2720
  %0 = load %"class.xercesc_2_7::MemoryManager"*, %"class.xercesc_2_7::MemoryManager"** %theManager.addr, align 8, !dbg !2721
  store %"class.xercesc_2_7::MemoryManager"* %0, %"class.xercesc_2_7::MemoryManager"** %m_memoryManager, align 8, !dbg !2720
  %m_listHead = getelementptr inbounds %"class.xalanc_1_10::XalanList", %"class.xalanc_1_10::XalanList"* %this1, i32 0, i32 1, !dbg !2722
  store %"struct.xalanc_1_10::XalanList<xalanc_1_10::ReusableArenaBlock<xalanc_1_10::XalanDOMString, unsigned short> *>::Node"* null, %"struct.xalanc_1_10::XalanList<xalanc_1_10::ReusableArenaBlock<xalanc_1_10::XalanDOMString, unsigned short> *>::Node"** %m_listHead, align 8, !dbg !2722
  %m_freeListHeadPtr = getelementptr inbounds %"class.xalanc_1_10::XalanList", %"class.xalanc_1_10::XalanList"* %this1, i32 0, i32 2, !dbg !2723
  store %"struct.xalanc_1_10::XalanList<xalanc_1_10::ReusableArenaBlock<xalanc_1_10::XalanDOMString, unsigned short> *>::Node"* null, %"struct.xalanc_1_10::XalanList<xalanc_1_10::ReusableArenaBlock<xalanc_1_10::XalanDOMString, unsigned short> *>::Node"** %m_freeListHeadPtr, align 8, !dbg !2723
  ret void, !dbg !2724
}

; Function Attrs: noinline nounwind uwtable
define linkonce_odr dso_local void @_ZN11xalanc_1_1014ArenaAllocatorINS_14XalanDOMStringENS_18ReusableArenaBlockIS1_tEEED2Ev(%"class.xalanc_1_10::ArenaAllocator"* %this) unnamed_addr #2 comdat align 2 personality i8* bitcast (i32 (...)* @__gxx_personality_v0 to i8*) !dbg !2725 {
entry:
  %this.addr = alloca %"class.xalanc_1_10::ArenaAllocator"*, align 8
  %exn.slot = alloca i8*
  %ehselector.slot = alloca i32
  store %"class.xalanc_1_10::ArenaAllocator"* %this, %"class.xalanc_1_10::ArenaAllocator"** %this.addr, align 8
  call void @llvm.dbg.declare(metadata %"class.xalanc_1_10::ArenaAllocator"** %this.addr, metadata !2726, metadata !DIExpression()), !dbg !2727
  %this1 = load %"class.xalanc_1_10::ArenaAllocator"*, %"class.xalanc_1_10::ArenaAllocator"** %this.addr, align 8
  %0 = bitcast %"class.xalanc_1_10::ArenaAllocator"* %this1 to i32 (...)***, !dbg !2728
  store i32 (...)** bitcast (i8** getelementptr inbounds ({ [8 x i8*] }, { [8 x i8*] }* @_ZTVN11xalanc_1_1014ArenaAllocatorINS_14XalanDOMStringENS_18ReusableArenaBlockIS1_tEEEE, i32 0, inrange i32 0, i32 2) to i32 (...)**), i32 (...)*** %0, align 8, !dbg !2728
  %1 = bitcast %"class.xalanc_1_10::ArenaAllocator"* %this1 to void (%"class.xalanc_1_10::ArenaAllocator"*)***, !dbg !2729
  %vtable = load void (%"class.xalanc_1_10::ArenaAllocator"*)**, void (%"class.xalanc_1_10::ArenaAllocator"*)*** %1, align 8, !dbg !2729
  %vfn = getelementptr inbounds void (%"class.xalanc_1_10::ArenaAllocator"*)*, void (%"class.xalanc_1_10::ArenaAllocator"*)** %vtable, i64 5, !dbg !2729
  %2 = load void (%"class.xalanc_1_10::ArenaAllocator"*)*, void (%"class.xalanc_1_10::ArenaAllocator"*)** %vfn, align 8, !dbg !2729
  invoke void %2(%"class.xalanc_1_10::ArenaAllocator"* %this1)
          to label %invoke.cont unwind label %lpad, !dbg !2729

invoke.cont:                                      ; preds = %entry
  %m_blocks = getelementptr inbounds %"class.xalanc_1_10::ArenaAllocator", %"class.xalanc_1_10::ArenaAllocator"* %this1, i32 0, i32 2, !dbg !2731
  call void @_ZN11xalanc_1_109XalanListIPNS_18ReusableArenaBlockINS_14XalanDOMStringEtEEED2Ev(%"class.xalanc_1_10::XalanList"* %m_blocks) #7, !dbg !2731
  ret void, !dbg !2732

lpad:                                             ; preds = %entry
  %3 = landingpad { i8*, i32 }
          catch i8* null, !dbg !2731
  %4 = extractvalue { i8*, i32 } %3, 0, !dbg !2731
  store i8* %4, i8** %exn.slot, align 8, !dbg !2731
  %5 = extractvalue { i8*, i32 } %3, 1, !dbg !2731
  store i32 %5, i32* %ehselector.slot, align 4, !dbg !2731
  %m_blocks2 = getelementptr inbounds %"class.xalanc_1_10::ArenaAllocator", %"class.xalanc_1_10::ArenaAllocator"* %this1, i32 0, i32 2, !dbg !2731
  call void @_ZN11xalanc_1_109XalanListIPNS_18ReusableArenaBlockINS_14XalanDOMStringEtEEED2Ev(%"class.xalanc_1_10::XalanList"* %m_blocks2) #7, !dbg !2731
  br label %terminate.handler, !dbg !2731

terminate.handler:                                ; preds = %lpad
  %exn = load i8*, i8** %exn.slot, align 8, !dbg !2731
  call void @__clang_call_terminate(i8* %exn) #9, !dbg !2731
  unreachable, !dbg !2731
}

; Function Attrs: noinline nounwind uwtable
define linkonce_odr dso_local void @_ZN11xalanc_1_1014ArenaAllocatorINS_14XalanDOMStringENS_18ReusableArenaBlockIS1_tEEED0Ev(%"class.xalanc_1_10::ArenaAllocator"* %this) unnamed_addr #2 comdat align 2 !dbg !2733 {
entry:
  %this.addr = alloca %"class.xalanc_1_10::ArenaAllocator"*, align 8
  store %"class.xalanc_1_10::ArenaAllocator"* %this, %"class.xalanc_1_10::ArenaAllocator"** %this.addr, align 8
  call void @llvm.dbg.declare(metadata %"class.xalanc_1_10::ArenaAllocator"** %this.addr, metadata !2734, metadata !DIExpression()), !dbg !2735
  %this1 = load %"class.xalanc_1_10::ArenaAllocator"*, %"class.xalanc_1_10::ArenaAllocator"** %this.addr, align 8
  call void @_ZN11xalanc_1_1014ArenaAllocatorINS_14XalanDOMStringENS_18ReusableArenaBlockIS1_tEEED2Ev(%"class.xalanc_1_10::ArenaAllocator"* %this1) #7, !dbg !2736
  %0 = bitcast %"class.xalanc_1_10::ArenaAllocator"* %this1 to i8*, !dbg !2736
  call void @_ZdlPv(i8* %0) #8, !dbg !2736
  ret void, !dbg !2737
}

; Function Attrs: noinline uwtable
define linkonce_odr dso_local %"class.xalanc_1_10::XalanDOMString"* @_ZN11xalanc_1_1014ArenaAllocatorINS_14XalanDOMStringENS_18ReusableArenaBlockIS1_tEEE13allocateBlockEv(%"class.xalanc_1_10::ArenaAllocator"* %this) unnamed_addr #0 comdat align 2 !dbg !2738 {
entry:
  %this.addr = alloca %"class.xalanc_1_10::ArenaAllocator"*, align 8
  %ref.tmp = alloca %"class.xalanc_1_10::ReusableArenaBlock"*, align 8
  store %"class.xalanc_1_10::ArenaAllocator"* %this, %"class.xalanc_1_10::ArenaAllocator"** %this.addr, align 8
  call void @llvm.dbg.declare(metadata %"class.xalanc_1_10::ArenaAllocator"** %this.addr, metadata !2739, metadata !DIExpression()), !dbg !2740
  %this1 = load %"class.xalanc_1_10::ArenaAllocator"*, %"class.xalanc_1_10::ArenaAllocator"** %this.addr, align 8
  %m_blocks = getelementptr inbounds %"class.xalanc_1_10::ArenaAllocator", %"class.xalanc_1_10::ArenaAllocator"* %this1, i32 0, i32 2, !dbg !2741
  %call = call zeroext i1 @_ZNK11xalanc_1_109XalanListIPNS_18ReusableArenaBlockINS_14XalanDOMStringEtEEE5emptyEv(%"class.xalanc_1_10::XalanList"* %m_blocks), !dbg !2743
  %conv = zext i1 %call to i32, !dbg !2741
  %cmp = icmp eq i32 %conv, 1, !dbg !2744
  br i1 %cmp, label %if.then, label %lor.lhs.false, !dbg !2745

lor.lhs.false:                                    ; preds = %entry
  %m_blocks2 = getelementptr inbounds %"class.xalanc_1_10::ArenaAllocator", %"class.xalanc_1_10::ArenaAllocator"* %this1, i32 0, i32 2, !dbg !2746
  %call3 = call dereferenceable(8) %"class.xalanc_1_10::ReusableArenaBlock"** @_ZN11xalanc_1_109XalanListIPNS_18ReusableArenaBlockINS_14XalanDOMStringEtEEE4backEv(%"class.xalanc_1_10::XalanList"* %m_blocks2), !dbg !2747
  %0 = load %"class.xalanc_1_10::ReusableArenaBlock"*, %"class.xalanc_1_10::ReusableArenaBlock"** %call3, align 8, !dbg !2747
  %1 = bitcast %"class.xalanc_1_10::ReusableArenaBlock"* %0 to %"class.xalanc_1_10::ArenaBlockBase"*, !dbg !2748
  %call4 = call zeroext i1 @_ZNK11xalanc_1_1014ArenaBlockBaseINS_14XalanDOMStringEtE14blockAvailableEv(%"class.xalanc_1_10::ArenaBlockBase"* %1), !dbg !2748
  %conv5 = zext i1 %call4 to i32, !dbg !2746
  %cmp6 = icmp eq i32 %conv5, 0, !dbg !2749
  br i1 %cmp6, label %if.then, label %if.end, !dbg !2750

if.then:                                          ; preds = %lor.lhs.false, %entry
  %m_blocks7 = getelementptr inbounds %"class.xalanc_1_10::ArenaAllocator", %"class.xalanc_1_10::ArenaAllocator"* %this1, i32 0, i32 2, !dbg !2751
  %call8 = call dereferenceable(8) %"class.xercesc_2_7::MemoryManager"* @_ZN11xalanc_1_1014ArenaAllocatorINS_14XalanDOMStringENS_18ReusableArenaBlockIS1_tEEE16getMemoryManagerEv(%"class.xalanc_1_10::ArenaAllocator"* %this1), !dbg !2753
  %m_blockSize = getelementptr inbounds %"class.xalanc_1_10::ArenaAllocator", %"class.xalanc_1_10::ArenaAllocator"* %this1, i32 0, i32 1, !dbg !2754
  %2 = load i16, i16* %m_blockSize, align 8, !dbg !2754
  %call9 = call %"class.xalanc_1_10::ReusableArenaBlock"* @_ZN11xalanc_1_1018ReusableArenaBlockINS_14XalanDOMStringEtE6createERN11xercesc_2_713MemoryManagerEt(%"class.xercesc_2_7::MemoryManager"* dereferenceable(8) %call8, i16 zeroext %2), !dbg !2755
  store %"class.xalanc_1_10::ReusableArenaBlock"* %call9, %"class.xalanc_1_10::ReusableArenaBlock"** %ref.tmp, align 8, !dbg !2755
  call void @_ZN11xalanc_1_109XalanListIPNS_18ReusableArenaBlockINS_14XalanDOMStringEtEEE9push_backERKS4_(%"class.xalanc_1_10::XalanList"* %m_blocks7, %"class.xalanc_1_10::ReusableArenaBlock"** dereferenceable(8) %ref.tmp), !dbg !2756
  br label %if.end, !dbg !2757

if.end:                                           ; preds = %if.then, %lor.lhs.false
  %m_blocks10 = getelementptr inbounds %"class.xalanc_1_10::ArenaAllocator", %"class.xalanc_1_10::ArenaAllocator"* %this1, i32 0, i32 2, !dbg !2758
  %call11 = call dereferenceable(8) %"class.xalanc_1_10::ReusableArenaBlock"** @_ZN11xalanc_1_109XalanListIPNS_18ReusableArenaBlockINS_14XalanDOMStringEtEEE4backEv(%"class.xalanc_1_10::XalanList"* %m_blocks10), !dbg !2759
  %3 = load %"class.xalanc_1_10::ReusableArenaBlock"*, %"class.xalanc_1_10::ReusableArenaBlock"** %call11, align 8, !dbg !2759
  %call12 = call %"class.xalanc_1_10::XalanDOMString"* @_ZN11xalanc_1_1018ReusableArenaBlockINS_14XalanDOMStringEtE13allocateBlockEv(%"class.xalanc_1_10::ReusableArenaBlock"* %3), !dbg !2760
  ret %"class.xalanc_1_10::XalanDOMString"* %call12, !dbg !2761
}

; Function Attrs: noinline uwtable
define linkonce_odr dso_local void @_ZN11xalanc_1_1014ArenaAllocatorINS_14XalanDOMStringENS_18ReusableArenaBlockIS1_tEEE16commitAllocationEPS1_(%"class.xalanc_1_10::ArenaAllocator"* %this, %"class.xalanc_1_10::XalanDOMString"* %theObject) unnamed_addr #0 comdat align 2 !dbg !2762 {
entry:
  %this.addr = alloca %"class.xalanc_1_10::ArenaAllocator"*, align 8
  %theObject.addr = alloca %"class.xalanc_1_10::XalanDOMString"*, align 8
  store %"class.xalanc_1_10::ArenaAllocator"* %this, %"class.xalanc_1_10::ArenaAllocator"** %this.addr, align 8
  call void @llvm.dbg.declare(metadata %"class.xalanc_1_10::ArenaAllocator"** %this.addr, metadata !2763, metadata !DIExpression()), !dbg !2764
  store %"class.xalanc_1_10::XalanDOMString"* %theObject, %"class.xalanc_1_10::XalanDOMString"** %theObject.addr, align 8
  call void @llvm.dbg.declare(metadata %"class.xalanc_1_10::XalanDOMString"** %theObject.addr, metadata !2765, metadata !DIExpression()), !dbg !2766
  %this1 = load %"class.xalanc_1_10::ArenaAllocator"*, %"class.xalanc_1_10::ArenaAllocator"** %this.addr, align 8
  %m_blocks = getelementptr inbounds %"class.xalanc_1_10::ArenaAllocator", %"class.xalanc_1_10::ArenaAllocator"* %this1, i32 0, i32 2, !dbg !2767
  %call = call dereferenceable(8) %"class.xalanc_1_10::ReusableArenaBlock"** @_ZN11xalanc_1_109XalanListIPNS_18ReusableArenaBlockINS_14XalanDOMStringEtEEE4backEv(%"class.xalanc_1_10::XalanList"* %m_blocks), !dbg !2768
  %0 = load %"class.xalanc_1_10::ReusableArenaBlock"*, %"class.xalanc_1_10::ReusableArenaBlock"** %call, align 8, !dbg !2768
  %1 = load %"class.xalanc_1_10::XalanDOMString"*, %"class.xalanc_1_10::XalanDOMString"** %theObject.addr, align 8, !dbg !2769
  call void @_ZN11xalanc_1_1018ReusableArenaBlockINS_14XalanDOMStringEtE16commitAllocationEPS1_(%"class.xalanc_1_10::ReusableArenaBlock"* %0, %"class.xalanc_1_10::XalanDOMString"* %1), !dbg !2770
  ret void, !dbg !2771
}

; Function Attrs: noinline uwtable
define linkonce_odr dso_local zeroext i1 @_ZNK11xalanc_1_1014ArenaAllocatorINS_14XalanDOMStringENS_18ReusableArenaBlockIS1_tEEE10ownsObjectEPKS1_(%"class.xalanc_1_10::ArenaAllocator"* %this, %"class.xalanc_1_10::XalanDOMString"* %theObject) unnamed_addr #0 comdat align 2 !dbg !2772 {
entry:
  %this.addr = alloca %"class.xalanc_1_10::ArenaAllocator"*, align 8
  %theObject.addr = alloca %"class.xalanc_1_10::XalanDOMString"*, align 8
  %fResult = alloca i8, align 1
  %theEnd = alloca %"class.std::reverse_iterator", align 8
  %i = alloca %"class.std::reverse_iterator", align 8
  store %"class.xalanc_1_10::ArenaAllocator"* %this, %"class.xalanc_1_10::ArenaAllocator"** %this.addr, align 8
  call void @llvm.dbg.declare(metadata %"class.xalanc_1_10::ArenaAllocator"** %this.addr, metadata !2773, metadata !DIExpression()), !dbg !2775
  store %"class.xalanc_1_10::XalanDOMString"* %theObject, %"class.xalanc_1_10::XalanDOMString"** %theObject.addr, align 8
  call void @llvm.dbg.declare(metadata %"class.xalanc_1_10::XalanDOMString"** %theObject.addr, metadata !2776, metadata !DIExpression()), !dbg !2777
  %this1 = load %"class.xalanc_1_10::ArenaAllocator"*, %"class.xalanc_1_10::ArenaAllocator"** %this.addr, align 8
  call void @llvm.dbg.declare(metadata i8* %fResult, metadata !2778, metadata !DIExpression()), !dbg !2779
  store i8 0, i8* %fResult, align 1, !dbg !2779
  call void @llvm.dbg.declare(metadata %"class.std::reverse_iterator"* %theEnd, metadata !2780, metadata !DIExpression()), !dbg !2783
  %m_blocks = getelementptr inbounds %"class.xalanc_1_10::ArenaAllocator", %"class.xalanc_1_10::ArenaAllocator"* %this1, i32 0, i32 2, !dbg !2784
  call void @_ZNK11xalanc_1_109XalanListIPNS_18ReusableArenaBlockINS_14XalanDOMStringEtEEE4rendEv(%"class.std::reverse_iterator"* sret %theEnd, %"class.xalanc_1_10::XalanList"* %m_blocks), !dbg !2785
  call void @llvm.dbg.declare(metadata %"class.std::reverse_iterator"* %i, metadata !2786, metadata !DIExpression()), !dbg !2787
  %m_blocks2 = getelementptr inbounds %"class.xalanc_1_10::ArenaAllocator", %"class.xalanc_1_10::ArenaAllocator"* %this1, i32 0, i32 2, !dbg !2788
  call void @_ZNK11xalanc_1_109XalanListIPNS_18ReusableArenaBlockINS_14XalanDOMStringEtEEE6rbeginEv(%"class.std::reverse_iterator"* sret %i, %"class.xalanc_1_10::XalanList"* %m_blocks2), !dbg !2789
  br label %while.cond, !dbg !2790

while.cond:                                       ; preds = %if.end, %entry
  %call = call zeroext i1 @_ZStneIN11xalanc_1_1021XalanListIteratorBaseINS0_28XalanListConstIteratorTraitsIPNS0_18ReusableArenaBlockINS0_14XalanDOMStringEtEEEENS0_9XalanListIS6_E4NodeEEEEbRKSt16reverse_iteratorIT_ESG_(%"class.std::reverse_iterator"* dereferenceable(8) %i, %"class.std::reverse_iterator"* dereferenceable(8) %theEnd), !dbg !2791
  br i1 %call, label %while.body, label %while.end, !dbg !2790

while.body:                                       ; preds = %while.cond
  %call3 = call dereferenceable(8) %"class.xalanc_1_10::ReusableArenaBlock"** @_ZNKSt16reverse_iteratorIN11xalanc_1_1021XalanListIteratorBaseINS0_28XalanListConstIteratorTraitsIPNS0_18ReusableArenaBlockINS0_14XalanDOMStringEtEEEENS0_9XalanListIS6_E4NodeEEEEdeEv(%"class.std::reverse_iterator"* %i), !dbg !2792
  %0 = load %"class.xalanc_1_10::ReusableArenaBlock"*, %"class.xalanc_1_10::ReusableArenaBlock"** %call3, align 8, !dbg !2792
  %1 = load %"class.xalanc_1_10::XalanDOMString"*, %"class.xalanc_1_10::XalanDOMString"** %theObject.addr, align 8, !dbg !2795
  %call4 = call zeroext i1 @_ZNK11xalanc_1_1018ReusableArenaBlockINS_14XalanDOMStringEtE10ownsObjectEPKS1_(%"class.xalanc_1_10::ReusableArenaBlock"* %0, %"class.xalanc_1_10::XalanDOMString"* %1), !dbg !2796
  %conv = zext i1 %call4 to i32, !dbg !2797
  %cmp = icmp eq i32 %conv, 1, !dbg !2798
  br i1 %cmp, label %if.then, label %if.else, !dbg !2799

if.then:                                          ; preds = %while.body
  store i8 1, i8* %fResult, align 1, !dbg !2800
  br label %while.end, !dbg !2802

if.else:                                          ; preds = %while.body
  %call5 = call dereferenceable(8) %"class.std::reverse_iterator"* @_ZNSt16reverse_iteratorIN11xalanc_1_1021XalanListIteratorBaseINS0_28XalanListConstIteratorTraitsIPNS0_18ReusableArenaBlockINS0_14XalanDOMStringEtEEEENS0_9XalanListIS6_E4NodeEEEEppEv(%"class.std::reverse_iterator"* %i), !dbg !2803
  br label %if.end

if.end:                                           ; preds = %if.else
  br label %while.cond, !dbg !2790, !llvm.loop !2805

while.end:                                        ; preds = %if.then, %while.cond
  %2 = load i8, i8* %fResult, align 1, !dbg !2807
  %tobool = trunc i8 %2 to i1, !dbg !2807
  ret i1 %tobool, !dbg !2808
}

declare dso_local i32 @__gxx_personality_v0(...)

; Function Attrs: noinline nounwind uwtable
define linkonce_odr dso_local void @_ZN11xalanc_1_109XalanListIPNS_18ReusableArenaBlockINS_14XalanDOMStringEtEEED2Ev(%"class.xalanc_1_10::XalanList"* %this) unnamed_addr #2 comdat align 2 personality i8* bitcast (i32 (...)* @__gxx_personality_v0 to i8*) !dbg !2809 {
entry:
  %this.addr = alloca %"class.xalanc_1_10::XalanList"*, align 8
  %pos = alloca %"struct.xalanc_1_10::XalanListIteratorBase", align 8
  %ref.tmp = alloca %"struct.xalanc_1_10::XalanListIteratorBase", align 8
  %ref.tmp4 = alloca %"struct.xalanc_1_10::XalanListIteratorBase", align 8
  %freeNode = alloca %"struct.xalanc_1_10::XalanList<xalanc_1_10::ReusableArenaBlock<xalanc_1_10::XalanDOMString, unsigned short> *>::Node"*, align 8
  %nextNode = alloca %"struct.xalanc_1_10::XalanList<xalanc_1_10::ReusableArenaBlock<xalanc_1_10::XalanDOMString, unsigned short> *>::Node"*, align 8
  store %"class.xalanc_1_10::XalanList"* %this, %"class.xalanc_1_10::XalanList"** %this.addr, align 8
  call void @llvm.dbg.declare(metadata %"class.xalanc_1_10::XalanList"** %this.addr, metadata !2810, metadata !DIExpression()), !dbg !2811
  %this1 = load %"class.xalanc_1_10::XalanList"*, %"class.xalanc_1_10::XalanList"** %this.addr, align 8
  %m_listHead = getelementptr inbounds %"class.xalanc_1_10::XalanList", %"class.xalanc_1_10::XalanList"* %this1, i32 0, i32 1, !dbg !2812
  %0 = load %"struct.xalanc_1_10::XalanList<xalanc_1_10::ReusableArenaBlock<xalanc_1_10::XalanDOMString, unsigned short> *>::Node"*, %"struct.xalanc_1_10::XalanList<xalanc_1_10::ReusableArenaBlock<xalanc_1_10::XalanDOMString, unsigned short> *>::Node"** %m_listHead, align 8, !dbg !2812
  %cmp = icmp ne %"struct.xalanc_1_10::XalanList<xalanc_1_10::ReusableArenaBlock<xalanc_1_10::XalanDOMString, unsigned short> *>::Node"* %0, null, !dbg !2815
  br i1 %cmp, label %if.then, label %if.end, !dbg !2816

if.then:                                          ; preds = %entry
  call void @llvm.dbg.declare(metadata %"struct.xalanc_1_10::XalanListIteratorBase"* %pos, metadata !2817, metadata !DIExpression()), !dbg !2819
  invoke void @_ZN11xalanc_1_109XalanListIPNS_18ReusableArenaBlockINS_14XalanDOMStringEtEEE5beginEv(%"struct.xalanc_1_10::XalanListIteratorBase"* sret %pos, %"class.xalanc_1_10::XalanList"* %this1)
          to label %invoke.cont unwind label %terminate.lpad, !dbg !2820

invoke.cont:                                      ; preds = %if.then
  br label %while.cond, !dbg !2821

while.cond:                                       ; preds = %invoke.cont8, %invoke.cont
  invoke void @_ZN11xalanc_1_109XalanListIPNS_18ReusableArenaBlockINS_14XalanDOMStringEtEEE3endEv(%"struct.xalanc_1_10::XalanListIteratorBase"* sret %ref.tmp, %"class.xalanc_1_10::XalanList"* %this1)
          to label %invoke.cont2 unwind label %terminate.lpad, !dbg !2822

invoke.cont2:                                     ; preds = %while.cond
  %call = invoke zeroext i1 @_ZNK11xalanc_1_1021XalanListIteratorBaseINS_23XalanListIteratorTraitsIPNS_18ReusableArenaBlockINS_14XalanDOMStringEtEEEENS_9XalanListIS5_E4NodeEEneERKSA_(%"struct.xalanc_1_10::XalanListIteratorBase"* %pos, %"struct.xalanc_1_10::XalanListIteratorBase"* dereferenceable(8) %ref.tmp)
          to label %invoke.cont3 unwind label %terminate.lpad, !dbg !2823

invoke.cont3:                                     ; preds = %invoke.cont2
  br i1 %call, label %while.body, label %while.end, !dbg !2821

while.body:                                       ; preds = %invoke.cont3
  invoke void @_ZN11xalanc_1_1021XalanListIteratorBaseINS_23XalanListIteratorTraitsIPNS_18ReusableArenaBlockINS_14XalanDOMStringEtEEEENS_9XalanListIS5_E4NodeEEppEi(%"struct.xalanc_1_10::XalanListIteratorBase"* sret %ref.tmp4, %"struct.xalanc_1_10::XalanListIteratorBase"* %pos, i32 0)
          to label %invoke.cont5 unwind label %terminate.lpad, !dbg !2824

invoke.cont5:                                     ; preds = %while.body
  %call7 = invoke dereferenceable(24) %"struct.xalanc_1_10::XalanList<xalanc_1_10::ReusableArenaBlock<xalanc_1_10::XalanDOMString, unsigned short> *>::Node"* @_ZN11xalanc_1_1021XalanListIteratorBaseINS_23XalanListIteratorTraitsIPNS_18ReusableArenaBlockINS_14XalanDOMStringEtEEEENS_9XalanListIS5_E4NodeEE4nodeEv(%"struct.xalanc_1_10::XalanListIteratorBase"* %ref.tmp4)
          to label %invoke.cont6 unwind label %terminate.lpad, !dbg !2826

invoke.cont6:                                     ; preds = %invoke.cont5
  invoke void @_ZN11xalanc_1_109XalanListIPNS_18ReusableArenaBlockINS_14XalanDOMStringEtEEE11destroyNodeERNS5_4NodeE(%"class.xalanc_1_10::XalanList"* %this1, %"struct.xalanc_1_10::XalanList<xalanc_1_10::ReusableArenaBlock<xalanc_1_10::XalanDOMString, unsigned short> *>::Node"* dereferenceable(24) %call7)
          to label %invoke.cont8 unwind label %terminate.lpad, !dbg !2827

invoke.cont8:                                     ; preds = %invoke.cont6
  br label %while.cond, !dbg !2821, !llvm.loop !2828

while.end:                                        ; preds = %invoke.cont3
  call void @llvm.dbg.declare(metadata %"struct.xalanc_1_10::XalanList<xalanc_1_10::ReusableArenaBlock<xalanc_1_10::XalanDOMString, unsigned short> *>::Node"** %freeNode, metadata !2830, metadata !DIExpression()), !dbg !2831
  %m_freeListHeadPtr = getelementptr inbounds %"class.xalanc_1_10::XalanList", %"class.xalanc_1_10::XalanList"* %this1, i32 0, i32 2, !dbg !2832
  %1 = load %"struct.xalanc_1_10::XalanList<xalanc_1_10::ReusableArenaBlock<xalanc_1_10::XalanDOMString, unsigned short> *>::Node"*, %"struct.xalanc_1_10::XalanList<xalanc_1_10::ReusableArenaBlock<xalanc_1_10::XalanDOMString, unsigned short> *>::Node"** %m_freeListHeadPtr, align 8, !dbg !2832
  store %"struct.xalanc_1_10::XalanList<xalanc_1_10::ReusableArenaBlock<xalanc_1_10::XalanDOMString, unsigned short> *>::Node"* %1, %"struct.xalanc_1_10::XalanList<xalanc_1_10::ReusableArenaBlock<xalanc_1_10::XalanDOMString, unsigned short> *>::Node"** %freeNode, align 8, !dbg !2831
  br label %while.cond9, !dbg !2833

while.cond9:                                      ; preds = %invoke.cont12, %while.end
  %2 = load %"struct.xalanc_1_10::XalanList<xalanc_1_10::ReusableArenaBlock<xalanc_1_10::XalanDOMString, unsigned short> *>::Node"*, %"struct.xalanc_1_10::XalanList<xalanc_1_10::ReusableArenaBlock<xalanc_1_10::XalanDOMString, unsigned short> *>::Node"** %freeNode, align 8, !dbg !2834
  %cmp10 = icmp ne %"struct.xalanc_1_10::XalanList<xalanc_1_10::ReusableArenaBlock<xalanc_1_10::XalanDOMString, unsigned short> *>::Node"* %2, null, !dbg !2835
  br i1 %cmp10, label %while.body11, label %while.end13, !dbg !2833

while.body11:                                     ; preds = %while.cond9
  call void @llvm.dbg.declare(metadata %"struct.xalanc_1_10::XalanList<xalanc_1_10::ReusableArenaBlock<xalanc_1_10::XalanDOMString, unsigned short> *>::Node"** %nextNode, metadata !2836, metadata !DIExpression()), !dbg !2838
  %3 = load %"struct.xalanc_1_10::XalanList<xalanc_1_10::ReusableArenaBlock<xalanc_1_10::XalanDOMString, unsigned short> *>::Node"*, %"struct.xalanc_1_10::XalanList<xalanc_1_10::ReusableArenaBlock<xalanc_1_10::XalanDOMString, unsigned short> *>::Node"** %freeNode, align 8, !dbg !2839
  %next = getelementptr inbounds %"struct.xalanc_1_10::XalanList<xalanc_1_10::ReusableArenaBlock<xalanc_1_10::XalanDOMString, unsigned short> *>::Node", %"struct.xalanc_1_10::XalanList<xalanc_1_10::ReusableArenaBlock<xalanc_1_10::XalanDOMString, unsigned short> *>::Node"* %3, i32 0, i32 2, !dbg !2840
  %4 = load %"struct.xalanc_1_10::XalanList<xalanc_1_10::ReusableArenaBlock<xalanc_1_10::XalanDOMString, unsigned short> *>::Node"*, %"struct.xalanc_1_10::XalanList<xalanc_1_10::ReusableArenaBlock<xalanc_1_10::XalanDOMString, unsigned short> *>::Node"** %next, align 8, !dbg !2840
  store %"struct.xalanc_1_10::XalanList<xalanc_1_10::ReusableArenaBlock<xalanc_1_10::XalanDOMString, unsigned short> *>::Node"* %4, %"struct.xalanc_1_10::XalanList<xalanc_1_10::ReusableArenaBlock<xalanc_1_10::XalanDOMString, unsigned short> *>::Node"** %nextNode, align 8, !dbg !2838
  %5 = load %"struct.xalanc_1_10::XalanList<xalanc_1_10::ReusableArenaBlock<xalanc_1_10::XalanDOMString, unsigned short> *>::Node"*, %"struct.xalanc_1_10::XalanList<xalanc_1_10::ReusableArenaBlock<xalanc_1_10::XalanDOMString, unsigned short> *>::Node"** %freeNode, align 8, !dbg !2841
  invoke void @_ZN11xalanc_1_109XalanListIPNS_18ReusableArenaBlockINS_14XalanDOMStringEtEEE10deallocateEPNS5_4NodeE(%"class.xalanc_1_10::XalanList"* %this1, %"struct.xalanc_1_10::XalanList<xalanc_1_10::ReusableArenaBlock<xalanc_1_10::XalanDOMString, unsigned short> *>::Node"* %5)
          to label %invoke.cont12 unwind label %terminate.lpad, !dbg !2842

invoke.cont12:                                    ; preds = %while.body11
  %6 = load %"struct.xalanc_1_10::XalanList<xalanc_1_10::ReusableArenaBlock<xalanc_1_10::XalanDOMString, unsigned short> *>::Node"*, %"struct.xalanc_1_10::XalanList<xalanc_1_10::ReusableArenaBlock<xalanc_1_10::XalanDOMString, unsigned short> *>::Node"** %nextNode, align 8, !dbg !2843
  store %"struct.xalanc_1_10::XalanList<xalanc_1_10::ReusableArenaBlock<xalanc_1_10::XalanDOMString, unsigned short> *>::Node"* %6, %"struct.xalanc_1_10::XalanList<xalanc_1_10::ReusableArenaBlock<xalanc_1_10::XalanDOMString, unsigned short> *>::Node"** %freeNode, align 8, !dbg !2844
  br label %while.cond9, !dbg !2833, !llvm.loop !2845

while.end13:                                      ; preds = %while.cond9
  %m_listHead14 = getelementptr inbounds %"class.xalanc_1_10::XalanList", %"class.xalanc_1_10::XalanList"* %this1, i32 0, i32 1, !dbg !2847
  %7 = load %"struct.xalanc_1_10::XalanList<xalanc_1_10::ReusableArenaBlock<xalanc_1_10::XalanDOMString, unsigned short> *>::Node"*, %"struct.xalanc_1_10::XalanList<xalanc_1_10::ReusableArenaBlock<xalanc_1_10::XalanDOMString, unsigned short> *>::Node"** %m_listHead14, align 8, !dbg !2847
  invoke void @_ZN11xalanc_1_109XalanListIPNS_18ReusableArenaBlockINS_14XalanDOMStringEtEEE10deallocateEPNS5_4NodeE(%"class.xalanc_1_10::XalanList"* %this1, %"struct.xalanc_1_10::XalanList<xalanc_1_10::ReusableArenaBlock<xalanc_1_10::XalanDOMString, unsigned short> *>::Node"* %7)
          to label %invoke.cont15 unwind label %terminate.lpad, !dbg !2848

invoke.cont15:                                    ; preds = %while.end13
  br label %if.end, !dbg !2849

if.end:                                           ; preds = %invoke.cont15, %entry
  ret void, !dbg !2850

terminate.lpad:                                   ; preds = %while.end13, %while.body11, %invoke.cont6, %invoke.cont5, %while.body, %invoke.cont2, %while.cond, %if.then
  %8 = landingpad { i8*, i32 }
          catch i8* null, !dbg !2820
  %9 = extractvalue { i8*, i32 } %8, 0, !dbg !2820
  call void @__clang_call_terminate(i8* %9) #9, !dbg !2820
  unreachable, !dbg !2820
}

; Function Attrs: noinline noreturn nounwind
define linkonce_odr hidden void @__clang_call_terminate(i8* %0) #4 comdat {
  %2 = call i8* @__cxa_begin_catch(i8* %0) #7
  call void @_ZSt9terminatev() #9
  unreachable
}

declare dso_local i8* @__cxa_begin_catch(i8*)

declare dso_local void @_ZSt9terminatev()

; Function Attrs: noinline uwtable
define linkonce_odr dso_local void @_ZN11xalanc_1_109XalanListIPNS_18ReusableArenaBlockINS_14XalanDOMStringEtEEE5beginEv(%"struct.xalanc_1_10::XalanListIteratorBase"* noalias sret %agg.result, %"class.xalanc_1_10::XalanList"* %this) #0 comdat align 2 !dbg !2851 {
entry:
  %result.ptr = alloca i8*, align 8
  %this.addr = alloca %"class.xalanc_1_10::XalanList"*, align 8
  %0 = bitcast %"struct.xalanc_1_10::XalanListIteratorBase"* %agg.result to i8*
  store i8* %0, i8** %result.ptr, align 8
  store %"class.xalanc_1_10::XalanList"* %this, %"class.xalanc_1_10::XalanList"** %this.addr, align 8
  call void @llvm.dbg.declare(metadata %"class.xalanc_1_10::XalanList"** %this.addr, metadata !2852, metadata !DIExpression()), !dbg !2853
  %this1 = load %"class.xalanc_1_10::XalanList"*, %"class.xalanc_1_10::XalanList"** %this.addr, align 8
  %call = call dereferenceable(24) %"struct.xalanc_1_10::XalanList<xalanc_1_10::ReusableArenaBlock<xalanc_1_10::XalanDOMString, unsigned short> *>::Node"* @_ZN11xalanc_1_109XalanListIPNS_18ReusableArenaBlockINS_14XalanDOMStringEtEEE11getListHeadEv(%"class.xalanc_1_10::XalanList"* %this1), !dbg !2854
  %next = getelementptr inbounds %"struct.xalanc_1_10::XalanList<xalanc_1_10::ReusableArenaBlock<xalanc_1_10::XalanDOMString, unsigned short> *>::Node", %"struct.xalanc_1_10::XalanList<xalanc_1_10::ReusableArenaBlock<xalanc_1_10::XalanDOMString, unsigned short> *>::Node"* %call, i32 0, i32 2, !dbg !2855
  %1 = load %"struct.xalanc_1_10::XalanList<xalanc_1_10::ReusableArenaBlock<xalanc_1_10::XalanDOMString, unsigned short> *>::Node"*, %"struct.xalanc_1_10::XalanList<xalanc_1_10::ReusableArenaBlock<xalanc_1_10::XalanDOMString, unsigned short> *>::Node"** %next, align 8, !dbg !2855
  call void @_ZN11xalanc_1_1021XalanListIteratorBaseINS_23XalanListIteratorTraitsIPNS_18ReusableArenaBlockINS_14XalanDOMStringEtEEEENS_9XalanListIS5_E4NodeEEC2ERS9_(%"struct.xalanc_1_10::XalanListIteratorBase"* %agg.result, %"struct.xalanc_1_10::XalanList<xalanc_1_10::ReusableArenaBlock<xalanc_1_10::XalanDOMString, unsigned short> *>::Node"* dereferenceable(24) %1), !dbg !2856
  ret void, !dbg !2857
}

; Function Attrs: noinline uwtable
define linkonce_odr dso_local zeroext i1 @_ZNK11xalanc_1_1021XalanListIteratorBaseINS_23XalanListIteratorTraitsIPNS_18ReusableArenaBlockINS_14XalanDOMStringEtEEEENS_9XalanListIS5_E4NodeEEneERKSA_(%"struct.xalanc_1_10::XalanListIteratorBase"* %this, %"struct.xalanc_1_10::XalanListIteratorBase"* dereferenceable(8) %theRhs) #0 comdat align 2 !dbg !2858 {
entry:
  %this.addr = alloca %"struct.xalanc_1_10::XalanListIteratorBase"*, align 8
  %theRhs.addr = alloca %"struct.xalanc_1_10::XalanListIteratorBase"*, align 8
  store %"struct.xalanc_1_10::XalanListIteratorBase"* %this, %"struct.xalanc_1_10::XalanListIteratorBase"** %this.addr, align 8
  call void @llvm.dbg.declare(metadata %"struct.xalanc_1_10::XalanListIteratorBase"** %this.addr, metadata !2859, metadata !DIExpression()), !dbg !2861
  store %"struct.xalanc_1_10::XalanListIteratorBase"* %theRhs, %"struct.xalanc_1_10::XalanListIteratorBase"** %theRhs.addr, align 8
  call void @llvm.dbg.declare(metadata %"struct.xalanc_1_10::XalanListIteratorBase"** %theRhs.addr, metadata !2862, metadata !DIExpression()), !dbg !2863
  %this1 = load %"struct.xalanc_1_10::XalanListIteratorBase"*, %"struct.xalanc_1_10::XalanListIteratorBase"** %this.addr, align 8
  %0 = load %"struct.xalanc_1_10::XalanListIteratorBase"*, %"struct.xalanc_1_10::XalanListIteratorBase"** %theRhs.addr, align 8, !dbg !2864
  %call = call zeroext i1 @_ZNK11xalanc_1_1021XalanListIteratorBaseINS_23XalanListIteratorTraitsIPNS_18ReusableArenaBlockINS_14XalanDOMStringEtEEEENS_9XalanListIS5_E4NodeEEeqERKSA_(%"struct.xalanc_1_10::XalanListIteratorBase"* %this1, %"struct.xalanc_1_10::XalanListIteratorBase"* dereferenceable(8) %0), !dbg !2865
  %lnot = xor i1 %call, true, !dbg !2866
  ret i1 %lnot, !dbg !2867
}

; Function Attrs: noinline uwtable
define linkonce_odr dso_local void @_ZN11xalanc_1_109XalanListIPNS_18ReusableArenaBlockINS_14XalanDOMStringEtEEE3endEv(%"struct.xalanc_1_10::XalanListIteratorBase"* noalias sret %agg.result, %"class.xalanc_1_10::XalanList"* %this) #0 comdat align 2 !dbg !2868 {
entry:
  %result.ptr = alloca i8*, align 8
  %this.addr = alloca %"class.xalanc_1_10::XalanList"*, align 8
  %0 = bitcast %"struct.xalanc_1_10::XalanListIteratorBase"* %agg.result to i8*
  store i8* %0, i8** %result.ptr, align 8
  store %"class.xalanc_1_10::XalanList"* %this, %"class.xalanc_1_10::XalanList"** %this.addr, align 8
  call void @llvm.dbg.declare(metadata %"class.xalanc_1_10::XalanList"** %this.addr, metadata !2869, metadata !DIExpression()), !dbg !2870
  %this1 = load %"class.xalanc_1_10::XalanList"*, %"class.xalanc_1_10::XalanList"** %this.addr, align 8
  %call = call dereferenceable(24) %"struct.xalanc_1_10::XalanList<xalanc_1_10::ReusableArenaBlock<xalanc_1_10::XalanDOMString, unsigned short> *>::Node"* @_ZN11xalanc_1_109XalanListIPNS_18ReusableArenaBlockINS_14XalanDOMStringEtEEE11getListHeadEv(%"class.xalanc_1_10::XalanList"* %this1), !dbg !2871
  call void @_ZN11xalanc_1_1021XalanListIteratorBaseINS_23XalanListIteratorTraitsIPNS_18ReusableArenaBlockINS_14XalanDOMStringEtEEEENS_9XalanListIS5_E4NodeEEC2ERS9_(%"struct.xalanc_1_10::XalanListIteratorBase"* %agg.result, %"struct.xalanc_1_10::XalanList<xalanc_1_10::ReusableArenaBlock<xalanc_1_10::XalanDOMString, unsigned short> *>::Node"* dereferenceable(24) %call), !dbg !2872
  ret void, !dbg !2873
}

; Function Attrs: noinline uwtable
define linkonce_odr dso_local void @_ZN11xalanc_1_109XalanListIPNS_18ReusableArenaBlockINS_14XalanDOMStringEtEEE11destroyNodeERNS5_4NodeE(%"class.xalanc_1_10::XalanList"* %this, %"struct.xalanc_1_10::XalanList<xalanc_1_10::ReusableArenaBlock<xalanc_1_10::XalanDOMString, unsigned short> *>::Node"* dereferenceable(24) %node) #0 comdat align 2 !dbg !2874 {
entry:
  %this.addr = alloca %"class.xalanc_1_10::XalanList"*, align 8
  %node.addr = alloca %"struct.xalanc_1_10::XalanList<xalanc_1_10::ReusableArenaBlock<xalanc_1_10::XalanDOMString, unsigned short> *>::Node"*, align 8
  store %"class.xalanc_1_10::XalanList"* %this, %"class.xalanc_1_10::XalanList"** %this.addr, align 8
  call void @llvm.dbg.declare(metadata %"class.xalanc_1_10::XalanList"** %this.addr, metadata !2875, metadata !DIExpression()), !dbg !2876
  store %"struct.xalanc_1_10::XalanList<xalanc_1_10::ReusableArenaBlock<xalanc_1_10::XalanDOMString, unsigned short> *>::Node"* %node, %"struct.xalanc_1_10::XalanList<xalanc_1_10::ReusableArenaBlock<xalanc_1_10::XalanDOMString, unsigned short> *>::Node"** %node.addr, align 8
  call void @llvm.dbg.declare(metadata %"struct.xalanc_1_10::XalanList<xalanc_1_10::ReusableArenaBlock<xalanc_1_10::XalanDOMString, unsigned short> *>::Node"** %node.addr, metadata !2877, metadata !DIExpression()), !dbg !2878
  %this1 = load %"class.xalanc_1_10::XalanList"*, %"class.xalanc_1_10::XalanList"** %this.addr, align 8
  %0 = load %"struct.xalanc_1_10::XalanList<xalanc_1_10::ReusableArenaBlock<xalanc_1_10::XalanDOMString, unsigned short> *>::Node"*, %"struct.xalanc_1_10::XalanList<xalanc_1_10::ReusableArenaBlock<xalanc_1_10::XalanDOMString, unsigned short> *>::Node"** %node.addr, align 8, !dbg !2879
  %1 = load %"struct.xalanc_1_10::XalanList<xalanc_1_10::ReusableArenaBlock<xalanc_1_10::XalanDOMString, unsigned short> *>::Node"*, %"struct.xalanc_1_10::XalanList<xalanc_1_10::ReusableArenaBlock<xalanc_1_10::XalanDOMString, unsigned short> *>::Node"** %node.addr, align 8, !dbg !2880
  call void @_ZN11xalanc_1_109XalanListIPNS_18ReusableArenaBlockINS_14XalanDOMStringEtEEE10deallocateEPNS5_4NodeE(%"class.xalanc_1_10::XalanList"* %this1, %"struct.xalanc_1_10::XalanList<xalanc_1_10::ReusableArenaBlock<xalanc_1_10::XalanDOMString, unsigned short> *>::Node"* %1), !dbg !2881
  ret void, !dbg !2882
}

; Function Attrs: noinline uwtable
define linkonce_odr dso_local void @_ZN11xalanc_1_1021XalanListIteratorBaseINS_23XalanListIteratorTraitsIPNS_18ReusableArenaBlockINS_14XalanDOMStringEtEEEENS_9XalanListIS5_E4NodeEEppEi(%"struct.xalanc_1_10::XalanListIteratorBase"* noalias sret %agg.result, %"struct.xalanc_1_10::XalanListIteratorBase"* %this, i32 %0) #0 comdat align 2 !dbg !2883 {
entry:
  %result.ptr = alloca i8*, align 8
  %this.addr = alloca %"struct.xalanc_1_10::XalanListIteratorBase"*, align 8
  %.addr = alloca i32, align 4
  %origNode = alloca %"struct.xalanc_1_10::XalanList<xalanc_1_10::ReusableArenaBlock<xalanc_1_10::XalanDOMString, unsigned short> *>::Node"*, align 8
  %1 = bitcast %"struct.xalanc_1_10::XalanListIteratorBase"* %agg.result to i8*
  store i8* %1, i8** %result.ptr, align 8
  store %"struct.xalanc_1_10::XalanListIteratorBase"* %this, %"struct.xalanc_1_10::XalanListIteratorBase"** %this.addr, align 8
  call void @llvm.dbg.declare(metadata %"struct.xalanc_1_10::XalanListIteratorBase"** %this.addr, metadata !2884, metadata !DIExpression()), !dbg !2886
  store i32 %0, i32* %.addr, align 4
  call void @llvm.dbg.declare(metadata i32* %.addr, metadata !2887, metadata !DIExpression()), !dbg !2888
  %this1 = load %"struct.xalanc_1_10::XalanListIteratorBase"*, %"struct.xalanc_1_10::XalanListIteratorBase"** %this.addr, align 8
  call void @llvm.dbg.declare(metadata %"struct.xalanc_1_10::XalanList<xalanc_1_10::ReusableArenaBlock<xalanc_1_10::XalanDOMString, unsigned short> *>::Node"** %origNode, metadata !2889, metadata !DIExpression()), !dbg !2890
  %currentNode = getelementptr inbounds %"struct.xalanc_1_10::XalanListIteratorBase", %"struct.xalanc_1_10::XalanListIteratorBase"* %this1, i32 0, i32 0, !dbg !2891
  %2 = load %"struct.xalanc_1_10::XalanList<xalanc_1_10::ReusableArenaBlock<xalanc_1_10::XalanDOMString, unsigned short> *>::Node"*, %"struct.xalanc_1_10::XalanList<xalanc_1_10::ReusableArenaBlock<xalanc_1_10::XalanDOMString, unsigned short> *>::Node"** %currentNode, align 8, !dbg !2891
  store %"struct.xalanc_1_10::XalanList<xalanc_1_10::ReusableArenaBlock<xalanc_1_10::XalanDOMString, unsigned short> *>::Node"* %2, %"struct.xalanc_1_10::XalanList<xalanc_1_10::ReusableArenaBlock<xalanc_1_10::XalanDOMString, unsigned short> *>::Node"** %origNode, align 8, !dbg !2890
  %currentNode2 = getelementptr inbounds %"struct.xalanc_1_10::XalanListIteratorBase", %"struct.xalanc_1_10::XalanListIteratorBase"* %this1, i32 0, i32 0, !dbg !2892
  %3 = load %"struct.xalanc_1_10::XalanList<xalanc_1_10::ReusableArenaBlock<xalanc_1_10::XalanDOMString, unsigned short> *>::Node"*, %"struct.xalanc_1_10::XalanList<xalanc_1_10::ReusableArenaBlock<xalanc_1_10::XalanDOMString, unsigned short> *>::Node"** %currentNode2, align 8, !dbg !2892
  %next = getelementptr inbounds %"struct.xalanc_1_10::XalanList<xalanc_1_10::ReusableArenaBlock<xalanc_1_10::XalanDOMString, unsigned short> *>::Node", %"struct.xalanc_1_10::XalanList<xalanc_1_10::ReusableArenaBlock<xalanc_1_10::XalanDOMString, unsigned short> *>::Node"* %3, i32 0, i32 2, !dbg !2893
  %4 = load %"struct.xalanc_1_10::XalanList<xalanc_1_10::ReusableArenaBlock<xalanc_1_10::XalanDOMString, unsigned short> *>::Node"*, %"struct.xalanc_1_10::XalanList<xalanc_1_10::ReusableArenaBlock<xalanc_1_10::XalanDOMString, unsigned short> *>::Node"** %next, align 8, !dbg !2893
  %currentNode3 = getelementptr inbounds %"struct.xalanc_1_10::XalanListIteratorBase", %"struct.xalanc_1_10::XalanListIteratorBase"* %this1, i32 0, i32 0, !dbg !2894
  store %"struct.xalanc_1_10::XalanList<xalanc_1_10::ReusableArenaBlock<xalanc_1_10::XalanDOMString, unsigned short> *>::Node"* %4, %"struct.xalanc_1_10::XalanList<xalanc_1_10::ReusableArenaBlock<xalanc_1_10::XalanDOMString, unsigned short> *>::Node"** %currentNode3, align 8, !dbg !2895
  %5 = load %"struct.xalanc_1_10::XalanList<xalanc_1_10::ReusableArenaBlock<xalanc_1_10::XalanDOMString, unsigned short> *>::Node"*, %"struct.xalanc_1_10::XalanList<xalanc_1_10::ReusableArenaBlock<xalanc_1_10::XalanDOMString, unsigned short> *>::Node"** %origNode, align 8, !dbg !2896
  call void @_ZN11xalanc_1_1021XalanListIteratorBaseINS_23XalanListIteratorTraitsIPNS_18ReusableArenaBlockINS_14XalanDOMStringEtEEEENS_9XalanListIS5_E4NodeEEC2ERS9_(%"struct.xalanc_1_10::XalanListIteratorBase"* %agg.result, %"struct.xalanc_1_10::XalanList<xalanc_1_10::ReusableArenaBlock<xalanc_1_10::XalanDOMString, unsigned short> *>::Node"* dereferenceable(24) %5), !dbg !2897
  ret void, !dbg !2898
}

; Function Attrs: noinline nounwind uwtable
define linkonce_odr dso_local dereferenceable(24) %"struct.xalanc_1_10::XalanList<xalanc_1_10::ReusableArenaBlock<xalanc_1_10::XalanDOMString, unsigned short> *>::Node"* @_ZN11xalanc_1_1021XalanListIteratorBaseINS_23XalanListIteratorTraitsIPNS_18ReusableArenaBlockINS_14XalanDOMStringEtEEEENS_9XalanListIS5_E4NodeEE4nodeEv(%"struct.xalanc_1_10::XalanListIteratorBase"* %this) #2 comdat align 2 !dbg !2899 {
entry:
  %this.addr = alloca %"struct.xalanc_1_10::XalanListIteratorBase"*, align 8
  store %"struct.xalanc_1_10::XalanListIteratorBase"* %this, %"struct.xalanc_1_10::XalanListIteratorBase"** %this.addr, align 8
  call void @llvm.dbg.declare(metadata %"struct.xalanc_1_10::XalanListIteratorBase"** %this.addr, metadata !2900, metadata !DIExpression()), !dbg !2901
  %this1 = load %"struct.xalanc_1_10::XalanListIteratorBase"*, %"struct.xalanc_1_10::XalanListIteratorBase"** %this.addr, align 8
  %currentNode = getelementptr inbounds %"struct.xalanc_1_10::XalanListIteratorBase", %"struct.xalanc_1_10::XalanListIteratorBase"* %this1, i32 0, i32 0, !dbg !2902
  %0 = load %"struct.xalanc_1_10::XalanList<xalanc_1_10::ReusableArenaBlock<xalanc_1_10::XalanDOMString, unsigned short> *>::Node"*, %"struct.xalanc_1_10::XalanList<xalanc_1_10::ReusableArenaBlock<xalanc_1_10::XalanDOMString, unsigned short> *>::Node"** %currentNode, align 8, !dbg !2902
  ret %"struct.xalanc_1_10::XalanList<xalanc_1_10::ReusableArenaBlock<xalanc_1_10::XalanDOMString, unsigned short> *>::Node"* %0, !dbg !2903
}

; Function Attrs: noinline uwtable
define linkonce_odr dso_local void @_ZN11xalanc_1_109XalanListIPNS_18ReusableArenaBlockINS_14XalanDOMStringEtEEE10deallocateEPNS5_4NodeE(%"class.xalanc_1_10::XalanList"* %this, %"struct.xalanc_1_10::XalanList<xalanc_1_10::ReusableArenaBlock<xalanc_1_10::XalanDOMString, unsigned short> *>::Node"* %pointer) #0 comdat align 2 !dbg !2904 {
entry:
  %this.addr = alloca %"class.xalanc_1_10::XalanList"*, align 8
  %pointer.addr = alloca %"struct.xalanc_1_10::XalanList<xalanc_1_10::ReusableArenaBlock<xalanc_1_10::XalanDOMString, unsigned short> *>::Node"*, align 8
  store %"class.xalanc_1_10::XalanList"* %this, %"class.xalanc_1_10::XalanList"** %this.addr, align 8
  call void @llvm.dbg.declare(metadata %"class.xalanc_1_10::XalanList"** %this.addr, metadata !2905, metadata !DIExpression()), !dbg !2906
  store %"struct.xalanc_1_10::XalanList<xalanc_1_10::ReusableArenaBlock<xalanc_1_10::XalanDOMString, unsigned short> *>::Node"* %pointer, %"struct.xalanc_1_10::XalanList<xalanc_1_10::ReusableArenaBlock<xalanc_1_10::XalanDOMString, unsigned short> *>::Node"** %pointer.addr, align 8
  call void @llvm.dbg.declare(metadata %"struct.xalanc_1_10::XalanList<xalanc_1_10::ReusableArenaBlock<xalanc_1_10::XalanDOMString, unsigned short> *>::Node"** %pointer.addr, metadata !2907, metadata !DIExpression()), !dbg !2908
  %this1 = load %"class.xalanc_1_10::XalanList"*, %"class.xalanc_1_10::XalanList"** %this.addr, align 8
  %m_memoryManager = getelementptr inbounds %"class.xalanc_1_10::XalanList", %"class.xalanc_1_10::XalanList"* %this1, i32 0, i32 0, !dbg !2909
  %0 = load %"class.xercesc_2_7::MemoryManager"*, %"class.xercesc_2_7::MemoryManager"** %m_memoryManager, align 8, !dbg !2909
  %1 = load %"struct.xalanc_1_10::XalanList<xalanc_1_10::ReusableArenaBlock<xalanc_1_10::XalanDOMString, unsigned short> *>::Node"*, %"struct.xalanc_1_10::XalanList<xalanc_1_10::ReusableArenaBlock<xalanc_1_10::XalanDOMString, unsigned short> *>::Node"** %pointer.addr, align 8, !dbg !2910
  %2 = bitcast %"struct.xalanc_1_10::XalanList<xalanc_1_10::ReusableArenaBlock<xalanc_1_10::XalanDOMString, unsigned short> *>::Node"* %1 to i8*, !dbg !2910
  %3 = bitcast %"class.xercesc_2_7::MemoryManager"* %0 to void (%"class.xercesc_2_7::MemoryManager"*, i8*)***, !dbg !2911
  %vtable = load void (%"class.xercesc_2_7::MemoryManager"*, i8*)**, void (%"class.xercesc_2_7::MemoryManager"*, i8*)*** %3, align 8, !dbg !2911
  %vfn = getelementptr inbounds void (%"class.xercesc_2_7::MemoryManager"*, i8*)*, void (%"class.xercesc_2_7::MemoryManager"*, i8*)** %vtable, i64 3, !dbg !2911
  %4 = load void (%"class.xercesc_2_7::MemoryManager"*, i8*)*, void (%"class.xercesc_2_7::MemoryManager"*, i8*)** %vfn, align 8, !dbg !2911
  call void %4(%"class.xercesc_2_7::MemoryManager"* %0, i8* %2), !dbg !2911
  ret void, !dbg !2912
}

; Function Attrs: noinline uwtable
define linkonce_odr dso_local dereferenceable(24) %"struct.xalanc_1_10::XalanList<xalanc_1_10::ReusableArenaBlock<xalanc_1_10::XalanDOMString, unsigned short> *>::Node"* @_ZN11xalanc_1_109XalanListIPNS_18ReusableArenaBlockINS_14XalanDOMStringEtEEE11getListHeadEv(%"class.xalanc_1_10::XalanList"* %this) #0 comdat align 2 !dbg !2913 {
entry:
  %this.addr = alloca %"class.xalanc_1_10::XalanList"*, align 8
  store %"class.xalanc_1_10::XalanList"* %this, %"class.xalanc_1_10::XalanList"** %this.addr, align 8
  call void @llvm.dbg.declare(metadata %"class.xalanc_1_10::XalanList"** %this.addr, metadata !2914, metadata !DIExpression()), !dbg !2915
  %this1 = load %"class.xalanc_1_10::XalanList"*, %"class.xalanc_1_10::XalanList"** %this.addr, align 8
  %m_listHead = getelementptr inbounds %"class.xalanc_1_10::XalanList", %"class.xalanc_1_10::XalanList"* %this1, i32 0, i32 1, !dbg !2916
  %0 = load %"struct.xalanc_1_10::XalanList<xalanc_1_10::ReusableArenaBlock<xalanc_1_10::XalanDOMString, unsigned short> *>::Node"*, %"struct.xalanc_1_10::XalanList<xalanc_1_10::ReusableArenaBlock<xalanc_1_10::XalanDOMString, unsigned short> *>::Node"** %m_listHead, align 8, !dbg !2916
  %cmp = icmp eq %"struct.xalanc_1_10::XalanList<xalanc_1_10::ReusableArenaBlock<xalanc_1_10::XalanDOMString, unsigned short> *>::Node"* null, %0, !dbg !2918
  br i1 %cmp, label %if.then, label %if.end, !dbg !2919

if.then:                                          ; preds = %entry
  %call = call %"struct.xalanc_1_10::XalanList<xalanc_1_10::ReusableArenaBlock<xalanc_1_10::XalanDOMString, unsigned short> *>::Node"* @_ZN11xalanc_1_109XalanListIPNS_18ReusableArenaBlockINS_14XalanDOMStringEtEEE8allocateEm(%"class.xalanc_1_10::XalanList"* %this1, i64 1), !dbg !2920
  %m_listHead2 = getelementptr inbounds %"class.xalanc_1_10::XalanList", %"class.xalanc_1_10::XalanList"* %this1, i32 0, i32 1, !dbg !2922
  store %"struct.xalanc_1_10::XalanList<xalanc_1_10::ReusableArenaBlock<xalanc_1_10::XalanDOMString, unsigned short> *>::Node"* %call, %"struct.xalanc_1_10::XalanList<xalanc_1_10::ReusableArenaBlock<xalanc_1_10::XalanDOMString, unsigned short> *>::Node"** %m_listHead2, align 8, !dbg !2923
  %m_listHead3 = getelementptr inbounds %"class.xalanc_1_10::XalanList", %"class.xalanc_1_10::XalanList"* %this1, i32 0, i32 1, !dbg !2924
  %1 = load %"struct.xalanc_1_10::XalanList<xalanc_1_10::ReusableArenaBlock<xalanc_1_10::XalanDOMString, unsigned short> *>::Node"*, %"struct.xalanc_1_10::XalanList<xalanc_1_10::ReusableArenaBlock<xalanc_1_10::XalanDOMString, unsigned short> *>::Node"** %m_listHead3, align 8, !dbg !2924
  %m_listHead4 = getelementptr inbounds %"class.xalanc_1_10::XalanList", %"class.xalanc_1_10::XalanList"* %this1, i32 0, i32 1, !dbg !2925
  %2 = load %"struct.xalanc_1_10::XalanList<xalanc_1_10::ReusableArenaBlock<xalanc_1_10::XalanDOMString, unsigned short> *>::Node"*, %"struct.xalanc_1_10::XalanList<xalanc_1_10::ReusableArenaBlock<xalanc_1_10::XalanDOMString, unsigned short> *>::Node"** %m_listHead4, align 8, !dbg !2925
  %next = getelementptr inbounds %"struct.xalanc_1_10::XalanList<xalanc_1_10::ReusableArenaBlock<xalanc_1_10::XalanDOMString, unsigned short> *>::Node", %"struct.xalanc_1_10::XalanList<xalanc_1_10::ReusableArenaBlock<xalanc_1_10::XalanDOMString, unsigned short> *>::Node"* %2, i32 0, i32 2, !dbg !2926
  store %"struct.xalanc_1_10::XalanList<xalanc_1_10::ReusableArenaBlock<xalanc_1_10::XalanDOMString, unsigned short> *>::Node"* %1, %"struct.xalanc_1_10::XalanList<xalanc_1_10::ReusableArenaBlock<xalanc_1_10::XalanDOMString, unsigned short> *>::Node"** %next, align 8, !dbg !2927
  %m_listHead5 = getelementptr inbounds %"class.xalanc_1_10::XalanList", %"class.xalanc_1_10::XalanList"* %this1, i32 0, i32 1, !dbg !2928
  %3 = load %"struct.xalanc_1_10::XalanList<xalanc_1_10::ReusableArenaBlock<xalanc_1_10::XalanDOMString, unsigned short> *>::Node"*, %"struct.xalanc_1_10::XalanList<xalanc_1_10::ReusableArenaBlock<xalanc_1_10::XalanDOMString, unsigned short> *>::Node"** %m_listHead5, align 8, !dbg !2928
  %m_listHead6 = getelementptr inbounds %"class.xalanc_1_10::XalanList", %"class.xalanc_1_10::XalanList"* %this1, i32 0, i32 1, !dbg !2929
  %4 = load %"struct.xalanc_1_10::XalanList<xalanc_1_10::ReusableArenaBlock<xalanc_1_10::XalanDOMString, unsigned short> *>::Node"*, %"struct.xalanc_1_10::XalanList<xalanc_1_10::ReusableArenaBlock<xalanc_1_10::XalanDOMString, unsigned short> *>::Node"** %m_listHead6, align 8, !dbg !2929
  %prev = getelementptr inbounds %"struct.xalanc_1_10::XalanList<xalanc_1_10::ReusableArenaBlock<xalanc_1_10::XalanDOMString, unsigned short> *>::Node", %"struct.xalanc_1_10::XalanList<xalanc_1_10::ReusableArenaBlock<xalanc_1_10::XalanDOMString, unsigned short> *>::Node"* %4, i32 0, i32 1, !dbg !2930
  store %"struct.xalanc_1_10::XalanList<xalanc_1_10::ReusableArenaBlock<xalanc_1_10::XalanDOMString, unsigned short> *>::Node"* %3, %"struct.xalanc_1_10::XalanList<xalanc_1_10::ReusableArenaBlock<xalanc_1_10::XalanDOMString, unsigned short> *>::Node"** %prev, align 8, !dbg !2931
  br label %if.end, !dbg !2932

if.end:                                           ; preds = %if.then, %entry
  %m_listHead7 = getelementptr inbounds %"class.xalanc_1_10::XalanList", %"class.xalanc_1_10::XalanList"* %this1, i32 0, i32 1, !dbg !2933
  %5 = load %"struct.xalanc_1_10::XalanList<xalanc_1_10::ReusableArenaBlock<xalanc_1_10::XalanDOMString, unsigned short> *>::Node"*, %"struct.xalanc_1_10::XalanList<xalanc_1_10::ReusableArenaBlock<xalanc_1_10::XalanDOMString, unsigned short> *>::Node"** %m_listHead7, align 8, !dbg !2933
  ret %"struct.xalanc_1_10::XalanList<xalanc_1_10::ReusableArenaBlock<xalanc_1_10::XalanDOMString, unsigned short> *>::Node"* %5, !dbg !2934
}

; Function Attrs: noinline nounwind uwtable
define linkonce_odr dso_local void @_ZN11xalanc_1_1021XalanListIteratorBaseINS_23XalanListIteratorTraitsIPNS_18ReusableArenaBlockINS_14XalanDOMStringEtEEEENS_9XalanListIS5_E4NodeEEC2ERS9_(%"struct.xalanc_1_10::XalanListIteratorBase"* %this, %"struct.xalanc_1_10::XalanList<xalanc_1_10::ReusableArenaBlock<xalanc_1_10::XalanDOMString, unsigned short> *>::Node"* dereferenceable(24) %node) unnamed_addr #2 comdat align 2 !dbg !2935 {
entry:
  %this.addr = alloca %"struct.xalanc_1_10::XalanListIteratorBase"*, align 8
  %node.addr = alloca %"struct.xalanc_1_10::XalanList<xalanc_1_10::ReusableArenaBlock<xalanc_1_10::XalanDOMString, unsigned short> *>::Node"*, align 8
  store %"struct.xalanc_1_10::XalanListIteratorBase"* %this, %"struct.xalanc_1_10::XalanListIteratorBase"** %this.addr, align 8
  call void @llvm.dbg.declare(metadata %"struct.xalanc_1_10::XalanListIteratorBase"** %this.addr, metadata !2936, metadata !DIExpression()), !dbg !2937
  store %"struct.xalanc_1_10::XalanList<xalanc_1_10::ReusableArenaBlock<xalanc_1_10::XalanDOMString, unsigned short> *>::Node"* %node, %"struct.xalanc_1_10::XalanList<xalanc_1_10::ReusableArenaBlock<xalanc_1_10::XalanDOMString, unsigned short> *>::Node"** %node.addr, align 8
  call void @llvm.dbg.declare(metadata %"struct.xalanc_1_10::XalanList<xalanc_1_10::ReusableArenaBlock<xalanc_1_10::XalanDOMString, unsigned short> *>::Node"** %node.addr, metadata !2938, metadata !DIExpression()), !dbg !2939
  %this1 = load %"struct.xalanc_1_10::XalanListIteratorBase"*, %"struct.xalanc_1_10::XalanListIteratorBase"** %this.addr, align 8
  %currentNode = getelementptr inbounds %"struct.xalanc_1_10::XalanListIteratorBase", %"struct.xalanc_1_10::XalanListIteratorBase"* %this1, i32 0, i32 0, !dbg !2940
  %0 = load %"struct.xalanc_1_10::XalanList<xalanc_1_10::ReusableArenaBlock<xalanc_1_10::XalanDOMString, unsigned short> *>::Node"*, %"struct.xalanc_1_10::XalanList<xalanc_1_10::ReusableArenaBlock<xalanc_1_10::XalanDOMString, unsigned short> *>::Node"** %node.addr, align 8, !dbg !2941
  store %"struct.xalanc_1_10::XalanList<xalanc_1_10::ReusableArenaBlock<xalanc_1_10::XalanDOMString, unsigned short> *>::Node"* %0, %"struct.xalanc_1_10::XalanList<xalanc_1_10::ReusableArenaBlock<xalanc_1_10::XalanDOMString, unsigned short> *>::Node"** %currentNode, align 8, !dbg !2940
  ret void, !dbg !2942
}

; Function Attrs: noinline uwtable
define linkonce_odr dso_local %"struct.xalanc_1_10::XalanList<xalanc_1_10::ReusableArenaBlock<xalanc_1_10::XalanDOMString, unsigned short> *>::Node"* @_ZN11xalanc_1_109XalanListIPNS_18ReusableArenaBlockINS_14XalanDOMStringEtEEE8allocateEm(%"class.xalanc_1_10::XalanList"* %this, i64 %size) #0 comdat align 2 !dbg !2943 {
entry:
  %this.addr = alloca %"class.xalanc_1_10::XalanList"*, align 8
  %size.addr = alloca i64, align 8
  %theBytesNeeded = alloca i64, align 8
  %pointer = alloca i8*, align 8
  store %"class.xalanc_1_10::XalanList"* %this, %"class.xalanc_1_10::XalanList"** %this.addr, align 8
  call void @llvm.dbg.declare(metadata %"class.xalanc_1_10::XalanList"** %this.addr, metadata !2944, metadata !DIExpression()), !dbg !2945
  store i64 %size, i64* %size.addr, align 8
  call void @llvm.dbg.declare(metadata i64* %size.addr, metadata !2946, metadata !DIExpression()), !dbg !2947
  %this1 = load %"class.xalanc_1_10::XalanList"*, %"class.xalanc_1_10::XalanList"** %this.addr, align 8
  call void @llvm.dbg.declare(metadata i64* %theBytesNeeded, metadata !2948, metadata !DIExpression()), !dbg !2950
  %0 = load i64, i64* %size.addr, align 8, !dbg !2951
  %mul = mul i64 %0, 24, !dbg !2952
  store i64 %mul, i64* %theBytesNeeded, align 8, !dbg !2950
  call void @llvm.dbg.declare(metadata i8** %pointer, metadata !2953, metadata !DIExpression()), !dbg !2954
  %m_memoryManager = getelementptr inbounds %"class.xalanc_1_10::XalanList", %"class.xalanc_1_10::XalanList"* %this1, i32 0, i32 0, !dbg !2955
  %1 = load %"class.xercesc_2_7::MemoryManager"*, %"class.xercesc_2_7::MemoryManager"** %m_memoryManager, align 8, !dbg !2955
  %2 = load i64, i64* %theBytesNeeded, align 8, !dbg !2956
  %3 = bitcast %"class.xercesc_2_7::MemoryManager"* %1 to i8* (%"class.xercesc_2_7::MemoryManager"*, i64)***, !dbg !2957
  %vtable = load i8* (%"class.xercesc_2_7::MemoryManager"*, i64)**, i8* (%"class.xercesc_2_7::MemoryManager"*, i64)*** %3, align 8, !dbg !2957
  %vfn = getelementptr inbounds i8* (%"class.xercesc_2_7::MemoryManager"*, i64)*, i8* (%"class.xercesc_2_7::MemoryManager"*, i64)** %vtable, i64 2, !dbg !2957
  %4 = load i8* (%"class.xercesc_2_7::MemoryManager"*, i64)*, i8* (%"class.xercesc_2_7::MemoryManager"*, i64)** %vfn, align 8, !dbg !2957
  %call = call i8* %4(%"class.xercesc_2_7::MemoryManager"* %1, i64 %2), !dbg !2957
  store i8* %call, i8** %pointer, align 8, !dbg !2954
  %5 = load i8*, i8** %pointer, align 8, !dbg !2958
  %6 = bitcast i8* %5 to %"struct.xalanc_1_10::XalanList<xalanc_1_10::ReusableArenaBlock<xalanc_1_10::XalanDOMString, unsigned short> *>::Node"*, !dbg !2959
  ret %"struct.xalanc_1_10::XalanList<xalanc_1_10::ReusableArenaBlock<xalanc_1_10::XalanDOMString, unsigned short> *>::Node"* %6, !dbg !2960
}

; Function Attrs: noinline nounwind uwtable
define linkonce_odr dso_local zeroext i1 @_ZNK11xalanc_1_1021XalanListIteratorBaseINS_23XalanListIteratorTraitsIPNS_18ReusableArenaBlockINS_14XalanDOMStringEtEEEENS_9XalanListIS5_E4NodeEEeqERKSA_(%"struct.xalanc_1_10::XalanListIteratorBase"* %this, %"struct.xalanc_1_10::XalanListIteratorBase"* dereferenceable(8) %theRhs) #2 comdat align 2 !dbg !2961 {
entry:
  %this.addr = alloca %"struct.xalanc_1_10::XalanListIteratorBase"*, align 8
  %theRhs.addr = alloca %"struct.xalanc_1_10::XalanListIteratorBase"*, align 8
  store %"struct.xalanc_1_10::XalanListIteratorBase"* %this, %"struct.xalanc_1_10::XalanListIteratorBase"** %this.addr, align 8
  call void @llvm.dbg.declare(metadata %"struct.xalanc_1_10::XalanListIteratorBase"** %this.addr, metadata !2962, metadata !DIExpression()), !dbg !2963
  store %"struct.xalanc_1_10::XalanListIteratorBase"* %theRhs, %"struct.xalanc_1_10::XalanListIteratorBase"** %theRhs.addr, align 8
  call void @llvm.dbg.declare(metadata %"struct.xalanc_1_10::XalanListIteratorBase"** %theRhs.addr, metadata !2964, metadata !DIExpression()), !dbg !2965
  %this1 = load %"struct.xalanc_1_10::XalanListIteratorBase"*, %"struct.xalanc_1_10::XalanListIteratorBase"** %this.addr, align 8
  %currentNode = getelementptr inbounds %"struct.xalanc_1_10::XalanListIteratorBase", %"struct.xalanc_1_10::XalanListIteratorBase"* %this1, i32 0, i32 0, !dbg !2966
  %0 = load %"struct.xalanc_1_10::XalanList<xalanc_1_10::ReusableArenaBlock<xalanc_1_10::XalanDOMString, unsigned short> *>::Node"*, %"struct.xalanc_1_10::XalanList<xalanc_1_10::ReusableArenaBlock<xalanc_1_10::XalanDOMString, unsigned short> *>::Node"** %currentNode, align 8, !dbg !2966
  %1 = load %"struct.xalanc_1_10::XalanListIteratorBase"*, %"struct.xalanc_1_10::XalanListIteratorBase"** %theRhs.addr, align 8, !dbg !2967
  %currentNode2 = getelementptr inbounds %"struct.xalanc_1_10::XalanListIteratorBase", %"struct.xalanc_1_10::XalanListIteratorBase"* %1, i32 0, i32 0, !dbg !2968
  %2 = load %"struct.xalanc_1_10::XalanList<xalanc_1_10::ReusableArenaBlock<xalanc_1_10::XalanDOMString, unsigned short> *>::Node"*, %"struct.xalanc_1_10::XalanList<xalanc_1_10::ReusableArenaBlock<xalanc_1_10::XalanDOMString, unsigned short> *>::Node"** %currentNode2, align 8, !dbg !2968
  %cmp = icmp eq %"struct.xalanc_1_10::XalanList<xalanc_1_10::ReusableArenaBlock<xalanc_1_10::XalanDOMString, unsigned short> *>::Node"* %0, %2, !dbg !2969
  ret i1 %cmp, !dbg !2970
}

; Function Attrs: nobuiltin nounwind
declare dso_local void @_ZdlPv(i8*) #5

; Function Attrs: noinline uwtable
define linkonce_odr dso_local zeroext i1 @_ZNK11xalanc_1_109XalanListIPNS_18ReusableArenaBlockINS_14XalanDOMStringEtEEE5emptyEv(%"class.xalanc_1_10::XalanList"* %this) #0 comdat align 2 !dbg !2971 {
entry:
  %this.addr = alloca %"class.xalanc_1_10::XalanList"*, align 8
  %ref.tmp = alloca %"struct.xalanc_1_10::XalanListIteratorBase.0", align 8
  %ref.tmp2 = alloca %"struct.xalanc_1_10::XalanListIteratorBase.0", align 8
  store %"class.xalanc_1_10::XalanList"* %this, %"class.xalanc_1_10::XalanList"** %this.addr, align 8
  call void @llvm.dbg.declare(metadata %"class.xalanc_1_10::XalanList"** %this.addr, metadata !2972, metadata !DIExpression()), !dbg !2974
  %this1 = load %"class.xalanc_1_10::XalanList"*, %"class.xalanc_1_10::XalanList"** %this.addr, align 8
  %call = call %"struct.xalanc_1_10::XalanList<xalanc_1_10::ReusableArenaBlock<xalanc_1_10::XalanDOMString, unsigned short> *>::Node"* @_ZNK11xalanc_1_109XalanListIPNS_18ReusableArenaBlockINS_14XalanDOMStringEtEEE5beginEv(%"class.xalanc_1_10::XalanList"* %this1), !dbg !2975
  %coerce.dive = getelementptr inbounds %"struct.xalanc_1_10::XalanListIteratorBase.0", %"struct.xalanc_1_10::XalanListIteratorBase.0"* %ref.tmp, i32 0, i32 0, !dbg !2975
  store %"struct.xalanc_1_10::XalanList<xalanc_1_10::ReusableArenaBlock<xalanc_1_10::XalanDOMString, unsigned short> *>::Node"* %call, %"struct.xalanc_1_10::XalanList<xalanc_1_10::ReusableArenaBlock<xalanc_1_10::XalanDOMString, unsigned short> *>::Node"** %coerce.dive, align 8, !dbg !2975
  %call3 = call %"struct.xalanc_1_10::XalanList<xalanc_1_10::ReusableArenaBlock<xalanc_1_10::XalanDOMString, unsigned short> *>::Node"* @_ZNK11xalanc_1_109XalanListIPNS_18ReusableArenaBlockINS_14XalanDOMStringEtEEE3endEv(%"class.xalanc_1_10::XalanList"* %this1), !dbg !2976
  %coerce.dive4 = getelementptr inbounds %"struct.xalanc_1_10::XalanListIteratorBase.0", %"struct.xalanc_1_10::XalanListIteratorBase.0"* %ref.tmp2, i32 0, i32 0, !dbg !2976
  store %"struct.xalanc_1_10::XalanList<xalanc_1_10::ReusableArenaBlock<xalanc_1_10::XalanDOMString, unsigned short> *>::Node"* %call3, %"struct.xalanc_1_10::XalanList<xalanc_1_10::ReusableArenaBlock<xalanc_1_10::XalanDOMString, unsigned short> *>::Node"** %coerce.dive4, align 8, !dbg !2976
  %call5 = call zeroext i1 @_ZNK11xalanc_1_1021XalanListIteratorBaseINS_28XalanListConstIteratorTraitsIPNS_18ReusableArenaBlockINS_14XalanDOMStringEtEEEENS_9XalanListIS5_E4NodeEEeqERKSA_(%"struct.xalanc_1_10::XalanListIteratorBase.0"* %ref.tmp, %"struct.xalanc_1_10::XalanListIteratorBase.0"* dereferenceable(8) %ref.tmp2), !dbg !2977
  %conv = zext i1 %call5 to i32, !dbg !2978
  %cmp = icmp ne i32 %conv, 0, !dbg !2979
  ret i1 %cmp, !dbg !2980
}

; Function Attrs: noinline uwtable
define linkonce_odr dso_local dereferenceable(8) %"class.xalanc_1_10::ReusableArenaBlock"** @_ZN11xalanc_1_109XalanListIPNS_18ReusableArenaBlockINS_14XalanDOMStringEtEEE4backEv(%"class.xalanc_1_10::XalanList"* %this) #0 comdat align 2 !dbg !2981 {
entry:
  %this.addr = alloca %"class.xalanc_1_10::XalanList"*, align 8
  %ref.tmp = alloca %"struct.xalanc_1_10::XalanListIteratorBase", align 8
  %ref.tmp2 = alloca %"struct.xalanc_1_10::XalanListIteratorBase", align 8
  store %"class.xalanc_1_10::XalanList"* %this, %"class.xalanc_1_10::XalanList"** %this.addr, align 8
  call void @llvm.dbg.declare(metadata %"class.xalanc_1_10::XalanList"** %this.addr, metadata !2982, metadata !DIExpression()), !dbg !2983
  %this1 = load %"class.xalanc_1_10::XalanList"*, %"class.xalanc_1_10::XalanList"** %this.addr, align 8
  call void @_ZN11xalanc_1_109XalanListIPNS_18ReusableArenaBlockINS_14XalanDOMStringEtEEE3endEv(%"struct.xalanc_1_10::XalanListIteratorBase"* sret %ref.tmp2, %"class.xalanc_1_10::XalanList"* %this1), !dbg !2984
  call void @_ZN11xalanc_1_1021XalanListIteratorBaseINS_23XalanListIteratorTraitsIPNS_18ReusableArenaBlockINS_14XalanDOMStringEtEEEENS_9XalanListIS5_E4NodeEEmmEv(%"struct.xalanc_1_10::XalanListIteratorBase"* sret %ref.tmp, %"struct.xalanc_1_10::XalanListIteratorBase"* %ref.tmp2), !dbg !2985
  %call = call dereferenceable(8) %"class.xalanc_1_10::ReusableArenaBlock"** @_ZNK11xalanc_1_1021XalanListIteratorBaseINS_23XalanListIteratorTraitsIPNS_18ReusableArenaBlockINS_14XalanDOMStringEtEEEENS_9XalanListIS5_E4NodeEEdeEv(%"struct.xalanc_1_10::XalanListIteratorBase"* %ref.tmp), !dbg !2986
  ret %"class.xalanc_1_10::ReusableArenaBlock"** %call, !dbg !2987
}

; Function Attrs: noinline nounwind uwtable
define linkonce_odr dso_local zeroext i1 @_ZNK11xalanc_1_1014ArenaBlockBaseINS_14XalanDOMStringEtE14blockAvailableEv(%"class.xalanc_1_10::ArenaBlockBase"* %this) #2 comdat align 2 !dbg !2988 {
entry:
  %this.addr = alloca %"class.xalanc_1_10::ArenaBlockBase"*, align 8
  store %"class.xalanc_1_10::ArenaBlockBase"* %this, %"class.xalanc_1_10::ArenaBlockBase"** %this.addr, align 8
  call void @llvm.dbg.declare(metadata %"class.xalanc_1_10::ArenaBlockBase"** %this.addr, metadata !2989, metadata !DIExpression()), !dbg !2991
  %this1 = load %"class.xalanc_1_10::ArenaBlockBase"*, %"class.xalanc_1_10::ArenaBlockBase"** %this.addr, align 8
  %m_objectCount = getelementptr inbounds %"class.xalanc_1_10::ArenaBlockBase", %"class.xalanc_1_10::ArenaBlockBase"* %this1, i32 0, i32 1, !dbg !2992
  %0 = load i16, i16* %m_objectCount, align 8, !dbg !2992
  %conv = zext i16 %0 to i32, !dbg !2992
  %m_blockSize = getelementptr inbounds %"class.xalanc_1_10::ArenaBlockBase", %"class.xalanc_1_10::ArenaBlockBase"* %this1, i32 0, i32 2, !dbg !2993
  %1 = load i16, i16* %m_blockSize, align 2, !dbg !2993
  %conv2 = zext i16 %1 to i32, !dbg !2993
  %cmp = icmp slt i32 %conv, %conv2, !dbg !2994
  %2 = zext i1 %cmp to i64, !dbg !2992
  %cond = select i1 %cmp, i1 true, i1 false, !dbg !2992
  ret i1 %cond, !dbg !2995
}

; Function Attrs: noinline uwtable
define linkonce_odr dso_local void @_ZN11xalanc_1_109XalanListIPNS_18ReusableArenaBlockINS_14XalanDOMStringEtEEE9push_backERKS4_(%"class.xalanc_1_10::XalanList"* %this, %"class.xalanc_1_10::ReusableArenaBlock"** dereferenceable(8) %data) #0 comdat align 2 !dbg !2996 {
entry:
  %this.addr = alloca %"class.xalanc_1_10::XalanList"*, align 8
  %data.addr = alloca %"class.xalanc_1_10::ReusableArenaBlock"**, align 8
  %agg.tmp = alloca %"struct.xalanc_1_10::XalanListIteratorBase", align 8
  store %"class.xalanc_1_10::XalanList"* %this, %"class.xalanc_1_10::XalanList"** %this.addr, align 8
  call void @llvm.dbg.declare(metadata %"class.xalanc_1_10::XalanList"** %this.addr, metadata !2997, metadata !DIExpression()), !dbg !2998
  store %"class.xalanc_1_10::ReusableArenaBlock"** %data, %"class.xalanc_1_10::ReusableArenaBlock"*** %data.addr, align 8
  call void @llvm.dbg.declare(metadata %"class.xalanc_1_10::ReusableArenaBlock"*** %data.addr, metadata !2999, metadata !DIExpression()), !dbg !3000
  %this1 = load %"class.xalanc_1_10::XalanList"*, %"class.xalanc_1_10::XalanList"** %this.addr, align 8
  %0 = load %"class.xalanc_1_10::ReusableArenaBlock"**, %"class.xalanc_1_10::ReusableArenaBlock"*** %data.addr, align 8, !dbg !3001
  call void @_ZN11xalanc_1_109XalanListIPNS_18ReusableArenaBlockINS_14XalanDOMStringEtEEE3endEv(%"struct.xalanc_1_10::XalanListIteratorBase"* sret %agg.tmp, %"class.xalanc_1_10::XalanList"* %this1), !dbg !3002
  %call = call dereferenceable(24) %"struct.xalanc_1_10::XalanList<xalanc_1_10::ReusableArenaBlock<xalanc_1_10::XalanDOMString, unsigned short> *>::Node"* @_ZN11xalanc_1_109XalanListIPNS_18ReusableArenaBlockINS_14XalanDOMStringEtEEE13constructNodeERKS4_NS_21XalanListIteratorBaseINS_23XalanListIteratorTraitsIS4_EENS5_4NodeEEE(%"class.xalanc_1_10::XalanList"* %this1, %"class.xalanc_1_10::ReusableArenaBlock"** dereferenceable(8) %0, %"struct.xalanc_1_10::XalanListIteratorBase"* %agg.tmp), !dbg !3003
  ret void, !dbg !3004
}

; Function Attrs: noinline uwtable
define linkonce_odr dso_local %"class.xalanc_1_10::ReusableArenaBlock"* @_ZN11xalanc_1_1018ReusableArenaBlockINS_14XalanDOMStringEtE6createERN11xercesc_2_713MemoryManagerEt(%"class.xercesc_2_7::MemoryManager"* dereferenceable(8) %theManager, i16 zeroext %theBlockSize) #0 comdat align 2 !dbg !3005 {
entry:
  %theManager.addr = alloca %"class.xercesc_2_7::MemoryManager"*, align 8
  %theBlockSize.addr = alloca i16, align 2
  %theInstance = alloca %"class.xalanc_1_10::ReusableArenaBlock"*, align 8
  store %"class.xercesc_2_7::MemoryManager"* %theManager, %"class.xercesc_2_7::MemoryManager"** %theManager.addr, align 8
  call void @llvm.dbg.declare(metadata %"class.xercesc_2_7::MemoryManager"** %theManager.addr, metadata !3006, metadata !DIExpression()), !dbg !3007
  store i16 %theBlockSize, i16* %theBlockSize.addr, align 2
  call void @llvm.dbg.declare(metadata i16* %theBlockSize.addr, metadata !3008, metadata !DIExpression()), !dbg !3009
  call void @llvm.dbg.declare(metadata %"class.xalanc_1_10::ReusableArenaBlock"** %theInstance, metadata !3010, metadata !DIExpression()), !dbg !3011
  %0 = load %"class.xercesc_2_7::MemoryManager"*, %"class.xercesc_2_7::MemoryManager"** %theManager.addr, align 8, !dbg !3012
  %1 = load %"class.xercesc_2_7::MemoryManager"*, %"class.xercesc_2_7::MemoryManager"** %theManager.addr, align 8, !dbg !3013
  %call = call %"class.xalanc_1_10::ReusableArenaBlock"* @_ZN11xalanc_1_1014XalanConstructINS_18ReusableArenaBlockINS_14XalanDOMStringEtEEN11xercesc_2_713MemoryManagerEtEEPT_RS5_RS7_RT0_RKT1_(%"class.xercesc_2_7::MemoryManager"* dereferenceable(8) %0, %"class.xalanc_1_10::ReusableArenaBlock"** dereferenceable(8) %theInstance, %"class.xercesc_2_7::MemoryManager"* dereferenceable(8) %1, i16* dereferenceable(2) %theBlockSize.addr), !dbg !3014
  ret %"class.xalanc_1_10::ReusableArenaBlock"* %call, !dbg !3015
}

; Function Attrs: noinline uwtable
define linkonce_odr dso_local %"class.xalanc_1_10::XalanDOMString"* @_ZN11xalanc_1_1018ReusableArenaBlockINS_14XalanDOMStringEtE13allocateBlockEv(%"class.xalanc_1_10::ReusableArenaBlock"* %this) #0 comdat align 2 !dbg !3016 {
entry:
  %retval = alloca %"class.xalanc_1_10::XalanDOMString"*, align 8
  %this.addr = alloca %"class.xalanc_1_10::ReusableArenaBlock"*, align 8
  %theResult = alloca %"class.xalanc_1_10::XalanDOMString"*, align 8
  store %"class.xalanc_1_10::ReusableArenaBlock"* %this, %"class.xalanc_1_10::ReusableArenaBlock"** %this.addr, align 8
  call void @llvm.dbg.declare(metadata %"class.xalanc_1_10::ReusableArenaBlock"** %this.addr, metadata !3017, metadata !DIExpression()), !dbg !3018
  %this1 = load %"class.xalanc_1_10::ReusableArenaBlock"*, %"class.xalanc_1_10::ReusableArenaBlock"** %this.addr, align 8
  %0 = bitcast %"class.xalanc_1_10::ReusableArenaBlock"* %this1 to %"class.xalanc_1_10::ArenaBlockBase"*, !dbg !3019
  %m_objectCount = getelementptr inbounds %"class.xalanc_1_10::ArenaBlockBase", %"class.xalanc_1_10::ArenaBlockBase"* %0, i32 0, i32 1, !dbg !3019
  %1 = load i16, i16* %m_objectCount, align 8, !dbg !3019
  %conv = zext i16 %1 to i32, !dbg !3021
  %2 = bitcast %"class.xalanc_1_10::ReusableArenaBlock"* %this1 to %"class.xalanc_1_10::ArenaBlockBase"*, !dbg !3022
  %m_blockSize = getelementptr inbounds %"class.xalanc_1_10::ArenaBlockBase", %"class.xalanc_1_10::ArenaBlockBase"* %2, i32 0, i32 2, !dbg !3022
  %3 = load i16, i16* %m_blockSize, align 2, !dbg !3022
  %conv2 = zext i16 %3 to i32, !dbg !3023
  %cmp = icmp eq i32 %conv, %conv2, !dbg !3024
  br i1 %cmp, label %if.then, label %if.else, !dbg !3025

if.then:                                          ; preds = %entry
  store %"class.xalanc_1_10::XalanDOMString"* null, %"class.xalanc_1_10::XalanDOMString"** %retval, align 8, !dbg !3026
  br label %return, !dbg !3026

if.else:                                          ; preds = %entry
  call void @llvm.dbg.declare(metadata %"class.xalanc_1_10::XalanDOMString"** %theResult, metadata !3028, metadata !DIExpression()), !dbg !3030
  store %"class.xalanc_1_10::XalanDOMString"* null, %"class.xalanc_1_10::XalanDOMString"** %theResult, align 8, !dbg !3030
  %m_firstFreeBlock = getelementptr inbounds %"class.xalanc_1_10::ReusableArenaBlock", %"class.xalanc_1_10::ReusableArenaBlock"* %this1, i32 0, i32 1, !dbg !3031
  %4 = load i16, i16* %m_firstFreeBlock, align 8, !dbg !3031
  %conv3 = zext i16 %4 to i32, !dbg !3033
  %m_nextFreeBlock = getelementptr inbounds %"class.xalanc_1_10::ReusableArenaBlock", %"class.xalanc_1_10::ReusableArenaBlock"* %this1, i32 0, i32 2, !dbg !3034
  %5 = load i16, i16* %m_nextFreeBlock, align 2, !dbg !3034
  %conv4 = zext i16 %5 to i32, !dbg !3035
  %cmp5 = icmp ne i32 %conv3, %conv4, !dbg !3036
  br i1 %cmp5, label %if.then6, label %if.else9, !dbg !3037

if.then6:                                         ; preds = %if.else
  %6 = bitcast %"class.xalanc_1_10::ReusableArenaBlock"* %this1 to %"class.xalanc_1_10::ArenaBlockBase"*, !dbg !3038
  %m_objectBlock = getelementptr inbounds %"class.xalanc_1_10::ArenaBlockBase", %"class.xalanc_1_10::ArenaBlockBase"* %6, i32 0, i32 3, !dbg !3038
  %7 = load %"class.xalanc_1_10::XalanDOMString"*, %"class.xalanc_1_10::XalanDOMString"** %m_objectBlock, align 8, !dbg !3038
  %m_firstFreeBlock7 = getelementptr inbounds %"class.xalanc_1_10::ReusableArenaBlock", %"class.xalanc_1_10::ReusableArenaBlock"* %this1, i32 0, i32 1, !dbg !3040
  %8 = load i16, i16* %m_firstFreeBlock7, align 8, !dbg !3040
  %conv8 = zext i16 %8 to i32, !dbg !3041
  %idx.ext = sext i32 %conv8 to i64, !dbg !3042
  %add.ptr = getelementptr inbounds %"class.xalanc_1_10::XalanDOMString", %"class.xalanc_1_10::XalanDOMString"* %7, i64 %idx.ext, !dbg !3042
  store %"class.xalanc_1_10::XalanDOMString"* %add.ptr, %"class.xalanc_1_10::XalanDOMString"** %theResult, align 8, !dbg !3043
  br label %if.end, !dbg !3044

if.else9:                                         ; preds = %if.else
  %9 = bitcast %"class.xalanc_1_10::ReusableArenaBlock"* %this1 to %"class.xalanc_1_10::ArenaBlockBase"*, !dbg !3045
  %m_objectBlock10 = getelementptr inbounds %"class.xalanc_1_10::ArenaBlockBase", %"class.xalanc_1_10::ArenaBlockBase"* %9, i32 0, i32 3, !dbg !3045
  %10 = load %"class.xalanc_1_10::XalanDOMString"*, %"class.xalanc_1_10::XalanDOMString"** %m_objectBlock10, align 8, !dbg !3045
  %m_firstFreeBlock11 = getelementptr inbounds %"class.xalanc_1_10::ReusableArenaBlock", %"class.xalanc_1_10::ReusableArenaBlock"* %this1, i32 0, i32 1, !dbg !3047
  %11 = load i16, i16* %m_firstFreeBlock11, align 8, !dbg !3047
  %conv12 = zext i16 %11 to i32, !dbg !3048
  %idx.ext13 = sext i32 %conv12 to i64, !dbg !3049
  %add.ptr14 = getelementptr inbounds %"class.xalanc_1_10::XalanDOMString", %"class.xalanc_1_10::XalanDOMString"* %10, i64 %idx.ext13, !dbg !3049
  store %"class.xalanc_1_10::XalanDOMString"* %add.ptr14, %"class.xalanc_1_10::XalanDOMString"** %theResult, align 8, !dbg !3050
  %12 = load %"class.xalanc_1_10::XalanDOMString"*, %"class.xalanc_1_10::XalanDOMString"** %theResult, align 8, !dbg !3051
  %13 = bitcast %"class.xalanc_1_10::XalanDOMString"* %12 to i8*, !dbg !3051
  %call = call %"struct.xalanc_1_10::ReusableArenaBlock<xalanc_1_10::XalanDOMString, unsigned short>::NextBlock"* @_ZN11xalanc_1_1018ReusableArenaBlockINS_14XalanDOMStringEtE9NextBlock4castEPv(i8* %13), !dbg !3052
  %next = getelementptr inbounds %"struct.xalanc_1_10::ReusableArenaBlock<xalanc_1_10::XalanDOMString, unsigned short>::NextBlock", %"struct.xalanc_1_10::ReusableArenaBlock<xalanc_1_10::XalanDOMString, unsigned short>::NextBlock"* %call, i32 0, i32 0, !dbg !3053
  %14 = load i16, i16* %next, align 4, !dbg !3053
  %m_nextFreeBlock15 = getelementptr inbounds %"class.xalanc_1_10::ReusableArenaBlock", %"class.xalanc_1_10::ReusableArenaBlock"* %this1, i32 0, i32 2, !dbg !3054
  store i16 %14, i16* %m_nextFreeBlock15, align 2, !dbg !3055
  %15 = bitcast %"class.xalanc_1_10::ReusableArenaBlock"* %this1 to %"class.xalanc_1_10::ArenaBlockBase"*, !dbg !3056
  %m_objectCount16 = getelementptr inbounds %"class.xalanc_1_10::ArenaBlockBase", %"class.xalanc_1_10::ArenaBlockBase"* %15, i32 0, i32 1, !dbg !3056
  %16 = load i16, i16* %m_objectCount16, align 8, !dbg !3057
  %inc = add i16 %16, 1, !dbg !3057
  store i16 %inc, i16* %m_objectCount16, align 8, !dbg !3057
  br label %if.end

if.end:                                           ; preds = %if.else9, %if.then6
  %17 = load %"class.xalanc_1_10::XalanDOMString"*, %"class.xalanc_1_10::XalanDOMString"** %theResult, align 8, !dbg !3058
  store %"class.xalanc_1_10::XalanDOMString"* %17, %"class.xalanc_1_10::XalanDOMString"** %retval, align 8, !dbg !3059
  br label %return, !dbg !3059

return:                                           ; preds = %if.end, %if.then
  %18 = load %"class.xalanc_1_10::XalanDOMString"*, %"class.xalanc_1_10::XalanDOMString"** %retval, align 8, !dbg !3060
  ret %"class.xalanc_1_10::XalanDOMString"* %18, !dbg !3060
}

; Function Attrs: noinline uwtable
define linkonce_odr dso_local %"struct.xalanc_1_10::XalanList<xalanc_1_10::ReusableArenaBlock<xalanc_1_10::XalanDOMString, unsigned short> *>::Node"* @_ZNK11xalanc_1_109XalanListIPNS_18ReusableArenaBlockINS_14XalanDOMStringEtEEE5beginEv(%"class.xalanc_1_10::XalanList"* %this) #0 comdat align 2 !dbg !3061 {
entry:
  %retval = alloca %"struct.xalanc_1_10::XalanListIteratorBase.0", align 8
  %this.addr = alloca %"class.xalanc_1_10::XalanList"*, align 8
  store %"class.xalanc_1_10::XalanList"* %this, %"class.xalanc_1_10::XalanList"** %this.addr, align 8
  call void @llvm.dbg.declare(metadata %"class.xalanc_1_10::XalanList"** %this.addr, metadata !3062, metadata !DIExpression()), !dbg !3063
  %this1 = load %"class.xalanc_1_10::XalanList"*, %"class.xalanc_1_10::XalanList"** %this.addr, align 8
  %call = call dereferenceable(24) %"struct.xalanc_1_10::XalanList<xalanc_1_10::ReusableArenaBlock<xalanc_1_10::XalanDOMString, unsigned short> *>::Node"* @_ZNK11xalanc_1_109XalanListIPNS_18ReusableArenaBlockINS_14XalanDOMStringEtEEE11getListHeadEv(%"class.xalanc_1_10::XalanList"* %this1), !dbg !3064
  %next = getelementptr inbounds %"struct.xalanc_1_10::XalanList<xalanc_1_10::ReusableArenaBlock<xalanc_1_10::XalanDOMString, unsigned short> *>::Node", %"struct.xalanc_1_10::XalanList<xalanc_1_10::ReusableArenaBlock<xalanc_1_10::XalanDOMString, unsigned short> *>::Node"* %call, i32 0, i32 2, !dbg !3065
  %0 = load %"struct.xalanc_1_10::XalanList<xalanc_1_10::ReusableArenaBlock<xalanc_1_10::XalanDOMString, unsigned short> *>::Node"*, %"struct.xalanc_1_10::XalanList<xalanc_1_10::ReusableArenaBlock<xalanc_1_10::XalanDOMString, unsigned short> *>::Node"** %next, align 8, !dbg !3065
  call void @_ZN11xalanc_1_1021XalanListIteratorBaseINS_28XalanListConstIteratorTraitsIPNS_18ReusableArenaBlockINS_14XalanDOMStringEtEEEENS_9XalanListIS5_E4NodeEEC2ERS9_(%"struct.xalanc_1_10::XalanListIteratorBase.0"* %retval, %"struct.xalanc_1_10::XalanList<xalanc_1_10::ReusableArenaBlock<xalanc_1_10::XalanDOMString, unsigned short> *>::Node"* dereferenceable(24) %0), !dbg !3066
  %coerce.dive = getelementptr inbounds %"struct.xalanc_1_10::XalanListIteratorBase.0", %"struct.xalanc_1_10::XalanListIteratorBase.0"* %retval, i32 0, i32 0, !dbg !3067
  %1 = load %"struct.xalanc_1_10::XalanList<xalanc_1_10::ReusableArenaBlock<xalanc_1_10::XalanDOMString, unsigned short> *>::Node"*, %"struct.xalanc_1_10::XalanList<xalanc_1_10::ReusableArenaBlock<xalanc_1_10::XalanDOMString, unsigned short> *>::Node"** %coerce.dive, align 8, !dbg !3067
  ret %"struct.xalanc_1_10::XalanList<xalanc_1_10::ReusableArenaBlock<xalanc_1_10::XalanDOMString, unsigned short> *>::Node"* %1, !dbg !3067
}

; Function Attrs: noinline nounwind uwtable
define linkonce_odr dso_local zeroext i1 @_ZNK11xalanc_1_1021XalanListIteratorBaseINS_28XalanListConstIteratorTraitsIPNS_18ReusableArenaBlockINS_14XalanDOMStringEtEEEENS_9XalanListIS5_E4NodeEEeqERKSA_(%"struct.xalanc_1_10::XalanListIteratorBase.0"* %this, %"struct.xalanc_1_10::XalanListIteratorBase.0"* dereferenceable(8) %theRhs) #2 comdat align 2 !dbg !3068 {
entry:
  %this.addr = alloca %"struct.xalanc_1_10::XalanListIteratorBase.0"*, align 8
  %theRhs.addr = alloca %"struct.xalanc_1_10::XalanListIteratorBase.0"*, align 8
  store %"struct.xalanc_1_10::XalanListIteratorBase.0"* %this, %"struct.xalanc_1_10::XalanListIteratorBase.0"** %this.addr, align 8
  call void @llvm.dbg.declare(metadata %"struct.xalanc_1_10::XalanListIteratorBase.0"** %this.addr, metadata !3069, metadata !DIExpression()), !dbg !3071
  store %"struct.xalanc_1_10::XalanListIteratorBase.0"* %theRhs, %"struct.xalanc_1_10::XalanListIteratorBase.0"** %theRhs.addr, align 8
  call void @llvm.dbg.declare(metadata %"struct.xalanc_1_10::XalanListIteratorBase.0"** %theRhs.addr, metadata !3072, metadata !DIExpression()), !dbg !3073
  %this1 = load %"struct.xalanc_1_10::XalanListIteratorBase.0"*, %"struct.xalanc_1_10::XalanListIteratorBase.0"** %this.addr, align 8
  %currentNode = getelementptr inbounds %"struct.xalanc_1_10::XalanListIteratorBase.0", %"struct.xalanc_1_10::XalanListIteratorBase.0"* %this1, i32 0, i32 0, !dbg !3074
  %0 = load %"struct.xalanc_1_10::XalanList<xalanc_1_10::ReusableArenaBlock<xalanc_1_10::XalanDOMString, unsigned short> *>::Node"*, %"struct.xalanc_1_10::XalanList<xalanc_1_10::ReusableArenaBlock<xalanc_1_10::XalanDOMString, unsigned short> *>::Node"** %currentNode, align 8, !dbg !3074
  %1 = load %"struct.xalanc_1_10::XalanListIteratorBase.0"*, %"struct.xalanc_1_10::XalanListIteratorBase.0"** %theRhs.addr, align 8, !dbg !3075
  %currentNode2 = getelementptr inbounds %"struct.xalanc_1_10::XalanListIteratorBase.0", %"struct.xalanc_1_10::XalanListIteratorBase.0"* %1, i32 0, i32 0, !dbg !3076
  %2 = load %"struct.xalanc_1_10::XalanList<xalanc_1_10::ReusableArenaBlock<xalanc_1_10::XalanDOMString, unsigned short> *>::Node"*, %"struct.xalanc_1_10::XalanList<xalanc_1_10::ReusableArenaBlock<xalanc_1_10::XalanDOMString, unsigned short> *>::Node"** %currentNode2, align 8, !dbg !3076
  %cmp = icmp eq %"struct.xalanc_1_10::XalanList<xalanc_1_10::ReusableArenaBlock<xalanc_1_10::XalanDOMString, unsigned short> *>::Node"* %0, %2, !dbg !3077
  ret i1 %cmp, !dbg !3078
}

; Function Attrs: noinline uwtable
define linkonce_odr dso_local %"struct.xalanc_1_10::XalanList<xalanc_1_10::ReusableArenaBlock<xalanc_1_10::XalanDOMString, unsigned short> *>::Node"* @_ZNK11xalanc_1_109XalanListIPNS_18ReusableArenaBlockINS_14XalanDOMStringEtEEE3endEv(%"class.xalanc_1_10::XalanList"* %this) #0 comdat align 2 !dbg !3079 {
entry:
  %retval = alloca %"struct.xalanc_1_10::XalanListIteratorBase.0", align 8
  %this.addr = alloca %"class.xalanc_1_10::XalanList"*, align 8
  store %"class.xalanc_1_10::XalanList"* %this, %"class.xalanc_1_10::XalanList"** %this.addr, align 8
  call void @llvm.dbg.declare(metadata %"class.xalanc_1_10::XalanList"** %this.addr, metadata !3080, metadata !DIExpression()), !dbg !3081
  %this1 = load %"class.xalanc_1_10::XalanList"*, %"class.xalanc_1_10::XalanList"** %this.addr, align 8
  %call = call dereferenceable(24) %"struct.xalanc_1_10::XalanList<xalanc_1_10::ReusableArenaBlock<xalanc_1_10::XalanDOMString, unsigned short> *>::Node"* @_ZNK11xalanc_1_109XalanListIPNS_18ReusableArenaBlockINS_14XalanDOMStringEtEEE11getListHeadEv(%"class.xalanc_1_10::XalanList"* %this1), !dbg !3082
  call void @_ZN11xalanc_1_1021XalanListIteratorBaseINS_28XalanListConstIteratorTraitsIPNS_18ReusableArenaBlockINS_14XalanDOMStringEtEEEENS_9XalanListIS5_E4NodeEEC2ERS9_(%"struct.xalanc_1_10::XalanListIteratorBase.0"* %retval, %"struct.xalanc_1_10::XalanList<xalanc_1_10::ReusableArenaBlock<xalanc_1_10::XalanDOMString, unsigned short> *>::Node"* dereferenceable(24) %call), !dbg !3083
  %coerce.dive = getelementptr inbounds %"struct.xalanc_1_10::XalanListIteratorBase.0", %"struct.xalanc_1_10::XalanListIteratorBase.0"* %retval, i32 0, i32 0, !dbg !3084
  %0 = load %"struct.xalanc_1_10::XalanList<xalanc_1_10::ReusableArenaBlock<xalanc_1_10::XalanDOMString, unsigned short> *>::Node"*, %"struct.xalanc_1_10::XalanList<xalanc_1_10::ReusableArenaBlock<xalanc_1_10::XalanDOMString, unsigned short> *>::Node"** %coerce.dive, align 8, !dbg !3084
  ret %"struct.xalanc_1_10::XalanList<xalanc_1_10::ReusableArenaBlock<xalanc_1_10::XalanDOMString, unsigned short> *>::Node"* %0, !dbg !3084
}

; Function Attrs: noinline uwtable
define linkonce_odr dso_local dereferenceable(24) %"struct.xalanc_1_10::XalanList<xalanc_1_10::ReusableArenaBlock<xalanc_1_10::XalanDOMString, unsigned short> *>::Node"* @_ZNK11xalanc_1_109XalanListIPNS_18ReusableArenaBlockINS_14XalanDOMStringEtEEE11getListHeadEv(%"class.xalanc_1_10::XalanList"* %this) #0 comdat align 2 !dbg !3085 {
entry:
  %this.addr = alloca %"class.xalanc_1_10::XalanList"*, align 8
  store %"class.xalanc_1_10::XalanList"* %this, %"class.xalanc_1_10::XalanList"** %this.addr, align 8
  call void @llvm.dbg.declare(metadata %"class.xalanc_1_10::XalanList"** %this.addr, metadata !3086, metadata !DIExpression()), !dbg !3087
  %this1 = load %"class.xalanc_1_10::XalanList"*, %"class.xalanc_1_10::XalanList"** %this.addr, align 8
  %call = call dereferenceable(24) %"struct.xalanc_1_10::XalanList<xalanc_1_10::ReusableArenaBlock<xalanc_1_10::XalanDOMString, unsigned short> *>::Node"* @_ZN11xalanc_1_109XalanListIPNS_18ReusableArenaBlockINS_14XalanDOMStringEtEEE11getListHeadEv(%"class.xalanc_1_10::XalanList"* %this1), !dbg !3088
  ret %"struct.xalanc_1_10::XalanList<xalanc_1_10::ReusableArenaBlock<xalanc_1_10::XalanDOMString, unsigned short> *>::Node"* %call, !dbg !3089
}

; Function Attrs: noinline nounwind uwtable
define linkonce_odr dso_local void @_ZN11xalanc_1_1021XalanListIteratorBaseINS_28XalanListConstIteratorTraitsIPNS_18ReusableArenaBlockINS_14XalanDOMStringEtEEEENS_9XalanListIS5_E4NodeEEC2ERS9_(%"struct.xalanc_1_10::XalanListIteratorBase.0"* %this, %"struct.xalanc_1_10::XalanList<xalanc_1_10::ReusableArenaBlock<xalanc_1_10::XalanDOMString, unsigned short> *>::Node"* dereferenceable(24) %node) unnamed_addr #2 comdat align 2 !dbg !3090 {
entry:
  %this.addr = alloca %"struct.xalanc_1_10::XalanListIteratorBase.0"*, align 8
  %node.addr = alloca %"struct.xalanc_1_10::XalanList<xalanc_1_10::ReusableArenaBlock<xalanc_1_10::XalanDOMString, unsigned short> *>::Node"*, align 8
  store %"struct.xalanc_1_10::XalanListIteratorBase.0"* %this, %"struct.xalanc_1_10::XalanListIteratorBase.0"** %this.addr, align 8
  call void @llvm.dbg.declare(metadata %"struct.xalanc_1_10::XalanListIteratorBase.0"** %this.addr, metadata !3091, metadata !DIExpression()), !dbg !3093
  store %"struct.xalanc_1_10::XalanList<xalanc_1_10::ReusableArenaBlock<xalanc_1_10::XalanDOMString, unsigned short> *>::Node"* %node, %"struct.xalanc_1_10::XalanList<xalanc_1_10::ReusableArenaBlock<xalanc_1_10::XalanDOMString, unsigned short> *>::Node"** %node.addr, align 8
  call void @llvm.dbg.declare(metadata %"struct.xalanc_1_10::XalanList<xalanc_1_10::ReusableArenaBlock<xalanc_1_10::XalanDOMString, unsigned short> *>::Node"** %node.addr, metadata !3094, metadata !DIExpression()), !dbg !3095
  %this1 = load %"struct.xalanc_1_10::XalanListIteratorBase.0"*, %"struct.xalanc_1_10::XalanListIteratorBase.0"** %this.addr, align 8
  %currentNode = getelementptr inbounds %"struct.xalanc_1_10::XalanListIteratorBase.0", %"struct.xalanc_1_10::XalanListIteratorBase.0"* %this1, i32 0, i32 0, !dbg !3096
  %0 = load %"struct.xalanc_1_10::XalanList<xalanc_1_10::ReusableArenaBlock<xalanc_1_10::XalanDOMString, unsigned short> *>::Node"*, %"struct.xalanc_1_10::XalanList<xalanc_1_10::ReusableArenaBlock<xalanc_1_10::XalanDOMString, unsigned short> *>::Node"** %node.addr, align 8, !dbg !3097
  store %"struct.xalanc_1_10::XalanList<xalanc_1_10::ReusableArenaBlock<xalanc_1_10::XalanDOMString, unsigned short> *>::Node"* %0, %"struct.xalanc_1_10::XalanList<xalanc_1_10::ReusableArenaBlock<xalanc_1_10::XalanDOMString, unsigned short> *>::Node"** %currentNode, align 8, !dbg !3096
  ret void, !dbg !3098
}

; Function Attrs: noinline uwtable
define linkonce_odr dso_local void @_ZN11xalanc_1_1021XalanListIteratorBaseINS_23XalanListIteratorTraitsIPNS_18ReusableArenaBlockINS_14XalanDOMStringEtEEEENS_9XalanListIS5_E4NodeEEmmEv(%"struct.xalanc_1_10::XalanListIteratorBase"* noalias sret %agg.result, %"struct.xalanc_1_10::XalanListIteratorBase"* %this) #0 comdat align 2 !dbg !3099 {
entry:
  %result.ptr = alloca i8*, align 8
  %this.addr = alloca %"struct.xalanc_1_10::XalanListIteratorBase"*, align 8
  %0 = bitcast %"struct.xalanc_1_10::XalanListIteratorBase"* %agg.result to i8*
  store i8* %0, i8** %result.ptr, align 8
  store %"struct.xalanc_1_10::XalanListIteratorBase"* %this, %"struct.xalanc_1_10::XalanListIteratorBase"** %this.addr, align 8
  call void @llvm.dbg.declare(metadata %"struct.xalanc_1_10::XalanListIteratorBase"** %this.addr, metadata !3100, metadata !DIExpression()), !dbg !3101
  %this1 = load %"struct.xalanc_1_10::XalanListIteratorBase"*, %"struct.xalanc_1_10::XalanListIteratorBase"** %this.addr, align 8
  %currentNode = getelementptr inbounds %"struct.xalanc_1_10::XalanListIteratorBase", %"struct.xalanc_1_10::XalanListIteratorBase"* %this1, i32 0, i32 0, !dbg !3102
  %1 = load %"struct.xalanc_1_10::XalanList<xalanc_1_10::ReusableArenaBlock<xalanc_1_10::XalanDOMString, unsigned short> *>::Node"*, %"struct.xalanc_1_10::XalanList<xalanc_1_10::ReusableArenaBlock<xalanc_1_10::XalanDOMString, unsigned short> *>::Node"** %currentNode, align 8, !dbg !3102
  %prev = getelementptr inbounds %"struct.xalanc_1_10::XalanList<xalanc_1_10::ReusableArenaBlock<xalanc_1_10::XalanDOMString, unsigned short> *>::Node", %"struct.xalanc_1_10::XalanList<xalanc_1_10::ReusableArenaBlock<xalanc_1_10::XalanDOMString, unsigned short> *>::Node"* %1, i32 0, i32 1, !dbg !3103
  %2 = load %"struct.xalanc_1_10::XalanList<xalanc_1_10::ReusableArenaBlock<xalanc_1_10::XalanDOMString, unsigned short> *>::Node"*, %"struct.xalanc_1_10::XalanList<xalanc_1_10::ReusableArenaBlock<xalanc_1_10::XalanDOMString, unsigned short> *>::Node"** %prev, align 8, !dbg !3103
  %currentNode2 = getelementptr inbounds %"struct.xalanc_1_10::XalanListIteratorBase", %"struct.xalanc_1_10::XalanListIteratorBase"* %this1, i32 0, i32 0, !dbg !3104
  store %"struct.xalanc_1_10::XalanList<xalanc_1_10::ReusableArenaBlock<xalanc_1_10::XalanDOMString, unsigned short> *>::Node"* %2, %"struct.xalanc_1_10::XalanList<xalanc_1_10::ReusableArenaBlock<xalanc_1_10::XalanDOMString, unsigned short> *>::Node"** %currentNode2, align 8, !dbg !3105
  call void @_ZN11xalanc_1_1021XalanListIteratorBaseINS_23XalanListIteratorTraitsIPNS_18ReusableArenaBlockINS_14XalanDOMStringEtEEEENS_9XalanListIS5_E4NodeEEC2ERKSA_(%"struct.xalanc_1_10::XalanListIteratorBase"* %agg.result, %"struct.xalanc_1_10::XalanListIteratorBase"* dereferenceable(8) %this1), !dbg !3106
  ret void, !dbg !3107
}

; Function Attrs: noinline nounwind uwtable
define linkonce_odr dso_local dereferenceable(8) %"class.xalanc_1_10::ReusableArenaBlock"** @_ZNK11xalanc_1_1021XalanListIteratorBaseINS_23XalanListIteratorTraitsIPNS_18ReusableArenaBlockINS_14XalanDOMStringEtEEEENS_9XalanListIS5_E4NodeEEdeEv(%"struct.xalanc_1_10::XalanListIteratorBase"* %this) #2 comdat align 2 !dbg !3108 {
entry:
  %this.addr = alloca %"struct.xalanc_1_10::XalanListIteratorBase"*, align 8
  store %"struct.xalanc_1_10::XalanListIteratorBase"* %this, %"struct.xalanc_1_10::XalanListIteratorBase"** %this.addr, align 8
  call void @llvm.dbg.declare(metadata %"struct.xalanc_1_10::XalanListIteratorBase"** %this.addr, metadata !3109, metadata !DIExpression()), !dbg !3110
  %this1 = load %"struct.xalanc_1_10::XalanListIteratorBase"*, %"struct.xalanc_1_10::XalanListIteratorBase"** %this.addr, align 8
  %currentNode = getelementptr inbounds %"struct.xalanc_1_10::XalanListIteratorBase", %"struct.xalanc_1_10::XalanListIteratorBase"* %this1, i32 0, i32 0, !dbg !3111
  %0 = load %"struct.xalanc_1_10::XalanList<xalanc_1_10::ReusableArenaBlock<xalanc_1_10::XalanDOMString, unsigned short> *>::Node"*, %"struct.xalanc_1_10::XalanList<xalanc_1_10::ReusableArenaBlock<xalanc_1_10::XalanDOMString, unsigned short> *>::Node"** %currentNode, align 8, !dbg !3111
  %value = getelementptr inbounds %"struct.xalanc_1_10::XalanList<xalanc_1_10::ReusableArenaBlock<xalanc_1_10::XalanDOMString, unsigned short> *>::Node", %"struct.xalanc_1_10::XalanList<xalanc_1_10::ReusableArenaBlock<xalanc_1_10::XalanDOMString, unsigned short> *>::Node"* %0, i32 0, i32 0, !dbg !3112
  ret %"class.xalanc_1_10::ReusableArenaBlock"** %value, !dbg !3113
}

; Function Attrs: noinline nounwind uwtable
define linkonce_odr dso_local void @_ZN11xalanc_1_1021XalanListIteratorBaseINS_23XalanListIteratorTraitsIPNS_18ReusableArenaBlockINS_14XalanDOMStringEtEEEENS_9XalanListIS5_E4NodeEEC2ERKSA_(%"struct.xalanc_1_10::XalanListIteratorBase"* %this, %"struct.xalanc_1_10::XalanListIteratorBase"* dereferenceable(8) %theRhs) unnamed_addr #2 comdat align 2 !dbg !3114 {
entry:
  %this.addr = alloca %"struct.xalanc_1_10::XalanListIteratorBase"*, align 8
  %theRhs.addr = alloca %"struct.xalanc_1_10::XalanListIteratorBase"*, align 8
  store %"struct.xalanc_1_10::XalanListIteratorBase"* %this, %"struct.xalanc_1_10::XalanListIteratorBase"** %this.addr, align 8
  call void @llvm.dbg.declare(metadata %"struct.xalanc_1_10::XalanListIteratorBase"** %this.addr, metadata !3115, metadata !DIExpression()), !dbg !3116
  store %"struct.xalanc_1_10::XalanListIteratorBase"* %theRhs, %"struct.xalanc_1_10::XalanListIteratorBase"** %theRhs.addr, align 8
  call void @llvm.dbg.declare(metadata %"struct.xalanc_1_10::XalanListIteratorBase"** %theRhs.addr, metadata !3117, metadata !DIExpression()), !dbg !3118
  %this1 = load %"struct.xalanc_1_10::XalanListIteratorBase"*, %"struct.xalanc_1_10::XalanListIteratorBase"** %this.addr, align 8
  %currentNode = getelementptr inbounds %"struct.xalanc_1_10::XalanListIteratorBase", %"struct.xalanc_1_10::XalanListIteratorBase"* %this1, i32 0, i32 0, !dbg !3119
  %0 = load %"struct.xalanc_1_10::XalanListIteratorBase"*, %"struct.xalanc_1_10::XalanListIteratorBase"** %theRhs.addr, align 8, !dbg !3120
  %currentNode2 = getelementptr inbounds %"struct.xalanc_1_10::XalanListIteratorBase", %"struct.xalanc_1_10::XalanListIteratorBase"* %0, i32 0, i32 0, !dbg !3121
  %1 = load %"struct.xalanc_1_10::XalanList<xalanc_1_10::ReusableArenaBlock<xalanc_1_10::XalanDOMString, unsigned short> *>::Node"*, %"struct.xalanc_1_10::XalanList<xalanc_1_10::ReusableArenaBlock<xalanc_1_10::XalanDOMString, unsigned short> *>::Node"** %currentNode2, align 8, !dbg !3121
  store %"struct.xalanc_1_10::XalanList<xalanc_1_10::ReusableArenaBlock<xalanc_1_10::XalanDOMString, unsigned short> *>::Node"* %1, %"struct.xalanc_1_10::XalanList<xalanc_1_10::ReusableArenaBlock<xalanc_1_10::XalanDOMString, unsigned short> *>::Node"** %currentNode, align 8, !dbg !3119
  ret void, !dbg !3122
}

; Function Attrs: noinline uwtable
define linkonce_odr dso_local dereferenceable(24) %"struct.xalanc_1_10::XalanList<xalanc_1_10::ReusableArenaBlock<xalanc_1_10::XalanDOMString, unsigned short> *>::Node"* @_ZN11xalanc_1_109XalanListIPNS_18ReusableArenaBlockINS_14XalanDOMStringEtEEE13constructNodeERKS4_NS_21XalanListIteratorBaseINS_23XalanListIteratorTraitsIS4_EENS5_4NodeEEE(%"class.xalanc_1_10::XalanList"* %this, %"class.xalanc_1_10::ReusableArenaBlock"** dereferenceable(8) %data, %"struct.xalanc_1_10::XalanListIteratorBase"* %pos) #0 comdat align 2 !dbg !3123 {
entry:
  %this.addr = alloca %"class.xalanc_1_10::XalanList"*, align 8
  %data.addr = alloca %"class.xalanc_1_10::ReusableArenaBlock"**, align 8
  %newNode = alloca %"struct.xalanc_1_10::XalanList<xalanc_1_10::ReusableArenaBlock<xalanc_1_10::XalanDOMString, unsigned short> *>::Node"*, align 8
  %nextFreeNode = alloca %"struct.xalanc_1_10::XalanList<xalanc_1_10::ReusableArenaBlock<xalanc_1_10::XalanDOMString, unsigned short> *>::Node"*, align 8
  store %"class.xalanc_1_10::XalanList"* %this, %"class.xalanc_1_10::XalanList"** %this.addr, align 8
  call void @llvm.dbg.declare(metadata %"class.xalanc_1_10::XalanList"** %this.addr, metadata !3124, metadata !DIExpression()), !dbg !3125
  store %"class.xalanc_1_10::ReusableArenaBlock"** %data, %"class.xalanc_1_10::ReusableArenaBlock"*** %data.addr, align 8
  call void @llvm.dbg.declare(metadata %"class.xalanc_1_10::ReusableArenaBlock"*** %data.addr, metadata !3126, metadata !DIExpression()), !dbg !3127
  call void @llvm.dbg.declare(metadata %"struct.xalanc_1_10::XalanListIteratorBase"* %pos, metadata !3128, metadata !DIExpression()), !dbg !3129
  %this1 = load %"class.xalanc_1_10::XalanList"*, %"class.xalanc_1_10::XalanList"** %this.addr, align 8
  call void @llvm.dbg.declare(metadata %"struct.xalanc_1_10::XalanList<xalanc_1_10::ReusableArenaBlock<xalanc_1_10::XalanDOMString, unsigned short> *>::Node"** %newNode, metadata !3130, metadata !DIExpression()), !dbg !3131
  store %"struct.xalanc_1_10::XalanList<xalanc_1_10::ReusableArenaBlock<xalanc_1_10::XalanDOMString, unsigned short> *>::Node"* null, %"struct.xalanc_1_10::XalanList<xalanc_1_10::ReusableArenaBlock<xalanc_1_10::XalanDOMString, unsigned short> *>::Node"** %newNode, align 8, !dbg !3131
  call void @llvm.dbg.declare(metadata %"struct.xalanc_1_10::XalanList<xalanc_1_10::ReusableArenaBlock<xalanc_1_10::XalanDOMString, unsigned short> *>::Node"** %nextFreeNode, metadata !3132, metadata !DIExpression()), !dbg !3133
  store %"struct.xalanc_1_10::XalanList<xalanc_1_10::ReusableArenaBlock<xalanc_1_10::XalanDOMString, unsigned short> *>::Node"* null, %"struct.xalanc_1_10::XalanList<xalanc_1_10::ReusableArenaBlock<xalanc_1_10::XalanDOMString, unsigned short> *>::Node"** %nextFreeNode, align 8, !dbg !3133
  %m_freeListHeadPtr = getelementptr inbounds %"class.xalanc_1_10::XalanList", %"class.xalanc_1_10::XalanList"* %this1, i32 0, i32 2, !dbg !3134
  %0 = load %"struct.xalanc_1_10::XalanList<xalanc_1_10::ReusableArenaBlock<xalanc_1_10::XalanDOMString, unsigned short> *>::Node"*, %"struct.xalanc_1_10::XalanList<xalanc_1_10::ReusableArenaBlock<xalanc_1_10::XalanDOMString, unsigned short> *>::Node"** %m_freeListHeadPtr, align 8, !dbg !3134
  %cmp = icmp ne %"struct.xalanc_1_10::XalanList<xalanc_1_10::ReusableArenaBlock<xalanc_1_10::XalanDOMString, unsigned short> *>::Node"* %0, null, !dbg !3136
  br i1 %cmp, label %if.then, label %if.else, !dbg !3137

if.then:                                          ; preds = %entry
  %m_freeListHeadPtr2 = getelementptr inbounds %"class.xalanc_1_10::XalanList", %"class.xalanc_1_10::XalanList"* %this1, i32 0, i32 2, !dbg !3138
  %1 = load %"struct.xalanc_1_10::XalanList<xalanc_1_10::ReusableArenaBlock<xalanc_1_10::XalanDOMString, unsigned short> *>::Node"*, %"struct.xalanc_1_10::XalanList<xalanc_1_10::ReusableArenaBlock<xalanc_1_10::XalanDOMString, unsigned short> *>::Node"** %m_freeListHeadPtr2, align 8, !dbg !3138
  store %"struct.xalanc_1_10::XalanList<xalanc_1_10::ReusableArenaBlock<xalanc_1_10::XalanDOMString, unsigned short> *>::Node"* %1, %"struct.xalanc_1_10::XalanList<xalanc_1_10::ReusableArenaBlock<xalanc_1_10::XalanDOMString, unsigned short> *>::Node"** %newNode, align 8, !dbg !3140
  %m_freeListHeadPtr3 = getelementptr inbounds %"class.xalanc_1_10::XalanList", %"class.xalanc_1_10::XalanList"* %this1, i32 0, i32 2, !dbg !3141
  %2 = load %"struct.xalanc_1_10::XalanList<xalanc_1_10::ReusableArenaBlock<xalanc_1_10::XalanDOMString, unsigned short> *>::Node"*, %"struct.xalanc_1_10::XalanList<xalanc_1_10::ReusableArenaBlock<xalanc_1_10::XalanDOMString, unsigned short> *>::Node"** %m_freeListHeadPtr3, align 8, !dbg !3141
  %next = getelementptr inbounds %"struct.xalanc_1_10::XalanList<xalanc_1_10::ReusableArenaBlock<xalanc_1_10::XalanDOMString, unsigned short> *>::Node", %"struct.xalanc_1_10::XalanList<xalanc_1_10::ReusableArenaBlock<xalanc_1_10::XalanDOMString, unsigned short> *>::Node"* %2, i32 0, i32 2, !dbg !3142
  %3 = load %"struct.xalanc_1_10::XalanList<xalanc_1_10::ReusableArenaBlock<xalanc_1_10::XalanDOMString, unsigned short> *>::Node"*, %"struct.xalanc_1_10::XalanList<xalanc_1_10::ReusableArenaBlock<xalanc_1_10::XalanDOMString, unsigned short> *>::Node"** %next, align 8, !dbg !3142
  store %"struct.xalanc_1_10::XalanList<xalanc_1_10::ReusableArenaBlock<xalanc_1_10::XalanDOMString, unsigned short> *>::Node"* %3, %"struct.xalanc_1_10::XalanList<xalanc_1_10::ReusableArenaBlock<xalanc_1_10::XalanDOMString, unsigned short> *>::Node"** %nextFreeNode, align 8, !dbg !3143
  br label %if.end, !dbg !3144

if.else:                                          ; preds = %entry
  %call = call %"struct.xalanc_1_10::XalanList<xalanc_1_10::ReusableArenaBlock<xalanc_1_10::XalanDOMString, unsigned short> *>::Node"* @_ZN11xalanc_1_109XalanListIPNS_18ReusableArenaBlockINS_14XalanDOMStringEtEEE8allocateEm(%"class.xalanc_1_10::XalanList"* %this1, i64 1), !dbg !3145
  %m_freeListHeadPtr4 = getelementptr inbounds %"class.xalanc_1_10::XalanList", %"class.xalanc_1_10::XalanList"* %this1, i32 0, i32 2, !dbg !3147
  store %"struct.xalanc_1_10::XalanList<xalanc_1_10::ReusableArenaBlock<xalanc_1_10::XalanDOMString, unsigned short> *>::Node"* %call, %"struct.xalanc_1_10::XalanList<xalanc_1_10::ReusableArenaBlock<xalanc_1_10::XalanDOMString, unsigned short> *>::Node"** %m_freeListHeadPtr4, align 8, !dbg !3148
  %m_freeListHeadPtr5 = getelementptr inbounds %"class.xalanc_1_10::XalanList", %"class.xalanc_1_10::XalanList"* %this1, i32 0, i32 2, !dbg !3149
  %4 = load %"struct.xalanc_1_10::XalanList<xalanc_1_10::ReusableArenaBlock<xalanc_1_10::XalanDOMString, unsigned short> *>::Node"*, %"struct.xalanc_1_10::XalanList<xalanc_1_10::ReusableArenaBlock<xalanc_1_10::XalanDOMString, unsigned short> *>::Node"** %m_freeListHeadPtr5, align 8, !dbg !3149
  store %"struct.xalanc_1_10::XalanList<xalanc_1_10::ReusableArenaBlock<xalanc_1_10::XalanDOMString, unsigned short> *>::Node"* %4, %"struct.xalanc_1_10::XalanList<xalanc_1_10::ReusableArenaBlock<xalanc_1_10::XalanDOMString, unsigned short> *>::Node"** %newNode, align 8, !dbg !3150
  br label %if.end

if.end:                                           ; preds = %if.else, %if.then
  %5 = load %"struct.xalanc_1_10::XalanList<xalanc_1_10::ReusableArenaBlock<xalanc_1_10::XalanDOMString, unsigned short> *>::Node"*, %"struct.xalanc_1_10::XalanList<xalanc_1_10::ReusableArenaBlock<xalanc_1_10::XalanDOMString, unsigned short> *>::Node"** %newNode, align 8, !dbg !3151
  %value = getelementptr inbounds %"struct.xalanc_1_10::XalanList<xalanc_1_10::ReusableArenaBlock<xalanc_1_10::XalanDOMString, unsigned short> *>::Node", %"struct.xalanc_1_10::XalanList<xalanc_1_10::ReusableArenaBlock<xalanc_1_10::XalanDOMString, unsigned short> *>::Node"* %5, i32 0, i32 0, !dbg !3152
  %6 = load %"class.xalanc_1_10::ReusableArenaBlock"**, %"class.xalanc_1_10::ReusableArenaBlock"*** %data.addr, align 8, !dbg !3153
  %m_memoryManager = getelementptr inbounds %"class.xalanc_1_10::XalanList", %"class.xalanc_1_10::XalanList"* %this1, i32 0, i32 0, !dbg !3154
  %7 = load %"class.xercesc_2_7::MemoryManager"*, %"class.xercesc_2_7::MemoryManager"** %m_memoryManager, align 8, !dbg !3154
  %call6 = call %"class.xalanc_1_10::ReusableArenaBlock"** @_ZN11xalanc_1_1028ConstructWithNoMemoryManagerIPNS_18ReusableArenaBlockINS_14XalanDOMStringEtEEE9constructEPS4_RKS4_RN11xercesc_2_713MemoryManagerE(%"class.xalanc_1_10::ReusableArenaBlock"** %value, %"class.xalanc_1_10::ReusableArenaBlock"** dereferenceable(8) %6, %"class.xercesc_2_7::MemoryManager"* dereferenceable(8) %7), !dbg !3155
  %8 = load %"struct.xalanc_1_10::XalanList<xalanc_1_10::ReusableArenaBlock<xalanc_1_10::XalanDOMString, unsigned short> *>::Node"*, %"struct.xalanc_1_10::XalanList<xalanc_1_10::ReusableArenaBlock<xalanc_1_10::XalanDOMString, unsigned short> *>::Node"** %newNode, align 8, !dbg !3156
  %prev = getelementptr inbounds %"struct.xalanc_1_10::XalanList<xalanc_1_10::ReusableArenaBlock<xalanc_1_10::XalanDOMString, unsigned short> *>::Node", %"struct.xalanc_1_10::XalanList<xalanc_1_10::ReusableArenaBlock<xalanc_1_10::XalanDOMString, unsigned short> *>::Node"* %8, i32 0, i32 1, !dbg !3157
  %9 = bitcast %"struct.xalanc_1_10::XalanList<xalanc_1_10::ReusableArenaBlock<xalanc_1_10::XalanDOMString, unsigned short> *>::Node"** %prev to i8*, !dbg !3158
  %10 = bitcast i8* %9 to %"struct.xalanc_1_10::XalanList<xalanc_1_10::ReusableArenaBlock<xalanc_1_10::XalanDOMString, unsigned short> *>::Node"**, !dbg !3158
  %call7 = call dereferenceable(24) %"struct.xalanc_1_10::XalanList<xalanc_1_10::ReusableArenaBlock<xalanc_1_10::XalanDOMString, unsigned short> *>::Node"* @_ZN11xalanc_1_1021XalanListIteratorBaseINS_23XalanListIteratorTraitsIPNS_18ReusableArenaBlockINS_14XalanDOMStringEtEEEENS_9XalanListIS5_E4NodeEE4nodeEv(%"struct.xalanc_1_10::XalanListIteratorBase"* %pos), !dbg !3159
  %prev8 = getelementptr inbounds %"struct.xalanc_1_10::XalanList<xalanc_1_10::ReusableArenaBlock<xalanc_1_10::XalanDOMString, unsigned short> *>::Node", %"struct.xalanc_1_10::XalanList<xalanc_1_10::ReusableArenaBlock<xalanc_1_10::XalanDOMString, unsigned short> *>::Node"* %call7, i32 0, i32 1, !dbg !3160
  %11 = load %"struct.xalanc_1_10::XalanList<xalanc_1_10::ReusableArenaBlock<xalanc_1_10::XalanDOMString, unsigned short> *>::Node"*, %"struct.xalanc_1_10::XalanList<xalanc_1_10::ReusableArenaBlock<xalanc_1_10::XalanDOMString, unsigned short> *>::Node"** %prev8, align 8, !dbg !3160
  store %"struct.xalanc_1_10::XalanList<xalanc_1_10::ReusableArenaBlock<xalanc_1_10::XalanDOMString, unsigned short> *>::Node"* %11, %"struct.xalanc_1_10::XalanList<xalanc_1_10::ReusableArenaBlock<xalanc_1_10::XalanDOMString, unsigned short> *>::Node"** %10, align 8, !dbg !3158
  %12 = load %"struct.xalanc_1_10::XalanList<xalanc_1_10::ReusableArenaBlock<xalanc_1_10::XalanDOMString, unsigned short> *>::Node"*, %"struct.xalanc_1_10::XalanList<xalanc_1_10::ReusableArenaBlock<xalanc_1_10::XalanDOMString, unsigned short> *>::Node"** %newNode, align 8, !dbg !3161
  %next9 = getelementptr inbounds %"struct.xalanc_1_10::XalanList<xalanc_1_10::ReusableArenaBlock<xalanc_1_10::XalanDOMString, unsigned short> *>::Node", %"struct.xalanc_1_10::XalanList<xalanc_1_10::ReusableArenaBlock<xalanc_1_10::XalanDOMString, unsigned short> *>::Node"* %12, i32 0, i32 2, !dbg !3162
  %13 = bitcast %"struct.xalanc_1_10::XalanList<xalanc_1_10::ReusableArenaBlock<xalanc_1_10::XalanDOMString, unsigned short> *>::Node"** %next9 to i8*, !dbg !3163
  %14 = bitcast i8* %13 to %"struct.xalanc_1_10::XalanList<xalanc_1_10::ReusableArenaBlock<xalanc_1_10::XalanDOMString, unsigned short> *>::Node"**, !dbg !3163
  %call10 = call dereferenceable(24) %"struct.xalanc_1_10::XalanList<xalanc_1_10::ReusableArenaBlock<xalanc_1_10::XalanDOMString, unsigned short> *>::Node"* @_ZN11xalanc_1_1021XalanListIteratorBaseINS_23XalanListIteratorTraitsIPNS_18ReusableArenaBlockINS_14XalanDOMStringEtEEEENS_9XalanListIS5_E4NodeEE4nodeEv(%"struct.xalanc_1_10::XalanListIteratorBase"* %pos), !dbg !3164
  store %"struct.xalanc_1_10::XalanList<xalanc_1_10::ReusableArenaBlock<xalanc_1_10::XalanDOMString, unsigned short> *>::Node"* %call10, %"struct.xalanc_1_10::XalanList<xalanc_1_10::ReusableArenaBlock<xalanc_1_10::XalanDOMString, unsigned short> *>::Node"** %14, align 8, !dbg !3163
  %15 = load %"struct.xalanc_1_10::XalanList<xalanc_1_10::ReusableArenaBlock<xalanc_1_10::XalanDOMString, unsigned short> *>::Node"*, %"struct.xalanc_1_10::XalanList<xalanc_1_10::ReusableArenaBlock<xalanc_1_10::XalanDOMString, unsigned short> *>::Node"** %newNode, align 8, !dbg !3165
  %call11 = call dereferenceable(24) %"struct.xalanc_1_10::XalanList<xalanc_1_10::ReusableArenaBlock<xalanc_1_10::XalanDOMString, unsigned short> *>::Node"* @_ZN11xalanc_1_1021XalanListIteratorBaseINS_23XalanListIteratorTraitsIPNS_18ReusableArenaBlockINS_14XalanDOMStringEtEEEENS_9XalanListIS5_E4NodeEE4nodeEv(%"struct.xalanc_1_10::XalanListIteratorBase"* %pos), !dbg !3166
  %prev12 = getelementptr inbounds %"struct.xalanc_1_10::XalanList<xalanc_1_10::ReusableArenaBlock<xalanc_1_10::XalanDOMString, unsigned short> *>::Node", %"struct.xalanc_1_10::XalanList<xalanc_1_10::ReusableArenaBlock<xalanc_1_10::XalanDOMString, unsigned short> *>::Node"* %call11, i32 0, i32 1, !dbg !3167
  %16 = load %"struct.xalanc_1_10::XalanList<xalanc_1_10::ReusableArenaBlock<xalanc_1_10::XalanDOMString, unsigned short> *>::Node"*, %"struct.xalanc_1_10::XalanList<xalanc_1_10::ReusableArenaBlock<xalanc_1_10::XalanDOMString, unsigned short> *>::Node"** %prev12, align 8, !dbg !3167
  %next13 = getelementptr inbounds %"struct.xalanc_1_10::XalanList<xalanc_1_10::ReusableArenaBlock<xalanc_1_10::XalanDOMString, unsigned short> *>::Node", %"struct.xalanc_1_10::XalanList<xalanc_1_10::ReusableArenaBlock<xalanc_1_10::XalanDOMString, unsigned short> *>::Node"* %16, i32 0, i32 2, !dbg !3168
  store %"struct.xalanc_1_10::XalanList<xalanc_1_10::ReusableArenaBlock<xalanc_1_10::XalanDOMString, unsigned short> *>::Node"* %15, %"struct.xalanc_1_10::XalanList<xalanc_1_10::ReusableArenaBlock<xalanc_1_10::XalanDOMString, unsigned short> *>::Node"** %next13, align 8, !dbg !3169
  %17 = load %"struct.xalanc_1_10::XalanList<xalanc_1_10::ReusableArenaBlock<xalanc_1_10::XalanDOMString, unsigned short> *>::Node"*, %"struct.xalanc_1_10::XalanList<xalanc_1_10::ReusableArenaBlock<xalanc_1_10::XalanDOMString, unsigned short> *>::Node"** %newNode, align 8, !dbg !3170
  %call14 = call dereferenceable(24) %"struct.xalanc_1_10::XalanList<xalanc_1_10::ReusableArenaBlock<xalanc_1_10::XalanDOMString, unsigned short> *>::Node"* @_ZN11xalanc_1_1021XalanListIteratorBaseINS_23XalanListIteratorTraitsIPNS_18ReusableArenaBlockINS_14XalanDOMStringEtEEEENS_9XalanListIS5_E4NodeEE4nodeEv(%"struct.xalanc_1_10::XalanListIteratorBase"* %pos), !dbg !3171
  %prev15 = getelementptr inbounds %"struct.xalanc_1_10::XalanList<xalanc_1_10::ReusableArenaBlock<xalanc_1_10::XalanDOMString, unsigned short> *>::Node", %"struct.xalanc_1_10::XalanList<xalanc_1_10::ReusableArenaBlock<xalanc_1_10::XalanDOMString, unsigned short> *>::Node"* %call14, i32 0, i32 1, !dbg !3172
  store %"struct.xalanc_1_10::XalanList<xalanc_1_10::ReusableArenaBlock<xalanc_1_10::XalanDOMString, unsigned short> *>::Node"* %17, %"struct.xalanc_1_10::XalanList<xalanc_1_10::ReusableArenaBlock<xalanc_1_10::XalanDOMString, unsigned short> *>::Node"** %prev15, align 8, !dbg !3173
  %18 = load %"struct.xalanc_1_10::XalanList<xalanc_1_10::ReusableArenaBlock<xalanc_1_10::XalanDOMString, unsigned short> *>::Node"*, %"struct.xalanc_1_10::XalanList<xalanc_1_10::ReusableArenaBlock<xalanc_1_10::XalanDOMString, unsigned short> *>::Node"** %nextFreeNode, align 8, !dbg !3174
  %m_freeListHeadPtr16 = getelementptr inbounds %"class.xalanc_1_10::XalanList", %"class.xalanc_1_10::XalanList"* %this1, i32 0, i32 2, !dbg !3175
  store %"struct.xalanc_1_10::XalanList<xalanc_1_10::ReusableArenaBlock<xalanc_1_10::XalanDOMString, unsigned short> *>::Node"* %18, %"struct.xalanc_1_10::XalanList<xalanc_1_10::ReusableArenaBlock<xalanc_1_10::XalanDOMString, unsigned short> *>::Node"** %m_freeListHeadPtr16, align 8, !dbg !3176
  %19 = load %"struct.xalanc_1_10::XalanList<xalanc_1_10::ReusableArenaBlock<xalanc_1_10::XalanDOMString, unsigned short> *>::Node"*, %"struct.xalanc_1_10::XalanList<xalanc_1_10::ReusableArenaBlock<xalanc_1_10::XalanDOMString, unsigned short> *>::Node"** %newNode, align 8, !dbg !3177
  ret %"struct.xalanc_1_10::XalanList<xalanc_1_10::ReusableArenaBlock<xalanc_1_10::XalanDOMString, unsigned short> *>::Node"* %19, !dbg !3178
}

; Function Attrs: noinline nounwind uwtable
define linkonce_odr dso_local %"class.xalanc_1_10::ReusableArenaBlock"** @_ZN11xalanc_1_1028ConstructWithNoMemoryManagerIPNS_18ReusableArenaBlockINS_14XalanDOMStringEtEEE9constructEPS4_RKS4_RN11xercesc_2_713MemoryManagerE(%"class.xalanc_1_10::ReusableArenaBlock"** %address, %"class.xalanc_1_10::ReusableArenaBlock"** dereferenceable(8) %theRhs, %"class.xercesc_2_7::MemoryManager"* dereferenceable(8) %0) #2 comdat align 2 !dbg !3179 {
entry:
  %address.addr = alloca %"class.xalanc_1_10::ReusableArenaBlock"**, align 8
  %theRhs.addr = alloca %"class.xalanc_1_10::ReusableArenaBlock"**, align 8
  %.addr = alloca %"class.xercesc_2_7::MemoryManager"*, align 8
  store %"class.xalanc_1_10::ReusableArenaBlock"** %address, %"class.xalanc_1_10::ReusableArenaBlock"*** %address.addr, align 8
  call void @llvm.dbg.declare(metadata %"class.xalanc_1_10::ReusableArenaBlock"*** %address.addr, metadata !3190, metadata !DIExpression()), !dbg !3191
  store %"class.xalanc_1_10::ReusableArenaBlock"** %theRhs, %"class.xalanc_1_10::ReusableArenaBlock"*** %theRhs.addr, align 8
  call void @llvm.dbg.declare(metadata %"class.xalanc_1_10::ReusableArenaBlock"*** %theRhs.addr, metadata !3192, metadata !DIExpression()), !dbg !3193
  store %"class.xercesc_2_7::MemoryManager"* %0, %"class.xercesc_2_7::MemoryManager"** %.addr, align 8
  call void @llvm.dbg.declare(metadata %"class.xercesc_2_7::MemoryManager"** %.addr, metadata !3194, metadata !DIExpression()), !dbg !3195
  %1 = load %"class.xalanc_1_10::ReusableArenaBlock"**, %"class.xalanc_1_10::ReusableArenaBlock"*** %address.addr, align 8, !dbg !3196
  %2 = bitcast %"class.xalanc_1_10::ReusableArenaBlock"** %1 to i8*, !dbg !3197
  %3 = bitcast i8* %2 to %"class.xalanc_1_10::ReusableArenaBlock"**, !dbg !3197
  %4 = load %"class.xalanc_1_10::ReusableArenaBlock"**, %"class.xalanc_1_10::ReusableArenaBlock"*** %theRhs.addr, align 8, !dbg !3198
  %5 = load %"class.xalanc_1_10::ReusableArenaBlock"*, %"class.xalanc_1_10::ReusableArenaBlock"** %4, align 8, !dbg !3198
  store %"class.xalanc_1_10::ReusableArenaBlock"* %5, %"class.xalanc_1_10::ReusableArenaBlock"** %3, align 8, !dbg !3197
  ret %"class.xalanc_1_10::ReusableArenaBlock"** %3, !dbg !3199
}

; Function Attrs: noinline uwtable
define linkonce_odr dso_local %"class.xalanc_1_10::ReusableArenaBlock"* @_ZN11xalanc_1_1014XalanConstructINS_18ReusableArenaBlockINS_14XalanDOMStringEtEEN11xercesc_2_713MemoryManagerEtEEPT_RS5_RS7_RT0_RKT1_(%"class.xercesc_2_7::MemoryManager"* dereferenceable(8) %theMemoryManager, %"class.xalanc_1_10::ReusableArenaBlock"** dereferenceable(8) %theInstance, %"class.xercesc_2_7::MemoryManager"* dereferenceable(8) %theParam1, i16* dereferenceable(2) %theParam2) #0 comdat personality i8* bitcast (i32 (...)* @__gxx_personality_v0 to i8*) !dbg !3200 {
entry:
  %theMemoryManager.addr = alloca %"class.xercesc_2_7::MemoryManager"*, align 8
  %theInstance.addr = alloca %"class.xalanc_1_10::ReusableArenaBlock"**, align 8
  %theParam1.addr = alloca %"class.xercesc_2_7::MemoryManager"*, align 8
  %theParam2.addr = alloca i16*, align 8
  %theGuard = alloca %"class.xalanc_1_10::XalanAllocationGuard", align 8
  %exn.slot = alloca i8*
  %ehselector.slot = alloca i32
  store %"class.xercesc_2_7::MemoryManager"* %theMemoryManager, %"class.xercesc_2_7::MemoryManager"** %theMemoryManager.addr, align 8
  call void @llvm.dbg.declare(metadata %"class.xercesc_2_7::MemoryManager"** %theMemoryManager.addr, metadata !3206, metadata !DIExpression()), !dbg !3207
  store %"class.xalanc_1_10::ReusableArenaBlock"** %theInstance, %"class.xalanc_1_10::ReusableArenaBlock"*** %theInstance.addr, align 8
  call void @llvm.dbg.declare(metadata %"class.xalanc_1_10::ReusableArenaBlock"*** %theInstance.addr, metadata !3208, metadata !DIExpression()), !dbg !3209
  store %"class.xercesc_2_7::MemoryManager"* %theParam1, %"class.xercesc_2_7::MemoryManager"** %theParam1.addr, align 8
  call void @llvm.dbg.declare(metadata %"class.xercesc_2_7::MemoryManager"** %theParam1.addr, metadata !3210, metadata !DIExpression()), !dbg !3211
  store i16* %theParam2, i16** %theParam2.addr, align 8
  call void @llvm.dbg.declare(metadata i16** %theParam2.addr, metadata !3212, metadata !DIExpression()), !dbg !3213
  call void @llvm.dbg.declare(metadata %"class.xalanc_1_10::XalanAllocationGuard"* %theGuard, metadata !3214, metadata !DIExpression()), !dbg !3236
  %0 = load %"class.xercesc_2_7::MemoryManager"*, %"class.xercesc_2_7::MemoryManager"** %theMemoryManager.addr, align 8, !dbg !3237
  call void @_ZN11xalanc_1_1020XalanAllocationGuardC2ERN11xercesc_2_713MemoryManagerEm(%"class.xalanc_1_10::XalanAllocationGuard"* %theGuard, %"class.xercesc_2_7::MemoryManager"* dereferenceable(8) %0, i64 32), !dbg !3236
  %call = invoke i8* @_ZNK11xalanc_1_1020XalanAllocationGuard3getEv(%"class.xalanc_1_10::XalanAllocationGuard"* %theGuard)
          to label %invoke.cont unwind label %lpad, !dbg !3238

invoke.cont:                                      ; preds = %entry
  %1 = bitcast i8* %call to %"class.xalanc_1_10::ReusableArenaBlock"*, !dbg !3239
  %2 = load %"class.xercesc_2_7::MemoryManager"*, %"class.xercesc_2_7::MemoryManager"** %theParam1.addr, align 8, !dbg !3240
  %3 = load i16*, i16** %theParam2.addr, align 8, !dbg !3241
  %4 = load i16, i16* %3, align 2, !dbg !3241
  invoke void @_ZN11xalanc_1_1018ReusableArenaBlockINS_14XalanDOMStringEtEC2ERN11xercesc_2_713MemoryManagerEt(%"class.xalanc_1_10::ReusableArenaBlock"* %1, %"class.xercesc_2_7::MemoryManager"* dereferenceable(8) %2, i16 zeroext %4)
          to label %invoke.cont1 unwind label %lpad, !dbg !3242

invoke.cont1:                                     ; preds = %invoke.cont
  %5 = load %"class.xalanc_1_10::ReusableArenaBlock"**, %"class.xalanc_1_10::ReusableArenaBlock"*** %theInstance.addr, align 8, !dbg !3243
  store %"class.xalanc_1_10::ReusableArenaBlock"* %1, %"class.xalanc_1_10::ReusableArenaBlock"** %5, align 8, !dbg !3244
  invoke void @_ZN11xalanc_1_1020XalanAllocationGuard7releaseEv(%"class.xalanc_1_10::XalanAllocationGuard"* %theGuard)
          to label %invoke.cont2 unwind label %lpad, !dbg !3245

invoke.cont2:                                     ; preds = %invoke.cont1
  %6 = load %"class.xalanc_1_10::ReusableArenaBlock"**, %"class.xalanc_1_10::ReusableArenaBlock"*** %theInstance.addr, align 8, !dbg !3246
  %7 = load %"class.xalanc_1_10::ReusableArenaBlock"*, %"class.xalanc_1_10::ReusableArenaBlock"** %6, align 8, !dbg !3246
  call void @_ZN11xalanc_1_1020XalanAllocationGuardD2Ev(%"class.xalanc_1_10::XalanAllocationGuard"* %theGuard) #7, !dbg !3247
  ret %"class.xalanc_1_10::ReusableArenaBlock"* %7, !dbg !3247

lpad:                                             ; preds = %invoke.cont1, %invoke.cont, %entry
  %8 = landingpad { i8*, i32 }
          cleanup, !dbg !3247
  %9 = extractvalue { i8*, i32 } %8, 0, !dbg !3247
  store i8* %9, i8** %exn.slot, align 8, !dbg !3247
  %10 = extractvalue { i8*, i32 } %8, 1, !dbg !3247
  store i32 %10, i32* %ehselector.slot, align 4, !dbg !3247
  call void @_ZN11xalanc_1_1020XalanAllocationGuardD2Ev(%"class.xalanc_1_10::XalanAllocationGuard"* %theGuard) #7, !dbg !3247
  br label %eh.resume, !dbg !3247

eh.resume:                                        ; preds = %lpad
  %exn = load i8*, i8** %exn.slot, align 8, !dbg !3247
  %sel = load i32, i32* %ehselector.slot, align 4, !dbg !3247
  %lpad.val = insertvalue { i8*, i32 } undef, i8* %exn, 0, !dbg !3247
  %lpad.val3 = insertvalue { i8*, i32 } %lpad.val, i32 %sel, 1, !dbg !3247
  resume { i8*, i32 } %lpad.val3, !dbg !3247
}

; Function Attrs: noinline uwtable
define linkonce_odr dso_local void @_ZN11xalanc_1_1020XalanAllocationGuardC2ERN11xercesc_2_713MemoryManagerEm(%"class.xalanc_1_10::XalanAllocationGuard"* %this, %"class.xercesc_2_7::MemoryManager"* dereferenceable(8) %theMemoryManager, i64 %theSize) unnamed_addr #0 comdat align 2 !dbg !3248 {
entry:
  %this.addr = alloca %"class.xalanc_1_10::XalanAllocationGuard"*, align 8
  %theMemoryManager.addr = alloca %"class.xercesc_2_7::MemoryManager"*, align 8
  %theSize.addr = alloca i64, align 8
  store %"class.xalanc_1_10::XalanAllocationGuard"* %this, %"class.xalanc_1_10::XalanAllocationGuard"** %this.addr, align 8
  call void @llvm.dbg.declare(metadata %"class.xalanc_1_10::XalanAllocationGuard"** %this.addr, metadata !3249, metadata !DIExpression()), !dbg !3251
  store %"class.xercesc_2_7::MemoryManager"* %theMemoryManager, %"class.xercesc_2_7::MemoryManager"** %theMemoryManager.addr, align 8
  call void @llvm.dbg.declare(metadata %"class.xercesc_2_7::MemoryManager"** %theMemoryManager.addr, metadata !3252, metadata !DIExpression()), !dbg !3253
  store i64 %theSize, i64* %theSize.addr, align 8
  call void @llvm.dbg.declare(metadata i64* %theSize.addr, metadata !3254, metadata !DIExpression()), !dbg !3255
  %this1 = load %"class.xalanc_1_10::XalanAllocationGuard"*, %"class.xalanc_1_10::XalanAllocationGuard"** %this.addr, align 8
  %m_memoryManager = getelementptr inbounds %"class.xalanc_1_10::XalanAllocationGuard", %"class.xalanc_1_10::XalanAllocationGuard"* %this1, i32 0, i32 0, !dbg !3256
  %0 = load %"class.xercesc_2_7::MemoryManager"*, %"class.xercesc_2_7::MemoryManager"** %theMemoryManager.addr, align 8, !dbg !3257
  store %"class.xercesc_2_7::MemoryManager"* %0, %"class.xercesc_2_7::MemoryManager"** %m_memoryManager, align 8, !dbg !3256
  %m_pointer = getelementptr inbounds %"class.xalanc_1_10::XalanAllocationGuard", %"class.xalanc_1_10::XalanAllocationGuard"* %this1, i32 0, i32 1, !dbg !3258
  %1 = load %"class.xercesc_2_7::MemoryManager"*, %"class.xercesc_2_7::MemoryManager"** %theMemoryManager.addr, align 8, !dbg !3259
  %2 = load i64, i64* %theSize.addr, align 8, !dbg !3260
  %3 = bitcast %"class.xercesc_2_7::MemoryManager"* %1 to i8* (%"class.xercesc_2_7::MemoryManager"*, i64)***, !dbg !3261
  %vtable = load i8* (%"class.xercesc_2_7::MemoryManager"*, i64)**, i8* (%"class.xercesc_2_7::MemoryManager"*, i64)*** %3, align 8, !dbg !3261
  %vfn = getelementptr inbounds i8* (%"class.xercesc_2_7::MemoryManager"*, i64)*, i8* (%"class.xercesc_2_7::MemoryManager"*, i64)** %vtable, i64 2, !dbg !3261
  %4 = load i8* (%"class.xercesc_2_7::MemoryManager"*, i64)*, i8* (%"class.xercesc_2_7::MemoryManager"*, i64)** %vfn, align 8, !dbg !3261
  %call = call i8* %4(%"class.xercesc_2_7::MemoryManager"* %1, i64 %2), !dbg !3261
  store i8* %call, i8** %m_pointer, align 8, !dbg !3258
  ret void, !dbg !3262
}

; Function Attrs: noinline nounwind uwtable
define linkonce_odr dso_local i8* @_ZNK11xalanc_1_1020XalanAllocationGuard3getEv(%"class.xalanc_1_10::XalanAllocationGuard"* %this) #2 comdat align 2 !dbg !3263 {
entry:
  %this.addr = alloca %"class.xalanc_1_10::XalanAllocationGuard"*, align 8
  store %"class.xalanc_1_10::XalanAllocationGuard"* %this, %"class.xalanc_1_10::XalanAllocationGuard"** %this.addr, align 8
  call void @llvm.dbg.declare(metadata %"class.xalanc_1_10::XalanAllocationGuard"** %this.addr, metadata !3264, metadata !DIExpression()), !dbg !3266
  %this1 = load %"class.xalanc_1_10::XalanAllocationGuard"*, %"class.xalanc_1_10::XalanAllocationGuard"** %this.addr, align 8
  %m_pointer = getelementptr inbounds %"class.xalanc_1_10::XalanAllocationGuard", %"class.xalanc_1_10::XalanAllocationGuard"* %this1, i32 0, i32 1, !dbg !3267
  %0 = load i8*, i8** %m_pointer, align 8, !dbg !3267
  ret i8* %0, !dbg !3268
}

; Function Attrs: noinline uwtable
define linkonce_odr dso_local void @_ZN11xalanc_1_1018ReusableArenaBlockINS_14XalanDOMStringEtEC2ERN11xercesc_2_713MemoryManagerEt(%"class.xalanc_1_10::ReusableArenaBlock"* %this, %"class.xercesc_2_7::MemoryManager"* dereferenceable(8) %theManager, i16 zeroext %theBlockSize) unnamed_addr #0 comdat align 2 personality i8* bitcast (i32 (...)* @__gxx_personality_v0 to i8*) !dbg !3269 {
entry:
  %this.addr = alloca %"class.xalanc_1_10::ReusableArenaBlock"*, align 8
  %theManager.addr = alloca %"class.xercesc_2_7::MemoryManager"*, align 8
  %theBlockSize.addr = alloca i16, align 2
  %agg.tmp.ensured = alloca %"struct.xalanc_1_10::XalanCompileErrorBoolean", align 1
  %i = alloca i16, align 2
  %exn.slot = alloca i8*
  %ehselector.slot = alloca i32
  store %"class.xalanc_1_10::ReusableArenaBlock"* %this, %"class.xalanc_1_10::ReusableArenaBlock"** %this.addr, align 8
  call void @llvm.dbg.declare(metadata %"class.xalanc_1_10::ReusableArenaBlock"** %this.addr, metadata !3270, metadata !DIExpression()), !dbg !3271
  store %"class.xercesc_2_7::MemoryManager"* %theManager, %"class.xercesc_2_7::MemoryManager"** %theManager.addr, align 8
  call void @llvm.dbg.declare(metadata %"class.xercesc_2_7::MemoryManager"** %theManager.addr, metadata !3272, metadata !DIExpression()), !dbg !3273
  store i16 %theBlockSize, i16* %theBlockSize.addr, align 2
  call void @llvm.dbg.declare(metadata i16* %theBlockSize.addr, metadata !3274, metadata !DIExpression()), !dbg !3275
  %this1 = load %"class.xalanc_1_10::ReusableArenaBlock"*, %"class.xalanc_1_10::ReusableArenaBlock"** %this.addr, align 8
  %0 = bitcast %"class.xalanc_1_10::ReusableArenaBlock"* %this1 to %"class.xalanc_1_10::ArenaBlockBase"*, !dbg !3276
  %1 = load %"class.xercesc_2_7::MemoryManager"*, %"class.xercesc_2_7::MemoryManager"** %theManager.addr, align 8, !dbg !3277
  %2 = load i16, i16* %theBlockSize.addr, align 2, !dbg !3278
  call void @_ZN11xalanc_1_1014ArenaBlockBaseINS_14XalanDOMStringEtEC2ERN11xercesc_2_713MemoryManagerEt(%"class.xalanc_1_10::ArenaBlockBase"* %0, %"class.xercesc_2_7::MemoryManager"* dereferenceable(8) %1, i16 zeroext %2), !dbg !3279
  %m_firstFreeBlock = getelementptr inbounds %"class.xalanc_1_10::ReusableArenaBlock", %"class.xalanc_1_10::ReusableArenaBlock"* %this1, i32 0, i32 1, !dbg !3280
  store i16 0, i16* %m_firstFreeBlock, align 8, !dbg !3280
  %m_nextFreeBlock = getelementptr inbounds %"class.xalanc_1_10::ReusableArenaBlock", %"class.xalanc_1_10::ReusableArenaBlock"* %this1, i32 0, i32 2, !dbg !3281
  store i16 0, i16* %m_nextFreeBlock, align 2, !dbg !3281
  %3 = bitcast %"struct.xalanc_1_10::XalanCompileErrorBoolean"* %agg.tmp.ensured to i8*, !dbg !3282
  call void @llvm.memset.p0i8.i64(i8* align 1 %3, i8 0, i64 1, i1 false), !dbg !3282
  call void @llvm.dbg.declare(metadata i16* %i, metadata !3284, metadata !DIExpression()), !dbg !3286
  store i16 0, i16* %i, align 2, !dbg !3286
  br label %for.cond, !dbg !3287

for.cond:                                         ; preds = %for.inc, %entry
  %4 = load i16, i16* %i, align 2, !dbg !3288
  %conv = zext i16 %4 to i32, !dbg !3288
  %5 = bitcast %"class.xalanc_1_10::ReusableArenaBlock"* %this1 to %"class.xalanc_1_10::ArenaBlockBase"*, !dbg !3290
  %m_blockSize = getelementptr inbounds %"class.xalanc_1_10::ArenaBlockBase", %"class.xalanc_1_10::ArenaBlockBase"* %5, i32 0, i32 2, !dbg !3290
  %6 = load i16, i16* %m_blockSize, align 2, !dbg !3290
  %conv2 = zext i16 %6 to i32, !dbg !3291
  %cmp = icmp slt i32 %conv, %conv2, !dbg !3292
  br i1 %cmp, label %for.body, label %for.end, !dbg !3293

for.body:                                         ; preds = %for.cond
  %7 = bitcast %"class.xalanc_1_10::ReusableArenaBlock"* %this1 to %"class.xalanc_1_10::ArenaBlockBase"*, !dbg !3294
  %m_objectBlock = getelementptr inbounds %"class.xalanc_1_10::ArenaBlockBase", %"class.xalanc_1_10::ArenaBlockBase"* %7, i32 0, i32 3, !dbg !3294
  %8 = load %"class.xalanc_1_10::XalanDOMString"*, %"class.xalanc_1_10::XalanDOMString"** %m_objectBlock, align 8, !dbg !3294
  %9 = load i16, i16* %i, align 2, !dbg !3296
  %idxprom = zext i16 %9 to i64, !dbg !3297
  %arrayidx = getelementptr inbounds %"class.xalanc_1_10::XalanDOMString", %"class.xalanc_1_10::XalanDOMString"* %8, i64 %idxprom, !dbg !3297
  %10 = bitcast %"class.xalanc_1_10::XalanDOMString"* %arrayidx to i8*, !dbg !3298
  %11 = bitcast i8* %10 to %"struct.xalanc_1_10::ReusableArenaBlock<xalanc_1_10::XalanDOMString, unsigned short>::NextBlock"*, !dbg !3298
  %12 = load i16, i16* %i, align 2, !dbg !3299
  %conv3 = zext i16 %12 to i32, !dbg !3299
  %add = add nsw i32 %conv3, 1, !dbg !3300
  %conv4 = trunc i32 %add to i16, !dbg !3299
  invoke void @_ZN11xalanc_1_1018ReusableArenaBlockINS_14XalanDOMStringEtE9NextBlockC2Et(%"struct.xalanc_1_10::ReusableArenaBlock<xalanc_1_10::XalanDOMString, unsigned short>::NextBlock"* %11, i16 zeroext %conv4)
          to label %invoke.cont unwind label %lpad, !dbg !3301

invoke.cont:                                      ; preds = %for.body
  br label %for.inc, !dbg !3302

for.inc:                                          ; preds = %invoke.cont
  %13 = load i16, i16* %i, align 2, !dbg !3303
  %inc = add i16 %13, 1, !dbg !3303
  store i16 %inc, i16* %i, align 2, !dbg !3303
  br label %for.cond, !dbg !3304, !llvm.loop !3305

lpad:                                             ; preds = %for.body
  %14 = landingpad { i8*, i32 }
          cleanup, !dbg !3307
  %15 = extractvalue { i8*, i32 } %14, 0, !dbg !3307
  store i8* %15, i8** %exn.slot, align 8, !dbg !3307
  %16 = extractvalue { i8*, i32 } %14, 1, !dbg !3307
  store i32 %16, i32* %ehselector.slot, align 4, !dbg !3307
  %17 = bitcast %"class.xalanc_1_10::ReusableArenaBlock"* %this1 to %"class.xalanc_1_10::ArenaBlockBase"*, !dbg !3308
  call void @_ZN11xalanc_1_1014ArenaBlockBaseINS_14XalanDOMStringEtED2Ev(%"class.xalanc_1_10::ArenaBlockBase"* %17) #7, !dbg !3308
  br label %eh.resume, !dbg !3308

for.end:                                          ; preds = %for.cond
  ret void, !dbg !3309

eh.resume:                                        ; preds = %lpad
  %exn = load i8*, i8** %exn.slot, align 8, !dbg !3308
  %sel = load i32, i32* %ehselector.slot, align 4, !dbg !3308
  %lpad.val = insertvalue { i8*, i32 } undef, i8* %exn, 0, !dbg !3308
  %lpad.val5 = insertvalue { i8*, i32 } %lpad.val, i32 %sel, 1, !dbg !3308
  resume { i8*, i32 } %lpad.val5, !dbg !3308
}

; Function Attrs: noinline nounwind uwtable
define linkonce_odr dso_local void @_ZN11xalanc_1_1020XalanAllocationGuard7releaseEv(%"class.xalanc_1_10::XalanAllocationGuard"* %this) #2 comdat align 2 !dbg !3310 {
entry:
  %this.addr = alloca %"class.xalanc_1_10::XalanAllocationGuard"*, align 8
  store %"class.xalanc_1_10::XalanAllocationGuard"* %this, %"class.xalanc_1_10::XalanAllocationGuard"** %this.addr, align 8
  call void @llvm.dbg.declare(metadata %"class.xalanc_1_10::XalanAllocationGuard"** %this.addr, metadata !3311, metadata !DIExpression()), !dbg !3312
  %this1 = load %"class.xalanc_1_10::XalanAllocationGuard"*, %"class.xalanc_1_10::XalanAllocationGuard"** %this.addr, align 8
  %m_pointer = getelementptr inbounds %"class.xalanc_1_10::XalanAllocationGuard", %"class.xalanc_1_10::XalanAllocationGuard"* %this1, i32 0, i32 1, !dbg !3313
  store i8* null, i8** %m_pointer, align 8, !dbg !3314
  ret void, !dbg !3315
}

; Function Attrs: noinline nounwind uwtable
define linkonce_odr dso_local void @_ZN11xalanc_1_1020XalanAllocationGuardD2Ev(%"class.xalanc_1_10::XalanAllocationGuard"* %this) unnamed_addr #2 comdat align 2 personality i8* bitcast (i32 (...)* @__gxx_personality_v0 to i8*) !dbg !3316 {
entry:
  %this.addr = alloca %"class.xalanc_1_10::XalanAllocationGuard"*, align 8
  store %"class.xalanc_1_10::XalanAllocationGuard"* %this, %"class.xalanc_1_10::XalanAllocationGuard"** %this.addr, align 8
  call void @llvm.dbg.declare(metadata %"class.xalanc_1_10::XalanAllocationGuard"** %this.addr, metadata !3317, metadata !DIExpression()), !dbg !3318
  %this1 = load %"class.xalanc_1_10::XalanAllocationGuard"*, %"class.xalanc_1_10::XalanAllocationGuard"** %this.addr, align 8
  %m_pointer = getelementptr inbounds %"class.xalanc_1_10::XalanAllocationGuard", %"class.xalanc_1_10::XalanAllocationGuard"* %this1, i32 0, i32 1, !dbg !3319
  %0 = load i8*, i8** %m_pointer, align 8, !dbg !3319
  %cmp = icmp ne i8* %0, null, !dbg !3322
  br i1 %cmp, label %if.then, label %if.end, !dbg !3323

if.then:                                          ; preds = %entry
  %m_memoryManager = getelementptr inbounds %"class.xalanc_1_10::XalanAllocationGuard", %"class.xalanc_1_10::XalanAllocationGuard"* %this1, i32 0, i32 0, !dbg !3324
  %1 = load %"class.xercesc_2_7::MemoryManager"*, %"class.xercesc_2_7::MemoryManager"** %m_memoryManager, align 8, !dbg !3324
  %m_pointer2 = getelementptr inbounds %"class.xalanc_1_10::XalanAllocationGuard", %"class.xalanc_1_10::XalanAllocationGuard"* %this1, i32 0, i32 1, !dbg !3326
  %2 = load i8*, i8** %m_pointer2, align 8, !dbg !3326
  %3 = bitcast %"class.xercesc_2_7::MemoryManager"* %1 to void (%"class.xercesc_2_7::MemoryManager"*, i8*)***, !dbg !3327
  %vtable = load void (%"class.xercesc_2_7::MemoryManager"*, i8*)**, void (%"class.xercesc_2_7::MemoryManager"*, i8*)*** %3, align 8, !dbg !3327
  %vfn = getelementptr inbounds void (%"class.xercesc_2_7::MemoryManager"*, i8*)*, void (%"class.xercesc_2_7::MemoryManager"*, i8*)** %vtable, i64 3, !dbg !3327
  %4 = load void (%"class.xercesc_2_7::MemoryManager"*, i8*)*, void (%"class.xercesc_2_7::MemoryManager"*, i8*)** %vfn, align 8, !dbg !3327
  invoke void %4(%"class.xercesc_2_7::MemoryManager"* %1, i8* %2)
          to label %invoke.cont unwind label %terminate.lpad, !dbg !3327

invoke.cont:                                      ; preds = %if.then
  br label %if.end, !dbg !3328

if.end:                                           ; preds = %invoke.cont, %entry
  ret void, !dbg !3329

terminate.lpad:                                   ; preds = %if.then
  %5 = landingpad { i8*, i32 }
          catch i8* null, !dbg !3327
  %6 = extractvalue { i8*, i32 } %5, 0, !dbg !3327
  call void @__clang_call_terminate(i8* %6) #9, !dbg !3327
  unreachable, !dbg !3327
}

; Function Attrs: noinline uwtable
define linkonce_odr dso_local void @_ZN11xalanc_1_1014ArenaBlockBaseINS_14XalanDOMStringEtEC2ERN11xercesc_2_713MemoryManagerEt(%"class.xalanc_1_10::ArenaBlockBase"* %this, %"class.xercesc_2_7::MemoryManager"* dereferenceable(8) %theManager, i16 zeroext %theBlockSize) unnamed_addr #0 comdat align 2 personality i8* bitcast (i32 (...)* @__gxx_personality_v0 to i8*) !dbg !3330 {
entry:
  %this.addr = alloca %"class.xalanc_1_10::ArenaBlockBase"*, align 8
  %theManager.addr = alloca %"class.xercesc_2_7::MemoryManager"*, align 8
  %theBlockSize.addr = alloca i16, align 2
  %exn.slot = alloca i8*
  %ehselector.slot = alloca i32
  store %"class.xalanc_1_10::ArenaBlockBase"* %this, %"class.xalanc_1_10::ArenaBlockBase"** %this.addr, align 8
  call void @llvm.dbg.declare(metadata %"class.xalanc_1_10::ArenaBlockBase"** %this.addr, metadata !3331, metadata !DIExpression()), !dbg !3333
  store %"class.xercesc_2_7::MemoryManager"* %theManager, %"class.xercesc_2_7::MemoryManager"** %theManager.addr, align 8
  call void @llvm.dbg.declare(metadata %"class.xercesc_2_7::MemoryManager"** %theManager.addr, metadata !3334, metadata !DIExpression()), !dbg !3335
  store i16 %theBlockSize, i16* %theBlockSize.addr, align 2
  call void @llvm.dbg.declare(metadata i16* %theBlockSize.addr, metadata !3336, metadata !DIExpression()), !dbg !3337
  %this1 = load %"class.xalanc_1_10::ArenaBlockBase"*, %"class.xalanc_1_10::ArenaBlockBase"** %this.addr, align 8
  %m_allocator = getelementptr inbounds %"class.xalanc_1_10::ArenaBlockBase", %"class.xalanc_1_10::ArenaBlockBase"* %this1, i32 0, i32 0, !dbg !3338
  %0 = load %"class.xercesc_2_7::MemoryManager"*, %"class.xercesc_2_7::MemoryManager"** %theManager.addr, align 8, !dbg !3339
  call void @_ZN11xalanc_1_1014XalanAllocatorINS_14XalanDOMStringEEC2ERN11xercesc_2_713MemoryManagerE(%"class.xalanc_1_10::XalanAllocator"* %m_allocator, %"class.xercesc_2_7::MemoryManager"* dereferenceable(8) %0), !dbg !3338
  %m_objectCount = getelementptr inbounds %"class.xalanc_1_10::ArenaBlockBase", %"class.xalanc_1_10::ArenaBlockBase"* %this1, i32 0, i32 1, !dbg !3340
  store i16 0, i16* %m_objectCount, align 8, !dbg !3340
  %m_blockSize = getelementptr inbounds %"class.xalanc_1_10::ArenaBlockBase", %"class.xalanc_1_10::ArenaBlockBase"* %this1, i32 0, i32 2, !dbg !3341
  %1 = load i16, i16* %theBlockSize.addr, align 2, !dbg !3342
  store i16 %1, i16* %m_blockSize, align 2, !dbg !3341
  %m_objectBlock = getelementptr inbounds %"class.xalanc_1_10::ArenaBlockBase", %"class.xalanc_1_10::ArenaBlockBase"* %this1, i32 0, i32 3, !dbg !3343
  %m_allocator2 = getelementptr inbounds %"class.xalanc_1_10::ArenaBlockBase", %"class.xalanc_1_10::ArenaBlockBase"* %this1, i32 0, i32 0, !dbg !3344
  %m_blockSize3 = getelementptr inbounds %"class.xalanc_1_10::ArenaBlockBase", %"class.xalanc_1_10::ArenaBlockBase"* %this1, i32 0, i32 2, !dbg !3345
  %2 = load i16, i16* %m_blockSize3, align 2, !dbg !3345
  %conv = zext i16 %2 to i64, !dbg !3345
  %call = invoke %"class.xalanc_1_10::XalanDOMString"* @_ZN11xalanc_1_1014XalanAllocatorINS_14XalanDOMStringEE8allocateEmPKv(%"class.xalanc_1_10::XalanAllocator"* %m_allocator2, i64 %conv, i8* null)
          to label %invoke.cont unwind label %lpad, !dbg !3346

invoke.cont:                                      ; preds = %entry
  store %"class.xalanc_1_10::XalanDOMString"* %call, %"class.xalanc_1_10::XalanDOMString"** %m_objectBlock, align 8, !dbg !3343
  ret void, !dbg !3347

lpad:                                             ; preds = %entry
  %3 = landingpad { i8*, i32 }
          cleanup, !dbg !3347
  %4 = extractvalue { i8*, i32 } %3, 0, !dbg !3347
  store i8* %4, i8** %exn.slot, align 8, !dbg !3347
  %5 = extractvalue { i8*, i32 } %3, 1, !dbg !3347
  store i32 %5, i32* %ehselector.slot, align 4, !dbg !3347
  call void @_ZN11xalanc_1_1014XalanAllocatorINS_14XalanDOMStringEED2Ev(%"class.xalanc_1_10::XalanAllocator"* %m_allocator) #7, !dbg !3348
  br label %eh.resume, !dbg !3348

eh.resume:                                        ; preds = %lpad
  %exn = load i8*, i8** %exn.slot, align 8, !dbg !3348
  %sel = load i32, i32* %ehselector.slot, align 4, !dbg !3348
  %lpad.val = insertvalue { i8*, i32 } undef, i8* %exn, 0, !dbg !3348
  %lpad.val4 = insertvalue { i8*, i32 } %lpad.val, i32 %sel, 1, !dbg !3348
  resume { i8*, i32 } %lpad.val4, !dbg !3348
}

; Function Attrs: argmemonly nounwind willreturn
declare void @llvm.memset.p0i8.i64(i8* nocapture writeonly, i8, i64, i1 immarg) #6

; Function Attrs: noinline nounwind uwtable
define linkonce_odr dso_local void @_ZN11xalanc_1_1018ReusableArenaBlockINS_14XalanDOMStringEtE9NextBlockC2Et(%"struct.xalanc_1_10::ReusableArenaBlock<xalanc_1_10::XalanDOMString, unsigned short>::NextBlock"* %this, i16 zeroext %_next) unnamed_addr #2 comdat align 2 !dbg !3350 {
entry:
  %this.addr = alloca %"struct.xalanc_1_10::ReusableArenaBlock<xalanc_1_10::XalanDOMString, unsigned short>::NextBlock"*, align 8
  %_next.addr = alloca i16, align 2
  store %"struct.xalanc_1_10::ReusableArenaBlock<xalanc_1_10::XalanDOMString, unsigned short>::NextBlock"* %this, %"struct.xalanc_1_10::ReusableArenaBlock<xalanc_1_10::XalanDOMString, unsigned short>::NextBlock"** %this.addr, align 8
  call void @llvm.dbg.declare(metadata %"struct.xalanc_1_10::ReusableArenaBlock<xalanc_1_10::XalanDOMString, unsigned short>::NextBlock"** %this.addr, metadata !3351, metadata !DIExpression()), !dbg !3352
  store i16 %_next, i16* %_next.addr, align 2
  call void @llvm.dbg.declare(metadata i16* %_next.addr, metadata !3353, metadata !DIExpression()), !dbg !3354
  %this1 = load %"struct.xalanc_1_10::ReusableArenaBlock<xalanc_1_10::XalanDOMString, unsigned short>::NextBlock"*, %"struct.xalanc_1_10::ReusableArenaBlock<xalanc_1_10::XalanDOMString, unsigned short>::NextBlock"** %this.addr, align 8
  %next = getelementptr inbounds %"struct.xalanc_1_10::ReusableArenaBlock<xalanc_1_10::XalanDOMString, unsigned short>::NextBlock", %"struct.xalanc_1_10::ReusableArenaBlock<xalanc_1_10::XalanDOMString, unsigned short>::NextBlock"* %this1, i32 0, i32 0, !dbg !3355
  %0 = load i16, i16* %_next.addr, align 2, !dbg !3356
  store i16 %0, i16* %next, align 4, !dbg !3355
  %verificationStamp = getelementptr inbounds %"struct.xalanc_1_10::ReusableArenaBlock<xalanc_1_10::XalanDOMString, unsigned short>::NextBlock", %"struct.xalanc_1_10::ReusableArenaBlock<xalanc_1_10::XalanDOMString, unsigned short>::NextBlock"* %this1, i32 0, i32 1, !dbg !3357
  store i32 -2228259, i32* %verificationStamp, align 4, !dbg !3357
  ret void, !dbg !3358
}

; Function Attrs: noinline nounwind uwtable
define linkonce_odr dso_local void @_ZN11xalanc_1_1014ArenaBlockBaseINS_14XalanDOMStringEtED2Ev(%"class.xalanc_1_10::ArenaBlockBase"* %this) unnamed_addr #2 comdat align 2 personality i8* bitcast (i32 (...)* @__gxx_personality_v0 to i8*) !dbg !3359 {
entry:
  %this.addr = alloca %"class.xalanc_1_10::ArenaBlockBase"*, align 8
  %exn.slot = alloca i8*
  %ehselector.slot = alloca i32
  store %"class.xalanc_1_10::ArenaBlockBase"* %this, %"class.xalanc_1_10::ArenaBlockBase"** %this.addr, align 8
  call void @llvm.dbg.declare(metadata %"class.xalanc_1_10::ArenaBlockBase"** %this.addr, metadata !3360, metadata !DIExpression()), !dbg !3361
  %this1 = load %"class.xalanc_1_10::ArenaBlockBase"*, %"class.xalanc_1_10::ArenaBlockBase"** %this.addr, align 8
  %m_allocator = getelementptr inbounds %"class.xalanc_1_10::ArenaBlockBase", %"class.xalanc_1_10::ArenaBlockBase"* %this1, i32 0, i32 0, !dbg !3362
  %m_objectBlock = getelementptr inbounds %"class.xalanc_1_10::ArenaBlockBase", %"class.xalanc_1_10::ArenaBlockBase"* %this1, i32 0, i32 3, !dbg !3364
  %0 = load %"class.xalanc_1_10::XalanDOMString"*, %"class.xalanc_1_10::XalanDOMString"** %m_objectBlock, align 8, !dbg !3364
  %m_blockSize = getelementptr inbounds %"class.xalanc_1_10::ArenaBlockBase", %"class.xalanc_1_10::ArenaBlockBase"* %this1, i32 0, i32 2, !dbg !3365
  %1 = load i16, i16* %m_blockSize, align 2, !dbg !3365
  %conv = zext i16 %1 to i64, !dbg !3365
  invoke void @_ZN11xalanc_1_1014XalanAllocatorINS_14XalanDOMStringEE10deallocateEPS1_m(%"class.xalanc_1_10::XalanAllocator"* %m_allocator, %"class.xalanc_1_10::XalanDOMString"* %0, i64 %conv)
          to label %invoke.cont unwind label %lpad, !dbg !3366

invoke.cont:                                      ; preds = %entry
  %m_allocator2 = getelementptr inbounds %"class.xalanc_1_10::ArenaBlockBase", %"class.xalanc_1_10::ArenaBlockBase"* %this1, i32 0, i32 0, !dbg !3367
  call void @_ZN11xalanc_1_1014XalanAllocatorINS_14XalanDOMStringEED2Ev(%"class.xalanc_1_10::XalanAllocator"* %m_allocator2) #7, !dbg !3367
  ret void, !dbg !3368

lpad:                                             ; preds = %entry
  %2 = landingpad { i8*, i32 }
          catch i8* null, !dbg !3367
  %3 = extractvalue { i8*, i32 } %2, 0, !dbg !3367
  store i8* %3, i8** %exn.slot, align 8, !dbg !3367
  %4 = extractvalue { i8*, i32 } %2, 1, !dbg !3367
  store i32 %4, i32* %ehselector.slot, align 4, !dbg !3367
  %m_allocator3 = getelementptr inbounds %"class.xalanc_1_10::ArenaBlockBase", %"class.xalanc_1_10::ArenaBlockBase"* %this1, i32 0, i32 0, !dbg !3367
  call void @_ZN11xalanc_1_1014XalanAllocatorINS_14XalanDOMStringEED2Ev(%"class.xalanc_1_10::XalanAllocator"* %m_allocator3) #7, !dbg !3367
  br label %terminate.handler, !dbg !3367

terminate.handler:                                ; preds = %lpad
  %exn = load i8*, i8** %exn.slot, align 8, !dbg !3367
  call void @__clang_call_terminate(i8* %exn) #9, !dbg !3367
  unreachable, !dbg !3367
}

; Function Attrs: noinline nounwind uwtable
define linkonce_odr dso_local void @_ZN11xalanc_1_1014XalanAllocatorINS_14XalanDOMStringEEC2ERN11xercesc_2_713MemoryManagerE(%"class.xalanc_1_10::XalanAllocator"* %this, %"class.xercesc_2_7::MemoryManager"* dereferenceable(8) %theManager) unnamed_addr #2 comdat align 2 !dbg !3369 {
entry:
  %this.addr = alloca %"class.xalanc_1_10::XalanAllocator"*, align 8
  %theManager.addr = alloca %"class.xercesc_2_7::MemoryManager"*, align 8
  store %"class.xalanc_1_10::XalanAllocator"* %this, %"class.xalanc_1_10::XalanAllocator"** %this.addr, align 8
  call void @llvm.dbg.declare(metadata %"class.xalanc_1_10::XalanAllocator"** %this.addr, metadata !3370, metadata !DIExpression()), !dbg !3372
  store %"class.xercesc_2_7::MemoryManager"* %theManager, %"class.xercesc_2_7::MemoryManager"** %theManager.addr, align 8
  call void @llvm.dbg.declare(metadata %"class.xercesc_2_7::MemoryManager"** %theManager.addr, metadata !3373, metadata !DIExpression()), !dbg !3374
  %this1 = load %"class.xalanc_1_10::XalanAllocator"*, %"class.xalanc_1_10::XalanAllocator"** %this.addr, align 8
  %m_memoryManager = getelementptr inbounds %"class.xalanc_1_10::XalanAllocator", %"class.xalanc_1_10::XalanAllocator"* %this1, i32 0, i32 0, !dbg !3375
  %0 = load %"class.xercesc_2_7::MemoryManager"*, %"class.xercesc_2_7::MemoryManager"** %theManager.addr, align 8, !dbg !3376
  store %"class.xercesc_2_7::MemoryManager"* %0, %"class.xercesc_2_7::MemoryManager"** %m_memoryManager, align 8, !dbg !3375
  ret void, !dbg !3377
}

; Function Attrs: noinline uwtable
define linkonce_odr dso_local %"class.xalanc_1_10::XalanDOMString"* @_ZN11xalanc_1_1014XalanAllocatorINS_14XalanDOMStringEE8allocateEmPKv(%"class.xalanc_1_10::XalanAllocator"* %this, i64 %size, i8* %0) #0 comdat align 2 !dbg !3378 {
entry:
  %this.addr = alloca %"class.xalanc_1_10::XalanAllocator"*, align 8
  %size.addr = alloca i64, align 8
  %.addr = alloca i8*, align 8
  store %"class.xalanc_1_10::XalanAllocator"* %this, %"class.xalanc_1_10::XalanAllocator"** %this.addr, align 8
  call void @llvm.dbg.declare(metadata %"class.xalanc_1_10::XalanAllocator"** %this.addr, metadata !3379, metadata !DIExpression()), !dbg !3380
  store i64 %size, i64* %size.addr, align 8
  call void @llvm.dbg.declare(metadata i64* %size.addr, metadata !3381, metadata !DIExpression()), !dbg !3382
  store i8* %0, i8** %.addr, align 8
  call void @llvm.dbg.declare(metadata i8** %.addr, metadata !3383, metadata !DIExpression()), !dbg !3384
  %this1 = load %"class.xalanc_1_10::XalanAllocator"*, %"class.xalanc_1_10::XalanAllocator"** %this.addr, align 8
  %m_memoryManager = getelementptr inbounds %"class.xalanc_1_10::XalanAllocator", %"class.xalanc_1_10::XalanAllocator"* %this1, i32 0, i32 0, !dbg !3385
  %1 = load %"class.xercesc_2_7::MemoryManager"*, %"class.xercesc_2_7::MemoryManager"** %m_memoryManager, align 8, !dbg !3385
  %2 = load i64, i64* %size.addr, align 8, !dbg !3386
  %mul = mul i64 %2, 40, !dbg !3387
  %3 = bitcast %"class.xercesc_2_7::MemoryManager"* %1 to i8* (%"class.xercesc_2_7::MemoryManager"*, i64)***, !dbg !3388
  %vtable = load i8* (%"class.xercesc_2_7::MemoryManager"*, i64)**, i8* (%"class.xercesc_2_7::MemoryManager"*, i64)*** %3, align 8, !dbg !3388
  %vfn = getelementptr inbounds i8* (%"class.xercesc_2_7::MemoryManager"*, i64)*, i8* (%"class.xercesc_2_7::MemoryManager"*, i64)** %vtable, i64 2, !dbg !3388
  %4 = load i8* (%"class.xercesc_2_7::MemoryManager"*, i64)*, i8* (%"class.xercesc_2_7::MemoryManager"*, i64)** %vfn, align 8, !dbg !3388
  %call = call i8* %4(%"class.xercesc_2_7::MemoryManager"* %1, i64 %mul), !dbg !3388
  %5 = bitcast i8* %call to %"class.xalanc_1_10::XalanDOMString"*, !dbg !3389
  ret %"class.xalanc_1_10::XalanDOMString"* %5, !dbg !3390
}

; Function Attrs: noinline nounwind uwtable
define linkonce_odr dso_local void @_ZN11xalanc_1_1014XalanAllocatorINS_14XalanDOMStringEED2Ev(%"class.xalanc_1_10::XalanAllocator"* %this) unnamed_addr #2 comdat align 2 !dbg !3391 {
entry:
  %this.addr = alloca %"class.xalanc_1_10::XalanAllocator"*, align 8
  store %"class.xalanc_1_10::XalanAllocator"* %this, %"class.xalanc_1_10::XalanAllocator"** %this.addr, align 8
  call void @llvm.dbg.declare(metadata %"class.xalanc_1_10::XalanAllocator"** %this.addr, metadata !3392, metadata !DIExpression()), !dbg !3393
  %this1 = load %"class.xalanc_1_10::XalanAllocator"*, %"class.xalanc_1_10::XalanAllocator"** %this.addr, align 8
  ret void, !dbg !3394
}

; Function Attrs: noinline uwtable
define linkonce_odr dso_local void @_ZN11xalanc_1_1014XalanAllocatorINS_14XalanDOMStringEE10deallocateEPS1_m(%"class.xalanc_1_10::XalanAllocator"* %this, %"class.xalanc_1_10::XalanDOMString"* %p, i64 %0) #0 comdat align 2 !dbg !3395 {
entry:
  %this.addr = alloca %"class.xalanc_1_10::XalanAllocator"*, align 8
  %p.addr = alloca %"class.xalanc_1_10::XalanDOMString"*, align 8
  %.addr = alloca i64, align 8
  store %"class.xalanc_1_10::XalanAllocator"* %this, %"class.xalanc_1_10::XalanAllocator"** %this.addr, align 8
  call void @llvm.dbg.declare(metadata %"class.xalanc_1_10::XalanAllocator"** %this.addr, metadata !3396, metadata !DIExpression()), !dbg !3397
  store %"class.xalanc_1_10::XalanDOMString"* %p, %"class.xalanc_1_10::XalanDOMString"** %p.addr, align 8
  call void @llvm.dbg.declare(metadata %"class.xalanc_1_10::XalanDOMString"** %p.addr, metadata !3398, metadata !DIExpression()), !dbg !3399
  store i64 %0, i64* %.addr, align 8
  call void @llvm.dbg.declare(metadata i64* %.addr, metadata !3400, metadata !DIExpression()), !dbg !3401
  %this1 = load %"class.xalanc_1_10::XalanAllocator"*, %"class.xalanc_1_10::XalanAllocator"** %this.addr, align 8
  %1 = load %"class.xalanc_1_10::XalanDOMString"*, %"class.xalanc_1_10::XalanDOMString"** %p.addr, align 8, !dbg !3402
  %cmp = icmp eq %"class.xalanc_1_10::XalanDOMString"* %1, null, !dbg !3404
  br i1 %cmp, label %if.then, label %if.end, !dbg !3405

if.then:                                          ; preds = %entry
  br label %return, !dbg !3406

if.end:                                           ; preds = %entry
  %m_memoryManager = getelementptr inbounds %"class.xalanc_1_10::XalanAllocator", %"class.xalanc_1_10::XalanAllocator"* %this1, i32 0, i32 0, !dbg !3408
  %2 = load %"class.xercesc_2_7::MemoryManager"*, %"class.xercesc_2_7::MemoryManager"** %m_memoryManager, align 8, !dbg !3408
  %3 = load %"class.xalanc_1_10::XalanDOMString"*, %"class.xalanc_1_10::XalanDOMString"** %p.addr, align 8, !dbg !3409
  %4 = bitcast %"class.xalanc_1_10::XalanDOMString"* %3 to i8*, !dbg !3409
  %5 = bitcast %"class.xercesc_2_7::MemoryManager"* %2 to void (%"class.xercesc_2_7::MemoryManager"*, i8*)***, !dbg !3410
  %vtable = load void (%"class.xercesc_2_7::MemoryManager"*, i8*)**, void (%"class.xercesc_2_7::MemoryManager"*, i8*)*** %5, align 8, !dbg !3410
  %vfn = getelementptr inbounds void (%"class.xercesc_2_7::MemoryManager"*, i8*)*, void (%"class.xercesc_2_7::MemoryManager"*, i8*)** %vtable, i64 3, !dbg !3410
  %6 = load void (%"class.xercesc_2_7::MemoryManager"*, i8*)*, void (%"class.xercesc_2_7::MemoryManager"*, i8*)** %vfn, align 8, !dbg !3410
  call void %6(%"class.xercesc_2_7::MemoryManager"* %2, i8* %4), !dbg !3410
  br label %return, !dbg !3411

return:                                           ; preds = %if.end, %if.then
  ret void, !dbg !3411
}

; Function Attrs: noinline nounwind uwtable
define linkonce_odr dso_local %"struct.xalanc_1_10::ReusableArenaBlock<xalanc_1_10::XalanDOMString, unsigned short>::NextBlock"* @_ZN11xalanc_1_1018ReusableArenaBlockINS_14XalanDOMStringEtE9NextBlock4castEPv(i8* %thePointer) #2 comdat align 2 !dbg !3412 {
entry:
  %thePointer.addr = alloca i8*, align 8
  store i8* %thePointer, i8** %thePointer.addr, align 8
  call void @llvm.dbg.declare(metadata i8** %thePointer.addr, metadata !3413, metadata !DIExpression()), !dbg !3414
  %0 = load i8*, i8** %thePointer.addr, align 8, !dbg !3415
  %1 = bitcast i8* %0 to %"struct.xalanc_1_10::ReusableArenaBlock<xalanc_1_10::XalanDOMString, unsigned short>::NextBlock"*, !dbg !3416
  ret %"struct.xalanc_1_10::ReusableArenaBlock<xalanc_1_10::XalanDOMString, unsigned short>::NextBlock"* %1, !dbg !3417
}

; Function Attrs: noinline nounwind uwtable
define linkonce_odr dso_local void @_ZN11xalanc_1_1018ReusableArenaBlockINS_14XalanDOMStringEtE16commitAllocationEPS1_(%"class.xalanc_1_10::ReusableArenaBlock"* %this, %"class.xalanc_1_10::XalanDOMString"* %0) #2 comdat align 2 !dbg !3418 {
entry:
  %this.addr = alloca %"class.xalanc_1_10::ReusableArenaBlock"*, align 8
  %.addr = alloca %"class.xalanc_1_10::XalanDOMString"*, align 8
  store %"class.xalanc_1_10::ReusableArenaBlock"* %this, %"class.xalanc_1_10::ReusableArenaBlock"** %this.addr, align 8
  call void @llvm.dbg.declare(metadata %"class.xalanc_1_10::ReusableArenaBlock"** %this.addr, metadata !3419, metadata !DIExpression()), !dbg !3420
  store %"class.xalanc_1_10::XalanDOMString"* %0, %"class.xalanc_1_10::XalanDOMString"** %.addr, align 8
  call void @llvm.dbg.declare(metadata %"class.xalanc_1_10::XalanDOMString"** %.addr, metadata !3421, metadata !DIExpression()), !dbg !3422
  %this1 = load %"class.xalanc_1_10::ReusableArenaBlock"*, %"class.xalanc_1_10::ReusableArenaBlock"** %this.addr, align 8
  %m_nextFreeBlock = getelementptr inbounds %"class.xalanc_1_10::ReusableArenaBlock", %"class.xalanc_1_10::ReusableArenaBlock"* %this1, i32 0, i32 2, !dbg !3423
  %1 = load i16, i16* %m_nextFreeBlock, align 2, !dbg !3423
  %m_firstFreeBlock = getelementptr inbounds %"class.xalanc_1_10::ReusableArenaBlock", %"class.xalanc_1_10::ReusableArenaBlock"* %this1, i32 0, i32 1, !dbg !3424
  store i16 %1, i16* %m_firstFreeBlock, align 8, !dbg !3425
  ret void, !dbg !3426
}

; Function Attrs: noinline uwtable
define linkonce_odr dso_local void @_ZNK11xalanc_1_109XalanListIPNS_18ReusableArenaBlockINS_14XalanDOMStringEtEEE4rendEv(%"class.std::reverse_iterator"* noalias sret %agg.result, %"class.xalanc_1_10::XalanList"* %this) #0 comdat align 2 !dbg !3427 {
entry:
  %result.ptr = alloca i8*, align 8
  %this.addr = alloca %"class.xalanc_1_10::XalanList"*, align 8
  %agg.tmp = alloca %"struct.xalanc_1_10::XalanListIteratorBase.0", align 8
  %0 = bitcast %"class.std::reverse_iterator"* %agg.result to i8*
  store i8* %0, i8** %result.ptr, align 8
  store %"class.xalanc_1_10::XalanList"* %this, %"class.xalanc_1_10::XalanList"** %this.addr, align 8
  call void @llvm.dbg.declare(metadata %"class.xalanc_1_10::XalanList"** %this.addr, metadata !3428, metadata !DIExpression()), !dbg !3429
  %this1 = load %"class.xalanc_1_10::XalanList"*, %"class.xalanc_1_10::XalanList"** %this.addr, align 8
  %call = call %"struct.xalanc_1_10::XalanList<xalanc_1_10::ReusableArenaBlock<xalanc_1_10::XalanDOMString, unsigned short> *>::Node"* @_ZNK11xalanc_1_109XalanListIPNS_18ReusableArenaBlockINS_14XalanDOMStringEtEEE5beginEv(%"class.xalanc_1_10::XalanList"* %this1), !dbg !3430
  %coerce.dive = getelementptr inbounds %"struct.xalanc_1_10::XalanListIteratorBase.0", %"struct.xalanc_1_10::XalanListIteratorBase.0"* %agg.tmp, i32 0, i32 0, !dbg !3430
  store %"struct.xalanc_1_10::XalanList<xalanc_1_10::ReusableArenaBlock<xalanc_1_10::XalanDOMString, unsigned short> *>::Node"* %call, %"struct.xalanc_1_10::XalanList<xalanc_1_10::ReusableArenaBlock<xalanc_1_10::XalanDOMString, unsigned short> *>::Node"** %coerce.dive, align 8, !dbg !3430
  %coerce.dive2 = getelementptr inbounds %"struct.xalanc_1_10::XalanListIteratorBase.0", %"struct.xalanc_1_10::XalanListIteratorBase.0"* %agg.tmp, i32 0, i32 0, !dbg !3431
  %1 = load %"struct.xalanc_1_10::XalanList<xalanc_1_10::ReusableArenaBlock<xalanc_1_10::XalanDOMString, unsigned short> *>::Node"*, %"struct.xalanc_1_10::XalanList<xalanc_1_10::ReusableArenaBlock<xalanc_1_10::XalanDOMString, unsigned short> *>::Node"** %coerce.dive2, align 8, !dbg !3431
  call void @_ZNSt16reverse_iteratorIN11xalanc_1_1021XalanListIteratorBaseINS0_28XalanListConstIteratorTraitsIPNS0_18ReusableArenaBlockINS0_14XalanDOMStringEtEEEENS0_9XalanListIS6_E4NodeEEEEC2ESB_(%"class.std::reverse_iterator"* %agg.result, %"struct.xalanc_1_10::XalanList<xalanc_1_10::ReusableArenaBlock<xalanc_1_10::XalanDOMString, unsigned short> *>::Node"* %1), !dbg !3431
  ret void, !dbg !3432
}

; Function Attrs: noinline uwtable
define linkonce_odr dso_local void @_ZNK11xalanc_1_109XalanListIPNS_18ReusableArenaBlockINS_14XalanDOMStringEtEEE6rbeginEv(%"class.std::reverse_iterator"* noalias sret %agg.result, %"class.xalanc_1_10::XalanList"* %this) #0 comdat align 2 !dbg !3433 {
entry:
  %result.ptr = alloca i8*, align 8
  %this.addr = alloca %"class.xalanc_1_10::XalanList"*, align 8
  %agg.tmp = alloca %"struct.xalanc_1_10::XalanListIteratorBase.0", align 8
  %0 = bitcast %"class.std::reverse_iterator"* %agg.result to i8*
  store i8* %0, i8** %result.ptr, align 8
  store %"class.xalanc_1_10::XalanList"* %this, %"class.xalanc_1_10::XalanList"** %this.addr, align 8
  call void @llvm.dbg.declare(metadata %"class.xalanc_1_10::XalanList"** %this.addr, metadata !3434, metadata !DIExpression()), !dbg !3435
  %this1 = load %"class.xalanc_1_10::XalanList"*, %"class.xalanc_1_10::XalanList"** %this.addr, align 8
  %call = call %"struct.xalanc_1_10::XalanList<xalanc_1_10::ReusableArenaBlock<xalanc_1_10::XalanDOMString, unsigned short> *>::Node"* @_ZNK11xalanc_1_109XalanListIPNS_18ReusableArenaBlockINS_14XalanDOMStringEtEEE3endEv(%"class.xalanc_1_10::XalanList"* %this1), !dbg !3436
  %coerce.dive = getelementptr inbounds %"struct.xalanc_1_10::XalanListIteratorBase.0", %"struct.xalanc_1_10::XalanListIteratorBase.0"* %agg.tmp, i32 0, i32 0, !dbg !3436
  store %"struct.xalanc_1_10::XalanList<xalanc_1_10::ReusableArenaBlock<xalanc_1_10::XalanDOMString, unsigned short> *>::Node"* %call, %"struct.xalanc_1_10::XalanList<xalanc_1_10::ReusableArenaBlock<xalanc_1_10::XalanDOMString, unsigned short> *>::Node"** %coerce.dive, align 8, !dbg !3436
  %coerce.dive2 = getelementptr inbounds %"struct.xalanc_1_10::XalanListIteratorBase.0", %"struct.xalanc_1_10::XalanListIteratorBase.0"* %agg.tmp, i32 0, i32 0, !dbg !3437
  %1 = load %"struct.xalanc_1_10::XalanList<xalanc_1_10::ReusableArenaBlock<xalanc_1_10::XalanDOMString, unsigned short> *>::Node"*, %"struct.xalanc_1_10::XalanList<xalanc_1_10::ReusableArenaBlock<xalanc_1_10::XalanDOMString, unsigned short> *>::Node"** %coerce.dive2, align 8, !dbg !3437
  call void @_ZNSt16reverse_iteratorIN11xalanc_1_1021XalanListIteratorBaseINS0_28XalanListConstIteratorTraitsIPNS0_18ReusableArenaBlockINS0_14XalanDOMStringEtEEEENS0_9XalanListIS6_E4NodeEEEEC2ESB_(%"class.std::reverse_iterator"* %agg.result, %"struct.xalanc_1_10::XalanList<xalanc_1_10::ReusableArenaBlock<xalanc_1_10::XalanDOMString, unsigned short> *>::Node"* %1), !dbg !3437
  ret void, !dbg !3438
}

; Function Attrs: noinline uwtable
define linkonce_odr dso_local zeroext i1 @_ZStneIN11xalanc_1_1021XalanListIteratorBaseINS0_28XalanListConstIteratorTraitsIPNS0_18ReusableArenaBlockINS0_14XalanDOMStringEtEEEENS0_9XalanListIS6_E4NodeEEEEbRKSt16reverse_iteratorIT_ESG_(%"class.std::reverse_iterator"* dereferenceable(8) %__x, %"class.std::reverse_iterator"* dereferenceable(8) %__y) #0 comdat !dbg !3439 {
entry:
  %__x.addr = alloca %"class.std::reverse_iterator"*, align 8
  %__y.addr = alloca %"class.std::reverse_iterator"*, align 8
  store %"class.std::reverse_iterator"* %__x, %"class.std::reverse_iterator"** %__x.addr, align 8
  call void @llvm.dbg.declare(metadata %"class.std::reverse_iterator"** %__x.addr, metadata !3442, metadata !DIExpression()), !dbg !3443
  store %"class.std::reverse_iterator"* %__y, %"class.std::reverse_iterator"** %__y.addr, align 8
  call void @llvm.dbg.declare(metadata %"class.std::reverse_iterator"** %__y.addr, metadata !3444, metadata !DIExpression()), !dbg !3445
  %0 = load %"class.std::reverse_iterator"*, %"class.std::reverse_iterator"** %__x.addr, align 8, !dbg !3446
  %1 = load %"class.std::reverse_iterator"*, %"class.std::reverse_iterator"** %__y.addr, align 8, !dbg !3447
  %call = call zeroext i1 @_ZSteqIN11xalanc_1_1021XalanListIteratorBaseINS0_28XalanListConstIteratorTraitsIPNS0_18ReusableArenaBlockINS0_14XalanDOMStringEtEEEENS0_9XalanListIS6_E4NodeEEEEbRKSt16reverse_iteratorIT_ESG_(%"class.std::reverse_iterator"* dereferenceable(8) %0, %"class.std::reverse_iterator"* dereferenceable(8) %1), !dbg !3448
  %lnot = xor i1 %call, true, !dbg !3449
  ret i1 %lnot, !dbg !3450
}

; Function Attrs: noinline uwtable
define linkonce_odr dso_local dereferenceable(8) %"class.xalanc_1_10::ReusableArenaBlock"** @_ZNKSt16reverse_iteratorIN11xalanc_1_1021XalanListIteratorBaseINS0_28XalanListConstIteratorTraitsIPNS0_18ReusableArenaBlockINS0_14XalanDOMStringEtEEEENS0_9XalanListIS6_E4NodeEEEEdeEv(%"class.std::reverse_iterator"* %this) #0 comdat align 2 !dbg !3451 {
entry:
  %this.addr = alloca %"class.std::reverse_iterator"*, align 8
  %__tmp = alloca %"struct.xalanc_1_10::XalanListIteratorBase.0", align 8
  %ref.tmp = alloca %"struct.xalanc_1_10::XalanListIteratorBase.0", align 8
  store %"class.std::reverse_iterator"* %this, %"class.std::reverse_iterator"** %this.addr, align 8
  call void @llvm.dbg.declare(metadata %"class.std::reverse_iterator"** %this.addr, metadata !3452, metadata !DIExpression()), !dbg !3454
  %this1 = load %"class.std::reverse_iterator"*, %"class.std::reverse_iterator"** %this.addr, align 8
  call void @llvm.dbg.declare(metadata %"struct.xalanc_1_10::XalanListIteratorBase.0"* %__tmp, metadata !3455, metadata !DIExpression()), !dbg !3456
  %current = getelementptr inbounds %"class.std::reverse_iterator", %"class.std::reverse_iterator"* %this1, i32 0, i32 0, !dbg !3457
  %0 = bitcast %"struct.xalanc_1_10::XalanListIteratorBase.0"* %__tmp to i8*, !dbg !3457
  %1 = bitcast %"struct.xalanc_1_10::XalanListIteratorBase.0"* %current to i8*, !dbg !3457
  call void @llvm.memcpy.p0i8.p0i8.i64(i8* align 8 %0, i8* align 8 %1, i64 8, i1 false), !dbg !3457
  %call = call %"struct.xalanc_1_10::XalanList<xalanc_1_10::ReusableArenaBlock<xalanc_1_10::XalanDOMString, unsigned short> *>::Node"* @_ZN11xalanc_1_1021XalanListIteratorBaseINS_28XalanListConstIteratorTraitsIPNS_18ReusableArenaBlockINS_14XalanDOMStringEtEEEENS_9XalanListIS5_E4NodeEEmmEv(%"struct.xalanc_1_10::XalanListIteratorBase.0"* %__tmp), !dbg !3458
  %coerce.dive = getelementptr inbounds %"struct.xalanc_1_10::XalanListIteratorBase.0", %"struct.xalanc_1_10::XalanListIteratorBase.0"* %ref.tmp, i32 0, i32 0, !dbg !3458
  store %"struct.xalanc_1_10::XalanList<xalanc_1_10::ReusableArenaBlock<xalanc_1_10::XalanDOMString, unsigned short> *>::Node"* %call, %"struct.xalanc_1_10::XalanList<xalanc_1_10::ReusableArenaBlock<xalanc_1_10::XalanDOMString, unsigned short> *>::Node"** %coerce.dive, align 8, !dbg !3458
  %call2 = call dereferenceable(8) %"class.xalanc_1_10::ReusableArenaBlock"** @_ZNK11xalanc_1_1021XalanListIteratorBaseINS_28XalanListConstIteratorTraitsIPNS_18ReusableArenaBlockINS_14XalanDOMStringEtEEEENS_9XalanListIS5_E4NodeEEdeEv(%"struct.xalanc_1_10::XalanListIteratorBase.0"* %ref.tmp), !dbg !3459
  ret %"class.xalanc_1_10::ReusableArenaBlock"** %call2, !dbg !3460
}

; Function Attrs: noinline uwtable
define linkonce_odr dso_local zeroext i1 @_ZNK11xalanc_1_1018ReusableArenaBlockINS_14XalanDOMStringEtE10ownsObjectEPKS1_(%"class.xalanc_1_10::ReusableArenaBlock"* %this, %"class.xalanc_1_10::XalanDOMString"* %theObject) #0 comdat align 2 !dbg !3461 {
entry:
  %this.addr = alloca %"class.xalanc_1_10::ReusableArenaBlock"*, align 8
  %theObject.addr = alloca %"class.xalanc_1_10::XalanDOMString"*, align 8
  store %"class.xalanc_1_10::ReusableArenaBlock"* %this, %"class.xalanc_1_10::ReusableArenaBlock"** %this.addr, align 8
  call void @llvm.dbg.declare(metadata %"class.xalanc_1_10::ReusableArenaBlock"** %this.addr, metadata !3462, metadata !DIExpression()), !dbg !3463
  store %"class.xalanc_1_10::XalanDOMString"* %theObject, %"class.xalanc_1_10::XalanDOMString"** %theObject.addr, align 8
  call void @llvm.dbg.declare(metadata %"class.xalanc_1_10::XalanDOMString"** %theObject.addr, metadata !3464, metadata !DIExpression()), !dbg !3465
  %this1 = load %"class.xalanc_1_10::ReusableArenaBlock"*, %"class.xalanc_1_10::ReusableArenaBlock"** %this.addr, align 8
  %0 = load %"class.xalanc_1_10::XalanDOMString"*, %"class.xalanc_1_10::XalanDOMString"** %theObject.addr, align 8, !dbg !3466
  %1 = bitcast %"class.xalanc_1_10::XalanDOMString"* %0 to i8*, !dbg !3466
  %call = call %"struct.xalanc_1_10::ReusableArenaBlock<xalanc_1_10::XalanDOMString, unsigned short>::NextBlock"* @_ZN11xalanc_1_1018ReusableArenaBlockINS_14XalanDOMStringEtE9NextBlock4castEPKv(i8* %1), !dbg !3467
  %call2 = call zeroext i1 @_ZNK11xalanc_1_1018ReusableArenaBlockINS_14XalanDOMStringEtE15isOccupiedBlockEPKNS2_9NextBlockE(%"class.xalanc_1_10::ReusableArenaBlock"* %this1, %"struct.xalanc_1_10::ReusableArenaBlock<xalanc_1_10::XalanDOMString, unsigned short>::NextBlock"* %call), !dbg !3468
  ret i1 %call2, !dbg !3469
}

; Function Attrs: noinline nounwind uwtable
define linkonce_odr dso_local dereferenceable(8) %"class.std::reverse_iterator"* @_ZNSt16reverse_iteratorIN11xalanc_1_1021XalanListIteratorBaseINS0_28XalanListConstIteratorTraitsIPNS0_18ReusableArenaBlockINS0_14XalanDOMStringEtEEEENS0_9XalanListIS6_E4NodeEEEEppEv(%"class.std::reverse_iterator"* %this) #2 comdat align 2 !dbg !3470 {
entry:
  %this.addr = alloca %"class.std::reverse_iterator"*, align 8
  %coerce = alloca %"struct.xalanc_1_10::XalanListIteratorBase.0", align 8
  store %"class.std::reverse_iterator"* %this, %"class.std::reverse_iterator"** %this.addr, align 8
  call void @llvm.dbg.declare(metadata %"class.std::reverse_iterator"** %this.addr, metadata !3471, metadata !DIExpression()), !dbg !3473
  %this1 = load %"class.std::reverse_iterator"*, %"class.std::reverse_iterator"** %this.addr, align 8
  %current = getelementptr inbounds %"class.std::reverse_iterator", %"class.std::reverse_iterator"* %this1, i32 0, i32 0, !dbg !3474
  %call = call %"struct.xalanc_1_10::XalanList<xalanc_1_10::ReusableArenaBlock<xalanc_1_10::XalanDOMString, unsigned short> *>::Node"* @_ZN11xalanc_1_1021XalanListIteratorBaseINS_28XalanListConstIteratorTraitsIPNS_18ReusableArenaBlockINS_14XalanDOMStringEtEEEENS_9XalanListIS5_E4NodeEEmmEv(%"struct.xalanc_1_10::XalanListIteratorBase.0"* %current), !dbg !3475
  %coerce.dive = getelementptr inbounds %"struct.xalanc_1_10::XalanListIteratorBase.0", %"struct.xalanc_1_10::XalanListIteratorBase.0"* %coerce, i32 0, i32 0, !dbg !3475
  store %"struct.xalanc_1_10::XalanList<xalanc_1_10::ReusableArenaBlock<xalanc_1_10::XalanDOMString, unsigned short> *>::Node"* %call, %"struct.xalanc_1_10::XalanList<xalanc_1_10::ReusableArenaBlock<xalanc_1_10::XalanDOMString, unsigned short> *>::Node"** %coerce.dive, align 8, !dbg !3475
  ret %"class.std::reverse_iterator"* %this1, !dbg !3476
}

; Function Attrs: noinline nounwind uwtable
define linkonce_odr dso_local void @_ZNSt16reverse_iteratorIN11xalanc_1_1021XalanListIteratorBaseINS0_28XalanListConstIteratorTraitsIPNS0_18ReusableArenaBlockINS0_14XalanDOMStringEtEEEENS0_9XalanListIS6_E4NodeEEEEC2ESB_(%"class.std::reverse_iterator"* %this, %"struct.xalanc_1_10::XalanList<xalanc_1_10::ReusableArenaBlock<xalanc_1_10::XalanDOMString, unsigned short> *>::Node"* %__x.coerce) unnamed_addr #2 comdat align 2 !dbg !3477 {
entry:
  %__x = alloca %"struct.xalanc_1_10::XalanListIteratorBase.0", align 8
  %this.addr = alloca %"class.std::reverse_iterator"*, align 8
  %coerce.dive = getelementptr inbounds %"struct.xalanc_1_10::XalanListIteratorBase.0", %"struct.xalanc_1_10::XalanListIteratorBase.0"* %__x, i32 0, i32 0
  store %"struct.xalanc_1_10::XalanList<xalanc_1_10::ReusableArenaBlock<xalanc_1_10::XalanDOMString, unsigned short> *>::Node"* %__x.coerce, %"struct.xalanc_1_10::XalanList<xalanc_1_10::ReusableArenaBlock<xalanc_1_10::XalanDOMString, unsigned short> *>::Node"** %coerce.dive, align 8
  store %"class.std::reverse_iterator"* %this, %"class.std::reverse_iterator"** %this.addr, align 8
  call void @llvm.dbg.declare(metadata %"class.std::reverse_iterator"** %this.addr, metadata !3478, metadata !DIExpression()), !dbg !3479
  call void @llvm.dbg.declare(metadata %"struct.xalanc_1_10::XalanListIteratorBase.0"* %__x, metadata !3480, metadata !DIExpression()), !dbg !3481
  %this1 = load %"class.std::reverse_iterator"*, %"class.std::reverse_iterator"** %this.addr, align 8
  %0 = bitcast %"class.std::reverse_iterator"* %this1 to %"struct.std::iterator"*, !dbg !3482
  %current = getelementptr inbounds %"class.std::reverse_iterator", %"class.std::reverse_iterator"* %this1, i32 0, i32 0, !dbg !3483
  %1 = bitcast %"struct.xalanc_1_10::XalanListIteratorBase.0"* %current to i8*, !dbg !3483
  %2 = bitcast %"struct.xalanc_1_10::XalanListIteratorBase.0"* %__x to i8*, !dbg !3483
  call void @llvm.memcpy.p0i8.p0i8.i64(i8* align 8 %1, i8* align 8 %2, i64 8, i1 false), !dbg !3483
  ret void, !dbg !3484
}

; Function Attrs: argmemonly nounwind willreturn
declare void @llvm.memcpy.p0i8.p0i8.i64(i8* noalias nocapture writeonly, i8* noalias nocapture readonly, i64, i1 immarg) #6

; Function Attrs: noinline uwtable
define linkonce_odr dso_local zeroext i1 @_ZSteqIN11xalanc_1_1021XalanListIteratorBaseINS0_28XalanListConstIteratorTraitsIPNS0_18ReusableArenaBlockINS0_14XalanDOMStringEtEEEENS0_9XalanListIS6_E4NodeEEEEbRKSt16reverse_iteratorIT_ESG_(%"class.std::reverse_iterator"* dereferenceable(8) %__x, %"class.std::reverse_iterator"* dereferenceable(8) %__y) #0 comdat !dbg !3485 {
entry:
  %__x.addr = alloca %"class.std::reverse_iterator"*, align 8
  %__y.addr = alloca %"class.std::reverse_iterator"*, align 8
  %ref.tmp = alloca %"struct.xalanc_1_10::XalanListIteratorBase.0", align 8
