; ModuleID = 'Dummy.cpp'
source_filename = "Dummy.cpp"
target datalayout = "e-m:e-p270:32:32-p271:32:32-p272:64:64-i64:64-f80:128-n8:16:32:64-S128"
target triple = "x86_64-unknown-linux-gnu"

%"class.xercesc_2_7::XMLDeleter" = type { i32 (...)** }
%"class.xercesc_2_7::HandlerBase" = type { %"class.xercesc_2_7::EntityResolver", %"class.xercesc_2_7::DTDHandler", %"class.xercesc_2_7::DocumentHandler", %"class.xercesc_2_7::ErrorHandler" }
%"class.xercesc_2_7::EntityResolver" = type { i32 (...)** }
%"class.xercesc_2_7::DTDHandler" = type { i32 (...)** }
%"class.xercesc_2_7::DocumentHandler" = type { i32 (...)** }
%"class.xercesc_2_7::ErrorHandler" = type { i32 (...)** }
%"class.xercesc_2_7::InputSource" = type <{ i32 (...)**, %"class.xercesc_2_7::MemoryManager"*, i16*, i16*, i16*, i8, [7 x i8] }>
%"class.xercesc_2_7::MemoryManager" = type { i32 (...)** }
%"class.xercesc_2_7::Locator" = type { i32 (...)** }
%"class.xercesc_2_7::AttributeList" = type { i32 (...)** }
%"class.xercesc_2_7::SAXParseException" = type { %"class.xercesc_2_7::SAXException", i64, i64, i16*, i16* }
%"class.xercesc_2_7::SAXException" = type { i32 (...)**, i16*, %"class.xercesc_2_7::MemoryManager"* }

$_ZN11xercesc_2_710XMLDeleterD0Ev = comdat any

$_ZN11xercesc_2_710XMLDeleterD2Ev = comdat any

$_ZN11xercesc_2_711HandlerBase10charactersEPKtj = comdat any

$_ZThn16_N11xercesc_2_711HandlerBase10charactersEPKtj = comdat any

$_ZN11xercesc_2_711HandlerBaseD2Ev = comdat any

$_ZN11xercesc_2_711HandlerBaseD0Ev = comdat any

$_ZN11xercesc_2_711HandlerBase13resolveEntityEPKtS2_ = comdat any

$_ZN11xercesc_2_711HandlerBase11endDocumentEv = comdat any

$_ZN11xercesc_2_711HandlerBase10endElementEPKt = comdat any

$_ZN11xercesc_2_711HandlerBase19ignorableWhitespaceEPKtj = comdat any

$_ZN11xercesc_2_711HandlerBase21processingInstructionEPKtS2_ = comdat any

$_ZN11xercesc_2_711HandlerBase13resetDocumentEv = comdat any

$_ZN11xercesc_2_711HandlerBase18setDocumentLocatorEPKNS_7LocatorE = comdat any

$_ZN11xercesc_2_711HandlerBase13startDocumentEv = comdat any

$_ZN11xercesc_2_711HandlerBase12startElementEPKtRNS_13AttributeListE = comdat any

$_ZN11xercesc_2_711HandlerBase5errorERKNS_17SAXParseExceptionE = comdat any

$_ZN11xercesc_2_711HandlerBase10fatalErrorERKNS_17SAXParseExceptionE = comdat any

$_ZN11xercesc_2_711HandlerBase7warningERKNS_17SAXParseExceptionE = comdat any

$_ZN11xercesc_2_711HandlerBase11resetErrorsEv = comdat any

$_ZN11xercesc_2_711HandlerBase12notationDeclEPKtS2_S2_ = comdat any

$_ZN11xercesc_2_711HandlerBase12resetDocTypeEv = comdat any

$_ZN11xercesc_2_711HandlerBase18unparsedEntityDeclEPKtS2_S2_S2_ = comdat any

$_ZThn8_N11xercesc_2_711HandlerBaseD1Ev = comdat any

$_ZThn8_N11xercesc_2_711HandlerBaseD0Ev = comdat any

$_ZThn8_N11xercesc_2_711HandlerBase12notationDeclEPKtS2_S2_ = comdat any

$_ZThn8_N11xercesc_2_711HandlerBase18unparsedEntityDeclEPKtS2_S2_S2_ = comdat any

$_ZThn8_N11xercesc_2_711HandlerBase12resetDocTypeEv = comdat any

$_ZThn16_N11xercesc_2_711HandlerBaseD1Ev = comdat any

$_ZThn16_N11xercesc_2_711HandlerBaseD0Ev = comdat any

$_ZThn16_N11xercesc_2_711HandlerBase11endDocumentEv = comdat any

$_ZThn16_N11xercesc_2_711HandlerBase10endElementEPKt = comdat any

$_ZThn16_N11xercesc_2_711HandlerBase19ignorableWhitespaceEPKtj = comdat any

$_ZThn16_N11xercesc_2_711HandlerBase21processingInstructionEPKtS2_ = comdat any

$_ZThn16_N11xercesc_2_711HandlerBase13resetDocumentEv = comdat any

$_ZThn16_N11xercesc_2_711HandlerBase18setDocumentLocatorEPKNS_7LocatorE = comdat any

$_ZThn16_N11xercesc_2_711HandlerBase13startDocumentEv = comdat any

$_ZThn16_N11xercesc_2_711HandlerBase12startElementEPKtRNS_13AttributeListE = comdat any

$_ZThn24_N11xercesc_2_711HandlerBaseD1Ev = comdat any

$_ZThn24_N11xercesc_2_711HandlerBaseD0Ev = comdat any

$_ZThn24_N11xercesc_2_711HandlerBase7warningERKNS_17SAXParseExceptionE = comdat any

$_ZThn24_N11xercesc_2_711HandlerBase5errorERKNS_17SAXParseExceptionE = comdat any

$_ZThn24_N11xercesc_2_711HandlerBase10fatalErrorERKNS_17SAXParseExceptionE = comdat any

$_ZThn24_N11xercesc_2_711HandlerBase11resetErrorsEv = comdat any

$_ZN11xercesc_2_712ErrorHandlerD2Ev = comdat any

$_ZN11xercesc_2_715DocumentHandlerD2Ev = comdat any

$_ZN11xercesc_2_710DTDHandlerD2Ev = comdat any

$_ZN11xercesc_2_714EntityResolverD2Ev = comdat any

$_ZTVN11xercesc_2_710XMLDeleterE = comdat any

$_ZTSN11xercesc_2_710XMLDeleterE = comdat any

$_ZTIN11xercesc_2_710XMLDeleterE = comdat any

$_ZTVN11xercesc_2_711HandlerBaseE = comdat any

$_ZTSN11xercesc_2_711HandlerBaseE = comdat any

$_ZTSN11xercesc_2_714EntityResolverE = comdat any

$_ZTIN11xercesc_2_714EntityResolverE = comdat any

$_ZTSN11xercesc_2_710DTDHandlerE = comdat any

$_ZTIN11xercesc_2_710DTDHandlerE = comdat any

$_ZTSN11xercesc_2_715DocumentHandlerE = comdat any

$_ZTIN11xercesc_2_715DocumentHandlerE = comdat any

$_ZTSN11xercesc_2_712ErrorHandlerE = comdat any

$_ZTIN11xercesc_2_712ErrorHandlerE = comdat any

$_ZTIN11xercesc_2_711HandlerBaseE = comdat any

@_ZTVN11xercesc_2_710XMLDeleterE = linkonce_odr dso_local unnamed_addr constant { [4 x i8*] } { [4 x i8*] [i8* null, i8* bitcast ({ i8*, i8* }* @_ZTIN11xercesc_2_710XMLDeleterE to i8*), i8* bitcast (void (%"class.xercesc_2_7::XMLDeleter"*)* @_ZN11xercesc_2_710XMLDeleterD2Ev to i8*), i8* bitcast (void (%"class.xercesc_2_7::XMLDeleter"*)* @_ZN11xercesc_2_710XMLDeleterD0Ev to i8*)] }, comdat, align 8
@_ZTVN10__cxxabiv117__class_type_infoE = external dso_local global i8*
@_ZTSN11xercesc_2_710XMLDeleterE = linkonce_odr dso_local constant [28 x i8] c"N11xercesc_2_710XMLDeleterE\00", comdat, align 1
@_ZTIN11xercesc_2_710XMLDeleterE = linkonce_odr dso_local constant { i8*, i8* } { i8* bitcast (i8** getelementptr inbounds (i8*, i8** @_ZTVN10__cxxabiv117__class_type_infoE, i64 2) to i8*), i8* getelementptr inbounds ([28 x i8], [28 x i8]* @_ZTSN11xercesc_2_710XMLDeleterE, i32 0, i32 0) }, comdat, align 8
@_ZTVN11xercesc_2_711HandlerBaseE = linkonce_odr dso_local unnamed_addr constant { [21 x i8*], [7 x i8*], [13 x i8*], [8 x i8*] } { [21 x i8*] [i8* null, i8* bitcast ({ i8*, i8*, i32, i32, i8*, i64, i8*, i64, i8*, i64, i8*, i64 }* @_ZTIN11xercesc_2_711HandlerBaseE to i8*), i8* bitcast (void (%"class.xercesc_2_7::HandlerBase"*)* @_ZN11xercesc_2_711HandlerBaseD2Ev to i8*), i8* bitcast (void (%"class.xercesc_2_7::HandlerBase"*)* @_ZN11xercesc_2_711HandlerBaseD0Ev to i8*), i8* bitcast (%"class.xercesc_2_7::InputSource"* (%"class.xercesc_2_7::HandlerBase"*, i16*, i16*)* @_ZN11xercesc_2_711HandlerBase13resolveEntityEPKtS2_ to i8*), i8* bitcast (void (%"class.xercesc_2_7::HandlerBase"*, i16*, i32)* @_ZN11xercesc_2_711HandlerBase10charactersEPKtj to i8*), i8* bitcast (void (%"class.xercesc_2_7::HandlerBase"*)* @_ZN11xercesc_2_711HandlerBase11endDocumentEv to i8*), i8* bitcast (void (%"class.xercesc_2_7::HandlerBase"*, i16*)* @_ZN11xercesc_2_711HandlerBase10endElementEPKt to i8*), i8* bitcast (void (%"class.xercesc_2_7::HandlerBase"*, i16*, i32)* @_ZN11xercesc_2_711HandlerBase19ignorableWhitespaceEPKtj to i8*), i8* bitcast (void (%"class.xercesc_2_7::HandlerBase"*, i16*, i16*)* @_ZN11xercesc_2_711HandlerBase21processingInstructionEPKtS2_ to i8*), i8* bitcast (void (%"class.xercesc_2_7::HandlerBase"*)* @_ZN11xercesc_2_711HandlerBase13resetDocumentEv to i8*), i8* bitcast (void (%"class.xercesc_2_7::HandlerBase"*, %"class.xercesc_2_7::Locator"*)* @_ZN11xercesc_2_711HandlerBase18setDocumentLocatorEPKNS_7LocatorE to i8*), i8* bitcast (void (%"class.xercesc_2_7::HandlerBase"*)* @_ZN11xercesc_2_711HandlerBase13startDocumentEv to i8*), i8* bitcast (void (%"class.xercesc_2_7::HandlerBase"*, i16*, %"class.xercesc_2_7::AttributeList"*)* @_ZN11xercesc_2_711HandlerBase12startElementEPKtRNS_13AttributeListE to i8*), i8* bitcast (void (%"class.xercesc_2_7::HandlerBase"*, %"class.xercesc_2_7::SAXParseException"*)* @_ZN11xercesc_2_711HandlerBase5errorERKNS_17SAXParseExceptionE to i8*), i8* bitcast (void (%"class.xercesc_2_7::HandlerBase"*, %"class.xercesc_2_7::SAXParseException"*)* @_ZN11xercesc_2_711HandlerBase10fatalErrorERKNS_17SAXParseExceptionE to i8*), i8* bitcast (void (%"class.xercesc_2_7::HandlerBase"*, %"class.xercesc_2_7::SAXParseException"*)* @_ZN11xercesc_2_711HandlerBase7warningERKNS_17SAXParseExceptionE to i8*), i8* bitcast (void (%"class.xercesc_2_7::HandlerBase"*)* @_ZN11xercesc_2_711HandlerBase11resetErrorsEv to i8*), i8* bitcast (void (%"class.xercesc_2_7::HandlerBase"*, i16*, i16*, i16*)* @_ZN11xercesc_2_711HandlerBase12notationDeclEPKtS2_S2_ to i8*), i8* bitcast (void (%"class.xercesc_2_7::HandlerBase"*)* @_ZN11xercesc_2_711HandlerBase12resetDocTypeEv to i8*), i8* bitcast (void (%"class.xercesc_2_7::HandlerBase"*, i16*, i16*, i16*, i16*)* @_ZN11xercesc_2_711HandlerBase18unparsedEntityDeclEPKtS2_S2_S2_ to i8*)], [7 x i8*] [i8* inttoptr (i64 -8 to i8*), i8* bitcast ({ i8*, i8*, i32, i32, i8*, i64, i8*, i64, i8*, i64, i8*, i64 }* @_ZTIN11xercesc_2_711HandlerBaseE to i8*), i8* bitcast (void (%"class.xercesc_2_7::HandlerBase"*)* @_ZThn8_N11xercesc_2_711HandlerBaseD1Ev to i8*), i8* bitcast (void (%"class.xercesc_2_7::HandlerBase"*)* @_ZThn8_N11xercesc_2_711HandlerBaseD0Ev to i8*), i8* bitcast (void (%"class.xercesc_2_7::HandlerBase"*, i16*, i16*, i16*)* @_ZThn8_N11xercesc_2_711HandlerBase12notationDeclEPKtS2_S2_ to i8*), i8* bitcast (void (%"class.xercesc_2_7::HandlerBase"*, i16*, i16*, i16*, i16*)* @_ZThn8_N11xercesc_2_711HandlerBase18unparsedEntityDeclEPKtS2_S2_S2_ to i8*), i8* bitcast (void (%"class.xercesc_2_7::HandlerBase"*)* @_ZThn8_N11xercesc_2_711HandlerBase12resetDocTypeEv to i8*)], [13 x i8*] [i8* inttoptr (i64 -16 to i8*), i8* bitcast ({ i8*, i8*, i32, i32, i8*, i64, i8*, i64, i8*, i64, i8*, i64 }* @_ZTIN11xercesc_2_711HandlerBaseE to i8*), i8* bitcast (void (%"class.xercesc_2_7::HandlerBase"*)* @_ZThn16_N11xercesc_2_711HandlerBaseD1Ev to i8*), i8* bitcast (void (%"class.xercesc_2_7::HandlerBase"*)* @_ZThn16_N11xercesc_2_711HandlerBaseD0Ev to i8*), i8* bitcast (void (%"class.xercesc_2_7::HandlerBase"*, i16*, i32)* @_ZThn16_N11xercesc_2_711HandlerBase10charactersEPKtj to i8*), i8* bitcast (void (%"class.xercesc_2_7::HandlerBase"*)* @_ZThn16_N11xercesc_2_711HandlerBase11endDocumentEv to i8*), i8* bitcast (void (%"class.xercesc_2_7::HandlerBase"*, i16*)* @_ZThn16_N11xercesc_2_711HandlerBase10endElementEPKt to i8*), i8* bitcast (void (%"class.xercesc_2_7::HandlerBase"*, i16*, i32)* @_ZThn16_N11xercesc_2_711HandlerBase19ignorableWhitespaceEPKtj to i8*), i8* bitcast (void (%"class.xercesc_2_7::HandlerBase"*, i16*, i16*)* @_ZThn16_N11xercesc_2_711HandlerBase21processingInstructionEPKtS2_ to i8*), i8* bitcast (void (%"class.xercesc_2_7::HandlerBase"*)* @_ZThn16_N11xercesc_2_711HandlerBase13resetDocumentEv to i8*), i8* bitcast (void (%"class.xercesc_2_7::HandlerBase"*, %"class.xercesc_2_7::Locator"*)* @_ZThn16_N11xercesc_2_711HandlerBase18setDocumentLocatorEPKNS_7LocatorE to i8*), i8* bitcast (void (%"class.xercesc_2_7::HandlerBase"*)* @_ZThn16_N11xercesc_2_711HandlerBase13startDocumentEv to i8*), i8* bitcast (void (%"class.xercesc_2_7::HandlerBase"*, i16*, %"class.xercesc_2_7::AttributeList"*)* @_ZThn16_N11xercesc_2_711HandlerBase12startElementEPKtRNS_13AttributeListE to i8*)], [8 x i8*] [i8* inttoptr (i64 -24 to i8*), i8* bitcast ({ i8*, i8*, i32, i32, i8*, i64, i8*, i64, i8*, i64, i8*, i64 }* @_ZTIN11xercesc_2_711HandlerBaseE to i8*), i8* bitcast (void (%"class.xercesc_2_7::HandlerBase"*)* @_ZThn24_N11xercesc_2_711HandlerBaseD1Ev to i8*), i8* bitcast (void (%"class.xercesc_2_7::HandlerBase"*)* @_ZThn24_N11xercesc_2_711HandlerBaseD0Ev to i8*), i8* bitcast (void (%"class.xercesc_2_7::HandlerBase"*, %"class.xercesc_2_7::SAXParseException"*)* @_ZThn24_N11xercesc_2_711HandlerBase7warningERKNS_17SAXParseExceptionE to i8*), i8* bitcast (void (%"class.xercesc_2_7::HandlerBase"*, %"class.xercesc_2_7::SAXParseException"*)* @_ZThn24_N11xercesc_2_711HandlerBase5errorERKNS_17SAXParseExceptionE to i8*), i8* bitcast (void (%"class.xercesc_2_7::HandlerBase"*, %"class.xercesc_2_7::SAXParseException"*)* @_ZThn24_N11xercesc_2_711HandlerBase10fatalErrorERKNS_17SAXParseExceptionE to i8*), i8* bitcast (void (%"class.xercesc_2_7::HandlerBase"*)* @_ZThn24_N11xercesc_2_711HandlerBase11resetErrorsEv to i8*)] }, comdat, align 8
@_ZTVN10__cxxabiv121__vmi_class_type_infoE = external dso_local global i8*
@_ZTSN11xercesc_2_711HandlerBaseE = linkonce_odr dso_local constant [29 x i8] c"N11xercesc_2_711HandlerBaseE\00", comdat, align 1
@_ZTSN11xercesc_2_714EntityResolverE = linkonce_odr dso_local constant [32 x i8] c"N11xercesc_2_714EntityResolverE\00", comdat, align 1
@_ZTIN11xercesc_2_714EntityResolverE = linkonce_odr dso_local constant { i8*, i8* } { i8* bitcast (i8** getelementptr inbounds (i8*, i8** @_ZTVN10__cxxabiv117__class_type_infoE, i64 2) to i8*), i8* getelementptr inbounds ([32 x i8], [32 x i8]* @_ZTSN11xercesc_2_714EntityResolverE, i32 0, i32 0) }, comdat, align 8
@_ZTSN11xercesc_2_710DTDHandlerE = linkonce_odr dso_local constant [28 x i8] c"N11xercesc_2_710DTDHandlerE\00", comdat, align 1
@_ZTIN11xercesc_2_710DTDHandlerE = linkonce_odr dso_local constant { i8*, i8* } { i8* bitcast (i8** getelementptr inbounds (i8*, i8** @_ZTVN10__cxxabiv117__class_type_infoE, i64 2) to i8*), i8* getelementptr inbounds ([28 x i8], [28 x i8]* @_ZTSN11xercesc_2_710DTDHandlerE, i32 0, i32 0) }, comdat, align 8
@_ZTSN11xercesc_2_715DocumentHandlerE = linkonce_odr dso_local constant [33 x i8] c"N11xercesc_2_715DocumentHandlerE\00", comdat, align 1
@_ZTIN11xercesc_2_715DocumentHandlerE = linkonce_odr dso_local constant { i8*, i8* } { i8* bitcast (i8** getelementptr inbounds (i8*, i8** @_ZTVN10__cxxabiv117__class_type_infoE, i64 2) to i8*), i8* getelementptr inbounds ([33 x i8], [33 x i8]* @_ZTSN11xercesc_2_715DocumentHandlerE, i32 0, i32 0) }, comdat, align 8
@_ZTSN11xercesc_2_712ErrorHandlerE = linkonce_odr dso_local constant [30 x i8] c"N11xercesc_2_712ErrorHandlerE\00", comdat, align 1
@_ZTIN11xercesc_2_712ErrorHandlerE = linkonce_odr dso_local constant { i8*, i8* } { i8* bitcast (i8** getelementptr inbounds (i8*, i8** @_ZTVN10__cxxabiv117__class_type_infoE, i64 2) to i8*), i8* getelementptr inbounds ([30 x i8], [30 x i8]* @_ZTSN11xercesc_2_712ErrorHandlerE, i32 0, i32 0) }, comdat, align 8
@_ZTIN11xercesc_2_711HandlerBaseE = linkonce_odr dso_local constant { i8*, i8*, i32, i32, i8*, i64, i8*, i64, i8*, i64, i8*, i64 } { i8* bitcast (i8** getelementptr inbounds (i8*, i8** @_ZTVN10__cxxabiv121__vmi_class_type_infoE, i64 2) to i8*), i8* getelementptr inbounds ([29 x i8], [29 x i8]* @_ZTSN11xercesc_2_711HandlerBaseE, i32 0, i32 0), i32 0, i32 4, i8* bitcast ({ i8*, i8* }* @_ZTIN11xercesc_2_714EntityResolverE to i8*), i64 2, i8* bitcast ({ i8*, i8* }* @_ZTIN11xercesc_2_710DTDHandlerE to i8*), i64 2050, i8* bitcast ({ i8*, i8* }* @_ZTIN11xercesc_2_715DocumentHandlerE to i8*), i64 4098, i8* bitcast ({ i8*, i8* }* @_ZTIN11xercesc_2_712ErrorHandlerE to i8*), i64 6146 }, comdat, align 8
@_ZTIN11xercesc_2_717SAXParseExceptionE = external dso_local constant i8*

; Function Attrs: nounwind readnone speculatable willreturn
declare void @llvm.dbg.declare(metadata, metadata, metadata) #0

; Function Attrs: noinline nounwind uwtable
define linkonce_odr dso_local void @_ZN11xercesc_2_710XMLDeleterD0Ev(%"class.xercesc_2_7::XMLDeleter"* %this) unnamed_addr #1 comdat align 2 !dbg !338 {
entry:
  %this.addr = alloca %"class.xercesc_2_7::XMLDeleter"*, align 8
  store %"class.xercesc_2_7::XMLDeleter"* %this, %"class.xercesc_2_7::XMLDeleter"** %this.addr, align 8
  call void @llvm.dbg.declare(metadata %"class.xercesc_2_7::XMLDeleter"** %this.addr, metadata !359, metadata !DIExpression()), !dbg !361
  %this1 = load %"class.xercesc_2_7::XMLDeleter"*, %"class.xercesc_2_7::XMLDeleter"** %this.addr, align 8
  call void @_ZN11xercesc_2_710XMLDeleterD2Ev(%"class.xercesc_2_7::XMLDeleter"* %this1) #6, !dbg !362
  %0 = bitcast %"class.xercesc_2_7::XMLDeleter"* %this1 to i8*, !dbg !362
  call void @_ZdlPv(i8* %0) #7, !dbg !362
  ret void, !dbg !363
}

; Function Attrs: noinline nounwind uwtable
define linkonce_odr dso_local void @_ZN11xercesc_2_710XMLDeleterD2Ev(%"class.xercesc_2_7::XMLDeleter"* %this) unnamed_addr #1 comdat align 2 !dbg !364 {
entry:
  %this.addr = alloca %"class.xercesc_2_7::XMLDeleter"*, align 8
  store %"class.xercesc_2_7::XMLDeleter"* %this, %"class.xercesc_2_7::XMLDeleter"** %this.addr, align 8
  call void @llvm.dbg.declare(metadata %"class.xercesc_2_7::XMLDeleter"** %this.addr, metadata !365, metadata !DIExpression()), !dbg !366
  %this1 = load %"class.xercesc_2_7::XMLDeleter"*, %"class.xercesc_2_7::XMLDeleter"** %this.addr, align 8
  ret void, !dbg !367
}

; Function Attrs: nobuiltin nounwind
declare dso_local void @_ZdlPv(i8*) #2

; Function Attrs: noinline nounwind uwtable
define linkonce_odr dso_local void @_ZN11xercesc_2_711HandlerBase10charactersEPKtj(%"class.xercesc_2_7::HandlerBase"* %this, i16* %0, i32 %1) unnamed_addr #1 comdat align 2 !dbg !368 {
entry:
  %this.addr = alloca %"class.xercesc_2_7::HandlerBase"*, align 8
  %.addr = alloca i16*, align 8
  %.addr1 = alloca i32, align 4
  store %"class.xercesc_2_7::HandlerBase"* %this, %"class.xercesc_2_7::HandlerBase"** %this.addr, align 8
  call void @llvm.dbg.declare(metadata %"class.xercesc_2_7::HandlerBase"** %this.addr, metadata !455, metadata !DIExpression()), !dbg !457
  store i16* %0, i16** %.addr, align 8
  call void @llvm.dbg.declare(metadata i16** %.addr, metadata !458, metadata !DIExpression()), !dbg !459
  store i32 %1, i32* %.addr1, align 4
  call void @llvm.dbg.declare(metadata i32* %.addr1, metadata !460, metadata !DIExpression()), !dbg !461
  %this2 = load %"class.xercesc_2_7::HandlerBase"*, %"class.xercesc_2_7::HandlerBase"** %this.addr, align 8
  ret void, !dbg !462
}

; Function Attrs: noinline uwtable
define linkonce_odr dso_local void @_ZThn16_N11xercesc_2_711HandlerBase10charactersEPKtj(%"class.xercesc_2_7::HandlerBase"* %this, i16* %0, i32 %1) unnamed_addr #3 comdat align 2 !dbg !463 {
entry:
  %this.addr = alloca %"class.xercesc_2_7::HandlerBase"*, align 8
  %.addr = alloca i16*, align 8
  %.addr1 = alloca i32, align 4
  store %"class.xercesc_2_7::HandlerBase"* %this, %"class.xercesc_2_7::HandlerBase"** %this.addr, align 8
  store i16* %0, i16** %.addr, align 8
  store i32 %1, i32* %.addr1, align 4
  %this2 = load %"class.xercesc_2_7::HandlerBase"*, %"class.xercesc_2_7::HandlerBase"** %this.addr, align 8, !dbg !465
  %2 = bitcast %"class.xercesc_2_7::HandlerBase"* %this2 to i8*, !dbg !465
  %3 = getelementptr inbounds i8, i8* %2, i64 -16, !dbg !465
  %4 = bitcast i8* %3 to %"class.xercesc_2_7::HandlerBase"*, !dbg !465
  %5 = load i16*, i16** %.addr, align 8, !dbg !465
  %6 = load i32, i32* %.addr1, align 4, !dbg !465
  tail call void @_ZN11xercesc_2_711HandlerBase10charactersEPKtj(%"class.xercesc_2_7::HandlerBase"* %4, i16* %5, i32 %6), !dbg !465
  ret void, !dbg !465
}

; Function Attrs: noinline nounwind uwtable
define linkonce_odr dso_local void @_ZN11xercesc_2_711HandlerBaseD2Ev(%"class.xercesc_2_7::HandlerBase"* %this) unnamed_addr #1 comdat align 2 !dbg !466 {
entry:
  %this.addr = alloca %"class.xercesc_2_7::HandlerBase"*, align 8
  store %"class.xercesc_2_7::HandlerBase"* %this, %"class.xercesc_2_7::HandlerBase"** %this.addr, align 8
  call void @llvm.dbg.declare(metadata %"class.xercesc_2_7::HandlerBase"** %this.addr, metadata !467, metadata !DIExpression()), !dbg !468
  %this1 = load %"class.xercesc_2_7::HandlerBase"*, %"class.xercesc_2_7::HandlerBase"** %this.addr, align 8
  %0 = bitcast %"class.xercesc_2_7::HandlerBase"* %this1 to i8*, !dbg !469
  %1 = getelementptr inbounds i8, i8* %0, i64 24, !dbg !469
  %2 = bitcast i8* %1 to %"class.xercesc_2_7::ErrorHandler"*, !dbg !469
  call void @_ZN11xercesc_2_712ErrorHandlerD2Ev(%"class.xercesc_2_7::ErrorHandler"* %2) #6, !dbg !469
  %3 = bitcast %"class.xercesc_2_7::HandlerBase"* %this1 to i8*, !dbg !469
  %4 = getelementptr inbounds i8, i8* %3, i64 16, !dbg !469
  %5 = bitcast i8* %4 to %"class.xercesc_2_7::DocumentHandler"*, !dbg !469
  call void @_ZN11xercesc_2_715DocumentHandlerD2Ev(%"class.xercesc_2_7::DocumentHandler"* %5) #6, !dbg !469
  %6 = bitcast %"class.xercesc_2_7::HandlerBase"* %this1 to i8*, !dbg !469
  %7 = getelementptr inbounds i8, i8* %6, i64 8, !dbg !469
  %8 = bitcast i8* %7 to %"class.xercesc_2_7::DTDHandler"*, !dbg !469
  call void @_ZN11xercesc_2_710DTDHandlerD2Ev(%"class.xercesc_2_7::DTDHandler"* %8) #6, !dbg !469
  %9 = bitcast %"class.xercesc_2_7::HandlerBase"* %this1 to %"class.xercesc_2_7::EntityResolver"*, !dbg !469
  call void @_ZN11xercesc_2_714EntityResolverD2Ev(%"class.xercesc_2_7::EntityResolver"* %9) #6, !dbg !469
  ret void, !dbg !471
}

; Function Attrs: noinline nounwind uwtable
define linkonce_odr dso_local void @_ZN11xercesc_2_711HandlerBaseD0Ev(%"class.xercesc_2_7::HandlerBase"* %this) unnamed_addr #1 comdat align 2 !dbg !472 {
entry:
  %this.addr = alloca %"class.xercesc_2_7::HandlerBase"*, align 8
  store %"class.xercesc_2_7::HandlerBase"* %this, %"class.xercesc_2_7::HandlerBase"** %this.addr, align 8
  call void @llvm.dbg.declare(metadata %"class.xercesc_2_7::HandlerBase"** %this.addr, metadata !473, metadata !DIExpression()), !dbg !474
  %this1 = load %"class.xercesc_2_7::HandlerBase"*, %"class.xercesc_2_7::HandlerBase"** %this.addr, align 8
  call void @_ZN11xercesc_2_711HandlerBaseD2Ev(%"class.xercesc_2_7::HandlerBase"* %this1) #6, !dbg !475
  %0 = bitcast %"class.xercesc_2_7::HandlerBase"* %this1 to i8*, !dbg !475
  call void @_ZdlPv(i8* %0) #7, !dbg !475
  ret void, !dbg !476
}

; Function Attrs: noinline nounwind uwtable
define linkonce_odr dso_local %"class.xercesc_2_7::InputSource"* @_ZN11xercesc_2_711HandlerBase13resolveEntityEPKtS2_(%"class.xercesc_2_7::HandlerBase"* %this, i16* %0, i16* %1) unnamed_addr #1 comdat align 2 !dbg !477 {
entry:
  %this.addr = alloca %"class.xercesc_2_7::HandlerBase"*, align 8
  %.addr = alloca i16*, align 8
  %.addr1 = alloca i16*, align 8
  store %"class.xercesc_2_7::HandlerBase"* %this, %"class.xercesc_2_7::HandlerBase"** %this.addr, align 8
  call void @llvm.dbg.declare(metadata %"class.xercesc_2_7::HandlerBase"** %this.addr, metadata !478, metadata !DIExpression()), !dbg !479
  store i16* %0, i16** %.addr, align 8
  call void @llvm.dbg.declare(metadata i16** %.addr, metadata !480, metadata !DIExpression()), !dbg !481
  store i16* %1, i16** %.addr1, align 8
  call void @llvm.dbg.declare(metadata i16** %.addr1, metadata !482, metadata !DIExpression()), !dbg !483
  %this2 = load %"class.xercesc_2_7::HandlerBase"*, %"class.xercesc_2_7::HandlerBase"** %this.addr, align 8
  ret %"class.xercesc_2_7::InputSource"* null, !dbg !484
}

; Function Attrs: noinline nounwind uwtable
define linkonce_odr dso_local void @_ZN11xercesc_2_711HandlerBase11endDocumentEv(%"class.xercesc_2_7::HandlerBase"* %this) unnamed_addr #1 comdat align 2 !dbg !485 {
entry:
  %this.addr = alloca %"class.xercesc_2_7::HandlerBase"*, align 8
  store %"class.xercesc_2_7::HandlerBase"* %this, %"class.xercesc_2_7::HandlerBase"** %this.addr, align 8
  call void @llvm.dbg.declare(metadata %"class.xercesc_2_7::HandlerBase"** %this.addr, metadata !486, metadata !DIExpression()), !dbg !487
  %this1 = load %"class.xercesc_2_7::HandlerBase"*, %"class.xercesc_2_7::HandlerBase"** %this.addr, align 8
  ret void, !dbg !488
}

; Function Attrs: noinline nounwind uwtable
define linkonce_odr dso_local void @_ZN11xercesc_2_711HandlerBase10endElementEPKt(%"class.xercesc_2_7::HandlerBase"* %this, i16* %0) unnamed_addr #1 comdat align 2 !dbg !489 {
entry:
  %this.addr = alloca %"class.xercesc_2_7::HandlerBase"*, align 8
  %.addr = alloca i16*, align 8
  store %"class.xercesc_2_7::HandlerBase"* %this, %"class.xercesc_2_7::HandlerBase"** %this.addr, align 8
  call void @llvm.dbg.declare(metadata %"class.xercesc_2_7::HandlerBase"** %this.addr, metadata !490, metadata !DIExpression()), !dbg !491
  store i16* %0, i16** %.addr, align 8
  call void @llvm.dbg.declare(metadata i16** %.addr, metadata !492, metadata !DIExpression()), !dbg !493
  %this1 = load %"class.xercesc_2_7::HandlerBase"*, %"class.xercesc_2_7::HandlerBase"** %this.addr, align 8
  ret void, !dbg !494
}

; Function Attrs: noinline nounwind uwtable
define linkonce_odr dso_local void @_ZN11xercesc_2_711HandlerBase19ignorableWhitespaceEPKtj(%"class.xercesc_2_7::HandlerBase"* %this, i16* %0, i32 %1) unnamed_addr #1 comdat align 2 !dbg !495 {
entry:
  %this.addr = alloca %"class.xercesc_2_7::HandlerBase"*, align 8
  %.addr = alloca i16*, align 8
  %.addr1 = alloca i32, align 4
  store %"class.xercesc_2_7::HandlerBase"* %this, %"class.xercesc_2_7::HandlerBase"** %this.addr, align 8
  call void @llvm.dbg.declare(metadata %"class.xercesc_2_7::HandlerBase"** %this.addr, metadata !496, metadata !DIExpression()), !dbg !497
  store i16* %0, i16** %.addr, align 8
  call void @llvm.dbg.declare(metadata i16** %.addr, metadata !498, metadata !DIExpression()), !dbg !499
  store i32 %1, i32* %.addr1, align 4
  call void @llvm.dbg.declare(metadata i32* %.addr1, metadata !500, metadata !DIExpression()), !dbg !501
  %this2 = load %"class.xercesc_2_7::HandlerBase"*, %"class.xercesc_2_7::HandlerBase"** %this.addr, align 8
  ret void, !dbg !502
}

; Function Attrs: noinline nounwind uwtable
define linkonce_odr dso_local void @_ZN11xercesc_2_711HandlerBase21processingInstructionEPKtS2_(%"class.xercesc_2_7::HandlerBase"* %this, i16* %0, i16* %1) unnamed_addr #1 comdat align 2 !dbg !503 {
entry:
  %this.addr = alloca %"class.xercesc_2_7::HandlerBase"*, align 8
  %.addr = alloca i16*, align 8
  %.addr1 = alloca i16*, align 8
  store %"class.xercesc_2_7::HandlerBase"* %this, %"class.xercesc_2_7::HandlerBase"** %this.addr, align 8
  call void @llvm.dbg.declare(metadata %"class.xercesc_2_7::HandlerBase"** %this.addr, metadata !504, metadata !DIExpression()), !dbg !505
  store i16* %0, i16** %.addr, align 8
  call void @llvm.dbg.declare(metadata i16** %.addr, metadata !506, metadata !DIExpression()), !dbg !507
  store i16* %1, i16** %.addr1, align 8
  call void @llvm.dbg.declare(metadata i16** %.addr1, metadata !508, metadata !DIExpression()), !dbg !509
  %this2 = load %"class.xercesc_2_7::HandlerBase"*, %"class.xercesc_2_7::HandlerBase"** %this.addr, align 8
  ret void, !dbg !510
}

; Function Attrs: noinline nounwind uwtable
define linkonce_odr dso_local void @_ZN11xercesc_2_711HandlerBase13resetDocumentEv(%"class.xercesc_2_7::HandlerBase"* %this) unnamed_addr #1 comdat align 2 !dbg !511 {
entry:
  %this.addr = alloca %"class.xercesc_2_7::HandlerBase"*, align 8
  store %"class.xercesc_2_7::HandlerBase"* %this, %"class.xercesc_2_7::HandlerBase"** %this.addr, align 8
  call void @llvm.dbg.declare(metadata %"class.xercesc_2_7::HandlerBase"** %this.addr, metadata !512, metadata !DIExpression()), !dbg !513
  %this1 = load %"class.xercesc_2_7::HandlerBase"*, %"class.xercesc_2_7::HandlerBase"** %this.addr, align 8
  ret void, !dbg !514
}

; Function Attrs: noinline nounwind uwtable
define linkonce_odr dso_local void @_ZN11xercesc_2_711HandlerBase18setDocumentLocatorEPKNS_7LocatorE(%"class.xercesc_2_7::HandlerBase"* %this, %"class.xercesc_2_7::Locator"* %0) unnamed_addr #1 comdat align 2 !dbg !515 {
entry:
  %this.addr = alloca %"class.xercesc_2_7::HandlerBase"*, align 8
  %.addr = alloca %"class.xercesc_2_7::Locator"*, align 8
  store %"class.xercesc_2_7::HandlerBase"* %this, %"class.xercesc_2_7::HandlerBase"** %this.addr, align 8
  call void @llvm.dbg.declare(metadata %"class.xercesc_2_7::HandlerBase"** %this.addr, metadata !516, metadata !DIExpression()), !dbg !517
  store %"class.xercesc_2_7::Locator"* %0, %"class.xercesc_2_7::Locator"** %.addr, align 8
  call void @llvm.dbg.declare(metadata %"class.xercesc_2_7::Locator"** %.addr, metadata !518, metadata !DIExpression()), !dbg !519
  %this1 = load %"class.xercesc_2_7::HandlerBase"*, %"class.xercesc_2_7::HandlerBase"** %this.addr, align 8
  ret void, !dbg !520
}

; Function Attrs: noinline nounwind uwtable
define linkonce_odr dso_local void @_ZN11xercesc_2_711HandlerBase13startDocumentEv(%"class.xercesc_2_7::HandlerBase"* %this) unnamed_addr #1 comdat align 2 !dbg !521 {
entry:
  %this.addr = alloca %"class.xercesc_2_7::HandlerBase"*, align 8
  store %"class.xercesc_2_7::HandlerBase"* %this, %"class.xercesc_2_7::HandlerBase"** %this.addr, align 8
  call void @llvm.dbg.declare(metadata %"class.xercesc_2_7::HandlerBase"** %this.addr, metadata !522, metadata !DIExpression()), !dbg !523
  %this1 = load %"class.xercesc_2_7::HandlerBase"*, %"class.xercesc_2_7::HandlerBase"** %this.addr, align 8
  ret void, !dbg !524
}

; Function Attrs: noinline nounwind uwtable
define linkonce_odr dso_local void @_ZN11xercesc_2_711HandlerBase12startElementEPKtRNS_13AttributeListE(%"class.xercesc_2_7::HandlerBase"* %this, i16* %0, %"class.xercesc_2_7::AttributeList"* dereferenceable(8) %1) unnamed_addr #1 comdat align 2 !dbg !525 {
entry:
  %this.addr = alloca %"class.xercesc_2_7::HandlerBase"*, align 8
  %.addr = alloca i16*, align 8
  %.addr1 = alloca %"class.xercesc_2_7::AttributeList"*, align 8
  store %"class.xercesc_2_7::HandlerBase"* %this, %"class.xercesc_2_7::HandlerBase"** %this.addr, align 8
  call void @llvm.dbg.declare(metadata %"class.xercesc_2_7::HandlerBase"** %this.addr, metadata !526, metadata !DIExpression()), !dbg !527
  store i16* %0, i16** %.addr, align 8
  call void @llvm.dbg.declare(metadata i16** %.addr, metadata !528, metadata !DIExpression()), !dbg !529
  store %"class.xercesc_2_7::AttributeList"* %1, %"class.xercesc_2_7::AttributeList"** %.addr1, align 8
  call void @llvm.dbg.declare(metadata %"class.xercesc_2_7::AttributeList"** %.addr1, metadata !530, metadata !DIExpression()), !dbg !531
  %this2 = load %"class.xercesc_2_7::HandlerBase"*, %"class.xercesc_2_7::HandlerBase"** %this.addr, align 8
  ret void, !dbg !532
}

; Function Attrs: noinline nounwind uwtable
define linkonce_odr dso_local void @_ZN11xercesc_2_711HandlerBase5errorERKNS_17SAXParseExceptionE(%"class.xercesc_2_7::HandlerBase"* %this, %"class.xercesc_2_7::SAXParseException"* dereferenceable(56) %0) unnamed_addr #1 comdat align 2 !dbg !533 {
entry:
  %this.addr = alloca %"class.xercesc_2_7::HandlerBase"*, align 8
  %.addr = alloca %"class.xercesc_2_7::SAXParseException"*, align 8
  store %"class.xercesc_2_7::HandlerBase"* %this, %"class.xercesc_2_7::HandlerBase"** %this.addr, align 8
  call void @llvm.dbg.declare(metadata %"class.xercesc_2_7::HandlerBase"** %this.addr, metadata !534, metadata !DIExpression()), !dbg !535
  store %"class.xercesc_2_7::SAXParseException"* %0, %"class.xercesc_2_7::SAXParseException"** %.addr, align 8
  call void @llvm.dbg.declare(metadata %"class.xercesc_2_7::SAXParseException"** %.addr, metadata !536, metadata !DIExpression()), !dbg !537
  %this1 = load %"class.xercesc_2_7::HandlerBase"*, %"class.xercesc_2_7::HandlerBase"** %this.addr, align 8
  ret void, !dbg !538
}

; Function Attrs: noinline uwtable
define linkonce_odr dso_local void @_ZN11xercesc_2_711HandlerBase10fatalErrorERKNS_17SAXParseExceptionE(%"class.xercesc_2_7::HandlerBase"* %this, %"class.xercesc_2_7::SAXParseException"* dereferenceable(56) %exc) unnamed_addr #3 comdat align 2 personality i8* bitcast (i32 (...)* @__gxx_personality_v0 to i8*) !dbg !539 {
entry:
  %this.addr = alloca %"class.xercesc_2_7::HandlerBase"*, align 8
  %exc.addr = alloca %"class.xercesc_2_7::SAXParseException"*, align 8
  %exn.slot = alloca i8*
  %ehselector.slot = alloca i32
  store %"class.xercesc_2_7::HandlerBase"* %this, %"class.xercesc_2_7::HandlerBase"** %this.addr, align 8
  call void @llvm.dbg.declare(metadata %"class.xercesc_2_7::HandlerBase"** %this.addr, metadata !540, metadata !DIExpression()), !dbg !541
  store %"class.xercesc_2_7::SAXParseException"* %exc, %"class.xercesc_2_7::SAXParseException"** %exc.addr, align 8
  call void @llvm.dbg.declare(metadata %"class.xercesc_2_7::SAXParseException"** %exc.addr, metadata !542, metadata !DIExpression()), !dbg !543
  %this1 = load %"class.xercesc_2_7::HandlerBase"*, %"class.xercesc_2_7::HandlerBase"** %this.addr, align 8
  %exception = call i8* @__cxa_allocate_exception(i64 56) #6, !dbg !544
  %0 = bitcast i8* %exception to %"class.xercesc_2_7::SAXParseException"*, !dbg !544
  %1 = load %"class.xercesc_2_7::SAXParseException"*, %"class.xercesc_2_7::SAXParseException"** %exc.addr, align 8, !dbg !545
  invoke void @_ZN11xercesc_2_717SAXParseExceptionC1ERKS0_(%"class.xercesc_2_7::SAXParseException"* %0, %"class.xercesc_2_7::SAXParseException"* dereferenceable(56) %1)
          to label %invoke.cont unwind label %lpad, !dbg !545

invoke.cont:                                      ; preds = %entry
  call void @__cxa_throw(i8* %exception, i8* bitcast (i8** @_ZTIN11xercesc_2_717SAXParseExceptionE to i8*), i8* bitcast (void (%"class.xercesc_2_7::SAXParseException"*)* @_ZN11xercesc_2_717SAXParseExceptionD1Ev to i8*)) #8, !dbg !544
  unreachable, !dbg !544

lpad:                                             ; preds = %entry
  %2 = landingpad { i8*, i32 }
          cleanup, !dbg !546
  %3 = extractvalue { i8*, i32 } %2, 0, !dbg !546
  store i8* %3, i8** %exn.slot, align 8, !dbg !546
  %4 = extractvalue { i8*, i32 } %2, 1, !dbg !546
  store i32 %4, i32* %ehselector.slot, align 4, !dbg !546
  call void @__cxa_free_exception(i8* %exception) #6, !dbg !544
  br label %eh.resume, !dbg !544

eh.resume:                                        ; preds = %lpad
  %exn = load i8*, i8** %exn.slot, align 8, !dbg !544
  %sel = load i32, i32* %ehselector.slot, align 4, !dbg !544
  %lpad.val = insertvalue { i8*, i32 } undef, i8* %exn, 0, !dbg !544
  %lpad.val2 = insertvalue { i8*, i32 } %lpad.val, i32 %sel, 1, !dbg !544
  resume { i8*, i32 } %lpad.val2, !dbg !544
}

; Function Attrs: noinline nounwind uwtable
define linkonce_odr dso_local void @_ZN11xercesc_2_711HandlerBase7warningERKNS_17SAXParseExceptionE(%"class.xercesc_2_7::HandlerBase"* %this, %"class.xercesc_2_7::SAXParseException"* dereferenceable(56) %0) unnamed_addr #1 comdat align 2 !dbg !547 {
entry:
  %this.addr = alloca %"class.xercesc_2_7::HandlerBase"*, align 8
  %.addr = alloca %"class.xercesc_2_7::SAXParseException"*, align 8
  store %"class.xercesc_2_7::HandlerBase"* %this, %"class.xercesc_2_7::HandlerBase"** %this.addr, align 8
  call void @llvm.dbg.declare(metadata %"class.xercesc_2_7::HandlerBase"** %this.addr, metadata !548, metadata !DIExpression()), !dbg !549
  store %"class.xercesc_2_7::SAXParseException"* %0, %"class.xercesc_2_7::SAXParseException"** %.addr, align 8
  call void @llvm.dbg.declare(metadata %"class.xercesc_2_7::SAXParseException"** %.addr, metadata !550, metadata !DIExpression()), !dbg !551
  %this1 = load %"class.xercesc_2_7::HandlerBase"*, %"class.xercesc_2_7::HandlerBase"** %this.addr, align 8
  ret void, !dbg !552
}

; Function Attrs: noinline nounwind uwtable
define linkonce_odr dso_local void @_ZN11xercesc_2_711HandlerBase11resetErrorsEv(%"class.xercesc_2_7::HandlerBase"* %this) unnamed_addr #1 comdat align 2 !dbg !553 {
entry:
  %this.addr = alloca %"class.xercesc_2_7::HandlerBase"*, align 8
  store %"class.xercesc_2_7::HandlerBase"* %this, %"class.xercesc_2_7::HandlerBase"** %this.addr, align 8
  call void @llvm.dbg.declare(metadata %"class.xercesc_2_7::HandlerBase"** %this.addr, metadata !554, metadata !DIExpression()), !dbg !555
  %this1 = load %"class.xercesc_2_7::HandlerBase"*, %"class.xercesc_2_7::HandlerBase"** %this.addr, align 8
  ret void, !dbg !556
}

; Function Attrs: noinline nounwind uwtable
define linkonce_odr dso_local void @_ZN11xercesc_2_711HandlerBase12notationDeclEPKtS2_S2_(%"class.xercesc_2_7::HandlerBase"* %this, i16* %0, i16* %1, i16* %2) unnamed_addr #1 comdat align 2 !dbg !557 {
entry:
  %this.addr = alloca %"class.xercesc_2_7::HandlerBase"*, align 8
  %.addr = alloca i16*, align 8
  %.addr1 = alloca i16*, align 8
  %.addr2 = alloca i16*, align 8
  store %"class.xercesc_2_7::HandlerBase"* %this, %"class.xercesc_2_7::HandlerBase"** %this.addr, align 8
  call void @llvm.dbg.declare(metadata %"class.xercesc_2_7::HandlerBase"** %this.addr, metadata !558, metadata !DIExpression()), !dbg !559
  store i16* %0, i16** %.addr, align 8
  call void @llvm.dbg.declare(metadata i16** %.addr, metadata !560, metadata !DIExpression()), !dbg !561
  store i16* %1, i16** %.addr1, align 8
  call void @llvm.dbg.declare(metadata i16** %.addr1, metadata !562, metadata !DIExpression()), !dbg !563
  store i16* %2, i16** %.addr2, align 8
  call void @llvm.dbg.declare(metadata i16** %.addr2, metadata !564, metadata !DIExpression()), !dbg !565
  %this3 = load %"class.xercesc_2_7::HandlerBase"*, %"class.xercesc_2_7::HandlerBase"** %this.addr, align 8
  ret void, !dbg !566
}

; Function Attrs: noinline nounwind uwtable
define linkonce_odr dso_local void @_ZN11xercesc_2_711HandlerBase12resetDocTypeEv(%"class.xercesc_2_7::HandlerBase"* %this) unnamed_addr #1 comdat align 2 !dbg !567 {
entry:
  %this.addr = alloca %"class.xercesc_2_7::HandlerBase"*, align 8
  store %"class.xercesc_2_7::HandlerBase"* %this, %"class.xercesc_2_7::HandlerBase"** %this.addr, align 8
  call void @llvm.dbg.declare(metadata %"class.xercesc_2_7::HandlerBase"** %this.addr, metadata !568, metadata !DIExpression()), !dbg !569
  %this1 = load %"class.xercesc_2_7::HandlerBase"*, %"class.xercesc_2_7::HandlerBase"** %this.addr, align 8
  ret void, !dbg !570
}

; Function Attrs: noinline nounwind uwtable
define linkonce_odr dso_local void @_ZN11xercesc_2_711HandlerBase18unparsedEntityDeclEPKtS2_S2_S2_(%"class.xercesc_2_7::HandlerBase"* %this, i16* %0, i16* %1, i16* %2, i16* %3) unnamed_addr #1 comdat align 2 !dbg !571 {
entry:
  %this.addr = alloca %"class.xercesc_2_7::HandlerBase"*, align 8
  %.addr = alloca i16*, align 8
  %.addr1 = alloca i16*, align 8
  %.addr2 = alloca i16*, align 8
  %.addr3 = alloca i16*, align 8
  store %"class.xercesc_2_7::HandlerBase"* %this, %"class.xercesc_2_7::HandlerBase"** %this.addr, align 8
  call void @llvm.dbg.declare(metadata %"class.xercesc_2_7::HandlerBase"** %this.addr, metadata !572, metadata !DIExpression()), !dbg !573
  store i16* %0, i16** %.addr, align 8
  call void @llvm.dbg.declare(metadata i16** %.addr, metadata !574, metadata !DIExpression()), !dbg !575
  store i16* %1, i16** %.addr1, align 8
  call void @llvm.dbg.declare(metadata i16** %.addr1, metadata !576, metadata !DIExpression()), !dbg !577
  store i16* %2, i16** %.addr2, align 8
  call void @llvm.dbg.declare(metadata i16** %.addr2, metadata !578, metadata !DIExpression()), !dbg !579
  store i16* %3, i16** %.addr3, align 8
  call void @llvm.dbg.declare(metadata i16** %.addr3, metadata !580, metadata !DIExpression()), !dbg !581
  %this4 = load %"class.xercesc_2_7::HandlerBase"*, %"class.xercesc_2_7::HandlerBase"** %this.addr, align 8
  ret void, !dbg !582
}

; Function Attrs: noinline nounwind uwtable
define linkonce_odr dso_local void @_ZThn8_N11xercesc_2_711HandlerBaseD1Ev(%"class.xercesc_2_7::HandlerBase"* %this) unnamed_addr #1 comdat align 2 !dbg !583 {
entry:
  %this.addr = alloca %"class.xercesc_2_7::HandlerBase"*, align 8
  store %"class.xercesc_2_7::HandlerBase"* %this, %"class.xercesc_2_7::HandlerBase"** %this.addr, align 8
  %this1 = load %"class.xercesc_2_7::HandlerBase"*, %"class.xercesc_2_7::HandlerBase"** %this.addr, align 8, !dbg !584
  %0 = bitcast %"class.xercesc_2_7::HandlerBase"* %this1 to i8*, !dbg !584
  %1 = getelementptr inbounds i8, i8* %0, i64 -8, !dbg !584
  %2 = bitcast i8* %1 to %"class.xercesc_2_7::HandlerBase"*, !dbg !584
  tail call void @_ZN11xercesc_2_711HandlerBaseD2Ev(%"class.xercesc_2_7::HandlerBase"* %2) #6, !dbg !584
  ret void, !dbg !584
}

; Function Attrs: noinline nounwind uwtable
define linkonce_odr dso_local void @_ZThn8_N11xercesc_2_711HandlerBaseD0Ev(%"class.xercesc_2_7::HandlerBase"* %this) unnamed_addr #1 comdat align 2 !dbg !585 {
entry:
  %this.addr = alloca %"class.xercesc_2_7::HandlerBase"*, align 8
  store %"class.xercesc_2_7::HandlerBase"* %this, %"class.xercesc_2_7::HandlerBase"** %this.addr, align 8
  %this1 = load %"class.xercesc_2_7::HandlerBase"*, %"class.xercesc_2_7::HandlerBase"** %this.addr, align 8, !dbg !586
  %0 = bitcast %"class.xercesc_2_7::HandlerBase"* %this1 to i8*, !dbg !586
  %1 = getelementptr inbounds i8, i8* %0, i64 -8, !dbg !586
  %2 = bitcast i8* %1 to %"class.xercesc_2_7::HandlerBase"*, !dbg !586
  tail call void @_ZN11xercesc_2_711HandlerBaseD0Ev(%"class.xercesc_2_7::HandlerBase"* %2) #6, !dbg !586
  ret void, !dbg !586
}

; Function Attrs: noinline uwtable
define linkonce_odr dso_local void @_ZThn8_N11xercesc_2_711HandlerBase12notationDeclEPKtS2_S2_(%"class.xercesc_2_7::HandlerBase"* %this, i16* %0, i16* %1, i16* %2) unnamed_addr #3 comdat align 2 !dbg !587 {
entry:
  %this.addr = alloca %"class.xercesc_2_7::HandlerBase"*, align 8
  %.addr = alloca i16*, align 8
  %.addr1 = alloca i16*, align 8
  %.addr2 = alloca i16*, align 8
  store %"class.xercesc_2_7::HandlerBase"* %this, %"class.xercesc_2_7::HandlerBase"** %this.addr, align 8
  store i16* %0, i16** %.addr, align 8
  store i16* %1, i16** %.addr1, align 8
  store i16* %2, i16** %.addr2, align 8
  %this3 = load %"class.xercesc_2_7::HandlerBase"*, %"class.xercesc_2_7::HandlerBase"** %this.addr, align 8, !dbg !588
  %3 = bitcast %"class.xercesc_2_7::HandlerBase"* %this3 to i8*, !dbg !588
  %4 = getelementptr inbounds i8, i8* %3, i64 -8, !dbg !588
  %5 = bitcast i8* %4 to %"class.xercesc_2_7::HandlerBase"*, !dbg !588
  %6 = load i16*, i16** %.addr, align 8, !dbg !588
  %7 = load i16*, i16** %.addr1, align 8, !dbg !588
  %8 = load i16*, i16** %.addr2, align 8, !dbg !588
  tail call void @_ZN11xercesc_2_711HandlerBase12notationDeclEPKtS2_S2_(%"class.xercesc_2_7::HandlerBase"* %5, i16* %6, i16* %7, i16* %8), !dbg !588
  ret void, !dbg !588
}

; Function Attrs: noinline uwtable
define linkonce_odr dso_local void @_ZThn8_N11xercesc_2_711HandlerBase18unparsedEntityDeclEPKtS2_S2_S2_(%"class.xercesc_2_7::HandlerBase"* %this, i16* %0, i16* %1, i16* %2, i16* %3) unnamed_addr #3 comdat align 2 !dbg !589 {
entry:
  %this.addr = alloca %"class.xercesc_2_7::HandlerBase"*, align 8
  %.addr = alloca i16*, align 8
  %.addr1 = alloca i16*, align 8
  %.addr2 = alloca i16*, align 8
  %.addr3 = alloca i16*, align 8
  store %"class.xercesc_2_7::HandlerBase"* %this, %"class.xercesc_2_7::HandlerBase"** %this.addr, align 8
  store i16* %0, i16** %.addr, align 8
  store i16* %1, i16** %.addr1, align 8
  store i16* %2, i16** %.addr2, align 8
  store i16* %3, i16** %.addr3, align 8
  %this4 = load %"class.xercesc_2_7::HandlerBase"*, %"class.xercesc_2_7::HandlerBase"** %this.addr, align 8, !dbg !590
  %4 = bitcast %"class.xercesc_2_7::HandlerBase"* %this4 to i8*, !dbg !590
  %5 = getelementptr inbounds i8, i8* %4, i64 -8, !dbg !590
  %6 = bitcast i8* %5 to %"class.xercesc_2_7::HandlerBase"*, !dbg !590
  %7 = load i16*, i16** %.addr, align 8, !dbg !590
  %8 = load i16*, i16** %.addr1, align 8, !dbg !590
  %9 = load i16*, i16** %.addr2, align 8, !dbg !590
  %10 = load i16*, i16** %.addr3, align 8, !dbg !590
  tail call void @_ZN11xercesc_2_711HandlerBase18unparsedEntityDeclEPKtS2_S2_S2_(%"class.xercesc_2_7::HandlerBase"* %6, i16* %7, i16* %8, i16* %9, i16* %10), !dbg !590
  ret void, !dbg !590
}

; Function Attrs: noinline uwtable
define linkonce_odr dso_local void @_ZThn8_N11xercesc_2_711HandlerBase12resetDocTypeEv(%"class.xercesc_2_7::HandlerBase"* %this) unnamed_addr #3 comdat align 2 !dbg !591 {
entry:
  %this.addr = alloca %"class.xercesc_2_7::HandlerBase"*, align 8
  store %"class.xercesc_2_7::HandlerBase"* %this, %"class.xercesc_2_7::HandlerBase"** %this.addr, align 8
  %this1 = load %"class.xercesc_2_7::HandlerBase"*, %"class.xercesc_2_7::HandlerBase"** %this.addr, align 8, !dbg !592
  %0 = bitcast %"class.xercesc_2_7::HandlerBase"* %this1 to i8*, !dbg !592
  %1 = getelementptr inbounds i8, i8* %0, i64 -8, !dbg !592
  %2 = bitcast i8* %1 to %"class.xercesc_2_7::HandlerBase"*, !dbg !592
  tail call void @_ZN11xercesc_2_711HandlerBase12resetDocTypeEv(%"class.xercesc_2_7::HandlerBase"* %2), !dbg !592
  ret void, !dbg !592
}

; Function Attrs: noinline nounwind uwtable
define linkonce_odr dso_local void @_ZThn16_N11xercesc_2_711HandlerBaseD1Ev(%"class.xercesc_2_7::HandlerBase"* %this) unnamed_addr #1 comdat align 2 !dbg !593 {
entry:
  %this.addr = alloca %"class.xercesc_2_7::HandlerBase"*, align 8
  store %"class.xercesc_2_7::HandlerBase"* %this, %"class.xercesc_2_7::HandlerBase"** %this.addr, align 8
  %this1 = load %"class.xercesc_2_7::HandlerBase"*, %"class.xercesc_2_7::HandlerBase"** %this.addr, align 8, !dbg !594
  %0 = bitcast %"class.xercesc_2_7::HandlerBase"* %this1 to i8*, !dbg !594
  %1 = getelementptr inbounds i8, i8* %0, i64 -16, !dbg !594
  %2 = bitcast i8* %1 to %"class.xercesc_2_7::HandlerBase"*, !dbg !594
  tail call void @_ZN11xercesc_2_711HandlerBaseD2Ev(%"class.xercesc_2_7::HandlerBase"* %2) #6, !dbg !594
  ret void, !dbg !594
}

; Function Attrs: noinline nounwind uwtable
define linkonce_odr dso_local void @_ZThn16_N11xercesc_2_711HandlerBaseD0Ev(%"class.xercesc_2_7::HandlerBase"* %this) unnamed_addr #1 comdat align 2 !dbg !595 {
entry:
  %this.addr = alloca %"class.xercesc_2_7::HandlerBase"*, align 8
  store %"class.xercesc_2_7::HandlerBase"* %this, %"class.xercesc_2_7::HandlerBase"** %this.addr, align 8
  %this1 = load %"class.xercesc_2_7::HandlerBase"*, %"class.xercesc_2_7::HandlerBase"** %this.addr, align 8, !dbg !596
  %0 = bitcast %"class.xercesc_2_7::HandlerBase"* %this1 to i8*, !dbg !596
  %1 = getelementptr inbounds i8, i8* %0, i64 -16, !dbg !596
  %2 = bitcast i8* %1 to %"class.xercesc_2_7::HandlerBase"*, !dbg !596
  tail call void @_ZN11xercesc_2_711HandlerBaseD0Ev(%"class.xercesc_2_7::HandlerBase"* %2) #6, !dbg !596
  ret void, !dbg !596
}

; Function Attrs: noinline uwtable
define linkonce_odr dso_local void @_ZThn16_N11xercesc_2_711HandlerBase11endDocumentEv(%"class.xercesc_2_7::HandlerBase"* %this) unnamed_addr #3 comdat align 2 !dbg !597 {
entry:
  %this.addr = alloca %"class.xercesc_2_7::HandlerBase"*, align 8
  store %"class.xercesc_2_7::HandlerBase"* %this, %"class.xercesc_2_7::HandlerBase"** %this.addr, align 8
  %this1 = load %"class.xercesc_2_7::HandlerBase"*, %"class.xercesc_2_7::HandlerBase"** %this.addr, align 8, !dbg !598
  %0 = bitcast %"class.xercesc_2_7::HandlerBase"* %this1 to i8*, !dbg !598
  %1 = getelementptr inbounds i8, i8* %0, i64 -16, !dbg !598
  %2 = bitcast i8* %1 to %"class.xercesc_2_7::HandlerBase"*, !dbg !598
  tail call void @_ZN11xercesc_2_711HandlerBase11endDocumentEv(%"class.xercesc_2_7::HandlerBase"* %2), !dbg !598
  ret void, !dbg !598
}

; Function Attrs: noinline uwtable
define linkonce_odr dso_local void @_ZThn16_N11xercesc_2_711HandlerBase10endElementEPKt(%"class.xercesc_2_7::HandlerBase"* %this, i16* %0) unnamed_addr #3 comdat align 2 !dbg !599 {
entry:
  %this.addr = alloca %"class.xercesc_2_7::HandlerBase"*, align 8
  %.addr = alloca i16*, align 8
  store %"class.xercesc_2_7::HandlerBase"* %this, %"class.xercesc_2_7::HandlerBase"** %this.addr, align 8
  store i16* %0, i16** %.addr, align 8
  %this1 = load %"class.xercesc_2_7::HandlerBase"*, %"class.xercesc_2_7::HandlerBase"** %this.addr, align 8, !dbg !600
  %1 = bitcast %"class.xercesc_2_7::HandlerBase"* %this1 to i8*, !dbg !600
  %2 = getelementptr inbounds i8, i8* %1, i64 -16, !dbg !600
  %3 = bitcast i8* %2 to %"class.xercesc_2_7::HandlerBase"*, !dbg !600
  %4 = load i16*, i16** %.addr, align 8, !dbg !600
  tail call void @_ZN11xercesc_2_711HandlerBase10endElementEPKt(%"class.xercesc_2_7::HandlerBase"* %3, i16* %4), !dbg !600
  ret void, !dbg !600
}

; Function Attrs: noinline uwtable
define linkonce_odr dso_local void @_ZThn16_N11xercesc_2_711HandlerBase19ignorableWhitespaceEPKtj(%"class.xercesc_2_7::HandlerBase"* %this, i16* %0, i32 %1) unnamed_addr #3 comdat align 2 !dbg !601 {
entry:
  %this.addr = alloca %"class.xercesc_2_7::HandlerBase"*, align 8
  %.addr = alloca i16*, align 8
  %.addr1 = alloca i32, align 4
  store %"class.xercesc_2_7::HandlerBase"* %this, %"class.xercesc_2_7::HandlerBase"** %this.addr, align 8
  store i16* %0, i16** %.addr, align 8
  store i32 %1, i32* %.addr1, align 4
  %this2 = load %"class.xercesc_2_7::HandlerBase"*, %"class.xercesc_2_7::HandlerBase"** %this.addr, align 8, !dbg !602
  %2 = bitcast %"class.xercesc_2_7::HandlerBase"* %this2 to i8*, !dbg !602
  %3 = getelementptr inbounds i8, i8* %2, i64 -16, !dbg !602
  %4 = bitcast i8* %3 to %"class.xercesc_2_7::HandlerBase"*, !dbg !602
  %5 = load i16*, i16** %.addr, align 8, !dbg !602
  %6 = load i32, i32* %.addr1, align 4, !dbg !602
  tail call void @_ZN11xercesc_2_711HandlerBase19ignorableWhitespaceEPKtj(%"class.xercesc_2_7::HandlerBase"* %4, i16* %5, i32 %6), !dbg !602
  ret void, !dbg !602
}

; Function Attrs: noinline uwtable
define linkonce_odr dso_local void @_ZThn16_N11xercesc_2_711HandlerBase21processingInstructionEPKtS2_(%"class.xercesc_2_7::HandlerBase"* %this, i16* %0, i16* %1) unnamed_addr #3 comdat align 2 !dbg !603 {
entry:
  %this.addr = alloca %"class.xercesc_2_7::HandlerBase"*, align 8
  %.addr = alloca i16*, align 8
  %.addr1 = alloca i16*, align 8
  store %"class.xercesc_2_7::HandlerBase"* %this, %"class.xercesc_2_7::HandlerBase"** %this.addr, align 8
  store i16* %0, i16** %.addr, align 8
  store i16* %1, i16** %.addr1, align 8
  %this2 = load %"class.xercesc_2_7::HandlerBase"*, %"class.xercesc_2_7::HandlerBase"** %this.addr, align 8, !dbg !604
  %2 = bitcast %"class.xercesc_2_7::HandlerBase"* %this2 to i8*, !dbg !604
  %3 = getelementptr inbounds i8, i8* %2, i64 -16, !dbg !604
  %4 = bitcast i8* %3 to %"class.xercesc_2_7::HandlerBase"*, !dbg !604
  %5 = load i16*, i16** %.addr, align 8, !dbg !604
  %6 = load i16*, i16** %.addr1, align 8, !dbg !604
  tail call void @_ZN11xercesc_2_711HandlerBase21processingInstructionEPKtS2_(%"class.xercesc_2_7::HandlerBase"* %4, i16* %5, i16* %6), !dbg !604
  ret void, !dbg !604
}

; Function Attrs: noinline uwtable
define linkonce_odr dso_local void @_ZThn16_N11xercesc_2_711HandlerBase13resetDocumentEv(%"class.xercesc_2_7::HandlerBase"* %this) unnamed_addr #3 comdat align 2 !dbg !605 {
entry:
  %this.addr = alloca %"class.xercesc_2_7::HandlerBase"*, align 8
  store %"class.xercesc_2_7::HandlerBase"* %this, %"class.xercesc_2_7::HandlerBase"** %this.addr, align 8
  %this1 = load %"class.xercesc_2_7::HandlerBase"*, %"class.xercesc_2_7::HandlerBase"** %this.addr, align 8, !dbg !606
  %0 = bitcast %"class.xercesc_2_7::HandlerBase"* %this1 to i8*, !dbg !606
  %1 = getelementptr inbounds i8, i8* %0, i64 -16, !dbg !606
  %2 = bitcast i8* %1 to %"class.xercesc_2_7::HandlerBase"*, !dbg !606
  tail call void @_ZN11xercesc_2_711HandlerBase13resetDocumentEv(%"class.xercesc_2_7::HandlerBase"* %2), !dbg !606
  ret void, !dbg !606
}

; Function Attrs: noinline uwtable
define linkonce_odr dso_local void @_ZThn16_N11xercesc_2_711HandlerBase18setDocumentLocatorEPKNS_7LocatorE(%"class.xercesc_2_7::HandlerBase"* %this, %"class.xercesc_2_7::Locator"* %0) unnamed_addr #3 comdat align 2 !dbg !607 {
entry:
  %this.addr = alloca %"class.xercesc_2_7::HandlerBase"*, align 8
  %.addr = alloca %"class.xercesc_2_7::Locator"*, align 8
  store %"class.xercesc_2_7::HandlerBase"* %this, %"class.xercesc_2_7::HandlerBase"** %this.addr, align 8
  store %"class.xercesc_2_7::Locator"* %0, %"class.xercesc_2_7::Locator"** %.addr, align 8
  %this1 = load %"class.xercesc_2_7::HandlerBase"*, %"class.xercesc_2_7::HandlerBase"** %this.addr, align 8, !dbg !608
  %1 = bitcast %"class.xercesc_2_7::HandlerBase"* %this1 to i8*, !dbg !608
  %2 = getelementptr inbounds i8, i8* %1, i64 -16, !dbg !608
  %3 = bitcast i8* %2 to %"class.xercesc_2_7::HandlerBase"*, !dbg !608
  %4 = load %"class.xercesc_2_7::Locator"*, %"class.xercesc_2_7::Locator"** %.addr, align 8, !dbg !608
  tail call void @_ZN11xercesc_2_711HandlerBase18setDocumentLocatorEPKNS_7LocatorE(%"class.xercesc_2_7::HandlerBase"* %3, %"class.xercesc_2_7::Locator"* %4), !dbg !608
  ret void, !dbg !608
}

; Function Attrs: noinline uwtable
define linkonce_odr dso_local void @_ZThn16_N11xercesc_2_711HandlerBase13startDocumentEv(%"class.xercesc_2_7::HandlerBase"* %this) unnamed_addr #3 comdat align 2 !dbg !609 {
entry:
  %this.addr = alloca %"class.xercesc_2_7::HandlerBase"*, align 8
  store %"class.xercesc_2_7::HandlerBase"* %this, %"class.xercesc_2_7::HandlerBase"** %this.addr, align 8
  %this1 = load %"class.xercesc_2_7::HandlerBase"*, %"class.xercesc_2_7::HandlerBase"** %this.addr, align 8, !dbg !610
  %0 = bitcast %"class.xercesc_2_7::HandlerBase"* %this1 to i8*, !dbg !610
  %1 = getelementptr inbounds i8, i8* %0, i64 -16, !dbg !610
  %2 = bitcast i8* %1 to %"class.xercesc_2_7::HandlerBase"*, !dbg !610
  tail call void @_ZN11xercesc_2_711HandlerBase13startDocumentEv(%"class.xercesc_2_7::HandlerBase"* %2), !dbg !610
  ret void, !dbg !610
}

; Function Attrs: noinline uwtable
define linkonce_odr dso_local void @_ZThn16_N11xercesc_2_711HandlerBase12startElementEPKtRNS_13AttributeListE(%"class.xercesc_2_7::HandlerBase"* %this, i16* %0, %"class.xercesc_2_7::AttributeList"* dereferenceable(8) %1) unnamed_addr #3 comdat align 2 !dbg !611 {
entry:
  %this.addr = alloca %"class.xercesc_2_7::HandlerBase"*, align 8
  %.addr = alloca i16*, align 8
  %.addr1 = alloca %"class.xercesc_2_7::AttributeList"*, align 8
  store %"class.xercesc_2_7::HandlerBase"* %this, %"class.xercesc_2_7::HandlerBase"** %this.addr, align 8
  store i16* %0, i16** %.addr, align 8
  store %"class.xercesc_2_7::AttributeList"* %1, %"class.xercesc_2_7::AttributeList"** %.addr1, align 8
  %this2 = load %"class.xercesc_2_7::HandlerBase"*, %"class.xercesc_2_7::HandlerBase"** %this.addr, align 8, !dbg !612
  %2 = bitcast %"class.xercesc_2_7::HandlerBase"* %this2 to i8*, !dbg !612
  %3 = getelementptr inbounds i8, i8* %2, i64 -16, !dbg !612
  %4 = bitcast i8* %3 to %"class.xercesc_2_7::HandlerBase"*, !dbg !612
  %5 = load i16*, i16** %.addr, align 8, !dbg !612
  %6 = load %"class.xercesc_2_7::AttributeList"*, %"class.xercesc_2_7::AttributeList"** %.addr1, align 8, !dbg !612
  tail call void @_ZN11xercesc_2_711HandlerBase12startElementEPKtRNS_13AttributeListE(%"class.xercesc_2_7::HandlerBase"* %4, i16* %5, %"class.xercesc_2_7::AttributeList"* dereferenceable(8) %6), !dbg !612
  ret void, !dbg !612
}

; Function Attrs: noinline nounwind uwtable
define linkonce_odr dso_local void @_ZThn24_N11xercesc_2_711HandlerBaseD1Ev(%"class.xercesc_2_7::HandlerBase"* %this) unnamed_addr #1 comdat align 2 !dbg !613 {
entry:
  %this.addr = alloca %"class.xercesc_2_7::HandlerBase"*, align 8
  store %"class.xercesc_2_7::HandlerBase"* %this, %"class.xercesc_2_7::HandlerBase"** %this.addr, align 8
  %this1 = load %"class.xercesc_2_7::HandlerBase"*, %"class.xercesc_2_7::HandlerBase"** %this.addr, align 8, !dbg !614
  %0 = bitcast %"class.xercesc_2_7::HandlerBase"* %this1 to i8*, !dbg !614
  %1 = getelementptr inbounds i8, i8* %0, i64 -24, !dbg !614
  %2 = bitcast i8* %1 to %"class.xercesc_2_7::HandlerBase"*, !dbg !614
  tail call void @_ZN11xercesc_2_711HandlerBaseD2Ev(%"class.xercesc_2_7::HandlerBase"* %2) #6, !dbg !614
  ret void, !dbg !614
}

; Function Attrs: noinline nounwind uwtable
define linkonce_odr dso_local void @_ZThn24_N11xercesc_2_711HandlerBaseD0Ev(%"class.xercesc_2_7::HandlerBase"* %this) unnamed_addr #1 comdat align 2 !dbg !615 {
entry:
  %this.addr = alloca %"class.xercesc_2_7::HandlerBase"*, align 8
  store %"class.xercesc_2_7::HandlerBase"* %this, %"class.xercesc_2_7::HandlerBase"** %this.addr, align 8
  %this1 = load %"class.xercesc_2_7::HandlerBase"*, %"class.xercesc_2_7::HandlerBase"** %this.addr, align 8, !dbg !616
  %0 = bitcast %"class.xercesc_2_7::HandlerBase"* %this1 to i8*, !dbg !616
  %1 = getelementptr inbounds i8, i8* %0, i64 -24, !dbg !616
  %2 = bitcast i8* %1 to %"class.xercesc_2_7::HandlerBase"*, !dbg !616
  tail call void @_ZN11xercesc_2_711HandlerBaseD0Ev(%"class.xercesc_2_7::HandlerBase"* %2) #6, !dbg !616
  ret void, !dbg !616
}

; Function Attrs: noinline uwtable
define linkonce_odr dso_local void @_ZThn24_N11xercesc_2_711HandlerBase7warningERKNS_17SAXParseExceptionE(%"class.xercesc_2_7::HandlerBase"* %this, %"class.xercesc_2_7::SAXParseException"* dereferenceable(56) %0) unnamed_addr #3 comdat align 2 !dbg !617 {
entry:
  %this.addr = alloca %"class.xercesc_2_7::HandlerBase"*, align 8
  %.addr = alloca %"class.xercesc_2_7::SAXParseException"*, align 8
  store %"class.xercesc_2_7::HandlerBase"* %this, %"class.xercesc_2_7::HandlerBase"** %this.addr, align 8
  store %"class.xercesc_2_7::SAXParseException"* %0, %"class.xercesc_2_7::SAXParseException"** %.addr, align 8
  %this1 = load %"class.xercesc_2_7::HandlerBase"*, %"class.xercesc_2_7::HandlerBase"** %this.addr, align 8, !dbg !618
  %1 = bitcast %"class.xercesc_2_7::HandlerBase"* %this1 to i8*, !dbg !618
  %2 = getelementptr inbounds i8, i8* %1, i64 -24, !dbg !618
  %3 = bitcast i8* %2 to %"class.xercesc_2_7::HandlerBase"*, !dbg !618
  %4 = load %"class.xercesc_2_7::SAXParseException"*, %"class.xercesc_2_7::SAXParseException"** %.addr, align 8, !dbg !618
  tail call void @_ZN11xercesc_2_711HandlerBase7warningERKNS_17SAXParseExceptionE(%"class.xercesc_2_7::HandlerBase"* %3, %"class.xercesc_2_7::SAXParseException"* dereferenceable(56) %4), !dbg !618
  ret void, !dbg !618
}

; Function Attrs: noinline uwtable
define linkonce_odr dso_local void @_ZThn24_N11xercesc_2_711HandlerBase5errorERKNS_17SAXParseExceptionE(%"class.xercesc_2_7::HandlerBase"* %this, %"class.xercesc_2_7::SAXParseException"* dereferenceable(56) %0) unnamed_addr #3 comdat align 2 !dbg !619 {
entry:
  %this.addr = alloca %"class.xercesc_2_7::HandlerBase"*, align 8
  %.addr = alloca %"class.xercesc_2_7::SAXParseException"*, align 8
  store %"class.xercesc_2_7::HandlerBase"* %this, %"class.xercesc_2_7::HandlerBase"** %this.addr, align 8
  store %"class.xercesc_2_7::SAXParseException"* %0, %"class.xercesc_2_7::SAXParseException"** %.addr, align 8
  %this1 = load %"class.xercesc_2_7::HandlerBase"*, %"class.xercesc_2_7::HandlerBase"** %this.addr, align 8, !dbg !620
  %1 = bitcast %"class.xercesc_2_7::HandlerBase"* %this1 to i8*, !dbg !620
  %2 = getelementptr inbounds i8, i8* %1, i64 -24, !dbg !620
  %3 = bitcast i8* %2 to %"class.xercesc_2_7::HandlerBase"*, !dbg !620
  %4 = load %"class.xercesc_2_7::SAXParseException"*, %"class.xercesc_2_7::SAXParseException"** %.addr, align 8, !dbg !620
  tail call void @_ZN11xercesc_2_711HandlerBase5errorERKNS_17SAXParseExceptionE(%"class.xercesc_2_7::HandlerBase"* %3, %"class.xercesc_2_7::SAXParseException"* dereferenceable(56) %4), !dbg !620
  ret void, !dbg !620
}

; Function Attrs: noinline uwtable
define linkonce_odr dso_local void @_ZThn24_N11xercesc_2_711HandlerBase10fatalErrorERKNS_17SAXParseExceptionE(%"class.xercesc_2_7::HandlerBase"* %this, %"class.xercesc_2_7::SAXParseException"* dereferenceable(56) %exc) unnamed_addr #3 comdat align 2 !dbg !621 {
entry:
  %this.addr = alloca %"class.xercesc_2_7::HandlerBase"*, align 8
  %exc.addr = alloca %"class.xercesc_2_7::SAXParseException"*, align 8
  store %"class.xercesc_2_7::HandlerBase"* %this, %"class.xercesc_2_7::HandlerBase"** %this.addr, align 8
  store %"class.xercesc_2_7::SAXParseException"* %exc, %"class.xercesc_2_7::SAXParseException"** %exc.addr, align 8
  %this1 = load %"class.xercesc_2_7::HandlerBase"*, %"class.xercesc_2_7::HandlerBase"** %this.addr, align 8, !dbg !622
  %0 = bitcast %"class.xercesc_2_7::HandlerBase"* %this1 to i8*, !dbg !622
  %1 = getelementptr inbounds i8, i8* %0, i64 -24, !dbg !622
  %2 = bitcast i8* %1 to %"class.xercesc_2_7::HandlerBase"*, !dbg !622
  %3 = load %"class.xercesc_2_7::SAXParseException"*, %"class.xercesc_2_7::SAXParseException"** %exc.addr, align 8, !dbg !622
  tail call void @_ZN11xercesc_2_711HandlerBase10fatalErrorERKNS_17SAXParseExceptionE(%"class.xercesc_2_7::HandlerBase"* %2, %"class.xercesc_2_7::SAXParseException"* dereferenceable(56) %3), !dbg !622
  ret void, !dbg !622
}

; Function Attrs: noinline uwtable
define linkonce_odr dso_local void @_ZThn24_N11xercesc_2_711HandlerBase11resetErrorsEv(%"class.xercesc_2_7::HandlerBase"* %this) unnamed_addr #3 comdat align 2 !dbg !623 {
entry:
  %this.addr = alloca %"class.xercesc_2_7::HandlerBase"*, align 8
  store %"class.xercesc_2_7::HandlerBase"* %this, %"class.xercesc_2_7::HandlerBase"** %this.addr, align 8
  %this1 = load %"class.xercesc_2_7::HandlerBase"*, %"class.xercesc_2_7::HandlerBase"** %this.addr, align 8, !dbg !624
  %0 = bitcast %"class.xercesc_2_7::HandlerBase"* %this1 to i8*, !dbg !624
  %1 = getelementptr inbounds i8, i8* %0, i64 -24, !dbg !624
  %2 = bitcast i8* %1 to %"class.xercesc_2_7::HandlerBase"*, !dbg !624
  tail call void @_ZN11xercesc_2_711HandlerBase11resetErrorsEv(%"class.xercesc_2_7::HandlerBase"* %2), !dbg !624
  ret void, !dbg !624
}

; Function Attrs: noinline nounwind uwtable
define linkonce_odr dso_local void @_ZN11xercesc_2_712ErrorHandlerD2Ev(%"class.xercesc_2_7::ErrorHandler"* %this) unnamed_addr #1 comdat align 2 !dbg !625 {
entry:
  %this.addr = alloca %"class.xercesc_2_7::ErrorHandler"*, align 8
  store %"class.xercesc_2_7::ErrorHandler"* %this, %"class.xercesc_2_7::ErrorHandler"** %this.addr, align 8
  call void @llvm.dbg.declare(metadata %"class.xercesc_2_7::ErrorHandler"** %this.addr, metadata !630, metadata !DIExpression()), !dbg !632
  %this1 = load %"class.xercesc_2_7::ErrorHandler"*, %"class.xercesc_2_7::ErrorHandler"** %this.addr, align 8
  ret void, !dbg !633
}

; Function Attrs: noinline nounwind uwtable
define linkonce_odr dso_local void @_ZN11xercesc_2_715DocumentHandlerD2Ev(%"class.xercesc_2_7::DocumentHandler"* %this) unnamed_addr #1 comdat align 2 !dbg !634 {
entry:
  %this.addr = alloca %"class.xercesc_2_7::DocumentHandler"*, align 8
  store %"class.xercesc_2_7::DocumentHandler"* %this, %"class.xercesc_2_7::DocumentHandler"** %this.addr, align 8
  call void @llvm.dbg.declare(metadata %"class.xercesc_2_7::DocumentHandler"** %this.addr, metadata !639, metadata !DIExpression()), !dbg !641
  %this1 = load %"class.xercesc_2_7::DocumentHandler"*, %"class.xercesc_2_7::DocumentHandler"** %this.addr, align 8
  ret void, !dbg !642
}

; Function Attrs: noinline nounwind uwtable
define linkonce_odr dso_local void @_ZN11xercesc_2_710DTDHandlerD2Ev(%"class.xercesc_2_7::DTDHandler"* %this) unnamed_addr #1 comdat align 2 !dbg !643 {
entry:
  %this.addr = alloca %"class.xercesc_2_7::DTDHandler"*, align 8
  store %"class.xercesc_2_7::DTDHandler"* %this, %"class.xercesc_2_7::DTDHandler"** %this.addr, align 8
  call void @llvm.dbg.declare(metadata %"class.xercesc_2_7::DTDHandler"** %this.addr, metadata !648, metadata !DIExpression()), !dbg !650
  %this1 = load %"class.xercesc_2_7::DTDHandler"*, %"class.xercesc_2_7::DTDHandler"** %this.addr, align 8
  ret void, !dbg !651
}

; Function Attrs: noinline nounwind uwtable
define linkonce_odr dso_local void @_ZN11xercesc_2_714EntityResolverD2Ev(%"class.xercesc_2_7::EntityResolver"* %this) unnamed_addr #1 comdat align 2 !dbg !652 {
entry:
  %this.addr = alloca %"class.xercesc_2_7::EntityResolver"*, align 8
  store %"class.xercesc_2_7::EntityResolver"* %this, %"class.xercesc_2_7::EntityResolver"** %this.addr, align 8
  call void @llvm.dbg.declare(metadata %"class.xercesc_2_7::EntityResolver"** %this.addr, metadata !657, metadata !DIExpression()), !dbg !659
  %this1 = load %"class.xercesc_2_7::EntityResolver"*, %"class.xercesc_2_7::EntityResolver"** %this.addr, align 8
  ret void, !dbg !660
}

declare dso_local i8* @__cxa_allocate_exception(i64)

declare dso_local void @_ZN11xercesc_2_717SAXParseExceptionC1ERKS0_(%"class.xercesc_2_7::SAXParseException"*, %"class.xercesc_2_7::SAXParseException"* dereferenceable(56)) unnamed_addr #4

declare dso_local i32 @__gxx_personality_v0(...)

declare dso_local void @__cxa_free_exception(i8*)

; Function Attrs: nounwind
declare dso_local void @_ZN11xercesc_2_717SAXParseExceptionD1Ev(%"class.xercesc_2_7::SAXParseException"*) unnamed_addr #5

declare dso_local void @__cxa_throw(i8*, i8*, i8*)

attributes #0 = { nounwind readnone speculatable willreturn }
attributes #1 = { noinline nounwind uwtable "correctly-rounded-divide-sqrt-fp-math"="false" "disable-tail-calls"="false" "frame-pointer"="all" "less-precise-fpmad"="false" "min-legal-vector-width"="0" "no-infs-fp-math"="false" "no-jump-tables"="false" "no-nans-fp-math"="false" "no-signed-zeros-fp-math"="false" "no-trapping-math"="false" "stack-protector-buffer-size"="8" "target-cpu"="x86-64" "target-features"="+cx8,+fxsr,+mmx,+sse,+sse2,+x87" "unsafe-fp-math"="false" "use-soft-float"="false" }
attributes #2 = { nobuiltin nounwind "correctly-rounded-divide-sqrt-fp-math"="false" "disable-tail-calls"="false" "frame-pointer"="all" "less-precise-fpmad"="false" "no-infs-fp-math"="false" "no-nans-fp-math"="false" "no-signed-zeros-fp-math"="false" "no-trapping-math"="false" "stack-protector-buffer-size"="8" "target-cpu"="x86-64" "target-features"="+cx8,+fxsr,+mmx,+sse,+sse2,+x87" "unsafe-fp-math"="false" "use-soft-float"="false" }
attributes #3 = { noinline uwtable "correctly-rounded-divide-sqrt-fp-math"="false" "disable-tail-calls"="false" "frame-pointer"="all" "less-precise-fpmad"="false" "min-legal-vector-width"="0" "no-infs-fp-math"="false" "no-jump-tables"="false" "no-nans-fp-math"="false" "no-signed-zeros-fp-math"="false" "no-trapping-math"="false" "stack-protector-buffer-size"="8" "target-cpu"="x86-64" "target-features"="+cx8,+fxsr,+mmx,+sse,+sse2,+x87" "unsafe-fp-math"="false" "use-soft-float"="false" }
attributes #4 = { "correctly-rounded-divide-sqrt-fp-math"="false" "disable-tail-calls"="false" "frame-pointer"="all" "less-precise-fpmad"="false" "no-infs-fp-math"="false" "no-nans-fp-math"="false" "no-signed-zeros-fp-math"="false" "no-trapping-math"="false" "stack-protector-buffer-size"="8" "target-cpu"="x86-64" "target-features"="+cx8,+fxsr,+mmx,+sse,+sse2,+x87" "unsafe-fp-math"="false" "use-soft-float"="false" }
attributes #5 = { nounwind "correctly-rounded-divide-sqrt-fp-math"="false" "disable-tail-calls"="false" "frame-pointer"="all" "less-precise-fpmad"="false" "no-infs-fp-math"="false" "no-nans-fp-math"="false" "no-signed-zeros-fp-math"="false" "no-trapping-math"="false" "stack-protector-buffer-size"="8" "target-cpu"="x86-64" "target-features"="+cx8,+fxsr,+mmx,+sse,+sse2,+x87" "unsafe-fp-math"="false" "use-soft-float"="false" }
attributes #6 = { nounwind }
attributes #7 = { builtin nounwind }
attributes #8 = { noreturn }

!llvm.dbg.cu = !{!0}
!llvm.module.flags = !{!334, !335, !336}
!llvm.ident = !{!337}

!0 = distinct !DICompileUnit(language: DW_LANG_C_plus_plus_14, file: !1, producer: "clang version 10.0.1 (https://github.com/svkeerthy/IR2Vec-LoopOptimizationFramework.git 561ac470e63b728263a0ac06ef987886ac648486)", isOptimized: false, runtimeVersion: 0, emissionKind: FullDebug, enums: !2, imports: !3, splitDebugInlining: false, nameTableKind: None)
!1 = !DIFile(filename: "Dummy.cpp", directory: "/home/venkat/IF-DV/spec_build_release/CPU_2017/benchspec/CPU/523.xalancbmk_r/build/build_base_ld-loop-ext-m64.0000")
!2 = !{}
!3 = !{!4, !7, !15, !19, !26, !30, !35, !37, !45, !49, !53, !67, !71, !75, !79, !83, !88, !92, !96, !100, !104, !112, !116, !120, !122, !126, !130, !135, !141, !145, !149, !151, !159, !163, !171, !173, !177, !181, !185, !189, !194, !199, !204, !205, !206, !207, !209, !210, !211, !212, !213, !214, !215, !217, !218, !219, !220, !221, !222, !223, !228, !229, !230, !231, !232, !233, !234, !235, !236, !237, !238, !239, !240, !241, !242, !243, !244, !245, !246, !247, !248, !249, !250, !251, !252, !258, !262, !268, !272, !276, !280, !284, !286, !288, !292, !296, !300, !304, !308, !310, !312, !314, !318, !322, !326, !328, !330, !332}
!4 = !DIImportedEntity(tag: DW_TAG_imported_declaration, name: "xercesc", scope: !0, entity: !5, file: !6, line: 433)
!5 = !DINamespace(name: "xercesc_2_7", scope: null)
!6 = !DIFile(filename: "./xercesc/util/XercesDefs.hpp", directory: "/home/venkat/IF-DV/spec_build_release/CPU_2017/benchspec/CPU/523.xalancbmk_r/build/build_base_ld-loop-ext-m64.0000")
!7 = !DIImportedEntity(tag: DW_TAG_imported_declaration, scope: !8, entity: !9, file: !14, line: 52)
!8 = !DINamespace(name: "std", scope: null)
!9 = !DISubprogram(name: "abs", scope: !10, file: !10, line: 840, type: !11, flags: DIFlagPrototyped, spFlags: 0)
!10 = !DIFile(filename: "/usr/include/stdlib.h", directory: "")
!11 = !DISubroutineType(types: !12)
!12 = !{!13, !13}
!13 = !DIBasicType(name: "int", size: 32, encoding: DW_ATE_signed)
!14 = !DIFile(filename: "/usr/lib/gcc/x86_64-linux-gnu/10/../../../../include/c++/10/bits/std_abs.h", directory: "")
!15 = !DIImportedEntity(tag: DW_TAG_imported_declaration, scope: !8, entity: !16, file: !18, line: 127)
!16 = !DIDerivedType(tag: DW_TAG_typedef, name: "div_t", file: !10, line: 62, baseType: !17)
!17 = !DICompositeType(tag: DW_TAG_structure_type, file: !10, line: 58, flags: DIFlagFwdDecl, identifier: "_ZTS5div_t")
!18 = !DIFile(filename: "/usr/lib/gcc/x86_64-linux-gnu/10/../../../../include/c++/10/cstdlib", directory: "")
!19 = !DIImportedEntity(tag: DW_TAG_imported_declaration, scope: !8, entity: !20, file: !18, line: 128)
!20 = !DIDerivedType(tag: DW_TAG_typedef, name: "ldiv_t", file: !10, line: 70, baseType: !21)
!21 = distinct !DICompositeType(tag: DW_TAG_structure_type, file: !10, line: 66, size: 128, flags: DIFlagTypePassByValue, elements: !22, identifier: "_ZTS6ldiv_t")
!22 = !{!23, !25}
!23 = !DIDerivedType(tag: DW_TAG_member, name: "quot", scope: !21, file: !10, line: 68, baseType: !24, size: 64)
!24 = !DIBasicType(name: "long int", size: 64, encoding: DW_ATE_signed)
!25 = !DIDerivedType(tag: DW_TAG_member, name: "rem", scope: !21, file: !10, line: 69, baseType: !24, size: 64, offset: 64)
!26 = !DIImportedEntity(tag: DW_TAG_imported_declaration, scope: !8, entity: !27, file: !18, line: 130)
!27 = !DISubprogram(name: "abort", scope: !10, file: !10, line: 591, type: !28, flags: DIFlagPrototyped | DIFlagNoReturn, spFlags: 0)
!28 = !DISubroutineType(types: !29)
!29 = !{null}
!30 = !DIImportedEntity(tag: DW_TAG_imported_declaration, scope: !8, entity: !31, file: !18, line: 134)
!31 = !DISubprogram(name: "atexit", scope: !10, file: !10, line: 595, type: !32, flags: DIFlagPrototyped, spFlags: 0)
!32 = !DISubroutineType(types: !33)
!33 = !{!13, !34}
!34 = !DIDerivedType(tag: DW_TAG_pointer_type, baseType: !28, size: 64)
!35 = !DIImportedEntity(tag: DW_TAG_imported_declaration, scope: !8, entity: !36, file: !18, line: 137)
!36 = !DISubprogram(name: "at_quick_exit", scope: !10, file: !10, line: 600, type: !32, flags: DIFlagPrototyped, spFlags: 0)
!37 = !DIImportedEntity(tag: DW_TAG_imported_declaration, scope: !8, entity: !38, file: !18, line: 140)
!38 = !DISubprogram(name: "atof", scope: !10, file: !10, line: 101, type: !39, flags: DIFlagPrototyped, spFlags: 0)
!39 = !DISubroutineType(types: !40)
!40 = !{!41, !42}
!41 = !DIBasicType(name: "double", size: 64, encoding: DW_ATE_float)
!42 = !DIDerivedType(tag: DW_TAG_pointer_type, baseType: !43, size: 64)
!43 = !DIDerivedType(tag: DW_TAG_const_type, baseType: !44)
!44 = !DIBasicType(name: "char", size: 8, encoding: DW_ATE_signed_char)
!45 = !DIImportedEntity(tag: DW_TAG_imported_declaration, scope: !8, entity: !46, file: !18, line: 141)
!46 = !DISubprogram(name: "atoi", scope: !10, file: !10, line: 104, type: !47, flags: DIFlagPrototyped, spFlags: 0)
!47 = !DISubroutineType(types: !48)
!48 = !{!13, !42}
!49 = !DIImportedEntity(tag: DW_TAG_imported_declaration, scope: !8, entity: !50, file: !18, line: 142)
!50 = !DISubprogram(name: "atol", scope: !10, file: !10, line: 107, type: !51, flags: DIFlagPrototyped, spFlags: 0)
!51 = !DISubroutineType(types: !52)
!52 = !{!24, !42}
!53 = !DIImportedEntity(tag: DW_TAG_imported_declaration, scope: !8, entity: !54, file: !18, line: 143)
!54 = !DISubprogram(name: "bsearch", scope: !10, file: !10, line: 820, type: !55, flags: DIFlagPrototyped, spFlags: 0)
!55 = !DISubroutineType(types: !56)
!56 = !{!57, !58, !58, !60, !60, !63}
!57 = !DIDerivedType(tag: DW_TAG_pointer_type, baseType: null, size: 64)
!58 = !DIDerivedType(tag: DW_TAG_pointer_type, baseType: !59, size: 64)
!59 = !DIDerivedType(tag: DW_TAG_const_type, baseType: null)
!60 = !DIDerivedType(tag: DW_TAG_typedef, name: "size_t", file: !61, line: 46, baseType: !62)
!61 = !DIFile(filename: "Rohit/IR2Vec-LoopOptimizationFramework/build_REL_AsrtON/lib/clang/10.0.1/include/stddef.h", directory: "/home/venkat/IF-DV")
!62 = !DIBasicType(name: "long unsigned int", size: 64, encoding: DW_ATE_unsigned)
!63 = !DIDerivedType(tag: DW_TAG_typedef, name: "__compar_fn_t", file: !10, line: 808, baseType: !64)
!64 = !DIDerivedType(tag: DW_TAG_pointer_type, baseType: !65, size: 64)
!65 = !DISubroutineType(types: !66)
!66 = !{!13, !58, !58}
!67 = !DIImportedEntity(tag: DW_TAG_imported_declaration, scope: !8, entity: !68, file: !18, line: 144)
!68 = !DISubprogram(name: "calloc", scope: !10, file: !10, line: 542, type: !69, flags: DIFlagPrototyped, spFlags: 0)
!69 = !DISubroutineType(types: !70)
!70 = !{!57, !60, !60}
!71 = !DIImportedEntity(tag: DW_TAG_imported_declaration, scope: !8, entity: !72, file: !18, line: 145)
!72 = !DISubprogram(name: "div", scope: !10, file: !10, line: 852, type: !73, flags: DIFlagPrototyped, spFlags: 0)
!73 = !DISubroutineType(types: !74)
!74 = !{!16, !13, !13}
!75 = !DIImportedEntity(tag: DW_TAG_imported_declaration, scope: !8, entity: !76, file: !18, line: 146)
!76 = !DISubprogram(name: "exit", scope: !10, file: !10, line: 617, type: !77, flags: DIFlagPrototyped | DIFlagNoReturn, spFlags: 0)
!77 = !DISubroutineType(types: !78)
!78 = !{null, !13}
!79 = !DIImportedEntity(tag: DW_TAG_imported_declaration, scope: !8, entity: !80, file: !18, line: 147)
!80 = !DISubprogram(name: "free", scope: !10, file: !10, line: 565, type: !81, flags: DIFlagPrototyped, spFlags: 0)
!81 = !DISubroutineType(types: !82)
!82 = !{null, !57}
!83 = !DIImportedEntity(tag: DW_TAG_imported_declaration, scope: !8, entity: !84, file: !18, line: 148)
!84 = !DISubprogram(name: "getenv", scope: !10, file: !10, line: 634, type: !85, flags: DIFlagPrototyped, spFlags: 0)
!85 = !DISubroutineType(types: !86)
!86 = !{!87, !42}
!87 = !DIDerivedType(tag: DW_TAG_pointer_type, baseType: !44, size: 64)
!88 = !DIImportedEntity(tag: DW_TAG_imported_declaration, scope: !8, entity: !89, file: !18, line: 149)
!89 = !DISubprogram(name: "labs", scope: !10, file: !10, line: 841, type: !90, flags: DIFlagPrototyped, spFlags: 0)
!90 = !DISubroutineType(types: !91)
!91 = !{!24, !24}
!92 = !DIImportedEntity(tag: DW_TAG_imported_declaration, scope: !8, entity: !93, file: !18, line: 150)
!93 = !DISubprogram(name: "ldiv", scope: !10, file: !10, line: 854, type: !94, flags: DIFlagPrototyped, spFlags: 0)
!94 = !DISubroutineType(types: !95)
!95 = !{!20, !24, !24}
!96 = !DIImportedEntity(tag: DW_TAG_imported_declaration, scope: !8, entity: !97, file: !18, line: 151)
!97 = !DISubprogram(name: "malloc", scope: !10, file: !10, line: 539, type: !98, flags: DIFlagPrototyped, spFlags: 0)
!98 = !DISubroutineType(types: !99)
!99 = !{!57, !60}
!100 = !DIImportedEntity(tag: DW_TAG_imported_declaration, scope: !8, entity: !101, file: !18, line: 153)
!101 = !DISubprogram(name: "mblen", scope: !10, file: !10, line: 922, type: !102, flags: DIFlagPrototyped, spFlags: 0)
!102 = !DISubroutineType(types: !103)
!103 = !{!13, !42, !60}
!104 = !DIImportedEntity(tag: DW_TAG_imported_declaration, scope: !8, entity: !105, file: !18, line: 154)
!105 = !DISubprogram(name: "mbstowcs", scope: !10, file: !10, line: 933, type: !106, flags: DIFlagPrototyped, spFlags: 0)
!106 = !DISubroutineType(types: !107)
!107 = !{!60, !108, !111, !60}
!108 = !DIDerivedType(tag: DW_TAG_restrict_type, baseType: !109)
!109 = !DIDerivedType(tag: DW_TAG_pointer_type, baseType: !110, size: 64)
!110 = !DIBasicType(name: "wchar_t", size: 32, encoding: DW_ATE_signed)
!111 = !DIDerivedType(tag: DW_TAG_restrict_type, baseType: !42)
!112 = !DIImportedEntity(tag: DW_TAG_imported_declaration, scope: !8, entity: !113, file: !18, line: 155)
!113 = !DISubprogram(name: "mbtowc", scope: !10, file: !10, line: 925, type: !114, flags: DIFlagPrototyped, spFlags: 0)
!114 = !DISubroutineType(types: !115)
!115 = !{!13, !108, !111, !60}
!116 = !DIImportedEntity(tag: DW_TAG_imported_declaration, scope: !8, entity: !117, file: !18, line: 157)
!117 = !DISubprogram(name: "qsort", scope: !10, file: !10, line: 830, type: !118, flags: DIFlagPrototyped, spFlags: 0)
!118 = !DISubroutineType(types: !119)
!119 = !{null, !57, !60, !60, !63}
!120 = !DIImportedEntity(tag: DW_TAG_imported_declaration, scope: !8, entity: !121, file: !18, line: 160)
!121 = !DISubprogram(name: "quick_exit", scope: !10, file: !10, line: 623, type: !77, flags: DIFlagPrototyped | DIFlagNoReturn, spFlags: 0)
!122 = !DIImportedEntity(tag: DW_TAG_imported_declaration, scope: !8, entity: !123, file: !18, line: 163)
!123 = !DISubprogram(name: "rand", scope: !10, file: !10, line: 453, type: !124, flags: DIFlagPrototyped, spFlags: 0)
!124 = !DISubroutineType(types: !125)
!125 = !{!13}
!126 = !DIImportedEntity(tag: DW_TAG_imported_declaration, scope: !8, entity: !127, file: !18, line: 164)
!127 = !DISubprogram(name: "realloc", scope: !10, file: !10, line: 550, type: !128, flags: DIFlagPrototyped, spFlags: 0)
!128 = !DISubroutineType(types: !129)
!129 = !{!57, !57, !60}
!130 = !DIImportedEntity(tag: DW_TAG_imported_declaration, scope: !8, entity: !131, file: !18, line: 165)
!131 = !DISubprogram(name: "srand", scope: !10, file: !10, line: 455, type: !132, flags: DIFlagPrototyped, spFlags: 0)
!132 = !DISubroutineType(types: !133)
!133 = !{null, !134}
!134 = !DIBasicType(name: "unsigned int", size: 32, encoding: DW_ATE_unsigned)
!135 = !DIImportedEntity(tag: DW_TAG_imported_declaration, scope: !8, entity: !136, file: !18, line: 166)
!136 = !DISubprogram(name: "strtod", scope: !10, file: !10, line: 117, type: !137, flags: DIFlagPrototyped, spFlags: 0)
!137 = !DISubroutineType(types: !138)
!138 = !{!41, !111, !139}
!139 = !DIDerivedType(tag: DW_TAG_restrict_type, baseType: !140)
!140 = !DIDerivedType(tag: DW_TAG_pointer_type, baseType: !87, size: 64)
!141 = !DIImportedEntity(tag: DW_TAG_imported_declaration, scope: !8, entity: !142, file: !18, line: 167)
!142 = !DISubprogram(name: "strtol", scope: !10, file: !10, line: 176, type: !143, flags: DIFlagPrototyped, spFlags: 0)
!143 = !DISubroutineType(types: !144)
!144 = !{!24, !111, !139, !13}
!145 = !DIImportedEntity(tag: DW_TAG_imported_declaration, scope: !8, entity: !146, file: !18, line: 168)
!146 = !DISubprogram(name: "strtoul", scope: !10, file: !10, line: 180, type: !147, flags: DIFlagPrototyped, spFlags: 0)
!147 = !DISubroutineType(types: !148)
!148 = !{!62, !111, !139, !13}
!149 = !DIImportedEntity(tag: DW_TAG_imported_declaration, scope: !8, entity: !150, file: !18, line: 169)
!150 = !DISubprogram(name: "system", scope: !10, file: !10, line: 784, type: !47, flags: DIFlagPrototyped, spFlags: 0)
!151 = !DIImportedEntity(tag: DW_TAG_imported_declaration, scope: !8, entity: !152, file: !18, line: 171)
!152 = !DISubprogram(name: "wcstombs", scope: !10, file: !10, line: 936, type: !153, flags: DIFlagPrototyped, spFlags: 0)
!153 = !DISubroutineType(types: !154)
!154 = !{!60, !155, !156, !60}
!155 = !DIDerivedType(tag: DW_TAG_restrict_type, baseType: !87)
!156 = !DIDerivedType(tag: DW_TAG_restrict_type, baseType: !157)
!157 = !DIDerivedType(tag: DW_TAG_pointer_type, baseType: !158, size: 64)
!158 = !DIDerivedType(tag: DW_TAG_const_type, baseType: !110)
!159 = !DIImportedEntity(tag: DW_TAG_imported_declaration, scope: !8, entity: !160, file: !18, line: 172)
!160 = !DISubprogram(name: "wctomb", scope: !10, file: !10, line: 929, type: !161, flags: DIFlagPrototyped, spFlags: 0)
!161 = !DISubroutineType(types: !162)
!162 = !{!13, !87, !110}
!163 = !DIImportedEntity(tag: DW_TAG_imported_declaration, scope: !164, entity: !165, file: !18, line: 200)
!164 = !DINamespace(name: "__gnu_cxx", scope: null)
!165 = !DIDerivedType(tag: DW_TAG_typedef, name: "lldiv_t", file: !10, line: 80, baseType: !166)
!166 = distinct !DICompositeType(tag: DW_TAG_structure_type, file: !10, line: 76, size: 128, flags: DIFlagTypePassByValue, elements: !167, identifier: "_ZTS7lldiv_t")
!167 = !{!168, !170}
!168 = !DIDerivedType(tag: DW_TAG_member, name: "quot", scope: !166, file: !10, line: 78, baseType: !169, size: 64)
!169 = !DIBasicType(name: "long long int", size: 64, encoding: DW_ATE_signed)
!170 = !DIDerivedType(tag: DW_TAG_member, name: "rem", scope: !166, file: !10, line: 79, baseType: !169, size: 64, offset: 64)
!171 = !DIImportedEntity(tag: DW_TAG_imported_declaration, scope: !164, entity: !172, file: !18, line: 206)
!172 = !DISubprogram(name: "_Exit", scope: !10, file: !10, line: 629, type: !77, flags: DIFlagPrototyped | DIFlagNoReturn, spFlags: 0)
!173 = !DIImportedEntity(tag: DW_TAG_imported_declaration, scope: !164, entity: !174, file: !18, line: 210)
!174 = !DISubprogram(name: "llabs", scope: !10, file: !10, line: 844, type: !175, flags: DIFlagPrototyped, spFlags: 0)
!175 = !DISubroutineType(types: !176)
!176 = !{!169, !169}
!177 = !DIImportedEntity(tag: DW_TAG_imported_declaration, scope: !164, entity: !178, file: !18, line: 216)
!178 = !DISubprogram(name: "lldiv", scope: !10, file: !10, line: 858, type: !179, flags: DIFlagPrototyped, spFlags: 0)
!179 = !DISubroutineType(types: !180)
!180 = !{!165, !169, !169}
!181 = !DIImportedEntity(tag: DW_TAG_imported_declaration, scope: !164, entity: !182, file: !18, line: 227)
!182 = !DISubprogram(name: "atoll", scope: !10, file: !10, line: 112, type: !183, flags: DIFlagPrototyped, spFlags: 0)
!183 = !DISubroutineType(types: !184)
!184 = !{!169, !42}
!185 = !DIImportedEntity(tag: DW_TAG_imported_declaration, scope: !164, entity: !186, file: !18, line: 228)
!186 = !DISubprogram(name: "strtoll", scope: !10, file: !10, line: 200, type: !187, flags: DIFlagPrototyped, spFlags: 0)
!187 = !DISubroutineType(types: !188)
!188 = !{!169, !111, !139, !13}
!189 = !DIImportedEntity(tag: DW_TAG_imported_declaration, scope: !164, entity: !190, file: !18, line: 229)
!190 = !DISubprogram(name: "strtoull", scope: !10, file: !10, line: 205, type: !191, flags: DIFlagPrototyped, spFlags: 0)
!191 = !DISubroutineType(types: !192)
!192 = !{!193, !111, !139, !13}
!193 = !DIBasicType(name: "long long unsigned int", size: 64, encoding: DW_ATE_unsigned)
!194 = !DIImportedEntity(tag: DW_TAG_imported_declaration, scope: !164, entity: !195, file: !18, line: 231)
!195 = !DISubprogram(name: "strtof", scope: !10, file: !10, line: 123, type: !196, flags: DIFlagPrototyped, spFlags: 0)
!196 = !DISubroutineType(types: !197)
!197 = !{!198, !111, !139}
!198 = !DIBasicType(name: "float", size: 32, encoding: DW_ATE_float)
!199 = !DIImportedEntity(tag: DW_TAG_imported_declaration, scope: !164, entity: !200, file: !18, line: 232)
!200 = !DISubprogram(name: "strtold", scope: !10, file: !10, line: 126, type: !201, flags: DIFlagPrototyped, spFlags: 0)
!201 = !DISubroutineType(types: !202)
!202 = !{!203, !111, !139}
!203 = !DIBasicType(name: "long double", size: 128, encoding: DW_ATE_float)
!204 = !DIImportedEntity(tag: DW_TAG_imported_declaration, scope: !8, entity: !165, file: !18, line: 240)
!205 = !DIImportedEntity(tag: DW_TAG_imported_declaration, scope: !8, entity: !172, file: !18, line: 242)
!206 = !DIImportedEntity(tag: DW_TAG_imported_declaration, scope: !8, entity: !174, file: !18, line: 244)
!207 = !DIImportedEntity(tag: DW_TAG_imported_declaration, scope: !8, entity: !208, file: !18, line: 245)
!208 = !DISubprogram(name: "div", linkageName: "_ZN9__gnu_cxx3divExx", scope: !164, file: !18, line: 213, type: !179, flags: DIFlagPrototyped, spFlags: 0)
!209 = !DIImportedEntity(tag: DW_TAG_imported_declaration, scope: !8, entity: !178, file: !18, line: 246)
!210 = !DIImportedEntity(tag: DW_TAG_imported_declaration, scope: !8, entity: !182, file: !18, line: 248)
!211 = !DIImportedEntity(tag: DW_TAG_imported_declaration, scope: !8, entity: !195, file: !18, line: 249)
!212 = !DIImportedEntity(tag: DW_TAG_imported_declaration, scope: !8, entity: !186, file: !18, line: 250)
!213 = !DIImportedEntity(tag: DW_TAG_imported_declaration, scope: !8, entity: !190, file: !18, line: 251)
!214 = !DIImportedEntity(tag: DW_TAG_imported_declaration, scope: !8, entity: !200, file: !18, line: 252)
!215 = !DIImportedEntity(tag: DW_TAG_imported_declaration, scope: !0, entity: !27, file: !216, line: 38)
!216 = !DIFile(filename: "/usr/lib/gcc/x86_64-linux-gnu/10/../../../../include/c++/10/stdlib.h", directory: "")
!217 = !DIImportedEntity(tag: DW_TAG_imported_declaration, scope: !0, entity: !31, file: !216, line: 39)
!218 = !DIImportedEntity(tag: DW_TAG_imported_declaration, scope: !0, entity: !76, file: !216, line: 40)
!219 = !DIImportedEntity(tag: DW_TAG_imported_declaration, scope: !0, entity: !36, file: !216, line: 43)
!220 = !DIImportedEntity(tag: DW_TAG_imported_declaration, scope: !0, entity: !121, file: !216, line: 46)
!221 = !DIImportedEntity(tag: DW_TAG_imported_declaration, scope: !0, entity: !16, file: !216, line: 51)
!222 = !DIImportedEntity(tag: DW_TAG_imported_declaration, scope: !0, entity: !20, file: !216, line: 52)
!223 = !DIImportedEntity(tag: DW_TAG_imported_declaration, scope: !0, entity: !224, file: !216, line: 54)
!224 = !DISubprogram(name: "abs", linkageName: "_ZSt3absg", scope: !8, file: !14, line: 103, type: !225, flags: DIFlagPrototyped, spFlags: 0)
!225 = !DISubroutineType(types: !226)
!226 = !{!227, !227}
!227 = !DIBasicType(name: "__float128", size: 128, encoding: DW_ATE_float)
!228 = !DIImportedEntity(tag: DW_TAG_imported_declaration, scope: !0, entity: !38, file: !216, line: 55)
!229 = !DIImportedEntity(tag: DW_TAG_imported_declaration, scope: !0, entity: !46, file: !216, line: 56)
!230 = !DIImportedEntity(tag: DW_TAG_imported_declaration, scope: !0, entity: !50, file: !216, line: 57)
!231 = !DIImportedEntity(tag: DW_TAG_imported_declaration, scope: !0, entity: !54, file: !216, line: 58)
!232 = !DIImportedEntity(tag: DW_TAG_imported_declaration, scope: !0, entity: !68, file: !216, line: 59)
!233 = !DIImportedEntity(tag: DW_TAG_imported_declaration, scope: !0, entity: !208, file: !216, line: 60)
!234 = !DIImportedEntity(tag: DW_TAG_imported_declaration, scope: !0, entity: !80, file: !216, line: 61)
!235 = !DIImportedEntity(tag: DW_TAG_imported_declaration, scope: !0, entity: !84, file: !216, line: 62)
!236 = !DIImportedEntity(tag: DW_TAG_imported_declaration, scope: !0, entity: !89, file: !216, line: 63)
!237 = !DIImportedEntity(tag: DW_TAG_imported_declaration, scope: !0, entity: !93, file: !216, line: 64)
!238 = !DIImportedEntity(tag: DW_TAG_imported_declaration, scope: !0, entity: !97, file: !216, line: 65)
!239 = !DIImportedEntity(tag: DW_TAG_imported_declaration, scope: !0, entity: !101, file: !216, line: 67)
!240 = !DIImportedEntity(tag: DW_TAG_imported_declaration, scope: !0, entity: !105, file: !216, line: 68)
!241 = !DIImportedEntity(tag: DW_TAG_imported_declaration, scope: !0, entity: !113, file: !216, line: 69)
!242 = !DIImportedEntity(tag: DW_TAG_imported_declaration, scope: !0, entity: !117, file: !216, line: 71)
!243 = !DIImportedEntity(tag: DW_TAG_imported_declaration, scope: !0, entity: !123, file: !216, line: 72)
!244 = !DIImportedEntity(tag: DW_TAG_imported_declaration, scope: !0, entity: !127, file: !216, line: 73)
!245 = !DIImportedEntity(tag: DW_TAG_imported_declaration, scope: !0, entity: !131, file: !216, line: 74)
!246 = !DIImportedEntity(tag: DW_TAG_imported_declaration, scope: !0, entity: !136, file: !216, line: 75)
!247 = !DIImportedEntity(tag: DW_TAG_imported_declaration, scope: !0, entity: !142, file: !216, line: 76)
!248 = !DIImportedEntity(tag: DW_TAG_imported_declaration, scope: !0, entity: !146, file: !216, line: 77)
!249 = !DIImportedEntity(tag: DW_TAG_imported_declaration, scope: !0, entity: !150, file: !216, line: 78)
!250 = !DIImportedEntity(tag: DW_TAG_imported_declaration, scope: !0, entity: !152, file: !216, line: 80)
!251 = !DIImportedEntity(tag: DW_TAG_imported_declaration, scope: !0, entity: !160, file: !216, line: 81)
!252 = !DIImportedEntity(tag: DW_TAG_imported_declaration, scope: !8, entity: !253, file: !257, line: 77)
!253 = !DISubprogram(name: "memchr", scope: !254, file: !254, line: 73, type: !255, flags: DIFlagPrototyped, spFlags: 0)
!254 = !DIFile(filename: "/usr/include/string.h", directory: "")
!255 = !DISubroutineType(types: !256)
!256 = !{!58, !58, !13, !60}
!257 = !DIFile(filename: "/usr/lib/gcc/x86_64-linux-gnu/10/../../../../include/c++/10/cstring", directory: "")
!258 = !DIImportedEntity(tag: DW_TAG_imported_declaration, scope: !8, entity: !259, file: !257, line: 78)
!259 = !DISubprogram(name: "memcmp", scope: !254, file: !254, line: 64, type: !260, flags: DIFlagPrototyped, spFlags: 0)
!260 = !DISubroutineType(types: !261)
!261 = !{!13, !58, !58, !60}
!262 = !DIImportedEntity(tag: DW_TAG_imported_declaration, scope: !8, entity: !263, file: !257, line: 79)
!263 = !DISubprogram(name: "memcpy", scope: !254, file: !254, line: 43, type: !264, flags: DIFlagPrototyped, spFlags: 0)
!264 = !DISubroutineType(types: !265)
!265 = !{!57, !266, !267, !60}
!266 = !DIDerivedType(tag: DW_TAG_restrict_type, baseType: !57)
!267 = !DIDerivedType(tag: DW_TAG_restrict_type, baseType: !58)
!268 = !DIImportedEntity(tag: DW_TAG_imported_declaration, scope: !8, entity: !269, file: !257, line: 80)
!269 = !DISubprogram(name: "memmove", scope: !254, file: !254, line: 47, type: !270, flags: DIFlagPrototyped, spFlags: 0)
!270 = !DISubroutineType(types: !271)
!271 = !{!57, !57, !58, !60}
!272 = !DIImportedEntity(tag: DW_TAG_imported_declaration, scope: !8, entity: !273, file: !257, line: 81)
!273 = !DISubprogram(name: "memset", scope: !254, file: !254, line: 61, type: !274, flags: DIFlagPrototyped, spFlags: 0)
!274 = !DISubroutineType(types: !275)
!275 = !{!57, !57, !13, !60}
!276 = !DIImportedEntity(tag: DW_TAG_imported_declaration, scope: !8, entity: !277, file: !257, line: 82)
!277 = !DISubprogram(name: "strcat", scope: !254, file: !254, line: 130, type: !278, flags: DIFlagPrototyped, spFlags: 0)
!278 = !DISubroutineType(types: !279)
!279 = !{!87, !155, !111}
!280 = !DIImportedEntity(tag: DW_TAG_imported_declaration, scope: !8, entity: !281, file: !257, line: 83)
!281 = !DISubprogram(name: "strcmp", scope: !254, file: !254, line: 137, type: !282, flags: DIFlagPrototyped, spFlags: 0)
!282 = !DISubroutineType(types: !283)
!283 = !{!13, !42, !42}
!284 = !DIImportedEntity(tag: DW_TAG_imported_declaration, scope: !8, entity: !285, file: !257, line: 84)
!285 = !DISubprogram(name: "strcoll", scope: !254, file: !254, line: 144, type: !282, flags: DIFlagPrototyped, spFlags: 0)
!286 = !DIImportedEntity(tag: DW_TAG_imported_declaration, scope: !8, entity: !287, file: !257, line: 85)
!287 = !DISubprogram(name: "strcpy", scope: !254, file: !254, line: 122, type: !278, flags: DIFlagPrototyped, spFlags: 0)
!288 = !DIImportedEntity(tag: DW_TAG_imported_declaration, scope: !8, entity: !289, file: !257, line: 86)
!289 = !DISubprogram(name: "strcspn", scope: !254, file: !254, line: 273, type: !290, flags: DIFlagPrototyped, spFlags: 0)
!290 = !DISubroutineType(types: !291)
!291 = !{!60, !42, !42}
!292 = !DIImportedEntity(tag: DW_TAG_imported_declaration, scope: !8, entity: !293, file: !257, line: 87)
!293 = !DISubprogram(name: "strerror", scope: !254, file: !254, line: 397, type: !294, flags: DIFlagPrototyped, spFlags: 0)
!294 = !DISubroutineType(types: !295)
!295 = !{!87, !13}
!296 = !DIImportedEntity(tag: DW_TAG_imported_declaration, scope: !8, entity: !297, file: !257, line: 88)
!297 = !DISubprogram(name: "strlen", scope: !254, file: !254, line: 385, type: !298, flags: DIFlagPrototyped, spFlags: 0)
!298 = !DISubroutineType(types: !299)
!299 = !{!60, !42}
!300 = !DIImportedEntity(tag: DW_TAG_imported_declaration, scope: !8, entity: !301, file: !257, line: 89)
!301 = !DISubprogram(name: "strncat", scope: !254, file: !254, line: 133, type: !302, flags: DIFlagPrototyped, spFlags: 0)
!302 = !DISubroutineType(types: !303)
!303 = !{!87, !155, !111, !60}
!304 = !DIImportedEntity(tag: DW_TAG_imported_declaration, scope: !8, entity: !305, file: !257, line: 90)
!305 = !DISubprogram(name: "strncmp", scope: !254, file: !254, line: 140, type: !306, flags: DIFlagPrototyped, spFlags: 0)
!306 = !DISubroutineType(types: !307)
!307 = !{!13, !42, !42, !60}
!308 = !DIImportedEntity(tag: DW_TAG_imported_declaration, scope: !8, entity: !309, file: !257, line: 91)
!309 = !DISubprogram(name: "strncpy", scope: !254, file: !254, line: 125, type: !302, flags: DIFlagPrototyped, spFlags: 0)
!310 = !DIImportedEntity(tag: DW_TAG_imported_declaration, scope: !8, entity: !311, file: !257, line: 92)
!311 = !DISubprogram(name: "strspn", scope: !254, file: !254, line: 277, type: !290, flags: DIFlagPrototyped, spFlags: 0)
!312 = !DIImportedEntity(tag: DW_TAG_imported_declaration, scope: !8, entity: !313, file: !257, line: 93)
!313 = !DISubprogram(name: "strtok", scope: !254, file: !254, line: 336, type: !278, flags: DIFlagPrototyped, spFlags: 0)
!314 = !DIImportedEntity(tag: DW_TAG_imported_declaration, scope: !8, entity: !315, file: !257, line: 94)
!315 = !DISubprogram(name: "strxfrm", scope: !254, file: !254, line: 147, type: !316, flags: DIFlagPrototyped, spFlags: 0)
!316 = !DISubroutineType(types: !317)
!317 = !{!60, !155, !111, !60}
!318 = !DIImportedEntity(tag: DW_TAG_imported_declaration, scope: !8, entity: !319, file: !257, line: 95)
!319 = !DISubprogram(name: "strchr", scope: !254, file: !254, line: 208, type: !320, flags: DIFlagPrototyped, spFlags: 0)
!320 = !DISubroutineType(types: !321)
!321 = !{!42, !42, !13}
!322 = !DIImportedEntity(tag: DW_TAG_imported_declaration, scope: !8, entity: !323, file: !257, line: 96)
!323 = !DISubprogram(name: "strpbrk", scope: !254, file: !254, line: 285, type: !324, flags: DIFlagPrototyped, spFlags: 0)
!324 = !DISubroutineType(types: !325)
!325 = !{!42, !42, !42}
!326 = !DIImportedEntity(tag: DW_TAG_imported_declaration, scope: !8, entity: !327, file: !257, line: 97)
!327 = !DISubprogram(name: "strrchr", scope: !254, file: !254, line: 235, type: !320, flags: DIFlagPrototyped, spFlags: 0)
!328 = !DIImportedEntity(tag: DW_TAG_imported_declaration, scope: !8, entity: !329, file: !257, line: 98)
!329 = !DISubprogram(name: "strstr", scope: !254, file: !254, line: 312, type: !324, flags: DIFlagPrototyped, spFlags: 0)
!330 = !DIImportedEntity(tag: DW_TAG_imported_declaration, scope: !0, entity: !263, file: !331, line: 30)
!331 = !DIFile(filename: "./xercesc/framework/XMLBuffer.hpp", directory: "/home/venkat/IF-DV/spec_build_release/CPU_2017/benchspec/CPU/523.xalancbmk_r/build/build_base_ld-loop-ext-m64.0000")
!332 = !DIImportedEntity(tag: DW_TAG_imported_declaration, scope: !0, entity: !263, file: !333, line: 254)
!333 = !DIFile(filename: "./xercesc/util/XMLString.hpp", directory: "/home/venkat/IF-DV/spec_build_release/CPU_2017/benchspec/CPU/523.xalancbmk_r/build/build_base_ld-loop-ext-m64.0000")
!334 = !{i32 7, !"Dwarf Version", i32 4}
!335 = !{i32 2, !"Debug Info Version", i32 3}
!336 = !{i32 1, !"wchar_size", i32 4}
!337 = !{!"clang version 10.0.1 (https://github.com/svkeerthy/IR2Vec-LoopOptimizationFramework.git 561ac470e63b728263a0ac06ef987886ac648486)"}
!338 = distinct !DISubprogram(name: "~XMLDeleter", linkageName: "_ZN11xercesc_2_710XMLDeleterD0Ev", scope: !340, file: !339, line: 845, type: !346, scopeLine: 846, flags: DIFlagPrototyped, spFlags: DISPFlagDefinition, unit: !0, declaration: !345, retainedNodes: !2)
!339 = !DIFile(filename: "./xercesc/util/PlatformUtils.hpp", directory: "/home/venkat/IF-DV/spec_build_release/CPU_2017/benchspec/CPU/523.xalancbmk_r/build/build_base_ld-loop-ext-m64.0000")
!340 = distinct !DICompositeType(tag: DW_TAG_class_type, name: "XMLDeleter", scope: !5, file: !339, line: 42, size: 64, flags: DIFlagTypePassByReference | DIFlagNonTrivial, elements: !341, vtableHolder: !340, identifier: "_ZTSN11xercesc_2_710XMLDeleterE")
!341 = !{!342, !345, !349, !350, !355}
!342 = !DIDerivedType(tag: DW_TAG_member, name: "_vptr$XMLDeleter", scope: !339, file: !339, baseType: !343, size: 64, flags: DIFlagArtificial)
!343 = !DIDerivedType(tag: DW_TAG_pointer_type, baseType: !344, size: 64)
!344 = !DIDerivedType(tag: DW_TAG_pointer_type, name: "__vtbl_ptr_type", baseType: !124, size: 64)
!345 = !DISubprogram(name: "~XMLDeleter", scope: !340, file: !339, line: 45, type: !346, scopeLine: 45, containingType: !340, virtualIndex: 0, flags: DIFlagPublic | DIFlagPrototyped, spFlags: DISPFlagVirtual)
!346 = !DISubroutineType(types: !347)
!347 = !{null, !348}
!348 = !DIDerivedType(tag: DW_TAG_pointer_type, baseType: !340, size: 64, flags: DIFlagArtificial | DIFlagObjectPointer)
!349 = !DISubprogram(name: "XMLDeleter", scope: !340, file: !339, line: 48, type: !346, scopeLine: 48, flags: DIFlagProtected | DIFlagPrototyped, spFlags: 0)
!350 = !DISubprogram(name: "XMLDeleter", scope: !340, file: !339, line: 51, type: !351, scopeLine: 51, flags: DIFlagPrototyped, spFlags: 0)
!351 = !DISubroutineType(types: !352)
!352 = !{null, !348, !353}
!353 = !DIDerivedType(tag: DW_TAG_reference_type, baseType: !354, size: 64)
!354 = !DIDerivedType(tag: DW_TAG_const_type, baseType: !340)
!355 = !DISubprogram(name: "operator=", linkageName: "_ZN11xercesc_2_710XMLDeleteraSERKS0_", scope: !340, file: !339, line: 52, type: !356, scopeLine: 52, flags: DIFlagPrototyped, spFlags: 0)
!356 = !DISubroutineType(types: !357)
!357 = !{!358, !348, !353}
!358 = !DIDerivedType(tag: DW_TAG_reference_type, baseType: !340, size: 64)
!359 = !DILocalVariable(name: "this", arg: 1, scope: !338, type: !360, flags: DIFlagArtificial | DIFlagObjectPointer)
!360 = !DIDerivedType(tag: DW_TAG_pointer_type, baseType: !340, size: 64)
!361 = !DILocation(line: 0, scope: !338)
!362 = !DILocation(line: 846, column: 1, scope: !338)
!363 = !DILocation(line: 847, column: 1, scope: !338)
!364 = distinct !DISubprogram(name: "~XMLDeleter", linkageName: "_ZN11xercesc_2_710XMLDeleterD2Ev", scope: !340, file: !339, line: 845, type: !346, scopeLine: 846, flags: DIFlagPrototyped, spFlags: DISPFlagDefinition, unit: !0, declaration: !345, retainedNodes: !2)
!365 = !DILocalVariable(name: "this", arg: 1, scope: !364, type: !360, flags: DIFlagArtificial | DIFlagObjectPointer)
!366 = !DILocation(line: 0, scope: !364)
!367 = !DILocation(line: 847, column: 1, scope: !364)
!368 = distinct !DISubprogram(name: "characters", linkageName: "_ZN11xercesc_2_711HandlerBase10charactersEPKtj", scope: !370, file: !369, line: 379, type: !385, scopeLine: 381, flags: DIFlagPrototyped, spFlags: DISPFlagDefinition, unit: !0, declaration: !384, retainedNodes: !2)
!369 = !DIFile(filename: "./xercesc/sax/HandlerBase.hpp", directory: "/home/venkat/IF-DV/spec_build_release/CPU_2017/benchspec/CPU/523.xalancbmk_r/build/build_base_ld-loop-ext-m64.0000")
!370 = distinct !DICompositeType(tag: DW_TAG_class_type, name: "HandlerBase", scope: !5, file: !369, line: 56, size: 256, flags: DIFlagTypePassByReference | DIFlagNonTrivial, elements: !371, vtableHolder: !373, identifier: "_ZTSN11xercesc_2_711HandlerBaseE")
!371 = !{!372, !375, !378, !381, !384, !395, !398, !401, !402, !405, !406, !414, !415, !421, !427, !434, !435, !436, !437, !440, !441, !444, !445, !446, !451}
!372 = !DIDerivedType(tag: DW_TAG_inheritance, scope: !370, baseType: !373, flags: DIFlagPublic, extraData: i32 0)
!373 = !DICompositeType(tag: DW_TAG_class_type, name: "EntityResolver", scope: !5, file: !374, line: 86, flags: DIFlagFwdDecl, identifier: "_ZTSN11xercesc_2_714EntityResolverE")
!374 = !DIFile(filename: "./xercesc/sax/EntityResolver.hpp", directory: "/home/venkat/IF-DV/spec_build_release/CPU_2017/benchspec/CPU/523.xalancbmk_r/build/build_base_ld-loop-ext-m64.0000")
!375 = !DIDerivedType(tag: DW_TAG_inheritance, scope: !370, baseType: !376, offset: 64, flags: DIFlagPublic, extraData: i32 0)
!376 = !DICompositeType(tag: DW_TAG_class_type, name: "DTDHandler", scope: !5, file: !377, line: 59, flags: DIFlagFwdDecl, identifier: "_ZTSN11xercesc_2_710DTDHandlerE")
!377 = !DIFile(filename: "./xercesc/sax/DTDHandler.hpp", directory: "/home/venkat/IF-DV/spec_build_release/CPU_2017/benchspec/CPU/523.xalancbmk_r/build/build_base_ld-loop-ext-m64.0000")
!378 = !DIDerivedType(tag: DW_TAG_inheritance, scope: !370, baseType: !379, offset: 128, flags: DIFlagPublic, extraData: i32 0)
!379 = !DICompositeType(tag: DW_TAG_class_type, name: "DocumentHandler", scope: !5, file: !380, line: 60, flags: DIFlagFwdDecl, identifier: "_ZTSN11xercesc_2_715DocumentHandlerE")
!380 = !DIFile(filename: "./xercesc/sax/DocumentHandler.hpp", directory: "/home/venkat/IF-DV/spec_build_release/CPU_2017/benchspec/CPU/523.xalancbmk_r/build/build_base_ld-loop-ext-m64.0000")
!381 = !DIDerivedType(tag: DW_TAG_inheritance, scope: !370, baseType: !382, offset: 192, flags: DIFlagPublic, extraData: i32 0)
!382 = !DICompositeType(tag: DW_TAG_class_type, name: "ErrorHandler", scope: !5, file: !383, line: 60, flags: DIFlagFwdDecl, identifier: "_ZTSN11xercesc_2_712ErrorHandlerE")
!383 = !DIFile(filename: "./xercesc/sax/ErrorHandler.hpp", directory: "/home/venkat/IF-DV/spec_build_release/CPU_2017/benchspec/CPU/523.xalancbmk_r/build/build_base_ld-loop-ext-m64.0000")
!384 = !DISubprogram(name: "characters", linkageName: "_ZN11xercesc_2_711HandlerBase10charactersEPKtj", scope: !370, file: !369, line: 79, type: !385, scopeLine: 79, containingType: !370, virtualIndex: 3, flags: DIFlagPublic | DIFlagPrototyped, spFlags: DISPFlagVirtual)
!385 = !DISubroutineType(types: !386)
!386 = !{null, !387, !388, !394}
!387 = !DIDerivedType(tag: DW_TAG_pointer_type, baseType: !370, size: 64, flags: DIFlagArtificial | DIFlagObjectPointer)
!388 = !DIDerivedType(tag: DW_TAG_const_type, baseType: !389)
!389 = !DIDerivedType(tag: DW_TAG_pointer_type, baseType: !390, size: 64)
!390 = !DIDerivedType(tag: DW_TAG_const_type, baseType: !391)
!391 = !DIDerivedType(tag: DW_TAG_typedef, name: "XMLCh", file: !392, line: 67, baseType: !393)
!392 = !DIFile(filename: "./xercesc/util/Compilers/GCCDefs.hpp", directory: "/home/venkat/IF-DV/spec_build_release/CPU_2017/benchspec/CPU/523.xalancbmk_r/build/build_base_ld-loop-ext-m64.0000")
!393 = !DIBasicType(name: "unsigned short", size: 16, encoding: DW_ATE_unsigned)
!394 = !DIDerivedType(tag: DW_TAG_const_type, baseType: !134)
!395 = !DISubprogram(name: "endDocument", linkageName: "_ZN11xercesc_2_711HandlerBase11endDocumentEv", scope: !370, file: !369, line: 97, type: !396, scopeLine: 97, containingType: !370, virtualIndex: 4, flags: DIFlagPublic | DIFlagPrototyped, spFlags: DISPFlagVirtual)
!396 = !DISubroutineType(types: !397)
!397 = !{null, !387}
!398 = !DISubprogram(name: "endElement", linkageName: "_ZN11xercesc_2_711HandlerBase10endElementEPKt", scope: !370, file: !369, line: 112, type: !399, scopeLine: 112, containingType: !370, virtualIndex: 5, flags: DIFlagPublic | DIFlagPrototyped, spFlags: DISPFlagVirtual)
!399 = !DISubroutineType(types: !400)
!400 = !{null, !387, !388}
!401 = !DISubprogram(name: "ignorableWhitespace", linkageName: "_ZN11xercesc_2_711HandlerBase19ignorableWhitespaceEPKtj", scope: !370, file: !369, line: 129, type: !385, scopeLine: 129, containingType: !370, virtualIndex: 6, flags: DIFlagPublic | DIFlagPrototyped, spFlags: DISPFlagVirtual)
!402 = !DISubprogram(name: "processingInstruction", linkageName: "_ZN11xercesc_2_711HandlerBase21processingInstructionEPKtS2_", scope: !370, file: !369, line: 150, type: !403, scopeLine: 150, containingType: !370, virtualIndex: 7, flags: DIFlagPublic | DIFlagPrototyped, spFlags: DISPFlagVirtual)
!403 = !DISubroutineType(types: !404)
!404 = !{null, !387, !388, !388}
!405 = !DISubprogram(name: "resetDocument", linkageName: "_ZN11xercesc_2_711HandlerBase13resetDocumentEv", scope: !370, file: !369, line: 161, type: !396, scopeLine: 161, containingType: !370, virtualIndex: 8, flags: DIFlagPublic | DIFlagPrototyped, spFlags: DISPFlagVirtual)
!406 = !DISubprogram(name: "setDocumentLocator", linkageName: "_ZN11xercesc_2_711HandlerBase18setDocumentLocatorEPKNS_7LocatorE", scope: !370, file: !369, line: 178, type: !407, scopeLine: 178, containingType: !370, virtualIndex: 9, flags: DIFlagPublic | DIFlagPrototyped, spFlags: DISPFlagVirtual)
!407 = !DISubroutineType(types: !408)
!408 = !{null, !387, !409}
!409 = !DIDerivedType(tag: DW_TAG_const_type, baseType: !410)
!410 = !DIDerivedType(tag: DW_TAG_pointer_type, baseType: !411, size: 64)
!411 = !DIDerivedType(tag: DW_TAG_const_type, baseType: !412)
!412 = !DICompositeType(tag: DW_TAG_class_type, name: "Locator", scope: !5, file: !413, line: 54, flags: DIFlagFwdDecl, identifier: "_ZTSN11xercesc_2_77LocatorE")
!413 = !DIFile(filename: "./xercesc/sax/Locator.hpp", directory: "/home/venkat/IF-DV/spec_build_release/CPU_2017/benchspec/CPU/523.xalancbmk_r/build/build_base_ld-loop-ext-m64.0000")
!414 = !DISubprogram(name: "startDocument", linkageName: "_ZN11xercesc_2_711HandlerBase13startDocumentEv", scope: !370, file: !369, line: 192, type: !396, scopeLine: 192, containingType: !370, virtualIndex: 10, flags: DIFlagPublic | DIFlagPrototyped, spFlags: DISPFlagVirtual)
!415 = !DISubprogram(name: "startElement", linkageName: "_ZN11xercesc_2_711HandlerBase12startElementEPKtRNS_13AttributeListE", scope: !370, file: !369, line: 208, type: !416, scopeLine: 208, containingType: !370, virtualIndex: 11, flags: DIFlagPublic | DIFlagPrototyped, spFlags: DISPFlagVirtual)
!416 = !DISubroutineType(types: !417)
!417 = !{null, !387, !388, !418}
!418 = !DIDerivedType(tag: DW_TAG_reference_type, baseType: !419, size: 64)
!419 = !DICompositeType(tag: DW_TAG_class_type, name: "AttributeList", scope: !5, file: !420, line: 79, flags: DIFlagFwdDecl, identifier: "_ZTSN11xercesc_2_713AttributeListE")
!420 = !DIFile(filename: "./xercesc/sax/AttributeList.hpp", directory: "/home/venkat/IF-DV/spec_build_release/CPU_2017/benchspec/CPU/523.xalancbmk_r/build/build_base_ld-loop-ext-m64.0000")
!421 = !DISubprogram(name: "resolveEntity", linkageName: "_ZN11xercesc_2_711HandlerBase13resolveEntityEPKtS2_", scope: !370, file: !369, line: 240, type: !422, scopeLine: 240, containingType: !370, virtualIndex: 2, flags: DIFlagPublic | DIFlagPrototyped, spFlags: DISPFlagVirtual)
!422 = !DISubroutineType(types: !423)
!423 = !{!424, !387, !388, !388}
!424 = !DIDerivedType(tag: DW_TAG_pointer_type, baseType: !425, size: 64)
!425 = !DICompositeType(tag: DW_TAG_class_type, name: "InputSource", scope: !5, file: !426, line: 62, flags: DIFlagFwdDecl)
!426 = !DIFile(filename: "./xercesc/sax/InputSource.hpp", directory: "/home/venkat/IF-DV/spec_build_release/CPU_2017/benchspec/CPU/523.xalancbmk_r/build/build_base_ld-loop-ext-m64.0000")
!427 = !DISubprogram(name: "error", linkageName: "_ZN11xercesc_2_711HandlerBase5errorERKNS_17SAXParseExceptionE", scope: !370, file: !369, line: 264, type: !428, scopeLine: 264, containingType: !370, virtualIndex: 12, flags: DIFlagPublic | DIFlagPrototyped, spFlags: DISPFlagVirtual)
!428 = !DISubroutineType(types: !429)
!429 = !{null, !387, !430}
!430 = !DIDerivedType(tag: DW_TAG_reference_type, baseType: !431, size: 64)
!431 = !DIDerivedType(tag: DW_TAG_const_type, baseType: !432)
!432 = !DICompositeType(tag: DW_TAG_class_type, name: "SAXParseException", scope: !5, file: !433, line: 48, flags: DIFlagFwdDecl)
!433 = !DIFile(filename: "./xercesc/sax/SAXParseException.hpp", directory: "/home/venkat/IF-DV/spec_build_release/CPU_2017/benchspec/CPU/523.xalancbmk_r/build/build_base_ld-loop-ext-m64.0000")
!434 = !DISubprogram(name: "fatalError", linkageName: "_ZN11xercesc_2_711HandlerBase10fatalErrorERKNS_17SAXParseExceptionE", scope: !370, file: !369, line: 283, type: !428, scopeLine: 283, containingType: !370, virtualIndex: 13, flags: DIFlagPublic | DIFlagPrototyped, spFlags: DISPFlagVirtual)
!435 = !DISubprogram(name: "warning", linkageName: "_ZN11xercesc_2_711HandlerBase7warningERKNS_17SAXParseExceptionE", scope: !370, file: !369, line: 299, type: !428, scopeLine: 299, containingType: !370, virtualIndex: 14, flags: DIFlagPublic | DIFlagPrototyped, spFlags: DISPFlagVirtual)
!436 = !DISubprogram(name: "resetErrors", linkageName: "_ZN11xercesc_2_711HandlerBase11resetErrorsEv", scope: !370, file: !369, line: 306, type: !396, scopeLine: 306, containingType: !370, virtualIndex: 15, flags: DIFlagPublic | DIFlagPrototyped, spFlags: DISPFlagVirtual)
!437 = !DISubprogram(name: "notationDecl", linkageName: "_ZN11xercesc_2_711HandlerBase12notationDeclEPKtS2_S2_", scope: !370, file: !369, line: 327, type: !438, scopeLine: 327, containingType: !370, virtualIndex: 16, flags: DIFlagPublic | DIFlagPrototyped, spFlags: DISPFlagVirtual)
!438 = !DISubroutineType(types: !439)
!439 = !{null, !387, !388, !388, !388}
!440 = !DISubprogram(name: "resetDocType", linkageName: "_ZN11xercesc_2_711HandlerBase12resetDocTypeEv", scope: !370, file: !369, line: 339, type: !396, scopeLine: 339, containingType: !370, virtualIndex: 17, flags: DIFlagPublic | DIFlagPrototyped, spFlags: DISPFlagVirtual)
!441 = !DISubprogram(name: "unparsedEntityDecl", linkageName: "_ZN11xercesc_2_711HandlerBase18unparsedEntityDeclEPKtS2_S2_S2_", scope: !370, file: !369, line: 355, type: !442, scopeLine: 355, containingType: !370, virtualIndex: 18, flags: DIFlagPublic | DIFlagPrototyped, spFlags: DISPFlagVirtual)
!442 = !DISubroutineType(types: !443)
!443 = !{null, !387, !388, !388, !388, !388}
!444 = !DISubprogram(name: "HandlerBase", scope: !370, file: !369, line: 364, type: !396, scopeLine: 364, flags: DIFlagPublic | DIFlagPrototyped, spFlags: 0)
!445 = !DISubprogram(name: "~HandlerBase", scope: !370, file: !369, line: 365, type: !396, scopeLine: 365, containingType: !370, virtualIndex: 0, flags: DIFlagPublic | DIFlagPrototyped, spFlags: DISPFlagVirtual)
!446 = !DISubprogram(name: "HandlerBase", scope: !370, file: !369, line: 371, type: !447, scopeLine: 371, flags: DIFlagPrototyped, spFlags: 0)
!447 = !DISubroutineType(types: !448)
!448 = !{null, !387, !449}
!449 = !DIDerivedType(tag: DW_TAG_reference_type, baseType: !450, size: 64)
!450 = !DIDerivedType(tag: DW_TAG_const_type, baseType: !370)
!451 = !DISubprogram(name: "operator=", linkageName: "_ZN11xercesc_2_711HandlerBaseaSERKS0_", scope: !370, file: !369, line: 372, type: !452, scopeLine: 372, flags: DIFlagPrototyped, spFlags: 0)
!452 = !DISubroutineType(types: !453)
!453 = !{!454, !387, !449}
!454 = !DIDerivedType(tag: DW_TAG_reference_type, baseType: !370, size: 64)
!455 = !DILocalVariable(name: "this", arg: 1, scope: !368, type: !456, flags: DIFlagArtificial | DIFlagObjectPointer)
!456 = !DIDerivedType(tag: DW_TAG_pointer_type, baseType: !370, size: 64)
!457 = !DILocation(line: 0, scope: !368)
!458 = !DILocalVariable(arg: 2, scope: !368, file: !369, line: 380, type: !388)
!459 = !DILocation(line: 380, column: 37, scope: !368)
!460 = !DILocalVariable(arg: 3, scope: !368, file: !369, line: 380, type: !394)
!461 = !DILocation(line: 380, column: 57, scope: !368)
!462 = !DILocation(line: 382, column: 1, scope: !368)
!463 = distinct !DISubprogram(linkageName: "_ZThn16_N11xercesc_2_711HandlerBase10charactersEPKtj", scope: !369, file: !369, line: 379, type: !464, flags: DIFlagArtificial | DIFlagThunk, spFlags: DISPFlagDefinition, unit: !0, retainedNodes: !2)
!464 = !DISubroutineType(types: !2)
!465 = !DILocation(line: 0, scope: !463)
!466 = distinct !DISubprogram(name: "~HandlerBase", linkageName: "_ZN11xercesc_2_711HandlerBaseD2Ev", scope: !370, file: !369, line: 365, type: !396, scopeLine: 365, flags: DIFlagPrototyped, spFlags: DISPFlagDefinition, unit: !0, declaration: !445, retainedNodes: !2)
!467 = !DILocalVariable(name: "this", arg: 1, scope: !466, type: !456, flags: DIFlagArtificial | DIFlagObjectPointer)
!468 = !DILocation(line: 0, scope: !466)
!469 = !DILocation(line: 365, column: 29, scope: !470)
!470 = distinct !DILexicalBlock(scope: !466, file: !369, line: 365, column: 28)
!471 = !DILocation(line: 365, column: 29, scope: !466)
!472 = distinct !DISubprogram(name: "~HandlerBase", linkageName: "_ZN11xercesc_2_711HandlerBaseD0Ev", scope: !370, file: !369, line: 365, type: !396, scopeLine: 365, flags: DIFlagPrototyped, spFlags: DISPFlagDefinition, unit: !0, declaration: !445, retainedNodes: !2)
!473 = !DILocalVariable(name: "this", arg: 1, scope: !472, type: !456, flags: DIFlagArtificial | DIFlagObjectPointer)
!474 = !DILocation(line: 0, scope: !472)
!475 = !DILocation(line: 365, column: 28, scope: !472)
!476 = !DILocation(line: 365, column: 29, scope: !472)
!477 = distinct !DISubprogram(name: "resolveEntity", linkageName: "_ZN11xercesc_2_711HandlerBase13resolveEntityEPKtS2_", scope: !370, file: !369, line: 432, type: !422, scopeLine: 434, flags: DIFlagPrototyped, spFlags: DISPFlagDefinition, unit: !0, declaration: !421, retainedNodes: !2)
!478 = !DILocalVariable(name: "this", arg: 1, scope: !477, type: !456, flags: DIFlagArtificial | DIFlagObjectPointer)
!479 = !DILocation(line: 0, scope: !477)
!480 = !DILocalVariable(arg: 2, scope: !477, file: !369, line: 433, type: !388)
!481 = !DILocation(line: 433, column: 29, scope: !477)
!482 = !DILocalVariable(arg: 3, scope: !477, file: !369, line: 433, type: !388)
!483 = !DILocation(line: 433, column: 49, scope: !477)
!484 = !DILocation(line: 435, column: 5, scope: !477)
!485 = distinct !DISubprogram(name: "endDocument", linkageName: "_ZN11xercesc_2_711HandlerBase11endDocumentEv", scope: !370, file: !369, line: 384, type: !396, scopeLine: 385, flags: DIFlagPrototyped, spFlags: DISPFlagDefinition, unit: !0, declaration: !395, retainedNodes: !2)
!486 = !DILocalVariable(name: "this", arg: 1, scope: !485, type: !456, flags: DIFlagArtificial | DIFlagObjectPointer)
!487 = !DILocation(line: 0, scope: !485)
!488 = !DILocation(line: 386, column: 1, scope: !485)
!489 = distinct !DISubprogram(name: "endElement", linkageName: "_ZN11xercesc_2_711HandlerBase10endElementEPKt", scope: !370, file: !369, line: 388, type: !399, scopeLine: 389, flags: DIFlagPrototyped, spFlags: DISPFlagDefinition, unit: !0, declaration: !398, retainedNodes: !2)
!490 = !DILocalVariable(name: "this", arg: 1, scope: !489, type: !456, flags: DIFlagArtificial | DIFlagObjectPointer)
!491 = !DILocation(line: 0, scope: !489)
!492 = !DILocalVariable(arg: 2, scope: !489, file: !369, line: 388, type: !388)
!493 = !DILocation(line: 388, column: 55, scope: !489)
!494 = !DILocation(line: 390, column: 1, scope: !489)
!495 = distinct !DISubprogram(name: "ignorableWhitespace", linkageName: "_ZN11xercesc_2_711HandlerBase19ignorableWhitespaceEPKtj", scope: !370, file: !369, line: 402, type: !385, scopeLine: 404, flags: DIFlagPrototyped, spFlags: DISPFlagDefinition, unit: !0, declaration: !401, retainedNodes: !2)
!496 = !DILocalVariable(name: "this", arg: 1, scope: !495, type: !456, flags: DIFlagArtificial | DIFlagObjectPointer)
!497 = !DILocation(line: 0, scope: !495)
!498 = !DILocalVariable(arg: 2, scope: !495, file: !369, line: 403, type: !388)
!499 = !DILocation(line: 403, column: 37, scope: !495)
!500 = !DILocalVariable(arg: 3, scope: !495, file: !369, line: 403, type: !394)
!501 = !DILocation(line: 403, column: 57, scope: !495)
!502 = !DILocation(line: 405, column: 1, scope: !495)
!503 = distinct !DISubprogram(name: "processingInstruction", linkageName: "_ZN11xercesc_2_711HandlerBase21processingInstructionEPKtS2_", scope: !370, file: !369, line: 414, type: !403, scopeLine: 416, flags: DIFlagPrototyped, spFlags: DISPFlagDefinition, unit: !0, declaration: !402, retainedNodes: !2)
!504 = !DILocalVariable(name: "this", arg: 1, scope: !503, type: !456, flags: DIFlagArtificial | DIFlagObjectPointer)
!505 = !DILocation(line: 0, scope: !503)
!506 = !DILocalVariable(arg: 2, scope: !503, file: !369, line: 415, type: !388)
!507 = !DILocation(line: 415, column: 37, scope: !503)
!508 = !DILocalVariable(arg: 3, scope: !503, file: !369, line: 415, type: !388)
!509 = !DILocation(line: 415, column: 57, scope: !503)
!510 = !DILocation(line: 417, column: 1, scope: !503)
!511 = distinct !DISubprogram(name: "resetDocument", linkageName: "_ZN11xercesc_2_711HandlerBase13resetDocumentEv", scope: !370, file: !369, line: 423, type: !396, scopeLine: 424, flags: DIFlagPrototyped, spFlags: DISPFlagDefinition, unit: !0, declaration: !405, retainedNodes: !2)
!512 = !DILocalVariable(name: "this", arg: 1, scope: !511, type: !456, flags: DIFlagArtificial | DIFlagObjectPointer)
!513 = !DILocation(line: 0, scope: !511)
!514 = !DILocation(line: 425, column: 1, scope: !511)
!515 = distinct !DISubprogram(name: "setDocumentLocator", linkageName: "_ZN11xercesc_2_711HandlerBase18setDocumentLocatorEPKNS_7LocatorE", scope: !370, file: !369, line: 446, type: !407, scopeLine: 447, flags: DIFlagPrototyped, spFlags: DISPFlagDefinition, unit: !0, declaration: !406, retainedNodes: !2)
!516 = !DILocalVariable(name: "this", arg: 1, scope: !515, type: !456, flags: DIFlagArtificial | DIFlagObjectPointer)
!517 = !DILocation(line: 0, scope: !515)
!518 = !DILocalVariable(arg: 2, scope: !515, file: !369, line: 446, type: !409)
!519 = !DILocation(line: 446, column: 65, scope: !515)
!520 = !DILocation(line: 448, column: 1, scope: !515)
!521 = distinct !DISubprogram(name: "startDocument", linkageName: "_ZN11xercesc_2_711HandlerBase13startDocumentEv", scope: !370, file: !369, line: 450, type: !396, scopeLine: 451, flags: DIFlagPrototyped, spFlags: DISPFlagDefinition, unit: !0, declaration: !414, retainedNodes: !2)
!522 = !DILocalVariable(name: "this", arg: 1, scope: !521, type: !456, flags: DIFlagArtificial | DIFlagObjectPointer)
!523 = !DILocation(line: 0, scope: !521)
!524 = !DILocation(line: 452, column: 1, scope: !521)
!525 = distinct !DISubprogram(name: "startElement", linkageName: "_ZN11xercesc_2_711HandlerBase12startElementEPKtRNS_13AttributeListE", scope: !370, file: !369, line: 455, type: !416, scopeLine: 457, flags: DIFlagPrototyped, spFlags: DISPFlagDefinition, unit: !0, declaration: !415, retainedNodes: !2)
!526 = !DILocalVariable(name: "this", arg: 1, scope: !525, type: !456, flags: DIFlagArtificial | DIFlagObjectPointer)
!527 = !DILocation(line: 0, scope: !525)
!528 = !DILocalVariable(arg: 2, scope: !525, file: !369, line: 456, type: !388)
!529 = !DILocation(line: 456, column: 29, scope: !525)
!530 = !DILocalVariable(arg: 3, scope: !525, file: !369, line: 456, type: !418)
!531 = !DILocation(line: 456, column: 51, scope: !525)
!532 = !DILocation(line: 458, column: 1, scope: !525)
!533 = distinct !DISubprogram(name: "error", linkageName: "_ZN11xercesc_2_711HandlerBase5errorERKNS_17SAXParseExceptionE", scope: !370, file: !369, line: 392, type: !428, scopeLine: 393, flags: DIFlagPrototyped, spFlags: DISPFlagDefinition, unit: !0, declaration: !427, retainedNodes: !2)
!534 = !DILocalVariable(name: "this", arg: 1, scope: !533, type: !456, flags: DIFlagArtificial | DIFlagObjectPointer)
!535 = !DILocation(line: 0, scope: !533)
!536 = !DILocalVariable(arg: 2, scope: !533, file: !369, line: 392, type: !430)
!537 = !DILocation(line: 392, column: 56, scope: !533)
!538 = !DILocation(line: 394, column: 1, scope: !533)
!539 = distinct !DISubprogram(name: "fatalError", linkageName: "_ZN11xercesc_2_711HandlerBase10fatalErrorERKNS_17SAXParseExceptionE", scope: !370, file: !369, line: 396, type: !428, scopeLine: 397, flags: DIFlagPrototyped, spFlags: DISPFlagDefinition, unit: !0, declaration: !434, retainedNodes: !2)
!540 = !DILocalVariable(name: "this", arg: 1, scope: !539, type: !456, flags: DIFlagArtificial | DIFlagObjectPointer)
!541 = !DILocation(line: 0, scope: !539)
!542 = !DILocalVariable(name: "exc", arg: 2, scope: !539, file: !369, line: 396, type: !430)
!543 = !DILocation(line: 396, column: 62, scope: !539)
!544 = !DILocation(line: 398, column: 5, scope: !539)
!545 = !DILocation(line: 398, column: 11, scope: !539)
!546 = !DILocation(line: 399, column: 1, scope: !539)
!547 = distinct !DISubprogram(name: "warning", linkageName: "_ZN11xercesc_2_711HandlerBase7warningERKNS_17SAXParseExceptionE", scope: !370, file: !369, line: 460, type: !428, scopeLine: 461, flags: DIFlagPrototyped, spFlags: DISPFlagDefinition, unit: !0, declaration: !435, retainedNodes: !2)
!548 = !DILocalVariable(name: "this", arg: 1, scope: !547, type: !456, flags: DIFlagArtificial | DIFlagObjectPointer)
!549 = !DILocation(line: 0, scope: !547)
!550 = !DILocalVariable(arg: 2, scope: !547, file: !369, line: 460, type: !430)
!551 = !DILocation(line: 460, column: 58, scope: !547)
!552 = !DILocation(line: 462, column: 1, scope: !547)
!553 = distinct !DISubprogram(name: "resetErrors", linkageName: "_ZN11xercesc_2_711HandlerBase11resetErrorsEv", scope: !370, file: !369, line: 419, type: !396, scopeLine: 420, flags: DIFlagPrototyped, spFlags: DISPFlagDefinition, unit: !0, declaration: !436, retainedNodes: !2)
!554 = !DILocalVariable(name: "this", arg: 1, scope: !553, type: !456, flags: DIFlagArtificial | DIFlagObjectPointer)
!555 = !DILocation(line: 0, scope: !553)
!556 = !DILocation(line: 421, column: 1, scope: !553)
!557 = distinct !DISubprogram(name: "notationDecl", linkageName: "_ZN11xercesc_2_711HandlerBase12notationDeclEPKtS2_S2_", scope: !370, file: !369, line: 407, type: !438, scopeLine: 410, flags: DIFlagPrototyped, spFlags: DISPFlagDefinition, unit: !0, declaration: !437, retainedNodes: !2)
!558 = !DILocalVariable(name: "this", arg: 1, scope: !557, type: !456, flags: DIFlagArtificial | DIFlagObjectPointer)
!559 = !DILocation(line: 0, scope: !557)
!560 = !DILocalVariable(arg: 2, scope: !557, file: !369, line: 408, type: !388)
!561 = !DILocation(line: 408, column: 41, scope: !557)
!562 = !DILocalVariable(arg: 3, scope: !557, file: !369, line: 409, type: !388)
!563 = !DILocation(line: 409, column: 41, scope: !557)
!564 = !DILocalVariable(arg: 4, scope: !557, file: !369, line: 409, type: !388)
!565 = !DILocation(line: 409, column: 61, scope: !557)
!566 = !DILocation(line: 411, column: 1, scope: !557)
!567 = distinct !DISubprogram(name: "resetDocType", linkageName: "_ZN11xercesc_2_711HandlerBase12resetDocTypeEv", scope: !370, file: !369, line: 427, type: !396, scopeLine: 428, flags: DIFlagPrototyped, spFlags: DISPFlagDefinition, unit: !0, declaration: !440, retainedNodes: !2)
!568 = !DILocalVariable(name: "this", arg: 1, scope: !567, type: !456, flags: DIFlagArtificial | DIFlagObjectPointer)
!569 = !DILocation(line: 0, scope: !567)
!570 = !DILocation(line: 429, column: 1, scope: !567)
!571 = distinct !DISubprogram(name: "unparsedEntityDecl", linkageName: "_ZN11xercesc_2_711HandlerBase18unparsedEntityDeclEPKtS2_S2_S2_", scope: !370, file: !369, line: 439, type: !442, scopeLine: 443, flags: DIFlagPrototyped, spFlags: DISPFlagDefinition, unit: !0, declaration: !441, retainedNodes: !2)
!572 = !DILocalVariable(name: "this", arg: 1, scope: !571, type: !456, flags: DIFlagArtificial | DIFlagObjectPointer)
!573 = !DILocation(line: 0, scope: !571)
!574 = !DILocalVariable(arg: 2, scope: !571, file: !369, line: 440, type: !388)
!575 = !DILocation(line: 440, column: 33, scope: !571)
!576 = !DILocalVariable(arg: 3, scope: !571, file: !369, line: 441, type: !388)
!577 = !DILocation(line: 441, column: 33, scope: !571)
!578 = !DILocalVariable(arg: 4, scope: !571, file: !369, line: 442, type: !388)
!579 = !DILocation(line: 442, column: 33, scope: !571)
!580 = !DILocalVariable(arg: 5, scope: !571, file: !369, line: 442, type: !388)
!581 = !DILocation(line: 442, column: 53, scope: !571)
!582 = !DILocation(line: 444, column: 1, scope: !571)
!583 = distinct !DISubprogram(linkageName: "_ZThn8_N11xercesc_2_711HandlerBaseD1Ev", scope: !369, file: !369, line: 365, type: !464, flags: DIFlagArtificial | DIFlagThunk, spFlags: DISPFlagDefinition, unit: !0, retainedNodes: !2)
!584 = !DILocation(line: 0, scope: !583)
!585 = distinct !DISubprogram(linkageName: "_ZThn8_N11xercesc_2_711HandlerBaseD0Ev", scope: !369, file: !369, line: 365, type: !464, flags: DIFlagArtificial | DIFlagThunk, spFlags: DISPFlagDefinition, unit: !0, retainedNodes: !2)
!586 = !DILocation(line: 0, scope: !585)
!587 = distinct !DISubprogram(linkageName: "_ZThn8_N11xercesc_2_711HandlerBase12notationDeclEPKtS2_S2_", scope: !369, file: !369, line: 407, type: !464, flags: DIFlagArtificial | DIFlagThunk, spFlags: DISPFlagDefinition, unit: !0, retainedNodes: !2)
!588 = !DILocation(line: 0, scope: !587)
!589 = distinct !DISubprogram(linkageName: "_ZThn8_N11xercesc_2_711HandlerBase18unparsedEntityDeclEPKtS2_S2_S2_", scope: !369, file: !369, line: 439, type: !464, flags: DIFlagArtificial | DIFlagThunk, spFlags: DISPFlagDefinition, unit: !0, retainedNodes: !2)
!590 = !DILocation(line: 0, scope: !589)
!591 = distinct !DISubprogram(linkageName: "_ZThn8_N11xercesc_2_711HandlerBase12resetDocTypeEv", scope: !369, file: !369, line: 427, type: !464, flags: DIFlagArtificial | DIFlagThunk, spFlags: DISPFlagDefinition, unit: !0, retainedNodes: !2)
!592 = !DILocation(line: 0, scope: !591)
!593 = distinct !DISubprogram(linkageName: "_ZThn16_N11xercesc_2_711HandlerBaseD1Ev", scope: !369, file: !369, line: 365, type: !464, flags: DIFlagArtificial | DIFlagThunk, spFlags: DISPFlagDefinition, unit: !0, retainedNodes: !2)
!594 = !DILocation(line: 0, scope: !593)
!595 = distinct !DISubprogram(linkageName: "_ZThn16_N11xercesc_2_711HandlerBaseD0Ev", scope: !369, file: !369, line: 365, type: !464, flags: DIFlagArtificial | DIFlagThunk, spFlags: DISPFlagDefinition, unit: !0, retainedNodes: !2)
!596 = !DILocation(line: 0, scope: !595)
!597 = distinct !DISubprogram(linkageName: "_ZThn16_N11xercesc_2_711HandlerBase11endDocumentEv", scope: !369, file: !369, line: 384, type: !464, flags: DIFlagArtificial | DIFlagThunk, spFlags: DISPFlagDefinition, unit: !0, retainedNodes: !2)
!598 = !DILocation(line: 0, scope: !597)
!599 = distinct !DISubprogram(linkageName: "_ZThn16_N11xercesc_2_711HandlerBase10endElementEPKt", scope: !369, file: !369, line: 388, type: !464, flags: DIFlagArtificial | DIFlagThunk, spFlags: DISPFlagDefinition, unit: !0, retainedNodes: !2)
!600 = !DILocation(line: 0, scope: !599)
!601 = distinct !DISubprogram(linkageName: "_ZThn16_N11xercesc_2_711HandlerBase19ignorableWhitespaceEPKtj", scope: !369, file: !369, line: 402, type: !464, flags: DIFlagArtificial | DIFlagThunk, spFlags: DISPFlagDefinition, unit: !0, retainedNodes: !2)
!602 = !DILocation(line: 0, scope: !601)
!603 = distinct !DISubprogram(linkageName: "_ZThn16_N11xercesc_2_711HandlerBase21processingInstructionEPKtS2_", scope: !369, file: !369, line: 414, type: !464, flags: DIFlagArtificial | DIFlagThunk, spFlags: DISPFlagDefinition, unit: !0, retainedNodes: !2)
!604 = !DILocation(line: 0, scope: !603)
!605 = distinct !DISubprogram(linkageName: "_ZThn16_N11xercesc_2_711HandlerBase13resetDocumentEv", scope: !369, file: !369, line: 423, type: !464, flags: DIFlagArtificial | DIFlagThunk, spFlags: DISPFlagDefinition, unit: !0, retainedNodes: !2)
!606 = !DILocation(line: 0, scope: !605)
!607 = distinct !DISubprogram(linkageName: "_ZThn16_N11xercesc_2_711HandlerBase18setDocumentLocatorEPKNS_7LocatorE", scope: !369, file: !369, line: 446, type: !464, flags: DIFlagArtificial | DIFlagThunk, spFlags: DISPFlagDefinition, unit: !0, retainedNodes: !2)
!608 = !DILocation(line: 0, scope: !607)
!609 = distinct !DISubprogram(linkageName: "_ZThn16_N11xercesc_2_711HandlerBase13startDocumentEv", scope: !369, file: !369, line: 450, type: !464, flags: DIFlagArtificial | DIFlagThunk, spFlags: DISPFlagDefinition, unit: !0, retainedNodes: !2)
!610 = !DILocation(line: 0, scope: !609)
!611 = distinct !DISubprogram(linkageName: "_ZThn16_N11xercesc_2_711HandlerBase12startElementEPKtRNS_13AttributeListE", scope: !369, file: !369, line: 455, type: !464, flags: DIFlagArtificial | DIFlagThunk, spFlags: DISPFlagDefinition, unit: !0, retainedNodes: !2)
!612 = !DILocation(line: 0, scope: !611)
!613 = distinct !DISubprogram(linkageName: "_ZThn24_N11xercesc_2_711HandlerBaseD1Ev", scope: !369, file: !369, line: 365, type: !464, flags: DIFlagArtificial | DIFlagThunk, spFlags: DISPFlagDefinition, unit: !0, retainedNodes: !2)
!614 = !DILocation(line: 0, scope: !613)
!615 = distinct !DISubprogram(linkageName: "_ZThn24_N11xercesc_2_711HandlerBaseD0Ev", scope: !369, file: !369, line: 365, type: !464, flags: DIFlagArtificial | DIFlagThunk, spFlags: DISPFlagDefinition, unit: !0, retainedNodes: !2)
!616 = !DILocation(line: 0, scope: !615)
!617 = distinct !DISubprogram(linkageName: "_ZThn24_N11xercesc_2_711HandlerBase7warningERKNS_17SAXParseExceptionE", scope: !369, file: !369, line: 460, type: !464, flags: DIFlagArtificial | DIFlagThunk, spFlags: DISPFlagDefinition, unit: !0, retainedNodes: !2)
!618 = !DILocation(line: 0, scope: !617)
!619 = distinct !DISubprogram(linkageName: "_ZThn24_N11xercesc_2_711HandlerBase5errorERKNS_17SAXParseExceptionE", scope: !369, file: !369, line: 392, type: !464, flags: DIFlagArtificial | DIFlagThunk, spFlags: DISPFlagDefinition, unit: !0, retainedNodes: !2)
!620 = !DILocation(line: 0, scope: !619)
!621 = distinct !DISubprogram(linkageName: "_ZThn24_N11xercesc_2_711HandlerBase10fatalErrorERKNS_17SAXParseExceptionE", scope: !369, file: !369, line: 396, type: !464, flags: DIFlagArtificial | DIFlagThunk, spFlags: DISPFlagDefinition, unit: !0, retainedNodes: !2)
!622 = !DILocation(line: 0, scope: !621)
!623 = distinct !DISubprogram(linkageName: "_ZThn24_N11xercesc_2_711HandlerBase11resetErrorsEv", scope: !369, file: !369, line: 419, type: !464, flags: DIFlagArtificial | DIFlagThunk, spFlags: DISPFlagDefinition, unit: !0, retainedNodes: !2)
!624 = !DILocation(line: 0, scope: !623)
!625 = distinct !DISubprogram(name: "~ErrorHandler", linkageName: "_ZN11xercesc_2_712ErrorHandlerD2Ev", scope: !382, file: !383, line: 71, type: !626, scopeLine: 72, flags: DIFlagPrototyped, spFlags: DISPFlagDefinition, unit: !0, declaration: !629, retainedNodes: !2)
!626 = !DISubroutineType(types: !627)
!627 = !{null, !628}
!628 = !DIDerivedType(tag: DW_TAG_pointer_type, baseType: !382, size: 64, flags: DIFlagArtificial | DIFlagObjectPointer)
!629 = !DISubprogram(name: "~ErrorHandler", scope: !382, file: !383, line: 71, type: !626, scopeLine: 71, containingType: !382, virtualIndex: 0, flags: DIFlagPublic | DIFlagPrototyped, spFlags: DISPFlagVirtual)
!630 = !DILocalVariable(name: "this", arg: 1, scope: !625, type: !631, flags: DIFlagArtificial | DIFlagObjectPointer)
!631 = !DIDerivedType(tag: DW_TAG_pointer_type, baseType: !382, size: 64)
!632 = !DILocation(line: 0, scope: !625)
!633 = !DILocation(line: 73, column: 5, scope: !625)
!634 = distinct !DISubprogram(name: "~DocumentHandler", linkageName: "_ZN11xercesc_2_715DocumentHandlerD2Ev", scope: !379, file: !380, line: 71, type: !635, scopeLine: 72, flags: DIFlagPrototyped, spFlags: DISPFlagDefinition, unit: !0, declaration: !638, retainedNodes: !2)
!635 = !DISubroutineType(types: !636)
!636 = !{null, !637}
!637 = !DIDerivedType(tag: DW_TAG_pointer_type, baseType: !379, size: 64, flags: DIFlagArtificial | DIFlagObjectPointer)
!638 = !DISubprogram(name: "~DocumentHandler", scope: !379, file: !380, line: 71, type: !635, scopeLine: 71, containingType: !379, virtualIndex: 0, flags: DIFlagPublic | DIFlagPrototyped, spFlags: DISPFlagVirtual)
!639 = !DILocalVariable(name: "this", arg: 1, scope: !634, type: !640, flags: DIFlagArtificial | DIFlagObjectPointer)
!640 = !DIDerivedType(tag: DW_TAG_pointer_type, baseType: !379, size: 64)
!641 = !DILocation(line: 0, scope: !634)
!642 = !DILocation(line: 73, column: 5, scope: !634)
!643 = distinct !DISubprogram(name: "~DTDHandler", linkageName: "_ZN11xercesc_2_710DTDHandlerD2Ev", scope: !376, file: !377, line: 70, type: !644, scopeLine: 71, flags: DIFlagPrototyped, spFlags: DISPFlagDefinition, unit: !0, declaration: !647, retainedNodes: !2)
!644 = !DISubroutineType(types: !645)
!645 = !{null, !646}
!646 = !DIDerivedType(tag: DW_TAG_pointer_type, baseType: !376, size: 64, flags: DIFlagArtificial | DIFlagObjectPointer)
!647 = !DISubprogram(name: "~DTDHandler", scope: !376, file: !377, line: 70, type: !644, scopeLine: 70, containingType: !376, virtualIndex: 0, flags: DIFlagPublic | DIFlagPrototyped, spFlags: DISPFlagVirtual)
!648 = !DILocalVariable(name: "this", arg: 1, scope: !643, type: !649, flags: DIFlagArtificial | DIFlagObjectPointer)
!649 = !DIDerivedType(tag: DW_TAG_pointer_type, baseType: !376, size: 64)
!650 = !DILocation(line: 0, scope: !643)
!651 = !DILocation(line: 72, column: 5, scope: !643)
!652 = distinct !DISubprogram(name: "~EntityResolver", linkageName: "_ZN11xercesc_2_714EntityResolverD2Ev", scope: !373, file: !374, line: 98, type: !653, scopeLine: 99, flags: DIFlagPrototyped, spFlags: DISPFlagDefinition, unit: !0, declaration: !656, retainedNodes: !2)
!653 = !DISubroutineType(types: !654)
!654 = !{null, !655}
!655 = !DIDerivedType(tag: DW_TAG_pointer_type, baseType: !373, size: 64, flags: DIFlagArtificial | DIFlagObjectPointer)
!656 = !DISubprogram(name: "~EntityResolver", scope: !373, file: !374, line: 98, type: !653, scopeLine: 98, containingType: !373, virtualIndex: 0, flags: DIFlagPublic | DIFlagPrototyped, spFlags: DISPFlagVirtual)
!657 = !DILocalVariable(name: "this", arg: 1, scope: !652, type: !658, flags: DIFlagArtificial | DIFlagObjectPointer)
!658 = !DIDerivedType(tag: DW_TAG_pointer_type, baseType: !373, size: 64)
!659 = !DILocation(line: 0, scope: !652)
!660 = !DILocation(line: 100, column: 5, scope: !652)
