; ModuleID = 'FormatterToHTML.cpp'
source_filename = "FormatterToHTML.cpp"
target datalayout = "e-m:e-p270:32:32-p271:32:32-p272:64:64-i64:64-f80:128-n8:16:32:64-S128"
target triple = "x86_64-unknown-linux-gnu"

%"class.xalanc_1_10::XalanDOMString" = type <{ %"class.xalanc_1_10::XalanVector", i32, [4 x i8] }>
%"class.xalanc_1_10::XalanVector" = type { %"class.xercesc_2_7::MemoryManager"*, i64, i64, i16* }
%"class.xercesc_2_7::MemoryManager" = type { i32 (...)** }
%"struct.xalanc_1_10::FormatterToHTML::Entity" = type { i16, i32, [9 x i16] }
%"class.xalanc_1_10::FormatterToHTML" = type { %"class.xalanc_1_10::FormatterToXML.base", [3 x i8], %"class.xalanc_1_10::XalanDOMString", i8, %"class.xalanc_1_10::XalanVector.0", i8, %"class.xalanc_1_10::XalanVector.0", i8, i8, i8, i32, %"class.xalanc_1_10::XalanVector.0", i8, %"class.xalanc_1_10::XalanVector.2" }
%"class.xalanc_1_10::FormatterToXML.base" = type <{ %"class.xalanc_1_10::FormatterListener", %"class.xalanc_1_10::Writer"*, %"class.xalanc_1_10::XalanOutputStream"*, i16, [256 x i16], [256 x i16], i8, i8, i8, i8, i8, i8, i8, i8, i8, i8, [4 x i8], %"class.xalanc_1_10::XalanDOMString", %"class.xalanc_1_10::XalanDOMString", %"class.xalanc_1_10::XalanDOMString", i32, i32, %"class.xalanc_1_10::XalanVector.0", %"class.xalanc_1_10::XalanDOMString", i8, i8, i8, i8, [4 x i8], %"class.xalanc_1_10::XalanDOMString", %"class.xalanc_1_10::XalanDOMString", %"class.xalanc_1_10::XalanDOMString", %"class.xalanc_1_10::XalanDOMString", %"class.xalanc_1_10::XalanVector", i32, [4 x i8], %"class.xalanc_1_10::XalanVector.1", %"class.xalanc_1_10::XalanVector.0", { i64, i64 }, { i64, i64 }, { i64, i64 }, { i64, i64 }, { i64, i64 }, { i64, i64 }, { i64, i64 }, { i64, i64 }, { i64, i64 }, i16*, i32, i8 }>
%"class.xalanc_1_10::FormatterListener" = type { %"class.xercesc_2_7::DocumentHandler", %"class.xalanc_1_10::PrefixResolver"*, i32, i32 }
%"class.xercesc_2_7::DocumentHandler" = type { i32 (...)** }
%"class.xalanc_1_10::PrefixResolver" = type { i32 (...)** }
%"class.xalanc_1_10::XalanOutputStream" = type opaque
%"class.xalanc_1_10::XalanVector.1" = type { %"class.xercesc_2_7::MemoryManager"*, i64, i64, i8* }
%"class.xalanc_1_10::XalanVector.0" = type { %"class.xercesc_2_7::MemoryManager"*, i64, i64, i8* }
%"class.xalanc_1_10::XalanVector.2" = type { %"class.xercesc_2_7::MemoryManager"*, i64, i64, %"class.xalanc_1_10::XalanHTMLElementsProperties::ElementProperties"* }
%"class.xalanc_1_10::XalanHTMLElementsProperties::ElementProperties" = type { %"struct.xalanc_1_10::XalanHTMLElementsProperties::InternalElementProperties"* }
%"struct.xalanc_1_10::XalanHTMLElementsProperties::InternalElementProperties" = type { [11 x i16], i32, [7 x %"struct.xalanc_1_10::XalanHTMLElementsProperties::InternalAttributeProperties"] }
%"struct.xalanc_1_10::XalanHTMLElementsProperties::InternalAttributeProperties" = type { [9 x i16], i8 }
%"class.xalanc_1_10::Writer" = type { i32 (...)** }
%"class.xalanc_1_10::FormatterToXML" = type <{ %"class.xalanc_1_10::FormatterListener", %"class.xalanc_1_10::Writer"*, %"class.xalanc_1_10::XalanOutputStream"*, i16, [256 x i16], [256 x i16], i8, i8, i8, i8, i8, i8, i8, i8, i8, i8, [4 x i8], %"class.xalanc_1_10::XalanDOMString", %"class.xalanc_1_10::XalanDOMString", %"class.xalanc_1_10::XalanDOMString", i32, i32, %"class.xalanc_1_10::XalanVector.0", %"class.xalanc_1_10::XalanDOMString", i8, i8, i8, i8, [4 x i8], %"class.xalanc_1_10::XalanDOMString", %"class.xalanc_1_10::XalanDOMString", %"class.xalanc_1_10::XalanDOMString", %"class.xalanc_1_10::XalanDOMString", %"class.xalanc_1_10::XalanVector", i32, [4 x i8], %"class.xalanc_1_10::XalanVector.1", %"class.xalanc_1_10::XalanVector.0", { i64, i64 }, { i64, i64 }, { i64, i64 }, { i64, i64 }, { i64, i64 }, { i64, i64 }, { i64, i64 }, { i64, i64 }, { i64, i64 }, i16*, i32, i8, [3 x i8] }>
%"class.xalanc_1_10::XalanMemMgrAutoPtr" = type { %"class.xalanc_1_10::XalanMemMgrAutoPtr<xalanc_1_10::FormatterToHTML, false>::MemMgrAutoPtrData" }
%"class.xalanc_1_10::XalanMemMgrAutoPtr<xalanc_1_10::FormatterToHTML, false>::MemMgrAutoPtrData" = type { %"struct.std::pair" }
%"struct.std::pair" = type { %"class.xercesc_2_7::MemoryManager"*, %"class.xalanc_1_10::FormatterToHTML"* }
%"class.xercesc_2_7::AttributeList" = type { i32 (...)** }
%"class.xercesc_2_7::Locator" = type { i32 (...)** }
%"struct.std::random_access_iterator_tag" = type { i8 }
%"class.std::__pair_base" = type { i8 }

$_ZN11xalanc_1_1014XalanDOMStringD2Ev = comdat any

$_ZN11xalanc_1_1011XalanVectorIbNS_31MemoryManagedConstructionTraitsIbEEEC2ERN11xercesc_2_713MemoryManagerEm = comdat any

$_ZN11xalanc_1_1011XalanVectorINS_27XalanHTMLElementsProperties17ElementPropertiesENS_31MemoryManagedConstructionTraitsIS2_EEEC2ERN11xercesc_2_713MemoryManagerEm = comdat any

$_ZN11xalanc_1_1011XalanVectorINS_27XalanHTMLElementsProperties17ElementPropertiesENS_31MemoryManagedConstructionTraitsIS2_EEED2Ev = comdat any

$_ZN11xalanc_1_1011XalanVectorIbNS_31MemoryManagedConstructionTraitsIbEEED2Ev = comdat any

$_ZN11xalanc_1_1018XalanMemMgrAutoPtrINS_15FormatterToHTMLELb0EEC2ERN11xercesc_2_713MemoryManagerEPS1_ = comdat any

$_ZNK11xalanc_1_1018XalanMemMgrAutoPtrINS_15FormatterToHTMLELb0EE3getEv = comdat any

$_ZN11xalanc_1_1018XalanMemMgrAutoPtrINS_15FormatterToHTMLELb0EE7releaseEv = comdat any

$_ZN11xalanc_1_1018XalanMemMgrAutoPtrINS_15FormatterToHTMLELb0EED2Ev = comdat any

$_ZN11xalanc_1_105clearERNS_14XalanDOMStringE = comdat any

$_ZN11xalanc_1_1011XalanVectorIbNS_31MemoryManagedConstructionTraitsIbEEE5clearEv = comdat any

$_ZN11xalanc_1_1011XalanVectorIbNS_31MemoryManagedConstructionTraitsIbEEE9push_backERKb = comdat any

$_ZN11xalanc_1_1011XalanVectorINS_27XalanHTMLElementsProperties17ElementPropertiesENS_31MemoryManagedConstructionTraitsIS2_EEE5clearEv = comdat any

$_ZN11xalanc_1_107isEmptyERKNS_14XalanDOMStringE = comdat any

$_ZN11xalanc_1_1014FormatterToXML12accumContentEPKtjj = comdat any

$_ZN11xalanc_1_1014FormatterToXML12accumContentERKNS_14XalanDOMStringE = comdat any

$_ZN11xalanc_1_1014FormatterToXML12accumContentEt = comdat any

$_ZN11xalanc_1_1011XalanVectorIbNS_31MemoryManagedConstructionTraitsIbEEE8pop_backEv = comdat any

$_ZN11xalanc_1_1011XalanVectorINS_27XalanHTMLElementsProperties17ElementPropertiesENS_31MemoryManagedConstructionTraitsIS2_EEE9push_backERKS2_ = comdat any

$_ZNK11xalanc_1_1027XalanHTMLElementsProperties17ElementProperties2isEj = comdat any

$_ZN11xalanc_1_1011XalanVectorIbNS_31MemoryManagedConstructionTraitsIbEEE4backEv = comdat any

$_ZN11xalanc_1_1014FormatterToXML9accumNameEPKt = comdat any

$_ZN11xalanc_1_1011XalanVectorINS_27XalanHTMLElementsProperties17ElementPropertiesENS_31MemoryManagedConstructionTraitsIS2_EEE4backEv = comdat any

$_ZN11xalanc_1_1027XalanHTMLElementsProperties17ElementPropertiesC2ERKS1_ = comdat any

$_ZN11xalanc_1_1011XalanVectorINS_27XalanHTMLElementsProperties17ElementPropertiesENS_31MemoryManagedConstructionTraitsIS2_EEE8pop_backEv = comdat any

$_ZNK11xalanc_1_1011XalanVectorIbNS_31MemoryManagedConstructionTraitsIbEEE5emptyEv = comdat any

$_ZNK11xalanc_1_1014FormatterToXML12shouldIndentEv = comdat any

$_ZN11xalanc_1_106lengthEPKt = comdat any

$_ZN11xalanc_1_106equalsEPKtjS1_j = comdat any

$_ZN11xalanc_1_1015isXMLWhitespaceEt = comdat any

$_ZN11xalanc_1_1011toCharArrayERKNS_14XalanDOMStringE = comdat any

$_ZN11xalanc_1_106lengthERKNS_14XalanDOMStringE = comdat any

$_ZN11xalanc_1_1014FormatterToXML16getMemoryManagerEv = comdat any

$_ZN11xalanc_1_1014FormatterToXML9accumNameEt = comdat any

$_ZN11xalanc_1_1014FormatterToXML9accumNameEPKtjj = comdat any

$_ZN11xalanc_1_1014FormatterToXML9accumNameERKNS_14XalanDOMStringE = comdat any

$_ZN11xalanc_1_1021equalsIgnoreCaseASCIIEPKtjS1_j = comdat any

$_ZNK11xalanc_1_1027XalanHTMLElementsProperties17ElementProperties11isAttributeEPKth = comdat any

$_ZN11xalanc_1_1014FormatterToXML16isUTF16SurrogateEt = comdat any

$_ZN11xalanc_1_107indexOfEPKtt = comdat any

$_ZN11xalanc_1_1011XalanVectorItNS_31MemoryManagedConstructionTraitsItEEED2Ev = comdat any

$_ZNK11xalanc_1_1011XalanVectorItNS_31MemoryManagedConstructionTraitsItEEE10invariantsEv = comdat any

$__clang_call_terminate = comdat any

$_ZN11xalanc_1_1011XalanVectorItNS_31MemoryManagedConstructionTraitsItEEE7destroyEPtS4_ = comdat any

$_ZN11xalanc_1_1011XalanVectorItNS_31MemoryManagedConstructionTraitsItEEE5beginEv = comdat any

$_ZN11xalanc_1_1011XalanVectorItNS_31MemoryManagedConstructionTraitsItEEE3endEv = comdat any

$_ZN11xalanc_1_1011XalanVectorItNS_31MemoryManagedConstructionTraitsItEEE10deallocateEPt = comdat any

$_ZN11xalanc_1_1011XalanVectorItNS_31MemoryManagedConstructionTraitsItEEE7destroyERt = comdat any

$_ZN11xalanc_1_1011XalanVectorItNS_31MemoryManagedConstructionTraitsItEEE10endPointerEv = comdat any

$_ZN11xalanc_1_1014XalanDOMString5clearEv = comdat any

$_ZNK11xalanc_1_1014XalanDOMString10invariantsEv = comdat any

$_ZN11xalanc_1_1011XalanVectorItNS_31MemoryManagedConstructionTraitsItEEE5eraseEPtS4_ = comdat any

$_ZSt4copyIPtS0_ET0_T_S2_S1_ = comdat any

$_ZN11xalanc_1_1011XalanVectorItNS_31MemoryManagedConstructionTraitsItEEE11shrinkCountEm = comdat any

$_ZN11xalanc_1_1011XalanVectorItNS_31MemoryManagedConstructionTraitsItEEE14local_distanceEPKtS5_ = comdat any

$_ZSt13__copy_move_aILb0EPtS0_ET1_T0_S2_S1_ = comdat any

$_ZSt12__miter_baseIPtET_S1_ = comdat any

$_ZSt12__niter_wrapIPtET_RKS1_S1_ = comdat any

$_ZSt14__copy_move_a1ILb0EPtS0_ET1_T0_S2_S1_ = comdat any

$_ZSt12__niter_baseIPtET_S1_ = comdat any

$_ZSt14__copy_move_a2ILb0EPtS0_ET1_T0_S2_S1_ = comdat any

$_ZNSt11__copy_moveILb0ELb1ESt26random_access_iterator_tagE8__copy_mItEEPT_PKS3_S6_S4_ = comdat any

$_ZN11xalanc_1_1011XalanVectorItNS_31MemoryManagedConstructionTraitsItEEE8pop_backEv = comdat any

$_ZSt8distanceIPKtENSt15iterator_traitsIT_E15difference_typeES3_S3_ = comdat any

$_ZSt10__distanceIPKtENSt15iterator_traitsIT_E15difference_typeES3_S3_St26random_access_iterator_tag = comdat any

$_ZSt19__iterator_categoryIPKtENSt15iterator_traitsIT_E17iterator_categoryERKS3_ = comdat any

$_ZNK11xalanc_1_1014XalanDOMString5emptyEv = comdat any

$_ZNK11xalanc_1_1027XalanHTMLElementsProperties25InternalElementProperties2isEj = comdat any

$_ZN11xalanc_1_1012XalanXMLChar12isWhitespaceEt = comdat any

$_ZNK11xalanc_1_1014XalanDOMString5c_strEv = comdat any

$_ZNK11xalanc_1_1011XalanVectorItNS_31MemoryManagedConstructionTraitsItEEE5emptyEv = comdat any

$_ZNK11xalanc_1_1011XalanVectorItNS_31MemoryManagedConstructionTraitsItEEEixEm = comdat any

$_ZNK11xalanc_1_1014XalanDOMString6lengthEv = comdat any

$_ZNK11xalanc_1_1014XalanDOMString4sizeEv = comdat any

$_ZN11xalanc_1_1014XalanDOMString16getMemoryManagerEv = comdat any

$_ZN11xalanc_1_1011XalanVectorItNS_31MemoryManagedConstructionTraitsItEEE16getMemoryManagerEv = comdat any

$_ZN11xalanc_1_1011XalanVectorIbNS_31MemoryManagedConstructionTraitsIbEEE8allocateEm = comdat any

$_ZNK11xalanc_1_1011XalanVectorIbNS_31MemoryManagedConstructionTraitsIbEEE10invariantsEv = comdat any

$_ZN11xalanc_1_1011XalanVectorINS_27XalanHTMLElementsProperties17ElementPropertiesENS_31MemoryManagedConstructionTraitsIS2_EEE8allocateEm = comdat any

$_ZNK11xalanc_1_1011XalanVectorINS_27XalanHTMLElementsProperties17ElementPropertiesENS_31MemoryManagedConstructionTraitsIS2_EEE10invariantsEv = comdat any

$_ZN11xalanc_1_1011XalanVectorIbNS_31MemoryManagedConstructionTraitsIbEEE7destroyEPbS4_ = comdat any

$_ZN11xalanc_1_1011XalanVectorIbNS_31MemoryManagedConstructionTraitsIbEEE5beginEv = comdat any

$_ZN11xalanc_1_1011XalanVectorIbNS_31MemoryManagedConstructionTraitsIbEEE3endEv = comdat any

$_ZN11xalanc_1_1011XalanVectorIbNS_31MemoryManagedConstructionTraitsIbEEE10deallocateEPb = comdat any

$_ZN11xalanc_1_1011XalanVectorIbNS_31MemoryManagedConstructionTraitsIbEEE7destroyERb = comdat any

$_ZN11xalanc_1_1011XalanVectorIbNS_31MemoryManagedConstructionTraitsIbEEE10endPointerEv = comdat any

$_ZN11xalanc_1_1011XalanVectorINS_27XalanHTMLElementsProperties17ElementPropertiesENS_31MemoryManagedConstructionTraitsIS2_EEE7destroyEPS2_S6_ = comdat any

$_ZN11xalanc_1_1011XalanVectorINS_27XalanHTMLElementsProperties17ElementPropertiesENS_31MemoryManagedConstructionTraitsIS2_EEE5beginEv = comdat any

$_ZN11xalanc_1_1011XalanVectorINS_27XalanHTMLElementsProperties17ElementPropertiesENS_31MemoryManagedConstructionTraitsIS2_EEE3endEv = comdat any

$_ZN11xalanc_1_1011XalanVectorINS_27XalanHTMLElementsProperties17ElementPropertiesENS_31MemoryManagedConstructionTraitsIS2_EEE10deallocateEPS2_ = comdat any

$_ZN11xalanc_1_1011XalanVectorINS_27XalanHTMLElementsProperties17ElementPropertiesENS_31MemoryManagedConstructionTraitsIS2_EEE7destroyERS2_ = comdat any

$_ZN11xalanc_1_1011XalanVectorINS_27XalanHTMLElementsProperties17ElementPropertiesENS_31MemoryManagedConstructionTraitsIS2_EEE10endPointerEv = comdat any

$_ZN11xalanc_1_1018XalanMemMgrAutoPtrINS_15FormatterToHTMLELb0EE17MemMgrAutoPtrDataC2EPN11xercesc_2_713MemoryManagerEPS1_ = comdat any

$_ZNSt4pairIPN11xercesc_2_713MemoryManagerEPN11xalanc_1_1015FormatterToHTMLEEC2IRS2_RS5_Lb1EEEOT_OT0_ = comdat any

$_ZNK11xalanc_1_1018XalanMemMgrAutoPtrINS_15FormatterToHTMLELb0EE17MemMgrAutoPtrData10invariantsEv = comdat any

$_ZSt7forwardIRPN11xercesc_2_713MemoryManagerEEOT_RNSt16remove_referenceIS4_E4typeE = comdat any

$_ZSt7forwardIRPN11xalanc_1_1015FormatterToHTMLEEOT_RNSt16remove_referenceIS4_E4typeE = comdat any

$_ZN11xalanc_1_1018XalanMemMgrAutoPtrINS_15FormatterToHTMLELb0EE17MemMgrAutoPtrData10deallocateEv = comdat any

$_ZNK11xalanc_1_1018XalanMemMgrAutoPtrINS_15FormatterToHTMLELb0EE17MemMgrAutoPtrData12isInitilizedEv = comdat any

$_ZN11xalanc_1_1018XalanMemMgrAutoPtrINS_15FormatterToHTMLELb0EE17MemMgrAutoPtrData5resetEPN11xercesc_2_713MemoryManagerEPS1_ = comdat any

$_ZN11xalanc_1_1011XalanVectorIbNS_31MemoryManagedConstructionTraitsIbEEE12shrinkToSizeEm = comdat any

$_ZN11xalanc_1_1011XalanVectorIbNS_31MemoryManagedConstructionTraitsIbEEE10doPushBackERKb = comdat any

$_ZN11xalanc_1_1028ConstructWithNoMemoryManagerIbE9constructEPbRKbRN11xercesc_2_713MemoryManagerE = comdat any

$_ZN11xalanc_1_1011XalanVectorIbNS_31MemoryManagedConstructionTraitsIbEEEC2ERKS3_RN11xercesc_2_713MemoryManagerEm = comdat any

$_ZN11xalanc_1_1011XalanVectorIbNS_31MemoryManagedConstructionTraitsIbEEE4swapERS3_ = comdat any

$_ZN11xalanc_1_1011XalanVectorIbNS_31MemoryManagedConstructionTraitsIbEEE9local_maxEmm = comdat any

$_ZN11xalanc_1_1011XalanVectorIbNS_31MemoryManagedConstructionTraitsIbEEE6insertEPbPKbS6_ = comdat any

$_ZNK11xalanc_1_1011XalanVectorIbNS_31MemoryManagedConstructionTraitsIbEEE5beginEv = comdat any

$_ZNK11xalanc_1_1011XalanVectorIbNS_31MemoryManagedConstructionTraitsIbEEE3endEv = comdat any

$_ZN11xalanc_1_1011XalanVectorIbNS_31MemoryManagedConstructionTraitsIbEEE14local_distanceEPKbS5_ = comdat any

$_ZNK11xalanc_1_1011XalanVectorIbNS_31MemoryManagedConstructionTraitsIbEEE4sizeEv = comdat any

$_ZN11xalanc_1_1011XalanVectorIbNS_31MemoryManagedConstructionTraitsIbEEE14ensureCapacityEm = comdat any

$_ZNK11xalanc_1_1011XalanVectorIbNS_31MemoryManagedConstructionTraitsIbEEE8capacityEv = comdat any

$_ZSt4copyIPKbPbET0_T_S4_S3_ = comdat any

$_ZSt13copy_backwardIPbS0_ET0_T_S2_S1_ = comdat any

$_ZSt8distanceIPKbENSt15iterator_traitsIT_E15difference_typeES3_S3_ = comdat any

$_ZSt10__distanceIPKbENSt15iterator_traitsIT_E15difference_typeES3_S3_St26random_access_iterator_tag = comdat any

$_ZSt19__iterator_categoryIPKbENSt15iterator_traitsIT_E17iterator_categoryERKS3_ = comdat any

$_ZN11xalanc_1_1011XalanVectorIbNS_31MemoryManagedConstructionTraitsIbEEE9doReserveEm = comdat any

$_ZSt13__copy_move_aILb0EPKbPbET1_T0_S4_S3_ = comdat any

$_ZSt12__miter_baseIPKbET_S2_ = comdat any

$_ZSt12__niter_wrapIPbET_RKS1_S1_ = comdat any

$_ZSt14__copy_move_a1ILb0EPKbPbET1_T0_S4_S3_ = comdat any

$_ZSt12__niter_baseIPKbET_S2_ = comdat any

$_ZSt12__niter_baseIPbET_S1_ = comdat any

$_ZSt14__copy_move_a2ILb0EPKbPbET1_T0_S4_S3_ = comdat any

$_ZNSt11__copy_moveILb0ELb1ESt26random_access_iterator_tagE8__copy_mIbEEPT_PKS3_S6_S4_ = comdat any

$_ZSt22__copy_move_backward_aILb0EPbS0_ET1_T0_S2_S1_ = comdat any

$_ZSt12__miter_baseIPbET_S1_ = comdat any

$_ZSt23__copy_move_backward_a1ILb0EPbS0_ET1_T0_S2_S1_ = comdat any

$_ZSt23__copy_move_backward_a2ILb0EPbS0_ET1_T0_S2_S1_ = comdat any

$_ZNSt20__copy_move_backwardILb0ELb1ESt26random_access_iterator_tagE13__copy_move_bIbEEPT_PKS3_S6_S4_ = comdat any

$_ZNK11xalanc_1_1011XalanVectorIbNS_31MemoryManagedConstructionTraitsIbEEE10endPointerEv = comdat any

$_ZN11xalanc_1_1011XalanVectorINS_27XalanHTMLElementsProperties17ElementPropertiesENS_31MemoryManagedConstructionTraitsIS2_EEE12shrinkToSizeEm = comdat any

$_ZN11xalanc_1_1011XalanVectorINS_27XalanHTMLElementsProperties17ElementPropertiesENS_31MemoryManagedConstructionTraitsIS2_EEE10doPushBackERKS2_ = comdat any

$_ZN11xalanc_1_1028ConstructWithNoMemoryManagerINS_27XalanHTMLElementsProperties17ElementPropertiesEE9constructEPS2_RKS2_RN11xercesc_2_713MemoryManagerE = comdat any

$_ZN11xalanc_1_1011XalanVectorINS_27XalanHTMLElementsProperties17ElementPropertiesENS_31MemoryManagedConstructionTraitsIS2_EEEC2ERKS5_RN11xercesc_2_713MemoryManagerEm = comdat any

$_ZN11xalanc_1_1011XalanVectorINS_27XalanHTMLElementsProperties17ElementPropertiesENS_31MemoryManagedConstructionTraitsIS2_EEE4swapERS5_ = comdat any

$_ZN11xalanc_1_1011XalanVectorINS_27XalanHTMLElementsProperties17ElementPropertiesENS_31MemoryManagedConstructionTraitsIS2_EEE9local_maxEmm = comdat any

$_ZN11xalanc_1_1011XalanVectorINS_27XalanHTMLElementsProperties17ElementPropertiesENS_31MemoryManagedConstructionTraitsIS2_EEE6insertEPS2_PKS2_S8_ = comdat any

$_ZNK11xalanc_1_1011XalanVectorINS_27XalanHTMLElementsProperties17ElementPropertiesENS_31MemoryManagedConstructionTraitsIS2_EEE5beginEv = comdat any

$_ZNK11xalanc_1_1011XalanVectorINS_27XalanHTMLElementsProperties17ElementPropertiesENS_31MemoryManagedConstructionTraitsIS2_EEE3endEv = comdat any

$_ZN11xalanc_1_1011XalanVectorINS_27XalanHTMLElementsProperties17ElementPropertiesENS_31MemoryManagedConstructionTraitsIS2_EEE14local_distanceEPKS2_S7_ = comdat any

$_ZNK11xalanc_1_1011XalanVectorINS_27XalanHTMLElementsProperties17ElementPropertiesENS_31MemoryManagedConstructionTraitsIS2_EEE4sizeEv = comdat any

$_ZN11xalanc_1_1011XalanVectorINS_27XalanHTMLElementsProperties17ElementPropertiesENS_31MemoryManagedConstructionTraitsIS2_EEE14ensureCapacityEm = comdat any

$_ZNK11xalanc_1_1011XalanVectorINS_27XalanHTMLElementsProperties17ElementPropertiesENS_31MemoryManagedConstructionTraitsIS2_EEE8capacityEv = comdat any

$_ZSt4copyIPKN11xalanc_1_1027XalanHTMLElementsProperties17ElementPropertiesEPS2_ET0_T_S7_S6_ = comdat any

$_ZSt13copy_backwardIPN11xalanc_1_1027XalanHTMLElementsProperties17ElementPropertiesES3_ET0_T_S5_S4_ = comdat any

$_ZSt8distanceIPKN11xalanc_1_1027XalanHTMLElementsProperties17ElementPropertiesEENSt15iterator_traitsIT_E15difference_typeES6_S6_ = comdat any

$_ZSt10__distanceIPKN11xalanc_1_1027XalanHTMLElementsProperties17ElementPropertiesEENSt15iterator_traitsIT_E15difference_typeES6_S6_St26random_access_iterator_tag = comdat any

$_ZSt19__iterator_categoryIPKN11xalanc_1_1027XalanHTMLElementsProperties17ElementPropertiesEENSt15iterator_traitsIT_E17iterator_categoryERKS6_ = comdat any

$_ZN11xalanc_1_1011XalanVectorINS_27XalanHTMLElementsProperties17ElementPropertiesENS_31MemoryManagedConstructionTraitsIS2_EEE9doReserveEm = comdat any

$_ZSt13__copy_move_aILb0EPKN11xalanc_1_1027XalanHTMLElementsProperties17ElementPropertiesEPS2_ET1_T0_S7_S6_ = comdat any

$_ZSt12__miter_baseIPKN11xalanc_1_1027XalanHTMLElementsProperties17ElementPropertiesEET_S5_ = comdat any

$_ZSt12__niter_wrapIPN11xalanc_1_1027XalanHTMLElementsProperties17ElementPropertiesEET_RKS4_S4_ = comdat any

$_ZSt14__copy_move_a1ILb0EPKN11xalanc_1_1027XalanHTMLElementsProperties17ElementPropertiesEPS2_ET1_T0_S7_S6_ = comdat any

$_ZSt12__niter_baseIPKN11xalanc_1_1027XalanHTMLElementsProperties17ElementPropertiesEET_S5_ = comdat any

$_ZSt12__niter_baseIPN11xalanc_1_1027XalanHTMLElementsProperties17ElementPropertiesEET_S4_ = comdat any

$_ZSt14__copy_move_a2ILb0EPKN11xalanc_1_1027XalanHTMLElementsProperties17ElementPropertiesEPS2_ET1_T0_S7_S6_ = comdat any

$_ZNSt11__copy_moveILb0ELb0ESt26random_access_iterator_tagE8__copy_mIPKN11xalanc_1_1027XalanHTMLElementsProperties17ElementPropertiesEPS5_EET0_T_SA_S9_ = comdat any

$_ZSt22__copy_move_backward_aILb0EPN11xalanc_1_1027XalanHTMLElementsProperties17ElementPropertiesES3_ET1_T0_S5_S4_ = comdat any

$_ZSt12__miter_baseIPN11xalanc_1_1027XalanHTMLElementsProperties17ElementPropertiesEET_S4_ = comdat any

$_ZSt23__copy_move_backward_a1ILb0EPN11xalanc_1_1027XalanHTMLElementsProperties17ElementPropertiesES3_ET1_T0_S5_S4_ = comdat any

$_ZSt23__copy_move_backward_a2ILb0EPN11xalanc_1_1027XalanHTMLElementsProperties17ElementPropertiesES3_ET1_T0_S5_S4_ = comdat any

$_ZNSt20__copy_move_backwardILb0ELb0ESt26random_access_iterator_tagE13__copy_move_bIPN11xalanc_1_1027XalanHTMLElementsProperties17ElementPropertiesES6_EET0_T_S8_S7_ = comdat any

$_ZNK11xalanc_1_1011XalanVectorINS_27XalanHTMLElementsProperties17ElementPropertiesENS_31MemoryManagedConstructionTraitsIS2_EEE10endPointerEv = comdat any

@_ZN11xalanc_1_1015FormatterToHTML13s_emptyStringE = dso_local global %"class.xalanc_1_10::XalanDOMString" zeroinitializer, align 8, !dbg !0
@__dso_handle = external hidden global i8
@_ZTVN11xalanc_1_1015FormatterToHTMLE = dso_local unnamed_addr constant { [28 x i8*] } { [28 x i8*] [i8* null, i8* bitcast ({ i8*, i8*, i8* }* @_ZTIN11xalanc_1_1015FormatterToHTMLE to i8*), i8* bitcast (void (%"class.xalanc_1_10::FormatterToHTML"*)* @_ZN11xalanc_1_1015FormatterToHTMLD1Ev to i8*), i8* bitcast (void (%"class.xalanc_1_10::FormatterToHTML"*)* @_ZN11xalanc_1_1015FormatterToHTMLD0Ev to i8*), i8* bitcast (void (%"class.xalanc_1_10::FormatterToHTML"*, i16*, i32)* @_ZN11xalanc_1_1015FormatterToHTML10charactersEPKtj to i8*), i8* bitcast (void (%"class.xalanc_1_10::FormatterToHTML"*)* @_ZN11xalanc_1_1015FormatterToHTML11endDocumentEv to i8*), i8* bitcast (void (%"class.xalanc_1_10::FormatterToHTML"*, i16*)* @_ZN11xalanc_1_1015FormatterToHTML10endElementEPKt to i8*), i8* bitcast (void (%"class.xalanc_1_10::FormatterToXML"*, i16*, i32)* @_ZN11xalanc_1_1014FormatterToXML19ignorableWhitespaceEPKtj to i8*), i8* bitcast (void (%"class.xalanc_1_10::FormatterToHTML"*, i16*, i16*)* @_ZN11xalanc_1_1015FormatterToHTML21processingInstructionEPKtS2_ to i8*), i8* bitcast (void (%"class.xalanc_1_10::FormatterToXML"*)* @_ZN11xalanc_1_1014FormatterToXML13resetDocumentEv to i8*), i8* bitcast (void (%"class.xalanc_1_10::FormatterToXML"*, %"class.xercesc_2_7::Locator"*)* @_ZN11xalanc_1_1014FormatterToXML18setDocumentLocatorEPKN11xercesc_2_77LocatorE to i8*), i8* bitcast (void (%"class.xalanc_1_10::FormatterToHTML"*)* @_ZN11xalanc_1_1015FormatterToHTML13startDocumentEv to i8*), i8* bitcast (void (%"class.xalanc_1_10::FormatterToHTML"*, i16*, %"class.xercesc_2_7::AttributeList"*)* @_ZN11xalanc_1_1015FormatterToHTML12startElementEPKtRN11xercesc_2_713AttributeListE to i8*), i8* bitcast (void (%"class.xalanc_1_10::FormatterToXML"*, i16*, i32)* @_ZN11xalanc_1_1014FormatterToXML13charactersRawEPKtj to i8*), i8* bitcast (void (%"class.xalanc_1_10::FormatterToXML"*, i16*)* @_ZN11xalanc_1_1014FormatterToXML7commentEPKt to i8*), i8* bitcast (void (%"class.xalanc_1_10::FormatterToHTML"*, i16*, i32)* @_ZN11xalanc_1_1015FormatterToHTML5cdataEPKtj to i8*), i8* bitcast (void (%"class.xalanc_1_10::FormatterToHTML"*, i16*)* @_ZN11xalanc_1_1015FormatterToHTML15entityReferenceEPKt to i8*), i8* bitcast (%"class.xalanc_1_10::Writer"* (%"class.xalanc_1_10::FormatterToXML"*)* @_ZNK11xalanc_1_1014FormatterToXML9getWriterEv to i8*), i8* bitcast (%"class.xalanc_1_10::XalanDOMString"* (%"class.xalanc_1_10::FormatterToXML"*)* @_ZNK11xalanc_1_1014FormatterToXML16getDoctypeSystemEv to i8*), i8* bitcast (%"class.xalanc_1_10::XalanDOMString"* (%"class.xalanc_1_10::FormatterToXML"*)* @_ZNK11xalanc_1_1014FormatterToXML16getDoctypePublicEv to i8*), i8* bitcast (%"class.xalanc_1_10::XalanDOMString"* (%"class.xalanc_1_10::FormatterToXML"*)* @_ZNK11xalanc_1_1014FormatterToXML11getEncodingEv to i8*), i8* bitcast (%"class.xalanc_1_10::XalanDOMString"* (%"class.xalanc_1_10::FormatterToXML"*)* @_ZNK11xalanc_1_1014FormatterToXML12getMediaTypeEv to i8*), i8* bitcast (i32 (%"class.xalanc_1_10::FormatterToXML"*)* @_ZNK11xalanc_1_1014FormatterToXML9getIndentEv to i8*), i8* bitcast (i1 (%"class.xalanc_1_10::FormatterToHTML"*, i16, i1)* @_ZN11xalanc_1_1015FormatterToHTML18accumDefaultEntityEtb to i8*), i8* bitcast (void (%"class.xalanc_1_10::FormatterToXML"*, i16*, i32, i32, i1)* @_ZN11xalanc_1_1014FormatterToXML20writeNormalizedCharsEPKtjjb to i8*), i8* bitcast (void (%"class.xalanc_1_10::FormatterToHTML"*, i16*, i32)* @_ZN11xalanc_1_1015FormatterToHTML15writeAttrStringEPKtj to i8*), i8* bitcast (void (%"class.xalanc_1_10::FormatterToHTML"*, i16*)* @_ZN11xalanc_1_1015FormatterToHTML16accumCommentDataEPKt to i8*), i8* bitcast (void (%"class.xalanc_1_10::FormatterToHTML"*, i16*, i16*, %"class.xalanc_1_10::XalanHTMLElementsProperties::ElementProperties"*)* @_ZN11xalanc_1_1015FormatterToHTML16processAttributeEPKtS2_RKNS_27XalanHTMLElementsProperties17ElementPropertiesE to i8*)] }, align 8
@_ZN11xalanc_1_1017FormatterListener10s_piTargetE = external dso_local constant [0 x i16], align 2
@_ZN11xalanc_1_1017FormatterListener8s_piDataE = external dso_local constant [0 x i16], align 2
@_ZN11xalanc_1_1015FormatterToHTML10s_entitiesE = dso_local constant [195 x %"struct.xalanc_1_10::FormatterToHTML::Entity"] [%"struct.xalanc_1_10::FormatterToHTML::Entity" { i16 160, i32 4, [9 x i16] [i16 110, i16 98, i16 115, i16 112, i16 0, i16 0, i16 0, i16 0, i16 0] }, %"struct.xalanc_1_10::FormatterToHTML::Entity" { i16 161, i32 5, [9 x i16] [i16 105, i16 101, i16 120, i16 99, i16 108, i16 0, i16 0, i16 0, i16 0] }, %"struct.xalanc_1_10::FormatterToHTML::Entity" { i16 162, i32 4, [9 x i16] [i16 99, i16 101, i16 110, i16 116, i16 0, i16 0, i16 0, i16 0, i16 0] }, %"struct.xalanc_1_10::FormatterToHTML::Entity" { i16 163, i32 5, [9 x i16] [i16 112, i16 111, i16 117, i16 110, i16 100, i16 0, i16 0, i16 0, i16 0] }, %"struct.xalanc_1_10::FormatterToHTML::Entity" { i16 164, i32 6, [9 x i16] [i16 99, i16 117, i16 114, i16 114, i16 101, i16 110, i16 0, i16 0, i16 0] }, %"struct.xalanc_1_10::FormatterToHTML::Entity" { i16 165, i32 3, [9 x i16] [i16 121, i16 101, i16 110, i16 0, i16 0, i16 0, i16 0, i16 0, i16 0] }, %"struct.xalanc_1_10::FormatterToHTML::Entity" { i16 166, i32 6, [9 x i16] [i16 98, i16 114, i16 118, i16 98, i16 97, i16 114, i16 0, i16 0, i16 0] }, %"struct.xalanc_1_10::FormatterToHTML::Entity" { i16 167, i32 4, [9 x i16] [i16 115, i16 101, i16 99, i16 116, i16 0, i16 0, i16 0, i16 0, i16 0] }, %"struct.xalanc_1_10::FormatterToHTML::Entity" { i16 168, i32 3, [9 x i16] [i16 117, i16 109, i16 108, i16 0, i16 0, i16 0, i16 0, i16 0, i16 0] }, %"struct.xalanc_1_10::FormatterToHTML::Entity" { i16 169, i32 4, [9 x i16] [i16 99, i16 111, i16 112, i16 121, i16 0, i16 0, i16 0, i16 0, i16 0] }, %"struct.xalanc_1_10::FormatterToHTML::Entity" { i16 170, i32 4, [9 x i16] [i16 111, i16 114, i16 100, i16 102, i16 0, i16 0, i16 0, i16 0, i16 0] }, %"struct.xalanc_1_10::FormatterToHTML::Entity" { i16 171, i32 5, [9 x i16] [i16 108, i16 97, i16 113, i16 117, i16 111, i16 0, i16 0, i16 0, i16 0] }, %"struct.xalanc_1_10::FormatterToHTML::Entity" { i16 172, i32 3, [9 x i16] [i16 110, i16 111, i16 116, i16 0, i16 0, i16 0, i16 0, i16 0, i16 0] }, %"struct.xalanc_1_10::FormatterToHTML::Entity" { i16 173, i32 3, [9 x i16] [i16 115, i16 104, i16 121, i16 0, i16 0, i16 0, i16 0, i16 0, i16 0] }, %"struct.xalanc_1_10::FormatterToHTML::Entity" { i16 174, i32 3, [9 x i16] [i16 114, i16 101, i16 103, i16 0, i16 0, i16 0, i16 0, i16 0, i16 0] }, %"struct.xalanc_1_10::FormatterToHTML::Entity" { i16 175, i32 4, [9 x i16] [i16 109, i16 97, i16 99, i16 114, i16 0, i16 0, i16 0, i16 0, i16 0] }, %"struct.xalanc_1_10::FormatterToHTML::Entity" { i16 176, i32 3, [9 x i16] [i16 100, i16 101, i16 103, i16 0, i16 0, i16 0, i16 0, i16 0, i16 0] }, %"struct.xalanc_1_10::FormatterToHTML::Entity" { i16 177, i32 6, [9 x i16] [i16 112, i16 108, i16 117, i16 115, i16 109, i16 110, i16 0, i16 0, i16 0] }, %"struct.xalanc_1_10::FormatterToHTML::Entity" { i16 178, i32 4, [9 x i16] [i16 115, i16 117, i16 112, i16 50, i16 0, i16 0, i16 0, i16 0, i16 0] }, %"struct.xalanc_1_10::FormatterToHTML::Entity" { i16 179, i32 4, [9 x i16] [i16 115, i16 117, i16 112, i16 51, i16 0, i16 0, i16 0, i16 0, i16 0] }, %"struct.xalanc_1_10::FormatterToHTML::Entity" { i16 180, i32 5, [9 x i16] [i16 97, i16 99, i16 117, i16 116, i16 101, i16 0, i16 0, i16 0, i16 0] }, %"struct.xalanc_1_10::FormatterToHTML::Entity" { i16 181, i32 5, [9 x i16] [i16 109, i16 105, i16 99, i16 114, i16 111, i16 0, i16 0, i16 0, i16 0] }, %"struct.xalanc_1_10::FormatterToHTML::Entity" { i16 182, i32 4, [9 x i16] [i16 112, i16 97, i16 114, i16 97, i16 0, i16 0, i16 0, i16 0, i16 0] }, %"struct.xalanc_1_10::FormatterToHTML::Entity" { i16 183, i32 6, [9 x i16] [i16 109, i16 105, i16 100, i16 100, i16 111, i16 116, i16 0, i16 0, i16 0] }, %"struct.xalanc_1_10::FormatterToHTML::Entity" { i16 184, i32 5, [9 x i16] [i16 99, i16 101, i16 100, i16 105, i16 108, i16 0, i16 0, i16 0, i16 0] }, %"struct.xalanc_1_10::FormatterToHTML::Entity" { i16 185, i32 4, [9 x i16] [i16 115, i16 117, i16 112, i16 49, i16 0, i16 0, i16 0, i16 0, i16 0] }, %"struct.xalanc_1_10::FormatterToHTML::Entity" { i16 186, i32 4, [9 x i16] [i16 111, i16 114, i16 100, i16 109, i16 0, i16 0, i16 0, i16 0, i16 0] }, %"struct.xalanc_1_10::FormatterToHTML::Entity" { i16 187, i32 5, [9 x i16] [i16 114, i16 97, i16 113, i16 117, i16 111, i16 0, i16 0, i16 0, i16 0] }, %"struct.xalanc_1_10::FormatterToHTML::Entity" { i16 188, i32 6, [9 x i16] [i16 102, i16 114, i16 97, i16 99, i16 49, i16 52, i16 0, i16 0, i16 0] }, %"struct.xalanc_1_10::FormatterToHTML::Entity" { i16 189, i32 6, [9 x i16] [i16 102, i16 114, i16 97, i16 99, i16 49, i16 50, i16 0, i16 0, i16 0] }, %"struct.xalanc_1_10::FormatterToHTML::Entity" { i16 190, i32 6, [9 x i16] [i16 102, i16 114, i16 97, i16 99, i16 51, i16 52, i16 0, i16 0, i16 0] }, %"struct.xalanc_1_10::FormatterToHTML::Entity" { i16 191, i32 6, [9 x i16] [i16 105, i16 113, i16 117, i16 101, i16 115, i16 116, i16 0, i16 0, i16 0] }, %"struct.xalanc_1_10::FormatterToHTML::Entity" { i16 192, i32 6, [9 x i16] [i16 65, i16 103, i16 114, i16 97, i16 118, i16 101, i16 0, i16 0, i16 0] }, %"struct.xalanc_1_10::FormatterToHTML::Entity" { i16 193, i32 6, [9 x i16] [i16 65, i16 97, i16 99, i16 117, i16 116, i16 101, i16 0, i16 0, i16 0] }, %"struct.xalanc_1_10::FormatterToHTML::Entity" { i16 194, i32 5, [9 x i16] [i16 65, i16 99, i16 105, i16 114, i16 99, i16 0, i16 0, i16 0, i16 0] }, %"struct.xalanc_1_10::FormatterToHTML::Entity" { i16 195, i32 6, [9 x i16] [i16 65, i16 116, i16 105, i16 108, i16 100, i16 101, i16 0, i16 0, i16 0] }, %"struct.xalanc_1_10::FormatterToHTML::Entity" { i16 196, i32 4, [9 x i16] [i16 65, i16 117, i16 109, i16 108, i16 0, i16 0, i16 0, i16 0, i16 0] }, %"struct.xalanc_1_10::FormatterToHTML::Entity" { i16 197, i32 5, [9 x i16] [i16 65, i16 114, i16 105, i16 110, i16 103, i16 0, i16 0, i16 0, i16 0] }, %"struct.xalanc_1_10::FormatterToHTML::Entity" { i16 198, i32 5, [9 x i16] [i16 65, i16 69, i16 108, i16 105, i16 103, i16 0, i16 0, i16 0, i16 0] }, %"struct.xalanc_1_10::FormatterToHTML::Entity" { i16 199, i32 6, [9 x i16] [i16 67, i16 99, i16 101, i16 100, i16 105, i16 108, i16 0, i16 0, i16 0] }, %"struct.xalanc_1_10::FormatterToHTML::Entity" { i16 200, i32 6, [9 x i16] [i16 69, i16 103, i16 114, i16 97, i16 118, i16 101, i16 0, i16 0, i16 0] }, %"struct.xalanc_1_10::FormatterToHTML::Entity" { i16 201, i32 6, [9 x i16] [i16 69, i16 97, i16 99, i16 117, i16 116, i16 101, i16 0, i16 0, i16 0] }, %"struct.xalanc_1_10::FormatterToHTML::Entity" { i16 202, i32 5, [9 x i16] [i16 69, i16 99, i16 105, i16 114, i16 99, i16 0, i16 0, i16 0, i16 0] }, %"struct.xalanc_1_10::FormatterToHTML::Entity" { i16 203, i32 4, [9 x i16] [i16 69, i16 117, i16 109, i16 108, i16 0, i16 0, i16 0, i16 0, i16 0] }, %"struct.xalanc_1_10::FormatterToHTML::Entity" { i16 204, i32 6, [9 x i16] [i16 73, i16 103, i16 114, i16 97, i16 118, i16 101, i16 0, i16 0, i16 0] }, %"struct.xalanc_1_10::FormatterToHTML::Entity" { i16 205, i32 6, [9 x i16] [i16 73, i16 97, i16 99, i16 117, i16 116, i16 101, i16 0, i16 0, i16 0] }, %"struct.xalanc_1_10::FormatterToHTML::Entity" { i16 206, i32 5, [9 x i16] [i16 73, i16 99, i16 105, i16 114, i16 99, i16 0, i16 0, i16 0, i16 0] }, %"struct.xalanc_1_10::FormatterToHTML::Entity" { i16 207, i32 4, [9 x i16] [i16 73, i16 117, i16 109, i16 108, i16 0, i16 0, i16 0, i16 0, i16 0] }, %"struct.xalanc_1_10::FormatterToHTML::Entity" { i16 208, i32 3, [9 x i16] [i16 69, i16 84, i16 72, i16 0, i16 0, i16 0, i16 0, i16 0, i16 0] }, %"struct.xalanc_1_10::FormatterToHTML::Entity" { i16 209, i32 6, [9 x i16] [i16 78, i16 116, i16 105, i16 108, i16 100, i16 101, i16 0, i16 0, i16 0] }, %"struct.xalanc_1_10::FormatterToHTML::Entity" { i16 210, i32 6, [9 x i16] [i16 79, i16 103, i16 114, i16 97, i16 118, i16 101, i16 0, i16 0, i16 0] }, %"struct.xalanc_1_10::FormatterToHTML::Entity" { i16 211, i32 6, [9 x i16] [i16 79, i16 97, i16 99, i16 117, i16 116, i16 101, i16 0, i16 0, i16 0] }, %"struct.xalanc_1_10::FormatterToHTML::Entity" { i16 212, i32 5, [9 x i16] [i16 79, i16 99, i16 105, i16 114, i16 99, i16 0, i16 0, i16 0, i16 0] }, %"struct.xalanc_1_10::FormatterToHTML::Entity" { i16 213, i32 6, [9 x i16] [i16 79, i16 116, i16 105, i16 108, i16 100, i16 101, i16 0, i16 0, i16 0] }, %"struct.xalanc_1_10::FormatterToHTML::Entity" { i16 214, i32 4, [9 x i16] [i16 79, i16 117, i16 109, i16 108, i16 0, i16 0, i16 0, i16 0, i16 0] }, %"struct.xalanc_1_10::FormatterToHTML::Entity" { i16 215, i32 5, [9 x i16] [i16 116, i16 105, i16 109, i16 101, i16 115, i16 0, i16 0, i16 0, i16 0] }, %"struct.xalanc_1_10::FormatterToHTML::Entity" { i16 216, i32 6, [9 x i16] [i16 79, i16 115, i16 108, i16 97, i16 115, i16 104, i16 0, i16 0, i16 0] }, %"struct.xalanc_1_10::FormatterToHTML::Entity" { i16 217, i32 6, [9 x i16] [i16 85, i16 103, i16 114, i16 97, i16 118, i16 101, i16 0, i16 0, i16 0] }, %"struct.xalanc_1_10::FormatterToHTML::Entity" { i16 218, i32 6, [9 x i16] [i16 85, i16 97, i16 99, i16 117, i16 116, i16 101, i16 0, i16 0, i16 0] }, %"struct.xalanc_1_10::FormatterToHTML::Entity" { i16 219, i32 5, [9 x i16] [i16 85, i16 99, i16 105, i16 114, i16 99, i16 0, i16 0, i16 0, i16 0] }, %"struct.xalanc_1_10::FormatterToHTML::Entity" { i16 220, i32 4, [9 x i16] [i16 85, i16 117, i16 109, i16 108, i16 0, i16 0, i16 0, i16 0, i16 0] }, %"struct.xalanc_1_10::FormatterToHTML::Entity" { i16 221, i32 6, [9 x i16] [i16 89, i16 97, i16 99, i16 117, i16 116, i16 101, i16 0, i16 0, i16 0] }, %"struct.xalanc_1_10::FormatterToHTML::Entity" { i16 222, i32 5, [9 x i16] [i16 84, i16 72, i16 79, i16 82, i16 78, i16 0, i16 0, i16 0, i16 0] }, %"struct.xalanc_1_10::FormatterToHTML::Entity" { i16 223, i32 5, [9 x i16] [i16 115, i16 122, i16 108, i16 105, i16 103, i16 0, i16 0, i16 0, i16 0] }, %"struct.xalanc_1_10::FormatterToHTML::Entity" { i16 224, i32 6, [9 x i16] [i16 97, i16 103, i16 114, i16 97, i16 118, i16 101, i16 0, i16 0, i16 0] }, %"struct.xalanc_1_10::FormatterToHTML::Entity" { i16 225, i32 6, [9 x i16] [i16 97, i16 97, i16 99, i16 117, i16 116, i16 101, i16 0, i16 0, i16 0] }, %"struct.xalanc_1_10::FormatterToHTML::Entity" { i16 226, i32 5, [9 x i16] [i16 97, i16 99, i16 105, i16 114, i16 99, i16 0, i16 0, i16 0, i16 0] }, %"struct.xalanc_1_10::FormatterToHTML::Entity" { i16 227, i32 6, [9 x i16] [i16 97, i16 116, i16 105, i16 108, i16 100, i16 101, i16 0, i16 0, i16 0] }, %"struct.xalanc_1_10::FormatterToHTML::Entity" { i16 228, i32 4, [9 x i16] [i16 97, i16 117, i16 109, i16 108, i16 0, i16 0, i16 0, i16 0, i16 0] }, %"struct.xalanc_1_10::FormatterToHTML::Entity" { i16 229, i32 5, [9 x i16] [i16 97, i16 114, i16 105, i16 110, i16 103, i16 0, i16 0, i16 0, i16 0] }, %"struct.xalanc_1_10::FormatterToHTML::Entity" { i16 230, i32 5, [9 x i16] [i16 97, i16 101, i16 108, i16 105, i16 103, i16 0, i16 0, i16 0, i16 0] }, %"struct.xalanc_1_10::FormatterToHTML::Entity" { i16 231, i32 6, [9 x i16] [i16 99, i16 99, i16 101, i16 100, i16 105, i16 108, i16 0, i16 0, i16 0] }, %"struct.xalanc_1_10::FormatterToHTML::Entity" { i16 232, i32 6, [9 x i16] [i16 101, i16 103, i16 114, i16 97, i16 118, i16 101, i16 0, i16 0, i16 0] }, %"struct.xalanc_1_10::FormatterToHTML::Entity" { i16 233, i32 6, [9 x i16] [i16 101, i16 97, i16 99, i16 117, i16 116, i16 101, i16 0, i16 0, i16 0] }, %"struct.xalanc_1_10::FormatterToHTML::Entity" { i16 234, i32 5, [9 x i16] [i16 101, i16 99, i16 105, i16 114, i16 99, i16 0, i16 0, i16 0, i16 0] }, %"struct.xalanc_1_10::FormatterToHTML::Entity" { i16 235, i32 4, [9 x i16] [i16 101, i16 117, i16 109, i16 108, i16 0, i16 0, i16 0, i16 0, i16 0] }, %"struct.xalanc_1_10::FormatterToHTML::Entity" { i16 236, i32 6, [9 x i16] [i16 105, i16 103, i16 114, i16 97, i16 118, i16 101, i16 0, i16 0, i16 0] }, %"struct.xalanc_1_10::FormatterToHTML::Entity" { i16 237, i32 6, [9 x i16] [i16 105, i16 97, i16 99, i16 117, i16 116, i16 101, i16 0, i16 0, i16 0] }, %"struct.xalanc_1_10::FormatterToHTML::Entity" { i16 238, i32 5, [9 x i16] [i16 105, i16 99, i16 105, i16 114, i16 99, i16 0, i16 0, i16 0, i16 0] }, %"struct.xalanc_1_10::FormatterToHTML::Entity" { i16 239, i32 4, [9 x i16] [i16 105, i16 117, i16 109, i16 108, i16 0, i16 0, i16 0, i16 0, i16 0] }, %"struct.xalanc_1_10::FormatterToHTML::Entity" { i16 240, i32 3, [9 x i16] [i16 101, i16 116, i16 104, i16 0, i16 0, i16 0, i16 0, i16 0, i16 0] }, %"struct.xalanc_1_10::FormatterToHTML::Entity" { i16 241, i32 6, [9 x i16] [i16 110, i16 116, i16 105, i16 108, i16 100, i16 101, i16 0, i16 0, i16 0] }, %"struct.xalanc_1_10::FormatterToHTML::Entity" { i16 242, i32 6, [9 x i16] [i16 111, i16 103, i16 114, i16 97, i16 118, i16 101, i16 0, i16 0, i16 0] }, %"struct.xalanc_1_10::FormatterToHTML::Entity" { i16 243, i32 6, [9 x i16] [i16 111, i16 97, i16 99, i16 117, i16 116, i16 101, i16 0, i16 0, i16 0] }, %"struct.xalanc_1_10::FormatterToHTML::Entity" { i16 244, i32 5, [9 x i16] [i16 111, i16 99, i16 105, i16 114, i16 99, i16 0, i16 0, i16 0, i16 0] }, %"struct.xalanc_1_10::FormatterToHTML::Entity" { i16 245, i32 6, [9 x i16] [i16 111, i16 116, i16 105, i16 108, i16 100, i16 101, i16 0, i16 0, i16 0] }, %"struct.xalanc_1_10::FormatterToHTML::Entity" { i16 246, i32 4, [9 x i16] [i16 111, i16 117, i16 109, i16 108, i16 0, i16 0, i16 0, i16 0, i16 0] }, %"struct.xalanc_1_10::FormatterToHTML::Entity" { i16 247, i32 6, [9 x i16] [i16 100, i16 105, i16 118, i16 105, i16 100, i16 101, i16 0, i16 0, i16 0] }, %"struct.xalanc_1_10::FormatterToHTML::Entity" { i16 248, i32 6, [9 x i16] [i16 111, i16 115, i16 108, i16 97, i16 115, i16 104, i16 0, i16 0, i16 0] }, %"struct.xalanc_1_10::FormatterToHTML::Entity" { i16 249, i32 6, [9 x i16] [i16 117, i16 103, i16 114, i16 97, i16 118, i16 101, i16 0, i16 0, i16 0] }, %"struct.xalanc_1_10::FormatterToHTML::Entity" { i16 250, i32 6, [9 x i16] [i16 117, i16 97, i16 99, i16 117, i16 116, i16 101, i16 0, i16 0, i16 0] }, %"struct.xalanc_1_10::FormatterToHTML::Entity" { i16 251, i32 5, [9 x i16] [i16 117, i16 99, i16 105, i16 114, i16 99, i16 0, i16 0, i16 0, i16 0] }, %"struct.xalanc_1_10::FormatterToHTML::Entity" { i16 252, i32 4, [9 x i16] [i16 117, i16 117, i16 109, i16 108, i16 0, i16 0, i16 0, i16 0, i16 0] }, %"struct.xalanc_1_10::FormatterToHTML::Entity" { i16 253, i32 6, [9 x i16] [i16 121, i16 97, i16 99, i16 117, i16 116, i16 101, i16 0, i16 0, i16 0] }, %"struct.xalanc_1_10::FormatterToHTML::Entity" { i16 254, i32 5, [9 x i16] [i16 116, i16 104, i16 111, i16 114, i16 110, i16 0, i16 0, i16 0, i16 0] }, %"struct.xalanc_1_10::FormatterToHTML::Entity" { i16 255, i32 4, [9 x i16] [i16 121, i16 117, i16 109, i16 108, i16 0, i16 0, i16 0, i16 0, i16 0] }, %"struct.xalanc_1_10::FormatterToHTML::Entity" { i16 338, i32 5, [9 x i16] [i16 79, i16 69, i16 108, i16 105, i16 103, i16 0, i16 0, i16 0, i16 0] }, %"struct.xalanc_1_10::FormatterToHTML::Entity" { i16 339, i32 5, [9 x i16] [i16 111, i16 101, i16 108, i16 105, i16 103, i16 0, i16 0, i16 0, i16 0] }, %"struct.xalanc_1_10::FormatterToHTML::Entity" { i16 352, i32 6, [9 x i16] [i16 83, i16 99, i16 97, i16 114, i16 111, i16 110, i16 0, i16 0, i16 0] }, %"struct.xalanc_1_10::FormatterToHTML::Entity" { i16 353, i32 6, [9 x i16] [i16 115, i16 99, i16 97, i16 114, i16 111, i16 110, i16 0, i16 0, i16 0] }, %"struct.xalanc_1_10::FormatterToHTML::Entity" { i16 376, i32 4, [9 x i16] [i16 89, i16 117, i16 109, i16 108, i16 0, i16 0, i16 0, i16 0, i16 0] }, %"struct.xalanc_1_10::FormatterToHTML::Entity" { i16 710, i32 4, [9 x i16] [i16 99, i16 105, i16 114, i16 99, i16 0, i16 0, i16 0, i16 0, i16 0] }, %"struct.xalanc_1_10::FormatterToHTML::Entity" { i16 732, i32 5, [9 x i16] [i16 116, i16 105, i16 108, i16 100, i16 101, i16 0, i16 0, i16 0, i16 0] }, %"struct.xalanc_1_10::FormatterToHTML::Entity" { i16 8194, i32 4, [9 x i16] [i16 101, i16 110, i16 115, i16 112, i16 0, i16 0, i16 0, i16 0, i16 0] }, %"struct.xalanc_1_10::FormatterToHTML::Entity" { i16 8195, i32 4, [9 x i16] [i16 101, i16 109, i16 115, i16 112, i16 0, i16 0, i16 0, i16 0, i16 0] }, %"struct.xalanc_1_10::FormatterToHTML::Entity" { i16 8201, i32 6, [9 x i16] [i16 116, i16 104, i16 105, i16 110, i16 115, i16 112, i16 0, i16 0, i16 0] }, %"struct.xalanc_1_10::FormatterToHTML::Entity" { i16 8204, i32 4, [9 x i16] [i16 122, i16 119, i16 110, i16 106, i16 0, i16 0, i16 0, i16 0, i16 0] }, %"struct.xalanc_1_10::FormatterToHTML::Entity" { i16 8205, i32 3, [9 x i16] [i16 122, i16 119, i16 106, i16 0, i16 0, i16 0, i16 0, i16 0, i16 0] }, %"struct.xalanc_1_10::FormatterToHTML::Entity" { i16 8206, i32 3, [9 x i16] [i16 108, i16 114, i16 109, i16 0, i16 0, i16 0, i16 0, i16 0, i16 0] }, %"struct.xalanc_1_10::FormatterToHTML::Entity" { i16 8207, i32 3, [9 x i16] [i16 114, i16 108, i16 109, i16 0, i16 0, i16 0, i16 0, i16 0, i16 0] }, %"struct.xalanc_1_10::FormatterToHTML::Entity" { i16 8211, i32 5, [9 x i16] [i16 110, i16 100, i16 97, i16 115, i16 104, i16 0, i16 0, i16 0, i16 0] }, %"struct.xalanc_1_10::FormatterToHTML::Entity" { i16 8212, i32 5, [9 x i16] [i16 109, i16 100, i16 97, i16 115, i16 104, i16 0, i16 0, i16 0, i16 0] }, %"struct.xalanc_1_10::FormatterToHTML::Entity" { i16 8216, i32 5, [9 x i16] [i16 108, i16 115, i16 113, i16 117, i16 111, i16 0, i16 0, i16 0, i16 0] }, %"struct.xalanc_1_10::FormatterToHTML::Entity" { i16 8217, i32 5, [9 x i16] [i16 114, i16 115, i16 113, i16 117, i16 111, i16 0, i16 0, i16 0, i16 0] }, %"struct.xalanc_1_10::FormatterToHTML::Entity" { i16 8218, i32 5, [9 x i16] [i16 115, i16 98, i16 113, i16 117, i16 111, i16 0, i16 0, i16 0, i16 0] }, %"struct.xalanc_1_10::FormatterToHTML::Entity" { i16 8220, i32 5, [9 x i16] [i16 108, i16 100, i16 113, i16 117, i16 111, i16 0, i16 0, i16 0, i16 0] }, %"struct.xalanc_1_10::FormatterToHTML::Entity" { i16 8221, i32 5, [9 x i16] [i16 114, i16 100, i16 113, i16 117, i16 111, i16 0, i16 0, i16 0, i16 0] }, %"struct.xalanc_1_10::FormatterToHTML::Entity" { i16 8222, i32 5, [9 x i16] [i16 98, i16 100, i16 113, i16 117, i16 111, i16 0, i16 0, i16 0, i16 0] }, %"struct.xalanc_1_10::FormatterToHTML::Entity" { i16 8224, i32 6, [9 x i16] [i16 100, i16 97, i16 103, i16 103, i16 101, i16 114, i16 0, i16 0, i16 0] }, %"struct.xalanc_1_10::FormatterToHTML::Entity" { i16 8225, i32 6, [9 x i16] [i16 68, i16 97, i16 103, i16 103, i16 101, i16 114, i16 0, i16 0, i16 0] }, %"struct.xalanc_1_10::FormatterToHTML::Entity" { i16 8226, i32 4, [9 x i16] [i16 98, i16 117, i16 108, i16 108, i16 0, i16 0, i16 0, i16 0, i16 0] }, %"struct.xalanc_1_10::FormatterToHTML::Entity" { i16 8230, i32 6, [9 x i16] [i16 104, i16 101, i16 108, i16 108, i16 105, i16 112, i16 0, i16 0, i16 0] }, %"struct.xalanc_1_10::FormatterToHTML::Entity" { i16 8240, i32 6, [9 x i16] [i16 112, i16 101, i16 114, i16 109, i16 105, i16 108, i16 0, i16 0, i16 0] }, %"struct.xalanc_1_10::FormatterToHTML::Entity" { i16 8242, i32 5, [9 x i16] [i16 112, i16 114, i16 105, i16 109, i16 101, i16 0, i16 0, i16 0, i16 0] }, %"struct.xalanc_1_10::FormatterToHTML::Entity" { i16 8243, i32 5, [9 x i16] [i16 80, i16 114, i16 105, i16 109, i16 101, i16 0, i16 0, i16 0, i16 0] }, %"struct.xalanc_1_10::FormatterToHTML::Entity" { i16 8249, i32 6, [9 x i16] [i16 108, i16 115, i16 97, i16 113, i16 117, i16 111, i16 0, i16 0, i16 0] }, %"struct.xalanc_1_10::FormatterToHTML::Entity" { i16 8250, i32 6, [9 x i16] [i16 114, i16 115, i16 97, i16 113, i16 117, i16 111, i16 0, i16 0, i16 0] }, %"struct.xalanc_1_10::FormatterToHTML::Entity" { i16 8254, i32 5, [9 x i16] [i16 111, i16 108, i16 105, i16 110, i16 101, i16 0, i16 0, i16 0, i16 0] }, %"struct.xalanc_1_10::FormatterToHTML::Entity" { i16 8260, i32 5, [9 x i16] [i16 102, i16 114, i16 97, i16 115, i16 108, i16 0, i16 0, i16 0, i16 0] }, %"struct.xalanc_1_10::FormatterToHTML::Entity" { i16 8364, i32 4, [9 x i16] [i16 101, i16 117, i16 114, i16 111, i16 0, i16 0, i16 0, i16 0, i16 0] }, %"struct.xalanc_1_10::FormatterToHTML::Entity" { i16 8465, i32 5, [9 x i16] [i16 105, i16 109, i16 97, i16 103, i16 101, i16 0, i16 0, i16 0, i16 0] }, %"struct.xalanc_1_10::FormatterToHTML::Entity" { i16 8472, i32 6, [9 x i16] [i16 119, i16 101, i16 105, i16 101, i16 114, i16 112, i16 0, i16 0, i16 0] }, %"struct.xalanc_1_10::FormatterToHTML::Entity" { i16 8476, i32 4, [9 x i16] [i16 114, i16 101, i16 97, i16 108, i16 0, i16 0, i16 0, i16 0, i16 0] }, %"struct.xalanc_1_10::FormatterToHTML::Entity" { i16 8482, i32 5, [9 x i16] [i16 116, i16 114, i16 97, i16 100, i16 101, i16 0, i16 0, i16 0, i16 0] }, %"struct.xalanc_1_10::FormatterToHTML::Entity" { i16 8501, i32 7, [9 x i16] [i16 97, i16 108, i16 101, i16 102, i16 115, i16 121, i16 109, i16 0, i16 0] }, %"struct.xalanc_1_10::FormatterToHTML::Entity" { i16 8592, i32 4, [9 x i16] [i16 108, i16 97, i16 114, i16 114, i16 0, i16 0, i16 0, i16 0, i16 0] }, %"struct.xalanc_1_10::FormatterToHTML::Entity" { i16 8593, i32 4, [9 x i16] [i16 117, i16 97, i16 114, i16 114, i16 0, i16 0, i16 0, i16 0, i16 0] }, %"struct.xalanc_1_10::FormatterToHTML::Entity" { i16 8594, i32 4, [9 x i16] [i16 114, i16 97, i16 114, i16 114, i16 0, i16 0, i16 0, i16 0, i16 0] }, %"struct.xalanc_1_10::FormatterToHTML::Entity" { i16 8595, i32 4, [9 x i16] [i16 100, i16 97, i16 114, i16 114, i16 0, i16 0, i16 0, i16 0, i16 0] }, %"struct.xalanc_1_10::FormatterToHTML::Entity" { i16 8596, i32 4, [9 x i16] [i16 104, i16 97, i16 114, i16 114, i16 0, i16 0, i16 0, i16 0, i16 0] }, %"struct.xalanc_1_10::FormatterToHTML::Entity" { i16 8629, i32 5, [9 x i16] [i16 99, i16 114, i16 97, i16 114, i16 114, i16 0, i16 0, i16 0, i16 0] }, %"struct.xalanc_1_10::FormatterToHTML::Entity" { i16 8656, i32 4, [9 x i16] [i16 108, i16 65, i16 114, i16 114, i16 0, i16 0, i16 0, i16 0, i16 0] }, %"struct.xalanc_1_10::FormatterToHTML::Entity" { i16 8657, i32 4, [9 x i16] [i16 117, i16 65, i16 114, i16 114, i16 0, i16 0, i16 0, i16 0, i16 0] }, %"struct.xalanc_1_10::FormatterToHTML::Entity" { i16 8658, i32 4, [9 x i16] [i16 114, i16 65, i16 114, i16 114, i16 0, i16 0, i16 0, i16 0, i16 0] }, %"struct.xalanc_1_10::FormatterToHTML::Entity" { i16 8659, i32 4, [9 x i16] [i16 100, i16 65, i16 114, i16 114, i16 0, i16 0, i16 0, i16 0, i16 0] }, %"struct.xalanc_1_10::FormatterToHTML::Entity" { i16 8660, i32 4, [9 x i16] [i16 104, i16 65, i16 114, i16 114, i16 0, i16 0, i16 0, i16 0, i16 0] }, %"struct.xalanc_1_10::FormatterToHTML::Entity" { i16 8704, i32 6, [9 x i16] [i16 102, i16 111, i16 114, i16 97, i16 108, i16 108, i16 0, i16 0, i16 0] }, %"struct.xalanc_1_10::FormatterToHTML::Entity" { i16 8706, i32 4, [9 x i16] [i16 112, i16 97, i16 114, i16 116, i16 0, i16 0, i16 0, i16 0, i16 0] }, %"struct.xalanc_1_10::FormatterToHTML::Entity" { i16 8707, i32 5, [9 x i16] [i16 101, i16 120, i16 105, i16 115, i16 116, i16 0, i16 0, i16 0, i16 0] }, %"struct.xalanc_1_10::FormatterToHTML::Entity" { i16 8709, i32 5, [9 x i16] [i16 101, i16 109, i16 112, i16 116, i16 121, i16 0, i16 0, i16 0, i16 0] }, %"struct.xalanc_1_10::FormatterToHTML::Entity" { i16 8711, i32 5, [9 x i16] [i16 110, i16 97, i16 98, i16 108, i16 97, i16 0, i16 0, i16 0, i16 0] }, %"struct.xalanc_1_10::FormatterToHTML::Entity" { i16 8712, i32 4, [9 x i16] [i16 105, i16 115, i16 105, i16 110, i16 0, i16 0, i16 0, i16 0, i16 0] }, %"struct.xalanc_1_10::FormatterToHTML::Entity" { i16 8713, i32 5, [9 x i16] [i16 110, i16 111, i16 116, i16 105, i16 110, i16 0, i16 0, i16 0, i16 0] }, %"struct.xalanc_1_10::FormatterToHTML::Entity" { i16 8715, i32 2, [9 x i16] [i16 110, i16 105, i16 0, i16 0, i16 0, i16 0, i16 0, i16 0, i16 0] }, %"struct.xalanc_1_10::FormatterToHTML::Entity" { i16 8719, i32 4, [9 x i16] [i16 112, i16 114, i16 111, i16 100, i16 0, i16 0, i16 0, i16 0, i16 0] }, %"struct.xalanc_1_10::FormatterToHTML::Entity" { i16 8721, i32 3, [9 x i16] [i16 115, i16 117, i16 109, i16 0, i16 0, i16 0, i16 0, i16 0, i16 0] }, %"struct.xalanc_1_10::FormatterToHTML::Entity" { i16 8722, i32 5, [9 x i16] [i16 109, i16 105, i16 110, i16 117, i16 115, i16 0, i16 0, i16 0, i16 0] }, %"struct.xalanc_1_10::FormatterToHTML::Entity" { i16 8727, i32 6, [9 x i16] [i16 108, i16 111, i16 119, i16 97, i16 115, i16 116, i16 0, i16 0, i16 0] }, %"struct.xalanc_1_10::FormatterToHTML::Entity" { i16 8730, i32 5, [9 x i16] [i16 114, i16 97, i16 100, i16 105, i16 99, i16 0, i16 0, i16 0, i16 0] }, %"struct.xalanc_1_10::FormatterToHTML::Entity" { i16 8733, i32 4, [9 x i16] [i16 112, i16 114, i16 111, i16 112, i16 0, i16 0, i16 0, i16 0, i16 0] }, %"struct.xalanc_1_10::FormatterToHTML::Entity" { i16 8734, i32 5, [9 x i16] [i16 105, i16 110, i16 102, i16 105, i16 110, i16 0, i16 0, i16 0, i16 0] }, %"struct.xalanc_1_10::FormatterToHTML::Entity" { i16 8736, i32 3, [9 x i16] [i16 97, i16 110, i16 103, i16 0, i16 0, i16 0, i16 0, i16 0, i16 0] }, %"struct.xalanc_1_10::FormatterToHTML::Entity" { i16 8743, i32 3, [9 x i16] [i16 97, i16 110, i16 100, i16 0, i16 0, i16 0, i16 0, i16 0, i16 0] }, %"struct.xalanc_1_10::FormatterToHTML::Entity" { i16 8744, i32 2, [9 x i16] [i16 111, i16 114, i16 0, i16 0, i16 0, i16 0, i16 0, i16 0, i16 0] }, %"struct.xalanc_1_10::FormatterToHTML::Entity" { i16 8745, i32 3, [9 x i16] [i16 99, i16 97, i16 112, i16 0, i16 0, i16 0, i16 0, i16 0, i16 0] }, %"struct.xalanc_1_10::FormatterToHTML::Entity" { i16 8746, i32 3, [9 x i16] [i16 99, i16 117, i16 112, i16 0, i16 0, i16 0, i16 0, i16 0, i16 0] }, %"struct.xalanc_1_10::FormatterToHTML::Entity" { i16 8747, i32 3, [9 x i16] [i16 105, i16 110, i16 116, i16 0, i16 0, i16 0, i16 0, i16 0, i16 0] }, %"struct.xalanc_1_10::FormatterToHTML::Entity" { i16 8756, i32 6, [9 x i16] [i16 116, i16 104, i16 101, i16 114, i16 101, i16 52, i16 0, i16 0, i16 0] }, %"struct.xalanc_1_10::FormatterToHTML::Entity" { i16 8764, i32 3, [9 x i16] [i16 115, i16 105, i16 109, i16 0, i16 0, i16 0, i16 0, i16 0, i16 0] }, %"struct.xalanc_1_10::FormatterToHTML::Entity" { i16 8773, i32 4, [9 x i16] [i16 99, i16 111, i16 110, i16 103, i16 0, i16 0, i16 0, i16 0, i16 0] }, %"struct.xalanc_1_10::FormatterToHTML::Entity" { i16 8776, i32 5, [9 x i16] [i16 97, i16 115, i16 121, i16 109, i16 112, i16 0, i16 0, i16 0, i16 0] }, %"struct.xalanc_1_10::FormatterToHTML::Entity" { i16 8800, i32 2, [9 x i16] [i16 110, i16 101, i16 0, i16 0, i16 0, i16 0, i16 0, i16 0, i16 0] }, %"struct.xalanc_1_10::FormatterToHTML::Entity" { i16 8801, i32 5, [9 x i16] [i16 101, i16 113, i16 117, i16 105, i16 118, i16 0, i16 0, i16 0, i16 0] }, %"struct.xalanc_1_10::FormatterToHTML::Entity" { i16 8804, i32 2, [9 x i16] [i16 108, i16 101, i16 0, i16 0, i16 0, i16 0, i16 0, i16 0, i16 0] }, %"struct.xalanc_1_10::FormatterToHTML::Entity" { i16 8805, i32 2, [9 x i16] [i16 103, i16 101, i16 0, i16 0, i16 0, i16 0, i16 0, i16 0, i16 0] }, %"struct.xalanc_1_10::FormatterToHTML::Entity" { i16 8834, i32 3, [9 x i16] [i16 115, i16 117, i16 98, i16 0, i16 0, i16 0, i16 0, i16 0, i16 0] }, %"struct.xalanc_1_10::FormatterToHTML::Entity" { i16 8835, i32 3, [9 x i16] [i16 115, i16 117, i16 112, i16 0, i16 0, i16 0, i16 0, i16 0, i16 0] }, %"struct.xalanc_1_10::FormatterToHTML::Entity" { i16 8836, i32 4, [9 x i16] [i16 110, i16 115, i16 117, i16 98, i16 0, i16 0, i16 0, i16 0, i16 0] }, %"struct.xalanc_1_10::FormatterToHTML::Entity" { i16 8838, i32 4, [9 x i16] [i16 115, i16 117, i16 98, i16 101, i16 0, i16 0, i16 0, i16 0, i16 0] }, %"struct.xalanc_1_10::FormatterToHTML::Entity" { i16 8839, i32 4, [9 x i16] [i16 115, i16 117, i16 112, i16 101, i16 0, i16 0, i16 0, i16 0, i16 0] }, %"struct.xalanc_1_10::FormatterToHTML::Entity" { i16 8853, i32 5, [9 x i16] [i16 111, i16 112, i16 108, i16 117, i16 115, i16 0, i16 0, i16 0, i16 0] }, %"struct.xalanc_1_10::FormatterToHTML::Entity" { i16 8855, i32 6, [9 x i16] [i16 111, i16 116, i16 105, i16 109, i16 101, i16 115, i16 0, i16 0, i16 0] }, %"struct.xalanc_1_10::FormatterToHTML::Entity" { i16 8869, i32 4, [9 x i16] [i16 112, i16 101, i16 114, i16 112, i16 0, i16 0, i16 0, i16 0, i16 0] }, %"struct.xalanc_1_10::FormatterToHTML::Entity" { i16 8901, i32 4, [9 x i16] [i16 115, i16 100, i16 111, i16 116, i16 0, i16 0, i16 0, i16 0, i16 0] }, %"struct.xalanc_1_10::FormatterToHTML::Entity" { i16 8968, i32 5, [9 x i16] [i16 108, i16 99, i16 101, i16 105, i16 108, i16 0, i16 0, i16 0, i16 0] }, %"struct.xalanc_1_10::FormatterToHTML::Entity" { i16 8969, i32 5, [9 x i16] [i16 114, i16 99, i16 101, i16 105, i16 108, i16 0, i16 0, i16 0, i16 0] }, %"struct.xalanc_1_10::FormatterToHTML::Entity" { i16 8970, i32 6, [9 x i16] [i16 108, i16 102, i16 108, i16 111, i16 111, i16 114, i16 0, i16 0, i16 0] }, %"struct.xalanc_1_10::FormatterToHTML::Entity" { i16 8971, i32 6, [9 x i16] [i16 114, i16 102, i16 108, i16 111, i16 111, i16 114, i16 0, i16 0, i16 0] }, %"struct.xalanc_1_10::FormatterToHTML::Entity" { i16 9001, i32 4, [9 x i16] [i16 108, i16 97, i16 110, i16 103, i16 0, i16 0, i16 0, i16 0, i16 0] }, %"struct.xalanc_1_10::FormatterToHTML::Entity" { i16 9002, i32 4, [9 x i16] [i16 114, i16 97, i16 110, i16 103, i16 0, i16 0, i16 0, i16 0, i16 0] }, %"struct.xalanc_1_10::FormatterToHTML::Entity" { i16 9674, i32 3, [9 x i16] [i16 108, i16 111, i16 122, i16 0, i16 0, i16 0, i16 0, i16 0, i16 0] }, %"struct.xalanc_1_10::FormatterToHTML::Entity" { i16 9824, i32 6, [9 x i16] [i16 115, i16 112, i16 97, i16 100, i16 101, i16 115, i16 0, i16 0, i16 0] }, %"struct.xalanc_1_10::FormatterToHTML::Entity" { i16 9827, i32 5, [9 x i16] [i16 99, i16 108, i16 117, i16 98, i16 115, i16 0, i16 0, i16 0, i16 0] }, %"struct.xalanc_1_10::FormatterToHTML::Entity" { i16 9829, i32 6, [9 x i16] [i16 104, i16 101, i16 97, i16 114, i16 116, i16 115, i16 0, i16 0, i16 0] }, %"struct.xalanc_1_10::FormatterToHTML::Entity" { i16 9830, i32 5, [9 x i16] [i16 100, i16 105, i16 97, i16 109, i16 115, i16 0, i16 0, i16 0, i16 0] }], align 16, !dbg !1356
@_ZN11xalanc_1_1015FormatterToHTML12s_lastEntityE = dso_local constant %"struct.xalanc_1_10::FormatterToHTML::Entity"* bitcast (i8* getelementptr (i8, i8* bitcast ([195 x %"struct.xalanc_1_10::FormatterToHTML::Entity"]* @_ZN11xalanc_1_1015FormatterToHTML10s_entitiesE to i8*), i64 5432) to %"struct.xalanc_1_10::FormatterToHTML::Entity"*), align 8, !dbg !1361
@_ZN11xalanc_1_1015FormatterToHTML26s_doctypeHeaderStartStringE = dso_local constant [15 x i16] [i16 60, i16 33, i16 68, i16 79, i16 67, i16 84, i16 89, i16 80, i16 69, i16 32, i16 72, i16 84, i16 77, i16 76, i16 0], align 16, !dbg !1363
@_ZN11xalanc_1_1015FormatterToHTML32s_doctypeHeaderStartStringLengthE = dso_local constant i32 14, align 4, !dbg !1368
@_ZN11xalanc_1_1015FormatterToHTML27s_doctypeHeaderPublicStringE = dso_local constant [10 x i16] [i16 32, i16 80, i16 85, i16 66, i16 76, i16 73, i16 67, i16 32, i16 34, i16 0], align 16, !dbg !1370
@_ZN11xalanc_1_1015FormatterToHTML33s_doctypeHeaderPublicStringLengthE = dso_local constant i32 9, align 4, !dbg !1375
@_ZN11xalanc_1_1015FormatterToHTML27s_doctypeHeaderSystemStringE = dso_local constant [8 x i16] [i16 32, i16 83, i16 89, i16 83, i16 84, i16 69, i16 77, i16 0], align 16, !dbg !1377
@_ZN11xalanc_1_1015FormatterToHTML33s_doctypeHeaderSystemStringLengthE = dso_local constant i32 7, align 4, !dbg !1382
@_ZN11xalanc_1_1015FormatterToHTML12s_metaStringE = dso_local constant [61 x i16] [i16 60, i16 77, i16 69, i16 84, i16 65, i16 32, i16 104, i16 116, i16 116, i16 112, i16 45, i16 101, i16 113, i16 117, i16 105, i16 118, i16 61, i16 34, i16 67, i16 111, i16 110, i16 116, i16 101, i16 110, i16 116, i16 45, i16 84, i16 121, i16 112, i16 101, i16 34, i16 32, i16 99, i16 111, i16 110, i16 116, i16 101, i16 110, i16 116, i16 61, i16 34, i16 116, i16 101, i16 120, i16 116, i16 47, i16 104, i16 116, i16 109, i16 108, i16 59, i16 32, i16 99, i16 104, i16 97, i16 114, i16 115, i16 101, i16 116, i16 61, i16 0], align 16, !dbg !1384
@_ZN11xalanc_1_1015FormatterToHTML18s_metaStringLengthE = dso_local constant i32 60, align 4, !dbg !1389
@_ZTVN10__cxxabiv120__si_class_type_infoE = external dso_local global i8*
@_ZTSN11xalanc_1_1015FormatterToHTMLE = dso_local constant [33 x i8] c"N11xalanc_1_1015FormatterToHTMLE\00", align 1
@_ZTIN11xalanc_1_1014FormatterToXMLE = external dso_local constant i8*
@_ZTIN11xalanc_1_1015FormatterToHTMLE = dso_local constant { i8*, i8*, i8* } { i8* bitcast (i8** getelementptr inbounds (i8*, i8** @_ZTVN10__cxxabiv120__si_class_type_infoE, i64 2) to i8*), i8* getelementptr inbounds ([33 x i8], [33 x i8]* @_ZTSN11xalanc_1_1015FormatterToHTMLE, i32 0, i32 0), i8* bitcast (i8** @_ZTIN11xalanc_1_1014FormatterToXMLE to i8*) }, align 8
@_ZN11xalanc_1_1012XalanXMLChar15theUnicodeTableE = external dso_local constant [0 x i8], align 1
@_ZN11xalanc_1_1014XalanDOMString7s_emptyE = external dso_local constant i16, align 2
@llvm.global_ctors = appending global [1 x { i32, void ()*, i8* }] [{ i32, void ()*, i8* } { i32 65535, void ()* @_GLOBAL__sub_I_FormatterToHTML.cpp, i8* null }]

@_ZN11xalanc_1_1015FormatterToHTMLC1ERNS_6WriterERKNS_14XalanDOMStringES5_S5_S5_bibbRN11xercesc_2_713MemoryManagerE = dso_local unnamed_addr alias void (%"class.xalanc_1_10::FormatterToHTML"*, %"class.xalanc_1_10::Writer"*, %"class.xalanc_1_10::XalanDOMString"*, %"class.xalanc_1_10::XalanDOMString"*, %"class.xalanc_1_10::XalanDOMString"*, %"class.xalanc_1_10::XalanDOMString"*, i1, i32, i1, i1, %"class.xercesc_2_7::MemoryManager"*), void (%"class.xalanc_1_10::FormatterToHTML"*, %"class.xalanc_1_10::Writer"*, %"class.xalanc_1_10::XalanDOMString"*, %"class.xalanc_1_10::XalanDOMString"*, %"class.xalanc_1_10::XalanDOMString"*, %"class.xalanc_1_10::XalanDOMString"*, i1, i32, i1, i1, %"class.xercesc_2_7::MemoryManager"*)* @_ZN11xalanc_1_1015FormatterToHTMLC2ERNS_6WriterERKNS_14XalanDOMStringES5_S5_S5_bibbRN11xercesc_2_713MemoryManagerE
@_ZN11xalanc_1_1015FormatterToHTMLD1Ev = dso_local unnamed_addr alias void (%"class.xalanc_1_10::FormatterToHTML"*), void (%"class.xalanc_1_10::FormatterToHTML"*)* @_ZN11xalanc_1_1015FormatterToHTMLD2Ev

; Function Attrs: noinline uwtable
define internal void @__cxx_global_var_init() #0 section ".text.startup" !dbg !2584 {
entry:
  %call = call dereferenceable(8) %"class.xercesc_2_7::MemoryManager"* @_ZN11xalanc_1_1012XalanMemMgrs14getDummyMemMgrEv(), !dbg !2585
  call void @_ZN11xalanc_1_1014XalanDOMStringC1ERN11xercesc_2_713MemoryManagerE(%"class.xalanc_1_10::XalanDOMString"* @_ZN11xalanc_1_1015FormatterToHTML13s_emptyStringE, %"class.xercesc_2_7::MemoryManager"* dereferenceable(8) %call), !dbg !2586
  %0 = call i32 @__cxa_atexit(void (i8*)* bitcast (void (%"class.xalanc_1_10::XalanDOMString"*)* @_ZN11xalanc_1_1014XalanDOMStringD2Ev to void (i8*)*), i8* bitcast (%"class.xalanc_1_10::XalanDOMString"* @_ZN11xalanc_1_1015FormatterToHTML13s_emptyStringE to i8*), i8* @__dso_handle) #3, !dbg !2586
  ret void, !dbg !2585
}

declare dso_local dereferenceable(8) %"class.xercesc_2_7::MemoryManager"* @_ZN11xalanc_1_1012XalanMemMgrs14getDummyMemMgrEv() #1

declare dso_local void @_ZN11xalanc_1_1014XalanDOMStringC1ERN11xercesc_2_713MemoryManagerE(%"class.xalanc_1_10::XalanDOMString"*, %"class.xercesc_2_7::MemoryManager"* dereferenceable(8)) unnamed_addr #1

; Function Attrs: noinline nounwind uwtable
define linkonce_odr dso_local void @_ZN11xalanc_1_1014XalanDOMStringD2Ev(%"class.xalanc_1_10::XalanDOMString"* %this) unnamed_addr #2 comdat align 2 !dbg !2587 {
entry:
  %this.addr = alloca %"class.xalanc_1_10::XalanDOMString"*, align 8
  store %"class.xalanc_1_10::XalanDOMString"* %this, %"class.xalanc_1_10::XalanDOMString"** %this.addr, align 8
  call void @llvm.dbg.declare(metadata %"class.xalanc_1_10::XalanDOMString"** %this.addr, metadata !2588, metadata !DIExpression()), !dbg !2589
  %this1 = load %"class.xalanc_1_10::XalanDOMString"*, %"class.xalanc_1_10::XalanDOMString"** %this.addr, align 8
  %m_data = getelementptr inbounds %"class.xalanc_1_10::XalanDOMString", %"class.xalanc_1_10::XalanDOMString"* %this1, i32 0, i32 0, !dbg !2590
  call void @_ZN11xalanc_1_1011XalanVectorItNS_31MemoryManagedConstructionTraitsItEEED2Ev(%"class.xalanc_1_10::XalanVector"* %m_data) #3, !dbg !2590
  ret void, !dbg !2592
}

; Function Attrs: nounwind
declare dso_local i32 @__cxa_atexit(void (i8*)*, i8*, i8*) #3

; Function Attrs: noinline uwtable
define dso_local void @_ZN11xalanc_1_1015FormatterToHTMLC2ERNS_6WriterERKNS_14XalanDOMStringES5_S5_S5_bibbRN11xercesc_2_713MemoryManagerE(%"class.xalanc_1_10::FormatterToHTML"* %this, %"class.xalanc_1_10::Writer"* dereferenceable(8) %writer, %"class.xalanc_1_10::XalanDOMString"* dereferenceable(40) %encoding, %"class.xalanc_1_10::XalanDOMString"* dereferenceable(40) %mediaType, %"class.xalanc_1_10::XalanDOMString"* dereferenceable(40) %doctypeSystem, %"class.xalanc_1_10::XalanDOMString"* dereferenceable(40) %doctypePublic, i1 zeroext %doIndent, i32 %indent, i1 zeroext %escapeURLs, i1 zeroext %omitMetaTag, %"class.xercesc_2_7::MemoryManager"* dereferenceable(8) %theManager) unnamed_addr #0 align 2 personality i8* bitcast (i32 (...)* @__gxx_personality_v0 to i8*) !dbg !2593 {
entry:
  %this.addr = alloca %"class.xalanc_1_10::FormatterToHTML"*, align 8
  %writer.addr = alloca %"class.xalanc_1_10::Writer"*, align 8
  %encoding.addr = alloca %"class.xalanc_1_10::XalanDOMString"*, align 8
  %mediaType.addr = alloca %"class.xalanc_1_10::XalanDOMString"*, align 8
  %doctypeSystem.addr = alloca %"class.xalanc_1_10::XalanDOMString"*, align 8
  %doctypePublic.addr = alloca %"class.xalanc_1_10::XalanDOMString"*, align 8
  %doIndent.addr = alloca i8, align 1
  %indent.addr = alloca i32, align 4
  %escapeURLs.addr = alloca i8, align 1
  %omitMetaTag.addr = alloca i8, align 1
  %theManager.addr = alloca %"class.xercesc_2_7::MemoryManager"*, align 8
  %exn.slot = alloca i8*
  %ehselector.slot = alloca i32
  store %"class.xalanc_1_10::FormatterToHTML"* %this, %"class.xalanc_1_10::FormatterToHTML"** %this.addr, align 8
  call void @llvm.dbg.declare(metadata %"class.xalanc_1_10::FormatterToHTML"** %this.addr, metadata !2594, metadata !DIExpression()), !dbg !2595
  store %"class.xalanc_1_10::Writer"* %writer, %"class.xalanc_1_10::Writer"** %writer.addr, align 8
  call void @llvm.dbg.declare(metadata %"class.xalanc_1_10::Writer"** %writer.addr, metadata !2596, metadata !DIExpression()), !dbg !2597
  store %"class.xalanc_1_10::XalanDOMString"* %encoding, %"class.xalanc_1_10::XalanDOMString"** %encoding.addr, align 8
  call void @llvm.dbg.declare(metadata %"class.xalanc_1_10::XalanDOMString"** %encoding.addr, metadata !2598, metadata !DIExpression()), !dbg !2599
  store %"class.xalanc_1_10::XalanDOMString"* %mediaType, %"class.xalanc_1_10::XalanDOMString"** %mediaType.addr, align 8
  call void @llvm.dbg.declare(metadata %"class.xalanc_1_10::XalanDOMString"** %mediaType.addr, metadata !2600, metadata !DIExpression()), !dbg !2601
  store %"class.xalanc_1_10::XalanDOMString"* %doctypeSystem, %"class.xalanc_1_10::XalanDOMString"** %doctypeSystem.addr, align 8
  call void @llvm.dbg.declare(metadata %"class.xalanc_1_10::XalanDOMString"** %doctypeSystem.addr, metadata !2602, metadata !DIExpression()), !dbg !2603
  store %"class.xalanc_1_10::XalanDOMString"* %doctypePublic, %"class.xalanc_1_10::XalanDOMString"** %doctypePublic.addr, align 8
  call void @llvm.dbg.declare(metadata %"class.xalanc_1_10::XalanDOMString"** %doctypePublic.addr, metadata !2604, metadata !DIExpression()), !dbg !2605
  %frombool = zext i1 %doIndent to i8
  store i8 %frombool, i8* %doIndent.addr, align 1
  call void @llvm.dbg.declare(metadata i8* %doIndent.addr, metadata !2606, metadata !DIExpression()), !dbg !2607
  store i32 %indent, i32* %indent.addr, align 4
  call void @llvm.dbg.declare(metadata i32* %indent.addr, metadata !2608, metadata !DIExpression()), !dbg !2609
  %frombool1 = zext i1 %escapeURLs to i8
  store i8 %frombool1, i8* %escapeURLs.addr, align 1
  call void @llvm.dbg.declare(metadata i8* %escapeURLs.addr, metadata !2610, metadata !DIExpression()), !dbg !2611
  %frombool2 = zext i1 %omitMetaTag to i8
  store i8 %frombool2, i8* %omitMetaTag.addr, align 1
  call void @llvm.dbg.declare(metadata i8* %omitMetaTag.addr, metadata !2612, metadata !DIExpression()), !dbg !2613
  store %"class.xercesc_2_7::MemoryManager"* %theManager, %"class.xercesc_2_7::MemoryManager"** %theManager.addr, align 8
  call void @llvm.dbg.declare(metadata %"class.xercesc_2_7::MemoryManager"** %theManager.addr, metadata !2614, metadata !DIExpression()), !dbg !2615
  %this3 = load %"class.xalanc_1_10::FormatterToHTML"*, %"class.xalanc_1_10::FormatterToHTML"** %this.addr, align 8
  %0 = bitcast %"class.xalanc_1_10::FormatterToHTML"* %this3 to %"class.xalanc_1_10::FormatterToXML"*, !dbg !2616
  %1 = load %"class.xalanc_1_10::Writer"*, %"class.xalanc_1_10::Writer"** %writer.addr, align 8, !dbg !2617
  %2 = load i8, i8* %doIndent.addr, align 1, !dbg !2618
  %tobool = trunc i8 %2 to i1, !dbg !2618
  %3 = load i32, i32* %indent.addr, align 4, !dbg !2619
  %4 = load %"class.xalanc_1_10::XalanDOMString"*, %"class.xalanc_1_10::XalanDOMString"** %encoding.addr, align 8, !dbg !2620
  %5 = load %"class.xalanc_1_10::XalanDOMString"*, %"class.xalanc_1_10::XalanDOMString"** %mediaType.addr, align 8, !dbg !2621
  %6 = load %"class.xalanc_1_10::XalanDOMString"*, %"class.xalanc_1_10::XalanDOMString"** %doctypeSystem.addr, align 8, !dbg !2622
  %7 = load %"class.xalanc_1_10::XalanDOMString"*, %"class.xalanc_1_10::XalanDOMString"** %doctypePublic.addr, align 8, !dbg !2623
  %8 = load %"class.xercesc_2_7::MemoryManager"*, %"class.xercesc_2_7::MemoryManager"** %theManager.addr, align 8, !dbg !2624
  call void @_ZN11xalanc_1_1014FormatterToXMLC2ERNS_6WriterERKNS_14XalanDOMStringEbiS5_S5_S5_S5_bS5_NS_17FormatterListener7eFormatEbRN11xercesc_2_713MemoryManagerE(%"class.xalanc_1_10::FormatterToXML"* %0, %"class.xalanc_1_10::Writer"* dereferenceable(8) %1, %"class.xalanc_1_10::XalanDOMString"* dereferenceable(40) @_ZN11xalanc_1_1015FormatterToHTML13s_emptyStringE, i1 zeroext %tobool, i32 %3, %"class.xalanc_1_10::XalanDOMString"* dereferenceable(40) %4, %"class.xalanc_1_10::XalanDOMString"* dereferenceable(40) %5, %"class.xalanc_1_10::XalanDOMString"* dereferenceable(40) %6, %"class.xalanc_1_10::XalanDOMString"* dereferenceable(40) %7, i1 zeroext false, %"class.xalanc_1_10::XalanDOMString"* dereferenceable(40) @_ZN11xalanc_1_1015FormatterToHTML13s_emptyStringE, i32 2, i1 zeroext true, %"class.xercesc_2_7::MemoryManager"* dereferenceable(8) %8), !dbg !2625
  %9 = bitcast %"class.xalanc_1_10::FormatterToHTML"* %this3 to i32 (...)***, !dbg !2616
  store i32 (...)** bitcast (i8** getelementptr inbounds ({ [28 x i8*] }, { [28 x i8*] }* @_ZTVN11xalanc_1_1015FormatterToHTMLE, i32 0, inrange i32 0, i32 2) to i32 (...)**), i32 (...)*** %9, align 8, !dbg !2616
  %m_currentElementName = getelementptr inbounds %"class.xalanc_1_10::FormatterToHTML", %"class.xalanc_1_10::FormatterToHTML"* %this3, i32 0, i32 2, !dbg !2626
  %10 = load %"class.xercesc_2_7::MemoryManager"*, %"class.xercesc_2_7::MemoryManager"** %theManager.addr, align 8, !dbg !2627
  invoke void @_ZN11xalanc_1_1014XalanDOMStringC1ERN11xercesc_2_713MemoryManagerE(%"class.xalanc_1_10::XalanDOMString"* %m_currentElementName, %"class.xercesc_2_7::MemoryManager"* dereferenceable(8) %10)
          to label %invoke.cont unwind label %lpad, !dbg !2626

invoke.cont:                                      ; preds = %entry
  %m_inBlockElem = getelementptr inbounds %"class.xalanc_1_10::FormatterToHTML", %"class.xalanc_1_10::FormatterToHTML"* %this3, i32 0, i32 3, !dbg !2628
  store i8 0, i8* %m_inBlockElem, align 8, !dbg !2628
  %m_isRawStack = getelementptr inbounds %"class.xalanc_1_10::FormatterToHTML", %"class.xalanc_1_10::FormatterToHTML"* %this3, i32 0, i32 4, !dbg !2629
  %11 = load %"class.xercesc_2_7::MemoryManager"*, %"class.xercesc_2_7::MemoryManager"** %theManager.addr, align 8, !dbg !2630
  invoke void @_ZN11xalanc_1_1011XalanVectorIbNS_31MemoryManagedConstructionTraitsIbEEEC2ERN11xercesc_2_713MemoryManagerEm(%"class.xalanc_1_10::XalanVector.0"* %m_isRawStack, %"class.xercesc_2_7::MemoryManager"* dereferenceable(8) %11, i64 0)
          to label %invoke.cont5 unwind label %lpad4, !dbg !2629

invoke.cont5:                                     ; preds = %invoke.cont
  %m_isScriptOrStyleElem = getelementptr inbounds %"class.xalanc_1_10::FormatterToHTML", %"class.xalanc_1_10::FormatterToHTML"* %this3, i32 0, i32 5, !dbg !2631
  store i8 0, i8* %m_isScriptOrStyleElem, align 8, !dbg !2631
  %m_inScriptElemStack = getelementptr inbounds %"class.xalanc_1_10::FormatterToHTML", %"class.xalanc_1_10::FormatterToHTML"* %this3, i32 0, i32 6, !dbg !2632
  %12 = load %"class.xercesc_2_7::MemoryManager"*, %"class.xercesc_2_7::MemoryManager"** %theManager.addr, align 8, !dbg !2633
  invoke void @_ZN11xalanc_1_1011XalanVectorIbNS_31MemoryManagedConstructionTraitsIbEEEC2ERN11xercesc_2_713MemoryManagerEm(%"class.xalanc_1_10::XalanVector.0"* %m_inScriptElemStack, %"class.xercesc_2_7::MemoryManager"* dereferenceable(8) %12, i64 0)
          to label %invoke.cont7 unwind label %lpad6, !dbg !2632

invoke.cont7:                                     ; preds = %invoke.cont5
  %m_escapeURLs = getelementptr inbounds %"class.xalanc_1_10::FormatterToHTML", %"class.xalanc_1_10::FormatterToHTML"* %this3, i32 0, i32 7, !dbg !2634
  %13 = load i8, i8* %escapeURLs.addr, align 1, !dbg !2635
  %tobool8 = trunc i8 %13 to i1, !dbg !2635
  %frombool9 = zext i1 %tobool8 to i8, !dbg !2634
  store i8 %frombool9, i8* %m_escapeURLs, align 8, !dbg !2634
  %m_isFirstElement = getelementptr inbounds %"class.xalanc_1_10::FormatterToHTML", %"class.xalanc_1_10::FormatterToHTML"* %this3, i32 0, i32 8, !dbg !2636
  store i8 0, i8* %m_isFirstElement, align 1, !dbg !2636
  %m_isUTF8 = getelementptr inbounds %"class.xalanc_1_10::FormatterToHTML", %"class.xalanc_1_10::FormatterToHTML"* %this3, i32 0, i32 9, !dbg !2637
  %14 = bitcast %"class.xalanc_1_10::FormatterToHTML"* %this3 to %"class.xalanc_1_10::FormatterToXML"*, !dbg !2638
  %m_encoding = getelementptr inbounds %"class.xalanc_1_10::FormatterToXML", %"class.xalanc_1_10::FormatterToXML"* %14, i32 0, i32 19, !dbg !2638
  %call = invoke zeroext i1 @_ZN11xalanc_1_1024XalanTranscodingServices14encodingIsUTF8ERKNS_14XalanDOMStringE(%"class.xalanc_1_10::XalanDOMString"* dereferenceable(40) %m_encoding)
          to label %invoke.cont11 unwind label %lpad10, !dbg !2639

invoke.cont11:                                    ; preds = %invoke.cont7
  %frombool12 = zext i1 %call to i8, !dbg !2637
  store i8 %frombool12, i8* %m_isUTF8, align 2, !dbg !2637
  %m_elementLevel = getelementptr inbounds %"class.xalanc_1_10::FormatterToHTML", %"class.xalanc_1_10::FormatterToHTML"* %this3, i32 0, i32 10, !dbg !2640
  store i32 0, i32* %m_elementLevel, align 4, !dbg !2640
  %m_hasNamespaceStack = getelementptr inbounds %"class.xalanc_1_10::FormatterToHTML", %"class.xalanc_1_10::FormatterToHTML"* %this3, i32 0, i32 11, !dbg !2641
  %15 = load %"class.xercesc_2_7::MemoryManager"*, %"class.xercesc_2_7::MemoryManager"** %theManager.addr, align 8, !dbg !2642
  invoke void @_ZN11xalanc_1_1011XalanVectorIbNS_31MemoryManagedConstructionTraitsIbEEEC2ERN11xercesc_2_713MemoryManagerEm(%"class.xalanc_1_10::XalanVector.0"* %m_hasNamespaceStack, %"class.xercesc_2_7::MemoryManager"* dereferenceable(8) %15, i64 0)
          to label %invoke.cont13 unwind label %lpad10, !dbg !2641

invoke.cont13:                                    ; preds = %invoke.cont11
  %m_omitMetaTag = getelementptr inbounds %"class.xalanc_1_10::FormatterToHTML", %"class.xalanc_1_10::FormatterToHTML"* %this3, i32 0, i32 12, !dbg !2643
  %16 = load i8, i8* %omitMetaTag.addr, align 1, !dbg !2644
  %tobool14 = trunc i8 %16 to i1, !dbg !2644
  %frombool15 = zext i1 %tobool14 to i8, !dbg !2643
  store i8 %frombool15, i8* %m_omitMetaTag, align 8, !dbg !2643
  %m_elementPropertiesStack = getelementptr inbounds %"class.xalanc_1_10::FormatterToHTML", %"class.xalanc_1_10::FormatterToHTML"* %this3, i32 0, i32 13, !dbg !2645
  %17 = load %"class.xercesc_2_7::MemoryManager"*, %"class.xercesc_2_7::MemoryManager"** %theManager.addr, align 8, !dbg !2646
  invoke void @_ZN11xalanc_1_1011XalanVectorINS_27XalanHTMLElementsProperties17ElementPropertiesENS_31MemoryManagedConstructionTraitsIS2_EEEC2ERN11xercesc_2_713MemoryManagerEm(%"class.xalanc_1_10::XalanVector.2"* %m_elementPropertiesStack, %"class.xercesc_2_7::MemoryManager"* dereferenceable(8) %17, i64 0)
          to label %invoke.cont17 unwind label %lpad16, !dbg !2645

invoke.cont17:                                    ; preds = %invoke.cont13
  invoke void @_ZN11xalanc_1_1015FormatterToHTML12initCharsMapEv(%"class.xalanc_1_10::FormatterToHTML"* %this3)
          to label %invoke.cont19 unwind label %lpad18, !dbg !2647

invoke.cont19:                                    ; preds = %invoke.cont17
  %18 = bitcast %"class.xalanc_1_10::FormatterToHTML"* %this3 to %"class.xalanc_1_10::FormatterToXML"*, !dbg !2649
  %m_shouldWriteXMLHeader = getelementptr inbounds %"class.xalanc_1_10::FormatterToXML", %"class.xalanc_1_10::FormatterToXML"* %18, i32 0, i32 6, !dbg !2649
  store i8 0, i8* %m_shouldWriteXMLHeader, align 2, !dbg !2650
  ret void, !dbg !2651

lpad:                                             ; preds = %entry
  %19 = landingpad { i8*, i32 }
          cleanup, !dbg !2651
  %20 = extractvalue { i8*, i32 } %19, 0, !dbg !2651
  store i8* %20, i8** %exn.slot, align 8, !dbg !2651
  %21 = extractvalue { i8*, i32 } %19, 1, !dbg !2651
  store i32 %21, i32* %ehselector.slot, align 4, !dbg !2651
  br label %ehcleanup23, !dbg !2651

lpad4:                                            ; preds = %invoke.cont
  %22 = landingpad { i8*, i32 }
          cleanup, !dbg !2651
  %23 = extractvalue { i8*, i32 } %22, 0, !dbg !2651
  store i8* %23, i8** %exn.slot, align 8, !dbg !2651
  %24 = extractvalue { i8*, i32 } %22, 1, !dbg !2651
  store i32 %24, i32* %ehselector.slot, align 4, !dbg !2651
  br label %ehcleanup22, !dbg !2651

lpad6:                                            ; preds = %invoke.cont5
  %25 = landingpad { i8*, i32 }
          cleanup, !dbg !2651
  %26 = extractvalue { i8*, i32 } %25, 0, !dbg !2651
  store i8* %26, i8** %exn.slot, align 8, !dbg !2651
  %27 = extractvalue { i8*, i32 } %25, 1, !dbg !2651
  store i32 %27, i32* %ehselector.slot, align 4, !dbg !2651
  br label %ehcleanup21, !dbg !2651

lpad10:                                           ; preds = %invoke.cont11, %invoke.cont7
  %28 = landingpad { i8*, i32 }
          cleanup, !dbg !2651
  %29 = extractvalue { i8*, i32 } %28, 0, !dbg !2651
  store i8* %29, i8** %exn.slot, align 8, !dbg !2651
  %30 = extractvalue { i8*, i32 } %28, 1, !dbg !2651
  store i32 %30, i32* %ehselector.slot, align 4, !dbg !2651
  br label %ehcleanup20, !dbg !2651

lpad16:                                           ; preds = %invoke.cont13
  %31 = landingpad { i8*, i32 }
          cleanup, !dbg !2651
  %32 = extractvalue { i8*, i32 } %31, 0, !dbg !2651
  store i8* %32, i8** %exn.slot, align 8, !dbg !2651
  %33 = extractvalue { i8*, i32 } %31, 1, !dbg !2651
  store i32 %33, i32* %ehselector.slot, align 4, !dbg !2651
  br label %ehcleanup, !dbg !2651

lpad18:                                           ; preds = %invoke.cont17
  %34 = landingpad { i8*, i32 }
          cleanup, !dbg !2652
  %35 = extractvalue { i8*, i32 } %34, 0, !dbg !2652
  store i8* %35, i8** %exn.slot, align 8, !dbg !2652
  %36 = extractvalue { i8*, i32 } %34, 1, !dbg !2652
  store i32 %36, i32* %ehselector.slot, align 4, !dbg !2652
  call void @_ZN11xalanc_1_1011XalanVectorINS_27XalanHTMLElementsProperties17ElementPropertiesENS_31MemoryManagedConstructionTraitsIS2_EEED2Ev(%"class.xalanc_1_10::XalanVector.2"* %m_elementPropertiesStack) #3, !dbg !2652
  br label %ehcleanup, !dbg !2652

ehcleanup:                                        ; preds = %lpad18, %lpad16
  call void @_ZN11xalanc_1_1011XalanVectorIbNS_31MemoryManagedConstructionTraitsIbEEED2Ev(%"class.xalanc_1_10::XalanVector.0"* %m_hasNamespaceStack) #3, !dbg !2652
  br label %ehcleanup20, !dbg !2652

ehcleanup20:                                      ; preds = %ehcleanup, %lpad10
  call void @_ZN11xalanc_1_1011XalanVectorIbNS_31MemoryManagedConstructionTraitsIbEEED2Ev(%"class.xalanc_1_10::XalanVector.0"* %m_inScriptElemStack) #3, !dbg !2652
  br label %ehcleanup21, !dbg !2652

ehcleanup21:                                      ; preds = %ehcleanup20, %lpad6
  call void @_ZN11xalanc_1_1011XalanVectorIbNS_31MemoryManagedConstructionTraitsIbEEED2Ev(%"class.xalanc_1_10::XalanVector.0"* %m_isRawStack) #3, !dbg !2652
  br label %ehcleanup22, !dbg !2652

ehcleanup22:                                      ; preds = %ehcleanup21, %lpad4
  call void @_ZN11xalanc_1_1014XalanDOMStringD2Ev(%"class.xalanc_1_10::XalanDOMString"* %m_currentElementName) #3, !dbg !2652
  br label %ehcleanup23, !dbg !2652

ehcleanup23:                                      ; preds = %ehcleanup22, %lpad
  %37 = bitcast %"class.xalanc_1_10::FormatterToHTML"* %this3 to %"class.xalanc_1_10::FormatterToXML"*, !dbg !2652
  call void @_ZN11xalanc_1_1014FormatterToXMLD2Ev(%"class.xalanc_1_10::FormatterToXML"* %37) #3, !dbg !2652
  br label %eh.resume, !dbg !2652

eh.resume:                                        ; preds = %ehcleanup23
  %exn = load i8*, i8** %exn.slot, align 8, !dbg !2652
  %sel = load i32, i32* %ehselector.slot, align 4, !dbg !2652
  %lpad.val = insertvalue { i8*, i32 } undef, i8* %exn, 0, !dbg !2652
  %lpad.val24 = insertvalue { i8*, i32 } %lpad.val, i32 %sel, 1, !dbg !2652
  resume { i8*, i32 } %lpad.val24, !dbg !2652
}

; Function Attrs: nounwind readnone speculatable willreturn
declare void @llvm.dbg.declare(metadata, metadata, metadata) #4

declare dso_local void @_ZN11xalanc_1_1014FormatterToXMLC2ERNS_6WriterERKNS_14XalanDOMStringEbiS5_S5_S5_S5_bS5_NS_17FormatterListener7eFormatEbRN11xercesc_2_713MemoryManagerE(%"class.xalanc_1_10::FormatterToXML"*, %"class.xalanc_1_10::Writer"* dereferenceable(8), %"class.xalanc_1_10::XalanDOMString"* dereferenceable(40), i1 zeroext, i32, %"class.xalanc_1_10::XalanDOMString"* dereferenceable(40), %"class.xalanc_1_10::XalanDOMString"* dereferenceable(40), %"class.xalanc_1_10::XalanDOMString"* dereferenceable(40), %"class.xalanc_1_10::XalanDOMString"* dereferenceable(40), i1 zeroext, %"class.xalanc_1_10::XalanDOMString"* dereferenceable(40), i32, i1 zeroext, %"class.xercesc_2_7::MemoryManager"* dereferenceable(8)) unnamed_addr #1

declare dso_local i32 @__gxx_personality_v0(...)

; Function Attrs: noinline uwtable
define linkonce_odr dso_local void @_ZN11xalanc_1_1011XalanVectorIbNS_31MemoryManagedConstructionTraitsIbEEEC2ERN11xercesc_2_713MemoryManagerEm(%"class.xalanc_1_10::XalanVector.0"* %this, %"class.xercesc_2_7::MemoryManager"* dereferenceable(8) %theManager, i64 %initialAllocation) unnamed_addr #0 comdat align 2 !dbg !2653 {
entry:
  %this.addr = alloca %"class.xalanc_1_10::XalanVector.0"*, align 8
  %theManager.addr = alloca %"class.xercesc_2_7::MemoryManager"*, align 8
  %initialAllocation.addr = alloca i64, align 8
  store %"class.xalanc_1_10::XalanVector.0"* %this, %"class.xalanc_1_10::XalanVector.0"** %this.addr, align 8
  call void @llvm.dbg.declare(metadata %"class.xalanc_1_10::XalanVector.0"** %this.addr, metadata !2654, metadata !DIExpression()), !dbg !2655
  store %"class.xercesc_2_7::MemoryManager"* %theManager, %"class.xercesc_2_7::MemoryManager"** %theManager.addr, align 8
  call void @llvm.dbg.declare(metadata %"class.xercesc_2_7::MemoryManager"** %theManager.addr, metadata !2656, metadata !DIExpression()), !dbg !2657
  store i64 %initialAllocation, i64* %initialAllocation.addr, align 8
  call void @llvm.dbg.declare(metadata i64* %initialAllocation.addr, metadata !2658, metadata !DIExpression()), !dbg !2659
  %this1 = load %"class.xalanc_1_10::XalanVector.0"*, %"class.xalanc_1_10::XalanVector.0"** %this.addr, align 8
  %m_memoryManager = getelementptr inbounds %"class.xalanc_1_10::XalanVector.0", %"class.xalanc_1_10::XalanVector.0"* %this1, i32 0, i32 0, !dbg !2660
  %0 = load %"class.xercesc_2_7::MemoryManager"*, %"class.xercesc_2_7::MemoryManager"** %theManager.addr, align 8, !dbg !2661
  store %"class.xercesc_2_7::MemoryManager"* %0, %"class.xercesc_2_7::MemoryManager"** %m_memoryManager, align 8, !dbg !2660
  %m_size = getelementptr inbounds %"class.xalanc_1_10::XalanVector.0", %"class.xalanc_1_10::XalanVector.0"* %this1, i32 0, i32 1, !dbg !2662
  store i64 0, i64* %m_size, align 8, !dbg !2662
  %m_allocation = getelementptr inbounds %"class.xalanc_1_10::XalanVector.0", %"class.xalanc_1_10::XalanVector.0"* %this1, i32 0, i32 2, !dbg !2663
  %1 = load i64, i64* %initialAllocation.addr, align 8, !dbg !2664
  store i64 %1, i64* %m_allocation, align 8, !dbg !2663
  %m_data = getelementptr inbounds %"class.xalanc_1_10::XalanVector.0", %"class.xalanc_1_10::XalanVector.0"* %this1, i32 0, i32 3, !dbg !2665
  %2 = load i64, i64* %initialAllocation.addr, align 8, !dbg !2666
  %cmp = icmp ugt i64 %2, 0, !dbg !2667
  br i1 %cmp, label %cond.true, label %cond.false, !dbg !2666

cond.true:                                        ; preds = %entry
  %3 = load i64, i64* %initialAllocation.addr, align 8, !dbg !2668
  %call = call i8* @_ZN11xalanc_1_1011XalanVectorIbNS_31MemoryManagedConstructionTraitsIbEEE8allocateEm(%"class.xalanc_1_10::XalanVector.0"* %this1, i64 %3), !dbg !2669
  br label %cond.end, !dbg !2666

cond.false:                                       ; preds = %entry
  br label %cond.end, !dbg !2666

cond.end:                                         ; preds = %cond.false, %cond.true
  %cond = phi i8* [ %call, %cond.true ], [ null, %cond.false ], !dbg !2666
  store i8* %cond, i8** %m_data, align 8, !dbg !2665
  call void @_ZNK11xalanc_1_1011XalanVectorIbNS_31MemoryManagedConstructionTraitsIbEEE10invariantsEv(%"class.xalanc_1_10::XalanVector.0"* %this1), !dbg !2670
  ret void, !dbg !2672
}

declare dso_local zeroext i1 @_ZN11xalanc_1_1024XalanTranscodingServices14encodingIsUTF8ERKNS_14XalanDOMStringE(%"class.xalanc_1_10::XalanDOMString"* dereferenceable(40)) #1

; Function Attrs: noinline uwtable
define linkonce_odr dso_local void @_ZN11xalanc_1_1011XalanVectorINS_27XalanHTMLElementsProperties17ElementPropertiesENS_31MemoryManagedConstructionTraitsIS2_EEEC2ERN11xercesc_2_713MemoryManagerEm(%"class.xalanc_1_10::XalanVector.2"* %this, %"class.xercesc_2_7::MemoryManager"* dereferenceable(8) %theManager, i64 %initialAllocation) unnamed_addr #0 comdat align 2 !dbg !2673 {
entry:
  %this.addr = alloca %"class.xalanc_1_10::XalanVector.2"*, align 8
  %theManager.addr = alloca %"class.xercesc_2_7::MemoryManager"*, align 8
  %initialAllocation.addr = alloca i64, align 8
  store %"class.xalanc_1_10::XalanVector.2"* %this, %"class.xalanc_1_10::XalanVector.2"** %this.addr, align 8
  call void @llvm.dbg.declare(metadata %"class.xalanc_1_10::XalanVector.2"** %this.addr, metadata !2674, metadata !DIExpression()), !dbg !2675
  store %"class.xercesc_2_7::MemoryManager"* %theManager, %"class.xercesc_2_7::MemoryManager"** %theManager.addr, align 8
  call void @llvm.dbg.declare(metadata %"class.xercesc_2_7::MemoryManager"** %theManager.addr, metadata !2676, metadata !DIExpression()), !dbg !2677
  store i64 %initialAllocation, i64* %initialAllocation.addr, align 8
  call void @llvm.dbg.declare(metadata i64* %initialAllocation.addr, metadata !2678, metadata !DIExpression()), !dbg !2679
  %this1 = load %"class.xalanc_1_10::XalanVector.2"*, %"class.xalanc_1_10::XalanVector.2"** %this.addr, align 8
  %m_memoryManager = getelementptr inbounds %"class.xalanc_1_10::XalanVector.2", %"class.xalanc_1_10::XalanVector.2"* %this1, i32 0, i32 0, !dbg !2680
  %0 = load %"class.xercesc_2_7::MemoryManager"*, %"class.xercesc_2_7::MemoryManager"** %theManager.addr, align 8, !dbg !2681
  store %"class.xercesc_2_7::MemoryManager"* %0, %"class.xercesc_2_7::MemoryManager"** %m_memoryManager, align 8, !dbg !2680
  %m_size = getelementptr inbounds %"class.xalanc_1_10::XalanVector.2", %"class.xalanc_1_10::XalanVector.2"* %this1, i32 0, i32 1, !dbg !2682
  store i64 0, i64* %m_size, align 8, !dbg !2682
  %m_allocation = getelementptr inbounds %"class.xalanc_1_10::XalanVector.2", %"class.xalanc_1_10::XalanVector.2"* %this1, i32 0, i32 2, !dbg !2683
  %1 = load i64, i64* %initialAllocation.addr, align 8, !dbg !2684
  store i64 %1, i64* %m_allocation, align 8, !dbg !2683
  %m_data = getelementptr inbounds %"class.xalanc_1_10::XalanVector.2", %"class.xalanc_1_10::XalanVector.2"* %this1, i32 0, i32 3, !dbg !2685
  %2 = load i64, i64* %initialAllocation.addr, align 8, !dbg !2686
  %cmp = icmp ugt i64 %2, 0, !dbg !2687
  br i1 %cmp, label %cond.true, label %cond.false, !dbg !2686

cond.true:                                        ; preds = %entry
  %3 = load i64, i64* %initialAllocation.addr, align 8, !dbg !2688
  %call = call %"class.xalanc_1_10::XalanHTMLElementsProperties::ElementProperties"* @_ZN11xalanc_1_1011XalanVectorINS_27XalanHTMLElementsProperties17ElementPropertiesENS_31MemoryManagedConstructionTraitsIS2_EEE8allocateEm(%"class.xalanc_1_10::XalanVector.2"* %this1, i64 %3), !dbg !2689
  br label %cond.end, !dbg !2686

cond.false:                                       ; preds = %entry
  br label %cond.end, !dbg !2686

cond.end:                                         ; preds = %cond.false, %cond.true
  %cond = phi %"class.xalanc_1_10::XalanHTMLElementsProperties::ElementProperties"* [ %call, %cond.true ], [ null, %cond.false ], !dbg !2686
  store %"class.xalanc_1_10::XalanHTMLElementsProperties::ElementProperties"* %cond, %"class.xalanc_1_10::XalanHTMLElementsProperties::ElementProperties"** %m_data, align 8, !dbg !2685
  call void @_ZNK11xalanc_1_1011XalanVectorINS_27XalanHTMLElementsProperties17ElementPropertiesENS_31MemoryManagedConstructionTraitsIS2_EEE10invariantsEv(%"class.xalanc_1_10::XalanVector.2"* %this1), !dbg !2690
  ret void, !dbg !2692
}

; Function Attrs: noinline uwtable
define dso_local void @_ZN11xalanc_1_1015FormatterToHTML12initCharsMapEv(%"class.xalanc_1_10::FormatterToHTML"* %this) #0 align 2 !dbg !2693 {
entry:
  %this.addr = alloca %"class.xalanc_1_10::FormatterToHTML"*, align 8
  %i = alloca i32, align 4
  %j = alloca i32, align 4
  store %"class.xalanc_1_10::FormatterToHTML"* %this, %"class.xalanc_1_10::FormatterToHTML"** %this.addr, align 8
  call void @llvm.dbg.declare(metadata %"class.xalanc_1_10::FormatterToHTML"** %this.addr, metadata !2694, metadata !DIExpression()), !dbg !2695
  %this1 = load %"class.xalanc_1_10::FormatterToHTML"*, %"class.xalanc_1_10::FormatterToHTML"** %this.addr, align 8
  call void @_ZN11xalanc_1_1015FormatterToHTML16initAttrCharsMapEv(%"class.xalanc_1_10::FormatterToHTML"* %this1), !dbg !2696
  %0 = bitcast %"class.xalanc_1_10::FormatterToHTML"* %this1 to %"class.xalanc_1_10::FormatterToXML"*, !dbg !2697
  %m_charsMap = getelementptr inbounds %"class.xalanc_1_10::FormatterToXML", %"class.xalanc_1_10::FormatterToXML"* %0, i32 0, i32 5, !dbg !2697
  %arraydecay = getelementptr inbounds [256 x i16], [256 x i16]* %m_charsMap, i64 0, i64 0, !dbg !2698
  %1 = bitcast i16* %arraydecay to i8*, !dbg !2698
  call void @llvm.memset.p0i8.i64(i8* align 2 %1, i8 0, i64 512, i1 false), !dbg !2698
  %2 = bitcast %"class.xalanc_1_10::FormatterToHTML"* %this1 to %"class.xalanc_1_10::FormatterToXML"*, !dbg !2699
  %m_charsMap2 = getelementptr inbounds %"class.xalanc_1_10::FormatterToXML", %"class.xalanc_1_10::FormatterToXML"* %2, i32 0, i32 5, !dbg !2699
  %arrayidx = getelementptr inbounds [256 x i16], [256 x i16]* %m_charsMap2, i64 0, i64 10, !dbg !2699
  store i16 83, i16* %arrayidx, align 2, !dbg !2700
  %3 = bitcast %"class.xalanc_1_10::FormatterToHTML"* %this1 to %"class.xalanc_1_10::FormatterToXML"*, !dbg !2701
  %m_charsMap3 = getelementptr inbounds %"class.xalanc_1_10::FormatterToXML", %"class.xalanc_1_10::FormatterToXML"* %3, i32 0, i32 5, !dbg !2701
  %arrayidx4 = getelementptr inbounds [256 x i16], [256 x i16]* %m_charsMap3, i64 0, i64 60, !dbg !2701
  store i16 83, i16* %arrayidx4, align 2, !dbg !2702
  %4 = bitcast %"class.xalanc_1_10::FormatterToHTML"* %this1 to %"class.xalanc_1_10::FormatterToXML"*, !dbg !2703
  %m_charsMap5 = getelementptr inbounds %"class.xalanc_1_10::FormatterToXML", %"class.xalanc_1_10::FormatterToXML"* %4, i32 0, i32 5, !dbg !2703
  %arrayidx6 = getelementptr inbounds [256 x i16], [256 x i16]* %m_charsMap5, i64 0, i64 62, !dbg !2703
  store i16 83, i16* %arrayidx6, align 2, !dbg !2704
  %5 = bitcast %"class.xalanc_1_10::FormatterToHTML"* %this1 to %"class.xalanc_1_10::FormatterToXML"*, !dbg !2705
  %m_charsMap7 = getelementptr inbounds %"class.xalanc_1_10::FormatterToXML", %"class.xalanc_1_10::FormatterToXML"* %5, i32 0, i32 5, !dbg !2705
  %arrayidx8 = getelementptr inbounds [256 x i16], [256 x i16]* %m_charsMap7, i64 0, i64 38, !dbg !2705
  store i16 83, i16* %arrayidx8, align 2, !dbg !2706
  %6 = bitcast %"class.xalanc_1_10::FormatterToHTML"* %this1 to %"class.xalanc_1_10::FormatterToXML"*, !dbg !2707
  %m_charsMap9 = getelementptr inbounds %"class.xalanc_1_10::FormatterToXML", %"class.xalanc_1_10::FormatterToXML"* %6, i32 0, i32 5, !dbg !2707
  %arraydecay10 = getelementptr inbounds [256 x i16], [256 x i16]* %m_charsMap9, i64 0, i64 0, !dbg !2708
  %7 = bitcast i16* %arraydecay10 to i8*, !dbg !2708
  call void @llvm.memset.p0i8.i64(i8* align 2 %7, i8 83, i64 10, i1 false), !dbg !2708
  %8 = bitcast %"class.xalanc_1_10::FormatterToHTML"* %this1 to %"class.xalanc_1_10::FormatterToXML"*, !dbg !2709
  %m_charsMap11 = getelementptr inbounds %"class.xalanc_1_10::FormatterToXML", %"class.xalanc_1_10::FormatterToXML"* %8, i32 0, i32 5, !dbg !2709
  %arrayidx12 = getelementptr inbounds [256 x i16], [256 x i16]* %m_charsMap11, i64 0, i64 10, !dbg !2709
  store i16 83, i16* %arrayidx12, align 2, !dbg !2710
  %9 = bitcast %"class.xalanc_1_10::FormatterToHTML"* %this1 to %"class.xalanc_1_10::FormatterToXML"*, !dbg !2711
  %m_charsMap13 = getelementptr inbounds %"class.xalanc_1_10::FormatterToXML", %"class.xalanc_1_10::FormatterToXML"* %9, i32 0, i32 5, !dbg !2711
  %arrayidx14 = getelementptr inbounds [256 x i16], [256 x i16]* %m_charsMap13, i64 0, i64 13, !dbg !2711
  store i16 83, i16* %arrayidx14, align 2, !dbg !2712
  call void @llvm.dbg.declare(metadata i32* %i, metadata !2713, metadata !DIExpression()), !dbg !2715
  store i32 160, i32* %i, align 4, !dbg !2715
  br label %for.cond, !dbg !2716

for.cond:                                         ; preds = %for.inc, %entry
  %10 = load i32, i32* %i, align 4, !dbg !2717
  %cmp = icmp slt i32 %10, 256, !dbg !2719
  br i1 %cmp, label %for.body, label %for.end, !dbg !2720

for.body:                                         ; preds = %for.cond
  %11 = bitcast %"class.xalanc_1_10::FormatterToHTML"* %this1 to %"class.xalanc_1_10::FormatterToXML"*, !dbg !2721
  %m_charsMap15 = getelementptr inbounds %"class.xalanc_1_10::FormatterToXML", %"class.xalanc_1_10::FormatterToXML"* %11, i32 0, i32 5, !dbg !2721
  %12 = load i32, i32* %i, align 4, !dbg !2723
  %idxprom = sext i32 %12 to i64, !dbg !2721
  %arrayidx16 = getelementptr inbounds [256 x i16], [256 x i16]* %m_charsMap15, i64 0, i64 %idxprom, !dbg !2721
  store i16 83, i16* %arrayidx16, align 2, !dbg !2724
  br label %for.inc, !dbg !2725

for.inc:                                          ; preds = %for.body
  %13 = load i32, i32* %i, align 4, !dbg !2726
  %inc = add nsw i32 %13, 1, !dbg !2726
  store i32 %inc, i32* %i, align 4, !dbg !2726
  br label %for.cond, !dbg !2727, !llvm.loop !2728

for.end:                                          ; preds = %for.cond
  call void @llvm.dbg.declare(metadata i32* %j, metadata !2730, metadata !DIExpression()), !dbg !2732
  %14 = bitcast %"class.xalanc_1_10::FormatterToHTML"* %this1 to %"class.xalanc_1_10::FormatterToXML"*, !dbg !2733
  %m_maxCharacter = getelementptr inbounds %"class.xalanc_1_10::FormatterToXML", %"class.xalanc_1_10::FormatterToXML"* %14, i32 0, i32 3, !dbg !2733
  %15 = load i16, i16* %m_maxCharacter, align 8, !dbg !2733
  %conv = zext i16 %15 to i32, !dbg !2733
  store i32 %conv, i32* %j, align 4, !dbg !2732
  br label %for.cond17, !dbg !2734

for.cond17:                                       ; preds = %for.inc23, %for.end
  %16 = load i32, i32* %j, align 4, !dbg !2735
  %cmp18 = icmp slt i32 %16, 256, !dbg !2737
  br i1 %cmp18, label %for.body19, label %for.end25, !dbg !2738

for.body19:                                       ; preds = %for.cond17
  %17 = bitcast %"class.xalanc_1_10::FormatterToHTML"* %this1 to %"class.xalanc_1_10::FormatterToXML"*, !dbg !2739
  %m_charsMap20 = getelementptr inbounds %"class.xalanc_1_10::FormatterToXML", %"class.xalanc_1_10::FormatterToXML"* %17, i32 0, i32 5, !dbg !2739
  %18 = load i32, i32* %j, align 4, !dbg !2741
  %idxprom21 = sext i32 %18 to i64, !dbg !2739
  %arrayidx22 = getelementptr inbounds [256 x i16], [256 x i16]* %m_charsMap20, i64 0, i64 %idxprom21, !dbg !2739
  store i16 83, i16* %arrayidx22, align 2, !dbg !2742
  br label %for.inc23, !dbg !2743

for.inc23:                                        ; preds = %for.body19
  %19 = load i32, i32* %j, align 4, !dbg !2744
  %inc24 = add nsw i32 %19, 1, !dbg !2744
  store i32 %inc24, i32* %j, align 4, !dbg !2744
  br label %for.cond17, !dbg !2745, !llvm.loop !2746

for.end25:                                        ; preds = %for.cond17
  ret void, !dbg !2748
}

; Function Attrs: noinline nounwind uwtable
define linkonce_odr dso_local void @_ZN11xalanc_1_1011XalanVectorINS_27XalanHTMLElementsProperties17ElementPropertiesENS_31MemoryManagedConstructionTraitsIS2_EEED2Ev(%"class.xalanc_1_10::XalanVector.2"* %this) unnamed_addr #2 comdat align 2 personality i8* bitcast (i32 (...)* @__gxx_personality_v0 to i8*) !dbg !2749 {
entry:
  %this.addr = alloca %"class.xalanc_1_10::XalanVector.2"*, align 8
  store %"class.xalanc_1_10::XalanVector.2"* %this, %"class.xalanc_1_10::XalanVector.2"** %this.addr, align 8
  call void @llvm.dbg.declare(metadata %"class.xalanc_1_10::XalanVector.2"** %this.addr, metadata !2750, metadata !DIExpression()), !dbg !2751
  %this1 = load %"class.xalanc_1_10::XalanVector.2"*, %"class.xalanc_1_10::XalanVector.2"** %this.addr, align 8
  invoke void @_ZNK11xalanc_1_1011XalanVectorINS_27XalanHTMLElementsProperties17ElementPropertiesENS_31MemoryManagedConstructionTraitsIS2_EEE10invariantsEv(%"class.xalanc_1_10::XalanVector.2"* %this1)
          to label %invoke.cont unwind label %terminate.lpad, !dbg !2752

invoke.cont:                                      ; preds = %entry
  %m_allocation = getelementptr inbounds %"class.xalanc_1_10::XalanVector.2", %"class.xalanc_1_10::XalanVector.2"* %this1, i32 0, i32 2, !dbg !2754
  %0 = load i64, i64* %m_allocation, align 8, !dbg !2754
  %cmp = icmp ne i64 %0, 0, !dbg !2756
  br i1 %cmp, label %if.then, label %if.end, !dbg !2757

if.then:                                          ; preds = %invoke.cont
  %call = invoke %"class.xalanc_1_10::XalanHTMLElementsProperties::ElementProperties"* @_ZN11xalanc_1_1011XalanVectorINS_27XalanHTMLElementsProperties17ElementPropertiesENS_31MemoryManagedConstructionTraitsIS2_EEE5beginEv(%"class.xalanc_1_10::XalanVector.2"* %this1)
          to label %invoke.cont2 unwind label %terminate.lpad, !dbg !2758

invoke.cont2:                                     ; preds = %if.then
  %call4 = invoke %"class.xalanc_1_10::XalanHTMLElementsProperties::ElementProperties"* @_ZN11xalanc_1_1011XalanVectorINS_27XalanHTMLElementsProperties17ElementPropertiesENS_31MemoryManagedConstructionTraitsIS2_EEE3endEv(%"class.xalanc_1_10::XalanVector.2"* %this1)
          to label %invoke.cont3 unwind label %terminate.lpad, !dbg !2760

invoke.cont3:                                     ; preds = %invoke.cont2
  invoke void @_ZN11xalanc_1_1011XalanVectorINS_27XalanHTMLElementsProperties17ElementPropertiesENS_31MemoryManagedConstructionTraitsIS2_EEE7destroyEPS2_S6_(%"class.xalanc_1_10::XalanHTMLElementsProperties::ElementProperties"* %call, %"class.xalanc_1_10::XalanHTMLElementsProperties::ElementProperties"* %call4)
          to label %invoke.cont5 unwind label %terminate.lpad, !dbg !2761

invoke.cont5:                                     ; preds = %invoke.cont3
  %m_data = getelementptr inbounds %"class.xalanc_1_10::XalanVector.2", %"class.xalanc_1_10::XalanVector.2"* %this1, i32 0, i32 3, !dbg !2762
  %1 = load %"class.xalanc_1_10::XalanHTMLElementsProperties::ElementProperties"*, %"class.xalanc_1_10::XalanHTMLElementsProperties::ElementProperties"** %m_data, align 8, !dbg !2762
  invoke void @_ZN11xalanc_1_1011XalanVectorINS_27XalanHTMLElementsProperties17ElementPropertiesENS_31MemoryManagedConstructionTraitsIS2_EEE10deallocateEPS2_(%"class.xalanc_1_10::XalanVector.2"* %this1, %"class.xalanc_1_10::XalanHTMLElementsProperties::ElementProperties"* %1)
          to label %invoke.cont6 unwind label %terminate.lpad, !dbg !2763

invoke.cont6:                                     ; preds = %invoke.cont5
  br label %if.end, !dbg !2764

if.end:                                           ; preds = %invoke.cont6, %invoke.cont
  ret void, !dbg !2765

terminate.lpad:                                   ; preds = %invoke.cont5, %invoke.cont3, %invoke.cont2, %if.then, %entry
  %2 = landingpad { i8*, i32 }
          catch i8* null, !dbg !2752
  %3 = extractvalue { i8*, i32 } %2, 0, !dbg !2752
  call void @__clang_call_terminate(i8* %3) #9, !dbg !2752
  unreachable, !dbg !2752
}

; Function Attrs: noinline nounwind uwtable
define linkonce_odr dso_local void @_ZN11xalanc_1_1011XalanVectorIbNS_31MemoryManagedConstructionTraitsIbEEED2Ev(%"class.xalanc_1_10::XalanVector.0"* %this) unnamed_addr #2 comdat align 2 personality i8* bitcast (i32 (...)* @__gxx_personality_v0 to i8*) !dbg !2766 {
entry:
  %this.addr = alloca %"class.xalanc_1_10::XalanVector.0"*, align 8
  store %"class.xalanc_1_10::XalanVector.0"* %this, %"class.xalanc_1_10::XalanVector.0"** %this.addr, align 8
  call void @llvm.dbg.declare(metadata %"class.xalanc_1_10::XalanVector.0"** %this.addr, metadata !2767, metadata !DIExpression()), !dbg !2768
  %this1 = load %"class.xalanc_1_10::XalanVector.0"*, %"class.xalanc_1_10::XalanVector.0"** %this.addr, align 8
  invoke void @_ZNK11xalanc_1_1011XalanVectorIbNS_31MemoryManagedConstructionTraitsIbEEE10invariantsEv(%"class.xalanc_1_10::XalanVector.0"* %this1)
          to label %invoke.cont unwind label %terminate.lpad, !dbg !2769

invoke.cont:                                      ; preds = %entry
  %m_allocation = getelementptr inbounds %"class.xalanc_1_10::XalanVector.0", %"class.xalanc_1_10::XalanVector.0"* %this1, i32 0, i32 2, !dbg !2771
  %0 = load i64, i64* %m_allocation, align 8, !dbg !2771
  %cmp = icmp ne i64 %0, 0, !dbg !2773
  br i1 %cmp, label %if.then, label %if.end, !dbg !2774

if.then:                                          ; preds = %invoke.cont
  %call = invoke i8* @_ZN11xalanc_1_1011XalanVectorIbNS_31MemoryManagedConstructionTraitsIbEEE5beginEv(%"class.xalanc_1_10::XalanVector.0"* %this1)
          to label %invoke.cont2 unwind label %terminate.lpad, !dbg !2775

invoke.cont2:                                     ; preds = %if.then
  %call4 = invoke i8* @_ZN11xalanc_1_1011XalanVectorIbNS_31MemoryManagedConstructionTraitsIbEEE3endEv(%"class.xalanc_1_10::XalanVector.0"* %this1)
          to label %invoke.cont3 unwind label %terminate.lpad, !dbg !2777

invoke.cont3:                                     ; preds = %invoke.cont2
  invoke void @_ZN11xalanc_1_1011XalanVectorIbNS_31MemoryManagedConstructionTraitsIbEEE7destroyEPbS4_(i8* %call, i8* %call4)
          to label %invoke.cont5 unwind label %terminate.lpad, !dbg !2778

invoke.cont5:                                     ; preds = %invoke.cont3
  %m_data = getelementptr inbounds %"class.xalanc_1_10::XalanVector.0", %"class.xalanc_1_10::XalanVector.0"* %this1, i32 0, i32 3, !dbg !2779
  %1 = load i8*, i8** %m_data, align 8, !dbg !2779
  invoke void @_ZN11xalanc_1_1011XalanVectorIbNS_31MemoryManagedConstructionTraitsIbEEE10deallocateEPb(%"class.xalanc_1_10::XalanVector.0"* %this1, i8* %1)
          to label %invoke.cont6 unwind label %terminate.lpad, !dbg !2780

invoke.cont6:                                     ; preds = %invoke.cont5
  br label %if.end, !dbg !2781

if.end:                                           ; preds = %invoke.cont6, %invoke.cont
  ret void, !dbg !2782

terminate.lpad:                                   ; preds = %invoke.cont5, %invoke.cont3, %invoke.cont2, %if.then, %entry
  %2 = landingpad { i8*, i32 }
          catch i8* null, !dbg !2769
  %3 = extractvalue { i8*, i32 } %2, 0, !dbg !2769
  call void @__clang_call_terminate(i8* %3) #9, !dbg !2769
  unreachable, !dbg !2769
}

; Function Attrs: nounwind
declare dso_local void @_ZN11xalanc_1_1014FormatterToXMLD2Ev(%"class.xalanc_1_10::FormatterToXML"*) unnamed_addr #5

; Function Attrs: noinline uwtable
define dso_local %"class.xalanc_1_10::FormatterToHTML"* @_ZN11xalanc_1_1015FormatterToHTML6createERN11xercesc_2_713MemoryManagerERNS_6WriterERKNS_14XalanDOMStringES8_S8_S8_bibb(%"class.xercesc_2_7::MemoryManager"* dereferenceable(8) %theManager, %"class.xalanc_1_10::Writer"* dereferenceable(8) %writer, %"class.xalanc_1_10::XalanDOMString"* dereferenceable(40) %encoding, %"class.xalanc_1_10::XalanDOMString"* dereferenceable(40) %mediaType, %"class.xalanc_1_10::XalanDOMString"* dereferenceable(40) %doctypeSystem, %"class.xalanc_1_10::XalanDOMString"* dereferenceable(40) %doctypePublic, i1 zeroext %doIndent, i32 %indent, i1 zeroext %escapeURLs, i1 zeroext %omitMetaTag) #0 align 2 personality i8* bitcast (i32 (...)* @__gxx_personality_v0 to i8*) !dbg !1459 {
entry:
  %theManager.addr = alloca %"class.xercesc_2_7::MemoryManager"*, align 8
  %writer.addr = alloca %"class.xalanc_1_10::Writer"*, align 8
  %encoding.addr = alloca %"class.xalanc_1_10::XalanDOMString"*, align 8
  %mediaType.addr = alloca %"class.xalanc_1_10::XalanDOMString"*, align 8
  %doctypeSystem.addr = alloca %"class.xalanc_1_10::XalanDOMString"*, align 8
  %doctypePublic.addr = alloca %"class.xalanc_1_10::XalanDOMString"*, align 8
  %doIndent.addr = alloca i8, align 1
  %indent.addr = alloca i32, align 4
  %escapeURLs.addr = alloca i8, align 1
  %omitMetaTag.addr = alloca i8, align 1
  %theGuard = alloca %"class.xalanc_1_10::XalanMemMgrAutoPtr", align 8
  %theResult = alloca %"class.xalanc_1_10::FormatterToHTML"*, align 8
  %exn.slot = alloca i8*
  %ehselector.slot = alloca i32
  %coerce = alloca %"class.xalanc_1_10::XalanMemMgrAutoPtr<xalanc_1_10::FormatterToHTML, false>::MemMgrAutoPtrData", align 8
  store %"class.xercesc_2_7::MemoryManager"* %theManager, %"class.xercesc_2_7::MemoryManager"** %theManager.addr, align 8
  call void @llvm.dbg.declare(metadata %"class.xercesc_2_7::MemoryManager"** %theManager.addr, metadata !2783, metadata !DIExpression()), !dbg !2784
  store %"class.xalanc_1_10::Writer"* %writer, %"class.xalanc_1_10::Writer"** %writer.addr, align 8
  call void @llvm.dbg.declare(metadata %"class.xalanc_1_10::Writer"** %writer.addr, metadata !2785, metadata !DIExpression()), !dbg !2786
  store %"class.xalanc_1_10::XalanDOMString"* %encoding, %"class.xalanc_1_10::XalanDOMString"** %encoding.addr, align 8
  call void @llvm.dbg.declare(metadata %"class.xalanc_1_10::XalanDOMString"** %encoding.addr, metadata !2787, metadata !DIExpression()), !dbg !2788
  store %"class.xalanc_1_10::XalanDOMString"* %mediaType, %"class.xalanc_1_10::XalanDOMString"** %mediaType.addr, align 8
  call void @llvm.dbg.declare(metadata %"class.xalanc_1_10::XalanDOMString"** %mediaType.addr, metadata !2789, metadata !DIExpression()), !dbg !2790
  store %"class.xalanc_1_10::XalanDOMString"* %doctypeSystem, %"class.xalanc_1_10::XalanDOMString"** %doctypeSystem.addr, align 8
  call void @llvm.dbg.declare(metadata %"class.xalanc_1_10::XalanDOMString"** %doctypeSystem.addr, metadata !2791, metadata !DIExpression()), !dbg !2792
  store %"class.xalanc_1_10::XalanDOMString"* %doctypePublic, %"class.xalanc_1_10::XalanDOMString"** %doctypePublic.addr, align 8
  call void @llvm.dbg.declare(metadata %"class.xalanc_1_10::XalanDOMString"** %doctypePublic.addr, metadata !2793, metadata !DIExpression()), !dbg !2794
  %frombool = zext i1 %doIndent to i8
  store i8 %frombool, i8* %doIndent.addr, align 1
  call void @llvm.dbg.declare(metadata i8* %doIndent.addr, metadata !2795, metadata !DIExpression()), !dbg !2796
  store i32 %indent, i32* %indent.addr, align 4
  call void @llvm.dbg.declare(metadata i32* %indent.addr, metadata !2797, metadata !DIExpression()), !dbg !2798
  %frombool1 = zext i1 %escapeURLs to i8
  store i8 %frombool1, i8* %escapeURLs.addr, align 1
  call void @llvm.dbg.declare(metadata i8* %escapeURLs.addr, metadata !2799, metadata !DIExpression()), !dbg !2800
  %frombool2 = zext i1 %omitMetaTag to i8
  store i8 %frombool2, i8* %omitMetaTag.addr, align 1
  call void @llvm.dbg.declare(metadata i8* %omitMetaTag.addr, metadata !2801, metadata !DIExpression()), !dbg !2802
  call void @llvm.dbg.declare(metadata %"class.xalanc_1_10::XalanMemMgrAutoPtr"* %theGuard, metadata !2803, metadata !DIExpression()), !dbg !2804
  %0 = load %"class.xercesc_2_7::MemoryManager"*, %"class.xercesc_2_7::MemoryManager"** %theManager.addr, align 8, !dbg !2805
  %1 = load %"class.xercesc_2_7::MemoryManager"*, %"class.xercesc_2_7::MemoryManager"** %theManager.addr, align 8, !dbg !2806
  %2 = bitcast %"class.xercesc_2_7::MemoryManager"* %1 to i8* (%"class.xercesc_2_7::MemoryManager"*, i64)***, !dbg !2807
  %vtable = load i8* (%"class.xercesc_2_7::MemoryManager"*, i64)**, i8* (%"class.xercesc_2_7::MemoryManager"*, i64)*** %2, align 8, !dbg !2807
  %vfn = getelementptr inbounds i8* (%"class.xercesc_2_7::MemoryManager"*, i64)*, i8* (%"class.xercesc_2_7::MemoryManager"*, i64)** %vtable, i64 2, !dbg !2807
  %3 = load i8* (%"class.xercesc_2_7::MemoryManager"*, i64)*, i8* (%"class.xercesc_2_7::MemoryManager"*, i64)** %vfn, align 8, !dbg !2807
  %call = call i8* %3(%"class.xercesc_2_7::MemoryManager"* %1, i64 1912), !dbg !2807
  %4 = bitcast i8* %call to %"class.xalanc_1_10::FormatterToHTML"*, !dbg !2808
  call void @_ZN11xalanc_1_1018XalanMemMgrAutoPtrINS_15FormatterToHTMLELb0EEC2ERN11xercesc_2_713MemoryManagerEPS1_(%"class.xalanc_1_10::XalanMemMgrAutoPtr"* %theGuard, %"class.xercesc_2_7::MemoryManager"* dereferenceable(8) %0, %"class.xalanc_1_10::FormatterToHTML"* %4), !dbg !2804
  call void @llvm.dbg.declare(metadata %"class.xalanc_1_10::FormatterToHTML"** %theResult, metadata !2809, metadata !DIExpression()), !dbg !2810
  %call3 = invoke %"class.xalanc_1_10::FormatterToHTML"* @_ZNK11xalanc_1_1018XalanMemMgrAutoPtrINS_15FormatterToHTMLELb0EE3getEv(%"class.xalanc_1_10::XalanMemMgrAutoPtr"* %theGuard)
          to label %invoke.cont unwind label %lpad, !dbg !2811

invoke.cont:                                      ; preds = %entry
  store %"class.xalanc_1_10::FormatterToHTML"* %call3, %"class.xalanc_1_10::FormatterToHTML"** %theResult, align 8, !dbg !2810
  %5 = load %"class.xalanc_1_10::FormatterToHTML"*, %"class.xalanc_1_10::FormatterToHTML"** %theResult, align 8, !dbg !2812
  %6 = bitcast %"class.xalanc_1_10::FormatterToHTML"* %5 to i8*, !dbg !2813
  %7 = bitcast i8* %6 to %"class.xalanc_1_10::FormatterToHTML"*, !dbg !2813
  %8 = load %"class.xalanc_1_10::Writer"*, %"class.xalanc_1_10::Writer"** %writer.addr, align 8, !dbg !2814
  %9 = load %"class.xalanc_1_10::XalanDOMString"*, %"class.xalanc_1_10::XalanDOMString"** %encoding.addr, align 8, !dbg !2815
  %10 = load %"class.xalanc_1_10::XalanDOMString"*, %"class.xalanc_1_10::XalanDOMString"** %mediaType.addr, align 8, !dbg !2816
  %11 = load %"class.xalanc_1_10::XalanDOMString"*, %"class.xalanc_1_10::XalanDOMString"** %doctypeSystem.addr, align 8, !dbg !2817
  %12 = load %"class.xalanc_1_10::XalanDOMString"*, %"class.xalanc_1_10::XalanDOMString"** %doctypePublic.addr, align 8, !dbg !2818
  %13 = load i8, i8* %doIndent.addr, align 1, !dbg !2819
  %tobool = trunc i8 %13 to i1, !dbg !2819
  %14 = load i32, i32* %indent.addr, align 4, !dbg !2820
  %15 = load i8, i8* %escapeURLs.addr, align 1, !dbg !2821
  %tobool4 = trunc i8 %15 to i1, !dbg !2821
  %16 = load i8, i8* %omitMetaTag.addr, align 1, !dbg !2822
  %tobool5 = trunc i8 %16 to i1, !dbg !2822
  %17 = load %"class.xercesc_2_7::MemoryManager"*, %"class.xercesc_2_7::MemoryManager"** %theManager.addr, align 8, !dbg !2823
  invoke void @_ZN11xalanc_1_1015FormatterToHTMLC1ERNS_6WriterERKNS_14XalanDOMStringES5_S5_S5_bibbRN11xercesc_2_713MemoryManagerE(%"class.xalanc_1_10::FormatterToHTML"* %7, %"class.xalanc_1_10::Writer"* dereferenceable(8) %8, %"class.xalanc_1_10::XalanDOMString"* dereferenceable(40) %9, %"class.xalanc_1_10::XalanDOMString"* dereferenceable(40) %10, %"class.xalanc_1_10::XalanDOMString"* dereferenceable(40) %11, %"class.xalanc_1_10::XalanDOMString"* dereferenceable(40) %12, i1 zeroext %tobool, i32 %14, i1 zeroext %tobool4, i1 zeroext %tobool5, %"class.xercesc_2_7::MemoryManager"* dereferenceable(8) %17)
          to label %invoke.cont6 unwind label %lpad, !dbg !2824

invoke.cont6:                                     ; preds = %invoke.cont
  %call8 = invoke { %"class.xercesc_2_7::MemoryManager"*, %"class.xalanc_1_10::FormatterToHTML"* } @_ZN11xalanc_1_1018XalanMemMgrAutoPtrINS_15FormatterToHTMLELb0EE7releaseEv(%"class.xalanc_1_10::XalanMemMgrAutoPtr"* %theGuard)
          to label %invoke.cont7 unwind label %lpad, !dbg !2825

invoke.cont7:                                     ; preds = %invoke.cont6
  %coerce.dive = getelementptr inbounds %"class.xalanc_1_10::XalanMemMgrAutoPtr<xalanc_1_10::FormatterToHTML, false>::MemMgrAutoPtrData", %"class.xalanc_1_10::XalanMemMgrAutoPtr<xalanc_1_10::FormatterToHTML, false>::MemMgrAutoPtrData"* %coerce, i32 0, i32 0, !dbg !2825
  %18 = bitcast %"struct.std::pair"* %coerce.dive to { %"class.xercesc_2_7::MemoryManager"*, %"class.xalanc_1_10::FormatterToHTML"* }*, !dbg !2825
  %19 = getelementptr inbounds { %"class.xercesc_2_7::MemoryManager"*, %"class.xalanc_1_10::FormatterToHTML"* }, { %"class.xercesc_2_7::MemoryManager"*, %"class.xalanc_1_10::FormatterToHTML"* }* %18, i32 0, i32 0, !dbg !2825
  %20 = extractvalue { %"class.xercesc_2_7::MemoryManager"*, %"class.xalanc_1_10::FormatterToHTML"* } %call8, 0, !dbg !2825
  store %"class.xercesc_2_7::MemoryManager"* %20, %"class.xercesc_2_7::MemoryManager"** %19, align 8, !dbg !2825
  %21 = getelementptr inbounds { %"class.xercesc_2_7::MemoryManager"*, %"class.xalanc_1_10::FormatterToHTML"* }, { %"class.xercesc_2_7::MemoryManager"*, %"class.xalanc_1_10::FormatterToHTML"* }* %18, i32 0, i32 1, !dbg !2825
  %22 = extractvalue { %"class.xercesc_2_7::MemoryManager"*, %"class.xalanc_1_10::FormatterToHTML"* } %call8, 1, !dbg !2825
  store %"class.xalanc_1_10::FormatterToHTML"* %22, %"class.xalanc_1_10::FormatterToHTML"** %21, align 8, !dbg !2825
  %23 = load %"class.xalanc_1_10::FormatterToHTML"*, %"class.xalanc_1_10::FormatterToHTML"** %theResult, align 8, !dbg !2826
  call void @_ZN11xalanc_1_1018XalanMemMgrAutoPtrINS_15FormatterToHTMLELb0EED2Ev(%"class.xalanc_1_10::XalanMemMgrAutoPtr"* %theGuard) #3, !dbg !2827
  ret %"class.xalanc_1_10::FormatterToHTML"* %23, !dbg !2827

lpad:                                             ; preds = %invoke.cont6, %invoke.cont, %entry
  %24 = landingpad { i8*, i32 }
          cleanup, !dbg !2827
  %25 = extractvalue { i8*, i32 } %24, 0, !dbg !2827
  store i8* %25, i8** %exn.slot, align 8, !dbg !2827
  %26 = extractvalue { i8*, i32 } %24, 1, !dbg !2827
  store i32 %26, i32* %ehselector.slot, align 4, !dbg !2827
  call void @_ZN11xalanc_1_1018XalanMemMgrAutoPtrINS_15FormatterToHTMLELb0EED2Ev(%"class.xalanc_1_10::XalanMemMgrAutoPtr"* %theGuard) #3, !dbg !2827
  br label %eh.resume, !dbg !2827

eh.resume:                                        ; preds = %lpad
  %exn = load i8*, i8** %exn.slot, align 8, !dbg !2827
  %sel = load i32, i32* %ehselector.slot, align 4, !dbg !2827
  %lpad.val = insertvalue { i8*, i32 } undef, i8* %exn, 0, !dbg !2827
  %lpad.val9 = insertvalue { i8*, i32 } %lpad.val, i32 %sel, 1, !dbg !2827
  resume { i8*, i32 } %lpad.val9, !dbg !2827
}

; Function Attrs: noinline uwtable
define linkonce_odr dso_local void @_ZN11xalanc_1_1018XalanMemMgrAutoPtrINS_15FormatterToHTMLELb0EEC2ERN11xercesc_2_713MemoryManagerEPS1_(%"class.xalanc_1_10::XalanMemMgrAutoPtr"* %this, %"class.xercesc_2_7::MemoryManager"* dereferenceable(8) %theManager, %"class.xalanc_1_10::FormatterToHTML"* %ptr) unnamed_addr #0 comdat align 2 !dbg !2828 {
entry:
  %this.addr = alloca %"class.xalanc_1_10::XalanMemMgrAutoPtr"*, align 8
  %theManager.addr = alloca %"class.xercesc_2_7::MemoryManager"*, align 8
  %ptr.addr = alloca %"class.xalanc_1_10::FormatterToHTML"*, align 8
  store %"class.xalanc_1_10::XalanMemMgrAutoPtr"* %this, %"class.xalanc_1_10::XalanMemMgrAutoPtr"** %this.addr, align 8
  call void @llvm.dbg.declare(metadata %"class.xalanc_1_10::XalanMemMgrAutoPtr"** %this.addr, metadata !2829, metadata !DIExpression()), !dbg !2831
  store %"class.xercesc_2_7::MemoryManager"* %theManager, %"class.xercesc_2_7::MemoryManager"** %theManager.addr, align 8
  call void @llvm.dbg.declare(metadata %"class.xercesc_2_7::MemoryManager"** %theManager.addr, metadata !2832, metadata !DIExpression()), !dbg !2833
  store %"class.xalanc_1_10::FormatterToHTML"* %ptr, %"class.xalanc_1_10::FormatterToHTML"** %ptr.addr, align 8
  call void @llvm.dbg.declare(metadata %"class.xalanc_1_10::FormatterToHTML"** %ptr.addr, metadata !2834, metadata !DIExpression()), !dbg !2835
  %this1 = load %"class.xalanc_1_10::XalanMemMgrAutoPtr"*, %"class.xalanc_1_10::XalanMemMgrAutoPtr"** %this.addr, align 8
  %m_pointerInfo = getelementptr inbounds %"class.xalanc_1_10::XalanMemMgrAutoPtr", %"class.xalanc_1_10::XalanMemMgrAutoPtr"* %this1, i32 0, i32 0, !dbg !2836
  %0 = load %"class.xercesc_2_7::MemoryManager"*, %"class.xercesc_2_7::MemoryManager"** %theManager.addr, align 8, !dbg !2837
  %1 = load %"class.xalanc_1_10::FormatterToHTML"*, %"class.xalanc_1_10::FormatterToHTML"** %ptr.addr, align 8, !dbg !2838
  call void @_ZN11xalanc_1_1018XalanMemMgrAutoPtrINS_15FormatterToHTMLELb0EE17MemMgrAutoPtrDataC2EPN11xercesc_2_713MemoryManagerEPS1_(%"class.xalanc_1_10::XalanMemMgrAutoPtr<xalanc_1_10::FormatterToHTML, false>::MemMgrAutoPtrData"* %m_pointerInfo, %"class.xercesc_2_7::MemoryManager"* %0, %"class.xalanc_1_10::FormatterToHTML"* %1), !dbg !2836
  ret void, !dbg !2839
}

; Function Attrs: noinline nounwind uwtable
define linkonce_odr dso_local %"class.xalanc_1_10::FormatterToHTML"* @_ZNK11xalanc_1_1018XalanMemMgrAutoPtrINS_15FormatterToHTMLELb0EE3getEv(%"class.xalanc_1_10::XalanMemMgrAutoPtr"* %this) #2 comdat align 2 !dbg !2840 {
entry:
  %this.addr = alloca %"class.xalanc_1_10::XalanMemMgrAutoPtr"*, align 8
  store %"class.xalanc_1_10::XalanMemMgrAutoPtr"* %this, %"class.xalanc_1_10::XalanMemMgrAutoPtr"** %this.addr, align 8
  call void @llvm.dbg.declare(metadata %"class.xalanc_1_10::XalanMemMgrAutoPtr"** %this.addr, metadata !2841, metadata !DIExpression()), !dbg !2843
  %this1 = load %"class.xalanc_1_10::XalanMemMgrAutoPtr"*, %"class.xalanc_1_10::XalanMemMgrAutoPtr"** %this.addr, align 8
  %m_pointerInfo = getelementptr inbounds %"class.xalanc_1_10::XalanMemMgrAutoPtr", %"class.xalanc_1_10::XalanMemMgrAutoPtr"* %this1, i32 0, i32 0, !dbg !2844
  %0 = bitcast %"class.xalanc_1_10::XalanMemMgrAutoPtr<xalanc_1_10::FormatterToHTML, false>::MemMgrAutoPtrData"* %m_pointerInfo to %"struct.std::pair"*, !dbg !2844
  %second = getelementptr inbounds %"struct.std::pair", %"struct.std::pair"* %0, i32 0, i32 1, !dbg !2845
  %1 = load %"class.xalanc_1_10::FormatterToHTML"*, %"class.xalanc_1_10::FormatterToHTML"** %second, align 8, !dbg !2845
  ret %"class.xalanc_1_10::FormatterToHTML"* %1, !dbg !2846
}

; Function Attrs: noinline uwtable
define linkonce_odr dso_local { %"class.xercesc_2_7::MemoryManager"*, %"class.xalanc_1_10::FormatterToHTML"* } @_ZN11xalanc_1_1018XalanMemMgrAutoPtrINS_15FormatterToHTMLELb0EE7releaseEv(%"class.xalanc_1_10::XalanMemMgrAutoPtr"* %this) #0 comdat align 2 !dbg !2847 {
entry:
  %retval = alloca %"class.xalanc_1_10::XalanMemMgrAutoPtr<xalanc_1_10::FormatterToHTML, false>::MemMgrAutoPtrData", align 8
  %this.addr = alloca %"class.xalanc_1_10::XalanMemMgrAutoPtr"*, align 8
  %tmp = alloca %"class.xalanc_1_10::XalanMemMgrAutoPtr<xalanc_1_10::FormatterToHTML, false>::MemMgrAutoPtrData", align 8
  store %"class.xalanc_1_10::XalanMemMgrAutoPtr"* %this, %"class.xalanc_1_10::XalanMemMgrAutoPtr"** %this.addr, align 8
  call void @llvm.dbg.declare(metadata %"class.xalanc_1_10::XalanMemMgrAutoPtr"** %this.addr, metadata !2848, metadata !DIExpression()), !dbg !2849
  %this1 = load %"class.xalanc_1_10::XalanMemMgrAutoPtr"*, %"class.xalanc_1_10::XalanMemMgrAutoPtr"** %this.addr, align 8
  call void @llvm.dbg.declare(metadata %"class.xalanc_1_10::XalanMemMgrAutoPtr<xalanc_1_10::FormatterToHTML, false>::MemMgrAutoPtrData"* %tmp, metadata !2850, metadata !DIExpression()), !dbg !2851
  %m_pointerInfo = getelementptr inbounds %"class.xalanc_1_10::XalanMemMgrAutoPtr", %"class.xalanc_1_10::XalanMemMgrAutoPtr"* %this1, i32 0, i32 0, !dbg !2852
  %0 = bitcast %"class.xalanc_1_10::XalanMemMgrAutoPtr<xalanc_1_10::FormatterToHTML, false>::MemMgrAutoPtrData"* %tmp to i8*, !dbg !2852
  %1 = bitcast %"class.xalanc_1_10::XalanMemMgrAutoPtr<xalanc_1_10::FormatterToHTML, false>::MemMgrAutoPtrData"* %m_pointerInfo to i8*, !dbg !2852
  call void @llvm.memcpy.p0i8.p0i8.i64(i8* align 8 %0, i8* align 8 %1, i64 16, i1 false), !dbg !2852
  %m_pointerInfo2 = getelementptr inbounds %"class.xalanc_1_10::XalanMemMgrAutoPtr", %"class.xalanc_1_10::XalanMemMgrAutoPtr"* %this1, i32 0, i32 0, !dbg !2853
  call void @_ZN11xalanc_1_1018XalanMemMgrAutoPtrINS_15FormatterToHTMLELb0EE17MemMgrAutoPtrData5resetEPN11xercesc_2_713MemoryManagerEPS1_(%"class.xalanc_1_10::XalanMemMgrAutoPtr<xalanc_1_10::FormatterToHTML, false>::MemMgrAutoPtrData"* %m_pointerInfo2, %"class.xercesc_2_7::MemoryManager"* null, %"class.xalanc_1_10::FormatterToHTML"* null), !dbg !2854
  %2 = bitcast %"class.xalanc_1_10::XalanMemMgrAutoPtr<xalanc_1_10::FormatterToHTML, false>::MemMgrAutoPtrData"* %retval to i8*, !dbg !2855
  %3 = bitcast %"class.xalanc_1_10::XalanMemMgrAutoPtr<xalanc_1_10::FormatterToHTML, false>::MemMgrAutoPtrData"* %tmp to i8*, !dbg !2855
  call void @llvm.memcpy.p0i8.p0i8.i64(i8* align 8 %2, i8* align 8 %3, i64 16, i1 false), !dbg !2855
  %coerce.dive = getelementptr inbounds %"class.xalanc_1_10::XalanMemMgrAutoPtr<xalanc_1_10::FormatterToHTML, false>::MemMgrAutoPtrData", %"class.xalanc_1_10::XalanMemMgrAutoPtr<xalanc_1_10::FormatterToHTML, false>::MemMgrAutoPtrData"* %retval, i32 0, i32 0, !dbg !2856
  %4 = bitcast %"struct.std::pair"* %coerce.dive to { %"class.xercesc_2_7::MemoryManager"*, %"class.xalanc_1_10::FormatterToHTML"* }*, !dbg !2856
  %5 = load { %"class.xercesc_2_7::MemoryManager"*, %"class.xalanc_1_10::FormatterToHTML"* }, { %"class.xercesc_2_7::MemoryManager"*, %"class.xalanc_1_10::FormatterToHTML"* }* %4, align 8, !dbg !2856
  ret { %"class.xercesc_2_7::MemoryManager"*, %"class.xalanc_1_10::FormatterToHTML"* } %5, !dbg !2856
}

; Function Attrs: noinline nounwind uwtable
define linkonce_odr dso_local void @_ZN11xalanc_1_1018XalanMemMgrAutoPtrINS_15FormatterToHTMLELb0EED2Ev(%"class.xalanc_1_10::XalanMemMgrAutoPtr"* %this) unnamed_addr #2 comdat align 2 personality i8* bitcast (i32 (...)* @__gxx_personality_v0 to i8*) !dbg !2857 {
entry:
  %this.addr = alloca %"class.xalanc_1_10::XalanMemMgrAutoPtr"*, align 8
  store %"class.xalanc_1_10::XalanMemMgrAutoPtr"* %this, %"class.xalanc_1_10::XalanMemMgrAutoPtr"** %this.addr, align 8
  call void @llvm.dbg.declare(metadata %"class.xalanc_1_10::XalanMemMgrAutoPtr"** %this.addr, metadata !2858, metadata !DIExpression()), !dbg !2859
  %this1 = load %"class.xalanc_1_10::XalanMemMgrAutoPtr"*, %"class.xalanc_1_10::XalanMemMgrAutoPtr"** %this.addr, align 8
  %m_pointerInfo = getelementptr inbounds %"class.xalanc_1_10::XalanMemMgrAutoPtr", %"class.xalanc_1_10::XalanMemMgrAutoPtr"* %this1, i32 0, i32 0, !dbg !2860
  invoke void @_ZN11xalanc_1_1018XalanMemMgrAutoPtrINS_15FormatterToHTMLELb0EE17MemMgrAutoPtrData10deallocateEv(%"class.xalanc_1_10::XalanMemMgrAutoPtr<xalanc_1_10::FormatterToHTML, false>::MemMgrAutoPtrData"* %m_pointerInfo)
          to label %invoke.cont unwind label %terminate.lpad, !dbg !2862

invoke.cont:                                      ; preds = %entry
  ret void, !dbg !2863

terminate.lpad:                                   ; preds = %entry
  %0 = landingpad { i8*, i32 }
          catch i8* null, !dbg !2862
  %1 = extractvalue { i8*, i32 } %0, 0, !dbg !2862
  call void @__clang_call_terminate(i8* %1) #9, !dbg !2862
  unreachable, !dbg !2862
}

; Function Attrs: noinline nounwind uwtable
define dso_local void @_ZN11xalanc_1_1015FormatterToHTMLD2Ev(%"class.xalanc_1_10::FormatterToHTML"* %this) unnamed_addr #2 align 2 !dbg !2864 {
entry:
  %this.addr = alloca %"class.xalanc_1_10::FormatterToHTML"*, align 8
  store %"class.xalanc_1_10::FormatterToHTML"* %this, %"class.xalanc_1_10::FormatterToHTML"** %this.addr, align 8
  call void @llvm.dbg.declare(metadata %"class.xalanc_1_10::FormatterToHTML"** %this.addr, metadata !2865, metadata !DIExpression()), !dbg !2866
  %this1 = load %"class.xalanc_1_10::FormatterToHTML"*, %"class.xalanc_1_10::FormatterToHTML"** %this.addr, align 8
  %0 = bitcast %"class.xalanc_1_10::FormatterToHTML"* %this1 to i32 (...)***, !dbg !2867
  store i32 (...)** bitcast (i8** getelementptr inbounds ({ [28 x i8*] }, { [28 x i8*] }* @_ZTVN11xalanc_1_1015FormatterToHTMLE, i32 0, inrange i32 0, i32 2) to i32 (...)**), i32 (...)*** %0, align 8, !dbg !2867
  %m_elementPropertiesStack = getelementptr inbounds %"class.xalanc_1_10::FormatterToHTML", %"class.xalanc_1_10::FormatterToHTML"* %this1, i32 0, i32 13, !dbg !2868
  call void @_ZN11xalanc_1_1011XalanVectorINS_27XalanHTMLElementsProperties17ElementPropertiesENS_31MemoryManagedConstructionTraitsIS2_EEED2Ev(%"class.xalanc_1_10::XalanVector.2"* %m_elementPropertiesStack) #3, !dbg !2868
  %m_hasNamespaceStack = getelementptr inbounds %"class.xalanc_1_10::FormatterToHTML", %"class.xalanc_1_10::FormatterToHTML"* %this1, i32 0, i32 11, !dbg !2868
  call void @_ZN11xalanc_1_1011XalanVectorIbNS_31MemoryManagedConstructionTraitsIbEEED2Ev(%"class.xalanc_1_10::XalanVector.0"* %m_hasNamespaceStack) #3, !dbg !2868
  %m_inScriptElemStack = getelementptr inbounds %"class.xalanc_1_10::FormatterToHTML", %"class.xalanc_1_10::FormatterToHTML"* %this1, i32 0, i32 6, !dbg !2868
  call void @_ZN11xalanc_1_1011XalanVectorIbNS_31MemoryManagedConstructionTraitsIbEEED2Ev(%"class.xalanc_1_10::XalanVector.0"* %m_inScriptElemStack) #3, !dbg !2868
  %m_isRawStack = getelementptr inbounds %"class.xalanc_1_10::FormatterToHTML", %"class.xalanc_1_10::FormatterToHTML"* %this1, i32 0, i32 4, !dbg !2868
  call void @_ZN11xalanc_1_1011XalanVectorIbNS_31MemoryManagedConstructionTraitsIbEEED2Ev(%"class.xalanc_1_10::XalanVector.0"* %m_isRawStack) #3, !dbg !2868
  %m_currentElementName = getelementptr inbounds %"class.xalanc_1_10::FormatterToHTML", %"class.xalanc_1_10::FormatterToHTML"* %this1, i32 0, i32 2, !dbg !2868
  call void @_ZN11xalanc_1_1014XalanDOMStringD2Ev(%"class.xalanc_1_10::XalanDOMString"* %m_currentElementName) #3, !dbg !2868
  %1 = bitcast %"class.xalanc_1_10::FormatterToHTML"* %this1 to %"class.xalanc_1_10::FormatterToXML"*, !dbg !2868
  call void @_ZN11xalanc_1_1014FormatterToXMLD2Ev(%"class.xalanc_1_10::FormatterToXML"* %1) #3, !dbg !2868
  ret void, !dbg !2870
}

; Function Attrs: noinline nounwind uwtable
define dso_local void @_ZN11xalanc_1_1015FormatterToHTMLD0Ev(%"class.xalanc_1_10::FormatterToHTML"* %this) unnamed_addr #2 align 2 !dbg !2871 {
entry:
  %this.addr = alloca %"class.xalanc_1_10::FormatterToHTML"*, align 8
  store %"class.xalanc_1_10::FormatterToHTML"* %this, %"class.xalanc_1_10::FormatterToHTML"** %this.addr, align 8
  call void @llvm.dbg.declare(metadata %"class.xalanc_1_10::FormatterToHTML"** %this.addr, metadata !2872, metadata !DIExpression()), !dbg !2873
  %this1 = load %"class.xalanc_1_10::FormatterToHTML"*, %"class.xalanc_1_10::FormatterToHTML"** %this.addr, align 8
  call void @_ZN11xalanc_1_1015FormatterToHTMLD1Ev(%"class.xalanc_1_10::FormatterToHTML"* %this1) #3, !dbg !2874
  %0 = bitcast %"class.xalanc_1_10::FormatterToHTML"* %this1 to i8*, !dbg !2874
  call void @_ZdlPv(i8* %0) #10, !dbg !2874
  ret void, !dbg !2875
}

; Function Attrs: nobuiltin nounwind
declare dso_local void @_ZdlPv(i8*) #6

; Function Attrs: noinline uwtable
define dso_local void @_ZN11xalanc_1_1015FormatterToHTML16initAttrCharsMapEv(%"class.xalanc_1_10::FormatterToHTML"* %this) #0 align 2 !dbg !2876 {
entry:
  %this.addr = alloca %"class.xalanc_1_10::FormatterToHTML"*, align 8
  %i = alloca i32, align 4
  store %"class.xalanc_1_10::FormatterToHTML"* %this, %"class.xalanc_1_10::FormatterToHTML"** %this.addr, align 8
  call void @llvm.dbg.declare(metadata %"class.xalanc_1_10::FormatterToHTML"** %this.addr, metadata !2877, metadata !DIExpression()), !dbg !2878
  %this1 = load %"class.xalanc_1_10::FormatterToHTML"*, %"class.xalanc_1_10::FormatterToHTML"** %this.addr, align 8
  %0 = bitcast %"class.xalanc_1_10::FormatterToHTML"* %this1 to %"class.xalanc_1_10::FormatterToXML"*, !dbg !2879
  call void @_ZN11xalanc_1_1014FormatterToXML16initAttrCharsMapEv(%"class.xalanc_1_10::FormatterToXML"* %0), !dbg !2879
  %1 = bitcast %"class.xalanc_1_10::FormatterToHTML"* %this1 to %"class.xalanc_1_10::FormatterToXML"*, !dbg !2880
  %m_attrCharsMap = getelementptr inbounds %"class.xalanc_1_10::FormatterToXML", %"class.xalanc_1_10::FormatterToXML"* %1, i32 0, i32 4, !dbg !2880
  %arrayidx = getelementptr inbounds [256 x i16], [256 x i16]* %m_attrCharsMap, i64 0, i64 10, !dbg !2880
  store i16 83, i16* %arrayidx, align 2, !dbg !2881
  %2 = bitcast %"class.xalanc_1_10::FormatterToHTML"* %this1 to %"class.xalanc_1_10::FormatterToXML"*, !dbg !2882
  %m_attrCharsMap2 = getelementptr inbounds %"class.xalanc_1_10::FormatterToXML", %"class.xalanc_1_10::FormatterToXML"* %2, i32 0, i32 4, !dbg !2882
  %arrayidx3 = getelementptr inbounds [256 x i16], [256 x i16]* %m_attrCharsMap2, i64 0, i64 9, !dbg !2882
  store i16 0, i16* %arrayidx3, align 2, !dbg !2883
  %3 = bitcast %"class.xalanc_1_10::FormatterToHTML"* %this1 to %"class.xalanc_1_10::FormatterToXML"*, !dbg !2884
  %m_attrCharsMap4 = getelementptr inbounds %"class.xalanc_1_10::FormatterToXML", %"class.xalanc_1_10::FormatterToXML"* %3, i32 0, i32 4, !dbg !2884
  %arrayidx5 = getelementptr inbounds [256 x i16], [256 x i16]* %m_attrCharsMap4, i64 0, i64 60, !dbg !2884
  store i16 0, i16* %arrayidx5, align 2, !dbg !2885
  %4 = bitcast %"class.xalanc_1_10::FormatterToHTML"* %this1 to %"class.xalanc_1_10::FormatterToXML"*, !dbg !2886
  %m_attrCharsMap6 = getelementptr inbounds %"class.xalanc_1_10::FormatterToXML", %"class.xalanc_1_10::FormatterToXML"* %4, i32 0, i32 4, !dbg !2886
  %arrayidx7 = getelementptr inbounds [256 x i16], [256 x i16]* %m_attrCharsMap6, i64 0, i64 62, !dbg !2886
  store i16 0, i16* %arrayidx7, align 2, !dbg !2887
  call void @llvm.dbg.declare(metadata i32* %i, metadata !2888, metadata !DIExpression()), !dbg !2890
  store i32 160, i32* %i, align 4, !dbg !2890
  br label %for.cond, !dbg !2891

for.cond:                                         ; preds = %for.inc, %entry
  %5 = load i32, i32* %i, align 4, !dbg !2892
  %cmp = icmp ult i32 %5, 256, !dbg !2894
  br i1 %cmp, label %for.body, label %for.end, !dbg !2895

for.body:                                         ; preds = %for.cond
  %6 = bitcast %"class.xalanc_1_10::FormatterToHTML"* %this1 to %"class.xalanc_1_10::FormatterToXML"*, !dbg !2896
  %m_attrCharsMap8 = getelementptr inbounds %"class.xalanc_1_10::FormatterToXML", %"class.xalanc_1_10::FormatterToXML"* %6, i32 0, i32 4, !dbg !2896
  %7 = load i32, i32* %i, align 4, !dbg !2898
  %idxprom = zext i32 %7 to i64, !dbg !2896
  %arrayidx9 = getelementptr inbounds [256 x i16], [256 x i16]* %m_attrCharsMap8, i64 0, i64 %idxprom, !dbg !2896
  store i16 83, i16* %arrayidx9, align 2, !dbg !2899
  br label %for.inc, !dbg !2900

for.inc:                                          ; preds = %for.body
  %8 = load i32, i32* %i, align 4, !dbg !2901
  %inc = add i32 %8, 1, !dbg !2901
  store i32 %inc, i32* %i, align 4, !dbg !2901
  br label %for.cond, !dbg !2902, !llvm.loop !2903

for.end:                                          ; preds = %for.cond
  ret void, !dbg !2905
}

declare dso_local void @_ZN11xalanc_1_1014FormatterToXML16initAttrCharsMapEv(%"class.xalanc_1_10::FormatterToXML"*) #1

; Function Attrs: argmemonly nounwind willreturn
declare void @llvm.memset.p0i8.i64(i8* nocapture writeonly, i8, i64, i1 immarg) #7

; Function Attrs: noinline uwtable
define dso_local void @_ZN11xalanc_1_1015FormatterToHTML13startDocumentEv(%"class.xalanc_1_10::FormatterToHTML"* %this) unnamed_addr #0 align 2 !dbg !2906 {
entry:
  %this.addr = alloca %"class.xalanc_1_10::FormatterToHTML"*, align 8
  %ref.tmp = alloca i8, align 1
  %isEmptySystem = alloca i8, align 1
  %isEmptyPublic = alloca i8, align 1
  store %"class.xalanc_1_10::FormatterToHTML"* %this, %"class.xalanc_1_10::FormatterToHTML"** %this.addr, align 8
  call void @llvm.dbg.declare(metadata %"class.xalanc_1_10::FormatterToHTML"** %this.addr, metadata !2907, metadata !DIExpression()), !dbg !2908
  %this1 = load %"class.xalanc_1_10::FormatterToHTML"*, %"class.xalanc_1_10::FormatterToHTML"** %this.addr, align 8
  %0 = bitcast %"class.xalanc_1_10::FormatterToHTML"* %this1 to %"class.xalanc_1_10::FormatterToXML"*, !dbg !2909
  %m_stringBuffer = getelementptr inbounds %"class.xalanc_1_10::FormatterToXML", %"class.xalanc_1_10::FormatterToXML"* %0, i32 0, i32 23, !dbg !2909
  call void @_ZN11xalanc_1_105clearERNS_14XalanDOMStringE(%"class.xalanc_1_10::XalanDOMString"* dereferenceable(40) %m_stringBuffer), !dbg !2910
  %m_elementLevel = getelementptr inbounds %"class.xalanc_1_10::FormatterToHTML", %"class.xalanc_1_10::FormatterToHTML"* %this1, i32 0, i32 10, !dbg !2911
  store i32 0, i32* %m_elementLevel, align 4, !dbg !2912
  %m_isFirstElement = getelementptr inbounds %"class.xalanc_1_10::FormatterToHTML", %"class.xalanc_1_10::FormatterToHTML"* %this1, i32 0, i32 8, !dbg !2913
  store i8 1, i8* %m_isFirstElement, align 1, !dbg !2914
  %1 = bitcast %"class.xalanc_1_10::FormatterToHTML"* %this1 to %"class.xalanc_1_10::FormatterToXML"*, !dbg !2915
  %m_startNewLine = getelementptr inbounds %"class.xalanc_1_10::FormatterToXML", %"class.xalanc_1_10::FormatterToXML"* %1, i32 0, i32 9, !dbg !2915
  store i8 0, i8* %m_startNewLine, align 1, !dbg !2916
  %2 = bitcast %"class.xalanc_1_10::FormatterToHTML"* %this1 to %"class.xalanc_1_10::FormatterToXML"*, !dbg !2917
  %m_shouldWriteXMLHeader = getelementptr inbounds %"class.xalanc_1_10::FormatterToXML", %"class.xalanc_1_10::FormatterToXML"* %2, i32 0, i32 6, !dbg !2917
  store i8 0, i8* %m_shouldWriteXMLHeader, align 2, !dbg !2918
  %m_isScriptOrStyleElem = getelementptr inbounds %"class.xalanc_1_10::FormatterToHTML", %"class.xalanc_1_10::FormatterToHTML"* %this1, i32 0, i32 5, !dbg !2919
  store i8 0, i8* %m_isScriptOrStyleElem, align 8, !dbg !2920
  %m_isRawStack = getelementptr inbounds %"class.xalanc_1_10::FormatterToHTML", %"class.xalanc_1_10::FormatterToHTML"* %this1, i32 0, i32 4, !dbg !2921
  call void @_ZN11xalanc_1_1011XalanVectorIbNS_31MemoryManagedConstructionTraitsIbEEE5clearEv(%"class.xalanc_1_10::XalanVector.0"* %m_isRawStack), !dbg !2922
  %m_inScriptElemStack = getelementptr inbounds %"class.xalanc_1_10::FormatterToHTML", %"class.xalanc_1_10::FormatterToHTML"* %this1, i32 0, i32 6, !dbg !2923
  store i8 0, i8* %ref.tmp, align 1, !dbg !2924
  call void @_ZN11xalanc_1_1011XalanVectorIbNS_31MemoryManagedConstructionTraitsIbEEE9push_backERKb(%"class.xalanc_1_10::XalanVector.0"* %m_inScriptElemStack, i8* dereferenceable(1) %ref.tmp), !dbg !2925
  %m_hasNamespaceStack = getelementptr inbounds %"class.xalanc_1_10::FormatterToHTML", %"class.xalanc_1_10::FormatterToHTML"* %this1, i32 0, i32 11, !dbg !2926
  call void @_ZN11xalanc_1_1011XalanVectorIbNS_31MemoryManagedConstructionTraitsIbEEE5clearEv(%"class.xalanc_1_10::XalanVector.0"* %m_hasNamespaceStack), !dbg !2927
  %m_elementPropertiesStack = getelementptr inbounds %"class.xalanc_1_10::FormatterToHTML", %"class.xalanc_1_10::FormatterToHTML"* %this1, i32 0, i32 13, !dbg !2928
  call void @_ZN11xalanc_1_1011XalanVectorINS_27XalanHTMLElementsProperties17ElementPropertiesENS_31MemoryManagedConstructionTraitsIS2_EEE5clearEv(%"class.xalanc_1_10::XalanVector.2"* %m_elementPropertiesStack), !dbg !2929
  call void @llvm.dbg.declare(metadata i8* %isEmptySystem, metadata !2930, metadata !DIExpression()), !dbg !2932
  %3 = bitcast %"class.xalanc_1_10::FormatterToHTML"* %this1 to %"class.xalanc_1_10::FormatterToXML"*, !dbg !2933
  %m_doctypeSystem = getelementptr inbounds %"class.xalanc_1_10::FormatterToXML", %"class.xalanc_1_10::FormatterToXML"* %3, i32 0, i32 17, !dbg !2933
  %call = call zeroext i1 @_ZN11xalanc_1_107isEmptyERKNS_14XalanDOMStringE(%"class.xalanc_1_10::XalanDOMString"* dereferenceable(40) %m_doctypeSystem), !dbg !2934
  %frombool = zext i1 %call to i8, !dbg !2932
  store i8 %frombool, i8* %isEmptySystem, align 1, !dbg !2932
  call void @llvm.dbg.declare(metadata i8* %isEmptyPublic, metadata !2935, metadata !DIExpression()), !dbg !2936
  %4 = bitcast %"class.xalanc_1_10::FormatterToHTML"* %this1 to %"class.xalanc_1_10::FormatterToXML"*, !dbg !2937
  %m_doctypePublic = getelementptr inbounds %"class.xalanc_1_10::FormatterToXML", %"class.xalanc_1_10::FormatterToXML"* %4, i32 0, i32 18, !dbg !2937
  %call2 = call zeroext i1 @_ZN11xalanc_1_107isEmptyERKNS_14XalanDOMStringE(%"class.xalanc_1_10::XalanDOMString"* dereferenceable(40) %m_doctypePublic), !dbg !2938
  %frombool3 = zext i1 %call2 to i8, !dbg !2936
  store i8 %frombool3, i8* %isEmptyPublic, align 1, !dbg !2936
  %5 = load i8, i8* %isEmptySystem, align 1, !dbg !2939
  %tobool = trunc i8 %5 to i1, !dbg !2939
  %conv = zext i1 %tobool to i32, !dbg !2939
  %cmp = icmp eq i32 %conv, 0, !dbg !2941
  br i1 %cmp, label %if.then, label %lor.lhs.false, !dbg !2942

lor.lhs.false:                                    ; preds = %entry
  %6 = load i8, i8* %isEmptyPublic, align 1, !dbg !2943
  %tobool4 = trunc i8 %6 to i1, !dbg !2943
  %conv5 = zext i1 %tobool4 to i32, !dbg !2943
  %cmp6 = icmp eq i32 %conv5, 0, !dbg !2944
  br i1 %cmp6, label %if.then, label %if.end23, !dbg !2945

if.then:                                          ; preds = %lor.lhs.false, %entry
  %7 = bitcast %"class.xalanc_1_10::FormatterToHTML"* %this1 to %"class.xalanc_1_10::FormatterToXML"*, !dbg !2946
  call void @_ZN11xalanc_1_1014FormatterToXML12accumContentEPKtjj(%"class.xalanc_1_10::FormatterToXML"* %7, i16* getelementptr inbounds ([15 x i16], [15 x i16]* @_ZN11xalanc_1_1015FormatterToHTML26s_doctypeHeaderStartStringE, i64 0, i64 0), i32 0, i32 14), !dbg !2946
  %8 = load i8, i8* %isEmptyPublic, align 1, !dbg !2948
  %tobool7 = trunc i8 %8 to i1, !dbg !2948
  %conv8 = zext i1 %tobool7 to i32, !dbg !2948
  %cmp9 = icmp eq i32 %conv8, 0, !dbg !2950
  br i1 %cmp9, label %if.then10, label %if.end, !dbg !2951

if.then10:                                        ; preds = %if.then
  %9 = bitcast %"class.xalanc_1_10::FormatterToHTML"* %this1 to %"class.xalanc_1_10::FormatterToXML"*, !dbg !2952
  call void @_ZN11xalanc_1_1014FormatterToXML12accumContentEPKtjj(%"class.xalanc_1_10::FormatterToXML"* %9, i16* getelementptr inbounds ([10 x i16], [10 x i16]* @_ZN11xalanc_1_1015FormatterToHTML27s_doctypeHeaderPublicStringE, i64 0, i64 0), i32 0, i32 9), !dbg !2952
  %10 = bitcast %"class.xalanc_1_10::FormatterToHTML"* %this1 to %"class.xalanc_1_10::FormatterToXML"*, !dbg !2954
  %11 = bitcast %"class.xalanc_1_10::FormatterToHTML"* %this1 to %"class.xalanc_1_10::FormatterToXML"*, !dbg !2955
  %m_doctypePublic11 = getelementptr inbounds %"class.xalanc_1_10::FormatterToXML", %"class.xalanc_1_10::FormatterToXML"* %11, i32 0, i32 18, !dbg !2955
  call void @_ZN11xalanc_1_1014FormatterToXML12accumContentERKNS_14XalanDOMStringE(%"class.xalanc_1_10::FormatterToXML"* %10, %"class.xalanc_1_10::XalanDOMString"* dereferenceable(40) %m_doctypePublic11), !dbg !2954
  %12 = bitcast %"class.xalanc_1_10::FormatterToHTML"* %this1 to %"class.xalanc_1_10::FormatterToXML"*, !dbg !2956
  call void @_ZN11xalanc_1_1014FormatterToXML12accumContentEt(%"class.xalanc_1_10::FormatterToXML"* %12, i16 zeroext 34), !dbg !2956
  br label %if.end, !dbg !2957

if.end:                                           ; preds = %if.then10, %if.then
  %13 = load i8, i8* %isEmptySystem, align 1, !dbg !2958
  %tobool12 = trunc i8 %13 to i1, !dbg !2958
  %conv13 = zext i1 %tobool12 to i32, !dbg !2958
  %cmp14 = icmp eq i32 %conv13, 0, !dbg !2960
  br i1 %cmp14, label %if.then15, label %if.end22, !dbg !2961

if.then15:                                        ; preds = %if.end
  %14 = load i8, i8* %isEmptyPublic, align 1, !dbg !2962
  %tobool16 = trunc i8 %14 to i1, !dbg !2962
  %conv17 = zext i1 %tobool16 to i32, !dbg !2962
  %cmp18 = icmp eq i32 %conv17, 1, !dbg !2965
  br i1 %cmp18, label %if.then19, label %if.end20, !dbg !2966

if.then19:                                        ; preds = %if.then15
  %15 = bitcast %"class.xalanc_1_10::FormatterToHTML"* %this1 to %"class.xalanc_1_10::FormatterToXML"*, !dbg !2967
  call void @_ZN11xalanc_1_1014FormatterToXML12accumContentEPKtjj(%"class.xalanc_1_10::FormatterToXML"* %15, i16* getelementptr inbounds ([8 x i16], [8 x i16]* @_ZN11xalanc_1_1015FormatterToHTML27s_doctypeHeaderSystemStringE, i64 0, i64 0), i32 0, i32 7), !dbg !2967
  br label %if.end20, !dbg !2969

if.end20:                                         ; preds = %if.then19, %if.then15
  %16 = bitcast %"class.xalanc_1_10::FormatterToHTML"* %this1 to %"class.xalanc_1_10::FormatterToXML"*, !dbg !2970
  call void @_ZN11xalanc_1_1014FormatterToXML12accumContentEt(%"class.xalanc_1_10::FormatterToXML"* %16, i16 zeroext 32), !dbg !2970
  %17 = bitcast %"class.xalanc_1_10::FormatterToHTML"* %this1 to %"class.xalanc_1_10::FormatterToXML"*, !dbg !2971
  call void @_ZN11xalanc_1_1014FormatterToXML12accumContentEt(%"class.xalanc_1_10::FormatterToXML"* %17, i16 zeroext 34), !dbg !2971
  %18 = bitcast %"class.xalanc_1_10::FormatterToHTML"* %this1 to %"class.xalanc_1_10::FormatterToXML"*, !dbg !2972
  %19 = bitcast %"class.xalanc_1_10::FormatterToHTML"* %this1 to %"class.xalanc_1_10::FormatterToXML"*, !dbg !2973
  %m_doctypeSystem21 = getelementptr inbounds %"class.xalanc_1_10::FormatterToXML", %"class.xalanc_1_10::FormatterToXML"* %19, i32 0, i32 17, !dbg !2973
  call void @_ZN11xalanc_1_1014FormatterToXML12accumContentERKNS_14XalanDOMStringE(%"class.xalanc_1_10::FormatterToXML"* %18, %"class.xalanc_1_10::XalanDOMString"* dereferenceable(40) %m_doctypeSystem21), !dbg !2972
  %20 = bitcast %"class.xalanc_1_10::FormatterToHTML"* %this1 to %"class.xalanc_1_10::FormatterToXML"*, !dbg !2974
  call void @_ZN11xalanc_1_1014FormatterToXML12accumContentEt(%"class.xalanc_1_10::FormatterToXML"* %20, i16 zeroext 34), !dbg !2974
  br label %if.end22, !dbg !2975

if.end22:                                         ; preds = %if.end20, %if.end
  %21 = bitcast %"class.xalanc_1_10::FormatterToHTML"* %this1 to %"class.xalanc_1_10::FormatterToXML"*, !dbg !2976
  call void @_ZN11xalanc_1_1014FormatterToXML12accumContentEt(%"class.xalanc_1_10::FormatterToXML"* %21, i16 zeroext 62), !dbg !2976
  %22 = bitcast %"class.xalanc_1_10::FormatterToHTML"* %this1 to %"class.xalanc_1_10::FormatterToXML"*, !dbg !2977
  call void @_ZN11xalanc_1_1014FormatterToXML13outputLineSepEv(%"class.xalanc_1_10::FormatterToXML"* %22), !dbg !2977
  br label %if.end23, !dbg !2978

if.end23:                                         ; preds = %if.end22, %lor.lhs.false
  %23 = bitcast %"class.xalanc_1_10::FormatterToHTML"* %this1 to %"class.xalanc_1_10::FormatterToXML"*, !dbg !2979
  %m_needToOutputDocTypeDecl = getelementptr inbounds %"class.xalanc_1_10::FormatterToXML", %"class.xalanc_1_10::FormatterToXML"* %23, i32 0, i32 10, !dbg !2979
  store i8 0, i8* %m_needToOutputDocTypeDecl, align 2, !dbg !2980
  ret void, !dbg !2981
}

; Function Attrs: noinline uwtable
define linkonce_odr dso_local void @_ZN11xalanc_1_105clearERNS_14XalanDOMStringE(%"class.xalanc_1_10::XalanDOMString"* dereferenceable(40) %theString) #0 comdat !dbg !2982 {
entry:
  %theString.addr = alloca %"class.xalanc_1_10::XalanDOMString"*, align 8
  store %"class.xalanc_1_10::XalanDOMString"* %theString, %"class.xalanc_1_10::XalanDOMString"** %theString.addr, align 8
  call void @llvm.dbg.declare(metadata %"class.xalanc_1_10::XalanDOMString"** %theString.addr, metadata !2985, metadata !DIExpression()), !dbg !2986
  %0 = load %"class.xalanc_1_10::XalanDOMString"*, %"class.xalanc_1_10::XalanDOMString"** %theString.addr, align 8, !dbg !2987
  call void @_ZN11xalanc_1_1014XalanDOMString5clearEv(%"class.xalanc_1_10::XalanDOMString"* %0), !dbg !2988
  ret void, !dbg !2989
}

; Function Attrs: noinline uwtable
define linkonce_odr dso_local void @_ZN11xalanc_1_1011XalanVectorIbNS_31MemoryManagedConstructionTraitsIbEEE5clearEv(%"class.xalanc_1_10::XalanVector.0"* %this) #0 comdat align 2 !dbg !2990 {
entry:
  %this.addr = alloca %"class.xalanc_1_10::XalanVector.0"*, align 8
  store %"class.xalanc_1_10::XalanVector.0"* %this, %"class.xalanc_1_10::XalanVector.0"** %this.addr, align 8
  call void @llvm.dbg.declare(metadata %"class.xalanc_1_10::XalanVector.0"** %this.addr, metadata !2991, metadata !DIExpression()), !dbg !2992
  %this1 = load %"class.xalanc_1_10::XalanVector.0"*, %"class.xalanc_1_10::XalanVector.0"** %this.addr, align 8
  call void @_ZNK11xalanc_1_1011XalanVectorIbNS_31MemoryManagedConstructionTraitsIbEEE10invariantsEv(%"class.xalanc_1_10::XalanVector.0"* %this1), !dbg !2993
  %m_size = getelementptr inbounds %"class.xalanc_1_10::XalanVector.0", %"class.xalanc_1_10::XalanVector.0"* %this1, i32 0, i32 1, !dbg !2994
  %0 = load i64, i64* %m_size, align 8, !dbg !2994
  %cmp = icmp ugt i64 %0, 0, !dbg !2996
  br i1 %cmp, label %if.then, label %if.end, !dbg !2997

if.then:                                          ; preds = %entry
  call void @_ZN11xalanc_1_1011XalanVectorIbNS_31MemoryManagedConstructionTraitsIbEEE12shrinkToSizeEm(%"class.xalanc_1_10::XalanVector.0"* %this1, i64 0), !dbg !2998
  br label %if.end, !dbg !3000

if.end:                                           ; preds = %if.then, %entry
  call void @_ZNK11xalanc_1_1011XalanVectorIbNS_31MemoryManagedConstructionTraitsIbEEE10invariantsEv(%"class.xalanc_1_10::XalanVector.0"* %this1), !dbg !3001
  ret void, !dbg !3002
}

; Function Attrs: noinline uwtable
define linkonce_odr dso_local void @_ZN11xalanc_1_1011XalanVectorIbNS_31MemoryManagedConstructionTraitsIbEEE9push_backERKb(%"class.xalanc_1_10::XalanVector.0"* %this, i8* dereferenceable(1) %data) #0 comdat align 2 !dbg !3003 {
entry:
  %this.addr = alloca %"class.xalanc_1_10::XalanVector.0"*, align 8
  %data.addr = alloca i8*, align 8
  store %"class.xalanc_1_10::XalanVector.0"* %this, %"class.xalanc_1_10::XalanVector.0"** %this.addr, align 8
  call void @llvm.dbg.declare(metadata %"class.xalanc_1_10::XalanVector.0"** %this.addr, metadata !3004, metadata !DIExpression()), !dbg !3005
  store i8* %data, i8** %data.addr, align 8
  call void @llvm.dbg.declare(metadata i8** %data.addr, metadata !3006, metadata !DIExpression()), !dbg !3007
  %this1 = load %"class.xalanc_1_10::XalanVector.0"*, %"class.xalanc_1_10::XalanVector.0"** %this.addr, align 8
  call void @_ZNK11xalanc_1_1011XalanVectorIbNS_31MemoryManagedConstructionTraitsIbEEE10invariantsEv(%"class.xalanc_1_10::XalanVector.0"* %this1), !dbg !3008
  %0 = load i8*, i8** %data.addr, align 8, !dbg !3009
  call void @_ZN11xalanc_1_1011XalanVectorIbNS_31MemoryManagedConstructionTraitsIbEEE10doPushBackERKb(%"class.xalanc_1_10::XalanVector.0"* %this1, i8* dereferenceable(1) %0), !dbg !3010
  call void @_ZNK11xalanc_1_1011XalanVectorIbNS_31MemoryManagedConstructionTraitsIbEEE10invariantsEv(%"class.xalanc_1_10::XalanVector.0"* %this1), !dbg !3011
  ret void, !dbg !3012
}

; Function Attrs: noinline uwtable
define linkonce_odr dso_local void @_ZN11xalanc_1_1011XalanVectorINS_27XalanHTMLElementsProperties17ElementPropertiesENS_31MemoryManagedConstructionTraitsIS2_EEE5clearEv(%"class.xalanc_1_10::XalanVector.2"* %this) #0 comdat align 2 !dbg !3013 {
entry:
  %this.addr = alloca %"class.xalanc_1_10::XalanVector.2"*, align 8
  store %"class.xalanc_1_10::XalanVector.2"* %this, %"class.xalanc_1_10::XalanVector.2"** %this.addr, align 8
  call void @llvm.dbg.declare(metadata %"class.xalanc_1_10::XalanVector.2"** %this.addr, metadata !3014, metadata !DIExpression()), !dbg !3015
  %this1 = load %"class.xalanc_1_10::XalanVector.2"*, %"class.xalanc_1_10::XalanVector.2"** %this.addr, align 8
  call void @_ZNK11xalanc_1_1011XalanVectorINS_27XalanHTMLElementsProperties17ElementPropertiesENS_31MemoryManagedConstructionTraitsIS2_EEE10invariantsEv(%"class.xalanc_1_10::XalanVector.2"* %this1), !dbg !3016
  %m_size = getelementptr inbounds %"class.xalanc_1_10::XalanVector.2", %"class.xalanc_1_10::XalanVector.2"* %this1, i32 0, i32 1, !dbg !3017
  %0 = load i64, i64* %m_size, align 8, !dbg !3017
  %cmp = icmp ugt i64 %0, 0, !dbg !3019
  br i1 %cmp, label %if.then, label %if.end, !dbg !3020

if.then:                                          ; preds = %entry
  call void @_ZN11xalanc_1_1011XalanVectorINS_27XalanHTMLElementsProperties17ElementPropertiesENS_31MemoryManagedConstructionTraitsIS2_EEE12shrinkToSizeEm(%"class.xalanc_1_10::XalanVector.2"* %this1, i64 0), !dbg !3021
  br label %if.end, !dbg !3023

if.end:                                           ; preds = %if.then, %entry
  call void @_ZNK11xalanc_1_1011XalanVectorINS_27XalanHTMLElementsProperties17ElementPropertiesENS_31MemoryManagedConstructionTraitsIS2_EEE10invariantsEv(%"class.xalanc_1_10::XalanVector.2"* %this1), !dbg !3024
  ret void, !dbg !3025
}

; Function Attrs: noinline uwtable
define linkonce_odr dso_local zeroext i1 @_ZN11xalanc_1_107isEmptyERKNS_14XalanDOMStringE(%"class.xalanc_1_10::XalanDOMString"* dereferenceable(40) %str) #0 comdat !dbg !3026 {
entry:
  %str.addr = alloca %"class.xalanc_1_10::XalanDOMString"*, align 8
  store %"class.xalanc_1_10::XalanDOMString"* %str, %"class.xalanc_1_10::XalanDOMString"** %str.addr, align 8
  call void @llvm.dbg.declare(metadata %"class.xalanc_1_10::XalanDOMString"** %str.addr, metadata !3029, metadata !DIExpression()), !dbg !3030
  %0 = load %"class.xalanc_1_10::XalanDOMString"*, %"class.xalanc_1_10::XalanDOMString"** %str.addr, align 8, !dbg !3031
  %call = call zeroext i1 @_ZNK11xalanc_1_1014XalanDOMString5emptyEv(%"class.xalanc_1_10::XalanDOMString"* %0), !dbg !3032
  ret i1 %call, !dbg !3033
}

; Function Attrs: noinline uwtable
define linkonce_odr dso_local void @_ZN11xalanc_1_1014FormatterToXML12accumContentEPKtjj(%"class.xalanc_1_10::FormatterToXML"* %this, i16* %chars, i32 %start, i32 %length) #0 comdat align 2 !dbg !3034 {
entry:
  %this.addr = alloca %"class.xalanc_1_10::FormatterToXML"*, align 8
  %chars.addr = alloca i16*, align 8
  %start.addr = alloca i32, align 4
  %length.addr = alloca i32, align 4
  store %"class.xalanc_1_10::FormatterToXML"* %this, %"class.xalanc_1_10::FormatterToXML"** %this.addr, align 8
  call void @llvm.dbg.declare(metadata %"class.xalanc_1_10::FormatterToXML"** %this.addr, metadata !3039, metadata !DIExpression()), !dbg !3041
  store i16* %chars, i16** %chars.addr, align 8
  call void @llvm.dbg.declare(metadata i16** %chars.addr, metadata !3042, metadata !DIExpression()), !dbg !3043
  store i32 %start, i32* %start.addr, align 4
  call void @llvm.dbg.declare(metadata i32* %start.addr, metadata !3044, metadata !DIExpression()), !dbg !3045
  store i32 %length, i32* %length.addr, align 4
  call void @llvm.dbg.declare(metadata i32* %length.addr, metadata !3046, metadata !DIExpression()), !dbg !3047
  %this1 = load %"class.xalanc_1_10::FormatterToXML"*, %"class.xalanc_1_10::FormatterToXML"** %this.addr, align 8
  %m_accumContentArrayFunction = getelementptr inbounds %"class.xalanc_1_10::FormatterToXML", %"class.xalanc_1_10::FormatterToXML"* %this1, i32 0, i32 45, !dbg !3048
  %0 = load { i64, i64 }, { i64, i64 }* %m_accumContentArrayFunction, align 8, !dbg !3048
  %memptr.adj = extractvalue { i64, i64 } %0, 1, !dbg !3049
  %1 = bitcast %"class.xalanc_1_10::FormatterToXML"* %this1 to i8*, !dbg !3049
  %2 = getelementptr inbounds i8, i8* %1, i64 %memptr.adj, !dbg !3049
  %this.adjusted = bitcast i8* %2 to %"class.xalanc_1_10::FormatterToXML"*, !dbg !3049
  %memptr.ptr = extractvalue { i64, i64 } %0, 0, !dbg !3049
  %3 = and i64 %memptr.ptr, 1, !dbg !3049
  %memptr.isvirtual = icmp ne i64 %3, 0, !dbg !3049
  br i1 %memptr.isvirtual, label %memptr.virtual, label %memptr.nonvirtual, !dbg !3049

memptr.virtual:                                   ; preds = %entry
  %4 = bitcast %"class.xalanc_1_10::FormatterToXML"* %this.adjusted to i8**, !dbg !3049
  %vtable = load i8*, i8** %4, align 8, !dbg !3049
  %5 = sub i64 %memptr.ptr, 1, !dbg !3049
  %6 = getelementptr i8, i8* %vtable, i64 %5, !dbg !3049, !nosanitize !139
  %7 = bitcast i8* %6 to void (%"class.xalanc_1_10::FormatterToXML"*, i16*, i32, i32)**, !dbg !3049, !nosanitize !139
  %memptr.virtualfn = load void (%"class.xalanc_1_10::FormatterToXML"*, i16*, i32, i32)*, void (%"class.xalanc_1_10::FormatterToXML"*, i16*, i32, i32)** %7, align 8, !dbg !3049, !nosanitize !139
  br label %memptr.end, !dbg !3049

memptr.nonvirtual:                                ; preds = %entry
  %memptr.nonvirtualfn = inttoptr i64 %memptr.ptr to void (%"class.xalanc_1_10::FormatterToXML"*, i16*, i32, i32)*, !dbg !3049
  br label %memptr.end, !dbg !3049

memptr.end:                                       ; preds = %memptr.nonvirtual, %memptr.virtual
  %8 = phi void (%"class.xalanc_1_10::FormatterToXML"*, i16*, i32, i32)* [ %memptr.virtualfn, %memptr.virtual ], [ %memptr.nonvirtualfn, %memptr.nonvirtual ], !dbg !3049
  %9 = load i16*, i16** %chars.addr, align 8, !dbg !3050
  %10 = load i32, i32* %start.addr, align 4, !dbg !3051
  %11 = load i32, i32* %length.addr, align 4, !dbg !3052
  call void %8(%"class.xalanc_1_10::FormatterToXML"* %this.adjusted, i16* %9, i32 %10, i32 %11), !dbg !3049
  ret void, !dbg !3053
}

; Function Attrs: noinline uwtable
define linkonce_odr dso_local void @_ZN11xalanc_1_1014FormatterToXML12accumContentERKNS_14XalanDOMStringE(%"class.xalanc_1_10::FormatterToXML"* %this, %"class.xalanc_1_10::XalanDOMString"* dereferenceable(40) %str) #0 comdat align 2 !dbg !3054 {
entry:
  %this.addr = alloca %"class.xalanc_1_10::FormatterToXML"*, align 8
  %str.addr = alloca %"class.xalanc_1_10::XalanDOMString"*, align 8
  store %"class.xalanc_1_10::FormatterToXML"* %this, %"class.xalanc_1_10::FormatterToXML"** %this.addr, align 8
  call void @llvm.dbg.declare(metadata %"class.xalanc_1_10::FormatterToXML"** %this.addr, metadata !3058, metadata !DIExpression()), !dbg !3059
  store %"class.xalanc_1_10::XalanDOMString"* %str, %"class.xalanc_1_10::XalanDOMString"** %str.addr, align 8
  call void @llvm.dbg.declare(metadata %"class.xalanc_1_10::XalanDOMString"** %str.addr, metadata !3060, metadata !DIExpression()), !dbg !3061
  %this1 = load %"class.xalanc_1_10::FormatterToXML"*, %"class.xalanc_1_10::FormatterToXML"** %this.addr, align 8
  %m_accumContentDOMStringFunction = getelementptr inbounds %"class.xalanc_1_10::FormatterToXML", %"class.xalanc_1_10::FormatterToXML"* %this1, i32 0, i32 44, !dbg !3062
  %0 = load { i64, i64 }, { i64, i64 }* %m_accumContentDOMStringFunction, align 8, !dbg !3062
  %memptr.adj = extractvalue { i64, i64 } %0, 1, !dbg !3063
  %1 = bitcast %"class.xalanc_1_10::FormatterToXML"* %this1 to i8*, !dbg !3063
  %2 = getelementptr inbounds i8, i8* %1, i64 %memptr.adj, !dbg !3063
  %this.adjusted = bitcast i8* %2 to %"class.xalanc_1_10::FormatterToXML"*, !dbg !3063
  %memptr.ptr = extractvalue { i64, i64 } %0, 0, !dbg !3063
  %3 = and i64 %memptr.ptr, 1, !dbg !3063
  %memptr.isvirtual = icmp ne i64 %3, 0, !dbg !3063
  br i1 %memptr.isvirtual, label %memptr.virtual, label %memptr.nonvirtual, !dbg !3063

memptr.virtual:                                   ; preds = %entry
  %4 = bitcast %"class.xalanc_1_10::FormatterToXML"* %this.adjusted to i8**, !dbg !3063
  %vtable = load i8*, i8** %4, align 8, !dbg !3063
  %5 = sub i64 %memptr.ptr, 1, !dbg !3063
  %6 = getelementptr i8, i8* %vtable, i64 %5, !dbg !3063, !nosanitize !139
  %7 = bitcast i8* %6 to void (%"class.xalanc_1_10::FormatterToXML"*, %"class.xalanc_1_10::XalanDOMString"*)**, !dbg !3063, !nosanitize !139
  %memptr.virtualfn = load void (%"class.xalanc_1_10::FormatterToXML"*, %"class.xalanc_1_10::XalanDOMString"*)*, void (%"class.xalanc_1_10::FormatterToXML"*, %"class.xalanc_1_10::XalanDOMString"*)** %7, align 8, !dbg !3063, !nosanitize !139
  br label %memptr.end, !dbg !3063

memptr.nonvirtual:                                ; preds = %entry
  %memptr.nonvirtualfn = inttoptr i64 %memptr.ptr to void (%"class.xalanc_1_10::FormatterToXML"*, %"class.xalanc_1_10::XalanDOMString"*)*, !dbg !3063
  br label %memptr.end, !dbg !3063

memptr.end:                                       ; preds = %memptr.nonvirtual, %memptr.virtual
  %8 = phi void (%"class.xalanc_1_10::FormatterToXML"*, %"class.xalanc_1_10::XalanDOMString"*)* [ %memptr.virtualfn, %memptr.virtual ], [ %memptr.nonvirtualfn, %memptr.nonvirtual ], !dbg !3063
  %9 = load %"class.xalanc_1_10::XalanDOMString"*, %"class.xalanc_1_10::XalanDOMString"** %str.addr, align 8, !dbg !3064
  call void %8(%"class.xalanc_1_10::FormatterToXML"* %this.adjusted, %"class.xalanc_1_10::XalanDOMString"* dereferenceable(40) %9), !dbg !3063
  ret void, !dbg !3065
}

; Function Attrs: noinline uwtable
define linkonce_odr dso_local void @_ZN11xalanc_1_1014FormatterToXML12accumContentEt(%"class.xalanc_1_10::FormatterToXML"* %this, i16 zeroext %ch) #0 comdat align 2 !dbg !3066 {
entry:
  %this.addr = alloca %"class.xalanc_1_10::FormatterToXML"*, align 8
  %ch.addr = alloca i16, align 2
  store %"class.xalanc_1_10::FormatterToXML"* %this, %"class.xalanc_1_10::FormatterToXML"** %this.addr, align 8
  call void @llvm.dbg.declare(metadata %"class.xalanc_1_10::FormatterToXML"** %this.addr, metadata !3070, metadata !DIExpression()), !dbg !3071
  store i16 %ch, i16* %ch.addr, align 2
  call void @llvm.dbg.declare(metadata i16* %ch.addr, metadata !3072, metadata !DIExpression()), !dbg !3073
  %this1 = load %"class.xalanc_1_10::FormatterToXML"*, %"class.xalanc_1_10::FormatterToXML"** %this.addr, align 8
  %m_accumContentCharFunction = getelementptr inbounds %"class.xalanc_1_10::FormatterToXML", %"class.xalanc_1_10::FormatterToXML"* %this1, i32 0, i32 42, !dbg !3074
  %0 = load { i64, i64 }, { i64, i64 }* %m_accumContentCharFunction, align 8, !dbg !3074
  %memptr.adj = extractvalue { i64, i64 } %0, 1, !dbg !3075
  %1 = bitcast %"class.xalanc_1_10::FormatterToXML"* %this1 to i8*, !dbg !3075
  %2 = getelementptr inbounds i8, i8* %1, i64 %memptr.adj, !dbg !3075
  %this.adjusted = bitcast i8* %2 to %"class.xalanc_1_10::FormatterToXML"*, !dbg !3075
  %memptr.ptr = extractvalue { i64, i64 } %0, 0, !dbg !3075
  %3 = and i64 %memptr.ptr, 1, !dbg !3075
  %memptr.isvirtual = icmp ne i64 %3, 0, !dbg !3075
  br i1 %memptr.isvirtual, label %memptr.virtual, label %memptr.nonvirtual, !dbg !3075

memptr.virtual:                                   ; preds = %entry
  %4 = bitcast %"class.xalanc_1_10::FormatterToXML"* %this.adjusted to i8**, !dbg !3075
  %vtable = load i8*, i8** %4, align 8, !dbg !3075
  %5 = sub i64 %memptr.ptr, 1, !dbg !3075
  %6 = getelementptr i8, i8* %vtable, i64 %5, !dbg !3075, !nosanitize !139
  %7 = bitcast i8* %6 to void (%"class.xalanc_1_10::FormatterToXML"*, i16)**, !dbg !3075, !nosanitize !139
  %memptr.virtualfn = load void (%"class.xalanc_1_10::FormatterToXML"*, i16)*, void (%"class.xalanc_1_10::FormatterToXML"*, i16)** %7, align 8, !dbg !3075, !nosanitize !139
  br label %memptr.end, !dbg !3075

memptr.nonvirtual:                                ; preds = %entry
  %memptr.nonvirtualfn = inttoptr i64 %memptr.ptr to void (%"class.xalanc_1_10::FormatterToXML"*, i16)*, !dbg !3075
  br label %memptr.end, !dbg !3075

memptr.end:                                       ; preds = %memptr.nonvirtual, %memptr.virtual
  %8 = phi void (%"class.xalanc_1_10::FormatterToXML"*, i16)* [ %memptr.virtualfn, %memptr.virtual ], [ %memptr.nonvirtualfn, %memptr.nonvirtual ], !dbg !3075
  %9 = load i16, i16* %ch.addr, align 2, !dbg !3076
  call void %8(%"class.xalanc_1_10::FormatterToXML"* %this.adjusted, i16 zeroext %9), !dbg !3075
  ret void, !dbg !3077
}

declare dso_local void @_ZN11xalanc_1_1014FormatterToXML13outputLineSepEv(%"class.xalanc_1_10::FormatterToXML"*) #1

; Function Attrs: noinline uwtable
define dso_local void @_ZN11xalanc_1_1015FormatterToHTML11endDocumentEv(%"class.xalanc_1_10::FormatterToHTML"* %this) unnamed_addr #0 align 2 !dbg !3078 {
entry:
  %this.addr = alloca %"class.xalanc_1_10::FormatterToHTML"*, align 8
  store %"class.xalanc_1_10::FormatterToHTML"* %this, %"class.xalanc_1_10::FormatterToHTML"** %this.addr, align 8
  call void @llvm.dbg.declare(metadata %"class.xalanc_1_10::FormatterToHTML"** %this.addr, metadata !3079, metadata !DIExpression()), !dbg !3080
  %this1 = load %"class.xalanc_1_10::FormatterToHTML"*, %"class.xalanc_1_10::FormatterToHTML"** %this.addr, align 8
  %m_inScriptElemStack = getelementptr inbounds %"class.xalanc_1_10::FormatterToHTML", %"class.xalanc_1_10::FormatterToHTML"* %this1, i32 0, i32 6, !dbg !3081
  call void @_ZN11xalanc_1_1011XalanVectorIbNS_31MemoryManagedConstructionTraitsIbEEE8pop_backEv(%"class.xalanc_1_10::XalanVector.0"* %m_inScriptElemStack), !dbg !3082
  %0 = bitcast %"class.xalanc_1_10::FormatterToHTML"* %this1 to %"class.xalanc_1_10::FormatterToXML"*, !dbg !3083
  call void @_ZN11xalanc_1_1014FormatterToXML11endDocumentEv(%"class.xalanc_1_10::FormatterToXML"* %0), !dbg !3083
  ret void, !dbg !3084
}

; Function Attrs: noinline nounwind uwtable
define linkonce_odr dso_local void @_ZN11xalanc_1_1011XalanVectorIbNS_31MemoryManagedConstructionTraitsIbEEE8pop_backEv(%"class.xalanc_1_10::XalanVector.0"* %this) #2 comdat align 2 !dbg !3085 {
entry:
  %this.addr = alloca %"class.xalanc_1_10::XalanVector.0"*, align 8
  store %"class.xalanc_1_10::XalanVector.0"* %this, %"class.xalanc_1_10::XalanVector.0"** %this.addr, align 8
  call void @llvm.dbg.declare(metadata %"class.xalanc_1_10::XalanVector.0"** %this.addr, metadata !3086, metadata !DIExpression()), !dbg !3087
  %this1 = load %"class.xalanc_1_10::XalanVector.0"*, %"class.xalanc_1_10::XalanVector.0"** %this.addr, align 8
  call void @_ZNK11xalanc_1_1011XalanVectorIbNS_31MemoryManagedConstructionTraitsIbEEE10invariantsEv(%"class.xalanc_1_10::XalanVector.0"* %this1), !dbg !3088
  %m_size = getelementptr inbounds %"class.xalanc_1_10::XalanVector.0", %"class.xalanc_1_10::XalanVector.0"* %this1, i32 0, i32 1, !dbg !3089
  %0 = load i64, i64* %m_size, align 8, !dbg !3090
  %dec = add i64 %0, -1, !dbg !3090
  store i64 %dec, i64* %m_size, align 8, !dbg !3090
  %m_data = getelementptr inbounds %"class.xalanc_1_10::XalanVector.0", %"class.xalanc_1_10::XalanVector.0"* %this1, i32 0, i32 3, !dbg !3091
  %1 = load i8*, i8** %m_data, align 8, !dbg !3091
  %m_size2 = getelementptr inbounds %"class.xalanc_1_10::XalanVector.0", %"class.xalanc_1_10::XalanVector.0"* %this1, i32 0, i32 1, !dbg !3092
  %2 = load i64, i64* %m_size2, align 8, !dbg !3092
  %arrayidx = getelementptr inbounds i8, i8* %1, i64 %2, !dbg !3091
  call void @_ZN11xalanc_1_1011XalanVectorIbNS_31MemoryManagedConstructionTraitsIbEEE7destroyERb(i8* dereferenceable(1) %arrayidx), !dbg !3093
  call void @_ZNK11xalanc_1_1011XalanVectorIbNS_31MemoryManagedConstructionTraitsIbEEE10invariantsEv(%"class.xalanc_1_10::XalanVector.0"* %this1), !dbg !3094
  ret void, !dbg !3095
}

declare dso_local void @_ZN11xalanc_1_1014FormatterToXML11endDocumentEv(%"class.xalanc_1_10::FormatterToXML"*) unnamed_addr #1

; Function Attrs: noinline uwtable
define dso_local void @_ZN11xalanc_1_1015FormatterToHTML12startElementEPKtRN11xercesc_2_713AttributeListE(%"class.xalanc_1_10::FormatterToHTML"* %this, i16* %name, %"class.xercesc_2_7::AttributeList"* dereferenceable(8) %attrs) unnamed_addr #0 align 2 !dbg !3096 {
entry:
  %this.addr = alloca %"class.xalanc_1_10::FormatterToHTML"*, align 8
  %name.addr = alloca i16*, align 8
  %attrs.addr = alloca %"class.xercesc_2_7::AttributeList"*, align 8
  %elemProperties = alloca %"class.xalanc_1_10::XalanHTMLElementsProperties::ElementProperties"*, align 8
  %ref.tmp = alloca %"class.xalanc_1_10::XalanHTMLElementsProperties::ElementProperties", align 8
  %isBlockElement = alloca i8, align 1
  %ref.tmp7 = alloca i8, align 1
  %ref.tmp43 = alloca i8, align 1
  %nAttrs = alloca i32, align 4
  %i = alloca i32, align 4
  store %"class.xalanc_1_10::FormatterToHTML"* %this, %"class.xalanc_1_10::FormatterToHTML"** %this.addr, align 8
  call void @llvm.dbg.declare(metadata %"class.xalanc_1_10::FormatterToHTML"** %this.addr, metadata !3097, metadata !DIExpression()), !dbg !3098
  store i16* %name, i16** %name.addr, align 8
  call void @llvm.dbg.declare(metadata i16** %name.addr, metadata !3099, metadata !DIExpression()), !dbg !3100
  store %"class.xercesc_2_7::AttributeList"* %attrs, %"class.xercesc_2_7::AttributeList"** %attrs.addr, align 8
  call void @llvm.dbg.declare(metadata %"class.xercesc_2_7::AttributeList"** %attrs.addr, metadata !3101, metadata !DIExpression()), !dbg !3102
  %this1 = load %"class.xalanc_1_10::FormatterToHTML"*, %"class.xalanc_1_10::FormatterToHTML"** %this.addr, align 8
  %0 = load i16*, i16** %name.addr, align 8, !dbg !3103
  %call = call zeroext i1 @_ZN11xalanc_1_1015FormatterToHTML16pushHasNamespaceEPKt(%"class.xalanc_1_10::FormatterToHTML"* %this1, i16* %0), !dbg !3105
  %conv = zext i1 %call to i32, !dbg !3105
  %cmp = icmp eq i32 %conv, 1, !dbg !3106
  br i1 %cmp, label %if.then, label %if.else, !dbg !3107

if.then:                                          ; preds = %entry
  %1 = bitcast %"class.xalanc_1_10::FormatterToHTML"* %this1 to %"class.xalanc_1_10::FormatterToXML"*, !dbg !3108
  %2 = load i16*, i16** %name.addr, align 8, !dbg !3110
  %3 = load %"class.xercesc_2_7::AttributeList"*, %"class.xercesc_2_7::AttributeList"** %attrs.addr, align 8, !dbg !3111
  call void @_ZN11xalanc_1_1014FormatterToXML12startElementEPKtRN11xercesc_2_713AttributeListE(%"class.xalanc_1_10::FormatterToXML"* %1, i16* %2, %"class.xercesc_2_7::AttributeList"* dereferenceable(8) %3), !dbg !3108
  br label %if.end83, !dbg !3112

if.else:                                          ; preds = %entry
  %4 = bitcast %"class.xalanc_1_10::FormatterToHTML"* %this1 to %"class.xalanc_1_10::FormatterToXML"*, !dbg !3113
  call void @_ZN11xalanc_1_1014FormatterToXML17writeParentTagEndEv(%"class.xalanc_1_10::FormatterToXML"* %4), !dbg !3113
  call void @llvm.dbg.declare(metadata %"class.xalanc_1_10::XalanHTMLElementsProperties::ElementProperties"** %elemProperties, metadata !3115, metadata !DIExpression()), !dbg !3116
  %5 = load i16*, i16** %name.addr, align 8, !dbg !3117
  call void @_ZN11xalanc_1_1027XalanHTMLElementsProperties4findEPKt(%"class.xalanc_1_10::XalanHTMLElementsProperties::ElementProperties"* sret %ref.tmp, i16* %5), !dbg !3118
  store %"class.xalanc_1_10::XalanHTMLElementsProperties::ElementProperties"* %ref.tmp, %"class.xalanc_1_10::XalanHTMLElementsProperties::ElementProperties"** %elemProperties, align 8, !dbg !3116
  %m_elementPropertiesStack = getelementptr inbounds %"class.xalanc_1_10::FormatterToHTML", %"class.xalanc_1_10::FormatterToHTML"* %this1, i32 0, i32 13, !dbg !3119
  %6 = load %"class.xalanc_1_10::XalanHTMLElementsProperties::ElementProperties"*, %"class.xalanc_1_10::XalanHTMLElementsProperties::ElementProperties"** %elemProperties, align 8, !dbg !3120
  call void @_ZN11xalanc_1_1011XalanVectorINS_27XalanHTMLElementsProperties17ElementPropertiesENS_31MemoryManagedConstructionTraitsIS2_EEE9push_backERKS2_(%"class.xalanc_1_10::XalanVector.2"* %m_elementPropertiesStack, %"class.xalanc_1_10::XalanHTMLElementsProperties::ElementProperties"* dereferenceable(8) %6), !dbg !3121
  call void @llvm.dbg.declare(metadata i8* %isBlockElement, metadata !3122, metadata !DIExpression()), !dbg !3123
  %7 = load %"class.xalanc_1_10::XalanHTMLElementsProperties::ElementProperties"*, %"class.xalanc_1_10::XalanHTMLElementsProperties::ElementProperties"** %elemProperties, align 8, !dbg !3124
  %call2 = call zeroext i1 @_ZNK11xalanc_1_1027XalanHTMLElementsProperties17ElementProperties2isEj(%"class.xalanc_1_10::XalanHTMLElementsProperties::ElementProperties"* %7, i32 8), !dbg !3125
  %frombool = zext i1 %call2 to i8, !dbg !3123
  store i8 %frombool, i8* %isBlockElement, align 1, !dbg !3123
  %8 = load %"class.xalanc_1_10::XalanHTMLElementsProperties::ElementProperties"*, %"class.xalanc_1_10::XalanHTMLElementsProperties::ElementProperties"** %elemProperties, align 8, !dbg !3126
  %call3 = call zeroext i1 @_ZNK11xalanc_1_1027XalanHTMLElementsProperties17ElementProperties2isEj(%"class.xalanc_1_10::XalanHTMLElementsProperties::ElementProperties"* %8, i32 16777216), !dbg !3128
  %conv4 = zext i1 %call3 to i32, !dbg !3126
  %cmp5 = icmp eq i32 %conv4, 1, !dbg !3129
  br i1 %cmp5, label %if.then6, label %if.else8, !dbg !3130

if.then6:                                         ; preds = %if.else
  %m_isScriptOrStyleElem = getelementptr inbounds %"class.xalanc_1_10::FormatterToHTML", %"class.xalanc_1_10::FormatterToHTML"* %this1, i32 0, i32 5, !dbg !3131
  store i8 1, i8* %m_isScriptOrStyleElem, align 8, !dbg !3133
  %m_inScriptElemStack = getelementptr inbounds %"class.xalanc_1_10::FormatterToHTML", %"class.xalanc_1_10::FormatterToHTML"* %this1, i32 0, i32 6, !dbg !3134
  store i8 1, i8* %ref.tmp7, align 1, !dbg !3135
  call void @_ZN11xalanc_1_1011XalanVectorIbNS_31MemoryManagedConstructionTraitsIbEEE9push_backERKb(%"class.xalanc_1_10::XalanVector.0"* %m_inScriptElemStack, i8* dereferenceable(1) %ref.tmp7), !dbg !3136
  br label %if.end17, !dbg !3137

if.else8:                                         ; preds = %if.else
  %9 = load %"class.xalanc_1_10::XalanHTMLElementsProperties::ElementProperties"*, %"class.xalanc_1_10::XalanHTMLElementsProperties::ElementProperties"** %elemProperties, align 8, !dbg !3138
  %call9 = call zeroext i1 @_ZNK11xalanc_1_1027XalanHTMLElementsProperties17ElementProperties2isEj(%"class.xalanc_1_10::XalanHTMLElementsProperties::ElementProperties"* %9, i32 8388608), !dbg !3141
  %conv10 = zext i1 %call9 to i32, !dbg !3138
  %cmp11 = icmp eq i32 %conv10, 1, !dbg !3142
  br i1 %cmp11, label %if.then12, label %if.end, !dbg !3143

if.then12:                                        ; preds = %if.else8
  %m_isScriptOrStyleElem13 = getelementptr inbounds %"class.xalanc_1_10::FormatterToHTML", %"class.xalanc_1_10::FormatterToHTML"* %this1, i32 0, i32 5, !dbg !3144
  store i8 1, i8* %m_isScriptOrStyleElem13, align 8, !dbg !3146
  br label %if.end, !dbg !3147

if.end:                                           ; preds = %if.then12, %if.else8
  %m_inScriptElemStack14 = getelementptr inbounds %"class.xalanc_1_10::FormatterToHTML", %"class.xalanc_1_10::FormatterToHTML"* %this1, i32 0, i32 6, !dbg !3148
  %m_inScriptElemStack15 = getelementptr inbounds %"class.xalanc_1_10::FormatterToHTML", %"class.xalanc_1_10::FormatterToHTML"* %this1, i32 0, i32 6, !dbg !3149
  %call16 = call dereferenceable(1) i8* @_ZN11xalanc_1_1011XalanVectorIbNS_31MemoryManagedConstructionTraitsIbEEE4backEv(%"class.xalanc_1_10::XalanVector.0"* %m_inScriptElemStack15), !dbg !3150
  call void @_ZN11xalanc_1_1011XalanVectorIbNS_31MemoryManagedConstructionTraitsIbEEE9push_backERKb(%"class.xalanc_1_10::XalanVector.0"* %m_inScriptElemStack14, i8* dereferenceable(1) %call16), !dbg !3151
  br label %if.end17

if.end17:                                         ; preds = %if.end, %if.then6
  %m_elementLevel = getelementptr inbounds %"class.xalanc_1_10::FormatterToHTML", %"class.xalanc_1_10::FormatterToHTML"* %this1, i32 0, i32 10, !dbg !3152
  %10 = load i32, i32* %m_elementLevel, align 4, !dbg !3153
  %inc = add nsw i32 %10, 1, !dbg !3153
  store i32 %inc, i32* %m_elementLevel, align 4, !dbg !3153
  %11 = bitcast %"class.xalanc_1_10::FormatterToHTML"* %this1 to %"class.xalanc_1_10::FormatterToXML"*, !dbg !3154
  %m_ispreserve = getelementptr inbounds %"class.xalanc_1_10::FormatterToXML", %"class.xalanc_1_10::FormatterToXML"* %11, i32 0, i32 7, !dbg !3154
  %12 = load i8, i8* %m_ispreserve, align 1, !dbg !3154
  %tobool = trunc i8 %12 to i1, !dbg !3154
  %conv18 = zext i1 %tobool to i32, !dbg !3154
  %cmp19 = icmp eq i32 %conv18, 1, !dbg !3156
  br i1 %cmp19, label %if.then20, label %if.else22, !dbg !3157

if.then20:                                        ; preds = %if.end17
  %13 = bitcast %"class.xalanc_1_10::FormatterToHTML"* %this1 to %"class.xalanc_1_10::FormatterToXML"*, !dbg !3158
  %m_ispreserve21 = getelementptr inbounds %"class.xalanc_1_10::FormatterToXML", %"class.xalanc_1_10::FormatterToXML"* %13, i32 0, i32 7, !dbg !3158
  store i8 0, i8* %m_ispreserve21, align 1, !dbg !3160
  br label %if.end39, !dbg !3161

if.else22:                                        ; preds = %if.end17
  %14 = bitcast %"class.xalanc_1_10::FormatterToHTML"* %this1 to %"class.xalanc_1_10::FormatterToXML"*, !dbg !3162
  %m_doIndent = getelementptr inbounds %"class.xalanc_1_10::FormatterToXML", %"class.xalanc_1_10::FormatterToXML"* %14, i32 0, i32 8, !dbg !3162
  %15 = load i8, i8* %m_doIndent, align 4, !dbg !3162
  %tobool23 = trunc i8 %15 to i1, !dbg !3162
  br i1 %tobool23, label %land.lhs.true, label %if.end38, !dbg !3164

land.lhs.true:                                    ; preds = %if.else22
  %m_elementLevel24 = getelementptr inbounds %"class.xalanc_1_10::FormatterToHTML", %"class.xalanc_1_10::FormatterToHTML"* %this1, i32 0, i32 10, !dbg !3165
  %16 = load i32, i32* %m_elementLevel24, align 4, !dbg !3165
  %cmp25 = icmp sgt i32 %16, 0, !dbg !3166
  br i1 %cmp25, label %land.lhs.true26, label %if.end38, !dbg !3167

land.lhs.true26:                                  ; preds = %land.lhs.true
  %m_isFirstElement = getelementptr inbounds %"class.xalanc_1_10::FormatterToHTML", %"class.xalanc_1_10::FormatterToHTML"* %this1, i32 0, i32 8, !dbg !3168
  %17 = load i8, i8* %m_isFirstElement, align 1, !dbg !3168
  %tobool27 = trunc i8 %17 to i1, !dbg !3168
  %conv28 = zext i1 %tobool27 to i32, !dbg !3168
  %cmp29 = icmp eq i32 %conv28, 0, !dbg !3169
  br i1 %cmp29, label %land.lhs.true30, label %if.end38, !dbg !3170

land.lhs.true30:                                  ; preds = %land.lhs.true26
  %m_inBlockElem = getelementptr inbounds %"class.xalanc_1_10::FormatterToHTML", %"class.xalanc_1_10::FormatterToHTML"* %this1, i32 0, i32 3, !dbg !3171
  %18 = load i8, i8* %m_inBlockElem, align 8, !dbg !3171
  %tobool31 = trunc i8 %18 to i1, !dbg !3171
  %conv32 = zext i1 %tobool31 to i32, !dbg !3171
  %cmp33 = icmp eq i32 %conv32, 0, !dbg !3172
  br i1 %cmp33, label %if.then37, label %lor.lhs.false, !dbg !3173

lor.lhs.false:                                    ; preds = %land.lhs.true30
  %19 = load i8, i8* %isBlockElement, align 1, !dbg !3174
  %tobool34 = trunc i8 %19 to i1, !dbg !3174
  %conv35 = zext i1 %tobool34 to i32, !dbg !3174
  %cmp36 = icmp eq i32 %conv35, 1, !dbg !3175
  br i1 %cmp36, label %if.then37, label %if.end38, !dbg !3176

if.then37:                                        ; preds = %lor.lhs.false, %land.lhs.true30
  %20 = bitcast %"class.xalanc_1_10::FormatterToHTML"* %this1 to %"class.xalanc_1_10::FormatterToXML"*, !dbg !3177
  %m_startNewLine = getelementptr inbounds %"class.xalanc_1_10::FormatterToXML", %"class.xalanc_1_10::FormatterToXML"* %20, i32 0, i32 9, !dbg !3177
  store i8 1, i8* %m_startNewLine, align 1, !dbg !3179
  %21 = bitcast %"class.xalanc_1_10::FormatterToHTML"* %this1 to %"class.xalanc_1_10::FormatterToXML"*, !dbg !3180
  %22 = bitcast %"class.xalanc_1_10::FormatterToHTML"* %this1 to %"class.xalanc_1_10::FormatterToXML"*, !dbg !3181
  %m_currentIndent = getelementptr inbounds %"class.xalanc_1_10::FormatterToXML", %"class.xalanc_1_10::FormatterToXML"* %22, i32 0, i32 20, !dbg !3181
  %23 = load i32, i32* %m_currentIndent, align 8, !dbg !3181
  call void @_ZN11xalanc_1_1014FormatterToXML6indentEi(%"class.xalanc_1_10::FormatterToXML"* %21, i32 %23), !dbg !3180
  br label %if.end38, !dbg !3182

if.end38:                                         ; preds = %if.then37, %lor.lhs.false, %land.lhs.true26, %land.lhs.true, %if.else22
  br label %if.end39

if.end39:                                         ; preds = %if.end38, %if.then20
  %24 = load i8, i8* %isBlockElement, align 1, !dbg !3183
  %tobool40 = trunc i8 %24 to i1, !dbg !3183
  %lnot = xor i1 %tobool40, true, !dbg !3184
  %m_inBlockElem41 = getelementptr inbounds %"class.xalanc_1_10::FormatterToHTML", %"class.xalanc_1_10::FormatterToHTML"* %this1, i32 0, i32 3, !dbg !3185
  %frombool42 = zext i1 %lnot to i8, !dbg !3186
  store i8 %frombool42, i8* %m_inBlockElem41, align 8, !dbg !3186
  %m_isRawStack = getelementptr inbounds %"class.xalanc_1_10::FormatterToHTML", %"class.xalanc_1_10::FormatterToHTML"* %this1, i32 0, i32 4, !dbg !3187
  %25 = load %"class.xalanc_1_10::XalanHTMLElementsProperties::ElementProperties"*, %"class.xalanc_1_10::XalanHTMLElementsProperties::ElementProperties"** %elemProperties, align 8, !dbg !3188
  %call44 = call zeroext i1 @_ZNK11xalanc_1_1027XalanHTMLElementsProperties17ElementProperties2isEj(%"class.xalanc_1_10::XalanHTMLElementsProperties::ElementProperties"* %25, i32 256), !dbg !3189
  %frombool45 = zext i1 %call44 to i8, !dbg !3188
  store i8 %frombool45, i8* %ref.tmp43, align 1, !dbg !3188
  call void @_ZN11xalanc_1_1011XalanVectorIbNS_31MemoryManagedConstructionTraitsIbEEE9push_backERKb(%"class.xalanc_1_10::XalanVector.0"* %m_isRawStack, i8* dereferenceable(1) %ref.tmp43), !dbg !3190
  %26 = bitcast %"class.xalanc_1_10::FormatterToHTML"* %this1 to %"class.xalanc_1_10::FormatterToXML"*, !dbg !3191
  call void @_ZN11xalanc_1_1014FormatterToXML12accumContentEt(%"class.xalanc_1_10::FormatterToXML"* %26, i16 zeroext 60), !dbg !3191
  %27 = bitcast %"class.xalanc_1_10::FormatterToHTML"* %this1 to %"class.xalanc_1_10::FormatterToXML"*, !dbg !3192
  %28 = load i16*, i16** %name.addr, align 8, !dbg !3193
  call void @_ZN11xalanc_1_1014FormatterToXML9accumNameEPKt(%"class.xalanc_1_10::FormatterToXML"* %27, i16* %28), !dbg !3192
  call void @llvm.dbg.declare(metadata i32* %nAttrs, metadata !3194, metadata !DIExpression()), !dbg !3195
  %29 = load %"class.xercesc_2_7::AttributeList"*, %"class.xercesc_2_7::AttributeList"** %attrs.addr, align 8, !dbg !3196
  %30 = bitcast %"class.xercesc_2_7::AttributeList"* %29 to i32 (%"class.xercesc_2_7::AttributeList"*)***, !dbg !3197
  %vtable = load i32 (%"class.xercesc_2_7::AttributeList"*)**, i32 (%"class.xercesc_2_7::AttributeList"*)*** %30, align 8, !dbg !3197
  %vfn = getelementptr inbounds i32 (%"class.xercesc_2_7::AttributeList"*)*, i32 (%"class.xercesc_2_7::AttributeList"*)** %vtable, i64 2, !dbg !3197
  %31 = load i32 (%"class.xercesc_2_7::AttributeList"*)*, i32 (%"class.xercesc_2_7::AttributeList"*)** %vfn, align 8, !dbg !3197
  %call46 = call i32 %31(%"class.xercesc_2_7::AttributeList"* %29), !dbg !3197
  store i32 %call46, i32* %nAttrs, align 4, !dbg !3195
  call void @llvm.dbg.declare(metadata i32* %i, metadata !3198, metadata !DIExpression()), !dbg !3200
  store i32 0, i32* %i, align 4, !dbg !3200
  br label %for.cond, !dbg !3201

for.cond:                                         ; preds = %for.inc, %if.end39
  %32 = load i32, i32* %i, align 4, !dbg !3202
  %33 = load i32, i32* %nAttrs, align 4, !dbg !3204
  %cmp47 = icmp ult i32 %32, %33, !dbg !3205
  br i1 %cmp47, label %for.body, label %for.end, !dbg !3206

for.body:                                         ; preds = %for.cond
  %34 = load %"class.xercesc_2_7::AttributeList"*, %"class.xercesc_2_7::AttributeList"** %attrs.addr, align 8, !dbg !3207
  %35 = load i32, i32* %i, align 4, !dbg !3209
  %36 = bitcast %"class.xercesc_2_7::AttributeList"* %34 to i16* (%"class.xercesc_2_7::AttributeList"*, i32)***, !dbg !3210
  %vtable48 = load i16* (%"class.xercesc_2_7::AttributeList"*, i32)**, i16* (%"class.xercesc_2_7::AttributeList"*, i32)*** %36, align 8, !dbg !3210
  %vfn49 = getelementptr inbounds i16* (%"class.xercesc_2_7::AttributeList"*, i32)*, i16* (%"class.xercesc_2_7::AttributeList"*, i32)** %vtable48, i64 3, !dbg !3210
  %37 = load i16* (%"class.xercesc_2_7::AttributeList"*, i32)*, i16* (%"class.xercesc_2_7::AttributeList"*, i32)** %vfn49, align 8, !dbg !3210
  %call50 = call i16* %37(%"class.xercesc_2_7::AttributeList"* %34, i32 %35), !dbg !3210
  %38 = load %"class.xercesc_2_7::AttributeList"*, %"class.xercesc_2_7::AttributeList"** %attrs.addr, align 8, !dbg !3211
  %39 = load i32, i32* %i, align 4, !dbg !3212
  %40 = bitcast %"class.xercesc_2_7::AttributeList"* %38 to i16* (%"class.xercesc_2_7::AttributeList"*, i32)***, !dbg !3213
  %vtable51 = load i16* (%"class.xercesc_2_7::AttributeList"*, i32)**, i16* (%"class.xercesc_2_7::AttributeList"*, i32)*** %40, align 8, !dbg !3213
  %vfn52 = getelementptr inbounds i16* (%"class.xercesc_2_7::AttributeList"*, i32)*, i16* (%"class.xercesc_2_7::AttributeList"*, i32)** %vtable51, i64 5, !dbg !3213
  %41 = load i16* (%"class.xercesc_2_7::AttributeList"*, i32)*, i16* (%"class.xercesc_2_7::AttributeList"*, i32)** %vfn52, align 8, !dbg !3213
  %call53 = call i16* %41(%"class.xercesc_2_7::AttributeList"* %38, i32 %39), !dbg !3213
  %42 = load %"class.xalanc_1_10::XalanHTMLElementsProperties::ElementProperties"*, %"class.xalanc_1_10::XalanHTMLElementsProperties::ElementProperties"** %elemProperties, align 8, !dbg !3214
  %43 = bitcast %"class.xalanc_1_10::FormatterToHTML"* %this1 to void (%"class.xalanc_1_10::FormatterToHTML"*, i16*, i16*, %"class.xalanc_1_10::XalanHTMLElementsProperties::ElementProperties"*)***, !dbg !3215
  %vtable54 = load void (%"class.xalanc_1_10::FormatterToHTML"*, i16*, i16*, %"class.xalanc_1_10::XalanHTMLElementsProperties::ElementProperties"*)**, void (%"class.xalanc_1_10::FormatterToHTML"*, i16*, i16*, %"class.xalanc_1_10::XalanHTMLElementsProperties::ElementProperties"*)*** %43, align 8, !dbg !3215
  %vfn55 = getelementptr inbounds void (%"class.xalanc_1_10::FormatterToHTML"*, i16*, i16*, %"class.xalanc_1_10::XalanHTMLElementsProperties::ElementProperties"*)*, void (%"class.xalanc_1_10::FormatterToHTML"*, i16*, i16*, %"class.xalanc_1_10::XalanHTMLElementsProperties::ElementProperties"*)** %vtable54, i64 25, !dbg !3215
  %44 = load void (%"class.xalanc_1_10::FormatterToHTML"*, i16*, i16*, %"class.xalanc_1_10::XalanHTMLElementsProperties::ElementProperties"*)*, void (%"class.xalanc_1_10::FormatterToHTML"*, i16*, i16*, %"class.xalanc_1_10::XalanHTMLElementsProperties::ElementProperties"*)** %vfn55, align 8, !dbg !3215
  call void %44(%"class.xalanc_1_10::FormatterToHTML"* %this1, i16* %call50, i16* %call53, %"class.xalanc_1_10::XalanHTMLElementsProperties::ElementProperties"* dereferenceable(8) %42), !dbg !3215
  br label %for.inc, !dbg !3216

for.inc:                                          ; preds = %for.body
  %45 = load i32, i32* %i, align 4, !dbg !3217
  %inc56 = add i32 %45, 1, !dbg !3217
  store i32 %inc56, i32* %i, align 4, !dbg !3217
  br label %for.cond, !dbg !3218, !llvm.loop !3219

for.end:                                          ; preds = %for.cond
  %46 = bitcast %"class.xalanc_1_10::FormatterToHTML"* %this1 to %"class.xalanc_1_10::FormatterToXML"*, !dbg !3221
  call void @_ZN11xalanc_1_1014FormatterToXML22openElementForChildrenEv(%"class.xalanc_1_10::FormatterToXML"* %46), !dbg !3221
  %47 = bitcast %"class.xalanc_1_10::FormatterToHTML"* %this1 to %"class.xalanc_1_10::FormatterToXML"*, !dbg !3222
  %m_indent = getelementptr inbounds %"class.xalanc_1_10::FormatterToXML", %"class.xalanc_1_10::FormatterToXML"* %47, i32 0, i32 21, !dbg !3222
  %48 = load i32, i32* %m_indent, align 4, !dbg !3222
  %49 = bitcast %"class.xalanc_1_10::FormatterToHTML"* %this1 to %"class.xalanc_1_10::FormatterToXML"*, !dbg !3223
  %m_currentIndent57 = getelementptr inbounds %"class.xalanc_1_10::FormatterToXML", %"class.xalanc_1_10::FormatterToXML"* %49, i32 0, i32 20, !dbg !3223
  %50 = load i32, i32* %m_currentIndent57, align 8, !dbg !3224
  %add = add nsw i32 %50, %48, !dbg !3224
  store i32 %add, i32* %m_currentIndent57, align 8, !dbg !3224
  %51 = bitcast %"class.xalanc_1_10::FormatterToHTML"* %this1 to %"class.xalanc_1_10::FormatterToXML"*, !dbg !3225
  %m_isprevtext = getelementptr inbounds %"class.xalanc_1_10::FormatterToXML", %"class.xalanc_1_10::FormatterToXML"* %51, i32 0, i32 11, !dbg !3225
  store i8 0, i8* %m_isprevtext, align 1, !dbg !3226
  %52 = load %"class.xalanc_1_10::XalanHTMLElementsProperties::ElementProperties"*, %"class.xalanc_1_10::XalanHTMLElementsProperties::ElementProperties"** %elemProperties, align 8, !dbg !3227
  %call58 = call zeroext i1 @_ZNK11xalanc_1_1027XalanHTMLElementsProperties17ElementProperties2isEj(%"class.xalanc_1_10::XalanHTMLElementsProperties::ElementProperties"* %52, i32 4194304), !dbg !3229
  %conv59 = zext i1 %call58 to i32, !dbg !3227
  %cmp60 = icmp eq i32 %conv59, 1, !dbg !3230
  br i1 %cmp60, label %if.then61, label %if.end75, !dbg !3231

if.then61:                                        ; preds = %for.end
  %53 = bitcast %"class.xalanc_1_10::FormatterToHTML"* %this1 to %"class.xalanc_1_10::FormatterToXML"*, !dbg !3232
  call void @_ZN11xalanc_1_1014FormatterToXML17writeParentTagEndEv(%"class.xalanc_1_10::FormatterToXML"* %53), !dbg !3232
  %m_omitMetaTag = getelementptr inbounds %"class.xalanc_1_10::FormatterToHTML", %"class.xalanc_1_10::FormatterToHTML"* %this1, i32 0, i32 12, !dbg !3234
  %54 = load i8, i8* %m_omitMetaTag, align 8, !dbg !3234
  %tobool62 = trunc i8 %54 to i1, !dbg !3234
  %conv63 = zext i1 %tobool62 to i32, !dbg !3234
  %cmp64 = icmp eq i32 %conv63, 0, !dbg !3236
  br i1 %cmp64, label %if.then65, label %if.end74, !dbg !3237

if.then65:                                        ; preds = %if.then61
  %55 = bitcast %"class.xalanc_1_10::FormatterToHTML"* %this1 to %"class.xalanc_1_10::FormatterToXML"*, !dbg !3238
  %m_doIndent66 = getelementptr inbounds %"class.xalanc_1_10::FormatterToXML", %"class.xalanc_1_10::FormatterToXML"* %55, i32 0, i32 8, !dbg !3238
  %56 = load i8, i8* %m_doIndent66, align 4, !dbg !3238
  %tobool67 = trunc i8 %56 to i1, !dbg !3238
  br i1 %tobool67, label %if.then68, label %if.end70, !dbg !3241

if.then68:                                        ; preds = %if.then65
  %57 = bitcast %"class.xalanc_1_10::FormatterToHTML"* %this1 to %"class.xalanc_1_10::FormatterToXML"*, !dbg !3242
  %58 = bitcast %"class.xalanc_1_10::FormatterToHTML"* %this1 to %"class.xalanc_1_10::FormatterToXML"*, !dbg !3244
  %m_currentIndent69 = getelementptr inbounds %"class.xalanc_1_10::FormatterToXML", %"class.xalanc_1_10::FormatterToXML"* %58, i32 0, i32 20, !dbg !3244
  %59 = load i32, i32* %m_currentIndent69, align 8, !dbg !3244
  call void @_ZN11xalanc_1_1014FormatterToXML6indentEi(%"class.xalanc_1_10::FormatterToXML"* %57, i32 %59), !dbg !3242
  br label %if.end70, !dbg !3245

if.end70:                                         ; preds = %if.then68, %if.then65
  %60 = bitcast %"class.xalanc_1_10::FormatterToHTML"* %this1 to %"class.xalanc_1_10::FormatterToXML"*, !dbg !3246
  call void @_ZN11xalanc_1_1014FormatterToXML12accumContentEPKtjj(%"class.xalanc_1_10::FormatterToXML"* %60, i16* getelementptr inbounds ([61 x i16], [61 x i16]* @_ZN11xalanc_1_1015FormatterToHTML12s_metaStringE, i64 0, i64 0), i32 0, i32 60), !dbg !3246
  %61 = bitcast %"class.xalanc_1_10::FormatterToHTML"* %this1 to %"class.xalanc_1_10::FormatterToXML"*, !dbg !3247
  %62 = bitcast %"class.xalanc_1_10::FormatterToHTML"* %this1 to %"class.xalanc_1_10::FormatterToXML"*, !dbg !3248
  %63 = bitcast %"class.xalanc_1_10::FormatterToXML"* %62 to %"class.xalanc_1_10::XalanDOMString"* (%"class.xalanc_1_10::FormatterToXML"*)***, !dbg !3248
  %vtable71 = load %"class.xalanc_1_10::XalanDOMString"* (%"class.xalanc_1_10::FormatterToXML"*)**, %"class.xalanc_1_10::XalanDOMString"* (%"class.xalanc_1_10::FormatterToXML"*)*** %63, align 8, !dbg !3248
  %vfn72 = getelementptr inbounds %"class.xalanc_1_10::XalanDOMString"* (%"class.xalanc_1_10::FormatterToXML"*)*, %"class.xalanc_1_10::XalanDOMString"* (%"class.xalanc_1_10::FormatterToXML"*)** %vtable71, i64 18, !dbg !3248
  %64 = load %"class.xalanc_1_10::XalanDOMString"* (%"class.xalanc_1_10::FormatterToXML"*)*, %"class.xalanc_1_10::XalanDOMString"* (%"class.xalanc_1_10::FormatterToXML"*)** %vfn72, align 8, !dbg !3248
  %call73 = call dereferenceable(40) %"class.xalanc_1_10::XalanDOMString"* %64(%"class.xalanc_1_10::FormatterToXML"* %62), !dbg !3248
  call void @_ZN11xalanc_1_1014FormatterToXML12accumContentERKNS_14XalanDOMStringE(%"class.xalanc_1_10::FormatterToXML"* %61, %"class.xalanc_1_10::XalanDOMString"* dereferenceable(40) %call73), !dbg !3247
  %65 = bitcast %"class.xalanc_1_10::FormatterToHTML"* %this1 to %"class.xalanc_1_10::FormatterToXML"*, !dbg !3249
  call void @_ZN11xalanc_1_1014FormatterToXML12accumContentEt(%"class.xalanc_1_10::FormatterToXML"* %65, i16 zeroext 34), !dbg !3249
  %66 = bitcast %"class.xalanc_1_10::FormatterToHTML"* %this1 to %"class.xalanc_1_10::FormatterToXML"*, !dbg !3250
  call void @_ZN11xalanc_1_1014FormatterToXML12accumContentEt(%"class.xalanc_1_10::FormatterToXML"* %66, i16 zeroext 62), !dbg !3250
  br label %if.end74, !dbg !3251

if.end74:                                         ; preds = %if.end70, %if.then61
  br label %if.end75, !dbg !3252

if.end75:                                         ; preds = %if.end74, %for.end
  %m_isFirstElement76 = getelementptr inbounds %"class.xalanc_1_10::FormatterToHTML", %"class.xalanc_1_10::FormatterToHTML"* %this1, i32 0, i32 8, !dbg !3253
  %67 = load i8, i8* %m_isFirstElement76, align 1, !dbg !3253
  %tobool77 = trunc i8 %67 to i1, !dbg !3253
  %conv78 = zext i1 %tobool77 to i32, !dbg !3253
  %cmp79 = icmp eq i32 %conv78, 1, !dbg !3255
  br i1 %cmp79, label %if.then80, label %if.end82, !dbg !3256

if.then80:                                        ; preds = %if.end75
  %m_isFirstElement81 = getelementptr inbounds %"class.xalanc_1_10::FormatterToHTML", %"class.xalanc_1_10::FormatterToHTML"* %this1, i32 0, i32 8, !dbg !3257
  store i8 0, i8* %m_isFirstElement81, align 1, !dbg !3259
  br label %if.end82, !dbg !3260

if.end82:                                         ; preds = %if.then80, %if.end75
  br label %if.end83

if.end83:                                         ; preds = %if.end82, %if.then
  ret void, !dbg !3261
}

; Function Attrs: noinline uwtable
define dso_local zeroext i1 @_ZN11xalanc_1_1015FormatterToHTML16pushHasNamespaceEPKt(%"class.xalanc_1_10::FormatterToHTML"* %this, i16* %theElementName) #0 align 2 !dbg !3262 {
entry:
  %this.addr = alloca %"class.xalanc_1_10::FormatterToHTML"*, align 8
  %theElementName.addr = alloca i16*, align 8
  %fHasNamespace = alloca i8, align 1
  %theLength = alloca i32, align 4
  %theColonIndex = alloca i32, align 4
  %thePrefix = alloca %"class.xalanc_1_10::XalanDOMString"*, align 8
  %theNamespace = alloca %"class.xalanc_1_10::XalanDOMString"*, align 8
  %ref.tmp = alloca i8, align 1
  store %"class.xalanc_1_10::FormatterToHTML"* %this, %"class.xalanc_1_10::FormatterToHTML"** %this.addr, align 8
  call void @llvm.dbg.declare(metadata %"class.xalanc_1_10::FormatterToHTML"** %this.addr, metadata !3263, metadata !DIExpression()), !dbg !3264
  store i16* %theElementName, i16** %theElementName.addr, align 8
  call void @llvm.dbg.declare(metadata i16** %theElementName.addr, metadata !3265, metadata !DIExpression()), !dbg !3266
  %this1 = load %"class.xalanc_1_10::FormatterToHTML"*, %"class.xalanc_1_10::FormatterToHTML"** %this.addr, align 8
  call void @llvm.dbg.declare(metadata i8* %fHasNamespace, metadata !3267, metadata !DIExpression()), !dbg !3268
  store i8 0, i8* %fHasNamespace, align 1, !dbg !3268
  %0 = bitcast %"class.xalanc_1_10::FormatterToHTML"* %this1 to %"class.xalanc_1_10::FormatterListener"*, !dbg !3269
  %m_prefixResolver = getelementptr inbounds %"class.xalanc_1_10::FormatterListener", %"class.xalanc_1_10::FormatterListener"* %0, i32 0, i32 1, !dbg !3269
  %1 = load %"class.xalanc_1_10::PrefixResolver"*, %"class.xalanc_1_10::PrefixResolver"** %m_prefixResolver, align 8, !dbg !3269
  %cmp = icmp ne %"class.xalanc_1_10::PrefixResolver"* %1, null, !dbg !3271
  br i1 %cmp, label %if.then, label %if.end15, !dbg !3272

if.then:                                          ; preds = %entry
  call void @llvm.dbg.declare(metadata i32* %theLength, metadata !3273, metadata !DIExpression()), !dbg !3275
  %2 = load i16*, i16** %theElementName.addr, align 8, !dbg !3276
  %call = call i32 @_ZN11xalanc_1_106lengthEPKt(i16* %2), !dbg !3277
  store i32 %call, i32* %theLength, align 4, !dbg !3275
  call void @llvm.dbg.declare(metadata i32* %theColonIndex, metadata !3278, metadata !DIExpression()), !dbg !3279
  %3 = load i16*, i16** %theElementName.addr, align 8, !dbg !3280
  %call2 = call i32 @_ZN11xalanc_1_107indexOfEPKtt(i16* %3, i16 zeroext 58), !dbg !3281
  store i32 %call2, i32* %theColonIndex, align 4, !dbg !3279
  call void @llvm.dbg.declare(metadata %"class.xalanc_1_10::XalanDOMString"** %thePrefix, metadata !3282, metadata !DIExpression()), !dbg !3284
  store %"class.xalanc_1_10::XalanDOMString"* @_ZN11xalanc_1_1015FormatterToHTML13s_emptyStringE, %"class.xalanc_1_10::XalanDOMString"** %thePrefix, align 8, !dbg !3284
  %4 = load i32, i32* %theColonIndex, align 4, !dbg !3285
  %5 = load i32, i32* %theLength, align 4, !dbg !3287
  %cmp3 = icmp ult i32 %4, %5, !dbg !3288
  br i1 %cmp3, label %if.then4, label %if.end, !dbg !3289

if.then4:                                         ; preds = %if.then
  %6 = load i16*, i16** %theElementName.addr, align 8, !dbg !3290
  %7 = bitcast %"class.xalanc_1_10::FormatterToHTML"* %this1 to %"class.xalanc_1_10::FormatterToXML"*, !dbg !3292
  %m_stringBuffer = getelementptr inbounds %"class.xalanc_1_10::FormatterToXML", %"class.xalanc_1_10::FormatterToXML"* %7, i32 0, i32 23, !dbg !3292
  %8 = load i32, i32* %theColonIndex, align 4, !dbg !3293
  %call5 = call dereferenceable(40) %"class.xalanc_1_10::XalanDOMString"* @_ZN11xalanc_1_109substringEPKtRNS_14XalanDOMStringEjj(i16* %6, %"class.xalanc_1_10::XalanDOMString"* dereferenceable(40) %m_stringBuffer, i32 0, i32 %8), !dbg !3294
  %9 = bitcast %"class.xalanc_1_10::FormatterToHTML"* %this1 to %"class.xalanc_1_10::FormatterToXML"*, !dbg !3295
  %m_stringBuffer6 = getelementptr inbounds %"class.xalanc_1_10::FormatterToXML", %"class.xalanc_1_10::FormatterToXML"* %9, i32 0, i32 23, !dbg !3295
  store %"class.xalanc_1_10::XalanDOMString"* %m_stringBuffer6, %"class.xalanc_1_10::XalanDOMString"** %thePrefix, align 8, !dbg !3296
  br label %if.end, !dbg !3297

if.end:                                           ; preds = %if.then4, %if.then
  call void @llvm.dbg.declare(metadata %"class.xalanc_1_10::XalanDOMString"** %theNamespace, metadata !3298, metadata !DIExpression()), !dbg !3300
  %10 = bitcast %"class.xalanc_1_10::FormatterToHTML"* %this1 to %"class.xalanc_1_10::FormatterListener"*, !dbg !3301
  %m_prefixResolver7 = getelementptr inbounds %"class.xalanc_1_10::FormatterListener", %"class.xalanc_1_10::FormatterListener"* %10, i32 0, i32 1, !dbg !3301
  %11 = load %"class.xalanc_1_10::PrefixResolver"*, %"class.xalanc_1_10::PrefixResolver"** %m_prefixResolver7, align 8, !dbg !3301
  %12 = load %"class.xalanc_1_10::XalanDOMString"*, %"class.xalanc_1_10::XalanDOMString"** %thePrefix, align 8, !dbg !3302
  %13 = bitcast %"class.xalanc_1_10::PrefixResolver"* %11 to %"class.xalanc_1_10::XalanDOMString"* (%"class.xalanc_1_10::PrefixResolver"*, %"class.xalanc_1_10::XalanDOMString"*)***, !dbg !3303
  %vtable = load %"class.xalanc_1_10::XalanDOMString"* (%"class.xalanc_1_10::PrefixResolver"*, %"class.xalanc_1_10::XalanDOMString"*)**, %"class.xalanc_1_10::XalanDOMString"* (%"class.xalanc_1_10::PrefixResolver"*, %"class.xalanc_1_10::XalanDOMString"*)*** %13, align 8, !dbg !3303
  %vfn = getelementptr inbounds %"class.xalanc_1_10::XalanDOMString"* (%"class.xalanc_1_10::PrefixResolver"*, %"class.xalanc_1_10::XalanDOMString"*)*, %"class.xalanc_1_10::XalanDOMString"* (%"class.xalanc_1_10::PrefixResolver"*, %"class.xalanc_1_10::XalanDOMString"*)** %vtable, i64 2, !dbg !3303
  %14 = load %"class.xalanc_1_10::XalanDOMString"* (%"class.xalanc_1_10::PrefixResolver"*, %"class.xalanc_1_10::XalanDOMString"*)*, %"class.xalanc_1_10::XalanDOMString"* (%"class.xalanc_1_10::PrefixResolver"*, %"class.xalanc_1_10::XalanDOMString"*)** %vfn, align 8, !dbg !3303
  %call8 = call %"class.xalanc_1_10::XalanDOMString"* %14(%"class.xalanc_1_10::PrefixResolver"* %11, %"class.xalanc_1_10::XalanDOMString"* dereferenceable(40) %12), !dbg !3303
  store %"class.xalanc_1_10::XalanDOMString"* %call8, %"class.xalanc_1_10::XalanDOMString"** %theNamespace, align 8, !dbg !3300
  %15 = load %"class.xalanc_1_10::XalanDOMString"*, %"class.xalanc_1_10::XalanDOMString"** %theNamespace, align 8, !dbg !3304
  %cmp9 = icmp ne %"class.xalanc_1_10::XalanDOMString"* %15, null, !dbg !3306
  br i1 %cmp9, label %land.lhs.true, label %if.end13, !dbg !3307

land.lhs.true:                                    ; preds = %if.end
  %16 = load %"class.xalanc_1_10::XalanDOMString"*, %"class.xalanc_1_10::XalanDOMString"** %theNamespace, align 8, !dbg !3308
  %call10 = call i32 @_ZN11xalanc_1_106lengthERKNS_14XalanDOMStringE(%"class.xalanc_1_10::XalanDOMString"* dereferenceable(40) %16), !dbg !3309
  %cmp11 = icmp ne i32 %call10, 0, !dbg !3310
  br i1 %cmp11, label %if.then12, label %if.end13, !dbg !3311

if.then12:                                        ; preds = %land.lhs.true
  %m_hasNamespaceStack = getelementptr inbounds %"class.xalanc_1_10::FormatterToHTML", %"class.xalanc_1_10::FormatterToHTML"* %this1, i32 0, i32 11, !dbg !3312
  store i8 1, i8* %ref.tmp, align 1, !dbg !3314
  call void @_ZN11xalanc_1_1011XalanVectorIbNS_31MemoryManagedConstructionTraitsIbEEE9push_backERKb(%"class.xalanc_1_10::XalanVector.0"* %m_hasNamespaceStack, i8* dereferenceable(1) %ref.tmp), !dbg !3315
  store i8 1, i8* %fHasNamespace, align 1, !dbg !3316
  br label %if.end13, !dbg !3317

if.end13:                                         ; preds = %if.then12, %land.lhs.true, %if.end
  %17 = bitcast %"class.xalanc_1_10::FormatterToHTML"* %this1 to %"class.xalanc_1_10::FormatterToXML"*, !dbg !3318
  %m_stringBuffer14 = getelementptr inbounds %"class.xalanc_1_10::FormatterToXML", %"class.xalanc_1_10::FormatterToXML"* %17, i32 0, i32 23, !dbg !3318
  call void @_ZN11xalanc_1_105clearERNS_14XalanDOMStringE(%"class.xalanc_1_10::XalanDOMString"* dereferenceable(40) %m_stringBuffer14), !dbg !3319
  br label %if.end15, !dbg !3320

if.end15:                                         ; preds = %if.end13, %entry
  %18 = load i8, i8* %fHasNamespace, align 1, !dbg !3321
  %tobool = trunc i8 %18 to i1, !dbg !3321
  ret i1 %tobool, !dbg !3322
}

declare dso_local void @_ZN11xalanc_1_1014FormatterToXML12startElementEPKtRN11xercesc_2_713AttributeListE(%"class.xalanc_1_10::FormatterToXML"*, i16*, %"class.xercesc_2_7::AttributeList"* dereferenceable(8)) unnamed_addr #1

declare dso_local void @_ZN11xalanc_1_1014FormatterToXML17writeParentTagEndEv(%"class.xalanc_1_10::FormatterToXML"*) #1

declare dso_local void @_ZN11xalanc_1_1027XalanHTMLElementsProperties4findEPKt(%"class.xalanc_1_10::XalanHTMLElementsProperties::ElementProperties"* sret, i16*) #1

; Function Attrs: noinline uwtable
define linkonce_odr dso_local void @_ZN11xalanc_1_1011XalanVectorINS_27XalanHTMLElementsProperties17ElementPropertiesENS_31MemoryManagedConstructionTraitsIS2_EEE9push_backERKS2_(%"class.xalanc_1_10::XalanVector.2"* %this, %"class.xalanc_1_10::XalanHTMLElementsProperties::ElementProperties"* dereferenceable(8) %data) #0 comdat align 2 !dbg !3323 {
entry:
  %this.addr = alloca %"class.xalanc_1_10::XalanVector.2"*, align 8
  %data.addr = alloca %"class.xalanc_1_10::XalanHTMLElementsProperties::ElementProperties"*, align 8
  store %"class.xalanc_1_10::XalanVector.2"* %this, %"class.xalanc_1_10::XalanVector.2"** %this.addr, align 8
  call void @llvm.dbg.declare(metadata %"class.xalanc_1_10::XalanVector.2"** %this.addr, metadata !3324, metadata !DIExpression()), !dbg !3325
  store %"class.xalanc_1_10::XalanHTMLElementsProperties::ElementProperties"* %data, %"class.xalanc_1_10::XalanHTMLElementsProperties::ElementProperties"** %data.addr, align 8
  call void @llvm.dbg.declare(metadata %"class.xalanc_1_10::XalanHTMLElementsProperties::ElementProperties"** %data.addr, metadata !3326, metadata !DIExpression()), !dbg !3327
  %this1 = load %"class.xalanc_1_10::XalanVector.2"*, %"class.xalanc_1_10::XalanVector.2"** %this.addr, align 8
  call void @_ZNK11xalanc_1_1011XalanVectorINS_27XalanHTMLElementsProperties17ElementPropertiesENS_31MemoryManagedConstructionTraitsIS2_EEE10invariantsEv(%"class.xalanc_1_10::XalanVector.2"* %this1), !dbg !3328
  %0 = load %"class.xalanc_1_10::XalanHTMLElementsProperties::ElementProperties"*, %"class.xalanc_1_10::XalanHTMLElementsProperties::ElementProperties"** %data.addr, align 8, !dbg !3329
  call void @_ZN11xalanc_1_1011XalanVectorINS_27XalanHTMLElementsProperties17ElementPropertiesENS_31MemoryManagedConstructionTraitsIS2_EEE10doPushBackERKS2_(%"class.xalanc_1_10::XalanVector.2"* %this1, %"class.xalanc_1_10::XalanHTMLElementsProperties::ElementProperties"* dereferenceable(8) %0), !dbg !3330
  call void @_ZNK11xalanc_1_1011XalanVectorINS_27XalanHTMLElementsProperties17ElementPropertiesENS_31MemoryManagedConstructionTraitsIS2_EEE10invariantsEv(%"class.xalanc_1_10::XalanVector.2"* %this1), !dbg !3331
  ret void, !dbg !3332
}

; Function Attrs: noinline uwtable
define linkonce_odr dso_local zeroext i1 @_ZNK11xalanc_1_1027XalanHTMLElementsProperties17ElementProperties2isEj(%"class.xalanc_1_10::XalanHTMLElementsProperties::ElementProperties"* %this, i32 %theFlags) #0 comdat align 2 !dbg !3333 {
entry:
  %this.addr = alloca %"class.xalanc_1_10::XalanHTMLElementsProperties::ElementProperties"*, align 8
  %theFlags.addr = alloca i32, align 4
  store %"class.xalanc_1_10::XalanHTMLElementsProperties::ElementProperties"* %this, %"class.xalanc_1_10::XalanHTMLElementsProperties::ElementProperties"** %this.addr, align 8
  call void @llvm.dbg.declare(metadata %"class.xalanc_1_10::XalanHTMLElementsProperties::ElementProperties"** %this.addr, metadata !3334, metadata !DIExpression()), !dbg !3336
  store i32 %theFlags, i32* %theFlags.addr, align 4
  call void @llvm.dbg.declare(metadata i32* %theFlags.addr, metadata !3337, metadata !DIExpression()), !dbg !3338
  %this1 = load %"class.xalanc_1_10::XalanHTMLElementsProperties::ElementProperties"*, %"class.xalanc_1_10::XalanHTMLElementsProperties::ElementProperties"** %this.addr, align 8
  %m_properties = getelementptr inbounds %"class.xalanc_1_10::XalanHTMLElementsProperties::ElementProperties", %"class.xalanc_1_10::XalanHTMLElementsProperties::ElementProperties"* %this1, i32 0, i32 0, !dbg !3339
  %0 = load %"struct.xalanc_1_10::XalanHTMLElementsProperties::InternalElementProperties"*, %"struct.xalanc_1_10::XalanHTMLElementsProperties::InternalElementProperties"** %m_properties, align 8, !dbg !3339
  %1 = load i32, i32* %theFlags.addr, align 4, !dbg !3340
  %call = call zeroext i1 @_ZNK11xalanc_1_1027XalanHTMLElementsProperties25InternalElementProperties2isEj(%"struct.xalanc_1_10::XalanHTMLElementsProperties::InternalElementProperties"* %0, i32 %1), !dbg !3341
  ret i1 %call, !dbg !3342
}

; Function Attrs: noinline nounwind uwtable
define linkonce_odr dso_local dereferenceable(1) i8* @_ZN11xalanc_1_1011XalanVectorIbNS_31MemoryManagedConstructionTraitsIbEEE4backEv(%"class.xalanc_1_10::XalanVector.0"* %this) #2 comdat align 2 !dbg !3343 {
entry:
  %this.addr = alloca %"class.xalanc_1_10::XalanVector.0"*, align 8
  store %"class.xalanc_1_10::XalanVector.0"* %this, %"class.xalanc_1_10::XalanVector.0"** %this.addr, align 8
  call void @llvm.dbg.declare(metadata %"class.xalanc_1_10::XalanVector.0"** %this.addr, metadata !3344, metadata !DIExpression()), !dbg !3345
  %this1 = load %"class.xalanc_1_10::XalanVector.0"*, %"class.xalanc_1_10::XalanVector.0"** %this.addr, align 8
  %m_data = getelementptr inbounds %"class.xalanc_1_10::XalanVector.0", %"class.xalanc_1_10::XalanVector.0"* %this1, i32 0, i32 3, !dbg !3346
  %0 = load i8*, i8** %m_data, align 8, !dbg !3346
  %m_size = getelementptr inbounds %"class.xalanc_1_10::XalanVector.0", %"class.xalanc_1_10::XalanVector.0"* %this1, i32 0, i32 1, !dbg !3347
  %1 = load i64, i64* %m_size, align 8, !dbg !3347
  %sub = sub i64 %1, 1, !dbg !3348
  %arrayidx = getelementptr inbounds i8, i8* %0, i64 %sub, !dbg !3346
  ret i8* %arrayidx, !dbg !3349
}

declare dso_local void @_ZN11xalanc_1_1014FormatterToXML6indentEi(%"class.xalanc_1_10::FormatterToXML"*, i32) #1

; Function Attrs: noinline uwtable
define linkonce_odr dso_local void @_ZN11xalanc_1_1014FormatterToXML9accumNameEPKt(%"class.xalanc_1_10::FormatterToXML"* %this, i16* %chars) #0 comdat align 2 !dbg !3350 {
entry:
  %this.addr = alloca %"class.xalanc_1_10::FormatterToXML"*, align 8
  %chars.addr = alloca i16*, align 8
  store %"class.xalanc_1_10::FormatterToXML"* %this, %"class.xalanc_1_10::FormatterToXML"** %this.addr, align 8
  call void @llvm.dbg.declare(metadata %"class.xalanc_1_10::FormatterToXML"** %this.addr, metadata !3354, metadata !DIExpression()), !dbg !3355
  store i16* %chars, i16** %chars.addr, align 8
  call void @llvm.dbg.declare(metadata i16** %chars.addr, metadata !3356, metadata !DIExpression()), !dbg !3357
  %this1 = load %"class.xalanc_1_10::FormatterToXML"*, %"class.xalanc_1_10::FormatterToXML"** %this.addr, align 8
  %m_accumNameStringFunction = getelementptr inbounds %"class.xalanc_1_10::FormatterToXML", %"class.xalanc_1_10::FormatterToXML"* %this1, i32 0, i32 39, !dbg !3358
  %0 = load { i64, i64 }, { i64, i64 }* %m_accumNameStringFunction, align 8, !dbg !3358
  %memptr.adj = extractvalue { i64, i64 } %0, 1, !dbg !3359
  %1 = bitcast %"class.xalanc_1_10::FormatterToXML"* %this1 to i8*, !dbg !3359
  %2 = getelementptr inbounds i8, i8* %1, i64 %memptr.adj, !dbg !3359
  %this.adjusted = bitcast i8* %2 to %"class.xalanc_1_10::FormatterToXML"*, !dbg !3359
  %memptr.ptr = extractvalue { i64, i64 } %0, 0, !dbg !3359
  %3 = and i64 %memptr.ptr, 1, !dbg !3359
  %memptr.isvirtual = icmp ne i64 %3, 0, !dbg !3359
  br i1 %memptr.isvirtual, label %memptr.virtual, label %memptr.nonvirtual, !dbg !3359

memptr.virtual:                                   ; preds = %entry
  %4 = bitcast %"class.xalanc_1_10::FormatterToXML"* %this.adjusted to i8**, !dbg !3359
  %vtable = load i8*, i8** %4, align 8, !dbg !3359
  %5 = sub i64 %memptr.ptr, 1, !dbg !3359
  %6 = getelementptr i8, i8* %vtable, i64 %5, !dbg !3359, !nosanitize !139
  %7 = bitcast i8* %6 to void (%"class.xalanc_1_10::FormatterToXML"*, i16*)**, !dbg !3359, !nosanitize !139
  %memptr.virtualfn = load void (%"class.xalanc_1_10::FormatterToXML"*, i16*)*, void (%"class.xalanc_1_10::FormatterToXML"*, i16*)** %7, align 8, !dbg !3359, !nosanitize !139
  br label %memptr.end, !dbg !3359

memptr.nonvirtual:                                ; preds = %entry
  %memptr.nonvirtualfn = inttoptr i64 %memptr.ptr to void (%"class.xalanc_1_10::FormatterToXML"*, i16*)*, !dbg !3359
  br label %memptr.end, !dbg !3359

memptr.end:                                       ; preds = %memptr.nonvirtual, %memptr.virtual
  %8 = phi void (%"class.xalanc_1_10::FormatterToXML"*, i16*)* [ %memptr.virtualfn, %memptr.virtual ], [ %memptr.nonvirtualfn, %memptr.nonvirtual ], !dbg !3359
  %9 = load i16*, i16** %chars.addr, align 8, !dbg !3360
  call void %8(%"class.xalanc_1_10::FormatterToXML"* %this.adjusted, i16* %9), !dbg !3359
  ret void, !dbg !3361
}

declare dso_local void @_ZN11xalanc_1_1014FormatterToXML22openElementForChildrenEv(%"class.xalanc_1_10::FormatterToXML"*) #1

; Function Attrs: noinline uwtable
define dso_local void @_ZN11xalanc_1_1015FormatterToHTML10endElementEPKt(%"class.xalanc_1_10::FormatterToHTML"* %this, i16* %name) unnamed_addr #0 align 2 !dbg !3362 {
entry:
  %this.addr = alloca %"class.xalanc_1_10::FormatterToHTML"*, align 8
  %name.addr = alloca i16*, align 8
  %hasChildNodes = alloca i8, align 1
  %elemProperties = alloca %"class.xalanc_1_10::XalanHTMLElementsProperties::ElementProperties", align 8
  %isBlockElement = alloca i8, align 1
  %shouldIndent = alloca i8, align 1
  store %"class.xalanc_1_10::FormatterToHTML"* %this, %"class.xalanc_1_10::FormatterToHTML"** %this.addr, align 8
  call void @llvm.dbg.declare(metadata %"class.xalanc_1_10::FormatterToHTML"** %this.addr, metadata !3363, metadata !DIExpression()), !dbg !3364
  store i16* %name, i16** %name.addr, align 8
  call void @llvm.dbg.declare(metadata i16** %name.addr, metadata !3365, metadata !DIExpression()), !dbg !3366
  %this1 = load %"class.xalanc_1_10::FormatterToHTML"*, %"class.xalanc_1_10::FormatterToHTML"** %this.addr, align 8
  %call = call zeroext i1 @_ZN11xalanc_1_1015FormatterToHTML15popHasNamespaceEv(%"class.xalanc_1_10::FormatterToHTML"* %this1), !dbg !3367
  %conv = zext i1 %call to i32, !dbg !3367
  %cmp = icmp eq i32 %conv, 1, !dbg !3369
  br i1 %cmp, label %if.then, label %if.else, !dbg !3370

if.then:                                          ; preds = %entry
  %0 = bitcast %"class.xalanc_1_10::FormatterToHTML"* %this1 to %"class.xalanc_1_10::FormatterToXML"*, !dbg !3371
  %1 = load i16*, i16** %name.addr, align 8, !dbg !3373
  call void @_ZN11xalanc_1_1014FormatterToXML10endElementEPKt(%"class.xalanc_1_10::FormatterToXML"* %0, i16* %1), !dbg !3371
  br label %if.end64, !dbg !3374

if.else:                                          ; preds = %entry
  %2 = bitcast %"class.xalanc_1_10::FormatterToHTML"* %this1 to %"class.xalanc_1_10::FormatterToXML"*, !dbg !3375
  %m_indent = getelementptr inbounds %"class.xalanc_1_10::FormatterToXML", %"class.xalanc_1_10::FormatterToXML"* %2, i32 0, i32 21, !dbg !3375
  %3 = load i32, i32* %m_indent, align 4, !dbg !3375
  %4 = bitcast %"class.xalanc_1_10::FormatterToHTML"* %this1 to %"class.xalanc_1_10::FormatterToXML"*, !dbg !3377
  %m_currentIndent = getelementptr inbounds %"class.xalanc_1_10::FormatterToXML", %"class.xalanc_1_10::FormatterToXML"* %4, i32 0, i32 20, !dbg !3377
  %5 = load i32, i32* %m_currentIndent, align 8, !dbg !3378
  %sub = sub nsw i32 %5, %3, !dbg !3378
  store i32 %sub, i32* %m_currentIndent, align 8, !dbg !3378
  call void @llvm.dbg.declare(metadata i8* %hasChildNodes, metadata !3379, metadata !DIExpression()), !dbg !3380
  %6 = bitcast %"class.xalanc_1_10::FormatterToHTML"* %this1 to %"class.xalanc_1_10::FormatterToXML"*, !dbg !3381
  %call2 = call zeroext i1 @_ZN11xalanc_1_1014FormatterToXML19childNodesWereAddedEv(%"class.xalanc_1_10::FormatterToXML"* %6), !dbg !3381
  %frombool = zext i1 %call2 to i8, !dbg !3380
  store i8 %frombool, i8* %hasChildNodes, align 1, !dbg !3380
  %m_isRawStack = getelementptr inbounds %"class.xalanc_1_10::FormatterToHTML", %"class.xalanc_1_10::FormatterToHTML"* %this1, i32 0, i32 4, !dbg !3382
  call void @_ZN11xalanc_1_1011XalanVectorIbNS_31MemoryManagedConstructionTraitsIbEEE8pop_backEv(%"class.xalanc_1_10::XalanVector.0"* %m_isRawStack), !dbg !3383
  %m_inScriptElemStack = getelementptr inbounds %"class.xalanc_1_10::FormatterToHTML", %"class.xalanc_1_10::FormatterToHTML"* %this1, i32 0, i32 6, !dbg !3384
  call void @_ZN11xalanc_1_1011XalanVectorIbNS_31MemoryManagedConstructionTraitsIbEEE8pop_backEv(%"class.xalanc_1_10::XalanVector.0"* %m_inScriptElemStack), !dbg !3385
  call void @llvm.dbg.declare(metadata %"class.xalanc_1_10::XalanHTMLElementsProperties::ElementProperties"* %elemProperties, metadata !3386, metadata !DIExpression()), !dbg !3387
  %m_elementPropertiesStack = getelementptr inbounds %"class.xalanc_1_10::FormatterToHTML", %"class.xalanc_1_10::FormatterToHTML"* %this1, i32 0, i32 13, !dbg !3388
  %call3 = call dereferenceable(8) %"class.xalanc_1_10::XalanHTMLElementsProperties::ElementProperties"* @_ZN11xalanc_1_1011XalanVectorINS_27XalanHTMLElementsProperties17ElementPropertiesENS_31MemoryManagedConstructionTraitsIS2_EEE4backEv(%"class.xalanc_1_10::XalanVector.2"* %m_elementPropertiesStack), !dbg !3389
  call void @_ZN11xalanc_1_1027XalanHTMLElementsProperties17ElementPropertiesC2ERKS1_(%"class.xalanc_1_10::XalanHTMLElementsProperties::ElementProperties"* %elemProperties, %"class.xalanc_1_10::XalanHTMLElementsProperties::ElementProperties"* dereferenceable(8) %call3), !dbg !3388
  %m_elementPropertiesStack4 = getelementptr inbounds %"class.xalanc_1_10::FormatterToHTML", %"class.xalanc_1_10::FormatterToHTML"* %this1, i32 0, i32 13, !dbg !3390
  call void @_ZN11xalanc_1_1011XalanVectorINS_27XalanHTMLElementsProperties17ElementPropertiesENS_31MemoryManagedConstructionTraitsIS2_EEE8pop_backEv(%"class.xalanc_1_10::XalanVector.2"* %m_elementPropertiesStack4), !dbg !3391
  call void @llvm.dbg.declare(metadata i8* %isBlockElement, metadata !3392, metadata !DIExpression()), !dbg !3393
  %call5 = call zeroext i1 @_ZNK11xalanc_1_1027XalanHTMLElementsProperties17ElementProperties2isEj(%"class.xalanc_1_10::XalanHTMLElementsProperties::ElementProperties"* %elemProperties, i32 8), !dbg !3394
  %frombool6 = zext i1 %call5 to i8, !dbg !3393
  store i8 %frombool6, i8* %isBlockElement, align 1, !dbg !3393
  call void @llvm.dbg.declare(metadata i8* %shouldIndent, metadata !3395, metadata !DIExpression()), !dbg !3396
  store i8 0, i8* %shouldIndent, align 1, !dbg !3396
  %7 = bitcast %"class.xalanc_1_10::FormatterToHTML"* %this1 to %"class.xalanc_1_10::FormatterToXML"*, !dbg !3397
  %m_ispreserve = getelementptr inbounds %"class.xalanc_1_10::FormatterToXML", %"class.xalanc_1_10::FormatterToXML"* %7, i32 0, i32 7, !dbg !3397
  %8 = load i8, i8* %m_ispreserve, align 1, !dbg !3397
  %tobool = trunc i8 %8 to i1, !dbg !3397
  %conv7 = zext i1 %tobool to i32, !dbg !3397
  %cmp8 = icmp eq i32 %conv7, 1, !dbg !3399
  br i1 %cmp8, label %if.then9, label %if.else11, !dbg !3400

if.then9:                                         ; preds = %if.else
  %9 = bitcast %"class.xalanc_1_10::FormatterToHTML"* %this1 to %"class.xalanc_1_10::FormatterToXML"*, !dbg !3401
  %m_ispreserve10 = getelementptr inbounds %"class.xalanc_1_10::FormatterToXML", %"class.xalanc_1_10::FormatterToXML"* %9, i32 0, i32 7, !dbg !3401
  store i8 0, i8* %m_ispreserve10, align 1, !dbg !3403
  br label %if.end22, !dbg !3404

if.else11:                                        ; preds = %if.else
  %10 = bitcast %"class.xalanc_1_10::FormatterToHTML"* %this1 to %"class.xalanc_1_10::FormatterToXML"*, !dbg !3405
  %m_doIndent = getelementptr inbounds %"class.xalanc_1_10::FormatterToXML", %"class.xalanc_1_10::FormatterToXML"* %10, i32 0, i32 8, !dbg !3405
  %11 = load i8, i8* %m_doIndent, align 4, !dbg !3405
  %tobool12 = trunc i8 %11 to i1, !dbg !3405
  %conv13 = zext i1 %tobool12 to i32, !dbg !3405
  %cmp14 = icmp eq i32 %conv13, 1, !dbg !3407
  br i1 %cmp14, label %land.lhs.true, label %if.end, !dbg !3408

land.lhs.true:                                    ; preds = %if.else11
  %m_inBlockElem = getelementptr inbounds %"class.xalanc_1_10::FormatterToHTML", %"class.xalanc_1_10::FormatterToHTML"* %this1, i32 0, i32 3, !dbg !3409
  %12 = load i8, i8* %m_inBlockElem, align 8, !dbg !3409
  %tobool15 = trunc i8 %12 to i1, !dbg !3409
  %conv16 = zext i1 %tobool15 to i32, !dbg !3409
  %cmp17 = icmp eq i32 %conv16, 0, !dbg !3410
  br i1 %cmp17, label %if.then21, label %lor.lhs.false, !dbg !3411

lor.lhs.false:                                    ; preds = %land.lhs.true
  %13 = load i8, i8* %isBlockElement, align 1, !dbg !3412
  %tobool18 = trunc i8 %13 to i1, !dbg !3412
  %conv19 = zext i1 %tobool18 to i32, !dbg !3412
  %cmp20 = icmp eq i32 %conv19, 1, !dbg !3413
  br i1 %cmp20, label %if.then21, label %if.end, !dbg !3414

if.then21:                                        ; preds = %lor.lhs.false, %land.lhs.true
  %14 = bitcast %"class.xalanc_1_10::FormatterToHTML"* %this1 to %"class.xalanc_1_10::FormatterToXML"*, !dbg !3415
  %m_startNewLine = getelementptr inbounds %"class.xalanc_1_10::FormatterToXML", %"class.xalanc_1_10::FormatterToXML"* %14, i32 0, i32 9, !dbg !3415
  store i8 1, i8* %m_startNewLine, align 1, !dbg !3417
  store i8 1, i8* %shouldIndent, align 1, !dbg !3418
  br label %if.end, !dbg !3419

if.end:                                           ; preds = %if.then21, %lor.lhs.false, %if.else11
  br label %if.end22

if.end22:                                         ; preds = %if.end, %if.then9
  %15 = load i8, i8* %isBlockElement, align 1, !dbg !3420
  %tobool23 = trunc i8 %15 to i1, !dbg !3420
  %lnot = xor i1 %tobool23, true, !dbg !3421
  %m_inBlockElem24 = getelementptr inbounds %"class.xalanc_1_10::FormatterToHTML", %"class.xalanc_1_10::FormatterToHTML"* %this1, i32 0, i32 3, !dbg !3422
  %frombool25 = zext i1 %lnot to i8, !dbg !3423
  store i8 %frombool25, i8* %m_inBlockElem24, align 8, !dbg !3423
  %16 = load i8, i8* %hasChildNodes, align 1, !dbg !3424
  %tobool26 = trunc i8 %16 to i1, !dbg !3424
  br i1 %tobool26, label %if.then27, label %if.else39, !dbg !3426

if.then27:                                        ; preds = %if.end22
  %17 = load i8, i8* %shouldIndent, align 1, !dbg !3427
  %tobool28 = trunc i8 %17 to i1, !dbg !3427
  %conv29 = zext i1 %tobool28 to i32, !dbg !3427
  %cmp30 = icmp eq i32 %conv29, 1, !dbg !3430
  br i1 %cmp30, label %if.then31, label %if.end33, !dbg !3431

if.then31:                                        ; preds = %if.then27
  %18 = bitcast %"class.xalanc_1_10::FormatterToHTML"* %this1 to %"class.xalanc_1_10::FormatterToXML"*, !dbg !3432
  %19 = bitcast %"class.xalanc_1_10::FormatterToHTML"* %this1 to %"class.xalanc_1_10::FormatterToXML"*, !dbg !3434
  %m_currentIndent32 = getelementptr inbounds %"class.xalanc_1_10::FormatterToXML", %"class.xalanc_1_10::FormatterToXML"* %19, i32 0, i32 20, !dbg !3434
  %20 = load i32, i32* %m_currentIndent32, align 8, !dbg !3434
  call void @_ZN11xalanc_1_1014FormatterToXML6indentEi(%"class.xalanc_1_10::FormatterToXML"* %18, i32 %20), !dbg !3432
  br label %if.end33, !dbg !3435

if.end33:                                         ; preds = %if.then31, %if.then27
  %call34 = call zeroext i1 @_ZNK11xalanc_1_1027XalanHTMLElementsProperties17ElementProperties2isEj(%"class.xalanc_1_10::XalanHTMLElementsProperties::ElementProperties"* %elemProperties, i32 2), !dbg !3436
  %conv35 = zext i1 %call34 to i32, !dbg !3438
  %cmp36 = icmp eq i32 %conv35, 0, !dbg !3439
  br i1 %cmp36, label %if.then37, label %if.end38, !dbg !3440

if.then37:                                        ; preds = %if.end33
  %21 = bitcast %"class.xalanc_1_10::FormatterToHTML"* %this1 to %"class.xalanc_1_10::FormatterToXML"*, !dbg !3441
  call void @_ZN11xalanc_1_1014FormatterToXML12accumContentEt(%"class.xalanc_1_10::FormatterToXML"* %21, i16 zeroext 60), !dbg !3441
  %22 = bitcast %"class.xalanc_1_10::FormatterToHTML"* %this1 to %"class.xalanc_1_10::FormatterToXML"*, !dbg !3443
  call void @_ZN11xalanc_1_1014FormatterToXML12accumContentEt(%"class.xalanc_1_10::FormatterToXML"* %22, i16 zeroext 47), !dbg !3443
  %23 = bitcast %"class.xalanc_1_10::FormatterToHTML"* %this1 to %"class.xalanc_1_10::FormatterToXML"*, !dbg !3444
  %24 = load i16*, i16** %name.addr, align 8, !dbg !3445
  call void @_ZN11xalanc_1_1014FormatterToXML9accumNameEPKt(%"class.xalanc_1_10::FormatterToXML"* %23, i16* %24), !dbg !3444
  %25 = bitcast %"class.xalanc_1_10::FormatterToHTML"* %this1 to %"class.xalanc_1_10::FormatterToXML"*, !dbg !3446
  call void @_ZN11xalanc_1_1014FormatterToXML12accumContentEt(%"class.xalanc_1_10::FormatterToXML"* %25, i16 zeroext 62), !dbg !3446
  br label %if.end38, !dbg !3447

if.end38:                                         ; preds = %if.then37, %if.end33
  br label %if.end46, !dbg !3448

if.else39:                                        ; preds = %if.end22
  %call40 = call zeroext i1 @_ZNK11xalanc_1_1027XalanHTMLElementsProperties17ElementProperties2isEj(%"class.xalanc_1_10::XalanHTMLElementsProperties::ElementProperties"* %elemProperties, i32 2), !dbg !3449
  %conv41 = zext i1 %call40 to i32, !dbg !3452
  %cmp42 = icmp eq i32 %conv41, 0, !dbg !3453
  br i1 %cmp42, label %if.then43, label %if.else44, !dbg !3454

if.then43:                                        ; preds = %if.else39
  %26 = bitcast %"class.xalanc_1_10::FormatterToHTML"* %this1 to %"class.xalanc_1_10::FormatterToXML"*, !dbg !3455
  call void @_ZN11xalanc_1_1014FormatterToXML12accumContentEt(%"class.xalanc_1_10::FormatterToXML"* %26, i16 zeroext 62), !dbg !3455
  %27 = bitcast %"class.xalanc_1_10::FormatterToHTML"* %this1 to %"class.xalanc_1_10::FormatterToXML"*, !dbg !3457
  call void @_ZN11xalanc_1_1014FormatterToXML12accumContentEt(%"class.xalanc_1_10::FormatterToXML"* %27, i16 zeroext 60), !dbg !3457
  %28 = bitcast %"class.xalanc_1_10::FormatterToHTML"* %this1 to %"class.xalanc_1_10::FormatterToXML"*, !dbg !3458
  call void @_ZN11xalanc_1_1014FormatterToXML12accumContentEt(%"class.xalanc_1_10::FormatterToXML"* %28, i16 zeroext 47), !dbg !3458
  %29 = bitcast %"class.xalanc_1_10::FormatterToHTML"* %this1 to %"class.xalanc_1_10::FormatterToXML"*, !dbg !3459
  %30 = load i16*, i16** %name.addr, align 8, !dbg !3460
  call void @_ZN11xalanc_1_1014FormatterToXML9accumNameEPKt(%"class.xalanc_1_10::FormatterToXML"* %29, i16* %30), !dbg !3459
  %31 = bitcast %"class.xalanc_1_10::FormatterToHTML"* %this1 to %"class.xalanc_1_10::FormatterToXML"*, !dbg !3461
  call void @_ZN11xalanc_1_1014FormatterToXML12accumContentEt(%"class.xalanc_1_10::FormatterToXML"* %31, i16 zeroext 62), !dbg !3461
  br label %if.end45, !dbg !3462

if.else44:                                        ; preds = %if.else39
  %32 = bitcast %"class.xalanc_1_10::FormatterToHTML"* %this1 to %"class.xalanc_1_10::FormatterToXML"*, !dbg !3463
  call void @_ZN11xalanc_1_1014FormatterToXML12accumContentEt(%"class.xalanc_1_10::FormatterToXML"* %32, i16 zeroext 62), !dbg !3463
  br label %if.end45

if.end45:                                         ; preds = %if.else44, %if.then43
  br label %if.end46

if.end46:                                         ; preds = %if.end45, %if.end38
  %call47 = call zeroext i1 @_ZNK11xalanc_1_1027XalanHTMLElementsProperties17ElementProperties2isEj(%"class.xalanc_1_10::XalanHTMLElementsProperties::ElementProperties"* %elemProperties, i32 2097152), !dbg !3465
  %conv48 = zext i1 %call47 to i32, !dbg !3467
  %cmp49 = icmp eq i32 %conv48, 1, !dbg !3468
  br i1 %cmp49, label %if.then50, label %if.end52, !dbg !3469

if.then50:                                        ; preds = %if.end46
  %33 = bitcast %"class.xalanc_1_10::FormatterToHTML"* %this1 to %"class.xalanc_1_10::FormatterToXML"*, !dbg !3470
  %m_ispreserve51 = getelementptr inbounds %"class.xalanc_1_10::FormatterToXML", %"class.xalanc_1_10::FormatterToXML"* %33, i32 0, i32 7, !dbg !3470
  store i8 1, i8* %m_ispreserve51, align 1, !dbg !3472
  br label %if.end52, !dbg !3473

if.end52:                                         ; preds = %if.then50, %if.end46
  %34 = load i8, i8* %hasChildNodes, align 1, !dbg !3474
  %tobool53 = trunc i8 %34 to i1, !dbg !3474
  %conv54 = zext i1 %tobool53 to i32, !dbg !3474
  %cmp55 = icmp eq i32 %conv54, 1, !dbg !3476
  br i1 %cmp55, label %if.then56, label %if.end63, !dbg !3477

if.then56:                                        ; preds = %if.end52
  %35 = bitcast %"class.xalanc_1_10::FormatterToHTML"* %this1 to %"class.xalanc_1_10::FormatterToXML"*, !dbg !3478
  %m_preserves = getelementptr inbounds %"class.xalanc_1_10::FormatterToXML", %"class.xalanc_1_10::FormatterToXML"* %35, i32 0, i32 22, !dbg !3478
  %call57 = call zeroext i1 @_ZNK11xalanc_1_1011XalanVectorIbNS_31MemoryManagedConstructionTraitsIbEEE5emptyEv(%"class.xalanc_1_10::XalanVector.0"* %m_preserves), !dbg !3481
  %conv58 = zext i1 %call57 to i32, !dbg !3478
  %cmp59 = icmp eq i32 %conv58, 0, !dbg !3482
  br i1 %cmp59, label %if.then60, label %if.end62, !dbg !3483

if.then60:                                        ; preds = %if.then56
  %36 = bitcast %"class.xalanc_1_10::FormatterToHTML"* %this1 to %"class.xalanc_1_10::FormatterToXML"*, !dbg !3484
  %m_preserves61 = getelementptr inbounds %"class.xalanc_1_10::FormatterToXML", %"class.xalanc_1_10::FormatterToXML"* %36, i32 0, i32 22, !dbg !3484
  call void @_ZN11xalanc_1_1011XalanVectorIbNS_31MemoryManagedConstructionTraitsIbEEE8pop_backEv(%"class.xalanc_1_10::XalanVector.0"* %m_preserves61), !dbg !3486
  br label %if.end62, !dbg !3487

if.end62:                                         ; preds = %if.then60, %if.then56
  br label %if.end63, !dbg !3488

if.end63:                                         ; preds = %if.end62, %if.end52
  %37 = bitcast %"class.xalanc_1_10::FormatterToHTML"* %this1 to %"class.xalanc_1_10::FormatterToXML"*, !dbg !3489
  %m_isprevtext = getelementptr inbounds %"class.xalanc_1_10::FormatterToXML", %"class.xalanc_1_10::FormatterToXML"* %37, i32 0, i32 11, !dbg !3489
  store i8 0, i8* %m_isprevtext, align 1, !dbg !3490
  %m_elementLevel = getelementptr inbounds %"class.xalanc_1_10::FormatterToHTML", %"class.xalanc_1_10::FormatterToHTML"* %this1, i32 0, i32 10, !dbg !3491
  %38 = load i32, i32* %m_elementLevel, align 4, !dbg !3492
  %dec = add nsw i32 %38, -1, !dbg !3492
  store i32 %dec, i32* %m_elementLevel, align 4, !dbg !3492
  br label %if.end64

if.end64:                                         ; preds = %if.end63, %if.then
  ret void, !dbg !3493
}

; Function Attrs: noinline uwtable
define dso_local zeroext i1 @_ZN11xalanc_1_1015FormatterToHTML15popHasNamespaceEv(%"class.xalanc_1_10::FormatterToHTML"* %this) #0 align 2 !dbg !3494 {
entry:
  %retval = alloca i1, align 1
  %this.addr = alloca %"class.xalanc_1_10::FormatterToHTML"*, align 8
  %theValue = alloca i8, align 1
  store %"class.xalanc_1_10::FormatterToHTML"* %this, %"class.xalanc_1_10::FormatterToHTML"** %this.addr, align 8
  call void @llvm.dbg.declare(metadata %"class.xalanc_1_10::FormatterToHTML"** %this.addr, metadata !3495, metadata !DIExpression()), !dbg !3496
  %this1 = load %"class.xalanc_1_10::FormatterToHTML"*, %"class.xalanc_1_10::FormatterToHTML"** %this.addr, align 8
  %m_hasNamespaceStack = getelementptr inbounds %"class.xalanc_1_10::FormatterToHTML", %"class.xalanc_1_10::FormatterToHTML"* %this1, i32 0, i32 11, !dbg !3497
  %call = call zeroext i1 @_ZNK11xalanc_1_1011XalanVectorIbNS_31MemoryManagedConstructionTraitsIbEEE5emptyEv(%"class.xalanc_1_10::XalanVector.0"* %m_hasNamespaceStack), !dbg !3499
  %conv = zext i1 %call to i32, !dbg !3497
  %cmp = icmp eq i32 %conv, 1, !dbg !3500
  br i1 %cmp, label %if.then, label %if.else, !dbg !3501

if.then:                                          ; preds = %entry
  store i1 false, i1* %retval, align 1, !dbg !3502
  br label %return, !dbg !3502

if.else:                                          ; preds = %entry
  call void @llvm.dbg.declare(metadata i8* %theValue, metadata !3504, metadata !DIExpression()), !dbg !3506
  %m_hasNamespaceStack2 = getelementptr inbounds %"class.xalanc_1_10::FormatterToHTML", %"class.xalanc_1_10::FormatterToHTML"* %this1, i32 0, i32 11, !dbg !3507
  %call3 = call dereferenceable(1) i8* @_ZN11xalanc_1_1011XalanVectorIbNS_31MemoryManagedConstructionTraitsIbEEE4backEv(%"class.xalanc_1_10::XalanVector.0"* %m_hasNamespaceStack2), !dbg !3508
  %0 = load i8, i8* %call3, align 1, !dbg !3508
  %tobool = trunc i8 %0 to i1, !dbg !3508
  %frombool = zext i1 %tobool to i8, !dbg !3506
  store i8 %frombool, i8* %theValue, align 1, !dbg !3506
  %m_hasNamespaceStack4 = getelementptr inbounds %"class.xalanc_1_10::FormatterToHTML", %"class.xalanc_1_10::FormatterToHTML"* %this1, i32 0, i32 11, !dbg !3509
  call void @_ZN11xalanc_1_1011XalanVectorIbNS_31MemoryManagedConstructionTraitsIbEEE8pop_backEv(%"class.xalanc_1_10::XalanVector.0"* %m_hasNamespaceStack4), !dbg !3510
  %1 = load i8, i8* %theValue, align 1, !dbg !3511
  %tobool5 = trunc i8 %1 to i1, !dbg !3511
  store i1 %tobool5, i1* %retval, align 1, !dbg !3512
  br label %return, !dbg !3512

return:                                           ; preds = %if.else, %if.then
  %2 = load i1, i1* %retval, align 1, !dbg !3513
  ret i1 %2, !dbg !3513
}

declare dso_local void @_ZN11xalanc_1_1014FormatterToXML10endElementEPKt(%"class.xalanc_1_10::FormatterToXML"*, i16*) unnamed_addr #1

declare dso_local zeroext i1 @_ZN11xalanc_1_1014FormatterToXML19childNodesWereAddedEv(%"class.xalanc_1_10::FormatterToXML"*) #1

; Function Attrs: noinline nounwind uwtable
define linkonce_odr dso_local dereferenceable(8) %"class.xalanc_1_10::XalanHTMLElementsProperties::ElementProperties"* @_ZN11xalanc_1_1011XalanVectorINS_27XalanHTMLElementsProperties17ElementPropertiesENS_31MemoryManagedConstructionTraitsIS2_EEE4backEv(%"class.xalanc_1_10::XalanVector.2"* %this) #2 comdat align 2 !dbg !3514 {
entry:
  %this.addr = alloca %"class.xalanc_1_10::XalanVector.2"*, align 8
  store %"class.xalanc_1_10::XalanVector.2"* %this, %"class.xalanc_1_10::XalanVector.2"** %this.addr, align 8
  call void @llvm.dbg.declare(metadata %"class.xalanc_1_10::XalanVector.2"** %this.addr, metadata !3515, metadata !DIExpression()), !dbg !3516
  %this1 = load %"class.xalanc_1_10::XalanVector.2"*, %"class.xalanc_1_10::XalanVector.2"** %this.addr, align 8
  %m_data = getelementptr inbounds %"class.xalanc_1_10::XalanVector.2", %"class.xalanc_1_10::XalanVector.2"* %this1, i32 0, i32 3, !dbg !3517
  %0 = load %"class.xalanc_1_10::XalanHTMLElementsProperties::ElementProperties"*, %"class.xalanc_1_10::XalanHTMLElementsProperties::ElementProperties"** %m_data, align 8, !dbg !3517
  %m_size = getelementptr inbounds %"class.xalanc_1_10::XalanVector.2", %"class.xalanc_1_10::XalanVector.2"* %this1, i32 0, i32 1, !dbg !3518
  %1 = load i64, i64* %m_size, align 8, !dbg !3518
  %sub = sub i64 %1, 1, !dbg !3519
  %arrayidx = getelementptr inbounds %"class.xalanc_1_10::XalanHTMLElementsProperties::ElementProperties", %"class.xalanc_1_10::XalanHTMLElementsProperties::ElementProperties"* %0, i64 %sub, !dbg !3517
  ret %"class.xalanc_1_10::XalanHTMLElementsProperties::ElementProperties"* %arrayidx, !dbg !3520
}

; Function Attrs: noinline nounwind uwtable
define linkonce_odr dso_local void @_ZN11xalanc_1_1027XalanHTMLElementsProperties17ElementPropertiesC2ERKS1_(%"class.xalanc_1_10::XalanHTMLElementsProperties::ElementProperties"* %this, %"class.xalanc_1_10::XalanHTMLElementsProperties::ElementProperties"* dereferenceable(8) %theSource) unnamed_addr #2 comdat align 2 !dbg !3521 {
entry:
  %this.addr = alloca %"class.xalanc_1_10::XalanHTMLElementsProperties::ElementProperties"*, align 8
  %theSource.addr = alloca %"class.xalanc_1_10::XalanHTMLElementsProperties::ElementProperties"*, align 8
  store %"class.xalanc_1_10::XalanHTMLElementsProperties::ElementProperties"* %this, %"class.xalanc_1_10::XalanHTMLElementsProperties::ElementProperties"** %this.addr, align 8
  call void @llvm.dbg.declare(metadata %"class.xalanc_1_10::XalanHTMLElementsProperties::ElementProperties"** %this.addr, metadata !3522, metadata !DIExpression()), !dbg !3523
  store %"class.xalanc_1_10::XalanHTMLElementsProperties::ElementProperties"* %theSource, %"class.xalanc_1_10::XalanHTMLElementsProperties::ElementProperties"** %theSource.addr, align 8
  call void @llvm.dbg.declare(metadata %"class.xalanc_1_10::XalanHTMLElementsProperties::ElementProperties"** %theSource.addr, metadata !3524, metadata !DIExpression()), !dbg !3525
  %this1 = load %"class.xalanc_1_10::XalanHTMLElementsProperties::ElementProperties"*, %"class.xalanc_1_10::XalanHTMLElementsProperties::ElementProperties"** %this.addr, align 8
  %m_properties = getelementptr inbounds %"class.xalanc_1_10::XalanHTMLElementsProperties::ElementProperties", %"class.xalanc_1_10::XalanHTMLElementsProperties::ElementProperties"* %this1, i32 0, i32 0, !dbg !3526
  %0 = load %"class.xalanc_1_10::XalanHTMLElementsProperties::ElementProperties"*, %"class.xalanc_1_10::XalanHTMLElementsProperties::ElementProperties"** %theSource.addr, align 8, !dbg !3527
  %m_properties2 = getelementptr inbounds %"class.xalanc_1_10::XalanHTMLElementsProperties::ElementProperties", %"class.xalanc_1_10::XalanHTMLElementsProperties::ElementProperties"* %0, i32 0, i32 0, !dbg !3528
  %1 = load %"struct.xalanc_1_10::XalanHTMLElementsProperties::InternalElementProperties"*, %"struct.xalanc_1_10::XalanHTMLElementsProperties::InternalElementProperties"** %m_properties2, align 8, !dbg !3528
  store %"struct.xalanc_1_10::XalanHTMLElementsProperties::InternalElementProperties"* %1, %"struct.xalanc_1_10::XalanHTMLElementsProperties::InternalElementProperties"** %m_properties, align 8, !dbg !3526
  ret void, !dbg !3529
}

; Function Attrs: noinline nounwind uwtable
define linkonce_odr dso_local void @_ZN11xalanc_1_1011XalanVectorINS_27XalanHTMLElementsProperties17ElementPropertiesENS_31MemoryManagedConstructionTraitsIS2_EEE8pop_backEv(%"class.xalanc_1_10::XalanVector.2"* %this) #2 comdat align 2 !dbg !3530 {
entry:
  %this.addr = alloca %"class.xalanc_1_10::XalanVector.2"*, align 8
  store %"class.xalanc_1_10::XalanVector.2"* %this, %"class.xalanc_1_10::XalanVector.2"** %this.addr, align 8
  call void @llvm.dbg.declare(metadata %"class.xalanc_1_10::XalanVector.2"** %this.addr, metadata !3531, metadata !DIExpression()), !dbg !3532
  %this1 = load %"class.xalanc_1_10::XalanVector.2"*, %"class.xalanc_1_10::XalanVector.2"** %this.addr, align 8
  call void @_ZNK11xalanc_1_1011XalanVectorINS_27XalanHTMLElementsProperties17ElementPropertiesENS_31MemoryManagedConstructionTraitsIS2_EEE10invariantsEv(%"class.xalanc_1_10::XalanVector.2"* %this1), !dbg !3533
  %m_size = getelementptr inbounds %"class.xalanc_1_10::XalanVector.2", %"class.xalanc_1_10::XalanVector.2"* %this1, i32 0, i32 1, !dbg !3534
  %0 = load i64, i64* %m_size, align 8, !dbg !3535
  %dec = add i64 %0, -1, !dbg !3535
  store i64 %dec, i64* %m_size, align 8, !dbg !3535
  %m_data = getelementptr inbounds %"class.xalanc_1_10::XalanVector.2", %"class.xalanc_1_10::XalanVector.2"* %this1, i32 0, i32 3, !dbg !3536
  %1 = load %"class.xalanc_1_10::XalanHTMLElementsProperties::ElementProperties"*, %"class.xalanc_1_10::XalanHTMLElementsProperties::ElementProperties"** %m_data, align 8, !dbg !3536
  %m_size2 = getelementptr inbounds %"class.xalanc_1_10::XalanVector.2", %"class.xalanc_1_10::XalanVector.2"* %this1, i32 0, i32 1, !dbg !3537
  %2 = load i64, i64* %m_size2, align 8, !dbg !3537
  %arrayidx = getelementptr inbounds %"class.xalanc_1_10::XalanHTMLElementsProperties::ElementProperties", %"class.xalanc_1_10::XalanHTMLElementsProperties::ElementProperties"* %1, i64 %2, !dbg !3536
  call void @_ZN11xalanc_1_1011XalanVectorINS_27XalanHTMLElementsProperties17ElementPropertiesENS_31MemoryManagedConstructionTraitsIS2_EEE7destroyERS2_(%"class.xalanc_1_10::XalanHTMLElementsProperties::ElementProperties"* dereferenceable(8) %arrayidx), !dbg !3538
  call void @_ZNK11xalanc_1_1011XalanVectorINS_27XalanHTMLElementsProperties17ElementPropertiesENS_31MemoryManagedConstructionTraitsIS2_EEE10invariantsEv(%"class.xalanc_1_10::XalanVector.2"* %this1), !dbg !3539
  ret void, !dbg !3540
}

; Function Attrs: noinline nounwind uwtable
define linkonce_odr dso_local zeroext i1 @_ZNK11xalanc_1_1011XalanVectorIbNS_31MemoryManagedConstructionTraitsIbEEE5emptyEv(%"class.xalanc_1_10::XalanVector.0"* %this) #2 comdat align 2 !dbg !3541 {
entry:
  %this.addr = alloca %"class.xalanc_1_10::XalanVector.0"*, align 8
  store %"class.xalanc_1_10::XalanVector.0"* %this, %"class.xalanc_1_10::XalanVector.0"** %this.addr, align 8
  call void @llvm.dbg.declare(metadata %"class.xalanc_1_10::XalanVector.0"** %this.addr, metadata !3542, metadata !DIExpression()), !dbg !3544
  %this1 = load %"class.xalanc_1_10::XalanVector.0"*, %"class.xalanc_1_10::XalanVector.0"** %this.addr, align 8
  call void @_ZNK11xalanc_1_1011XalanVectorIbNS_31MemoryManagedConstructionTraitsIbEEE10invariantsEv(%"class.xalanc_1_10::XalanVector.0"* %this1), !dbg !3545
  %m_size = getelementptr inbounds %"class.xalanc_1_10::XalanVector.0", %"class.xalanc_1_10::XalanVector.0"* %this1, i32 0, i32 1, !dbg !3546
  %0 = load i64, i64* %m_size, align 8, !dbg !3546
  %cmp = icmp eq i64 %0, 0, !dbg !3547
  %1 = zext i1 %cmp to i64, !dbg !3546
  %cond = select i1 %cmp, i1 true, i1 false, !dbg !3546
  ret i1 %cond, !dbg !3548
}

; Function Attrs: noinline uwtable
define dso_local void @_ZN11xalanc_1_1015FormatterToHTML10charactersEPKtj(%"class.xalanc_1_10::FormatterToHTML"* %this, i16* %chars, i32 %length) unnamed_addr #0 align 2 !dbg !3549 {
entry:
  %this.addr = alloca %"class.xalanc_1_10::FormatterToHTML"*, align 8
  %chars.addr = alloca i16*, align 8
  %length.addr = alloca i32, align 4
  store %"class.xalanc_1_10::FormatterToHTML"* %this, %"class.xalanc_1_10::FormatterToHTML"** %this.addr, align 8
  call void @llvm.dbg.declare(metadata %"class.xalanc_1_10::FormatterToHTML"** %this.addr, metadata !3550, metadata !DIExpression()), !dbg !3551
  store i16* %chars, i16** %chars.addr, align 8
  call void @llvm.dbg.declare(metadata i16** %chars.addr, metadata !3552, metadata !DIExpression()), !dbg !3553
  store i32 %length, i32* %length.addr, align 4
  call void @llvm.dbg.declare(metadata i32* %length.addr, metadata !3554, metadata !DIExpression()), !dbg !3555
  %this1 = load %"class.xalanc_1_10::FormatterToHTML"*, %"class.xalanc_1_10::FormatterToHTML"** %this.addr, align 8
  %0 = load i32, i32* %length.addr, align 4, !dbg !3556
  %cmp = icmp ne i32 %0, 0, !dbg !3558
  br i1 %cmp, label %if.then, label %if.end38, !dbg !3559

if.then:                                          ; preds = %entry
  %1 = bitcast %"class.xalanc_1_10::FormatterToHTML"* %this1 to %"class.xalanc_1_10::FormatterToXML"*, !dbg !3560
  %m_inCData = getelementptr inbounds %"class.xalanc_1_10::FormatterToXML", %"class.xalanc_1_10::FormatterToXML"* %1, i32 0, i32 14, !dbg !3560
  %2 = load i8, i8* %m_inCData, align 2, !dbg !3560
  %tobool = trunc i8 %2 to i1, !dbg !3560
  %conv = zext i1 %tobool to i32, !dbg !3560
  %cmp2 = icmp eq i32 %conv, 1, !dbg !3563
  br i1 %cmp2, label %if.then3, label %if.else, !dbg !3564

if.then3:                                         ; preds = %if.then
  %3 = load i16*, i16** %chars.addr, align 8, !dbg !3565
  %4 = load i32, i32* %length.addr, align 4, !dbg !3567
  %5 = bitcast %"class.xalanc_1_10::FormatterToHTML"* %this1 to void (%"class.xalanc_1_10::FormatterToHTML"*, i16*, i32)***, !dbg !3568
  %vtable = load void (%"class.xalanc_1_10::FormatterToHTML"*, i16*, i32)**, void (%"class.xalanc_1_10::FormatterToHTML"*, i16*, i32)*** %5, align 8, !dbg !3568
  %vfn = getelementptr inbounds void (%"class.xalanc_1_10::FormatterToHTML"*, i16*, i32)*, void (%"class.xalanc_1_10::FormatterToHTML"*, i16*, i32)** %vtable, i64 13, !dbg !3568
  %6 = load void (%"class.xalanc_1_10::FormatterToHTML"*, i16*, i32)*, void (%"class.xalanc_1_10::FormatterToHTML"*, i16*, i32)** %vfn, align 8, !dbg !3568
  call void %6(%"class.xalanc_1_10::FormatterToHTML"* %this1, i16* %3, i32 %4), !dbg !3568
  br label %if.end37, !dbg !3569

if.else:                                          ; preds = %if.then
  %7 = bitcast %"class.xalanc_1_10::FormatterToHTML"* %this1 to %"class.xalanc_1_10::FormatterToXML"*, !dbg !3570
  %m_nextIsRaw = getelementptr inbounds %"class.xalanc_1_10::FormatterToXML", %"class.xalanc_1_10::FormatterToXML"* %7, i32 0, i32 13, !dbg !3570
  %8 = load i8, i8* %m_nextIsRaw, align 1, !dbg !3570
  %tobool4 = trunc i8 %8 to i1, !dbg !3570
  br i1 %tobool4, label %if.then5, label %if.else9, !dbg !3572

if.then5:                                         ; preds = %if.else
  %9 = bitcast %"class.xalanc_1_10::FormatterToHTML"* %this1 to %"class.xalanc_1_10::FormatterToXML"*, !dbg !3573
  %m_nextIsRaw6 = getelementptr inbounds %"class.xalanc_1_10::FormatterToXML", %"class.xalanc_1_10::FormatterToXML"* %9, i32 0, i32 13, !dbg !3573
  store i8 0, i8* %m_nextIsRaw6, align 1, !dbg !3575
  %10 = bitcast %"class.xalanc_1_10::FormatterToHTML"* %this1 to %"class.xalanc_1_10::FormatterToXML"*, !dbg !3576
  %11 = load i16*, i16** %chars.addr, align 8, !dbg !3577
  %12 = load i32, i32* %length.addr, align 4, !dbg !3578
  %13 = bitcast %"class.xalanc_1_10::FormatterToXML"* %10 to void (%"class.xalanc_1_10::FormatterToXML"*, i16*, i32)***, !dbg !3576
  %vtable7 = load void (%"class.xalanc_1_10::FormatterToXML"*, i16*, i32)**, void (%"class.xalanc_1_10::FormatterToXML"*, i16*, i32)*** %13, align 8, !dbg !3576
  %vfn8 = getelementptr inbounds void (%"class.xalanc_1_10::FormatterToXML"*, i16*, i32)*, void (%"class.xalanc_1_10::FormatterToXML"*, i16*, i32)** %vtable7, i64 11, !dbg !3576
  %14 = load void (%"class.xalanc_1_10::FormatterToXML"*, i16*, i32)*, void (%"class.xalanc_1_10::FormatterToXML"*, i16*, i32)** %vfn8, align 8, !dbg !3576
  call void %14(%"class.xalanc_1_10::FormatterToXML"* %10, i16* %11, i32 %12), !dbg !3576
  br label %if.end36, !dbg !3579

if.else9:                                         ; preds = %if.else
  %m_inScriptElemStack = getelementptr inbounds %"class.xalanc_1_10::FormatterToHTML", %"class.xalanc_1_10::FormatterToHTML"* %this1, i32 0, i32 6, !dbg !3580
  %call = call dereferenceable(1) i8* @_ZN11xalanc_1_1011XalanVectorIbNS_31MemoryManagedConstructionTraitsIbEEE4backEv(%"class.xalanc_1_10::XalanVector.0"* %m_inScriptElemStack), !dbg !3582
  %15 = load i8, i8* %call, align 1, !dbg !3582
  %tobool10 = trunc i8 %15 to i1, !dbg !3582
  %conv11 = zext i1 %tobool10 to i32, !dbg !3580
  %cmp12 = icmp eq i32 %conv11, 1, !dbg !3583
  br i1 %cmp12, label %if.then13, label %if.else16, !dbg !3584

if.then13:                                        ; preds = %if.else9
  %16 = bitcast %"class.xalanc_1_10::FormatterToHTML"* %this1 to %"class.xalanc_1_10::FormatterToXML"*, !dbg !3585
  %17 = load i16*, i16** %chars.addr, align 8, !dbg !3587
  %18 = load i32, i32* %length.addr, align 4, !dbg !3588
  %19 = bitcast %"class.xalanc_1_10::FormatterToXML"* %16 to void (%"class.xalanc_1_10::FormatterToXML"*, i16*, i32)***, !dbg !3585
  %vtable14 = load void (%"class.xalanc_1_10::FormatterToXML"*, i16*, i32)**, void (%"class.xalanc_1_10::FormatterToXML"*, i16*, i32)*** %19, align 8, !dbg !3585
  %vfn15 = getelementptr inbounds void (%"class.xalanc_1_10::FormatterToXML"*, i16*, i32)*, void (%"class.xalanc_1_10::FormatterToXML"*, i16*, i32)** %vtable14, i64 11, !dbg !3585
  %20 = load void (%"class.xalanc_1_10::FormatterToXML"*, i16*, i32)*, void (%"class.xalanc_1_10::FormatterToXML"*, i16*, i32)** %vfn15, align 8, !dbg !3585
  call void %20(%"class.xalanc_1_10::FormatterToXML"* %16, i16* %17, i32 %18), !dbg !3585
  br label %if.end35, !dbg !3589

if.else16:                                        ; preds = %if.else9
  %m_isRawStack = getelementptr inbounds %"class.xalanc_1_10::FormatterToHTML", %"class.xalanc_1_10::FormatterToHTML"* %this1, i32 0, i32 4, !dbg !3590
  %call17 = call zeroext i1 @_ZNK11xalanc_1_1011XalanVectorIbNS_31MemoryManagedConstructionTraitsIbEEE5emptyEv(%"class.xalanc_1_10::XalanVector.0"* %m_isRawStack), !dbg !3592
  %conv18 = zext i1 %call17 to i32, !dbg !3590
  %cmp19 = icmp eq i32 %conv18, 0, !dbg !3593
  br i1 %cmp19, label %land.lhs.true, label %if.else32, !dbg !3594

land.lhs.true:                                    ; preds = %if.else16
  %m_isRawStack20 = getelementptr inbounds %"class.xalanc_1_10::FormatterToHTML", %"class.xalanc_1_10::FormatterToHTML"* %this1, i32 0, i32 4, !dbg !3595
  %call21 = call dereferenceable(1) i8* @_ZN11xalanc_1_1011XalanVectorIbNS_31MemoryManagedConstructionTraitsIbEEE4backEv(%"class.xalanc_1_10::XalanVector.0"* %m_isRawStack20), !dbg !3596
  %21 = load i8, i8* %call21, align 1, !dbg !3596
  %tobool22 = trunc i8 %21 to i1, !dbg !3596
  %conv23 = zext i1 %tobool22 to i32, !dbg !3595
  %cmp24 = icmp eq i32 %conv23, 1, !dbg !3597
  br i1 %cmp24, label %if.then25, label %if.else32, !dbg !3598

if.then25:                                        ; preds = %land.lhs.true
  %22 = bitcast %"class.xalanc_1_10::FormatterToHTML"* %this1 to %"class.xalanc_1_10::FormatterToXML"*, !dbg !3599
  call void @_ZN11xalanc_1_1014FormatterToXML17writeParentTagEndEv(%"class.xalanc_1_10::FormatterToXML"* %22), !dbg !3599
  %23 = bitcast %"class.xalanc_1_10::FormatterToHTML"* %this1 to %"class.xalanc_1_10::FormatterToXML"*, !dbg !3601
  %m_ispreserve = getelementptr inbounds %"class.xalanc_1_10::FormatterToXML", %"class.xalanc_1_10::FormatterToXML"* %23, i32 0, i32 7, !dbg !3601
  store i8 1, i8* %m_ispreserve, align 1, !dbg !3602
  %24 = bitcast %"class.xalanc_1_10::FormatterToHTML"* %this1 to %"class.xalanc_1_10::FormatterToXML"*, !dbg !3603
  %call26 = call zeroext i1 @_ZNK11xalanc_1_1014FormatterToXML12shouldIndentEv(%"class.xalanc_1_10::FormatterToXML"* %24), !dbg !3603
  %conv27 = zext i1 %call26 to i32, !dbg !3603
  %cmp28 = icmp eq i32 %conv27, 1, !dbg !3605
  br i1 %cmp28, label %if.then29, label %if.end, !dbg !3606

if.then29:                                        ; preds = %if.then25
  %25 = bitcast %"class.xalanc_1_10::FormatterToHTML"* %this1 to %"class.xalanc_1_10::FormatterToXML"*, !dbg !3607
  %26 = bitcast %"class.xalanc_1_10::FormatterToHTML"* %this1 to %"class.xalanc_1_10::FormatterToXML"*, !dbg !3609
  %m_currentIndent = getelementptr inbounds %"class.xalanc_1_10::FormatterToXML", %"class.xalanc_1_10::FormatterToXML"* %26, i32 0, i32 20, !dbg !3609
  %27 = load i32, i32* %m_currentIndent, align 8, !dbg !3609
  call void @_ZN11xalanc_1_1014FormatterToXML6indentEi(%"class.xalanc_1_10::FormatterToXML"* %25, i32 %27), !dbg !3607
  br label %if.end, !dbg !3610

if.end:                                           ; preds = %if.then29, %if.then25
  %28 = bitcast %"class.xalanc_1_10::FormatterToHTML"* %this1 to %"class.xalanc_1_10::FormatterToXML"*, !dbg !3611
  %29 = load i16*, i16** %chars.addr, align 8, !dbg !3612
  %30 = load i32, i32* %length.addr, align 4, !dbg !3613
  %31 = bitcast %"class.xalanc_1_10::FormatterToXML"* %28 to void (%"class.xalanc_1_10::FormatterToXML"*, i16*, i32, i32, i1)***, !dbg !3611
  %vtable30 = load void (%"class.xalanc_1_10::FormatterToXML"*, i16*, i32, i32, i1)**, void (%"class.xalanc_1_10::FormatterToXML"*, i16*, i32, i32, i1)*** %31, align 8, !dbg !3611
  %vfn31 = getelementptr inbounds void (%"class.xalanc_1_10::FormatterToXML"*, i16*, i32, i32, i1)*, void (%"class.xalanc_1_10::FormatterToXML"*, i16*, i32, i32, i1)** %vtable30, i64 22, !dbg !3611
  %32 = load void (%"class.xalanc_1_10::FormatterToXML"*, i16*, i32, i32, i1)*, void (%"class.xalanc_1_10::FormatterToXML"*, i16*, i32, i32, i1)** %vfn31, align 8, !dbg !3611
  call void %32(%"class.xalanc_1_10::FormatterToXML"* %28, i16* %29, i32 0, i32 %30, i1 zeroext false), !dbg !3611
  br label %if.end34, !dbg !3614

if.else32:                                        ; preds = %land.lhs.true, %if.else16
  %33 = bitcast %"class.xalanc_1_10::FormatterToHTML"* %this1 to %"class.xalanc_1_10::FormatterToXML"*, !dbg !3615
  call void @_ZN11xalanc_1_1014FormatterToXML17writeParentTagEndEv(%"class.xalanc_1_10::FormatterToXML"* %33), !dbg !3615
  %34 = bitcast %"class.xalanc_1_10::FormatterToHTML"* %this1 to %"class.xalanc_1_10::FormatterToXML"*, !dbg !3617
  %m_ispreserve33 = getelementptr inbounds %"class.xalanc_1_10::FormatterToXML", %"class.xalanc_1_10::FormatterToXML"* %34, i32 0, i32 7, !dbg !3617
  store i8 1, i8* %m_ispreserve33, align 1, !dbg !3618
  %35 = load i16*, i16** %chars.addr, align 8, !dbg !3619
  %36 = load i32, i32* %length.addr, align 4, !dbg !3620
  call void @_ZN11xalanc_1_1015FormatterToHTML15writeCharactersEPKtj(%"class.xalanc_1_10::FormatterToHTML"* %this1, i16* %35, i32 %36), !dbg !3621
  br label %if.end34

if.end34:                                         ; preds = %if.else32, %if.end
  br label %if.end35

if.end35:                                         ; preds = %if.end34, %if.then13
  br label %if.end36

if.end36:                                         ; preds = %if.end35, %if.then5
  br label %if.end37

if.end37:                                         ; preds = %if.end36, %if.then3
  br label %if.end38, !dbg !3622

if.end38:                                         ; preds = %if.end37, %entry
  %37 = bitcast %"class.xalanc_1_10::FormatterToHTML"* %this1 to %"class.xalanc_1_10::FormatterToXML"*, !dbg !3623
  %m_isprevtext = getelementptr inbounds %"class.xalanc_1_10::FormatterToXML", %"class.xalanc_1_10::FormatterToXML"* %37, i32 0, i32 11, !dbg !3623
  %38 = load i8, i8* %m_isprevtext, align 1, !dbg !3623
  %tobool39 = trunc i8 %38 to i1, !dbg !3623
  %conv40 = zext i1 %tobool39 to i32, !dbg !3623
  %cmp41 = icmp eq i32 %conv40, 0, !dbg !3625
  br i1 %cmp41, label %if.then42, label %if.end44, !dbg !3626

if.then42:                                        ; preds = %if.end38
  %39 = bitcast %"class.xalanc_1_10::FormatterToHTML"* %this1 to %"class.xalanc_1_10::FormatterToXML"*, !dbg !3627
  %m_isprevtext43 = getelementptr inbounds %"class.xalanc_1_10::FormatterToXML", %"class.xalanc_1_10::FormatterToXML"* %39, i32 0, i32 11, !dbg !3627
  store i8 1, i8* %m_isprevtext43, align 1, !dbg !3629
  br label %if.end44, !dbg !3630

if.end44:                                         ; preds = %if.then42, %if.end38
  ret void, !dbg !3631
}

; Function Attrs: noinline nounwind uwtable
define linkonce_odr dso_local zeroext i1 @_ZNK11xalanc_1_1014FormatterToXML12shouldIndentEv(%"class.xalanc_1_10::FormatterToXML"* %this) #2 comdat align 2 !dbg !3632 {
entry:
  %this.addr = alloca %"class.xalanc_1_10::FormatterToXML"*, align 8
  store %"class.xalanc_1_10::FormatterToXML"* %this, %"class.xalanc_1_10::FormatterToXML"** %this.addr, align 8
  call void @llvm.dbg.declare(metadata %"class.xalanc_1_10::FormatterToXML"** %this.addr, metadata !3638, metadata !DIExpression()), !dbg !3640
  %this1 = load %"class.xalanc_1_10::FormatterToXML"*, %"class.xalanc_1_10::FormatterToXML"** %this.addr, align 8
  %m_doIndent = getelementptr inbounds %"class.xalanc_1_10::FormatterToXML", %"class.xalanc_1_10::FormatterToXML"* %this1, i32 0, i32 8, !dbg !3641
  %0 = load i8, i8* %m_doIndent, align 4, !dbg !3641
  %tobool = trunc i8 %0 to i1, !dbg !3641
  br i1 %tobool, label %land.rhs, label %land.end5, !dbg !3642

land.rhs:                                         ; preds = %entry
  %m_ispreserve = getelementptr inbounds %"class.xalanc_1_10::FormatterToXML", %"class.xalanc_1_10::FormatterToXML"* %this1, i32 0, i32 7, !dbg !3643
  %1 = load i8, i8* %m_ispreserve, align 1, !dbg !3643
  %tobool2 = trunc i8 %1 to i1, !dbg !3643
  br i1 %tobool2, label %land.end, label %land.rhs3, !dbg !3644

land.rhs3:                                        ; preds = %land.rhs
  %m_isprevtext = getelementptr inbounds %"class.xalanc_1_10::FormatterToXML", %"class.xalanc_1_10::FormatterToXML"* %this1, i32 0, i32 11, !dbg !3645
  %2 = load i8, i8* %m_isprevtext, align 1, !dbg !3645
  %tobool4 = trunc i8 %2 to i1, !dbg !3645
  %lnot = xor i1 %tobool4, true, !dbg !3646
  br label %land.end

land.end:                                         ; preds = %land.rhs3, %land.rhs
  %3 = phi i1 [ false, %land.rhs ], [ %lnot, %land.rhs3 ], !dbg !3640
  br label %land.end5

land.end5:                                        ; preds = %land.end, %entry
  %4 = phi i1 [ false, %entry ], [ %3, %land.end ], !dbg !3640
  ret i1 %4, !dbg !3647
}

; Function Attrs: noinline uwtable
define dso_local void @_ZN11xalanc_1_1015FormatterToHTML15writeCharactersEPKtj(%"class.xalanc_1_10::FormatterToHTML"* %this, i16* %theString, i32 %theLength) #0 align 2 !dbg !3648 {
entry:
  %this.addr = alloca %"class.xalanc_1_10::FormatterToHTML"*, align 8
  %theString.addr = alloca i16*, align 8
  %theLength.addr = alloca i32, align 4
  %i = alloca i32, align 4
  %firstIndex = alloca i32, align 4
  %ch = alloca i16, align 2
  %next = alloca i16, align 2
  store %"class.xalanc_1_10::FormatterToHTML"* %this, %"class.xalanc_1_10::FormatterToHTML"** %this.addr, align 8
  call void @llvm.dbg.declare(metadata %"class.xalanc_1_10::FormatterToHTML"** %this.addr, metadata !3649, metadata !DIExpression()), !dbg !3650
  store i16* %theString, i16** %theString.addr, align 8
  call void @llvm.dbg.declare(metadata i16** %theString.addr, metadata !3651, metadata !DIExpression()), !dbg !3652
  store i32 %theLength, i32* %theLength.addr, align 4
  call void @llvm.dbg.declare(metadata i32* %theLength.addr, metadata !3653, metadata !DIExpression()), !dbg !3654
  %this1 = load %"class.xalanc_1_10::FormatterToHTML"*, %"class.xalanc_1_10::FormatterToHTML"** %this.addr, align 8
  call void @llvm.dbg.declare(metadata i32* %i, metadata !3655, metadata !DIExpression()), !dbg !3656
  store i32 0, i32* %i, align 4, !dbg !3656
  call void @llvm.dbg.declare(metadata i32* %firstIndex, metadata !3657, metadata !DIExpression()), !dbg !3658
  store i32 0, i32* %firstIndex, align 4, !dbg !3658
