; ModuleID = 'XercesEntityReferenceWrapper.cpp'
source_filename = "XercesEntityReferenceWrapper.cpp"
target datalayout = "e-m:e-p270:32:32-p271:32:32-p272:64:64-i64:64-f80:128-n8:16:32:64-S128"
target triple = "x86_64-unknown-linux-gnu"

%"class.xalanc_1_10::XercesEntityReferenceWrapper" = type { %"class.xalanc_1_10::XalanEntityReference", %"class.xercesc_2_7::DOMEntityReference"*, %"class.xalanc_1_10::XercesWrapperNavigator"*, %"class.xalanc_1_10::XercesNodeListWrapper" }
%"class.xalanc_1_10::XalanEntityReference" = type { %"class.xalanc_1_10::XalanNode" }
%"class.xalanc_1_10::XalanNode" = type { i32 (...)** }
%"class.xalanc_1_10::XercesNodeListWrapper" = type { %"class.xalanc_1_10::XalanNodeList", %"class.xercesc_2_7::DOMNodeList"*, %"class.xalanc_1_10::XercesWrapperNavigator"* }
%"class.xalanc_1_10::XalanNodeList" = type { i32 (...)** }
%"class.xercesc_2_7::DOMNodeList" = type opaque
%"class.xercesc_2_7::DOMEntityReference" = type { %"class.xercesc_2_7::DOMNode" }
%"class.xercesc_2_7::DOMNode" = type { i32 (...)** }
%"class.xalanc_1_10::XercesWrapperNavigator" = type { i32 (...)**, %"class.xalanc_1_10::XercesDocumentWrapper"*, %"class.xalanc_1_10::XalanNode"*, %"class.xalanc_1_10::XalanNode"*, %"class.xalanc_1_10::XalanNode"*, %"class.xalanc_1_10::XalanNode"*, %"class.xalanc_1_10::XalanNode"*, i64 }
%"class.xalanc_1_10::XercesDocumentWrapper" = type { %"class.xalanc_1_10::XalanDocument", %"class.xercesc_2_7::DOMDocument"*, %"class.xalanc_1_10::XalanElement"*, %"class.xalanc_1_10::XercesWrapperToXalanNodeMap", %"class.xalanc_1_10::XalanMemMgrAutoPtr", %"class.xalanc_1_10::XercesWrapperNavigatorAllocator", %"class.xalanc_1_10::XercesWrapperNavigator"*, %"class.xalanc_1_10::XercesNodeListWrapper", %"class.xalanc_1_10::XalanVector.2", %"class.xalanc_1_10::XercesDocumentTypeWrapper"*, i8, i8, i8, %"class.xalanc_1_10::XercesElementWrapperAllocator", %"class.xalanc_1_10::XercesTextWrapperAllocator", %"class.xalanc_1_10::XercesAttrWrapperAllocator", %"class.xalanc_1_10::XalanMemMgrAutoPtr.9" }
%"class.xalanc_1_10::XalanDocument" = type { %"class.xalanc_1_10::XalanNode" }
%"class.xercesc_2_7::DOMDocument" = type opaque
%"class.xalanc_1_10::XalanElement" = type { %"class.xalanc_1_10::XalanNode" }
%"class.xalanc_1_10::XercesWrapperToXalanNodeMap" = type { %"class.xalanc_1_10::XalanMap" }
%"class.xalanc_1_10::XalanMap" = type { %"class.xalanc_1_10::XalanHasher", %"struct.std::equal_to", %"class.xercesc_2_7::MemoryManager"*, float, i64, i64, %"class.xalanc_1_10::XalanList", %"class.xalanc_1_10::XalanList", %"class.xalanc_1_10::XalanVector", i64, i64 }
%"class.xalanc_1_10::XalanHasher" = type { i8 }
%"struct.std::equal_to" = type { i8 }
%"class.xercesc_2_7::MemoryManager" = type { i32 (...)** }
%"class.xalanc_1_10::XalanList" = type { %"class.xercesc_2_7::MemoryManager"*, %"struct.xalanc_1_10::XalanList<xalanc_1_10::XalanMap<const xercesc_2_7::DOMNode *, xalanc_1_10::XalanNode *, xalanc_1_10::XalanMapKeyTraits<const xercesc_2_7::DOMNode *> >::Entry>::Node"*, %"struct.xalanc_1_10::XalanList<xalanc_1_10::XalanMap<const xercesc_2_7::DOMNode *, xalanc_1_10::XalanNode *, xalanc_1_10::XalanMapKeyTraits<const xercesc_2_7::DOMNode *> >::Entry>::Node"* }
%"struct.xalanc_1_10::XalanList<xalanc_1_10::XalanMap<const xercesc_2_7::DOMNode *, xalanc_1_10::XalanNode *, xalanc_1_10::XalanMapKeyTraits<const xercesc_2_7::DOMNode *> >::Entry>::Node" = type opaque
%"class.xalanc_1_10::XalanVector" = type { %"class.xercesc_2_7::MemoryManager"*, i64, i64, %"class.xalanc_1_10::XalanVector.0"* }
%"class.xalanc_1_10::XalanVector.0" = type { %"class.xercesc_2_7::MemoryManager"*, i64, i64, %"struct.xalanc_1_10::XalanListIteratorBase"* }
%"struct.xalanc_1_10::XalanListIteratorBase" = type opaque
%"class.xalanc_1_10::XalanMemMgrAutoPtr" = type { %"class.xalanc_1_10::XalanMemMgrAutoPtr<xalanc_1_10::XalanDOMImplementation, true>::MemMgrAutoPtrData" }
%"class.xalanc_1_10::XalanMemMgrAutoPtr<xalanc_1_10::XalanDOMImplementation, true>::MemMgrAutoPtrData" = type { %"struct.std::pair" }
%"struct.std::pair" = type { %"class.xercesc_2_7::MemoryManager"*, %"class.xalanc_1_10::XalanDOMImplementation"* }
%"class.xalanc_1_10::XalanDOMImplementation" = type opaque
%"class.xalanc_1_10::XercesWrapperNavigatorAllocator" = type { %"class.xalanc_1_10::ArenaAllocator" }
%"class.xalanc_1_10::ArenaAllocator" = type { i32 (...)**, i64, %"class.xalanc_1_10::XalanList.1" }
%"class.xalanc_1_10::XalanList.1" = type { %"class.xercesc_2_7::MemoryManager"*, %"struct.xalanc_1_10::XalanList<xalanc_1_10::ArenaBlock<xalanc_1_10::XercesWrapperNavigator, unsigned long> *>::Node"*, %"struct.xalanc_1_10::XalanList<xalanc_1_10::ArenaBlock<xalanc_1_10::XercesWrapperNavigator, unsigned long> *>::Node"* }
%"struct.xalanc_1_10::XalanList<xalanc_1_10::ArenaBlock<xalanc_1_10::XercesWrapperNavigator, unsigned long> *>::Node" = type { %"class.xalanc_1_10::ArenaBlock.24"*, %"struct.xalanc_1_10::XalanList<xalanc_1_10::ArenaBlock<xalanc_1_10::XercesWrapperNavigator, unsigned long> *>::Node"*, %"struct.xalanc_1_10::XalanList<xalanc_1_10::ArenaBlock<xalanc_1_10::XercesWrapperNavigator, unsigned long> *>::Node"* }
%"class.xalanc_1_10::ArenaBlock.24" = type { %"class.xalanc_1_10::ArenaBlockBase.25" }
%"class.xalanc_1_10::ArenaBlockBase.25" = type { %"class.xalanc_1_10::XalanAllocator.26", i64, i64, %"class.xalanc_1_10::XercesWrapperNavigator"* }
%"class.xalanc_1_10::XalanAllocator.26" = type { %"class.xercesc_2_7::MemoryManager"* }
%"class.xalanc_1_10::XalanVector.2" = type { %"class.xercesc_2_7::MemoryManager"*, i64, i64, %"class.xalanc_1_10::XalanNode"** }
%"class.xalanc_1_10::XercesDocumentTypeWrapper" = type opaque
%"class.xalanc_1_10::XercesElementWrapperAllocator" = type { %"class.xalanc_1_10::ArenaAllocator.3" }
%"class.xalanc_1_10::ArenaAllocator.3" = type { i32 (...)**, i64, %"class.xalanc_1_10::XalanList.4" }
%"class.xalanc_1_10::XalanList.4" = type { %"class.xercesc_2_7::MemoryManager"*, %"struct.xalanc_1_10::XalanList<xalanc_1_10::ArenaBlock<xalanc_1_10::XercesElementWrapper, unsigned long> *>::Node"*, %"struct.xalanc_1_10::XalanList<xalanc_1_10::ArenaBlock<xalanc_1_10::XercesElementWrapper, unsigned long> *>::Node"* }
%"struct.xalanc_1_10::XalanList<xalanc_1_10::ArenaBlock<xalanc_1_10::XercesElementWrapper, unsigned long> *>::Node" = type { %"class.xalanc_1_10::ArenaBlock.18"*, %"struct.xalanc_1_10::XalanList<xalanc_1_10::ArenaBlock<xalanc_1_10::XercesElementWrapper, unsigned long> *>::Node"*, %"struct.xalanc_1_10::XalanList<xalanc_1_10::ArenaBlock<xalanc_1_10::XercesElementWrapper, unsigned long> *>::Node"* }
%"class.xalanc_1_10::ArenaBlock.18" = type { %"class.xalanc_1_10::ArenaBlockBase.19" }
%"class.xalanc_1_10::ArenaBlockBase.19" = type { %"class.xalanc_1_10::XalanAllocator.20", i64, i64, %"class.xalanc_1_10::XercesElementWrapper"* }
%"class.xalanc_1_10::XalanAllocator.20" = type { %"class.xercesc_2_7::MemoryManager"* }
%"class.xalanc_1_10::XercesElementWrapper" = type { %"class.xalanc_1_10::XalanElement", %"class.xalanc_1_10::XalanNodeList", %"class.xercesc_2_7::DOMElement"*, %"class.xalanc_1_10::XercesWrapperNavigator"*, %"class.xalanc_1_10::XercesNamedNodeMapWrapper" }
%"class.xercesc_2_7::DOMElement" = type opaque
%"class.xalanc_1_10::XercesNamedNodeMapWrapper" = type { %"class.xalanc_1_10::XalanNamedNodeMap", %"class.xercesc_2_7::DOMNamedNodeMap"*, %"class.xalanc_1_10::XercesWrapperNavigator"* }
%"class.xalanc_1_10::XalanNamedNodeMap" = type { i32 (...)** }
%"class.xercesc_2_7::DOMNamedNodeMap" = type opaque
%"class.xalanc_1_10::XercesTextWrapperAllocator" = type { %"class.xalanc_1_10::ArenaAllocator.5" }
%"class.xalanc_1_10::ArenaAllocator.5" = type { i32 (...)**, i64, %"class.xalanc_1_10::XalanList.6" }
%"class.xalanc_1_10::XalanList.6" = type { %"class.xercesc_2_7::MemoryManager"*, %"struct.xalanc_1_10::XalanList<xalanc_1_10::ArenaBlock<xalanc_1_10::XercesTextWrapper, unsigned long> *>::Node"*, %"struct.xalanc_1_10::XalanList<xalanc_1_10::ArenaBlock<xalanc_1_10::XercesTextWrapper, unsigned long> *>::Node"* }
%"struct.xalanc_1_10::XalanList<xalanc_1_10::ArenaBlock<xalanc_1_10::XercesTextWrapper, unsigned long> *>::Node" = type { %"class.xalanc_1_10::ArenaBlock.21"*, %"struct.xalanc_1_10::XalanList<xalanc_1_10::ArenaBlock<xalanc_1_10::XercesTextWrapper, unsigned long> *>::Node"*, %"struct.xalanc_1_10::XalanList<xalanc_1_10::ArenaBlock<xalanc_1_10::XercesTextWrapper, unsigned long> *>::Node"* }
%"class.xalanc_1_10::ArenaBlock.21" = type { %"class.xalanc_1_10::ArenaBlockBase.22" }
%"class.xalanc_1_10::ArenaBlockBase.22" = type { %"class.xalanc_1_10::XalanAllocator.23", i64, i64, %"class.xalanc_1_10::XercesTextWrapper"* }
%"class.xalanc_1_10::XalanAllocator.23" = type { %"class.xercesc_2_7::MemoryManager"* }
%"class.xalanc_1_10::XercesTextWrapper" = type { %"class.xalanc_1_10::XalanText", %"class.xercesc_2_7::DOMText"*, %"class.xalanc_1_10::XercesWrapperNavigator"* }
%"class.xalanc_1_10::XalanText" = type { %"class.xalanc_1_10::XalanCharacterData" }
%"class.xalanc_1_10::XalanCharacterData" = type { %"class.xalanc_1_10::XalanNode" }
%"class.xercesc_2_7::DOMText" = type opaque
%"class.xalanc_1_10::XercesAttrWrapperAllocator" = type { %"class.xalanc_1_10::ArenaAllocator.7" }
%"class.xalanc_1_10::ArenaAllocator.7" = type { i32 (...)**, i64, %"class.xalanc_1_10::XalanList.8" }
%"class.xalanc_1_10::XalanList.8" = type { %"class.xercesc_2_7::MemoryManager"*, %"struct.xalanc_1_10::XalanList<xalanc_1_10::ArenaBlock<xalanc_1_10::XercesAttrWrapper, unsigned long> *>::Node"*, %"struct.xalanc_1_10::XalanList<xalanc_1_10::ArenaBlock<xalanc_1_10::XercesAttrWrapper, unsigned long> *>::Node"* }
%"struct.xalanc_1_10::XalanList<xalanc_1_10::ArenaBlock<xalanc_1_10::XercesAttrWrapper, unsigned long> *>::Node" = type { %"class.xalanc_1_10::ArenaBlock"*, %"struct.xalanc_1_10::XalanList<xalanc_1_10::ArenaBlock<xalanc_1_10::XercesAttrWrapper, unsigned long> *>::Node"*, %"struct.xalanc_1_10::XalanList<xalanc_1_10::ArenaBlock<xalanc_1_10::XercesAttrWrapper, unsigned long> *>::Node"* }
%"class.xalanc_1_10::ArenaBlock" = type { %"class.xalanc_1_10::ArenaBlockBase" }
%"class.xalanc_1_10::ArenaBlockBase" = type { %"class.xalanc_1_10::XalanAllocator", i64, i64, %"class.xalanc_1_10::XercesAttrWrapper"* }
%"class.xalanc_1_10::XalanAllocator" = type { %"class.xercesc_2_7::MemoryManager"* }
%"class.xalanc_1_10::XercesAttrWrapper" = type { %"class.xalanc_1_10::XalanAttr", %"class.xercesc_2_7::DOMAttr"*, %"class.xalanc_1_10::XercesNodeListWrapper", %"class.xalanc_1_10::XercesWrapperNavigator"* }
%"class.xalanc_1_10::XalanAttr" = type { %"class.xalanc_1_10::XalanNode" }
%"class.xercesc_2_7::DOMAttr" = type { %"class.xercesc_2_7::DOMNode" }
%"class.xalanc_1_10::XalanMemMgrAutoPtr.9" = type { %"class.xalanc_1_10::XalanMemMgrAutoPtr<xalanc_1_10::XalanDOMStringPool, true>::MemMgrAutoPtrData" }
%"class.xalanc_1_10::XalanMemMgrAutoPtr<xalanc_1_10::XalanDOMStringPool, true>::MemMgrAutoPtrData" = type { %"struct.std::pair.10" }
%"struct.std::pair.10" = type { %"class.xercesc_2_7::MemoryManager"*, %"class.xalanc_1_10::XalanDOMStringPool"* }
%"class.xalanc_1_10::XalanDOMStringPool" = type opaque
%"class.xercesc_2_7::XMLDeleter" = type { i32 (...)** }
%"class.xalanc_1_10::XalanMemMgrAutoPtr.13" = type { %"class.xalanc_1_10::XalanMemMgrAutoPtr<xalanc_1_10::XercesEntityReferenceWrapper, false>::MemMgrAutoPtrData" }
%"class.xalanc_1_10::XalanMemMgrAutoPtr<xalanc_1_10::XercesEntityReferenceWrapper, false>::MemMgrAutoPtrData" = type { %"struct.std::pair.14" }
%"struct.std::pair.14" = type { %"class.xercesc_2_7::MemoryManager"*, %"class.xalanc_1_10::XercesEntityReferenceWrapper"* }
%"class.xalanc_1_10::XalanDOMString" = type <{ %"class.xalanc_1_10::XalanVector.17", i32, [4 x i8] }>
%"class.xalanc_1_10::XalanVector.17" = type { %"class.xercesc_2_7::MemoryManager"*, i64, i64, i16* }
%"class.xalanc_1_10::XercesDOMWrapperException" = type { %"class.xalanc_1_10::XalanDOMException.base", [4 x i8] }
%"class.xalanc_1_10::XalanDOMException.base" = type <{ i32 (...)**, i32 }>
%"class.xalanc_1_10::XalanDOMException" = type <{ i32 (...)**, i32, [4 x i8] }>
%"class.std::__pair_base.15" = type { i8 }

$_ZN11xercesc_2_710XMLDeleterD0Ev = comdat any

$_ZN11xercesc_2_710XMLDeleterD2Ev = comdat any

$_ZN11xalanc_1_1018XalanMemMgrAutoPtrINS_28XercesEntityReferenceWrapperELb0EEC2ERN11xercesc_2_713MemoryManagerEPS1_ = comdat any

$_ZNK11xalanc_1_1018XalanMemMgrAutoPtrINS_28XercesEntityReferenceWrapperELb0EE3getEv = comdat any

$_ZN11xalanc_1_1018XalanMemMgrAutoPtrINS_28XercesEntityReferenceWrapperELb0EE7releaseEv = comdat any

$_ZN11xalanc_1_1018XalanMemMgrAutoPtrINS_28XercesEntityReferenceWrapperELb0EED2Ev = comdat any

$_ZNK11xalanc_1_1022XercesWrapperNavigator16getOwnerDocumentEv = comdat any

$_ZNK11xalanc_1_1022XercesWrapperNavigator8getIndexEv = comdat any

$_ZN11xalanc_1_1018XalanMemMgrAutoPtrINS_28XercesEntityReferenceWrapperELb0EE17MemMgrAutoPtrDataC2EPN11xercesc_2_713MemoryManagerEPS1_ = comdat any

$_ZNSt4pairIPN11xercesc_2_713MemoryManagerEPN11xalanc_1_1028XercesEntityReferenceWrapperEEC2IRS2_RS5_Lb1EEEOT_OT0_ = comdat any

$_ZNK11xalanc_1_1018XalanMemMgrAutoPtrINS_28XercesEntityReferenceWrapperELb0EE17MemMgrAutoPtrData10invariantsEv = comdat any

$_ZSt7forwardIRPN11xercesc_2_713MemoryManagerEEOT_RNSt16remove_referenceIS4_E4typeE = comdat any

$_ZSt7forwardIRPN11xalanc_1_1028XercesEntityReferenceWrapperEEOT_RNSt16remove_referenceIS4_E4typeE = comdat any

$_ZN11xalanc_1_1018XalanMemMgrAutoPtrINS_28XercesEntityReferenceWrapperELb0EE17MemMgrAutoPtrData10deallocateEv = comdat any

$__clang_call_terminate = comdat any

$_ZNK11xalanc_1_1018XalanMemMgrAutoPtrINS_28XercesEntityReferenceWrapperELb0EE17MemMgrAutoPtrData12isInitilizedEv = comdat any

$_ZN11xalanc_1_1018XalanMemMgrAutoPtrINS_28XercesEntityReferenceWrapperELb0EE17MemMgrAutoPtrData5resetEPN11xercesc_2_713MemoryManagerEPS1_ = comdat any

$_ZTVN11xercesc_2_710XMLDeleterE = comdat any

$_ZTSN11xercesc_2_710XMLDeleterE = comdat any

$_ZTIN11xercesc_2_710XMLDeleterE = comdat any

@_ZTVN11xalanc_1_1028XercesEntityReferenceWrapperE = dso_local unnamed_addr constant { [30 x i8*] } { [30 x i8*] [i8* null, i8* bitcast ({ i8*, i8*, i8* }* @_ZTIN11xalanc_1_1028XercesEntityReferenceWrapperE to i8*), i8* bitcast (void (%"class.xalanc_1_10::XercesEntityReferenceWrapper"*)* @_ZN11xalanc_1_1028XercesEntityReferenceWrapperD1Ev to i8*), i8* bitcast (void (%"class.xalanc_1_10::XercesEntityReferenceWrapper"*)* @_ZN11xalanc_1_1028XercesEntityReferenceWrapperD0Ev to i8*), i8* bitcast (%"class.xalanc_1_10::XalanDOMString"* (%"class.xalanc_1_10::XercesEntityReferenceWrapper"*)* @_ZNK11xalanc_1_1028XercesEntityReferenceWrapper11getNodeNameEv to i8*), i8* bitcast (%"class.xalanc_1_10::XalanDOMString"* (%"class.xalanc_1_10::XercesEntityReferenceWrapper"*)* @_ZNK11xalanc_1_1028XercesEntityReferenceWrapper12getNodeValueEv to i8*), i8* bitcast (i32 (%"class.xalanc_1_10::XercesEntityReferenceWrapper"*)* @_ZNK11xalanc_1_1028XercesEntityReferenceWrapper11getNodeTypeEv to i8*), i8* bitcast (%"class.xalanc_1_10::XalanNode"* (%"class.xalanc_1_10::XercesEntityReferenceWrapper"*)* @_ZNK11xalanc_1_1028XercesEntityReferenceWrapper13getParentNodeEv to i8*), i8* bitcast (%"class.xalanc_1_10::XalanNodeList"* (%"class.xalanc_1_10::XercesEntityReferenceWrapper"*)* @_ZNK11xalanc_1_1028XercesEntityReferenceWrapper13getChildNodesEv to i8*), i8* bitcast (%"class.xalanc_1_10::XalanNode"* (%"class.xalanc_1_10::XercesEntityReferenceWrapper"*)* @_ZNK11xalanc_1_1028XercesEntityReferenceWrapper13getFirstChildEv to i8*), i8* bitcast (%"class.xalanc_1_10::XalanNode"* (%"class.xalanc_1_10::XercesEntityReferenceWrapper"*)* @_ZNK11xalanc_1_1028XercesEntityReferenceWrapper12getLastChildEv to i8*), i8* bitcast (%"class.xalanc_1_10::XalanNode"* (%"class.xalanc_1_10::XercesEntityReferenceWrapper"*)* @_ZNK11xalanc_1_1028XercesEntityReferenceWrapper18getPreviousSiblingEv to i8*), i8* bitcast (%"class.xalanc_1_10::XalanNode"* (%"class.xalanc_1_10::XercesEntityReferenceWrapper"*)* @_ZNK11xalanc_1_1028XercesEntityReferenceWrapper14getNextSiblingEv to i8*), i8* bitcast (%"class.xalanc_1_10::XalanNamedNodeMap"* (%"class.xalanc_1_10::XercesEntityReferenceWrapper"*)* @_ZNK11xalanc_1_1028XercesEntityReferenceWrapper13getAttributesEv to i8*), i8* bitcast (%"class.xalanc_1_10::XalanDocument"* (%"class.xalanc_1_10::XercesEntityReferenceWrapper"*)* @_ZNK11xalanc_1_1028XercesEntityReferenceWrapper16getOwnerDocumentEv to i8*), i8* bitcast (%"class.xalanc_1_10::XercesEntityReferenceWrapper"* (%"class.xalanc_1_10::XercesEntityReferenceWrapper"*, i1)* @_ZNK11xalanc_1_1028XercesEntityReferenceWrapper9cloneNodeEb to i8*), i8* bitcast (%"class.xalanc_1_10::XalanNode"* (%"class.xalanc_1_10::XercesEntityReferenceWrapper"*, %"class.xalanc_1_10::XalanNode"*, %"class.xalanc_1_10::XalanNode"*)* @_ZN11xalanc_1_1028XercesEntityReferenceWrapper12insertBeforeEPNS_9XalanNodeES2_ to i8*), i8* bitcast (%"class.xalanc_1_10::XalanNode"* (%"class.xalanc_1_10::XercesEntityReferenceWrapper"*, %"class.xalanc_1_10::XalanNode"*, %"class.xalanc_1_10::XalanNode"*)* @_ZN11xalanc_1_1028XercesEntityReferenceWrapper12replaceChildEPNS_9XalanNodeES2_ to i8*), i8* bitcast (%"class.xalanc_1_10::XalanNode"* (%"class.xalanc_1_10::XercesEntityReferenceWrapper"*, %"class.xalanc_1_10::XalanNode"*)* @_ZN11xalanc_1_1028XercesEntityReferenceWrapper11removeChildEPNS_9XalanNodeE to i8*), i8* bitcast (%"class.xalanc_1_10::XalanNode"* (%"class.xalanc_1_10::XercesEntityReferenceWrapper"*, %"class.xalanc_1_10::XalanNode"*)* @_ZN11xalanc_1_1028XercesEntityReferenceWrapper11appendChildEPNS_9XalanNodeE to i8*), i8* bitcast (i1 (%"class.xalanc_1_10::XercesEntityReferenceWrapper"*)* @_ZNK11xalanc_1_1028XercesEntityReferenceWrapper13hasChildNodesEv to i8*), i8* bitcast (void (%"class.xalanc_1_10::XercesEntityReferenceWrapper"*, %"class.xalanc_1_10::XalanDOMString"*)* @_ZN11xalanc_1_1028XercesEntityReferenceWrapper12setNodeValueERKNS_14XalanDOMStringE to i8*), i8* bitcast (void (%"class.xalanc_1_10::XercesEntityReferenceWrapper"*)* @_ZN11xalanc_1_1028XercesEntityReferenceWrapper9normalizeEv to i8*), i8* bitcast (i1 (%"class.xalanc_1_10::XercesEntityReferenceWrapper"*, %"class.xalanc_1_10::XalanDOMString"*, %"class.xalanc_1_10::XalanDOMString"*)* @_ZNK11xalanc_1_1028XercesEntityReferenceWrapper11isSupportedERKNS_14XalanDOMStringES3_ to i8*), i8* bitcast (%"class.xalanc_1_10::XalanDOMString"* (%"class.xalanc_1_10::XercesEntityReferenceWrapper"*)* @_ZNK11xalanc_1_1028XercesEntityReferenceWrapper15getNamespaceURIEv to i8*), i8* bitcast (%"class.xalanc_1_10::XalanDOMString"* (%"class.xalanc_1_10::XercesEntityReferenceWrapper"*)* @_ZNK11xalanc_1_1028XercesEntityReferenceWrapper9getPrefixEv to i8*), i8* bitcast (%"class.xalanc_1_10::XalanDOMString"* (%"class.xalanc_1_10::XercesEntityReferenceWrapper"*)* @_ZNK11xalanc_1_1028XercesEntityReferenceWrapper12getLocalNameEv to i8*), i8* bitcast (void (%"class.xalanc_1_10::XercesEntityReferenceWrapper"*, %"class.xalanc_1_10::XalanDOMString"*)* @_ZN11xalanc_1_1028XercesEntityReferenceWrapper9setPrefixERKNS_14XalanDOMStringE to i8*), i8* bitcast (i1 (%"class.xalanc_1_10::XercesEntityReferenceWrapper"*)* @_ZNK11xalanc_1_1028XercesEntityReferenceWrapper9isIndexedEv to i8*), i8* bitcast (i64 (%"class.xalanc_1_10::XercesEntityReferenceWrapper"*)* @_ZNK11xalanc_1_1028XercesEntityReferenceWrapper8getIndexEv to i8*)] }, align 8
@_ZTIN11xalanc_1_1025XercesDOMWrapperExceptionE = external dso_local constant i8*
@_ZTIN11xalanc_1_1017XalanDOMExceptionE = external dso_local constant i8*
@_ZTVN11xercesc_2_710XMLDeleterE = linkonce_odr dso_local unnamed_addr constant { [4 x i8*] } { [4 x i8*] [i8* null, i8* bitcast ({ i8*, i8* }* @_ZTIN11xercesc_2_710XMLDeleterE to i8*), i8* bitcast (void (%"class.xercesc_2_7::XMLDeleter"*)* @_ZN11xercesc_2_710XMLDeleterD2Ev to i8*), i8* bitcast (void (%"class.xercesc_2_7::XMLDeleter"*)* @_ZN11xercesc_2_710XMLDeleterD0Ev to i8*)] }, comdat, align 8
@_ZTVN10__cxxabiv117__class_type_infoE = external dso_local global i8*
@_ZTSN11xercesc_2_710XMLDeleterE = linkonce_odr dso_local constant [28 x i8] c"N11xercesc_2_710XMLDeleterE\00", comdat, align 1
@_ZTIN11xercesc_2_710XMLDeleterE = linkonce_odr dso_local constant { i8*, i8* } { i8* bitcast (i8** getelementptr inbounds (i8*, i8** @_ZTVN10__cxxabiv117__class_type_infoE, i64 2) to i8*), i8* getelementptr inbounds ([28 x i8], [28 x i8]* @_ZTSN11xercesc_2_710XMLDeleterE, i32 0, i32 0) }, comdat, align 8
@_ZTVN10__cxxabiv120__si_class_type_infoE = external dso_local global i8*
@_ZTSN11xalanc_1_1028XercesEntityReferenceWrapperE = dso_local constant [46 x i8] c"N11xalanc_1_1028XercesEntityReferenceWrapperE\00", align 1
@_ZTIN11xalanc_1_1020XalanEntityReferenceE = external dso_local constant i8*
@_ZTIN11xalanc_1_1028XercesEntityReferenceWrapperE = dso_local constant { i8*, i8*, i8* } { i8* bitcast (i8** getelementptr inbounds (i8*, i8** @_ZTVN10__cxxabiv120__si_class_type_infoE, i64 2) to i8*), i8* getelementptr inbounds ([46 x i8], [46 x i8]* @_ZTSN11xalanc_1_1028XercesEntityReferenceWrapperE, i32 0, i32 0), i8* bitcast (i8** @_ZTIN11xalanc_1_1020XalanEntityReferenceE to i8*) }, align 8

@_ZN11xalanc_1_1028XercesEntityReferenceWrapperC1EPKN11xercesc_2_718DOMEntityReferenceERKNS_22XercesWrapperNavigatorE = dso_local unnamed_addr alias void (%"class.xalanc_1_10::XercesEntityReferenceWrapper"*, %"class.xercesc_2_7::DOMEntityReference"*, %"class.xalanc_1_10::XercesWrapperNavigator"*), void (%"class.xalanc_1_10::XercesEntityReferenceWrapper"*, %"class.xercesc_2_7::DOMEntityReference"*, %"class.xalanc_1_10::XercesWrapperNavigator"*)* @_ZN11xalanc_1_1028XercesEntityReferenceWrapperC2EPKN11xercesc_2_718DOMEntityReferenceERKNS_22XercesWrapperNavigatorE
@_ZN11xalanc_1_1028XercesEntityReferenceWrapperD1Ev = dso_local unnamed_addr alias void (%"class.xalanc_1_10::XercesEntityReferenceWrapper"*), void (%"class.xalanc_1_10::XercesEntityReferenceWrapper"*)* @_ZN11xalanc_1_1028XercesEntityReferenceWrapperD2Ev

; Function Attrs: nounwind readnone speculatable willreturn
declare void @llvm.dbg.declare(metadata, metadata, metadata) #0

; Function Attrs: noinline nounwind uwtable
define linkonce_odr dso_local void @_ZN11xercesc_2_710XMLDeleterD0Ev(%"class.xercesc_2_7::XMLDeleter"* %this) unnamed_addr #1 comdat align 2 !dbg !1946 {
entry:
  %this.addr = alloca %"class.xercesc_2_7::XMLDeleter"*, align 8
  store %"class.xercesc_2_7::XMLDeleter"* %this, %"class.xercesc_2_7::XMLDeleter"** %this.addr, align 8
  call void @llvm.dbg.declare(metadata %"class.xercesc_2_7::XMLDeleter"** %this.addr, metadata !1967, metadata !DIExpression()), !dbg !1969
  %this1 = load %"class.xercesc_2_7::XMLDeleter"*, %"class.xercesc_2_7::XMLDeleter"** %this.addr, align 8
  call void @_ZN11xercesc_2_710XMLDeleterD2Ev(%"class.xercesc_2_7::XMLDeleter"* %this1) #8, !dbg !1970
  %0 = bitcast %"class.xercesc_2_7::XMLDeleter"* %this1 to i8*, !dbg !1970
  call void @_ZdlPv(i8* %0) #9, !dbg !1970
  ret void, !dbg !1971
}

; Function Attrs: noinline nounwind uwtable
define linkonce_odr dso_local void @_ZN11xercesc_2_710XMLDeleterD2Ev(%"class.xercesc_2_7::XMLDeleter"* %this) unnamed_addr #1 comdat align 2 !dbg !1972 {
entry:
  %this.addr = alloca %"class.xercesc_2_7::XMLDeleter"*, align 8
  store %"class.xercesc_2_7::XMLDeleter"* %this, %"class.xercesc_2_7::XMLDeleter"** %this.addr, align 8
  call void @llvm.dbg.declare(metadata %"class.xercesc_2_7::XMLDeleter"** %this.addr, metadata !1973, metadata !DIExpression()), !dbg !1974
  %this1 = load %"class.xercesc_2_7::XMLDeleter"*, %"class.xercesc_2_7::XMLDeleter"** %this.addr, align 8
  ret void, !dbg !1975
}

; Function Attrs: nobuiltin nounwind
declare dso_local void @_ZdlPv(i8*) #2

; Function Attrs: noinline uwtable
define dso_local void @_ZN11xalanc_1_1028XercesEntityReferenceWrapperC2EPKN11xercesc_2_718DOMEntityReferenceERKNS_22XercesWrapperNavigatorE(%"class.xalanc_1_10::XercesEntityReferenceWrapper"* %this, %"class.xercesc_2_7::DOMEntityReference"* %theXercesDOMEntityReference, %"class.xalanc_1_10::XercesWrapperNavigator"* dereferenceable(64) %theNavigator) unnamed_addr #3 align 2 personality i8* bitcast (i32 (...)* @__gxx_personality_v0 to i8*) !dbg !1976 {
entry:
  %this.addr = alloca %"class.xalanc_1_10::XercesEntityReferenceWrapper"*, align 8
  %theXercesDOMEntityReference.addr = alloca %"class.xercesc_2_7::DOMEntityReference"*, align 8
  %theNavigator.addr = alloca %"class.xalanc_1_10::XercesWrapperNavigator"*, align 8
  %exn.slot = alloca i8*
  %ehselector.slot = alloca i32
  store %"class.xalanc_1_10::XercesEntityReferenceWrapper"* %this, %"class.xalanc_1_10::XercesEntityReferenceWrapper"** %this.addr, align 8
  call void @llvm.dbg.declare(metadata %"class.xalanc_1_10::XercesEntityReferenceWrapper"** %this.addr, metadata !1977, metadata !DIExpression()), !dbg !1978
  store %"class.xercesc_2_7::DOMEntityReference"* %theXercesDOMEntityReference, %"class.xercesc_2_7::DOMEntityReference"** %theXercesDOMEntityReference.addr, align 8
  call void @llvm.dbg.declare(metadata %"class.xercesc_2_7::DOMEntityReference"** %theXercesDOMEntityReference.addr, metadata !1979, metadata !DIExpression()), !dbg !1980
  store %"class.xalanc_1_10::XercesWrapperNavigator"* %theNavigator, %"class.xalanc_1_10::XercesWrapperNavigator"** %theNavigator.addr, align 8
  call void @llvm.dbg.declare(metadata %"class.xalanc_1_10::XercesWrapperNavigator"** %theNavigator.addr, metadata !1981, metadata !DIExpression()), !dbg !1982
  %this1 = load %"class.xalanc_1_10::XercesEntityReferenceWrapper"*, %"class.xalanc_1_10::XercesEntityReferenceWrapper"** %this.addr, align 8
  %0 = bitcast %"class.xalanc_1_10::XercesEntityReferenceWrapper"* %this1 to %"class.xalanc_1_10::XalanEntityReference"*, !dbg !1983
  call void @_ZN11xalanc_1_1020XalanEntityReferenceC2Ev(%"class.xalanc_1_10::XalanEntityReference"* %0), !dbg !1984
  %1 = bitcast %"class.xalanc_1_10::XercesEntityReferenceWrapper"* %this1 to i32 (...)***, !dbg !1983
  store i32 (...)** bitcast (i8** getelementptr inbounds ({ [30 x i8*] }, { [30 x i8*] }* @_ZTVN11xalanc_1_1028XercesEntityReferenceWrapperE, i32 0, inrange i32 0, i32 2) to i32 (...)**), i32 (...)*** %1, align 8, !dbg !1983
  %m_xercesNode = getelementptr inbounds %"class.xalanc_1_10::XercesEntityReferenceWrapper", %"class.xalanc_1_10::XercesEntityReferenceWrapper"* %this1, i32 0, i32 1, !dbg !1985
  %2 = load %"class.xercesc_2_7::DOMEntityReference"*, %"class.xercesc_2_7::DOMEntityReference"** %theXercesDOMEntityReference.addr, align 8, !dbg !1986
  store %"class.xercesc_2_7::DOMEntityReference"* %2, %"class.xercesc_2_7::DOMEntityReference"** %m_xercesNode, align 8, !dbg !1985
  %m_navigator = getelementptr inbounds %"class.xalanc_1_10::XercesEntityReferenceWrapper", %"class.xalanc_1_10::XercesEntityReferenceWrapper"* %this1, i32 0, i32 2, !dbg !1987
  %3 = load %"class.xalanc_1_10::XercesWrapperNavigator"*, %"class.xalanc_1_10::XercesWrapperNavigator"** %theNavigator.addr, align 8, !dbg !1988
  store %"class.xalanc_1_10::XercesWrapperNavigator"* %3, %"class.xalanc_1_10::XercesWrapperNavigator"** %m_navigator, align 8, !dbg !1987
  %m_children = getelementptr inbounds %"class.xalanc_1_10::XercesEntityReferenceWrapper", %"class.xalanc_1_10::XercesEntityReferenceWrapper"* %this1, i32 0, i32 3, !dbg !1989
  %4 = load %"class.xercesc_2_7::DOMEntityReference"*, %"class.xercesc_2_7::DOMEntityReference"** %theXercesDOMEntityReference.addr, align 8, !dbg !1990
  %5 = bitcast %"class.xercesc_2_7::DOMEntityReference"* %4 to %"class.xercesc_2_7::DOMNode"*, !dbg !1991
  %6 = bitcast %"class.xercesc_2_7::DOMNode"* %5 to %"class.xercesc_2_7::DOMNodeList"* (%"class.xercesc_2_7::DOMNode"*)***, !dbg !1991
  %vtable = load %"class.xercesc_2_7::DOMNodeList"* (%"class.xercesc_2_7::DOMNode"*)**, %"class.xercesc_2_7::DOMNodeList"* (%"class.xercesc_2_7::DOMNode"*)*** %6, align 8, !dbg !1991
  %vfn = getelementptr inbounds %"class.xercesc_2_7::DOMNodeList"* (%"class.xercesc_2_7::DOMNode"*)*, %"class.xercesc_2_7::DOMNodeList"* (%"class.xercesc_2_7::DOMNode"*)** %vtable, i64 6, !dbg !1991
  %7 = load %"class.xercesc_2_7::DOMNodeList"* (%"class.xercesc_2_7::DOMNode"*)*, %"class.xercesc_2_7::DOMNodeList"* (%"class.xercesc_2_7::DOMNode"*)** %vfn, align 8, !dbg !1991
  %call = invoke %"class.xercesc_2_7::DOMNodeList"* %7(%"class.xercesc_2_7::DOMNode"* %5)
          to label %invoke.cont unwind label %lpad, !dbg !1991

invoke.cont:                                      ; preds = %entry
  %8 = load %"class.xalanc_1_10::XercesWrapperNavigator"*, %"class.xalanc_1_10::XercesWrapperNavigator"** %theNavigator.addr, align 8, !dbg !1992
  invoke void @_ZN11xalanc_1_1021XercesNodeListWrapperC1EPKN11xercesc_2_711DOMNodeListERKNS_22XercesWrapperNavigatorE(%"class.xalanc_1_10::XercesNodeListWrapper"* %m_children, %"class.xercesc_2_7::DOMNodeList"* %call, %"class.xalanc_1_10::XercesWrapperNavigator"* dereferenceable(64) %8)
          to label %invoke.cont2 unwind label %lpad, !dbg !1989

invoke.cont2:                                     ; preds = %invoke.cont
  ret void, !dbg !1993

lpad:                                             ; preds = %invoke.cont, %entry
  %9 = landingpad { i8*, i32 }
          cleanup, !dbg !1993
  %10 = extractvalue { i8*, i32 } %9, 0, !dbg !1993
  store i8* %10, i8** %exn.slot, align 8, !dbg !1993
  %11 = extractvalue { i8*, i32 } %9, 1, !dbg !1993
  store i32 %11, i32* %ehselector.slot, align 4, !dbg !1993
  %12 = bitcast %"class.xalanc_1_10::XercesEntityReferenceWrapper"* %this1 to %"class.xalanc_1_10::XalanEntityReference"*, !dbg !1994
  call void @_ZN11xalanc_1_1020XalanEntityReferenceD2Ev(%"class.xalanc_1_10::XalanEntityReference"* %12) #8, !dbg !1994
  br label %eh.resume, !dbg !1994

eh.resume:                                        ; preds = %lpad
  %exn = load i8*, i8** %exn.slot, align 8, !dbg !1994
  %sel = load i32, i32* %ehselector.slot, align 4, !dbg !1994
  %lpad.val = insertvalue { i8*, i32 } undef, i8* %exn, 0, !dbg !1994
  %lpad.val3 = insertvalue { i8*, i32 } %lpad.val, i32 %sel, 1, !dbg !1994
  resume { i8*, i32 } %lpad.val3, !dbg !1994
}

declare dso_local void @_ZN11xalanc_1_1020XalanEntityReferenceC2Ev(%"class.xalanc_1_10::XalanEntityReference"*) unnamed_addr #4

declare dso_local i32 @__gxx_personality_v0(...)

declare dso_local void @_ZN11xalanc_1_1021XercesNodeListWrapperC1EPKN11xercesc_2_711DOMNodeListERKNS_22XercesWrapperNavigatorE(%"class.xalanc_1_10::XercesNodeListWrapper"*, %"class.xercesc_2_7::DOMNodeList"*, %"class.xalanc_1_10::XercesWrapperNavigator"* dereferenceable(64)) unnamed_addr #4

; Function Attrs: nounwind
declare dso_local void @_ZN11xalanc_1_1020XalanEntityReferenceD2Ev(%"class.xalanc_1_10::XalanEntityReference"*) unnamed_addr #5

; Function Attrs: noinline uwtable
define dso_local %"class.xalanc_1_10::XercesEntityReferenceWrapper"* @_ZN11xalanc_1_1028XercesEntityReferenceWrapper6createERN11xercesc_2_713MemoryManagerEPKNS1_18DOMEntityReferenceERKNS_22XercesWrapperNavigatorE(%"class.xercesc_2_7::MemoryManager"* dereferenceable(8) %theManager, %"class.xercesc_2_7::DOMEntityReference"* %theXercesDOMEntityReference, %"class.xalanc_1_10::XercesWrapperNavigator"* dereferenceable(64) %theNavigator) #3 align 2 personality i8* bitcast (i32 (...)* @__gxx_personality_v0 to i8*) !dbg !46 {
entry:
  %theManager.addr = alloca %"class.xercesc_2_7::MemoryManager"*, align 8
  %theXercesDOMEntityReference.addr = alloca %"class.xercesc_2_7::DOMEntityReference"*, align 8
  %theNavigator.addr = alloca %"class.xalanc_1_10::XercesWrapperNavigator"*, align 8
  %theGuard = alloca %"class.xalanc_1_10::XalanMemMgrAutoPtr.13", align 8
  %theResult = alloca %"class.xalanc_1_10::XercesEntityReferenceWrapper"*, align 8
  %exn.slot = alloca i8*
  %ehselector.slot = alloca i32
  %coerce = alloca %"class.xalanc_1_10::XalanMemMgrAutoPtr<xalanc_1_10::XercesEntityReferenceWrapper, false>::MemMgrAutoPtrData", align 8
  store %"class.xercesc_2_7::MemoryManager"* %theManager, %"class.xercesc_2_7::MemoryManager"** %theManager.addr, align 8
  call void @llvm.dbg.declare(metadata %"class.xercesc_2_7::MemoryManager"** %theManager.addr, metadata !1996, metadata !DIExpression()), !dbg !1997
  store %"class.xercesc_2_7::DOMEntityReference"* %theXercesDOMEntityReference, %"class.xercesc_2_7::DOMEntityReference"** %theXercesDOMEntityReference.addr, align 8
  call void @llvm.dbg.declare(metadata %"class.xercesc_2_7::DOMEntityReference"** %theXercesDOMEntityReference.addr, metadata !1998, metadata !DIExpression()), !dbg !1999
  store %"class.xalanc_1_10::XercesWrapperNavigator"* %theNavigator, %"class.xalanc_1_10::XercesWrapperNavigator"** %theNavigator.addr, align 8
  call void @llvm.dbg.declare(metadata %"class.xalanc_1_10::XercesWrapperNavigator"** %theNavigator.addr, metadata !2000, metadata !DIExpression()), !dbg !2001
  call void @llvm.dbg.declare(metadata %"class.xalanc_1_10::XalanMemMgrAutoPtr.13"* %theGuard, metadata !2002, metadata !DIExpression()), !dbg !2003
  %0 = load %"class.xercesc_2_7::MemoryManager"*, %"class.xercesc_2_7::MemoryManager"** %theManager.addr, align 8, !dbg !2004
  %1 = load %"class.xercesc_2_7::MemoryManager"*, %"class.xercesc_2_7::MemoryManager"** %theManager.addr, align 8, !dbg !2005
  %2 = bitcast %"class.xercesc_2_7::MemoryManager"* %1 to i8* (%"class.xercesc_2_7::MemoryManager"*, i64)***, !dbg !2006
  %vtable = load i8* (%"class.xercesc_2_7::MemoryManager"*, i64)**, i8* (%"class.xercesc_2_7::MemoryManager"*, i64)*** %2, align 8, !dbg !2006
  %vfn = getelementptr inbounds i8* (%"class.xercesc_2_7::MemoryManager"*, i64)*, i8* (%"class.xercesc_2_7::MemoryManager"*, i64)** %vtable, i64 2, !dbg !2006
  %3 = load i8* (%"class.xercesc_2_7::MemoryManager"*, i64)*, i8* (%"class.xercesc_2_7::MemoryManager"*, i64)** %vfn, align 8, !dbg !2006
  %call = call i8* %3(%"class.xercesc_2_7::MemoryManager"* %1, i64 48), !dbg !2006
  %4 = bitcast i8* %call to %"class.xalanc_1_10::XercesEntityReferenceWrapper"*, !dbg !2007
  call void @_ZN11xalanc_1_1018XalanMemMgrAutoPtrINS_28XercesEntityReferenceWrapperELb0EEC2ERN11xercesc_2_713MemoryManagerEPS1_(%"class.xalanc_1_10::XalanMemMgrAutoPtr.13"* %theGuard, %"class.xercesc_2_7::MemoryManager"* dereferenceable(8) %0, %"class.xalanc_1_10::XercesEntityReferenceWrapper"* %4), !dbg !2003
  call void @llvm.dbg.declare(metadata %"class.xalanc_1_10::XercesEntityReferenceWrapper"** %theResult, metadata !2008, metadata !DIExpression()), !dbg !2009
  %call1 = invoke %"class.xalanc_1_10::XercesEntityReferenceWrapper"* @_ZNK11xalanc_1_1018XalanMemMgrAutoPtrINS_28XercesEntityReferenceWrapperELb0EE3getEv(%"class.xalanc_1_10::XalanMemMgrAutoPtr.13"* %theGuard)
          to label %invoke.cont unwind label %lpad, !dbg !2010

invoke.cont:                                      ; preds = %entry
  store %"class.xalanc_1_10::XercesEntityReferenceWrapper"* %call1, %"class.xalanc_1_10::XercesEntityReferenceWrapper"** %theResult, align 8, !dbg !2009
  %5 = load %"class.xalanc_1_10::XercesEntityReferenceWrapper"*, %"class.xalanc_1_10::XercesEntityReferenceWrapper"** %theResult, align 8, !dbg !2011
  %6 = bitcast %"class.xalanc_1_10::XercesEntityReferenceWrapper"* %5 to i8*, !dbg !2012
  %7 = bitcast i8* %6 to %"class.xalanc_1_10::XercesEntityReferenceWrapper"*, !dbg !2012
  %8 = load %"class.xercesc_2_7::DOMEntityReference"*, %"class.xercesc_2_7::DOMEntityReference"** %theXercesDOMEntityReference.addr, align 8, !dbg !2013
  %9 = load %"class.xalanc_1_10::XercesWrapperNavigator"*, %"class.xalanc_1_10::XercesWrapperNavigator"** %theNavigator.addr, align 8, !dbg !2014
  invoke void @_ZN11xalanc_1_1028XercesEntityReferenceWrapperC1EPKN11xercesc_2_718DOMEntityReferenceERKNS_22XercesWrapperNavigatorE(%"class.xalanc_1_10::XercesEntityReferenceWrapper"* %7, %"class.xercesc_2_7::DOMEntityReference"* %8, %"class.xalanc_1_10::XercesWrapperNavigator"* dereferenceable(64) %9)
          to label %invoke.cont2 unwind label %lpad, !dbg !2015

invoke.cont2:                                     ; preds = %invoke.cont
  %call4 = invoke { %"class.xercesc_2_7::MemoryManager"*, %"class.xalanc_1_10::XercesEntityReferenceWrapper"* } @_ZN11xalanc_1_1018XalanMemMgrAutoPtrINS_28XercesEntityReferenceWrapperELb0EE7releaseEv(%"class.xalanc_1_10::XalanMemMgrAutoPtr.13"* %theGuard)
          to label %invoke.cont3 unwind label %lpad, !dbg !2016

invoke.cont3:                                     ; preds = %invoke.cont2
  %coerce.dive = getelementptr inbounds %"class.xalanc_1_10::XalanMemMgrAutoPtr<xalanc_1_10::XercesEntityReferenceWrapper, false>::MemMgrAutoPtrData", %"class.xalanc_1_10::XalanMemMgrAutoPtr<xalanc_1_10::XercesEntityReferenceWrapper, false>::MemMgrAutoPtrData"* %coerce, i32 0, i32 0, !dbg !2016
  %10 = bitcast %"struct.std::pair.14"* %coerce.dive to { %"class.xercesc_2_7::MemoryManager"*, %"class.xalanc_1_10::XercesEntityReferenceWrapper"* }*, !dbg !2016
  %11 = getelementptr inbounds { %"class.xercesc_2_7::MemoryManager"*, %"class.xalanc_1_10::XercesEntityReferenceWrapper"* }, { %"class.xercesc_2_7::MemoryManager"*, %"class.xalanc_1_10::XercesEntityReferenceWrapper"* }* %10, i32 0, i32 0, !dbg !2016
  %12 = extractvalue { %"class.xercesc_2_7::MemoryManager"*, %"class.xalanc_1_10::XercesEntityReferenceWrapper"* } %call4, 0, !dbg !2016
  store %"class.xercesc_2_7::MemoryManager"* %12, %"class.xercesc_2_7::MemoryManager"** %11, align 8, !dbg !2016
  %13 = getelementptr inbounds { %"class.xercesc_2_7::MemoryManager"*, %"class.xalanc_1_10::XercesEntityReferenceWrapper"* }, { %"class.xercesc_2_7::MemoryManager"*, %"class.xalanc_1_10::XercesEntityReferenceWrapper"* }* %10, i32 0, i32 1, !dbg !2016
  %14 = extractvalue { %"class.xercesc_2_7::MemoryManager"*, %"class.xalanc_1_10::XercesEntityReferenceWrapper"* } %call4, 1, !dbg !2016
  store %"class.xalanc_1_10::XercesEntityReferenceWrapper"* %14, %"class.xalanc_1_10::XercesEntityReferenceWrapper"** %13, align 8, !dbg !2016
  %15 = load %"class.xalanc_1_10::XercesEntityReferenceWrapper"*, %"class.xalanc_1_10::XercesEntityReferenceWrapper"** %theResult, align 8, !dbg !2017
  call void @_ZN11xalanc_1_1018XalanMemMgrAutoPtrINS_28XercesEntityReferenceWrapperELb0EED2Ev(%"class.xalanc_1_10::XalanMemMgrAutoPtr.13"* %theGuard) #8, !dbg !2018
  ret %"class.xalanc_1_10::XercesEntityReferenceWrapper"* %15, !dbg !2018

lpad:                                             ; preds = %invoke.cont2, %invoke.cont, %entry
  %16 = landingpad { i8*, i32 }
          cleanup, !dbg !2018
  %17 = extractvalue { i8*, i32 } %16, 0, !dbg !2018
  store i8* %17, i8** %exn.slot, align 8, !dbg !2018
  %18 = extractvalue { i8*, i32 } %16, 1, !dbg !2018
  store i32 %18, i32* %ehselector.slot, align 4, !dbg !2018
  call void @_ZN11xalanc_1_1018XalanMemMgrAutoPtrINS_28XercesEntityReferenceWrapperELb0EED2Ev(%"class.xalanc_1_10::XalanMemMgrAutoPtr.13"* %theGuard) #8, !dbg !2018
  br label %eh.resume, !dbg !2018

eh.resume:                                        ; preds = %lpad
  %exn = load i8*, i8** %exn.slot, align 8, !dbg !2018
  %sel = load i32, i32* %ehselector.slot, align 4, !dbg !2018
  %lpad.val = insertvalue { i8*, i32 } undef, i8* %exn, 0, !dbg !2018
  %lpad.val5 = insertvalue { i8*, i32 } %lpad.val, i32 %sel, 1, !dbg !2018
  resume { i8*, i32 } %lpad.val5, !dbg !2018
}

; Function Attrs: noinline uwtable
define linkonce_odr dso_local void @_ZN11xalanc_1_1018XalanMemMgrAutoPtrINS_28XercesEntityReferenceWrapperELb0EEC2ERN11xercesc_2_713MemoryManagerEPS1_(%"class.xalanc_1_10::XalanMemMgrAutoPtr.13"* %this, %"class.xercesc_2_7::MemoryManager"* dereferenceable(8) %theManager, %"class.xalanc_1_10::XercesEntityReferenceWrapper"* %ptr) unnamed_addr #3 comdat align 2 !dbg !2019 {
entry:
  %this.addr = alloca %"class.xalanc_1_10::XalanMemMgrAutoPtr.13"*, align 8
  %theManager.addr = alloca %"class.xercesc_2_7::MemoryManager"*, align 8
  %ptr.addr = alloca %"class.xalanc_1_10::XercesEntityReferenceWrapper"*, align 8
  store %"class.xalanc_1_10::XalanMemMgrAutoPtr.13"* %this, %"class.xalanc_1_10::XalanMemMgrAutoPtr.13"** %this.addr, align 8
  call void @llvm.dbg.declare(metadata %"class.xalanc_1_10::XalanMemMgrAutoPtr.13"** %this.addr, metadata !2020, metadata !DIExpression()), !dbg !2022
  store %"class.xercesc_2_7::MemoryManager"* %theManager, %"class.xercesc_2_7::MemoryManager"** %theManager.addr, align 8
  call void @llvm.dbg.declare(metadata %"class.xercesc_2_7::MemoryManager"** %theManager.addr, metadata !2023, metadata !DIExpression()), !dbg !2024
  store %"class.xalanc_1_10::XercesEntityReferenceWrapper"* %ptr, %"class.xalanc_1_10::XercesEntityReferenceWrapper"** %ptr.addr, align 8
  call void @llvm.dbg.declare(metadata %"class.xalanc_1_10::XercesEntityReferenceWrapper"** %ptr.addr, metadata !2025, metadata !DIExpression()), !dbg !2026
  %this1 = load %"class.xalanc_1_10::XalanMemMgrAutoPtr.13"*, %"class.xalanc_1_10::XalanMemMgrAutoPtr.13"** %this.addr, align 8
  %m_pointerInfo = getelementptr inbounds %"class.xalanc_1_10::XalanMemMgrAutoPtr.13", %"class.xalanc_1_10::XalanMemMgrAutoPtr.13"* %this1, i32 0, i32 0, !dbg !2027
  %0 = load %"class.xercesc_2_7::MemoryManager"*, %"class.xercesc_2_7::MemoryManager"** %theManager.addr, align 8, !dbg !2028
  %1 = load %"class.xalanc_1_10::XercesEntityReferenceWrapper"*, %"class.xalanc_1_10::XercesEntityReferenceWrapper"** %ptr.addr, align 8, !dbg !2029
  call void @_ZN11xalanc_1_1018XalanMemMgrAutoPtrINS_28XercesEntityReferenceWrapperELb0EE17MemMgrAutoPtrDataC2EPN11xercesc_2_713MemoryManagerEPS1_(%"class.xalanc_1_10::XalanMemMgrAutoPtr<xalanc_1_10::XercesEntityReferenceWrapper, false>::MemMgrAutoPtrData"* %m_pointerInfo, %"class.xercesc_2_7::MemoryManager"* %0, %"class.xalanc_1_10::XercesEntityReferenceWrapper"* %1), !dbg !2027
  ret void, !dbg !2030
}

; Function Attrs: noinline nounwind uwtable
define linkonce_odr dso_local %"class.xalanc_1_10::XercesEntityReferenceWrapper"* @_ZNK11xalanc_1_1018XalanMemMgrAutoPtrINS_28XercesEntityReferenceWrapperELb0EE3getEv(%"class.xalanc_1_10::XalanMemMgrAutoPtr.13"* %this) #1 comdat align 2 !dbg !2031 {
entry:
  %this.addr = alloca %"class.xalanc_1_10::XalanMemMgrAutoPtr.13"*, align 8
  store %"class.xalanc_1_10::XalanMemMgrAutoPtr.13"* %this, %"class.xalanc_1_10::XalanMemMgrAutoPtr.13"** %this.addr, align 8
  call void @llvm.dbg.declare(metadata %"class.xalanc_1_10::XalanMemMgrAutoPtr.13"** %this.addr, metadata !2032, metadata !DIExpression()), !dbg !2034
  %this1 = load %"class.xalanc_1_10::XalanMemMgrAutoPtr.13"*, %"class.xalanc_1_10::XalanMemMgrAutoPtr.13"** %this.addr, align 8
  %m_pointerInfo = getelementptr inbounds %"class.xalanc_1_10::XalanMemMgrAutoPtr.13", %"class.xalanc_1_10::XalanMemMgrAutoPtr.13"* %this1, i32 0, i32 0, !dbg !2035
  %0 = bitcast %"class.xalanc_1_10::XalanMemMgrAutoPtr<xalanc_1_10::XercesEntityReferenceWrapper, false>::MemMgrAutoPtrData"* %m_pointerInfo to %"struct.std::pair.14"*, !dbg !2035
  %second = getelementptr inbounds %"struct.std::pair.14", %"struct.std::pair.14"* %0, i32 0, i32 1, !dbg !2036
  %1 = load %"class.xalanc_1_10::XercesEntityReferenceWrapper"*, %"class.xalanc_1_10::XercesEntityReferenceWrapper"** %second, align 8, !dbg !2036
  ret %"class.xalanc_1_10::XercesEntityReferenceWrapper"* %1, !dbg !2037
}

; Function Attrs: noinline uwtable
define linkonce_odr dso_local { %"class.xercesc_2_7::MemoryManager"*, %"class.xalanc_1_10::XercesEntityReferenceWrapper"* } @_ZN11xalanc_1_1018XalanMemMgrAutoPtrINS_28XercesEntityReferenceWrapperELb0EE7releaseEv(%"class.xalanc_1_10::XalanMemMgrAutoPtr.13"* %this) #3 comdat align 2 !dbg !2038 {
entry:
  %retval = alloca %"class.xalanc_1_10::XalanMemMgrAutoPtr<xalanc_1_10::XercesEntityReferenceWrapper, false>::MemMgrAutoPtrData", align 8
  %this.addr = alloca %"class.xalanc_1_10::XalanMemMgrAutoPtr.13"*, align 8
  %tmp = alloca %"class.xalanc_1_10::XalanMemMgrAutoPtr<xalanc_1_10::XercesEntityReferenceWrapper, false>::MemMgrAutoPtrData", align 8
  store %"class.xalanc_1_10::XalanMemMgrAutoPtr.13"* %this, %"class.xalanc_1_10::XalanMemMgrAutoPtr.13"** %this.addr, align 8
  call void @llvm.dbg.declare(metadata %"class.xalanc_1_10::XalanMemMgrAutoPtr.13"** %this.addr, metadata !2039, metadata !DIExpression()), !dbg !2040
  %this1 = load %"class.xalanc_1_10::XalanMemMgrAutoPtr.13"*, %"class.xalanc_1_10::XalanMemMgrAutoPtr.13"** %this.addr, align 8
  call void @llvm.dbg.declare(metadata %"class.xalanc_1_10::XalanMemMgrAutoPtr<xalanc_1_10::XercesEntityReferenceWrapper, false>::MemMgrAutoPtrData"* %tmp, metadata !2041, metadata !DIExpression()), !dbg !2042
  %m_pointerInfo = getelementptr inbounds %"class.xalanc_1_10::XalanMemMgrAutoPtr.13", %"class.xalanc_1_10::XalanMemMgrAutoPtr.13"* %this1, i32 0, i32 0, !dbg !2043
  %0 = bitcast %"class.xalanc_1_10::XalanMemMgrAutoPtr<xalanc_1_10::XercesEntityReferenceWrapper, false>::MemMgrAutoPtrData"* %tmp to i8*, !dbg !2043
  %1 = bitcast %"class.xalanc_1_10::XalanMemMgrAutoPtr<xalanc_1_10::XercesEntityReferenceWrapper, false>::MemMgrAutoPtrData"* %m_pointerInfo to i8*, !dbg !2043
  call void @llvm.memcpy.p0i8.p0i8.i64(i8* align 8 %0, i8* align 8 %1, i64 16, i1 false), !dbg !2043
  %m_pointerInfo2 = getelementptr inbounds %"class.xalanc_1_10::XalanMemMgrAutoPtr.13", %"class.xalanc_1_10::XalanMemMgrAutoPtr.13"* %this1, i32 0, i32 0, !dbg !2044
  call void @_ZN11xalanc_1_1018XalanMemMgrAutoPtrINS_28XercesEntityReferenceWrapperELb0EE17MemMgrAutoPtrData5resetEPN11xercesc_2_713MemoryManagerEPS1_(%"class.xalanc_1_10::XalanMemMgrAutoPtr<xalanc_1_10::XercesEntityReferenceWrapper, false>::MemMgrAutoPtrData"* %m_pointerInfo2, %"class.xercesc_2_7::MemoryManager"* null, %"class.xalanc_1_10::XercesEntityReferenceWrapper"* null), !dbg !2045
  %2 = bitcast %"class.xalanc_1_10::XalanMemMgrAutoPtr<xalanc_1_10::XercesEntityReferenceWrapper, false>::MemMgrAutoPtrData"* %retval to i8*, !dbg !2046
  %3 = bitcast %"class.xalanc_1_10::XalanMemMgrAutoPtr<xalanc_1_10::XercesEntityReferenceWrapper, false>::MemMgrAutoPtrData"* %tmp to i8*, !dbg !2046
  call void @llvm.memcpy.p0i8.p0i8.i64(i8* align 8 %2, i8* align 8 %3, i64 16, i1 false), !dbg !2046
  %coerce.dive = getelementptr inbounds %"class.xalanc_1_10::XalanMemMgrAutoPtr<xalanc_1_10::XercesEntityReferenceWrapper, false>::MemMgrAutoPtrData", %"class.xalanc_1_10::XalanMemMgrAutoPtr<xalanc_1_10::XercesEntityReferenceWrapper, false>::MemMgrAutoPtrData"* %retval, i32 0, i32 0, !dbg !2047
  %4 = bitcast %"struct.std::pair.14"* %coerce.dive to { %"class.xercesc_2_7::MemoryManager"*, %"class.xalanc_1_10::XercesEntityReferenceWrapper"* }*, !dbg !2047
  %5 = load { %"class.xercesc_2_7::MemoryManager"*, %"class.xalanc_1_10::XercesEntityReferenceWrapper"* }, { %"class.xercesc_2_7::MemoryManager"*, %"class.xalanc_1_10::XercesEntityReferenceWrapper"* }* %4, align 8, !dbg !2047
  ret { %"class.xercesc_2_7::MemoryManager"*, %"class.xalanc_1_10::XercesEntityReferenceWrapper"* } %5, !dbg !2047
}

; Function Attrs: noinline nounwind uwtable
define linkonce_odr dso_local void @_ZN11xalanc_1_1018XalanMemMgrAutoPtrINS_28XercesEntityReferenceWrapperELb0EED2Ev(%"class.xalanc_1_10::XalanMemMgrAutoPtr.13"* %this) unnamed_addr #1 comdat align 2 personality i8* bitcast (i32 (...)* @__gxx_personality_v0 to i8*) !dbg !2048 {
entry:
  %this.addr = alloca %"class.xalanc_1_10::XalanMemMgrAutoPtr.13"*, align 8
  store %"class.xalanc_1_10::XalanMemMgrAutoPtr.13"* %this, %"class.xalanc_1_10::XalanMemMgrAutoPtr.13"** %this.addr, align 8
  call void @llvm.dbg.declare(metadata %"class.xalanc_1_10::XalanMemMgrAutoPtr.13"** %this.addr, metadata !2049, metadata !DIExpression()), !dbg !2050
  %this1 = load %"class.xalanc_1_10::XalanMemMgrAutoPtr.13"*, %"class.xalanc_1_10::XalanMemMgrAutoPtr.13"** %this.addr, align 8
  %m_pointerInfo = getelementptr inbounds %"class.xalanc_1_10::XalanMemMgrAutoPtr.13", %"class.xalanc_1_10::XalanMemMgrAutoPtr.13"* %this1, i32 0, i32 0, !dbg !2051
  invoke void @_ZN11xalanc_1_1018XalanMemMgrAutoPtrINS_28XercesEntityReferenceWrapperELb0EE17MemMgrAutoPtrData10deallocateEv(%"class.xalanc_1_10::XalanMemMgrAutoPtr<xalanc_1_10::XercesEntityReferenceWrapper, false>::MemMgrAutoPtrData"* %m_pointerInfo)
          to label %invoke.cont unwind label %terminate.lpad, !dbg !2053

invoke.cont:                                      ; preds = %entry
  ret void, !dbg !2054

terminate.lpad:                                   ; preds = %entry
  %0 = landingpad { i8*, i32 }
          catch i8* null, !dbg !2053
  %1 = extractvalue { i8*, i32 } %0, 0, !dbg !2053
  call void @__clang_call_terminate(i8* %1) #10, !dbg !2053
  unreachable, !dbg !2053
}

; Function Attrs: noinline nounwind uwtable
define dso_local void @_ZN11xalanc_1_1028XercesEntityReferenceWrapperD2Ev(%"class.xalanc_1_10::XercesEntityReferenceWrapper"* %this) unnamed_addr #1 align 2 !dbg !2055 {
entry:
  %this.addr = alloca %"class.xalanc_1_10::XercesEntityReferenceWrapper"*, align 8
  store %"class.xalanc_1_10::XercesEntityReferenceWrapper"* %this, %"class.xalanc_1_10::XercesEntityReferenceWrapper"** %this.addr, align 8
  call void @llvm.dbg.declare(metadata %"class.xalanc_1_10::XercesEntityReferenceWrapper"** %this.addr, metadata !2056, metadata !DIExpression()), !dbg !2057
  %this1 = load %"class.xalanc_1_10::XercesEntityReferenceWrapper"*, %"class.xalanc_1_10::XercesEntityReferenceWrapper"** %this.addr, align 8
  %0 = bitcast %"class.xalanc_1_10::XercesEntityReferenceWrapper"* %this1 to i32 (...)***, !dbg !2058
  store i32 (...)** bitcast (i8** getelementptr inbounds ({ [30 x i8*] }, { [30 x i8*] }* @_ZTVN11xalanc_1_1028XercesEntityReferenceWrapperE, i32 0, inrange i32 0, i32 2) to i32 (...)**), i32 (...)*** %0, align 8, !dbg !2058
  %m_children = getelementptr inbounds %"class.xalanc_1_10::XercesEntityReferenceWrapper", %"class.xalanc_1_10::XercesEntityReferenceWrapper"* %this1, i32 0, i32 3, !dbg !2059
  call void @_ZN11xalanc_1_1021XercesNodeListWrapperD1Ev(%"class.xalanc_1_10::XercesNodeListWrapper"* %m_children) #8, !dbg !2059
  %1 = bitcast %"class.xalanc_1_10::XercesEntityReferenceWrapper"* %this1 to %"class.xalanc_1_10::XalanEntityReference"*, !dbg !2059
  call void @_ZN11xalanc_1_1020XalanEntityReferenceD2Ev(%"class.xalanc_1_10::XalanEntityReference"* %1) #8, !dbg !2059
  ret void, !dbg !2061
}

; Function Attrs: nounwind
declare dso_local void @_ZN11xalanc_1_1021XercesNodeListWrapperD1Ev(%"class.xalanc_1_10::XercesNodeListWrapper"*) unnamed_addr #5

; Function Attrs: noinline nounwind uwtable
define dso_local void @_ZN11xalanc_1_1028XercesEntityReferenceWrapperD0Ev(%"class.xalanc_1_10::XercesEntityReferenceWrapper"* %this) unnamed_addr #1 align 2 !dbg !2062 {
entry:
  %this.addr = alloca %"class.xalanc_1_10::XercesEntityReferenceWrapper"*, align 8
  store %"class.xalanc_1_10::XercesEntityReferenceWrapper"* %this, %"class.xalanc_1_10::XercesEntityReferenceWrapper"** %this.addr, align 8
  call void @llvm.dbg.declare(metadata %"class.xalanc_1_10::XercesEntityReferenceWrapper"** %this.addr, metadata !2063, metadata !DIExpression()), !dbg !2064
  %this1 = load %"class.xalanc_1_10::XercesEntityReferenceWrapper"*, %"class.xalanc_1_10::XercesEntityReferenceWrapper"** %this.addr, align 8
  call void @_ZN11xalanc_1_1028XercesEntityReferenceWrapperD1Ev(%"class.xalanc_1_10::XercesEntityReferenceWrapper"* %this1) #8, !dbg !2065
  %0 = bitcast %"class.xalanc_1_10::XercesEntityReferenceWrapper"* %this1 to i8*, !dbg !2065
  call void @_ZdlPv(i8* %0) #9, !dbg !2065
  ret void, !dbg !2066
}

; Function Attrs: noinline uwtable
define dso_local dereferenceable(40) %"class.xalanc_1_10::XalanDOMString"* @_ZNK11xalanc_1_1028XercesEntityReferenceWrapper11getNodeNameEv(%"class.xalanc_1_10::XercesEntityReferenceWrapper"* %this) unnamed_addr #3 align 2 !dbg !2067 {
entry:
  %this.addr = alloca %"class.xalanc_1_10::XercesEntityReferenceWrapper"*, align 8
  store %"class.xalanc_1_10::XercesEntityReferenceWrapper"* %this, %"class.xalanc_1_10::XercesEntityReferenceWrapper"** %this.addr, align 8
  call void @llvm.dbg.declare(metadata %"class.xalanc_1_10::XercesEntityReferenceWrapper"** %this.addr, metadata !2068, metadata !DIExpression()), !dbg !2070
  %this1 = load %"class.xalanc_1_10::XercesEntityReferenceWrapper"*, %"class.xalanc_1_10::XercesEntityReferenceWrapper"** %this.addr, align 8
  %m_navigator = getelementptr inbounds %"class.xalanc_1_10::XercesEntityReferenceWrapper", %"class.xalanc_1_10::XercesEntityReferenceWrapper"* %this1, i32 0, i32 2, !dbg !2071
  %0 = load %"class.xalanc_1_10::XercesWrapperNavigator"*, %"class.xalanc_1_10::XercesWrapperNavigator"** %m_navigator, align 8, !dbg !2071
  %m_xercesNode = getelementptr inbounds %"class.xalanc_1_10::XercesEntityReferenceWrapper", %"class.xalanc_1_10::XercesEntityReferenceWrapper"* %this1, i32 0, i32 1, !dbg !2072
  %1 = load %"class.xercesc_2_7::DOMEntityReference"*, %"class.xercesc_2_7::DOMEntityReference"** %m_xercesNode, align 8, !dbg !2072
  %2 = bitcast %"class.xercesc_2_7::DOMEntityReference"* %1 to %"class.xercesc_2_7::DOMNode"*, !dbg !2073
  %3 = bitcast %"class.xercesc_2_7::DOMNode"* %2 to i16* (%"class.xercesc_2_7::DOMNode"*)***, !dbg !2073
  %vtable = load i16* (%"class.xercesc_2_7::DOMNode"*)**, i16* (%"class.xercesc_2_7::DOMNode"*)*** %3, align 8, !dbg !2073
  %vfn = getelementptr inbounds i16* (%"class.xercesc_2_7::DOMNode"*)*, i16* (%"class.xercesc_2_7::DOMNode"*)** %vtable, i64 2, !dbg !2073
  %4 = load i16* (%"class.xercesc_2_7::DOMNode"*)*, i16* (%"class.xercesc_2_7::DOMNode"*)** %vfn, align 8, !dbg !2073
  %call = call i16* %4(%"class.xercesc_2_7::DOMNode"* %2), !dbg !2073
  %call2 = call dereferenceable(40) %"class.xalanc_1_10::XalanDOMString"* @_ZNK11xalanc_1_1022XercesWrapperNavigator15getPooledStringEPKt(%"class.xalanc_1_10::XercesWrapperNavigator"* %0, i16* %call), !dbg !2074
  ret %"class.xalanc_1_10::XalanDOMString"* %call2, !dbg !2075
}

declare dso_local dereferenceable(40) %"class.xalanc_1_10::XalanDOMString"* @_ZNK11xalanc_1_1022XercesWrapperNavigator15getPooledStringEPKt(%"class.xalanc_1_10::XercesWrapperNavigator"*, i16*) #4

; Function Attrs: noinline uwtable
define dso_local dereferenceable(40) %"class.xalanc_1_10::XalanDOMString"* @_ZNK11xalanc_1_1028XercesEntityReferenceWrapper12getNodeValueEv(%"class.xalanc_1_10::XercesEntityReferenceWrapper"* %this) unnamed_addr #3 align 2 !dbg !2076 {
entry:
  %this.addr = alloca %"class.xalanc_1_10::XercesEntityReferenceWrapper"*, align 8
  store %"class.xalanc_1_10::XercesEntityReferenceWrapper"* %this, %"class.xalanc_1_10::XercesEntityReferenceWrapper"** %this.addr, align 8
  call void @llvm.dbg.declare(metadata %"class.xalanc_1_10::XercesEntityReferenceWrapper"** %this.addr, metadata !2077, metadata !DIExpression()), !dbg !2078
  %this1 = load %"class.xalanc_1_10::XercesEntityReferenceWrapper"*, %"class.xalanc_1_10::XercesEntityReferenceWrapper"** %this.addr, align 8
  %m_navigator = getelementptr inbounds %"class.xalanc_1_10::XercesEntityReferenceWrapper", %"class.xalanc_1_10::XercesEntityReferenceWrapper"* %this1, i32 0, i32 2, !dbg !2079
  %0 = load %"class.xalanc_1_10::XercesWrapperNavigator"*, %"class.xalanc_1_10::XercesWrapperNavigator"** %m_navigator, align 8, !dbg !2079
  %m_xercesNode = getelementptr inbounds %"class.xalanc_1_10::XercesEntityReferenceWrapper", %"class.xalanc_1_10::XercesEntityReferenceWrapper"* %this1, i32 0, i32 1, !dbg !2080
  %1 = load %"class.xercesc_2_7::DOMEntityReference"*, %"class.xercesc_2_7::DOMEntityReference"** %m_xercesNode, align 8, !dbg !2080
  %2 = bitcast %"class.xercesc_2_7::DOMEntityReference"* %1 to %"class.xercesc_2_7::DOMNode"*, !dbg !2081
  %3 = bitcast %"class.xercesc_2_7::DOMNode"* %2 to i16* (%"class.xercesc_2_7::DOMNode"*)***, !dbg !2081
  %vtable = load i16* (%"class.xercesc_2_7::DOMNode"*)**, i16* (%"class.xercesc_2_7::DOMNode"*)*** %3, align 8, !dbg !2081
  %vfn = getelementptr inbounds i16* (%"class.xercesc_2_7::DOMNode"*)*, i16* (%"class.xercesc_2_7::DOMNode"*)** %vtable, i64 3, !dbg !2081
  %4 = load i16* (%"class.xercesc_2_7::DOMNode"*)*, i16* (%"class.xercesc_2_7::DOMNode"*)** %vfn, align 8, !dbg !2081
  %call = call i16* %4(%"class.xercesc_2_7::DOMNode"* %2), !dbg !2081
  %call2 = call dereferenceable(40) %"class.xalanc_1_10::XalanDOMString"* @_ZNK11xalanc_1_1022XercesWrapperNavigator15getPooledStringEPKt(%"class.xalanc_1_10::XercesWrapperNavigator"* %0, i16* %call), !dbg !2082
  ret %"class.xalanc_1_10::XalanDOMString"* %call2, !dbg !2083
}

; Function Attrs: noinline nounwind uwtable
define dso_local i32 @_ZNK11xalanc_1_1028XercesEntityReferenceWrapper11getNodeTypeEv(%"class.xalanc_1_10::XercesEntityReferenceWrapper"* %this) unnamed_addr #1 align 2 !dbg !2084 {
entry:
  %this.addr = alloca %"class.xalanc_1_10::XercesEntityReferenceWrapper"*, align 8
  store %"class.xalanc_1_10::XercesEntityReferenceWrapper"* %this, %"class.xalanc_1_10::XercesEntityReferenceWrapper"** %this.addr, align 8
  call void @llvm.dbg.declare(metadata %"class.xalanc_1_10::XercesEntityReferenceWrapper"** %this.addr, metadata !2085, metadata !DIExpression()), !dbg !2086
  %this1 = load %"class.xalanc_1_10::XercesEntityReferenceWrapper"*, %"class.xalanc_1_10::XercesEntityReferenceWrapper"** %this.addr, align 8
  ret i32 5, !dbg !2087
}

; Function Attrs: noinline uwtable
define dso_local %"class.xalanc_1_10::XalanNode"* @_ZNK11xalanc_1_1028XercesEntityReferenceWrapper13getParentNodeEv(%"class.xalanc_1_10::XercesEntityReferenceWrapper"* %this) unnamed_addr #3 align 2 !dbg !2088 {
entry:
  %this.addr = alloca %"class.xalanc_1_10::XercesEntityReferenceWrapper"*, align 8
  store %"class.xalanc_1_10::XercesEntityReferenceWrapper"* %this, %"class.xalanc_1_10::XercesEntityReferenceWrapper"** %this.addr, align 8
  call void @llvm.dbg.declare(metadata %"class.xalanc_1_10::XercesEntityReferenceWrapper"** %this.addr, metadata !2089, metadata !DIExpression()), !dbg !2090
  %this1 = load %"class.xalanc_1_10::XercesEntityReferenceWrapper"*, %"class.xalanc_1_10::XercesEntityReferenceWrapper"** %this.addr, align 8
  %m_navigator = getelementptr inbounds %"class.xalanc_1_10::XercesEntityReferenceWrapper", %"class.xalanc_1_10::XercesEntityReferenceWrapper"* %this1, i32 0, i32 2, !dbg !2091
  %0 = load %"class.xalanc_1_10::XercesWrapperNavigator"*, %"class.xalanc_1_10::XercesWrapperNavigator"** %m_navigator, align 8, !dbg !2091
  %m_xercesNode = getelementptr inbounds %"class.xalanc_1_10::XercesEntityReferenceWrapper", %"class.xalanc_1_10::XercesEntityReferenceWrapper"* %this1, i32 0, i32 1, !dbg !2092
  %1 = load %"class.xercesc_2_7::DOMEntityReference"*, %"class.xercesc_2_7::DOMEntityReference"** %m_xercesNode, align 8, !dbg !2092
  %2 = bitcast %"class.xercesc_2_7::DOMEntityReference"* %1 to %"class.xercesc_2_7::DOMNode"*, !dbg !2092
  %call = call %"class.xalanc_1_10::XalanNode"* @_ZNK11xalanc_1_1022XercesWrapperNavigator13getParentNodeEPKN11xercesc_2_77DOMNodeE(%"class.xalanc_1_10::XercesWrapperNavigator"* %0, %"class.xercesc_2_7::DOMNode"* %2), !dbg !2093
  ret %"class.xalanc_1_10::XalanNode"* %call, !dbg !2094
}

declare dso_local %"class.xalanc_1_10::XalanNode"* @_ZNK11xalanc_1_1022XercesWrapperNavigator13getParentNodeEPKN11xercesc_2_77DOMNodeE(%"class.xalanc_1_10::XercesWrapperNavigator"*, %"class.xercesc_2_7::DOMNode"*) #4

; Function Attrs: noinline nounwind uwtable
define dso_local %"class.xalanc_1_10::XalanNodeList"* @_ZNK11xalanc_1_1028XercesEntityReferenceWrapper13getChildNodesEv(%"class.xalanc_1_10::XercesEntityReferenceWrapper"* %this) unnamed_addr #1 align 2 !dbg !2095 {
entry:
  %this.addr = alloca %"class.xalanc_1_10::XercesEntityReferenceWrapper"*, align 8
  store %"class.xalanc_1_10::XercesEntityReferenceWrapper"* %this, %"class.xalanc_1_10::XercesEntityReferenceWrapper"** %this.addr, align 8
  call void @llvm.dbg.declare(metadata %"class.xalanc_1_10::XercesEntityReferenceWrapper"** %this.addr, metadata !2096, metadata !DIExpression()), !dbg !2097
  %this1 = load %"class.xalanc_1_10::XercesEntityReferenceWrapper"*, %"class.xalanc_1_10::XercesEntityReferenceWrapper"** %this.addr, align 8
  %m_children = getelementptr inbounds %"class.xalanc_1_10::XercesEntityReferenceWrapper", %"class.xalanc_1_10::XercesEntityReferenceWrapper"* %this1, i32 0, i32 3, !dbg !2098
  %0 = bitcast %"class.xalanc_1_10::XercesNodeListWrapper"* %m_children to %"class.xalanc_1_10::XalanNodeList"*, !dbg !2099
  ret %"class.xalanc_1_10::XalanNodeList"* %0, !dbg !2100
}

; Function Attrs: noinline uwtable
define dso_local %"class.xalanc_1_10::XalanNode"* @_ZNK11xalanc_1_1028XercesEntityReferenceWrapper13getFirstChildEv(%"class.xalanc_1_10::XercesEntityReferenceWrapper"* %this) unnamed_addr #3 align 2 !dbg !2101 {
entry:
  %this.addr = alloca %"class.xalanc_1_10::XercesEntityReferenceWrapper"*, align 8
  store %"class.xalanc_1_10::XercesEntityReferenceWrapper"* %this, %"class.xalanc_1_10::XercesEntityReferenceWrapper"** %this.addr, align 8
  call void @llvm.dbg.declare(metadata %"class.xalanc_1_10::XercesEntityReferenceWrapper"** %this.addr, metadata !2102, metadata !DIExpression()), !dbg !2103
  %this1 = load %"class.xalanc_1_10::XercesEntityReferenceWrapper"*, %"class.xalanc_1_10::XercesEntityReferenceWrapper"** %this.addr, align 8
  %m_navigator = getelementptr inbounds %"class.xalanc_1_10::XercesEntityReferenceWrapper", %"class.xalanc_1_10::XercesEntityReferenceWrapper"* %this1, i32 0, i32 2, !dbg !2104
  %0 = load %"class.xalanc_1_10::XercesWrapperNavigator"*, %"class.xalanc_1_10::XercesWrapperNavigator"** %m_navigator, align 8, !dbg !2104
  %m_xercesNode = getelementptr inbounds %"class.xalanc_1_10::XercesEntityReferenceWrapper", %"class.xalanc_1_10::XercesEntityReferenceWrapper"* %this1, i32 0, i32 1, !dbg !2105
  %1 = load %"class.xercesc_2_7::DOMEntityReference"*, %"class.xercesc_2_7::DOMEntityReference"** %m_xercesNode, align 8, !dbg !2105
  %2 = bitcast %"class.xercesc_2_7::DOMEntityReference"* %1 to %"class.xercesc_2_7::DOMNode"*, !dbg !2105
  %call = call %"class.xalanc_1_10::XalanNode"* @_ZNK11xalanc_1_1022XercesWrapperNavigator13getFirstChildEPKN11xercesc_2_77DOMNodeE(%"class.xalanc_1_10::XercesWrapperNavigator"* %0, %"class.xercesc_2_7::DOMNode"* %2), !dbg !2106
  ret %"class.xalanc_1_10::XalanNode"* %call, !dbg !2107
}

declare dso_local %"class.xalanc_1_10::XalanNode"* @_ZNK11xalanc_1_1022XercesWrapperNavigator13getFirstChildEPKN11xercesc_2_77DOMNodeE(%"class.xalanc_1_10::XercesWrapperNavigator"*, %"class.xercesc_2_7::DOMNode"*) #4

; Function Attrs: noinline uwtable
define dso_local %"class.xalanc_1_10::XalanNode"* @_ZNK11xalanc_1_1028XercesEntityReferenceWrapper12getLastChildEv(%"class.xalanc_1_10::XercesEntityReferenceWrapper"* %this) unnamed_addr #3 align 2 !dbg !2108 {
entry:
  %this.addr = alloca %"class.xalanc_1_10::XercesEntityReferenceWrapper"*, align 8
  store %"class.xalanc_1_10::XercesEntityReferenceWrapper"* %this, %"class.xalanc_1_10::XercesEntityReferenceWrapper"** %this.addr, align 8
  call void @llvm.dbg.declare(metadata %"class.xalanc_1_10::XercesEntityReferenceWrapper"** %this.addr, metadata !2109, metadata !DIExpression()), !dbg !2110
  %this1 = load %"class.xalanc_1_10::XercesEntityReferenceWrapper"*, %"class.xalanc_1_10::XercesEntityReferenceWrapper"** %this.addr, align 8
  %m_navigator = getelementptr inbounds %"class.xalanc_1_10::XercesEntityReferenceWrapper", %"class.xalanc_1_10::XercesEntityReferenceWrapper"* %this1, i32 0, i32 2, !dbg !2111
  %0 = load %"class.xalanc_1_10::XercesWrapperNavigator"*, %"class.xalanc_1_10::XercesWrapperNavigator"** %m_navigator, align 8, !dbg !2111
  %m_xercesNode = getelementptr inbounds %"class.xalanc_1_10::XercesEntityReferenceWrapper", %"class.xalanc_1_10::XercesEntityReferenceWrapper"* %this1, i32 0, i32 1, !dbg !2112
  %1 = load %"class.xercesc_2_7::DOMEntityReference"*, %"class.xercesc_2_7::DOMEntityReference"** %m_xercesNode, align 8, !dbg !2112
  %2 = bitcast %"class.xercesc_2_7::DOMEntityReference"* %1 to %"class.xercesc_2_7::DOMNode"*, !dbg !2112
  %call = call %"class.xalanc_1_10::XalanNode"* @_ZNK11xalanc_1_1022XercesWrapperNavigator12getLastChildEPKN11xercesc_2_77DOMNodeE(%"class.xalanc_1_10::XercesWrapperNavigator"* %0, %"class.xercesc_2_7::DOMNode"* %2), !dbg !2113
  ret %"class.xalanc_1_10::XalanNode"* %call, !dbg !2114
}

declare dso_local %"class.xalanc_1_10::XalanNode"* @_ZNK11xalanc_1_1022XercesWrapperNavigator12getLastChildEPKN11xercesc_2_77DOMNodeE(%"class.xalanc_1_10::XercesWrapperNavigator"*, %"class.xercesc_2_7::DOMNode"*) #4

; Function Attrs: noinline uwtable
define dso_local %"class.xalanc_1_10::XalanNode"* @_ZNK11xalanc_1_1028XercesEntityReferenceWrapper18getPreviousSiblingEv(%"class.xalanc_1_10::XercesEntityReferenceWrapper"* %this) unnamed_addr #3 align 2 !dbg !2115 {
entry:
  %this.addr = alloca %"class.xalanc_1_10::XercesEntityReferenceWrapper"*, align 8
  store %"class.xalanc_1_10::XercesEntityReferenceWrapper"* %this, %"class.xalanc_1_10::XercesEntityReferenceWrapper"** %this.addr, align 8
  call void @llvm.dbg.declare(metadata %"class.xalanc_1_10::XercesEntityReferenceWrapper"** %this.addr, metadata !2116, metadata !DIExpression()), !dbg !2117
  %this1 = load %"class.xalanc_1_10::XercesEntityReferenceWrapper"*, %"class.xalanc_1_10::XercesEntityReferenceWrapper"** %this.addr, align 8
  %m_navigator = getelementptr inbounds %"class.xalanc_1_10::XercesEntityReferenceWrapper", %"class.xalanc_1_10::XercesEntityReferenceWrapper"* %this1, i32 0, i32 2, !dbg !2118
  %0 = load %"class.xalanc_1_10::XercesWrapperNavigator"*, %"class.xalanc_1_10::XercesWrapperNavigator"** %m_navigator, align 8, !dbg !2118
  %m_xercesNode = getelementptr inbounds %"class.xalanc_1_10::XercesEntityReferenceWrapper", %"class.xalanc_1_10::XercesEntityReferenceWrapper"* %this1, i32 0, i32 1, !dbg !2119
  %1 = load %"class.xercesc_2_7::DOMEntityReference"*, %"class.xercesc_2_7::DOMEntityReference"** %m_xercesNode, align 8, !dbg !2119
  %2 = bitcast %"class.xercesc_2_7::DOMEntityReference"* %1 to %"class.xercesc_2_7::DOMNode"*, !dbg !2119
  %call = call %"class.xalanc_1_10::XalanNode"* @_ZNK11xalanc_1_1022XercesWrapperNavigator18getPreviousSiblingEPKN11xercesc_2_77DOMNodeE(%"class.xalanc_1_10::XercesWrapperNavigator"* %0, %"class.xercesc_2_7::DOMNode"* %2), !dbg !2120
  ret %"class.xalanc_1_10::XalanNode"* %call, !dbg !2121
}

declare dso_local %"class.xalanc_1_10::XalanNode"* @_ZNK11xalanc_1_1022XercesWrapperNavigator18getPreviousSiblingEPKN11xercesc_2_77DOMNodeE(%"class.xalanc_1_10::XercesWrapperNavigator"*, %"class.xercesc_2_7::DOMNode"*) #4

; Function Attrs: noinline uwtable
define dso_local %"class.xalanc_1_10::XalanNode"* @_ZNK11xalanc_1_1028XercesEntityReferenceWrapper14getNextSiblingEv(%"class.xalanc_1_10::XercesEntityReferenceWrapper"* %this) unnamed_addr #3 align 2 !dbg !2122 {
entry:
  %this.addr = alloca %"class.xalanc_1_10::XercesEntityReferenceWrapper"*, align 8
  store %"class.xalanc_1_10::XercesEntityReferenceWrapper"* %this, %"class.xalanc_1_10::XercesEntityReferenceWrapper"** %this.addr, align 8
  call void @llvm.dbg.declare(metadata %"class.xalanc_1_10::XercesEntityReferenceWrapper"** %this.addr, metadata !2123, metadata !DIExpression()), !dbg !2124
  %this1 = load %"class.xalanc_1_10::XercesEntityReferenceWrapper"*, %"class.xalanc_1_10::XercesEntityReferenceWrapper"** %this.addr, align 8
  %m_navigator = getelementptr inbounds %"class.xalanc_1_10::XercesEntityReferenceWrapper", %"class.xalanc_1_10::XercesEntityReferenceWrapper"* %this1, i32 0, i32 2, !dbg !2125
  %0 = load %"class.xalanc_1_10::XercesWrapperNavigator"*, %"class.xalanc_1_10::XercesWrapperNavigator"** %m_navigator, align 8, !dbg !2125
  %m_xercesNode = getelementptr inbounds %"class.xalanc_1_10::XercesEntityReferenceWrapper", %"class.xalanc_1_10::XercesEntityReferenceWrapper"* %this1, i32 0, i32 1, !dbg !2126
  %1 = load %"class.xercesc_2_7::DOMEntityReference"*, %"class.xercesc_2_7::DOMEntityReference"** %m_xercesNode, align 8, !dbg !2126
  %2 = bitcast %"class.xercesc_2_7::DOMEntityReference"* %1 to %"class.xercesc_2_7::DOMNode"*, !dbg !2126
  %call = call %"class.xalanc_1_10::XalanNode"* @_ZNK11xalanc_1_1022XercesWrapperNavigator14getNextSiblingEPKN11xercesc_2_77DOMNodeE(%"class.xalanc_1_10::XercesWrapperNavigator"* %0, %"class.xercesc_2_7::DOMNode"* %2), !dbg !2127
  ret %"class.xalanc_1_10::XalanNode"* %call, !dbg !2128
}

declare dso_local %"class.xalanc_1_10::XalanNode"* @_ZNK11xalanc_1_1022XercesWrapperNavigator14getNextSiblingEPKN11xercesc_2_77DOMNodeE(%"class.xalanc_1_10::XercesWrapperNavigator"*, %"class.xercesc_2_7::DOMNode"*) #4

; Function Attrs: noinline nounwind uwtable
define dso_local %"class.xalanc_1_10::XalanNamedNodeMap"* @_ZNK11xalanc_1_1028XercesEntityReferenceWrapper13getAttributesEv(%"class.xalanc_1_10::XercesEntityReferenceWrapper"* %this) unnamed_addr #1 align 2 !dbg !2129 {
entry:
  %this.addr = alloca %"class.xalanc_1_10::XercesEntityReferenceWrapper"*, align 8
  store %"class.xalanc_1_10::XercesEntityReferenceWrapper"* %this, %"class.xalanc_1_10::XercesEntityReferenceWrapper"** %this.addr, align 8
  call void @llvm.dbg.declare(metadata %"class.xalanc_1_10::XercesEntityReferenceWrapper"** %this.addr, metadata !2130, metadata !DIExpression()), !dbg !2131
  %this1 = load %"class.xalanc_1_10::XercesEntityReferenceWrapper"*, %"class.xalanc_1_10::XercesEntityReferenceWrapper"** %this.addr, align 8
  ret %"class.xalanc_1_10::XalanNamedNodeMap"* null, !dbg !2132
}

; Function Attrs: noinline uwtable
define dso_local %"class.xalanc_1_10::XalanDocument"* @_ZNK11xalanc_1_1028XercesEntityReferenceWrapper16getOwnerDocumentEv(%"class.xalanc_1_10::XercesEntityReferenceWrapper"* %this) unnamed_addr #3 align 2 !dbg !2133 {
entry:
  %this.addr = alloca %"class.xalanc_1_10::XercesEntityReferenceWrapper"*, align 8
  store %"class.xalanc_1_10::XercesEntityReferenceWrapper"* %this, %"class.xalanc_1_10::XercesEntityReferenceWrapper"** %this.addr, align 8
  call void @llvm.dbg.declare(metadata %"class.xalanc_1_10::XercesEntityReferenceWrapper"** %this.addr, metadata !2134, metadata !DIExpression()), !dbg !2135
  %this1 = load %"class.xalanc_1_10::XercesEntityReferenceWrapper"*, %"class.xalanc_1_10::XercesEntityReferenceWrapper"** %this.addr, align 8
  %m_navigator = getelementptr inbounds %"class.xalanc_1_10::XercesEntityReferenceWrapper", %"class.xalanc_1_10::XercesEntityReferenceWrapper"* %this1, i32 0, i32 2, !dbg !2136
  %0 = load %"class.xalanc_1_10::XercesWrapperNavigator"*, %"class.xalanc_1_10::XercesWrapperNavigator"** %m_navigator, align 8, !dbg !2136
  %call = call %"class.xalanc_1_10::XercesDocumentWrapper"* @_ZNK11xalanc_1_1022XercesWrapperNavigator16getOwnerDocumentEv(%"class.xalanc_1_10::XercesWrapperNavigator"* %0), !dbg !2137
  %1 = bitcast %"class.xalanc_1_10::XercesDocumentWrapper"* %call to %"class.xalanc_1_10::XalanDocument"*, !dbg !2136
  ret %"class.xalanc_1_10::XalanDocument"* %1, !dbg !2138
}

; Function Attrs: noinline nounwind uwtable
define linkonce_odr dso_local %"class.xalanc_1_10::XercesDocumentWrapper"* @_ZNK11xalanc_1_1022XercesWrapperNavigator16getOwnerDocumentEv(%"class.xalanc_1_10::XercesWrapperNavigator"* %this) #1 comdat align 2 !dbg !2139 {
entry:
  %this.addr = alloca %"class.xalanc_1_10::XercesWrapperNavigator"*, align 8
  store %"class.xalanc_1_10::XercesWrapperNavigator"* %this, %"class.xalanc_1_10::XercesWrapperNavigator"** %this.addr, align 8
  call void @llvm.dbg.declare(metadata %"class.xalanc_1_10::XercesWrapperNavigator"** %this.addr, metadata !2147, metadata !DIExpression()), !dbg !2149
  %this1 = load %"class.xalanc_1_10::XercesWrapperNavigator"*, %"class.xalanc_1_10::XercesWrapperNavigator"** %this.addr, align 8
  %m_ownerDocument = getelementptr inbounds %"class.xalanc_1_10::XercesWrapperNavigator", %"class.xalanc_1_10::XercesWrapperNavigator"* %this1, i32 0, i32 1, !dbg !2150
  %0 = load %"class.xalanc_1_10::XercesDocumentWrapper"*, %"class.xalanc_1_10::XercesDocumentWrapper"** %m_ownerDocument, align 8, !dbg !2150
  ret %"class.xalanc_1_10::XercesDocumentWrapper"* %0, !dbg !2151
}

; Function Attrs: noinline uwtable
define dso_local %"class.xalanc_1_10::XercesEntityReferenceWrapper"* @_ZNK11xalanc_1_1028XercesEntityReferenceWrapper9cloneNodeEb(%"class.xalanc_1_10::XercesEntityReferenceWrapper"* %this, i1 zeroext %0) unnamed_addr #3 align 2 personality i8* bitcast (i32 (...)* @__gxx_personality_v0 to i8*) !dbg !2152 {
entry:
  %this.addr = alloca %"class.xalanc_1_10::XercesEntityReferenceWrapper"*, align 8
  %.addr = alloca i8, align 1
  %exn.slot = alloca i8*
  %ehselector.slot = alloca i32
  store %"class.xalanc_1_10::XercesEntityReferenceWrapper"* %this, %"class.xalanc_1_10::XercesEntityReferenceWrapper"** %this.addr, align 8
  call void @llvm.dbg.declare(metadata %"class.xalanc_1_10::XercesEntityReferenceWrapper"** %this.addr, metadata !2153, metadata !DIExpression()), !dbg !2154
  %frombool = zext i1 %0 to i8
  store i8 %frombool, i8* %.addr, align 1
  call void @llvm.dbg.declare(metadata i8* %.addr, metadata !2155, metadata !DIExpression()), !dbg !2156
  %this1 = load %"class.xalanc_1_10::XercesEntityReferenceWrapper"*, %"class.xalanc_1_10::XercesEntityReferenceWrapper"** %this.addr, align 8
  %exception = call i8* @__cxa_allocate_exception(i64 16) #8, !dbg !2157
  %1 = bitcast i8* %exception to %"class.xalanc_1_10::XercesDOMWrapperException"*, !dbg !2157
  invoke void @_ZN11xalanc_1_1025XercesDOMWrapperExceptionC1ENS_17XalanDOMException13ExceptionCodeE(%"class.xalanc_1_10::XercesDOMWrapperException"* %1, i32 9)
          to label %invoke.cont unwind label %lpad, !dbg !2158

invoke.cont:                                      ; preds = %entry
  call void @__cxa_throw(i8* %exception, i8* bitcast (i8** @_ZTIN11xalanc_1_1025XercesDOMWrapperExceptionE to i8*), i8* bitcast (void (%"class.xalanc_1_10::XercesDOMWrapperException"*)* @_ZN11xalanc_1_1025XercesDOMWrapperExceptionD1Ev to i8*)) #11, !dbg !2157
  unreachable, !dbg !2157

lpad:                                             ; preds = %entry
  %2 = landingpad { i8*, i32 }
          cleanup, !dbg !2159
  %3 = extractvalue { i8*, i32 } %2, 0, !dbg !2159
  store i8* %3, i8** %exn.slot, align 8, !dbg !2159
  %4 = extractvalue { i8*, i32 } %2, 1, !dbg !2159
  store i32 %4, i32* %ehselector.slot, align 4, !dbg !2159
  call void @__cxa_free_exception(i8* %exception) #8, !dbg !2157
  br label %eh.resume, !dbg !2157

eh.resume:                                        ; preds = %lpad
  %exn = load i8*, i8** %exn.slot, align 8, !dbg !2157
  %sel = load i32, i32* %ehselector.slot, align 4, !dbg !2157
  %lpad.val = insertvalue { i8*, i32 } undef, i8* %exn, 0, !dbg !2157
  %lpad.val2 = insertvalue { i8*, i32 } %lpad.val, i32 %sel, 1, !dbg !2157
  resume { i8*, i32 } %lpad.val2, !dbg !2157
}

declare dso_local i8* @__cxa_allocate_exception(i64)

declare dso_local void @_ZN11xalanc_1_1025XercesDOMWrapperExceptionC1ENS_17XalanDOMException13ExceptionCodeE(%"class.xalanc_1_10::XercesDOMWrapperException"*, i32) unnamed_addr #4

declare dso_local void @__cxa_free_exception(i8*)

; Function Attrs: nounwind
declare dso_local void @_ZN11xalanc_1_1025XercesDOMWrapperExceptionD1Ev(%"class.xalanc_1_10::XercesDOMWrapperException"*) unnamed_addr #5

declare dso_local void @__cxa_throw(i8*, i8*, i8*)

; Function Attrs: noinline uwtable
define dso_local %"class.xalanc_1_10::XalanNode"* @_ZN11xalanc_1_1028XercesEntityReferenceWrapper12insertBeforeEPNS_9XalanNodeES2_(%"class.xalanc_1_10::XercesEntityReferenceWrapper"* %this, %"class.xalanc_1_10::XalanNode"* %0, %"class.xalanc_1_10::XalanNode"* %1) unnamed_addr #3 align 2 personality i8* bitcast (i32 (...)* @__gxx_personality_v0 to i8*) !dbg !2160 {
entry:
  %this.addr = alloca %"class.xalanc_1_10::XercesEntityReferenceWrapper"*, align 8
  %.addr = alloca %"class.xalanc_1_10::XalanNode"*, align 8
  %.addr1 = alloca %"class.xalanc_1_10::XalanNode"*, align 8
  %exn.slot = alloca i8*
  %ehselector.slot = alloca i32
  store %"class.xalanc_1_10::XercesEntityReferenceWrapper"* %this, %"class.xalanc_1_10::XercesEntityReferenceWrapper"** %this.addr, align 8
  call void @llvm.dbg.declare(metadata %"class.xalanc_1_10::XercesEntityReferenceWrapper"** %this.addr, metadata !2161, metadata !DIExpression()), !dbg !2162
  store %"class.xalanc_1_10::XalanNode"* %0, %"class.xalanc_1_10::XalanNode"** %.addr, align 8
  call void @llvm.dbg.declare(metadata %"class.xalanc_1_10::XalanNode"** %.addr, metadata !2163, metadata !DIExpression()), !dbg !2164
  store %"class.xalanc_1_10::XalanNode"* %1, %"class.xalanc_1_10::XalanNode"** %.addr1, align 8
  call void @llvm.dbg.declare(metadata %"class.xalanc_1_10::XalanNode"** %.addr1, metadata !2165, metadata !DIExpression()), !dbg !2166
  %this2 = load %"class.xalanc_1_10::XercesEntityReferenceWrapper"*, %"class.xalanc_1_10::XercesEntityReferenceWrapper"** %this.addr, align 8
  %exception = call i8* @__cxa_allocate_exception(i64 16) #8, !dbg !2167
  %2 = bitcast i8* %exception to %"class.xalanc_1_10::XercesDOMWrapperException"*, !dbg !2167
  invoke void @_ZN11xalanc_1_1025XercesDOMWrapperExceptionC1ENS_17XalanDOMException13ExceptionCodeE(%"class.xalanc_1_10::XercesDOMWrapperException"* %2, i32 3)
          to label %invoke.cont unwind label %lpad, !dbg !2168

invoke.cont:                                      ; preds = %entry
  call void @__cxa_throw(i8* %exception, i8* bitcast (i8** @_ZTIN11xalanc_1_1025XercesDOMWrapperExceptionE to i8*), i8* bitcast (void (%"class.xalanc_1_10::XercesDOMWrapperException"*)* @_ZN11xalanc_1_1025XercesDOMWrapperExceptionD1Ev to i8*)) #11, !dbg !2167
  unreachable, !dbg !2167

lpad:                                             ; preds = %entry
  %3 = landingpad { i8*, i32 }
          cleanup, !dbg !2169
  %4 = extractvalue { i8*, i32 } %3, 0, !dbg !2169
  store i8* %4, i8** %exn.slot, align 8, !dbg !2169
  %5 = extractvalue { i8*, i32 } %3, 1, !dbg !2169
  store i32 %5, i32* %ehselector.slot, align 4, !dbg !2169
  call void @__cxa_free_exception(i8* %exception) #8, !dbg !2167
  br label %eh.resume, !dbg !2167

eh.resume:                                        ; preds = %lpad
  %exn = load i8*, i8** %exn.slot, align 8, !dbg !2167
  %sel = load i32, i32* %ehselector.slot, align 4, !dbg !2167
  %lpad.val = insertvalue { i8*, i32 } undef, i8* %exn, 0, !dbg !2167
  %lpad.val3 = insertvalue { i8*, i32 } %lpad.val, i32 %sel, 1, !dbg !2167
  resume { i8*, i32 } %lpad.val3, !dbg !2167
}

; Function Attrs: noinline uwtable
define dso_local %"class.xalanc_1_10::XalanNode"* @_ZN11xalanc_1_1028XercesEntityReferenceWrapper12replaceChildEPNS_9XalanNodeES2_(%"class.xalanc_1_10::XercesEntityReferenceWrapper"* %this, %"class.xalanc_1_10::XalanNode"* %0, %"class.xalanc_1_10::XalanNode"* %1) unnamed_addr #3 align 2 personality i8* bitcast (i32 (...)* @__gxx_personality_v0 to i8*) !dbg !2170 {
entry:
  %this.addr = alloca %"class.xalanc_1_10::XercesEntityReferenceWrapper"*, align 8
  %.addr = alloca %"class.xalanc_1_10::XalanNode"*, align 8
  %.addr1 = alloca %"class.xalanc_1_10::XalanNode"*, align 8
  %exn.slot = alloca i8*
  %ehselector.slot = alloca i32
  store %"class.xalanc_1_10::XercesEntityReferenceWrapper"* %this, %"class.xalanc_1_10::XercesEntityReferenceWrapper"** %this.addr, align 8
  call void @llvm.dbg.declare(metadata %"class.xalanc_1_10::XercesEntityReferenceWrapper"** %this.addr, metadata !2171, metadata !DIExpression()), !dbg !2172
  store %"class.xalanc_1_10::XalanNode"* %0, %"class.xalanc_1_10::XalanNode"** %.addr, align 8
  call void @llvm.dbg.declare(metadata %"class.xalanc_1_10::XalanNode"** %.addr, metadata !2173, metadata !DIExpression()), !dbg !2174
  store %"class.xalanc_1_10::XalanNode"* %1, %"class.xalanc_1_10::XalanNode"** %.addr1, align 8
  call void @llvm.dbg.declare(metadata %"class.xalanc_1_10::XalanNode"** %.addr1, metadata !2175, metadata !DIExpression()), !dbg !2176
  %this2 = load %"class.xalanc_1_10::XercesEntityReferenceWrapper"*, %"class.xalanc_1_10::XercesEntityReferenceWrapper"** %this.addr, align 8
  %exception = call i8* @__cxa_allocate_exception(i64 16) #8, !dbg !2177
  %2 = bitcast i8* %exception to %"class.xalanc_1_10::XercesDOMWrapperException"*, !dbg !2177
  invoke void @_ZN11xalanc_1_1025XercesDOMWrapperExceptionC1ENS_17XalanDOMException13ExceptionCodeE(%"class.xalanc_1_10::XercesDOMWrapperException"* %2, i32 3)
          to label %invoke.cont unwind label %lpad, !dbg !2178

invoke.cont:                                      ; preds = %entry
  call void @__cxa_throw(i8* %exception, i8* bitcast (i8** @_ZTIN11xalanc_1_1025XercesDOMWrapperExceptionE to i8*), i8* bitcast (void (%"class.xalanc_1_10::XercesDOMWrapperException"*)* @_ZN11xalanc_1_1025XercesDOMWrapperExceptionD1Ev to i8*)) #11, !dbg !2177
  unreachable, !dbg !2177

lpad:                                             ; preds = %entry
  %3 = landingpad { i8*, i32 }
          cleanup, !dbg !2179
  %4 = extractvalue { i8*, i32 } %3, 0, !dbg !2179
  store i8* %4, i8** %exn.slot, align 8, !dbg !2179
  %5 = extractvalue { i8*, i32 } %3, 1, !dbg !2179
  store i32 %5, i32* %ehselector.slot, align 4, !dbg !2179
  call void @__cxa_free_exception(i8* %exception) #8, !dbg !2177
  br label %eh.resume, !dbg !2177

eh.resume:                                        ; preds = %lpad
  %exn = load i8*, i8** %exn.slot, align 8, !dbg !2177
  %sel = load i32, i32* %ehselector.slot, align 4, !dbg !2177
  %lpad.val = insertvalue { i8*, i32 } undef, i8* %exn, 0, !dbg !2177
  %lpad.val3 = insertvalue { i8*, i32 } %lpad.val, i32 %sel, 1, !dbg !2177
  resume { i8*, i32 } %lpad.val3, !dbg !2177
}

; Function Attrs: noinline uwtable
define dso_local %"class.xalanc_1_10::XalanNode"* @_ZN11xalanc_1_1028XercesEntityReferenceWrapper11removeChildEPNS_9XalanNodeE(%"class.xalanc_1_10::XercesEntityReferenceWrapper"* %this, %"class.xalanc_1_10::XalanNode"* %0) unnamed_addr #3 align 2 personality i8* bitcast (i32 (...)* @__gxx_personality_v0 to i8*) !dbg !2180 {
entry:
  %this.addr = alloca %"class.xalanc_1_10::XercesEntityReferenceWrapper"*, align 8
  %.addr = alloca %"class.xalanc_1_10::XalanNode"*, align 8
  %exn.slot = alloca i8*
  %ehselector.slot = alloca i32
  store %"class.xalanc_1_10::XercesEntityReferenceWrapper"* %this, %"class.xalanc_1_10::XercesEntityReferenceWrapper"** %this.addr, align 8
  call void @llvm.dbg.declare(metadata %"class.xalanc_1_10::XercesEntityReferenceWrapper"** %this.addr, metadata !2181, metadata !DIExpression()), !dbg !2182
  store %"class.xalanc_1_10::XalanNode"* %0, %"class.xalanc_1_10::XalanNode"** %.addr, align 8
  call void @llvm.dbg.declare(metadata %"class.xalanc_1_10::XalanNode"** %.addr, metadata !2183, metadata !DIExpression()), !dbg !2184
  %this1 = load %"class.xalanc_1_10::XercesEntityReferenceWrapper"*, %"class.xalanc_1_10::XercesEntityReferenceWrapper"** %this.addr, align 8
  %exception = call i8* @__cxa_allocate_exception(i64 16) #8, !dbg !2185
  %1 = bitcast i8* %exception to %"class.xalanc_1_10::XercesDOMWrapperException"*, !dbg !2185
  invoke void @_ZN11xalanc_1_1025XercesDOMWrapperExceptionC1ENS_17XalanDOMException13ExceptionCodeE(%"class.xalanc_1_10::XercesDOMWrapperException"* %1, i32 3)
          to label %invoke.cont unwind label %lpad, !dbg !2186

invoke.cont:                                      ; preds = %entry
  call void @__cxa_throw(i8* %exception, i8* bitcast (i8** @_ZTIN11xalanc_1_1025XercesDOMWrapperExceptionE to i8*), i8* bitcast (void (%"class.xalanc_1_10::XercesDOMWrapperException"*)* @_ZN11xalanc_1_1025XercesDOMWrapperExceptionD1Ev to i8*)) #11, !dbg !2185
  unreachable, !dbg !2185

lpad:                                             ; preds = %entry
  %2 = landingpad { i8*, i32 }
          cleanup, !dbg !2187
  %3 = extractvalue { i8*, i32 } %2, 0, !dbg !2187
  store i8* %3, i8** %exn.slot, align 8, !dbg !2187
  %4 = extractvalue { i8*, i32 } %2, 1, !dbg !2187
  store i32 %4, i32* %ehselector.slot, align 4, !dbg !2187
  call void @__cxa_free_exception(i8* %exception) #8, !dbg !2185
  br label %eh.resume, !dbg !2185

eh.resume:                                        ; preds = %lpad
  %exn = load i8*, i8** %exn.slot, align 8, !dbg !2185
  %sel = load i32, i32* %ehselector.slot, align 4, !dbg !2185
  %lpad.val = insertvalue { i8*, i32 } undef, i8* %exn, 0, !dbg !2185
  %lpad.val2 = insertvalue { i8*, i32 } %lpad.val, i32 %sel, 1, !dbg !2185
  resume { i8*, i32 } %lpad.val2, !dbg !2185
}

; Function Attrs: noinline uwtable
define dso_local %"class.xalanc_1_10::XalanNode"* @_ZN11xalanc_1_1028XercesEntityReferenceWrapper11appendChildEPNS_9XalanNodeE(%"class.xalanc_1_10::XercesEntityReferenceWrapper"* %this, %"class.xalanc_1_10::XalanNode"* %0) unnamed_addr #3 align 2 personality i8* bitcast (i32 (...)* @__gxx_personality_v0 to i8*) !dbg !2188 {
entry:
  %this.addr = alloca %"class.xalanc_1_10::XercesEntityReferenceWrapper"*, align 8
  %.addr = alloca %"class.xalanc_1_10::XalanNode"*, align 8
  %exn.slot = alloca i8*
  %ehselector.slot = alloca i32
  store %"class.xalanc_1_10::XercesEntityReferenceWrapper"* %this, %"class.xalanc_1_10::XercesEntityReferenceWrapper"** %this.addr, align 8
  call void @llvm.dbg.declare(metadata %"class.xalanc_1_10::XercesEntityReferenceWrapper"** %this.addr, metadata !2189, metadata !DIExpression()), !dbg !2190
  store %"class.xalanc_1_10::XalanNode"* %0, %"class.xalanc_1_10::XalanNode"** %.addr, align 8
  call void @llvm.dbg.declare(metadata %"class.xalanc_1_10::XalanNode"** %.addr, metadata !2191, metadata !DIExpression()), !dbg !2192
  %this1 = load %"class.xalanc_1_10::XercesEntityReferenceWrapper"*, %"class.xalanc_1_10::XercesEntityReferenceWrapper"** %this.addr, align 8
  %exception = call i8* @__cxa_allocate_exception(i64 16) #8, !dbg !2193
  %1 = bitcast i8* %exception to %"class.xalanc_1_10::XercesDOMWrapperException"*, !dbg !2193
  invoke void @_ZN11xalanc_1_1025XercesDOMWrapperExceptionC1ENS_17XalanDOMException13ExceptionCodeE(%"class.xalanc_1_10::XercesDOMWrapperException"* %1, i32 3)
          to label %invoke.cont unwind label %lpad, !dbg !2194

invoke.cont:                                      ; preds = %entry
  call void @__cxa_throw(i8* %exception, i8* bitcast (i8** @_ZTIN11xalanc_1_1025XercesDOMWrapperExceptionE to i8*), i8* bitcast (void (%"class.xalanc_1_10::XercesDOMWrapperException"*)* @_ZN11xalanc_1_1025XercesDOMWrapperExceptionD1Ev to i8*)) #11, !dbg !2193
  unreachable, !dbg !2193

lpad:                                             ; preds = %entry
  %2 = landingpad { i8*, i32 }
          cleanup, !dbg !2195
  %3 = extractvalue { i8*, i32 } %2, 0, !dbg !2195
  store i8* %3, i8** %exn.slot, align 8, !dbg !2195
  %4 = extractvalue { i8*, i32 } %2, 1, !dbg !2195
  store i32 %4, i32* %ehselector.slot, align 4, !dbg !2195
  call void @__cxa_free_exception(i8* %exception) #8, !dbg !2193
  br label %eh.resume, !dbg !2193

eh.resume:                                        ; preds = %lpad
  %exn = load i8*, i8** %exn.slot, align 8, !dbg !2193
  %sel = load i32, i32* %ehselector.slot, align 4, !dbg !2193
  %lpad.val = insertvalue { i8*, i32 } undef, i8* %exn, 0, !dbg !2193
  %lpad.val2 = insertvalue { i8*, i32 } %lpad.val, i32 %sel, 1, !dbg !2193
  resume { i8*, i32 } %lpad.val2, !dbg !2193
}

; Function Attrs: noinline uwtable
define dso_local zeroext i1 @_ZNK11xalanc_1_1028XercesEntityReferenceWrapper13hasChildNodesEv(%"class.xalanc_1_10::XercesEntityReferenceWrapper"* %this) unnamed_addr #3 align 2 !dbg !2196 {
entry:
  %this.addr = alloca %"class.xalanc_1_10::XercesEntityReferenceWrapper"*, align 8
  store %"class.xalanc_1_10::XercesEntityReferenceWrapper"* %this, %"class.xalanc_1_10::XercesEntityReferenceWrapper"** %this.addr, align 8
  call void @llvm.dbg.declare(metadata %"class.xalanc_1_10::XercesEntityReferenceWrapper"** %this.addr, metadata !2197, metadata !DIExpression()), !dbg !2198
  %this1 = load %"class.xalanc_1_10::XercesEntityReferenceWrapper"*, %"class.xalanc_1_10::XercesEntityReferenceWrapper"** %this.addr, align 8
  %m_xercesNode = getelementptr inbounds %"class.xalanc_1_10::XercesEntityReferenceWrapper", %"class.xalanc_1_10::XercesEntityReferenceWrapper"* %this1, i32 0, i32 1, !dbg !2199
  %0 = load %"class.xercesc_2_7::DOMEntityReference"*, %"class.xercesc_2_7::DOMEntityReference"** %m_xercesNode, align 8, !dbg !2199
  %1 = bitcast %"class.xercesc_2_7::DOMEntityReference"* %0 to %"class.xercesc_2_7::DOMNode"*, !dbg !2200
  %2 = bitcast %"class.xercesc_2_7::DOMNode"* %1 to i1 (%"class.xercesc_2_7::DOMNode"*)***, !dbg !2200
  %vtable = load i1 (%"class.xercesc_2_7::DOMNode"*)**, i1 (%"class.xercesc_2_7::DOMNode"*)*** %2, align 8, !dbg !2200
  %vfn = getelementptr inbounds i1 (%"class.xercesc_2_7::DOMNode"*)*, i1 (%"class.xercesc_2_7::DOMNode"*)** %vtable, i64 18, !dbg !2200
  %3 = load i1 (%"class.xercesc_2_7::DOMNode"*)*, i1 (%"class.xercesc_2_7::DOMNode"*)** %vfn, align 8, !dbg !2200
  %call = call zeroext i1 %3(%"class.xercesc_2_7::DOMNode"* %1), !dbg !2200
  ret i1 %call, !dbg !2201
}

; Function Attrs: noinline uwtable
define dso_local void @_ZN11xalanc_1_1028XercesEntityReferenceWrapper12setNodeValueERKNS_14XalanDOMStringE(%"class.xalanc_1_10::XercesEntityReferenceWrapper"* %this, %"class.xalanc_1_10::XalanDOMString"* dereferenceable(40) %0) unnamed_addr #3 align 2 personality i8* bitcast (i32 (...)* @__gxx_personality_v0 to i8*) !dbg !2202 {
entry:
  %this.addr = alloca %"class.xalanc_1_10::XercesEntityReferenceWrapper"*, align 8
  %.addr = alloca %"class.xalanc_1_10::XalanDOMString"*, align 8
  %exn.slot = alloca i8*
  %ehselector.slot = alloca i32
  store %"class.xalanc_1_10::XercesEntityReferenceWrapper"* %this, %"class.xalanc_1_10::XercesEntityReferenceWrapper"** %this.addr, align 8
  call void @llvm.dbg.declare(metadata %"class.xalanc_1_10::XercesEntityReferenceWrapper"** %this.addr, metadata !2203, metadata !DIExpression()), !dbg !2204
  store %"class.xalanc_1_10::XalanDOMString"* %0, %"class.xalanc_1_10::XalanDOMString"** %.addr, align 8
  call void @llvm.dbg.declare(metadata %"class.xalanc_1_10::XalanDOMString"** %.addr, metadata !2205, metadata !DIExpression()), !dbg !2206
  %this1 = load %"class.xalanc_1_10::XercesEntityReferenceWrapper"*, %"class.xalanc_1_10::XercesEntityReferenceWrapper"** %this.addr, align 8
  %exception = call i8* @__cxa_allocate_exception(i64 16) #8, !dbg !2207
  %1 = bitcast i8* %exception to %"class.xalanc_1_10::XalanDOMException"*, !dbg !2207
  invoke void @_ZN11xalanc_1_1017XalanDOMExceptionC1ENS0_13ExceptionCodeE(%"class.xalanc_1_10::XalanDOMException"* %1, i32 7)
          to label %invoke.cont unwind label %lpad, !dbg !2208

invoke.cont:                                      ; preds = %entry
  call void @__cxa_throw(i8* %exception, i8* bitcast (i8** @_ZTIN11xalanc_1_1017XalanDOMExceptionE to i8*), i8* bitcast (void (%"class.xalanc_1_10::XalanDOMException"*)* @_ZN11xalanc_1_1017XalanDOMExceptionD1Ev to i8*)) #11, !dbg !2207
  unreachable, !dbg !2207

lpad:                                             ; preds = %entry
  %2 = landingpad { i8*, i32 }
          cleanup, !dbg !2209
  %3 = extractvalue { i8*, i32 } %2, 0, !dbg !2209
  store i8* %3, i8** %exn.slot, align 8, !dbg !2209
  %4 = extractvalue { i8*, i32 } %2, 1, !dbg !2209
  store i32 %4, i32* %ehselector.slot, align 4, !dbg !2209
  call void @__cxa_free_exception(i8* %exception) #8, !dbg !2207
  br label %eh.resume, !dbg !2207

eh.resume:                                        ; preds = %lpad
  %exn = load i8*, i8** %exn.slot, align 8, !dbg !2207
  %sel = load i32, i32* %ehselector.slot, align 4, !dbg !2207
  %lpad.val = insertvalue { i8*, i32 } undef, i8* %exn, 0, !dbg !2207
  %lpad.val2 = insertvalue { i8*, i32 } %lpad.val, i32 %sel, 1, !dbg !2207
  resume { i8*, i32 } %lpad.val2, !dbg !2207
}

declare dso_local void @_ZN11xalanc_1_1017XalanDOMExceptionC1ENS0_13ExceptionCodeE(%"class.xalanc_1_10::XalanDOMException"*, i32) unnamed_addr #4

; Function Attrs: nounwind
declare dso_local void @_ZN11xalanc_1_1017XalanDOMExceptionD1Ev(%"class.xalanc_1_10::XalanDOMException"*) unnamed_addr #5

; Function Attrs: noinline uwtable
define dso_local void @_ZN11xalanc_1_1028XercesEntityReferenceWrapper9normalizeEv(%"class.xalanc_1_10::XercesEntityReferenceWrapper"* %this) unnamed_addr #3 align 2 personality i8* bitcast (i32 (...)* @__gxx_personality_v0 to i8*) !dbg !2210 {
entry:
  %this.addr = alloca %"class.xalanc_1_10::XercesEntityReferenceWrapper"*, align 8
  %exn.slot = alloca i8*
  %ehselector.slot = alloca i32
  store %"class.xalanc_1_10::XercesEntityReferenceWrapper"* %this, %"class.xalanc_1_10::XercesEntityReferenceWrapper"** %this.addr, align 8
  call void @llvm.dbg.declare(metadata %"class.xalanc_1_10::XercesEntityReferenceWrapper"** %this.addr, metadata !2211, metadata !DIExpression()), !dbg !2212
  %this1 = load %"class.xalanc_1_10::XercesEntityReferenceWrapper"*, %"class.xalanc_1_10::XercesEntityReferenceWrapper"** %this.addr, align 8
  %exception = call i8* @__cxa_allocate_exception(i64 16) #8, !dbg !2213
  %0 = bitcast i8* %exception to %"class.xalanc_1_10::XalanDOMException"*, !dbg !2213
  invoke void @_ZN11xalanc_1_1017XalanDOMExceptionC1ENS0_13ExceptionCodeE(%"class.xalanc_1_10::XalanDOMException"* %0, i32 7)
          to label %invoke.cont unwind label %lpad, !dbg !2214

invoke.cont:                                      ; preds = %entry
  call void @__cxa_throw(i8* %exception, i8* bitcast (i8** @_ZTIN11xalanc_1_1017XalanDOMExceptionE to i8*), i8* bitcast (void (%"class.xalanc_1_10::XalanDOMException"*)* @_ZN11xalanc_1_1017XalanDOMExceptionD1Ev to i8*)) #11, !dbg !2213
  unreachable, !dbg !2213

lpad:                                             ; preds = %entry
  %1 = landingpad { i8*, i32 }
          cleanup, !dbg !2215
  %2 = extractvalue { i8*, i32 } %1, 0, !dbg !2215
  store i8* %2, i8** %exn.slot, align 8, !dbg !2215
  %3 = extractvalue { i8*, i32 } %1, 1, !dbg !2215
  store i32 %3, i32* %ehselector.slot, align 4, !dbg !2215
  call void @__cxa_free_exception(i8* %exception) #8, !dbg !2213
  br label %eh.resume, !dbg !2213

eh.resume:                                        ; preds = %lpad
  %exn = load i8*, i8** %exn.slot, align 8, !dbg !2213
  %sel = load i32, i32* %ehselector.slot, align 4, !dbg !2213
  %lpad.val = insertvalue { i8*, i32 } undef, i8* %exn, 0, !dbg !2213
  %lpad.val2 = insertvalue { i8*, i32 } %lpad.val, i32 %sel, 1, !dbg !2213
  resume { i8*, i32 } %lpad.val2, !dbg !2213
}

; Function Attrs: noinline uwtable
define dso_local zeroext i1 @_ZNK11xalanc_1_1028XercesEntityReferenceWrapper11isSupportedERKNS_14XalanDOMStringES3_(%"class.xalanc_1_10::XercesEntityReferenceWrapper"* %this, %"class.xalanc_1_10::XalanDOMString"* dereferenceable(40) %feature, %"class.xalanc_1_10::XalanDOMString"* dereferenceable(40) %version) unnamed_addr #3 align 2 !dbg !2216 {
entry:
  %this.addr = alloca %"class.xalanc_1_10::XercesEntityReferenceWrapper"*, align 8
  %feature.addr = alloca %"class.xalanc_1_10::XalanDOMString"*, align 8
  %version.addr = alloca %"class.xalanc_1_10::XalanDOMString"*, align 8
  store %"class.xalanc_1_10::XercesEntityReferenceWrapper"* %this, %"class.xalanc_1_10::XercesEntityReferenceWrapper"** %this.addr, align 8
  call void @llvm.dbg.declare(metadata %"class.xalanc_1_10::XercesEntityReferenceWrapper"** %this.addr, metadata !2217, metadata !DIExpression()), !dbg !2218
  store %"class.xalanc_1_10::XalanDOMString"* %feature, %"class.xalanc_1_10::XalanDOMString"** %feature.addr, align 8
  call void @llvm.dbg.declare(metadata %"class.xalanc_1_10::XalanDOMString"** %feature.addr, metadata !2219, metadata !DIExpression()), !dbg !2220
  store %"class.xalanc_1_10::XalanDOMString"* %version, %"class.xalanc_1_10::XalanDOMString"** %version.addr, align 8
  call void @llvm.dbg.declare(metadata %"class.xalanc_1_10::XalanDOMString"** %version.addr, metadata !2221, metadata !DIExpression()), !dbg !2222
  %this1 = load %"class.xalanc_1_10::XercesEntityReferenceWrapper"*, %"class.xalanc_1_10::XercesEntityReferenceWrapper"** %this.addr, align 8
  %m_xercesNode = getelementptr inbounds %"class.xalanc_1_10::XercesEntityReferenceWrapper", %"class.xalanc_1_10::XercesEntityReferenceWrapper"* %this1, i32 0, i32 1, !dbg !2223
  %0 = load %"class.xercesc_2_7::DOMEntityReference"*, %"class.xercesc_2_7::DOMEntityReference"** %m_xercesNode, align 8, !dbg !2223
  %1 = bitcast %"class.xercesc_2_7::DOMEntityReference"* %0 to %"class.xercesc_2_7::DOMNode"*, !dbg !2223
  %2 = load %"class.xalanc_1_10::XalanDOMString"*, %"class.xalanc_1_10::XalanDOMString"** %feature.addr, align 8, !dbg !2224
  %3 = load %"class.xalanc_1_10::XalanDOMString"*, %"class.xalanc_1_10::XalanDOMString"** %version.addr, align 8, !dbg !2225
  %call = call zeroext i1 @_ZN11xalanc_1_1019XercesWrapperHelper11isSupportedEPKN11xercesc_2_77DOMNodeERKNS_14XalanDOMStringES7_(%"class.xercesc_2_7::DOMNode"* %1, %"class.xalanc_1_10::XalanDOMString"* dereferenceable(40) %2, %"class.xalanc_1_10::XalanDOMString"* dereferenceable(40) %3), !dbg !2226
  ret i1 %call, !dbg !2227
}

declare dso_local zeroext i1 @_ZN11xalanc_1_1019XercesWrapperHelper11isSupportedEPKN11xercesc_2_77DOMNodeERKNS_14XalanDOMStringES7_(%"class.xercesc_2_7::DOMNode"*, %"class.xalanc_1_10::XalanDOMString"* dereferenceable(40), %"class.xalanc_1_10::XalanDOMString"* dereferenceable(40)) #4

; Function Attrs: noinline uwtable
define dso_local dereferenceable(40) %"class.xalanc_1_10::XalanDOMString"* @_ZNK11xalanc_1_1028XercesEntityReferenceWrapper15getNamespaceURIEv(%"class.xalanc_1_10::XercesEntityReferenceWrapper"* %this) unnamed_addr #3 align 2 !dbg !2228 {
entry:
  %this.addr = alloca %"class.xalanc_1_10::XercesEntityReferenceWrapper"*, align 8
  store %"class.xalanc_1_10::XercesEntityReferenceWrapper"* %this, %"class.xalanc_1_10::XercesEntityReferenceWrapper"** %this.addr, align 8
  call void @llvm.dbg.declare(metadata %"class.xalanc_1_10::XercesEntityReferenceWrapper"** %this.addr, metadata !2229, metadata !DIExpression()), !dbg !2230
  %this1 = load %"class.xalanc_1_10::XercesEntityReferenceWrapper"*, %"class.xalanc_1_10::XercesEntityReferenceWrapper"** %this.addr, align 8
  %m_navigator = getelementptr inbounds %"class.xalanc_1_10::XercesEntityReferenceWrapper", %"class.xalanc_1_10::XercesEntityReferenceWrapper"* %this1, i32 0, i32 2, !dbg !2231
  %0 = load %"class.xalanc_1_10::XercesWrapperNavigator"*, %"class.xalanc_1_10::XercesWrapperNavigator"** %m_navigator, align 8, !dbg !2231
  %m_xercesNode = getelementptr inbounds %"class.xalanc_1_10::XercesEntityReferenceWrapper", %"class.xalanc_1_10::XercesEntityReferenceWrapper"* %this1, i32 0, i32 1, !dbg !2232
  %1 = load %"class.xercesc_2_7::DOMEntityReference"*, %"class.xercesc_2_7::DOMEntityReference"** %m_xercesNode, align 8, !dbg !2232
  %2 = bitcast %"class.xercesc_2_7::DOMEntityReference"* %1 to %"class.xercesc_2_7::DOMNode"*, !dbg !2233
  %3 = bitcast %"class.xercesc_2_7::DOMNode"* %2 to i16* (%"class.xercesc_2_7::DOMNode"*)***, !dbg !2233
  %vtable = load i16* (%"class.xercesc_2_7::DOMNode"*)**, i16* (%"class.xercesc_2_7::DOMNode"*)*** %3, align 8, !dbg !2233
  %vfn = getelementptr inbounds i16* (%"class.xercesc_2_7::DOMNode"*)*, i16* (%"class.xercesc_2_7::DOMNode"*)** %vtable, i64 22, !dbg !2233
  %4 = load i16* (%"class.xercesc_2_7::DOMNode"*)*, i16* (%"class.xercesc_2_7::DOMNode"*)** %vfn, align 8, !dbg !2233
  %call = call i16* %4(%"class.xercesc_2_7::DOMNode"* %2), !dbg !2233
  %call2 = call dereferenceable(40) %"class.xalanc_1_10::XalanDOMString"* @_ZNK11xalanc_1_1022XercesWrapperNavigator15getPooledStringEPKt(%"class.xalanc_1_10::XercesWrapperNavigator"* %0, i16* %call), !dbg !2234
  ret %"class.xalanc_1_10::XalanDOMString"* %call2, !dbg !2235
}

; Function Attrs: noinline uwtable
define dso_local dereferenceable(40) %"class.xalanc_1_10::XalanDOMString"* @_ZNK11xalanc_1_1028XercesEntityReferenceWrapper9getPrefixEv(%"class.xalanc_1_10::XercesEntityReferenceWrapper"* %this) unnamed_addr #3 align 2 !dbg !2236 {
entry:
  %this.addr = alloca %"class.xalanc_1_10::XercesEntityReferenceWrapper"*, align 8
  store %"class.xalanc_1_10::XercesEntityReferenceWrapper"* %this, %"class.xalanc_1_10::XercesEntityReferenceWrapper"** %this.addr, align 8
  call void @llvm.dbg.declare(metadata %"class.xalanc_1_10::XercesEntityReferenceWrapper"** %this.addr, metadata !2237, metadata !DIExpression()), !dbg !2238
  %this1 = load %"class.xalanc_1_10::XercesEntityReferenceWrapper"*, %"class.xalanc_1_10::XercesEntityReferenceWrapper"** %this.addr, align 8
  %m_navigator = getelementptr inbounds %"class.xalanc_1_10::XercesEntityReferenceWrapper", %"class.xalanc_1_10::XercesEntityReferenceWrapper"* %this1, i32 0, i32 2, !dbg !2239
  %0 = load %"class.xalanc_1_10::XercesWrapperNavigator"*, %"class.xalanc_1_10::XercesWrapperNavigator"** %m_navigator, align 8, !dbg !2239
  %m_xercesNode = getelementptr inbounds %"class.xalanc_1_10::XercesEntityReferenceWrapper", %"class.xalanc_1_10::XercesEntityReferenceWrapper"* %this1, i32 0, i32 1, !dbg !2240
  %1 = load %"class.xercesc_2_7::DOMEntityReference"*, %"class.xercesc_2_7::DOMEntityReference"** %m_xercesNode, align 8, !dbg !2240
  %2 = bitcast %"class.xercesc_2_7::DOMEntityReference"* %1 to %"class.xercesc_2_7::DOMNode"*, !dbg !2241
  %3 = bitcast %"class.xercesc_2_7::DOMNode"* %2 to i16* (%"class.xercesc_2_7::DOMNode"*)***, !dbg !2241
  %vtable = load i16* (%"class.xercesc_2_7::DOMNode"*)**, i16* (%"class.xercesc_2_7::DOMNode"*)*** %3, align 8, !dbg !2241
  %vfn = getelementptr inbounds i16* (%"class.xercesc_2_7::DOMNode"*)*, i16* (%"class.xercesc_2_7::DOMNode"*)** %vtable, i64 23, !dbg !2241
  %4 = load i16* (%"class.xercesc_2_7::DOMNode"*)*, i16* (%"class.xercesc_2_7::DOMNode"*)** %vfn, align 8, !dbg !2241
  %call = call i16* %4(%"class.xercesc_2_7::DOMNode"* %2), !dbg !2241
  %call2 = call dereferenceable(40) %"class.xalanc_1_10::XalanDOMString"* @_ZNK11xalanc_1_1022XercesWrapperNavigator15getPooledStringEPKt(%"class.xalanc_1_10::XercesWrapperNavigator"* %0, i16* %call), !dbg !2242
  ret %"class.xalanc_1_10::XalanDOMString"* %call2, !dbg !2243
}

; Function Attrs: noinline uwtable
define dso_local dereferenceable(40) %"class.xalanc_1_10::XalanDOMString"* @_ZNK11xalanc_1_1028XercesEntityReferenceWrapper12getLocalNameEv(%"class.xalanc_1_10::XercesEntityReferenceWrapper"* %this) unnamed_addr #3 align 2 !dbg !2244 {
entry:
  %this.addr = alloca %"class.xalanc_1_10::XercesEntityReferenceWrapper"*, align 8
  store %"class.xalanc_1_10::XercesEntityReferenceWrapper"* %this, %"class.xalanc_1_10::XercesEntityReferenceWrapper"** %this.addr, align 8
  call void @llvm.dbg.declare(metadata %"class.xalanc_1_10::XercesEntityReferenceWrapper"** %this.addr, metadata !2245, metadata !DIExpression()), !dbg !2246
  %this1 = load %"class.xalanc_1_10::XercesEntityReferenceWrapper"*, %"class.xalanc_1_10::XercesEntityReferenceWrapper"** %this.addr, align 8
  %m_navigator = getelementptr inbounds %"class.xalanc_1_10::XercesEntityReferenceWrapper", %"class.xalanc_1_10::XercesEntityReferenceWrapper"* %this1, i32 0, i32 2, !dbg !2247
  %0 = load %"class.xalanc_1_10::XercesWrapperNavigator"*, %"class.xalanc_1_10::XercesWrapperNavigator"** %m_navigator, align 8, !dbg !2247
  %m_xercesNode = getelementptr inbounds %"class.xalanc_1_10::XercesEntityReferenceWrapper", %"class.xalanc_1_10::XercesEntityReferenceWrapper"* %this1, i32 0, i32 1, !dbg !2248
  %1 = load %"class.xercesc_2_7::DOMEntityReference"*, %"class.xercesc_2_7::DOMEntityReference"** %m_xercesNode, align 8, !dbg !2248
  %2 = bitcast %"class.xercesc_2_7::DOMEntityReference"* %1 to %"class.xercesc_2_7::DOMNode"*, !dbg !2249
  %3 = bitcast %"class.xercesc_2_7::DOMNode"* %2 to i16* (%"class.xercesc_2_7::DOMNode"*)***, !dbg !2249
  %vtable = load i16* (%"class.xercesc_2_7::DOMNode"*)**, i16* (%"class.xercesc_2_7::DOMNode"*)*** %3, align 8, !dbg !2249
  %vfn = getelementptr inbounds i16* (%"class.xercesc_2_7::DOMNode"*)*, i16* (%"class.xercesc_2_7::DOMNode"*)** %vtable, i64 24, !dbg !2249
  %4 = load i16* (%"class.xercesc_2_7::DOMNode"*)*, i16* (%"class.xercesc_2_7::DOMNode"*)** %vfn, align 8, !dbg !2249
  %call = call i16* %4(%"class.xercesc_2_7::DOMNode"* %2), !dbg !2249
  %call2 = call dereferenceable(40) %"class.xalanc_1_10::XalanDOMString"* @_ZNK11xalanc_1_1022XercesWrapperNavigator15getPooledStringEPKt(%"class.xalanc_1_10::XercesWrapperNavigator"* %0, i16* %call), !dbg !2250
  ret %"class.xalanc_1_10::XalanDOMString"* %call2, !dbg !2251
}

; Function Attrs: noinline uwtable
define dso_local void @_ZN11xalanc_1_1028XercesEntityReferenceWrapper9setPrefixERKNS_14XalanDOMStringE(%"class.xalanc_1_10::XercesEntityReferenceWrapper"* %this, %"class.xalanc_1_10::XalanDOMString"* dereferenceable(40) %0) unnamed_addr #3 align 2 personality i8* bitcast (i32 (...)* @__gxx_personality_v0 to i8*) !dbg !2252 {
entry:
  %this.addr = alloca %"class.xalanc_1_10::XercesEntityReferenceWrapper"*, align 8
  %.addr = alloca %"class.xalanc_1_10::XalanDOMString"*, align 8
  %exn.slot = alloca i8*
  %ehselector.slot = alloca i32
  store %"class.xalanc_1_10::XercesEntityReferenceWrapper"* %this, %"class.xalanc_1_10::XercesEntityReferenceWrapper"** %this.addr, align 8
  call void @llvm.dbg.declare(metadata %"class.xalanc_1_10::XercesEntityReferenceWrapper"** %this.addr, metadata !2253, metadata !DIExpression()), !dbg !2254
  store %"class.xalanc_1_10::XalanDOMString"* %0, %"class.xalanc_1_10::XalanDOMString"** %.addr, align 8
  call void @llvm.dbg.declare(metadata %"class.xalanc_1_10::XalanDOMString"** %.addr, metadata !2255, metadata !DIExpression()), !dbg !2256
  %this1 = load %"class.xalanc_1_10::XercesEntityReferenceWrapper"*, %"class.xalanc_1_10::XercesEntityReferenceWrapper"** %this.addr, align 8
  %exception = call i8* @__cxa_allocate_exception(i64 16) #8, !dbg !2257
  %1 = bitcast i8* %exception to %"class.xalanc_1_10::XalanDOMException"*, !dbg !2257
  invoke void @_ZN11xalanc_1_1017XalanDOMExceptionC1ENS0_13ExceptionCodeE(%"class.xalanc_1_10::XalanDOMException"* %1, i32 7)
          to label %invoke.cont unwind label %lpad, !dbg !2258

invoke.cont:                                      ; preds = %entry
  call void @__cxa_throw(i8* %exception, i8* bitcast (i8** @_ZTIN11xalanc_1_1017XalanDOMExceptionE to i8*), i8* bitcast (void (%"class.xalanc_1_10::XalanDOMException"*)* @_ZN11xalanc_1_1017XalanDOMExceptionD1Ev to i8*)) #11, !dbg !2257
  unreachable, !dbg !2257

lpad:                                             ; preds = %entry
  %2 = landingpad { i8*, i32 }
          cleanup, !dbg !2259
  %3 = extractvalue { i8*, i32 } %2, 0, !dbg !2259
  store i8* %3, i8** %exn.slot, align 8, !dbg !2259
  %4 = extractvalue { i8*, i32 } %2, 1, !dbg !2259
  store i32 %4, i32* %ehselector.slot, align 4, !dbg !2259
  call void @__cxa_free_exception(i8* %exception) #8, !dbg !2257
  br label %eh.resume, !dbg !2257

eh.resume:                                        ; preds = %lpad
  %exn = load i8*, i8** %exn.slot, align 8, !dbg !2257
  %sel = load i32, i32* %ehselector.slot, align 4, !dbg !2257
  %lpad.val = insertvalue { i8*, i32 } undef, i8* %exn, 0, !dbg !2257
  %lpad.val2 = insertvalue { i8*, i32 } %lpad.val, i32 %sel, 1, !dbg !2257
  resume { i8*, i32 } %lpad.val2, !dbg !2257
}

; Function Attrs: noinline uwtable
define dso_local zeroext i1 @_ZNK11xalanc_1_1028XercesEntityReferenceWrapper9isIndexedEv(%"class.xalanc_1_10::XercesEntityReferenceWrapper"* %this) unnamed_addr #3 align 2 !dbg !2260 {
entry:
  %this.addr = alloca %"class.xalanc_1_10::XercesEntityReferenceWrapper"*, align 8
  store %"class.xalanc_1_10::XercesEntityReferenceWrapper"* %this, %"class.xalanc_1_10::XercesEntityReferenceWrapper"** %this.addr, align 8
  call void @llvm.dbg.declare(metadata %"class.xalanc_1_10::XercesEntityReferenceWrapper"** %this.addr, metadata !2261, metadata !DIExpression()), !dbg !2262
  %this1 = load %"class.xalanc_1_10::XercesEntityReferenceWrapper"*, %"class.xalanc_1_10::XercesEntityReferenceWrapper"** %this.addr, align 8
  %m_navigator = getelementptr inbounds %"class.xalanc_1_10::XercesEntityReferenceWrapper", %"class.xalanc_1_10::XercesEntityReferenceWrapper"* %this1, i32 0, i32 2, !dbg !2263
  %0 = load %"class.xalanc_1_10::XercesWrapperNavigator"*, %"class.xalanc_1_10::XercesWrapperNavigator"** %m_navigator, align 8, !dbg !2263
  %call = call %"class.xalanc_1_10::XercesDocumentWrapper"* @_ZNK11xalanc_1_1022XercesWrapperNavigator16getOwnerDocumentEv(%"class.xalanc_1_10::XercesWrapperNavigator"* %0), !dbg !2264
  %1 = bitcast %"class.xalanc_1_10::XercesDocumentWrapper"* %call to i1 (%"class.xalanc_1_10::XercesDocumentWrapper"*)***, !dbg !2265
  %vtable = load i1 (%"class.xalanc_1_10::XercesDocumentWrapper"*)**, i1 (%"class.xalanc_1_10::XercesDocumentWrapper"*)*** %1, align 8, !dbg !2265
  %vfn = getelementptr inbounds i1 (%"class.xalanc_1_10::XercesDocumentWrapper"*)*, i1 (%"class.xalanc_1_10::XercesDocumentWrapper"*)** %vtable, i64 26, !dbg !2265
  %2 = load i1 (%"class.xalanc_1_10::XercesDocumentWrapper"*)*, i1 (%"class.xalanc_1_10::XercesDocumentWrapper"*)** %vfn, align 8, !dbg !2265
  %call2 = call zeroext i1 %2(%"class.xalanc_1_10::XercesDocumentWrapper"* %call), !dbg !2265
  ret i1 %call2, !dbg !2266
}

; Function Attrs: noinline uwtable
define dso_local i64 @_ZNK11xalanc_1_1028XercesEntityReferenceWrapper8getIndexEv(%"class.xalanc_1_10::XercesEntityReferenceWrapper"* %this) unnamed_addr #3 align 2 !dbg !2267 {
entry:
  %this.addr = alloca %"class.xalanc_1_10::XercesEntityReferenceWrapper"*, align 8
  store %"class.xalanc_1_10::XercesEntityReferenceWrapper"* %this, %"class.xalanc_1_10::XercesEntityReferenceWrapper"** %this.addr, align 8
  call void @llvm.dbg.declare(metadata %"class.xalanc_1_10::XercesEntityReferenceWrapper"** %this.addr, metadata !2268, metadata !DIExpression()), !dbg !2269
  %this1 = load %"class.xalanc_1_10::XercesEntityReferenceWrapper"*, %"class.xalanc_1_10::XercesEntityReferenceWrapper"** %this.addr, align 8
  %m_navigator = getelementptr inbounds %"class.xalanc_1_10::XercesEntityReferenceWrapper", %"class.xalanc_1_10::XercesEntityReferenceWrapper"* %this1, i32 0, i32 2, !dbg !2270
  %0 = load %"class.xalanc_1_10::XercesWrapperNavigator"*, %"class.xalanc_1_10::XercesWrapperNavigator"** %m_navigator, align 8, !dbg !2270
  %call = call i64 @_ZNK11xalanc_1_1022XercesWrapperNavigator8getIndexEv(%"class.xalanc_1_10::XercesWrapperNavigator"* %0), !dbg !2271
  ret i64 %call, !dbg !2272
}

; Function Attrs: noinline nounwind uwtable
define linkonce_odr dso_local i64 @_ZNK11xalanc_1_1022XercesWrapperNavigator8getIndexEv(%"class.xalanc_1_10::XercesWrapperNavigator"* %this) #1 comdat align 2 !dbg !2273 {
entry:
  %this.addr = alloca %"class.xalanc_1_10::XercesWrapperNavigator"*, align 8
  store %"class.xalanc_1_10::XercesWrapperNavigator"* %this, %"class.xalanc_1_10::XercesWrapperNavigator"** %this.addr, align 8
  call void @llvm.dbg.declare(metadata %"class.xalanc_1_10::XercesWrapperNavigator"** %this.addr, metadata !2278, metadata !DIExpression()), !dbg !2279
  %this1 = load %"class.xalanc_1_10::XercesWrapperNavigator"*, %"class.xalanc_1_10::XercesWrapperNavigator"** %this.addr, align 8
  %m_index = getelementptr inbounds %"class.xalanc_1_10::XercesWrapperNavigator", %"class.xalanc_1_10::XercesWrapperNavigator"* %this1, i32 0, i32 7, !dbg !2280
  %0 = load i64, i64* %m_index, align 8, !dbg !2280
  ret i64 %0, !dbg !2281
}

; Function Attrs: noinline uwtable
define linkonce_odr dso_local void @_ZN11xalanc_1_1018XalanMemMgrAutoPtrINS_28XercesEntityReferenceWrapperELb0EE17MemMgrAutoPtrDataC2EPN11xercesc_2_713MemoryManagerEPS1_(%"class.xalanc_1_10::XalanMemMgrAutoPtr<xalanc_1_10::XercesEntityReferenceWrapper, false>::MemMgrAutoPtrData"* %this, %"class.xercesc_2_7::MemoryManager"* %memoryManager, %"class.xalanc_1_10::XercesEntityReferenceWrapper"* %dataPointer) unnamed_addr #3 comdat align 2 !dbg !2282 {
entry:
  %this.addr = alloca %"class.xalanc_1_10::XalanMemMgrAutoPtr<xalanc_1_10::XercesEntityReferenceWrapper, false>::MemMgrAutoPtrData"*, align 8
  %memoryManager.addr = alloca %"class.xercesc_2_7::MemoryManager"*, align 8
  %dataPointer.addr = alloca %"class.xalanc_1_10::XercesEntityReferenceWrapper"*, align 8
  store %"class.xalanc_1_10::XalanMemMgrAutoPtr<xalanc_1_10::XercesEntityReferenceWrapper, false>::MemMgrAutoPtrData"* %this, %"class.xalanc_1_10::XalanMemMgrAutoPtr<xalanc_1_10::XercesEntityReferenceWrapper, false>::MemMgrAutoPtrData"** %this.addr, align 8
  call void @llvm.dbg.declare(metadata %"class.xalanc_1_10::XalanMemMgrAutoPtr<xalanc_1_10::XercesEntityReferenceWrapper, false>::MemMgrAutoPtrData"** %this.addr, metadata !2283, metadata !DIExpression()), !dbg !2285
  store %"class.xercesc_2_7::MemoryManager"* %memoryManager, %"class.xercesc_2_7::MemoryManager"** %memoryManager.addr, align 8
  call void @llvm.dbg.declare(metadata %"class.xercesc_2_7::MemoryManager"** %memoryManager.addr, metadata !2286, metadata !DIExpression()), !dbg !2287
  store %"class.xalanc_1_10::XercesEntityReferenceWrapper"* %dataPointer, %"class.xalanc_1_10::XercesEntityReferenceWrapper"** %dataPointer.addr, align 8
  call void @llvm.dbg.declare(metadata %"class.xalanc_1_10::XercesEntityReferenceWrapper"** %dataPointer.addr, metadata !2288, metadata !DIExpression()), !dbg !2289
  %this1 = load %"class.xalanc_1_10::XalanMemMgrAutoPtr<xalanc_1_10::XercesEntityReferenceWrapper, false>::MemMgrAutoPtrData"*, %"class.xalanc_1_10::XalanMemMgrAutoPtr<xalanc_1_10::XercesEntityReferenceWrapper, false>::MemMgrAutoPtrData"** %this.addr, align 8
  %0 = bitcast %"class.xalanc_1_10::XalanMemMgrAutoPtr<xalanc_1_10::XercesEntityReferenceWrapper, false>::MemMgrAutoPtrData"* %this1 to %"struct.std::pair.14"*, !dbg !2290
  call void @_ZNSt4pairIPN11xercesc_2_713MemoryManagerEPN11xalanc_1_1028XercesEntityReferenceWrapperEEC2IRS2_RS5_Lb1EEEOT_OT0_(%"struct.std::pair.14"* %0, %"class.xercesc_2_7::MemoryManager"** dereferenceable(8) %memoryManager.addr, %"class.xalanc_1_10::XercesEntityReferenceWrapper"** dereferenceable(8) %dataPointer.addr), !dbg !2291
  call void @_ZNK11xalanc_1_1018XalanMemMgrAutoPtrINS_28XercesEntityReferenceWrapperELb0EE17MemMgrAutoPtrData10invariantsEv(%"class.xalanc_1_10::XalanMemMgrAutoPtr<xalanc_1_10::XercesEntityReferenceWrapper, false>::MemMgrAutoPtrData"* %this1), !dbg !2292
  ret void, !dbg !2294
}

; Function Attrs: noinline nounwind uwtable
define linkonce_odr dso_local void @_ZNSt4pairIPN11xercesc_2_713MemoryManagerEPN11xalanc_1_1028XercesEntityReferenceWrapperEEC2IRS2_RS5_Lb1EEEOT_OT0_(%"struct.std::pair.14"* %this, %"class.xercesc_2_7::MemoryManager"** dereferenceable(8) %__x, %"class.xalanc_1_10::XercesEntityReferenceWrapper"** dereferenceable(8) %__y) unnamed_addr #1 comdat align 2 !dbg !2295 {
entry:
  %this.addr = alloca %"struct.std::pair.14"*, align 8
  %__x.addr = alloca %"class.xercesc_2_7::MemoryManager"**, align 8
  %__y.addr = alloca %"class.xalanc_1_10::XercesEntityReferenceWrapper"**, align 8
  store %"struct.std::pair.14"* %this, %"struct.std::pair.14"** %this.addr, align 8
  call void @llvm.dbg.declare(metadata %"struct.std::pair.14"** %this.addr, metadata !2305, metadata !DIExpression()), !dbg !2307
  store %"class.xercesc_2_7::MemoryManager"** %__x, %"class.xercesc_2_7::MemoryManager"*** %__x.addr, align 8
  call void @llvm.dbg.declare(metadata %"class.xercesc_2_7::MemoryManager"*** %__x.addr, metadata !2308, metadata !DIExpression()), !dbg !2309
  store %"class.xalanc_1_10::XercesEntityReferenceWrapper"** %__y, %"class.xalanc_1_10::XercesEntityReferenceWrapper"*** %__y.addr, align 8
  call void @llvm.dbg.declare(metadata %"class.xalanc_1_10::XercesEntityReferenceWrapper"*** %__y.addr, metadata !2310, metadata !DIExpression()), !dbg !2311
  %this1 = load %"struct.std::pair.14"*, %"struct.std::pair.14"** %this.addr, align 8
  %0 = bitcast %"struct.std::pair.14"* %this1 to %"class.std::__pair_base.15"*, !dbg !2312
  %first = getelementptr inbounds %"struct.std::pair.14", %"struct.std::pair.14"* %this1, i32 0, i32 0, !dbg !2313
  %1 = load %"class.xercesc_2_7::MemoryManager"**, %"class.xercesc_2_7::MemoryManager"*** %__x.addr, align 8, !dbg !2314
  %call = call dereferenceable(8) %"class.xercesc_2_7::MemoryManager"** @_ZSt7forwardIRPN11xercesc_2_713MemoryManagerEEOT_RNSt16remove_referenceIS4_E4typeE(%"class.xercesc_2_7::MemoryManager"** dereferenceable(8) %1) #8, !dbg !2315
  %2 = load %"class.xercesc_2_7::MemoryManager"*, %"class.xercesc_2_7::MemoryManager"** %call, align 8, !dbg !2315
  store %"class.xercesc_2_7::MemoryManager"* %2, %"class.xercesc_2_7::MemoryManager"** %first, align 8, !dbg !2313
  %second = getelementptr inbounds %"struct.std::pair.14", %"struct.std::pair.14"* %this1, i32 0, i32 1, !dbg !2316
  %3 = load %"class.xalanc_1_10::XercesEntityReferenceWrapper"**, %"class.xalanc_1_10::XercesEntityReferenceWrapper"*** %__y.addr, align 8, !dbg !2317
  %call2 = call dereferenceable(8) %"class.xalanc_1_10::XercesEntityReferenceWrapper"** @_ZSt7forwardIRPN11xalanc_1_1028XercesEntityReferenceWrapperEEOT_RNSt16remove_referenceIS4_E4typeE(%"class.xalanc_1_10::XercesEntityReferenceWrapper"** dereferenceable(8) %3) #8, !dbg !2318
  %4 = load %"class.xalanc_1_10::XercesEntityReferenceWrapper"*, %"class.xalanc_1_10::XercesEntityReferenceWrapper"** %call2, align 8, !dbg !2318
  store %"class.xalanc_1_10::XercesEntityReferenceWrapper"* %4, %"class.xalanc_1_10::XercesEntityReferenceWrapper"** %second, align 8, !dbg !2316
  ret void, !dbg !2319
}

; Function Attrs: noinline nounwind uwtable
define linkonce_odr dso_local void @_ZNK11xalanc_1_1018XalanMemMgrAutoPtrINS_28XercesEntityReferenceWrapperELb0EE17MemMgrAutoPtrData10invariantsEv(%"class.xalanc_1_10::XalanMemMgrAutoPtr<xalanc_1_10::XercesEntityReferenceWrapper, false>::MemMgrAutoPtrData"* %this) #1 comdat align 2 !dbg !2320 {
entry:
  %this.addr = alloca %"class.xalanc_1_10::XalanMemMgrAutoPtr<xalanc_1_10::XercesEntityReferenceWrapper, false>::MemMgrAutoPtrData"*, align 8
  store %"class.xalanc_1_10::XalanMemMgrAutoPtr<xalanc_1_10::XercesEntityReferenceWrapper, false>::MemMgrAutoPtrData"* %this, %"class.xalanc_1_10::XalanMemMgrAutoPtr<xalanc_1_10::XercesEntityReferenceWrapper, false>::MemMgrAutoPtrData"** %this.addr, align 8
  call void @llvm.dbg.declare(metadata %"class.xalanc_1_10::XalanMemMgrAutoPtr<xalanc_1_10::XercesEntityReferenceWrapper, false>::MemMgrAutoPtrData"** %this.addr, metadata !2321, metadata !DIExpression()), !dbg !2323
  %this1 = load %"class.xalanc_1_10::XalanMemMgrAutoPtr<xalanc_1_10::XercesEntityReferenceWrapper, false>::MemMgrAutoPtrData"*, %"class.xalanc_1_10::XalanMemMgrAutoPtr<xalanc_1_10::XercesEntityReferenceWrapper, false>::MemMgrAutoPtrData"** %this.addr, align 8
  ret void, !dbg !2324
}

; Function Attrs: noinline nounwind uwtable
define linkonce_odr dso_local dereferenceable(8) %"class.xercesc_2_7::MemoryManager"** @_ZSt7forwardIRPN11xercesc_2_713MemoryManagerEEOT_RNSt16remove_referenceIS4_E4typeE(%"class.xercesc_2_7::MemoryManager"** dereferenceable(8) %__t) #1 comdat !dbg !2325 {
entry:
  %__t.addr = alloca %"class.xercesc_2_7::MemoryManager"**, align 8
  store %"class.xercesc_2_7::MemoryManager"** %__t, %"class.xercesc_2_7::MemoryManager"*** %__t.addr, align 8
  call void @llvm.dbg.declare(metadata %"class.xercesc_2_7::MemoryManager"*** %__t.addr, metadata !2334, metadata !DIExpression()), !dbg !2335
  %0 = load %"class.xercesc_2_7::MemoryManager"**, %"class.xercesc_2_7::MemoryManager"*** %__t.addr, align 8, !dbg !2336
  ret %"class.xercesc_2_7::MemoryManager"** %0, !dbg !2337
}

; Function Attrs: noinline nounwind uwtable
define linkonce_odr dso_local dereferenceable(8) %"class.xalanc_1_10::XercesEntityReferenceWrapper"** @_ZSt7forwardIRPN11xalanc_1_1028XercesEntityReferenceWrapperEEOT_RNSt16remove_referenceIS4_E4typeE(%"class.xalanc_1_10::XercesEntityReferenceWrapper"** dereferenceable(8) %__t) #1 comdat !dbg !2338 {
entry:
  %__t.addr = alloca %"class.xalanc_1_10::XercesEntityReferenceWrapper"**, align 8
  store %"class.xalanc_1_10::XercesEntityReferenceWrapper"** %__t, %"class.xalanc_1_10::XercesEntityReferenceWrapper"*** %__t.addr, align 8
  call void @llvm.dbg.declare(metadata %"class.xalanc_1_10::XercesEntityReferenceWrapper"*** %__t.addr, metadata !2346, metadata !DIExpression()), !dbg !2347
  %0 = load %"class.xalanc_1_10::XercesEntityReferenceWrapper"**, %"class.xalanc_1_10::XercesEntityReferenceWrapper"*** %__t.addr, align 8, !dbg !2348
  ret %"class.xalanc_1_10::XercesEntityReferenceWrapper"** %0, !dbg !2349
}

; Function Attrs: noinline uwtable
define linkonce_odr dso_local void @_ZN11xalanc_1_1018XalanMemMgrAutoPtrINS_28XercesEntityReferenceWrapperELb0EE17MemMgrAutoPtrData10deallocateEv(%"class.xalanc_1_10::XalanMemMgrAutoPtr<xalanc_1_10::XercesEntityReferenceWrapper, false>::MemMgrAutoPtrData"* %this) #3 comdat align 2 !dbg !2350 {
entry:
  %this.addr = alloca %"class.xalanc_1_10::XalanMemMgrAutoPtr<xalanc_1_10::XercesEntityReferenceWrapper, false>::MemMgrAutoPtrData"*, align 8
  store %"class.xalanc_1_10::XalanMemMgrAutoPtr<xalanc_1_10::XercesEntityReferenceWrapper, false>::MemMgrAutoPtrData"* %this, %"class.xalanc_1_10::XalanMemMgrAutoPtr<xalanc_1_10::XercesEntityReferenceWrapper, false>::MemMgrAutoPtrData"** %this.addr, align 8
  call void @llvm.dbg.declare(metadata %"class.xalanc_1_10::XalanMemMgrAutoPtr<xalanc_1_10::XercesEntityReferenceWrapper, false>::MemMgrAutoPtrData"** %this.addr, metadata !2351, metadata !DIExpression()), !dbg !2352
  %this1 = load %"class.xalanc_1_10::XalanMemMgrAutoPtr<xalanc_1_10::XercesEntityReferenceWrapper, false>::MemMgrAutoPtrData"*, %"class.xalanc_1_10::XalanMemMgrAutoPtr<xalanc_1_10::XercesEntityReferenceWrapper, false>::MemMgrAutoPtrData"** %this.addr, align 8
  call void @_ZNK11xalanc_1_1018XalanMemMgrAutoPtrINS_28XercesEntityReferenceWrapperELb0EE17MemMgrAutoPtrData10invariantsEv(%"class.xalanc_1_10::XalanMemMgrAutoPtr<xalanc_1_10::XercesEntityReferenceWrapper, false>::MemMgrAutoPtrData"* %this1), !dbg !2353
  %call = call zeroext i1 @_ZNK11xalanc_1_1018XalanMemMgrAutoPtrINS_28XercesEntityReferenceWrapperELb0EE17MemMgrAutoPtrData12isInitilizedEv(%"class.xalanc_1_10::XalanMemMgrAutoPtr<xalanc_1_10::XercesEntityReferenceWrapper, false>::MemMgrAutoPtrData"* %this1), !dbg !2354
  br i1 %call, label %if.then, label %if.end, !dbg !2356

if.then:                                          ; preds = %entry
  %0 = bitcast %"class.xalanc_1_10::XalanMemMgrAutoPtr<xalanc_1_10::XercesEntityReferenceWrapper, false>::MemMgrAutoPtrData"* %this1 to %"struct.std::pair.14"*, !dbg !2357
  %first = getelementptr inbounds %"struct.std::pair.14", %"struct.std::pair.14"* %0, i32 0, i32 0, !dbg !2357
  %1 = load %"class.xercesc_2_7::MemoryManager"*, %"class.xercesc_2_7::MemoryManager"** %first, align 8, !dbg !2357
  %2 = bitcast %"class.xalanc_1_10::XalanMemMgrAutoPtr<xalanc_1_10::XercesEntityReferenceWrapper, false>::MemMgrAutoPtrData"* %this1 to %"struct.std::pair.14"*, !dbg !2359
  %second = getelementptr inbounds %"struct.std::pair.14", %"struct.std::pair.14"* %2, i32 0, i32 1, !dbg !2359
  %3 = load %"class.xalanc_1_10::XercesEntityReferenceWrapper"*, %"class.xalanc_1_10::XercesEntityReferenceWrapper"** %second, align 8, !dbg !2359
  %4 = bitcast %"class.xalanc_1_10::XercesEntityReferenceWrapper"* %3 to i8*, !dbg !2360
  %5 = bitcast %"class.xercesc_2_7::MemoryManager"* %1 to void (%"class.xercesc_2_7::MemoryManager"*, i8*)***, !dbg !2361
  %vtable = load void (%"class.xercesc_2_7::MemoryManager"*, i8*)**, void (%"class.xercesc_2_7::MemoryManager"*, i8*)*** %5, align 8, !dbg !2361
  %vfn = getelementptr inbounds void (%"class.xercesc_2_7::MemoryManager"*, i8*)*, void (%"class.xercesc_2_7::MemoryManager"*, i8*)** %vtable, i64 3, !dbg !2361
  %6 = load void (%"class.xercesc_2_7::MemoryManager"*, i8*)*, void (%"class.xercesc_2_7::MemoryManager"*, i8*)** %vfn, align 8, !dbg !2361
  call void %6(%"class.xercesc_2_7::MemoryManager"* %1, i8* %4), !dbg !2361
  br label %if.end, !dbg !2362

if.end:                                           ; preds = %if.then, %entry
  ret void, !dbg !2363
}

; Function Attrs: noinline noreturn nounwind
define linkonce_odr hidden void @__clang_call_terminate(i8* %0) #6 comdat {
  %2 = call i8* @__cxa_begin_catch(i8* %0) #8
  call void @_ZSt9terminatev() #10
  unreachable
}

declare dso_local i8* @__cxa_begin_catch(i8*)

declare dso_local void @_ZSt9terminatev()

; Function Attrs: noinline nounwind uwtable
define linkonce_odr dso_local zeroext i1 @_ZNK11xalanc_1_1018XalanMemMgrAutoPtrINS_28XercesEntityReferenceWrapperELb0EE17MemMgrAutoPtrData12isInitilizedEv(%"class.xalanc_1_10::XalanMemMgrAutoPtr<xalanc_1_10::XercesEntityReferenceWrapper, false>::MemMgrAutoPtrData"* %this) #1 comdat align 2 !dbg !2364 {
entry:
  %this.addr = alloca %"class.xalanc_1_10::XalanMemMgrAutoPtr<xalanc_1_10::XercesEntityReferenceWrapper, false>::MemMgrAutoPtrData"*, align 8
  store %"class.xalanc_1_10::XalanMemMgrAutoPtr<xalanc_1_10::XercesEntityReferenceWrapper, false>::MemMgrAutoPtrData"* %this, %"class.xalanc_1_10::XalanMemMgrAutoPtr<xalanc_1_10::XercesEntityReferenceWrapper, false>::MemMgrAutoPtrData"** %this.addr, align 8
  call void @llvm.dbg.declare(metadata %"class.xalanc_1_10::XalanMemMgrAutoPtr<xalanc_1_10::XercesEntityReferenceWrapper, false>::MemMgrAutoPtrData"** %this.addr, metadata !2365, metadata !DIExpression()), !dbg !2366
  %this1 = load %"class.xalanc_1_10::XalanMemMgrAutoPtr<xalanc_1_10::XercesEntityReferenceWrapper, false>::MemMgrAutoPtrData"*, %"class.xalanc_1_10::XalanMemMgrAutoPtr<xalanc_1_10::XercesEntityReferenceWrapper, false>::MemMgrAutoPtrData"** %this.addr, align 8
  %0 = bitcast %"class.xalanc_1_10::XalanMemMgrAutoPtr<xalanc_1_10::XercesEntityReferenceWrapper, false>::MemMgrAutoPtrData"* %this1 to %"struct.std::pair.14"*, !dbg !2367
  %first = getelementptr inbounds %"struct.std::pair.14", %"struct.std::pair.14"* %0, i32 0, i32 0, !dbg !2367
  %1 = load %"class.xercesc_2_7::MemoryManager"*, %"class.xercesc_2_7::MemoryManager"** %first, align 8, !dbg !2367
  %cmp = icmp ne %"class.xercesc_2_7::MemoryManager"* %1, null, !dbg !2368
  br i1 %cmp, label %land.rhs, label %land.end, !dbg !2369

land.rhs:                                         ; preds = %entry
  %2 = bitcast %"class.xalanc_1_10::XalanMemMgrAutoPtr<xalanc_1_10::XercesEntityReferenceWrapper, false>::MemMgrAutoPtrData"* %this1 to %"struct.std::pair.14"*, !dbg !2370
  %second = getelementptr inbounds %"struct.std::pair.14", %"struct.std::pair.14"* %2, i32 0, i32 1, !dbg !2370
  %3 = load %"class.xalanc_1_10::XercesEntityReferenceWrapper"*, %"class.xalanc_1_10::XercesEntityReferenceWrapper"** %second, align 8, !dbg !2370
  %cmp2 = icmp ne %"class.xalanc_1_10::XercesEntityReferenceWrapper"* %3, null, !dbg !2371
  br label %land.end

land.end:                                         ; preds = %land.rhs, %entry
  %4 = phi i1 [ false, %entry ], [ %cmp2, %land.rhs ], !dbg !2366
  ret i1 %4, !dbg !2372
}

; Function Attrs: argmemonly nounwind willreturn
declare void @llvm.memcpy.p0i8.p0i8.i64(i8* noalias nocapture writeonly, i8* noalias nocapture readonly, i64, i1 immarg) #7

; Function Attrs: noinline nounwind uwtable
define linkonce_odr dso_local void @_ZN11xalanc_1_1018XalanMemMgrAutoPtrINS_28XercesEntityReferenceWrapperELb0EE17MemMgrAutoPtrData5resetEPN11xercesc_2_713MemoryManagerEPS1_(%"class.xalanc_1_10::XalanMemMgrAutoPtr<xalanc_1_10::XercesEntityReferenceWrapper, false>::MemMgrAutoPtrData"* %this, %"class.xercesc_2_7::MemoryManager"* %memoryManager, %"class.xalanc_1_10::XercesEntityReferenceWrapper"* %dataPointer) #1 comdat align 2 !dbg !2373 {
entry:
  %this.addr = alloca %"class.xalanc_1_10::XalanMemMgrAutoPtr<xalanc_1_10::XercesEntityReferenceWrapper, false>::MemMgrAutoPtrData"*, align 8
  %memoryManager.addr = alloca %"class.xercesc_2_7::MemoryManager"*, align 8
  %dataPointer.addr = alloca %"class.xalanc_1_10::XercesEntityReferenceWrapper"*, align 8
  store %"class.xalanc_1_10::XalanMemMgrAutoPtr<xalanc_1_10::XercesEntityReferenceWrapper, false>::MemMgrAutoPtrData"* %this, %"class.xalanc_1_10::XalanMemMgrAutoPtr<xalanc_1_10::XercesEntityReferenceWrapper, false>::MemMgrAutoPtrData"** %this.addr, align 8
  call void @llvm.dbg.declare(metadata %"class.xalanc_1_10::XalanMemMgrAutoPtr<xalanc_1_10::XercesEntityReferenceWrapper, false>::MemMgrAutoPtrData"** %this.addr, metadata !2374, metadata !DIExpression()), !dbg !2375
  store %"class.xercesc_2_7::MemoryManager"* %memoryManager, %"class.xercesc_2_7::MemoryManager"** %memoryManager.addr, align 8
  call void @llvm.dbg.declare(metadata %"class.xercesc_2_7::MemoryManager"** %memoryManager.addr, metadata !2376, metadata !DIExpression()), !dbg !2377
  store %"class.xalanc_1_10::XercesEntityReferenceWrapper"* %dataPointer, %"class.xalanc_1_10::XercesEntityReferenceWrapper"** %dataPointer.addr, align 8
  call void @llvm.dbg.declare(metadata %"class.xalanc_1_10::XercesEntityReferenceWrapper"** %dataPointer.addr, metadata !2378, metadata !DIExpression()), !dbg !2379
  %this1 = load %"class.xalanc_1_10::XalanMemMgrAutoPtr<xalanc_1_10::XercesEntityReferenceWrapper, false>::MemMgrAutoPtrData"*, %"class.xalanc_1_10::XalanMemMgrAutoPtr<xalanc_1_10::XercesEntityReferenceWrapper, false>::MemMgrAutoPtrData"** %this.addr, align 8
  call void @_ZNK11xalanc_1_1018XalanMemMgrAutoPtrINS_28XercesEntityReferenceWrapperELb0EE17MemMgrAutoPtrData10invariantsEv(%"class.xalanc_1_10::XalanMemMgrAutoPtr<xalanc_1_10::XercesEntityReferenceWrapper, false>::MemMgrAutoPtrData"* %this1), !dbg !2380
  %0 = load %"class.xercesc_2_7::MemoryManager"*, %"class.xercesc_2_7::MemoryManager"** %memoryManager.addr, align 8, !dbg !2381
  %1 = bitcast %"class.xalanc_1_10::XalanMemMgrAutoPtr<xalanc_1_10::XercesEntityReferenceWrapper, false>::MemMgrAutoPtrData"* %this1 to %"struct.std::pair.14"*, !dbg !2382
  %first = getelementptr inbounds %"struct.std::pair.14", %"struct.std::pair.14"* %1, i32 0, i32 0, !dbg !2382
  store %"class.xercesc_2_7::MemoryManager"* %0, %"class.xercesc_2_7::MemoryManager"** %first, align 8, !dbg !2383
  %2 = load %"class.xalanc_1_10::XercesEntityReferenceWrapper"*, %"class.xalanc_1_10::XercesEntityReferenceWrapper"** %dataPointer.addr, align 8, !dbg !2384
  %3 = bitcast %"class.xalanc_1_10::XalanMemMgrAutoPtr<xalanc_1_10::XercesEntityReferenceWrapper, false>::MemMgrAutoPtrData"* %this1 to %"struct.std::pair.14"*, !dbg !2385
  %second = getelementptr inbounds %"struct.std::pair.14", %"struct.std::pair.14"* %3, i32 0, i32 1, !dbg !2385
  store %"class.xalanc_1_10::XercesEntityReferenceWrapper"* %2, %"class.xalanc_1_10::XercesEntityReferenceWrapper"** %second, align 8, !dbg !2386
  call void @_ZNK11xalanc_1_1018XalanMemMgrAutoPtrINS_28XercesEntityReferenceWrapperELb0EE17MemMgrAutoPtrData10invariantsEv(%"class.xalanc_1_10::XalanMemMgrAutoPtr<xalanc_1_10::XercesEntityReferenceWrapper, false>::MemMgrAutoPtrData"* %this1), !dbg !2387
  ret void, !dbg !2388
}

attributes #0 = { nounwind readnone speculatable willreturn }
attributes #1 = { noinline nounwind uwtable "correctly-rounded-divide-sqrt-fp-math"="false" "disable-tail-calls"="false" "frame-pointer"="all" "less-precise-fpmad"="false" "min-legal-vector-width"="0" "no-infs-fp-math"="false" "no-jump-tables"="false" "no-nans-fp-math"="false" "no-signed-zeros-fp-math"="false" "no-trapping-math"="false" "stack-protector-buffer-size"="8" "target-cpu"="x86-64" "target-features"="+cx8,+fxsr,+mmx,+sse,+sse2,+x87" "unsafe-fp-math"="false" "use-soft-float"="false" }
attributes #2 = { nobuiltin nounwind "correctly-rounded-divide-sqrt-fp-math"="false" "disable-tail-calls"="false" "frame-pointer"="all" "less-precise-fpmad"="false" "no-infs-fp-math"="false" "no-nans-fp-math"="false" "no-signed-zeros-fp-math"="false" "no-trapping-math"="false" "stack-protector-buffer-size"="8" "target-cpu"="x86-64" "target-features"="+cx8,+fxsr,+mmx,+sse,+sse2,+x87" "unsafe-fp-math"="false" "use-soft-float"="false" }
attributes #3 = { noinline uwtable "correctly-rounded-divide-sqrt-fp-math"="false" "disable-tail-calls"="false" "frame-pointer"="all" "less-precise-fpmad"="false" "min-legal-vector-width"="0" "no-infs-fp-math"="false" "no-jump-tables"="false" "no-nans-fp-math"="false" "no-signed-zeros-fp-math"="false" "no-trapping-math"="false" "stack-protector-buffer-size"="8" "target-cpu"="x86-64" "target-features"="+cx8,+fxsr,+mmx,+sse,+sse2,+x87" "unsafe-fp-math"="false" "use-soft-float"="false" }
attributes #4 = { "correctly-rounded-divide-sqrt-fp-math"="false" "disable-tail-calls"="false" "frame-pointer"="all" "less-precise-fpmad"="false" "no-infs-fp-math"="false" "no-nans-fp-math"="false" "no-signed-zeros-fp-math"="false" "no-trapping-math"="false" "stack-protector-buffer-size"="8" "target-cpu"="x86-64" "target-features"="+cx8,+fxsr,+mmx,+sse,+sse2,+x87" "unsafe-fp-math"="false" "use-soft-float"="false" }
attributes #5 = { nounwind "correctly-rounded-divide-sqrt-fp-math"="false" "disable-tail-calls"="false" "frame-pointer"="all" "less-precise-fpmad"="false" "no-infs-fp-math"="false" "no-nans-fp-math"="false" "no-signed-zeros-fp-math"="false" "no-trapping-math"="false" "stack-protector-buffer-size"="8" "target-cpu"="x86-64" "target-features"="+cx8,+fxsr,+mmx,+sse,+sse2,+x87" "unsafe-fp-math"="false" "use-soft-float"="false" }
attributes #6 = { noinline noreturn nounwind }
attributes #7 = { argmemonly nounwind willreturn }
attributes #8 = { nounwind }
attributes #9 = { builtin nounwind }
attributes #10 = { noreturn nounwind }
attributes #11 = { noreturn }

!llvm.dbg.cu = !{!0}
!llvm.module.flags = !{!1942, !1943, !1944}
!llvm.ident = !{!1945}

!0 = distinct !DICompileUnit(language: DW_LANG_C_plus_plus_14, file: !1, producer: "clang version 10.0.1 (https://github.com/svkeerthy/IR2Vec-LoopOptimizationFramework.git 561ac470e63b728263a0ac06ef987886ac648486)", isOptimized: false, runtimeVersion: 0, emissionKind: FullDebug, enums: !2, retainedTypes: !43, imports: !1066, splitDebugInlining: false, nameTableKind: None)
!1 = !DIFile(filename: "XercesEntityReferenceWrapper.cpp", directory: "/home/venkat/IF-DV/spec_build_release/CPU_2017/benchspec/CPU/523.xalancbmk_r/build/build_base_ld-loop-ext-m64.0000")
!2 = !{!3, !22}
!3 = !DICompositeType(tag: DW_TAG_enumeration_type, name: "NodeType", scope: !5, file: !4, line: 53, baseType: !7, size: 32, elements: !8, identifier: "_ZTSN11xalanc_1_109XalanNode8NodeTypeE")
!4 = !DIFile(filename: "./xalanc/XalanDOM/XalanNode.hpp", directory: "/home/venkat/IF-DV/spec_build_release/CPU_2017/benchspec/CPU/523.xalancbmk_r/build/build_base_ld-loop-ext-m64.0000")
!5 = !DICompositeType(tag: DW_TAG_class_type, name: "XalanNode", scope: !6, file: !4, line: 44, flags: DIFlagFwdDecl)
!6 = !DINamespace(name: "xalanc_1_10", scope: null)
!7 = !DIBasicType(name: "unsigned int", size: 32, encoding: DW_ATE_unsigned)
!8 = !{!9, !10, !11, !12, !13, !14, !15, !16, !17, !18, !19, !20, !21}
!9 = !DIEnumerator(name: "UNKNOWN_NODE", value: 0, isUnsigned: true)
!10 = !DIEnumerator(name: "ELEMENT_NODE", value: 1, isUnsigned: true)
!11 = !DIEnumerator(name: "ATTRIBUTE_NODE", value: 2, isUnsigned: true)
!12 = !DIEnumerator(name: "TEXT_NODE", value: 3, isUnsigned: true)
!13 = !DIEnumerator(name: "CDATA_SECTION_NODE", value: 4, isUnsigned: true)
!14 = !DIEnumerator(name: "ENTITY_REFERENCE_NODE", value: 5, isUnsigned: true)
!15 = !DIEnumerator(name: "ENTITY_NODE", value: 6, isUnsigned: true)
!16 = !DIEnumerator(name: "PROCESSING_INSTRUCTION_NODE", value: 7, isUnsigned: true)
!17 = !DIEnumerator(name: "COMMENT_NODE", value: 8, isUnsigned: true)
!18 = !DIEnumerator(name: "DOCUMENT_NODE", value: 9, isUnsigned: true)
!19 = !DIEnumerator(name: "DOCUMENT_TYPE_NODE", value: 10, isUnsigned: true)
!20 = !DIEnumerator(name: "DOCUMENT_FRAGMENT_NODE", value: 11, isUnsigned: true)
!21 = !DIEnumerator(name: "NOTATION_NODE", value: 12, isUnsigned: true)
!22 = !DICompositeType(tag: DW_TAG_enumeration_type, name: "ExceptionCode", scope: !24, file: !23, line: 43, baseType: !7, size: 32, elements: !25, identifier: "_ZTSN11xalanc_1_1017XalanDOMException13ExceptionCodeE")
!23 = !DIFile(filename: "./xalanc/XalanDOM/XalanDOMException.hpp", directory: "/home/venkat/IF-DV/spec_build_release/CPU_2017/benchspec/CPU/523.xalancbmk_r/build/build_base_ld-loop-ext-m64.0000")
!24 = !DICompositeType(tag: DW_TAG_class_type, name: "XalanDOMException", scope: !6, file: !23, line: 37, flags: DIFlagFwdDecl)
!25 = !{!26, !27, !28, !29, !30, !31, !32, !33, !34, !35, !36, !37, !38, !39, !40, !41, !42}
!26 = !DIEnumerator(name: "INDEX_SIZE_ERR", value: 1, isUnsigned: true)
!27 = !DIEnumerator(name: "DOMSTRING_SIZE_ERR", value: 2, isUnsigned: true)
!28 = !DIEnumerator(name: "HIERARCHY_REQUEST_ERR", value: 3, isUnsigned: true)
!29 = !DIEnumerator(name: "WRONG_DOCUMENT_ERR", value: 4, isUnsigned: true)
!30 = !DIEnumerator(name: "INVALID_CHARACTER_ERR", value: 5, isUnsigned: true)
!31 = !DIEnumerator(name: "NO_DATA_ALLOWED_ERR", value: 6, isUnsigned: true)
!32 = !DIEnumerator(name: "NO_MODIFICATION_ALLOWED_ERR", value: 7, isUnsigned: true)
!33 = !DIEnumerator(name: "NOT_FOUND_ERR", value: 8, isUnsigned: true)
!34 = !DIEnumerator(name: "NOT_SUPPORTED_ERR", value: 9, isUnsigned: true)
!35 = !DIEnumerator(name: "INUSE_ATTRIBUTE_ERR", value: 10, isUnsigned: true)
!36 = !DIEnumerator(name: "INVALID_STATE_ERR", value: 11, isUnsigned: true)
!37 = !DIEnumerator(name: "SYNTAX_ERR", value: 12, isUnsigned: true)
!38 = !DIEnumerator(name: "INVALID_MODIFICATION_ERR", value: 13, isUnsigned: true)
!39 = !DIEnumerator(name: "NAMESPACE_ERR", value: 14, isUnsigned: true)
!40 = !DIEnumerator(name: "INVALID_ACCESS_ERR", value: 15, isUnsigned: true)
!41 = !DIEnumerator(name: "UNKNOWN_ERR", value: 201, isUnsigned: true)
!42 = !DIEnumerator(name: "TRANSCODING_ERR", value: 202, isUnsigned: true)
!43 = !{!44, !932, !24, !934}
!44 = !DIDerivedType(tag: DW_TAG_pointer_type, baseType: !45, size: 64)
!45 = !DIDerivedType(tag: DW_TAG_typedef, name: "ThisType", scope: !46, file: !1, line: 57, baseType: !47)
!46 = distinct !DISubprogram(name: "create", linkageName: "_ZN11xalanc_1_1028XercesEntityReferenceWrapper6createERN11xercesc_2_713MemoryManagerEPKNS1_18DOMEntityReferenceERKNS_22XercesWrapperNavigatorE", scope: !47, file: !1, line: 52, type: !75, scopeLine: 56, flags: DIFlagPrototyped, spFlags: DISPFlagDefinition, unit: !0, declaration: !74, retainedNodes: !221)
!47 = distinct !DICompositeType(tag: DW_TAG_class_type, name: "XercesEntityReferenceWrapper", scope: !6, file: !48, line: 44, size: 384, flags: DIFlagTypePassByReference | DIFlagNonTrivial, elements: !49, vtableHolder: !5)
!48 = !DIFile(filename: "./xalanc/XercesParserLiaison/XercesEntityReferenceWrapper.hpp", directory: "/home/venkat/IF-DV/spec_build_release/CPU_2017/benchspec/CPU/523.xalancbmk_r/build/build_base_ld-loop-ext-m64.0000")
!49 = !{!50, !53, !62, !67, !70, !74, !83, !86, !856, !857, !860, !864, !871, !872, !873, !874, !875, !882, !888, !891, !894, !895, !898, !899, !902, !905, !906, !909, !910, !911, !912, !913, !914, !918, !921, !925, !929}
!50 = !DIDerivedType(tag: DW_TAG_inheritance, scope: !47, baseType: !51, flags: DIFlagPublic, extraData: i32 0)
!51 = !DICompositeType(tag: DW_TAG_class_type, name: "XalanEntityReference", scope: !6, file: !52, line: 38, flags: DIFlagFwdDecl)
!52 = !DIFile(filename: "./xalanc/XalanDOM/XalanEntityReference.hpp", directory: "/home/venkat/IF-DV/spec_build_release/CPU_2017/benchspec/CPU/523.xalancbmk_r/build/build_base_ld-loop-ext-m64.0000")
!53 = !DIDerivedType(tag: DW_TAG_member, name: "m_xercesNode", scope: !47, file: !48, line: 426, baseType: !54, size: 64, offset: 64)
!54 = !DIDerivedType(tag: DW_TAG_const_type, baseType: !55)
!55 = !DIDerivedType(tag: DW_TAG_pointer_type, baseType: !56, size: 64)
!56 = !DIDerivedType(tag: DW_TAG_const_type, baseType: !57)
!57 = !DIDerivedType(tag: DW_TAG_typedef, name: "DOMEntityReferenceType", scope: !6, file: !58, line: 62, baseType: !59)
!58 = !DIFile(filename: "./xalanc/XercesParserLiaison/XercesWrapperTypes.hpp", directory: "/home/venkat/IF-DV/spec_build_release/CPU_2017/benchspec/CPU/523.xalancbmk_r/build/build_base_ld-loop-ext-m64.0000")
!59 = !DICompositeType(tag: DW_TAG_class_type, name: "DOMEntityReference", scope: !61, file: !60, line: 57, flags: DIFlagFwdDecl, identifier: "_ZTSN11xercesc_2_718DOMEntityReferenceE")
!60 = !DIFile(filename: "./xercesc/dom/DOMEntityReference.hpp", directory: "/home/venkat/IF-DV/spec_build_release/CPU_2017/benchspec/CPU/523.xalancbmk_r/build/build_base_ld-loop-ext-m64.0000")
!61 = !DINamespace(name: "xercesc_2_7", scope: null)
!62 = !DIDerivedType(tag: DW_TAG_member, name: "m_navigator", scope: !47, file: !48, line: 428, baseType: !63, size: 64, offset: 128)
!63 = !DIDerivedType(tag: DW_TAG_reference_type, baseType: !64, size: 64)
!64 = !DIDerivedType(tag: DW_TAG_const_type, baseType: !65)
!65 = !DICompositeType(tag: DW_TAG_class_type, name: "XercesWrapperNavigator", scope: !6, file: !66, line: 53, flags: DIFlagFwdDecl)
!66 = !DIFile(filename: "./xalanc/XercesParserLiaison/XercesWrapperNavigator.hpp", directory: "/home/venkat/IF-DV/spec_build_release/CPU_2017/benchspec/CPU/523.xalancbmk_r/build/build_base_ld-loop-ext-m64.0000")
!67 = !DIDerivedType(tag: DW_TAG_member, name: "m_children", scope: !47, file: !48, line: 430, baseType: !68, size: 192, offset: 192)
!68 = !DICompositeType(tag: DW_TAG_class_type, name: "XercesNodeListWrapper", scope: !6, file: !69, line: 41, flags: DIFlagFwdDecl)
!69 = !DIFile(filename: "./xalanc/XercesParserLiaison/XercesNodeListWrapper.hpp", directory: "/home/venkat/IF-DV/spec_build_release/CPU_2017/benchspec/CPU/523.xalancbmk_r/build/build_base_ld-loop-ext-m64.0000")
!70 = !DISubprogram(name: "XercesEntityReferenceWrapper", scope: !47, file: !48, line: 48, type: !71, scopeLine: 48, flags: DIFlagPublic | DIFlagPrototyped, spFlags: 0)
!71 = !DISubroutineType(types: !72)
!72 = !{null, !73, !55, !63}
!73 = !DIDerivedType(tag: DW_TAG_pointer_type, baseType: !47, size: 64, flags: DIFlagArtificial | DIFlagObjectPointer)
!74 = !DISubprogram(name: "create", linkageName: "_ZN11xalanc_1_1028XercesEntityReferenceWrapper6createERN11xercesc_2_713MemoryManagerEPKNS1_18DOMEntityReferenceERKNS_22XercesWrapperNavigatorE", scope: !47, file: !48, line: 53, type: !75, scopeLine: 53, flags: DIFlagPublic | DIFlagPrototyped | DIFlagStaticMember, spFlags: 0)
!75 = !DISubroutineType(types: !76)
!76 = !{!77, !78, !55, !63}
!77 = !DIDerivedType(tag: DW_TAG_pointer_type, baseType: !47, size: 64)
!78 = !DIDerivedType(tag: DW_TAG_reference_type, baseType: !79, size: 64)
!79 = !DIDerivedType(tag: DW_TAG_typedef, name: "MemoryManagerType", scope: !6, file: !80, line: 39, baseType: !81)
!80 = !DIFile(filename: "./xalanc/Include/XalanMemoryManagement.hpp", directory: "/home/venkat/IF-DV/spec_build_release/CPU_2017/benchspec/CPU/523.xalancbmk_r/build/build_base_ld-loop-ext-m64.0000")
!81 = !DICompositeType(tag: DW_TAG_class_type, name: "MemoryManager", scope: !61, file: !82, line: 38, flags: DIFlagFwdDecl, identifier: "_ZTSN11xercesc_2_713MemoryManagerE")
!82 = !DIFile(filename: "./xercesc/framework/MemoryManager.hpp", directory: "/home/venkat/IF-DV/spec_build_release/CPU_2017/benchspec/CPU/523.xalancbmk_r/build/build_base_ld-loop-ext-m64.0000")
!83 = !DISubprogram(name: "~XercesEntityReferenceWrapper", scope: !47, file: !48, line: 58, type: !84, scopeLine: 58, containingType: !47, virtualIndex: 0, flags: DIFlagPublic | DIFlagPrototyped, spFlags: DISPFlagVirtual)
!84 = !DISubroutineType(types: !85)
!85 = !{null, !73}
!86 = !DISubprogram(name: "getNodeName", linkageName: "_ZNK11xalanc_1_1028XercesEntityReferenceWrapper11getNodeNameEv", scope: !47, file: !48, line: 64, type: !87, scopeLine: 64, containingType: !47, virtualIndex: 2, flags: DIFlagPublic | DIFlagPrototyped, spFlags: DISPFlagVirtual)
!87 = !DISubroutineType(types: !88)
!88 = !{!89, !854}
!89 = !DIDerivedType(tag: DW_TAG_reference_type, baseType: !90, size: 64)
!90 = !DIDerivedType(tag: DW_TAG_const_type, baseType: !91)
!91 = distinct !DICompositeType(tag: DW_TAG_class_type, name: "XalanDOMString", scope: !6, file: !92, line: 42, size: 320, flags: DIFlagTypePassByReference | DIFlagNonTrivial, elements: !93, identifier: "_ZTSN11xalanc_1_1014XalanDOMStringE")
!92 = !DIFile(filename: "./xalanc/XalanDOM/XalanDOMString.hpp", directory: "/home/venkat/IF-DV/spec_build_release/CPU_2017/benchspec/CPU/523.xalancbmk_r/build/build_base_ld-loop-ext-m64.0000")
!93 = !{!94, !97, !444, !445, !449, !453, !459, !462, !466, !469, !473, !476, !480, !483, !486, !489, !493, !498, !499, !500, !504, !508, !509, !510, !513, !514, !515, !518, !521, !522, !523, !524, !527, !530, !535, !540, !541, !542, !545, !546, !549, !550, !551, !552, !553, !556, !557, !560, !563, !564, !567, !570, !571, !572, !573, !574, !575, !576, !577, !580, !583, !586, !589, !592, !595, !598, !601, !604, !607, !610, !613, !616, !619, !622, !625, !628, !815, !818, !819, !822, !825, !828, !831, !834, !837, !840, !843, !846, !847, !848, !851}
!94 = !DIDerivedType(tag: DW_TAG_member, name: "npos", scope: !91, file: !92, line: 61, baseType: !95, flags: DIFlagPublic | DIFlagStaticMember, extraData: i32 -1)
!95 = !DIDerivedType(tag: DW_TAG_const_type, baseType: !96)
!96 = !DIDerivedType(tag: DW_TAG_typedef, name: "size_type", scope: !91, file: !92, line: 53, baseType: !7)
!97 = !DIDerivedType(tag: DW_TAG_member, name: "m_data", scope: !91, file: !92, line: 793, baseType: !98, size: 256)
!98 = !DIDerivedType(tag: DW_TAG_typedef, name: "XalanDOMCharVectorType", scope: !91, file: !92, line: 45, baseType: !99)
!99 = distinct !DICompositeType(tag: DW_TAG_class_type, name: "XalanVector<unsigned short, xalanc_1_10::MemoryManagedConstructionTraits<unsigned short> >", scope: !6, file: !100, line: 61, size: 256, flags: DIFlagTypePassByReference | DIFlagNonTrivial, elements: !101, templateParams: !438, identifier: "_ZTSN11xalanc_1_1011XalanVectorItNS_31MemoryManagedConstructionTraitsItEEEE")
!100 = !DIFile(filename: "./xalanc/Include/XalanVector.hpp", directory: "/home/venkat/IF-DV/spec_build_release/CPU_2017/benchspec/CPU/523.xalancbmk_r/build/build_base_ld-loop-ext-m64.0000")
!101 = !{!102, !104, !109, !110, !114, !119, !123, !129, !135, !138, !142, !145, !148, !149, !153, !156, !159, !162, !165, !168, !171, !174, !179, !180, !183, !184, !185, !189, !190, !195, !199, !200, !201, !204, !207, !208, !209, !300, !371, !372, !373, !376, !379, !380, !381, !382, !386, !389, !394, !397, !401, !404, !408, !411, !414, !417, !420, !421, !424, !425, !426, !430, !433, !434, !435}
!102 = !DIDerivedType(tag: DW_TAG_member, name: "m_memoryManager", scope: !99, file: !100, line: 1087, baseType: !103, size: 64)
!103 = !DIDerivedType(tag: DW_TAG_pointer_type, baseType: !81, size: 64)
!104 = !DIDerivedType(tag: DW_TAG_member, name: "m_size", scope: !99, file: !100, line: 1089, baseType: !105, size: 64, offset: 64)
!105 = !DIDerivedType(tag: DW_TAG_typedef, name: "size_type", file: !100, line: 71, baseType: !106)
!106 = !DIDerivedType(tag: DW_TAG_typedef, name: "size_t", file: !107, line: 46, baseType: !108)
!107 = !DIFile(filename: "Rohit/IR2Vec-LoopOptimizationFramework/build_REL_AsrtON/lib/clang/10.0.1/include/stddef.h", directory: "/home/venkat/IF-DV")
!108 = !DIBasicType(name: "long unsigned int", size: 64, encoding: DW_ATE_unsigned)
!109 = !DIDerivedType(tag: DW_TAG_member, name: "m_allocation", scope: !99, file: !100, line: 1091, baseType: !105, size: 64, offset: 128)
!110 = !DIDerivedType(tag: DW_TAG_member, name: "m_data", scope: !99, file: !100, line: 1093, baseType: !111, size: 64, offset: 192)
!111 = !DIDerivedType(tag: DW_TAG_pointer_type, baseType: !112, size: 64)
!112 = !DIDerivedType(tag: DW_TAG_typedef, name: "value_type", scope: !99, file: !100, line: 66, baseType: !113)
!113 = !DIBasicType(name: "unsigned short", size: 16, encoding: DW_ATE_unsigned)
!114 = !DISubprogram(name: "XalanVector", scope: !99, file: !100, line: 120, type: !115, scopeLine: 120, flags: DIFlagPublic | DIFlagPrototyped, spFlags: 0)
!115 = !DISubroutineType(types: !116)
!116 = !{null, !117, !118, !105}
!117 = !DIDerivedType(tag: DW_TAG_pointer_type, baseType: !99, size: 64, flags: DIFlagArtificial | DIFlagObjectPointer)
!118 = !DIDerivedType(tag: DW_TAG_reference_type, baseType: !81, size: 64)
!119 = !DISubprogram(name: "create", linkageName: "_ZN11xalanc_1_1011XalanVectorItNS_31MemoryManagedConstructionTraitsItEEE6createERN11xercesc_2_713MemoryManagerEm", scope: !99, file: !100, line: 132, type: !120, scopeLine: 132, flags: DIFlagPublic | DIFlagPrototyped | DIFlagStaticMember, spFlags: 0)
!120 = !DISubroutineType(types: !121)
!121 = !{!122, !118, !105}
!122 = !DIDerivedType(tag: DW_TAG_pointer_type, baseType: !99, size: 64)
!123 = !DISubprogram(name: "XalanVector", scope: !99, file: !100, line: 149, type: !124, scopeLine: 149, flags: DIFlagPublic | DIFlagPrototyped, spFlags: 0)
!124 = !DISubroutineType(types: !125)
!125 = !{null, !117, !126, !118, !105}
!126 = !DIDerivedType(tag: DW_TAG_reference_type, baseType: !127, size: 64)
!127 = !DIDerivedType(tag: DW_TAG_const_type, baseType: !128)
!128 = !DIDerivedType(tag: DW_TAG_typedef, name: "ThisType", scope: !99, file: !100, line: 115, baseType: !99)
!129 = !DISubprogram(name: "XalanVector", scope: !99, file: !100, line: 177, type: !130, scopeLine: 177, flags: DIFlagPublic | DIFlagPrototyped, spFlags: 0)
!130 = !DISubroutineType(types: !131)
!131 = !{null, !117, !132, !132, !118}
!132 = !DIDerivedType(tag: DW_TAG_typedef, name: "const_iterator", scope: !99, file: !100, line: 92, baseType: !133)
!133 = !DIDerivedType(tag: DW_TAG_pointer_type, baseType: !134, size: 64)
!134 = !DIDerivedType(tag: DW_TAG_const_type, baseType: !112)
!135 = !DISubprogram(name: "create", linkageName: "_ZN11xalanc_1_1011XalanVectorItNS_31MemoryManagedConstructionTraitsItEEE6createEPKtS5_RN11xercesc_2_713MemoryManagerE", scope: !99, file: !100, line: 197, type: !136, scopeLine: 197, flags: DIFlagPublic | DIFlagPrototyped | DIFlagStaticMember, spFlags: 0)
!136 = !DISubroutineType(types: !137)
!137 = !{!122, !132, !132, !118}
!138 = !DISubprogram(name: "XalanVector", scope: !99, file: !100, line: 215, type: !139, scopeLine: 215, flags: DIFlagPublic | DIFlagPrototyped, spFlags: 0)
!139 = !DISubroutineType(types: !140)
!140 = !{null, !117, !105, !141, !118}
!141 = !DIDerivedType(tag: DW_TAG_reference_type, baseType: !134, size: 64)
!142 = !DISubprogram(name: "~XalanVector", scope: !99, file: !100, line: 233, type: !143, scopeLine: 233, flags: DIFlagPublic | DIFlagPrototyped, spFlags: 0)
!143 = !DISubroutineType(types: !144)
!144 = !{null, !117}
!145 = !DISubprogram(name: "push_back", linkageName: "_ZN11xalanc_1_1011XalanVectorItNS_31MemoryManagedConstructionTraitsItEEE9push_backERKt", scope: !99, file: !100, line: 246, type: !146, scopeLine: 246, flags: DIFlagPublic | DIFlagPrototyped, spFlags: 0)
!146 = !DISubroutineType(types: !147)
!147 = !{null, !117, !141}
!148 = !DISubprogram(name: "pop_back", linkageName: "_ZN11xalanc_1_1011XalanVectorItNS_31MemoryManagedConstructionTraitsItEEE8pop_backEv", scope: !99, file: !100, line: 256, type: !143, scopeLine: 256, flags: DIFlagPublic | DIFlagPrototyped, spFlags: 0)
!149 = !DISubprogram(name: "erase", linkageName: "_ZN11xalanc_1_1011XalanVectorItNS_31MemoryManagedConstructionTraitsItEEE5eraseEPtS4_", scope: !99, file: !100, line: 268, type: !150, scopeLine: 268, flags: DIFlagPublic | DIFlagPrototyped, spFlags: 0)
!150 = !DISubroutineType(types: !151)
!151 = !{!152, !117, !152, !152}
!152 = !DIDerivedType(tag: DW_TAG_typedef, name: "iterator", scope: !99, file: !100, line: 91, baseType: !111)
!153 = !DISubprogram(name: "erase", linkageName: "_ZN11xalanc_1_1011XalanVectorItNS_31MemoryManagedConstructionTraitsItEEE5eraseEPt", scope: !99, file: !100, line: 290, type: !154, scopeLine: 290, flags: DIFlagPublic | DIFlagPrototyped, spFlags: 0)
!154 = !DISubroutineType(types: !155)
!155 = !{!152, !117, !152}
!156 = !DISubprogram(name: "insert", linkageName: "_ZN11xalanc_1_1011XalanVectorItNS_31MemoryManagedConstructionTraitsItEEE6insertEPtPKtS6_", scope: !99, file: !100, line: 296, type: !157, scopeLine: 296, flags: DIFlagPublic | DIFlagPrototyped, spFlags: 0)
!157 = !DISubroutineType(types: !158)
!158 = !{null, !117, !152, !132, !132}
!159 = !DISubprogram(name: "insert", linkageName: "_ZN11xalanc_1_1011XalanVectorItNS_31MemoryManagedConstructionTraitsItEEE6insertEPtmRKt", scope: !99, file: !100, line: 415, type: !160, scopeLine: 415, flags: DIFlagPublic | DIFlagPrototyped, spFlags: 0)
!160 = !DISubroutineType(types: !161)
!161 = !{null, !117, !152, !105, !141}
!162 = !DISubprogram(name: "insert", linkageName: "_ZN11xalanc_1_1011XalanVectorItNS_31MemoryManagedConstructionTraitsItEEE6insertEPtRKt", scope: !99, file: !100, line: 516, type: !163, scopeLine: 516, flags: DIFlagPublic | DIFlagPrototyped, spFlags: 0)
!163 = !DISubroutineType(types: !164)
!164 = !{!152, !117, !152, !141}
!165 = !DISubprogram(name: "assign", linkageName: "_ZN11xalanc_1_1011XalanVectorItNS_31MemoryManagedConstructionTraitsItEEE6assignEPKtS5_", scope: !99, file: !100, line: 538, type: !166, scopeLine: 538, flags: DIFlagPublic | DIFlagPrototyped, spFlags: 0)
!166 = !DISubroutineType(types: !167)
!167 = !{null, !117, !132, !132}
!168 = !DISubprogram(name: "assign", linkageName: "_ZN11xalanc_1_1011XalanVectorItNS_31MemoryManagedConstructionTraitsItEEE6assignEPtS4_", scope: !99, file: !100, line: 551, type: !169, scopeLine: 551, flags: DIFlagPublic | DIFlagPrototyped, spFlags: 0)
!169 = !DISubroutineType(types: !170)
!170 = !{null, !117, !152, !152}
!171 = !DISubprogram(name: "assign", linkageName: "_ZN11xalanc_1_1011XalanVectorItNS_31MemoryManagedConstructionTraitsItEEE6assignEmRKt", scope: !99, file: !100, line: 561, type: !172, scopeLine: 561, flags: DIFlagPublic | DIFlagPrototyped, spFlags: 0)
!172 = !DISubroutineType(types: !173)
!173 = !{null, !117, !105, !141}
!174 = !DISubprogram(name: "size", linkageName: "_ZNK11xalanc_1_1011XalanVectorItNS_31MemoryManagedConstructionTraitsItEEE4sizeEv", scope: !99, file: !100, line: 571, type: !175, scopeLine: 571, flags: DIFlagPublic | DIFlagPrototyped, spFlags: 0)
!175 = !DISubroutineType(types: !176)
!176 = !{!105, !177}
!177 = !DIDerivedType(tag: DW_TAG_pointer_type, baseType: !178, size: 64, flags: DIFlagArtificial | DIFlagObjectPointer)
!178 = !DIDerivedType(tag: DW_TAG_const_type, baseType: !99)
!179 = !DISubprogram(name: "max_size", linkageName: "_ZNK11xalanc_1_1011XalanVectorItNS_31MemoryManagedConstructionTraitsItEEE8max_sizeEv", scope: !99, file: !100, line: 579, type: !175, scopeLine: 579, flags: DIFlagPublic | DIFlagPrototyped, spFlags: 0)
!180 = !DISubprogram(name: "resize", linkageName: "_ZN11xalanc_1_1011XalanVectorItNS_31MemoryManagedConstructionTraitsItEEE6resizeEm", scope: !99, file: !100, line: 587, type: !181, scopeLine: 587, flags: DIFlagPublic | DIFlagPrototyped, spFlags: 0)
!181 = !DISubroutineType(types: !182)
!182 = !{null, !117, !105}
!183 = !DISubprogram(name: "resize", linkageName: "_ZN11xalanc_1_1011XalanVectorItNS_31MemoryManagedConstructionTraitsItEEE6resizeEmRKt", scope: !99, file: !100, line: 595, type: !172, scopeLine: 595, flags: DIFlagPublic | DIFlagPrototyped, spFlags: 0)
!184 = !DISubprogram(name: "capacity", linkageName: "_ZNK11xalanc_1_1011XalanVectorItNS_31MemoryManagedConstructionTraitsItEEE8capacityEv", scope: !99, file: !100, line: 628, type: !175, scopeLine: 628, flags: DIFlagPublic | DIFlagPrototyped, spFlags: 0)
!185 = !DISubprogram(name: "empty", linkageName: "_ZNK11xalanc_1_1011XalanVectorItNS_31MemoryManagedConstructionTraitsItEEE5emptyEv", scope: !99, file: !100, line: 636, type: !186, scopeLine: 636, flags: DIFlagPublic | DIFlagPrototyped, spFlags: 0)
!186 = !DISubroutineType(types: !187)
!187 = !{!188, !177}
!188 = !DIBasicType(name: "bool", size: 8, encoding: DW_ATE_boolean)
!189 = !DISubprogram(name: "reserve", linkageName: "_ZN11xalanc_1_1011XalanVectorItNS_31MemoryManagedConstructionTraitsItEEE7reserveEm", scope: !99, file: !100, line: 644, type: !181, scopeLine: 644, flags: DIFlagPublic | DIFlagPrototyped, spFlags: 0)
!190 = !DISubprogram(name: "front", linkageName: "_ZN11xalanc_1_1011XalanVectorItNS_31MemoryManagedConstructionTraitsItEEE5frontEv", scope: !99, file: !100, line: 657, type: !191, scopeLine: 657, flags: DIFlagPublic | DIFlagPrototyped, spFlags: 0)
!191 = !DISubroutineType(types: !192)
!192 = !{!193, !117}
!193 = !DIDerivedType(tag: DW_TAG_typedef, name: "reference", scope: !99, file: !100, line: 69, baseType: !194)
!194 = !DIDerivedType(tag: DW_TAG_reference_type, baseType: !112, size: 64)
!195 = !DISubprogram(name: "front", linkageName: "_ZNK11xalanc_1_1011XalanVectorItNS_31MemoryManagedConstructionTraitsItEEE5frontEv", scope: !99, file: !100, line: 665, type: !196, scopeLine: 665, flags: DIFlagPublic | DIFlagPrototyped, spFlags: 0)
!196 = !DISubroutineType(types: !197)
!197 = !{!198, !177}
!198 = !DIDerivedType(tag: DW_TAG_typedef, name: "const_reference", scope: !99, file: !100, line: 70, baseType: !141)
!199 = !DISubprogram(name: "back", linkageName: "_ZN11xalanc_1_1011XalanVectorItNS_31MemoryManagedConstructionTraitsItEEE4backEv", scope: !99, file: !100, line: 673, type: !191, scopeLine: 673, flags: DIFlagPublic | DIFlagPrototyped, spFlags: 0)
!200 = !DISubprogram(name: "back", linkageName: "_ZNK11xalanc_1_1011XalanVectorItNS_31MemoryManagedConstructionTraitsItEEE4backEv", scope: !99, file: !100, line: 679, type: !196, scopeLine: 679, flags: DIFlagPublic | DIFlagPrototyped, spFlags: 0)
!201 = !DISubprogram(name: "begin", linkageName: "_ZN11xalanc_1_1011XalanVectorItNS_31MemoryManagedConstructionTraitsItEEE5beginEv", scope: !99, file: !100, line: 685, type: !202, scopeLine: 685, flags: DIFlagPublic | DIFlagPrototyped, spFlags: 0)
!202 = !DISubroutineType(types: !203)
!203 = !{!152, !117}
!204 = !DISubprogram(name: "begin", linkageName: "_ZNK11xalanc_1_1011XalanVectorItNS_31MemoryManagedConstructionTraitsItEEE5beginEv", scope: !99, file: !100, line: 693, type: !205, scopeLine: 693, flags: DIFlagPublic | DIFlagPrototyped, spFlags: 0)
!205 = !DISubroutineType(types: !206)
!206 = !{!132, !177}
!207 = !DISubprogram(name: "end", linkageName: "_ZN11xalanc_1_1011XalanVectorItNS_31MemoryManagedConstructionTraitsItEEE3endEv", scope: !99, file: !100, line: 701, type: !202, scopeLine: 701, flags: DIFlagPublic | DIFlagPrototyped, spFlags: 0)
!208 = !DISubprogram(name: "end", linkageName: "_ZNK11xalanc_1_1011XalanVectorItNS_31MemoryManagedConstructionTraitsItEEE3endEv", scope: !99, file: !100, line: 709, type: !205, scopeLine: 709, flags: DIFlagPublic | DIFlagPrototyped, spFlags: 0)
!209 = !DISubprogram(name: "rbegin", linkageName: "_ZN11xalanc_1_1011XalanVectorItNS_31MemoryManagedConstructionTraitsItEEE6rbeginEv", scope: !99, file: !100, line: 717, type: !210, scopeLine: 717, flags: DIFlagPublic | DIFlagPrototyped, spFlags: 0)
!210 = !DISubroutineType(types: !211)
!211 = !{!212, !117}
!212 = !DIDerivedType(tag: DW_TAG_typedef, name: "reverse_iterator", scope: !99, file: !100, line: 112, baseType: !213)
!213 = !DIDerivedType(tag: DW_TAG_typedef, name: "reverse_iterator_", scope: !99, file: !100, line: 96, baseType: !214)
!214 = distinct !DICompositeType(tag: DW_TAG_class_type, name: "reverse_iterator<unsigned short *>", scope: !216, file: !215, line: 125, size: 64, flags: DIFlagTypePassByReference | DIFlagNonTrivial, elements: !217, templateParams: !269, identifier: "_ZTSSt16reverse_iteratorIPtE")
!215 = !DIFile(filename: "/usr/lib/gcc/x86_64-linux-gnu/10/../../../../include/c++/10/bits/stl_iterator.h", directory: "")
!216 = !DINamespace(name: "std", scope: null)
!217 = !{!218, !241, !242, !246, !250, !255, !259, !263, !271, !276, !279, !283, !284, !285, !292, !295, !296, !297}
!218 = !DIDerivedType(tag: DW_TAG_inheritance, scope: !214, baseType: !219, flags: DIFlagPublic, extraData: i32 0)
!219 = distinct !DICompositeType(tag: DW_TAG_structure_type, name: "iterator<std::random_access_iterator_tag, unsigned short, long, unsigned short *, unsigned short &>", scope: !216, file: !220, line: 127, size: 8, flags: DIFlagTypePassByValue, elements: !221, templateParams: !222, identifier: "_ZTSSt8iteratorISt26random_access_iterator_tagtlPtRtE")
!220 = !DIFile(filename: "/usr/lib/gcc/x86_64-linux-gnu/10/../../../../include/c++/10/bits/stl_iterator_base_types.h", directory: "")
!221 = !{}
!222 = !{!223, !234, !235, !237, !239}
!223 = !DITemplateTypeParameter(name: "_Category", type: !224)
!224 = distinct !DICompositeType(tag: DW_TAG_structure_type, name: "random_access_iterator_tag", scope: !216, file: !220, line: 107, size: 8, flags: DIFlagTypePassByValue, elements: !225, identifier: "_ZTSSt26random_access_iterator_tag")
!225 = !{!226}
!226 = !DIDerivedType(tag: DW_TAG_inheritance, scope: !224, baseType: !227, extraData: i32 0)
!227 = distinct !DICompositeType(tag: DW_TAG_structure_type, name: "bidirectional_iterator_tag", scope: !216, file: !220, line: 103, size: 8, flags: DIFlagTypePassByValue, elements: !228, identifier: "_ZTSSt26bidirectional_iterator_tag")
!228 = !{!229}
!229 = !DIDerivedType(tag: DW_TAG_inheritance, scope: !227, baseType: !230, extraData: i32 0)
!230 = distinct !DICompositeType(tag: DW_TAG_structure_type, name: "forward_iterator_tag", scope: !216, file: !220, line: 99, size: 8, flags: DIFlagTypePassByValue, elements: !231, identifier: "_ZTSSt20forward_iterator_tag")
!231 = !{!232}
!232 = !DIDerivedType(tag: DW_TAG_inheritance, scope: !230, baseType: !233, extraData: i32 0)
!233 = distinct !DICompositeType(tag: DW_TAG_structure_type, name: "input_iterator_tag", scope: !216, file: !220, line: 93, size: 8, flags: DIFlagTypePassByValue, elements: !221, identifier: "_ZTSSt18input_iterator_tag")
!234 = !DITemplateTypeParameter(name: "_Tp", type: !113)
!235 = !DITemplateTypeParameter(name: "_Distance", type: !236)
!236 = !DIBasicType(name: "long int", size: 64, encoding: DW_ATE_signed)
!237 = !DITemplateTypeParameter(name: "_Pointer", type: !238)
!238 = !DIDerivedType(tag: DW_TAG_pointer_type, baseType: !113, size: 64)
!239 = !DITemplateTypeParameter(name: "_Reference", type: !240)
!240 = !DIDerivedType(tag: DW_TAG_reference_type, baseType: !113, size: 64)
!241 = !DIDerivedType(tag: DW_TAG_member, name: "current", scope: !214, file: !215, line: 133, baseType: !238, size: 64, flags: DIFlagProtected)
!242 = !DISubprogram(name: "reverse_iterator", scope: !214, file: !215, line: 161, type: !243, scopeLine: 161, flags: DIFlagPublic | DIFlagPrototyped, spFlags: 0)
!243 = !DISubroutineType(types: !244)
!244 = !{null, !245}
!245 = !DIDerivedType(tag: DW_TAG_pointer_type, baseType: !214, size: 64, flags: DIFlagArtificial | DIFlagObjectPointer)
!246 = !DISubprogram(name: "reverse_iterator", scope: !214, file: !215, line: 167, type: !247, scopeLine: 167, flags: DIFlagPublic | DIFlagExplicit | DIFlagPrototyped, spFlags: 0)
!247 = !DISubroutineType(types: !248)
!248 = !{null, !245, !249}
!249 = !DIDerivedType(tag: DW_TAG_typedef, name: "iterator_type", scope: !214, file: !215, line: 138, baseType: !238)
!250 = !DISubprogram(name: "reverse_iterator", scope: !214, file: !215, line: 173, type: !251, scopeLine: 173, flags: DIFlagPublic | DIFlagPrototyped, spFlags: 0)
!251 = !DISubroutineType(types: !252)
!252 = !{null, !245, !253}
!253 = !DIDerivedType(tag: DW_TAG_reference_type, baseType: !254, size: 64)
!254 = !DIDerivedType(tag: DW_TAG_const_type, baseType: !214)
!255 = !DISubprogram(name: "operator=", linkageName: "_ZNSt16reverse_iteratorIPtEaSERKS1_", scope: !214, file: !215, line: 177, type: !256, scopeLine: 177, flags: DIFlagPublic | DIFlagPrototyped, spFlags: 0)
!256 = !DISubroutineType(types: !257)
!257 = !{!258, !245, !253}
!258 = !DIDerivedType(tag: DW_TAG_reference_type, baseType: !214, size: 64)
!259 = !DISubprogram(name: "base", linkageName: "_ZNKSt16reverse_iteratorIPtE4baseEv", scope: !214, file: !215, line: 193, type: !260, scopeLine: 193, flags: DIFlagPublic | DIFlagPrototyped, spFlags: 0)
!260 = !DISubroutineType(types: !261)
!261 = !{!249, !262}
!262 = !DIDerivedType(tag: DW_TAG_pointer_type, baseType: !254, size: 64, flags: DIFlagArtificial | DIFlagObjectPointer)
!263 = !DISubprogram(name: "operator*", linkageName: "_ZNKSt16reverse_iteratorIPtEdeEv", scope: !214, file: !215, line: 207, type: !264, scopeLine: 207, flags: DIFlagPublic | DIFlagPrototyped, spFlags: 0)
!264 = !DISubroutineType(types: !265)
!265 = !{!266, !262}
!266 = !DIDerivedType(tag: DW_TAG_typedef, name: "reference", scope: !214, file: !215, line: 141, baseType: !267)
!267 = !DIDerivedType(tag: DW_TAG_typedef, name: "reference", scope: !268, file: !220, line: 216, baseType: !240)
!268 = distinct !DICompositeType(tag: DW_TAG_structure_type, name: "iterator_traits<unsigned short *>", scope: !216, file: !220, line: 210, size: 8, flags: DIFlagTypePassByValue, elements: !221, templateParams: !269, identifier: "_ZTSSt15iterator_traitsIPtE")
!269 = !{!270}
!270 = !DITemplateTypeParameter(name: "_Iterator", type: !238)
!271 = !DISubprogram(name: "operator->", linkageName: "_ZNKSt16reverse_iteratorIPtEptEv", scope: !214, file: !215, line: 219, type: !272, scopeLine: 219, flags: DIFlagPublic | DIFlagPrototyped, spFlags: 0)
!272 = !DISubroutineType(types: !273)
!273 = !{!274, !262}
!274 = !DIDerivedType(tag: DW_TAG_typedef, name: "pointer", scope: !214, file: !215, line: 140, baseType: !275)
!275 = !DIDerivedType(tag: DW_TAG_typedef, name: "pointer", scope: !268, file: !220, line: 215, baseType: !238)
!276 = !DISubprogram(name: "operator++", linkageName: "_ZNSt16reverse_iteratorIPtEppEv", scope: !214, file: !215, line: 238, type: !277, scopeLine: 238, flags: DIFlagPublic | DIFlagPrototyped, spFlags: 0)
!277 = !DISubroutineType(types: !278)
!278 = !{!258, !245}
!279 = !DISubprogram(name: "operator++", linkageName: "_ZNSt16reverse_iteratorIPtEppEi", scope: !214, file: !215, line: 250, type: !280, scopeLine: 250, flags: DIFlagPublic | DIFlagPrototyped, spFlags: 0)
!280 = !DISubroutineType(types: !281)
!281 = !{!214, !245, !282}
!282 = !DIBasicType(name: "int", size: 32, encoding: DW_ATE_signed)
!283 = !DISubprogram(name: "operator--", linkageName: "_ZNSt16reverse_iteratorIPtEmmEv", scope: !214, file: !215, line: 263, type: !277, scopeLine: 263, flags: DIFlagPublic | DIFlagPrototyped, spFlags: 0)
!284 = !DISubprogram(name: "operator--", linkageName: "_ZNSt16reverse_iteratorIPtEmmEi", scope: !214, file: !215, line: 275, type: !280, scopeLine: 275, flags: DIFlagPublic | DIFlagPrototyped, spFlags: 0)
!285 = !DISubprogram(name: "operator+", linkageName: "_ZNKSt16reverse_iteratorIPtEplEl", scope: !214, file: !215, line: 288, type: !286, scopeLine: 288, flags: DIFlagPublic | DIFlagPrototyped, spFlags: 0)
!286 = !DISubroutineType(types: !287)
!287 = !{!214, !262, !288}
!288 = !DIDerivedType(tag: DW_TAG_typedef, name: "difference_type", scope: !214, file: !215, line: 139, baseType: !289)
!289 = !DIDerivedType(tag: DW_TAG_typedef, name: "difference_type", scope: !268, file: !220, line: 214, baseType: !290)
!290 = !DIDerivedType(tag: DW_TAG_typedef, name: "ptrdiff_t", scope: !216, file: !291, line: 261, baseType: !236)
!291 = !DIFile(filename: "/usr/lib/gcc/x86_64-linux-gnu/10/../../../../include/x86_64-linux-gnu/c++/10/bits/c++config.h", directory: "")
!292 = !DISubprogram(name: "operator+=", linkageName: "_ZNSt16reverse_iteratorIPtEpLEl", scope: !214, file: !215, line: 298, type: !293, scopeLine: 298, flags: DIFlagPublic | DIFlagPrototyped, spFlags: 0)
!293 = !DISubroutineType(types: !294)
!294 = !{!258, !245, !288}
!295 = !DISubprogram(name: "operator-", linkageName: "_ZNKSt16reverse_iteratorIPtEmiEl", scope: !214, file: !215, line: 310, type: !286, scopeLine: 310, flags: DIFlagPublic | DIFlagPrototyped, spFlags: 0)
!296 = !DISubprogram(name: "operator-=", linkageName: "_ZNSt16reverse_iteratorIPtEmIEl", scope: !214, file: !215, line: 320, type: !293, scopeLine: 320, flags: DIFlagPublic | DIFlagPrototyped, spFlags: 0)
!297 = !DISubprogram(name: "operator[]", linkageName: "_ZNKSt16reverse_iteratorIPtEixEl", scope: !214, file: !215, line: 332, type: !298, scopeLine: 332, flags: DIFlagPublic | DIFlagPrototyped, spFlags: 0)
!298 = !DISubroutineType(types: !299)
!299 = !{!266, !262, !288}
!300 = !DISubprogram(name: "rbegin", linkageName: "_ZNK11xalanc_1_1011XalanVectorItNS_31MemoryManagedConstructionTraitsItEEE6rbeginEv", scope: !99, file: !100, line: 725, type: !301, scopeLine: 725, flags: DIFlagPublic | DIFlagPrototyped, spFlags: 0)
!301 = !DISubroutineType(types: !302)
!302 = !{!303, !177}
!303 = !DIDerivedType(tag: DW_TAG_typedef, name: "const_reverse_iterator", scope: !99, file: !100, line: 113, baseType: !304)
!304 = !DIDerivedType(tag: DW_TAG_typedef, name: "const_reverse_iterator_", scope: !99, file: !100, line: 97, baseType: !305)
!305 = distinct !DICompositeType(tag: DW_TAG_class_type, name: "reverse_iterator<const unsigned short *>", scope: !216, file: !215, line: 125, size: 64, flags: DIFlagTypePassByReference | DIFlagNonTrivial, elements: !306, templateParams: !343, identifier: "_ZTSSt16reverse_iteratorIPKtE")
!306 = !{!307, !315, !316, !320, !324, !329, !333, !337, !345, !350, !353, !356, !357, !358, !363, !366, !367, !368}
!307 = !DIDerivedType(tag: DW_TAG_inheritance, scope: !305, baseType: !308, flags: DIFlagPublic, extraData: i32 0)
!308 = distinct !DICompositeType(tag: DW_TAG_structure_type, name: "iterator<std::random_access_iterator_tag, unsigned short, long, const unsigned short *, const unsigned short &>", scope: !216, file: !220, line: 127, size: 8, flags: DIFlagTypePassByValue, elements: !221, templateParams: !309, identifier: "_ZTSSt8iteratorISt26random_access_iterator_tagtlPKtRS1_E")
!309 = !{!223, !234, !235, !310, !313}
!310 = !DITemplateTypeParameter(name: "_Pointer", type: !311)
!311 = !DIDerivedType(tag: DW_TAG_pointer_type, baseType: !312, size: 64)
!312 = !DIDerivedType(tag: DW_TAG_const_type, baseType: !113)
!313 = !DITemplateTypeParameter(name: "_Reference", type: !314)
!314 = !DIDerivedType(tag: DW_TAG_reference_type, baseType: !312, size: 64)
!315 = !DIDerivedType(tag: DW_TAG_member, name: "current", scope: !305, file: !215, line: 133, baseType: !311, size: 64, flags: DIFlagProtected)
!316 = !DISubprogram(name: "reverse_iterator", scope: !305, file: !215, line: 161, type: !317, scopeLine: 161, flags: DIFlagPublic | DIFlagPrototyped, spFlags: 0)
!317 = !DISubroutineType(types: !318)
!318 = !{null, !319}
!319 = !DIDerivedType(tag: DW_TAG_pointer_type, baseType: !305, size: 64, flags: DIFlagArtificial | DIFlagObjectPointer)
!320 = !DISubprogram(name: "reverse_iterator", scope: !305, file: !215, line: 167, type: !321, scopeLine: 167, flags: DIFlagPublic | DIFlagExplicit | DIFlagPrototyped, spFlags: 0)
!321 = !DISubroutineType(types: !322)
!322 = !{null, !319, !323}
!323 = !DIDerivedType(tag: DW_TAG_typedef, name: "iterator_type", scope: !305, file: !215, line: 138, baseType: !311)
!324 = !DISubprogram(name: "reverse_iterator", scope: !305, file: !215, line: 173, type: !325, scopeLine: 173, flags: DIFlagPublic | DIFlagPrototyped, spFlags: 0)
!325 = !DISubroutineType(types: !326)
!326 = !{null, !319, !327}
!327 = !DIDerivedType(tag: DW_TAG_reference_type, baseType: !328, size: 64)
!328 = !DIDerivedType(tag: DW_TAG_const_type, baseType: !305)
!329 = !DISubprogram(name: "operator=", linkageName: "_ZNSt16reverse_iteratorIPKtEaSERKS2_", scope: !305, file: !215, line: 177, type: !330, scopeLine: 177, flags: DIFlagPublic | DIFlagPrototyped, spFlags: 0)
!330 = !DISubroutineType(types: !331)
!331 = !{!332, !319, !327}
!332 = !DIDerivedType(tag: DW_TAG_reference_type, baseType: !305, size: 64)
!333 = !DISubprogram(name: "base", linkageName: "_ZNKSt16reverse_iteratorIPKtE4baseEv", scope: !305, file: !215, line: 193, type: !334, scopeLine: 193, flags: DIFlagPublic | DIFlagPrototyped, spFlags: 0)
!334 = !DISubroutineType(types: !335)
!335 = !{!323, !336}
!336 = !DIDerivedType(tag: DW_TAG_pointer_type, baseType: !328, size: 64, flags: DIFlagArtificial | DIFlagObjectPointer)
!337 = !DISubprogram(name: "operator*", linkageName: "_ZNKSt16reverse_iteratorIPKtEdeEv", scope: !305, file: !215, line: 207, type: !338, scopeLine: 207, flags: DIFlagPublic | DIFlagPrototyped, spFlags: 0)
!338 = !DISubroutineType(types: !339)
!339 = !{!340, !336}
!340 = !DIDerivedType(tag: DW_TAG_typedef, name: "reference", scope: !305, file: !215, line: 141, baseType: !341)
!341 = !DIDerivedType(tag: DW_TAG_typedef, name: "reference", scope: !342, file: !220, line: 227, baseType: !314)
!342 = distinct !DICompositeType(tag: DW_TAG_structure_type, name: "iterator_traits<const unsigned short *>", scope: !216, file: !220, line: 221, size: 8, flags: DIFlagTypePassByValue, elements: !221, templateParams: !343, identifier: "_ZTSSt15iterator_traitsIPKtE")
!343 = !{!344}
!344 = !DITemplateTypeParameter(name: "_Iterator", type: !311)
!345 = !DISubprogram(name: "operator->", linkageName: "_ZNKSt16reverse_iteratorIPKtEptEv", scope: !305, file: !215, line: 219, type: !346, scopeLine: 219, flags: DIFlagPublic | DIFlagPrototyped, spFlags: 0)
!346 = !DISubroutineType(types: !347)
!347 = !{!348, !336}
!348 = !DIDerivedType(tag: DW_TAG_typedef, name: "pointer", scope: !305, file: !215, line: 140, baseType: !349)
!349 = !DIDerivedType(tag: DW_TAG_typedef, name: "pointer", scope: !342, file: !220, line: 226, baseType: !311)
!350 = !DISubprogram(name: "operator++", linkageName: "_ZNSt16reverse_iteratorIPKtEppEv", scope: !305, file: !215, line: 238, type: !351, scopeLine: 238, flags: DIFlagPublic | DIFlagPrototyped, spFlags: 0)
!351 = !DISubroutineType(types: !352)
!352 = !{!332, !319}
!353 = !DISubprogram(name: "operator++", linkageName: "_ZNSt16reverse_iteratorIPKtEppEi", scope: !305, file: !215, line: 250, type: !354, scopeLine: 250, flags: DIFlagPublic | DIFlagPrototyped, spFlags: 0)
!354 = !DISubroutineType(types: !355)
!355 = !{!305, !319, !282}
!356 = !DISubprogram(name: "operator--", linkageName: "_ZNSt16reverse_iteratorIPKtEmmEv", scope: !305, file: !215, line: 263, type: !351, scopeLine: 263, flags: DIFlagPublic | DIFlagPrototyped, spFlags: 0)
!357 = !DISubprogram(name: "operator--", linkageName: "_ZNSt16reverse_iteratorIPKtEmmEi", scope: !305, file: !215, line: 275, type: !354, scopeLine: 275, flags: DIFlagPublic | DIFlagPrototyped, spFlags: 0)
!358 = !DISubprogram(name: "operator+", linkageName: "_ZNKSt16reverse_iteratorIPKtEplEl", scope: !305, file: !215, line: 288, type: !359, scopeLine: 288, flags: DIFlagPublic | DIFlagPrototyped, spFlags: 0)
!359 = !DISubroutineType(types: !360)
!360 = !{!305, !336, !361}
!361 = !DIDerivedType(tag: DW_TAG_typedef, name: "difference_type", scope: !305, file: !215, line: 139, baseType: !362)
!362 = !DIDerivedType(tag: DW_TAG_typedef, name: "difference_type", scope: !342, file: !220, line: 225, baseType: !290)
!363 = !DISubprogram(name: "operator+=", linkageName: "_ZNSt16reverse_iteratorIPKtEpLEl", scope: !305, file: !215, line: 298, type: !364, scopeLine: 298, flags: DIFlagPublic | DIFlagPrototyped, spFlags: 0)
!364 = !DISubroutineType(types: !365)
!365 = !{!332, !319, !361}
!366 = !DISubprogram(name: "operator-", linkageName: "_ZNKSt16reverse_iteratorIPKtEmiEl", scope: !305, file: !215, line: 310, type: !359, scopeLine: 310, flags: DIFlagPublic | DIFlagPrototyped, spFlags: 0)
!367 = !DISubprogram(name: "operator-=", linkageName: "_ZNSt16reverse_iteratorIPKtEmIEl", scope: !305, file: !215, line: 320, type: !364, scopeLine: 320, flags: DIFlagPublic | DIFlagPrototyped, spFlags: 0)
!368 = !DISubprogram(name: "operator[]", linkageName: "_ZNKSt16reverse_iteratorIPKtEixEl", scope: !305, file: !215, line: 332, type: !369, scopeLine: 332, flags: DIFlagPublic | DIFlagPrototyped, spFlags: 0)
!369 = !DISubroutineType(types: !370)
!370 = !{!340, !336, !361}
!371 = !DISubprogram(name: "rend", linkageName: "_ZN11xalanc_1_1011XalanVectorItNS_31MemoryManagedConstructionTraitsItEEE4rendEv", scope: !99, file: !100, line: 733, type: !210, scopeLine: 733, flags: DIFlagPublic | DIFlagPrototyped, spFlags: 0)
!372 = !DISubprogram(name: "rend", linkageName: "_ZNK11xalanc_1_1011XalanVectorItNS_31MemoryManagedConstructionTraitsItEEE4rendEv", scope: !99, file: !100, line: 741, type: !301, scopeLine: 741, flags: DIFlagPublic | DIFlagPrototyped, spFlags: 0)
!373 = !DISubprogram(name: "at", linkageName: "_ZN11xalanc_1_1011XalanVectorItNS_31MemoryManagedConstructionTraitsItEEE2atEm", scope: !99, file: !100, line: 750, type: !374, scopeLine: 750, flags: DIFlagPublic | DIFlagPrototyped, spFlags: 0)
!374 = !DISubroutineType(types: !375)
!375 = !{!193, !117, !105}
!376 = !DISubprogram(name: "at", linkageName: "_ZNK11xalanc_1_1011XalanVectorItNS_31MemoryManagedConstructionTraitsItEEE2atEm", scope: !99, file: !100, line: 761, type: !377, scopeLine: 761, flags: DIFlagPublic | DIFlagPrototyped, spFlags: 0)
!377 = !DISubroutineType(types: !378)
!378 = !{!198, !177, !105}
!379 = !DISubprogram(name: "operator[]", linkageName: "_ZN11xalanc_1_1011XalanVectorItNS_31MemoryManagedConstructionTraitsItEEEixEm", scope: !99, file: !100, line: 772, type: !374, scopeLine: 772, flags: DIFlagPublic | DIFlagPrototyped, spFlags: 0)
!380 = !DISubprogram(name: "operator[]", linkageName: "_ZNK11xalanc_1_1011XalanVectorItNS_31MemoryManagedConstructionTraitsItEEEixEm", scope: !99, file: !100, line: 780, type: !377, scopeLine: 780, flags: DIFlagPublic | DIFlagPrototyped, spFlags: 0)
!381 = !DISubprogram(name: "clear", linkageName: "_ZN11xalanc_1_1011XalanVectorItNS_31MemoryManagedConstructionTraitsItEEE5clearEv", scope: !99, file: !100, line: 788, type: !143, scopeLine: 788, flags: DIFlagPublic | DIFlagPrototyped, spFlags: 0)
!382 = !DISubprogram(name: "operator=", linkageName: "_ZN11xalanc_1_1011XalanVectorItNS_31MemoryManagedConstructionTraitsItEEEaSERKS3_", scope: !99, file: !100, line: 802, type: !383, scopeLine: 802, flags: DIFlagPublic | DIFlagPrototyped, spFlags: 0)
!383 = !DISubroutineType(types: !384)
!384 = !{!385, !117, !126}
!385 = !DIDerivedType(tag: DW_TAG_reference_type, baseType: !128, size: 64)
!386 = !DISubprogram(name: "swap", linkageName: "_ZN11xalanc_1_1011XalanVectorItNS_31MemoryManagedConstructionTraitsItEEE4swapERS3_", scope: !99, file: !100, line: 848, type: !387, scopeLine: 848, flags: DIFlagPublic | DIFlagPrototyped, spFlags: 0)
!387 = !DISubroutineType(types: !388)
!388 = !{null, !117, !385}
!389 = !DISubprogram(name: "getMemoryManager", linkageName: "_ZNK11xalanc_1_1011XalanVectorItNS_31MemoryManagedConstructionTraitsItEEE16getMemoryManagerEv", scope: !99, file: !100, line: 871, type: !390, scopeLine: 871, flags: DIFlagPublic | DIFlagPrototyped, spFlags: 0)
!390 = !DISubroutineType(types: !391)
!391 = !{!392, !177}
!392 = !DIDerivedType(tag: DW_TAG_pointer_type, baseType: !393, size: 64)
!393 = !DIDerivedType(tag: DW_TAG_const_type, baseType: !81)
!394 = !DISubprogram(name: "getMemoryManager", linkageName: "_ZN11xalanc_1_1011XalanVectorItNS_31MemoryManagedConstructionTraitsItEEE16getMemoryManagerEv", scope: !99, file: !100, line: 877, type: !395, scopeLine: 877, flags: DIFlagPublic | DIFlagPrototyped, spFlags: 0)
!395 = !DISubroutineType(types: !396)
!396 = !{!118, !117}
!397 = !DISubprogram(name: "detach", linkageName: "_ZN11xalanc_1_1011XalanVectorItNS_31MemoryManagedConstructionTraitsItEEE6detachEv", scope: !99, file: !100, line: 889, type: !398, scopeLine: 889, flags: DIFlagPublic | DIFlagPrototyped, spFlags: 0)
!398 = !DISubroutineType(types: !399)
!399 = !{!400, !117}
!400 = !DIDerivedType(tag: DW_TAG_typedef, name: "pointer", scope: !99, file: !100, line: 67, baseType: !111)
!401 = !DISubprogram(name: "invariants", linkageName: "_ZNK11xalanc_1_1011XalanVectorItNS_31MemoryManagedConstructionTraitsItEEE10invariantsEv", scope: !99, file: !100, line: 905, type: !402, scopeLine: 905, flags: DIFlagPrototyped, spFlags: 0)
!402 = !DISubroutineType(types: !403)
!403 = !{null, !177}
!404 = !DISubprogram(name: "local_distance", linkageName: "_ZN11xalanc_1_1011XalanVectorItNS_31MemoryManagedConstructionTraitsItEEE14local_distanceEPKtS5_", scope: !99, file: !100, line: 918, type: !405, scopeLine: 918, flags: DIFlagPrototyped, spFlags: 0)
!405 = !DISubroutineType(types: !406)
!406 = !{!407, !117, !132, !132}
!407 = !DIDerivedType(tag: DW_TAG_typedef, name: "size_type", scope: !99, file: !100, line: 71, baseType: !106)
!408 = !DISubprogram(name: "allocate", linkageName: "_ZN11xalanc_1_1011XalanVectorItNS_31MemoryManagedConstructionTraitsItEEE8allocateEm", scope: !99, file: !100, line: 938, type: !409, scopeLine: 938, flags: DIFlagPrototyped, spFlags: 0)
!409 = !DISubroutineType(types: !410)
!410 = !{!111, !117, !105}
!411 = !DISubprogram(name: "deallocate", linkageName: "_ZN11xalanc_1_1011XalanVectorItNS_31MemoryManagedConstructionTraitsItEEE10deallocateEPt", scope: !99, file: !100, line: 952, type: !412, scopeLine: 952, flags: DIFlagPrototyped, spFlags: 0)
!412 = !DISubroutineType(types: !413)
!413 = !{null, !117, !111}
!414 = !DISubprogram(name: "destroy", linkageName: "_ZN11xalanc_1_1011XalanVectorItNS_31MemoryManagedConstructionTraitsItEEE7destroyERt", scope: !99, file: !100, line: 961, type: !415, scopeLine: 961, flags: DIFlagPrototyped | DIFlagStaticMember, spFlags: 0)
!415 = !DISubroutineType(types: !416)
!416 = !{null, !194}
!417 = !DISubprogram(name: "destroy", linkageName: "_ZN11xalanc_1_1011XalanVectorItNS_31MemoryManagedConstructionTraitsItEEE7destroyEPtS4_", scope: !99, file: !100, line: 967, type: !418, scopeLine: 967, flags: DIFlagPrototyped | DIFlagStaticMember, spFlags: 0)
!418 = !DISubroutineType(types: !419)
!419 = !{null, !152, !152}
!420 = !DISubprogram(name: "doPushBack", linkageName: "_ZN11xalanc_1_1011XalanVectorItNS_31MemoryManagedConstructionTraitsItEEE10doPushBackERKt", scope: !99, file: !100, line: 978, type: !146, scopeLine: 978, flags: DIFlagPrototyped, spFlags: 0)
!421 = !DISubprogram(name: "ensureCapacity", linkageName: "_ZN11xalanc_1_1011XalanVectorItNS_31MemoryManagedConstructionTraitsItEEE14ensureCapacityEm", scope: !99, file: !100, line: 1006, type: !422, scopeLine: 1006, flags: DIFlagPrototyped, spFlags: 0)
!422 = !DISubroutineType(types: !423)
!423 = !{!400, !117, !105}
!424 = !DISubprogram(name: "doReserve", linkageName: "_ZN11xalanc_1_1011XalanVectorItNS_31MemoryManagedConstructionTraitsItEEE9doReserveEm", scope: !99, file: !100, line: 1017, type: !181, scopeLine: 1017, flags: DIFlagPrototyped, spFlags: 0)
!425 = !DISubprogram(name: "endPointer", linkageName: "_ZN11xalanc_1_1011XalanVectorItNS_31MemoryManagedConstructionTraitsItEEE10endPointerEv", scope: !99, file: !100, line: 1031, type: !398, scopeLine: 1031, flags: DIFlagPrototyped, spFlags: 0)
!426 = !DISubprogram(name: "endPointer", linkageName: "_ZNK11xalanc_1_1011XalanVectorItNS_31MemoryManagedConstructionTraitsItEEE10endPointerEv", scope: !99, file: !100, line: 1037, type: !427, scopeLine: 1037, flags: DIFlagPrototyped, spFlags: 0)
!427 = !DISubroutineType(types: !428)
!428 = !{!429, !177}
!429 = !DIDerivedType(tag: DW_TAG_typedef, name: "const_pointer", scope: !99, file: !100, line: 68, baseType: !133)
!430 = !DISubprogram(name: "outOfRange", linkageName: "_ZN11xalanc_1_1011XalanVectorItNS_31MemoryManagedConstructionTraitsItEEE10outOfRangeEv", scope: !99, file: !100, line: 1043, type: !431, scopeLine: 1043, flags: DIFlagPrototyped | DIFlagStaticMember, spFlags: 0)
!431 = !DISubroutineType(types: !432)
!432 = !{null}
!433 = !DISubprogram(name: "shrinkToSize", linkageName: "_ZN11xalanc_1_1011XalanVectorItNS_31MemoryManagedConstructionTraitsItEEE12shrinkToSizeEm", scope: !99, file: !100, line: 1049, type: !181, scopeLine: 1049, flags: DIFlagPrototyped, spFlags: 0)
!434 = !DISubprogram(name: "shrinkCount", linkageName: "_ZN11xalanc_1_1011XalanVectorItNS_31MemoryManagedConstructionTraitsItEEE11shrinkCountEm", scope: !99, file: !100, line: 1060, type: !181, scopeLine: 1060, flags: DIFlagPrototyped, spFlags: 0)
!435 = !DISubprogram(name: "local_max", linkageName: "_ZN11xalanc_1_1011XalanVectorItNS_31MemoryManagedConstructionTraitsItEEE9local_maxEmm", scope: !99, file: !100, line: 1073, type: !436, scopeLine: 1073, flags: DIFlagPrototyped, spFlags: 0)
!436 = !DISubroutineType(types: !437)
!437 = !{!407, !117, !105, !105}
!438 = !{!439, !440}
!439 = !DITemplateTypeParameter(name: "Type", type: !113)
!440 = !DITemplateTypeParameter(name: "ConstructionTraits", type: !441)
!441 = distinct !DICompositeType(tag: DW_TAG_structure_type, name: "MemoryManagedConstructionTraits<unsigned short>", scope: !6, file: !80, line: 462, size: 8, flags: DIFlagTypePassByValue, elements: !221, templateParams: !442, identifier: "_ZTSN11xalanc_1_1031MemoryManagedConstructionTraitsItEE")
!442 = !{!443}
!443 = !DITemplateTypeParameter(name: "C", type: !113)
!444 = !DIDerivedType(tag: DW_TAG_member, name: "m_size", scope: !91, file: !92, line: 795, baseType: !96, size: 32, offset: 256)
!445 = !DIDerivedType(tag: DW_TAG_member, name: "s_empty", scope: !91, file: !92, line: 797, baseType: !446, flags: DIFlagStaticMember)
!446 = !DIDerivedType(tag: DW_TAG_const_type, baseType: !447)
!447 = !DIDerivedType(tag: DW_TAG_typedef, name: "XalanDOMChar", scope: !6, file: !448, line: 127, baseType: !113)
!448 = !DIFile(filename: "./xalanc/Include/PlatformDefinitions.hpp", directory: "/home/venkat/IF-DV/spec_build_release/CPU_2017/benchspec/CPU/523.xalancbmk_r/build/build_base_ld-loop-ext-m64.0000")
!449 = !DISubprogram(name: "XalanDOMString", scope: !91, file: !92, line: 66, type: !450, scopeLine: 66, flags: DIFlagPublic | DIFlagPrototyped, spFlags: 0)
!450 = !DISubroutineType(types: !451)
!451 = !{null, !452, !78}
!452 = !DIDerivedType(tag: DW_TAG_pointer_type, baseType: !91, size: 64, flags: DIFlagArtificial | DIFlagObjectPointer)
!453 = !DISubprogram(name: "XalanDOMString", scope: !91, file: !92, line: 69, type: !454, scopeLine: 69, flags: DIFlagPublic | DIFlagExplicit | DIFlagPrototyped, spFlags: 0)
!454 = !DISubroutineType(types: !455)
!455 = !{null, !452, !456, !78, !96}
!456 = !DIDerivedType(tag: DW_TAG_pointer_type, baseType: !457, size: 64)
!457 = !DIDerivedType(tag: DW_TAG_const_type, baseType: !458)
!458 = !DIBasicType(name: "char", size: 8, encoding: DW_ATE_signed_char)
!459 = !DISubprogram(name: "XalanDOMString", scope: !91, file: !92, line: 74, type: !460, scopeLine: 74, flags: DIFlagPublic | DIFlagPrototyped, spFlags: 0)
!460 = !DISubroutineType(types: !461)
!461 = !{null, !452, !89, !78, !96, !96}
!462 = !DISubprogram(name: "XalanDOMString", scope: !91, file: !92, line: 81, type: !463, scopeLine: 81, flags: DIFlagPublic | DIFlagExplicit | DIFlagPrototyped, spFlags: 0)
!463 = !DISubroutineType(types: !464)
!464 = !{null, !452, !465, !78, !96}
!465 = !DIDerivedType(tag: DW_TAG_pointer_type, baseType: !446, size: 64)
!466 = !DISubprogram(name: "XalanDOMString", scope: !91, file: !92, line: 86, type: !467, scopeLine: 86, flags: DIFlagPublic | DIFlagPrototyped, spFlags: 0)
!467 = !DISubroutineType(types: !468)
!468 = !{null, !452, !96, !447, !78}
!469 = !DISubprogram(name: "clone", linkageName: "_ZN11xalanc_1_1014XalanDOMString5cloneERN11xercesc_2_713MemoryManagerE", scope: !91, file: !92, line: 92, type: !470, scopeLine: 92, flags: DIFlagPublic | DIFlagPrototyped, spFlags: 0)
!470 = !DISubroutineType(types: !471)
!471 = !{!472, !452, !78}
!472 = !DIDerivedType(tag: DW_TAG_pointer_type, baseType: !91, size: 64)
!473 = !DISubprogram(name: "~XalanDOMString", scope: !91, file: !92, line: 94, type: !474, scopeLine: 94, flags: DIFlagPublic | DIFlagPrototyped, spFlags: 0)
!474 = !DISubroutineType(types: !475)
!475 = !{null, !452}
!476 = !DISubprogram(name: "operator=", linkageName: "_ZN11xalanc_1_1014XalanDOMStringaSERKS0_", scope: !91, file: !92, line: 99, type: !477, scopeLine: 99, flags: DIFlagPublic | DIFlagPrototyped, spFlags: 0)
!477 = !DISubroutineType(types: !478)
!478 = !{!479, !452, !89}
!479 = !DIDerivedType(tag: DW_TAG_reference_type, baseType: !91, size: 64)
!480 = !DISubprogram(name: "operator=", linkageName: "_ZN11xalanc_1_1014XalanDOMStringaSEPKt", scope: !91, file: !92, line: 105, type: !481, scopeLine: 105, flags: DIFlagPublic | DIFlagPrototyped, spFlags: 0)
!481 = !DISubroutineType(types: !482)
!482 = !{!479, !452, !465}
!483 = !DISubprogram(name: "operator=", linkageName: "_ZN11xalanc_1_1014XalanDOMStringaSEPKc", scope: !91, file: !92, line: 111, type: !484, scopeLine: 111, flags: DIFlagPublic | DIFlagPrototyped, spFlags: 0)
!484 = !DISubroutineType(types: !485)
!485 = !{!479, !452, !456}
!486 = !DISubprogram(name: "operator=", linkageName: "_ZN11xalanc_1_1014XalanDOMStringaSEt", scope: !91, file: !92, line: 117, type: !487, scopeLine: 117, flags: DIFlagPublic | DIFlagPrototyped, spFlags: 0)
!487 = !DISubroutineType(types: !488)
!488 = !{!479, !452, !447}
!489 = !DISubprogram(name: "begin", linkageName: "_ZN11xalanc_1_1014XalanDOMString5beginEv", scope: !91, file: !92, line: 123, type: !490, scopeLine: 123, flags: DIFlagPublic | DIFlagPrototyped, spFlags: 0)
!490 = !DISubroutineType(types: !491)
!491 = !{!492, !452}
!492 = !DIDerivedType(tag: DW_TAG_typedef, name: "iterator", scope: !91, file: !92, line: 55, baseType: !152)
!493 = !DISubprogram(name: "begin", linkageName: "_ZNK11xalanc_1_1014XalanDOMString5beginEv", scope: !91, file: !92, line: 131, type: !494, scopeLine: 131, flags: DIFlagPublic | DIFlagPrototyped, spFlags: 0)
!494 = !DISubroutineType(types: !495)
!495 = !{!496, !497}
!496 = !DIDerivedType(tag: DW_TAG_typedef, name: "const_iterator", scope: !91, file: !92, line: 56, baseType: !132)
!497 = !DIDerivedType(tag: DW_TAG_pointer_type, baseType: !90, size: 64, flags: DIFlagArtificial | DIFlagObjectPointer)
!498 = !DISubprogram(name: "end", linkageName: "_ZN11xalanc_1_1014XalanDOMString3endEv", scope: !91, file: !92, line: 139, type: !490, scopeLine: 139, flags: DIFlagPublic | DIFlagPrototyped, spFlags: 0)
!499 = !DISubprogram(name: "end", linkageName: "_ZNK11xalanc_1_1014XalanDOMString3endEv", scope: !91, file: !92, line: 147, type: !494, scopeLine: 147, flags: DIFlagPublic | DIFlagPrototyped, spFlags: 0)
!500 = !DISubprogram(name: "rbegin", linkageName: "_ZN11xalanc_1_1014XalanDOMString6rbeginEv", scope: !91, file: !92, line: 155, type: !501, scopeLine: 155, flags: DIFlagPublic | DIFlagPrototyped, spFlags: 0)
!501 = !DISubroutineType(types: !502)
!502 = !{!503, !452}
!503 = !DIDerivedType(tag: DW_TAG_typedef, name: "reverse_iterator", scope: !91, file: !92, line: 57, baseType: !212)
!504 = !DISubprogram(name: "rbegin", linkageName: "_ZNK11xalanc_1_1014XalanDOMString6rbeginEv", scope: !91, file: !92, line: 170, type: !505, scopeLine: 170, flags: DIFlagPublic | DIFlagPrototyped, spFlags: 0)
!505 = !DISubroutineType(types: !506)
!506 = !{!507, !497}
!507 = !DIDerivedType(tag: DW_TAG_typedef, name: "const_reverse_iterator", scope: !91, file: !92, line: 58, baseType: !303)
!508 = !DISubprogram(name: "rend", linkageName: "_ZN11xalanc_1_1014XalanDOMString4rendEv", scope: !91, file: !92, line: 185, type: !501, scopeLine: 185, flags: DIFlagPublic | DIFlagPrototyped, spFlags: 0)
!509 = !DISubprogram(name: "rend", linkageName: "_ZNK11xalanc_1_1014XalanDOMString4rendEv", scope: !91, file: !92, line: 193, type: !505, scopeLine: 193, flags: DIFlagPublic | DIFlagPrototyped, spFlags: 0)
!510 = !DISubprogram(name: "size", linkageName: "_ZNK11xalanc_1_1014XalanDOMString4sizeEv", scope: !91, file: !92, line: 201, type: !511, scopeLine: 201, flags: DIFlagPublic | DIFlagPrototyped, spFlags: 0)
!511 = !DISubroutineType(types: !512)
!512 = !{!96, !497}
!513 = !DISubprogram(name: "length", linkageName: "_ZNK11xalanc_1_1014XalanDOMString6lengthEv", scope: !91, file: !92, line: 209, type: !511, scopeLine: 209, flags: DIFlagPublic | DIFlagPrototyped, spFlags: 0)
!514 = !DISubprogram(name: "max_size", linkageName: "_ZNK11xalanc_1_1014XalanDOMString8max_sizeEv", scope: !91, file: !92, line: 217, type: !511, scopeLine: 217, flags: DIFlagPublic | DIFlagPrototyped, spFlags: 0)
!515 = !DISubprogram(name: "resize", linkageName: "_ZN11xalanc_1_1014XalanDOMString6resizeEjt", scope: !91, file: !92, line: 225, type: !516, scopeLine: 225, flags: DIFlagPublic | DIFlagPrototyped, spFlags: 0)
!516 = !DISubroutineType(types: !517)
!517 = !{null, !452, !96, !447}
!518 = !DISubprogram(name: "resize", linkageName: "_ZN11xalanc_1_1014XalanDOMString6resizeEj", scope: !91, file: !92, line: 230, type: !519, scopeLine: 230, flags: DIFlagPublic | DIFlagPrototyped, spFlags: 0)
!519 = !DISubroutineType(types: !520)
!520 = !{null, !452, !96}
!521 = !DISubprogram(name: "capacity", linkageName: "_ZNK11xalanc_1_1014XalanDOMString8capacityEv", scope: !91, file: !92, line: 238, type: !511, scopeLine: 238, flags: DIFlagPublic | DIFlagPrototyped, spFlags: 0)
!522 = !DISubprogram(name: "reserve", linkageName: "_ZN11xalanc_1_1014XalanDOMString7reserveEj", scope: !91, file: !92, line: 249, type: !519, scopeLine: 249, flags: DIFlagPublic | DIFlagPrototyped, spFlags: 0)
!523 = !DISubprogram(name: "clear", linkageName: "_ZN11xalanc_1_1014XalanDOMString5clearEv", scope: !91, file: !92, line: 257, type: !474, scopeLine: 257, flags: DIFlagPublic | DIFlagPrototyped, spFlags: 0)
!524 = !DISubprogram(name: "erase", linkageName: "_ZN11xalanc_1_1014XalanDOMString5eraseEjj", scope: !91, file: !92, line: 269, type: !525, scopeLine: 269, flags: DIFlagPublic | DIFlagPrototyped, spFlags: 0)
!525 = !DISubroutineType(types: !526)
!526 = !{null, !452, !96, !96}
!527 = !DISubprogram(name: "empty", linkageName: "_ZNK11xalanc_1_1014XalanDOMString5emptyEv", scope: !91, file: !92, line: 274, type: !528, scopeLine: 274, flags: DIFlagPublic | DIFlagPrototyped, spFlags: 0)
!528 = !DISubroutineType(types: !529)
!529 = !{!188, !497}
!530 = !DISubprogram(name: "operator[]", linkageName: "_ZNK11xalanc_1_1014XalanDOMStringixEj", scope: !91, file: !92, line: 282, type: !531, scopeLine: 282, flags: DIFlagPublic | DIFlagPrototyped, spFlags: 0)
!531 = !DISubroutineType(types: !532)
!532 = !{!533, !497, !96}
!533 = !DIDerivedType(tag: DW_TAG_typedef, name: "const_reference", scope: !91, file: !92, line: 51, baseType: !534)
!534 = !DIDerivedType(tag: DW_TAG_reference_type, baseType: !446, size: 64)
!535 = !DISubprogram(name: "operator[]", linkageName: "_ZN11xalanc_1_1014XalanDOMStringixEj", scope: !91, file: !92, line: 290, type: !536, scopeLine: 290, flags: DIFlagPublic | DIFlagPrototyped, spFlags: 0)
!536 = !DISubroutineType(types: !537)
!537 = !{!538, !452, !96}
!538 = !DIDerivedType(tag: DW_TAG_typedef, name: "reference", scope: !91, file: !92, line: 50, baseType: !539)
!539 = !DIDerivedType(tag: DW_TAG_reference_type, baseType: !447, size: 64)
!540 = !DISubprogram(name: "at", linkageName: "_ZNK11xalanc_1_1014XalanDOMString2atEj", scope: !91, file: !92, line: 298, type: !531, scopeLine: 298, flags: DIFlagPublic | DIFlagPrototyped, spFlags: 0)
!541 = !DISubprogram(name: "at", linkageName: "_ZN11xalanc_1_1014XalanDOMString2atEj", scope: !91, file: !92, line: 306, type: !536, scopeLine: 306, flags: DIFlagPublic | DIFlagPrototyped, spFlags: 0)
!542 = !DISubprogram(name: "c_str", linkageName: "_ZNK11xalanc_1_1014XalanDOMString5c_strEv", scope: !91, file: !92, line: 314, type: !543, scopeLine: 314, flags: DIFlagPublic | DIFlagPrototyped, spFlags: 0)
!543 = !DISubroutineType(types: !544)
!544 = !{!465, !497}
!545 = !DISubprogram(name: "data", linkageName: "_ZNK11xalanc_1_1014XalanDOMString4dataEv", scope: !91, file: !92, line: 322, type: !543, scopeLine: 322, flags: DIFlagPublic | DIFlagPrototyped, spFlags: 0)
!546 = !DISubprogram(name: "swap", linkageName: "_ZN11xalanc_1_1014XalanDOMString4swapERS0_", scope: !91, file: !92, line: 330, type: !547, scopeLine: 330, flags: DIFlagPublic | DIFlagPrototyped, spFlags: 0)
!547 = !DISubroutineType(types: !548)
!548 = !{null, !452, !479}
!549 = !DISubprogram(name: "operator+=", linkageName: "_ZN11xalanc_1_1014XalanDOMStringpLERKS0_", scope: !91, file: !92, line: 344, type: !477, scopeLine: 344, flags: DIFlagPublic | DIFlagPrototyped, spFlags: 0)
!550 = !DISubprogram(name: "operator+=", linkageName: "_ZN11xalanc_1_1014XalanDOMStringpLEPKt", scope: !91, file: !92, line: 350, type: !481, scopeLine: 350, flags: DIFlagPublic | DIFlagPrototyped, spFlags: 0)
!551 = !DISubprogram(name: "operator+=", linkageName: "_ZN11xalanc_1_1014XalanDOMStringpLEt", scope: !91, file: !92, line: 356, type: !487, scopeLine: 356, flags: DIFlagPublic | DIFlagPrototyped, spFlags: 0)
!552 = !DISubprogram(name: "assign", linkageName: "_ZN11xalanc_1_1014XalanDOMString6assignEPKt", scope: !91, file: !92, line: 364, type: !481, scopeLine: 364, flags: DIFlagPublic | DIFlagPrototyped, spFlags: 0)
!553 = !DISubprogram(name: "assign", linkageName: "_ZN11xalanc_1_1014XalanDOMString6assignEPKtj", scope: !91, file: !92, line: 376, type: !554, scopeLine: 376, flags: DIFlagPublic | DIFlagPrototyped, spFlags: 0)
!554 = !DISubroutineType(types: !555)
!555 = !{!479, !452, !465, !96}
!556 = !DISubprogram(name: "assign", linkageName: "_ZN11xalanc_1_1014XalanDOMString6assignEPKc", scope: !91, file: !92, line: 390, type: !484, scopeLine: 390, flags: DIFlagPublic | DIFlagPrototyped, spFlags: 0)
!557 = !DISubprogram(name: "assign", linkageName: "_ZN11xalanc_1_1014XalanDOMString6assignEPKcj", scope: !91, file: !92, line: 402, type: !558, scopeLine: 402, flags: DIFlagPublic | DIFlagPrototyped, spFlags: 0)
!558 = !DISubroutineType(types: !559)
!559 = !{!479, !452, !456, !96}
!560 = !DISubprogram(name: "assign", linkageName: "_ZN11xalanc_1_1014XalanDOMString6assignERKS0_jj", scope: !91, file: !92, line: 416, type: !561, scopeLine: 416, flags: DIFlagPublic | DIFlagPrototyped, spFlags: 0)
!561 = !DISubroutineType(types: !562)
!562 = !{!479, !452, !89, !96, !96}
!563 = !DISubprogram(name: "assign", linkageName: "_ZN11xalanc_1_1014XalanDOMString6assignERKS0_", scope: !91, file: !92, line: 422, type: !477, scopeLine: 422, flags: DIFlagPublic | DIFlagPrototyped, spFlags: 0)
!564 = !DISubprogram(name: "assign", linkageName: "_ZN11xalanc_1_1014XalanDOMString6assignEjt", scope: !91, file: !92, line: 439, type: !565, scopeLine: 439, flags: DIFlagPublic | DIFlagPrototyped, spFlags: 0)
!565 = !DISubroutineType(types: !566)
!566 = !{!479, !452, !96, !447}
!567 = !DISubprogram(name: "assign", linkageName: "_ZN11xalanc_1_1014XalanDOMString6assignEPtS1_", scope: !91, file: !92, line: 453, type: !568, scopeLine: 453, flags: DIFlagPublic | DIFlagPrototyped, spFlags: 0)
!568 = !DISubroutineType(types: !569)
!569 = !{!479, !452, !492, !492}
!570 = !DISubprogram(name: "append", linkageName: "_ZN11xalanc_1_1014XalanDOMString6appendERKS0_", scope: !91, file: !92, line: 458, type: !477, scopeLine: 458, flags: DIFlagPublic | DIFlagPrototyped, spFlags: 0)
!571 = !DISubprogram(name: "append", linkageName: "_ZN11xalanc_1_1014XalanDOMString6appendERKS0_jj", scope: !91, file: !92, line: 464, type: !561, scopeLine: 464, flags: DIFlagPublic | DIFlagPrototyped, spFlags: 0)
!572 = !DISubprogram(name: "append", linkageName: "_ZN11xalanc_1_1014XalanDOMString6appendEPKtj", scope: !91, file: !92, line: 476, type: !554, scopeLine: 476, flags: DIFlagPublic | DIFlagPrototyped, spFlags: 0)
!573 = !DISubprogram(name: "append", linkageName: "_ZN11xalanc_1_1014XalanDOMString6appendEPKt", scope: !91, file: !92, line: 481, type: !481, scopeLine: 481, flags: DIFlagPublic | DIFlagPrototyped, spFlags: 0)
!574 = !DISubprogram(name: "append", linkageName: "_ZN11xalanc_1_1014XalanDOMString6appendEPKcj", scope: !91, file: !92, line: 487, type: !558, scopeLine: 487, flags: DIFlagPublic | DIFlagPrototyped, spFlags: 0)
!575 = !DISubprogram(name: "append", linkageName: "_ZN11xalanc_1_1014XalanDOMString6appendEPKc", scope: !91, file: !92, line: 492, type: !484, scopeLine: 492, flags: DIFlagPublic | DIFlagPrototyped, spFlags: 0)
!576 = !DISubprogram(name: "append", linkageName: "_ZN11xalanc_1_1014XalanDOMString6appendEjt", scope: !91, file: !92, line: 498, type: !565, scopeLine: 498, flags: DIFlagPublic | DIFlagPrototyped, spFlags: 0)
!577 = !DISubprogram(name: "push_back", linkageName: "_ZN11xalanc_1_1014XalanDOMString9push_backEt", scope: !91, file: !92, line: 503, type: !578, scopeLine: 503, flags: DIFlagPublic | DIFlagPrototyped, spFlags: 0)
!578 = !DISubroutineType(types: !579)
!579 = !{null, !452, !447}
!580 = !DISubprogram(name: "insert", linkageName: "_ZN11xalanc_1_1014XalanDOMString6insertEjRKS0_", scope: !91, file: !92, line: 513, type: !581, scopeLine: 513, flags: DIFlagPublic | DIFlagPrototyped, spFlags: 0)
!581 = !DISubroutineType(types: !582)
!582 = !{!479, !452, !96, !89}
!583 = !DISubprogram(name: "insert", linkageName: "_ZN11xalanc_1_1014XalanDOMString6insertEjRKS0_jj", scope: !91, file: !92, line: 521, type: !584, scopeLine: 521, flags: DIFlagPublic | DIFlagPrototyped, spFlags: 0)
!584 = !DISubroutineType(types: !585)
!585 = !{!479, !452, !96, !89, !96, !96}
!586 = !DISubprogram(name: "insert", linkageName: "_ZN11xalanc_1_1014XalanDOMString6insertEjPKtj", scope: !91, file: !92, line: 531, type: !587, scopeLine: 531, flags: DIFlagPublic | DIFlagPrototyped, spFlags: 0)
!587 = !DISubroutineType(types: !588)
!588 = !{!479, !452, !96, !465, !96}
!589 = !DISubprogram(name: "insert", linkageName: "_ZN11xalanc_1_1014XalanDOMString6insertEjPKt", scope: !91, file: !92, line: 537, type: !590, scopeLine: 537, flags: DIFlagPublic | DIFlagPrototyped, spFlags: 0)
!590 = !DISubroutineType(types: !591)
!591 = !{!479, !452, !96, !465}
!592 = !DISubprogram(name: "insert", linkageName: "_ZN11xalanc_1_1014XalanDOMString6insertEjjt", scope: !91, file: !92, line: 545, type: !593, scopeLine: 545, flags: DIFlagPublic | DIFlagPrototyped, spFlags: 0)
!593 = !DISubroutineType(types: !594)
!594 = !{!479, !452, !96, !96, !447}
!595 = !DISubprogram(name: "insert", linkageName: "_ZN11xalanc_1_1014XalanDOMString6insertEPtt", scope: !91, file: !92, line: 551, type: !596, scopeLine: 551, flags: DIFlagPublic | DIFlagPrototyped, spFlags: 0)
!596 = !DISubroutineType(types: !597)
!597 = !{!492, !452, !492, !447}
!598 = !DISubprogram(name: "insert", linkageName: "_ZN11xalanc_1_1014XalanDOMString6insertEPtjt", scope: !91, file: !92, line: 556, type: !599, scopeLine: 556, flags: DIFlagPublic | DIFlagPrototyped, spFlags: 0)
!599 = !DISubroutineType(types: !600)
!600 = !{null, !452, !492, !96, !447}
!601 = !DISubprogram(name: "insert", linkageName: "_ZN11xalanc_1_1014XalanDOMString6insertEPtS1_S1_", scope: !91, file: !92, line: 562, type: !602, scopeLine: 562, flags: DIFlagPublic | DIFlagPrototyped, spFlags: 0)
!602 = !DISubroutineType(types: !603)
!603 = !{null, !452, !492, !492, !492}
!604 = !DISubprogram(name: "substr", linkageName: "_ZNK11xalanc_1_1014XalanDOMString6substrERS0_jj", scope: !91, file: !92, line: 569, type: !605, scopeLine: 569, flags: DIFlagPublic | DIFlagPrototyped, spFlags: 0)
!605 = !DISubroutineType(types: !606)
!606 = !{!479, !497, !479, !96, !96}
!607 = !DISubprogram(name: "compare", linkageName: "_ZNK11xalanc_1_1014XalanDOMString7compareERKS0_", scope: !91, file: !92, line: 583, type: !608, scopeLine: 583, flags: DIFlagPublic | DIFlagPrototyped, spFlags: 0)
!608 = !DISubroutineType(types: !609)
!609 = !{!282, !497, !89}
!610 = !DISubprogram(name: "compare", linkageName: "_ZNK11xalanc_1_1014XalanDOMString7compareEjjRKS0_", scope: !91, file: !92, line: 591, type: !611, scopeLine: 591, flags: DIFlagPublic | DIFlagPrototyped, spFlags: 0)
!611 = !DISubroutineType(types: !612)
!612 = !{!282, !497, !96, !96, !89}
!613 = !DISubprogram(name: "compare", linkageName: "_ZNK11xalanc_1_1014XalanDOMString7compareEjjRKS0_jj", scope: !91, file: !92, line: 602, type: !614, scopeLine: 602, flags: DIFlagPublic | DIFlagPrototyped, spFlags: 0)
!614 = !DISubroutineType(types: !615)
!615 = !{!282, !497, !96, !96, !89, !96, !96}
!616 = !DISubprogram(name: "compare", linkageName: "_ZNK11xalanc_1_1014XalanDOMString7compareEPKt", scope: !91, file: !92, line: 615, type: !617, scopeLine: 615, flags: DIFlagPublic | DIFlagPrototyped, spFlags: 0)
!617 = !DISubroutineType(types: !618)
!618 = !{!282, !497, !465}
!619 = !DISubprogram(name: "compare", linkageName: "_ZNK11xalanc_1_1014XalanDOMString7compareEjjPKtj", scope: !91, file: !92, line: 618, type: !620, scopeLine: 618, flags: DIFlagPublic | DIFlagPrototyped, spFlags: 0)
!620 = !DISubroutineType(types: !621)
!621 = !{!282, !497, !96, !96, !465, !96}
!622 = !DISubprogram(name: "reset", linkageName: "_ZN11xalanc_1_1014XalanDOMString5resetERN11xercesc_2_713MemoryManagerEPKc", scope: !91, file: !92, line: 626, type: !623, scopeLine: 626, flags: DIFlagPublic | DIFlagPrototyped, spFlags: 0)
!623 = !DISubroutineType(types: !624)
!624 = !{null, !452, !78, !456}
!625 = !DISubprogram(name: "reset", linkageName: "_ZN11xalanc_1_1014XalanDOMString5resetERN11xercesc_2_713MemoryManagerEPKt", scope: !91, file: !92, line: 629, type: !626, scopeLine: 629, flags: DIFlagPublic | DIFlagPrototyped, spFlags: 0)
!626 = !DISubroutineType(types: !627)
!627 = !{null, !452, !78, !465}
!628 = !DISubprogram(name: "transcode", linkageName: "_ZNK11xalanc_1_1014XalanDOMString9transcodeERNS_11XalanVectorIcNS_31MemoryManagedConstructionTraitsIcEEEE", scope: !91, file: !92, line: 656, type: !629, scopeLine: 656, flags: DIFlagPublic | DIFlagPrototyped, spFlags: 0)
!629 = !DISubroutineType(types: !630)
!630 = !{null, !497, !631}
!631 = !DIDerivedType(tag: DW_TAG_reference_type, baseType: !632, size: 64)
!632 = !DIDerivedType(tag: DW_TAG_typedef, name: "CharVectorType", scope: !91, file: !92, line: 46, baseType: !633)
!633 = distinct !DICompositeType(tag: DW_TAG_class_type, name: "XalanVector<char, xalanc_1_10::MemoryManagedConstructionTraits<char> >", scope: !6, file: !100, line: 61, size: 256, flags: DIFlagTypePassByReference | DIFlagNonTrivial, elements: !634, templateParams: !809, identifier: "_ZTSN11xalanc_1_1011XalanVectorIcNS_31MemoryManagedConstructionTraitsIcEEEE")
!634 = !{!635, !636, !637, !638, !641, !645, !649, !655, !661, !664, !668, !671, !674, !675, !679, !682, !685, !688, !691, !694, !697, !700, !705, !706, !709, !710, !711, !714, !715, !720, !724, !725, !726, !729, !732, !733, !734, !740, !746, !747, !748, !751, !754, !755, !756, !757, !761, !764, !767, !770, !774, !777, !781, !784, !787, !790, !793, !794, !797, !798, !799, !803, !804, !805, !806}
!635 = !DIDerivedType(tag: DW_TAG_member, name: "m_memoryManager", scope: !633, file: !100, line: 1087, baseType: !103, size: 64)
!636 = !DIDerivedType(tag: DW_TAG_member, name: "m_size", scope: !633, file: !100, line: 1089, baseType: !105, size: 64, offset: 64)
!637 = !DIDerivedType(tag: DW_TAG_member, name: "m_allocation", scope: !633, file: !100, line: 1091, baseType: !105, size: 64, offset: 128)
!638 = !DIDerivedType(tag: DW_TAG_member, name: "m_data", scope: !633, file: !100, line: 1093, baseType: !639, size: 64, offset: 192)
!639 = !DIDerivedType(tag: DW_TAG_pointer_type, baseType: !640, size: 64)
!640 = !DIDerivedType(tag: DW_TAG_typedef, name: "value_type", scope: !633, file: !100, line: 66, baseType: !458)
!641 = !DISubprogram(name: "XalanVector", scope: !633, file: !100, line: 120, type: !642, scopeLine: 120, flags: DIFlagPublic | DIFlagPrototyped, spFlags: 0)
!642 = !DISubroutineType(types: !643)
!643 = !{null, !644, !118, !105}
!644 = !DIDerivedType(tag: DW_TAG_pointer_type, baseType: !633, size: 64, flags: DIFlagArtificial | DIFlagObjectPointer)
!645 = !DISubprogram(name: "create", linkageName: "_ZN11xalanc_1_1011XalanVectorIcNS_31MemoryManagedConstructionTraitsIcEEE6createERN11xercesc_2_713MemoryManagerEm", scope: !633, file: !100, line: 132, type: !646, scopeLine: 132, flags: DIFlagPublic | DIFlagPrototyped | DIFlagStaticMember, spFlags: 0)
!646 = !DISubroutineType(types: !647)
!647 = !{!648, !118, !105}
!648 = !DIDerivedType(tag: DW_TAG_pointer_type, baseType: !633, size: 64)
!649 = !DISubprogram(name: "XalanVector", scope: !633, file: !100, line: 149, type: !650, scopeLine: 149, flags: DIFlagPublic | DIFlagPrototyped, spFlags: 0)
!650 = !DISubroutineType(types: !651)
!651 = !{null, !644, !652, !118, !105}
!652 = !DIDerivedType(tag: DW_TAG_reference_type, baseType: !653, size: 64)
!653 = !DIDerivedType(tag: DW_TAG_const_type, baseType: !654)
!654 = !DIDerivedType(tag: DW_TAG_typedef, name: "ThisType", scope: !633, file: !100, line: 115, baseType: !633)
!655 = !DISubprogram(name: "XalanVector", scope: !633, file: !100, line: 177, type: !656, scopeLine: 177, flags: DIFlagPublic | DIFlagPrototyped, spFlags: 0)
!656 = !DISubroutineType(types: !657)
!657 = !{null, !644, !658, !658, !118}
!658 = !DIDerivedType(tag: DW_TAG_typedef, name: "const_iterator", scope: !633, file: !100, line: 92, baseType: !659)
!659 = !DIDerivedType(tag: DW_TAG_pointer_type, baseType: !660, size: 64)
!660 = !DIDerivedType(tag: DW_TAG_const_type, baseType: !640)
!661 = !DISubprogram(name: "create", linkageName: "_ZN11xalanc_1_1011XalanVectorIcNS_31MemoryManagedConstructionTraitsIcEEE6createEPKcS5_RN11xercesc_2_713MemoryManagerE", scope: !633, file: !100, line: 197, type: !662, scopeLine: 197, flags: DIFlagPublic | DIFlagPrototyped | DIFlagStaticMember, spFlags: 0)
!662 = !DISubroutineType(types: !663)
!663 = !{!648, !658, !658, !118}
!664 = !DISubprogram(name: "XalanVector", scope: !633, file: !100, line: 215, type: !665, scopeLine: 215, flags: DIFlagPublic | DIFlagPrototyped, spFlags: 0)
!665 = !DISubroutineType(types: !666)
!666 = !{null, !644, !105, !667, !118}
!667 = !DIDerivedType(tag: DW_TAG_reference_type, baseType: !660, size: 64)
!668 = !DISubprogram(name: "~XalanVector", scope: !633, file: !100, line: 233, type: !669, scopeLine: 233, flags: DIFlagPublic | DIFlagPrototyped, spFlags: 0)
!669 = !DISubroutineType(types: !670)
!670 = !{null, !644}
!671 = !DISubprogram(name: "push_back", linkageName: "_ZN11xalanc_1_1011XalanVectorIcNS_31MemoryManagedConstructionTraitsIcEEE9push_backERKc", scope: !633, file: !100, line: 246, type: !672, scopeLine: 246, flags: DIFlagPublic | DIFlagPrototyped, spFlags: 0)
!672 = !DISubroutineType(types: !673)
!673 = !{null, !644, !667}
!674 = !DISubprogram(name: "pop_back", linkageName: "_ZN11xalanc_1_1011XalanVectorIcNS_31MemoryManagedConstructionTraitsIcEEE8pop_backEv", scope: !633, file: !100, line: 256, type: !669, scopeLine: 256, flags: DIFlagPublic | DIFlagPrototyped, spFlags: 0)
!675 = !DISubprogram(name: "erase", linkageName: "_ZN11xalanc_1_1011XalanVectorIcNS_31MemoryManagedConstructionTraitsIcEEE5eraseEPcS4_", scope: !633, file: !100, line: 268, type: !676, scopeLine: 268, flags: DIFlagPublic | DIFlagPrototyped, spFlags: 0)
!676 = !DISubroutineType(types: !677)
!677 = !{!678, !644, !678, !678}
!678 = !DIDerivedType(tag: DW_TAG_typedef, name: "iterator", scope: !633, file: !100, line: 91, baseType: !639)
!679 = !DISubprogram(name: "erase", linkageName: "_ZN11xalanc_1_1011XalanVectorIcNS_31MemoryManagedConstructionTraitsIcEEE5eraseEPc", scope: !633, file: !100, line: 290, type: !680, scopeLine: 290, flags: DIFlagPublic | DIFlagPrototyped, spFlags: 0)
!680 = !DISubroutineType(types: !681)
!681 = !{!678, !644, !678}
!682 = !DISubprogram(name: "insert", linkageName: "_ZN11xalanc_1_1011XalanVectorIcNS_31MemoryManagedConstructionTraitsIcEEE6insertEPcPKcS6_", scope: !633, file: !100, line: 296, type: !683, scopeLine: 296, flags: DIFlagPublic | DIFlagPrototyped, spFlags: 0)
!683 = !DISubroutineType(types: !684)
!684 = !{null, !644, !678, !658, !658}
!685 = !DISubprogram(name: "insert", linkageName: "_ZN11xalanc_1_1011XalanVectorIcNS_31MemoryManagedConstructionTraitsIcEEE6insertEPcmRKc", scope: !633, file: !100, line: 415, type: !686, scopeLine: 415, flags: DIFlagPublic | DIFlagPrototyped, spFlags: 0)
!686 = !DISubroutineType(types: !687)
!687 = !{null, !644, !678, !105, !667}
!688 = !DISubprogram(name: "insert", linkageName: "_ZN11xalanc_1_1011XalanVectorIcNS_31MemoryManagedConstructionTraitsIcEEE6insertEPcRKc", scope: !633, file: !100, line: 516, type: !689, scopeLine: 516, flags: DIFlagPublic | DIFlagPrototyped, spFlags: 0)
!689 = !DISubroutineType(types: !690)
!690 = !{!678, !644, !678, !667}
!691 = !DISubprogram(name: "assign", linkageName: "_ZN11xalanc_1_1011XalanVectorIcNS_31MemoryManagedConstructionTraitsIcEEE6assignEPKcS5_", scope: !633, file: !100, line: 538, type: !692, scopeLine: 538, flags: DIFlagPublic | DIFlagPrototyped, spFlags: 0)
!692 = !DISubroutineType(types: !693)
!693 = !{null, !644, !658, !658}
!694 = !DISubprogram(name: "assign", linkageName: "_ZN11xalanc_1_1011XalanVectorIcNS_31MemoryManagedConstructionTraitsIcEEE6assignEPcS4_", scope: !633, file: !100, line: 551, type: !695, scopeLine: 551, flags: DIFlagPublic | DIFlagPrototyped, spFlags: 0)
!695 = !DISubroutineType(types: !696)
!696 = !{null, !644, !678, !678}
!697 = !DISubprogram(name: "assign", linkageName: "_ZN11xalanc_1_1011XalanVectorIcNS_31MemoryManagedConstructionTraitsIcEEE6assignEmRKc", scope: !633, file: !100, line: 561, type: !698, scopeLine: 561, flags: DIFlagPublic | DIFlagPrototyped, spFlags: 0)
!698 = !DISubroutineType(types: !699)
!699 = !{null, !644, !105, !667}
!700 = !DISubprogram(name: "size", linkageName: "_ZNK11xalanc_1_1011XalanVectorIcNS_31MemoryManagedConstructionTraitsIcEEE4sizeEv", scope: !633, file: !100, line: 571, type: !701, scopeLine: 571, flags: DIFlagPublic | DIFlagPrototyped, spFlags: 0)
!701 = !DISubroutineType(types: !702)
!702 = !{!105, !703}
!703 = !DIDerivedType(tag: DW_TAG_pointer_type, baseType: !704, size: 64, flags: DIFlagArtificial | DIFlagObjectPointer)
!704 = !DIDerivedType(tag: DW_TAG_const_type, baseType: !633)
!705 = !DISubprogram(name: "max_size", linkageName: "_ZNK11xalanc_1_1011XalanVectorIcNS_31MemoryManagedConstructionTraitsIcEEE8max_sizeEv", scope: !633, file: !100, line: 579, type: !701, scopeLine: 579, flags: DIFlagPublic | DIFlagPrototyped, spFlags: 0)
!706 = !DISubprogram(name: "resize", linkageName: "_ZN11xalanc_1_1011XalanVectorIcNS_31MemoryManagedConstructionTraitsIcEEE6resizeEm", scope: !633, file: !100, line: 587, type: !707, scopeLine: 587, flags: DIFlagPublic | DIFlagPrototyped, spFlags: 0)
!707 = !DISubroutineType(types: !708)
!708 = !{null, !644, !105}
!709 = !DISubprogram(name: "resize", linkageName: "_ZN11xalanc_1_1011XalanVectorIcNS_31MemoryManagedConstructionTraitsIcEEE6resizeEmRKc", scope: !633, file: !100, line: 595, type: !698, scopeLine: 595, flags: DIFlagPublic | DIFlagPrototyped, spFlags: 0)
!710 = !DISubprogram(name: "capacity", linkageName: "_ZNK11xalanc_1_1011XalanVectorIcNS_31MemoryManagedConstructionTraitsIcEEE8capacityEv", scope: !633, file: !100, line: 628, type: !701, scopeLine: 628, flags: DIFlagPublic | DIFlagPrototyped, spFlags: 0)
!711 = !DISubprogram(name: "empty", linkageName: "_ZNK11xalanc_1_1011XalanVectorIcNS_31MemoryManagedConstructionTraitsIcEEE5emptyEv", scope: !633, file: !100, line: 636, type: !712, scopeLine: 636, flags: DIFlagPublic | DIFlagPrototyped, spFlags: 0)
!712 = !DISubroutineType(types: !713)
!713 = !{!188, !703}
!714 = !DISubprogram(name: "reserve", linkageName: "_ZN11xalanc_1_1011XalanVectorIcNS_31MemoryManagedConstructionTraitsIcEEE7reserveEm", scope: !633, file: !100, line: 644, type: !707, scopeLine: 644, flags: DIFlagPublic | DIFlagPrototyped, spFlags: 0)
!715 = !DISubprogram(name: "front", linkageName: "_ZN11xalanc_1_1011XalanVectorIcNS_31MemoryManagedConstructionTraitsIcEEE5frontEv", scope: !633, file: !100, line: 657, type: !716, scopeLine: 657, flags: DIFlagPublic | DIFlagPrototyped, spFlags: 0)
!716 = !DISubroutineType(types: !717)
!717 = !{!718, !644}
!718 = !DIDerivedType(tag: DW_TAG_typedef, name: "reference", scope: !633, file: !100, line: 69, baseType: !719)
!719 = !DIDerivedType(tag: DW_TAG_reference_type, baseType: !640, size: 64)
!720 = !DISubprogram(name: "front", linkageName: "_ZNK11xalanc_1_1011XalanVectorIcNS_31MemoryManagedConstructionTraitsIcEEE5frontEv", scope: !633, file: !100, line: 665, type: !721, scopeLine: 665, flags: DIFlagPublic | DIFlagPrototyped, spFlags: 0)
!721 = !DISubroutineType(types: !722)
!722 = !{!723, !703}
!723 = !DIDerivedType(tag: DW_TAG_typedef, name: "const_reference", scope: !633, file: !100, line: 70, baseType: !667)
!724 = !DISubprogram(name: "back", linkageName: "_ZN11xalanc_1_1011XalanVectorIcNS_31MemoryManagedConstructionTraitsIcEEE4backEv", scope: !633, file: !100, line: 673, type: !716, scopeLine: 673, flags: DIFlagPublic | DIFlagPrototyped, spFlags: 0)
!725 = !DISubprogram(name: "back", linkageName: "_ZNK11xalanc_1_1011XalanVectorIcNS_31MemoryManagedConstructionTraitsIcEEE4backEv", scope: !633, file: !100, line: 679, type: !721, scopeLine: 679, flags: DIFlagPublic | DIFlagPrototyped, spFlags: 0)
!726 = !DISubprogram(name: "begin", linkageName: "_ZN11xalanc_1_1011XalanVectorIcNS_31MemoryManagedConstructionTraitsIcEEE5beginEv", scope: !633, file: !100, line: 685, type: !727, scopeLine: 685, flags: DIFlagPublic | DIFlagPrototyped, spFlags: 0)
!727 = !DISubroutineType(types: !728)
!728 = !{!678, !644}
!729 = !DISubprogram(name: "begin", linkageName: "_ZNK11xalanc_1_1011XalanVectorIcNS_31MemoryManagedConstructionTraitsIcEEE5beginEv", scope: !633, file: !100, line: 693, type: !730, scopeLine: 693, flags: DIFlagPublic | DIFlagPrototyped, spFlags: 0)
!730 = !DISubroutineType(types: !731)
!731 = !{!658, !703}
!732 = !DISubprogram(name: "end", linkageName: "_ZN11xalanc_1_1011XalanVectorIcNS_31MemoryManagedConstructionTraitsIcEEE3endEv", scope: !633, file: !100, line: 701, type: !727, scopeLine: 701, flags: DIFlagPublic | DIFlagPrototyped, spFlags: 0)
!733 = !DISubprogram(name: "end", linkageName: "_ZNK11xalanc_1_1011XalanVectorIcNS_31MemoryManagedConstructionTraitsIcEEE3endEv", scope: !633, file: !100, line: 709, type: !730, scopeLine: 709, flags: DIFlagPublic | DIFlagPrototyped, spFlags: 0)
!734 = !DISubprogram(name: "rbegin", linkageName: "_ZN11xalanc_1_1011XalanVectorIcNS_31MemoryManagedConstructionTraitsIcEEE6rbeginEv", scope: !633, file: !100, line: 717, type: !735, scopeLine: 717, flags: DIFlagPublic | DIFlagPrototyped, spFlags: 0)
!735 = !DISubroutineType(types: !736)
!736 = !{!737, !644}
!737 = !DIDerivedType(tag: DW_TAG_typedef, name: "reverse_iterator", scope: !633, file: !100, line: 112, baseType: !738)
!738 = !DIDerivedType(tag: DW_TAG_typedef, name: "reverse_iterator_", scope: !633, file: !100, line: 96, baseType: !739)
!739 = !DICompositeType(tag: DW_TAG_class_type, name: "reverse_iterator<char *>", scope: !216, file: !215, line: 125, flags: DIFlagFwdDecl, identifier: "_ZTSSt16reverse_iteratorIPcE")
!740 = !DISubprogram(name: "rbegin", linkageName: "_ZNK11xalanc_1_1011XalanVectorIcNS_31MemoryManagedConstructionTraitsIcEEE6rbeginEv", scope: !633, file: !100, line: 725, type: !741, scopeLine: 725, flags: DIFlagPublic | DIFlagPrototyped, spFlags: 0)
!741 = !DISubroutineType(types: !742)
!742 = !{!743, !703}
!743 = !DIDerivedType(tag: DW_TAG_typedef, name: "const_reverse_iterator", scope: !633, file: !100, line: 113, baseType: !744)
!744 = !DIDerivedType(tag: DW_TAG_typedef, name: "const_reverse_iterator_", scope: !633, file: !100, line: 97, baseType: !745)
!745 = !DICompositeType(tag: DW_TAG_class_type, name: "reverse_iterator<const char *>", scope: !216, file: !215, line: 125, flags: DIFlagFwdDecl, identifier: "_ZTSSt16reverse_iteratorIPKcE")
!746 = !DISubprogram(name: "rend", linkageName: "_ZN11xalanc_1_1011XalanVectorIcNS_31MemoryManagedConstructionTraitsIcEEE4rendEv", scope: !633, file: !100, line: 733, type: !735, scopeLine: 733, flags: DIFlagPublic | DIFlagPrototyped, spFlags: 0)
!747 = !DISubprogram(name: "rend", linkageName: "_ZNK11xalanc_1_1011XalanVectorIcNS_31MemoryManagedConstructionTraitsIcEEE4rendEv", scope: !633, file: !100, line: 741, type: !741, scopeLine: 741, flags: DIFlagPublic | DIFlagPrototyped, spFlags: 0)
!748 = !DISubprogram(name: "at", linkageName: "_ZN11xalanc_1_1011XalanVectorIcNS_31MemoryManagedConstructionTraitsIcEEE2atEm", scope: !633, file: !100, line: 750, type: !749, scopeLine: 750, flags: DIFlagPublic | DIFlagPrototyped, spFlags: 0)
!749 = !DISubroutineType(types: !750)
!750 = !{!718, !644, !105}
!751 = !DISubprogram(name: "at", linkageName: "_ZNK11xalanc_1_1011XalanVectorIcNS_31MemoryManagedConstructionTraitsIcEEE2atEm", scope: !633, file: !100, line: 761, type: !752, scopeLine: 761, flags: DIFlagPublic | DIFlagPrototyped, spFlags: 0)
!752 = !DISubroutineType(types: !753)
!753 = !{!723, !703, !105}
!754 = !DISubprogram(name: "operator[]", linkageName: "_ZN11xalanc_1_1011XalanVectorIcNS_31MemoryManagedConstructionTraitsIcEEEixEm", scope: !633, file: !100, line: 772, type: !749, scopeLine: 772, flags: DIFlagPublic | DIFlagPrototyped, spFlags: 0)
!755 = !DISubprogram(name: "operator[]", linkageName: "_ZNK11xalanc_1_1011XalanVectorIcNS_31MemoryManagedConstructionTraitsIcEEEixEm", scope: !633, file: !100, line: 780, type: !752, scopeLine: 780, flags: DIFlagPublic | DIFlagPrototyped, spFlags: 0)
!756 = !DISubprogram(name: "clear", linkageName: "_ZN11xalanc_1_1011XalanVectorIcNS_31MemoryManagedConstructionTraitsIcEEE5clearEv", scope: !633, file: !100, line: 788, type: !669, scopeLine: 788, flags: DIFlagPublic | DIFlagPrototyped, spFlags: 0)
!757 = !DISubprogram(name: "operator=", linkageName: "_ZN11xalanc_1_1011XalanVectorIcNS_31MemoryManagedConstructionTraitsIcEEEaSERKS3_", scope: !633, file: !100, line: 802, type: !758, scopeLine: 802, flags: DIFlagPublic | DIFlagPrototyped, spFlags: 0)
!758 = !DISubroutineType(types: !759)
!759 = !{!760, !644, !652}
!760 = !DIDerivedType(tag: DW_TAG_reference_type, baseType: !654, size: 64)
!761 = !DISubprogram(name: "swap", linkageName: "_ZN11xalanc_1_1011XalanVectorIcNS_31MemoryManagedConstructionTraitsIcEEE4swapERS3_", scope: !633, file: !100, line: 848, type: !762, scopeLine: 848, flags: DIFlagPublic | DIFlagPrototyped, spFlags: 0)
!762 = !DISubroutineType(types: !763)
!763 = !{null, !644, !760}
!764 = !DISubprogram(name: "getMemoryManager", linkageName: "_ZNK11xalanc_1_1011XalanVectorIcNS_31MemoryManagedConstructionTraitsIcEEE16getMemoryManagerEv", scope: !633, file: !100, line: 871, type: !765, scopeLine: 871, flags: DIFlagPublic | DIFlagPrototyped, spFlags: 0)
!765 = !DISubroutineType(types: !766)
!766 = !{!392, !703}
!767 = !DISubprogram(name: "getMemoryManager", linkageName: "_ZN11xalanc_1_1011XalanVectorIcNS_31MemoryManagedConstructionTraitsIcEEE16getMemoryManagerEv", scope: !633, file: !100, line: 877, type: !768, scopeLine: 877, flags: DIFlagPublic | DIFlagPrototyped, spFlags: 0)
!768 = !DISubroutineType(types: !769)
!769 = !{!118, !644}
!770 = !DISubprogram(name: "detach", linkageName: "_ZN11xalanc_1_1011XalanVectorIcNS_31MemoryManagedConstructionTraitsIcEEE6detachEv", scope: !633, file: !100, line: 889, type: !771, scopeLine: 889, flags: DIFlagPublic | DIFlagPrototyped, spFlags: 0)
!771 = !DISubroutineType(types: !772)
!772 = !{!773, !644}
!773 = !DIDerivedType(tag: DW_TAG_typedef, name: "pointer", scope: !633, file: !100, line: 67, baseType: !639)
!774 = !DISubprogram(name: "invariants", linkageName: "_ZNK11xalanc_1_1011XalanVectorIcNS_31MemoryManagedConstructionTraitsIcEEE10invariantsEv", scope: !633, file: !100, line: 905, type: !775, scopeLine: 905, flags: DIFlagPrototyped, spFlags: 0)
!775 = !DISubroutineType(types: !776)
!776 = !{null, !703}
!777 = !DISubprogram(name: "local_distance", linkageName: "_ZN11xalanc_1_1011XalanVectorIcNS_31MemoryManagedConstructionTraitsIcEEE14local_distanceEPKcS5_", scope: !633, file: !100, line: 918, type: !778, scopeLine: 918, flags: DIFlagPrototyped, spFlags: 0)
!778 = !DISubroutineType(types: !779)
!779 = !{!780, !644, !658, !658}
!780 = !DIDerivedType(tag: DW_TAG_typedef, name: "size_type", scope: !633, file: !100, line: 71, baseType: !106)
!781 = !DISubprogram(name: "allocate", linkageName: "_ZN11xalanc_1_1011XalanVectorIcNS_31MemoryManagedConstructionTraitsIcEEE8allocateEm", scope: !633, file: !100, line: 938, type: !782, scopeLine: 938, flags: DIFlagPrototyped, spFlags: 0)
!782 = !DISubroutineType(types: !783)
!783 = !{!639, !644, !105}
!784 = !DISubprogram(name: "deallocate", linkageName: "_ZN11xalanc_1_1011XalanVectorIcNS_31MemoryManagedConstructionTraitsIcEEE10deallocateEPc", scope: !633, file: !100, line: 952, type: !785, scopeLine: 952, flags: DIFlagPrototyped, spFlags: 0)
!785 = !DISubroutineType(types: !786)
!786 = !{null, !644, !639}
!787 = !DISubprogram(name: "destroy", linkageName: "_ZN11xalanc_1_1011XalanVectorIcNS_31MemoryManagedConstructionTraitsIcEEE7destroyERc", scope: !633, file: !100, line: 961, type: !788, scopeLine: 961, flags: DIFlagPrototyped | DIFlagStaticMember, spFlags: 0)
!788 = !DISubroutineType(types: !789)
!789 = !{null, !719}
!790 = !DISubprogram(name: "destroy", linkageName: "_ZN11xalanc_1_1011XalanVectorIcNS_31MemoryManagedConstructionTraitsIcEEE7destroyEPcS4_", scope: !633, file: !100, line: 967, type: !791, scopeLine: 967, flags: DIFlagPrototyped | DIFlagStaticMember, spFlags: 0)
!791 = !DISubroutineType(types: !792)
!792 = !{null, !678, !678}
!793 = !DISubprogram(name: "doPushBack", linkageName: "_ZN11xalanc_1_1011XalanVectorIcNS_31MemoryManagedConstructionTraitsIcEEE10doPushBackERKc", scope: !633, file: !100, line: 978, type: !672, scopeLine: 978, flags: DIFlagPrototyped, spFlags: 0)
!794 = !DISubprogram(name: "ensureCapacity", linkageName: "_ZN11xalanc_1_1011XalanVectorIcNS_31MemoryManagedConstructionTraitsIcEEE14ensureCapacityEm", scope: !633, file: !100, line: 1006, type: !795, scopeLine: 1006, flags: DIFlagPrototyped, spFlags: 0)
!795 = !DISubroutineType(types: !796)
!796 = !{!773, !644, !105}
!797 = !DISubprogram(name: "doReserve", linkageName: "_ZN11xalanc_1_1011XalanVectorIcNS_31MemoryManagedConstructionTraitsIcEEE9doReserveEm", scope: !633, file: !100, line: 1017, type: !707, scopeLine: 1017, flags: DIFlagPrototyped, spFlags: 0)
!798 = !DISubprogram(name: "endPointer", linkageName: "_ZN11xalanc_1_1011XalanVectorIcNS_31MemoryManagedConstructionTraitsIcEEE10endPointerEv", scope: !633, file: !100, line: 1031, type: !771, scopeLine: 1031, flags: DIFlagPrototyped, spFlags: 0)
!799 = !DISubprogram(name: "endPointer", linkageName: "_ZNK11xalanc_1_1011XalanVectorIcNS_31MemoryManagedConstructionTraitsIcEEE10endPointerEv", scope: !633, file: !100, line: 1037, type: !800, scopeLine: 1037, flags: DIFlagPrototyped, spFlags: 0)
!800 = !DISubroutineType(types: !801)
!801 = !{!802, !703}
!802 = !DIDerivedType(tag: DW_TAG_typedef, name: "const_pointer", scope: !633, file: !100, line: 68, baseType: !659)
!803 = !DISubprogram(name: "outOfRange", linkageName: "_ZN11xalanc_1_1011XalanVectorIcNS_31MemoryManagedConstructionTraitsIcEEE10outOfRangeEv", scope: !633, file: !100, line: 1043, type: !431, scopeLine: 1043, flags: DIFlagPrototyped | DIFlagStaticMember, spFlags: 0)
!804 = !DISubprogram(name: "shrinkToSize", linkageName: "_ZN11xalanc_1_1011XalanVectorIcNS_31MemoryManagedConstructionTraitsIcEEE12shrinkToSizeEm", scope: !633, file: !100, line: 1049, type: !707, scopeLine: 1049, flags: DIFlagPrototyped, spFlags: 0)
!805 = !DISubprogram(name: "shrinkCount", linkageName: "_ZN11xalanc_1_1011XalanVectorIcNS_31MemoryManagedConstructionTraitsIcEEE11shrinkCountEm", scope: !633, file: !100, line: 1060, type: !707, scopeLine: 1060, flags: DIFlagPrototyped, spFlags: 0)
!806 = !DISubprogram(name: "local_max", linkageName: "_ZN11xalanc_1_1011XalanVectorIcNS_31MemoryManagedConstructionTraitsIcEEE9local_maxEmm", scope: !633, file: !100, line: 1073, type: !807, scopeLine: 1073, flags: DIFlagPrototyped, spFlags: 0)
!807 = !DISubroutineType(types: !808)
!808 = !{!780, !644, !105, !105}
!809 = !{!810, !811}
!810 = !DITemplateTypeParameter(name: "Type", type: !458)
!811 = !DITemplateTypeParameter(name: "ConstructionTraits", type: !812)
!812 = distinct !DICompositeType(tag: DW_TAG_structure_type, name: "MemoryManagedConstructionTraits<char>", scope: !6, file: !80, line: 462, size: 8, flags: DIFlagTypePassByValue, elements: !221, templateParams: !813, identifier: "_ZTSN11xalanc_1_1031MemoryManagedConstructionTraitsIcEE")
!813 = !{!814}
!814 = !DITemplateTypeParameter(name: "C", type: !458)
!815 = !DISubprogram(name: "getMemoryManager", linkageName: "_ZN11xalanc_1_1014XalanDOMString16getMemoryManagerEv", scope: !91, file: !92, line: 659, type: !816, scopeLine: 659, flags: DIFlagPublic | DIFlagPrototyped, spFlags: 0)
!816 = !DISubroutineType(types: !817)
!817 = !{!78, !452}
!818 = !DISubprogram(name: "hash", linkageName: "_ZNK11xalanc_1_1014XalanDOMString4hashEv", scope: !91, file: !92, line: 665, type: !511, scopeLine: 665, flags: DIFlagPublic | DIFlagPrototyped, spFlags: 0)
!819 = !DISubprogram(name: "equals", linkageName: "_ZN11xalanc_1_1014XalanDOMString6equalsEPKtjS2_j", scope: !91, file: !92, line: 671, type: !820, scopeLine: 671, flags: DIFlagPublic | DIFlagPrototyped | DIFlagStaticMember, spFlags: 0)
!820 = !DISubroutineType(types: !821)
!821 = !{!188, !465, !96, !465, !96}
!822 = !DISubprogram(name: "equals", linkageName: "_ZN11xalanc_1_1014XalanDOMString6equalsEPKtS2_", scope: !91, file: !92, line: 678, type: !823, scopeLine: 678, flags: DIFlagPublic | DIFlagPrototyped | DIFlagStaticMember, spFlags: 0)
!823 = !DISubroutineType(types: !824)
!824 = !{!188, !465, !465}
!825 = !DISubprogram(name: "equals", linkageName: "_ZN11xalanc_1_1014XalanDOMString6equalsERKS0_S2_", scope: !91, file: !92, line: 686, type: !826, scopeLine: 686, flags: DIFlagPublic | DIFlagPrototyped | DIFlagStaticMember, spFlags: 0)
!826 = !DISubroutineType(types: !827)
!827 = !{!188, !89, !89}
!828 = !DISubprogram(name: "equals", linkageName: "_ZN11xalanc_1_1014XalanDOMString6equalsERKS0_PKt", scope: !91, file: !92, line: 691, type: !829, scopeLine: 691, flags: DIFlagPublic | DIFlagPrototyped | DIFlagStaticMember, spFlags: 0)
!829 = !DISubroutineType(types: !830)
!830 = !{!188, !89, !465}
!831 = !DISubprogram(name: "equals", linkageName: "_ZN11xalanc_1_1014XalanDOMString6equalsEPKtRKS0_", scope: !91, file: !92, line: 699, type: !832, scopeLine: 699, flags: DIFlagPublic | DIFlagPrototyped | DIFlagStaticMember, spFlags: 0)
!832 = !DISubroutineType(types: !833)
!833 = !{!188, !465, !89}
!834 = !DISubprogram(name: "length", linkageName: "_ZN11xalanc_1_1014XalanDOMString6lengthEPKt", scope: !91, file: !92, line: 714, type: !835, scopeLine: 714, flags: DIFlagPublic | DIFlagPrototyped | DIFlagStaticMember, spFlags: 0)
!835 = !DISubroutineType(types: !836)
!836 = !{!96, !465}
!837 = !DISubprogram(name: "length", linkageName: "_ZN11xalanc_1_1014XalanDOMString6lengthEPKc", scope: !91, file: !92, line: 724, type: !838, scopeLine: 724, flags: DIFlagPublic | DIFlagPrototyped | DIFlagStaticMember, spFlags: 0)
!838 = !DISubroutineType(types: !839)
!839 = !{!96, !456}
!840 = !DISubprogram(name: "hash", linkageName: "_ZN11xalanc_1_1014XalanDOMString4hashEPKtj", scope: !91, file: !92, line: 727, type: !841, scopeLine: 727, flags: DIFlagPublic | DIFlagPrototyped | DIFlagStaticMember, spFlags: 0)
!841 = !DISubroutineType(types: !842)
!842 = !{!96, !465, !96}
!843 = !DISubprogram(name: "invariants", linkageName: "_ZNK11xalanc_1_1014XalanDOMString10invariantsEv", scope: !91, file: !92, line: 739, type: !844, scopeLine: 739, flags: DIFlagProtected | DIFlagPrototyped, spFlags: 0)
!844 = !DISubroutineType(types: !845)
!845 = !{null, !497}
!846 = !DISubprogram(name: "getBackInsertIterator", linkageName: "_ZN11xalanc_1_1014XalanDOMString21getBackInsertIteratorEv", scope: !91, file: !92, line: 753, type: !490, scopeLine: 753, flags: DIFlagProtected | DIFlagPrototyped, spFlags: 0)
!847 = !DISubprogram(name: "getBackInsertIterator", linkageName: "_ZNK11xalanc_1_1014XalanDOMString21getBackInsertIteratorEv", scope: !91, file: !92, line: 761, type: !494, scopeLine: 761, flags: DIFlagProtected | DIFlagPrototyped, spFlags: 0)
!848 = !DISubprogram(name: "getIteratorForPosition", linkageName: "_ZN11xalanc_1_1014XalanDOMString22getIteratorForPositionEj", scope: !91, file: !92, line: 769, type: !849, scopeLine: 769, flags: DIFlagProtected | DIFlagPrototyped, spFlags: 0)
!849 = !DISubroutineType(types: !850)
!850 = !{!492, !452, !96}
!851 = !DISubprogram(name: "getIteratorForPosition", linkageName: "_ZNK11xalanc_1_1014XalanDOMString22getIteratorForPositionEj", scope: !91, file: !92, line: 777, type: !852, scopeLine: 777, flags: DIFlagProtected | DIFlagPrototyped, spFlags: 0)
!852 = !DISubroutineType(types: !853)
!853 = !{!496, !497, !96}
!854 = !DIDerivedType(tag: DW_TAG_pointer_type, baseType: !855, size: 64, flags: DIFlagArtificial | DIFlagObjectPointer)
!855 = !DIDerivedType(tag: DW_TAG_const_type, baseType: !47)
!856 = !DISubprogram(name: "getNodeValue", linkageName: "_ZNK11xalanc_1_1028XercesEntityReferenceWrapper12getNodeValueEv", scope: !47, file: !48, line: 70, type: !87, scopeLine: 70, containingType: !47, virtualIndex: 3, flags: DIFlagPublic | DIFlagPrototyped, spFlags: DISPFlagVirtual)
!857 = !DISubprogram(name: "getNodeType", linkageName: "_ZNK11xalanc_1_1028XercesEntityReferenceWrapper11getNodeTypeEv", scope: !47, file: !48, line: 76, type: !858, scopeLine: 76, containingType: !47, virtualIndex: 4, flags: DIFlagPublic | DIFlagPrototyped, spFlags: DISPFlagVirtual)
!858 = !DISubroutineType(types: !859)
!859 = !{!3, !854}
!860 = !DISubprogram(name: "getParentNode", linkageName: "_ZNK11xalanc_1_1028XercesEntityReferenceWrapper13getParentNodeEv", scope: !47, file: !48, line: 88, type: !861, scopeLine: 88, containingType: !47, virtualIndex: 5, flags: DIFlagPublic | DIFlagPrototyped, spFlags: DISPFlagVirtual)
!861 = !DISubroutineType(types: !862)
!862 = !{!863, !854}
!863 = !DIDerivedType(tag: DW_TAG_pointer_type, baseType: !5, size: 64)
!864 = !DISubprogram(name: "getChildNodes", linkageName: "_ZNK11xalanc_1_1028XercesEntityReferenceWrapper13getChildNodesEv", scope: !47, file: !48, line: 104, type: !865, scopeLine: 104, containingType: !47, virtualIndex: 6, flags: DIFlagPublic | DIFlagPrototyped, spFlags: DISPFlagVirtual)
!865 = !DISubroutineType(types: !866)
!866 = !{!867, !854}
!867 = !DIDerivedType(tag: DW_TAG_pointer_type, baseType: !868, size: 64)
!868 = !DIDerivedType(tag: DW_TAG_const_type, baseType: !869)
!869 = !DICompositeType(tag: DW_TAG_class_type, name: "XalanNodeList", scope: !6, file: !870, line: 42, flags: DIFlagFwdDecl)
!870 = !DIFile(filename: "./xalanc/XalanDOM/XalanNodeList.hpp", directory: "/home/venkat/IF-DV/spec_build_release/CPU_2017/benchspec/CPU/523.xalancbmk_r/build/build_base_ld-loop-ext-m64.0000")
!871 = !DISubprogram(name: "getFirstChild", linkageName: "_ZNK11xalanc_1_1028XercesEntityReferenceWrapper13getFirstChildEv", scope: !47, file: !48, line: 112, type: !861, scopeLine: 112, containingType: !47, virtualIndex: 7, flags: DIFlagPublic | DIFlagPrototyped, spFlags: DISPFlagVirtual)
!872 = !DISubprogram(name: "getLastChild", linkageName: "_ZNK11xalanc_1_1028XercesEntityReferenceWrapper12getLastChildEv", scope: !47, file: !48, line: 120, type: !861, scopeLine: 120, containingType: !47, virtualIndex: 8, flags: DIFlagPublic | DIFlagPrototyped, spFlags: DISPFlagVirtual)
!873 = !DISubprogram(name: "getPreviousSibling", linkageName: "_ZNK11xalanc_1_1028XercesEntityReferenceWrapper18getPreviousSiblingEv", scope: !47, file: !48, line: 128, type: !861, scopeLine: 128, containingType: !47, virtualIndex: 9, flags: DIFlagPublic | DIFlagPrototyped, spFlags: DISPFlagVirtual)
!874 = !DISubprogram(name: "getNextSibling", linkageName: "_ZNK11xalanc_1_1028XercesEntityReferenceWrapper14getNextSiblingEv", scope: !47, file: !48, line: 136, type: !861, scopeLine: 136, containingType: !47, virtualIndex: 10, flags: DIFlagPublic | DIFlagPrototyped, spFlags: DISPFlagVirtual)
!875 = !DISubprogram(name: "getAttributes", linkageName: "_ZNK11xalanc_1_1028XercesEntityReferenceWrapper13getAttributesEv", scope: !47, file: !48, line: 143, type: !876, scopeLine: 143, containingType: !47, virtualIndex: 11, flags: DIFlagPublic | DIFlagPrototyped, spFlags: DISPFlagVirtual)
!876 = !DISubroutineType(types: !877)
!877 = !{!878, !854}
!878 = !DIDerivedType(tag: DW_TAG_pointer_type, baseType: !879, size: 64)
!879 = !DIDerivedType(tag: DW_TAG_const_type, baseType: !880)
!880 = !DICompositeType(tag: DW_TAG_class_type, name: "XalanNamedNodeMap", scope: !6, file: !881, line: 42, flags: DIFlagFwdDecl)
!881 = !DIFile(filename: "./xalanc/XalanDOM/XalanNamedNodeMap.hpp", directory: "/home/venkat/IF-DV/spec_build_release/CPU_2017/benchspec/CPU/523.xalancbmk_r/build/build_base_ld-loop-ext-m64.0000")
!882 = !DISubprogram(name: "getOwnerDocument", linkageName: "_ZNK11xalanc_1_1028XercesEntityReferenceWrapper16getOwnerDocumentEv", scope: !47, file: !48, line: 155, type: !883, scopeLine: 155, containingType: !47, virtualIndex: 12, flags: DIFlagPublic | DIFlagPrototyped, spFlags: DISPFlagVirtual)
!883 = !DISubroutineType(types: !884)
!884 = !{!885, !854}
!885 = !DIDerivedType(tag: DW_TAG_pointer_type, baseType: !886, size: 64)
!886 = !DICompositeType(tag: DW_TAG_class_type, name: "XalanDocument", scope: !6, file: !887, line: 51, flags: DIFlagFwdDecl)
!887 = !DIFile(filename: "./xalanc/XalanDOM/XalanDocument.hpp", directory: "/home/venkat/IF-DV/spec_build_release/CPU_2017/benchspec/CPU/523.xalancbmk_r/build/build_base_ld-loop-ext-m64.0000")
!888 = !DISubprogram(name: "cloneNode", linkageName: "_ZNK11xalanc_1_1028XercesEntityReferenceWrapper9cloneNodeEb", scope: !47, file: !48, line: 184, type: !889, scopeLine: 184, containingType: !47, virtualIndex: 13, flags: DIFlagPublic | DIFlagPrototyped, spFlags: DISPFlagVirtual)
!889 = !DISubroutineType(types: !890)
!890 = !{!77, !854, !188}
!891 = !DISubprogram(name: "insertBefore", linkageName: "_ZN11xalanc_1_1028XercesEntityReferenceWrapper12insertBeforeEPNS_9XalanNodeES2_", scope: !47, file: !48, line: 207, type: !892, scopeLine: 207, containingType: !47, virtualIndex: 14, flags: DIFlagPublic | DIFlagPrototyped, spFlags: DISPFlagVirtual)
!892 = !DISubroutineType(types: !893)
!893 = !{!863, !73, !863, !863}
!894 = !DISubprogram(name: "replaceChild", linkageName: "_ZN11xalanc_1_1028XercesEntityReferenceWrapper12replaceChildEPNS_9XalanNodeES2_", scope: !47, file: !48, line: 225, type: !892, scopeLine: 225, containingType: !47, virtualIndex: 15, flags: DIFlagPublic | DIFlagPrototyped, spFlags: DISPFlagVirtual)
!895 = !DISubprogram(name: "removeChild", linkageName: "_ZN11xalanc_1_1028XercesEntityReferenceWrapper11removeChildEPNS_9XalanNodeE", scope: !47, file: !48, line: 237, type: !896, scopeLine: 237, containingType: !47, virtualIndex: 16, flags: DIFlagPublic | DIFlagPrototyped, spFlags: DISPFlagVirtual)
!896 = !DISubroutineType(types: !897)
!897 = !{!863, !73, !863}
!898 = !DISubprogram(name: "appendChild", linkageName: "_ZN11xalanc_1_1028XercesEntityReferenceWrapper11appendChildEPNS_9XalanNodeE", scope: !47, file: !48, line: 251, type: !896, scopeLine: 251, containingType: !47, virtualIndex: 17, flags: DIFlagPublic | DIFlagPrototyped, spFlags: DISPFlagVirtual)
!899 = !DISubprogram(name: "hasChildNodes", linkageName: "_ZNK11xalanc_1_1028XercesEntityReferenceWrapper13hasChildNodesEv", scope: !47, file: !48, line: 265, type: !900, scopeLine: 265, containingType: !47, virtualIndex: 18, flags: DIFlagPublic | DIFlagPrototyped, spFlags: DISPFlagVirtual)
!900 = !DISubroutineType(types: !901)
!901 = !{!188, !854}
!902 = !DISubprogram(name: "setNodeValue", linkageName: "_ZN11xalanc_1_1028XercesEntityReferenceWrapper12setNodeValueERKNS_14XalanDOMStringE", scope: !47, file: !48, line: 287, type: !903, scopeLine: 287, containingType: !47, virtualIndex: 19, flags: DIFlagPublic | DIFlagPrototyped, spFlags: DISPFlagVirtual)
!903 = !DISubroutineType(types: !904)
!904 = !{null, !73, !89}
!905 = !DISubprogram(name: "normalize", linkageName: "_ZN11xalanc_1_1028XercesEntityReferenceWrapper9normalizeEv", scope: !47, file: !48, line: 310, type: !84, scopeLine: 310, containingType: !47, virtualIndex: 20, flags: DIFlagPublic | DIFlagPrototyped, spFlags: DISPFlagVirtual)
!906 = !DISubprogram(name: "isSupported", linkageName: "_ZNK11xalanc_1_1028XercesEntityReferenceWrapper11isSupportedERKNS_14XalanDOMStringES3_", scope: !47, file: !48, line: 326, type: !907, scopeLine: 326, containingType: !47, virtualIndex: 21, flags: DIFlagPublic | DIFlagPrototyped, spFlags: DISPFlagVirtual)
!907 = !DISubroutineType(types: !908)
!908 = !{!188, !854, !89, !89}
!909 = !DISubprogram(name: "getNamespaceURI", linkageName: "_ZNK11xalanc_1_1028XercesEntityReferenceWrapper15getNamespaceURIEv", scope: !47, file: !48, line: 344, type: !87, scopeLine: 344, containingType: !47, virtualIndex: 22, flags: DIFlagPublic | DIFlagPrototyped, spFlags: DISPFlagVirtual)
!910 = !DISubprogram(name: "getPrefix", linkageName: "_ZNK11xalanc_1_1028XercesEntityReferenceWrapper9getPrefixEv", scope: !47, file: !48, line: 351, type: !87, scopeLine: 351, containingType: !47, virtualIndex: 23, flags: DIFlagPublic | DIFlagPrototyped, spFlags: DISPFlagVirtual)
!911 = !DISubprogram(name: "getLocalName", linkageName: "_ZNK11xalanc_1_1028XercesEntityReferenceWrapper12getLocalNameEv", scope: !47, file: !48, line: 361, type: !87, scopeLine: 361, containingType: !47, virtualIndex: 24, flags: DIFlagPublic | DIFlagPrototyped, spFlags: DISPFlagVirtual)
!912 = !DISubprogram(name: "setPrefix", linkageName: "_ZN11xalanc_1_1028XercesEntityReferenceWrapper9setPrefixERKNS_14XalanDOMStringE", scope: !47, file: !48, line: 393, type: !903, scopeLine: 393, containingType: !47, virtualIndex: 25, flags: DIFlagPublic | DIFlagPrototyped, spFlags: DISPFlagVirtual)
!913 = !DISubprogram(name: "isIndexed", linkageName: "_ZNK11xalanc_1_1028XercesEntityReferenceWrapper9isIndexedEv", scope: !47, file: !48, line: 396, type: !900, scopeLine: 396, containingType: !47, virtualIndex: 26, flags: DIFlagPublic | DIFlagPrototyped, spFlags: DISPFlagVirtual)
!914 = !DISubprogram(name: "getIndex", linkageName: "_ZNK11xalanc_1_1028XercesEntityReferenceWrapper8getIndexEv", scope: !47, file: !48, line: 399, type: !915, scopeLine: 399, containingType: !47, virtualIndex: 27, flags: DIFlagPublic | DIFlagPrototyped, spFlags: DISPFlagVirtual)
!915 = !DISubroutineType(types: !916)
!916 = !{!917, !854}
!917 = !DIDerivedType(tag: DW_TAG_typedef, name: "IndexType", scope: !5, file: !4, line: 70, baseType: !108)
!918 = !DISubprogram(name: "getXercesNode", linkageName: "_ZNK11xalanc_1_1028XercesEntityReferenceWrapper13getXercesNodeEv", scope: !47, file: !48, line: 407, type: !919, scopeLine: 407, flags: DIFlagPublic | DIFlagPrototyped, spFlags: 0)
!919 = !DISubroutineType(types: !920)
!920 = !{!55, !854}
!921 = !DISubprogram(name: "XercesEntityReferenceWrapper", scope: !47, file: !48, line: 417, type: !922, scopeLine: 417, flags: DIFlagPrototyped, spFlags: 0)
!922 = !DISubroutineType(types: !923)
!923 = !{null, !73, !924}
!924 = !DIDerivedType(tag: DW_TAG_reference_type, baseType: !855, size: 64)
!925 = !DISubprogram(name: "operator=", linkageName: "_ZN11xalanc_1_1028XercesEntityReferenceWrapperaSERKS0_", scope: !47, file: !48, line: 420, type: !926, scopeLine: 420, flags: DIFlagPrototyped, spFlags: 0)
!926 = !DISubroutineType(types: !927)
!927 = !{!928, !73, !924}
!928 = !DIDerivedType(tag: DW_TAG_reference_type, baseType: !47, size: 64)
!929 = !DISubprogram(name: "operator==", linkageName: "_ZNK11xalanc_1_1028XercesEntityReferenceWrappereqERKS0_", scope: !47, file: !48, line: 423, type: !930, scopeLine: 423, flags: DIFlagPrototyped, spFlags: 0)
!930 = !DISubroutineType(types: !931)
!931 = !{!188, !854, !924}
!932 = !DICompositeType(tag: DW_TAG_class_type, name: "XercesDOMWrapperException", scope: !6, file: !933, line: 41, flags: DIFlagFwdDecl)
!933 = !DIFile(filename: "./xalanc/XercesParserLiaison/XercesDOMWrapperException.hpp", directory: "/home/venkat/IF-DV/spec_build_release/CPU_2017/benchspec/CPU/523.xalancbmk_r/build/build_base_ld-loop-ext-m64.0000")
!934 = distinct !DICompositeType(tag: DW_TAG_class_type, name: "MemMgrAutoPtrData", scope: !936, file: !935, line: 52, size: 128, flags: DIFlagTypePassByValue | DIFlagNonTrivial, elements: !982, identifier: "_ZTSN11xalanc_1_1018XalanMemMgrAutoPtrINS_28XercesEntityReferenceWrapperELb0EE17MemMgrAutoPtrDataE")
!935 = !DIFile(filename: "./xalanc/Include/XalanMemMgrAutoPtr.hpp", directory: "/home/venkat/IF-DV/spec_build_release/CPU_2017/benchspec/CPU/523.xalancbmk_r/build/build_base_ld-loop-ext-m64.0000")
!936 = distinct !DICompositeType(tag: DW_TAG_class_type, name: "XalanMemMgrAutoPtr<xalanc_1_10::XercesEntityReferenceWrapper, false>", scope: !6, file: !935, line: 46, size: 128, flags: DIFlagTypePassByReference | DIFlagNonTrivial, elements: !937, templateParams: !979, identifier: "_ZTSN11xalanc_1_1018XalanMemMgrAutoPtrINS_28XercesEntityReferenceWrapperELb0EEE")
!937 = !{!938, !939, !943, !946, !951, !955, !956, !960, !963, !964, !967, !970, !973, !976}
!938 = !DIDerivedType(tag: DW_TAG_member, name: "m_pointerInfo", scope: !936, file: !935, line: 212, baseType: !934, size: 128)
!939 = !DISubprogram(name: "XalanMemMgrAutoPtr", scope: !936, file: !935, line: 116, type: !940, scopeLine: 116, flags: DIFlagPublic | DIFlagPrototyped, spFlags: 0)
!940 = !DISubroutineType(types: !941)
!941 = !{null, !942, !118, !77}
!942 = !DIDerivedType(tag: DW_TAG_pointer_type, baseType: !936, size: 64, flags: DIFlagArtificial | DIFlagObjectPointer)
!943 = !DISubprogram(name: "XalanMemMgrAutoPtr", scope: !936, file: !935, line: 123, type: !944, scopeLine: 123, flags: DIFlagPublic | DIFlagPrototyped, spFlags: 0)
!944 = !DISubroutineType(types: !945)
!945 = !{null, !942}
!946 = !DISubprogram(name: "XalanMemMgrAutoPtr", scope: !936, file: !935, line: 128, type: !947, scopeLine: 128, flags: DIFlagPublic | DIFlagPrototyped, spFlags: 0)
!947 = !DISubroutineType(types: !948)
!948 = !{null, !942, !949}
!949 = !DIDerivedType(tag: DW_TAG_reference_type, baseType: !950, size: 64)
!950 = !DIDerivedType(tag: DW_TAG_const_type, baseType: !936)
!951 = !DISubprogram(name: "operator=", linkageName: "_ZN11xalanc_1_1018XalanMemMgrAutoPtrINS_28XercesEntityReferenceWrapperELb0EEaSERS2_", scope: !936, file: !935, line: 134, type: !952, scopeLine: 134, flags: DIFlagPublic | DIFlagPrototyped, spFlags: 0)
!952 = !DISubroutineType(types: !953)
!953 = !{!954, !942, !954}
!954 = !DIDerivedType(tag: DW_TAG_reference_type, baseType: !936, size: 64)
!955 = !DISubprogram(name: "~XalanMemMgrAutoPtr", scope: !936, file: !935, line: 146, type: !944, scopeLine: 146, flags: DIFlagPublic | DIFlagPrototyped, spFlags: 0)
!956 = !DISubprogram(name: "operator*", linkageName: "_ZNK11xalanc_1_1018XalanMemMgrAutoPtrINS_28XercesEntityReferenceWrapperELb0EEdeEv", scope: !936, file: !935, line: 152, type: !957, scopeLine: 152, flags: DIFlagPublic | DIFlagPrototyped, spFlags: 0)
!957 = !DISubroutineType(types: !958)
!958 = !{!928, !959}
!959 = !DIDerivedType(tag: DW_TAG_pointer_type, baseType: !950, size: 64, flags: DIFlagArtificial | DIFlagObjectPointer)
!960 = !DISubprogram(name: "operator->", linkageName: "_ZNK11xalanc_1_1018XalanMemMgrAutoPtrINS_28XercesEntityReferenceWrapperELb0EEptEv", scope: !936, file: !935, line: 158, type: !961, scopeLine: 158, flags: DIFlagPublic | DIFlagPrototyped, spFlags: 0)
!961 = !DISubroutineType(types: !962)
!962 = !{!77, !959}
!963 = !DISubprogram(name: "get", linkageName: "_ZNK11xalanc_1_1018XalanMemMgrAutoPtrINS_28XercesEntityReferenceWrapperELb0EE3getEv", scope: !936, file: !935, line: 164, type: !961, scopeLine: 164, flags: DIFlagPublic | DIFlagPrototyped, spFlags: 0)
!964 = !DISubprogram(name: "getMemoryManager", linkageName: "_ZN11xalanc_1_1018XalanMemMgrAutoPtrINS_28XercesEntityReferenceWrapperELb0EE16getMemoryManagerEv", scope: !936, file: !935, line: 170, type: !965, scopeLine: 170, flags: DIFlagPublic | DIFlagPrototyped, spFlags: 0)
!965 = !DISubroutineType(types: !966)
!966 = !{!103, !942}
!967 = !DISubprogram(name: "getMemoryManager", linkageName: "_ZNK11xalanc_1_1018XalanMemMgrAutoPtrINS_28XercesEntityReferenceWrapperELb0EE16getMemoryManagerEv", scope: !936, file: !935, line: 176, type: !968, scopeLine: 176, flags: DIFlagPublic | DIFlagPrototyped, spFlags: 0)
!968 = !DISubroutineType(types: !969)
!969 = !{!392, !959}
!970 = !DISubprogram(name: "release", linkageName: "_ZN11xalanc_1_1018XalanMemMgrAutoPtrINS_28XercesEntityReferenceWrapperELb0EE7releaseEv", scope: !936, file: !935, line: 182, type: !971, scopeLine: 182, flags: DIFlagPublic | DIFlagPrototyped, spFlags: 0)
!971 = !DISubroutineType(types: !972)
!972 = !{!934, !942}
!973 = !DISubprogram(name: "releasePtr", linkageName: "_ZN11xalanc_1_1018XalanMemMgrAutoPtrINS_28XercesEntityReferenceWrapperELb0EE10releasePtrEv", scope: !936, file: !935, line: 192, type: !974, scopeLine: 192, flags: DIFlagPublic | DIFlagPrototyped, spFlags: 0)
!974 = !DISubroutineType(types: !975)
!975 = !{!77, !942}
!976 = !DISubprogram(name: "reset", linkageName: "_ZN11xalanc_1_1018XalanMemMgrAutoPtrINS_28XercesEntityReferenceWrapperELb0EE5resetEPN11xercesc_2_713MemoryManagerEPS1_", scope: !936, file: !935, line: 200, type: !977, scopeLine: 200, flags: DIFlagPublic | DIFlagPrototyped, spFlags: 0)
!977 = !DISubroutineType(types: !978)
!978 = !{null, !942, !103, !77}
!979 = !{!980, !981}
!980 = !DITemplateTypeParameter(name: "Type", type: !47)
!981 = !DITemplateValueParameter(name: "toCallDestructor", type: !188, value: i8 0)
!982 = !{!983, !1049, !1053, !1056, !1061, !1062, !1063}
!983 = !DIDerivedType(tag: DW_TAG_inheritance, scope: !934, baseType: !984, flags: DIFlagPublic, extraData: i32 0)
!984 = !DIDerivedType(tag: DW_TAG_typedef, name: "AutoPtrPairType", scope: !936, file: !935, line: 50, baseType: !985)
!985 = distinct !DICompositeType(tag: DW_TAG_structure_type, name: "pair<xercesc_2_7::MemoryManager *, xalanc_1_10::XercesEntityReferenceWrapper *>", scope: !216, file: !986, line: 211, size: 128, flags: DIFlagTypePassByValue | DIFlagNonTrivial, elements: !987, templateParams: !1046, identifier: "_ZTSSt4pairIPN11xercesc_2_713MemoryManagerEPN11xalanc_1_1028XercesEntityReferenceWrapperEE")
!986 = !DIFile(filename: "/usr/lib/gcc/x86_64-linux-gnu/10/../../../../include/c++/10/bits/stl_pair.h", directory: "")
!987 = !{!988, !1008, !1009, !1010, !1016, !1020, !1034, !1043}
!988 = !DIDerivedType(tag: DW_TAG_inheritance, scope: !985, baseType: !989, flags: DIFlagPrivate, extraData: i32 0)
!989 = distinct !DICompositeType(tag: DW_TAG_class_type, name: "__pair_base<xercesc_2_7::MemoryManager *, xalanc_1_10::XercesEntityReferenceWrapper *>", scope: !216, file: !986, line: 189, size: 8, flags: DIFlagTypePassByValue, elements: !990, templateParams: !1005, identifier: "_ZTSSt11__pair_baseIPN11xercesc_2_713MemoryManagerEPN11xalanc_1_1028XercesEntityReferenceWrapperEE")
!990 = !{!991, !995, !996, !1001}
!991 = !DISubprogram(name: "__pair_base", scope: !989, file: !986, line: 193, type: !992, scopeLine: 193, flags: DIFlagPrototyped, spFlags: 0)
!992 = !DISubroutineType(types: !993)
!993 = !{null, !994}
!994 = !DIDerivedType(tag: DW_TAG_pointer_type, baseType: !989, size: 64, flags: DIFlagArtificial | DIFlagObjectPointer)
!995 = !DISubprogram(name: "~__pair_base", scope: !989, file: !986, line: 194, type: !992, scopeLine: 194, flags: DIFlagPrototyped, spFlags: 0)
!996 = !DISubprogram(name: "__pair_base", scope: !989, file: !986, line: 195, type: !997, scopeLine: 195, flags: DIFlagPrototyped, spFlags: 0)
!997 = !DISubroutineType(types: !998)
!998 = !{null, !994, !999}
!999 = !DIDerivedType(tag: DW_TAG_reference_type, baseType: !1000, size: 64)
!1000 = !DIDerivedType(tag: DW_TAG_const_type, baseType: !989)
