; ModuleID = 'XSMultiValueFacet.cpp'
source_filename = "XSMultiValueFacet.cpp"
target datalayout = "e-m:e-p270:32:32-p271:32:32-p272:64:64-i64:64-f80:128-n8:16:32:64-S128"
target triple = "x86_64-unknown-linux-gnu"

%"class.xercesc_2_7::XSMultiValueFacet" = type { %"class.xercesc_2_7::XSObject.base", i32, i8, %"class.xercesc_2_7::RefArrayVectorOf"*, %"class.xercesc_2_7::RefVectorOf"* }
%"class.xercesc_2_7::XSObject.base" = type <{ i32 (...)**, i32, [4 x i8], %"class.xercesc_2_7::XSModel"*, %"class.xercesc_2_7::MemoryManager"*, i32 }>
%"class.xercesc_2_7::RefVectorOf" = type { %"class.xercesc_2_7::BaseRefVectorOf" }
%"class.xercesc_2_7::BaseRefVectorOf" = type { i32 (...)**, i8, i32, i32, %"class.xercesc_2_7::XSAnnotation"**, %"class.xercesc_2_7::MemoryManager"* }
%"class.xercesc_2_7::RefArrayVectorOf" = type opaque
%"class.xercesc_2_7::XSAnnotation" = type { %"class.xercesc_2_7::XSerializable", %"class.xercesc_2_7::XSObject.base", i16*, %"class.xercesc_2_7::XSAnnotation"*, i16*, i32, i32 }
%"class.xercesc_2_7::XSerializable" = type { i32 (...)** }
%"class.xercesc_2_7::XSModel" = type opaque
%"class.xercesc_2_7::MemoryManager" = type { i32 (...)** }
%"class.xercesc_2_7::XMLDeleter" = type { i32 (...)** }
%"class.xercesc_2_7::XSObject" = type <{ i32 (...)**, i32, [4 x i8], %"class.xercesc_2_7::XSModel"*, %"class.xercesc_2_7::MemoryManager"*, i32, [4 x i8] }>
%"class.xercesc_2_7::XSNamespaceItem" = type opaque
%"class.xercesc_2_7::XMemory" = type { i8 }
%"class.xercesc_2_7::ArrayIndexOutOfBoundsException" = type { %"class.xercesc_2_7::XMLException" }
%"class.xercesc_2_7::XMLException" = type { i32 (...)**, i32, i8*, i32, i16*, %"class.xercesc_2_7::MemoryManager"* }

$_ZN11xercesc_2_710XMLDeleterD0Ev = comdat any

$_ZN11xercesc_2_710XMLDeleterD2Ev = comdat any

$_ZN11xercesc_2_711RefVectorOfINS_12XSAnnotationEEC2EjbPNS_13MemoryManagerE = comdat any

$_ZN11xercesc_2_715BaseRefVectorOfINS_12XSAnnotationEE10addElementEPS1_ = comdat any

$_ZN11xercesc_2_715BaseRefVectorOfINS_12XSAnnotationEEC2EjbPNS_13MemoryManagerE = comdat any

$_ZN11xercesc_2_711RefVectorOfINS_12XSAnnotationEED2Ev = comdat any

$_ZN11xercesc_2_711RefVectorOfINS_12XSAnnotationEED0Ev = comdat any

$_ZN11xercesc_2_715BaseRefVectorOfINS_12XSAnnotationEE12setElementAtEPS1_j = comdat any

$_ZN11xercesc_2_715BaseRefVectorOfINS_12XSAnnotationEE17removeAllElementsEv = comdat any

$_ZN11xercesc_2_715BaseRefVectorOfINS_12XSAnnotationEE15removeElementAtEj = comdat any

$_ZN11xercesc_2_715BaseRefVectorOfINS_12XSAnnotationEE17removeLastElementEv = comdat any

$_ZN11xercesc_2_715BaseRefVectorOfINS_12XSAnnotationEE7cleanupEv = comdat any

$_ZN11xercesc_2_77XMemoryC2Ev = comdat any

$_ZN11xercesc_2_715BaseRefVectorOfINS_12XSAnnotationEED2Ev = comdat any

$_ZN11xercesc_2_715BaseRefVectorOfINS_12XSAnnotationEED0Ev = comdat any

$__clang_call_terminate = comdat any

$_ZN11xercesc_2_730ArrayIndexOutOfBoundsExceptionC2EPKcjNS_10XMLExcepts5CodesEPNS_13MemoryManagerE = comdat any

$_ZN11xercesc_2_730ArrayIndexOutOfBoundsExceptionD2Ev = comdat any

$_ZN11xercesc_2_730ArrayIndexOutOfBoundsExceptionD0Ev = comdat any

$_ZNK11xercesc_2_730ArrayIndexOutOfBoundsException7getTypeEv = comdat any

$_ZNK11xercesc_2_730ArrayIndexOutOfBoundsException9duplicateEv = comdat any

$_ZN11xercesc_2_730ArrayIndexOutOfBoundsExceptionC2ERKS0_ = comdat any

$_ZN11xercesc_2_715BaseRefVectorOfINS_12XSAnnotationEE19ensureExtraCapacityEj = comdat any

$_ZTVN11xercesc_2_710XMLDeleterE = comdat any

$_ZTSN11xercesc_2_710XMLDeleterE = comdat any

$_ZTIN11xercesc_2_710XMLDeleterE = comdat any

$_ZTVN11xercesc_2_711RefVectorOfINS_12XSAnnotationEEE = comdat any

$_ZTSN11xercesc_2_711RefVectorOfINS_12XSAnnotationEEE = comdat any

$_ZTSN11xercesc_2_715BaseRefVectorOfINS_12XSAnnotationEEE = comdat any

$_ZTSN11xercesc_2_77XMemoryE = comdat any

$_ZTIN11xercesc_2_77XMemoryE = comdat any

$_ZTIN11xercesc_2_715BaseRefVectorOfINS_12XSAnnotationEEE = comdat any

$_ZTIN11xercesc_2_711RefVectorOfINS_12XSAnnotationEEE = comdat any

$_ZTVN11xercesc_2_715BaseRefVectorOfINS_12XSAnnotationEEE = comdat any

$_ZTSN11xercesc_2_730ArrayIndexOutOfBoundsExceptionE = comdat any

$_ZTIN11xercesc_2_730ArrayIndexOutOfBoundsExceptionE = comdat any

$_ZTVN11xercesc_2_730ArrayIndexOutOfBoundsExceptionE = comdat any

@_ZTVN11xercesc_2_717XSMultiValueFacetE = dso_local unnamed_addr constant { [8 x i8*] } { [8 x i8*] [i8* null, i8* bitcast ({ i8*, i8*, i8* }* @_ZTIN11xercesc_2_717XSMultiValueFacetE to i8*), i8* bitcast (void (%"class.xercesc_2_7::XSMultiValueFacet"*)* @_ZN11xercesc_2_717XSMultiValueFacetD1Ev to i8*), i8* bitcast (void (%"class.xercesc_2_7::XSMultiValueFacet"*)* @_ZN11xercesc_2_717XSMultiValueFacetD0Ev to i8*), i8* bitcast (i16* (%"class.xercesc_2_7::XSObject"*)* @_ZN11xercesc_2_78XSObject7getNameEv to i8*), i8* bitcast (i16* (%"class.xercesc_2_7::XSObject"*)* @_ZN11xercesc_2_78XSObject12getNamespaceEv to i8*), i8* bitcast (%"class.xercesc_2_7::XSNamespaceItem"* (%"class.xercesc_2_7::XSObject"*)* @_ZN11xercesc_2_78XSObject16getNamespaceItemEv to i8*), i8* bitcast (i32 (%"class.xercesc_2_7::XSObject"*)* @_ZNK11xercesc_2_78XSObject5getIdEv to i8*)] }, align 8
@_ZTVN11xercesc_2_710XMLDeleterE = linkonce_odr dso_local unnamed_addr constant { [4 x i8*] } { [4 x i8*] [i8* null, i8* bitcast ({ i8*, i8* }* @_ZTIN11xercesc_2_710XMLDeleterE to i8*), i8* bitcast (void (%"class.xercesc_2_7::XMLDeleter"*)* @_ZN11xercesc_2_710XMLDeleterD2Ev to i8*), i8* bitcast (void (%"class.xercesc_2_7::XMLDeleter"*)* @_ZN11xercesc_2_710XMLDeleterD0Ev to i8*)] }, comdat, align 8
@_ZTVN10__cxxabiv117__class_type_infoE = external dso_local global i8*
@_ZTSN11xercesc_2_710XMLDeleterE = linkonce_odr dso_local constant [28 x i8] c"N11xercesc_2_710XMLDeleterE\00", comdat, align 1
@_ZTIN11xercesc_2_710XMLDeleterE = linkonce_odr dso_local constant { i8*, i8* } { i8* bitcast (i8** getelementptr inbounds (i8*, i8** @_ZTVN10__cxxabiv117__class_type_infoE, i64 2) to i8*), i8* getelementptr inbounds ([28 x i8], [28 x i8]* @_ZTSN11xercesc_2_710XMLDeleterE, i32 0, i32 0) }, comdat, align 8
@_ZTVN10__cxxabiv120__si_class_type_infoE = external dso_local global i8*
@_ZTSN11xercesc_2_717XSMultiValueFacetE = dso_local constant [35 x i8] c"N11xercesc_2_717XSMultiValueFacetE\00", align 1
@_ZTIN11xercesc_2_78XSObjectE = external dso_local constant i8*
@_ZTIN11xercesc_2_717XSMultiValueFacetE = dso_local constant { i8*, i8*, i8* } { i8* bitcast (i8** getelementptr inbounds (i8*, i8** @_ZTVN10__cxxabiv120__si_class_type_infoE, i64 2) to i8*), i8* getelementptr inbounds ([35 x i8], [35 x i8]* @_ZTSN11xercesc_2_717XSMultiValueFacetE, i32 0, i32 0), i8* bitcast (i8** @_ZTIN11xercesc_2_78XSObjectE to i8*) }, align 8
@_ZTVN11xercesc_2_711RefVectorOfINS_12XSAnnotationEEE = linkonce_odr dso_local unnamed_addr constant { [9 x i8*] } { [9 x i8*] [i8* null, i8* bitcast ({ i8*, i8*, i8* }* @_ZTIN11xercesc_2_711RefVectorOfINS_12XSAnnotationEEE to i8*), i8* bitcast (void (%"class.xercesc_2_7::RefVectorOf"*)* @_ZN11xercesc_2_711RefVectorOfINS_12XSAnnotationEED2Ev to i8*), i8* bitcast (void (%"class.xercesc_2_7::RefVectorOf"*)* @_ZN11xercesc_2_711RefVectorOfINS_12XSAnnotationEED0Ev to i8*), i8* bitcast (void (%"class.xercesc_2_7::BaseRefVectorOf"*, %"class.xercesc_2_7::XSAnnotation"*, i32)* @_ZN11xercesc_2_715BaseRefVectorOfINS_12XSAnnotationEE12setElementAtEPS1_j to i8*), i8* bitcast (void (%"class.xercesc_2_7::BaseRefVectorOf"*)* @_ZN11xercesc_2_715BaseRefVectorOfINS_12XSAnnotationEE17removeAllElementsEv to i8*), i8* bitcast (void (%"class.xercesc_2_7::BaseRefVectorOf"*, i32)* @_ZN11xercesc_2_715BaseRefVectorOfINS_12XSAnnotationEE15removeElementAtEj to i8*), i8* bitcast (void (%"class.xercesc_2_7::BaseRefVectorOf"*)* @_ZN11xercesc_2_715BaseRefVectorOfINS_12XSAnnotationEE17removeLastElementEv to i8*), i8* bitcast (void (%"class.xercesc_2_7::BaseRefVectorOf"*)* @_ZN11xercesc_2_715BaseRefVectorOfINS_12XSAnnotationEE7cleanupEv to i8*)] }, comdat, align 8
@_ZTSN11xercesc_2_711RefVectorOfINS_12XSAnnotationEEE = linkonce_odr dso_local constant [49 x i8] c"N11xercesc_2_711RefVectorOfINS_12XSAnnotationEEE\00", comdat, align 1
@_ZTSN11xercesc_2_715BaseRefVectorOfINS_12XSAnnotationEEE = linkonce_odr dso_local constant [53 x i8] c"N11xercesc_2_715BaseRefVectorOfINS_12XSAnnotationEEE\00", comdat, align 1
@_ZTSN11xercesc_2_77XMemoryE = linkonce_odr dso_local constant [24 x i8] c"N11xercesc_2_77XMemoryE\00", comdat, align 1
@_ZTIN11xercesc_2_77XMemoryE = linkonce_odr dso_local constant { i8*, i8* } { i8* bitcast (i8** getelementptr inbounds (i8*, i8** @_ZTVN10__cxxabiv117__class_type_infoE, i64 2) to i8*), i8* getelementptr inbounds ([24 x i8], [24 x i8]* @_ZTSN11xercesc_2_77XMemoryE, i32 0, i32 0) }, comdat, align 8
@_ZTIN11xercesc_2_715BaseRefVectorOfINS_12XSAnnotationEEE = linkonce_odr dso_local constant { i8*, i8*, i8* } { i8* bitcast (i8** getelementptr inbounds (i8*, i8** @_ZTVN10__cxxabiv120__si_class_type_infoE, i64 2) to i8*), i8* getelementptr inbounds ([53 x i8], [53 x i8]* @_ZTSN11xercesc_2_715BaseRefVectorOfINS_12XSAnnotationEEE, i32 0, i32 0), i8* bitcast ({ i8*, i8* }* @_ZTIN11xercesc_2_77XMemoryE to i8*) }, comdat, align 8
@_ZTIN11xercesc_2_711RefVectorOfINS_12XSAnnotationEEE = linkonce_odr dso_local constant { i8*, i8*, i8* } { i8* bitcast (i8** getelementptr inbounds (i8*, i8** @_ZTVN10__cxxabiv120__si_class_type_infoE, i64 2) to i8*), i8* getelementptr inbounds ([49 x i8], [49 x i8]* @_ZTSN11xercesc_2_711RefVectorOfINS_12XSAnnotationEEE, i32 0, i32 0), i8* bitcast ({ i8*, i8*, i8* }* @_ZTIN11xercesc_2_715BaseRefVectorOfINS_12XSAnnotationEEE to i8*) }, comdat, align 8
@_ZTVN11xercesc_2_715BaseRefVectorOfINS_12XSAnnotationEEE = linkonce_odr dso_local unnamed_addr constant { [9 x i8*] } { [9 x i8*] [i8* null, i8* bitcast ({ i8*, i8*, i8* }* @_ZTIN11xercesc_2_715BaseRefVectorOfINS_12XSAnnotationEEE to i8*), i8* bitcast (void (%"class.xercesc_2_7::BaseRefVectorOf"*)* @_ZN11xercesc_2_715BaseRefVectorOfINS_12XSAnnotationEED2Ev to i8*), i8* bitcast (void (%"class.xercesc_2_7::BaseRefVectorOf"*)* @_ZN11xercesc_2_715BaseRefVectorOfINS_12XSAnnotationEED0Ev to i8*), i8* bitcast (void (%"class.xercesc_2_7::BaseRefVectorOf"*, %"class.xercesc_2_7::XSAnnotation"*, i32)* @_ZN11xercesc_2_715BaseRefVectorOfINS_12XSAnnotationEE12setElementAtEPS1_j to i8*), i8* bitcast (void (%"class.xercesc_2_7::BaseRefVectorOf"*)* @_ZN11xercesc_2_715BaseRefVectorOfINS_12XSAnnotationEE17removeAllElementsEv to i8*), i8* bitcast (void (%"class.xercesc_2_7::BaseRefVectorOf"*, i32)* @_ZN11xercesc_2_715BaseRefVectorOfINS_12XSAnnotationEE15removeElementAtEj to i8*), i8* bitcast (void (%"class.xercesc_2_7::BaseRefVectorOf"*)* @_ZN11xercesc_2_715BaseRefVectorOfINS_12XSAnnotationEE17removeLastElementEv to i8*), i8* bitcast (void (%"class.xercesc_2_7::BaseRefVectorOf"*)* @_ZN11xercesc_2_715BaseRefVectorOfINS_12XSAnnotationEE7cleanupEv to i8*)] }, comdat, align 8
@.str = private unnamed_addr constant [33 x i8] c"./xercesc/util/BaseRefVectorOf.c\00", align 1
@_ZTSN11xercesc_2_730ArrayIndexOutOfBoundsExceptionE = linkonce_odr dso_local constant [48 x i8] c"N11xercesc_2_730ArrayIndexOutOfBoundsExceptionE\00", comdat, align 1
@_ZTIN11xercesc_2_712XMLExceptionE = external dso_local constant i8*
@_ZTIN11xercesc_2_730ArrayIndexOutOfBoundsExceptionE = linkonce_odr dso_local constant { i8*, i8*, i8* } { i8* bitcast (i8** getelementptr inbounds (i8*, i8** @_ZTVN10__cxxabiv120__si_class_type_infoE, i64 2) to i8*), i8* getelementptr inbounds ([48 x i8], [48 x i8]* @_ZTSN11xercesc_2_730ArrayIndexOutOfBoundsExceptionE, i32 0, i32 0), i8* bitcast (i8** @_ZTIN11xercesc_2_712XMLExceptionE to i8*) }, comdat, align 8
@_ZTVN11xercesc_2_730ArrayIndexOutOfBoundsExceptionE = linkonce_odr dso_local unnamed_addr constant { [6 x i8*] } { [6 x i8*] [i8* null, i8* bitcast ({ i8*, i8*, i8* }* @_ZTIN11xercesc_2_730ArrayIndexOutOfBoundsExceptionE to i8*), i8* bitcast (void (%"class.xercesc_2_7::ArrayIndexOutOfBoundsException"*)* @_ZN11xercesc_2_730ArrayIndexOutOfBoundsExceptionD2Ev to i8*), i8* bitcast (void (%"class.xercesc_2_7::ArrayIndexOutOfBoundsException"*)* @_ZN11xercesc_2_730ArrayIndexOutOfBoundsExceptionD0Ev to i8*), i8* bitcast (i16* (%"class.xercesc_2_7::ArrayIndexOutOfBoundsException"*)* @_ZNK11xercesc_2_730ArrayIndexOutOfBoundsException7getTypeEv to i8*), i8* bitcast (%"class.xercesc_2_7::XMLException"* (%"class.xercesc_2_7::ArrayIndexOutOfBoundsException"*)* @_ZNK11xercesc_2_730ArrayIndexOutOfBoundsException9duplicateEv to i8*)] }, comdat, align 8
@_ZN11xercesc_2_76XMLUni37fgArrayIndexOutOfBoundsException_NameE = external dso_local constant [0 x i16], align 2

@_ZN11xercesc_2_717XSMultiValueFacetC1ENS_22XSSimpleTypeDefinition5FACETEPNS_16RefArrayVectorOfItEEbPNS_12XSAnnotationEPNS_7XSModelEPNS_13MemoryManagerE = dso_local unnamed_addr alias void (%"class.xercesc_2_7::XSMultiValueFacet"*, i32, %"class.xercesc_2_7::RefArrayVectorOf"*, i1, %"class.xercesc_2_7::XSAnnotation"*, %"class.xercesc_2_7::XSModel"*, %"class.xercesc_2_7::MemoryManager"*), void (%"class.xercesc_2_7::XSMultiValueFacet"*, i32, %"class.xercesc_2_7::RefArrayVectorOf"*, i1, %"class.xercesc_2_7::XSAnnotation"*, %"class.xercesc_2_7::XSModel"*, %"class.xercesc_2_7::MemoryManager"*)* @_ZN11xercesc_2_717XSMultiValueFacetC2ENS_22XSSimpleTypeDefinition5FACETEPNS_16RefArrayVectorOfItEEbPNS_12XSAnnotationEPNS_7XSModelEPNS_13MemoryManagerE
@_ZN11xercesc_2_717XSMultiValueFacetD1Ev = dso_local unnamed_addr alias void (%"class.xercesc_2_7::XSMultiValueFacet"*), void (%"class.xercesc_2_7::XSMultiValueFacet"*)* @_ZN11xercesc_2_717XSMultiValueFacetD2Ev

; Function Attrs: nounwind readnone speculatable willreturn
declare void @llvm.dbg.declare(metadata, metadata, metadata) #0

; Function Attrs: noinline nounwind uwtable
define linkonce_odr dso_local void @_ZN11xercesc_2_710XMLDeleterD0Ev(%"class.xercesc_2_7::XMLDeleter"* %this) unnamed_addr #1 comdat align 2 !dbg !856 {
entry:
  %this.addr = alloca %"class.xercesc_2_7::XMLDeleter"*, align 8
  store %"class.xercesc_2_7::XMLDeleter"* %this, %"class.xercesc_2_7::XMLDeleter"** %this.addr, align 8
  call void @llvm.dbg.declare(metadata %"class.xercesc_2_7::XMLDeleter"** %this.addr, metadata !878, metadata !DIExpression()), !dbg !880
  %this1 = load %"class.xercesc_2_7::XMLDeleter"*, %"class.xercesc_2_7::XMLDeleter"** %this.addr, align 8
  call void @_ZN11xercesc_2_710XMLDeleterD2Ev(%"class.xercesc_2_7::XMLDeleter"* %this1) #7, !dbg !881
  %0 = bitcast %"class.xercesc_2_7::XMLDeleter"* %this1 to i8*, !dbg !881
  call void @_ZdlPv(i8* %0) #8, !dbg !881
  ret void, !dbg !882
}

; Function Attrs: noinline nounwind uwtable
define linkonce_odr dso_local void @_ZN11xercesc_2_710XMLDeleterD2Ev(%"class.xercesc_2_7::XMLDeleter"* %this) unnamed_addr #1 comdat align 2 !dbg !883 {
entry:
  %this.addr = alloca %"class.xercesc_2_7::XMLDeleter"*, align 8
  store %"class.xercesc_2_7::XMLDeleter"* %this, %"class.xercesc_2_7::XMLDeleter"** %this.addr, align 8
  call void @llvm.dbg.declare(metadata %"class.xercesc_2_7::XMLDeleter"** %this.addr, metadata !884, metadata !DIExpression()), !dbg !885
  %this1 = load %"class.xercesc_2_7::XMLDeleter"*, %"class.xercesc_2_7::XMLDeleter"** %this.addr, align 8
  ret void, !dbg !886
}

; Function Attrs: nobuiltin nounwind
declare dso_local void @_ZdlPv(i8*) #2

; Function Attrs: noinline uwtable
define dso_local void @_ZN11xercesc_2_717XSMultiValueFacetC2ENS_22XSSimpleTypeDefinition5FACETEPNS_16RefArrayVectorOfItEEbPNS_12XSAnnotationEPNS_7XSModelEPNS_13MemoryManagerE(%"class.xercesc_2_7::XSMultiValueFacet"* %this, i32 %facetKind, %"class.xercesc_2_7::RefArrayVectorOf"* %lexicalValues, i1 zeroext %isFixed, %"class.xercesc_2_7::XSAnnotation"* %headAnnot, %"class.xercesc_2_7::XSModel"* %xsModel, %"class.xercesc_2_7::MemoryManager"* %manager) unnamed_addr #3 align 2 personality i8* bitcast (i32 (...)* @__gxx_personality_v0 to i8*) !dbg !887 {
entry:
  %this.addr = alloca %"class.xercesc_2_7::XSMultiValueFacet"*, align 8
  %facetKind.addr = alloca i32, align 4
  %lexicalValues.addr = alloca %"class.xercesc_2_7::RefArrayVectorOf"*, align 8
  %isFixed.addr = alloca i8, align 1
  %headAnnot.addr = alloca %"class.xercesc_2_7::XSAnnotation"*, align 8
  %xsModel.addr = alloca %"class.xercesc_2_7::XSModel"*, align 8
  %manager.addr = alloca %"class.xercesc_2_7::MemoryManager"*, align 8
  %exn.slot = alloca i8*
  %ehselector.slot = alloca i32
  %annot = alloca %"class.xercesc_2_7::XSAnnotation"*, align 8
  store %"class.xercesc_2_7::XSMultiValueFacet"* %this, %"class.xercesc_2_7::XSMultiValueFacet"** %this.addr, align 8
  call void @llvm.dbg.declare(metadata %"class.xercesc_2_7::XSMultiValueFacet"** %this.addr, metadata !1048, metadata !DIExpression()), !dbg !1050
  store i32 %facetKind, i32* %facetKind.addr, align 4
  call void @llvm.dbg.declare(metadata i32* %facetKind.addr, metadata !1051, metadata !DIExpression()), !dbg !1052
  store %"class.xercesc_2_7::RefArrayVectorOf"* %lexicalValues, %"class.xercesc_2_7::RefArrayVectorOf"** %lexicalValues.addr, align 8
  call void @llvm.dbg.declare(metadata %"class.xercesc_2_7::RefArrayVectorOf"** %lexicalValues.addr, metadata !1053, metadata !DIExpression()), !dbg !1054
  %frombool = zext i1 %isFixed to i8
  store i8 %frombool, i8* %isFixed.addr, align 1
  call void @llvm.dbg.declare(metadata i8* %isFixed.addr, metadata !1055, metadata !DIExpression()), !dbg !1056
  store %"class.xercesc_2_7::XSAnnotation"* %headAnnot, %"class.xercesc_2_7::XSAnnotation"** %headAnnot.addr, align 8
  call void @llvm.dbg.declare(metadata %"class.xercesc_2_7::XSAnnotation"** %headAnnot.addr, metadata !1057, metadata !DIExpression()), !dbg !1058
  store %"class.xercesc_2_7::XSModel"* %xsModel, %"class.xercesc_2_7::XSModel"** %xsModel.addr, align 8
  call void @llvm.dbg.declare(metadata %"class.xercesc_2_7::XSModel"** %xsModel.addr, metadata !1059, metadata !DIExpression()), !dbg !1060
  store %"class.xercesc_2_7::MemoryManager"* %manager, %"class.xercesc_2_7::MemoryManager"** %manager.addr, align 8
  call void @llvm.dbg.declare(metadata %"class.xercesc_2_7::MemoryManager"** %manager.addr, metadata !1061, metadata !DIExpression()), !dbg !1062
  %this1 = load %"class.xercesc_2_7::XSMultiValueFacet"*, %"class.xercesc_2_7::XSMultiValueFacet"** %this.addr, align 8
  %0 = bitcast %"class.xercesc_2_7::XSMultiValueFacet"* %this1 to %"class.xercesc_2_7::XSObject"*, !dbg !1063
  %1 = load %"class.xercesc_2_7::XSModel"*, %"class.xercesc_2_7::XSModel"** %xsModel.addr, align 8, !dbg !1064
  %2 = load %"class.xercesc_2_7::MemoryManager"*, %"class.xercesc_2_7::MemoryManager"** %manager.addr, align 8, !dbg !1065
  call void @_ZN11xercesc_2_78XSObjectC2ENS_11XSConstants14COMPONENT_TYPEEPNS_7XSModelEPNS_13MemoryManagerE(%"class.xercesc_2_7::XSObject"* %0, i32 14, %"class.xercesc_2_7::XSModel"* %1, %"class.xercesc_2_7::MemoryManager"* %2), !dbg !1066
  %3 = bitcast %"class.xercesc_2_7::XSMultiValueFacet"* %this1 to i32 (...)***, !dbg !1063
  store i32 (...)** bitcast (i8** getelementptr inbounds ({ [8 x i8*] }, { [8 x i8*] }* @_ZTVN11xercesc_2_717XSMultiValueFacetE, i32 0, inrange i32 0, i32 2) to i32 (...)**), i32 (...)*** %3, align 8, !dbg !1063
  %fFacetKind = getelementptr inbounds %"class.xercesc_2_7::XSMultiValueFacet", %"class.xercesc_2_7::XSMultiValueFacet"* %this1, i32 0, i32 1, !dbg !1067
  %4 = load i32, i32* %facetKind.addr, align 4, !dbg !1068
  store i32 %4, i32* %fFacetKind, align 4, !dbg !1067
  %fIsFixed = getelementptr inbounds %"class.xercesc_2_7::XSMultiValueFacet", %"class.xercesc_2_7::XSMultiValueFacet"* %this1, i32 0, i32 2, !dbg !1069
  %5 = load i8, i8* %isFixed.addr, align 1, !dbg !1070
  %tobool = trunc i8 %5 to i1, !dbg !1070
  %frombool2 = zext i1 %tobool to i8, !dbg !1069
  store i8 %frombool2, i8* %fIsFixed, align 8, !dbg !1069
  %fLexicalValues = getelementptr inbounds %"class.xercesc_2_7::XSMultiValueFacet", %"class.xercesc_2_7::XSMultiValueFacet"* %this1, i32 0, i32 3, !dbg !1071
  %6 = load %"class.xercesc_2_7::RefArrayVectorOf"*, %"class.xercesc_2_7::RefArrayVectorOf"** %lexicalValues.addr, align 8, !dbg !1072
  store %"class.xercesc_2_7::RefArrayVectorOf"* %6, %"class.xercesc_2_7::RefArrayVectorOf"** %fLexicalValues, align 8, !dbg !1071
  %fXSAnnotationList = getelementptr inbounds %"class.xercesc_2_7::XSMultiValueFacet", %"class.xercesc_2_7::XSMultiValueFacet"* %this1, i32 0, i32 4, !dbg !1073
  store %"class.xercesc_2_7::RefVectorOf"* null, %"class.xercesc_2_7::RefVectorOf"** %fXSAnnotationList, align 8, !dbg !1073
  %7 = load %"class.xercesc_2_7::XSAnnotation"*, %"class.xercesc_2_7::XSAnnotation"** %headAnnot.addr, align 8, !dbg !1074
  %tobool3 = icmp ne %"class.xercesc_2_7::XSAnnotation"* %7, null, !dbg !1074
  br i1 %tobool3, label %if.then, label %if.end, !dbg !1077

if.then:                                          ; preds = %entry
  %8 = load %"class.xercesc_2_7::MemoryManager"*, %"class.xercesc_2_7::MemoryManager"** %manager.addr, align 8, !dbg !1078
  %call = invoke i8* @_ZN11xercesc_2_77XMemorynwEmPNS_13MemoryManagerE(i64 40, %"class.xercesc_2_7::MemoryManager"* %8)
          to label %invoke.cont unwind label %lpad, !dbg !1080

invoke.cont:                                      ; preds = %if.then
  %9 = bitcast i8* %call to %"class.xercesc_2_7::RefVectorOf"*, !dbg !1080
  %10 = load %"class.xercesc_2_7::MemoryManager"*, %"class.xercesc_2_7::MemoryManager"** %manager.addr, align 8, !dbg !1081
  invoke void @_ZN11xercesc_2_711RefVectorOfINS_12XSAnnotationEEC2EjbPNS_13MemoryManagerE(%"class.xercesc_2_7::RefVectorOf"* %9, i32 1, i1 zeroext false, %"class.xercesc_2_7::MemoryManager"* %10)
          to label %invoke.cont5 unwind label %lpad4, !dbg !1082

invoke.cont5:                                     ; preds = %invoke.cont
  %fXSAnnotationList6 = getelementptr inbounds %"class.xercesc_2_7::XSMultiValueFacet", %"class.xercesc_2_7::XSMultiValueFacet"* %this1, i32 0, i32 4, !dbg !1083
  store %"class.xercesc_2_7::RefVectorOf"* %9, %"class.xercesc_2_7::RefVectorOf"** %fXSAnnotationList6, align 8, !dbg !1084
  call void @llvm.dbg.declare(metadata %"class.xercesc_2_7::XSAnnotation"** %annot, metadata !1085, metadata !DIExpression()), !dbg !1086
  %11 = load %"class.xercesc_2_7::XSAnnotation"*, %"class.xercesc_2_7::XSAnnotation"** %headAnnot.addr, align 8, !dbg !1087
  store %"class.xercesc_2_7::XSAnnotation"* %11, %"class.xercesc_2_7::XSAnnotation"** %annot, align 8, !dbg !1086
  br label %do.body, !dbg !1088

do.body:                                          ; preds = %do.cond, %invoke.cont5
  %fXSAnnotationList7 = getelementptr inbounds %"class.xercesc_2_7::XSMultiValueFacet", %"class.xercesc_2_7::XSMultiValueFacet"* %this1, i32 0, i32 4, !dbg !1089
  %12 = load %"class.xercesc_2_7::RefVectorOf"*, %"class.xercesc_2_7::RefVectorOf"** %fXSAnnotationList7, align 8, !dbg !1089
  %13 = bitcast %"class.xercesc_2_7::RefVectorOf"* %12 to %"class.xercesc_2_7::BaseRefVectorOf"*, !dbg !1091
  %14 = load %"class.xercesc_2_7::XSAnnotation"*, %"class.xercesc_2_7::XSAnnotation"** %annot, align 8, !dbg !1092
  invoke void @_ZN11xercesc_2_715BaseRefVectorOfINS_12XSAnnotationEE10addElementEPS1_(%"class.xercesc_2_7::BaseRefVectorOf"* %13, %"class.xercesc_2_7::XSAnnotation"* %14)
          to label %invoke.cont8 unwind label %lpad, !dbg !1091

invoke.cont8:                                     ; preds = %do.body
  %15 = load %"class.xercesc_2_7::XSAnnotation"*, %"class.xercesc_2_7::XSAnnotation"** %annot, align 8, !dbg !1093
  %call10 = invoke %"class.xercesc_2_7::XSAnnotation"* @_ZN11xercesc_2_712XSAnnotation7getNextEv(%"class.xercesc_2_7::XSAnnotation"* %15)
          to label %invoke.cont9 unwind label %lpad, !dbg !1094

invoke.cont9:                                     ; preds = %invoke.cont8
  store %"class.xercesc_2_7::XSAnnotation"* %call10, %"class.xercesc_2_7::XSAnnotation"** %annot, align 8, !dbg !1095
  br label %do.cond, !dbg !1096

do.cond:                                          ; preds = %invoke.cont9
  %16 = load %"class.xercesc_2_7::XSAnnotation"*, %"class.xercesc_2_7::XSAnnotation"** %annot, align 8, !dbg !1097
  %tobool11 = icmp ne %"class.xercesc_2_7::XSAnnotation"* %16, null, !dbg !1097
  br i1 %tobool11, label %do.body, label %do.end, !dbg !1096, !llvm.loop !1098

do.end:                                           ; preds = %do.cond
  br label %if.end, !dbg !1100

lpad:                                             ; preds = %invoke.cont8, %do.body, %if.then
  %17 = landingpad { i8*, i32 }
          cleanup, !dbg !1101
  %18 = extractvalue { i8*, i32 } %17, 0, !dbg !1101
  store i8* %18, i8** %exn.slot, align 8, !dbg !1101
  %19 = extractvalue { i8*, i32 } %17, 1, !dbg !1101
  store i32 %19, i32* %ehselector.slot, align 4, !dbg !1101
  br label %ehcleanup, !dbg !1101

lpad4:                                            ; preds = %invoke.cont
  %20 = landingpad { i8*, i32 }
          cleanup, !dbg !1101
  %21 = extractvalue { i8*, i32 } %20, 0, !dbg !1101
  store i8* %21, i8** %exn.slot, align 8, !dbg !1101
  %22 = extractvalue { i8*, i32 } %20, 1, !dbg !1101
  store i32 %22, i32* %ehselector.slot, align 4, !dbg !1101
  call void @_ZN11xercesc_2_77XMemorydlEPvPNS_13MemoryManagerE(i8* %call, %"class.xercesc_2_7::MemoryManager"* %8) #7, !dbg !1080
  br label %ehcleanup, !dbg !1080

if.end:                                           ; preds = %do.end, %entry
  ret void, !dbg !1102

ehcleanup:                                        ; preds = %lpad4, %lpad
  %23 = bitcast %"class.xercesc_2_7::XSMultiValueFacet"* %this1 to %"class.xercesc_2_7::XSObject"*, !dbg !1103
  call void @_ZN11xercesc_2_78XSObjectD2Ev(%"class.xercesc_2_7::XSObject"* %23) #7, !dbg !1103
  br label %eh.resume, !dbg !1103

eh.resume:                                        ; preds = %ehcleanup
  %exn = load i8*, i8** %exn.slot, align 8, !dbg !1103
  %sel = load i32, i32* %ehselector.slot, align 4, !dbg !1103
  %lpad.val = insertvalue { i8*, i32 } undef, i8* %exn, 0, !dbg !1103
  %lpad.val12 = insertvalue { i8*, i32 } %lpad.val, i32 %sel, 1, !dbg !1103
  resume { i8*, i32 } %lpad.val12, !dbg !1103
}

declare dso_local void @_ZN11xercesc_2_78XSObjectC2ENS_11XSConstants14COMPONENT_TYPEEPNS_7XSModelEPNS_13MemoryManagerE(%"class.xercesc_2_7::XSObject"*, i32, %"class.xercesc_2_7::XSModel"*, %"class.xercesc_2_7::MemoryManager"*) unnamed_addr #4

declare dso_local i8* @_ZN11xercesc_2_77XMemorynwEmPNS_13MemoryManagerE(i64, %"class.xercesc_2_7::MemoryManager"*) #4

declare dso_local i32 @__gxx_personality_v0(...)

; Function Attrs: noinline uwtable
define linkonce_odr dso_local void @_ZN11xercesc_2_711RefVectorOfINS_12XSAnnotationEEC2EjbPNS_13MemoryManagerE(%"class.xercesc_2_7::RefVectorOf"* %this, i32 %maxElems, i1 zeroext %adoptElems, %"class.xercesc_2_7::MemoryManager"* %manager) unnamed_addr #3 comdat align 2 !dbg !1104 {
entry:
  %this.addr = alloca %"class.xercesc_2_7::RefVectorOf"*, align 8
  %maxElems.addr = alloca i32, align 4
  %adoptElems.addr = alloca i8, align 1
  %manager.addr = alloca %"class.xercesc_2_7::MemoryManager"*, align 8
  store %"class.xercesc_2_7::RefVectorOf"* %this, %"class.xercesc_2_7::RefVectorOf"** %this.addr, align 8
  call void @llvm.dbg.declare(metadata %"class.xercesc_2_7::RefVectorOf"** %this.addr, metadata !1106, metadata !DIExpression()), !dbg !1108
  store i32 %maxElems, i32* %maxElems.addr, align 4
  call void @llvm.dbg.declare(metadata i32* %maxElems.addr, metadata !1109, metadata !DIExpression()), !dbg !1110
  %frombool = zext i1 %adoptElems to i8
  store i8 %frombool, i8* %adoptElems.addr, align 1
  call void @llvm.dbg.declare(metadata i8* %adoptElems.addr, metadata !1111, metadata !DIExpression()), !dbg !1112
  store %"class.xercesc_2_7::MemoryManager"* %manager, %"class.xercesc_2_7::MemoryManager"** %manager.addr, align 8
  call void @llvm.dbg.declare(metadata %"class.xercesc_2_7::MemoryManager"** %manager.addr, metadata !1113, metadata !DIExpression()), !dbg !1114
  %this1 = load %"class.xercesc_2_7::RefVectorOf"*, %"class.xercesc_2_7::RefVectorOf"** %this.addr, align 8
  %0 = bitcast %"class.xercesc_2_7::RefVectorOf"* %this1 to %"class.xercesc_2_7::BaseRefVectorOf"*, !dbg !1115
  %1 = load i32, i32* %maxElems.addr, align 4, !dbg !1116
  %2 = load i8, i8* %adoptElems.addr, align 1, !dbg !1117
  %tobool = trunc i8 %2 to i1, !dbg !1117
  %3 = load %"class.xercesc_2_7::MemoryManager"*, %"class.xercesc_2_7::MemoryManager"** %manager.addr, align 8, !dbg !1118
  call void @_ZN11xercesc_2_715BaseRefVectorOfINS_12XSAnnotationEEC2EjbPNS_13MemoryManagerE(%"class.xercesc_2_7::BaseRefVectorOf"* %0, i32 %1, i1 zeroext %tobool, %"class.xercesc_2_7::MemoryManager"* %3), !dbg !1119
  %4 = bitcast %"class.xercesc_2_7::RefVectorOf"* %this1 to i32 (...)***, !dbg !1115
  store i32 (...)** bitcast (i8** getelementptr inbounds ({ [9 x i8*] }, { [9 x i8*] }* @_ZTVN11xercesc_2_711RefVectorOfINS_12XSAnnotationEEE, i32 0, inrange i32 0, i32 2) to i32 (...)**), i32 (...)*** %4, align 8, !dbg !1115
  ret void, !dbg !1120
}

; Function Attrs: nounwind
declare dso_local void @_ZN11xercesc_2_77XMemorydlEPvPNS_13MemoryManagerE(i8*, %"class.xercesc_2_7::MemoryManager"*) #5

; Function Attrs: noinline uwtable
define linkonce_odr dso_local void @_ZN11xercesc_2_715BaseRefVectorOfINS_12XSAnnotationEE10addElementEPS1_(%"class.xercesc_2_7::BaseRefVectorOf"* %this, %"class.xercesc_2_7::XSAnnotation"* %toAdd) #3 comdat align 2 !dbg !1121 {
entry:
  %this.addr = alloca %"class.xercesc_2_7::BaseRefVectorOf"*, align 8
  %toAdd.addr = alloca %"class.xercesc_2_7::XSAnnotation"*, align 8
  store %"class.xercesc_2_7::BaseRefVectorOf"* %this, %"class.xercesc_2_7::BaseRefVectorOf"** %this.addr, align 8
  call void @llvm.dbg.declare(metadata %"class.xercesc_2_7::BaseRefVectorOf"** %this.addr, metadata !1123, metadata !DIExpression()), !dbg !1125
  store %"class.xercesc_2_7::XSAnnotation"* %toAdd, %"class.xercesc_2_7::XSAnnotation"** %toAdd.addr, align 8
  call void @llvm.dbg.declare(metadata %"class.xercesc_2_7::XSAnnotation"** %toAdd.addr, metadata !1126, metadata !DIExpression()), !dbg !1127
  %this1 = load %"class.xercesc_2_7::BaseRefVectorOf"*, %"class.xercesc_2_7::BaseRefVectorOf"** %this.addr, align 8
  call void @_ZN11xercesc_2_715BaseRefVectorOfINS_12XSAnnotationEE19ensureExtraCapacityEj(%"class.xercesc_2_7::BaseRefVectorOf"* %this1, i32 1), !dbg !1128
  %0 = load %"class.xercesc_2_7::XSAnnotation"*, %"class.xercesc_2_7::XSAnnotation"** %toAdd.addr, align 8, !dbg !1129
  %fElemList = getelementptr inbounds %"class.xercesc_2_7::BaseRefVectorOf", %"class.xercesc_2_7::BaseRefVectorOf"* %this1, i32 0, i32 4, !dbg !1130
  %1 = load %"class.xercesc_2_7::XSAnnotation"**, %"class.xercesc_2_7::XSAnnotation"*** %fElemList, align 8, !dbg !1130
  %fCurCount = getelementptr inbounds %"class.xercesc_2_7::BaseRefVectorOf", %"class.xercesc_2_7::BaseRefVectorOf"* %this1, i32 0, i32 2, !dbg !1131
  %2 = load i32, i32* %fCurCount, align 4, !dbg !1131
  %idxprom = zext i32 %2 to i64, !dbg !1130
  %arrayidx = getelementptr inbounds %"class.xercesc_2_7::XSAnnotation"*, %"class.xercesc_2_7::XSAnnotation"** %1, i64 %idxprom, !dbg !1130
  store %"class.xercesc_2_7::XSAnnotation"* %0, %"class.xercesc_2_7::XSAnnotation"** %arrayidx, align 8, !dbg !1132
  %fCurCount2 = getelementptr inbounds %"class.xercesc_2_7::BaseRefVectorOf", %"class.xercesc_2_7::BaseRefVectorOf"* %this1, i32 0, i32 2, !dbg !1133
  %3 = load i32, i32* %fCurCount2, align 4, !dbg !1134
  %inc = add i32 %3, 1, !dbg !1134
  store i32 %inc, i32* %fCurCount2, align 4, !dbg !1134
  ret void, !dbg !1135
}

declare dso_local %"class.xercesc_2_7::XSAnnotation"* @_ZN11xercesc_2_712XSAnnotation7getNextEv(%"class.xercesc_2_7::XSAnnotation"*) #4

; Function Attrs: nounwind
declare dso_local void @_ZN11xercesc_2_78XSObjectD2Ev(%"class.xercesc_2_7::XSObject"*) unnamed_addr #5

; Function Attrs: noinline nounwind uwtable
define dso_local void @_ZN11xercesc_2_717XSMultiValueFacetD2Ev(%"class.xercesc_2_7::XSMultiValueFacet"* %this) unnamed_addr #1 align 2 !dbg !1136 {
entry:
  %this.addr = alloca %"class.xercesc_2_7::XSMultiValueFacet"*, align 8
  store %"class.xercesc_2_7::XSMultiValueFacet"* %this, %"class.xercesc_2_7::XSMultiValueFacet"** %this.addr, align 8
  call void @llvm.dbg.declare(metadata %"class.xercesc_2_7::XSMultiValueFacet"** %this.addr, metadata !1137, metadata !DIExpression()), !dbg !1138
  %this1 = load %"class.xercesc_2_7::XSMultiValueFacet"*, %"class.xercesc_2_7::XSMultiValueFacet"** %this.addr, align 8
  %0 = bitcast %"class.xercesc_2_7::XSMultiValueFacet"* %this1 to i32 (...)***, !dbg !1139
  store i32 (...)** bitcast (i8** getelementptr inbounds ({ [8 x i8*] }, { [8 x i8*] }* @_ZTVN11xercesc_2_717XSMultiValueFacetE, i32 0, inrange i32 0, i32 2) to i32 (...)**), i32 (...)*** %0, align 8, !dbg !1139
  %fXSAnnotationList = getelementptr inbounds %"class.xercesc_2_7::XSMultiValueFacet", %"class.xercesc_2_7::XSMultiValueFacet"* %this1, i32 0, i32 4, !dbg !1140
  %1 = load %"class.xercesc_2_7::RefVectorOf"*, %"class.xercesc_2_7::RefVectorOf"** %fXSAnnotationList, align 8, !dbg !1140
  %tobool = icmp ne %"class.xercesc_2_7::RefVectorOf"* %1, null, !dbg !1140
  br i1 %tobool, label %if.then, label %if.end, !dbg !1143

if.then:                                          ; preds = %entry
  %fXSAnnotationList2 = getelementptr inbounds %"class.xercesc_2_7::XSMultiValueFacet", %"class.xercesc_2_7::XSMultiValueFacet"* %this1, i32 0, i32 4, !dbg !1144
  %2 = load %"class.xercesc_2_7::RefVectorOf"*, %"class.xercesc_2_7::RefVectorOf"** %fXSAnnotationList2, align 8, !dbg !1144
  %isnull = icmp eq %"class.xercesc_2_7::RefVectorOf"* %2, null, !dbg !1145
  br i1 %isnull, label %delete.end, label %delete.notnull, !dbg !1145

delete.notnull:                                   ; preds = %if.then
  %3 = bitcast %"class.xercesc_2_7::RefVectorOf"* %2 to void (%"class.xercesc_2_7::RefVectorOf"*)***, !dbg !1145
  %vtable = load void (%"class.xercesc_2_7::RefVectorOf"*)**, void (%"class.xercesc_2_7::RefVectorOf"*)*** %3, align 8, !dbg !1145
  %vfn = getelementptr inbounds void (%"class.xercesc_2_7::RefVectorOf"*)*, void (%"class.xercesc_2_7::RefVectorOf"*)** %vtable, i64 1, !dbg !1145
  %4 = load void (%"class.xercesc_2_7::RefVectorOf"*)*, void (%"class.xercesc_2_7::RefVectorOf"*)** %vfn, align 8, !dbg !1145
  call void %4(%"class.xercesc_2_7::RefVectorOf"* %2) #7, !dbg !1145
  br label %delete.end, !dbg !1145

delete.end:                                       ; preds = %delete.notnull, %if.then
  br label %if.end, !dbg !1145

if.end:                                           ; preds = %delete.end, %entry
  %5 = bitcast %"class.xercesc_2_7::XSMultiValueFacet"* %this1 to %"class.xercesc_2_7::XSObject"*, !dbg !1146
  call void @_ZN11xercesc_2_78XSObjectD2Ev(%"class.xercesc_2_7::XSObject"* %5) #7, !dbg !1146
  ret void, !dbg !1147
}

; Function Attrs: noinline nounwind uwtable
define dso_local void @_ZN11xercesc_2_717XSMultiValueFacetD0Ev(%"class.xercesc_2_7::XSMultiValueFacet"* %this) unnamed_addr #1 align 2 !dbg !1148 {
entry:
  %this.addr = alloca %"class.xercesc_2_7::XSMultiValueFacet"*, align 8
  store %"class.xercesc_2_7::XSMultiValueFacet"* %this, %"class.xercesc_2_7::XSMultiValueFacet"** %this.addr, align 8
  call void @llvm.dbg.declare(metadata %"class.xercesc_2_7::XSMultiValueFacet"** %this.addr, metadata !1149, metadata !DIExpression()), !dbg !1150
  %this1 = load %"class.xercesc_2_7::XSMultiValueFacet"*, %"class.xercesc_2_7::XSMultiValueFacet"** %this.addr, align 8
  call void @_ZN11xercesc_2_717XSMultiValueFacetD1Ev(%"class.xercesc_2_7::XSMultiValueFacet"* %this1) #7, !dbg !1151
  %0 = bitcast %"class.xercesc_2_7::XSMultiValueFacet"* %this1 to i8*, !dbg !1151
  call void @_ZN11xercesc_2_77XMemorydlEPv(i8* %0) #7, !dbg !1151
  ret void, !dbg !1152
}

; Function Attrs: nounwind
declare dso_local void @_ZN11xercesc_2_77XMemorydlEPv(i8*) #5

declare dso_local i16* @_ZN11xercesc_2_78XSObject7getNameEv(%"class.xercesc_2_7::XSObject"*) unnamed_addr #4

declare dso_local i16* @_ZN11xercesc_2_78XSObject12getNamespaceEv(%"class.xercesc_2_7::XSObject"*) unnamed_addr #4

declare dso_local %"class.xercesc_2_7::XSNamespaceItem"* @_ZN11xercesc_2_78XSObject16getNamespaceItemEv(%"class.xercesc_2_7::XSObject"*) unnamed_addr #4

declare dso_local i32 @_ZNK11xercesc_2_78XSObject5getIdEv(%"class.xercesc_2_7::XSObject"*) unnamed_addr #4

; Function Attrs: noinline uwtable
define linkonce_odr dso_local void @_ZN11xercesc_2_715BaseRefVectorOfINS_12XSAnnotationEEC2EjbPNS_13MemoryManagerE(%"class.xercesc_2_7::BaseRefVectorOf"* %this, i32 %maxElems, i1 zeroext %adoptElems, %"class.xercesc_2_7::MemoryManager"* %manager) unnamed_addr #3 comdat align 2 !dbg !1153 {
entry:
  %this.addr = alloca %"class.xercesc_2_7::BaseRefVectorOf"*, align 8
  %maxElems.addr = alloca i32, align 4
  %adoptElems.addr = alloca i8, align 1
  %manager.addr = alloca %"class.xercesc_2_7::MemoryManager"*, align 8
  %index = alloca i32, align 4
  store %"class.xercesc_2_7::BaseRefVectorOf"* %this, %"class.xercesc_2_7::BaseRefVectorOf"** %this.addr, align 8
  call void @llvm.dbg.declare(metadata %"class.xercesc_2_7::BaseRefVectorOf"** %this.addr, metadata !1154, metadata !DIExpression()), !dbg !1155
  store i32 %maxElems, i32* %maxElems.addr, align 4
  call void @llvm.dbg.declare(metadata i32* %maxElems.addr, metadata !1156, metadata !DIExpression()), !dbg !1157
  %frombool = zext i1 %adoptElems to i8
  store i8 %frombool, i8* %adoptElems.addr, align 1
  call void @llvm.dbg.declare(metadata i8* %adoptElems.addr, metadata !1158, metadata !DIExpression()), !dbg !1159
  store %"class.xercesc_2_7::MemoryManager"* %manager, %"class.xercesc_2_7::MemoryManager"** %manager.addr, align 8
  call void @llvm.dbg.declare(metadata %"class.xercesc_2_7::MemoryManager"** %manager.addr, metadata !1160, metadata !DIExpression()), !dbg !1161
  %this1 = load %"class.xercesc_2_7::BaseRefVectorOf"*, %"class.xercesc_2_7::BaseRefVectorOf"** %this.addr, align 8
  %0 = bitcast %"class.xercesc_2_7::BaseRefVectorOf"* %this1 to %"class.xercesc_2_7::XMemory"*, !dbg !1162
  call void @_ZN11xercesc_2_77XMemoryC2Ev(%"class.xercesc_2_7::XMemory"* %0), !dbg !1163
  %1 = bitcast %"class.xercesc_2_7::BaseRefVectorOf"* %this1 to i32 (...)***, !dbg !1162
  store i32 (...)** bitcast (i8** getelementptr inbounds ({ [9 x i8*] }, { [9 x i8*] }* @_ZTVN11xercesc_2_715BaseRefVectorOfINS_12XSAnnotationEEE, i32 0, inrange i32 0, i32 2) to i32 (...)**), i32 (...)*** %1, align 8, !dbg !1162
  %fAdoptedElems = getelementptr inbounds %"class.xercesc_2_7::BaseRefVectorOf", %"class.xercesc_2_7::BaseRefVectorOf"* %this1, i32 0, i32 1, !dbg !1165
  %2 = load i8, i8* %adoptElems.addr, align 1, !dbg !1167
  %tobool = trunc i8 %2 to i1, !dbg !1167
  %frombool2 = zext i1 %tobool to i8, !dbg !1165
  store i8 %frombool2, i8* %fAdoptedElems, align 8, !dbg !1165
  %fCurCount = getelementptr inbounds %"class.xercesc_2_7::BaseRefVectorOf", %"class.xercesc_2_7::BaseRefVectorOf"* %this1, i32 0, i32 2, !dbg !1168
  store i32 0, i32* %fCurCount, align 4, !dbg !1168
  %fMaxCount = getelementptr inbounds %"class.xercesc_2_7::BaseRefVectorOf", %"class.xercesc_2_7::BaseRefVectorOf"* %this1, i32 0, i32 3, !dbg !1169
  %3 = load i32, i32* %maxElems.addr, align 4, !dbg !1170
  store i32 %3, i32* %fMaxCount, align 8, !dbg !1169
  %fElemList = getelementptr inbounds %"class.xercesc_2_7::BaseRefVectorOf", %"class.xercesc_2_7::BaseRefVectorOf"* %this1, i32 0, i32 4, !dbg !1171
  store %"class.xercesc_2_7::XSAnnotation"** null, %"class.xercesc_2_7::XSAnnotation"*** %fElemList, align 8, !dbg !1171
  %fMemoryManager = getelementptr inbounds %"class.xercesc_2_7::BaseRefVectorOf", %"class.xercesc_2_7::BaseRefVectorOf"* %this1, i32 0, i32 5, !dbg !1172
  %4 = load %"class.xercesc_2_7::MemoryManager"*, %"class.xercesc_2_7::MemoryManager"** %manager.addr, align 8, !dbg !1173
  store %"class.xercesc_2_7::MemoryManager"* %4, %"class.xercesc_2_7::MemoryManager"** %fMemoryManager, align 8, !dbg !1172
  %fMemoryManager3 = getelementptr inbounds %"class.xercesc_2_7::BaseRefVectorOf", %"class.xercesc_2_7::BaseRefVectorOf"* %this1, i32 0, i32 5, !dbg !1174
  %5 = load %"class.xercesc_2_7::MemoryManager"*, %"class.xercesc_2_7::MemoryManager"** %fMemoryManager3, align 8, !dbg !1174
  %6 = load i32, i32* %maxElems.addr, align 4, !dbg !1176
  %conv = zext i32 %6 to i64, !dbg !1176
  %mul = mul i64 %conv, 8, !dbg !1177
  %7 = bitcast %"class.xercesc_2_7::MemoryManager"* %5 to i8* (%"class.xercesc_2_7::MemoryManager"*, i64)***, !dbg !1178
  %vtable = load i8* (%"class.xercesc_2_7::MemoryManager"*, i64)**, i8* (%"class.xercesc_2_7::MemoryManager"*, i64)*** %7, align 8, !dbg !1178
  %vfn = getelementptr inbounds i8* (%"class.xercesc_2_7::MemoryManager"*, i64)*, i8* (%"class.xercesc_2_7::MemoryManager"*, i64)** %vtable, i64 2, !dbg !1178
  %8 = load i8* (%"class.xercesc_2_7::MemoryManager"*, i64)*, i8* (%"class.xercesc_2_7::MemoryManager"*, i64)** %vfn, align 8, !dbg !1178
  %call = call i8* %8(%"class.xercesc_2_7::MemoryManager"* %5, i64 %mul), !dbg !1178
  %9 = bitcast i8* %call to %"class.xercesc_2_7::XSAnnotation"**, !dbg !1179
  %fElemList4 = getelementptr inbounds %"class.xercesc_2_7::BaseRefVectorOf", %"class.xercesc_2_7::BaseRefVectorOf"* %this1, i32 0, i32 4, !dbg !1180
  store %"class.xercesc_2_7::XSAnnotation"** %9, %"class.xercesc_2_7::XSAnnotation"*** %fElemList4, align 8, !dbg !1181
  call void @llvm.dbg.declare(metadata i32* %index, metadata !1182, metadata !DIExpression()), !dbg !1184
  store i32 0, i32* %index, align 4, !dbg !1184
  br label %for.cond, !dbg !1185

for.cond:                                         ; preds = %for.inc, %entry
  %10 = load i32, i32* %index, align 4, !dbg !1186
  %11 = load i32, i32* %maxElems.addr, align 4, !dbg !1188
  %cmp = icmp ult i32 %10, %11, !dbg !1189
  br i1 %cmp, label %for.body, label %for.end, !dbg !1190

for.body:                                         ; preds = %for.cond
  %fElemList5 = getelementptr inbounds %"class.xercesc_2_7::BaseRefVectorOf", %"class.xercesc_2_7::BaseRefVectorOf"* %this1, i32 0, i32 4, !dbg !1191
  %12 = load %"class.xercesc_2_7::XSAnnotation"**, %"class.xercesc_2_7::XSAnnotation"*** %fElemList5, align 8, !dbg !1191
  %13 = load i32, i32* %index, align 4, !dbg !1192
  %idxprom = zext i32 %13 to i64, !dbg !1191
  %arrayidx = getelementptr inbounds %"class.xercesc_2_7::XSAnnotation"*, %"class.xercesc_2_7::XSAnnotation"** %12, i64 %idxprom, !dbg !1191
  store %"class.xercesc_2_7::XSAnnotation"* null, %"class.xercesc_2_7::XSAnnotation"** %arrayidx, align 8, !dbg !1193
  br label %for.inc, !dbg !1191

for.inc:                                          ; preds = %for.body
  %14 = load i32, i32* %index, align 4, !dbg !1194
  %inc = add i32 %14, 1, !dbg !1194
  store i32 %inc, i32* %index, align 4, !dbg !1194
  br label %for.cond, !dbg !1195, !llvm.loop !1196

for.end:                                          ; preds = %for.cond
  ret void, !dbg !1198
}

; Function Attrs: noinline nounwind uwtable
define linkonce_odr dso_local void @_ZN11xercesc_2_711RefVectorOfINS_12XSAnnotationEED2Ev(%"class.xercesc_2_7::RefVectorOf"* %this) unnamed_addr #1 comdat align 2 personality i8* bitcast (i32 (...)* @__gxx_personality_v0 to i8*) !dbg !1199 {
entry:
  %this.addr = alloca %"class.xercesc_2_7::RefVectorOf"*, align 8
  %index = alloca i32, align 4
  %exn.slot = alloca i8*
  %ehselector.slot = alloca i32
  store %"class.xercesc_2_7::RefVectorOf"* %this, %"class.xercesc_2_7::RefVectorOf"** %this.addr, align 8
  call void @llvm.dbg.declare(metadata %"class.xercesc_2_7::RefVectorOf"** %this.addr, metadata !1200, metadata !DIExpression()), !dbg !1201
  %this1 = load %"class.xercesc_2_7::RefVectorOf"*, %"class.xercesc_2_7::RefVectorOf"** %this.addr, align 8
  %0 = bitcast %"class.xercesc_2_7::RefVectorOf"* %this1 to i32 (...)***, !dbg !1202
  store i32 (...)** bitcast (i8** getelementptr inbounds ({ [9 x i8*] }, { [9 x i8*] }* @_ZTVN11xercesc_2_711RefVectorOfINS_12XSAnnotationEEE, i32 0, inrange i32 0, i32 2) to i32 (...)**), i32 (...)*** %0, align 8, !dbg !1202
  %1 = bitcast %"class.xercesc_2_7::RefVectorOf"* %this1 to %"class.xercesc_2_7::BaseRefVectorOf"*, !dbg !1203
  %fAdoptedElems = getelementptr inbounds %"class.xercesc_2_7::BaseRefVectorOf", %"class.xercesc_2_7::BaseRefVectorOf"* %1, i32 0, i32 1, !dbg !1203
  %2 = load i8, i8* %fAdoptedElems, align 8, !dbg !1203
  %tobool = trunc i8 %2 to i1, !dbg !1203
  br i1 %tobool, label %if.then, label %if.end, !dbg !1206

if.then:                                          ; preds = %entry
  call void @llvm.dbg.declare(metadata i32* %index, metadata !1207, metadata !DIExpression()), !dbg !1210
  store i32 0, i32* %index, align 4, !dbg !1210
  br label %for.cond, !dbg !1211

for.cond:                                         ; preds = %for.inc, %if.then
  %3 = load i32, i32* %index, align 4, !dbg !1212
  %4 = bitcast %"class.xercesc_2_7::RefVectorOf"* %this1 to %"class.xercesc_2_7::BaseRefVectorOf"*, !dbg !1214
  %fCurCount = getelementptr inbounds %"class.xercesc_2_7::BaseRefVectorOf", %"class.xercesc_2_7::BaseRefVectorOf"* %4, i32 0, i32 2, !dbg !1214
  %5 = load i32, i32* %fCurCount, align 4, !dbg !1214
  %cmp = icmp ult i32 %3, %5, !dbg !1215
  br i1 %cmp, label %for.body, label %for.end, !dbg !1216

for.body:                                         ; preds = %for.cond
  %6 = bitcast %"class.xercesc_2_7::RefVectorOf"* %this1 to %"class.xercesc_2_7::BaseRefVectorOf"*, !dbg !1217
  %fElemList = getelementptr inbounds %"class.xercesc_2_7::BaseRefVectorOf", %"class.xercesc_2_7::BaseRefVectorOf"* %6, i32 0, i32 4, !dbg !1217
  %7 = load %"class.xercesc_2_7::XSAnnotation"**, %"class.xercesc_2_7::XSAnnotation"*** %fElemList, align 8, !dbg !1217
  %8 = load i32, i32* %index, align 4, !dbg !1218
  %idxprom = zext i32 %8 to i64, !dbg !1219
  %arrayidx = getelementptr inbounds %"class.xercesc_2_7::XSAnnotation"*, %"class.xercesc_2_7::XSAnnotation"** %7, i64 %idxprom, !dbg !1219
  %9 = load %"class.xercesc_2_7::XSAnnotation"*, %"class.xercesc_2_7::XSAnnotation"** %arrayidx, align 8, !dbg !1219
  %isnull = icmp eq %"class.xercesc_2_7::XSAnnotation"* %9, null, !dbg !1220
  br i1 %isnull, label %delete.end, label %delete.notnull, !dbg !1220

delete.notnull:                                   ; preds = %for.body
  %10 = bitcast %"class.xercesc_2_7::XSAnnotation"* %9 to void (%"class.xercesc_2_7::XSAnnotation"*)***, !dbg !1220
  %vtable = load void (%"class.xercesc_2_7::XSAnnotation"*)**, void (%"class.xercesc_2_7::XSAnnotation"*)*** %10, align 8, !dbg !1220
  %vfn = getelementptr inbounds void (%"class.xercesc_2_7::XSAnnotation"*)*, void (%"class.xercesc_2_7::XSAnnotation"*)** %vtable, i64 1, !dbg !1220
  %11 = load void (%"class.xercesc_2_7::XSAnnotation"*)*, void (%"class.xercesc_2_7::XSAnnotation"*)** %vfn, align 8, !dbg !1220
  call void %11(%"class.xercesc_2_7::XSAnnotation"* %9) #7, !dbg !1220
  br label %delete.end, !dbg !1220

delete.end:                                       ; preds = %delete.notnull, %for.body
  br label %for.inc, !dbg !1220

for.inc:                                          ; preds = %delete.end
  %12 = load i32, i32* %index, align 4, !dbg !1221
  %inc = add i32 %12, 1, !dbg !1221
  store i32 %inc, i32* %index, align 4, !dbg !1221
  br label %for.cond, !dbg !1222, !llvm.loop !1223

for.end:                                          ; preds = %for.cond
  br label %if.end, !dbg !1225

if.end:                                           ; preds = %for.end, %entry
  %13 = bitcast %"class.xercesc_2_7::RefVectorOf"* %this1 to %"class.xercesc_2_7::BaseRefVectorOf"*, !dbg !1226
  %fMemoryManager = getelementptr inbounds %"class.xercesc_2_7::BaseRefVectorOf", %"class.xercesc_2_7::BaseRefVectorOf"* %13, i32 0, i32 5, !dbg !1226
  %14 = load %"class.xercesc_2_7::MemoryManager"*, %"class.xercesc_2_7::MemoryManager"** %fMemoryManager, align 8, !dbg !1226
  %15 = bitcast %"class.xercesc_2_7::RefVectorOf"* %this1 to %"class.xercesc_2_7::BaseRefVectorOf"*, !dbg !1227
  %fElemList2 = getelementptr inbounds %"class.xercesc_2_7::BaseRefVectorOf", %"class.xercesc_2_7::BaseRefVectorOf"* %15, i32 0, i32 4, !dbg !1227
  %16 = load %"class.xercesc_2_7::XSAnnotation"**, %"class.xercesc_2_7::XSAnnotation"*** %fElemList2, align 8, !dbg !1227
  %17 = bitcast %"class.xercesc_2_7::XSAnnotation"** %16 to i8*, !dbg !1228
  %18 = bitcast %"class.xercesc_2_7::MemoryManager"* %14 to void (%"class.xercesc_2_7::MemoryManager"*, i8*)***, !dbg !1229
  %vtable3 = load void (%"class.xercesc_2_7::MemoryManager"*, i8*)**, void (%"class.xercesc_2_7::MemoryManager"*, i8*)*** %18, align 8, !dbg !1229
  %vfn4 = getelementptr inbounds void (%"class.xercesc_2_7::MemoryManager"*, i8*)*, void (%"class.xercesc_2_7::MemoryManager"*, i8*)** %vtable3, i64 3, !dbg !1229
  %19 = load void (%"class.xercesc_2_7::MemoryManager"*, i8*)*, void (%"class.xercesc_2_7::MemoryManager"*, i8*)** %vfn4, align 8, !dbg !1229
  invoke void %19(%"class.xercesc_2_7::MemoryManager"* %14, i8* %17)
          to label %invoke.cont unwind label %lpad, !dbg !1229

invoke.cont:                                      ; preds = %if.end
  %20 = bitcast %"class.xercesc_2_7::RefVectorOf"* %this1 to %"class.xercesc_2_7::BaseRefVectorOf"*, !dbg !1230
  call void @_ZN11xercesc_2_715BaseRefVectorOfINS_12XSAnnotationEED2Ev(%"class.xercesc_2_7::BaseRefVectorOf"* %20) #7, !dbg !1230
  ret void, !dbg !1231

lpad:                                             ; preds = %if.end
  %21 = landingpad { i8*, i32 }
          catch i8* null, !dbg !1230
  %22 = extractvalue { i8*, i32 } %21, 0, !dbg !1230
  store i8* %22, i8** %exn.slot, align 8, !dbg !1230
  %23 = extractvalue { i8*, i32 } %21, 1, !dbg !1230
  store i32 %23, i32* %ehselector.slot, align 4, !dbg !1230
  %24 = bitcast %"class.xercesc_2_7::RefVectorOf"* %this1 to %"class.xercesc_2_7::BaseRefVectorOf"*, !dbg !1230
  call void @_ZN11xercesc_2_715BaseRefVectorOfINS_12XSAnnotationEED2Ev(%"class.xercesc_2_7::BaseRefVectorOf"* %24) #7, !dbg !1230
  br label %terminate.handler, !dbg !1230

terminate.handler:                                ; preds = %lpad
  %exn = load i8*, i8** %exn.slot, align 8, !dbg !1230
  call void @__clang_call_terminate(i8* %exn) #9, !dbg !1230
  unreachable, !dbg !1230
}

; Function Attrs: noinline nounwind uwtable
define linkonce_odr dso_local void @_ZN11xercesc_2_711RefVectorOfINS_12XSAnnotationEED0Ev(%"class.xercesc_2_7::RefVectorOf"* %this) unnamed_addr #1 comdat align 2 !dbg !1232 {
entry:
  %this.addr = alloca %"class.xercesc_2_7::RefVectorOf"*, align 8
  store %"class.xercesc_2_7::RefVectorOf"* %this, %"class.xercesc_2_7::RefVectorOf"** %this.addr, align 8
  call void @llvm.dbg.declare(metadata %"class.xercesc_2_7::RefVectorOf"** %this.addr, metadata !1233, metadata !DIExpression()), !dbg !1234
  %this1 = load %"class.xercesc_2_7::RefVectorOf"*, %"class.xercesc_2_7::RefVectorOf"** %this.addr, align 8
  call void @_ZN11xercesc_2_711RefVectorOfINS_12XSAnnotationEED2Ev(%"class.xercesc_2_7::RefVectorOf"* %this1) #7, !dbg !1235
  %0 = bitcast %"class.xercesc_2_7::RefVectorOf"* %this1 to i8*, !dbg !1235
  call void @_ZN11xercesc_2_77XMemorydlEPv(i8* %0) #7, !dbg !1235
  ret void, !dbg !1236
}

; Function Attrs: noinline uwtable
define linkonce_odr dso_local void @_ZN11xercesc_2_715BaseRefVectorOfINS_12XSAnnotationEE12setElementAtEPS1_j(%"class.xercesc_2_7::BaseRefVectorOf"* %this, %"class.xercesc_2_7::XSAnnotation"* %toSet, i32 %setAt) unnamed_addr #3 comdat align 2 personality i8* bitcast (i32 (...)* @__gxx_personality_v0 to i8*) !dbg !1237 {
entry:
  %this.addr = alloca %"class.xercesc_2_7::BaseRefVectorOf"*, align 8
  %toSet.addr = alloca %"class.xercesc_2_7::XSAnnotation"*, align 8
  %setAt.addr = alloca i32, align 4
  %exn.slot = alloca i8*
  %ehselector.slot = alloca i32
  store %"class.xercesc_2_7::BaseRefVectorOf"* %this, %"class.xercesc_2_7::BaseRefVectorOf"** %this.addr, align 8
  call void @llvm.dbg.declare(metadata %"class.xercesc_2_7::BaseRefVectorOf"** %this.addr, metadata !1238, metadata !DIExpression()), !dbg !1239
  store %"class.xercesc_2_7::XSAnnotation"* %toSet, %"class.xercesc_2_7::XSAnnotation"** %toSet.addr, align 8
  call void @llvm.dbg.declare(metadata %"class.xercesc_2_7::XSAnnotation"** %toSet.addr, metadata !1240, metadata !DIExpression()), !dbg !1241
  store i32 %setAt, i32* %setAt.addr, align 4
  call void @llvm.dbg.declare(metadata i32* %setAt.addr, metadata !1242, metadata !DIExpression()), !dbg !1243
  %this1 = load %"class.xercesc_2_7::BaseRefVectorOf"*, %"class.xercesc_2_7::BaseRefVectorOf"** %this.addr, align 8
  %0 = load i32, i32* %setAt.addr, align 4, !dbg !1244
  %fCurCount = getelementptr inbounds %"class.xercesc_2_7::BaseRefVectorOf", %"class.xercesc_2_7::BaseRefVectorOf"* %this1, i32 0, i32 2, !dbg !1246
  %1 = load i32, i32* %fCurCount, align 4, !dbg !1246
  %cmp = icmp uge i32 %0, %1, !dbg !1247
  br i1 %cmp, label %if.then, label %if.end, !dbg !1248

if.then:                                          ; preds = %entry
  %exception = call i8* @__cxa_allocate_exception(i64 48) #7, !dbg !1249
  %2 = bitcast i8* %exception to %"class.xercesc_2_7::ArrayIndexOutOfBoundsException"*, !dbg !1249
  %fMemoryManager = getelementptr inbounds %"class.xercesc_2_7::BaseRefVectorOf", %"class.xercesc_2_7::BaseRefVectorOf"* %this1, i32 0, i32 5, !dbg !1249
  %3 = load %"class.xercesc_2_7::MemoryManager"*, %"class.xercesc_2_7::MemoryManager"** %fMemoryManager, align 8, !dbg !1249
  invoke void @_ZN11xercesc_2_730ArrayIndexOutOfBoundsExceptionC2EPKcjNS_10XMLExcepts5CodesEPNS_13MemoryManagerE(%"class.xercesc_2_7::ArrayIndexOutOfBoundsException"* %2, i8* getelementptr inbounds ([33 x i8], [33 x i8]* @.str, i64 0, i64 0), i32 67, i32 116, %"class.xercesc_2_7::MemoryManager"* %3)
          to label %invoke.cont unwind label %lpad, !dbg !1249

invoke.cont:                                      ; preds = %if.then
  call void @__cxa_throw(i8* %exception, i8* bitcast ({ i8*, i8*, i8* }* @_ZTIN11xercesc_2_730ArrayIndexOutOfBoundsExceptionE to i8*), i8* bitcast (void (%"class.xercesc_2_7::ArrayIndexOutOfBoundsException"*)* @_ZN11xercesc_2_730ArrayIndexOutOfBoundsExceptionD2Ev to i8*)) #10, !dbg !1249
  unreachable, !dbg !1249

lpad:                                             ; preds = %if.then
  %4 = landingpad { i8*, i32 }
          cleanup, !dbg !1250
  %5 = extractvalue { i8*, i32 } %4, 0, !dbg !1250
  store i8* %5, i8** %exn.slot, align 8, !dbg !1250
  %6 = extractvalue { i8*, i32 } %4, 1, !dbg !1250
  store i32 %6, i32* %ehselector.slot, align 4, !dbg !1250
  call void @__cxa_free_exception(i8* %exception) #7, !dbg !1249
  br label %eh.resume, !dbg !1249

if.end:                                           ; preds = %entry
  %fAdoptedElems = getelementptr inbounds %"class.xercesc_2_7::BaseRefVectorOf", %"class.xercesc_2_7::BaseRefVectorOf"* %this1, i32 0, i32 1, !dbg !1251
  %7 = load i8, i8* %fAdoptedElems, align 8, !dbg !1251
  %tobool = trunc i8 %7 to i1, !dbg !1251
  br i1 %tobool, label %if.then2, label %if.end3, !dbg !1253

if.then2:                                         ; preds = %if.end
  %fElemList = getelementptr inbounds %"class.xercesc_2_7::BaseRefVectorOf", %"class.xercesc_2_7::BaseRefVectorOf"* %this1, i32 0, i32 4, !dbg !1254
  %8 = load %"class.xercesc_2_7::XSAnnotation"**, %"class.xercesc_2_7::XSAnnotation"*** %fElemList, align 8, !dbg !1254
  %9 = load i32, i32* %setAt.addr, align 4, !dbg !1255
  %idxprom = zext i32 %9 to i64, !dbg !1254
  %arrayidx = getelementptr inbounds %"class.xercesc_2_7::XSAnnotation"*, %"class.xercesc_2_7::XSAnnotation"** %8, i64 %idxprom, !dbg !1254
  %10 = load %"class.xercesc_2_7::XSAnnotation"*, %"class.xercesc_2_7::XSAnnotation"** %arrayidx, align 8, !dbg !1254
  %isnull = icmp eq %"class.xercesc_2_7::XSAnnotation"* %10, null, !dbg !1256
  br i1 %isnull, label %delete.end, label %delete.notnull, !dbg !1256

delete.notnull:                                   ; preds = %if.then2
  %11 = bitcast %"class.xercesc_2_7::XSAnnotation"* %10 to void (%"class.xercesc_2_7::XSAnnotation"*)***, !dbg !1256
  %vtable = load void (%"class.xercesc_2_7::XSAnnotation"*)**, void (%"class.xercesc_2_7::XSAnnotation"*)*** %11, align 8, !dbg !1256
  %vfn = getelementptr inbounds void (%"class.xercesc_2_7::XSAnnotation"*)*, void (%"class.xercesc_2_7::XSAnnotation"*)** %vtable, i64 1, !dbg !1256
  %12 = load void (%"class.xercesc_2_7::XSAnnotation"*)*, void (%"class.xercesc_2_7::XSAnnotation"*)** %vfn, align 8, !dbg !1256
  call void %12(%"class.xercesc_2_7::XSAnnotation"* %10) #7, !dbg !1256
  br label %delete.end, !dbg !1256

delete.end:                                       ; preds = %delete.notnull, %if.then2
  br label %if.end3, !dbg !1256

if.end3:                                          ; preds = %delete.end, %if.end
  %13 = load %"class.xercesc_2_7::XSAnnotation"*, %"class.xercesc_2_7::XSAnnotation"** %toSet.addr, align 8, !dbg !1257
  %fElemList4 = getelementptr inbounds %"class.xercesc_2_7::BaseRefVectorOf", %"class.xercesc_2_7::BaseRefVectorOf"* %this1, i32 0, i32 4, !dbg !1258
  %14 = load %"class.xercesc_2_7::XSAnnotation"**, %"class.xercesc_2_7::XSAnnotation"*** %fElemList4, align 8, !dbg !1258
  %15 = load i32, i32* %setAt.addr, align 4, !dbg !1259
  %idxprom5 = zext i32 %15 to i64, !dbg !1258
  %arrayidx6 = getelementptr inbounds %"class.xercesc_2_7::XSAnnotation"*, %"class.xercesc_2_7::XSAnnotation"** %14, i64 %idxprom5, !dbg !1258
  store %"class.xercesc_2_7::XSAnnotation"* %13, %"class.xercesc_2_7::XSAnnotation"** %arrayidx6, align 8, !dbg !1260
  ret void, !dbg !1261

eh.resume:                                        ; preds = %lpad
  %exn = load i8*, i8** %exn.slot, align 8, !dbg !1249
  %sel = load i32, i32* %ehselector.slot, align 4, !dbg !1249
  %lpad.val = insertvalue { i8*, i32 } undef, i8* %exn, 0, !dbg !1249
  %lpad.val7 = insertvalue { i8*, i32 } %lpad.val, i32 %sel, 1, !dbg !1249
  resume { i8*, i32 } %lpad.val7, !dbg !1249
}

; Function Attrs: noinline nounwind uwtable
define linkonce_odr dso_local void @_ZN11xercesc_2_715BaseRefVectorOfINS_12XSAnnotationEE17removeAllElementsEv(%"class.xercesc_2_7::BaseRefVectorOf"* %this) unnamed_addr #1 comdat align 2 !dbg !1262 {
entry:
  %this.addr = alloca %"class.xercesc_2_7::BaseRefVectorOf"*, align 8
  %index = alloca i32, align 4
  store %"class.xercesc_2_7::BaseRefVectorOf"* %this, %"class.xercesc_2_7::BaseRefVectorOf"** %this.addr, align 8
  call void @llvm.dbg.declare(metadata %"class.xercesc_2_7::BaseRefVectorOf"** %this.addr, metadata !1263, metadata !DIExpression()), !dbg !1264
  %this1 = load %"class.xercesc_2_7::BaseRefVectorOf"*, %"class.xercesc_2_7::BaseRefVectorOf"** %this.addr, align 8
  call void @llvm.dbg.declare(metadata i32* %index, metadata !1265, metadata !DIExpression()), !dbg !1267
  store i32 0, i32* %index, align 4, !dbg !1267
  br label %for.cond, !dbg !1268

for.cond:                                         ; preds = %for.inc, %entry
  %0 = load i32, i32* %index, align 4, !dbg !1269
  %fCurCount = getelementptr inbounds %"class.xercesc_2_7::BaseRefVectorOf", %"class.xercesc_2_7::BaseRefVectorOf"* %this1, i32 0, i32 2, !dbg !1271
  %1 = load i32, i32* %fCurCount, align 4, !dbg !1271
  %cmp = icmp ult i32 %0, %1, !dbg !1272
  br i1 %cmp, label %for.body, label %for.end, !dbg !1273

for.body:                                         ; preds = %for.cond
  %fAdoptedElems = getelementptr inbounds %"class.xercesc_2_7::BaseRefVectorOf", %"class.xercesc_2_7::BaseRefVectorOf"* %this1, i32 0, i32 1, !dbg !1274
  %2 = load i8, i8* %fAdoptedElems, align 8, !dbg !1274
  %tobool = trunc i8 %2 to i1, !dbg !1274
  br i1 %tobool, label %if.then, label %if.end, !dbg !1277

if.then:                                          ; preds = %for.body
  %fElemList = getelementptr inbounds %"class.xercesc_2_7::BaseRefVectorOf", %"class.xercesc_2_7::BaseRefVectorOf"* %this1, i32 0, i32 4, !dbg !1278
  %3 = load %"class.xercesc_2_7::XSAnnotation"**, %"class.xercesc_2_7::XSAnnotation"*** %fElemList, align 8, !dbg !1278
  %4 = load i32, i32* %index, align 4, !dbg !1279
  %idxprom = zext i32 %4 to i64, !dbg !1278
  %arrayidx = getelementptr inbounds %"class.xercesc_2_7::XSAnnotation"*, %"class.xercesc_2_7::XSAnnotation"** %3, i64 %idxprom, !dbg !1278
  %5 = load %"class.xercesc_2_7::XSAnnotation"*, %"class.xercesc_2_7::XSAnnotation"** %arrayidx, align 8, !dbg !1278
  %isnull = icmp eq %"class.xercesc_2_7::XSAnnotation"* %5, null, !dbg !1280
  br i1 %isnull, label %delete.end, label %delete.notnull, !dbg !1280

delete.notnull:                                   ; preds = %if.then
  %6 = bitcast %"class.xercesc_2_7::XSAnnotation"* %5 to void (%"class.xercesc_2_7::XSAnnotation"*)***, !dbg !1280
  %vtable = load void (%"class.xercesc_2_7::XSAnnotation"*)**, void (%"class.xercesc_2_7::XSAnnotation"*)*** %6, align 8, !dbg !1280
  %vfn = getelementptr inbounds void (%"class.xercesc_2_7::XSAnnotation"*)*, void (%"class.xercesc_2_7::XSAnnotation"*)** %vtable, i64 1, !dbg !1280
  %7 = load void (%"class.xercesc_2_7::XSAnnotation"*)*, void (%"class.xercesc_2_7::XSAnnotation"*)** %vfn, align 8, !dbg !1280
  call void %7(%"class.xercesc_2_7::XSAnnotation"* %5) #7, !dbg !1280
  br label %delete.end, !dbg !1280

delete.end:                                       ; preds = %delete.notnull, %if.then
  br label %if.end, !dbg !1280

if.end:                                           ; preds = %delete.end, %for.body
  %fElemList2 = getelementptr inbounds %"class.xercesc_2_7::BaseRefVectorOf", %"class.xercesc_2_7::BaseRefVectorOf"* %this1, i32 0, i32 4, !dbg !1281
  %8 = load %"class.xercesc_2_7::XSAnnotation"**, %"class.xercesc_2_7::XSAnnotation"*** %fElemList2, align 8, !dbg !1281
  %9 = load i32, i32* %index, align 4, !dbg !1282
  %idxprom3 = zext i32 %9 to i64, !dbg !1281
  %arrayidx4 = getelementptr inbounds %"class.xercesc_2_7::XSAnnotation"*, %"class.xercesc_2_7::XSAnnotation"** %8, i64 %idxprom3, !dbg !1281
  store %"class.xercesc_2_7::XSAnnotation"* null, %"class.xercesc_2_7::XSAnnotation"** %arrayidx4, align 8, !dbg !1283
  br label %for.inc, !dbg !1284

for.inc:                                          ; preds = %if.end
  %10 = load i32, i32* %index, align 4, !dbg !1285
  %inc = add i32 %10, 1, !dbg !1285
  store i32 %inc, i32* %index, align 4, !dbg !1285
  br label %for.cond, !dbg !1286, !llvm.loop !1287

for.end:                                          ; preds = %for.cond
  %fCurCount5 = getelementptr inbounds %"class.xercesc_2_7::BaseRefVectorOf", %"class.xercesc_2_7::BaseRefVectorOf"* %this1, i32 0, i32 2, !dbg !1289
  store i32 0, i32* %fCurCount5, align 4, !dbg !1290
  ret void, !dbg !1291
}

; Function Attrs: noinline uwtable
define linkonce_odr dso_local void @_ZN11xercesc_2_715BaseRefVectorOfINS_12XSAnnotationEE15removeElementAtEj(%"class.xercesc_2_7::BaseRefVectorOf"* %this, i32 %removeAt) unnamed_addr #3 comdat align 2 personality i8* bitcast (i32 (...)* @__gxx_personality_v0 to i8*) !dbg !1292 {
entry:
  %this.addr = alloca %"class.xercesc_2_7::BaseRefVectorOf"*, align 8
  %removeAt.addr = alloca i32, align 4
  %exn.slot = alloca i8*
  %ehselector.slot = alloca i32
  %index = alloca i32, align 4
  store %"class.xercesc_2_7::BaseRefVectorOf"* %this, %"class.xercesc_2_7::BaseRefVectorOf"** %this.addr, align 8
  call void @llvm.dbg.declare(metadata %"class.xercesc_2_7::BaseRefVectorOf"** %this.addr, metadata !1293, metadata !DIExpression()), !dbg !1294
  store i32 %removeAt, i32* %removeAt.addr, align 4
  call void @llvm.dbg.declare(metadata i32* %removeAt.addr, metadata !1295, metadata !DIExpression()), !dbg !1296
  %this1 = load %"class.xercesc_2_7::BaseRefVectorOf"*, %"class.xercesc_2_7::BaseRefVectorOf"** %this.addr, align 8
  %0 = load i32, i32* %removeAt.addr, align 4, !dbg !1297
  %fCurCount = getelementptr inbounds %"class.xercesc_2_7::BaseRefVectorOf", %"class.xercesc_2_7::BaseRefVectorOf"* %this1, i32 0, i32 2, !dbg !1299
  %1 = load i32, i32* %fCurCount, align 4, !dbg !1299
  %cmp = icmp uge i32 %0, %1, !dbg !1300
  br i1 %cmp, label %if.then, label %if.end, !dbg !1301

if.then:                                          ; preds = %entry
  %exception = call i8* @__cxa_allocate_exception(i64 48) #7, !dbg !1302
  %2 = bitcast i8* %exception to %"class.xercesc_2_7::ArrayIndexOutOfBoundsException"*, !dbg !1302
  %fMemoryManager = getelementptr inbounds %"class.xercesc_2_7::BaseRefVectorOf", %"class.xercesc_2_7::BaseRefVectorOf"* %this1, i32 0, i32 5, !dbg !1302
  %3 = load %"class.xercesc_2_7::MemoryManager"*, %"class.xercesc_2_7::MemoryManager"** %fMemoryManager, align 8, !dbg !1302
  invoke void @_ZN11xercesc_2_730ArrayIndexOutOfBoundsExceptionC2EPKcjNS_10XMLExcepts5CodesEPNS_13MemoryManagerE(%"class.xercesc_2_7::ArrayIndexOutOfBoundsException"* %2, i8* getelementptr inbounds ([33 x i8], [33 x i8]* @.str, i64 0, i64 0), i32 144, i32 116, %"class.xercesc_2_7::MemoryManager"* %3)
          to label %invoke.cont unwind label %lpad, !dbg !1302

invoke.cont:                                      ; preds = %if.then
  call void @__cxa_throw(i8* %exception, i8* bitcast ({ i8*, i8*, i8* }* @_ZTIN11xercesc_2_730ArrayIndexOutOfBoundsExceptionE to i8*), i8* bitcast (void (%"class.xercesc_2_7::ArrayIndexOutOfBoundsException"*)* @_ZN11xercesc_2_730ArrayIndexOutOfBoundsExceptionD2Ev to i8*)) #10, !dbg !1302
  unreachable, !dbg !1302

lpad:                                             ; preds = %if.then
  %4 = landingpad { i8*, i32 }
          cleanup, !dbg !1303
  %5 = extractvalue { i8*, i32 } %4, 0, !dbg !1303
  store i8* %5, i8** %exn.slot, align 8, !dbg !1303
  %6 = extractvalue { i8*, i32 } %4, 1, !dbg !1303
  store i32 %6, i32* %ehselector.slot, align 4, !dbg !1303
  call void @__cxa_free_exception(i8* %exception) #7, !dbg !1302
  br label %eh.resume, !dbg !1302

if.end:                                           ; preds = %entry
  %fAdoptedElems = getelementptr inbounds %"class.xercesc_2_7::BaseRefVectorOf", %"class.xercesc_2_7::BaseRefVectorOf"* %this1, i32 0, i32 1, !dbg !1304
  %7 = load i8, i8* %fAdoptedElems, align 8, !dbg !1304
  %tobool = trunc i8 %7 to i1, !dbg !1304
  br i1 %tobool, label %if.then2, label %if.end3, !dbg !1306

if.then2:                                         ; preds = %if.end
  %fElemList = getelementptr inbounds %"class.xercesc_2_7::BaseRefVectorOf", %"class.xercesc_2_7::BaseRefVectorOf"* %this1, i32 0, i32 4, !dbg !1307
  %8 = load %"class.xercesc_2_7::XSAnnotation"**, %"class.xercesc_2_7::XSAnnotation"*** %fElemList, align 8, !dbg !1307
  %9 = load i32, i32* %removeAt.addr, align 4, !dbg !1308
  %idxprom = zext i32 %9 to i64, !dbg !1307
  %arrayidx = getelementptr inbounds %"class.xercesc_2_7::XSAnnotation"*, %"class.xercesc_2_7::XSAnnotation"** %8, i64 %idxprom, !dbg !1307
  %10 = load %"class.xercesc_2_7::XSAnnotation"*, %"class.xercesc_2_7::XSAnnotation"** %arrayidx, align 8, !dbg !1307
  %isnull = icmp eq %"class.xercesc_2_7::XSAnnotation"* %10, null, !dbg !1309
  br i1 %isnull, label %delete.end, label %delete.notnull, !dbg !1309

delete.notnull:                                   ; preds = %if.then2
  %11 = bitcast %"class.xercesc_2_7::XSAnnotation"* %10 to void (%"class.xercesc_2_7::XSAnnotation"*)***, !dbg !1309
  %vtable = load void (%"class.xercesc_2_7::XSAnnotation"*)**, void (%"class.xercesc_2_7::XSAnnotation"*)*** %11, align 8, !dbg !1309
  %vfn = getelementptr inbounds void (%"class.xercesc_2_7::XSAnnotation"*)*, void (%"class.xercesc_2_7::XSAnnotation"*)** %vtable, i64 1, !dbg !1309
  %12 = load void (%"class.xercesc_2_7::XSAnnotation"*)*, void (%"class.xercesc_2_7::XSAnnotation"*)** %vfn, align 8, !dbg !1309
  call void %12(%"class.xercesc_2_7::XSAnnotation"* %10) #7, !dbg !1309
  br label %delete.end, !dbg !1309

delete.end:                                       ; preds = %delete.notnull, %if.then2
  br label %if.end3, !dbg !1309

if.end3:                                          ; preds = %delete.end, %if.end
  %13 = load i32, i32* %removeAt.addr, align 4, !dbg !1310
  %fCurCount4 = getelementptr inbounds %"class.xercesc_2_7::BaseRefVectorOf", %"class.xercesc_2_7::BaseRefVectorOf"* %this1, i32 0, i32 2, !dbg !1312
  %14 = load i32, i32* %fCurCount4, align 4, !dbg !1312
  %sub = sub i32 %14, 1, !dbg !1313
  %cmp5 = icmp eq i32 %13, %sub, !dbg !1314
  br i1 %cmp5, label %if.then6, label %if.end11, !dbg !1315

if.then6:                                         ; preds = %if.end3
  %fElemList7 = getelementptr inbounds %"class.xercesc_2_7::BaseRefVectorOf", %"class.xercesc_2_7::BaseRefVectorOf"* %this1, i32 0, i32 4, !dbg !1316
  %15 = load %"class.xercesc_2_7::XSAnnotation"**, %"class.xercesc_2_7::XSAnnotation"*** %fElemList7, align 8, !dbg !1316
  %16 = load i32, i32* %removeAt.addr, align 4, !dbg !1318
  %idxprom8 = zext i32 %16 to i64, !dbg !1316
  %arrayidx9 = getelementptr inbounds %"class.xercesc_2_7::XSAnnotation"*, %"class.xercesc_2_7::XSAnnotation"** %15, i64 %idxprom8, !dbg !1316
  store %"class.xercesc_2_7::XSAnnotation"* null, %"class.xercesc_2_7::XSAnnotation"** %arrayidx9, align 8, !dbg !1319
  %fCurCount10 = getelementptr inbounds %"class.xercesc_2_7::BaseRefVectorOf", %"class.xercesc_2_7::BaseRefVectorOf"* %this1, i32 0, i32 2, !dbg !1320
  %17 = load i32, i32* %fCurCount10, align 4, !dbg !1321
  %dec = add i32 %17, -1, !dbg !1321
  store i32 %dec, i32* %fCurCount10, align 4, !dbg !1321
  br label %return, !dbg !1322

if.end11:                                         ; preds = %if.end3
  call void @llvm.dbg.declare(metadata i32* %index, metadata !1323, metadata !DIExpression()), !dbg !1325
  %18 = load i32, i32* %removeAt.addr, align 4, !dbg !1326
  store i32 %18, i32* %index, align 4, !dbg !1325
  br label %for.cond, !dbg !1327

for.cond:                                         ; preds = %for.inc, %if.end11
  %19 = load i32, i32* %index, align 4, !dbg !1328
  %fCurCount12 = getelementptr inbounds %"class.xercesc_2_7::BaseRefVectorOf", %"class.xercesc_2_7::BaseRefVectorOf"* %this1, i32 0, i32 2, !dbg !1330
  %20 = load i32, i32* %fCurCount12, align 4, !dbg !1330
  %sub13 = sub i32 %20, 1, !dbg !1331
  %cmp14 = icmp ult i32 %19, %sub13, !dbg !1332
  br i1 %cmp14, label %for.body, label %for.end, !dbg !1333

for.body:                                         ; preds = %for.cond
  %fElemList15 = getelementptr inbounds %"class.xercesc_2_7::BaseRefVectorOf", %"class.xercesc_2_7::BaseRefVectorOf"* %this1, i32 0, i32 4, !dbg !1334
  %21 = load %"class.xercesc_2_7::XSAnnotation"**, %"class.xercesc_2_7::XSAnnotation"*** %fElemList15, align 8, !dbg !1334
  %22 = load i32, i32* %index, align 4, !dbg !1335
  %add = add i32 %22, 1, !dbg !1336
  %idxprom16 = zext i32 %add to i64, !dbg !1334
  %arrayidx17 = getelementptr inbounds %"class.xercesc_2_7::XSAnnotation"*, %"class.xercesc_2_7::XSAnnotation"** %21, i64 %idxprom16, !dbg !1334
  %23 = load %"class.xercesc_2_7::XSAnnotation"*, %"class.xercesc_2_7::XSAnnotation"** %arrayidx17, align 8, !dbg !1334
  %fElemList18 = getelementptr inbounds %"class.xercesc_2_7::BaseRefVectorOf", %"class.xercesc_2_7::BaseRefVectorOf"* %this1, i32 0, i32 4, !dbg !1337
  %24 = load %"class.xercesc_2_7::XSAnnotation"**, %"class.xercesc_2_7::XSAnnotation"*** %fElemList18, align 8, !dbg !1337
  %25 = load i32, i32* %index, align 4, !dbg !1338
  %idxprom19 = zext i32 %25 to i64, !dbg !1337
  %arrayidx20 = getelementptr inbounds %"class.xercesc_2_7::XSAnnotation"*, %"class.xercesc_2_7::XSAnnotation"** %24, i64 %idxprom19, !dbg !1337
  store %"class.xercesc_2_7::XSAnnotation"* %23, %"class.xercesc_2_7::XSAnnotation"** %arrayidx20, align 8, !dbg !1339
  br label %for.inc, !dbg !1337

for.inc:                                          ; preds = %for.body
  %26 = load i32, i32* %index, align 4, !dbg !1340
  %inc = add i32 %26, 1, !dbg !1340
  store i32 %inc, i32* %index, align 4, !dbg !1340
  br label %for.cond, !dbg !1341, !llvm.loop !1342

for.end:                                          ; preds = %for.cond
  %fElemList21 = getelementptr inbounds %"class.xercesc_2_7::BaseRefVectorOf", %"class.xercesc_2_7::BaseRefVectorOf"* %this1, i32 0, i32 4, !dbg !1344
  %27 = load %"class.xercesc_2_7::XSAnnotation"**, %"class.xercesc_2_7::XSAnnotation"*** %fElemList21, align 8, !dbg !1344
  %fCurCount22 = getelementptr inbounds %"class.xercesc_2_7::BaseRefVectorOf", %"class.xercesc_2_7::BaseRefVectorOf"* %this1, i32 0, i32 2, !dbg !1345
  %28 = load i32, i32* %fCurCount22, align 4, !dbg !1345
  %sub23 = sub i32 %28, 1, !dbg !1346
  %idxprom24 = zext i32 %sub23 to i64, !dbg !1344
  %arrayidx25 = getelementptr inbounds %"class.xercesc_2_7::XSAnnotation"*, %"class.xercesc_2_7::XSAnnotation"** %27, i64 %idxprom24, !dbg !1344
  store %"class.xercesc_2_7::XSAnnotation"* null, %"class.xercesc_2_7::XSAnnotation"** %arrayidx25, align 8, !dbg !1347
  %fCurCount26 = getelementptr inbounds %"class.xercesc_2_7::BaseRefVectorOf", %"class.xercesc_2_7::BaseRefVectorOf"* %this1, i32 0, i32 2, !dbg !1348
  %29 = load i32, i32* %fCurCount26, align 4, !dbg !1349
  %dec27 = add i32 %29, -1, !dbg !1349
  store i32 %dec27, i32* %fCurCount26, align 4, !dbg !1349
  br label %return, !dbg !1350

return:                                           ; preds = %for.end, %if.then6
  ret void, !dbg !1350

eh.resume:                                        ; preds = %lpad
  %exn = load i8*, i8** %exn.slot, align 8, !dbg !1302
  %sel = load i32, i32* %ehselector.slot, align 4, !dbg !1302
  %lpad.val = insertvalue { i8*, i32 } undef, i8* %exn, 0, !dbg !1302
  %lpad.val28 = insertvalue { i8*, i32 } %lpad.val, i32 %sel, 1, !dbg !1302
  resume { i8*, i32 } %lpad.val28, !dbg !1302
}

; Function Attrs: noinline nounwind uwtable
define linkonce_odr dso_local void @_ZN11xercesc_2_715BaseRefVectorOfINS_12XSAnnotationEE17removeLastElementEv(%"class.xercesc_2_7::BaseRefVectorOf"* %this) unnamed_addr #1 comdat align 2 !dbg !1351 {
entry:
  %this.addr = alloca %"class.xercesc_2_7::BaseRefVectorOf"*, align 8
  store %"class.xercesc_2_7::BaseRefVectorOf"* %this, %"class.xercesc_2_7::BaseRefVectorOf"** %this.addr, align 8
  call void @llvm.dbg.declare(metadata %"class.xercesc_2_7::BaseRefVectorOf"** %this.addr, metadata !1352, metadata !DIExpression()), !dbg !1353
  %this1 = load %"class.xercesc_2_7::BaseRefVectorOf"*, %"class.xercesc_2_7::BaseRefVectorOf"** %this.addr, align 8
  %fCurCount = getelementptr inbounds %"class.xercesc_2_7::BaseRefVectorOf", %"class.xercesc_2_7::BaseRefVectorOf"* %this1, i32 0, i32 2, !dbg !1354
  %0 = load i32, i32* %fCurCount, align 4, !dbg !1354
  %tobool = icmp ne i32 %0, 0, !dbg !1354
  br i1 %tobool, label %if.end, label %if.then, !dbg !1356

if.then:                                          ; preds = %entry
  br label %if.end6, !dbg !1357

if.end:                                           ; preds = %entry
  %fCurCount2 = getelementptr inbounds %"class.xercesc_2_7::BaseRefVectorOf", %"class.xercesc_2_7::BaseRefVectorOf"* %this1, i32 0, i32 2, !dbg !1358
  %1 = load i32, i32* %fCurCount2, align 4, !dbg !1359
  %dec = add i32 %1, -1, !dbg !1359
  store i32 %dec, i32* %fCurCount2, align 4, !dbg !1359
  %fAdoptedElems = getelementptr inbounds %"class.xercesc_2_7::BaseRefVectorOf", %"class.xercesc_2_7::BaseRefVectorOf"* %this1, i32 0, i32 1, !dbg !1360
  %2 = load i8, i8* %fAdoptedElems, align 8, !dbg !1360
  %tobool3 = trunc i8 %2 to i1, !dbg !1360
  br i1 %tobool3, label %if.then4, label %if.end6, !dbg !1362

if.then4:                                         ; preds = %if.end
  %fElemList = getelementptr inbounds %"class.xercesc_2_7::BaseRefVectorOf", %"class.xercesc_2_7::BaseRefVectorOf"* %this1, i32 0, i32 4, !dbg !1363
  %3 = load %"class.xercesc_2_7::XSAnnotation"**, %"class.xercesc_2_7::XSAnnotation"*** %fElemList, align 8, !dbg !1363
  %fCurCount5 = getelementptr inbounds %"class.xercesc_2_7::BaseRefVectorOf", %"class.xercesc_2_7::BaseRefVectorOf"* %this1, i32 0, i32 2, !dbg !1364
  %4 = load i32, i32* %fCurCount5, align 4, !dbg !1364
  %idxprom = zext i32 %4 to i64, !dbg !1363
  %arrayidx = getelementptr inbounds %"class.xercesc_2_7::XSAnnotation"*, %"class.xercesc_2_7::XSAnnotation"** %3, i64 %idxprom, !dbg !1363
  %5 = load %"class.xercesc_2_7::XSAnnotation"*, %"class.xercesc_2_7::XSAnnotation"** %arrayidx, align 8, !dbg !1363
  %isnull = icmp eq %"class.xercesc_2_7::XSAnnotation"* %5, null, !dbg !1365
  br i1 %isnull, label %delete.end, label %delete.notnull, !dbg !1365

delete.notnull:                                   ; preds = %if.then4
  %6 = bitcast %"class.xercesc_2_7::XSAnnotation"* %5 to void (%"class.xercesc_2_7::XSAnnotation"*)***, !dbg !1365
  %vtable = load void (%"class.xercesc_2_7::XSAnnotation"*)**, void (%"class.xercesc_2_7::XSAnnotation"*)*** %6, align 8, !dbg !1365
  %vfn = getelementptr inbounds void (%"class.xercesc_2_7::XSAnnotation"*)*, void (%"class.xercesc_2_7::XSAnnotation"*)** %vtable, i64 1, !dbg !1365
  %7 = load void (%"class.xercesc_2_7::XSAnnotation"*)*, void (%"class.xercesc_2_7::XSAnnotation"*)** %vfn, align 8, !dbg !1365
  call void %7(%"class.xercesc_2_7::XSAnnotation"* %5) #7, !dbg !1365
  br label %delete.end, !dbg !1365

delete.end:                                       ; preds = %delete.notnull, %if.then4
  br label %if.end6, !dbg !1365

if.end6:                                          ; preds = %if.then, %delete.end, %if.end
  ret void, !dbg !1366
}

; Function Attrs: noinline uwtable
define linkonce_odr dso_local void @_ZN11xercesc_2_715BaseRefVectorOfINS_12XSAnnotationEE7cleanupEv(%"class.xercesc_2_7::BaseRefVectorOf"* %this) unnamed_addr #3 comdat align 2 !dbg !1367 {
entry:
  %this.addr = alloca %"class.xercesc_2_7::BaseRefVectorOf"*, align 8
  %index = alloca i32, align 4
  store %"class.xercesc_2_7::BaseRefVectorOf"* %this, %"class.xercesc_2_7::BaseRefVectorOf"** %this.addr, align 8
  call void @llvm.dbg.declare(metadata %"class.xercesc_2_7::BaseRefVectorOf"** %this.addr, metadata !1368, metadata !DIExpression()), !dbg !1369
  %this1 = load %"class.xercesc_2_7::BaseRefVectorOf"*, %"class.xercesc_2_7::BaseRefVectorOf"** %this.addr, align 8
  %fAdoptedElems = getelementptr inbounds %"class.xercesc_2_7::BaseRefVectorOf", %"class.xercesc_2_7::BaseRefVectorOf"* %this1, i32 0, i32 1, !dbg !1370
  %0 = load i8, i8* %fAdoptedElems, align 8, !dbg !1370
  %tobool = trunc i8 %0 to i1, !dbg !1370
  br i1 %tobool, label %if.then, label %if.end, !dbg !1372

if.then:                                          ; preds = %entry
  call void @llvm.dbg.declare(metadata i32* %index, metadata !1373, metadata !DIExpression()), !dbg !1376
  store i32 0, i32* %index, align 4, !dbg !1376
  br label %for.cond, !dbg !1377

for.cond:                                         ; preds = %for.inc, %if.then
  %1 = load i32, i32* %index, align 4, !dbg !1378
  %fCurCount = getelementptr inbounds %"class.xercesc_2_7::BaseRefVectorOf", %"class.xercesc_2_7::BaseRefVectorOf"* %this1, i32 0, i32 2, !dbg !1380
  %2 = load i32, i32* %fCurCount, align 4, !dbg !1380
  %cmp = icmp ult i32 %1, %2, !dbg !1381
  br i1 %cmp, label %for.body, label %for.end, !dbg !1382

for.body:                                         ; preds = %for.cond
  %fElemList = getelementptr inbounds %"class.xercesc_2_7::BaseRefVectorOf", %"class.xercesc_2_7::BaseRefVectorOf"* %this1, i32 0, i32 4, !dbg !1383
  %3 = load %"class.xercesc_2_7::XSAnnotation"**, %"class.xercesc_2_7::XSAnnotation"*** %fElemList, align 8, !dbg !1383
  %4 = load i32, i32* %index, align 4, !dbg !1384
  %idxprom = zext i32 %4 to i64, !dbg !1383
  %arrayidx = getelementptr inbounds %"class.xercesc_2_7::XSAnnotation"*, %"class.xercesc_2_7::XSAnnotation"** %3, i64 %idxprom, !dbg !1383
  %5 = load %"class.xercesc_2_7::XSAnnotation"*, %"class.xercesc_2_7::XSAnnotation"** %arrayidx, align 8, !dbg !1383
  %isnull = icmp eq %"class.xercesc_2_7::XSAnnotation"* %5, null, !dbg !1385
  br i1 %isnull, label %delete.end, label %delete.notnull, !dbg !1385

delete.notnull:                                   ; preds = %for.body
  %6 = bitcast %"class.xercesc_2_7::XSAnnotation"* %5 to void (%"class.xercesc_2_7::XSAnnotation"*)***, !dbg !1385
  %vtable = load void (%"class.xercesc_2_7::XSAnnotation"*)**, void (%"class.xercesc_2_7::XSAnnotation"*)*** %6, align 8, !dbg !1385
  %vfn = getelementptr inbounds void (%"class.xercesc_2_7::XSAnnotation"*)*, void (%"class.xercesc_2_7::XSAnnotation"*)** %vtable, i64 1, !dbg !1385
  %7 = load void (%"class.xercesc_2_7::XSAnnotation"*)*, void (%"class.xercesc_2_7::XSAnnotation"*)** %vfn, align 8, !dbg !1385
  call void %7(%"class.xercesc_2_7::XSAnnotation"* %5) #7, !dbg !1385
  br label %delete.end, !dbg !1385

delete.end:                                       ; preds = %delete.notnull, %for.body
  br label %for.inc, !dbg !1385

for.inc:                                          ; preds = %delete.end
  %8 = load i32, i32* %index, align 4, !dbg !1386
  %inc = add i32 %8, 1, !dbg !1386
  store i32 %inc, i32* %index, align 4, !dbg !1386
  br label %for.cond, !dbg !1387, !llvm.loop !1388

for.end:                                          ; preds = %for.cond
  br label %if.end, !dbg !1390

if.end:                                           ; preds = %for.end, %entry
  %fMemoryManager = getelementptr inbounds %"class.xercesc_2_7::BaseRefVectorOf", %"class.xercesc_2_7::BaseRefVectorOf"* %this1, i32 0, i32 5, !dbg !1391
  %9 = load %"class.xercesc_2_7::MemoryManager"*, %"class.xercesc_2_7::MemoryManager"** %fMemoryManager, align 8, !dbg !1391
  %fElemList2 = getelementptr inbounds %"class.xercesc_2_7::BaseRefVectorOf", %"class.xercesc_2_7::BaseRefVectorOf"* %this1, i32 0, i32 4, !dbg !1392
  %10 = load %"class.xercesc_2_7::XSAnnotation"**, %"class.xercesc_2_7::XSAnnotation"*** %fElemList2, align 8, !dbg !1392
  %11 = bitcast %"class.xercesc_2_7::XSAnnotation"** %10 to i8*, !dbg !1392
  %12 = bitcast %"class.xercesc_2_7::MemoryManager"* %9 to void (%"class.xercesc_2_7::MemoryManager"*, i8*)***, !dbg !1393
  %vtable3 = load void (%"class.xercesc_2_7::MemoryManager"*, i8*)**, void (%"class.xercesc_2_7::MemoryManager"*, i8*)*** %12, align 8, !dbg !1393
  %vfn4 = getelementptr inbounds void (%"class.xercesc_2_7::MemoryManager"*, i8*)*, void (%"class.xercesc_2_7::MemoryManager"*, i8*)** %vtable3, i64 3, !dbg !1393
  %13 = load void (%"class.xercesc_2_7::MemoryManager"*, i8*)*, void (%"class.xercesc_2_7::MemoryManager"*, i8*)** %vfn4, align 8, !dbg !1393
  call void %13(%"class.xercesc_2_7::MemoryManager"* %9, i8* %11), !dbg !1393
  ret void, !dbg !1394
}

; Function Attrs: noinline nounwind uwtable
define linkonce_odr dso_local void @_ZN11xercesc_2_77XMemoryC2Ev(%"class.xercesc_2_7::XMemory"* %this) unnamed_addr #1 comdat align 2 !dbg !1395 {
entry:
  %this.addr = alloca %"class.xercesc_2_7::XMemory"*, align 8
  store %"class.xercesc_2_7::XMemory"* %this, %"class.xercesc_2_7::XMemory"** %this.addr, align 8
  call void @llvm.dbg.declare(metadata %"class.xercesc_2_7::XMemory"** %this.addr, metadata !1396, metadata !DIExpression()), !dbg !1398
  %this1 = load %"class.xercesc_2_7::XMemory"*, %"class.xercesc_2_7::XMemory"** %this.addr, align 8
  ret void, !dbg !1399
}

; Function Attrs: noinline nounwind uwtable
define linkonce_odr dso_local void @_ZN11xercesc_2_715BaseRefVectorOfINS_12XSAnnotationEED2Ev(%"class.xercesc_2_7::BaseRefVectorOf"* %this) unnamed_addr #1 comdat align 2 !dbg !1400 {
entry:
  %this.addr = alloca %"class.xercesc_2_7::BaseRefVectorOf"*, align 8
  store %"class.xercesc_2_7::BaseRefVectorOf"* %this, %"class.xercesc_2_7::BaseRefVectorOf"** %this.addr, align 8
  call void @llvm.dbg.declare(metadata %"class.xercesc_2_7::BaseRefVectorOf"** %this.addr, metadata !1401, metadata !DIExpression()), !dbg !1402
  %this1 = load %"class.xercesc_2_7::BaseRefVectorOf"*, %"class.xercesc_2_7::BaseRefVectorOf"** %this.addr, align 8
  ret void, !dbg !1403
}

; Function Attrs: noinline nounwind uwtable
define linkonce_odr dso_local void @_ZN11xercesc_2_715BaseRefVectorOfINS_12XSAnnotationEED0Ev(%"class.xercesc_2_7::BaseRefVectorOf"* %this) unnamed_addr #1 comdat align 2 !dbg !1404 {
entry:
  %this.addr = alloca %"class.xercesc_2_7::BaseRefVectorOf"*, align 8
  store %"class.xercesc_2_7::BaseRefVectorOf"* %this, %"class.xercesc_2_7::BaseRefVectorOf"** %this.addr, align 8
  call void @llvm.dbg.declare(metadata %"class.xercesc_2_7::BaseRefVectorOf"** %this.addr, metadata !1405, metadata !DIExpression()), !dbg !1406
  %this1 = load %"class.xercesc_2_7::BaseRefVectorOf"*, %"class.xercesc_2_7::BaseRefVectorOf"** %this.addr, align 8
  call void @_ZN11xercesc_2_715BaseRefVectorOfINS_12XSAnnotationEED2Ev(%"class.xercesc_2_7::BaseRefVectorOf"* %this1) #7, !dbg !1407
  %0 = bitcast %"class.xercesc_2_7::BaseRefVectorOf"* %this1 to i8*, !dbg !1407
  call void @_ZN11xercesc_2_77XMemorydlEPv(i8* %0) #7, !dbg !1407
  ret void, !dbg !1408
}

; Function Attrs: noinline noreturn nounwind
define linkonce_odr hidden void @__clang_call_terminate(i8* %0) #6 comdat {
  %2 = call i8* @__cxa_begin_catch(i8* %0) #7
  call void @_ZSt9terminatev() #9
  unreachable
}

declare dso_local i8* @__cxa_begin_catch(i8*)

declare dso_local void @_ZSt9terminatev()

declare dso_local i8* @__cxa_allocate_exception(i64)

; Function Attrs: noinline uwtable
define linkonce_odr dso_local void @_ZN11xercesc_2_730ArrayIndexOutOfBoundsExceptionC2EPKcjNS_10XMLExcepts5CodesEPNS_13MemoryManagerE(%"class.xercesc_2_7::ArrayIndexOutOfBoundsException"* %this, i8* %srcFile, i32 %srcLine, i32 %toThrow, %"class.xercesc_2_7::MemoryManager"* %memoryManager) unnamed_addr #3 comdat align 2 personality i8* bitcast (i32 (...)* @__gxx_personality_v0 to i8*) !dbg !1409 {
entry:
  %this.addr = alloca %"class.xercesc_2_7::ArrayIndexOutOfBoundsException"*, align 8
  %srcFile.addr = alloca i8*, align 8
  %srcLine.addr = alloca i32, align 4
  %toThrow.addr = alloca i32, align 4
  %memoryManager.addr = alloca %"class.xercesc_2_7::MemoryManager"*, align 8
  %exn.slot = alloca i8*
  %ehselector.slot = alloca i32
  store %"class.xercesc_2_7::ArrayIndexOutOfBoundsException"* %this, %"class.xercesc_2_7::ArrayIndexOutOfBoundsException"** %this.addr, align 8
  call void @llvm.dbg.declare(metadata %"class.xercesc_2_7::ArrayIndexOutOfBoundsException"** %this.addr, metadata !1455, metadata !DIExpression()), !dbg !1457
  store i8* %srcFile, i8** %srcFile.addr, align 8
  call void @llvm.dbg.declare(metadata i8** %srcFile.addr, metadata !1458, metadata !DIExpression()), !dbg !1459
  store i32 %srcLine, i32* %srcLine.addr, align 4
  call void @llvm.dbg.declare(metadata i32* %srcLine.addr, metadata !1460, metadata !DIExpression()), !dbg !1459
  store i32 %toThrow, i32* %toThrow.addr, align 4
  call void @llvm.dbg.declare(metadata i32* %toThrow.addr, metadata !1461, metadata !DIExpression()), !dbg !1459
  store %"class.xercesc_2_7::MemoryManager"* %memoryManager, %"class.xercesc_2_7::MemoryManager"** %memoryManager.addr, align 8
  call void @llvm.dbg.declare(metadata %"class.xercesc_2_7::MemoryManager"** %memoryManager.addr, metadata !1462, metadata !DIExpression()), !dbg !1459
  %this1 = load %"class.xercesc_2_7::ArrayIndexOutOfBoundsException"*, %"class.xercesc_2_7::ArrayIndexOutOfBoundsException"** %this.addr, align 8
  %0 = bitcast %"class.xercesc_2_7::ArrayIndexOutOfBoundsException"* %this1 to %"class.xercesc_2_7::XMLException"*, !dbg !1459
  %1 = load i8*, i8** %srcFile.addr, align 8, !dbg !1459
  %2 = load i32, i32* %srcLine.addr, align 4, !dbg !1459
  %3 = load %"class.xercesc_2_7::MemoryManager"*, %"class.xercesc_2_7::MemoryManager"** %memoryManager.addr, align 8, !dbg !1459
  call void @_ZN11xercesc_2_712XMLExceptionC2EPKcjPNS_13MemoryManagerE(%"class.xercesc_2_7::XMLException"* %0, i8* %1, i32 %2, %"class.xercesc_2_7::MemoryManager"* %3), !dbg !1459
  %4 = bitcast %"class.xercesc_2_7::ArrayIndexOutOfBoundsException"* %this1 to i32 (...)***, !dbg !1459
  store i32 (...)** bitcast (i8** getelementptr inbounds ({ [6 x i8*] }, { [6 x i8*] }* @_ZTVN11xercesc_2_730ArrayIndexOutOfBoundsExceptionE, i32 0, inrange i32 0, i32 2) to i32 (...)**), i32 (...)*** %4, align 8, !dbg !1459
  %5 = bitcast %"class.xercesc_2_7::ArrayIndexOutOfBoundsException"* %this1 to %"class.xercesc_2_7::XMLException"*, !dbg !1463
  %6 = load i32, i32* %toThrow.addr, align 4, !dbg !1463
  invoke void @_ZN11xercesc_2_712XMLException14loadExceptTextENS_10XMLExcepts5CodesE(%"class.xercesc_2_7::XMLException"* %5, i32 %6)
          to label %invoke.cont unwind label %lpad, !dbg !1463

invoke.cont:                                      ; preds = %entry
  ret void, !dbg !1459

lpad:                                             ; preds = %entry
  %7 = landingpad { i8*, i32 }
          cleanup, !dbg !1463
  %8 = extractvalue { i8*, i32 } %7, 0, !dbg !1463
  store i8* %8, i8** %exn.slot, align 8, !dbg !1463
  %9 = extractvalue { i8*, i32 } %7, 1, !dbg !1463
  store i32 %9, i32* %ehselector.slot, align 4, !dbg !1463
  %10 = bitcast %"class.xercesc_2_7::ArrayIndexOutOfBoundsException"* %this1 to %"class.xercesc_2_7::XMLException"*, !dbg !1463
  call void @_ZN11xercesc_2_712XMLExceptionD2Ev(%"class.xercesc_2_7::XMLException"* %10) #7, !dbg !1463
  br label %eh.resume, !dbg !1463

eh.resume:                                        ; preds = %lpad
  %exn = load i8*, i8** %exn.slot, align 8, !dbg !1463
  %sel = load i32, i32* %ehselector.slot, align 4, !dbg !1463
  %lpad.val = insertvalue { i8*, i32 } undef, i8* %exn, 0, !dbg !1463
  %lpad.val2 = insertvalue { i8*, i32 } %lpad.val, i32 %sel, 1, !dbg !1463
  resume { i8*, i32 } %lpad.val2, !dbg !1463
}

declare dso_local void @__cxa_free_exception(i8*)

; Function Attrs: noinline nounwind uwtable
define linkonce_odr dso_local void @_ZN11xercesc_2_730ArrayIndexOutOfBoundsExceptionD2Ev(%"class.xercesc_2_7::ArrayIndexOutOfBoundsException"* %this) unnamed_addr #1 comdat align 2 !dbg !1465 {
entry:
  %this.addr = alloca %"class.xercesc_2_7::ArrayIndexOutOfBoundsException"*, align 8
  store %"class.xercesc_2_7::ArrayIndexOutOfBoundsException"* %this, %"class.xercesc_2_7::ArrayIndexOutOfBoundsException"** %this.addr, align 8
  call void @llvm.dbg.declare(metadata %"class.xercesc_2_7::ArrayIndexOutOfBoundsException"** %this.addr, metadata !1466, metadata !DIExpression()), !dbg !1467
  %this1 = load %"class.xercesc_2_7::ArrayIndexOutOfBoundsException"*, %"class.xercesc_2_7::ArrayIndexOutOfBoundsException"** %this.addr, align 8
  %0 = bitcast %"class.xercesc_2_7::ArrayIndexOutOfBoundsException"* %this1 to %"class.xercesc_2_7::XMLException"*, !dbg !1468
  call void @_ZN11xercesc_2_712XMLExceptionD2Ev(%"class.xercesc_2_7::XMLException"* %0) #7, !dbg !1468
  ret void, !dbg !1470
}

declare dso_local void @__cxa_throw(i8*, i8*, i8*)

declare dso_local void @_ZN11xercesc_2_712XMLExceptionC2EPKcjPNS_13MemoryManagerE(%"class.xercesc_2_7::XMLException"*, i8*, i32, %"class.xercesc_2_7::MemoryManager"*) unnamed_addr #4

declare dso_local void @_ZN11xercesc_2_712XMLException14loadExceptTextENS_10XMLExcepts5CodesE(%"class.xercesc_2_7::XMLException"*, i32) #4

; Function Attrs: nounwind
declare dso_local void @_ZN11xercesc_2_712XMLExceptionD2Ev(%"class.xercesc_2_7::XMLException"*) unnamed_addr #5

; Function Attrs: noinline nounwind uwtable
define linkonce_odr dso_local void @_ZN11xercesc_2_730ArrayIndexOutOfBoundsExceptionD0Ev(%"class.xercesc_2_7::ArrayIndexOutOfBoundsException"* %this) unnamed_addr #1 comdat align 2 !dbg !1471 {
entry:
  %this.addr = alloca %"class.xercesc_2_7::ArrayIndexOutOfBoundsException"*, align 8
  store %"class.xercesc_2_7::ArrayIndexOutOfBoundsException"* %this, %"class.xercesc_2_7::ArrayIndexOutOfBoundsException"** %this.addr, align 8
  call void @llvm.dbg.declare(metadata %"class.xercesc_2_7::ArrayIndexOutOfBoundsException"** %this.addr, metadata !1472, metadata !DIExpression()), !dbg !1473
  %this1 = load %"class.xercesc_2_7::ArrayIndexOutOfBoundsException"*, %"class.xercesc_2_7::ArrayIndexOutOfBoundsException"** %this.addr, align 8
  call void @_ZN11xercesc_2_730ArrayIndexOutOfBoundsExceptionD2Ev(%"class.xercesc_2_7::ArrayIndexOutOfBoundsException"* %this1) #7, !dbg !1474
  %0 = bitcast %"class.xercesc_2_7::ArrayIndexOutOfBoundsException"* %this1 to i8*, !dbg !1474
  call void @_ZN11xercesc_2_77XMemorydlEPv(i8* %0) #7, !dbg !1474
  ret void, !dbg !1474
}

; Function Attrs: noinline nounwind uwtable
define linkonce_odr dso_local i16* @_ZNK11xercesc_2_730ArrayIndexOutOfBoundsException7getTypeEv(%"class.xercesc_2_7::ArrayIndexOutOfBoundsException"* %this) unnamed_addr #1 comdat align 2 !dbg !1475 {
entry:
  %this.addr = alloca %"class.xercesc_2_7::ArrayIndexOutOfBoundsException"*, align 8
  store %"class.xercesc_2_7::ArrayIndexOutOfBoundsException"* %this, %"class.xercesc_2_7::ArrayIndexOutOfBoundsException"** %this.addr, align 8
  call void @llvm.dbg.declare(metadata %"class.xercesc_2_7::ArrayIndexOutOfBoundsException"** %this.addr, metadata !1476, metadata !DIExpression()), !dbg !1478
  %this1 = load %"class.xercesc_2_7::ArrayIndexOutOfBoundsException"*, %"class.xercesc_2_7::ArrayIndexOutOfBoundsException"** %this.addr, align 8
  ret i16* getelementptr inbounds ([0 x i16], [0 x i16]* @_ZN11xercesc_2_76XMLUni37fgArrayIndexOutOfBoundsException_NameE, i64 0, i64 0), !dbg !1479
}

; Function Attrs: noinline uwtable
define linkonce_odr dso_local %"class.xercesc_2_7::XMLException"* @_ZNK11xercesc_2_730ArrayIndexOutOfBoundsException9duplicateEv(%"class.xercesc_2_7::ArrayIndexOutOfBoundsException"* %this) unnamed_addr #3 comdat align 2 personality i8* bitcast (i32 (...)* @__gxx_personality_v0 to i8*) !dbg !1480 {
entry:
  %this.addr = alloca %"class.xercesc_2_7::ArrayIndexOutOfBoundsException"*, align 8
  %exn.slot = alloca i8*
  %ehselector.slot = alloca i32
  store %"class.xercesc_2_7::ArrayIndexOutOfBoundsException"* %this, %"class.xercesc_2_7::ArrayIndexOutOfBoundsException"** %this.addr, align 8
  call void @llvm.dbg.declare(metadata %"class.xercesc_2_7::ArrayIndexOutOfBoundsException"** %this.addr, metadata !1481, metadata !DIExpression()), !dbg !1482
  %this1 = load %"class.xercesc_2_7::ArrayIndexOutOfBoundsException"*, %"class.xercesc_2_7::ArrayIndexOutOfBoundsException"** %this.addr, align 8
  %0 = bitcast %"class.xercesc_2_7::ArrayIndexOutOfBoundsException"* %this1 to %"class.xercesc_2_7::XMLException"*, !dbg !1483
  %fMemoryManager = getelementptr inbounds %"class.xercesc_2_7::XMLException", %"class.xercesc_2_7::XMLException"* %0, i32 0, i32 5, !dbg !1483
  %1 = load %"class.xercesc_2_7::MemoryManager"*, %"class.xercesc_2_7::MemoryManager"** %fMemoryManager, align 8, !dbg !1483
  %call = call i8* @_ZN11xercesc_2_77XMemorynwEmPNS_13MemoryManagerE(i64 48, %"class.xercesc_2_7::MemoryManager"* %1), !dbg !1483
  %2 = bitcast i8* %call to %"class.xercesc_2_7::ArrayIndexOutOfBoundsException"*, !dbg !1483
  invoke void @_ZN11xercesc_2_730ArrayIndexOutOfBoundsExceptionC2ERKS0_(%"class.xercesc_2_7::ArrayIndexOutOfBoundsException"* %2, %"class.xercesc_2_7::ArrayIndexOutOfBoundsException"* dereferenceable(48) %this1)
          to label %invoke.cont unwind label %lpad, !dbg !1483

invoke.cont:                                      ; preds = %entry
  %3 = bitcast %"class.xercesc_2_7::ArrayIndexOutOfBoundsException"* %2 to %"class.xercesc_2_7::XMLException"*, !dbg !1483
  ret %"class.xercesc_2_7::XMLException"* %3, !dbg !1483

lpad:                                             ; preds = %entry
  %4 = landingpad { i8*, i32 }
          cleanup, !dbg !1483
  %5 = extractvalue { i8*, i32 } %4, 0, !dbg !1483
  store i8* %5, i8** %exn.slot, align 8, !dbg !1483
  %6 = extractvalue { i8*, i32 } %4, 1, !dbg !1483
  store i32 %6, i32* %ehselector.slot, align 4, !dbg !1483
  call void @_ZN11xercesc_2_77XMemorydlEPvPNS_13MemoryManagerE(i8* %call, %"class.xercesc_2_7::MemoryManager"* %1) #7, !dbg !1483
  br label %eh.resume, !dbg !1483

eh.resume:                                        ; preds = %lpad
  %exn = load i8*, i8** %exn.slot, align 8, !dbg !1483
  %sel = load i32, i32* %ehselector.slot, align 4, !dbg !1483
  %lpad.val = insertvalue { i8*, i32 } undef, i8* %exn, 0, !dbg !1483
  %lpad.val2 = insertvalue { i8*, i32 } %lpad.val, i32 %sel, 1, !dbg !1483
  resume { i8*, i32 } %lpad.val2, !dbg !1483
}

; Function Attrs: noinline uwtable
define linkonce_odr dso_local void @_ZN11xercesc_2_730ArrayIndexOutOfBoundsExceptionC2ERKS0_(%"class.xercesc_2_7::ArrayIndexOutOfBoundsException"* %this, %"class.xercesc_2_7::ArrayIndexOutOfBoundsException"* dereferenceable(48) %toCopy) unnamed_addr #3 comdat align 2 !dbg !1484 {
entry:
  %this.addr = alloca %"class.xercesc_2_7::ArrayIndexOutOfBoundsException"*, align 8
  %toCopy.addr = alloca %"class.xercesc_2_7::ArrayIndexOutOfBoundsException"*, align 8
  store %"class.xercesc_2_7::ArrayIndexOutOfBoundsException"* %this, %"class.xercesc_2_7::ArrayIndexOutOfBoundsException"** %this.addr, align 8
  call void @llvm.dbg.declare(metadata %"class.xercesc_2_7::ArrayIndexOutOfBoundsException"** %this.addr, metadata !1485, metadata !DIExpression()), !dbg !1486
  store %"class.xercesc_2_7::ArrayIndexOutOfBoundsException"* %toCopy, %"class.xercesc_2_7::ArrayIndexOutOfBoundsException"** %toCopy.addr, align 8
  call void @llvm.dbg.declare(metadata %"class.xercesc_2_7::ArrayIndexOutOfBoundsException"** %toCopy.addr, metadata !1487, metadata !DIExpression()), !dbg !1488
  %this1 = load %"class.xercesc_2_7::ArrayIndexOutOfBoundsException"*, %"class.xercesc_2_7::ArrayIndexOutOfBoundsException"** %this.addr, align 8
  %0 = bitcast %"class.xercesc_2_7::ArrayIndexOutOfBoundsException"* %this1 to %"class.xercesc_2_7::XMLException"*, !dbg !1488
  %1 = load %"class.xercesc_2_7::ArrayIndexOutOfBoundsException"*, %"class.xercesc_2_7::ArrayIndexOutOfBoundsException"** %toCopy.addr, align 8, !dbg !1488
  %2 = bitcast %"class.xercesc_2_7::ArrayIndexOutOfBoundsException"* %1 to %"class.xercesc_2_7::XMLException"*, !dbg !1488
  call void @_ZN11xercesc_2_712XMLExceptionC2ERKS0_(%"class.xercesc_2_7::XMLException"* %0, %"class.xercesc_2_7::XMLException"* dereferenceable(48) %2), !dbg !1488
  %3 = bitcast %"class.xercesc_2_7::ArrayIndexOutOfBoundsException"* %this1 to i32 (...)***, !dbg !1488
  store i32 (...)** bitcast (i8** getelementptr inbounds ({ [6 x i8*] }, { [6 x i8*] }* @_ZTVN11xercesc_2_730ArrayIndexOutOfBoundsExceptionE, i32 0, inrange i32 0, i32 2) to i32 (...)**), i32 (...)*** %3, align 8, !dbg !1488
  ret void, !dbg !1488
}

declare dso_local void @_ZN11xercesc_2_712XMLExceptionC2ERKS0_(%"class.xercesc_2_7::XMLException"*, %"class.xercesc_2_7::XMLException"* dereferenceable(48)) unnamed_addr #4

; Function Attrs: noinline uwtable
define linkonce_odr dso_local void @_ZN11xercesc_2_715BaseRefVectorOfINS_12XSAnnotationEE19ensureExtraCapacityEj(%"class.xercesc_2_7::BaseRefVectorOf"* %this, i32 %length) #3 comdat align 2 !dbg !1489 {
entry:
  %this.addr = alloca %"class.xercesc_2_7::BaseRefVectorOf"*, align 8
  %length.addr = alloca i32, align 4
  %newMax = alloca i32, align 4
  %newList = alloca %"class.xercesc_2_7::XSAnnotation"**, align 8
  %index = alloca i32, align 4
  store %"class.xercesc_2_7::BaseRefVectorOf"* %this, %"class.xercesc_2_7::BaseRefVectorOf"** %this.addr, align 8
  call void @llvm.dbg.declare(metadata %"class.xercesc_2_7::BaseRefVectorOf"** %this.addr, metadata !1490, metadata !DIExpression()), !dbg !1491
  store i32 %length, i32* %length.addr, align 4
  call void @llvm.dbg.declare(metadata i32* %length.addr, metadata !1492, metadata !DIExpression()), !dbg !1493
  %this1 = load %"class.xercesc_2_7::BaseRefVectorOf"*, %"class.xercesc_2_7::BaseRefVectorOf"** %this.addr, align 8
  call void @llvm.dbg.declare(metadata i32* %newMax, metadata !1494, metadata !DIExpression()), !dbg !1495
  %fCurCount = getelementptr inbounds %"class.xercesc_2_7::BaseRefVectorOf", %"class.xercesc_2_7::BaseRefVectorOf"* %this1, i32 0, i32 2, !dbg !1496
  %0 = load i32, i32* %fCurCount, align 4, !dbg !1496
  %1 = load i32, i32* %length.addr, align 4, !dbg !1497
  %add = add i32 %0, %1, !dbg !1498
  store i32 %add, i32* %newMax, align 4, !dbg !1495
  %2 = load i32, i32* %newMax, align 4, !dbg !1499
  %fMaxCount = getelementptr inbounds %"class.xercesc_2_7::BaseRefVectorOf", %"class.xercesc_2_7::BaseRefVectorOf"* %this1, i32 0, i32 3, !dbg !1501
  %3 = load i32, i32* %fMaxCount, align 8, !dbg !1501
  %cmp = icmp ule i32 %2, %3, !dbg !1502
  br i1 %cmp, label %if.then, label %if.end, !dbg !1503

if.then:                                          ; preds = %entry
  br label %return, !dbg !1504

if.end:                                           ; preds = %entry
  %4 = load i32, i32* %newMax, align 4, !dbg !1505
  %fMaxCount2 = getelementptr inbounds %"class.xercesc_2_7::BaseRefVectorOf", %"class.xercesc_2_7::BaseRefVectorOf"* %this1, i32 0, i32 3, !dbg !1507
  %5 = load i32, i32* %fMaxCount2, align 8, !dbg !1507
  %fMaxCount3 = getelementptr inbounds %"class.xercesc_2_7::BaseRefVectorOf", %"class.xercesc_2_7::BaseRefVectorOf"* %this1, i32 0, i32 3, !dbg !1508
  %6 = load i32, i32* %fMaxCount3, align 8, !dbg !1508
  %div = udiv i32 %6, 2, !dbg !1509
  %add4 = add i32 %5, %div, !dbg !1510
  %cmp5 = icmp ult i32 %4, %add4, !dbg !1511
  br i1 %cmp5, label %if.then6, label %if.end11, !dbg !1512

if.then6:                                         ; preds = %if.end
  %fMaxCount7 = getelementptr inbounds %"class.xercesc_2_7::BaseRefVectorOf", %"class.xercesc_2_7::BaseRefVectorOf"* %this1, i32 0, i32 3, !dbg !1513
  %7 = load i32, i32* %fMaxCount7, align 8, !dbg !1513
  %fMaxCount8 = getelementptr inbounds %"class.xercesc_2_7::BaseRefVectorOf", %"class.xercesc_2_7::BaseRefVectorOf"* %this1, i32 0, i32 3, !dbg !1514
  %8 = load i32, i32* %fMaxCount8, align 8, !dbg !1514
  %div9 = udiv i32 %8, 2, !dbg !1515
  %add10 = add i32 %7, %div9, !dbg !1516
  store i32 %add10, i32* %newMax, align 4, !dbg !1517
  br label %if.end11, !dbg !1518

if.end11:                                         ; preds = %if.then6, %if.end
  call void @llvm.dbg.declare(metadata %"class.xercesc_2_7::XSAnnotation"*** %newList, metadata !1519, metadata !DIExpression()), !dbg !1520
  %fMemoryManager = getelementptr inbounds %"class.xercesc_2_7::BaseRefVectorOf", %"class.xercesc_2_7::BaseRefVectorOf"* %this1, i32 0, i32 5, !dbg !1521
  %9 = load %"class.xercesc_2_7::MemoryManager"*, %"class.xercesc_2_7::MemoryManager"** %fMemoryManager, align 8, !dbg !1521
  %10 = load i32, i32* %newMax, align 4, !dbg !1522
  %conv = zext i32 %10 to i64, !dbg !1522
  %mul = mul i64 %conv, 8, !dbg !1523
  %11 = bitcast %"class.xercesc_2_7::MemoryManager"* %9 to i8* (%"class.xercesc_2_7::MemoryManager"*, i64)***, !dbg !1524
  %vtable = load i8* (%"class.xercesc_2_7::MemoryManager"*, i64)**, i8* (%"class.xercesc_2_7::MemoryManager"*, i64)*** %11, align 8, !dbg !1524
  %vfn = getelementptr inbounds i8* (%"class.xercesc_2_7::MemoryManager"*, i64)*, i8* (%"class.xercesc_2_7::MemoryManager"*, i64)** %vtable, i64 2, !dbg !1524
  %12 = load i8* (%"class.xercesc_2_7::MemoryManager"*, i64)*, i8* (%"class.xercesc_2_7::MemoryManager"*, i64)** %vfn, align 8, !dbg !1524
  %call = call i8* %12(%"class.xercesc_2_7::MemoryManager"* %9, i64 %mul), !dbg !1524
  %13 = bitcast i8* %call to %"class.xercesc_2_7::XSAnnotation"**, !dbg !1525
  store %"class.xercesc_2_7::XSAnnotation"** %13, %"class.xercesc_2_7::XSAnnotation"*** %newList, align 8, !dbg !1520
  call void @llvm.dbg.declare(metadata i32* %index, metadata !1526, metadata !DIExpression()), !dbg !1527
  store i32 0, i32* %index, align 4, !dbg !1527
  br label %for.cond, !dbg !1528

for.cond:                                         ; preds = %for.inc, %if.end11
  %14 = load i32, i32* %index, align 4, !dbg !1529
  %fCurCount12 = getelementptr inbounds %"class.xercesc_2_7::BaseRefVectorOf", %"class.xercesc_2_7::BaseRefVectorOf"* %this1, i32 0, i32 2, !dbg !1532
  %15 = load i32, i32* %fCurCount12, align 4, !dbg !1532
  %cmp13 = icmp ult i32 %14, %15, !dbg !1533
  br i1 %cmp13, label %for.body, label %for.end, !dbg !1534

for.body:                                         ; preds = %for.cond
  %fElemList = getelementptr inbounds %"class.xercesc_2_7::BaseRefVectorOf", %"class.xercesc_2_7::BaseRefVectorOf"* %this1, i32 0, i32 4, !dbg !1535
  %16 = load %"class.xercesc_2_7::XSAnnotation"**, %"class.xercesc_2_7::XSAnnotation"*** %fElemList, align 8, !dbg !1535
  %17 = load i32, i32* %index, align 4, !dbg !1536
  %idxprom = zext i32 %17 to i64, !dbg !1535
  %arrayidx = getelementptr inbounds %"class.xercesc_2_7::XSAnnotation"*, %"class.xercesc_2_7::XSAnnotation"** %16, i64 %idxprom, !dbg !1535
  %18 = load %"class.xercesc_2_7::XSAnnotation"*, %"class.xercesc_2_7::XSAnnotation"** %arrayidx, align 8, !dbg !1535
  %19 = load %"class.xercesc_2_7::XSAnnotation"**, %"class.xercesc_2_7::XSAnnotation"*** %newList, align 8, !dbg !1537
  %20 = load i32, i32* %index, align 4, !dbg !1538
  %idxprom14 = zext i32 %20 to i64, !dbg !1537
  %arrayidx15 = getelementptr inbounds %"class.xercesc_2_7::XSAnnotation"*, %"class.xercesc_2_7::XSAnnotation"** %19, i64 %idxprom14, !dbg !1537
  store %"class.xercesc_2_7::XSAnnotation"* %18, %"class.xercesc_2_7::XSAnnotation"** %arrayidx15, align 8, !dbg !1539
  br label %for.inc, !dbg !1537

for.inc:                                          ; preds = %for.body
  %21 = load i32, i32* %index, align 4, !dbg !1540
  %inc = add i32 %21, 1, !dbg !1540
  store i32 %inc, i32* %index, align 4, !dbg !1540
  br label %for.cond, !dbg !1541, !llvm.loop !1542

for.end:                                          ; preds = %for.cond
  br label %for.cond16, !dbg !1544

for.cond16:                                       ; preds = %for.inc21, %for.end
  %22 = load i32, i32* %index, align 4, !dbg !1545
  %23 = load i32, i32* %newMax, align 4, !dbg !1548
  %cmp17 = icmp ult i32 %22, %23, !dbg !1549
  br i1 %cmp17, label %for.body18, label %for.end23, !dbg !1550

for.body18:                                       ; preds = %for.cond16
  %24 = load %"class.xercesc_2_7::XSAnnotation"**, %"class.xercesc_2_7::XSAnnotation"*** %newList, align 8, !dbg !1551
  %25 = load i32, i32* %index, align 4, !dbg !1552
  %idxprom19 = zext i32 %25 to i64, !dbg !1551
  %arrayidx20 = getelementptr inbounds %"class.xercesc_2_7::XSAnnotation"*, %"class.xercesc_2_7::XSAnnotation"** %24, i64 %idxprom19, !dbg !1551
  store %"class.xercesc_2_7::XSAnnotation"* null, %"class.xercesc_2_7::XSAnnotation"** %arrayidx20, align 8, !dbg !1553
  br label %for.inc21, !dbg !1551

for.inc21:                                        ; preds = %for.body18
  %26 = load i32, i32* %index, align 4, !dbg !1554
  %inc22 = add i32 %26, 1, !dbg !1554
  store i32 %inc22, i32* %index, align 4, !dbg !1554
  br label %for.cond16, !dbg !1555, !llvm.loop !1556

for.end23:                                        ; preds = %for.cond16
  %fMemoryManager24 = getelementptr inbounds %"class.xercesc_2_7::BaseRefVectorOf", %"class.xercesc_2_7::BaseRefVectorOf"* %this1, i32 0, i32 5, !dbg !1558
  %27 = load %"class.xercesc_2_7::MemoryManager"*, %"class.xercesc_2_7::MemoryManager"** %fMemoryManager24, align 8, !dbg !1558
  %fElemList25 = getelementptr inbounds %"class.xercesc_2_7::BaseRefVectorOf", %"class.xercesc_2_7::BaseRefVectorOf"* %this1, i32 0, i32 4, !dbg !1559
  %28 = load %"class.xercesc_2_7::XSAnnotation"**, %"class.xercesc_2_7::XSAnnotation"*** %fElemList25, align 8, !dbg !1559
  %29 = bitcast %"class.xercesc_2_7::XSAnnotation"** %28 to i8*, !dbg !1559
  %30 = bitcast %"class.xercesc_2_7::MemoryManager"* %27 to void (%"class.xercesc_2_7::MemoryManager"*, i8*)***, !dbg !1560
  %vtable26 = load void (%"class.xercesc_2_7::MemoryManager"*, i8*)**, void (%"class.xercesc_2_7::MemoryManager"*, i8*)*** %30, align 8, !dbg !1560
  %vfn27 = getelementptr inbounds void (%"class.xercesc_2_7::MemoryManager"*, i8*)*, void (%"class.xercesc_2_7::MemoryManager"*, i8*)** %vtable26, i64 3, !dbg !1560
  %31 = load void (%"class.xercesc_2_7::MemoryManager"*, i8*)*, void (%"class.xercesc_2_7::MemoryManager"*, i8*)** %vfn27, align 8, !dbg !1560
  call void %31(%"class.xercesc_2_7::MemoryManager"* %27, i8* %29), !dbg !1560
  %32 = load %"class.xercesc_2_7::XSAnnotation"**, %"class.xercesc_2_7::XSAnnotation"*** %newList, align 8, !dbg !1561
  %fElemList28 = getelementptr inbounds %"class.xercesc_2_7::BaseRefVectorOf", %"class.xercesc_2_7::BaseRefVectorOf"* %this1, i32 0, i32 4, !dbg !1562
  store %"class.xercesc_2_7::XSAnnotation"** %32, %"class.xercesc_2_7::XSAnnotation"*** %fElemList28, align 8, !dbg !1563
  %33 = load i32, i32* %newMax, align 4, !dbg !1564
  %fMaxCount29 = getelementptr inbounds %"class.xercesc_2_7::BaseRefVectorOf", %"class.xercesc_2_7::BaseRefVectorOf"* %this1, i32 0, i32 3, !dbg !1565
  store i32 %33, i32* %fMaxCount29, align 8, !dbg !1566
  br label %return, !dbg !1567

return:                                           ; preds = %for.end23, %if.then
  ret void, !dbg !1567
}

attributes #0 = { nounwind readnone speculatable willreturn }
attributes #1 = { noinline nounwind uwtable "correctly-rounded-divide-sqrt-fp-math"="false" "disable-tail-calls"="false" "frame-pointer"="all" "less-precise-fpmad"="false" "min-legal-vector-width"="0" "no-infs-fp-math"="false" "no-jump-tables"="false" "no-nans-fp-math"="false" "no-signed-zeros-fp-math"="false" "no-trapping-math"="false" "stack-protector-buffer-size"="8" "target-cpu"="x86-64" "target-features"="+cx8,+fxsr,+mmx,+sse,+sse2,+x87" "unsafe-fp-math"="false" "use-soft-float"="false" }
attributes #2 = { nobuiltin nounwind "correctly-rounded-divide-sqrt-fp-math"="false" "disable-tail-calls"="false" "frame-pointer"="all" "less-precise-fpmad"="false" "no-infs-fp-math"="false" "no-nans-fp-math"="false" "no-signed-zeros-fp-math"="false" "no-trapping-math"="false" "stack-protector-buffer-size"="8" "target-cpu"="x86-64" "target-features"="+cx8,+fxsr,+mmx,+sse,+sse2,+x87" "unsafe-fp-math"="false" "use-soft-float"="false" }
attributes #3 = { noinline uwtable "correctly-rounded-divide-sqrt-fp-math"="false" "disable-tail-calls"="false" "frame-pointer"="all" "less-precise-fpmad"="false" "min-legal-vector-width"="0" "no-infs-fp-math"="false" "no-jump-tables"="false" "no-nans-fp-math"="false" "no-signed-zeros-fp-math"="false" "no-trapping-math"="false" "stack-protector-buffer-size"="8" "target-cpu"="x86-64" "target-features"="+cx8,+fxsr,+mmx,+sse,+sse2,+x87" "unsafe-fp-math"="false" "use-soft-float"="false" }
attributes #4 = { "correctly-rounded-divide-sqrt-fp-math"="false" "disable-tail-calls"="false" "frame-pointer"="all" "less-precise-fpmad"="false" "no-infs-fp-math"="false" "no-nans-fp-math"="false" "no-signed-zeros-fp-math"="false" "no-trapping-math"="false" "stack-protector-buffer-size"="8" "target-cpu"="x86-64" "target-features"="+cx8,+fxsr,+mmx,+sse,+sse2,+x87" "unsafe-fp-math"="false" "use-soft-float"="false" }
attributes #5 = { nounwind "correctly-rounded-divide-sqrt-fp-math"="false" "disable-tail-calls"="false" "frame-pointer"="all" "less-precise-fpmad"="false" "no-infs-fp-math"="false" "no-nans-fp-math"="false" "no-signed-zeros-fp-math"="false" "no-trapping-math"="false" "stack-protector-buffer-size"="8" "target-cpu"="x86-64" "target-features"="+cx8,+fxsr,+mmx,+sse,+sse2,+x87" "unsafe-fp-math"="false" "use-soft-float"="false" }
attributes #6 = { noinline noreturn nounwind }
attributes #7 = { nounwind }
attributes #8 = { builtin nounwind }
attributes #9 = { noreturn nounwind }
attributes #10 = { noreturn }

!llvm.dbg.cu = !{!0}
!llvm.module.flags = !{!852, !853, !854}
!llvm.ident = !{!855}

!0 = distinct !DICompileUnit(language: DW_LANG_C_plus_plus_14, file: !1, producer: "clang version 10.0.1 (https://github.com/svkeerthy/IR2Vec-LoopOptimizationFramework.git 561ac470e63b728263a0ac06ef987886ac648486)", isOptimized: false, runtimeVersion: 0, emissionKind: FullDebug, enums: !2, retainedTypes: !458, imports: !463, splitDebugInlining: false, nameTableKind: None)
!1 = !DIFile(filename: "XSMultiValueFacet.cpp", directory: "/home/venkat/IF-DV/spec_build_release/CPU_2017/benchspec/CPU/523.xalancbmk_r/build/build_base_ld-loop-ext-m64.0000")
!2 = !{!3, !22, !45}
!3 = !DICompositeType(tag: DW_TAG_enumeration_type, name: "FACET", scope: !5, file: !4, line: 67, baseType: !7, size: 32, elements: !8, identifier: "_ZTSN11xercesc_2_722XSSimpleTypeDefinition5FACETE")
!4 = !DIFile(filename: "./xercesc/framework/psvi/XSSimpleTypeDefinition.hpp", directory: "/home/venkat/IF-DV/spec_build_release/CPU_2017/benchspec/CPU/523.xalancbmk_r/build/build_base_ld-loop-ext-m64.0000")
!5 = !DICompositeType(tag: DW_TAG_class_type, name: "XSSimpleTypeDefinition", scope: !6, file: !4, line: 42, flags: DIFlagFwdDecl)
!6 = !DINamespace(name: "xercesc_2_7", scope: null)
!7 = !DIBasicType(name: "unsigned int", size: 32, encoding: DW_ATE_unsigned)
!8 = !{!9, !10, !11, !12, !13, !14, !15, !16, !17, !18, !19, !20, !21}
!9 = !DIEnumerator(name: "FACET_NONE", value: 0, isUnsigned: true)
!10 = !DIEnumerator(name: "FACET_LENGTH", value: 1, isUnsigned: true)
!11 = !DIEnumerator(name: "FACET_MINLENGTH", value: 2, isUnsigned: true)
!12 = !DIEnumerator(name: "FACET_MAXLENGTH", value: 4, isUnsigned: true)
!13 = !DIEnumerator(name: "FACET_PATTERN", value: 8, isUnsigned: true)
!14 = !DIEnumerator(name: "FACET_WHITESPACE", value: 16, isUnsigned: true)
!15 = !DIEnumerator(name: "FACET_MAXINCLUSIVE", value: 32, isUnsigned: true)
!16 = !DIEnumerator(name: "FACET_MAXEXCLUSIVE", value: 64, isUnsigned: true)
!17 = !DIEnumerator(name: "FACET_MINEXCLUSIVE", value: 128, isUnsigned: true)
!18 = !DIEnumerator(name: "FACET_MININCLUSIVE", value: 256, isUnsigned: true)
!19 = !DIEnumerator(name: "FACET_TOTALDIGITS", value: 512, isUnsigned: true)
!20 = !DIEnumerator(name: "FACET_FRACTIONDIGITS", value: 1024, isUnsigned: true)
!21 = !DIEnumerator(name: "FACET_ENUMERATION", value: 2048, isUnsigned: true)
!22 = !DICompositeType(tag: DW_TAG_enumeration_type, name: "COMPONENT_TYPE", scope: !24, file: !23, line: 60, baseType: !7, size: 32, elements: !30, identifier: "_ZTSN11xercesc_2_711XSConstants14COMPONENT_TYPEE")
!23 = !DIFile(filename: "./xercesc/framework/psvi/XSConstants.hpp", directory: "/home/venkat/IF-DV/spec_build_release/CPU_2017/benchspec/CPU/523.xalancbmk_r/build/build_base_ld-loop-ext-m64.0000")
!24 = distinct !DICompositeType(tag: DW_TAG_class_type, name: "XSConstants", scope: !6, file: !23, line: 55, size: 8, flags: DIFlagTypePassByValue | DIFlagNonTrivial, elements: !25, identifier: "_ZTSN11xercesc_2_711XSConstantsE")
!25 = !{!26}
!26 = !DISubprogram(name: "XSConstants", scope: !24, file: !23, line: 190, type: !27, scopeLine: 190, flags: DIFlagPrototyped, spFlags: 0)
!27 = !DISubroutineType(types: !28)
!28 = !{null, !29}
!29 = !DIDerivedType(tag: DW_TAG_pointer_type, baseType: !24, size: 64, flags: DIFlagArtificial | DIFlagObjectPointer)
!30 = !{!31, !32, !33, !34, !35, !36, !37, !38, !39, !40, !41, !42, !43, !44}
!31 = !DIEnumerator(name: "ATTRIBUTE_DECLARATION", value: 1, isUnsigned: true)
!32 = !DIEnumerator(name: "ELEMENT_DECLARATION", value: 2, isUnsigned: true)
!33 = !DIEnumerator(name: "TYPE_DEFINITION", value: 3, isUnsigned: true)
!34 = !DIEnumerator(name: "ATTRIBUTE_USE", value: 4, isUnsigned: true)
!35 = !DIEnumerator(name: "ATTRIBUTE_GROUP_DEFINITION", value: 5, isUnsigned: true)
!36 = !DIEnumerator(name: "MODEL_GROUP_DEFINITION", value: 6, isUnsigned: true)
!37 = !DIEnumerator(name: "MODEL_GROUP", value: 7, isUnsigned: true)
!38 = !DIEnumerator(name: "PARTICLE", value: 8, isUnsigned: true)
!39 = !DIEnumerator(name: "WILDCARD", value: 9, isUnsigned: true)
!40 = !DIEnumerator(name: "IDENTITY_CONSTRAINT", value: 10, isUnsigned: true)
!41 = !DIEnumerator(name: "NOTATION_DECLARATION", value: 11, isUnsigned: true)
!42 = !DIEnumerator(name: "ANNOTATION", value: 12, isUnsigned: true)
!43 = !DIEnumerator(name: "FACET", value: 13, isUnsigned: true)
!44 = !DIEnumerator(name: "MULTIVALUE_FACET", value: 14, isUnsigned: true)
!45 = !DICompositeType(tag: DW_TAG_enumeration_type, name: "Codes", scope: !47, file: !46, line: 14, baseType: !7, size: 32, elements: !53, identifier: "_ZTSN11xercesc_2_710XMLExcepts5CodesE")
!46 = !DIFile(filename: "./xercesc/util/XMLExceptMsgs.hpp", directory: "/home/venkat/IF-DV/spec_build_release/CPU_2017/benchspec/CPU/523.xalancbmk_r/build/build_base_ld-loop-ext-m64.0000")
!47 = distinct !DICompositeType(tag: DW_TAG_class_type, name: "XMLExcepts", scope: !6, file: !46, line: 11, size: 8, flags: DIFlagTypePassByValue | DIFlagNonTrivial, elements: !48, identifier: "_ZTSN11xercesc_2_710XMLExceptsE")
!48 = !{!49}
!49 = !DISubprogram(name: "XMLExcepts", scope: !47, file: !46, line: 427, type: !50, scopeLine: 427, flags: DIFlagPrototyped, spFlags: 0)
!50 = !DISubroutineType(types: !51)
!51 = !{null, !52}
!52 = !DIDerivedType(tag: DW_TAG_pointer_type, baseType: !47, size: 64, flags: DIFlagArtificial | DIFlagObjectPointer)
!53 = !{!54, !55, !56, !57, !58, !59, !60, !61, !62, !63, !64, !65, !66, !67, !68, !69, !70, !71, !72, !73, !74, !75, !76, !77, !78, !79, !80, !81, !82, !83, !84, !85, !86, !87, !88, !89, !90, !91, !92, !93, !94, !95, !96, !97, !98, !99, !100, !101, !102, !103, !104, !105, !106, !107, !108, !109, !110, !111, !112, !113, !114, !115, !116, !117, !118, !119, !120, !121, !122, !123, !124, !125, !126, !127, !128, !129, !130, !131, !132, !133, !134, !135, !136, !137, !138, !139, !140, !141, !142, !143, !144, !145, !146, !147, !148, !149, !150, !151, !152, !153, !154, !155, !156, !157, !158, !159, !160, !161, !162, !163, !164, !165, !166, !167, !168, !169, !170, !171, !172, !173, !174, !175, !176, !177, !178, !179, !180, !181, !182, !183, !184, !185, !186, !187, !188, !189, !190, !191, !192, !193, !194, !195, !196, !197, !198, !199, !200, !201, !202, !203, !204, !205, !206, !207, !208, !209, !210, !211, !212, !213, !214, !215, !216, !217, !218, !219, !220, !221, !222, !223, !224, !225, !226, !227, !228, !229, !230, !231, !232, !233, !234, !235, !236, !237, !238, !239, !240, !241, !242, !243, !244, !245, !246, !247, !248, !249, !250, !251, !252, !253, !254, !255, !256, !257, !258, !259, !260, !261, !262, !263, !264, !265, !266, !267, !268, !269, !270, !271, !272, !273, !274, !275, !276, !277, !278, !279, !280, !281, !282, !283, !284, !285, !286, !287, !288, !289, !290, !291, !292, !293, !294, !295, !296, !297, !298, !299, !300, !301, !302, !303, !304, !305, !306, !307, !308, !309, !310, !311, !312, !313, !314, !315, !316, !317, !318, !319, !320, !321, !322, !323, !324, !325, !326, !327, !328, !329, !330, !331, !332, !333, !334, !335, !336, !337, !338, !339, !340, !341, !342, !343, !344, !345, !346, !347, !348, !349, !350, !351, !352, !353, !354, !355, !356, !357, !358, !359, !360, !361, !362, !363, !364, !365, !366, !367, !368, !369, !370, !371, !372, !373, !374, !375, !376, !377, !378, !379, !380, !381, !382, !383, !384, !385, !386, !387, !388, !389, !390, !391, !392, !393, !394, !395, !396, !397, !398, !399, !400, !401, !402, !403, !404, !405, !406, !407, !408, !409, !410, !411, !412, !413, !414, !415, !416, !417, !418, !419, !420, !421, !422, !423, !424, !425, !426, !427, !428, !429, !430, !431, !432, !433, !434, !435, !436, !437, !438, !439, !440, !441, !442, !443, !444, !445, !446, !447, !448, !449, !450, !451, !452, !453, !454, !455, !456, !457}
!54 = !DIEnumerator(name: "NoError", value: 0, isUnsigned: true)
!55 = !DIEnumerator(name: "W_LowBounds", value: 1, isUnsigned: true)
!56 = !DIEnumerator(name: "Scan_CouldNotOpenSource_Warning", value: 2, isUnsigned: true)
!57 = !DIEnumerator(name: "GC_ExistingGrammar", value: 3, isUnsigned: true)
!58 = !DIEnumerator(name: "W_HighBounds", value: 4, isUnsigned: true)
!59 = !DIEnumerator(name: "F_LowBounds", value: 5, isUnsigned: true)
!60 = !DIEnumerator(name: "Array_BadIndex", value: 6, isUnsigned: true)
!61 = !DIEnumerator(name: "Array_BadNewSize", value: 7, isUnsigned: true)
!62 = !DIEnumerator(name: "AttrList_BadIndex", value: 8, isUnsigned: true)
!63 = !DIEnumerator(name: "AttDef_BadAttType", value: 9, isUnsigned: true)
!64 = !DIEnumerator(name: "AttDef_BadDefAttType", value: 10, isUnsigned: true)
!65 = !DIEnumerator(name: "Bitset_BadIndex", value: 11, isUnsigned: true)
!66 = !DIEnumerator(name: "Bitset_NotEqualSize", value: 12, isUnsigned: true)
!67 = !DIEnumerator(name: "BufMgr_NoMoreBuffers", value: 13, isUnsigned: true)
!68 = !DIEnumerator(name: "BufMgr_BufferNotInPool", value: 14, isUnsigned: true)
!69 = !DIEnumerator(name: "CPtr_PointerIsZero", value: 15, isUnsigned: true)
!70 = !DIEnumerator(name: "CM_BinOpHadUnaryType", value: 16, isUnsigned: true)
!71 = !DIEnumerator(name: "CM_MustBeMixedOrChildren", value: 17, isUnsigned: true)
!72 = !DIEnumerator(name: "CM_NoPCDATAHere", value: 18, isUnsigned: true)
!73 = !DIEnumerator(name: "CM_NotValidForSpecType", value: 19, isUnsigned: true)
!74 = !DIEnumerator(name: "CM_UnaryOpHadBinType", value: 20, isUnsigned: true)
!75 = !DIEnumerator(name: "CM_UnknownCMType", value: 21, isUnsigned: true)
!76 = !DIEnumerator(name: "CM_UnknownCMSpecType", value: 22, isUnsigned: true)
!77 = !DIEnumerator(name: "CM_NoParentCSN", value: 23, isUnsigned: true)
!78 = !DIEnumerator(name: "CM_NotValidSpecTypeForNode", value: 24, isUnsigned: true)
!79 = !DIEnumerator(name: "DTD_UnknownCreateReason", value: 25, isUnsigned: true)
!80 = !DIEnumerator(name: "ElemStack_EmptyStack", value: 26, isUnsigned: true)
!81 = !DIEnumerator(name: "ElemStack_BadIndex", value: 27, isUnsigned: true)
!82 = !DIEnumerator(name: "ElemStack_StackUnderflow", value: 28, isUnsigned: true)
!83 = !DIEnumerator(name: "ElemStack_NoParentPushed", value: 29, isUnsigned: true)
!84 = !DIEnumerator(name: "Enum_NoMoreElements", value: 30, isUnsigned: true)
!85 = !DIEnumerator(name: "File_CouldNotOpenFile", value: 31, isUnsigned: true)
!86 = !DIEnumerator(name: "File_CouldNotGetCurPos", value: 32, isUnsigned: true)
!87 = !DIEnumerator(name: "File_CouldNotCloseFile", value: 33, isUnsigned: true)
!88 = !DIEnumerator(name: "File_CouldNotSeekToEnd", value: 34, isUnsigned: true)
!89 = !DIEnumerator(name: "File_CouldNotSeekToPos", value: 35, isUnsigned: true)
!90 = !DIEnumerator(name: "File_CouldNotDupHandle", value: 36, isUnsigned: true)
!91 = !DIEnumerator(name: "File_CouldNotReadFromFile", value: 37, isUnsigned: true)
!92 = !DIEnumerator(name: "File_CouldNotWriteToFile", value: 38, isUnsigned: true)
!93 = !DIEnumerator(name: "File_CouldNotResetFile", value: 39, isUnsigned: true)
!94 = !DIEnumerator(name: "File_CouldNotGetSize", value: 40, isUnsigned: true)
!95 = !DIEnumerator(name: "File_CouldNotGetBasePathName", value: 41, isUnsigned: true)
!96 = !DIEnumerator(name: "File_BasePathUnderflow", value: 42, isUnsigned: true)
!97 = !DIEnumerator(name: "Gen_ParseInProgress", value: 43, isUnsigned: true)
!98 = !DIEnumerator(name: "Gen_NoDTDValidator", value: 44, isUnsigned: true)
!99 = !DIEnumerator(name: "Gen_CouldNotOpenDTD", value: 45, isUnsigned: true)
!100 = !DIEnumerator(name: "Gen_CouldNotOpenExtEntity", value: 46, isUnsigned: true)
!101 = !DIEnumerator(name: "Gen_UnexpectedEOF", value: 47, isUnsigned: true)
!102 = !DIEnumerator(name: "HshTbl_ZeroModulus", value: 48, isUnsigned: true)
!103 = !DIEnumerator(name: "HshTbl_BadHashFromKey", value: 49, isUnsigned: true)
!104 = !DIEnumerator(name: "HshTbl_NoSuchKeyExists", value: 50, isUnsigned: true)
!105 = !DIEnumerator(name: "Mutex_CouldNotCreate", value: 51, isUnsigned: true)
!106 = !DIEnumerator(name: "Mutex_CouldNotClose", value: 52, isUnsigned: true)
!107 = !DIEnumerator(name: "Mutex_CouldNotLock", value: 53, isUnsigned: true)
!108 = !DIEnumerator(name: "Mutex_CouldNotUnlock", value: 54, isUnsigned: true)
!109 = !DIEnumerator(name: "Mutex_CouldNotDestroy", value: 55, isUnsigned: true)
!110 = !DIEnumerator(name: "NetAcc_InternalError", value: 56, isUnsigned: true)
!111 = !DIEnumerator(name: "NetAcc_LengthError", value: 57, isUnsigned: true)
!112 = !DIEnumerator(name: "NetAcc_InitFailed", value: 58, isUnsigned: true)
!113 = !DIEnumerator(name: "NetAcc_TargetResolution", value: 59, isUnsigned: true)
!114 = !DIEnumerator(name: "NetAcc_CreateSocket", value: 60, isUnsigned: true)
!115 = !DIEnumerator(name: "NetAcc_ConnSocket", value: 61, isUnsigned: true)
!116 = !DIEnumerator(name: "NetAcc_WriteSocket", value: 62, isUnsigned: true)
!117 = !DIEnumerator(name: "NetAcc_ReadSocket", value: 63, isUnsigned: true)
!118 = !DIEnumerator(name: "NetAcc_UnsupportedMethod", value: 64, isUnsigned: true)
!119 = !DIEnumerator(name: "Pool_ElemAlreadyExists", value: 65, isUnsigned: true)
!120 = !DIEnumerator(name: "Pool_BadHashFromKey", value: 66, isUnsigned: true)
!121 = !DIEnumerator(name: "Pool_InvalidId", value: 67, isUnsigned: true)
!122 = !DIEnumerator(name: "Pool_ZeroModulus", value: 68, isUnsigned: true)
!123 = !DIEnumerator(name: "RdrMgr_ReaderIdNotFound", value: 69, isUnsigned: true)
!124 = !DIEnumerator(name: "Reader_BadAutoEncoding", value: 70, isUnsigned: true)
!125 = !DIEnumerator(name: "Reader_CouldNotDecodeFirstLine", value: 71, isUnsigned: true)
!126 = !DIEnumerator(name: "Reader_NelLsepinDecl", value: 72, isUnsigned: true)
!127 = !DIEnumerator(name: "Reader_EOIInMultiSeq", value: 73, isUnsigned: true)
!128 = !DIEnumerator(name: "Reader_SrcOfsNotSupported", value: 74, isUnsigned: true)
!129 = !DIEnumerator(name: "Reader_EncodingStrRequired", value: 75, isUnsigned: true)
!130 = !DIEnumerator(name: "Scan_CouldNotOpenSource", value: 76, isUnsigned: true)
!131 = !DIEnumerator(name: "Scan_UnbalancedStartEnd", value: 77, isUnsigned: true)
!132 = !DIEnumerator(name: "Scan_BadPScanToken", value: 78, isUnsigned: true)
!133 = !DIEnumerator(name: "Stack_BadIndex", value: 79, isUnsigned: true)
!134 = !DIEnumerator(name: "Stack_EmptyStack", value: 80, isUnsigned: true)
!135 = !DIEnumerator(name: "Str_ZeroSizedTargetBuf", value: 81, isUnsigned: true)
!136 = !DIEnumerator(name: "Str_UnknownRadix", value: 82, isUnsigned: true)
!137 = !DIEnumerator(name: "Str_TargetBufTooSmall", value: 83, isUnsigned: true)
!138 = !DIEnumerator(name: "Str_StartIndexPastEnd", value: 84, isUnsigned: true)
!139 = !DIEnumerator(name: "Str_ConvertOverflow", value: 85, isUnsigned: true)
!140 = !DIEnumerator(name: "Strm_StdErrWriteFailure", value: 86, isUnsigned: true)
!141 = !DIEnumerator(name: "Strm_StdOutWriteFailure", value: 87, isUnsigned: true)
!142 = !DIEnumerator(name: "Strm_ConWriteFailure", value: 88, isUnsigned: true)
!143 = !DIEnumerator(name: "StrPool_IllegalId", value: 89, isUnsigned: true)
!144 = !DIEnumerator(name: "Trans_CouldNotCreateDefCvtr", value: 90, isUnsigned: true)
!145 = !DIEnumerator(name: "Trans_InvalidSizeReq", value: 91, isUnsigned: true)
!146 = !DIEnumerator(name: "Trans_Unrepresentable", value: 92, isUnsigned: true)
!147 = !DIEnumerator(name: "Trans_NotValidForEncoding", value: 93, isUnsigned: true)
!148 = !DIEnumerator(name: "Trans_BadBlockSize", value: 94, isUnsigned: true)
!149 = !DIEnumerator(name: "Trans_BadSrcSeq", value: 95, isUnsigned: true)
!150 = !DIEnumerator(name: "Trans_BadSrcCP", value: 96, isUnsigned: true)
!151 = !DIEnumerator(name: "Trans_BadTrailingSurrogate", value: 97, isUnsigned: true)
!152 = !DIEnumerator(name: "Trans_CantCreateCvtrFor", value: 98, isUnsigned: true)
!153 = !DIEnumerator(name: "URL_MalformedURL", value: 99, isUnsigned: true)
!154 = !DIEnumerator(name: "URL_UnsupportedProto", value: 100, isUnsigned: true)
!155 = !DIEnumerator(name: "URL_UnsupportedProto1", value: 101, isUnsigned: true)
!156 = !DIEnumerator(name: "URL_OnlyLocalHost", value: 102, isUnsigned: true)
!157 = !DIEnumerator(name: "URL_NoProtocolPresent", value: 103, isUnsigned: true)
!158 = !DIEnumerator(name: "URL_ExpectingTwoSlashes", value: 104, isUnsigned: true)
!159 = !DIEnumerator(name: "URL_IncorrectEscapedCharRef", value: 105, isUnsigned: true)
!160 = !DIEnumerator(name: "URL_UnterminatedHostComponent", value: 106, isUnsigned: true)
!161 = !DIEnumerator(name: "URL_RelativeBaseURL", value: 107, isUnsigned: true)
!162 = !DIEnumerator(name: "URL_BaseUnderflow", value: 108, isUnsigned: true)
!163 = !DIEnumerator(name: "URL_BadPortField", value: 109, isUnsigned: true)
!164 = !DIEnumerator(name: "UTF8_FormatError", value: 110, isUnsigned: true)
!165 = !DIEnumerator(name: "UTF8_Invalid_2BytesSeq", value: 111, isUnsigned: true)
!166 = !DIEnumerator(name: "UTF8_Invalid_3BytesSeq", value: 112, isUnsigned: true)
!167 = !DIEnumerator(name: "UTF8_Irregular_3BytesSeq", value: 113, isUnsigned: true)
!168 = !DIEnumerator(name: "UTF8_Invalid_4BytesSeq", value: 114, isUnsigned: true)
!169 = !DIEnumerator(name: "UTF8_Exceede_BytesLimit", value: 115, isUnsigned: true)
!170 = !DIEnumerator(name: "Vector_BadIndex", value: 116, isUnsigned: true)
!171 = !DIEnumerator(name: "Val_InvalidElemId", value: 117, isUnsigned: true)
!172 = !DIEnumerator(name: "Val_CantHaveIntSS", value: 118, isUnsigned: true)
!173 = !DIEnumerator(name: "XMLRec_UnknownEncoding", value: 119, isUnsigned: true)
!174 = !DIEnumerator(name: "Parser_Parse1", value: 120, isUnsigned: true)
!175 = !DIEnumerator(name: "Parser_Parse2", value: 121, isUnsigned: true)
!176 = !DIEnumerator(name: "Parser_Next1", value: 122, isUnsigned: true)
!177 = !DIEnumerator(name: "Parser_Next2", value: 123, isUnsigned: true)
!178 = !DIEnumerator(name: "Parser_Next3", value: 124, isUnsigned: true)
!179 = !DIEnumerator(name: "Parser_Next4", value: 125, isUnsigned: true)
!180 = !DIEnumerator(name: "Parser_Factor1", value: 126, isUnsigned: true)
!181 = !DIEnumerator(name: "Parser_Factor2", value: 127, isUnsigned: true)
!182 = !DIEnumerator(name: "Parser_Factor3", value: 128, isUnsigned: true)
!183 = !DIEnumerator(name: "Parser_Factor4", value: 129, isUnsigned: true)
!184 = !DIEnumerator(name: "Parser_Factor5", value: 130, isUnsigned: true)
!185 = !DIEnumerator(name: "Parser_Factor6", value: 131, isUnsigned: true)
!186 = !DIEnumerator(name: "Parser_Atom1", value: 132, isUnsigned: true)
!187 = !DIEnumerator(name: "Parser_Atom2", value: 133, isUnsigned: true)
!188 = !DIEnumerator(name: "Parser_Atom3", value: 134, isUnsigned: true)
!189 = !DIEnumerator(name: "Parser_Atom4", value: 135, isUnsigned: true)
!190 = !DIEnumerator(name: "Parser_Atom5", value: 136, isUnsigned: true)
!191 = !DIEnumerator(name: "Parser_CC1", value: 137, isUnsigned: true)
!192 = !DIEnumerator(name: "Parser_CC2", value: 138, isUnsigned: true)
!193 = !DIEnumerator(name: "Parser_CC3", value: 139, isUnsigned: true)
!194 = !DIEnumerator(name: "Parser_CC4", value: 140, isUnsigned: true)
!195 = !DIEnumerator(name: "Parser_CC5", value: 141, isUnsigned: true)
!196 = !DIEnumerator(name: "Parser_CC6", value: 142, isUnsigned: true)
!197 = !DIEnumerator(name: "Parser_Ope1", value: 143, isUnsigned: true)
!198 = !DIEnumerator(name: "Parser_Ope2", value: 144, isUnsigned: true)
!199 = !DIEnumerator(name: "Parser_Ope3", value: 145, isUnsigned: true)
!200 = !DIEnumerator(name: "Parser_Descape1", value: 146, isUnsigned: true)
!201 = !DIEnumerator(name: "Parser_Descape2", value: 147, isUnsigned: true)
!202 = !DIEnumerator(name: "Parser_Descape3", value: 148, isUnsigned: true)
!203 = !DIEnumerator(name: "Parser_Descape4", value: 149, isUnsigned: true)
!204 = !DIEnumerator(name: "Parser_Descape5", value: 150, isUnsigned: true)
!205 = !DIEnumerator(name: "Parser_Process1", value: 151, isUnsigned: true)
!206 = !DIEnumerator(name: "Parser_Process2", value: 152, isUnsigned: true)
!207 = !DIEnumerator(name: "Parser_Quantifier1", value: 153, isUnsigned: true)
!208 = !DIEnumerator(name: "Parser_Quantifier2", value: 154, isUnsigned: true)
!209 = !DIEnumerator(name: "Parser_Quantifier3", value: 155, isUnsigned: true)
!210 = !DIEnumerator(name: "Parser_Quantifier4", value: 156, isUnsigned: true)
!211 = !DIEnumerator(name: "Parser_Quantifier5", value: 157, isUnsigned: true)
!212 = !DIEnumerator(name: "Gen_NoSchemaValidator", value: 158, isUnsigned: true)
!213 = !DIEnumerator(name: "XUTIL_UnCopyableNodeType", value: 159, isUnsigned: true)
!214 = !DIEnumerator(name: "SubGrpComparator_NGR", value: 160, isUnsigned: true)
!215 = !DIEnumerator(name: "FACET_Invalid_Len", value: 161, isUnsigned: true)
!216 = !DIEnumerator(name: "FACET_Invalid_maxLen", value: 162, isUnsigned: true)
!217 = !DIEnumerator(name: "FACET_Invalid_minLen", value: 163, isUnsigned: true)
!218 = !DIEnumerator(name: "FACET_NonNeg_Len", value: 164, isUnsigned: true)
!219 = !DIEnumerator(name: "FACET_NonNeg_maxLen", value: 165, isUnsigned: true)
!220 = !DIEnumerator(name: "FACET_NonNeg_minLen", value: 166, isUnsigned: true)
!221 = !DIEnumerator(name: "FACET_Len_maxLen", value: 167, isUnsigned: true)
!222 = !DIEnumerator(name: "FACET_Len_minLen", value: 168, isUnsigned: true)
!223 = !DIEnumerator(name: "FACET_maxLen_minLen", value: 169, isUnsigned: true)
!224 = !DIEnumerator(name: "FACET_bool_Pattern", value: 170, isUnsigned: true)
!225 = !DIEnumerator(name: "FACET_Invalid_Tag", value: 171, isUnsigned: true)
!226 = !DIEnumerator(name: "FACET_Len_baseLen", value: 172, isUnsigned: true)
!227 = !DIEnumerator(name: "FACET_minLen_baseminLen", value: 173, isUnsigned: true)
!228 = !DIEnumerator(name: "FACET_minLen_basemaxLen", value: 174, isUnsigned: true)
!229 = !DIEnumerator(name: "FACET_maxLen_basemaxLen", value: 175, isUnsigned: true)
!230 = !DIEnumerator(name: "FACET_maxLen_baseminLen", value: 176, isUnsigned: true)
!231 = !DIEnumerator(name: "FACET_Len_baseMinLen", value: 177, isUnsigned: true)
!232 = !DIEnumerator(name: "FACET_Len_baseMaxLen", value: 178, isUnsigned: true)
!233 = !DIEnumerator(name: "FACET_minLen_baseLen", value: 179, isUnsigned: true)
!234 = !DIEnumerator(name: "FACET_maxLen_baseLen", value: 180, isUnsigned: true)
!235 = !DIEnumerator(name: "FACET_enum_base", value: 181, isUnsigned: true)
!236 = !DIEnumerator(name: "FACET_Invalid_WS", value: 182, isUnsigned: true)
!237 = !DIEnumerator(name: "FACET_WS_collapse", value: 183, isUnsigned: true)
!238 = !DIEnumerator(name: "FACET_WS_replace", value: 184, isUnsigned: true)
!239 = !DIEnumerator(name: "FACET_Invalid_MaxIncl", value: 185, isUnsigned: true)
!240 = !DIEnumerator(name: "FACET_Invalid_MaxExcl", value: 186, isUnsigned: true)
!241 = !DIEnumerator(name: "FACET_Invalid_MinIncl", value: 187, isUnsigned: true)
!242 = !DIEnumerator(name: "FACET_Invalid_MinExcl", value: 188, isUnsigned: true)
!243 = !DIEnumerator(name: "FACET_Invalid_TotalDigit", value: 189, isUnsigned: true)
!244 = !DIEnumerator(name: "FACET_Invalid_FractDigit", value: 190, isUnsigned: true)
!245 = !DIEnumerator(name: "FACET_PosInt_TotalDigit", value: 191, isUnsigned: true)
!246 = !DIEnumerator(name: "FACET_NonNeg_FractDigit", value: 192, isUnsigned: true)
!247 = !DIEnumerator(name: "FACET_max_Incl_Excl", value: 193, isUnsigned: true)
!248 = !DIEnumerator(name: "FACET_min_Incl_Excl", value: 194, isUnsigned: true)
!249 = !DIEnumerator(name: "FACET_maxExcl_minExcl", value: 195, isUnsigned: true)
!250 = !DIEnumerator(name: "FACET_maxExcl_minIncl", value: 196, isUnsigned: true)
!251 = !DIEnumerator(name: "FACET_maxIncl_minExcl", value: 197, isUnsigned: true)
!252 = !DIEnumerator(name: "FACET_maxIncl_minIncl", value: 198, isUnsigned: true)
!253 = !DIEnumerator(name: "FACET_TotDigit_FractDigit", value: 199, isUnsigned: true)
!254 = !DIEnumerator(name: "FACET_maxIncl_base_maxExcl", value: 200, isUnsigned: true)
!255 = !DIEnumerator(name: "FACET_maxIncl_base_maxIncl", value: 201, isUnsigned: true)
!256 = !DIEnumerator(name: "FACET_maxIncl_base_minIncl", value: 202, isUnsigned: true)
!257 = !DIEnumerator(name: "FACET_maxIncl_base_minExcl", value: 203, isUnsigned: true)
!258 = !DIEnumerator(name: "FACET_maxExcl_base_maxExcl", value: 204, isUnsigned: true)
!259 = !DIEnumerator(name: "FACET_maxExcl_base_maxIncl", value: 205, isUnsigned: true)
!260 = !DIEnumerator(name: "FACET_maxExcl_base_minIncl", value: 206, isUnsigned: true)
!261 = !DIEnumerator(name: "FACET_maxExcl_base_minExcl", value: 207, isUnsigned: true)
!262 = !DIEnumerator(name: "FACET_minExcl_base_maxExcl", value: 208, isUnsigned: true)
!263 = !DIEnumerator(name: "FACET_minExcl_base_maxIncl", value: 209, isUnsigned: true)
!264 = !DIEnumerator(name: "FACET_minExcl_base_minIncl", value: 210, isUnsigned: true)
!265 = !DIEnumerator(name: "FACET_minExcl_base_minExcl", value: 211, isUnsigned: true)
!266 = !DIEnumerator(name: "FACET_minIncl_base_maxExcl", value: 212, isUnsigned: true)
!267 = !DIEnumerator(name: "FACET_minIncl_base_maxIncl", value: 213, isUnsigned: true)
!268 = !DIEnumerator(name: "FACET_minIncl_base_minIncl", value: 214, isUnsigned: true)
!269 = !DIEnumerator(name: "FACET_minIncl_base_minExcl", value: 215, isUnsigned: true)
!270 = !DIEnumerator(name: "FACET_maxIncl_notFromBase", value: 216, isUnsigned: true)
!271 = !DIEnumerator(name: "FACET_maxExcl_notFromBase", value: 217, isUnsigned: true)
!272 = !DIEnumerator(name: "FACET_minIncl_notFromBase", value: 218, isUnsigned: true)
!273 = !DIEnumerator(name: "FACET_minExcl_notFromBase", value: 219, isUnsigned: true)
!274 = !DIEnumerator(name: "FACET_totalDigit_base_totalDigit", value: 220, isUnsigned: true)
!275 = !DIEnumerator(name: "FACET_fractDigit_base_totalDigit", value: 221, isUnsigned: true)
!276 = !DIEnumerator(name: "FACET_fractDigit_base_fractDigit", value: 222, isUnsigned: true)
!277 = !DIEnumerator(name: "FACET_maxIncl_base_fixed", value: 223, isUnsigned: true)
!278 = !DIEnumerator(name: "FACET_maxExcl_base_fixed", value: 224, isUnsigned: true)
!279 = !DIEnumerator(name: "FACET_minIncl_base_fixed", value: 225, isUnsigned: true)
!280 = !DIEnumerator(name: "FACET_minExcl_base_fixed", value: 226, isUnsigned: true)
!281 = !DIEnumerator(name: "FACET_totalDigit_base_fixed", value: 227, isUnsigned: true)
!282 = !DIEnumerator(name: "FACET_fractDigit_base_fixed", value: 228, isUnsigned: true)
!283 = !DIEnumerator(name: "FACET_maxLen_base_fixed", value: 229, isUnsigned: true)
!284 = !DIEnumerator(name: "FACET_minLen_base_fixed", value: 230, isUnsigned: true)
!285 = !DIEnumerator(name: "FACET_len_base_fixed", value: 231, isUnsigned: true)
!286 = !DIEnumerator(name: "FACET_whitespace_base_fixed", value: 232, isUnsigned: true)
!287 = !DIEnumerator(name: "FACET_internalError_fixed", value: 233, isUnsigned: true)
!288 = !DIEnumerator(name: "FACET_List_Null_baseValidator", value: 234, isUnsigned: true)
!289 = !DIEnumerator(name: "FACET_Union_Null_memberTypeValidators", value: 235, isUnsigned: true)
!290 = !DIEnumerator(name: "FACET_Union_Null_baseValidator", value: 236, isUnsigned: true)
!291 = !DIEnumerator(name: "FACET_Union_invalid_baseValidatorType", value: 237, isUnsigned: true)
!292 = !DIEnumerator(name: "VALUE_NotMatch_Pattern", value: 238, isUnsigned: true)
!293 = !DIEnumerator(name: "VALUE_Not_Base64", value: 239, isUnsigned: true)
!294 = !DIEnumerator(name: "VALUE_Not_HexBin", value: 240, isUnsigned: true)
!295 = !DIEnumerator(name: "VALUE_GT_maxLen", value: 241, isUnsigned: true)
!296 = !DIEnumerator(name: "VALUE_LT_minLen", value: 242, isUnsigned: true)
!297 = !DIEnumerator(name: "VALUE_NE_Len", value: 243, isUnsigned: true)
!298 = !DIEnumerator(name: "VALUE_NotIn_Enumeration", value: 244, isUnsigned: true)
!299 = !DIEnumerator(name: "VALUE_exceed_totalDigit", value: 245, isUnsigned: true)
!300 = !DIEnumerator(name: "VALUE_exceed_fractDigit", value: 246, isUnsigned: true)
!301 = !DIEnumerator(name: "VALUE_exceed_maxIncl", value: 247, isUnsigned: true)
!302 = !DIEnumerator(name: "VALUE_exceed_maxExcl", value: 248, isUnsigned: true)
!303 = !DIEnumerator(name: "VALUE_exceed_minIncl", value: 249, isUnsigned: true)
!304 = !DIEnumerator(name: "VALUE_exceed_minExcl", value: 250, isUnsigned: true)
!305 = !DIEnumerator(name: "VALUE_WS_replaced", value: 251, isUnsigned: true)
!306 = !DIEnumerator(name: "VALUE_WS_collapsed", value: 252, isUnsigned: true)
!307 = !DIEnumerator(name: "VALUE_Invalid_NCName", value: 253, isUnsigned: true)
!308 = !DIEnumerator(name: "VALUE_Invalid_Name", value: 254, isUnsigned: true)
!309 = !DIEnumerator(name: "VALUE_ID_Not_Unique", value: 255, isUnsigned: true)
!310 = !DIEnumerator(name: "VALUE_ENTITY_Invalid", value: 256, isUnsigned: true)
!311 = !DIEnumerator(name: "VALUE_QName_Invalid", value: 257, isUnsigned: true)
!312 = !DIEnumerator(name: "VALUE_NOTATION_Invalid", value: 258, isUnsigned: true)
!313 = !DIEnumerator(name: "VALUE_no_match_memberType", value: 259, isUnsigned: true)
!314 = !DIEnumerator(name: "VALUE_URI_Malformed", value: 260, isUnsigned: true)
!315 = !DIEnumerator(name: "XMLNUM_emptyString", value: 261, isUnsigned: true)
!316 = !DIEnumerator(name: "XMLNUM_WSString", value: 262, isUnsigned: true)
!317 = !DIEnumerator(name: "XMLNUM_2ManyDecPoint", value: 263, isUnsigned: true)
!318 = !DIEnumerator(name: "XMLNUM_Inv_chars", value: 264, isUnsigned: true)
!319 = !DIEnumerator(name: "XMLNUM_null_ptr", value: 265, isUnsigned: true)
!320 = !DIEnumerator(name: "XMLNUM_URI_Component_Empty", value: 266, isUnsigned: true)
!321 = !DIEnumerator(name: "XMLNUM_URI_Component_for_GenURI_Only", value: 267, isUnsigned: true)
!322 = !DIEnumerator(name: "XMLNUM_URI_Component_Invalid_EscapeSequence", value: 268, isUnsigned: true)
!323 = !DIEnumerator(name: "XMLNUM_URI_Component_Invalid_Char", value: 269, isUnsigned: true)
!324 = !DIEnumerator(name: "XMLNUM_URI_Component_Set_Null", value: 270, isUnsigned: true)
!325 = !DIEnumerator(name: "XMLNUM_URI_Component_Not_Conformant", value: 271, isUnsigned: true)
!326 = !DIEnumerator(name: "XMLNUM_URI_No_Scheme", value: 272, isUnsigned: true)
!327 = !DIEnumerator(name: "XMLNUM_URI_NullHost", value: 273, isUnsigned: true)
!328 = !DIEnumerator(name: "XMLNUM_URI_NullPath", value: 274, isUnsigned: true)
!329 = !DIEnumerator(name: "XMLNUM_URI_Component_inPath", value: 275, isUnsigned: true)
!330 = !DIEnumerator(name: "XMLNUM_URI_PortNo_Invalid", value: 276, isUnsigned: true)
!331 = !DIEnumerator(name: "XMLNUM_DBL_FLT_maxNeg", value: 277, isUnsigned: true)
!332 = !DIEnumerator(name: "XMLNUM_DBL_FLT_maxPos", value: 278, isUnsigned: true)
!333 = !DIEnumerator(name: "XMLNUM_DBL_FLT_minNegPos", value: 279, isUnsigned: true)
!334 = !DIEnumerator(name: "XMLNUM_DBL_FLT_InvalidType", value: 280, isUnsigned: true)
!335 = !DIEnumerator(name: "XMLNUM_DBL_FLT_No_Exponent", value: 281, isUnsigned: true)
!336 = !DIEnumerator(name: "Regex_Result_Not_Set", value: 282, isUnsigned: true)
!337 = !DIEnumerator(name: "Regex_CompactRangesError", value: 283, isUnsigned: true)
!338 = !DIEnumerator(name: "Regex_MergeRangesTypeMismatch", value: 284, isUnsigned: true)
!339 = !DIEnumerator(name: "Regex_SubtractRangesError", value: 285, isUnsigned: true)
!340 = !DIEnumerator(name: "Regex_IntersectRangesError", value: 286, isUnsigned: true)
!341 = !DIEnumerator(name: "Regex_ComplementRangesInvalidArg", value: 287, isUnsigned: true)
!342 = !DIEnumerator(name: "Regex_InvalidCategoryName", value: 288, isUnsigned: true)
!343 = !DIEnumerator(name: "Regex_KeywordNotFound", value: 289, isUnsigned: true)
!344 = !DIEnumerator(name: "Regex_BadRefNo", value: 290, isUnsigned: true)
!345 = !DIEnumerator(name: "Regex_UnknownOption", value: 291, isUnsigned: true)
!346 = !DIEnumerator(name: "Regex_UnknownTokenType", value: 292, isUnsigned: true)
!347 = !DIEnumerator(name: "Regex_RangeTokenGetError", value: 293, isUnsigned: true)
!348 = !DIEnumerator(name: "Regex_NotSupported", value: 294, isUnsigned: true)
!349 = !DIEnumerator(name: "Regex_InvalidChildIndex", value: 295, isUnsigned: true)
!350 = !DIEnumerator(name: "Regex_RepPatMatchesZeroString", value: 296, isUnsigned: true)
!351 = !DIEnumerator(name: "Regex_InvalidRepPattern", value: 297, isUnsigned: true)
!352 = !DIEnumerator(name: "NEL_RepeatedCalls", value: 298, isUnsigned: true)
!353 = !DIEnumerator(name: "RethrowError", value: 299, isUnsigned: true)
!354 = !DIEnumerator(name: "Out_Of_Memory", value: 300, isUnsigned: true)
!355 = !DIEnumerator(name: "DV_InvalidOperation", value: 301, isUnsigned: true)
!356 = !DIEnumerator(name: "XPath_NoAttrSelector", value: 302, isUnsigned: true)
!357 = !DIEnumerator(name: "XPath_NoUnionAtStart", value: 303, isUnsigned: true)
!358 = !DIEnumerator(name: "XPath_NoMultipleUnion", value: 304, isUnsigned: true)
!359 = !DIEnumerator(name: "XPath_MissingAttr", value: 305, isUnsigned: true)
!360 = !DIEnumerator(name: "XPath_ExpectedToken1", value: 306, isUnsigned: true)
!361 = !DIEnumerator(name: "XPath_PrefixNoURI", value: 307, isUnsigned: true)
!362 = !DIEnumerator(name: "XPath_NoDoubleColon", value: 308, isUnsigned: true)
!363 = !DIEnumerator(name: "XPath_ExpectedStep1", value: 309, isUnsigned: true)
!364 = !DIEnumerator(name: "XPath_ExpectedStep2", value: 310, isUnsigned: true)
!365 = !DIEnumerator(name: "XPath_ExpectedStep3", value: 311, isUnsigned: true)
!366 = !DIEnumerator(name: "XPath_NoForwardSlash", value: 312, isUnsigned: true)
!367 = !DIEnumerator(name: "XPath_NoDoubleForwardSlash", value: 313, isUnsigned: true)
!368 = !DIEnumerator(name: "XPath_NoForwardSlashAtStart", value: 314, isUnsigned: true)
!369 = !DIEnumerator(name: "XPath_NoSelectionOfRoot", value: 315, isUnsigned: true)
!370 = !DIEnumerator(name: "XPath_EmptyExpr", value: 316, isUnsigned: true)
!371 = !DIEnumerator(name: "XPath_NoUnionAtEnd", value: 317, isUnsigned: true)
!372 = !DIEnumerator(name: "XPath_InvalidChar", value: 318, isUnsigned: true)
!373 = !DIEnumerator(name: "XPath_TokenNotSupported", value: 319, isUnsigned: true)
!374 = !DIEnumerator(name: "XPath_FindSolution", value: 320, isUnsigned: true)
!375 = !DIEnumerator(name: "DateTime_Assert_Buffer_Fail", value: 321, isUnsigned: true)
!376 = !DIEnumerator(name: "DateTime_dt_missingT", value: 322, isUnsigned: true)
!377 = !DIEnumerator(name: "DateTime_gDay_invalid", value: 323, isUnsigned: true)
!378 = !DIEnumerator(name: "DateTime_gMth_invalid", value: 324, isUnsigned: true)
!379 = !DIEnumerator(name: "DateTime_gMthDay_invalid", value: 325, isUnsigned: true)
!380 = !DIEnumerator(name: "DateTime_dur_Start_dashP", value: 326, isUnsigned: true)
!381 = !DIEnumerator(name: "DateTime_dur_noP", value: 327, isUnsigned: true)
!382 = !DIEnumerator(name: "DateTime_dur_DashNotFirst", value: 328, isUnsigned: true)
!383 = !DIEnumerator(name: "DateTime_dur_inv_b4T", value: 329, isUnsigned: true)
!384 = !DIEnumerator(name: "DateTime_dur_NoTimeAfterT", value: 330, isUnsigned: true)
!385 = !DIEnumerator(name: "DateTime_dur_NoElementAtAll", value: 331, isUnsigned: true)
!386 = !DIEnumerator(name: "DateTime_dur_inv_seconds", value: 332, isUnsigned: true)
!387 = !DIEnumerator(name: "DateTime_date_incomplete", value: 333, isUnsigned: true)
!388 = !DIEnumerator(name: "DateTime_date_invalid", value: 334, isUnsigned: true)
!389 = !DIEnumerator(name: "DateTime_time_incomplete", value: 335, isUnsigned: true)
!390 = !DIEnumerator(name: "DateTime_time_invalid", value: 336, isUnsigned: true)
!391 = !DIEnumerator(name: "DateTime_ms_noDigit", value: 337, isUnsigned: true)
!392 = !DIEnumerator(name: "DateTime_ym_incomplete", value: 338, isUnsigned: true)
!393 = !DIEnumerator(name: "DateTime_ym_invalid", value: 339, isUnsigned: true)
!394 = !DIEnumerator(name: "DateTime_year_tooShort", value: 340, isUnsigned: true)
!395 = !DIEnumerator(name: "DateTime_year_leadingZero", value: 341, isUnsigned: true)
!396 = !DIEnumerator(name: "DateTime_ym_noMonth", value: 342, isUnsigned: true)
!397 = !DIEnumerator(name: "DateTime_tz_noUTCsign", value: 343, isUnsigned: true)
!398 = !DIEnumerator(name: "DateTime_tz_stuffAfterZ", value: 344, isUnsigned: true)
!399 = !DIEnumerator(name: "DateTime_tz_invalid", value: 345, isUnsigned: true)
!400 = !DIEnumerator(name: "DateTime_year_zero", value: 346, isUnsigned: true)
!401 = !DIEnumerator(name: "DateTime_mth_invalid", value: 347, isUnsigned: true)
!402 = !DIEnumerator(name: "DateTime_day_invalid", value: 348, isUnsigned: true)
!403 = !DIEnumerator(name: "DateTime_hour_invalid", value: 349, isUnsigned: true)
!404 = !DIEnumerator(name: "DateTime_min_invalid", value: 350, isUnsigned: true)
!405 = !DIEnumerator(name: "DateTime_second_invalid", value: 351, isUnsigned: true)
!406 = !DIEnumerator(name: "DateTime_tz_hh_invalid", value: 352, isUnsigned: true)
!407 = !DIEnumerator(name: "PD_EmptyBase", value: 353, isUnsigned: true)
!408 = !DIEnumerator(name: "PD_NSCompat1", value: 354, isUnsigned: true)
!409 = !DIEnumerator(name: "PD_OccurRangeE", value: 355, isUnsigned: true)
!410 = !DIEnumerator(name: "PD_NameTypeOK1", value: 356, isUnsigned: true)
!411 = !DIEnumerator(name: "PD_NameTypeOK2", value: 357, isUnsigned: true)
!412 = !DIEnumerator(name: "PD_NameTypeOK3", value: 358, isUnsigned: true)
!413 = !DIEnumerator(name: "PD_NameTypeOK4", value: 359, isUnsigned: true)
!414 = !DIEnumerator(name: "PD_NameTypeOK5", value: 360, isUnsigned: true)
!415 = !DIEnumerator(name: "PD_NameTypeOK6", value: 361, isUnsigned: true)
!416 = !DIEnumerator(name: "PD_NameTypeOK7", value: 362, isUnsigned: true)
!417 = !DIEnumerator(name: "PD_RecurseAsIfGroup", value: 363, isUnsigned: true)
!418 = !DIEnumerator(name: "PD_Recurse1", value: 364, isUnsigned: true)
!419 = !DIEnumerator(name: "PD_Recurse2", value: 365, isUnsigned: true)
!420 = !DIEnumerator(name: "PD_ForbiddenRes1", value: 366, isUnsigned: true)
!421 = !DIEnumerator(name: "PD_ForbiddenRes2", value: 367, isUnsigned: true)
!422 = !DIEnumerator(name: "PD_ForbiddenRes3", value: 368, isUnsigned: true)
!423 = !DIEnumerator(name: "PD_ForbiddenRes4", value: 369, isUnsigned: true)
!424 = !DIEnumerator(name: "PD_NSSubset1", value: 370, isUnsigned: true)
!425 = !DIEnumerator(name: "PD_NSSubset2", value: 371, isUnsigned: true)
!426 = !DIEnumerator(name: "PD_NSRecurseCheckCardinality1", value: 372, isUnsigned: true)
!427 = !DIEnumerator(name: "PD_RecurseUnordered", value: 373, isUnsigned: true)
!428 = !DIEnumerator(name: "PD_MapAndSum", value: 374, isUnsigned: true)
!429 = !DIEnumerator(name: "PD_InvalidContentType", value: 375, isUnsigned: true)
!430 = !DIEnumerator(name: "NodeIDMap_GrowErr", value: 376, isUnsigned: true)
!431 = !DIEnumerator(name: "XSer_ProtoType_Null_ClassName", value: 377, isUnsigned: true)
!432 = !DIEnumerator(name: "XSer_ProtoType_NameLen_Dif", value: 378, isUnsigned: true)
!433 = !DIEnumerator(name: "XSer_ProtoType_Name_Dif", value: 379, isUnsigned: true)
!434 = !DIEnumerator(name: "XSer_InStream_Read_LT_Req", value: 380, isUnsigned: true)
!435 = !DIEnumerator(name: "XSer_InStream_Read_OverFlow", value: 381, isUnsigned: true)
!436 = !DIEnumerator(name: "XSer_Storing_Violation", value: 382, isUnsigned: true)
!437 = !DIEnumerator(name: "XSer_StoreBuffer_Violation", value: 383, isUnsigned: true)
!438 = !DIEnumerator(name: "XSer_LoadPool_UppBnd_Exceed", value: 384, isUnsigned: true)
!439 = !DIEnumerator(name: "XSer_LoadPool_NoTally_ObjCnt", value: 385, isUnsigned: true)
!440 = !DIEnumerator(name: "XSer_Loading_Violation", value: 386, isUnsigned: true)
!441 = !DIEnumerator(name: "XSer_LoadBuffer_Violation", value: 387, isUnsigned: true)
!442 = !DIEnumerator(name: "XSer_Inv_ClassIndex", value: 388, isUnsigned: true)
!443 = !DIEnumerator(name: "XSer_Inv_FillBuffer_Size", value: 389, isUnsigned: true)
!444 = !DIEnumerator(name: "XSer_Inv_checkFillBuffer_Size", value: 390, isUnsigned: true)
!445 = !DIEnumerator(name: "XSer_Inv_checkFlushBuffer_Size", value: 391, isUnsigned: true)
!446 = !DIEnumerator(name: "XSer_Inv_Null_Pointer", value: 392, isUnsigned: true)
!447 = !DIEnumerator(name: "XSer_Inv_Buffer_Len", value: 393, isUnsigned: true)
!448 = !DIEnumerator(name: "XSer_CreateObject_Fail", value: 394, isUnsigned: true)
!449 = !DIEnumerator(name: "XSer_ObjCount_UppBnd_Exceed", value: 395, isUnsigned: true)
!450 = !DIEnumerator(name: "XSer_GrammarPool_Locked", value: 396, isUnsigned: true)
!451 = !DIEnumerator(name: "XSer_GrammarPool_Empty", value: 397, isUnsigned: true)
!452 = !DIEnumerator(name: "XSer_GrammarPool_NotEmpty", value: 398, isUnsigned: true)
!453 = !DIEnumerator(name: "XSer_StringPool_NotEmpty", value: 399, isUnsigned: true)
!454 = !DIEnumerator(name: "XSer_Storer_NewerThan_Loader", value: 400, isUnsigned: true)
!455 = !DIEnumerator(name: "F_HighBounds", value: 401, isUnsigned: true)
!456 = !DIEnumerator(name: "E_LowBounds", value: 402, isUnsigned: true)
!457 = !DIEnumerator(name: "E_HighBounds", value: 403, isUnsigned: true)
!458 = !{!459}
!459 = !DIDerivedType(tag: DW_TAG_pointer_type, baseType: !460, size: 64)
!460 = !DIDerivedType(tag: DW_TAG_pointer_type, baseType: !461, size: 64)
!461 = !DICompositeType(tag: DW_TAG_class_type, name: "XSAnnotation", scope: !6, file: !462, line: 40, flags: DIFlagFwdDecl)
!462 = !DIFile(filename: "./xercesc/framework/psvi/XSAnnotation.hpp", directory: "/home/venkat/IF-DV/spec_build_release/CPU_2017/benchspec/CPU/523.xalancbmk_r/build/build_base_ld-loop-ext-m64.0000")
!463 = !{!464, !466, !474, !478, !485, !489, !494, !496, !504, !508, !512, !526, !530, !534, !538, !542, !547, !551, !555, !559, !563, !571, !575, !579, !581, !585, !589, !593, !599, !603, !607, !609, !617, !621, !629, !631, !635, !639, !643, !647, !652, !657, !662, !663, !664, !665, !667, !668, !669, !670, !671, !672, !673, !675, !676, !677, !678, !679, !680, !681, !686, !687, !688, !689, !690, !691, !692, !693, !694, !695, !696, !697, !698, !699, !700, !701, !702, !703, !704, !705, !706, !707, !708, !709, !710, !716, !720, !726, !730, !734, !738, !742, !744, !746, !750, !754, !758, !762, !766, !768, !770, !772, !776, !780, !784, !786, !788, !790, !792, !848}
!464 = !DIImportedEntity(tag: DW_TAG_imported_declaration, name: "xercesc", scope: !0, entity: !6, file: !465, line: 433)
!465 = !DIFile(filename: "./xercesc/util/XercesDefs.hpp", directory: "/home/venkat/IF-DV/spec_build_release/CPU_2017/benchspec/CPU/523.xalancbmk_r/build/build_base_ld-loop-ext-m64.0000")
!466 = !DIImportedEntity(tag: DW_TAG_imported_declaration, scope: !467, entity: !468, file: !473, line: 52)
!467 = !DINamespace(name: "std", scope: null)
!468 = !DISubprogram(name: "abs", scope: !469, file: !469, line: 840, type: !470, flags: DIFlagPrototyped, spFlags: 0)
!469 = !DIFile(filename: "/usr/include/stdlib.h", directory: "")
!470 = !DISubroutineType(types: !471)
!471 = !{!472, !472}
!472 = !DIBasicType(name: "int", size: 32, encoding: DW_ATE_signed)
!473 = !DIFile(filename: "/usr/lib/gcc/x86_64-linux-gnu/10/../../../../include/c++/10/bits/std_abs.h", directory: "")
!474 = !DIImportedEntity(tag: DW_TAG_imported_declaration, scope: !467, entity: !475, file: !477, line: 127)
!475 = !DIDerivedType(tag: DW_TAG_typedef, name: "div_t", file: !469, line: 62, baseType: !476)
!476 = !DICompositeType(tag: DW_TAG_structure_type, file: !469, line: 58, flags: DIFlagFwdDecl, identifier: "_ZTS5div_t")
!477 = !DIFile(filename: "/usr/lib/gcc/x86_64-linux-gnu/10/../../../../include/c++/10/cstdlib", directory: "")
!478 = !DIImportedEntity(tag: DW_TAG_imported_declaration, scope: !467, entity: !479, file: !477, line: 128)
!479 = !DIDerivedType(tag: DW_TAG_typedef, name: "ldiv_t", file: !469, line: 70, baseType: !480)
!480 = distinct !DICompositeType(tag: DW_TAG_structure_type, file: !469, line: 66, size: 128, flags: DIFlagTypePassByValue, elements: !481, identifier: "_ZTS6ldiv_t")
!481 = !{!482, !484}
!482 = !DIDerivedType(tag: DW_TAG_member, name: "quot", scope: !480, file: !469, line: 68, baseType: !483, size: 64)
!483 = !DIBasicType(name: "long int", size: 64, encoding: DW_ATE_signed)
!484 = !DIDerivedType(tag: DW_TAG_member, name: "rem", scope: !480, file: !469, line: 69, baseType: !483, size: 64, offset: 64)
!485 = !DIImportedEntity(tag: DW_TAG_imported_declaration, scope: !467, entity: !486, file: !477, line: 130)
!486 = !DISubprogram(name: "abort", scope: !469, file: !469, line: 591, type: !487, flags: DIFlagPrototyped | DIFlagNoReturn, spFlags: 0)
!487 = !DISubroutineType(types: !488)
!488 = !{null}
!489 = !DIImportedEntity(tag: DW_TAG_imported_declaration, scope: !467, entity: !490, file: !477, line: 134)
!490 = !DISubprogram(name: "atexit", scope: !469, file: !469, line: 595, type: !491, flags: DIFlagPrototyped, spFlags: 0)
!491 = !DISubroutineType(types: !492)
!492 = !{!472, !493}
!493 = !DIDerivedType(tag: DW_TAG_pointer_type, baseType: !487, size: 64)
!494 = !DIImportedEntity(tag: DW_TAG_imported_declaration, scope: !467, entity: !495, file: !477, line: 137)
!495 = !DISubprogram(name: "at_quick_exit", scope: !469, file: !469, line: 600, type: !491, flags: DIFlagPrototyped, spFlags: 0)
!496 = !DIImportedEntity(tag: DW_TAG_imported_declaration, scope: !467, entity: !497, file: !477, line: 140)
!497 = !DISubprogram(name: "atof", scope: !469, file: !469, line: 101, type: !498, flags: DIFlagPrototyped, spFlags: 0)
!498 = !DISubroutineType(types: !499)
!499 = !{!500, !501}
!500 = !DIBasicType(name: "double", size: 64, encoding: DW_ATE_float)
!501 = !DIDerivedType(tag: DW_TAG_pointer_type, baseType: !502, size: 64)
!502 = !DIDerivedType(tag: DW_TAG_const_type, baseType: !503)
!503 = !DIBasicType(name: "char", size: 8, encoding: DW_ATE_signed_char)
!504 = !DIImportedEntity(tag: DW_TAG_imported_declaration, scope: !467, entity: !505, file: !477, line: 141)
!505 = !DISubprogram(name: "atoi", scope: !469, file: !469, line: 104, type: !506, flags: DIFlagPrototyped, spFlags: 0)
!506 = !DISubroutineType(types: !507)
!507 = !{!472, !501}
!508 = !DIImportedEntity(tag: DW_TAG_imported_declaration, scope: !467, entity: !509, file: !477, line: 142)
!509 = !DISubprogram(name: "atol", scope: !469, file: !469, line: 107, type: !510, flags: DIFlagPrototyped, spFlags: 0)
!510 = !DISubroutineType(types: !511)
!511 = !{!483, !501}
!512 = !DIImportedEntity(tag: DW_TAG_imported_declaration, scope: !467, entity: !513, file: !477, line: 143)
!513 = !DISubprogram(name: "bsearch", scope: !469, file: !469, line: 820, type: !514, flags: DIFlagPrototyped, spFlags: 0)
!514 = !DISubroutineType(types: !515)
!515 = !{!516, !517, !517, !519, !519, !522}
!516 = !DIDerivedType(tag: DW_TAG_pointer_type, baseType: null, size: 64)
!517 = !DIDerivedType(tag: DW_TAG_pointer_type, baseType: !518, size: 64)
!518 = !DIDerivedType(tag: DW_TAG_const_type, baseType: null)
!519 = !DIDerivedType(tag: DW_TAG_typedef, name: "size_t", file: !520, line: 46, baseType: !521)
!520 = !DIFile(filename: "Rohit/IR2Vec-LoopOptimizationFramework/build_REL_AsrtON/lib/clang/10.0.1/include/stddef.h", directory: "/home/venkat/IF-DV")
!521 = !DIBasicType(name: "long unsigned int", size: 64, encoding: DW_ATE_unsigned)
!522 = !DIDerivedType(tag: DW_TAG_typedef, name: "__compar_fn_t", file: !469, line: 808, baseType: !523)
!523 = !DIDerivedType(tag: DW_TAG_pointer_type, baseType: !524, size: 64)
!524 = !DISubroutineType(types: !525)
!525 = !{!472, !517, !517}
!526 = !DIImportedEntity(tag: DW_TAG_imported_declaration, scope: !467, entity: !527, file: !477, line: 144)
!527 = !DISubprogram(name: "calloc", scope: !469, file: !469, line: 542, type: !528, flags: DIFlagPrototyped, spFlags: 0)
!528 = !DISubroutineType(types: !529)
!529 = !{!516, !519, !519}
!530 = !DIImportedEntity(tag: DW_TAG_imported_declaration, scope: !467, entity: !531, file: !477, line: 145)
!531 = !DISubprogram(name: "div", scope: !469, file: !469, line: 852, type: !532, flags: DIFlagPrototyped, spFlags: 0)
!532 = !DISubroutineType(types: !533)
!533 = !{!475, !472, !472}
!534 = !DIImportedEntity(tag: DW_TAG_imported_declaration, scope: !467, entity: !535, file: !477, line: 146)
!535 = !DISubprogram(name: "exit", scope: !469, file: !469, line: 617, type: !536, flags: DIFlagPrototyped | DIFlagNoReturn, spFlags: 0)
!536 = !DISubroutineType(types: !537)
!537 = !{null, !472}
!538 = !DIImportedEntity(tag: DW_TAG_imported_declaration, scope: !467, entity: !539, file: !477, line: 147)
!539 = !DISubprogram(name: "free", scope: !469, file: !469, line: 565, type: !540, flags: DIFlagPrototyped, spFlags: 0)
!540 = !DISubroutineType(types: !541)
!541 = !{null, !516}
!542 = !DIImportedEntity(tag: DW_TAG_imported_declaration, scope: !467, entity: !543, file: !477, line: 148)
!543 = !DISubprogram(name: "getenv", scope: !469, file: !469, line: 634, type: !544, flags: DIFlagPrototyped, spFlags: 0)
!544 = !DISubroutineType(types: !545)
!545 = !{!546, !501}
!546 = !DIDerivedType(tag: DW_TAG_pointer_type, baseType: !503, size: 64)
!547 = !DIImportedEntity(tag: DW_TAG_imported_declaration, scope: !467, entity: !548, file: !477, line: 149)
!548 = !DISubprogram(name: "labs", scope: !469, file: !469, line: 841, type: !549, flags: DIFlagPrototyped, spFlags: 0)
!549 = !DISubroutineType(types: !550)
!550 = !{!483, !483}
!551 = !DIImportedEntity(tag: DW_TAG_imported_declaration, scope: !467, entity: !552, file: !477, line: 150)
!552 = !DISubprogram(name: "ldiv", scope: !469, file: !469, line: 854, type: !553, flags: DIFlagPrototyped, spFlags: 0)
!553 = !DISubroutineType(types: !554)
!554 = !{!479, !483, !483}
!555 = !DIImportedEntity(tag: DW_TAG_imported_declaration, scope: !467, entity: !556, file: !477, line: 151)
!556 = !DISubprogram(name: "malloc", scope: !469, file: !469, line: 539, type: !557, flags: DIFlagPrototyped, spFlags: 0)
!557 = !DISubroutineType(types: !558)
!558 = !{!516, !519}
!559 = !DIImportedEntity(tag: DW_TAG_imported_declaration, scope: !467, entity: !560, file: !477, line: 153)
!560 = !DISubprogram(name: "mblen", scope: !469, file: !469, line: 922, type: !561, flags: DIFlagPrototyped, spFlags: 0)
!561 = !DISubroutineType(types: !562)
!562 = !{!472, !501, !519}
!563 = !DIImportedEntity(tag: DW_TAG_imported_declaration, scope: !467, entity: !564, file: !477, line: 154)
!564 = !DISubprogram(name: "mbstowcs", scope: !469, file: !469, line: 933, type: !565, flags: DIFlagPrototyped, spFlags: 0)
!565 = !DISubroutineType(types: !566)
!566 = !{!519, !567, !570, !519}
!567 = !DIDerivedType(tag: DW_TAG_restrict_type, baseType: !568)
!568 = !DIDerivedType(tag: DW_TAG_pointer_type, baseType: !569, size: 64)
!569 = !DIBasicType(name: "wchar_t", size: 32, encoding: DW_ATE_signed)
!570 = !DIDerivedType(tag: DW_TAG_restrict_type, baseType: !501)
!571 = !DIImportedEntity(tag: DW_TAG_imported_declaration, scope: !467, entity: !572, file: !477, line: 155)
!572 = !DISubprogram(name: "mbtowc", scope: !469, file: !469, line: 925, type: !573, flags: DIFlagPrototyped, spFlags: 0)
!573 = !DISubroutineType(types: !574)
!574 = !{!472, !567, !570, !519}
!575 = !DIImportedEntity(tag: DW_TAG_imported_declaration, scope: !467, entity: !576, file: !477, line: 157)
!576 = !DISubprogram(name: "qsort", scope: !469, file: !469, line: 830, type: !577, flags: DIFlagPrototyped, spFlags: 0)
!577 = !DISubroutineType(types: !578)
!578 = !{null, !516, !519, !519, !522}
!579 = !DIImportedEntity(tag: DW_TAG_imported_declaration, scope: !467, entity: !580, file: !477, line: 160)
!580 = !DISubprogram(name: "quick_exit", scope: !469, file: !469, line: 623, type: !536, flags: DIFlagPrototyped | DIFlagNoReturn, spFlags: 0)
!581 = !DIImportedEntity(tag: DW_TAG_imported_declaration, scope: !467, entity: !582, file: !477, line: 163)
!582 = !DISubprogram(name: "rand", scope: !469, file: !469, line: 453, type: !583, flags: DIFlagPrototyped, spFlags: 0)
!583 = !DISubroutineType(types: !584)
!584 = !{!472}
!585 = !DIImportedEntity(tag: DW_TAG_imported_declaration, scope: !467, entity: !586, file: !477, line: 164)
!586 = !DISubprogram(name: "realloc", scope: !469, file: !469, line: 550, type: !587, flags: DIFlagPrototyped, spFlags: 0)
!587 = !DISubroutineType(types: !588)
!588 = !{!516, !516, !519}
!589 = !DIImportedEntity(tag: DW_TAG_imported_declaration, scope: !467, entity: !590, file: !477, line: 165)
!590 = !DISubprogram(name: "srand", scope: !469, file: !469, line: 455, type: !591, flags: DIFlagPrototyped, spFlags: 0)
!591 = !DISubroutineType(types: !592)
!592 = !{null, !7}
!593 = !DIImportedEntity(tag: DW_TAG_imported_declaration, scope: !467, entity: !594, file: !477, line: 166)
!594 = !DISubprogram(name: "strtod", scope: !469, file: !469, line: 117, type: !595, flags: DIFlagPrototyped, spFlags: 0)
!595 = !DISubroutineType(types: !596)
!596 = !{!500, !570, !597}
!597 = !DIDerivedType(tag: DW_TAG_restrict_type, baseType: !598)
!598 = !DIDerivedType(tag: DW_TAG_pointer_type, baseType: !546, size: 64)
!599 = !DIImportedEntity(tag: DW_TAG_imported_declaration, scope: !467, entity: !600, file: !477, line: 167)
!600 = !DISubprogram(name: "strtol", scope: !469, file: !469, line: 176, type: !601, flags: DIFlagPrototyped, spFlags: 0)
!601 = !DISubroutineType(types: !602)
!602 = !{!483, !570, !597, !472}
!603 = !DIImportedEntity(tag: DW_TAG_imported_declaration, scope: !467, entity: !604, file: !477, line: 168)
!604 = !DISubprogram(name: "strtoul", scope: !469, file: !469, line: 180, type: !605, flags: DIFlagPrototyped, spFlags: 0)
!605 = !DISubroutineType(types: !606)
!606 = !{!521, !570, !597, !472}
!607 = !DIImportedEntity(tag: DW_TAG_imported_declaration, scope: !467, entity: !608, file: !477, line: 169)
!608 = !DISubprogram(name: "system", scope: !469, file: !469, line: 784, type: !506, flags: DIFlagPrototyped, spFlags: 0)
!609 = !DIImportedEntity(tag: DW_TAG_imported_declaration, scope: !467, entity: !610, file: !477, line: 171)
!610 = !DISubprogram(name: "wcstombs", scope: !469, file: !469, line: 936, type: !611, flags: DIFlagPrototyped, spFlags: 0)
!611 = !DISubroutineType(types: !612)
!612 = !{!519, !613, !614, !519}
!613 = !DIDerivedType(tag: DW_TAG_restrict_type, baseType: !546)
!614 = !DIDerivedType(tag: DW_TAG_restrict_type, baseType: !615)
!615 = !DIDerivedType(tag: DW_TAG_pointer_type, baseType: !616, size: 64)
!616 = !DIDerivedType(tag: DW_TAG_const_type, baseType: !569)
!617 = !DIImportedEntity(tag: DW_TAG_imported_declaration, scope: !467, entity: !618, file: !477, line: 172)
!618 = !DISubprogram(name: "wctomb", scope: !469, file: !469, line: 929, type: !619, flags: DIFlagPrototyped, spFlags: 0)
!619 = !DISubroutineType(types: !620)
!620 = !{!472, !546, !569}
!621 = !DIImportedEntity(tag: DW_TAG_imported_declaration, scope: !622, entity: !623, file: !477, line: 200)
!622 = !DINamespace(name: "__gnu_cxx", scope: null)
!623 = !DIDerivedType(tag: DW_TAG_typedef, name: "lldiv_t", file: !469, line: 80, baseType: !624)
!624 = distinct !DICompositeType(tag: DW_TAG_structure_type, file: !469, line: 76, size: 128, flags: DIFlagTypePassByValue, elements: !625, identifier: "_ZTS7lldiv_t")
!625 = !{!626, !628}
!626 = !DIDerivedType(tag: DW_TAG_member, name: "quot", scope: !624, file: !469, line: 78, baseType: !627, size: 64)
!627 = !DIBasicType(name: "long long int", size: 64, encoding: DW_ATE_signed)
!628 = !DIDerivedType(tag: DW_TAG_member, name: "rem", scope: !624, file: !469, line: 79, baseType: !627, size: 64, offset: 64)
!629 = !DIImportedEntity(tag: DW_TAG_imported_declaration, scope: !622, entity: !630, file: !477, line: 206)
!630 = !DISubprogram(name: "_Exit", scope: !469, file: !469, line: 629, type: !536, flags: DIFlagPrototyped | DIFlagNoReturn, spFlags: 0)
!631 = !DIImportedEntity(tag: DW_TAG_imported_declaration, scope: !622, entity: !632, file: !477, line: 210)
!632 = !DISubprogram(name: "llabs", scope: !469, file: !469, line: 844, type: !633, flags: DIFlagPrototyped, spFlags: 0)
!633 = !DISubroutineType(types: !634)
!634 = !{!627, !627}
!635 = !DIImportedEntity(tag: DW_TAG_imported_declaration, scope: !622, entity: !636, file: !477, line: 216)
!636 = !DISubprogram(name: "lldiv", scope: !469, file: !469, line: 858, type: !637, flags: DIFlagPrototyped, spFlags: 0)
!637 = !DISubroutineType(types: !638)
!638 = !{!623, !627, !627}
!639 = !DIImportedEntity(tag: DW_TAG_imported_declaration, scope: !622, entity: !640, file: !477, line: 227)
!640 = !DISubprogram(name: "atoll", scope: !469, file: !469, line: 112, type: !641, flags: DIFlagPrototyped, spFlags: 0)
!641 = !DISubroutineType(types: !642)
!642 = !{!627, !501}
!643 = !DIImportedEntity(tag: DW_TAG_imported_declaration, scope: !622, entity: !644, file: !477, line: 228)
!644 = !DISubprogram(name: "strtoll", scope: !469, file: !469, line: 200, type: !645, flags: DIFlagPrototyped, spFlags: 0)
!645 = !DISubroutineType(types: !646)
!646 = !{!627, !570, !597, !472}
!647 = !DIImportedEntity(tag: DW_TAG_imported_declaration, scope: !622, entity: !648, file: !477, line: 229)
!648 = !DISubprogram(name: "strtoull", scope: !469, file: !469, line: 205, type: !649, flags: DIFlagPrototyped, spFlags: 0)
!649 = !DISubroutineType(types: !650)
!650 = !{!651, !570, !597, !472}
!651 = !DIBasicType(name: "long long unsigned int", size: 64, encoding: DW_ATE_unsigned)
!652 = !DIImportedEntity(tag: DW_TAG_imported_declaration, scope: !622, entity: !653, file: !477, line: 231)
!653 = !DISubprogram(name: "strtof", scope: !469, file: !469, line: 123, type: !654, flags: DIFlagPrototyped, spFlags: 0)
!654 = !DISubroutineType(types: !655)
!655 = !{!656, !570, !597}
!656 = !DIBasicType(name: "float", size: 32, encoding: DW_ATE_float)
!657 = !DIImportedEntity(tag: DW_TAG_imported_declaration, scope: !622, entity: !658, file: !477, line: 232)
!658 = !DISubprogram(name: "strtold", scope: !469, file: !469, line: 126, type: !659, flags: DIFlagPrototyped, spFlags: 0)
!659 = !DISubroutineType(types: !660)
!660 = !{!661, !570, !597}
!661 = !DIBasicType(name: "long double", size: 128, encoding: DW_ATE_float)
!662 = !DIImportedEntity(tag: DW_TAG_imported_declaration, scope: !467, entity: !623, file: !477, line: 240)
!663 = !DIImportedEntity(tag: DW_TAG_imported_declaration, scope: !467, entity: !630, file: !477, line: 242)
!664 = !DIImportedEntity(tag: DW_TAG_imported_declaration, scope: !467, entity: !632, file: !477, line: 244)
!665 = !DIImportedEntity(tag: DW_TAG_imported_declaration, scope: !467, entity: !666, file: !477, line: 245)
!666 = !DISubprogram(name: "div", linkageName: "_ZN9__gnu_cxx3divExx", scope: !622, file: !477, line: 213, type: !637, flags: DIFlagPrototyped, spFlags: 0)
!667 = !DIImportedEntity(tag: DW_TAG_imported_declaration, scope: !467, entity: !636, file: !477, line: 246)
!668 = !DIImportedEntity(tag: DW_TAG_imported_declaration, scope: !467, entity: !640, file: !477, line: 248)
!669 = !DIImportedEntity(tag: DW_TAG_imported_declaration, scope: !467, entity: !653, file: !477, line: 249)
!670 = !DIImportedEntity(tag: DW_TAG_imported_declaration, scope: !467, entity: !644, file: !477, line: 250)
!671 = !DIImportedEntity(tag: DW_TAG_imported_declaration, scope: !467, entity: !648, file: !477, line: 251)
!672 = !DIImportedEntity(tag: DW_TAG_imported_declaration, scope: !467, entity: !658, file: !477, line: 252)
!673 = !DIImportedEntity(tag: DW_TAG_imported_declaration, scope: !0, entity: !486, file: !674, line: 38)
!674 = !DIFile(filename: "/usr/lib/gcc/x86_64-linux-gnu/10/../../../../include/c++/10/stdlib.h", directory: "")
!675 = !DIImportedEntity(tag: DW_TAG_imported_declaration, scope: !0, entity: !490, file: !674, line: 39)
!676 = !DIImportedEntity(tag: DW_TAG_imported_declaration, scope: !0, entity: !535, file: !674, line: 40)
!677 = !DIImportedEntity(tag: DW_TAG_imported_declaration, scope: !0, entity: !495, file: !674, line: 43)
!678 = !DIImportedEntity(tag: DW_TAG_imported_declaration, scope: !0, entity: !580, file: !674, line: 46)
!679 = !DIImportedEntity(tag: DW_TAG_imported_declaration, scope: !0, entity: !475, file: !674, line: 51)
!680 = !DIImportedEntity(tag: DW_TAG_imported_declaration, scope: !0, entity: !479, file: !674, line: 52)
!681 = !DIImportedEntity(tag: DW_TAG_imported_declaration, scope: !0, entity: !682, file: !674, line: 54)
!682 = !DISubprogram(name: "abs", linkageName: "_ZSt3absg", scope: !467, file: !473, line: 103, type: !683, flags: DIFlagPrototyped, spFlags: 0)
!683 = !DISubroutineType(types: !684)
!684 = !{!685, !685}
!685 = !DIBasicType(name: "__float128", size: 128, encoding: DW_ATE_float)
!686 = !DIImportedEntity(tag: DW_TAG_imported_declaration, scope: !0, entity: !497, file: !674, line: 55)
!687 = !DIImportedEntity(tag: DW_TAG_imported_declaration, scope: !0, entity: !505, file: !674, line: 56)
!688 = !DIImportedEntity(tag: DW_TAG_imported_declaration, scope: !0, entity: !509, file: !674, line: 57)
!689 = !DIImportedEntity(tag: DW_TAG_imported_declaration, scope: !0, entity: !513, file: !674, line: 58)
!690 = !DIImportedEntity(tag: DW_TAG_imported_declaration, scope: !0, entity: !527, file: !674, line: 59)
!691 = !DIImportedEntity(tag: DW_TAG_imported_declaration, scope: !0, entity: !666, file: !674, line: 60)
!692 = !DIImportedEntity(tag: DW_TAG_imported_declaration, scope: !0, entity: !539, file: !674, line: 61)
!693 = !DIImportedEntity(tag: DW_TAG_imported_declaration, scope: !0, entity: !543, file: !674, line: 62)
!694 = !DIImportedEntity(tag: DW_TAG_imported_declaration, scope: !0, entity: !548, file: !674, line: 63)
!695 = !DIImportedEntity(tag: DW_TAG_imported_declaration, scope: !0, entity: !552, file: !674, line: 64)
!696 = !DIImportedEntity(tag: DW_TAG_imported_declaration, scope: !0, entity: !556, file: !674, line: 65)
!697 = !DIImportedEntity(tag: DW_TAG_imported_declaration, scope: !0, entity: !560, file: !674, line: 67)
!698 = !DIImportedEntity(tag: DW_TAG_imported_declaration, scope: !0, entity: !564, file: !674, line: 68)
!699 = !DIImportedEntity(tag: DW_TAG_imported_declaration, scope: !0, entity: !572, file: !674, line: 69)
!700 = !DIImportedEntity(tag: DW_TAG_imported_declaration, scope: !0, entity: !576, file: !674, line: 71)
!701 = !DIImportedEntity(tag: DW_TAG_imported_declaration, scope: !0, entity: !582, file: !674, line: 72)
!702 = !DIImportedEntity(tag: DW_TAG_imported_declaration, scope: !0, entity: !586, file: !674, line: 73)
!703 = !DIImportedEntity(tag: DW_TAG_imported_declaration, scope: !0, entity: !590, file: !674, line: 74)
!704 = !DIImportedEntity(tag: DW_TAG_imported_declaration, scope: !0, entity: !594, file: !674, line: 75)
!705 = !DIImportedEntity(tag: DW_TAG_imported_declaration, scope: !0, entity: !600, file: !674, line: 76)
!706 = !DIImportedEntity(tag: DW_TAG_imported_declaration, scope: !0, entity: !604, file: !674, line: 77)
!707 = !DIImportedEntity(tag: DW_TAG_imported_declaration, scope: !0, entity: !608, file: !674, line: 78)
!708 = !DIImportedEntity(tag: DW_TAG_imported_declaration, scope: !0, entity: !610, file: !674, line: 80)
!709 = !DIImportedEntity(tag: DW_TAG_imported_declaration, scope: !0, entity: !618, file: !674, line: 81)
!710 = !DIImportedEntity(tag: DW_TAG_imported_declaration, scope: !467, entity: !711, file: !715, line: 77)
!711 = !DISubprogram(name: "memchr", scope: !712, file: !712, line: 73, type: !713, flags: DIFlagPrototyped, spFlags: 0)
!712 = !DIFile(filename: "/usr/include/string.h", directory: "")
!713 = !DISubroutineType(types: !714)
!714 = !{!517, !517, !472, !519}
!715 = !DIFile(filename: "/usr/lib/gcc/x86_64-linux-gnu/10/../../../../include/c++/10/cstring", directory: "")
!716 = !DIImportedEntity(tag: DW_TAG_imported_declaration, scope: !467, entity: !717, file: !715, line: 78)
!717 = !DISubprogram(name: "memcmp", scope: !712, file: !712, line: 64, type: !718, flags: DIFlagPrototyped, spFlags: 0)
!718 = !DISubroutineType(types: !719)
!719 = !{!472, !517, !517, !519}
!720 = !DIImportedEntity(tag: DW_TAG_imported_declaration, scope: !467, entity: !721, file: !715, line: 79)
!721 = !DISubprogram(name: "memcpy", scope: !712, file: !712, line: 43, type: !722, flags: DIFlagPrototyped, spFlags: 0)
!722 = !DISubroutineType(types: !723)
!723 = !{!516, !724, !725, !519}
!724 = !DIDerivedType(tag: DW_TAG_restrict_type, baseType: !516)
!725 = !DIDerivedType(tag: DW_TAG_restrict_type, baseType: !517)
!726 = !DIImportedEntity(tag: DW_TAG_imported_declaration, scope: !467, entity: !727, file: !715, line: 80)
!727 = !DISubprogram(name: "memmove", scope: !712, file: !712, line: 47, type: !728, flags: DIFlagPrototyped, spFlags: 0)
!728 = !DISubroutineType(types: !729)
!729 = !{!516, !516, !517, !519}
!730 = !DIImportedEntity(tag: DW_TAG_imported_declaration, scope: !467, entity: !731, file: !715, line: 81)
!731 = !DISubprogram(name: "memset", scope: !712, file: !712, line: 61, type: !732, flags: DIFlagPrototyped, spFlags: 0)
!732 = !DISubroutineType(types: !733)
!733 = !{!516, !516, !472, !519}
!734 = !DIImportedEntity(tag: DW_TAG_imported_declaration, scope: !467, entity: !735, file: !715, line: 82)
!735 = !DISubprogram(name: "strcat", scope: !712, file: !712, line: 130, type: !736, flags: DIFlagPrototyped, spFlags: 0)
!736 = !DISubroutineType(types: !737)
!737 = !{!546, !613, !570}
!738 = !DIImportedEntity(tag: DW_TAG_imported_declaration, scope: !467, entity: !739, file: !715, line: 83)
!739 = !DISubprogram(name: "strcmp", scope: !712, file: !712, line: 137, type: !740, flags: DIFlagPrototyped, spFlags: 0)
!740 = !DISubroutineType(types: !741)
!741 = !{!472, !501, !501}
!742 = !DIImportedEntity(tag: DW_TAG_imported_declaration, scope: !467, entity: !743, file: !715, line: 84)
!743 = !DISubprogram(name: "strcoll", scope: !712, file: !712, line: 144, type: !740, flags: DIFlagPrototyped, spFlags: 0)
!744 = !DIImportedEntity(tag: DW_TAG_imported_declaration, scope: !467, entity: !745, file: !715, line: 85)
!745 = !DISubprogram(name: "strcpy", scope: !712, file: !712, line: 122, type: !736, flags: DIFlagPrototyped, spFlags: 0)
!746 = !DIImportedEntity(tag: DW_TAG_imported_declaration, scope: !467, entity: !747, file: !715, line: 86)
!747 = !DISubprogram(name: "strcspn", scope: !712, file: !712, line: 273, type: !748, flags: DIFlagPrototyped, spFlags: 0)
!748 = !DISubroutineType(types: !749)
!749 = !{!519, !501, !501}
!750 = !DIImportedEntity(tag: DW_TAG_imported_declaration, scope: !467, entity: !751, file: !715, line: 87)
!751 = !DISubprogram(name: "strerror", scope: !712, file: !712, line: 397, type: !752, flags: DIFlagPrototyped, spFlags: 0)
!752 = !DISubroutineType(types: !753)
!753 = !{!546, !472}
!754 = !DIImportedEntity(tag: DW_TAG_imported_declaration, scope: !467, entity: !755, file: !715, line: 88)
!755 = !DISubprogram(name: "strlen", scope: !712, file: !712, line: 385, type: !756, flags: DIFlagPrototyped, spFlags: 0)
!756 = !DISubroutineType(types: !757)
!757 = !{!519, !501}
!758 = !DIImportedEntity(tag: DW_TAG_imported_declaration, scope: !467, entity: !759, file: !715, line: 89)
!759 = !DISubprogram(name: "strncat", scope: !712, file: !712, line: 133, type: !760, flags: DIFlagPrototyped, spFlags: 0)
!760 = !DISubroutineType(types: !761)
!761 = !{!546, !613, !570, !519}
!762 = !DIImportedEntity(tag: DW_TAG_imported_declaration, scope: !467, entity: !763, file: !715, line: 90)
!763 = !DISubprogram(name: "strncmp", scope: !712, file: !712, line: 140, type: !764, flags: DIFlagPrototyped, spFlags: 0)
!764 = !DISubroutineType(types: !765)
!765 = !{!472, !501, !501, !519}
!766 = !DIImportedEntity(tag: DW_TAG_imported_declaration, scope: !467, entity: !767, file: !715, line: 91)
!767 = !DISubprogram(name: "strncpy", scope: !712, file: !712, line: 125, type: !760, flags: DIFlagPrototyped, spFlags: 0)
!768 = !DIImportedEntity(tag: DW_TAG_imported_declaration, scope: !467, entity: !769, file: !715, line: 92)
!769 = !DISubprogram(name: "strspn", scope: !712, file: !712, line: 277, type: !748, flags: DIFlagPrototyped, spFlags: 0)
!770 = !DIImportedEntity(tag: DW_TAG_imported_declaration, scope: !467, entity: !771, file: !715, line: 93)
!771 = !DISubprogram(name: "strtok", scope: !712, file: !712, line: 336, type: !736, flags: DIFlagPrototyped, spFlags: 0)
!772 = !DIImportedEntity(tag: DW_TAG_imported_declaration, scope: !467, entity: !773, file: !715, line: 94)
!773 = !DISubprogram(name: "strxfrm", scope: !712, file: !712, line: 147, type: !774, flags: DIFlagPrototyped, spFlags: 0)
!774 = !DISubroutineType(types: !775)
!775 = !{!519, !613, !570, !519}
!776 = !DIImportedEntity(tag: DW_TAG_imported_declaration, scope: !467, entity: !777, file: !715, line: 95)
!777 = !DISubprogram(name: "strchr", scope: !712, file: !712, line: 208, type: !778, flags: DIFlagPrototyped, spFlags: 0)
!778 = !DISubroutineType(types: !779)
!779 = !{!501, !501, !472}
!780 = !DIImportedEntity(tag: DW_TAG_imported_declaration, scope: !467, entity: !781, file: !715, line: 96)
!781 = !DISubprogram(name: "strpbrk", scope: !712, file: !712, line: 285, type: !782, flags: DIFlagPrototyped, spFlags: 0)
!782 = !DISubroutineType(types: !783)
!783 = !{!501, !501, !501}
!784 = !DIImportedEntity(tag: DW_TAG_imported_declaration, scope: !467, entity: !785, file: !715, line: 97)
!785 = !DISubprogram(name: "strrchr", scope: !712, file: !712, line: 235, type: !778, flags: DIFlagPrototyped, spFlags: 0)
!786 = !DIImportedEntity(tag: DW_TAG_imported_declaration, scope: !467, entity: !787, file: !715, line: 98)
!787 = !DISubprogram(name: "strstr", scope: !712, file: !712, line: 312, type: !782, flags: DIFlagPrototyped, spFlags: 0)
!788 = !DIImportedEntity(tag: DW_TAG_imported_declaration, scope: !0, entity: !721, file: !789, line: 30)
!789 = !DIFile(filename: "./xercesc/framework/XMLBuffer.hpp", directory: "/home/venkat/IF-DV/spec_build_release/CPU_2017/benchspec/CPU/523.xalancbmk_r/build/build_base_ld-loop-ext-m64.0000")
!790 = !DIImportedEntity(tag: DW_TAG_imported_declaration, scope: !0, entity: !721, file: !791, line: 254)
!791 = !DIFile(filename: "./xercesc/util/XMLString.hpp", directory: "/home/venkat/IF-DV/spec_build_release/CPU_2017/benchspec/CPU/523.xalancbmk_r/build/build_base_ld-loop-ext-m64.0000")
!792 = !DIImportedEntity(tag: DW_TAG_imported_declaration, scope: !467, entity: !793, file: !794, line: 58)
!793 = distinct !DICompositeType(tag: DW_TAG_class_type, name: "exception_ptr", scope: !795, file: !794, line: 80, size: 64, flags: DIFlagTypePassByReference | DIFlagNonTrivial, elements: !796, identifier: "_ZTSNSt15__exception_ptr13exception_ptrE")
!794 = !DIFile(filename: "/usr/lib/gcc/x86_64-linux-gnu/10/../../../../include/c++/10/bits/exception_ptr.h", directory: "")
!795 = !DINamespace(name: "__exception_ptr", scope: !467)
!796 = !{!797, !798, !802, !805, !806, !811, !812, !816, !822, !826, !830, !833, !834, !837, !841}
!797 = !DIDerivedType(tag: DW_TAG_member, name: "_M_exception_object", scope: !793, file: !794, line: 82, baseType: !516, size: 64)
!798 = !DISubprogram(name: "exception_ptr", scope: !793, file: !794, line: 84, type: !799, scopeLine: 84, flags: DIFlagExplicit | DIFlagPrototyped, spFlags: 0)
!799 = !DISubroutineType(types: !800)
!800 = !{null, !801, !516}
!801 = !DIDerivedType(tag: DW_TAG_pointer_type, baseType: !793, size: 64, flags: DIFlagArtificial | DIFlagObjectPointer)
!802 = !DISubprogram(name: "_M_addref", linkageName: "_ZNSt15__exception_ptr13exception_ptr9_M_addrefEv", scope: !793, file: !794, line: 86, type: !803, scopeLine: 86, flags: DIFlagPrototyped, spFlags: 0)
!803 = !DISubroutineType(types: !804)
!804 = !{null, !801}
!805 = !DISubprogram(name: "_M_release", linkageName: "_ZNSt15__exception_ptr13exception_ptr10_M_releaseEv", scope: !793, file: !794, line: 87, type: !803, scopeLine: 87, flags: DIFlagPrototyped, spFlags: 0)
!806 = !DISubprogram(name: "_M_get", linkageName: "_ZNKSt15__exception_ptr13exception_ptr6_M_getEv", scope: !793, file: !794, line: 89, type: !807, scopeLine: 89, flags: DIFlagPrototyped, spFlags: 0)
!807 = !DISubroutineType(types: !808)
!808 = !{!516, !809}
!809 = !DIDerivedType(tag: DW_TAG_pointer_type, baseType: !810, size: 64, flags: DIFlagArtificial | DIFlagObjectPointer)
!810 = !DIDerivedType(tag: DW_TAG_const_type, baseType: !793)
!811 = !DISubprogram(name: "exception_ptr", scope: !793, file: !794, line: 97, type: !803, scopeLine: 97, flags: DIFlagPublic | DIFlagPrototyped, spFlags: 0)
!812 = !DISubprogram(name: "exception_ptr", scope: !793, file: !794, line: 99, type: !813, scopeLine: 99, flags: DIFlagPublic | DIFlagPrototyped, spFlags: 0)
!813 = !DISubroutineType(types: !814)
!814 = !{null, !801, !815}
!815 = !DIDerivedType(tag: DW_TAG_reference_type, baseType: !810, size: 64)
!816 = !DISubprogram(name: "exception_ptr", scope: !793, file: !794, line: 102, type: !817, scopeLine: 102, flags: DIFlagPublic | DIFlagPrototyped, spFlags: 0)
!817 = !DISubroutineType(types: !818)
!818 = !{null, !801, !819}
!819 = !DIDerivedType(tag: DW_TAG_typedef, name: "nullptr_t", scope: !467, file: !820, line: 264, baseType: !821)
!820 = !DIFile(filename: "/usr/lib/gcc/x86_64-linux-gnu/10/../../../../include/x86_64-linux-gnu/c++/10/bits/c++config.h", directory: "")
!821 = !DIBasicType(tag: DW_TAG_unspecified_type, name: "decltype(nullptr)")
!822 = !DISubprogram(name: "exception_ptr", scope: !793, file: !794, line: 106, type: !823, scopeLine: 106, flags: DIFlagPublic | DIFlagPrototyped, spFlags: 0)
!823 = !DISubroutineType(types: !824)
!824 = !{null, !801, !825}
!825 = !DIDerivedType(tag: DW_TAG_rvalue_reference_type, baseType: !793, size: 64)
!826 = !DISubprogram(name: "operator=", linkageName: "_ZNSt15__exception_ptr13exception_ptraSERKS0_", scope: !793, file: !794, line: 119, type: !827, scopeLine: 119, flags: DIFlagPublic | DIFlagPrototyped, spFlags: 0)
!827 = !DISubroutineType(types: !828)
!828 = !{!829, !801, !815}
!829 = !DIDerivedType(tag: DW_TAG_reference_type, baseType: !793, size: 64)
!830 = !DISubprogram(name: "operator=", linkageName: "_ZNSt15__exception_ptr13exception_ptraSEOS0_", scope: !793, file: !794, line: 123, type: !831, scopeLine: 123, flags: DIFlagPublic | DIFlagPrototyped, spFlags: 0)
!831 = !DISubroutineType(types: !832)
!832 = !{!829, !801, !825}
!833 = !DISubprogram(name: "~exception_ptr", scope: !793, file: !794, line: 130, type: !803, scopeLine: 130, flags: DIFlagPublic | DIFlagPrototyped, spFlags: 0)
!834 = !DISubprogram(name: "swap", linkageName: "_ZNSt15__exception_ptr13exception_ptr4swapERS0_", scope: !793, file: !794, line: 133, type: !835, scopeLine: 133, flags: DIFlagPublic | DIFlagPrototyped, spFlags: 0)
!835 = !DISubroutineType(types: !836)
!836 = !{null, !801, !829}
!837 = !DISubprogram(name: "operator bool", linkageName: "_ZNKSt15__exception_ptr13exception_ptrcvbEv", scope: !793, file: !794, line: 145, type: !838, scopeLine: 145, flags: DIFlagPublic | DIFlagExplicit | DIFlagPrototyped, spFlags: 0)
!838 = !DISubroutineType(types: !839)
!839 = !{!840, !809}
!840 = !DIBasicType(name: "bool", size: 8, encoding: DW_ATE_boolean)
!841 = !DISubprogram(name: "__cxa_exception_type", linkageName: "_ZNKSt15__exception_ptr13exception_ptr20__cxa_exception_typeEv", scope: !793, file: !794, line: 154, type: !842, scopeLine: 154, flags: DIFlagPublic | DIFlagPrototyped, spFlags: 0)
!842 = !DISubroutineType(types: !843)
!843 = !{!844, !809}
!844 = !DIDerivedType(tag: DW_TAG_pointer_type, baseType: !845, size: 64)
!845 = !DIDerivedType(tag: DW_TAG_const_type, baseType: !846)
!846 = !DICompositeType(tag: DW_TAG_class_type, name: "type_info", scope: !467, file: !847, line: 88, flags: DIFlagFwdDecl)
!847 = !DIFile(filename: "/usr/lib/gcc/x86_64-linux-gnu/10/../../../../include/c++/10/typeinfo", directory: "")
!848 = !DIImportedEntity(tag: DW_TAG_imported_declaration, scope: !795, entity: !849, file: !794, line: 74)
!849 = !DISubprogram(name: "rethrow_exception", linkageName: "_ZSt17rethrow_exceptionNSt15__exception_ptr13exception_ptrE", scope: !467, file: !794, line: 70, type: !850, flags: DIFlagPrototyped | DIFlagNoReturn, spFlags: 0)
!850 = !DISubroutineType(types: !851)
!851 = !{null, !793}
!852 = !{i32 7, !"Dwarf Version", i32 4}
!853 = !{i32 2, !"Debug Info Version", i32 3}
!854 = !{i32 1, !"wchar_size", i32 4}
!855 = !{!"clang version 10.0.1 (https://github.com/svkeerthy/IR2Vec-LoopOptimizationFramework.git 561ac470e63b728263a0ac06ef987886ac648486)"}
!856 = distinct !DISubprogram(name: "~XMLDeleter", linkageName: "_ZN11xercesc_2_710XMLDeleterD0Ev", scope: !858, file: !857, line: 845, type: !864, scopeLine: 846, flags: DIFlagPrototyped, spFlags: DISPFlagDefinition, unit: !0, declaration: !863, retainedNodes: !877)
!857 = !DIFile(filename: "./xercesc/util/PlatformUtils.hpp", directory: "/home/venkat/IF-DV/spec_build_release/CPU_2017/benchspec/CPU/523.xalancbmk_r/build/build_base_ld-loop-ext-m64.0000")
!858 = distinct !DICompositeType(tag: DW_TAG_class_type, name: "XMLDeleter", scope: !6, file: !857, line: 42, size: 64, flags: DIFlagTypePassByReference | DIFlagNonTrivial, elements: !859, vtableHolder: !858, identifier: "_ZTSN11xercesc_2_710XMLDeleterE")
!859 = !{!860, !863, !867, !868, !873}
!860 = !DIDerivedType(tag: DW_TAG_member, name: "_vptr$XMLDeleter", scope: !857, file: !857, baseType: !861, size: 64, flags: DIFlagArtificial)
!861 = !DIDerivedType(tag: DW_TAG_pointer_type, baseType: !862, size: 64)
!862 = !DIDerivedType(tag: DW_TAG_pointer_type, name: "__vtbl_ptr_type", baseType: !583, size: 64)
!863 = !DISubprogram(name: "~XMLDeleter", scope: !858, file: !857, line: 45, type: !864, scopeLine: 45, containingType: !858, virtualIndex: 0, flags: DIFlagPublic | DIFlagPrototyped, spFlags: DISPFlagVirtual)
!864 = !DISubroutineType(types: !865)
!865 = !{null, !866}
!866 = !DIDerivedType(tag: DW_TAG_pointer_type, baseType: !858, size: 64, flags: DIFlagArtificial | DIFlagObjectPointer)
!867 = !DISubprogram(name: "XMLDeleter", scope: !858, file: !857, line: 48, type: !864, scopeLine: 48, flags: DIFlagProtected | DIFlagPrototyped, spFlags: 0)
!868 = !DISubprogram(name: "XMLDeleter", scope: !858, file: !857, line: 51, type: !869, scopeLine: 51, flags: DIFlagPrototyped, spFlags: 0)
!869 = !DISubroutineType(types: !870)
!870 = !{null, !866, !871}
!871 = !DIDerivedType(tag: DW_TAG_reference_type, baseType: !872, size: 64)
!872 = !DIDerivedType(tag: DW_TAG_const_type, baseType: !858)
!873 = !DISubprogram(name: "operator=", linkageName: "_ZN11xercesc_2_710XMLDeleteraSERKS0_", scope: !858, file: !857, line: 52, type: !874, scopeLine: 52, flags: DIFlagPrototyped, spFlags: 0)
!874 = !DISubroutineType(types: !875)
!875 = !{!876, !866, !871}
!876 = !DIDerivedType(tag: DW_TAG_reference_type, baseType: !858, size: 64)
!877 = !{}
!878 = !DILocalVariable(name: "this", arg: 1, scope: !856, type: !879, flags: DIFlagArtificial | DIFlagObjectPointer)
!879 = !DIDerivedType(tag: DW_TAG_pointer_type, baseType: !858, size: 64)
!880 = !DILocation(line: 0, scope: !856)
!881 = !DILocation(line: 846, column: 1, scope: !856)
!882 = !DILocation(line: 847, column: 1, scope: !856)
!883 = distinct !DISubprogram(name: "~XMLDeleter", linkageName: "_ZN11xercesc_2_710XMLDeleterD2Ev", scope: !858, file: !857, line: 845, type: !864, scopeLine: 846, flags: DIFlagPrototyped, spFlags: DISPFlagDefinition, unit: !0, declaration: !863, retainedNodes: !877)
!884 = !DILocalVariable(name: "this", arg: 1, scope: !883, type: !879, flags: DIFlagArtificial | DIFlagObjectPointer)
!885 = !DILocation(line: 0, scope: !883)
!886 = !DILocation(line: 847, column: 1, scope: !883)
!887 = distinct !DISubprogram(name: "XSMultiValueFacet", linkageName: "_ZN11xercesc_2_717XSMultiValueFacetC2ENS_22XSSimpleTypeDefinition5FACETEPNS_16RefArrayVectorOfItEEbPNS_12XSAnnotationEPNS_7XSModelEPNS_13MemoryManagerE", scope: !888, file: !1, line: 29, type: !1017, scopeLine: 40, flags: DIFlagPrototyped, spFlags: DISPFlagDefinition, unit: !0, declaration: !1016, retainedNodes: !877)
!888 = distinct !DICompositeType(tag: DW_TAG_class_type, name: "XSMultiValueFacet", scope: !6, file: !889, line: 39, size: 512, flags: DIFlagTypePassByReference | DIFlagNonTrivial, elements: !890, vtableHolder: !892)
!889 = !DIFile(filename: "./xercesc/framework/psvi/XSMultiValueFacet.hpp", directory: "/home/venkat/IF-DV/spec_build_release/CPU_2017/benchspec/CPU/523.xalancbmk_r/build/build_base_ld-loop-ext-m64.0000")
!890 = !{!891, !894, !895, !896, !901, !1016, !1023, !1026, !1031, !1034, !1037, !1040, !1044}
!891 = !DIDerivedType(tag: DW_TAG_inheritance, scope: !888, baseType: !892, flags: DIFlagPublic, extraData: i32 0)
!892 = !DICompositeType(tag: DW_TAG_class_type, name: "XSObject", scope: !6, file: !893, line: 41, flags: DIFlagFwdDecl)
!893 = !DIFile(filename: "./xercesc/framework/psvi/XSObject.hpp", directory: "/home/venkat/IF-DV/spec_build_release/CPU_2017/benchspec/CPU/523.xalancbmk_r/build/build_base_ld-loop-ext-m64.0000")
!894 = !DIDerivedType(tag: DW_TAG_member, name: "fFacetKind", scope: !888, file: !889, line: 121, baseType: !3, size: 32, offset: 288, flags: DIFlagProtected)
!895 = !DIDerivedType(tag: DW_TAG_member, name: "fIsFixed", scope: !888, file: !889, line: 122, baseType: !840, size: 8, offset: 320, flags: DIFlagProtected)
!896 = !DIDerivedType(tag: DW_TAG_member, name: "fLexicalValues", scope: !888, file: !889, line: 123, baseType: !897, size: 64, offset: 384, flags: DIFlagProtected)
!897 = !DIDerivedType(tag: DW_TAG_pointer_type, baseType: !898, size: 64)
!898 = !DIDerivedType(tag: DW_TAG_typedef, name: "StringList", scope: !6, file: !23, line: 53, baseType: !899)
!899 = !DICompositeType(tag: DW_TAG_class_type, name: "RefArrayVectorOf<unsigned short>", scope: !6, file: !900, line: 28, flags: DIFlagFwdDecl, identifier: "_ZTSN11xercesc_2_716RefArrayVectorOfItEE")
!900 = !DIFile(filename: "./xercesc/util/RefArrayVectorOf.hpp", directory: "/home/venkat/IF-DV/spec_build_release/CPU_2017/benchspec/CPU/523.xalancbmk_r/build/build_base_ld-loop-ext-m64.0000")
!901 = !DIDerivedType(tag: DW_TAG_member, name: "fXSAnnotationList", scope: !888, file: !889, line: 124, baseType: !902, size: 64, offset: 448, flags: DIFlagProtected)
!902 = !DIDerivedType(tag: DW_TAG_pointer_type, baseType: !903, size: 64)
!903 = !DIDerivedType(tag: DW_TAG_typedef, name: "XSAnnotationList", scope: !6, file: !23, line: 46, baseType: !904)
!904 = distinct !DICompositeType(tag: DW_TAG_class_type, name: "RefVectorOf<xercesc_2_7::XSAnnotation>", scope: !6, file: !905, line: 32, size: 320, flags: DIFlagTypePassByReference | DIFlagNonTrivial, elements: !906, vtableHolder: !908, templateParams: !998, identifier: "_ZTSN11xercesc_2_711RefVectorOfINS_12XSAnnotationEEE")
!905 = !DIFile(filename: "./xercesc/util/RefVectorOf.hpp", directory: "/home/venkat/IF-DV/spec_build_release/CPU_2017/benchspec/CPU/523.xalancbmk_r/build/build_base_ld-loop-ext-m64.0000")
!906 = !{!907, !1000, !1004, !1007, !1012}
!907 = !DIDerivedType(tag: DW_TAG_inheritance, scope: !904, baseType: !908, flags: DIFlagPublic, extraData: i32 0)
!908 = distinct !DICompositeType(tag: DW_TAG_class_type, name: "BaseRefVectorOf<xercesc_2_7::XSAnnotation>", scope: !6, file: !909, line: 33, size: 320, flags: DIFlagTypePassByReference | DIFlagNonTrivial, elements: !910, vtableHolder: !908, templateParams: !998, identifier: "_ZTSN11xercesc_2_715BaseRefVectorOfINS_12XSAnnotationEEE")
!909 = !DIFile(filename: "./xercesc/util/BaseRefVectorOf.hpp", directory: "/home/venkat/IF-DV/spec_build_release/CPU_2017/benchspec/CPU/523.xalancbmk_r/build/build_base_ld-loop-ext-m64.0000")
!910 = !{!911, !936, !937, !938, !939, !940, !941, !942, !949, !952, !956, !959, !960, !963, !964, !967, !968, !974, !975, !976, !981, !984, !985, !986, !989, !990, !994}
!911 = !DIDerivedType(tag: DW_TAG_inheritance, scope: !908, baseType: !912, flags: DIFlagPublic, extraData: i32 0)
!912 = distinct !DICompositeType(tag: DW_TAG_class_type, name: "XMemory", scope: !6, file: !913, line: 40, size: 8, flags: DIFlagTypePassByValue | DIFlagNonTrivial, elements: !914, identifier: "_ZTSN11xercesc_2_77XMemoryE")
!913 = !DIFile(filename: "./xercesc/util/XMemory.hpp", directory: "/home/venkat/IF-DV/spec_build_release/CPU_2017/benchspec/CPU/523.xalancbmk_r/build/build_base_ld-loop-ext-m64.0000")
!914 = !{!915, !916, !922, !925, !926, !929, !932}
!915 = !DISubprogram(name: "operator new", linkageName: "_ZN11xercesc_2_77XMemorynwEm", scope: !912, file: !913, line: 54, type: !557, scopeLine: 54, flags: DIFlagPublic | DIFlagPrototyped | DIFlagStaticMember, spFlags: 0)
!916 = !DISubprogram(name: "operator new", linkageName: "_ZN11xercesc_2_77XMemorynwEmPNS_13MemoryManagerE", scope: !912, file: !913, line: 82, type: !917, scopeLine: 82, flags: DIFlagPublic | DIFlagPrototyped | DIFlagStaticMember, spFlags: 0)
!917 = !DISubroutineType(types: !918)
!918 = !{!516, !519, !919}
!919 = !DIDerivedType(tag: DW_TAG_pointer_type, baseType: !920, size: 64)
!920 = !DICompositeType(tag: DW_TAG_class_type, name: "MemoryManager", scope: !6, file: !921, line: 38, flags: DIFlagFwdDecl, identifier: "_ZTSN11xercesc_2_713MemoryManagerE")
!921 = !DIFile(filename: "./xercesc/framework/MemoryManager.hpp", directory: "/home/venkat/IF-DV/spec_build_release/CPU_2017/benchspec/CPU/523.xalancbmk_r/build/build_base_ld-loop-ext-m64.0000")
!922 = !DISubprogram(name: "operator new", linkageName: "_ZN11xercesc_2_77XMemorynwEmPv", scope: !912, file: !913, line: 90, type: !923, scopeLine: 90, flags: DIFlagPublic | DIFlagPrototyped | DIFlagStaticMember, spFlags: 0)
!923 = !DISubroutineType(types: !924)
!924 = !{!516, !519, !516}
!925 = !DISubprogram(name: "operator delete", linkageName: "_ZN11xercesc_2_77XMemorydlEPv", scope: !912, file: !913, line: 97, type: !540, scopeLine: 97, flags: DIFlagPublic | DIFlagPrototyped | DIFlagStaticMember, spFlags: 0)
!926 = !DISubprogram(name: "operator delete", linkageName: "_ZN11xercesc_2_77XMemorydlEPvPNS_13MemoryManagerE", scope: !912, file: !913, line: 107, type: !927, scopeLine: 107, flags: DIFlagPublic | DIFlagPrototyped | DIFlagStaticMember, spFlags: 0)
!927 = !DISubroutineType(types: !928)
!928 = !{null, !516, !919}
!929 = !DISubprogram(name: "operator delete", linkageName: "_ZN11xercesc_2_77XMemorydlEPvS1_", scope: !912, file: !913, line: 115, type: !930, scopeLine: 115, flags: DIFlagPublic | DIFlagPrototyped | DIFlagStaticMember, spFlags: 0)
!930 = !DISubroutineType(types: !931)
!931 = !{null, !516, !516}
!932 = !DISubprogram(name: "XMemory", scope: !912, file: !913, line: 130, type: !933, scopeLine: 130, flags: DIFlagProtected | DIFlagPrototyped, spFlags: 0)
!933 = !DISubroutineType(types: !934)
!934 = !{null, !935}
!935 = !DIDerivedType(tag: DW_TAG_pointer_type, baseType: !912, size: 64, flags: DIFlagArtificial | DIFlagObjectPointer)
!936 = !DIDerivedType(tag: DW_TAG_member, name: "_vptr$BaseRefVectorOf", scope: !909, file: !909, baseType: !861, size: 64, flags: DIFlagArtificial)
!937 = !DIDerivedType(tag: DW_TAG_member, name: "fAdoptedElems", scope: !908, file: !909, line: 89, baseType: !840, size: 8, offset: 64, flags: DIFlagProtected)
!938 = !DIDerivedType(tag: DW_TAG_member, name: "fCurCount", scope: !908, file: !909, line: 90, baseType: !7, size: 32, offset: 96, flags: DIFlagProtected)
!939 = !DIDerivedType(tag: DW_TAG_member, name: "fMaxCount", scope: !908, file: !909, line: 91, baseType: !7, size: 32, offset: 128, flags: DIFlagProtected)
!940 = !DIDerivedType(tag: DW_TAG_member, name: "fElemList", scope: !908, file: !909, line: 92, baseType: !459, size: 64, offset: 192, flags: DIFlagProtected)
!941 = !DIDerivedType(tag: DW_TAG_member, name: "fMemoryManager", scope: !908, file: !909, line: 93, baseType: !919, size: 64, offset: 256, flags: DIFlagProtected)
!942 = !DISubprogram(name: "BaseRefVectorOf", scope: !908, file: !909, line: 39, type: !943, scopeLine: 39, flags: DIFlagPublic | DIFlagPrototyped, spFlags: 0)
!943 = !DISubroutineType(types: !944)
!944 = !{null, !945, !946, !947, !948}
!945 = !DIDerivedType(tag: DW_TAG_pointer_type, baseType: !908, size: 64, flags: DIFlagArtificial | DIFlagObjectPointer)
!946 = !DIDerivedType(tag: DW_TAG_const_type, baseType: !7)
!947 = !DIDerivedType(tag: DW_TAG_const_type, baseType: !840)
!948 = !DIDerivedType(tag: DW_TAG_const_type, baseType: !919)
!949 = !DISubprogram(name: "~BaseRefVectorOf", scope: !908, file: !909, line: 45, type: !950, scopeLine: 45, containingType: !908, virtualIndex: 0, flags: DIFlagPublic | DIFlagPrototyped, spFlags: DISPFlagVirtual)
!950 = !DISubroutineType(types: !951)
!951 = !{null, !945}
!952 = !DISubprogram(name: "addElement", linkageName: "_ZN11xercesc_2_715BaseRefVectorOfINS_12XSAnnotationEE10addElementEPS1_", scope: !908, file: !909, line: 51, type: !953, scopeLine: 51, flags: DIFlagPublic | DIFlagPrototyped, spFlags: 0)
!953 = !DISubroutineType(types: !954)
!954 = !{null, !945, !955}
!955 = !DIDerivedType(tag: DW_TAG_const_type, baseType: !460)
!956 = !DISubprogram(name: "setElementAt", linkageName: "_ZN11xercesc_2_715BaseRefVectorOfINS_12XSAnnotationEE12setElementAtEPS1_j", scope: !908, file: !909, line: 52, type: !957, scopeLine: 52, containingType: !908, virtualIndex: 2, flags: DIFlagPublic | DIFlagPrototyped, spFlags: DISPFlagVirtual)
!957 = !DISubroutineType(types: !958)
!958 = !{null, !945, !955, !946}
!959 = !DISubprogram(name: "insertElementAt", linkageName: "_ZN11xercesc_2_715BaseRefVectorOfINS_12XSAnnotationEE15insertElementAtEPS1_j", scope: !908, file: !909, line: 53, type: !957, scopeLine: 53, flags: DIFlagPublic | DIFlagPrototyped, spFlags: 0)
!960 = !DISubprogram(name: "orphanElementAt", linkageName: "_ZN11xercesc_2_715BaseRefVectorOfINS_12XSAnnotationEE15orphanElementAtEj", scope: !908, file: !909, line: 54, type: !961, scopeLine: 54, flags: DIFlagPublic | DIFlagPrototyped, spFlags: 0)
!961 = !DISubroutineType(types: !962)
!962 = !{!460, !945, !946}
!963 = !DISubprogram(name: "removeAllElements", linkageName: "_ZN11xercesc_2_715BaseRefVectorOfINS_12XSAnnotationEE17removeAllElementsEv", scope: !908, file: !909, line: 55, type: !950, scopeLine: 55, containingType: !908, virtualIndex: 3, flags: DIFlagPublic | DIFlagPrototyped, spFlags: DISPFlagVirtual)
!964 = !DISubprogram(name: "removeElementAt", linkageName: "_ZN11xercesc_2_715BaseRefVectorOfINS_12XSAnnotationEE15removeElementAtEj", scope: !908, file: !909, line: 56, type: !965, scopeLine: 56, containingType: !908, virtualIndex: 4, flags: DIFlagPublic | DIFlagPrototyped, spFlags: DISPFlagVirtual)
!965 = !DISubroutineType(types: !966)
!966 = !{null, !945, !946}
!967 = !DISubprogram(name: "removeLastElement", linkageName: "_ZN11xercesc_2_715BaseRefVectorOfINS_12XSAnnotationEE17removeLastElementEv", scope: !908, file: !909, line: 57, type: !950, scopeLine: 57, containingType: !908, virtualIndex: 5, flags: DIFlagPublic | DIFlagPrototyped, spFlags: DISPFlagVirtual)
!968 = !DISubprogram(name: "containsElement", linkageName: "_ZN11xercesc_2_715BaseRefVectorOfINS_12XSAnnotationEE15containsElementEPKS1_", scope: !908, file: !909, line: 58, type: !969, scopeLine: 58, flags: DIFlagPublic | DIFlagPrototyped, spFlags: 0)
!969 = !DISubroutineType(types: !970)
!970 = !{!840, !945, !971}
!971 = !DIDerivedType(tag: DW_TAG_const_type, baseType: !972)
!972 = !DIDerivedType(tag: DW_TAG_pointer_type, baseType: !973, size: 64)
!973 = !DIDerivedType(tag: DW_TAG_const_type, baseType: !461)
!974 = !DISubprogram(name: "cleanup", linkageName: "_ZN11xercesc_2_715BaseRefVectorOfINS_12XSAnnotationEE7cleanupEv", scope: !908, file: !909, line: 59, type: !950, scopeLine: 59, containingType: !908, virtualIndex: 6, flags: DIFlagPublic | DIFlagPrototyped, spFlags: DISPFlagVirtual)
!975 = !DISubprogram(name: "reinitialize", linkageName: "_ZN11xercesc_2_715BaseRefVectorOfINS_12XSAnnotationEE12reinitializeEv", scope: !908, file: !909, line: 60, type: !950, scopeLine: 60, flags: DIFlagPublic | DIFlagPrototyped, spFlags: 0)
!976 = !DISubprogram(name: "curCapacity", linkageName: "_ZNK11xercesc_2_715BaseRefVectorOfINS_12XSAnnotationEE11curCapacityEv", scope: !908, file: !909, line: 66, type: !977, scopeLine: 66, flags: DIFlagPublic | DIFlagPrototyped, spFlags: 0)
!977 = !DISubroutineType(types: !978)
!978 = !{!7, !979}
!979 = !DIDerivedType(tag: DW_TAG_pointer_type, baseType: !980, size: 64, flags: DIFlagArtificial | DIFlagObjectPointer)
!980 = !DIDerivedType(tag: DW_TAG_const_type, baseType: !908)
!981 = !DISubprogram(name: "elementAt", linkageName: "_ZNK11xercesc_2_715BaseRefVectorOfINS_12XSAnnotationEE9elementAtEj", scope: !908, file: !909, line: 67, type: !982, scopeLine: 67, flags: DIFlagPublic | DIFlagPrototyped, spFlags: 0)
!982 = !DISubroutineType(types: !983)
!983 = !{!972, !979, !946}
!984 = !DISubprogram(name: "elementAt", linkageName: "_ZN11xercesc_2_715BaseRefVectorOfINS_12XSAnnotationEE9elementAtEj", scope: !908, file: !909, line: 68, type: !961, scopeLine: 68, flags: DIFlagPublic | DIFlagPrototyped, spFlags: 0)
!985 = !DISubprogram(name: "size", linkageName: "_ZNK11xercesc_2_715BaseRefVectorOfINS_12XSAnnotationEE4sizeEv", scope: !908, file: !909, line: 69, type: !977, scopeLine: 69, flags: DIFlagPublic | DIFlagPrototyped, spFlags: 0)
!986 = !DISubprogram(name: "getMemoryManager", linkageName: "_ZNK11xercesc_2_715BaseRefVectorOfINS_12XSAnnotationEE16getMemoryManagerEv", scope: !908, file: !909, line: 70, type: !987, scopeLine: 70, flags: DIFlagPublic | DIFlagPrototyped, spFlags: 0)
!987 = !DISubroutineType(types: !988)
!988 = !{!919, !979}
!989 = !DISubprogram(name: "ensureExtraCapacity", linkageName: "_ZN11xercesc_2_715BaseRefVectorOfINS_12XSAnnotationEE19ensureExtraCapacityEj", scope: !908, file: !909, line: 76, type: !965, scopeLine: 76, flags: DIFlagPublic | DIFlagPrototyped, spFlags: 0)
!990 = !DISubprogram(name: "BaseRefVectorOf", scope: !908, file: !909, line: 82, type: !991, scopeLine: 82, flags: DIFlagPrototyped, spFlags: 0)
!991 = !DISubroutineType(types: !992)
!992 = !{null, !945, !993}
!993 = !DIDerivedType(tag: DW_TAG_reference_type, baseType: !980, size: 64)
!994 = !DISubprogram(name: "operator=", linkageName: "_ZN11xercesc_2_715BaseRefVectorOfINS_12XSAnnotationEEaSERKS2_", scope: !908, file: !909, line: 83, type: !995, scopeLine: 83, flags: DIFlagPrototyped, spFlags: 0)
!995 = !DISubroutineType(types: !996)
!996 = !{!997, !945, !993}
!997 = !DIDerivedType(tag: DW_TAG_reference_type, baseType: !908, size: 64)
!998 = !{!999}
!999 = !DITemplateTypeParameter(name: "TElem", type: !461)
!1000 = !DISubprogram(name: "RefVectorOf", scope: !904, file: !905, line: 38, type: !1001, scopeLine: 38, flags: DIFlagPublic | DIFlagPrototyped, spFlags: 0)
!1001 = !DISubroutineType(types: !1002)
!1002 = !{null, !1003, !946, !947, !948}
!1003 = !DIDerivedType(tag: DW_TAG_pointer_type, baseType: !904, size: 64, flags: DIFlagArtificial | DIFlagObjectPointer)
!1004 = !DISubprogram(name: "~RefVectorOf", scope: !904, file: !905, line: 45, type: !1005, scopeLine: 45, containingType: !904, virtualIndex: 0, flags: DIFlagPublic | DIFlagPrototyped, spFlags: DISPFlagVirtual)
!1005 = !DISubroutineType(types: !1006)
!1006 = !{null, !1003}
!1007 = !DISubprogram(name: "RefVectorOf", scope: !904, file: !905, line: 51, type: !1008, scopeLine: 51, flags: DIFlagPrototyped, spFlags: 0)
!1008 = !DISubroutineType(types: !1009)
!1009 = !{null, !1003, !1010}
!1010 = !DIDerivedType(tag: DW_TAG_reference_type, baseType: !1011, size: 64)
!1011 = !DIDerivedType(tag: DW_TAG_const_type, baseType: !904)
!1012 = !DISubprogram(name: "operator=", linkageName: "_ZN11xercesc_2_711RefVectorOfINS_12XSAnnotationEEaSERKS2_", scope: !904, file: !905, line: 52, type: !1013, scopeLine: 52, flags: DIFlagPrototyped, spFlags: 0)
!1013 = !DISubroutineType(types: !1014)
!1014 = !{!1015, !1003, !1010}
!1015 = !DIDerivedType(tag: DW_TAG_reference_type, baseType: !904, size: 64)
!1016 = !DISubprogram(name: "XSMultiValueFacet", scope: !888, file: !889, line: 58, type: !1017, scopeLine: 58, flags: DIFlagPublic | DIFlagPrototyped, spFlags: 0)
!1017 = !DISubroutineType(types: !1018)
!1018 = !{null, !1019, !3, !897, !840, !955, !1020, !948}
!1019 = !DIDerivedType(tag: DW_TAG_pointer_type, baseType: !888, size: 64, flags: DIFlagArtificial | DIFlagObjectPointer)
!1020 = !DIDerivedType(tag: DW_TAG_const_type, baseType: !1021)
!1021 = !DIDerivedType(tag: DW_TAG_pointer_type, baseType: !1022, size: 64)
!1022 = !DICompositeType(tag: DW_TAG_class_type, name: "XSModel", scope: !6, file: !893, line: 39, flags: DIFlagFwdDecl, identifier: "_ZTSN11xercesc_2_77XSModelE")
!1023 = !DISubprogram(name: "~XSMultiValueFacet", scope: !888, file: !889, line: 72, type: !1024, scopeLine: 72, containingType: !888, virtualIndex: 0, flags: DIFlagPublic | DIFlagPrototyped, spFlags: DISPFlagVirtual)
!1024 = !DISubroutineType(types: !1025)
!1025 = !{null, !1019}
!1026 = !DISubprogram(name: "getFacetKind", linkageName: "_ZNK11xercesc_2_717XSMultiValueFacet12getFacetKindEv", scope: !888, file: !889, line: 83, type: !1027, scopeLine: 83, flags: DIFlagPublic | DIFlagPrototyped, spFlags: 0)
!1027 = !DISubroutineType(types: !1028)
!1028 = !{!3, !1029}
!1029 = !DIDerivedType(tag: DW_TAG_pointer_type, baseType: !1030, size: 64, flags: DIFlagArtificial | DIFlagObjectPointer)
!1030 = !DIDerivedType(tag: DW_TAG_const_type, baseType: !888)
!1031 = !DISubprogram(name: "getLexicalFacetValues", linkageName: "_ZN11xercesc_2_717XSMultiValueFacet21getLexicalFacetValuesEv", scope: !888, file: !889, line: 88, type: !1032, scopeLine: 88, flags: DIFlagPublic | DIFlagPrototyped, spFlags: 0)
!1032 = !DISubroutineType(types: !1033)
!1033 = !{!897, !1019}
!1034 = !DISubprogram(name: "isFixed", linkageName: "_ZNK11xercesc_2_717XSMultiValueFacet7isFixedEv", scope: !888, file: !889, line: 93, type: !1035, scopeLine: 93, flags: DIFlagPublic | DIFlagPrototyped, spFlags: 0)
!1035 = !DISubroutineType(types: !1036)
!1036 = !{!840, !1029}
!1037 = !DISubprogram(name: "getAnnotations", linkageName: "_ZN11xercesc_2_717XSMultiValueFacet14getAnnotationsEv", scope: !888, file: !889, line: 98, type: !1038, scopeLine: 98, flags: DIFlagPublic | DIFlagPrototyped, spFlags: 0)
!1038 = !DISubroutineType(types: !1039)
!1039 = !{!902, !1019}
!1040 = !DISubprogram(name: "XSMultiValueFacet", scope: !888, file: !889, line: 113, type: !1041, scopeLine: 113, flags: DIFlagPrototyped, spFlags: 0)
!1041 = !DISubroutineType(types: !1042)
!1042 = !{null, !1019, !1043}
!1043 = !DIDerivedType(tag: DW_TAG_reference_type, baseType: !1030, size: 64)
!1044 = !DISubprogram(name: "operator=", linkageName: "_ZN11xercesc_2_717XSMultiValueFacetaSERKS0_", scope: !888, file: !889, line: 114, type: !1045, scopeLine: 114, flags: DIFlagPrototyped, spFlags: 0)
!1045 = !DISubroutineType(types: !1046)
!1046 = !{!1047, !1019, !1043}
!1047 = !DIDerivedType(tag: DW_TAG_reference_type, baseType: !888, size: 64)
!1048 = !DILocalVariable(name: "this", arg: 1, scope: !887, type: !1049, flags: DIFlagArtificial | DIFlagObjectPointer)
!1049 = !DIDerivedType(tag: DW_TAG_pointer_type, baseType: !888, size: 64)
!1050 = !DILocation(line: 0, scope: !887)
!1051 = !DILocalVariable(name: "facetKind", arg: 2, scope: !887, file: !1, line: 29, type: !3)
!1052 = !DILocation(line: 29, column: 68, scope: !887)
!1053 = !DILocalVariable(name: "lexicalValues", arg: 3, scope: !887, file: !1, line: 30, type: !897)
!1054 = !DILocation(line: 30, column: 68, scope: !887)
!1055 = !DILocalVariable(name: "isFixed", arg: 4, scope: !887, file: !1, line: 31, type: !840)
!1056 = !DILocation(line: 31, column: 68, scope: !887)
!1057 = !DILocalVariable(name: "headAnnot", arg: 5, scope: !887, file: !1, line: 32, type: !955)
!1058 = !DILocation(line: 32, column: 68, scope: !887)
!1059 = !DILocalVariable(name: "xsModel", arg: 6, scope: !887, file: !1, line: 33, type: !1020)
!1060 = !DILocation(line: 33, column: 68, scope: !887)
!1061 = !DILocalVariable(name: "manager", arg: 7, scope: !887, file: !1, line: 34, type: !948)
!1062 = !DILocation(line: 34, column: 68, scope: !887)
!1063 = !DILocation(line: 40, column: 1, scope: !887)
!1064 = !DILocation(line: 35, column: 47, scope: !887)
!1065 = !DILocation(line: 35, column: 56, scope: !887)
!1066 = !DILocation(line: 35, column: 7, scope: !887)
!1067 = !DILocation(line: 36, column: 7, scope: !887)
!1068 = !DILocation(line: 36, column: 18, scope: !887)
!1069 = !DILocation(line: 37, column: 7, scope: !887)
!1070 = !DILocation(line: 37, column: 16, scope: !887)
!1071 = !DILocation(line: 38, column: 7, scope: !887)
!1072 = !DILocation(line: 38, column: 22, scope: !887)
!1073 = !DILocation(line: 39, column: 7, scope: !887)
!1074 = !DILocation(line: 41, column: 9, scope: !1075)
!1075 = distinct !DILexicalBlock(scope: !1076, file: !1, line: 41, column: 9)
!1076 = distinct !DILexicalBlock(scope: !887, file: !1, line: 40, column: 1)
!1077 = !DILocation(line: 41, column: 9, scope: !1076)
!1078 = !DILocation(line: 43, column: 34, scope: !1079)
!1079 = distinct !DILexicalBlock(scope: !1075, file: !1, line: 42, column: 5)
!1080 = !DILocation(line: 43, column: 29, scope: !1079)
!1081 = !DILocation(line: 43, column: 79, scope: !1079)
!1082 = !DILocation(line: 43, column: 43, scope: !1079)
!1083 = !DILocation(line: 43, column: 9, scope: !1079)
!1084 = !DILocation(line: 43, column: 27, scope: !1079)
!1085 = !DILocalVariable(name: "annot", scope: !1079, file: !1, line: 45, type: !460)
!1086 = !DILocation(line: 45, column: 23, scope: !1079)
!1087 = !DILocation(line: 45, column: 31, scope: !1079)
!1088 = !DILocation(line: 46, column: 9, scope: !1079)
!1089 = !DILocation(line: 48, column: 13, scope: !1090)
!1090 = distinct !DILexicalBlock(scope: !1079, file: !1, line: 47, column: 9)
!1091 = !DILocation(line: 48, column: 32, scope: !1090)
!1092 = !DILocation(line: 48, column: 43, scope: !1090)
!1093 = !DILocation(line: 49, column: 21, scope: !1090)
!1094 = !DILocation(line: 49, column: 28, scope: !1090)
!1095 = !DILocation(line: 49, column: 19, scope: !1090)
!1096 = !DILocation(line: 50, column: 9, scope: !1090)
!1097 = !DILocation(line: 50, column: 18, scope: !1079)
!1098 = distinct !{!1098, !1088, !1099}
!1099 = !DILocation(line: 50, column: 23, scope: !1079)
!1100 = !DILocation(line: 51, column: 5, scope: !1079)
!1101 = !DILocation(line: 52, column: 1, scope: !1079)
!1102 = !DILocation(line: 52, column: 1, scope: !887)
!1103 = !DILocation(line: 52, column: 1, scope: !1076)
!1104 = distinct !DISubprogram(name: "RefVectorOf", linkageName: "_ZN11xercesc_2_711RefVectorOfINS_12XSAnnotationEEC2EjbPNS_13MemoryManagerE", scope: !904, file: !1105, line: 35, type: !1001, scopeLine: 39, flags: DIFlagPrototyped, spFlags: DISPFlagDefinition, unit: !0, declaration: !1000, retainedNodes: !877)
!1105 = !DIFile(filename: "./xercesc/util/RefVectorOf.c", directory: "/home/venkat/IF-DV/spec_build_release/CPU_2017/benchspec/CPU/523.xalancbmk_r/build/build_base_ld-loop-ext-m64.0000")
!1106 = !DILocalVariable(name: "this", arg: 1, scope: !1104, type: !1107, flags: DIFlagArtificial | DIFlagObjectPointer)
!1107 = !DIDerivedType(tag: DW_TAG_pointer_type, baseType: !904, size: 64)
!1108 = !DILocation(line: 0, scope: !1104)
!1109 = !DILocalVariable(name: "maxElems", arg: 2, scope: !1104, file: !905, line: 38, type: !946)
!1110 = !DILocation(line: 38, column: 36, scope: !1104)
!1111 = !DILocalVariable(name: "adoptElems", arg: 3, scope: !1104, file: !905, line: 39, type: !947)
!1112 = !DILocation(line: 39, column: 28, scope: !1104)
!1113 = !DILocalVariable(name: "manager", arg: 4, scope: !1104, file: !905, line: 40, type: !948)
!1114 = !DILocation(line: 40, column: 38, scope: !1104)
!1115 = !DILocation(line: 39, column: 1, scope: !1104)
!1116 = !DILocation(line: 38, column: 30, scope: !1104)
!1117 = !DILocation(line: 38, column: 40, scope: !1104)
!1118 = !DILocation(line: 38, column: 52, scope: !1104)
!1119 = !DILocation(line: 38, column: 7, scope: !1104)
!1120 = !DILocation(line: 40, column: 1, scope: !1104)
!1121 = distinct !DISubprogram(name: "addElement", linkageName: "_ZN11xercesc_2_715BaseRefVectorOfINS_12XSAnnotationEE10addElementEPS1_", scope: !908, file: !1122, line: 55, type: !953, scopeLine: 56, flags: DIFlagPrototyped, spFlags: DISPFlagDefinition, unit: !0, declaration: !952, retainedNodes: !877)
!1122 = !DIFile(filename: "./xercesc/util/BaseRefVectorOf.c", directory: "/home/venkat/IF-DV/spec_build_release/CPU_2017/benchspec/CPU/523.xalancbmk_r/build/build_base_ld-loop-ext-m64.0000")
!1123 = !DILocalVariable(name: "this", arg: 1, scope: !1121, type: !1124, flags: DIFlagArtificial | DIFlagObjectPointer)
!1124 = !DIDerivedType(tag: DW_TAG_pointer_type, baseType: !908, size: 64)
!1125 = !DILocation(line: 0, scope: !1121)
!1126 = !DILocalVariable(name: "toAdd", arg: 2, scope: !1121, file: !909, line: 51, type: !955)
!1127 = !DILocation(line: 51, column: 34, scope: !1121)
!1128 = !DILocation(line: 57, column: 5, scope: !1121)
!1129 = !DILocation(line: 58, column: 28, scope: !1121)
!1130 = !DILocation(line: 58, column: 5, scope: !1121)
!1131 = !DILocation(line: 58, column: 15, scope: !1121)
!1132 = !DILocation(line: 58, column: 26, scope: !1121)
!1133 = !DILocation(line: 59, column: 5, scope: !1121)
!1134 = !DILocation(line: 59, column: 14, scope: !1121)
!1135 = !DILocation(line: 60, column: 1, scope: !1121)
!1136 = distinct !DISubprogram(name: "~XSMultiValueFacet", linkageName: "_ZN11xercesc_2_717XSMultiValueFacetD2Ev", scope: !888, file: !1, line: 54, type: !1024, scopeLine: 55, flags: DIFlagPrototyped, spFlags: DISPFlagDefinition, unit: !0, declaration: !1023, retainedNodes: !877)
!1137 = !DILocalVariable(name: "this", arg: 1, scope: !1136, type: !1049, flags: DIFlagArtificial | DIFlagObjectPointer)
!1138 = !DILocation(line: 0, scope: !1136)
!1139 = !DILocation(line: 55, column: 1, scope: !1136)
!1140 = !DILocation(line: 56, column: 9, scope: !1141)
!1141 = distinct !DILexicalBlock(scope: !1142, file: !1, line: 56, column: 9)
!1142 = distinct !DILexicalBlock(scope: !1136, file: !1, line: 55, column: 1)
!1143 = !DILocation(line: 56, column: 9, scope: !1142)
!1144 = !DILocation(line: 57, column: 16, scope: !1141)
!1145 = !DILocation(line: 57, column: 9, scope: !1141)
!1146 = !DILocation(line: 58, column: 1, scope: !1142)
!1147 = !DILocation(line: 58, column: 1, scope: !1136)
!1148 = distinct !DISubprogram(name: "~XSMultiValueFacet", linkageName: "_ZN11xercesc_2_717XSMultiValueFacetD0Ev", scope: !888, file: !1, line: 54, type: !1024, scopeLine: 55, flags: DIFlagPrototyped, spFlags: DISPFlagDefinition, unit: !0, declaration: !1023, retainedNodes: !877)
!1149 = !DILocalVariable(name: "this", arg: 1, scope: !1148, type: !1049, flags: DIFlagArtificial | DIFlagObjectPointer)
!1150 = !DILocation(line: 0, scope: !1148)
!1151 = !DILocation(line: 55, column: 1, scope: !1148)
!1152 = !DILocation(line: 58, column: 1, scope: !1148)
!1153 = distinct !DISubprogram(name: "BaseRefVectorOf", linkageName: "_ZN11xercesc_2_715BaseRefVectorOfINS_12XSAnnotationEEC2EjbPNS_13MemoryManagerE", scope: !908, file: !1122, line: 29, type: !943, scopeLine: 38, flags: DIFlagPrototyped, spFlags: DISPFlagDefinition, unit: !0, declaration: !942, retainedNodes: !877)
!1154 = !DILocalVariable(name: "this", arg: 1, scope: !1153, type: !1124, flags: DIFlagArtificial | DIFlagObjectPointer)
!1155 = !DILocation(line: 0, scope: !1153)
!1156 = !DILocalVariable(name: "maxElems", arg: 2, scope: !1153, file: !909, line: 41, type: !946)
!1157 = !DILocation(line: 41, column: 30, scope: !1153)
!1158 = !DILocalVariable(name: "adoptElems", arg: 3, scope: !1153, file: !909, line: 42, type: !947)
!1159 = !DILocation(line: 42, column: 22, scope: !1153)
!1160 = !DILocalVariable(name: "manager", arg: 4, scope: !1153, file: !909, line: 43, type: !948)
!1161 = !DILocation(line: 43, column: 32, scope: !1153)
!1162 = !DILocation(line: 38, column: 1, scope: !1153)
!1163 = !DILocation(line: 39, column: 5, scope: !1164)
!1164 = !DILexicalBlockFile(scope: !1153, file: !909, discriminator: 0)
!1165 = !DILocation(line: 33, column: 5, scope: !1166)
!1166 = !DILexicalBlockFile(scope: !1153, file: !1122, discriminator: 0)
!1167 = !DILocation(line: 33, column: 19, scope: !1166)
!1168 = !DILocation(line: 34, column: 7, scope: !1166)
!1169 = !DILocation(line: 35, column: 7, scope: !1166)
!1170 = !DILocation(line: 35, column: 17, scope: !1166)
!1171 = !DILocation(line: 36, column: 7, scope: !1166)
!1172 = !DILocation(line: 37, column: 7, scope: !1166)
!1173 = !DILocation(line: 37, column: 22, scope: !1166)
!1174 = !DILocation(line: 40, column: 27, scope: !1175)
!1175 = distinct !DILexicalBlock(scope: !1166, file: !1122, line: 38, column: 1)
!1176 = !DILocation(line: 40, column: 52, scope: !1175)
!1177 = !DILocation(line: 40, column: 61, scope: !1175)
!1178 = !DILocation(line: 40, column: 43, scope: !1175)
!1179 = !DILocation(line: 40, column: 17, scope: !1175)
!1180 = !DILocation(line: 40, column: 5, scope: !1175)
!1181 = !DILocation(line: 40, column: 15, scope: !1175)
!1182 = !DILocalVariable(name: "index", scope: !1183, file: !1122, line: 41, type: !7)
!1183 = distinct !DILexicalBlock(scope: !1175, file: !1122, line: 41, column: 5)
!1184 = !DILocation(line: 41, column: 23, scope: !1183)
!1185 = !DILocation(line: 41, column: 10, scope: !1183)
!1186 = !DILocation(line: 41, column: 34, scope: !1187)
!1187 = distinct !DILexicalBlock(scope: !1183, file: !1122, line: 41, column: 5)
!1188 = !DILocation(line: 41, column: 42, scope: !1187)
!1189 = !DILocation(line: 41, column: 40, scope: !1187)
!1190 = !DILocation(line: 41, column: 5, scope: !1183)
!1191 = !DILocation(line: 42, column: 9, scope: !1187)
!1192 = !DILocation(line: 42, column: 19, scope: !1187)
!1193 = !DILocation(line: 42, column: 26, scope: !1187)
!1194 = !DILocation(line: 41, column: 57, scope: !1187)
!1195 = !DILocation(line: 41, column: 5, scope: !1187)
!1196 = distinct !{!1196, !1190, !1197}
!1197 = !DILocation(line: 42, column: 28, scope: !1183)
!1198 = !DILocation(line: 43, column: 1, scope: !1166)
!1199 = distinct !DISubprogram(name: "~RefVectorOf", linkageName: "_ZN11xercesc_2_711RefVectorOfINS_12XSAnnotationEED2Ev", scope: !904, file: !1105, line: 42, type: !1005, scopeLine: 43, flags: DIFlagPrototyped, spFlags: DISPFlagDefinition, unit: !0, declaration: !1004, retainedNodes: !877)
!1200 = !DILocalVariable(name: "this", arg: 1, scope: !1199, type: !1107, flags: DIFlagArtificial | DIFlagObjectPointer)
!1201 = !DILocation(line: 0, scope: !1199)
!1202 = !DILocation(line: 43, column: 1, scope: !1199)
!1203 = !DILocation(line: 44, column: 15, scope: !1204)
!1204 = distinct !DILexicalBlock(scope: !1205, file: !1105, line: 44, column: 9)
!1205 = distinct !DILexicalBlock(scope: !1199, file: !1105, line: 43, column: 1)
!1206 = !DILocation(line: 44, column: 9, scope: !1205)
!1207 = !DILocalVariable(name: "index", scope: !1208, file: !1105, line: 46, type: !7)
!1208 = distinct !DILexicalBlock(scope: !1209, file: !1105, line: 46, column: 8)
!1209 = distinct !DILexicalBlock(scope: !1204, file: !1105, line: 45, column: 5)
!1210 = !DILocation(line: 46, column: 26, scope: !1208)
!1211 = !DILocation(line: 46, column: 13, scope: !1208)
!1212 = !DILocation(line: 46, column: 37, scope: !1213)
!1213 = distinct !DILexicalBlock(scope: !1208, file: !1105, line: 46, column: 8)
!1214 = !DILocation(line: 46, column: 51, scope: !1213)
!1215 = !DILocation(line: 46, column: 43, scope: !1213)
!1216 = !DILocation(line: 46, column: 8, scope: !1208)
!1217 = !DILocation(line: 47, column: 22, scope: !1213)
!1218 = !DILocation(line: 47, column: 32, scope: !1213)
!1219 = !DILocation(line: 47, column: 16, scope: !1213)
!1220 = !DILocation(line: 47, column: 9, scope: !1213)
!1221 = !DILocation(line: 46, column: 67, scope: !1213)
!1222 = !DILocation(line: 46, column: 8, scope: !1213)
!1223 = distinct !{!1223, !1216, !1224}
!1224 = !DILocation(line: 47, column: 37, scope: !1208)
!1225 = !DILocation(line: 48, column: 5, scope: !1209)
!1226 = !DILocation(line: 49, column: 11, scope: !1205)
!1227 = !DILocation(line: 49, column: 44, scope: !1205)
!1228 = !DILocation(line: 49, column: 38, scope: !1205)
!1229 = !DILocation(line: 49, column: 27, scope: !1205)
!1230 = !DILocation(line: 50, column: 1, scope: !1205)
!1231 = !DILocation(line: 50, column: 1, scope: !1199)
!1232 = distinct !DISubprogram(name: "~RefVectorOf", linkageName: "_ZN11xercesc_2_711RefVectorOfINS_12XSAnnotationEED0Ev", scope: !904, file: !1105, line: 42, type: !1005, scopeLine: 43, flags: DIFlagPrototyped, spFlags: DISPFlagDefinition, unit: !0, declaration: !1004, retainedNodes: !877)
!1233 = !DILocalVariable(name: "this", arg: 1, scope: !1232, type: !1107, flags: DIFlagArtificial | DIFlagObjectPointer)
!1234 = !DILocation(line: 0, scope: !1232)
!1235 = !DILocation(line: 43, column: 1, scope: !1232)
!1236 = !DILocation(line: 50, column: 1, scope: !1232)
!1237 = distinct !DISubprogram(name: "setElementAt", linkageName: "_ZN11xercesc_2_715BaseRefVectorOfINS_12XSAnnotationEE12setElementAtEPS1_j", scope: !908, file: !1122, line: 64, type: !957, scopeLine: 65, flags: DIFlagPrototyped, spFlags: DISPFlagDefinition, unit: !0, declaration: !956, retainedNodes: !877)
!1238 = !DILocalVariable(name: "this", arg: 1, scope: !1237, type: !1124, flags: DIFlagArtificial | DIFlagObjectPointer)
!1239 = !DILocation(line: 0, scope: !1237)
!1240 = !DILocalVariable(name: "toSet", arg: 2, scope: !1237, file: !909, line: 52, type: !955)
!1241 = !DILocation(line: 52, column: 44, scope: !1237)
!1242 = !DILocalVariable(name: "setAt", arg: 3, scope: !1237, file: !909, line: 52, type: !946)
!1243 = !DILocation(line: 52, column: 70, scope: !1237)
!1244 = !DILocation(line: 66, column: 9, scope: !1245)
!1245 = distinct !DILexicalBlock(scope: !1237, file: !1122, line: 66, column: 9)
!1246 = !DILocation(line: 66, column: 18, scope: !1245)
!1247 = !DILocation(line: 66, column: 15, scope: !1245)
!1248 = !DILocation(line: 66, column: 9, scope: !1237)
!1249 = !DILocation(line: 67, column: 9, scope: !1245)
!1250 = !DILocation(line: 72, column: 1, scope: !1245)
!1251 = !DILocation(line: 69, column: 9, scope: !1252)
!1252 = distinct !DILexicalBlock(scope: !1237, file: !1122, line: 69, column: 9)
!1253 = !DILocation(line: 69, column: 9, scope: !1237)
!1254 = !DILocation(line: 70, column: 16, scope: !1252)
!1255 = !DILocation(line: 70, column: 26, scope: !1252)
!1256 = !DILocation(line: 70, column: 9, scope: !1252)
!1257 = !DILocation(line: 71, column: 24, scope: !1237)
!1258 = !DILocation(line: 71, column: 5, scope: !1237)
!1259 = !DILocation(line: 71, column: 15, scope: !1237)
!1260 = !DILocation(line: 71, column: 22, scope: !1237)
!1261 = !DILocation(line: 72, column: 1, scope: !1237)
!1262 = distinct !DISubprogram(name: "removeAllElements", linkageName: "_ZN11xercesc_2_715BaseRefVectorOfINS_12XSAnnotationEE17removeAllElementsEv", scope: !908, file: !1122, line: 127, type: !950, scopeLine: 128, flags: DIFlagPrototyped, spFlags: DISPFlagDefinition, unit: !0, declaration: !963, retainedNodes: !877)
!1263 = !DILocalVariable(name: "this", arg: 1, scope: !1262, type: !1124, flags: DIFlagArtificial | DIFlagObjectPointer)
!1264 = !DILocation(line: 0, scope: !1262)
!1265 = !DILocalVariable(name: "index", scope: !1266, file: !1122, line: 129, type: !7)
!1266 = distinct !DILexicalBlock(scope: !1262, file: !1122, line: 129, column: 5)
!1267 = !DILocation(line: 129, column: 23, scope: !1266)
!1268 = !DILocation(line: 129, column: 10, scope: !1266)
!1269 = !DILocation(line: 129, column: 34, scope: !1270)
!1270 = distinct !DILexicalBlock(scope: !1266, file: !1122, line: 129, column: 5)
!1271 = !DILocation(line: 129, column: 42, scope: !1270)
!1272 = !DILocation(line: 129, column: 40, scope: !1270)
!1273 = !DILocation(line: 129, column: 5, scope: !1266)
!1274 = !DILocation(line: 131, column: 13, scope: !1275)
!1275 = distinct !DILexicalBlock(scope: !1276, file: !1122, line: 131, column: 13)
!1276 = distinct !DILexicalBlock(scope: !1270, file: !1122, line: 130, column: 5)
!1277 = !DILocation(line: 131, column: 13, scope: !1276)
!1278 = !DILocation(line: 132, column: 18, scope: !1275)
!1279 = !DILocation(line: 132, column: 28, scope: !1275)
!1280 = !DILocation(line: 132, column: 11, scope: !1275)
!1281 = !DILocation(line: 135, column: 9, scope: !1276)
!1282 = !DILocation(line: 135, column: 19, scope: !1276)
!1283 = !DILocation(line: 135, column: 26, scope: !1276)
!1284 = !DILocation(line: 136, column: 5, scope: !1276)
!1285 = !DILocation(line: 129, column: 58, scope: !1270)
!1286 = !DILocation(line: 129, column: 5, scope: !1270)
!1287 = distinct !{!1287, !1273, !1288}
!1288 = !DILocation(line: 136, column: 5, scope: !1266)
!1289 = !DILocation(line: 137, column: 5, scope: !1262)
!1290 = !DILocation(line: 137, column: 15, scope: !1262)
!1291 = !DILocation(line: 138, column: 1, scope: !1262)
!1292 = distinct !DISubprogram(name: "removeElementAt", linkageName: "_ZN11xercesc_2_715BaseRefVectorOfINS_12XSAnnotationEE15removeElementAtEj", scope: !908, file: !1122, line: 141, type: !965, scopeLine: 142, flags: DIFlagPrototyped, spFlags: DISPFlagDefinition, unit: !0, declaration: !964, retainedNodes: !877)
!1293 = !DILocalVariable(name: "this", arg: 1, scope: !1292, type: !1124, flags: DIFlagArtificial | DIFlagObjectPointer)
!1294 = !DILocation(line: 0, scope: !1292)
!1295 = !DILocalVariable(name: "removeAt", arg: 2, scope: !1292, file: !909, line: 56, type: !946)
!1296 = !DILocation(line: 56, column: 53, scope: !1292)
!1297 = !DILocation(line: 143, column: 9, scope: !1298)
!1298 = distinct !DILexicalBlock(scope: !1292, file: !1122, line: 143, column: 9)
!1299 = !DILocation(line: 143, column: 21, scope: !1298)
!1300 = !DILocation(line: 143, column: 18, scope: !1298)
!1301 = !DILocation(line: 143, column: 9, scope: !1292)
!1302 = !DILocation(line: 144, column: 9, scope: !1298)
!1303 = !DILocation(line: 166, column: 1, scope: !1298)
!1304 = !DILocation(line: 146, column: 9, scope: !1305)
!1305 = distinct !DILexicalBlock(scope: !1292, file: !1122, line: 146, column: 9)
!1306 = !DILocation(line: 146, column: 9, scope: !1292)
!1307 = !DILocation(line: 147, column: 16, scope: !1305)
!1308 = !DILocation(line: 147, column: 26, scope: !1305)
!1309 = !DILocation(line: 147, column: 9, scope: !1305)
!1310 = !DILocation(line: 150, column: 9, scope: !1311)
!1311 = distinct !DILexicalBlock(scope: !1292, file: !1122, line: 150, column: 9)
!1312 = !DILocation(line: 150, column: 21, scope: !1311)
!1313 = !DILocation(line: 150, column: 30, scope: !1311)
!1314 = !DILocation(line: 150, column: 18, scope: !1311)
!1315 = !DILocation(line: 150, column: 9, scope: !1292)
!1316 = !DILocation(line: 152, column: 9, scope: !1317)
!1317 = distinct !DILexicalBlock(scope: !1311, file: !1122, line: 151, column: 5)
!1318 = !DILocation(line: 152, column: 19, scope: !1317)
!1319 = !DILocation(line: 152, column: 29, scope: !1317)
!1320 = !DILocation(line: 153, column: 9, scope: !1317)
!1321 = !DILocation(line: 153, column: 18, scope: !1317)
!1322 = !DILocation(line: 154, column: 9, scope: !1317)
!1323 = !DILocalVariable(name: "index", scope: !1324, file: !1122, line: 158, type: !7)
!1324 = distinct !DILexicalBlock(scope: !1292, file: !1122, line: 158, column: 5)
!1325 = !DILocation(line: 158, column: 23, scope: !1324)
!1326 = !DILocation(line: 158, column: 31, scope: !1324)
!1327 = !DILocation(line: 158, column: 10, scope: !1324)
!1328 = !DILocation(line: 158, column: 41, scope: !1329)
!1329 = distinct !DILexicalBlock(scope: !1324, file: !1122, line: 158, column: 5)
!1330 = !DILocation(line: 158, column: 49, scope: !1329)
!1331 = !DILocation(line: 158, column: 58, scope: !1329)
!1332 = !DILocation(line: 158, column: 47, scope: !1329)
!1333 = !DILocation(line: 158, column: 5, scope: !1324)
!1334 = !DILocation(line: 159, column: 28, scope: !1329)
!1335 = !DILocation(line: 159, column: 38, scope: !1329)
!1336 = !DILocation(line: 159, column: 43, scope: !1329)
!1337 = !DILocation(line: 159, column: 9, scope: !1329)
!1338 = !DILocation(line: 159, column: 19, scope: !1329)
!1339 = !DILocation(line: 159, column: 26, scope: !1329)
!1340 = !DILocation(line: 158, column: 67, scope: !1329)
!1341 = !DILocation(line: 158, column: 5, scope: !1329)
!1342 = distinct !{!1342, !1333, !1343}
!1343 = !DILocation(line: 159, column: 45, scope: !1324)
!1344 = !DILocation(line: 162, column: 5, scope: !1292)
!1345 = !DILocation(line: 162, column: 15, scope: !1292)
!1346 = !DILocation(line: 162, column: 24, scope: !1292)
!1347 = !DILocation(line: 162, column: 28, scope: !1292)
!1348 = !DILocation(line: 165, column: 5, scope: !1292)
!1349 = !DILocation(line: 165, column: 14, scope: !1292)
!1350 = !DILocation(line: 166, column: 1, scope: !1292)
!1351 = distinct !DISubprogram(name: "removeLastElement", linkageName: "_ZN11xercesc_2_715BaseRefVectorOfINS_12XSAnnotationEE17removeLastElementEv", scope: !908, file: !1122, line: 168, type: !950, scopeLine: 169, flags: DIFlagPrototyped, spFlags: DISPFlagDefinition, unit: !0, declaration: !967, retainedNodes: !877)
!1352 = !DILocalVariable(name: "this", arg: 1, scope: !1351, type: !1124, flags: DIFlagArtificial | DIFlagObjectPointer)
!1353 = !DILocation(line: 0, scope: !1351)
!1354 = !DILocation(line: 170, column: 10, scope: !1355)
!1355 = distinct !DILexicalBlock(scope: !1351, file: !1122, line: 170, column: 9)
!1356 = !DILocation(line: 170, column: 9, scope: !1351)
!1357 = !DILocation(line: 171, column: 9, scope: !1355)
!1358 = !DILocation(line: 172, column: 5, scope: !1351)
!1359 = !DILocation(line: 172, column: 14, scope: !1351)
!1360 = !DILocation(line: 174, column: 9, scope: !1361)
!1361 = distinct !DILexicalBlock(scope: !1351, file: !1122, line: 174, column: 9)
!1362 = !DILocation(line: 174, column: 9, scope: !1351)
!1363 = !DILocation(line: 175, column: 16, scope: !1361)
!1364 = !DILocation(line: 175, column: 26, scope: !1361)
!1365 = !DILocation(line: 175, column: 9, scope: !1361)
!1366 = !DILocation(line: 176, column: 1, scope: !1351)
!1367 = distinct !DISubprogram(name: "cleanup", linkageName: "_ZN11xercesc_2_715BaseRefVectorOfINS_12XSAnnotationEE7cleanupEv", scope: !908, file: !1122, line: 195, type: !950, scopeLine: 196, flags: DIFlagPrototyped, spFlags: DISPFlagDefinition, unit: !0, declaration: !974, retainedNodes: !877)
!1368 = !DILocalVariable(name: "this", arg: 1, scope: !1367, type: !1124, flags: DIFlagArtificial | DIFlagObjectPointer)
!1369 = !DILocation(line: 0, scope: !1367)
!1370 = !DILocation(line: 197, column: 9, scope: !1371)
!1371 = distinct !DILexicalBlock(scope: !1367, file: !1122, line: 197, column: 9)
!1372 = !DILocation(line: 197, column: 9, scope: !1367)
!1373 = !DILocalVariable(name: "index", scope: !1374, file: !1122, line: 199, type: !7)
!1374 = distinct !DILexicalBlock(scope: !1375, file: !1122, line: 199, column: 9)
!1375 = distinct !DILexicalBlock(scope: !1371, file: !1122, line: 198, column: 5)
!1376 = !DILocation(line: 199, column: 27, scope: !1374)
!1377 = !DILocation(line: 199, column: 14, scope: !1374)
!1378 = !DILocation(line: 199, column: 38, scope: !1379)
!1379 = distinct !DILexicalBlock(scope: !1374, file: !1122, line: 199, column: 9)
!1380 = !DILocation(line: 199, column: 46, scope: !1379)
!1381 = !DILocation(line: 199, column: 44, scope: !1379)
!1382 = !DILocation(line: 199, column: 9, scope: !1374)
!1383 = !DILocation(line: 200, column: 20, scope: !1379)
!1384 = !DILocation(line: 200, column: 30, scope: !1379)
!1385 = !DILocation(line: 200, column: 13, scope: !1379)
!1386 = !DILocation(line: 199, column: 62, scope: !1379)
!1387 = !DILocation(line: 199, column: 9, scope: !1379)
!1388 = distinct !{!1388, !1382, !1389}
!1389 = !DILocation(line: 200, column: 35, scope: !1374)
!1390 = !DILocation(line: 201, column: 5, scope: !1375)
!1391 = !DILocation(line: 202, column: 5, scope: !1367)
!1392 = !DILocation(line: 202, column: 32, scope: !1367)
!1393 = !DILocation(line: 202, column: 21, scope: !1367)
!1394 = !DILocation(line: 203, column: 1, scope: !1367)
!1395 = distinct !DISubprogram(name: "XMemory", linkageName: "_ZN11xercesc_2_77XMemoryC2Ev", scope: !912, file: !913, line: 130, type: !933, scopeLine: 131, flags: DIFlagPrototyped, spFlags: DISPFlagDefinition, unit: !0, declaration: !932, retainedNodes: !877)
!1396 = !DILocalVariable(name: "this", arg: 1, scope: !1395, type: !1397, flags: DIFlagArtificial | DIFlagObjectPointer)
!1397 = !DIDerivedType(tag: DW_TAG_pointer_type, baseType: !912, size: 64)
!1398 = !DILocation(line: 0, scope: !1395)
!1399 = !DILocation(line: 132, column: 5, scope: !1395)
!1400 = distinct !DISubprogram(name: "~BaseRefVectorOf", linkageName: "_ZN11xercesc_2_715BaseRefVectorOfINS_12XSAnnotationEED2Ev", scope: !908, file: !1122, line: 47, type: !950, scopeLine: 48, flags: DIFlagPrototyped, spFlags: DISPFlagDefinition, unit: !0, declaration: !949, retainedNodes: !877)
!1401 = !DILocalVariable(name: "this", arg: 1, scope: !1400, type: !1124, flags: DIFlagArtificial | DIFlagObjectPointer)
!1402 = !DILocation(line: 0, scope: !1400)
!1403 = !DILocation(line: 49, column: 1, scope: !1400)
!1404 = distinct !DISubprogram(name: "~BaseRefVectorOf", linkageName: "_ZN11xercesc_2_715BaseRefVectorOfINS_12XSAnnotationEED0Ev", scope: !908, file: !1122, line: 47, type: !950, scopeLine: 48, flags: DIFlagPrototyped, spFlags: DISPFlagDefinition, unit: !0, declaration: !949, retainedNodes: !877)
!1405 = !DILocalVariable(name: "this", arg: 1, scope: !1404, type: !1124, flags: DIFlagArtificial | DIFlagObjectPointer)
!1406 = !DILocation(line: 0, scope: !1404)
!1407 = !DILocation(line: 48, column: 1, scope: !1404)
!1408 = !DILocation(line: 49, column: 1, scope: !1404)
!1409 = distinct !DISubprogram(name: "ArrayIndexOutOfBoundsException", linkageName: "_ZN11xercesc_2_730ArrayIndexOutOfBoundsExceptionC2EPKcjNS_10XMLExcepts5CodesEPNS_13MemoryManagerE", scope: !1411, file: !1410, line: 28, type: !1417, scopeLine: 28, flags: DIFlagPrototyped, spFlags: DISPFlagDefinition, unit: !0, declaration: !1416, retainedNodes: !877)
!1410 = !DIFile(filename: "./xercesc/util/ArrayIndexOutOfBoundsException.hpp", directory: "/home/venkat/IF-DV/spec_build_release/CPU_2017/benchspec/CPU/523.xalancbmk_r/build/build_base_ld-loop-ext-m64.0000")
!1411 = distinct !DICompositeType(tag: DW_TAG_class_type, name: "ArrayIndexOutOfBoundsException", scope: !6, file: !1410, line: 28, size: 384, flags: DIFlagTypePassByReference | DIFlagNonTrivial, elements: !1412, vtableHolder: !1414, identifier: "_ZTSN11xercesc_2_730ArrayIndexOutOfBoundsExceptionE")
!1412 = !{!1413, !1416, !1422, !1427, !1436, !1439, !1442, !1446, !1451, !1454}
!1413 = !DIDerivedType(tag: DW_TAG_inheritance, scope: !1411, baseType: !1414, flags: DIFlagPublic, extraData: i32 0)
!1414 = !DICompositeType(tag: DW_TAG_class_type, name: "XMLException", scope: !6, file: !1415, line: 40, flags: DIFlagFwdDecl)
!1415 = !DIFile(filename: "./xercesc/util/XMLException.hpp", directory: "/home/venkat/IF-DV/spec_build_release/CPU_2017/benchspec/CPU/523.xalancbmk_r/build/build_base_ld-loop-ext-m64.0000")
!1416 = !DISubprogram(name: "ArrayIndexOutOfBoundsException", scope: !1411, file: !1410, line: 28, type: !1417, scopeLine: 28, flags: DIFlagPublic | DIFlagPrototyped, spFlags: 0)
!1417 = !DISubroutineType(types: !1418)
!1418 = !{null, !1419, !1420, !946, !1421, !919}
!1419 = !DIDerivedType(tag: DW_TAG_pointer_type, baseType: !1411, size: 64, flags: DIFlagArtificial | DIFlagObjectPointer)
!1420 = !DIDerivedType(tag: DW_TAG_const_type, baseType: !501)
!1421 = !DIDerivedType(tag: DW_TAG_const_type, baseType: !45)
!1422 = !DISubprogram(name: "ArrayIndexOutOfBoundsException", scope: !1411, file: !1410, line: 28, type: !1423, scopeLine: 28, flags: DIFlagPublic | DIFlagPrototyped, spFlags: 0)
!1423 = !DISubroutineType(types: !1424)
!1424 = !{null, !1419, !1425}
!1425 = !DIDerivedType(tag: DW_TAG_reference_type, baseType: !1426, size: 64)
!1426 = !DIDerivedType(tag: DW_TAG_const_type, baseType: !1411)
!1427 = !DISubprogram(name: "ArrayIndexOutOfBoundsException", scope: !1411, file: !1410, line: 28, type: !1428, scopeLine: 28, flags: DIFlagPublic | DIFlagPrototyped, spFlags: 0)
!1428 = !DISubroutineType(types: !1429)
!1429 = !{null, !1419, !1420, !946, !1421, !1430, !1430, !1430, !1430, !919}
!1430 = !DIDerivedType(tag: DW_TAG_const_type, baseType: !1431)
!1431 = !DIDerivedType(tag: DW_TAG_pointer_type, baseType: !1432, size: 64)
!1432 = !DIDerivedType(tag: DW_TAG_const_type, baseType: !1433)
!1433 = !DIDerivedType(tag: DW_TAG_typedef, name: "XMLCh", file: !1434, line: 67, baseType: !1435)
!1434 = !DIFile(filename: "./xercesc/util/Compilers/GCCDefs.hpp", directory: "/home/venkat/IF-DV/spec_build_release/CPU_2017/benchspec/CPU/523.xalancbmk_r/build/build_base_ld-loop-ext-m64.0000")
!1435 = !DIBasicType(name: "unsigned short", size: 16, encoding: DW_ATE_unsigned)
!1436 = !DISubprogram(name: "ArrayIndexOutOfBoundsException", scope: !1411, file: !1410, line: 28, type: !1437, scopeLine: 28, flags: DIFlagPublic | DIFlagPrototyped, spFlags: 0)
!1437 = !DISubroutineType(types: !1438)
!1438 = !{null, !1419, !1420, !946, !1421, !1420, !1420, !1420, !1420, !919}
!1439 = !DISubprogram(name: "~ArrayIndexOutOfBoundsException", scope: !1411, file: !1410, line: 28, type: !1440, scopeLine: 28, containingType: !1411, virtualIndex: 0, flags: DIFlagPublic | DIFlagPrototyped, spFlags: DISPFlagVirtual)
!1440 = !DISubroutineType(types: !1441)
!1441 = !{null, !1419}
!1442 = !DISubprogram(name: "operator=", linkageName: "_ZN11xercesc_2_730ArrayIndexOutOfBoundsExceptionaSERKS0_", scope: !1411, file: !1410, line: 28, type: !1443, scopeLine: 28, flags: DIFlagPublic | DIFlagPrototyped, spFlags: 0)
!1443 = !DISubroutineType(types: !1444)
!1444 = !{!1445, !1419, !1425}
!1445 = !DIDerivedType(tag: DW_TAG_reference_type, baseType: !1411, size: 64)
!1446 = !DISubprogram(name: "duplicate", linkageName: "_ZNK11xercesc_2_730ArrayIndexOutOfBoundsException9duplicateEv", scope: !1411, file: !1410, line: 28, type: !1447, scopeLine: 28, containingType: !1411, virtualIndex: 3, flags: DIFlagPublic | DIFlagPrototyped, spFlags: DISPFlagVirtual)
!1447 = !DISubroutineType(types: !1448)
!1448 = !{!1449, !1450}
!1449 = !DIDerivedType(tag: DW_TAG_pointer_type, baseType: !1414, size: 64)
!1450 = !DIDerivedType(tag: DW_TAG_pointer_type, baseType: !1426, size: 64, flags: DIFlagArtificial | DIFlagObjectPointer)
!1451 = !DISubprogram(name: "getType", linkageName: "_ZNK11xercesc_2_730ArrayIndexOutOfBoundsException7getTypeEv", scope: !1411, file: !1410, line: 28, type: !1452, scopeLine: 28, containingType: !1411, virtualIndex: 2, flags: DIFlagPublic | DIFlagPrototyped, spFlags: DISPFlagVirtual)
!1452 = !DISubroutineType(types: !1453)
!1453 = !{!1431, !1450}
!1454 = !DISubprogram(name: "ArrayIndexOutOfBoundsException", scope: !1411, file: !1410, line: 28, type: !1440, scopeLine: 28, flags: DIFlagPrototyped, spFlags: 0)
!1455 = !DILocalVariable(name: "this", arg: 1, scope: !1409, type: !1456, flags: DIFlagArtificial | DIFlagObjectPointer)
!1456 = !DIDerivedType(tag: DW_TAG_pointer_type, baseType: !1411, size: 64)
!1457 = !DILocation(line: 0, scope: !1409)
!1458 = !DILocalVariable(name: "srcFile", arg: 2, scope: !1409, file: !1410, line: 28, type: !1420)
!1459 = !DILocation(line: 28, column: 1, scope: !1409)
!1460 = !DILocalVariable(name: "srcLine", arg: 3, scope: !1409, file: !1410, line: 28, type: !946)
!1461 = !DILocalVariable(name: "toThrow", arg: 4, scope: !1409, file: !1410, line: 28, type: !1421)
!1462 = !DILocalVariable(name: "memoryManager", arg: 5, scope: !1409, file: !1410, line: 28, type: !919)
!1463 = !DILocation(line: 28, column: 1, scope: !1464)
!1464 = distinct !DILexicalBlock(scope: !1409, file: !1410, line: 28, column: 1)
!1465 = distinct !DISubprogram(name: "~ArrayIndexOutOfBoundsException", linkageName: "_ZN11xercesc_2_730ArrayIndexOutOfBoundsExceptionD2Ev", scope: !1411, file: !1410, line: 28, type: !1440, scopeLine: 28, flags: DIFlagPrototyped, spFlags: DISPFlagDefinition, unit: !0, declaration: !1439, retainedNodes: !877)
!1466 = !DILocalVariable(name: "this", arg: 1, scope: !1465, type: !1456, flags: DIFlagArtificial | DIFlagObjectPointer)
!1467 = !DILocation(line: 0, scope: !1465)
!1468 = !DILocation(line: 28, column: 1, scope: !1469)
!1469 = distinct !DILexicalBlock(scope: !1465, file: !1410, line: 28, column: 1)
!1470 = !DILocation(line: 28, column: 1, scope: !1465)
!1471 = distinct !DISubprogram(name: "~ArrayIndexOutOfBoundsException", linkageName: "_ZN11xercesc_2_730ArrayIndexOutOfBoundsExceptionD0Ev", scope: !1411, file: !1410, line: 28, type: !1440, scopeLine: 28, flags: DIFlagPrototyped, spFlags: DISPFlagDefinition, unit: !0, declaration: !1439, retainedNodes: !877)
!1472 = !DILocalVariable(name: "this", arg: 1, scope: !1471, type: !1456, flags: DIFlagArtificial | DIFlagObjectPointer)
!1473 = !DILocation(line: 0, scope: !1471)
!1474 = !DILocation(line: 28, column: 1, scope: !1471)
!1475 = distinct !DISubprogram(name: "getType", linkageName: "_ZNK11xercesc_2_730ArrayIndexOutOfBoundsException7getTypeEv", scope: !1411, file: !1410, line: 28, type: !1452, scopeLine: 28, flags: DIFlagPrototyped, spFlags: DISPFlagDefinition, unit: !0, declaration: !1451, retainedNodes: !877)
!1476 = !DILocalVariable(name: "this", arg: 1, scope: !1475, type: !1477, flags: DIFlagArtificial | DIFlagObjectPointer)
!1477 = !DIDerivedType(tag: DW_TAG_pointer_type, baseType: !1426, size: 64)
!1478 = !DILocation(line: 0, scope: !1475)
!1479 = !DILocation(line: 28, column: 1, scope: !1475)
!1480 = distinct !DISubprogram(name: "duplicate", linkageName: "_ZNK11xercesc_2_730ArrayIndexOutOfBoundsException9duplicateEv", scope: !1411, file: !1410, line: 28, type: !1447, scopeLine: 28, flags: DIFlagPrototyped, spFlags: DISPFlagDefinition, unit: !0, declaration: !1446, retainedNodes: !877)
!1481 = !DILocalVariable(name: "this", arg: 1, scope: !1480, type: !1477, flags: DIFlagArtificial | DIFlagObjectPointer)
!1482 = !DILocation(line: 0, scope: !1480)
!1483 = !DILocation(line: 28, column: 1, scope: !1480)
!1484 = distinct !DISubprogram(name: "ArrayIndexOutOfBoundsException", linkageName: "_ZN11xercesc_2_730ArrayIndexOutOfBoundsExceptionC2ERKS0_", scope: !1411, file: !1410, line: 28, type: !1423, scopeLine: 28, flags: DIFlagPrototyped, spFlags: DISPFlagDefinition, unit: !0, declaration: !1422, retainedNodes: !877)
!1485 = !DILocalVariable(name: "this", arg: 1, scope: !1484, type: !1456, flags: DIFlagArtificial | DIFlagObjectPointer)
!1486 = !DILocation(line: 0, scope: !1484)
!1487 = !DILocalVariable(name: "toCopy", arg: 2, scope: !1484, file: !1410, line: 28, type: !1425)
!1488 = !DILocation(line: 28, column: 1, scope: !1484)
!1489 = distinct !DISubprogram(name: "ensureExtraCapacity", linkageName: "_ZN11xercesc_2_715BaseRefVectorOfINS_12XSAnnotationEE19ensureExtraCapacityEj", scope: !908, file: !1122, line: 263, type: !965, scopeLine: 264, flags: DIFlagPrototyped, spFlags: DISPFlagDefinition, unit: !0, declaration: !989, retainedNodes: !877)
!1490 = !DILocalVariable(name: "this", arg: 1, scope: !1489, type: !1124, flags: DIFlagArtificial | DIFlagObjectPointer)
!1491 = !DILocation(line: 0, scope: !1489)
!1492 = !DILocalVariable(name: "length", arg: 2, scope: !1489, file: !909, line: 76, type: !946)
!1493 = !DILocation(line: 76, column: 49, scope: !1489)
!1494 = !DILocalVariable(name: "newMax", scope: !1489, file: !1122, line: 265, type: !7)
!1495 = !DILocation(line: 265, column: 18, scope: !1489)
!1496 = !DILocation(line: 265, column: 27, scope: !1489)
!1497 = !DILocation(line: 265, column: 39, scope: !1489)
!1498 = !DILocation(line: 265, column: 37, scope: !1489)
!1499 = !DILocation(line: 267, column: 9, scope: !1500)
!1500 = distinct !DILexicalBlock(scope: !1489, file: !1122, line: 267, column: 9)
!1501 = !DILocation(line: 267, column: 19, scope: !1500)
!1502 = !DILocation(line: 267, column: 16, scope: !1500)
!1503 = !DILocation(line: 267, column: 9, scope: !1489)
!1504 = !DILocation(line: 268, column: 9, scope: !1500)
!1505 = !DILocation(line: 272, column: 9, scope: !1506)
!1506 = distinct !DILexicalBlock(scope: !1489, file: !1122, line: 272, column: 9)
!1507 = !DILocation(line: 272, column: 18, scope: !1506)
!1508 = !DILocation(line: 272, column: 30, scope: !1506)
!1509 = !DILocation(line: 272, column: 39, scope: !1506)
!1510 = !DILocation(line: 272, column: 28, scope: !1506)
!1511 = !DILocation(line: 272, column: 16, scope: !1506)
!1512 = !DILocation(line: 272, column: 9, scope: !1489)
!1513 = !DILocation(line: 273, column: 18, scope: !1506)
!1514 = !DILocation(line: 273, column: 30, scope: !1506)
!1515 = !DILocation(line: 273, column: 39, scope: !1506)
!1516 = !DILocation(line: 273, column: 28, scope: !1506)
!1517 = !DILocation(line: 273, column: 16, scope: !1506)
!1518 = !DILocation(line: 273, column: 9, scope: !1506)
!1519 = !DILocalVariable(name: "newList", scope: !1489, file: !1122, line: 276, type: !459)
!1520 = !DILocation(line: 276, column: 13, scope: !1489)
!1521 = !DILocation(line: 276, column: 33, scope: !1489)
!1522 = !DILocation(line: 278, column: 9, scope: !1489)
!1523 = !DILocation(line: 278, column: 16, scope: !1489)
!1524 = !DILocation(line: 276, column: 49, scope: !1489)
!1525 = !DILocation(line: 276, column: 23, scope: !1489)
!1526 = !DILocalVariable(name: "index", scope: !1489, file: !1122, line: 280, type: !7)
!1527 = !DILocation(line: 280, column: 18, scope: !1489)
!1528 = !DILocation(line: 281, column: 5, scope: !1489)
!1529 = !DILocation(line: 281, column: 12, scope: !1530)
!1530 = distinct !DILexicalBlock(scope: !1531, file: !1122, line: 281, column: 5)
!1531 = distinct !DILexicalBlock(scope: !1489, file: !1122, line: 281, column: 5)
!1532 = !DILocation(line: 281, column: 20, scope: !1530)
!1533 = !DILocation(line: 281, column: 18, scope: !1530)
!1534 = !DILocation(line: 281, column: 5, scope: !1531)
!1535 = !DILocation(line: 282, column: 26, scope: !1530)
!1536 = !DILocation(line: 282, column: 36, scope: !1530)
!1537 = !DILocation(line: 282, column: 9, scope: !1530)
!1538 = !DILocation(line: 282, column: 17, scope: !1530)
!1539 = !DILocation(line: 282, column: 24, scope: !1530)
!1540 = !DILocation(line: 281, column: 36, scope: !1530)
!1541 = !DILocation(line: 281, column: 5, scope: !1530)
!1542 = distinct !{!1542, !1534, !1543}
!1543 = !DILocation(line: 282, column: 41, scope: !1531)
!1544 = !DILocation(line: 285, column: 5, scope: !1489)
!1545 = !DILocation(line: 285, column: 12, scope: !1546)
!1546 = distinct !DILexicalBlock(scope: !1547, file: !1122, line: 285, column: 5)
!1547 = distinct !DILexicalBlock(scope: !1489, file: !1122, line: 285, column: 5)
!1548 = !DILocation(line: 285, column: 20, scope: !1546)
!1549 = !DILocation(line: 285, column: 18, scope: !1546)
!1550 = !DILocation(line: 285, column: 5, scope: !1547)
!1551 = !DILocation(line: 286, column: 9, scope: !1546)
!1552 = !DILocation(line: 286, column: 17, scope: !1546)
!1553 = !DILocation(line: 286, column: 24, scope: !1546)
!1554 = !DILocation(line: 285, column: 33, scope: !1546)
!1555 = !DILocation(line: 285, column: 5, scope: !1546)
!1556 = distinct !{!1556, !1550, !1557}
!1557 = !DILocation(line: 286, column: 26, scope: !1547)
!1558 = !DILocation(line: 289, column: 5, scope: !1489)
!1559 = !DILocation(line: 289, column: 32, scope: !1489)
!1560 = !DILocation(line: 289, column: 21, scope: !1489)
!1561 = !DILocation(line: 290, column: 17, scope: !1489)
!1562 = !DILocation(line: 290, column: 5, scope: !1489)
!1563 = !DILocation(line: 290, column: 15, scope: !1489)
!1564 = !DILocation(line: 291, column: 17, scope: !1489)
!1565 = !DILocation(line: 291, column: 5, scope: !1489)
!1566 = !DILocation(line: 291, column: 15, scope: !1489)
!1567 = !DILocation(line: 292, column: 1, scope: !1489)
