; ModuleID = 'ComplexTypeInfo.cpp'
source_filename = "ComplexTypeInfo.cpp"
target datalayout = "e-m:e-p270:32:32-p271:32:32-p272:64:64-i64:64-f80:128-n8:16:32:64-S128"
target triple = "x86_64-unknown-linux-gnu"

%"class.xercesc_2_7::XMLRegisterCleanup" = type { void ()*, %"class.xercesc_2_7::XMLRegisterCleanup"*, %"class.xercesc_2_7::XMLRegisterCleanup"* }
%"class.xercesc_2_7::ComplexTypeInfo" = type { %"class.xercesc_2_7::XSerializable", i8, i8, i8, i8, i8, i32, i32, i32, i32, i32, i32, i32, i32, i16*, i16*, i16*, %"class.xercesc_2_7::DatatypeValidator"*, %"class.xercesc_2_7::DatatypeValidator"*, %"class.xercesc_2_7::ComplexTypeInfo"*, %"class.xercesc_2_7::ContentSpecNode"*, %"class.xercesc_2_7::SchemaAttDef"*, %"class.xercesc_2_7::SchemaAttDefList"*, %"class.xercesc_2_7::RefVectorOf.3"*, %"class.xercesc_2_7::RefHash2KeysTableOf"*, %"class.xercesc_2_7::XMLContentModel"*, i16*, i32*, %"class.xercesc_2_7::XSDLocator"*, %"class.xercesc_2_7::MemoryManager"* }
%"class.xercesc_2_7::XSerializable" = type { i32 (...)** }
%"class.xercesc_2_7::DatatypeValidator" = type { %"class.xercesc_2_7::XSerializable", i8, i8, i8, i8, i16, i32, i32, i32, i32, i32, %"class.xercesc_2_7::DatatypeValidator"*, %"class.xercesc_2_7::RefHashTableOf.0"*, i16*, %"class.xercesc_2_7::RegularExpression"*, i16*, i16*, i16*, %"class.xercesc_2_7::MemoryManager"* }
%"class.xercesc_2_7::RefHashTableOf.0" = type opaque
%"class.xercesc_2_7::RegularExpression" = type { i8, i8, i32, i32, i32, i32, %"class.xercesc_2_7::BMPattern"*, i16*, i16*, %"class.xercesc_2_7::Op"*, %"class.xercesc_2_7::Token"*, %"class.xercesc_2_7::RangeToken"*, %"class.xercesc_2_7::OpFactory", %"class.xercesc_2_7::TokenFactory"*, %"class.xercesc_2_7::MemoryManager"* }
%"class.xercesc_2_7::BMPattern" = type { i8, i32, i32*, i16*, i16*, %"class.xercesc_2_7::MemoryManager"* }
%"class.xercesc_2_7::Op" = type { i32 (...)**, %"class.xercesc_2_7::MemoryManager"*, i16, %"class.xercesc_2_7::Op"* }
%"class.xercesc_2_7::Token" = type { i32 (...)**, i16, %"class.xercesc_2_7::MemoryManager"* }
%"class.xercesc_2_7::RangeToken" = type opaque
%"class.xercesc_2_7::OpFactory" = type { %"class.xercesc_2_7::RefVectorOf"*, %"class.xercesc_2_7::MemoryManager"* }
%"class.xercesc_2_7::RefVectorOf" = type { %"class.xercesc_2_7::BaseRefVectorOf" }
%"class.xercesc_2_7::BaseRefVectorOf" = type { i32 (...)**, i8, i32, i32, %"class.xercesc_2_7::Op"**, %"class.xercesc_2_7::MemoryManager"* }
%"class.xercesc_2_7::TokenFactory" = type { %"class.xercesc_2_7::RefVectorOf.1"*, %"class.xercesc_2_7::Token"*, %"class.xercesc_2_7::Token"*, %"class.xercesc_2_7::Token"*, %"class.xercesc_2_7::Token"*, %"class.xercesc_2_7::Token"*, %"class.xercesc_2_7::Token"*, %"class.xercesc_2_7::Token"*, %"class.xercesc_2_7::Token"*, %"class.xercesc_2_7::Token"*, %"class.xercesc_2_7::Token"*, %"class.xercesc_2_7::Token"*, %"class.xercesc_2_7::Token"*, %"class.xercesc_2_7::Token"*, %"class.xercesc_2_7::Token"*, %"class.xercesc_2_7::MemoryManager"* }
%"class.xercesc_2_7::RefVectorOf.1" = type opaque
%"class.xercesc_2_7::ContentSpecNode" = type { %"class.xercesc_2_7::XSerializable", %"class.xercesc_2_7::MemoryManager"*, %"class.xercesc_2_7::QName"*, %"class.xercesc_2_7::XMLElementDecl"*, %"class.xercesc_2_7::ContentSpecNode"*, %"class.xercesc_2_7::ContentSpecNode"*, i32, i8, i8, i32, i32 }
%"class.xercesc_2_7::QName" = type { %"class.xercesc_2_7::XSerializable", i32, i32, i32, i32, i16*, i16*, i16*, %"class.xercesc_2_7::MemoryManager"* }
%"class.xercesc_2_7::XMLElementDecl" = type <{ %"class.xercesc_2_7::XSerializable", %"class.xercesc_2_7::MemoryManager"*, %"class.xercesc_2_7::QName"*, i32, i32, i8, [7 x i8] }>
%"class.xercesc_2_7::SchemaAttDef" = type { %"class.xercesc_2_7::XMLAttDef", i32, i32, i32, i32, %"class.xercesc_2_7::QName"*, %"class.xercesc_2_7::DatatypeValidator"*, %"class.xercesc_2_7::DatatypeValidator"*, %"class.xercesc_2_7::DatatypeValidator"*, %"class.xercesc_2_7::ValueVectorOf.2"*, %"class.xercesc_2_7::SchemaAttDef"* }
%"class.xercesc_2_7::XMLAttDef" = type { %"class.xercesc_2_7::XSerializable", i32, i32, i32, i8, i8, i32, i16*, i16*, %"class.xercesc_2_7::MemoryManager"* }
%"class.xercesc_2_7::ValueVectorOf.2" = type { i8, i32, i32, i32*, %"class.xercesc_2_7::MemoryManager"* }
%"class.xercesc_2_7::SchemaAttDefList" = type { %"class.xercesc_2_7::XMLAttDefList", %"class.xercesc_2_7::RefHash2KeysTableOfEnumerator"*, %"class.xercesc_2_7::RefHash2KeysTableOf"*, %"class.xercesc_2_7::SchemaAttDef"**, i32, i32 }
%"class.xercesc_2_7::XMLAttDefList" = type { %"class.xercesc_2_7::XSerializable", %"class.xercesc_2_7::MemoryManager"* }
%"class.xercesc_2_7::RefHash2KeysTableOfEnumerator" = type { %"class.xercesc_2_7::XMLEnumerator", i8, %"struct.xercesc_2_7::RefHash2KeysTableBucketElem"*, i32, %"class.xercesc_2_7::RefHash2KeysTableOf"*, %"class.xercesc_2_7::MemoryManager"*, i8* }
%"class.xercesc_2_7::XMLEnumerator" = type { i32 (...)** }
%"struct.xercesc_2_7::RefHash2KeysTableBucketElem" = type <{ %"class.xercesc_2_7::SchemaAttDef"*, %"struct.xercesc_2_7::RefHash2KeysTableBucketElem"*, i8*, i32, [4 x i8] }>
%"class.xercesc_2_7::RefVectorOf.3" = type { %"class.xercesc_2_7::BaseRefVectorOf.4" }
%"class.xercesc_2_7::BaseRefVectorOf.4" = type { i32 (...)**, i8, i32, i32, %"class.xercesc_2_7::SchemaElementDecl"**, %"class.xercesc_2_7::MemoryManager"* }
%"class.xercesc_2_7::SchemaElementDecl" = type <{ %"class.xercesc_2_7::XMLElementDecl.base", [3 x i8], i32, i32, i32, i32, i32, i32, i32, i32, [4 x i8], i16*, %"class.xercesc_2_7::ComplexTypeInfo"*, %"class.xercesc_2_7::RefHash2KeysTableOf"*, %"class.xercesc_2_7::ComplexTypeInfo"*, %"class.xercesc_2_7::DatatypeValidator"*, %"class.xercesc_2_7::RefVectorOf.5"*, %"class.xercesc_2_7::SchemaAttDef"*, %"class.xercesc_2_7::SchemaElementDecl"*, %"class.xercesc_2_7::DatatypeValidator"*, i8, i8, i8, [5 x i8] }>
%"class.xercesc_2_7::XMLElementDecl.base" = type <{ %"class.xercesc_2_7::XSerializable", %"class.xercesc_2_7::MemoryManager"*, %"class.xercesc_2_7::QName"*, i32, i32, i8 }>
%"class.xercesc_2_7::RefVectorOf.5" = type { %"class.xercesc_2_7::BaseRefVectorOf.6" }
%"class.xercesc_2_7::BaseRefVectorOf.6" = type { i32 (...)**, i8, i32, i32, %"class.xercesc_2_7::IdentityConstraint"**, %"class.xercesc_2_7::MemoryManager"* }
%"class.xercesc_2_7::IdentityConstraint" = type <{ %"class.xercesc_2_7::XSerializable", i16*, i16*, %"class.xercesc_2_7::IC_Selector"*, %"class.xercesc_2_7::RefVectorOf.7"*, %"class.xercesc_2_7::MemoryManager"*, i32, [4 x i8] }>
%"class.xercesc_2_7::IC_Selector" = type opaque
%"class.xercesc_2_7::RefVectorOf.7" = type { %"class.xercesc_2_7::BaseRefVectorOf.8" }
%"class.xercesc_2_7::BaseRefVectorOf.8" = type { i32 (...)**, i8, i32, i32, %"class.xercesc_2_7::IC_Field"**, %"class.xercesc_2_7::MemoryManager"* }
%"class.xercesc_2_7::IC_Field" = type { %"class.xercesc_2_7::XSerializable", %"class.xercesc_2_7::XercesXPath"*, %"class.xercesc_2_7::IdentityConstraint"* }
%"class.xercesc_2_7::XercesXPath" = type { %"class.xercesc_2_7::XSerializable", i32, i16*, %"class.xercesc_2_7::RefVectorOf.9"*, %"class.xercesc_2_7::MemoryManager"* }
%"class.xercesc_2_7::RefVectorOf.9" = type opaque
%"class.xercesc_2_7::RefHash2KeysTableOf" = type { %"class.xercesc_2_7::MemoryManager"*, i8, %"struct.xercesc_2_7::RefHash2KeysTableBucketElem"**, i32, i32, %"class.xercesc_2_7::HashBase"* }
%"class.xercesc_2_7::HashBase" = type { i32 (...)** }
%"class.xercesc_2_7::XMLContentModel" = type { i32 (...)** }
%"class.xercesc_2_7::XSDLocator" = type { %"class.xercesc_2_7::Locator", i64, i64, i16*, i16* }
%"class.xercesc_2_7::Locator" = type { i32 (...)** }
%"class.xercesc_2_7::MemoryManager" = type { i32 (...)** }
%"class.xercesc_2_7::XMLMutex" = type { i8* }
%"class.xercesc_2_7::XProtoType" = type { i8*, %"class.xercesc_2_7::XSerializable"* (%"class.xercesc_2_7::MemoryManager"*)* }
%"class.xercesc_2_7::XMLDeleter" = type { i32 (...)** }
%"class.xercesc_2_7::SimpleContentModel" = type { %"class.xercesc_2_7::XMLContentModel", %"class.xercesc_2_7::QName"*, %"class.xercesc_2_7::QName"*, i32, i8, %"class.xercesc_2_7::MemoryManager"* }
%"class.xercesc_2_7::XMLRefInfo" = type { %"class.xercesc_2_7::XSerializable", i8, i8, i16*, %"class.xercesc_2_7::MemoryManager"* }
%"class.xercesc_2_7::XMLEntityDecl" = type { %"class.xercesc_2_7::XSerializable", i32, i32, i16*, i16*, i16*, i16*, i16*, i16*, %"class.xercesc_2_7::MemoryManager"* }
%"class.xercesc_2_7::DTDEntityDecl" = type <{ %"class.xercesc_2_7::XMLEntityDecl", i8, i8, i8, [5 x i8] }>
%"class.xercesc_2_7::XPathScanner" = type { i32 (...)**, i32, i32, i32, i32, i32, i32, i32, i32, i32, i32, i32, i32, i32, i32, i32, i32, i32, i32, i32, i32, i32, %"class.xercesc_2_7::XMLStringPool"* }
%"class.xercesc_2_7::XMLStringPool" = type { %"class.xercesc_2_7::XSerializable", %"class.xercesc_2_7::MemoryManager"*, %"struct.xercesc_2_7::XMLStringPool::PoolElem"**, %"class.xercesc_2_7::RefHashTableOf"*, i32, i32 }
%"struct.xercesc_2_7::XMLStringPool::PoolElem" = type { i32, i16* }
%"class.xercesc_2_7::RefHashTableOf" = type { %"class.xercesc_2_7::MemoryManager"*, i8, %"struct.xercesc_2_7::RefHashTableBucketElem"**, i32, i32, i32, %"class.xercesc_2_7::HashBase"* }
%"struct.xercesc_2_7::RefHashTableBucketElem" = type { %"struct.xercesc_2_7::XMLStringPool::PoolElem"*, %"struct.xercesc_2_7::RefHashTableBucketElem"*, i8* }
%"class.xercesc_2_7::ValueVectorOf" = type { i8, i32, i32, i32*, %"class.xercesc_2_7::MemoryManager"* }
%"class.xercesc_2_7::XMLMutexLock" = type { %"class.xercesc_2_7::XMLMutex"* }
%"class.xercesc_2_7::XMemory" = type { i8 }
%"class.xercesc_2_7::HashXMLCh" = type { %"class.xercesc_2_7::HashBase" }
%"class.xercesc_2_7::XMLBuffer" = type { i32, i32, i32, i8, %"class.xercesc_2_7::MemoryManager"*, %"class.xercesc_2_7::XMLBufferFullHandler"*, i16* }
%"class.xercesc_2_7::XMLBufferFullHandler" = type { i32 (...)** }
%"class.xercesc_2_7::NullPointerException" = type { %"class.xercesc_2_7::XMLException" }
%"class.xercesc_2_7::XMLException" = type { i32 (...)**, i32, i8*, i32, i16*, %"class.xercesc_2_7::MemoryManager"* }
%"class.xercesc_2_7::NoSuchElementException" = type { %"class.xercesc_2_7::XMLException" }
%"class.xercesc_2_7::SchemaGrammar" = type { %"class.xercesc_2_7::Grammar", i16*, %"class.xercesc_2_7::RefHash3KeysIdPool"*, %"class.xercesc_2_7::RefHash3KeysIdPool"*, %"class.xercesc_2_7::RefHash3KeysIdPool"*, %"class.xercesc_2_7::NameIdPool"*, %"class.xercesc_2_7::RefHashTableOf.10"*, %"class.xercesc_2_7::RefHashTableOf.11"*, %"class.xercesc_2_7::RefHashTableOf.12"*, %"class.xercesc_2_7::RefHashTableOf.13"*, %"class.xercesc_2_7::NamespaceScope"*, %"class.xercesc_2_7::RefHash2KeysTableOf.14"*, %"class.xercesc_2_7::ValidationContext"*, %"class.xercesc_2_7::MemoryManager"*, %"class.xercesc_2_7::XMLSchemaDescription"*, %"class.xercesc_2_7::RefHashTableOf.15"*, i8, %"class.xercesc_2_7::DatatypeValidatorFactory" }
%"class.xercesc_2_7::Grammar" = type { %"class.xercesc_2_7::XSerializable" }
%"class.xercesc_2_7::RefHash3KeysIdPool" = type { %"class.xercesc_2_7::MemoryManager"*, i8, %"struct.xercesc_2_7::RefHash3KeysTableBucketElem"**, i32, %"class.xercesc_2_7::HashBase"*, %"class.xercesc_2_7::SchemaElementDecl"**, i32, i32 }
%"struct.xercesc_2_7::RefHash3KeysTableBucketElem" = type { %"class.xercesc_2_7::SchemaElementDecl"*, %"struct.xercesc_2_7::RefHash3KeysTableBucketElem"*, i8*, i32, i32 }
%"class.xercesc_2_7::NameIdPool" = type <{ %"class.xercesc_2_7::MemoryManager"*, %"struct.xercesc_2_7::NameIdPoolBucketElem"**, %"class.xercesc_2_7::XMLNotationDecl"**, i32, i32, i32, [4 x i8] }>
%"struct.xercesc_2_7::NameIdPoolBucketElem" = type { %"class.xercesc_2_7::XMLNotationDecl"*, %"struct.xercesc_2_7::NameIdPoolBucketElem"* }
%"class.xercesc_2_7::XMLNotationDecl" = type { %"class.xercesc_2_7::XSerializable", i32, i32, i16*, i16*, i16*, i16*, %"class.xercesc_2_7::MemoryManager"* }
%"class.xercesc_2_7::RefHashTableOf.10" = type opaque
%"class.xercesc_2_7::RefHashTableOf.11" = type opaque
%"class.xercesc_2_7::RefHashTableOf.12" = type opaque
%"class.xercesc_2_7::RefHashTableOf.13" = type opaque
%"class.xercesc_2_7::NamespaceScope" = type opaque
%"class.xercesc_2_7::RefHash2KeysTableOf.14" = type opaque
%"class.xercesc_2_7::ValidationContext" = type { i32 (...)**, %"class.xercesc_2_7::MemoryManager"* }
%"class.xercesc_2_7::XMLSchemaDescription" = type { %"class.xercesc_2_7::XMLGrammarDescription" }
%"class.xercesc_2_7::XMLGrammarDescription" = type { %"class.xercesc_2_7::XSerializable", %"class.xercesc_2_7::MemoryManager"* }
%"class.xercesc_2_7::RefHashTableOf.15" = type { %"class.xercesc_2_7::MemoryManager"*, i8, %"struct.xercesc_2_7::RefHashTableBucketElem.16"**, i32, i32, i32, %"class.xercesc_2_7::HashBase"* }
%"struct.xercesc_2_7::RefHashTableBucketElem.16" = type { %"class.xercesc_2_7::XSAnnotation"*, %"struct.xercesc_2_7::RefHashTableBucketElem.16"*, i8* }
%"class.xercesc_2_7::XSAnnotation" = type { %"class.xercesc_2_7::XSerializable", %"class.xercesc_2_7::XSObject.base", i16*, %"class.xercesc_2_7::XSAnnotation"*, i16*, i32, i32 }
%"class.xercesc_2_7::XSObject.base" = type <{ i32 (...)**, i32, [4 x i8], %"class.xercesc_2_7::XSModel"*, %"class.xercesc_2_7::MemoryManager"*, i32 }>
%"class.xercesc_2_7::XSModel" = type opaque
%"class.xercesc_2_7::DatatypeValidatorFactory" = type { %"class.xercesc_2_7::XSerializable", %"class.xercesc_2_7::RefHashTableOf.17"*, %"class.xercesc_2_7::MemoryManager"* }
%"class.xercesc_2_7::RefHashTableOf.17" = type { %"class.xercesc_2_7::MemoryManager"*, i8, %"struct.xercesc_2_7::RefHashTableBucketElem.18"**, i32, i32, i32, %"class.xercesc_2_7::HashBase"* }
%"struct.xercesc_2_7::RefHashTableBucketElem.18" = type { %"class.xercesc_2_7::DatatypeValidator"*, %"struct.xercesc_2_7::RefHashTableBucketElem.18"*, i8* }
%"class.xercesc_2_7::GrammarResolver" = type opaque
%"class.xercesc_2_7::XMLValidator" = type opaque
%"class.xercesc_2_7::MixedContentModel" = type { %"class.xercesc_2_7::XMLContentModel", i32, %"class.xercesc_2_7::QName"**, i32*, i8, i8, %"class.xercesc_2_7::MemoryManager"* }
%"class.xercesc_2_7::RuntimeException" = type { %"class.xercesc_2_7::XMLException" }
%"class.xercesc_2_7::AllContentModel" = type <{ %"class.xercesc_2_7::XMLContentModel", %"class.xercesc_2_7::MemoryManager"*, i32, [4 x i8], %"class.xercesc_2_7::QName"**, i8*, i32, i8, i8, [2 x i8] }>
%"class.xercesc_2_7::DFAContentModel" = type { %"class.xercesc_2_7::XMLContentModel", %"class.xercesc_2_7::QName"**, i32*, i32, i8, i32, i8*, %"class.xercesc_2_7::CMStateSet"**, %"class.xercesc_2_7::CMNode"*, i32, %"class.xercesc_2_7::CMLeaf"**, i32*, i32**, i32, i8, i8, %"class.xercesc_2_7::ContentLeafNameTypeVector"*, %"class.xercesc_2_7::MemoryManager"* }
%"class.xercesc_2_7::CMStateSet" = type opaque
%"class.xercesc_2_7::CMNode" = type opaque
%"class.xercesc_2_7::CMLeaf" = type opaque
%"class.xercesc_2_7::ContentLeafNameTypeVector" = type <{ %"class.xercesc_2_7::MemoryManager"*, %"class.xercesc_2_7::QName"**, i32*, i32, [4 x i8] }>
%"class.xercesc_2_7::XSerializeEngine" = type <{ i16, i16, [4 x i8], %"class.xercesc_2_7::XMLGrammarPool"*, %"class.xercesc_2_7::BinInputStream"*, %"class.xercesc_2_7::BinOutputStream"*, i64, i64, i8*, i8*, i8*, i8*, %"class.xercesc_2_7::RefHashTableOf.19"*, %"class.xercesc_2_7::ValueVectorOf.20"*, i32, [4 x i8] }>
%"class.xercesc_2_7::XMLGrammarPool" = type opaque
%"class.xercesc_2_7::BinInputStream" = type opaque
%"class.xercesc_2_7::BinOutputStream" = type opaque
%"class.xercesc_2_7::RefHashTableOf.19" = type opaque
%"class.xercesc_2_7::ValueVectorOf.20" = type opaque
%"class.xercesc_2_7::IllegalArgumentException" = type { %"class.xercesc_2_7::XMLException" }
%"class.xercesc_2_7::ArrayJanitor" = type { %"struct.xercesc_2_7::RefHash2KeysTableBucketElem"**, %"class.xercesc_2_7::MemoryManager"* }

$_ZN11xercesc_2_710XMLDeleterD0Ev = comdat any

$_ZN11xercesc_2_710XMLDeleterD2Ev = comdat any

$_ZN11xercesc_2_713XMLAttDefListD0Ev = comdat any

$_ZN11xercesc_2_715ContentSpecNodeD0Ev = comdat any

$_ZN11xercesc_2_715ContentSpecNodeD2Ev = comdat any

$_ZN11xercesc_2_718SimpleContentModelD0Ev = comdat any

$_ZN11xercesc_2_718SimpleContentModelD2Ev = comdat any

$_ZNK11xercesc_2_710XSDLocator11getPublicIdEv = comdat any

$__clang_call_terminate = comdat any

$_ZN11xercesc_2_710XMLRefInfoD0Ev = comdat any

$_ZN11xercesc_2_710XMLRefInfoD2Ev = comdat any

$_ZN11xercesc_2_713DTDEntityDeclD0Ev = comdat any

$_ZN11xercesc_2_713DTDEntityDeclD2Ev = comdat any

$_ZN11xercesc_2_712XPathScanner8addTokenEPNS_13ValueVectorOfIiEEi = comdat any

$_ZN11xercesc_2_713ValueVectorOfIiE10addElementERKi = comdat any

$_ZN11xercesc_2_79XMLString9stringLenEPKt = comdat any

$_ZN11xercesc_2_715ContentSpecNodeC2EPNS_5QNameEbPNS_13MemoryManagerE = comdat any

$_ZN11xercesc_2_715ContentSpecNode7setTypeENS0_9NodeTypesE = comdat any

$_ZN11xercesc_2_715ContentSpecNode12setMinOccursEi = comdat any

$_ZN11xercesc_2_715ContentSpecNode12setMaxOccursEi = comdat any

$_ZN11xercesc_2_715ContentSpecNodeC2ENS0_9NodeTypesEPS0_S2_bbPNS_13MemoryManagerE = comdat any

$_ZN11xercesc_2_715ComplexTypeInfo11setTypeNameEPKt = comdat any

$_ZN11xercesc_2_715ComplexTypeInfo22setBaseComplexTypeInfoEPS0_ = comdat any

$_ZN11xercesc_2_715ComplexTypeInfo12setDerivedByEi = comdat any

$_ZN11xercesc_2_715ComplexTypeInfo14setContentTypeEi = comdat any

$_ZN11xercesc_2_715ComplexTypeInfo14setAttWildCardEPNS_12SchemaAttDefE = comdat any

$_ZN11xercesc_2_713XSerializableC2Ev = comdat any

$_ZN11xercesc_2_77XMemoryC2Ev = comdat any

$_ZN11xercesc_2_719RefHash2KeysTableOfINS_12SchemaAttDefEEC2EjbPNS_13MemoryManagerE = comdat any

$_ZN11xercesc_2_719RefHash2KeysTableOfINS_12SchemaAttDefEED2Ev = comdat any

$_ZN11xercesc_2_712SchemaAttDef9setElemIdEj = comdat any

$_ZNK11xercesc_2_715ComplexTypeInfo12getElementIdEv = comdat any

$_ZN11xercesc_2_719RefHash2KeysTableOfINS_12SchemaAttDefEE3putEPviPS1_ = comdat any

$_ZNK11xercesc_2_712SchemaAttDef10getAttNameEv = comdat any

$_ZN11xercesc_2_75QName12getLocalPartEv = comdat any

$_ZNK11xercesc_2_75QName6getURIEv = comdat any

$_ZN11xercesc_2_716SchemaAttDefList9addAttDefEPNS_12SchemaAttDefE = comdat any

$_ZN11xercesc_2_715ComplexTypeInfo15setContentModelEPNS_15XMLContentModelE = comdat any

$_ZN11xercesc_2_719RefHash2KeysTableOfINS_12SchemaAttDefEE3getEPKvi = comdat any

$_ZN11xercesc_2_729RefHash2KeysTableOfEnumeratorINS_12SchemaAttDefEEC2EPNS_19RefHash2KeysTableOfIS1_EEbPNS_13MemoryManagerE = comdat any

$_ZNK11xercesc_2_729RefHash2KeysTableOfEnumeratorINS_12SchemaAttDefEE15hasMoreElementsEv = comdat any

$_ZN11xercesc_2_729RefHash2KeysTableOfEnumeratorINS_12SchemaAttDefEE11nextElementEv = comdat any

$_ZN11xercesc_2_79XMLAttDef11setProvidedEb = comdat any

$_ZN11xercesc_2_729RefHash2KeysTableOfEnumeratorINS_12SchemaAttDefEED2Ev = comdat any

$_ZN11xercesc_2_79XMLString9replicateEPKtPNS_13MemoryManagerE = comdat any

$_ZN11xercesc_2_79XMLBufferC2EjPNS_13MemoryManagerE = comdat any

$_ZN11xercesc_2_79XMLBuffer12getRawBufferEv = comdat any

$_ZN11xercesc_2_79XMLBufferD2Ev = comdat any

$_ZN11xercesc_2_716RuntimeExceptionC2EPKcjNS_10XMLExcepts5CodesEPNS_13MemoryManagerE = comdat any

$_ZN11xercesc_2_716RuntimeExceptionD2Ev = comdat any

$_ZNK11xercesc_2_715ContentSpecNode7getTypeEv = comdat any

$_ZN11xercesc_2_715ContentSpecNode10getElementEv = comdat any

$_ZN11xercesc_2_715ContentSpecNode8getFirstEv = comdat any

$_ZN11xercesc_2_718SimpleContentModelC2EbPNS_5QNameES2_NS_15ContentSpecNode9NodeTypesEPNS_13MemoryManagerE = comdat any

$_ZN11xercesc_2_715ContentSpecNode9getSecondEv = comdat any

$_ZN11xercesc_2_75QName6setURIEj = comdat any

$_ZNK11xercesc_2_715ContentSpecNode12getMinOccursEv = comdat any

$_ZNK11xercesc_2_715ContentSpecNode12getMaxOccursEv = comdat any

$_ZN11xercesc_2_715ContentSpecNode13setAdoptFirstEb = comdat any

$_ZN11xercesc_2_715ContentSpecNode8setFirstEPS0_ = comdat any

$_ZN11xercesc_2_715ContentSpecNode14setAdoptSecondEb = comdat any

$_ZN11xercesc_2_715ContentSpecNode9setSecondEPS0_ = comdat any

$_ZNK11xercesc_2_716XSerializeEngine9isStoringEv = comdat any

$_ZN11xercesc_2_7lsERNS_16XSerializeEngineEPNS_13XSerializableE = comdat any

$_ZN11xercesc_2_716XSerializeEngine10readStringERPt = comdat any

$_ZN11xercesc_2_7rsERNS_16XSerializeEngineERPNS_15ComplexTypeInfoE = comdat any

$_ZN11xercesc_2_7rsERNS_16XSerializeEngineERPNS_15ContentSpecNodeE = comdat any

$_ZN11xercesc_2_7rsERNS_16XSerializeEngineERPNS_12SchemaAttDefE = comdat any

$_ZN11xercesc_2_7rsERNS_16XSerializeEngineERPNS_16SchemaAttDefListE = comdat any

$_ZN11xercesc_2_715ComplexTypeInfo15getContentModelEb = comdat any

$_ZN11xercesc_2_713XMLAttDefListD2Ev = comdat any

$_ZNK11xercesc_2_718SimpleContentModel12getNextStateEjj = comdat any

$_ZN11xercesc_2_710XSDLocatorD2Ev = comdat any

$_ZN11xercesc_2_710XSDLocatorD0Ev = comdat any

$_ZNK11xercesc_2_710XSDLocator11getSystemIdEv = comdat any

$_ZNK11xercesc_2_710XSDLocator13getLineNumberEv = comdat any

$_ZNK11xercesc_2_710XSDLocator15getColumnNumberEv = comdat any

$_ZNK11xercesc_2_713DTDEntityDecl22getDeclaredInIntSubsetEv = comdat any

$_ZNK11xercesc_2_713DTDEntityDecl14getIsParameterEv = comdat any

$_ZNK11xercesc_2_713DTDEntityDecl16getIsSpecialCharEv = comdat any

$_ZN11xercesc_2_712XPathScannerD2Ev = comdat any

$_ZN11xercesc_2_712XPathScannerD0Ev = comdat any

$_ZN11xercesc_2_713XSerializableD2Ev = comdat any

$_ZN11xercesc_2_713XSerializableD0Ev = comdat any

$_ZNK11xercesc_2_713XMLAttDefList16getMemoryManagerEv = comdat any

$_ZN11xercesc_2_716RuntimeExceptionD0Ev = comdat any

$_ZNK11xercesc_2_716RuntimeException7getTypeEv = comdat any

$_ZNK11xercesc_2_716RuntimeException9duplicateEv = comdat any

$_ZN11xercesc_2_716RuntimeExceptionC2ERKS0_ = comdat any

$_ZN11xercesc_2_715XMLContentModelC2Ev = comdat any

$_ZN11xercesc_2_715XMLContentModelD2Ev = comdat any

$_ZN11xercesc_2_715XMLContentModelD0Ev = comdat any

$_ZN11xercesc_2_77LocatorD2Ev = comdat any

$_ZN11xercesc_2_719RefHash2KeysTableOfINS_12SchemaAttDefEE14findBucketElemEPKviRj = comdat any

$_ZN11xercesc_2_713XMLEnumeratorINS_12SchemaAttDefEEC2Ev = comdat any

$_ZN11xercesc_2_720NullPointerExceptionC2EPKcjNS_10XMLExcepts5CodesEPNS_13MemoryManagerE = comdat any

$_ZN11xercesc_2_720NullPointerExceptionD2Ev = comdat any

$_ZN11xercesc_2_729RefHash2KeysTableOfEnumeratorINS_12SchemaAttDefEE8findNextEv = comdat any

$_ZN11xercesc_2_729RefHash2KeysTableOfEnumeratorINS_12SchemaAttDefEED0Ev = comdat any

$_ZN11xercesc_2_729RefHash2KeysTableOfEnumeratorINS_12SchemaAttDefEE5ResetEv = comdat any

$_ZN11xercesc_2_713XMLEnumeratorINS_12SchemaAttDefEED2Ev = comdat any

$_ZN11xercesc_2_713XMLEnumeratorINS_12SchemaAttDefEED0Ev = comdat any

$_ZN11xercesc_2_720NullPointerExceptionD0Ev = comdat any

$_ZNK11xercesc_2_720NullPointerException7getTypeEv = comdat any

$_ZNK11xercesc_2_720NullPointerException9duplicateEv = comdat any

$_ZN11xercesc_2_720NullPointerExceptionC2ERKS0_ = comdat any

$_ZN11xercesc_2_722NoSuchElementExceptionC2EPKcjNS_10XMLExcepts5CodesEPNS_13MemoryManagerE = comdat any

$_ZN11xercesc_2_722NoSuchElementExceptionD2Ev = comdat any

$_ZN11xercesc_2_722NoSuchElementExceptionD0Ev = comdat any

$_ZNK11xercesc_2_722NoSuchElementException7getTypeEv = comdat any

$_ZNK11xercesc_2_722NoSuchElementException9duplicateEv = comdat any

$_ZN11xercesc_2_722NoSuchElementExceptionC2ERKS0_ = comdat any

$_ZN11xercesc_2_713ValueVectorOfIiE19ensureExtraCapacityEj = comdat any

$_ZN11xercesc_2_719RefHash2KeysTableOfINS_12SchemaAttDefEE10initializeEj = comdat any

$_ZN11xercesc_2_724IllegalArgumentExceptionC2EPKcjNS_10XMLExcepts5CodesEPNS_13MemoryManagerE = comdat any

$_ZN11xercesc_2_724IllegalArgumentExceptionD2Ev = comdat any

$_ZN11xercesc_2_724IllegalArgumentExceptionD0Ev = comdat any

$_ZNK11xercesc_2_724IllegalArgumentException7getTypeEv = comdat any

$_ZNK11xercesc_2_724IllegalArgumentException9duplicateEv = comdat any

$_ZN11xercesc_2_724IllegalArgumentExceptionC2ERKS0_ = comdat any

$_ZN11xercesc_2_719RefHash2KeysTableOfINS_12SchemaAttDefEE9removeAllEv = comdat any

$_ZNK11xercesc_2_719RefHash2KeysTableOfINS_12SchemaAttDefEE7isEmptyEv = comdat any

$_ZN11xercesc_2_719RefHash2KeysTableOfINS_12SchemaAttDefEE6rehashEv = comdat any

$_ZN11xercesc_2_727RefHash2KeysTableBucketElemINS_12SchemaAttDefEEC2EPviPS1_PS2_ = comdat any

$_ZN11xercesc_2_712ArrayJanitorIPNS_27RefHash2KeysTableBucketElemINS_12SchemaAttDefEEEEC2EPS4_PNS_13MemoryManagerE = comdat any

$_ZN11xercesc_2_712ArrayJanitorIPNS_27RefHash2KeysTableBucketElemINS_12SchemaAttDefEEEE7releaseEv = comdat any

$_ZN11xercesc_2_712ArrayJanitorIPNS_27RefHash2KeysTableBucketElemINS_12SchemaAttDefEEEED2Ev = comdat any

$_ZN11xercesc_2_712ArrayJanitorIPNS_27RefHash2KeysTableBucketElemINS_12SchemaAttDefEEEE5resetEPS4_ = comdat any

$_ZTVN11xercesc_2_715ContentSpecNodeE = comdat any

$_ZTVN11xercesc_2_718SimpleContentModelE = comdat any

$_ZTVN11xercesc_2_710XMLRefInfoE = comdat any

$_ZTSN11xercesc_2_716RuntimeExceptionE = comdat any

$_ZTIN11xercesc_2_716RuntimeExceptionE = comdat any

$_ZTVN11xercesc_2_710XMLDeleterE = comdat any

$_ZTSN11xercesc_2_710XMLDeleterE = comdat any

$_ZTIN11xercesc_2_710XMLDeleterE = comdat any

$_ZTVN11xercesc_2_713XMLAttDefListE = comdat any

$_ZTSN11xercesc_2_713XMLAttDefListE = comdat any

$_ZTSN11xercesc_2_713XSerializableE = comdat any

$_ZTIN11xercesc_2_713XSerializableE = comdat any

$_ZTSN11xercesc_2_77XMemoryE = comdat any

$_ZTIN11xercesc_2_77XMemoryE = comdat any

$_ZTIN11xercesc_2_713XMLAttDefListE = comdat any

$_ZTSN11xercesc_2_715ContentSpecNodeE = comdat any

$_ZTIN11xercesc_2_715ContentSpecNodeE = comdat any

$_ZTSN11xercesc_2_718SimpleContentModelE = comdat any

$_ZTSN11xercesc_2_715XMLContentModelE = comdat any

$_ZTIN11xercesc_2_715XMLContentModelE = comdat any

$_ZTIN11xercesc_2_718SimpleContentModelE = comdat any

$_ZTVN11xercesc_2_710XSDLocatorE = comdat any

$_ZTSN11xercesc_2_710XSDLocatorE = comdat any

$_ZTSN11xercesc_2_77LocatorE = comdat any

$_ZTIN11xercesc_2_77LocatorE = comdat any

$_ZTIN11xercesc_2_710XSDLocatorE = comdat any

$_ZTSN11xercesc_2_710XMLRefInfoE = comdat any

$_ZTIN11xercesc_2_710XMLRefInfoE = comdat any

$_ZTVN11xercesc_2_713DTDEntityDeclE = comdat any

$_ZTSN11xercesc_2_713DTDEntityDeclE = comdat any

$_ZTIN11xercesc_2_713DTDEntityDeclE = comdat any

$_ZTVN11xercesc_2_712XPathScannerE = comdat any

$_ZTSN11xercesc_2_712XPathScannerE = comdat any

$_ZTIN11xercesc_2_712XPathScannerE = comdat any

$_ZTVN11xercesc_2_713XSerializableE = comdat any

$_ZTVN11xercesc_2_716RuntimeExceptionE = comdat any

$_ZTVN11xercesc_2_715XMLContentModelE = comdat any

$_ZTVN11xercesc_2_729RefHash2KeysTableOfEnumeratorINS_12SchemaAttDefEEE = comdat any

$_ZTSN11xercesc_2_720NullPointerExceptionE = comdat any

$_ZTIN11xercesc_2_720NullPointerExceptionE = comdat any

$_ZTSN11xercesc_2_729RefHash2KeysTableOfEnumeratorINS_12SchemaAttDefEEE = comdat any

$_ZTSN11xercesc_2_713XMLEnumeratorINS_12SchemaAttDefEEE = comdat any

$_ZTIN11xercesc_2_713XMLEnumeratorINS_12SchemaAttDefEEE = comdat any

$_ZTIN11xercesc_2_729RefHash2KeysTableOfEnumeratorINS_12SchemaAttDefEEE = comdat any

$_ZTVN11xercesc_2_713XMLEnumeratorINS_12SchemaAttDefEEE = comdat any

$_ZTVN11xercesc_2_720NullPointerExceptionE = comdat any

$_ZTSN11xercesc_2_722NoSuchElementExceptionE = comdat any

$_ZTIN11xercesc_2_722NoSuchElementExceptionE = comdat any

$_ZTVN11xercesc_2_722NoSuchElementExceptionE = comdat any

$_ZTSN11xercesc_2_724IllegalArgumentExceptionE = comdat any

$_ZTIN11xercesc_2_724IllegalArgumentExceptionE = comdat any

$_ZTVN11xercesc_2_724IllegalArgumentExceptionE = comdat any

@_ZTVN11xercesc_2_715ContentSpecNodeE = linkonce_odr dso_local unnamed_addr constant { [7 x i8*] } { [7 x i8*] [i8* null, i8* bitcast ({ i8*, i8*, i32, i32, i8*, i64, i8*, i64 }* @_ZTIN11xercesc_2_715ContentSpecNodeE to i8*), i8* bitcast (void (%"class.xercesc_2_7::ContentSpecNode"*)* @_ZN11xercesc_2_715ContentSpecNodeD2Ev to i8*), i8* bitcast (void (%"class.xercesc_2_7::ContentSpecNode"*)* @_ZN11xercesc_2_715ContentSpecNodeD0Ev to i8*), i8* bitcast (i1 (%"class.xercesc_2_7::ContentSpecNode"*)* @_ZNK11xercesc_2_715ContentSpecNode14isSerializableEv to i8*), i8* bitcast (void (%"class.xercesc_2_7::ContentSpecNode"*, %"class.xercesc_2_7::XSerializeEngine"*)* @_ZN11xercesc_2_715ContentSpecNode9serializeERNS_16XSerializeEngineE to i8*), i8* bitcast (%"class.xercesc_2_7::XProtoType"* (%"class.xercesc_2_7::ContentSpecNode"*)* @_ZNK11xercesc_2_715ContentSpecNode12getProtoTypeEv to i8*)] }, comdat, align 8
@_ZTVN11xercesc_2_718SimpleContentModelE = linkonce_odr dso_local unnamed_addr constant { [9 x i8*] } { [9 x i8*] [i8* null, i8* bitcast ({ i8*, i8*, i8* }* @_ZTIN11xercesc_2_718SimpleContentModelE to i8*), i8* bitcast (void (%"class.xercesc_2_7::SimpleContentModel"*)* @_ZN11xercesc_2_718SimpleContentModelD2Ev to i8*), i8* bitcast (void (%"class.xercesc_2_7::SimpleContentModel"*)* @_ZN11xercesc_2_718SimpleContentModelD0Ev to i8*), i8* bitcast (i32 (%"class.xercesc_2_7::SimpleContentModel"*, %"class.xercesc_2_7::QName"**, i32, i32)* @_ZNK11xercesc_2_718SimpleContentModel15validateContentEPPNS_5QNameEjj to i8*), i8* bitcast (i32 (%"class.xercesc_2_7::SimpleContentModel"*, %"class.xercesc_2_7::QName"**, i32, i32, %"class.xercesc_2_7::GrammarResolver"*, %"class.xercesc_2_7::XMLStringPool"*)* @_ZNK11xercesc_2_718SimpleContentModel22validateContentSpecialEPPNS_5QNameEjjPNS_15GrammarResolverEPNS_13XMLStringPoolE to i8*), i8* bitcast (void (%"class.xercesc_2_7::SimpleContentModel"*, %"class.xercesc_2_7::SchemaGrammar"*, %"class.xercesc_2_7::GrammarResolver"*, %"class.xercesc_2_7::XMLStringPool"*, %"class.xercesc_2_7::XMLValidator"*, i32*, i16*)* @_ZN11xercesc_2_718SimpleContentModel30checkUniqueParticleAttributionEPNS_13SchemaGrammarEPNS_15GrammarResolverEPNS_13XMLStringPoolEPNS_12XMLValidatorEPjPKt to i8*), i8* bitcast (%"class.xercesc_2_7::ContentLeafNameTypeVector"* (%"class.xercesc_2_7::SimpleContentModel"*)* @_ZNK11xercesc_2_718SimpleContentModel28getContentLeafNameTypeVectorEv to i8*), i8* bitcast (i32 (%"class.xercesc_2_7::SimpleContentModel"*, i32, i32)* @_ZNK11xercesc_2_718SimpleContentModel12getNextStateEjj to i8*)] }, comdat, align 8
@_ZTVN11xercesc_2_710XMLRefInfoE = linkonce_odr dso_local unnamed_addr constant { [7 x i8*] } { [7 x i8*] [i8* null, i8* bitcast ({ i8*, i8*, i32, i32, i8*, i64, i8*, i64 }* @_ZTIN11xercesc_2_710XMLRefInfoE to i8*), i8* bitcast (void (%"class.xercesc_2_7::XMLRefInfo"*)* @_ZN11xercesc_2_710XMLRefInfoD2Ev to i8*), i8* bitcast (void (%"class.xercesc_2_7::XMLRefInfo"*)* @_ZN11xercesc_2_710XMLRefInfoD0Ev to i8*), i8* bitcast (i1 (%"class.xercesc_2_7::XMLRefInfo"*)* @_ZNK11xercesc_2_710XMLRefInfo14isSerializableEv to i8*), i8* bitcast (void (%"class.xercesc_2_7::XMLRefInfo"*, %"class.xercesc_2_7::XSerializeEngine"*)* @_ZN11xercesc_2_710XMLRefInfo9serializeERNS_16XSerializeEngineE to i8*), i8* bitcast (%"class.xercesc_2_7::XProtoType"* (%"class.xercesc_2_7::XMLRefInfo"*)* @_ZNK11xercesc_2_710XMLRefInfo12getProtoTypeEv to i8*)] }, comdat, align 8
@_ZN11xercesc_2_7L14anyTypeCleanupE = internal global %"class.xercesc_2_7::XMLRegisterCleanup" zeroinitializer, align 8, !dbg !0
@_ZN11xercesc_2_715ComplexTypeInfo8fAnyTypeE = dso_local global %"class.xercesc_2_7::ComplexTypeInfo"* null, align 8, !dbg !34
@_ZN11xercesc_2_7L13sAnyTypeMutexE = internal global %"class.xercesc_2_7::XMLMutex"* null, align 8, !dbg !1600
@_ZN11xercesc_2_7L23sAnyTypeMutexRegisteredE = internal global i8 0, align 1, !dbg !1626
@_ZN11xercesc_2_716XMLPlatformUtils13fgAtomicMutexE = external dso_local global %"class.xercesc_2_7::XMLMutex"*, align 8
@_ZN11xercesc_2_716XMLPlatformUtils15fgMemoryManagerE = external dso_local global %"class.xercesc_2_7::MemoryManager"*, align 8
@_ZN11xercesc_2_713SchemaSymbols21fgURI_SCHEMAFORSCHEMAE = external dso_local constant [0 x i16], align 2
@_ZN11xercesc_2_713SchemaSymbols16fgATTVAL_ANYTYPEE = external dso_local constant [0 x i16], align 2
@_ZN11xercesc_2_76XMLUni15fgZeroLenStringE = external dso_local constant [0 x i16], align 2
@_ZTVN11xercesc_2_715ComplexTypeInfoE = dso_local unnamed_addr constant { [7 x i8*] } { [7 x i8*] [i8* null, i8* bitcast ({ i8*, i8*, i32, i32, i8*, i64, i8*, i64 }* @_ZTIN11xercesc_2_715ComplexTypeInfoE to i8*), i8* bitcast (void (%"class.xercesc_2_7::ComplexTypeInfo"*)* @_ZN11xercesc_2_715ComplexTypeInfoD1Ev to i8*), i8* bitcast (void (%"class.xercesc_2_7::ComplexTypeInfo"*)* @_ZN11xercesc_2_715ComplexTypeInfoD0Ev to i8*), i8* bitcast (i1 (%"class.xercesc_2_7::ComplexTypeInfo"*)* @_ZNK11xercesc_2_715ComplexTypeInfo14isSerializableEv to i8*), i8* bitcast (void (%"class.xercesc_2_7::ComplexTypeInfo"*, %"class.xercesc_2_7::XSerializeEngine"*)* @_ZN11xercesc_2_715ComplexTypeInfo9serializeERNS_16XSerializeEngineE to i8*), i8* bitcast (%"class.xercesc_2_7::XProtoType"* (%"class.xercesc_2_7::ComplexTypeInfo"*)* @_ZNK11xercesc_2_715ComplexTypeInfo12getProtoTypeEv to i8*)] }, align 8
@_ZN11xercesc_2_714XMLElementDecl15fgInvalidElemIdE = external dso_local constant i32, align 4
@_ZN11xercesc_2_76XMLUni11fgAnyStringE = external dso_local constant [0 x i16], align 2
@_ZN11xercesc_2_76XMLUni13fgEmptyStringE = external dso_local constant [0 x i16], align 2
@.str = private unnamed_addr constant [20 x i8] c"ComplexTypeInfo.cpp\00", align 1
@_ZTVN10__cxxabiv120__si_class_type_infoE = external dso_local global i8*
@_ZTSN11xercesc_2_716RuntimeExceptionE = linkonce_odr dso_local constant [34 x i8] c"N11xercesc_2_716RuntimeExceptionE\00", comdat, align 1
@_ZTIN11xercesc_2_712XMLExceptionE = external dso_local constant i8*
@_ZTIN11xercesc_2_716RuntimeExceptionE = linkonce_odr dso_local constant { i8*, i8*, i8* } { i8* bitcast (i8** getelementptr inbounds (i8*, i8** @_ZTVN10__cxxabiv120__si_class_type_infoE, i64 2) to i8*), i8* getelementptr inbounds ([34 x i8], [34 x i8]* @_ZTSN11xercesc_2_716RuntimeExceptionE, i32 0, i32 0), i8* bitcast (i8** @_ZTIN11xercesc_2_712XMLExceptionE to i8*) }, comdat, align 8
@_ZN11xercesc_2_714XMLElementDecl14fgPCDataElemIdE = external dso_local constant i32, align 4
@.str.1 = private unnamed_addr constant [16 x i8] c"ComplexTypeInfo\00", align 1
@_ZN11xercesc_2_715ComplexTypeInfo20classComplexTypeInfoE = dso_local global %"class.xercesc_2_7::XProtoType" { i8* getelementptr inbounds ([16 x i8], [16 x i8]* @.str.1, i32 0, i32 0), %"class.xercesc_2_7::XSerializable"* (%"class.xercesc_2_7::MemoryManager"*)* @_ZN11xercesc_2_715ComplexTypeInfo12createObjectEPNS_13MemoryManagerE }, align 8, !dbg !1628
@_ZTVN11xercesc_2_710XMLDeleterE = linkonce_odr dso_local unnamed_addr constant { [4 x i8*] } { [4 x i8*] [i8* null, i8* bitcast ({ i8*, i8* }* @_ZTIN11xercesc_2_710XMLDeleterE to i8*), i8* bitcast (void (%"class.xercesc_2_7::XMLDeleter"*)* @_ZN11xercesc_2_710XMLDeleterD2Ev to i8*), i8* bitcast (void (%"class.xercesc_2_7::XMLDeleter"*)* @_ZN11xercesc_2_710XMLDeleterD0Ev to i8*)] }, comdat, align 8
@_ZTVN10__cxxabiv117__class_type_infoE = external dso_local global i8*
@_ZTSN11xercesc_2_710XMLDeleterE = linkonce_odr dso_local constant [28 x i8] c"N11xercesc_2_710XMLDeleterE\00", comdat, align 1
@_ZTIN11xercesc_2_710XMLDeleterE = linkonce_odr dso_local constant { i8*, i8* } { i8* bitcast (i8** getelementptr inbounds (i8*, i8** @_ZTVN10__cxxabiv117__class_type_infoE, i64 2) to i8*), i8* getelementptr inbounds ([28 x i8], [28 x i8]* @_ZTSN11xercesc_2_710XMLDeleterE, i32 0, i32 0) }, comdat, align 8
@_ZTVN11xercesc_2_713XMLAttDefListE = linkonce_odr dso_local unnamed_addr constant { [18 x i8*] } { [18 x i8*] [i8* null, i8* bitcast ({ i8*, i8*, i32, i32, i8*, i64, i8*, i64 }* @_ZTIN11xercesc_2_713XMLAttDefListE to i8*), i8* bitcast (void (%"class.xercesc_2_7::XMLAttDefList"*)* @_ZN11xercesc_2_713XMLAttDefListD2Ev to i8*), i8* bitcast (void (%"class.xercesc_2_7::XMLAttDefList"*)* @_ZN11xercesc_2_713XMLAttDefListD0Ev to i8*), i8* bitcast (i1 (%"class.xercesc_2_7::XMLAttDefList"*)* @_ZNK11xercesc_2_713XMLAttDefList14isSerializableEv to i8*), i8* bitcast (void (%"class.xercesc_2_7::XMLAttDefList"*, %"class.xercesc_2_7::XSerializeEngine"*)* @_ZN11xercesc_2_713XMLAttDefList9serializeERNS_16XSerializeEngineE to i8*), i8* bitcast (%"class.xercesc_2_7::XProtoType"* (%"class.xercesc_2_7::XMLAttDefList"*)* @_ZNK11xercesc_2_713XMLAttDefList12getProtoTypeEv to i8*), i8* bitcast (void ()* @__cxa_pure_virtual to i8*), i8* bitcast (void ()* @__cxa_pure_virtual to i8*), i8* bitcast (void ()* @__cxa_pure_virtual to i8*), i8* bitcast (void ()* @__cxa_pure_virtual to i8*), i8* bitcast (void ()* @__cxa_pure_virtual to i8*), i8* bitcast (void ()* @__cxa_pure_virtual to i8*), i8* bitcast (void ()* @__cxa_pure_virtual to i8*), i8* bitcast (void ()* @__cxa_pure_virtual to i8*), i8* bitcast (void ()* @__cxa_pure_virtual to i8*), i8* bitcast (void ()* @__cxa_pure_virtual to i8*), i8* bitcast (void ()* @__cxa_pure_virtual to i8*)] }, comdat, align 8
@_ZTVN10__cxxabiv121__vmi_class_type_infoE = external dso_local global i8*
@_ZTSN11xercesc_2_713XMLAttDefListE = linkonce_odr dso_local constant [31 x i8] c"N11xercesc_2_713XMLAttDefListE\00", comdat, align 1
@_ZTSN11xercesc_2_713XSerializableE = linkonce_odr dso_local constant [31 x i8] c"N11xercesc_2_713XSerializableE\00", comdat, align 1
@_ZTIN11xercesc_2_713XSerializableE = linkonce_odr dso_local constant { i8*, i8* } { i8* bitcast (i8** getelementptr inbounds (i8*, i8** @_ZTVN10__cxxabiv117__class_type_infoE, i64 2) to i8*), i8* getelementptr inbounds ([31 x i8], [31 x i8]* @_ZTSN11xercesc_2_713XSerializableE, i32 0, i32 0) }, comdat, align 8
@_ZTSN11xercesc_2_77XMemoryE = linkonce_odr dso_local constant [24 x i8] c"N11xercesc_2_77XMemoryE\00", comdat, align 1
@_ZTIN11xercesc_2_77XMemoryE = linkonce_odr dso_local constant { i8*, i8* } { i8* bitcast (i8** getelementptr inbounds (i8*, i8** @_ZTVN10__cxxabiv117__class_type_infoE, i64 2) to i8*), i8* getelementptr inbounds ([24 x i8], [24 x i8]* @_ZTSN11xercesc_2_77XMemoryE, i32 0, i32 0) }, comdat, align 8
@_ZTIN11xercesc_2_713XMLAttDefListE = linkonce_odr dso_local constant { i8*, i8*, i32, i32, i8*, i64, i8*, i64 } { i8* bitcast (i8** getelementptr inbounds (i8*, i8** @_ZTVN10__cxxabiv121__vmi_class_type_infoE, i64 2) to i8*), i8* getelementptr inbounds ([31 x i8], [31 x i8]* @_ZTSN11xercesc_2_713XMLAttDefListE, i32 0, i32 0), i32 0, i32 2, i8* bitcast ({ i8*, i8* }* @_ZTIN11xercesc_2_713XSerializableE to i8*), i64 2, i8* bitcast ({ i8*, i8* }* @_ZTIN11xercesc_2_77XMemoryE to i8*), i64 2 }, comdat, align 8
@_ZTSN11xercesc_2_715ContentSpecNodeE = linkonce_odr dso_local constant [33 x i8] c"N11xercesc_2_715ContentSpecNodeE\00", comdat, align 1
@_ZTIN11xercesc_2_715ContentSpecNodeE = linkonce_odr dso_local constant { i8*, i8*, i32, i32, i8*, i64, i8*, i64 } { i8* bitcast (i8** getelementptr inbounds (i8*, i8** @_ZTVN10__cxxabiv121__vmi_class_type_infoE, i64 2) to i8*), i8* getelementptr inbounds ([33 x i8], [33 x i8]* @_ZTSN11xercesc_2_715ContentSpecNodeE, i32 0, i32 0), i32 0, i32 2, i8* bitcast ({ i8*, i8* }* @_ZTIN11xercesc_2_713XSerializableE to i8*), i64 2, i8* bitcast ({ i8*, i8* }* @_ZTIN11xercesc_2_77XMemoryE to i8*), i64 2 }, comdat, align 8
@_ZTSN11xercesc_2_718SimpleContentModelE = linkonce_odr dso_local constant [36 x i8] c"N11xercesc_2_718SimpleContentModelE\00", comdat, align 1
@_ZTSN11xercesc_2_715XMLContentModelE = linkonce_odr dso_local constant [33 x i8] c"N11xercesc_2_715XMLContentModelE\00", comdat, align 1
@_ZTIN11xercesc_2_715XMLContentModelE = linkonce_odr dso_local constant { i8*, i8*, i8* } { i8* bitcast (i8** getelementptr inbounds (i8*, i8** @_ZTVN10__cxxabiv120__si_class_type_infoE, i64 2) to i8*), i8* getelementptr inbounds ([33 x i8], [33 x i8]* @_ZTSN11xercesc_2_715XMLContentModelE, i32 0, i32 0), i8* bitcast ({ i8*, i8* }* @_ZTIN11xercesc_2_77XMemoryE to i8*) }, comdat, align 8
@_ZTIN11xercesc_2_718SimpleContentModelE = linkonce_odr dso_local constant { i8*, i8*, i8* } { i8* bitcast (i8** getelementptr inbounds (i8*, i8** @_ZTVN10__cxxabiv120__si_class_type_infoE, i64 2) to i8*), i8* getelementptr inbounds ([36 x i8], [36 x i8]* @_ZTSN11xercesc_2_718SimpleContentModelE, i32 0, i32 0), i8* bitcast ({ i8*, i8*, i8* }* @_ZTIN11xercesc_2_715XMLContentModelE to i8*) }, comdat, align 8
@_ZTVN11xercesc_2_710XSDLocatorE = linkonce_odr dso_local unnamed_addr constant { [8 x i8*] } { [8 x i8*] [i8* null, i8* bitcast ({ i8*, i8*, i32, i32, i8*, i64, i8*, i64 }* @_ZTIN11xercesc_2_710XSDLocatorE to i8*), i8* bitcast (void (%"class.xercesc_2_7::XSDLocator"*)* @_ZN11xercesc_2_710XSDLocatorD2Ev to i8*), i8* bitcast (void (%"class.xercesc_2_7::XSDLocator"*)* @_ZN11xercesc_2_710XSDLocatorD0Ev to i8*), i8* bitcast (i16* (%"class.xercesc_2_7::XSDLocator"*)* @_ZNK11xercesc_2_710XSDLocator11getPublicIdEv to i8*), i8* bitcast (i16* (%"class.xercesc_2_7::XSDLocator"*)* @_ZNK11xercesc_2_710XSDLocator11getSystemIdEv to i8*), i8* bitcast (i64 (%"class.xercesc_2_7::XSDLocator"*)* @_ZNK11xercesc_2_710XSDLocator13getLineNumberEv to i8*), i8* bitcast (i64 (%"class.xercesc_2_7::XSDLocator"*)* @_ZNK11xercesc_2_710XSDLocator15getColumnNumberEv to i8*)] }, comdat, align 8
@_ZTSN11xercesc_2_710XSDLocatorE = linkonce_odr dso_local constant [28 x i8] c"N11xercesc_2_710XSDLocatorE\00", comdat, align 1
@_ZTSN11xercesc_2_77LocatorE = linkonce_odr dso_local constant [24 x i8] c"N11xercesc_2_77LocatorE\00", comdat, align 1
@_ZTIN11xercesc_2_77LocatorE = linkonce_odr dso_local constant { i8*, i8* } { i8* bitcast (i8** getelementptr inbounds (i8*, i8** @_ZTVN10__cxxabiv117__class_type_infoE, i64 2) to i8*), i8* getelementptr inbounds ([24 x i8], [24 x i8]* @_ZTSN11xercesc_2_77LocatorE, i32 0, i32 0) }, comdat, align 8
@_ZTIN11xercesc_2_710XSDLocatorE = linkonce_odr dso_local constant { i8*, i8*, i32, i32, i8*, i64, i8*, i64 } { i8* bitcast (i8** getelementptr inbounds (i8*, i8** @_ZTVN10__cxxabiv121__vmi_class_type_infoE, i64 2) to i8*), i8* getelementptr inbounds ([28 x i8], [28 x i8]* @_ZTSN11xercesc_2_710XSDLocatorE, i32 0, i32 0), i32 0, i32 2, i8* bitcast ({ i8*, i8* }* @_ZTIN11xercesc_2_77XMemoryE to i8*), i64 2, i8* bitcast ({ i8*, i8* }* @_ZTIN11xercesc_2_77LocatorE to i8*), i64 2 }, comdat, align 8
@_ZTSN11xercesc_2_710XMLRefInfoE = linkonce_odr dso_local constant [28 x i8] c"N11xercesc_2_710XMLRefInfoE\00", comdat, align 1
@_ZTIN11xercesc_2_710XMLRefInfoE = linkonce_odr dso_local constant { i8*, i8*, i32, i32, i8*, i64, i8*, i64 } { i8* bitcast (i8** getelementptr inbounds (i8*, i8** @_ZTVN10__cxxabiv121__vmi_class_type_infoE, i64 2) to i8*), i8* getelementptr inbounds ([28 x i8], [28 x i8]* @_ZTSN11xercesc_2_710XMLRefInfoE, i32 0, i32 0), i32 0, i32 2, i8* bitcast ({ i8*, i8* }* @_ZTIN11xercesc_2_713XSerializableE to i8*), i64 2, i8* bitcast ({ i8*, i8* }* @_ZTIN11xercesc_2_77XMemoryE to i8*), i64 2 }, comdat, align 8
@_ZTVN11xercesc_2_713DTDEntityDeclE = linkonce_odr dso_local unnamed_addr constant { [10 x i8*] } { [10 x i8*] [i8* null, i8* bitcast ({ i8*, i8*, i8* }* @_ZTIN11xercesc_2_713DTDEntityDeclE to i8*), i8* bitcast (void (%"class.xercesc_2_7::DTDEntityDecl"*)* @_ZN11xercesc_2_713DTDEntityDeclD2Ev to i8*), i8* bitcast (void (%"class.xercesc_2_7::DTDEntityDecl"*)* @_ZN11xercesc_2_713DTDEntityDeclD0Ev to i8*), i8* bitcast (i1 (%"class.xercesc_2_7::DTDEntityDecl"*)* @_ZNK11xercesc_2_713DTDEntityDecl14isSerializableEv to i8*), i8* bitcast (void (%"class.xercesc_2_7::DTDEntityDecl"*, %"class.xercesc_2_7::XSerializeEngine"*)* @_ZN11xercesc_2_713DTDEntityDecl9serializeERNS_16XSerializeEngineE to i8*), i8* bitcast (%"class.xercesc_2_7::XProtoType"* (%"class.xercesc_2_7::DTDEntityDecl"*)* @_ZNK11xercesc_2_713DTDEntityDecl12getProtoTypeEv to i8*), i8* bitcast (i1 (%"class.xercesc_2_7::DTDEntityDecl"*)* @_ZNK11xercesc_2_713DTDEntityDecl22getDeclaredInIntSubsetEv to i8*), i8* bitcast (i1 (%"class.xercesc_2_7::DTDEntityDecl"*)* @_ZNK11xercesc_2_713DTDEntityDecl14getIsParameterEv to i8*), i8* bitcast (i1 (%"class.xercesc_2_7::DTDEntityDecl"*)* @_ZNK11xercesc_2_713DTDEntityDecl16getIsSpecialCharEv to i8*)] }, comdat, align 8
@_ZTSN11xercesc_2_713DTDEntityDeclE = linkonce_odr dso_local constant [31 x i8] c"N11xercesc_2_713DTDEntityDeclE\00", comdat, align 1
@_ZTIN11xercesc_2_713XMLEntityDeclE = external dso_local constant i8*
@_ZTIN11xercesc_2_713DTDEntityDeclE = linkonce_odr dso_local constant { i8*, i8*, i8* } { i8* bitcast (i8** getelementptr inbounds (i8*, i8** @_ZTVN10__cxxabiv120__si_class_type_infoE, i64 2) to i8*), i8* getelementptr inbounds ([31 x i8], [31 x i8]* @_ZTSN11xercesc_2_713DTDEntityDeclE, i32 0, i32 0), i8* bitcast (i8** @_ZTIN11xercesc_2_713XMLEntityDeclE to i8*) }, comdat, align 8
@_ZTVN11xercesc_2_712XPathScannerE = linkonce_odr dso_local unnamed_addr constant { [5 x i8*] } { [5 x i8*] [i8* null, i8* bitcast ({ i8*, i8*, i8* }* @_ZTIN11xercesc_2_712XPathScannerE to i8*), i8* bitcast (void (%"class.xercesc_2_7::XPathScanner"*)* @_ZN11xercesc_2_712XPathScannerD2Ev to i8*), i8* bitcast (void (%"class.xercesc_2_7::XPathScanner"*)* @_ZN11xercesc_2_712XPathScannerD0Ev to i8*), i8* bitcast (void (%"class.xercesc_2_7::XPathScanner"*, %"class.xercesc_2_7::ValueVectorOf"*, i32)* @_ZN11xercesc_2_712XPathScanner8addTokenEPNS_13ValueVectorOfIiEEi to i8*)] }, comdat, align 8
@_ZTSN11xercesc_2_712XPathScannerE = linkonce_odr dso_local constant [30 x i8] c"N11xercesc_2_712XPathScannerE\00", comdat, align 1
@_ZTIN11xercesc_2_712XPathScannerE = linkonce_odr dso_local constant { i8*, i8*, i8* } { i8* bitcast (i8** getelementptr inbounds (i8*, i8** @_ZTVN10__cxxabiv120__si_class_type_infoE, i64 2) to i8*), i8* getelementptr inbounds ([30 x i8], [30 x i8]* @_ZTSN11xercesc_2_712XPathScannerE, i32 0, i32 0), i8* bitcast ({ i8*, i8* }* @_ZTIN11xercesc_2_77XMemoryE to i8*) }, comdat, align 8
@_ZTSN11xercesc_2_715ComplexTypeInfoE = dso_local constant [33 x i8] c"N11xercesc_2_715ComplexTypeInfoE\00", align 1
@_ZTIN11xercesc_2_715ComplexTypeInfoE = dso_local constant { i8*, i8*, i32, i32, i8*, i64, i8*, i64 } { i8* bitcast (i8** getelementptr inbounds (i8*, i8** @_ZTVN10__cxxabiv121__vmi_class_type_infoE, i64 2) to i8*), i8* getelementptr inbounds ([33 x i8], [33 x i8]* @_ZTSN11xercesc_2_715ComplexTypeInfoE, i32 0, i32 0), i32 0, i32 2, i8* bitcast ({ i8*, i8* }* @_ZTIN11xercesc_2_713XSerializableE to i8*), i64 2, i8* bitcast ({ i8*, i8* }* @_ZTIN11xercesc_2_77XMemoryE to i8*), i64 2 }, align 8
@_ZTVN11xercesc_2_713XSerializableE = linkonce_odr dso_local unnamed_addr constant { [7 x i8*] } { [7 x i8*] [i8* null, i8* bitcast ({ i8*, i8* }* @_ZTIN11xercesc_2_713XSerializableE to i8*), i8* bitcast (void (%"class.xercesc_2_7::XSerializable"*)* @_ZN11xercesc_2_713XSerializableD2Ev to i8*), i8* bitcast (void (%"class.xercesc_2_7::XSerializable"*)* @_ZN11xercesc_2_713XSerializableD0Ev to i8*), i8* bitcast (void ()* @__cxa_pure_virtual to i8*), i8* bitcast (void ()* @__cxa_pure_virtual to i8*), i8* bitcast (void ()* @__cxa_pure_virtual to i8*)] }, comdat, align 8
@_ZTVN11xercesc_2_716RuntimeExceptionE = linkonce_odr dso_local unnamed_addr constant { [6 x i8*] } { [6 x i8*] [i8* null, i8* bitcast ({ i8*, i8*, i8* }* @_ZTIN11xercesc_2_716RuntimeExceptionE to i8*), i8* bitcast (void (%"class.xercesc_2_7::RuntimeException"*)* @_ZN11xercesc_2_716RuntimeExceptionD2Ev to i8*), i8* bitcast (void (%"class.xercesc_2_7::RuntimeException"*)* @_ZN11xercesc_2_716RuntimeExceptionD0Ev to i8*), i8* bitcast (i16* (%"class.xercesc_2_7::RuntimeException"*)* @_ZNK11xercesc_2_716RuntimeException7getTypeEv to i8*), i8* bitcast (%"class.xercesc_2_7::XMLException"* (%"class.xercesc_2_7::RuntimeException"*)* @_ZNK11xercesc_2_716RuntimeException9duplicateEv to i8*)] }, comdat, align 8
@_ZN11xercesc_2_76XMLUni23fgRuntimeException_NameE = external dso_local constant [0 x i16], align 2
@_ZTVN11xercesc_2_715XMLContentModelE = linkonce_odr dso_local unnamed_addr constant { [9 x i8*] } { [9 x i8*] [i8* null, i8* bitcast ({ i8*, i8*, i8* }* @_ZTIN11xercesc_2_715XMLContentModelE to i8*), i8* bitcast (void (%"class.xercesc_2_7::XMLContentModel"*)* @_ZN11xercesc_2_715XMLContentModelD2Ev to i8*), i8* bitcast (void (%"class.xercesc_2_7::XMLContentModel"*)* @_ZN11xercesc_2_715XMLContentModelD0Ev to i8*), i8* bitcast (void ()* @__cxa_pure_virtual to i8*), i8* bitcast (void ()* @__cxa_pure_virtual to i8*), i8* bitcast (void ()* @__cxa_pure_virtual to i8*), i8* bitcast (void ()* @__cxa_pure_virtual to i8*), i8* bitcast (void ()* @__cxa_pure_virtual to i8*)] }, comdat, align 8
@_ZN11xercesc_2_715ContentSpecNode20classContentSpecNodeE = external dso_local global %"class.xercesc_2_7::XProtoType", align 8
@_ZN11xercesc_2_712SchemaAttDef17classSchemaAttDefE = external dso_local global %"class.xercesc_2_7::XProtoType", align 8
@_ZN11xercesc_2_716SchemaAttDefList21classSchemaAttDefListE = external dso_local global %"class.xercesc_2_7::XProtoType", align 8
@_ZN11xercesc_2_715XMLContentModel13gInvalidTransE = external dso_local constant i32, align 4
@_ZTVN11xercesc_2_729RefHash2KeysTableOfEnumeratorINS_12SchemaAttDefEEE = linkonce_odr dso_local unnamed_addr constant { [7 x i8*] } { [7 x i8*] [i8* null, i8* bitcast ({ i8*, i8*, i32, i32, i8*, i64, i8*, i64 }* @_ZTIN11xercesc_2_729RefHash2KeysTableOfEnumeratorINS_12SchemaAttDefEEE to i8*), i8* bitcast (void (%"class.xercesc_2_7::RefHash2KeysTableOfEnumerator"*)* @_ZN11xercesc_2_729RefHash2KeysTableOfEnumeratorINS_12SchemaAttDefEED2Ev to i8*), i8* bitcast (void (%"class.xercesc_2_7::RefHash2KeysTableOfEnumerator"*)* @_ZN11xercesc_2_729RefHash2KeysTableOfEnumeratorINS_12SchemaAttDefEED0Ev to i8*), i8* bitcast (i1 (%"class.xercesc_2_7::RefHash2KeysTableOfEnumerator"*)* @_ZNK11xercesc_2_729RefHash2KeysTableOfEnumeratorINS_12SchemaAttDefEE15hasMoreElementsEv to i8*), i8* bitcast (%"class.xercesc_2_7::SchemaAttDef"* (%"class.xercesc_2_7::RefHash2KeysTableOfEnumerator"*)* @_ZN11xercesc_2_729RefHash2KeysTableOfEnumeratorINS_12SchemaAttDefEE11nextElementEv to i8*), i8* bitcast (void (%"class.xercesc_2_7::RefHash2KeysTableOfEnumerator"*)* @_ZN11xercesc_2_729RefHash2KeysTableOfEnumeratorINS_12SchemaAttDefEE5ResetEv to i8*)] }, comdat, align 8
@.str.2 = private unnamed_addr constant [37 x i8] c"./xercesc/util/RefHash2KeysTableOf.c\00", align 1
@_ZTSN11xercesc_2_720NullPointerExceptionE = linkonce_odr dso_local constant [38 x i8] c"N11xercesc_2_720NullPointerExceptionE\00", comdat, align 1
@_ZTIN11xercesc_2_720NullPointerExceptionE = linkonce_odr dso_local constant { i8*, i8*, i8* } { i8* bitcast (i8** getelementptr inbounds (i8*, i8** @_ZTVN10__cxxabiv120__si_class_type_infoE, i64 2) to i8*), i8* getelementptr inbounds ([38 x i8], [38 x i8]* @_ZTSN11xercesc_2_720NullPointerExceptionE, i32 0, i32 0), i8* bitcast (i8** @_ZTIN11xercesc_2_712XMLExceptionE to i8*) }, comdat, align 8
@_ZTSN11xercesc_2_729RefHash2KeysTableOfEnumeratorINS_12SchemaAttDefEEE = linkonce_odr dso_local constant [67 x i8] c"N11xercesc_2_729RefHash2KeysTableOfEnumeratorINS_12SchemaAttDefEEE\00", comdat, align 1
@_ZTSN11xercesc_2_713XMLEnumeratorINS_12SchemaAttDefEEE = linkonce_odr dso_local constant [51 x i8] c"N11xercesc_2_713XMLEnumeratorINS_12SchemaAttDefEEE\00", comdat, align 1
@_ZTIN11xercesc_2_713XMLEnumeratorINS_12SchemaAttDefEEE = linkonce_odr dso_local constant { i8*, i8* } { i8* bitcast (i8** getelementptr inbounds (i8*, i8** @_ZTVN10__cxxabiv117__class_type_infoE, i64 2) to i8*), i8* getelementptr inbounds ([51 x i8], [51 x i8]* @_ZTSN11xercesc_2_713XMLEnumeratorINS_12SchemaAttDefEEE, i32 0, i32 0) }, comdat, align 8
@_ZTIN11xercesc_2_729RefHash2KeysTableOfEnumeratorINS_12SchemaAttDefEEE = linkonce_odr dso_local constant { i8*, i8*, i32, i32, i8*, i64, i8*, i64 } { i8* bitcast (i8** getelementptr inbounds (i8*, i8** @_ZTVN10__cxxabiv121__vmi_class_type_infoE, i64 2) to i8*), i8* getelementptr inbounds ([67 x i8], [67 x i8]* @_ZTSN11xercesc_2_729RefHash2KeysTableOfEnumeratorINS_12SchemaAttDefEEE, i32 0, i32 0), i32 0, i32 2, i8* bitcast ({ i8*, i8* }* @_ZTIN11xercesc_2_713XMLEnumeratorINS_12SchemaAttDefEEE to i8*), i64 2, i8* bitcast ({ i8*, i8* }* @_ZTIN11xercesc_2_77XMemoryE to i8*), i64 2 }, comdat, align 8
@_ZTVN11xercesc_2_713XMLEnumeratorINS_12SchemaAttDefEEE = linkonce_odr dso_local unnamed_addr constant { [7 x i8*] } { [7 x i8*] [i8* null, i8* bitcast ({ i8*, i8* }* @_ZTIN11xercesc_2_713XMLEnumeratorINS_12SchemaAttDefEEE to i8*), i8* bitcast (void (%"class.xercesc_2_7::XMLEnumerator"*)* @_ZN11xercesc_2_713XMLEnumeratorINS_12SchemaAttDefEED2Ev to i8*), i8* bitcast (void (%"class.xercesc_2_7::XMLEnumerator"*)* @_ZN11xercesc_2_713XMLEnumeratorINS_12SchemaAttDefEED0Ev to i8*), i8* bitcast (void ()* @__cxa_pure_virtual to i8*), i8* bitcast (void ()* @__cxa_pure_virtual to i8*), i8* bitcast (void ()* @__cxa_pure_virtual to i8*)] }, comdat, align 8
@_ZTVN11xercesc_2_720NullPointerExceptionE = linkonce_odr dso_local unnamed_addr constant { [6 x i8*] } { [6 x i8*] [i8* null, i8* bitcast ({ i8*, i8*, i8* }* @_ZTIN11xercesc_2_720NullPointerExceptionE to i8*), i8* bitcast (void (%"class.xercesc_2_7::NullPointerException"*)* @_ZN11xercesc_2_720NullPointerExceptionD2Ev to i8*), i8* bitcast (void (%"class.xercesc_2_7::NullPointerException"*)* @_ZN11xercesc_2_720NullPointerExceptionD0Ev to i8*), i8* bitcast (i16* (%"class.xercesc_2_7::NullPointerException"*)* @_ZNK11xercesc_2_720NullPointerException7getTypeEv to i8*), i8* bitcast (%"class.xercesc_2_7::XMLException"* (%"class.xercesc_2_7::NullPointerException"*)* @_ZNK11xercesc_2_720NullPointerException9duplicateEv to i8*)] }, comdat, align 8
@_ZN11xercesc_2_76XMLUni27fgNullPointerException_NameE = external dso_local constant [0 x i16], align 2
@_ZTSN11xercesc_2_722NoSuchElementExceptionE = linkonce_odr dso_local constant [40 x i8] c"N11xercesc_2_722NoSuchElementExceptionE\00", comdat, align 1
@_ZTIN11xercesc_2_722NoSuchElementExceptionE = linkonce_odr dso_local constant { i8*, i8*, i8* } { i8* bitcast (i8** getelementptr inbounds (i8*, i8** @_ZTVN10__cxxabiv120__si_class_type_infoE, i64 2) to i8*), i8* getelementptr inbounds ([40 x i8], [40 x i8]* @_ZTSN11xercesc_2_722NoSuchElementExceptionE, i32 0, i32 0), i8* bitcast (i8** @_ZTIN11xercesc_2_712XMLExceptionE to i8*) }, comdat, align 8
@_ZTVN11xercesc_2_722NoSuchElementExceptionE = linkonce_odr dso_local unnamed_addr constant { [6 x i8*] } { [6 x i8*] [i8* null, i8* bitcast ({ i8*, i8*, i8* }* @_ZTIN11xercesc_2_722NoSuchElementExceptionE to i8*), i8* bitcast (void (%"class.xercesc_2_7::NoSuchElementException"*)* @_ZN11xercesc_2_722NoSuchElementExceptionD2Ev to i8*), i8* bitcast (void (%"class.xercesc_2_7::NoSuchElementException"*)* @_ZN11xercesc_2_722NoSuchElementExceptionD0Ev to i8*), i8* bitcast (i16* (%"class.xercesc_2_7::NoSuchElementException"*)* @_ZNK11xercesc_2_722NoSuchElementException7getTypeEv to i8*), i8* bitcast (%"class.xercesc_2_7::XMLException"* (%"class.xercesc_2_7::NoSuchElementException"*)* @_ZNK11xercesc_2_722NoSuchElementException9duplicateEv to i8*)] }, comdat, align 8
@_ZN11xercesc_2_76XMLUni29fgNoSuchElementException_NameE = external dso_local constant [0 x i16], align 2
@_ZTSN11xercesc_2_724IllegalArgumentExceptionE = linkonce_odr dso_local constant [42 x i8] c"N11xercesc_2_724IllegalArgumentExceptionE\00", comdat, align 1
@_ZTIN11xercesc_2_724IllegalArgumentExceptionE = linkonce_odr dso_local constant { i8*, i8*, i8* } { i8* bitcast (i8** getelementptr inbounds (i8*, i8** @_ZTVN10__cxxabiv120__si_class_type_infoE, i64 2) to i8*), i8* getelementptr inbounds ([42 x i8], [42 x i8]* @_ZTSN11xercesc_2_724IllegalArgumentExceptionE, i32 0, i32 0), i8* bitcast (i8** @_ZTIN11xercesc_2_712XMLExceptionE to i8*) }, comdat, align 8
@_ZTVN11xercesc_2_724IllegalArgumentExceptionE = linkonce_odr dso_local unnamed_addr constant { [6 x i8*] } { [6 x i8*] [i8* null, i8* bitcast ({ i8*, i8*, i8* }* @_ZTIN11xercesc_2_724IllegalArgumentExceptionE to i8*), i8* bitcast (void (%"class.xercesc_2_7::IllegalArgumentException"*)* @_ZN11xercesc_2_724IllegalArgumentExceptionD2Ev to i8*), i8* bitcast (void (%"class.xercesc_2_7::IllegalArgumentException"*)* @_ZN11xercesc_2_724IllegalArgumentExceptionD0Ev to i8*), i8* bitcast (i16* (%"class.xercesc_2_7::IllegalArgumentException"*)* @_ZNK11xercesc_2_724IllegalArgumentException7getTypeEv to i8*), i8* bitcast (%"class.xercesc_2_7::XMLException"* (%"class.xercesc_2_7::IllegalArgumentException"*)* @_ZNK11xercesc_2_724IllegalArgumentException9duplicateEv to i8*)] }, comdat, align 8
@_ZN11xercesc_2_76XMLUni31fgIllegalArgumentException_NameE = external dso_local constant [0 x i16], align 2
@llvm.global_ctors = appending global [1 x { i32, void ()*, i8* }] [{ i32, void ()*, i8* } { i32 65535, void ()* @_GLOBAL__sub_I_ComplexTypeInfo.cpp, i8* null }]

@_ZN11xercesc_2_715ComplexTypeInfoC1EPNS_13MemoryManagerE = dso_local unnamed_addr alias void (%"class.xercesc_2_7::ComplexTypeInfo"*, %"class.xercesc_2_7::MemoryManager"*), void (%"class.xercesc_2_7::ComplexTypeInfo"*, %"class.xercesc_2_7::MemoryManager"*)* @_ZN11xercesc_2_715ComplexTypeInfoC2EPNS_13MemoryManagerE
@_ZN11xercesc_2_715ComplexTypeInfoD1Ev = dso_local unnamed_addr alias void (%"class.xercesc_2_7::ComplexTypeInfo"*), void (%"class.xercesc_2_7::ComplexTypeInfo"*)* @_ZN11xercesc_2_715ComplexTypeInfoD2Ev

; Function Attrs: nounwind readnone speculatable willreturn
declare void @llvm.dbg.declare(metadata, metadata, metadata) #0

; Function Attrs: noinline nounwind uwtable
define linkonce_odr dso_local void @_ZN11xercesc_2_710XMLDeleterD0Ev(%"class.xercesc_2_7::XMLDeleter"* %this) unnamed_addr #1 comdat align 2 !dbg !2257 {
entry:
  %this.addr = alloca %"class.xercesc_2_7::XMLDeleter"*, align 8
  store %"class.xercesc_2_7::XMLDeleter"* %this, %"class.xercesc_2_7::XMLDeleter"** %this.addr, align 8
  call void @llvm.dbg.declare(metadata %"class.xercesc_2_7::XMLDeleter"** %this.addr, metadata !2277, metadata !DIExpression()), !dbg !2279
  %this1 = load %"class.xercesc_2_7::XMLDeleter"*, %"class.xercesc_2_7::XMLDeleter"** %this.addr, align 8
  call void @_ZN11xercesc_2_710XMLDeleterD2Ev(%"class.xercesc_2_7::XMLDeleter"* %this1) #9, !dbg !2280
  %0 = bitcast %"class.xercesc_2_7::XMLDeleter"* %this1 to i8*, !dbg !2280
  call void @_ZdlPv(i8* %0) #10, !dbg !2280
  ret void, !dbg !2281
}

; Function Attrs: noinline nounwind uwtable
define linkonce_odr dso_local void @_ZN11xercesc_2_710XMLDeleterD2Ev(%"class.xercesc_2_7::XMLDeleter"* %this) unnamed_addr #1 comdat align 2 !dbg !2282 {
entry:
  %this.addr = alloca %"class.xercesc_2_7::XMLDeleter"*, align 8
  store %"class.xercesc_2_7::XMLDeleter"* %this, %"class.xercesc_2_7::XMLDeleter"** %this.addr, align 8
  call void @llvm.dbg.declare(metadata %"class.xercesc_2_7::XMLDeleter"** %this.addr, metadata !2283, metadata !DIExpression()), !dbg !2284
  %this1 = load %"class.xercesc_2_7::XMLDeleter"*, %"class.xercesc_2_7::XMLDeleter"** %this.addr, align 8
  ret void, !dbg !2285
}

; Function Attrs: nobuiltin nounwind
declare dso_local void @_ZdlPv(i8*) #2

; Function Attrs: noinline nounwind uwtable
define linkonce_odr dso_local void @_ZN11xercesc_2_713XMLAttDefListD0Ev(%"class.xercesc_2_7::XMLAttDefList"* %this) unnamed_addr #1 comdat align 2 !dbg !2286 {
entry:
  %this.addr = alloca %"class.xercesc_2_7::XMLAttDefList"*, align 8
  store %"class.xercesc_2_7::XMLAttDefList"* %this, %"class.xercesc_2_7::XMLAttDefList"** %this.addr, align 8
  call void @llvm.dbg.declare(metadata %"class.xercesc_2_7::XMLAttDefList"** %this.addr, metadata !2287, metadata !DIExpression()), !dbg !2289
  %this1 = load %"class.xercesc_2_7::XMLAttDefList"*, %"class.xercesc_2_7::XMLAttDefList"** %this.addr, align 8
  call void @llvm.trap() #11, !dbg !2290
  unreachable, !dbg !2290
}

; Function Attrs: cold noreturn nounwind
declare void @llvm.trap() #3

; Function Attrs: noinline nounwind uwtable
define linkonce_odr dso_local void @_ZN11xercesc_2_715ContentSpecNodeD0Ev(%"class.xercesc_2_7::ContentSpecNode"* %this) unnamed_addr #1 comdat align 2 !dbg !2291 {
entry:
  %this.addr = alloca %"class.xercesc_2_7::ContentSpecNode"*, align 8
  store %"class.xercesc_2_7::ContentSpecNode"* %this, %"class.xercesc_2_7::ContentSpecNode"** %this.addr, align 8
  call void @llvm.dbg.declare(metadata %"class.xercesc_2_7::ContentSpecNode"** %this.addr, metadata !2292, metadata !DIExpression()), !dbg !2293
  %this1 = load %"class.xercesc_2_7::ContentSpecNode"*, %"class.xercesc_2_7::ContentSpecNode"** %this.addr, align 8
  call void @_ZN11xercesc_2_715ContentSpecNodeD2Ev(%"class.xercesc_2_7::ContentSpecNode"* %this1) #9, !dbg !2294
  %0 = bitcast %"class.xercesc_2_7::ContentSpecNode"* %this1 to i8*, !dbg !2294
  call void @_ZN11xercesc_2_77XMemorydlEPv(i8* %0) #9, !dbg !2294
  ret void, !dbg !2295
}

; Function Attrs: noinline nounwind uwtable
define linkonce_odr dso_local void @_ZN11xercesc_2_715ContentSpecNodeD2Ev(%"class.xercesc_2_7::ContentSpecNode"* %this) unnamed_addr #1 comdat align 2 !dbg !2296 {
entry:
  %this.addr = alloca %"class.xercesc_2_7::ContentSpecNode"*, align 8
  store %"class.xercesc_2_7::ContentSpecNode"* %this, %"class.xercesc_2_7::ContentSpecNode"** %this.addr, align 8
  call void @llvm.dbg.declare(metadata %"class.xercesc_2_7::ContentSpecNode"** %this.addr, metadata !2297, metadata !DIExpression()), !dbg !2298
  %this1 = load %"class.xercesc_2_7::ContentSpecNode"*, %"class.xercesc_2_7::ContentSpecNode"** %this.addr, align 8
  %0 = bitcast %"class.xercesc_2_7::ContentSpecNode"* %this1 to i32 (...)***, !dbg !2299
  store i32 (...)** bitcast (i8** getelementptr inbounds ({ [7 x i8*] }, { [7 x i8*] }* @_ZTVN11xercesc_2_715ContentSpecNodeE, i32 0, inrange i32 0, i32 2) to i32 (...)**), i32 (...)*** %0, align 8, !dbg !2299
  %fAdoptFirst = getelementptr inbounds %"class.xercesc_2_7::ContentSpecNode", %"class.xercesc_2_7::ContentSpecNode"* %this1, i32 0, i32 7, !dbg !2300
  %1 = load i8, i8* %fAdoptFirst, align 4, !dbg !2300
  %tobool = trunc i8 %1 to i1, !dbg !2300
  br i1 %tobool, label %if.then, label %if.end, !dbg !2303

if.then:                                          ; preds = %entry
  %fFirst = getelementptr inbounds %"class.xercesc_2_7::ContentSpecNode", %"class.xercesc_2_7::ContentSpecNode"* %this1, i32 0, i32 4, !dbg !2304
  %2 = load %"class.xercesc_2_7::ContentSpecNode"*, %"class.xercesc_2_7::ContentSpecNode"** %fFirst, align 8, !dbg !2304
  %isnull = icmp eq %"class.xercesc_2_7::ContentSpecNode"* %2, null, !dbg !2306
  br i1 %isnull, label %delete.end, label %delete.notnull, !dbg !2306

delete.notnull:                                   ; preds = %if.then
  %3 = bitcast %"class.xercesc_2_7::ContentSpecNode"* %2 to void (%"class.xercesc_2_7::ContentSpecNode"*)***, !dbg !2306
  %vtable = load void (%"class.xercesc_2_7::ContentSpecNode"*)**, void (%"class.xercesc_2_7::ContentSpecNode"*)*** %3, align 8, !dbg !2306
  %vfn = getelementptr inbounds void (%"class.xercesc_2_7::ContentSpecNode"*)*, void (%"class.xercesc_2_7::ContentSpecNode"*)** %vtable, i64 1, !dbg !2306
  %4 = load void (%"class.xercesc_2_7::ContentSpecNode"*)*, void (%"class.xercesc_2_7::ContentSpecNode"*)** %vfn, align 8, !dbg !2306
  call void %4(%"class.xercesc_2_7::ContentSpecNode"* %2) #9, !dbg !2306
  br label %delete.end, !dbg !2306

delete.end:                                       ; preds = %delete.notnull, %if.then
  br label %if.end, !dbg !2307

if.end:                                           ; preds = %delete.end, %entry
  %fAdoptSecond = getelementptr inbounds %"class.xercesc_2_7::ContentSpecNode", %"class.xercesc_2_7::ContentSpecNode"* %this1, i32 0, i32 8, !dbg !2308
  %5 = load i8, i8* %fAdoptSecond, align 1, !dbg !2308
  %tobool2 = trunc i8 %5 to i1, !dbg !2308
  br i1 %tobool2, label %if.then3, label %if.end9, !dbg !2310

if.then3:                                         ; preds = %if.end
  %fSecond = getelementptr inbounds %"class.xercesc_2_7::ContentSpecNode", %"class.xercesc_2_7::ContentSpecNode"* %this1, i32 0, i32 5, !dbg !2311
  %6 = load %"class.xercesc_2_7::ContentSpecNode"*, %"class.xercesc_2_7::ContentSpecNode"** %fSecond, align 8, !dbg !2311
  %isnull4 = icmp eq %"class.xercesc_2_7::ContentSpecNode"* %6, null, !dbg !2313
  br i1 %isnull4, label %delete.end8, label %delete.notnull5, !dbg !2313

delete.notnull5:                                  ; preds = %if.then3
  %7 = bitcast %"class.xercesc_2_7::ContentSpecNode"* %6 to void (%"class.xercesc_2_7::ContentSpecNode"*)***, !dbg !2313
  %vtable6 = load void (%"class.xercesc_2_7::ContentSpecNode"*)**, void (%"class.xercesc_2_7::ContentSpecNode"*)*** %7, align 8, !dbg !2313
  %vfn7 = getelementptr inbounds void (%"class.xercesc_2_7::ContentSpecNode"*)*, void (%"class.xercesc_2_7::ContentSpecNode"*)** %vtable6, i64 1, !dbg !2313
  %8 = load void (%"class.xercesc_2_7::ContentSpecNode"*)*, void (%"class.xercesc_2_7::ContentSpecNode"*)** %vfn7, align 8, !dbg !2313
  call void %8(%"class.xercesc_2_7::ContentSpecNode"* %6) #9, !dbg !2313
  br label %delete.end8, !dbg !2313

delete.end8:                                      ; preds = %delete.notnull5, %if.then3
  br label %if.end9, !dbg !2314

if.end9:                                          ; preds = %delete.end8, %if.end
  %fElement = getelementptr inbounds %"class.xercesc_2_7::ContentSpecNode", %"class.xercesc_2_7::ContentSpecNode"* %this1, i32 0, i32 2, !dbg !2315
  %9 = load %"class.xercesc_2_7::QName"*, %"class.xercesc_2_7::QName"** %fElement, align 8, !dbg !2315
  %isnull10 = icmp eq %"class.xercesc_2_7::QName"* %9, null, !dbg !2316
  br i1 %isnull10, label %delete.end14, label %delete.notnull11, !dbg !2316

delete.notnull11:                                 ; preds = %if.end9
  %10 = bitcast %"class.xercesc_2_7::QName"* %9 to void (%"class.xercesc_2_7::QName"*)***, !dbg !2316
  %vtable12 = load void (%"class.xercesc_2_7::QName"*)**, void (%"class.xercesc_2_7::QName"*)*** %10, align 8, !dbg !2316
  %vfn13 = getelementptr inbounds void (%"class.xercesc_2_7::QName"*)*, void (%"class.xercesc_2_7::QName"*)** %vtable12, i64 1, !dbg !2316
  %11 = load void (%"class.xercesc_2_7::QName"*)*, void (%"class.xercesc_2_7::QName"*)** %vfn13, align 8, !dbg !2316
  call void %11(%"class.xercesc_2_7::QName"* %9) #9, !dbg !2316
  br label %delete.end14, !dbg !2316

delete.end14:                                     ; preds = %delete.notnull11, %if.end9
  %12 = bitcast %"class.xercesc_2_7::ContentSpecNode"* %this1 to %"class.xercesc_2_7::XSerializable"*, !dbg !2317
  call void @_ZN11xercesc_2_713XSerializableD2Ev(%"class.xercesc_2_7::XSerializable"* %12) #9, !dbg !2317
  ret void, !dbg !2318
}

; Function Attrs: nounwind
declare dso_local void @_ZN11xercesc_2_77XMemorydlEPv(i8*) #4

; Function Attrs: noinline nounwind uwtable
define linkonce_odr dso_local void @_ZN11xercesc_2_718SimpleContentModelD0Ev(%"class.xercesc_2_7::SimpleContentModel"* %this) unnamed_addr #1 comdat align 2 !dbg !2319 {
entry:
  %this.addr = alloca %"class.xercesc_2_7::SimpleContentModel"*, align 8
  store %"class.xercesc_2_7::SimpleContentModel"* %this, %"class.xercesc_2_7::SimpleContentModel"** %this.addr, align 8
  call void @llvm.dbg.declare(metadata %"class.xercesc_2_7::SimpleContentModel"** %this.addr, metadata !2362, metadata !DIExpression()), !dbg !2364
  %this1 = load %"class.xercesc_2_7::SimpleContentModel"*, %"class.xercesc_2_7::SimpleContentModel"** %this.addr, align 8
  call void @_ZN11xercesc_2_718SimpleContentModelD2Ev(%"class.xercesc_2_7::SimpleContentModel"* %this1) #9, !dbg !2365
  %0 = bitcast %"class.xercesc_2_7::SimpleContentModel"* %this1 to i8*, !dbg !2365
  call void @_ZN11xercesc_2_77XMemorydlEPv(i8* %0) #9, !dbg !2365
  ret void, !dbg !2366
}

; Function Attrs: noinline nounwind uwtable
define linkonce_odr dso_local void @_ZN11xercesc_2_718SimpleContentModelD2Ev(%"class.xercesc_2_7::SimpleContentModel"* %this) unnamed_addr #1 comdat align 2 !dbg !2367 {
entry:
  %this.addr = alloca %"class.xercesc_2_7::SimpleContentModel"*, align 8
  store %"class.xercesc_2_7::SimpleContentModel"* %this, %"class.xercesc_2_7::SimpleContentModel"** %this.addr, align 8
  call void @llvm.dbg.declare(metadata %"class.xercesc_2_7::SimpleContentModel"** %this.addr, metadata !2368, metadata !DIExpression()), !dbg !2369
  %this1 = load %"class.xercesc_2_7::SimpleContentModel"*, %"class.xercesc_2_7::SimpleContentModel"** %this.addr, align 8
  %0 = bitcast %"class.xercesc_2_7::SimpleContentModel"* %this1 to i32 (...)***, !dbg !2370
  store i32 (...)** bitcast (i8** getelementptr inbounds ({ [9 x i8*] }, { [9 x i8*] }* @_ZTVN11xercesc_2_718SimpleContentModelE, i32 0, inrange i32 0, i32 2) to i32 (...)**), i32 (...)*** %0, align 8, !dbg !2370
  %fFirstChild = getelementptr inbounds %"class.xercesc_2_7::SimpleContentModel", %"class.xercesc_2_7::SimpleContentModel"* %this1, i32 0, i32 1, !dbg !2371
  %1 = load %"class.xercesc_2_7::QName"*, %"class.xercesc_2_7::QName"** %fFirstChild, align 8, !dbg !2371
  %isnull = icmp eq %"class.xercesc_2_7::QName"* %1, null, !dbg !2373
  br i1 %isnull, label %delete.end, label %delete.notnull, !dbg !2373

delete.notnull:                                   ; preds = %entry
  %2 = bitcast %"class.xercesc_2_7::QName"* %1 to void (%"class.xercesc_2_7::QName"*)***, !dbg !2373
  %vtable = load void (%"class.xercesc_2_7::QName"*)**, void (%"class.xercesc_2_7::QName"*)*** %2, align 8, !dbg !2373
  %vfn = getelementptr inbounds void (%"class.xercesc_2_7::QName"*)*, void (%"class.xercesc_2_7::QName"*)** %vtable, i64 1, !dbg !2373
  %3 = load void (%"class.xercesc_2_7::QName"*)*, void (%"class.xercesc_2_7::QName"*)** %vfn, align 8, !dbg !2373
  call void %3(%"class.xercesc_2_7::QName"* %1) #9, !dbg !2373
  br label %delete.end, !dbg !2373

delete.end:                                       ; preds = %delete.notnull, %entry
  %fSecondChild = getelementptr inbounds %"class.xercesc_2_7::SimpleContentModel", %"class.xercesc_2_7::SimpleContentModel"* %this1, i32 0, i32 2, !dbg !2374
  %4 = load %"class.xercesc_2_7::QName"*, %"class.xercesc_2_7::QName"** %fSecondChild, align 8, !dbg !2374
  %isnull2 = icmp eq %"class.xercesc_2_7::QName"* %4, null, !dbg !2375
  br i1 %isnull2, label %delete.end6, label %delete.notnull3, !dbg !2375

delete.notnull3:                                  ; preds = %delete.end
  %5 = bitcast %"class.xercesc_2_7::QName"* %4 to void (%"class.xercesc_2_7::QName"*)***, !dbg !2375
  %vtable4 = load void (%"class.xercesc_2_7::QName"*)**, void (%"class.xercesc_2_7::QName"*)*** %5, align 8, !dbg !2375
  %vfn5 = getelementptr inbounds void (%"class.xercesc_2_7::QName"*)*, void (%"class.xercesc_2_7::QName"*)** %vtable4, i64 1, !dbg !2375
  %6 = load void (%"class.xercesc_2_7::QName"*)*, void (%"class.xercesc_2_7::QName"*)** %vfn5, align 8, !dbg !2375
  call void %6(%"class.xercesc_2_7::QName"* %4) #9, !dbg !2375
  br label %delete.end6, !dbg !2375

delete.end6:                                      ; preds = %delete.notnull3, %delete.end
  %7 = bitcast %"class.xercesc_2_7::SimpleContentModel"* %this1 to %"class.xercesc_2_7::XMLContentModel"*, !dbg !2376
  call void @_ZN11xercesc_2_715XMLContentModelD2Ev(%"class.xercesc_2_7::XMLContentModel"* %7) #9, !dbg !2376
  ret void, !dbg !2377
}

; Function Attrs: noinline nounwind uwtable
define linkonce_odr dso_local i16* @_ZNK11xercesc_2_710XSDLocator11getPublicIdEv(%"class.xercesc_2_7::XSDLocator"* %this) unnamed_addr #1 comdat align 2 !dbg !2378 {
entry:
  %this.addr = alloca %"class.xercesc_2_7::XSDLocator"*, align 8
  store %"class.xercesc_2_7::XSDLocator"* %this, %"class.xercesc_2_7::XSDLocator"** %this.addr, align 8
  call void @llvm.dbg.declare(metadata %"class.xercesc_2_7::XSDLocator"** %this.addr, metadata !2379, metadata !DIExpression()), !dbg !2381
  %this1 = load %"class.xercesc_2_7::XSDLocator"*, %"class.xercesc_2_7::XSDLocator"** %this.addr, align 8
  %fPublicId = getelementptr inbounds %"class.xercesc_2_7::XSDLocator", %"class.xercesc_2_7::XSDLocator"* %this1, i32 0, i32 4, !dbg !2382
  %0 = load i16*, i16** %fPublicId, align 8, !dbg !2382
  ret i16* %0, !dbg !2383
}

declare dso_local i32 @__gxx_personality_v0(...)

; Function Attrs: noinline noreturn nounwind
define linkonce_odr hidden void @__clang_call_terminate(i8* %0) #5 comdat {
  %2 = call i8* @__cxa_begin_catch(i8* %0) #9
  call void @_ZSt9terminatev() #11
  unreachable
}

declare dso_local i8* @__cxa_begin_catch(i8*)

declare dso_local void @_ZSt9terminatev()

; Function Attrs: noinline nounwind uwtable
define linkonce_odr dso_local void @_ZN11xercesc_2_710XMLRefInfoD0Ev(%"class.xercesc_2_7::XMLRefInfo"* %this) unnamed_addr #1 comdat align 2 !dbg !2384 {
entry:
  %this.addr = alloca %"class.xercesc_2_7::XMLRefInfo"*, align 8
  store %"class.xercesc_2_7::XMLRefInfo"* %this, %"class.xercesc_2_7::XMLRefInfo"** %this.addr, align 8
  call void @llvm.dbg.declare(metadata %"class.xercesc_2_7::XMLRefInfo"** %this.addr, metadata !2434, metadata !DIExpression()), !dbg !2436
  %this1 = load %"class.xercesc_2_7::XMLRefInfo"*, %"class.xercesc_2_7::XMLRefInfo"** %this.addr, align 8
  call void @_ZN11xercesc_2_710XMLRefInfoD2Ev(%"class.xercesc_2_7::XMLRefInfo"* %this1) #9, !dbg !2437
  %0 = bitcast %"class.xercesc_2_7::XMLRefInfo"* %this1 to i8*, !dbg !2437
  call void @_ZN11xercesc_2_77XMemorydlEPv(i8* %0) #9, !dbg !2437
  ret void, !dbg !2438
}

; Function Attrs: noinline nounwind uwtable
define linkonce_odr dso_local void @_ZN11xercesc_2_710XMLRefInfoD2Ev(%"class.xercesc_2_7::XMLRefInfo"* %this) unnamed_addr #1 comdat align 2 personality i8* bitcast (i32 (...)* @__gxx_personality_v0 to i8*) !dbg !2439 {
entry:
  %this.addr = alloca %"class.xercesc_2_7::XMLRefInfo"*, align 8
  %exn.slot = alloca i8*
  %ehselector.slot = alloca i32
  store %"class.xercesc_2_7::XMLRefInfo"* %this, %"class.xercesc_2_7::XMLRefInfo"** %this.addr, align 8
  call void @llvm.dbg.declare(metadata %"class.xercesc_2_7::XMLRefInfo"** %this.addr, metadata !2440, metadata !DIExpression()), !dbg !2441
  %this1 = load %"class.xercesc_2_7::XMLRefInfo"*, %"class.xercesc_2_7::XMLRefInfo"** %this.addr, align 8
  %0 = bitcast %"class.xercesc_2_7::XMLRefInfo"* %this1 to i32 (...)***, !dbg !2442
  store i32 (...)** bitcast (i8** getelementptr inbounds ({ [7 x i8*] }, { [7 x i8*] }* @_ZTVN11xercesc_2_710XMLRefInfoE, i32 0, inrange i32 0, i32 2) to i32 (...)**), i32 (...)*** %0, align 8, !dbg !2442
  %fMemoryManager = getelementptr inbounds %"class.xercesc_2_7::XMLRefInfo", %"class.xercesc_2_7::XMLRefInfo"* %this1, i32 0, i32 4, !dbg !2443
  %1 = load %"class.xercesc_2_7::MemoryManager"*, %"class.xercesc_2_7::MemoryManager"** %fMemoryManager, align 8, !dbg !2443
  %fRefName = getelementptr inbounds %"class.xercesc_2_7::XMLRefInfo", %"class.xercesc_2_7::XMLRefInfo"* %this1, i32 0, i32 3, !dbg !2445
  %2 = load i16*, i16** %fRefName, align 8, !dbg !2445
  %3 = bitcast i16* %2 to i8*, !dbg !2445
  %4 = bitcast %"class.xercesc_2_7::MemoryManager"* %1 to void (%"class.xercesc_2_7::MemoryManager"*, i8*)***, !dbg !2446
  %vtable = load void (%"class.xercesc_2_7::MemoryManager"*, i8*)**, void (%"class.xercesc_2_7::MemoryManager"*, i8*)*** %4, align 8, !dbg !2446
  %vfn = getelementptr inbounds void (%"class.xercesc_2_7::MemoryManager"*, i8*)*, void (%"class.xercesc_2_7::MemoryManager"*, i8*)** %vtable, i64 3, !dbg !2446
  %5 = load void (%"class.xercesc_2_7::MemoryManager"*, i8*)*, void (%"class.xercesc_2_7::MemoryManager"*, i8*)** %vfn, align 8, !dbg !2446
  invoke void %5(%"class.xercesc_2_7::MemoryManager"* %1, i8* %3)
          to label %invoke.cont unwind label %lpad, !dbg !2446

invoke.cont:                                      ; preds = %entry
  %6 = bitcast %"class.xercesc_2_7::XMLRefInfo"* %this1 to %"class.xercesc_2_7::XSerializable"*, !dbg !2447
  call void @_ZN11xercesc_2_713XSerializableD2Ev(%"class.xercesc_2_7::XSerializable"* %6) #9, !dbg !2447
  ret void, !dbg !2448

lpad:                                             ; preds = %entry
  %7 = landingpad { i8*, i32 }
          catch i8* null, !dbg !2447
  %8 = extractvalue { i8*, i32 } %7, 0, !dbg !2447
  store i8* %8, i8** %exn.slot, align 8, !dbg !2447
  %9 = extractvalue { i8*, i32 } %7, 1, !dbg !2447
  store i32 %9, i32* %ehselector.slot, align 4, !dbg !2447
  %10 = bitcast %"class.xercesc_2_7::XMLRefInfo"* %this1 to %"class.xercesc_2_7::XSerializable"*, !dbg !2447
  call void @_ZN11xercesc_2_713XSerializableD2Ev(%"class.xercesc_2_7::XSerializable"* %10) #9, !dbg !2447
  br label %terminate.handler, !dbg !2447

terminate.handler:                                ; preds = %lpad
  %exn = load i8*, i8** %exn.slot, align 8, !dbg !2447
  call void @__clang_call_terminate(i8* %exn) #11, !dbg !2447
  unreachable, !dbg !2447
}

; Function Attrs: nounwind
declare dso_local void @_ZN11xercesc_2_713XMLEntityDeclD2Ev(%"class.xercesc_2_7::XMLEntityDecl"*) unnamed_addr #4

; Function Attrs: noinline nounwind uwtable
define linkonce_odr dso_local void @_ZN11xercesc_2_713DTDEntityDeclD0Ev(%"class.xercesc_2_7::DTDEntityDecl"* %this) unnamed_addr #1 comdat align 2 !dbg !2449 {
entry:
  %this.addr = alloca %"class.xercesc_2_7::DTDEntityDecl"*, align 8
  store %"class.xercesc_2_7::DTDEntityDecl"* %this, %"class.xercesc_2_7::DTDEntityDecl"** %this.addr, align 8
  call void @llvm.dbg.declare(metadata %"class.xercesc_2_7::DTDEntityDecl"** %this.addr, metadata !2504, metadata !DIExpression()), !dbg !2506
  %this1 = load %"class.xercesc_2_7::DTDEntityDecl"*, %"class.xercesc_2_7::DTDEntityDecl"** %this.addr, align 8
  call void @_ZN11xercesc_2_713DTDEntityDeclD2Ev(%"class.xercesc_2_7::DTDEntityDecl"* %this1) #9, !dbg !2507
  %0 = bitcast %"class.xercesc_2_7::DTDEntityDecl"* %this1 to i8*, !dbg !2507
  call void @_ZN11xercesc_2_77XMemorydlEPv(i8* %0) #9, !dbg !2507
  ret void, !dbg !2508
}

; Function Attrs: noinline nounwind uwtable
define linkonce_odr dso_local void @_ZN11xercesc_2_713DTDEntityDeclD2Ev(%"class.xercesc_2_7::DTDEntityDecl"* %this) unnamed_addr #1 comdat align 2 !dbg !2509 {
entry:
  %this.addr = alloca %"class.xercesc_2_7::DTDEntityDecl"*, align 8
  store %"class.xercesc_2_7::DTDEntityDecl"* %this, %"class.xercesc_2_7::DTDEntityDecl"** %this.addr, align 8
  call void @llvm.dbg.declare(metadata %"class.xercesc_2_7::DTDEntityDecl"** %this.addr, metadata !2510, metadata !DIExpression()), !dbg !2511
  %this1 = load %"class.xercesc_2_7::DTDEntityDecl"*, %"class.xercesc_2_7::DTDEntityDecl"** %this.addr, align 8
  %0 = bitcast %"class.xercesc_2_7::DTDEntityDecl"* %this1 to %"class.xercesc_2_7::XMLEntityDecl"*, !dbg !2512
  call void @_ZN11xercesc_2_713XMLEntityDeclD2Ev(%"class.xercesc_2_7::XMLEntityDecl"* %0) #9, !dbg !2512
  ret void, !dbg !2514
}

; Function Attrs: noinline uwtable
define linkonce_odr dso_local void @_ZN11xercesc_2_712XPathScanner8addTokenEPNS_13ValueVectorOfIiEEi(%"class.xercesc_2_7::XPathScanner"* %this, %"class.xercesc_2_7::ValueVectorOf"* %tokens, i32 %aToken) unnamed_addr #6 comdat align 2 !dbg !2515 {
entry:
  %this.addr = alloca %"class.xercesc_2_7::XPathScanner"*, align 8
  %tokens.addr = alloca %"class.xercesc_2_7::ValueVectorOf"*, align 8
  %aToken.addr = alloca i32, align 4
  store %"class.xercesc_2_7::XPathScanner"* %this, %"class.xercesc_2_7::XPathScanner"** %this.addr, align 8
  call void @llvm.dbg.declare(metadata %"class.xercesc_2_7::XPathScanner"** %this.addr, metadata !2638, metadata !DIExpression()), !dbg !2640
  store %"class.xercesc_2_7::ValueVectorOf"* %tokens, %"class.xercesc_2_7::ValueVectorOf"** %tokens.addr, align 8
  call void @llvm.dbg.declare(metadata %"class.xercesc_2_7::ValueVectorOf"** %tokens.addr, metadata !2641, metadata !DIExpression()), !dbg !2642
  store i32 %aToken, i32* %aToken.addr, align 4
  call void @llvm.dbg.declare(metadata i32* %aToken.addr, metadata !2643, metadata !DIExpression()), !dbg !2644
  %this1 = load %"class.xercesc_2_7::XPathScanner"*, %"class.xercesc_2_7::XPathScanner"** %this.addr, align 8
  %0 = load %"class.xercesc_2_7::ValueVectorOf"*, %"class.xercesc_2_7::ValueVectorOf"** %tokens.addr, align 8, !dbg !2645
  call void @_ZN11xercesc_2_713ValueVectorOfIiE10addElementERKi(%"class.xercesc_2_7::ValueVectorOf"* %0, i32* dereferenceable(4) %aToken.addr), !dbg !2646
  ret void, !dbg !2647
}

; Function Attrs: noinline uwtable
define linkonce_odr dso_local void @_ZN11xercesc_2_713ValueVectorOfIiE10addElementERKi(%"class.xercesc_2_7::ValueVectorOf"* %this, i32* dereferenceable(4) %toAdd) #6 comdat align 2 !dbg !2648 {
entry:
  %this.addr = alloca %"class.xercesc_2_7::ValueVectorOf"*, align 8
  %toAdd.addr = alloca i32*, align 8
  store %"class.xercesc_2_7::ValueVectorOf"* %this, %"class.xercesc_2_7::ValueVectorOf"** %this.addr, align 8
  call void @llvm.dbg.declare(metadata %"class.xercesc_2_7::ValueVectorOf"** %this.addr, metadata !2650, metadata !DIExpression()), !dbg !2651
  store i32* %toAdd, i32** %toAdd.addr, align 8
  call void @llvm.dbg.declare(metadata i32** %toAdd.addr, metadata !2652, metadata !DIExpression()), !dbg !2653
  %this1 = load %"class.xercesc_2_7::ValueVectorOf"*, %"class.xercesc_2_7::ValueVectorOf"** %this.addr, align 8
  call void @_ZN11xercesc_2_713ValueVectorOfIiE19ensureExtraCapacityEj(%"class.xercesc_2_7::ValueVectorOf"* %this1, i32 1), !dbg !2654
  %0 = load i32*, i32** %toAdd.addr, align 8, !dbg !2655
  %1 = load i32, i32* %0, align 4, !dbg !2655
  %fElemList = getelementptr inbounds %"class.xercesc_2_7::ValueVectorOf", %"class.xercesc_2_7::ValueVectorOf"* %this1, i32 0, i32 3, !dbg !2656
  %2 = load i32*, i32** %fElemList, align 8, !dbg !2656
  %fCurCount = getelementptr inbounds %"class.xercesc_2_7::ValueVectorOf", %"class.xercesc_2_7::ValueVectorOf"* %this1, i32 0, i32 1, !dbg !2657
  %3 = load i32, i32* %fCurCount, align 4, !dbg !2657
  %idxprom = zext i32 %3 to i64, !dbg !2656
  %arrayidx = getelementptr inbounds i32, i32* %2, i64 %idxprom, !dbg !2656
  store i32 %1, i32* %arrayidx, align 4, !dbg !2658
  %fCurCount2 = getelementptr inbounds %"class.xercesc_2_7::ValueVectorOf", %"class.xercesc_2_7::ValueVectorOf"* %this1, i32 0, i32 1, !dbg !2659
  %4 = load i32, i32* %fCurCount2, align 4, !dbg !2660
  %inc = add i32 %4, 1, !dbg !2660
  store i32 %inc, i32* %fCurCount2, align 4, !dbg !2660
  ret void, !dbg !2661
}

; Function Attrs: noinline uwtable
define internal void @__cxx_global_var_init() #6 section ".text.startup" !dbg !2662 {
entry:
  call void @_ZN11xercesc_2_718XMLRegisterCleanupC1Ev(%"class.xercesc_2_7::XMLRegisterCleanup"* @_ZN11xercesc_2_7L14anyTypeCleanupE), !dbg !2663
  ret void, !dbg !2663
}

declare dso_local void @_ZN11xercesc_2_718XMLRegisterCleanupC1Ev(%"class.xercesc_2_7::XMLRegisterCleanup"*) unnamed_addr #7

; Function Attrs: noinline nounwind uwtable
define dso_local void @_ZN11xercesc_2_715ComplexTypeInfo13reinitAnyTypeEv() #1 align 2 !dbg !2664 {
entry:
  %0 = load %"class.xercesc_2_7::ComplexTypeInfo"*, %"class.xercesc_2_7::ComplexTypeInfo"** @_ZN11xercesc_2_715ComplexTypeInfo8fAnyTypeE, align 8, !dbg !2665
  %isnull = icmp eq %"class.xercesc_2_7::ComplexTypeInfo"* %0, null, !dbg !2666
  br i1 %isnull, label %delete.end, label %delete.notnull, !dbg !2666

delete.notnull:                                   ; preds = %entry
  %1 = bitcast %"class.xercesc_2_7::ComplexTypeInfo"* %0 to void (%"class.xercesc_2_7::ComplexTypeInfo"*)***, !dbg !2666
  %vtable = load void (%"class.xercesc_2_7::ComplexTypeInfo"*)**, void (%"class.xercesc_2_7::ComplexTypeInfo"*)*** %1, align 8, !dbg !2666
  %vfn = getelementptr inbounds void (%"class.xercesc_2_7::ComplexTypeInfo"*)*, void (%"class.xercesc_2_7::ComplexTypeInfo"*)** %vtable, i64 1, !dbg !2666
  %2 = load void (%"class.xercesc_2_7::ComplexTypeInfo"*)*, void (%"class.xercesc_2_7::ComplexTypeInfo"*)** %vfn, align 8, !dbg !2666
  call void %2(%"class.xercesc_2_7::ComplexTypeInfo"* %0) #9, !dbg !2666
  br label %delete.end, !dbg !2666

delete.end:                                       ; preds = %delete.notnull, %entry
  store %"class.xercesc_2_7::ComplexTypeInfo"* null, %"class.xercesc_2_7::ComplexTypeInfo"** @_ZN11xercesc_2_715ComplexTypeInfo8fAnyTypeE, align 8, !dbg !2667
  %3 = load %"class.xercesc_2_7::XMLMutex"*, %"class.xercesc_2_7::XMLMutex"** @_ZN11xercesc_2_7L13sAnyTypeMutexE, align 8, !dbg !2668
  %isnull1 = icmp eq %"class.xercesc_2_7::XMLMutex"* %3, null, !dbg !2669
  br i1 %isnull1, label %delete.end3, label %delete.notnull2, !dbg !2669

delete.notnull2:                                  ; preds = %delete.end
  call void @_ZN11xercesc_2_78XMLMutexD1Ev(%"class.xercesc_2_7::XMLMutex"* %3) #9, !dbg !2669
  %4 = bitcast %"class.xercesc_2_7::XMLMutex"* %3 to i8*, !dbg !2669
  call void @_ZN11xercesc_2_77XMemorydlEPv(i8* %4) #9, !dbg !2669
  br label %delete.end3, !dbg !2669

delete.end3:                                      ; preds = %delete.notnull2, %delete.end
  store %"class.xercesc_2_7::XMLMutex"* null, %"class.xercesc_2_7::XMLMutex"** @_ZN11xercesc_2_7L13sAnyTypeMutexE, align 8, !dbg !2670
  store i8 0, i8* @_ZN11xercesc_2_7L23sAnyTypeMutexRegisteredE, align 1, !dbg !2671
  ret void, !dbg !2672
}

; Function Attrs: nounwind
declare dso_local void @_ZN11xercesc_2_78XMLMutexD1Ev(%"class.xercesc_2_7::XMLMutex"*) unnamed_addr #4

; Function Attrs: noinline uwtable
define dso_local void @_ZN11xercesc_2_714XMLInitializer17initializeAnyTypeEv() #6 align 2 !dbg !2673 {
entry:
  %call = call %"class.xercesc_2_7::ComplexTypeInfo"* @_ZN11xercesc_2_715ComplexTypeInfo10getAnyTypeEj(i32 1), !dbg !2708
  ret void, !dbg !2709
}

; Function Attrs: noinline uwtable
define dso_local %"class.xercesc_2_7::ComplexTypeInfo"* @_ZN11xercesc_2_715ComplexTypeInfo10getAnyTypeEj(i32 %emptyNSId) #6 align 2 personality i8* bitcast (i32 (...)* @__gxx_personality_v0 to i8*) !dbg !2710 {
entry:
  %emptyNSId.addr = alloca i32, align 4
  %lock = alloca %"class.xercesc_2_7::XMLMutexLock", align 8
  %exn.slot = alloca i8*
  %ehselector.slot = alloca i32
  %lock8 = alloca %"class.xercesc_2_7::XMLMutexLock", align 8
  %typeName = alloca [128 x i16], align 16
  %nsLen = alloca i32, align 4
  %term = alloca %"class.xercesc_2_7::ContentSpecNode"*, align 8
  %particle = alloca %"class.xercesc_2_7::ContentSpecNode"*, align 8
  %attWildCard = alloca %"class.xercesc_2_7::SchemaAttDef"*, align 8
  store i32 %emptyNSId, i32* %emptyNSId.addr, align 4
  call void @llvm.dbg.declare(metadata i32* %emptyNSId.addr, metadata !2711, metadata !DIExpression()), !dbg !2712
  %0 = load i8, i8* @_ZN11xercesc_2_7L23sAnyTypeMutexRegisteredE, align 1, !dbg !2713
  %tobool = trunc i8 %0 to i1, !dbg !2713
  br i1 %tobool, label %if.end56, label %if.then, !dbg !2715

if.then:                                          ; preds = %entry
  %1 = load %"class.xercesc_2_7::XMLMutex"*, %"class.xercesc_2_7::XMLMutex"** @_ZN11xercesc_2_7L13sAnyTypeMutexE, align 8, !dbg !2716
  %tobool1 = icmp ne %"class.xercesc_2_7::XMLMutex"* %1, null, !dbg !2716
  br i1 %tobool1, label %if.end7, label %if.then2, !dbg !2719

if.then2:                                         ; preds = %if.then
  call void @llvm.dbg.declare(metadata %"class.xercesc_2_7::XMLMutexLock"* %lock, metadata !2720, metadata !DIExpression()), !dbg !2744
  %2 = load %"class.xercesc_2_7::XMLMutex"*, %"class.xercesc_2_7::XMLMutex"** @_ZN11xercesc_2_716XMLPlatformUtils13fgAtomicMutexE, align 8, !dbg !2745
  call void @_ZN11xercesc_2_712XMLMutexLockC1EPNS_8XMLMutexE(%"class.xercesc_2_7::XMLMutexLock"* %lock, %"class.xercesc_2_7::XMLMutex"* %2), !dbg !2744
  %3 = load %"class.xercesc_2_7::XMLMutex"*, %"class.xercesc_2_7::XMLMutex"** @_ZN11xercesc_2_7L13sAnyTypeMutexE, align 8, !dbg !2746
  %tobool3 = icmp ne %"class.xercesc_2_7::XMLMutex"* %3, null, !dbg !2746
  br i1 %tobool3, label %if.end, label %if.then4, !dbg !2748

if.then4:                                         ; preds = %if.then2
  %call = invoke i8* @_ZN11xercesc_2_77XMemorynwEm(i64 8)
          to label %invoke.cont unwind label %lpad, !dbg !2749

invoke.cont:                                      ; preds = %if.then4
  %4 = bitcast i8* %call to %"class.xercesc_2_7::XMLMutex"*, !dbg !2749
  %5 = load %"class.xercesc_2_7::MemoryManager"*, %"class.xercesc_2_7::MemoryManager"** @_ZN11xercesc_2_716XMLPlatformUtils15fgMemoryManagerE, align 8, !dbg !2750
  invoke void @_ZN11xercesc_2_78XMLMutexC1EPNS_13MemoryManagerE(%"class.xercesc_2_7::XMLMutex"* %4, %"class.xercesc_2_7::MemoryManager"* %5)
          to label %invoke.cont6 unwind label %lpad5, !dbg !2751

invoke.cont6:                                     ; preds = %invoke.cont
  store %"class.xercesc_2_7::XMLMutex"* %4, %"class.xercesc_2_7::XMLMutex"** @_ZN11xercesc_2_7L13sAnyTypeMutexE, align 8, !dbg !2752
  br label %if.end, !dbg !2753

lpad:                                             ; preds = %if.then4
  %6 = landingpad { i8*, i32 }
          cleanup, !dbg !2754
  %7 = extractvalue { i8*, i32 } %6, 0, !dbg !2754
  store i8* %7, i8** %exn.slot, align 8, !dbg !2754
  %8 = extractvalue { i8*, i32 } %6, 1, !dbg !2754
  store i32 %8, i32* %ehselector.slot, align 4, !dbg !2754
  br label %ehcleanup, !dbg !2754

lpad5:                                            ; preds = %invoke.cont
  %9 = landingpad { i8*, i32 }
          cleanup, !dbg !2754
  %10 = extractvalue { i8*, i32 } %9, 0, !dbg !2754
  store i8* %10, i8** %exn.slot, align 8, !dbg !2754
  %11 = extractvalue { i8*, i32 } %9, 1, !dbg !2754
  store i32 %11, i32* %ehselector.slot, align 4, !dbg !2754
  call void @_ZN11xercesc_2_77XMemorydlEPv(i8* %call) #9, !dbg !2749
  br label %ehcleanup, !dbg !2749

if.end:                                           ; preds = %invoke.cont6, %if.then2
  call void @_ZN11xercesc_2_712XMLMutexLockD1Ev(%"class.xercesc_2_7::XMLMutexLock"* %lock) #9, !dbg !2755
  br label %if.end7, !dbg !2756

ehcleanup:                                        ; preds = %lpad5, %lpad
  call void @_ZN11xercesc_2_712XMLMutexLockD1Ev(%"class.xercesc_2_7::XMLMutexLock"* %lock) #9, !dbg !2755
  br label %eh.resume, !dbg !2755

if.end7:                                          ; preds = %if.end, %if.then
  call void @llvm.dbg.declare(metadata %"class.xercesc_2_7::XMLMutexLock"* %lock8, metadata !2757, metadata !DIExpression()), !dbg !2759
  %12 = load %"class.xercesc_2_7::XMLMutex"*, %"class.xercesc_2_7::XMLMutex"** @_ZN11xercesc_2_7L13sAnyTypeMutexE, align 8, !dbg !2760
  call void @_ZN11xercesc_2_712XMLMutexLockC1EPNS_8XMLMutexE(%"class.xercesc_2_7::XMLMutexLock"* %lock8, %"class.xercesc_2_7::XMLMutex"* %12), !dbg !2759
  %13 = load i8, i8* @_ZN11xercesc_2_7L23sAnyTypeMutexRegisteredE, align 1, !dbg !2761
  %tobool9 = trunc i8 %13 to i1, !dbg !2761
  br i1 %tobool9, label %if.end54, label %if.then10, !dbg !2763

if.then10:                                        ; preds = %if.end7
  call void @llvm.dbg.declare(metadata [128 x i16]* %typeName, metadata !2764, metadata !DIExpression()), !dbg !2767
  call void @llvm.dbg.declare(metadata i32* %nsLen, metadata !2768, metadata !DIExpression()), !dbg !2769
  %call13 = invoke i32 @_ZN11xercesc_2_79XMLString9stringLenEPKt(i16* getelementptr inbounds ([0 x i16], [0 x i16]* @_ZN11xercesc_2_713SchemaSymbols21fgURI_SCHEMAFORSCHEMAE, i64 0, i64 0))
          to label %invoke.cont12 unwind label %lpad11, !dbg !2770

invoke.cont12:                                    ; preds = %if.then10
  store i32 %call13, i32* %nsLen, align 4, !dbg !2769
  %arraydecay = getelementptr inbounds [128 x i16], [128 x i16]* %typeName, i64 0, i64 0, !dbg !2771
  invoke void @_ZN11xercesc_2_79XMLString10copyStringEPtPKt(i16* %arraydecay, i16* getelementptr inbounds ([0 x i16], [0 x i16]* @_ZN11xercesc_2_713SchemaSymbols21fgURI_SCHEMAFORSCHEMAE, i64 0, i64 0))
          to label %invoke.cont14 unwind label %lpad11, !dbg !2772

invoke.cont14:                                    ; preds = %invoke.cont12
  %14 = load i32, i32* %nsLen, align 4, !dbg !2773
  %idxprom = zext i32 %14 to i64, !dbg !2774
  %arrayidx = getelementptr inbounds [128 x i16], [128 x i16]* %typeName, i64 0, i64 %idxprom, !dbg !2774
  store i16 44, i16* %arrayidx, align 2, !dbg !2775
  %arraydecay15 = getelementptr inbounds [128 x i16], [128 x i16]* %typeName, i64 0, i64 0, !dbg !2776
  %15 = load i32, i32* %nsLen, align 4, !dbg !2777
  %idx.ext = zext i32 %15 to i64, !dbg !2778
  %add.ptr = getelementptr inbounds i16, i16* %arraydecay15, i64 %idx.ext, !dbg !2778
  %add.ptr16 = getelementptr inbounds i16, i16* %add.ptr, i64 1, !dbg !2779
  invoke void @_ZN11xercesc_2_79XMLString10copyStringEPtPKt(i16* %add.ptr16, i16* getelementptr inbounds ([0 x i16], [0 x i16]* @_ZN11xercesc_2_713SchemaSymbols16fgATTVAL_ANYTYPEE, i64 0, i64 0))
          to label %invoke.cont17 unwind label %lpad11, !dbg !2780

invoke.cont17:                                    ; preds = %invoke.cont14
  %call19 = invoke i8* @_ZN11xercesc_2_77XMemorynwEm(i64 176)
          to label %invoke.cont18 unwind label %lpad11, !dbg !2781

invoke.cont18:                                    ; preds = %invoke.cont17
  %16 = bitcast i8* %call19 to %"class.xercesc_2_7::ComplexTypeInfo"*, !dbg !2781
  %17 = load %"class.xercesc_2_7::MemoryManager"*, %"class.xercesc_2_7::MemoryManager"** @_ZN11xercesc_2_716XMLPlatformUtils15fgMemoryManagerE, align 8, !dbg !2782
  invoke void @_ZN11xercesc_2_715ComplexTypeInfoC1EPNS_13MemoryManagerE(%"class.xercesc_2_7::ComplexTypeInfo"* %16, %"class.xercesc_2_7::MemoryManager"* %17)
          to label %invoke.cont21 unwind label %lpad20, !dbg !2782

invoke.cont21:                                    ; preds = %invoke.cont18
  store %"class.xercesc_2_7::ComplexTypeInfo"* %16, %"class.xercesc_2_7::ComplexTypeInfo"** @_ZN11xercesc_2_715ComplexTypeInfo8fAnyTypeE, align 8, !dbg !2783
  call void @llvm.dbg.declare(metadata %"class.xercesc_2_7::ContentSpecNode"** %term, metadata !2784, metadata !DIExpression()), !dbg !2785
  %call24 = invoke i8* @_ZN11xercesc_2_77XMemorynwEm(i64 64)
          to label %invoke.cont23 unwind label %lpad11, !dbg !2786

invoke.cont23:                                    ; preds = %invoke.cont21
  %18 = bitcast i8* %call24 to %"class.xercesc_2_7::ContentSpecNode"*, !dbg !2786
  %call27 = invoke i8* @_ZN11xercesc_2_77XMemorynwEm(i64 56)
          to label %invoke.cont26 unwind label %lpad25, !dbg !2787

invoke.cont26:                                    ; preds = %invoke.cont23
  %19 = bitcast i8* %call27 to %"class.xercesc_2_7::QName"*, !dbg !2787
  %20 = load i32, i32* %emptyNSId.addr, align 4, !dbg !2788
  %21 = load %"class.xercesc_2_7::MemoryManager"*, %"class.xercesc_2_7::MemoryManager"** @_ZN11xercesc_2_716XMLPlatformUtils15fgMemoryManagerE, align 8, !dbg !2789
  invoke void @_ZN11xercesc_2_75QNameC1EPKtS2_jPNS_13MemoryManagerE(%"class.xercesc_2_7::QName"* %19, i16* getelementptr inbounds ([0 x i16], [0 x i16]* @_ZN11xercesc_2_76XMLUni15fgZeroLenStringE, i64 0, i64 0), i16* getelementptr inbounds ([0 x i16], [0 x i16]* @_ZN11xercesc_2_76XMLUni15fgZeroLenStringE, i64 0, i64 0), i32 %20, %"class.xercesc_2_7::MemoryManager"* %21)
          to label %invoke.cont29 unwind label %lpad28, !dbg !2789

invoke.cont29:                                    ; preds = %invoke.cont26
  %22 = load %"class.xercesc_2_7::MemoryManager"*, %"class.xercesc_2_7::MemoryManager"** @_ZN11xercesc_2_716XMLPlatformUtils15fgMemoryManagerE, align 8, !dbg !2790
  invoke void @_ZN11xercesc_2_715ContentSpecNodeC2EPNS_5QNameEbPNS_13MemoryManagerE(%"class.xercesc_2_7::ContentSpecNode"* %18, %"class.xercesc_2_7::QName"* %19, i1 zeroext false, %"class.xercesc_2_7::MemoryManager"* %22)
          to label %invoke.cont31 unwind label %lpad25, !dbg !2790

invoke.cont31:                                    ; preds = %invoke.cont29
  store %"class.xercesc_2_7::ContentSpecNode"* %18, %"class.xercesc_2_7::ContentSpecNode"** %term, align 8, !dbg !2785
  %23 = load %"class.xercesc_2_7::ContentSpecNode"*, %"class.xercesc_2_7::ContentSpecNode"** %term, align 8, !dbg !2791
  invoke void @_ZN11xercesc_2_715ContentSpecNode7setTypeENS0_9NodeTypesE(%"class.xercesc_2_7::ContentSpecNode"* %23, i32 22)
          to label %invoke.cont33 unwind label %lpad11, !dbg !2792

invoke.cont33:                                    ; preds = %invoke.cont31
  %24 = load %"class.xercesc_2_7::ContentSpecNode"*, %"class.xercesc_2_7::ContentSpecNode"** %term, align 8, !dbg !2793
  invoke void @_ZN11xercesc_2_715ContentSpecNode12setMinOccursEi(%"class.xercesc_2_7::ContentSpecNode"* %24, i32 0)
          to label %invoke.cont34 unwind label %lpad11, !dbg !2794

invoke.cont34:                                    ; preds = %invoke.cont33
  %25 = load %"class.xercesc_2_7::ContentSpecNode"*, %"class.xercesc_2_7::ContentSpecNode"** %term, align 8, !dbg !2795
  invoke void @_ZN11xercesc_2_715ContentSpecNode12setMaxOccursEi(%"class.xercesc_2_7::ContentSpecNode"* %25, i32 -1)
          to label %invoke.cont35 unwind label %lpad11, !dbg !2796

invoke.cont35:                                    ; preds = %invoke.cont34
  call void @llvm.dbg.declare(metadata %"class.xercesc_2_7::ContentSpecNode"** %particle, metadata !2797, metadata !DIExpression()), !dbg !2798
  %call37 = invoke i8* @_ZN11xercesc_2_77XMemorynwEm(i64 64)
          to label %invoke.cont36 unwind label %lpad11, !dbg !2799

invoke.cont36:                                    ; preds = %invoke.cont35
  %26 = bitcast i8* %call37 to %"class.xercesc_2_7::ContentSpecNode"*, !dbg !2799
  %27 = load %"class.xercesc_2_7::ContentSpecNode"*, %"class.xercesc_2_7::ContentSpecNode"** %term, align 8, !dbg !2800
  %28 = load %"class.xercesc_2_7::MemoryManager"*, %"class.xercesc_2_7::MemoryManager"** @_ZN11xercesc_2_716XMLPlatformUtils15fgMemoryManagerE, align 8, !dbg !2801
  invoke void @_ZN11xercesc_2_715ContentSpecNodeC2ENS0_9NodeTypesEPS0_S2_bbPNS_13MemoryManagerE(%"class.xercesc_2_7::ContentSpecNode"* %26, i32 21, %"class.xercesc_2_7::ContentSpecNode"* %27, %"class.xercesc_2_7::ContentSpecNode"* null, i1 zeroext true, i1 zeroext true, %"class.xercesc_2_7::MemoryManager"* %28)
          to label %invoke.cont39 unwind label %lpad38, !dbg !2801

invoke.cont39:                                    ; preds = %invoke.cont36
  store %"class.xercesc_2_7::ContentSpecNode"* %26, %"class.xercesc_2_7::ContentSpecNode"** %particle, align 8, !dbg !2798
  call void @llvm.dbg.declare(metadata %"class.xercesc_2_7::SchemaAttDef"** %attWildCard, metadata !2802, metadata !DIExpression()), !dbg !2803
  %call42 = invoke i8* @_ZN11xercesc_2_77XMemorynwEm(i64 120)
          to label %invoke.cont41 unwind label %lpad11, !dbg !2804

invoke.cont41:                                    ; preds = %invoke.cont39
  %29 = bitcast i8* %call42 to %"class.xercesc_2_7::SchemaAttDef"*, !dbg !2804
  %30 = load i32, i32* %emptyNSId.addr, align 4, !dbg !2805
  %31 = load %"class.xercesc_2_7::MemoryManager"*, %"class.xercesc_2_7::MemoryManager"** @_ZN11xercesc_2_716XMLPlatformUtils15fgMemoryManagerE, align 8, !dbg !2806
  invoke void @_ZN11xercesc_2_712SchemaAttDefC1EPKtS2_iNS_9XMLAttDef8AttTypesENS3_11DefAttTypesEPNS_13MemoryManagerE(%"class.xercesc_2_7::SchemaAttDef"* %29, i16* getelementptr inbounds ([0 x i16], [0 x i16]* @_ZN11xercesc_2_76XMLUni15fgZeroLenStringE, i64 0, i64 0), i16* getelementptr inbounds ([0 x i16], [0 x i16]* @_ZN11xercesc_2_76XMLUni15fgZeroLenStringE, i64 0, i64 0), i32 %30, i32 11, i32 6, %"class.xercesc_2_7::MemoryManager"* %31)
          to label %invoke.cont44 unwind label %lpad43, !dbg !2806

invoke.cont44:                                    ; preds = %invoke.cont41
  store %"class.xercesc_2_7::SchemaAttDef"* %29, %"class.xercesc_2_7::SchemaAttDef"** %attWildCard, align 8, !dbg !2803
  %32 = load %"class.xercesc_2_7::ComplexTypeInfo"*, %"class.xercesc_2_7::ComplexTypeInfo"** @_ZN11xercesc_2_715ComplexTypeInfo8fAnyTypeE, align 8, !dbg !2807
  %arraydecay46 = getelementptr inbounds [128 x i16], [128 x i16]* %typeName, i64 0, i64 0, !dbg !2808
  invoke void @_ZN11xercesc_2_715ComplexTypeInfo11setTypeNameEPKt(%"class.xercesc_2_7::ComplexTypeInfo"* %32, i16* %arraydecay46)
          to label %invoke.cont47 unwind label %lpad11, !dbg !2809

invoke.cont47:                                    ; preds = %invoke.cont44
  %33 = load %"class.xercesc_2_7::ComplexTypeInfo"*, %"class.xercesc_2_7::ComplexTypeInfo"** @_ZN11xercesc_2_715ComplexTypeInfo8fAnyTypeE, align 8, !dbg !2810
  %34 = load %"class.xercesc_2_7::ComplexTypeInfo"*, %"class.xercesc_2_7::ComplexTypeInfo"** @_ZN11xercesc_2_715ComplexTypeInfo8fAnyTypeE, align 8, !dbg !2811
  invoke void @_ZN11xercesc_2_715ComplexTypeInfo22setBaseComplexTypeInfoEPS0_(%"class.xercesc_2_7::ComplexTypeInfo"* %33, %"class.xercesc_2_7::ComplexTypeInfo"* %34)
          to label %invoke.cont48 unwind label %lpad11, !dbg !2812

invoke.cont48:                                    ; preds = %invoke.cont47
  %35 = load %"class.xercesc_2_7::ComplexTypeInfo"*, %"class.xercesc_2_7::ComplexTypeInfo"** @_ZN11xercesc_2_715ComplexTypeInfo8fAnyTypeE, align 8, !dbg !2813
  invoke void @_ZN11xercesc_2_715ComplexTypeInfo12setDerivedByEi(%"class.xercesc_2_7::ComplexTypeInfo"* %35, i32 4)
          to label %invoke.cont49 unwind label %lpad11, !dbg !2814

invoke.cont49:                                    ; preds = %invoke.cont48
  %36 = load %"class.xercesc_2_7::ComplexTypeInfo"*, %"class.xercesc_2_7::ComplexTypeInfo"** @_ZN11xercesc_2_715ComplexTypeInfo8fAnyTypeE, align 8, !dbg !2815
  invoke void @_ZN11xercesc_2_715ComplexTypeInfo14setContentTypeEi(%"class.xercesc_2_7::ComplexTypeInfo"* %36, i32 3)
          to label %invoke.cont50 unwind label %lpad11, !dbg !2816

invoke.cont50:                                    ; preds = %invoke.cont49
  %37 = load %"class.xercesc_2_7::ComplexTypeInfo"*, %"class.xercesc_2_7::ComplexTypeInfo"** @_ZN11xercesc_2_715ComplexTypeInfo8fAnyTypeE, align 8, !dbg !2817
  %38 = load %"class.xercesc_2_7::ContentSpecNode"*, %"class.xercesc_2_7::ContentSpecNode"** %particle, align 8, !dbg !2818
  invoke void @_ZN11xercesc_2_715ComplexTypeInfo14setContentSpecEPNS_15ContentSpecNodeE(%"class.xercesc_2_7::ComplexTypeInfo"* %37, %"class.xercesc_2_7::ContentSpecNode"* %38)
          to label %invoke.cont51 unwind label %lpad11, !dbg !2819

invoke.cont51:                                    ; preds = %invoke.cont50
  %39 = load %"class.xercesc_2_7::ComplexTypeInfo"*, %"class.xercesc_2_7::ComplexTypeInfo"** @_ZN11xercesc_2_715ComplexTypeInfo8fAnyTypeE, align 8, !dbg !2820
  %40 = load %"class.xercesc_2_7::SchemaAttDef"*, %"class.xercesc_2_7::SchemaAttDef"** %attWildCard, align 8, !dbg !2821
  invoke void @_ZN11xercesc_2_715ComplexTypeInfo14setAttWildCardEPNS_12SchemaAttDefE(%"class.xercesc_2_7::ComplexTypeInfo"* %39, %"class.xercesc_2_7::SchemaAttDef"* %40)
          to label %invoke.cont52 unwind label %lpad11, !dbg !2822

invoke.cont52:                                    ; preds = %invoke.cont51
  invoke void @_ZN11xercesc_2_718XMLRegisterCleanup15registerCleanupEPFvvE(%"class.xercesc_2_7::XMLRegisterCleanup"* @_ZN11xercesc_2_7L14anyTypeCleanupE, void ()* @_ZN11xercesc_2_715ComplexTypeInfo13reinitAnyTypeEv)
          to label %invoke.cont53 unwind label %lpad11, !dbg !2823

invoke.cont53:                                    ; preds = %invoke.cont52
  store i8 1, i8* @_ZN11xercesc_2_7L23sAnyTypeMutexRegisteredE, align 1, !dbg !2824
  br label %if.end54, !dbg !2825

lpad11:                                           ; preds = %invoke.cont52, %invoke.cont51, %invoke.cont50, %invoke.cont49, %invoke.cont48, %invoke.cont47, %invoke.cont44, %invoke.cont39, %invoke.cont35, %invoke.cont34, %invoke.cont33, %invoke.cont31, %invoke.cont21, %invoke.cont17, %invoke.cont14, %invoke.cont12, %if.then10
  %41 = landingpad { i8*, i32 }
          cleanup, !dbg !2826
  %42 = extractvalue { i8*, i32 } %41, 0, !dbg !2826
  store i8* %42, i8** %exn.slot, align 8, !dbg !2826
  %43 = extractvalue { i8*, i32 } %41, 1, !dbg !2826
  store i32 %43, i32* %ehselector.slot, align 4, !dbg !2826
  br label %ehcleanup55, !dbg !2826

lpad20:                                           ; preds = %invoke.cont18
  %44 = landingpad { i8*, i32 }
          cleanup, !dbg !2826
  %45 = extractvalue { i8*, i32 } %44, 0, !dbg !2826
  store i8* %45, i8** %exn.slot, align 8, !dbg !2826
  %46 = extractvalue { i8*, i32 } %44, 1, !dbg !2826
  store i32 %46, i32* %ehselector.slot, align 4, !dbg !2826
  call void @_ZN11xercesc_2_77XMemorydlEPv(i8* %call19) #9, !dbg !2781
  br label %ehcleanup55, !dbg !2781

lpad25:                                           ; preds = %invoke.cont29, %invoke.cont23
  %47 = landingpad { i8*, i32 }
          cleanup, !dbg !2826
  %48 = extractvalue { i8*, i32 } %47, 0, !dbg !2826
  store i8* %48, i8** %exn.slot, align 8, !dbg !2826
  %49 = extractvalue { i8*, i32 } %47, 1, !dbg !2826
  store i32 %49, i32* %ehselector.slot, align 4, !dbg !2826
  br label %ehcleanup32, !dbg !2826

lpad28:                                           ; preds = %invoke.cont26
  %50 = landingpad { i8*, i32 }
          cleanup, !dbg !2826
  %51 = extractvalue { i8*, i32 } %50, 0, !dbg !2826
  store i8* %51, i8** %exn.slot, align 8, !dbg !2826
  %52 = extractvalue { i8*, i32 } %50, 1, !dbg !2826
  store i32 %52, i32* %ehselector.slot, align 4, !dbg !2826
  call void @_ZN11xercesc_2_77XMemorydlEPv(i8* %call27) #9, !dbg !2787
  br label %ehcleanup32, !dbg !2787

ehcleanup32:                                      ; preds = %lpad28, %lpad25
  call void @_ZN11xercesc_2_77XMemorydlEPv(i8* %call24) #9, !dbg !2786
  br label %ehcleanup55, !dbg !2786

lpad38:                                           ; preds = %invoke.cont36
  %53 = landingpad { i8*, i32 }
          cleanup, !dbg !2826
  %54 = extractvalue { i8*, i32 } %53, 0, !dbg !2826
  store i8* %54, i8** %exn.slot, align 8, !dbg !2826
  %55 = extractvalue { i8*, i32 } %53, 1, !dbg !2826
  store i32 %55, i32* %ehselector.slot, align 4, !dbg !2826
  call void @_ZN11xercesc_2_77XMemorydlEPv(i8* %call37) #9, !dbg !2799
  br label %ehcleanup55, !dbg !2799

lpad43:                                           ; preds = %invoke.cont41
  %56 = landingpad { i8*, i32 }
          cleanup, !dbg !2826
  %57 = extractvalue { i8*, i32 } %56, 0, !dbg !2826
  store i8* %57, i8** %exn.slot, align 8, !dbg !2826
  %58 = extractvalue { i8*, i32 } %56, 1, !dbg !2826
  store i32 %58, i32* %ehselector.slot, align 4, !dbg !2826
  call void @_ZN11xercesc_2_77XMemorydlEPv(i8* %call42) #9, !dbg !2804
  br label %ehcleanup55, !dbg !2804

if.end54:                                         ; preds = %invoke.cont53, %if.end7
  call void @_ZN11xercesc_2_712XMLMutexLockD1Ev(%"class.xercesc_2_7::XMLMutexLock"* %lock8) #9, !dbg !2827
  br label %if.end56, !dbg !2828

ehcleanup55:                                      ; preds = %lpad43, %lpad38, %ehcleanup32, %lpad20, %lpad11
  call void @_ZN11xercesc_2_712XMLMutexLockD1Ev(%"class.xercesc_2_7::XMLMutexLock"* %lock8) #9, !dbg !2827
  br label %eh.resume, !dbg !2827

if.end56:                                         ; preds = %if.end54, %entry
  %59 = load %"class.xercesc_2_7::ComplexTypeInfo"*, %"class.xercesc_2_7::ComplexTypeInfo"** @_ZN11xercesc_2_715ComplexTypeInfo8fAnyTypeE, align 8, !dbg !2829
  ret %"class.xercesc_2_7::ComplexTypeInfo"* %59, !dbg !2830

eh.resume:                                        ; preds = %ehcleanup55, %ehcleanup
  %exn = load i8*, i8** %exn.slot, align 8, !dbg !2755
  %sel = load i32, i32* %ehselector.slot, align 4, !dbg !2755
  %lpad.val = insertvalue { i8*, i32 } undef, i8* %exn, 0, !dbg !2755
  %lpad.val57 = insertvalue { i8*, i32 } %lpad.val, i32 %sel, 1, !dbg !2755
  resume { i8*, i32 } %lpad.val57, !dbg !2755
}

declare dso_local void @_ZN11xercesc_2_712XMLMutexLockC1EPNS_8XMLMutexE(%"class.xercesc_2_7::XMLMutexLock"*, %"class.xercesc_2_7::XMLMutex"*) unnamed_addr #7

declare dso_local i8* @_ZN11xercesc_2_77XMemorynwEm(i64) #7

declare dso_local void @_ZN11xercesc_2_78XMLMutexC1EPNS_13MemoryManagerE(%"class.xercesc_2_7::XMLMutex"*, %"class.xercesc_2_7::MemoryManager"*) unnamed_addr #7

; Function Attrs: nounwind
declare dso_local void @_ZN11xercesc_2_712XMLMutexLockD1Ev(%"class.xercesc_2_7::XMLMutexLock"*) unnamed_addr #4

; Function Attrs: noinline nounwind uwtable
define linkonce_odr dso_local i32 @_ZN11xercesc_2_79XMLString9stringLenEPKt(i16* %src) #1 comdat align 2 !dbg !2831 {
entry:
  %retval = alloca i32, align 4
  %src.addr = alloca i16*, align 8
  %pszTmp = alloca i16*, align 8
  store i16* %src, i16** %src.addr, align 8
  call void @llvm.dbg.declare(metadata i16** %src.addr, metadata !3077, metadata !DIExpression()), !dbg !3078
  %0 = load i16*, i16** %src.addr, align 8, !dbg !3079
  %cmp = icmp eq i16* %0, null, !dbg !3081
  br i1 %cmp, label %if.then, label %lor.lhs.false, !dbg !3082

lor.lhs.false:                                    ; preds = %entry
  %1 = load i16*, i16** %src.addr, align 8, !dbg !3083
  %2 = load i16, i16* %1, align 2, !dbg !3084
  %conv = zext i16 %2 to i32, !dbg !3084
  %cmp1 = icmp eq i32 %conv, 0, !dbg !3085
  br i1 %cmp1, label %if.then, label %if.else, !dbg !3086

if.then:                                          ; preds = %lor.lhs.false, %entry
  store i32 0, i32* %retval, align 4, !dbg !3087
  br label %return, !dbg !3087

if.else:                                          ; preds = %lor.lhs.false
  call void @llvm.dbg.declare(metadata i16** %pszTmp, metadata !3089, metadata !DIExpression()), !dbg !3091
  %3 = load i16*, i16** %src.addr, align 8, !dbg !3092
  %add.ptr = getelementptr inbounds i16, i16* %3, i64 1, !dbg !3093
  store i16* %add.ptr, i16** %pszTmp, align 8, !dbg !3091
  br label %while.cond, !dbg !3094

while.cond:                                       ; preds = %while.body, %if.else
  %4 = load i16*, i16** %pszTmp, align 8, !dbg !3095
  %5 = load i16, i16* %4, align 2, !dbg !3096
  %tobool = icmp ne i16 %5, 0, !dbg !3096
  br i1 %tobool, label %while.body, label %while.end, !dbg !3094

while.body:                                       ; preds = %while.cond
  %6 = load i16*, i16** %pszTmp, align 8, !dbg !3097
  %incdec.ptr = getelementptr inbounds i16, i16* %6, i32 1, !dbg !3097
  store i16* %incdec.ptr, i16** %pszTmp, align 8, !dbg !3097
  br label %while.cond, !dbg !3094, !llvm.loop !3098

while.end:                                        ; preds = %while.cond
  %7 = load i16*, i16** %pszTmp, align 8, !dbg !3100
  %8 = load i16*, i16** %src.addr, align 8, !dbg !3101
  %sub.ptr.lhs.cast = ptrtoint i16* %7 to i64, !dbg !3102
  %sub.ptr.rhs.cast = ptrtoint i16* %8 to i64, !dbg !3102
  %sub.ptr.sub = sub i64 %sub.ptr.lhs.cast, %sub.ptr.rhs.cast, !dbg !3102
  %sub.ptr.div = sdiv exact i64 %sub.ptr.sub, 2, !dbg !3102
  %conv2 = trunc i64 %sub.ptr.div to i32, !dbg !3103
  store i32 %conv2, i32* %retval, align 4, !dbg !3104
  br label %return, !dbg !3104

return:                                           ; preds = %while.end, %if.then
  %9 = load i32, i32* %retval, align 4, !dbg !3105
  ret i32 %9, !dbg !3105
}

declare dso_local void @_ZN11xercesc_2_79XMLString10copyStringEPtPKt(i16*, i16*) #7

declare dso_local void @_ZN11xercesc_2_75QNameC1EPKtS2_jPNS_13MemoryManagerE(%"class.xercesc_2_7::QName"*, i16*, i16*, i32, %"class.xercesc_2_7::MemoryManager"*) unnamed_addr #7

; Function Attrs: noinline uwtable
define linkonce_odr dso_local void @_ZN11xercesc_2_715ContentSpecNodeC2EPNS_5QNameEbPNS_13MemoryManagerE(%"class.xercesc_2_7::ContentSpecNode"* %this, %"class.xercesc_2_7::QName"* %element, i1 zeroext %copyQName, %"class.xercesc_2_7::MemoryManager"* %manager) unnamed_addr #6 comdat align 2 personality i8* bitcast (i32 (...)* @__gxx_personality_v0 to i8*) !dbg !3106 {
entry:
  %this.addr = alloca %"class.xercesc_2_7::ContentSpecNode"*, align 8
  %element.addr = alloca %"class.xercesc_2_7::QName"*, align 8
  %copyQName.addr = alloca i8, align 1
  %manager.addr = alloca %"class.xercesc_2_7::MemoryManager"*, align 8
  %exn.slot = alloca i8*
  %ehselector.slot = alloca i32
  store %"class.xercesc_2_7::ContentSpecNode"* %this, %"class.xercesc_2_7::ContentSpecNode"** %this.addr, align 8
  call void @llvm.dbg.declare(metadata %"class.xercesc_2_7::ContentSpecNode"** %this.addr, metadata !3107, metadata !DIExpression()), !dbg !3108
  store %"class.xercesc_2_7::QName"* %element, %"class.xercesc_2_7::QName"** %element.addr, align 8
  call void @llvm.dbg.declare(metadata %"class.xercesc_2_7::QName"** %element.addr, metadata !3109, metadata !DIExpression()), !dbg !3110
  %frombool = zext i1 %copyQName to i8
  store i8 %frombool, i8* %copyQName.addr, align 1
  call void @llvm.dbg.declare(metadata i8* %copyQName.addr, metadata !3111, metadata !DIExpression()), !dbg !3112
  store %"class.xercesc_2_7::MemoryManager"* %manager, %"class.xercesc_2_7::MemoryManager"** %manager.addr, align 8
  call void @llvm.dbg.declare(metadata %"class.xercesc_2_7::MemoryManager"** %manager.addr, metadata !3113, metadata !DIExpression()), !dbg !3114
  %this1 = load %"class.xercesc_2_7::ContentSpecNode"*, %"class.xercesc_2_7::ContentSpecNode"** %this.addr, align 8
  %0 = bitcast %"class.xercesc_2_7::ContentSpecNode"* %this1 to %"class.xercesc_2_7::XSerializable"*, !dbg !3115
  call void @_ZN11xercesc_2_713XSerializableC2Ev(%"class.xercesc_2_7::XSerializable"* %0), !dbg !3116
  %1 = bitcast %"class.xercesc_2_7::ContentSpecNode"* %this1 to %"class.xercesc_2_7::XMemory"*, !dbg !3115
  invoke void @_ZN11xercesc_2_77XMemoryC2Ev(%"class.xercesc_2_7::XMemory"* %1)
          to label %invoke.cont unwind label %lpad, !dbg !3116

invoke.cont:                                      ; preds = %entry
  %2 = bitcast %"class.xercesc_2_7::ContentSpecNode"* %this1 to i32 (...)***, !dbg !3115
  store i32 (...)** bitcast (i8** getelementptr inbounds ({ [7 x i8*] }, { [7 x i8*] }* @_ZTVN11xercesc_2_715ContentSpecNodeE, i32 0, inrange i32 0, i32 2) to i32 (...)**), i32 (...)*** %2, align 8, !dbg !3115
  %fMemoryManager = getelementptr inbounds %"class.xercesc_2_7::ContentSpecNode", %"class.xercesc_2_7::ContentSpecNode"* %this1, i32 0, i32 1, !dbg !3117
  %3 = load %"class.xercesc_2_7::MemoryManager"*, %"class.xercesc_2_7::MemoryManager"** %manager.addr, align 8, !dbg !3118
  store %"class.xercesc_2_7::MemoryManager"* %3, %"class.xercesc_2_7::MemoryManager"** %fMemoryManager, align 8, !dbg !3117
  %fElement = getelementptr inbounds %"class.xercesc_2_7::ContentSpecNode", %"class.xercesc_2_7::ContentSpecNode"* %this1, i32 0, i32 2, !dbg !3119
  store %"class.xercesc_2_7::QName"* null, %"class.xercesc_2_7::QName"** %fElement, align 8, !dbg !3119
  %fElementDecl = getelementptr inbounds %"class.xercesc_2_7::ContentSpecNode", %"class.xercesc_2_7::ContentSpecNode"* %this1, i32 0, i32 3, !dbg !3120
  store %"class.xercesc_2_7::XMLElementDecl"* null, %"class.xercesc_2_7::XMLElementDecl"** %fElementDecl, align 8, !dbg !3120
  %fFirst = getelementptr inbounds %"class.xercesc_2_7::ContentSpecNode", %"class.xercesc_2_7::ContentSpecNode"* %this1, i32 0, i32 4, !dbg !3121
  store %"class.xercesc_2_7::ContentSpecNode"* null, %"class.xercesc_2_7::ContentSpecNode"** %fFirst, align 8, !dbg !3121
  %fSecond = getelementptr inbounds %"class.xercesc_2_7::ContentSpecNode", %"class.xercesc_2_7::ContentSpecNode"* %this1, i32 0, i32 5, !dbg !3122
  store %"class.xercesc_2_7::ContentSpecNode"* null, %"class.xercesc_2_7::ContentSpecNode"** %fSecond, align 8, !dbg !3122
  %fType = getelementptr inbounds %"class.xercesc_2_7::ContentSpecNode", %"class.xercesc_2_7::ContentSpecNode"* %this1, i32 0, i32 6, !dbg !3123
  store i32 0, i32* %fType, align 8, !dbg !3123
  %fAdoptFirst = getelementptr inbounds %"class.xercesc_2_7::ContentSpecNode", %"class.xercesc_2_7::ContentSpecNode"* %this1, i32 0, i32 7, !dbg !3124
  store i8 1, i8* %fAdoptFirst, align 4, !dbg !3124
  %fAdoptSecond = getelementptr inbounds %"class.xercesc_2_7::ContentSpecNode", %"class.xercesc_2_7::ContentSpecNode"* %this1, i32 0, i32 8, !dbg !3125
  store i8 1, i8* %fAdoptSecond, align 1, !dbg !3125
  %fMinOccurs = getelementptr inbounds %"class.xercesc_2_7::ContentSpecNode", %"class.xercesc_2_7::ContentSpecNode"* %this1, i32 0, i32 9, !dbg !3126
  store i32 1, i32* %fMinOccurs, align 8, !dbg !3126
  %fMaxOccurs = getelementptr inbounds %"class.xercesc_2_7::ContentSpecNode", %"class.xercesc_2_7::ContentSpecNode"* %this1, i32 0, i32 10, !dbg !3127
  store i32 1, i32* %fMaxOccurs, align 4, !dbg !3127
  %4 = load i8, i8* %copyQName.addr, align 1, !dbg !3128
  %tobool = trunc i8 %4 to i1, !dbg !3128
  br i1 %tobool, label %if.then, label %if.else, !dbg !3131

if.then:                                          ; preds = %invoke.cont
  %5 = load %"class.xercesc_2_7::QName"*, %"class.xercesc_2_7::QName"** %element.addr, align 8, !dbg !3132
  %tobool2 = icmp ne %"class.xercesc_2_7::QName"* %5, null, !dbg !3132
  br i1 %tobool2, label %if.then3, label %if.end, !dbg !3135

if.then3:                                         ; preds = %if.then
  %fMemoryManager4 = getelementptr inbounds %"class.xercesc_2_7::ContentSpecNode", %"class.xercesc_2_7::ContentSpecNode"* %this1, i32 0, i32 1, !dbg !3136
  %6 = load %"class.xercesc_2_7::MemoryManager"*, %"class.xercesc_2_7::MemoryManager"** %fMemoryManager4, align 8, !dbg !3136
  %call = invoke i8* @_ZN11xercesc_2_77XMemorynwEmPNS_13MemoryManagerE(i64 56, %"class.xercesc_2_7::MemoryManager"* %6)
          to label %invoke.cont5 unwind label %lpad, !dbg !3137

invoke.cont5:                                     ; preds = %if.then3
  %7 = bitcast i8* %call to %"class.xercesc_2_7::QName"*, !dbg !3137
  %8 = load %"class.xercesc_2_7::QName"*, %"class.xercesc_2_7::QName"** %element.addr, align 8, !dbg !3138
  invoke void @_ZN11xercesc_2_75QNameC1ERKS0_(%"class.xercesc_2_7::QName"* %7, %"class.xercesc_2_7::QName"* dereferenceable(56) %8)
          to label %invoke.cont7 unwind label %lpad6, !dbg !3139

invoke.cont7:                                     ; preds = %invoke.cont5
  %fElement8 = getelementptr inbounds %"class.xercesc_2_7::ContentSpecNode", %"class.xercesc_2_7::ContentSpecNode"* %this1, i32 0, i32 2, !dbg !3140
  store %"class.xercesc_2_7::QName"* %7, %"class.xercesc_2_7::QName"** %fElement8, align 8, !dbg !3141
  br label %if.end, !dbg !3140

lpad:                                             ; preds = %if.then3, %entry
  %9 = landingpad { i8*, i32 }
          cleanup, !dbg !3142
  %10 = extractvalue { i8*, i32 } %9, 0, !dbg !3142
  store i8* %10, i8** %exn.slot, align 8, !dbg !3142
  %11 = extractvalue { i8*, i32 } %9, 1, !dbg !3142
  store i32 %11, i32* %ehselector.slot, align 4, !dbg !3142
  br label %ehcleanup, !dbg !3142

lpad6:                                            ; preds = %invoke.cont5
  %12 = landingpad { i8*, i32 }
          cleanup, !dbg !3143
  %13 = extractvalue { i8*, i32 } %12, 0, !dbg !3143
  store i8* %13, i8** %exn.slot, align 8, !dbg !3143
  %14 = extractvalue { i8*, i32 } %12, 1, !dbg !3143
  store i32 %14, i32* %ehselector.slot, align 4, !dbg !3143
  call void @_ZN11xercesc_2_77XMemorydlEPvPNS_13MemoryManagerE(i8* %call, %"class.xercesc_2_7::MemoryManager"* %6) #9, !dbg !3137
  br label %ehcleanup, !dbg !3137

if.end:                                           ; preds = %invoke.cont7, %if.then
  br label %if.end10, !dbg !3144

if.else:                                          ; preds = %invoke.cont
  %15 = load %"class.xercesc_2_7::QName"*, %"class.xercesc_2_7::QName"** %element.addr, align 8, !dbg !3145
  %fElement9 = getelementptr inbounds %"class.xercesc_2_7::ContentSpecNode", %"class.xercesc_2_7::ContentSpecNode"* %this1, i32 0, i32 2, !dbg !3147
  store %"class.xercesc_2_7::QName"* %15, %"class.xercesc_2_7::QName"** %fElement9, align 8, !dbg !3148
  br label %if.end10

if.end10:                                         ; preds = %if.else, %if.end
  ret void, !dbg !3142

ehcleanup:                                        ; preds = %lpad6, %lpad
  %16 = bitcast %"class.xercesc_2_7::ContentSpecNode"* %this1 to %"class.xercesc_2_7::XSerializable"*, !dbg !3149
  call void @_ZN11xercesc_2_713XSerializableD2Ev(%"class.xercesc_2_7::XSerializable"* %16) #9, !dbg !3149
  br label %eh.resume, !dbg !3149

eh.resume:                                        ; preds = %ehcleanup
  %exn = load i8*, i8** %exn.slot, align 8, !dbg !3149
  %sel = load i32, i32* %ehselector.slot, align 4, !dbg !3149
  %lpad.val = insertvalue { i8*, i32 } undef, i8* %exn, 0, !dbg !3149
  %lpad.val11 = insertvalue { i8*, i32 } %lpad.val, i32 %sel, 1, !dbg !3149
  resume { i8*, i32 } %lpad.val11, !dbg !3149
}

; Function Attrs: noinline nounwind uwtable
define linkonce_odr dso_local void @_ZN11xercesc_2_715ContentSpecNode7setTypeENS0_9NodeTypesE(%"class.xercesc_2_7::ContentSpecNode"* %this, i32 %type) #1 comdat align 2 !dbg !3150 {
entry:
  %this.addr = alloca %"class.xercesc_2_7::ContentSpecNode"*, align 8
  %type.addr = alloca i32, align 4
  store %"class.xercesc_2_7::ContentSpecNode"* %this, %"class.xercesc_2_7::ContentSpecNode"** %this.addr, align 8
  call void @llvm.dbg.declare(metadata %"class.xercesc_2_7::ContentSpecNode"** %this.addr, metadata !3151, metadata !DIExpression()), !dbg !3152
  store i32 %type, i32* %type.addr, align 4
  call void @llvm.dbg.declare(metadata i32* %type.addr, metadata !3153, metadata !DIExpression()), !dbg !3154
  %this1 = load %"class.xercesc_2_7::ContentSpecNode"*, %"class.xercesc_2_7::ContentSpecNode"** %this.addr, align 8
  %0 = load i32, i32* %type.addr, align 4, !dbg !3155
  %fType = getelementptr inbounds %"class.xercesc_2_7::ContentSpecNode", %"class.xercesc_2_7::ContentSpecNode"* %this1, i32 0, i32 6, !dbg !3156
  store i32 %0, i32* %fType, align 8, !dbg !3157
  ret void, !dbg !3158
}

; Function Attrs: noinline nounwind uwtable
define linkonce_odr dso_local void @_ZN11xercesc_2_715ContentSpecNode12setMinOccursEi(%"class.xercesc_2_7::ContentSpecNode"* %this, i32 %min) #1 comdat align 2 !dbg !3159 {
entry:
  %this.addr = alloca %"class.xercesc_2_7::ContentSpecNode"*, align 8
  %min.addr = alloca i32, align 4
  store %"class.xercesc_2_7::ContentSpecNode"* %this, %"class.xercesc_2_7::ContentSpecNode"** %this.addr, align 8
  call void @llvm.dbg.declare(metadata %"class.xercesc_2_7::ContentSpecNode"** %this.addr, metadata !3160, metadata !DIExpression()), !dbg !3161
  store i32 %min, i32* %min.addr, align 4
  call void @llvm.dbg.declare(metadata i32* %min.addr, metadata !3162, metadata !DIExpression()), !dbg !3163
  %this1 = load %"class.xercesc_2_7::ContentSpecNode"*, %"class.xercesc_2_7::ContentSpecNode"** %this.addr, align 8
  %0 = load i32, i32* %min.addr, align 4, !dbg !3164
  %fMinOccurs = getelementptr inbounds %"class.xercesc_2_7::ContentSpecNode", %"class.xercesc_2_7::ContentSpecNode"* %this1, i32 0, i32 9, !dbg !3165
  store i32 %0, i32* %fMinOccurs, align 8, !dbg !3166
  ret void, !dbg !3167
}

; Function Attrs: noinline nounwind uwtable
define linkonce_odr dso_local void @_ZN11xercesc_2_715ContentSpecNode12setMaxOccursEi(%"class.xercesc_2_7::ContentSpecNode"* %this, i32 %max) #1 comdat align 2 !dbg !3168 {
entry:
  %this.addr = alloca %"class.xercesc_2_7::ContentSpecNode"*, align 8
  %max.addr = alloca i32, align 4
  store %"class.xercesc_2_7::ContentSpecNode"* %this, %"class.xercesc_2_7::ContentSpecNode"** %this.addr, align 8
  call void @llvm.dbg.declare(metadata %"class.xercesc_2_7::ContentSpecNode"** %this.addr, metadata !3169, metadata !DIExpression()), !dbg !3170
  store i32 %max, i32* %max.addr, align 4
  call void @llvm.dbg.declare(metadata i32* %max.addr, metadata !3171, metadata !DIExpression()), !dbg !3172
  %this1 = load %"class.xercesc_2_7::ContentSpecNode"*, %"class.xercesc_2_7::ContentSpecNode"** %this.addr, align 8
  %0 = load i32, i32* %max.addr, align 4, !dbg !3173
  %fMaxOccurs = getelementptr inbounds %"class.xercesc_2_7::ContentSpecNode", %"class.xercesc_2_7::ContentSpecNode"* %this1, i32 0, i32 10, !dbg !3174
  store i32 %0, i32* %fMaxOccurs, align 4, !dbg !3175
  ret void, !dbg !3176
}

; Function Attrs: noinline uwtable
define linkonce_odr dso_local void @_ZN11xercesc_2_715ContentSpecNodeC2ENS0_9NodeTypesEPS0_S2_bbPNS_13MemoryManagerE(%"class.xercesc_2_7::ContentSpecNode"* %this, i32 %type, %"class.xercesc_2_7::ContentSpecNode"* %firstAdopt, %"class.xercesc_2_7::ContentSpecNode"* %secondAdopt, i1 zeroext %adoptFirst, i1 zeroext %adoptSecond, %"class.xercesc_2_7::MemoryManager"* %manager) unnamed_addr #6 comdat align 2 personality i8* bitcast (i32 (...)* @__gxx_personality_v0 to i8*) !dbg !3177 {
entry:
  %this.addr = alloca %"class.xercesc_2_7::ContentSpecNode"*, align 8
  %type.addr = alloca i32, align 4
  %firstAdopt.addr = alloca %"class.xercesc_2_7::ContentSpecNode"*, align 8
  %secondAdopt.addr = alloca %"class.xercesc_2_7::ContentSpecNode"*, align 8
  %adoptFirst.addr = alloca i8, align 1
  %adoptSecond.addr = alloca i8, align 1
  %manager.addr = alloca %"class.xercesc_2_7::MemoryManager"*, align 8
  %exn.slot = alloca i8*
  %ehselector.slot = alloca i32
  store %"class.xercesc_2_7::ContentSpecNode"* %this, %"class.xercesc_2_7::ContentSpecNode"** %this.addr, align 8
  call void @llvm.dbg.declare(metadata %"class.xercesc_2_7::ContentSpecNode"** %this.addr, metadata !3178, metadata !DIExpression()), !dbg !3179
  store i32 %type, i32* %type.addr, align 4
  call void @llvm.dbg.declare(metadata i32* %type.addr, metadata !3180, metadata !DIExpression()), !dbg !3181
  store %"class.xercesc_2_7::ContentSpecNode"* %firstAdopt, %"class.xercesc_2_7::ContentSpecNode"** %firstAdopt.addr, align 8
  call void @llvm.dbg.declare(metadata %"class.xercesc_2_7::ContentSpecNode"** %firstAdopt.addr, metadata !3182, metadata !DIExpression()), !dbg !3183
  store %"class.xercesc_2_7::ContentSpecNode"* %secondAdopt, %"class.xercesc_2_7::ContentSpecNode"** %secondAdopt.addr, align 8
  call void @llvm.dbg.declare(metadata %"class.xercesc_2_7::ContentSpecNode"** %secondAdopt.addr, metadata !3184, metadata !DIExpression()), !dbg !3185
  %frombool = zext i1 %adoptFirst to i8
  store i8 %frombool, i8* %adoptFirst.addr, align 1
  call void @llvm.dbg.declare(metadata i8* %adoptFirst.addr, metadata !3186, metadata !DIExpression()), !dbg !3187
  %frombool1 = zext i1 %adoptSecond to i8
  store i8 %frombool1, i8* %adoptSecond.addr, align 1
  call void @llvm.dbg.declare(metadata i8* %adoptSecond.addr, metadata !3188, metadata !DIExpression()), !dbg !3189
  store %"class.xercesc_2_7::MemoryManager"* %manager, %"class.xercesc_2_7::MemoryManager"** %manager.addr, align 8
  call void @llvm.dbg.declare(metadata %"class.xercesc_2_7::MemoryManager"** %manager.addr, metadata !3190, metadata !DIExpression()), !dbg !3191
  %this2 = load %"class.xercesc_2_7::ContentSpecNode"*, %"class.xercesc_2_7::ContentSpecNode"** %this.addr, align 8
  %0 = bitcast %"class.xercesc_2_7::ContentSpecNode"* %this2 to %"class.xercesc_2_7::XSerializable"*, !dbg !3192
  call void @_ZN11xercesc_2_713XSerializableC2Ev(%"class.xercesc_2_7::XSerializable"* %0), !dbg !3193
  %1 = bitcast %"class.xercesc_2_7::ContentSpecNode"* %this2 to %"class.xercesc_2_7::XMemory"*, !dbg !3192
  invoke void @_ZN11xercesc_2_77XMemoryC2Ev(%"class.xercesc_2_7::XMemory"* %1)
          to label %invoke.cont unwind label %lpad, !dbg !3193

invoke.cont:                                      ; preds = %entry
  %2 = bitcast %"class.xercesc_2_7::ContentSpecNode"* %this2 to i32 (...)***, !dbg !3192
  store i32 (...)** bitcast (i8** getelementptr inbounds ({ [7 x i8*] }, { [7 x i8*] }* @_ZTVN11xercesc_2_715ContentSpecNodeE, i32 0, inrange i32 0, i32 2) to i32 (...)**), i32 (...)*** %2, align 8, !dbg !3192
  %fMemoryManager = getelementptr inbounds %"class.xercesc_2_7::ContentSpecNode", %"class.xercesc_2_7::ContentSpecNode"* %this2, i32 0, i32 1, !dbg !3194
  %3 = load %"class.xercesc_2_7::MemoryManager"*, %"class.xercesc_2_7::MemoryManager"** %manager.addr, align 8, !dbg !3195
  store %"class.xercesc_2_7::MemoryManager"* %3, %"class.xercesc_2_7::MemoryManager"** %fMemoryManager, align 8, !dbg !3194
  %fElement = getelementptr inbounds %"class.xercesc_2_7::ContentSpecNode", %"class.xercesc_2_7::ContentSpecNode"* %this2, i32 0, i32 2, !dbg !3196
  store %"class.xercesc_2_7::QName"* null, %"class.xercesc_2_7::QName"** %fElement, align 8, !dbg !3196
  %fElementDecl = getelementptr inbounds %"class.xercesc_2_7::ContentSpecNode", %"class.xercesc_2_7::ContentSpecNode"* %this2, i32 0, i32 3, !dbg !3197
  store %"class.xercesc_2_7::XMLElementDecl"* null, %"class.xercesc_2_7::XMLElementDecl"** %fElementDecl, align 8, !dbg !3197
  %fFirst = getelementptr inbounds %"class.xercesc_2_7::ContentSpecNode", %"class.xercesc_2_7::ContentSpecNode"* %this2, i32 0, i32 4, !dbg !3198
  %4 = load %"class.xercesc_2_7::ContentSpecNode"*, %"class.xercesc_2_7::ContentSpecNode"** %firstAdopt.addr, align 8, !dbg !3199
  store %"class.xercesc_2_7::ContentSpecNode"* %4, %"class.xercesc_2_7::ContentSpecNode"** %fFirst, align 8, !dbg !3198
  %fSecond = getelementptr inbounds %"class.xercesc_2_7::ContentSpecNode", %"class.xercesc_2_7::ContentSpecNode"* %this2, i32 0, i32 5, !dbg !3200
  %5 = load %"class.xercesc_2_7::ContentSpecNode"*, %"class.xercesc_2_7::ContentSpecNode"** %secondAdopt.addr, align 8, !dbg !3201
  store %"class.xercesc_2_7::ContentSpecNode"* %5, %"class.xercesc_2_7::ContentSpecNode"** %fSecond, align 8, !dbg !3200
  %fType = getelementptr inbounds %"class.xercesc_2_7::ContentSpecNode", %"class.xercesc_2_7::ContentSpecNode"* %this2, i32 0, i32 6, !dbg !3202
  %6 = load i32, i32* %type.addr, align 4, !dbg !3203
  store i32 %6, i32* %fType, align 8, !dbg !3202
  %fAdoptFirst = getelementptr inbounds %"class.xercesc_2_7::ContentSpecNode", %"class.xercesc_2_7::ContentSpecNode"* %this2, i32 0, i32 7, !dbg !3204
  %7 = load i8, i8* %adoptFirst.addr, align 1, !dbg !3205
  %tobool = trunc i8 %7 to i1, !dbg !3205
  %frombool3 = zext i1 %tobool to i8, !dbg !3204
  store i8 %frombool3, i8* %fAdoptFirst, align 4, !dbg !3204
  %fAdoptSecond = getelementptr inbounds %"class.xercesc_2_7::ContentSpecNode", %"class.xercesc_2_7::ContentSpecNode"* %this2, i32 0, i32 8, !dbg !3206
  %8 = load i8, i8* %adoptSecond.addr, align 1, !dbg !3207
  %tobool4 = trunc i8 %8 to i1, !dbg !3207
  %frombool5 = zext i1 %tobool4 to i8, !dbg !3206
  store i8 %frombool5, i8* %fAdoptSecond, align 1, !dbg !3206
  %fMinOccurs = getelementptr inbounds %"class.xercesc_2_7::ContentSpecNode", %"class.xercesc_2_7::ContentSpecNode"* %this2, i32 0, i32 9, !dbg !3208
  store i32 1, i32* %fMinOccurs, align 8, !dbg !3208
  %fMaxOccurs = getelementptr inbounds %"class.xercesc_2_7::ContentSpecNode", %"class.xercesc_2_7::ContentSpecNode"* %this2, i32 0, i32 10, !dbg !3209
  store i32 1, i32* %fMaxOccurs, align 4, !dbg !3209
  ret void, !dbg !3210

lpad:                                             ; preds = %entry
  %9 = landingpad { i8*, i32 }
          cleanup, !dbg !3210
  %10 = extractvalue { i8*, i32 } %9, 0, !dbg !3210
  store i8* %10, i8** %exn.slot, align 8, !dbg !3210
  %11 = extractvalue { i8*, i32 } %9, 1, !dbg !3210
  store i32 %11, i32* %ehselector.slot, align 4, !dbg !3210
  %12 = bitcast %"class.xercesc_2_7::ContentSpecNode"* %this2 to %"class.xercesc_2_7::XSerializable"*, !dbg !3211
  call void @_ZN11xercesc_2_713XSerializableD2Ev(%"class.xercesc_2_7::XSerializable"* %12) #9, !dbg !3211
  br label %eh.resume, !dbg !3211

eh.resume:                                        ; preds = %lpad
  %exn = load i8*, i8** %exn.slot, align 8, !dbg !3211
  %sel = load i32, i32* %ehselector.slot, align 4, !dbg !3211
  %lpad.val = insertvalue { i8*, i32 } undef, i8* %exn, 0, !dbg !3211
  %lpad.val6 = insertvalue { i8*, i32 } %lpad.val, i32 %sel, 1, !dbg !3211
  resume { i8*, i32 } %lpad.val6, !dbg !3211
}

declare dso_local void @_ZN11xercesc_2_712SchemaAttDefC1EPKtS2_iNS_9XMLAttDef8AttTypesENS3_11DefAttTypesEPNS_13MemoryManagerE(%"class.xercesc_2_7::SchemaAttDef"*, i16*, i16*, i32, i32, i32, %"class.xercesc_2_7::MemoryManager"*) unnamed_addr #7

; Function Attrs: noinline uwtable
define linkonce_odr dso_local void @_ZN11xercesc_2_715ComplexTypeInfo11setTypeNameEPKt(%"class.xercesc_2_7::ComplexTypeInfo"* %this, i16* %typeName) #6 comdat align 2 !dbg !3213 {
entry:
  %this.addr = alloca %"class.xercesc_2_7::ComplexTypeInfo"*, align 8
  %typeName.addr = alloca i16*, align 8
  %index = alloca i32, align 4
  %length = alloca i32, align 4
  store %"class.xercesc_2_7::ComplexTypeInfo"* %this, %"class.xercesc_2_7::ComplexTypeInfo"** %this.addr, align 8
  call void @llvm.dbg.declare(metadata %"class.xercesc_2_7::ComplexTypeInfo"** %this.addr, metadata !3214, metadata !DIExpression()), !dbg !3215
  store i16* %typeName, i16** %typeName.addr, align 8
  call void @llvm.dbg.declare(metadata i16** %typeName.addr, metadata !3216, metadata !DIExpression()), !dbg !3217
  %this1 = load %"class.xercesc_2_7::ComplexTypeInfo"*, %"class.xercesc_2_7::ComplexTypeInfo"** %this.addr, align 8
  %fMemoryManager = getelementptr inbounds %"class.xercesc_2_7::ComplexTypeInfo", %"class.xercesc_2_7::ComplexTypeInfo"* %this1, i32 0, i32 29, !dbg !3218
  %0 = load %"class.xercesc_2_7::MemoryManager"*, %"class.xercesc_2_7::MemoryManager"** %fMemoryManager, align 8, !dbg !3218
  %fTypeName = getelementptr inbounds %"class.xercesc_2_7::ComplexTypeInfo", %"class.xercesc_2_7::ComplexTypeInfo"* %this1, i32 0, i32 14, !dbg !3219
  %1 = load i16*, i16** %fTypeName, align 8, !dbg !3219
  %2 = bitcast i16* %1 to i8*, !dbg !3219
  %3 = bitcast %"class.xercesc_2_7::MemoryManager"* %0 to void (%"class.xercesc_2_7::MemoryManager"*, i8*)***, !dbg !3220
  %vtable = load void (%"class.xercesc_2_7::MemoryManager"*, i8*)**, void (%"class.xercesc_2_7::MemoryManager"*, i8*)*** %3, align 8, !dbg !3220
  %vfn = getelementptr inbounds void (%"class.xercesc_2_7::MemoryManager"*, i8*)*, void (%"class.xercesc_2_7::MemoryManager"*, i8*)** %vtable, i64 3, !dbg !3220
  %4 = load void (%"class.xercesc_2_7::MemoryManager"*, i8*)*, void (%"class.xercesc_2_7::MemoryManager"*, i8*)** %vfn, align 8, !dbg !3220
  call void %4(%"class.xercesc_2_7::MemoryManager"* %0, i8* %2), !dbg !3220
  %fMemoryManager2 = getelementptr inbounds %"class.xercesc_2_7::ComplexTypeInfo", %"class.xercesc_2_7::ComplexTypeInfo"* %this1, i32 0, i32 29, !dbg !3221
  %5 = load %"class.xercesc_2_7::MemoryManager"*, %"class.xercesc_2_7::MemoryManager"** %fMemoryManager2, align 8, !dbg !3221
  %fTypeLocalName = getelementptr inbounds %"class.xercesc_2_7::ComplexTypeInfo", %"class.xercesc_2_7::ComplexTypeInfo"* %this1, i32 0, i32 15, !dbg !3222
  %6 = load i16*, i16** %fTypeLocalName, align 8, !dbg !3222
  %7 = bitcast i16* %6 to i8*, !dbg !3222
  %8 = bitcast %"class.xercesc_2_7::MemoryManager"* %5 to void (%"class.xercesc_2_7::MemoryManager"*, i8*)***, !dbg !3223
  %vtable3 = load void (%"class.xercesc_2_7::MemoryManager"*, i8*)**, void (%"class.xercesc_2_7::MemoryManager"*, i8*)*** %8, align 8, !dbg !3223
  %vfn4 = getelementptr inbounds void (%"class.xercesc_2_7::MemoryManager"*, i8*)*, void (%"class.xercesc_2_7::MemoryManager"*, i8*)** %vtable3, i64 3, !dbg !3223
  %9 = load void (%"class.xercesc_2_7::MemoryManager"*, i8*)*, void (%"class.xercesc_2_7::MemoryManager"*, i8*)** %vfn4, align 8, !dbg !3223
  call void %9(%"class.xercesc_2_7::MemoryManager"* %5, i8* %7), !dbg !3223
  %fMemoryManager5 = getelementptr inbounds %"class.xercesc_2_7::ComplexTypeInfo", %"class.xercesc_2_7::ComplexTypeInfo"* %this1, i32 0, i32 29, !dbg !3224
  %10 = load %"class.xercesc_2_7::MemoryManager"*, %"class.xercesc_2_7::MemoryManager"** %fMemoryManager5, align 8, !dbg !3224
  %fTypeUri = getelementptr inbounds %"class.xercesc_2_7::ComplexTypeInfo", %"class.xercesc_2_7::ComplexTypeInfo"* %this1, i32 0, i32 16, !dbg !3225
  %11 = load i16*, i16** %fTypeUri, align 8, !dbg !3225
  %12 = bitcast i16* %11 to i8*, !dbg !3225
  %13 = bitcast %"class.xercesc_2_7::MemoryManager"* %10 to void (%"class.xercesc_2_7::MemoryManager"*, i8*)***, !dbg !3226
  %vtable6 = load void (%"class.xercesc_2_7::MemoryManager"*, i8*)**, void (%"class.xercesc_2_7::MemoryManager"*, i8*)*** %13, align 8, !dbg !3226
  %vfn7 = getelementptr inbounds void (%"class.xercesc_2_7::MemoryManager"*, i8*)*, void (%"class.xercesc_2_7::MemoryManager"*, i8*)** %vtable6, i64 3, !dbg !3226
  %14 = load void (%"class.xercesc_2_7::MemoryManager"*, i8*)*, void (%"class.xercesc_2_7::MemoryManager"*, i8*)** %vfn7, align 8, !dbg !3226
  call void %14(%"class.xercesc_2_7::MemoryManager"* %10, i8* %12), !dbg !3226
  %15 = load i16*, i16** %typeName.addr, align 8, !dbg !3227
  %tobool = icmp ne i16* %15, null, !dbg !3227
  br i1 %tobool, label %if.then, label %if.else, !dbg !3229

if.then:                                          ; preds = %entry
  %16 = load i16*, i16** %typeName.addr, align 8, !dbg !3230
  %fMemoryManager8 = getelementptr inbounds %"class.xercesc_2_7::ComplexTypeInfo", %"class.xercesc_2_7::ComplexTypeInfo"* %this1, i32 0, i32 29, !dbg !3232
  %17 = load %"class.xercesc_2_7::MemoryManager"*, %"class.xercesc_2_7::MemoryManager"** %fMemoryManager8, align 8, !dbg !3232
  %call = call i16* @_ZN11xercesc_2_79XMLString9replicateEPKtPNS_13MemoryManagerE(i16* %16, %"class.xercesc_2_7::MemoryManager"* %17), !dbg !3233
  %fTypeName9 = getelementptr inbounds %"class.xercesc_2_7::ComplexTypeInfo", %"class.xercesc_2_7::ComplexTypeInfo"* %this1, i32 0, i32 14, !dbg !3234
  store i16* %call, i16** %fTypeName9, align 8, !dbg !3235
  call void @llvm.dbg.declare(metadata i32* %index, metadata !3236, metadata !DIExpression()), !dbg !3237
  %fTypeName10 = getelementptr inbounds %"class.xercesc_2_7::ComplexTypeInfo", %"class.xercesc_2_7::ComplexTypeInfo"* %this1, i32 0, i32 14, !dbg !3238
  %18 = load i16*, i16** %fTypeName10, align 8, !dbg !3238
  %call11 = call i32 @_ZN11xercesc_2_79XMLString7indexOfEPKtt(i16* %18, i16 zeroext 44), !dbg !3239
  store i32 %call11, i32* %index, align 4, !dbg !3237
  call void @llvm.dbg.declare(metadata i32* %length, metadata !3240, metadata !DIExpression()), !dbg !3241
  %fTypeName12 = getelementptr inbounds %"class.xercesc_2_7::ComplexTypeInfo", %"class.xercesc_2_7::ComplexTypeInfo"* %this1, i32 0, i32 14, !dbg !3242
  %19 = load i16*, i16** %fTypeName12, align 8, !dbg !3242
  %call13 = call i32 @_ZN11xercesc_2_79XMLString9stringLenEPKt(i16* %19), !dbg !3243
  store i32 %call13, i32* %length, align 4, !dbg !3241
  %fMemoryManager14 = getelementptr inbounds %"class.xercesc_2_7::ComplexTypeInfo", %"class.xercesc_2_7::ComplexTypeInfo"* %this1, i32 0, i32 29, !dbg !3244
  %20 = load %"class.xercesc_2_7::MemoryManager"*, %"class.xercesc_2_7::MemoryManager"** %fMemoryManager14, align 8, !dbg !3244
  %21 = load i32, i32* %length, align 4, !dbg !3245
  %22 = load i32, i32* %index, align 4, !dbg !3246
  %sub = sub nsw i32 %21, %22, !dbg !3247
  %add = add nsw i32 %sub, 1, !dbg !3248
  %conv = sext i32 %add to i64, !dbg !3249
  %mul = mul i64 %conv, 2, !dbg !3250
  %23 = bitcast %"class.xercesc_2_7::MemoryManager"* %20 to i8* (%"class.xercesc_2_7::MemoryManager"*, i64)***, !dbg !3251
  %vtable15 = load i8* (%"class.xercesc_2_7::MemoryManager"*, i64)**, i8* (%"class.xercesc_2_7::MemoryManager"*, i64)*** %23, align 8, !dbg !3251
  %vfn16 = getelementptr inbounds i8* (%"class.xercesc_2_7::MemoryManager"*, i64)*, i8* (%"class.xercesc_2_7::MemoryManager"*, i64)** %vtable15, i64 2, !dbg !3251
  %24 = load i8* (%"class.xercesc_2_7::MemoryManager"*, i64)*, i8* (%"class.xercesc_2_7::MemoryManager"*, i64)** %vfn16, align 8, !dbg !3251
  %call17 = call i8* %24(%"class.xercesc_2_7::MemoryManager"* %20, i64 %mul), !dbg !3251
  %25 = bitcast i8* %call17 to i16*, !dbg !3252
  %fTypeLocalName18 = getelementptr inbounds %"class.xercesc_2_7::ComplexTypeInfo", %"class.xercesc_2_7::ComplexTypeInfo"* %this1, i32 0, i32 15, !dbg !3253
  store i16* %25, i16** %fTypeLocalName18, align 8, !dbg !3254
  %fTypeLocalName19 = getelementptr inbounds %"class.xercesc_2_7::ComplexTypeInfo", %"class.xercesc_2_7::ComplexTypeInfo"* %this1, i32 0, i32 15, !dbg !3255
  %26 = load i16*, i16** %fTypeLocalName19, align 8, !dbg !3255
  %fTypeName20 = getelementptr inbounds %"class.xercesc_2_7::ComplexTypeInfo", %"class.xercesc_2_7::ComplexTypeInfo"* %this1, i32 0, i32 14, !dbg !3256
  %27 = load i16*, i16** %fTypeName20, align 8, !dbg !3256
  %28 = load i32, i32* %index, align 4, !dbg !3257
  %add21 = add nsw i32 %28, 1, !dbg !3258
  %29 = load i32, i32* %length, align 4, !dbg !3259
  %fMemoryManager22 = getelementptr inbounds %"class.xercesc_2_7::ComplexTypeInfo", %"class.xercesc_2_7::ComplexTypeInfo"* %this1, i32 0, i32 29, !dbg !3260
  %30 = load %"class.xercesc_2_7::MemoryManager"*, %"class.xercesc_2_7::MemoryManager"** %fMemoryManager22, align 8, !dbg !3260
  call void @_ZN11xercesc_2_79XMLString9subStringEPtPKtiiPNS_13MemoryManagerE(i16* %26, i16* %27, i32 %add21, i32 %29, %"class.xercesc_2_7::MemoryManager"* %30), !dbg !3261
  %fMemoryManager23 = getelementptr inbounds %"class.xercesc_2_7::ComplexTypeInfo", %"class.xercesc_2_7::ComplexTypeInfo"* %this1, i32 0, i32 29, !dbg !3262
  %31 = load %"class.xercesc_2_7::MemoryManager"*, %"class.xercesc_2_7::MemoryManager"** %fMemoryManager23, align 8, !dbg !3262
  %32 = load i32, i32* %index, align 4, !dbg !3263
  %add24 = add nsw i32 %32, 1, !dbg !3264
  %conv25 = sext i32 %add24 to i64, !dbg !3265
  %mul26 = mul i64 %conv25, 2, !dbg !3266
  %33 = bitcast %"class.xercesc_2_7::MemoryManager"* %31 to i8* (%"class.xercesc_2_7::MemoryManager"*, i64)***, !dbg !3267
  %vtable27 = load i8* (%"class.xercesc_2_7::MemoryManager"*, i64)**, i8* (%"class.xercesc_2_7::MemoryManager"*, i64)*** %33, align 8, !dbg !3267
  %vfn28 = getelementptr inbounds i8* (%"class.xercesc_2_7::MemoryManager"*, i64)*, i8* (%"class.xercesc_2_7::MemoryManager"*, i64)** %vtable27, i64 2, !dbg !3267
  %34 = load i8* (%"class.xercesc_2_7::MemoryManager"*, i64)*, i8* (%"class.xercesc_2_7::MemoryManager"*, i64)** %vfn28, align 8, !dbg !3267
  %call29 = call i8* %34(%"class.xercesc_2_7::MemoryManager"* %31, i64 %mul26), !dbg !3267
  %35 = bitcast i8* %call29 to i16*, !dbg !3268
  %fTypeUri30 = getelementptr inbounds %"class.xercesc_2_7::ComplexTypeInfo", %"class.xercesc_2_7::ComplexTypeInfo"* %this1, i32 0, i32 16, !dbg !3269
  store i16* %35, i16** %fTypeUri30, align 8, !dbg !3270
  %fTypeUri31 = getelementptr inbounds %"class.xercesc_2_7::ComplexTypeInfo", %"class.xercesc_2_7::ComplexTypeInfo"* %this1, i32 0, i32 16, !dbg !3271
  %36 = load i16*, i16** %fTypeUri31, align 8, !dbg !3271
  %fTypeName32 = getelementptr inbounds %"class.xercesc_2_7::ComplexTypeInfo", %"class.xercesc_2_7::ComplexTypeInfo"* %this1, i32 0, i32 14, !dbg !3272
  %37 = load i16*, i16** %fTypeName32, align 8, !dbg !3272
  %38 = load i32, i32* %index, align 4, !dbg !3273
  %fMemoryManager33 = getelementptr inbounds %"class.xercesc_2_7::ComplexTypeInfo", %"class.xercesc_2_7::ComplexTypeInfo"* %this1, i32 0, i32 29, !dbg !3274
  %39 = load %"class.xercesc_2_7::MemoryManager"*, %"class.xercesc_2_7::MemoryManager"** %fMemoryManager33, align 8, !dbg !3274
  call void @_ZN11xercesc_2_79XMLString9subStringEPtPKtiiPNS_13MemoryManagerE(i16* %36, i16* %37, i32 0, i32 %38, %"class.xercesc_2_7::MemoryManager"* %39), !dbg !3275
  br label %if.end, !dbg !3276

if.else:                                          ; preds = %entry
  %fTypeUri34 = getelementptr inbounds %"class.xercesc_2_7::ComplexTypeInfo", %"class.xercesc_2_7::ComplexTypeInfo"* %this1, i32 0, i32 16, !dbg !3277
  store i16* null, i16** %fTypeUri34, align 8, !dbg !3279
  %fTypeLocalName35 = getelementptr inbounds %"class.xercesc_2_7::ComplexTypeInfo", %"class.xercesc_2_7::ComplexTypeInfo"* %this1, i32 0, i32 15, !dbg !3280
  store i16* null, i16** %fTypeLocalName35, align 8, !dbg !3281
  %fTypeName36 = getelementptr inbounds %"class.xercesc_2_7::ComplexTypeInfo", %"class.xercesc_2_7::ComplexTypeInfo"* %this1, i32 0, i32 14, !dbg !3282
  store i16* null, i16** %fTypeName36, align 8, !dbg !3283
  br label %if.end

if.end:                                           ; preds = %if.else, %if.then
  ret void, !dbg !3284
}

; Function Attrs: noinline nounwind uwtable
define linkonce_odr dso_local void @_ZN11xercesc_2_715ComplexTypeInfo22setBaseComplexTypeInfoEPS0_(%"class.xercesc_2_7::ComplexTypeInfo"* %this, %"class.xercesc_2_7::ComplexTypeInfo"* %typeInfo) #1 comdat align 2 !dbg !3285 {
entry:
  %this.addr = alloca %"class.xercesc_2_7::ComplexTypeInfo"*, align 8
  %typeInfo.addr = alloca %"class.xercesc_2_7::ComplexTypeInfo"*, align 8
  store %"class.xercesc_2_7::ComplexTypeInfo"* %this, %"class.xercesc_2_7::ComplexTypeInfo"** %this.addr, align 8
  call void @llvm.dbg.declare(metadata %"class.xercesc_2_7::ComplexTypeInfo"** %this.addr, metadata !3286, metadata !DIExpression()), !dbg !3287
  store %"class.xercesc_2_7::ComplexTypeInfo"* %typeInfo, %"class.xercesc_2_7::ComplexTypeInfo"** %typeInfo.addr, align 8
  call void @llvm.dbg.declare(metadata %"class.xercesc_2_7::ComplexTypeInfo"** %typeInfo.addr, metadata !3288, metadata !DIExpression()), !dbg !3289
  %this1 = load %"class.xercesc_2_7::ComplexTypeInfo"*, %"class.xercesc_2_7::ComplexTypeInfo"** %this.addr, align 8
  %0 = load %"class.xercesc_2_7::ComplexTypeInfo"*, %"class.xercesc_2_7::ComplexTypeInfo"** %typeInfo.addr, align 8, !dbg !3290
  %fBaseComplexTypeInfo = getelementptr inbounds %"class.xercesc_2_7::ComplexTypeInfo", %"class.xercesc_2_7::ComplexTypeInfo"* %this1, i32 0, i32 19, !dbg !3291
  store %"class.xercesc_2_7::ComplexTypeInfo"* %0, %"class.xercesc_2_7::ComplexTypeInfo"** %fBaseComplexTypeInfo, align 8, !dbg !3292
  ret void, !dbg !3293
}

; Function Attrs: noinline nounwind uwtable
define linkonce_odr dso_local void @_ZN11xercesc_2_715ComplexTypeInfo12setDerivedByEi(%"class.xercesc_2_7::ComplexTypeInfo"* %this, i32 %derivedBy) #1 comdat align 2 !dbg !3294 {
entry:
  %this.addr = alloca %"class.xercesc_2_7::ComplexTypeInfo"*, align 8
  %derivedBy.addr = alloca i32, align 4
  store %"class.xercesc_2_7::ComplexTypeInfo"* %this, %"class.xercesc_2_7::ComplexTypeInfo"** %this.addr, align 8
  call void @llvm.dbg.declare(metadata %"class.xercesc_2_7::ComplexTypeInfo"** %this.addr, metadata !3295, metadata !DIExpression()), !dbg !3296
  store i32 %derivedBy, i32* %derivedBy.addr, align 4
  call void @llvm.dbg.declare(metadata i32* %derivedBy.addr, metadata !3297, metadata !DIExpression()), !dbg !3298
  %this1 = load %"class.xercesc_2_7::ComplexTypeInfo"*, %"class.xercesc_2_7::ComplexTypeInfo"** %this.addr, align 8
  %0 = load i32, i32* %derivedBy.addr, align 4, !dbg !3299
  %fDerivedBy = getelementptr inbounds %"class.xercesc_2_7::ComplexTypeInfo", %"class.xercesc_2_7::ComplexTypeInfo"* %this1, i32 0, i32 6, !dbg !3300
  store i32 %0, i32* %fDerivedBy, align 8, !dbg !3301
  ret void, !dbg !3302
}

; Function Attrs: noinline nounwind uwtable
define linkonce_odr dso_local void @_ZN11xercesc_2_715ComplexTypeInfo14setContentTypeEi(%"class.xercesc_2_7::ComplexTypeInfo"* %this, i32 %contentType) #1 comdat align 2 !dbg !3303 {
entry:
  %this.addr = alloca %"class.xercesc_2_7::ComplexTypeInfo"*, align 8
  %contentType.addr = alloca i32, align 4
  store %"class.xercesc_2_7::ComplexTypeInfo"* %this, %"class.xercesc_2_7::ComplexTypeInfo"** %this.addr, align 8
  call void @llvm.dbg.declare(metadata %"class.xercesc_2_7::ComplexTypeInfo"** %this.addr, metadata !3304, metadata !DIExpression()), !dbg !3305
  store i32 %contentType, i32* %contentType.addr, align 4
  call void @llvm.dbg.declare(metadata i32* %contentType.addr, metadata !3306, metadata !DIExpression()), !dbg !3307
  %this1 = load %"class.xercesc_2_7::ComplexTypeInfo"*, %"class.xercesc_2_7::ComplexTypeInfo"** %this.addr, align 8
  %0 = load i32, i32* %contentType.addr, align 4, !dbg !3308
  %fContentType = getelementptr inbounds %"class.xercesc_2_7::ComplexTypeInfo", %"class.xercesc_2_7::ComplexTypeInfo"* %this1, i32 0, i32 10, !dbg !3309
  store i32 %0, i32* %fContentType, align 8, !dbg !3310
  ret void, !dbg !3311
}

; Function Attrs: noinline uwtable
define dso_local void @_ZN11xercesc_2_715ComplexTypeInfo14setContentSpecEPNS_15ContentSpecNodeE(%"class.xercesc_2_7::ComplexTypeInfo"* %this, %"class.xercesc_2_7::ContentSpecNode"* %toAdopt) #6 align 2 !dbg !3312 {
entry:
  %this.addr = alloca %"class.xercesc_2_7::ComplexTypeInfo"*, align 8
  %toAdopt.addr = alloca %"class.xercesc_2_7::ContentSpecNode"*, align 8
  store %"class.xercesc_2_7::ComplexTypeInfo"* %this, %"class.xercesc_2_7::ComplexTypeInfo"** %this.addr, align 8
  call void @llvm.dbg.declare(metadata %"class.xercesc_2_7::ComplexTypeInfo"** %this.addr, metadata !3313, metadata !DIExpression()), !dbg !3314
  store %"class.xercesc_2_7::ContentSpecNode"* %toAdopt, %"class.xercesc_2_7::ContentSpecNode"** %toAdopt.addr, align 8
  call void @llvm.dbg.declare(metadata %"class.xercesc_2_7::ContentSpecNode"** %toAdopt.addr, metadata !3315, metadata !DIExpression()), !dbg !3316
  %this1 = load %"class.xercesc_2_7::ComplexTypeInfo"*, %"class.xercesc_2_7::ComplexTypeInfo"** %this.addr, align 8
  %fContentSpec = getelementptr inbounds %"class.xercesc_2_7::ComplexTypeInfo", %"class.xercesc_2_7::ComplexTypeInfo"* %this1, i32 0, i32 20, !dbg !3317
  %0 = load %"class.xercesc_2_7::ContentSpecNode"*, %"class.xercesc_2_7::ContentSpecNode"** %fContentSpec, align 8, !dbg !3317
  %tobool = icmp ne %"class.xercesc_2_7::ContentSpecNode"* %0, null, !dbg !3317
  br i1 %tobool, label %land.lhs.true, label %if.end, !dbg !3319

land.lhs.true:                                    ; preds = %entry
  %fAdoptContentSpec = getelementptr inbounds %"class.xercesc_2_7::ComplexTypeInfo", %"class.xercesc_2_7::ComplexTypeInfo"* %this1, i32 0, i32 3, !dbg !3320
  %1 = load i8, i8* %fAdoptContentSpec, align 2, !dbg !3320
  %tobool2 = trunc i8 %1 to i1, !dbg !3320
  br i1 %tobool2, label %if.then, label %if.end, !dbg !3321

if.then:                                          ; preds = %land.lhs.true
  %fContentSpec3 = getelementptr inbounds %"class.xercesc_2_7::ComplexTypeInfo", %"class.xercesc_2_7::ComplexTypeInfo"* %this1, i32 0, i32 20, !dbg !3322
  %2 = load %"class.xercesc_2_7::ContentSpecNode"*, %"class.xercesc_2_7::ContentSpecNode"** %fContentSpec3, align 8, !dbg !3322
  %isnull = icmp eq %"class.xercesc_2_7::ContentSpecNode"* %2, null, !dbg !3324
  br i1 %isnull, label %delete.end, label %delete.notnull, !dbg !3324

delete.notnull:                                   ; preds = %if.then
  %3 = bitcast %"class.xercesc_2_7::ContentSpecNode"* %2 to void (%"class.xercesc_2_7::ContentSpecNode"*)***, !dbg !3324
  %vtable = load void (%"class.xercesc_2_7::ContentSpecNode"*)**, void (%"class.xercesc_2_7::ContentSpecNode"*)*** %3, align 8, !dbg !3324
  %vfn = getelementptr inbounds void (%"class.xercesc_2_7::ContentSpecNode"*)*, void (%"class.xercesc_2_7::ContentSpecNode"*)** %vtable, i64 1, !dbg !3324
  %4 = load void (%"class.xercesc_2_7::ContentSpecNode"*)*, void (%"class.xercesc_2_7::ContentSpecNode"*)** %vfn, align 8, !dbg !3324
  call void %4(%"class.xercesc_2_7::ContentSpecNode"* %2) #9, !dbg !3324
  br label %delete.end, !dbg !3324

delete.end:                                       ; preds = %delete.notnull, %if.then
  br label %if.end, !dbg !3325

if.end:                                           ; preds = %delete.end, %land.lhs.true, %entry
  %5 = load %"class.xercesc_2_7::ContentSpecNode"*, %"class.xercesc_2_7::ContentSpecNode"** %toAdopt.addr, align 8, !dbg !3326
  %fContentSpec4 = getelementptr inbounds %"class.xercesc_2_7::ComplexTypeInfo", %"class.xercesc_2_7::ComplexTypeInfo"* %this1, i32 0, i32 20, !dbg !3327
  store %"class.xercesc_2_7::ContentSpecNode"* %5, %"class.xercesc_2_7::ContentSpecNode"** %fContentSpec4, align 8, !dbg !3328
  call void @_ZN11xercesc_2_715ComplexTypeInfo15setContentModelEPNS_15XMLContentModelE(%"class.xercesc_2_7::ComplexTypeInfo"* %this1, %"class.xercesc_2_7::XMLContentModel"* null), !dbg !3329
  ret void, !dbg !3330
}

; Function Attrs: noinline nounwind uwtable
define linkonce_odr dso_local void @_ZN11xercesc_2_715ComplexTypeInfo14setAttWildCardEPNS_12SchemaAttDefE(%"class.xercesc_2_7::ComplexTypeInfo"* %this, %"class.xercesc_2_7::SchemaAttDef"* %toAdopt) #1 comdat align 2 !dbg !3331 {
entry:
  %this.addr = alloca %"class.xercesc_2_7::ComplexTypeInfo"*, align 8
  %toAdopt.addr = alloca %"class.xercesc_2_7::SchemaAttDef"*, align 8
  store %"class.xercesc_2_7::ComplexTypeInfo"* %this, %"class.xercesc_2_7::ComplexTypeInfo"** %this.addr, align 8
  call void @llvm.dbg.declare(metadata %"class.xercesc_2_7::ComplexTypeInfo"** %this.addr, metadata !3332, metadata !DIExpression()), !dbg !3333
  store %"class.xercesc_2_7::SchemaAttDef"* %toAdopt, %"class.xercesc_2_7::SchemaAttDef"** %toAdopt.addr, align 8
  call void @llvm.dbg.declare(metadata %"class.xercesc_2_7::SchemaAttDef"** %toAdopt.addr, metadata !3334, metadata !DIExpression()), !dbg !3335
  %this1 = load %"class.xercesc_2_7::ComplexTypeInfo"*, %"class.xercesc_2_7::ComplexTypeInfo"** %this.addr, align 8
  %fAttWildCard = getelementptr inbounds %"class.xercesc_2_7::ComplexTypeInfo", %"class.xercesc_2_7::ComplexTypeInfo"* %this1, i32 0, i32 21, !dbg !3336
  %0 = load %"class.xercesc_2_7::SchemaAttDef"*, %"class.xercesc_2_7::SchemaAttDef"** %fAttWildCard, align 8, !dbg !3336
  %tobool = icmp ne %"class.xercesc_2_7::SchemaAttDef"* %0, null, !dbg !3336
  br i1 %tobool, label %if.then, label %if.end, !dbg !3338

if.then:                                          ; preds = %entry
  %fAttWildCard2 = getelementptr inbounds %"class.xercesc_2_7::ComplexTypeInfo", %"class.xercesc_2_7::ComplexTypeInfo"* %this1, i32 0, i32 21, !dbg !3339
  %1 = load %"class.xercesc_2_7::SchemaAttDef"*, %"class.xercesc_2_7::SchemaAttDef"** %fAttWildCard2, align 8, !dbg !3339
  %isnull = icmp eq %"class.xercesc_2_7::SchemaAttDef"* %1, null, !dbg !3341
  br i1 %isnull, label %delete.end, label %delete.notnull, !dbg !3341

delete.notnull:                                   ; preds = %if.then
  %2 = bitcast %"class.xercesc_2_7::SchemaAttDef"* %1 to void (%"class.xercesc_2_7::SchemaAttDef"*)***, !dbg !3341
  %vtable = load void (%"class.xercesc_2_7::SchemaAttDef"*)**, void (%"class.xercesc_2_7::SchemaAttDef"*)*** %2, align 8, !dbg !3341
  %vfn = getelementptr inbounds void (%"class.xercesc_2_7::SchemaAttDef"*)*, void (%"class.xercesc_2_7::SchemaAttDef"*)** %vtable, i64 1, !dbg !3341
  %3 = load void (%"class.xercesc_2_7::SchemaAttDef"*)*, void (%"class.xercesc_2_7::SchemaAttDef"*)** %vfn, align 8, !dbg !3341
  call void %3(%"class.xercesc_2_7::SchemaAttDef"* %1) #9, !dbg !3341
  br label %delete.end, !dbg !3341

delete.end:                                       ; preds = %delete.notnull, %if.then
  br label %if.end, !dbg !3342

if.end:                                           ; preds = %delete.end, %entry
  %4 = load %"class.xercesc_2_7::SchemaAttDef"*, %"class.xercesc_2_7::SchemaAttDef"** %toAdopt.addr, align 8, !dbg !3343
  %fAttWildCard3 = getelementptr inbounds %"class.xercesc_2_7::ComplexTypeInfo", %"class.xercesc_2_7::ComplexTypeInfo"* %this1, i32 0, i32 21, !dbg !3344
  store %"class.xercesc_2_7::SchemaAttDef"* %4, %"class.xercesc_2_7::SchemaAttDef"** %fAttWildCard3, align 8, !dbg !3345
  ret void, !dbg !3346
}

declare dso_local void @_ZN11xercesc_2_718XMLRegisterCleanup15registerCleanupEPFvvE(%"class.xercesc_2_7::XMLRegisterCleanup"*, void ()*) #7

; Function Attrs: noinline uwtable
define dso_local void @_ZN11xercesc_2_715ComplexTypeInfoC2EPNS_13MemoryManagerE(%"class.xercesc_2_7::ComplexTypeInfo"* %this, %"class.xercesc_2_7::MemoryManager"* %manager) unnamed_addr #6 align 2 personality i8* bitcast (i32 (...)* @__gxx_personality_v0 to i8*) !dbg !3347 {
entry:
  %this.addr = alloca %"class.xercesc_2_7::ComplexTypeInfo"*, align 8
  %manager.addr = alloca %"class.xercesc_2_7::MemoryManager"*, align 8
  %exn.slot = alloca i8*
  %ehselector.slot = alloca i32
  store %"class.xercesc_2_7::ComplexTypeInfo"* %this, %"class.xercesc_2_7::ComplexTypeInfo"** %this.addr, align 8
  call void @llvm.dbg.declare(metadata %"class.xercesc_2_7::ComplexTypeInfo"** %this.addr, metadata !3348, metadata !DIExpression()), !dbg !3349
  store %"class.xercesc_2_7::MemoryManager"* %manager, %"class.xercesc_2_7::MemoryManager"** %manager.addr, align 8
  call void @llvm.dbg.declare(metadata %"class.xercesc_2_7::MemoryManager"** %manager.addr, metadata !3350, metadata !DIExpression()), !dbg !3351
  %this1 = load %"class.xercesc_2_7::ComplexTypeInfo"*, %"class.xercesc_2_7::ComplexTypeInfo"** %this.addr, align 8
  %0 = bitcast %"class.xercesc_2_7::ComplexTypeInfo"* %this1 to %"class.xercesc_2_7::XSerializable"*, !dbg !3352
  call void @_ZN11xercesc_2_713XSerializableC2Ev(%"class.xercesc_2_7::XSerializable"* %0), !dbg !3353
  %1 = bitcast %"class.xercesc_2_7::ComplexTypeInfo"* %this1 to %"class.xercesc_2_7::XMemory"*, !dbg !3352
  invoke void @_ZN11xercesc_2_77XMemoryC2Ev(%"class.xercesc_2_7::XMemory"* %1)
          to label %invoke.cont unwind label %lpad, !dbg !3353

invoke.cont:                                      ; preds = %entry
  %2 = bitcast %"class.xercesc_2_7::ComplexTypeInfo"* %this1 to i32 (...)***, !dbg !3352
  store i32 (...)** bitcast (i8** getelementptr inbounds ({ [7 x i8*] }, { [7 x i8*] }* @_ZTVN11xercesc_2_715ComplexTypeInfoE, i32 0, inrange i32 0, i32 2) to i32 (...)**), i32 (...)*** %2, align 8, !dbg !3352
  %fAnonymous = getelementptr inbounds %"class.xercesc_2_7::ComplexTypeInfo", %"class.xercesc_2_7::ComplexTypeInfo"* %this1, i32 0, i32 1, !dbg !3354
  store i8 0, i8* %fAnonymous, align 8, !dbg !3354
  %fAbstract = getelementptr inbounds %"class.xercesc_2_7::ComplexTypeInfo", %"class.xercesc_2_7::ComplexTypeInfo"* %this1, i32 0, i32 2, !dbg !3355
  store i8 0, i8* %fAbstract, align 1, !dbg !3355
  %fAdoptContentSpec = getelementptr inbounds %"class.xercesc_2_7::ComplexTypeInfo", %"class.xercesc_2_7::ComplexTypeInfo"* %this1, i32 0, i32 3, !dbg !3356
  store i8 1, i8* %fAdoptContentSpec, align 2, !dbg !3356
  %fAttWithTypeId = getelementptr inbounds %"class.xercesc_2_7::ComplexTypeInfo", %"class.xercesc_2_7::ComplexTypeInfo"* %this1, i32 0, i32 4, !dbg !3357
  store i8 0, i8* %fAttWithTypeId, align 1, !dbg !3357
  %fPreprocessed = getelementptr inbounds %"class.xercesc_2_7::ComplexTypeInfo", %"class.xercesc_2_7::ComplexTypeInfo"* %this1, i32 0, i32 5, !dbg !3358
  store i8 0, i8* %fPreprocessed, align 4, !dbg !3358
  %fDerivedBy = getelementptr inbounds %"class.xercesc_2_7::ComplexTypeInfo", %"class.xercesc_2_7::ComplexTypeInfo"* %this1, i32 0, i32 6, !dbg !3359
  store i32 0, i32* %fDerivedBy, align 8, !dbg !3359
  %fBlockSet = getelementptr inbounds %"class.xercesc_2_7::ComplexTypeInfo", %"class.xercesc_2_7::ComplexTypeInfo"* %this1, i32 0, i32 7, !dbg !3360
  store i32 0, i32* %fBlockSet, align 4, !dbg !3360
  %fFinalSet = getelementptr inbounds %"class.xercesc_2_7::ComplexTypeInfo", %"class.xercesc_2_7::ComplexTypeInfo"* %this1, i32 0, i32 8, !dbg !3361
  store i32 0, i32* %fFinalSet, align 8, !dbg !3361
  %fScopeDefined = getelementptr inbounds %"class.xercesc_2_7::ComplexTypeInfo", %"class.xercesc_2_7::ComplexTypeInfo"* %this1, i32 0, i32 9, !dbg !3362
  store i32 -2, i32* %fScopeDefined, align 4, !dbg !3362
  %fContentType = getelementptr inbounds %"class.xercesc_2_7::ComplexTypeInfo", %"class.xercesc_2_7::ComplexTypeInfo"* %this1, i32 0, i32 10, !dbg !3363
  store i32 0, i32* %fContentType, align 8, !dbg !3363
  %fElementId = getelementptr inbounds %"class.xercesc_2_7::ComplexTypeInfo", %"class.xercesc_2_7::ComplexTypeInfo"* %this1, i32 0, i32 11, !dbg !3364
  %3 = load i32, i32* @_ZN11xercesc_2_714XMLElementDecl15fgInvalidElemIdE, align 4, !dbg !3365
  store i32 %3, i32* %fElementId, align 4, !dbg !3364
  %fUniqueURI = getelementptr inbounds %"class.xercesc_2_7::ComplexTypeInfo", %"class.xercesc_2_7::ComplexTypeInfo"* %this1, i32 0, i32 12, !dbg !3366
  store i32 0, i32* %fUniqueURI, align 8, !dbg !3366
  %fContentSpecOrgURISize = getelementptr inbounds %"class.xercesc_2_7::ComplexTypeInfo", %"class.xercesc_2_7::ComplexTypeInfo"* %this1, i32 0, i32 13, !dbg !3367
  store i32 16, i32* %fContentSpecOrgURISize, align 4, !dbg !3367
  %fTypeName = getelementptr inbounds %"class.xercesc_2_7::ComplexTypeInfo", %"class.xercesc_2_7::ComplexTypeInfo"* %this1, i32 0, i32 14, !dbg !3368
  store i16* null, i16** %fTypeName, align 8, !dbg !3368
  %fTypeLocalName = getelementptr inbounds %"class.xercesc_2_7::ComplexTypeInfo", %"class.xercesc_2_7::ComplexTypeInfo"* %this1, i32 0, i32 15, !dbg !3369
  store i16* null, i16** %fTypeLocalName, align 8, !dbg !3369
  %fTypeUri = getelementptr inbounds %"class.xercesc_2_7::ComplexTypeInfo", %"class.xercesc_2_7::ComplexTypeInfo"* %this1, i32 0, i32 16, !dbg !3370
  store i16* null, i16** %fTypeUri, align 8, !dbg !3370
  %fBaseDatatypeValidator = getelementptr inbounds %"class.xercesc_2_7::ComplexTypeInfo", %"class.xercesc_2_7::ComplexTypeInfo"* %this1, i32 0, i32 17, !dbg !3371
  store %"class.xercesc_2_7::DatatypeValidator"* null, %"class.xercesc_2_7::DatatypeValidator"** %fBaseDatatypeValidator, align 8, !dbg !3371
  %fDatatypeValidator = getelementptr inbounds %"class.xercesc_2_7::ComplexTypeInfo", %"class.xercesc_2_7::ComplexTypeInfo"* %this1, i32 0, i32 18, !dbg !3372
  store %"class.xercesc_2_7::DatatypeValidator"* null, %"class.xercesc_2_7::DatatypeValidator"** %fDatatypeValidator, align 8, !dbg !3372
  %fBaseComplexTypeInfo = getelementptr inbounds %"class.xercesc_2_7::ComplexTypeInfo", %"class.xercesc_2_7::ComplexTypeInfo"* %this1, i32 0, i32 19, !dbg !3373
  store %"class.xercesc_2_7::ComplexTypeInfo"* null, %"class.xercesc_2_7::ComplexTypeInfo"** %fBaseComplexTypeInfo, align 8, !dbg !3373
  %fContentSpec = getelementptr inbounds %"class.xercesc_2_7::ComplexTypeInfo", %"class.xercesc_2_7::ComplexTypeInfo"* %this1, i32 0, i32 20, !dbg !3374
  store %"class.xercesc_2_7::ContentSpecNode"* null, %"class.xercesc_2_7::ContentSpecNode"** %fContentSpec, align 8, !dbg !3374
  %fAttWildCard = getelementptr inbounds %"class.xercesc_2_7::ComplexTypeInfo", %"class.xercesc_2_7::ComplexTypeInfo"* %this1, i32 0, i32 21, !dbg !3375
  store %"class.xercesc_2_7::SchemaAttDef"* null, %"class.xercesc_2_7::SchemaAttDef"** %fAttWildCard, align 8, !dbg !3375
  %fAttList = getelementptr inbounds %"class.xercesc_2_7::ComplexTypeInfo", %"class.xercesc_2_7::ComplexTypeInfo"* %this1, i32 0, i32 22, !dbg !3376
  store %"class.xercesc_2_7::SchemaAttDefList"* null, %"class.xercesc_2_7::SchemaAttDefList"** %fAttList, align 8, !dbg !3376
  %fElements = getelementptr inbounds %"class.xercesc_2_7::ComplexTypeInfo", %"class.xercesc_2_7::ComplexTypeInfo"* %this1, i32 0, i32 23, !dbg !3377
  store %"class.xercesc_2_7::RefVectorOf.3"* null, %"class.xercesc_2_7::RefVectorOf.3"** %fElements, align 8, !dbg !3377
  %fAttDefs = getelementptr inbounds %"class.xercesc_2_7::ComplexTypeInfo", %"class.xercesc_2_7::ComplexTypeInfo"* %this1, i32 0, i32 24, !dbg !3378
  store %"class.xercesc_2_7::RefHash2KeysTableOf"* null, %"class.xercesc_2_7::RefHash2KeysTableOf"** %fAttDefs, align 8, !dbg !3378
  %fContentModel = getelementptr inbounds %"class.xercesc_2_7::ComplexTypeInfo", %"class.xercesc_2_7::ComplexTypeInfo"* %this1, i32 0, i32 25, !dbg !3379
  store %"class.xercesc_2_7::XMLContentModel"* null, %"class.xercesc_2_7::XMLContentModel"** %fContentModel, align 8, !dbg !3379
  %fFormattedModel = getelementptr inbounds %"class.xercesc_2_7::ComplexTypeInfo", %"class.xercesc_2_7::ComplexTypeInfo"* %this1, i32 0, i32 26, !dbg !3380
  store i16* null, i16** %fFormattedModel, align 8, !dbg !3380
  %fContentSpecOrgURI = getelementptr inbounds %"class.xercesc_2_7::ComplexTypeInfo", %"class.xercesc_2_7::ComplexTypeInfo"* %this1, i32 0, i32 27, !dbg !3381
  store i32* null, i32** %fContentSpecOrgURI, align 8, !dbg !3381
  %fLocator = getelementptr inbounds %"class.xercesc_2_7::ComplexTypeInfo", %"class.xercesc_2_7::ComplexTypeInfo"* %this1, i32 0, i32 28, !dbg !3382
  store %"class.xercesc_2_7::XSDLocator"* null, %"class.xercesc_2_7::XSDLocator"** %fLocator, align 8, !dbg !3382
  %fMemoryManager = getelementptr inbounds %"class.xercesc_2_7::ComplexTypeInfo", %"class.xercesc_2_7::ComplexTypeInfo"* %this1, i32 0, i32 29, !dbg !3383
  %4 = load %"class.xercesc_2_7::MemoryManager"*, %"class.xercesc_2_7::MemoryManager"** %manager.addr, align 8, !dbg !3384
  store %"class.xercesc_2_7::MemoryManager"* %4, %"class.xercesc_2_7::MemoryManager"** %fMemoryManager, align 8, !dbg !3383
  %fMemoryManager2 = getelementptr inbounds %"class.xercesc_2_7::ComplexTypeInfo", %"class.xercesc_2_7::ComplexTypeInfo"* %this1, i32 0, i32 29, !dbg !3385
  %5 = load %"class.xercesc_2_7::MemoryManager"*, %"class.xercesc_2_7::MemoryManager"** %fMemoryManager2, align 8, !dbg !3385
  %call = invoke i8* @_ZN11xercesc_2_77XMemorynwEmPNS_13MemoryManagerE(i64 40, %"class.xercesc_2_7::MemoryManager"* %5)
          to label %invoke.cont3 unwind label %lpad, !dbg !3387

invoke.cont3:                                     ; preds = %invoke.cont
  %6 = bitcast i8* %call to %"class.xercesc_2_7::RefHash2KeysTableOf"*, !dbg !3387
  %fMemoryManager4 = getelementptr inbounds %"class.xercesc_2_7::ComplexTypeInfo", %"class.xercesc_2_7::ComplexTypeInfo"* %this1, i32 0, i32 29, !dbg !3388
  %7 = load %"class.xercesc_2_7::MemoryManager"*, %"class.xercesc_2_7::MemoryManager"** %fMemoryManager4, align 8, !dbg !3388
  invoke void @_ZN11xercesc_2_719RefHash2KeysTableOfINS_12SchemaAttDefEEC2EjbPNS_13MemoryManagerE(%"class.xercesc_2_7::RefHash2KeysTableOf"* %6, i32 29, i1 zeroext true, %"class.xercesc_2_7::MemoryManager"* %7)
          to label %invoke.cont6 unwind label %lpad5, !dbg !3389

invoke.cont6:                                     ; preds = %invoke.cont3
  %fAttDefs7 = getelementptr inbounds %"class.xercesc_2_7::ComplexTypeInfo", %"class.xercesc_2_7::ComplexTypeInfo"* %this1, i32 0, i32 24, !dbg !3390
  store %"class.xercesc_2_7::RefHash2KeysTableOf"* %6, %"class.xercesc_2_7::RefHash2KeysTableOf"** %fAttDefs7, align 8, !dbg !3391
  %fMemoryManager8 = getelementptr inbounds %"class.xercesc_2_7::ComplexTypeInfo", %"class.xercesc_2_7::ComplexTypeInfo"* %this1, i32 0, i32 29, !dbg !3392
  %8 = load %"class.xercesc_2_7::MemoryManager"*, %"class.xercesc_2_7::MemoryManager"** %fMemoryManager8, align 8, !dbg !3392
  %call10 = invoke i8* @_ZN11xercesc_2_77XMemorynwEmPNS_13MemoryManagerE(i64 48, %"class.xercesc_2_7::MemoryManager"* %8)
          to label %invoke.cont9 unwind label %lpad, !dbg !3393

invoke.cont9:                                     ; preds = %invoke.cont6
  %9 = bitcast i8* %call10 to %"class.xercesc_2_7::SchemaAttDefList"*, !dbg !3393
  %fAttDefs11 = getelementptr inbounds %"class.xercesc_2_7::ComplexTypeInfo", %"class.xercesc_2_7::ComplexTypeInfo"* %this1, i32 0, i32 24, !dbg !3394
  %10 = load %"class.xercesc_2_7::RefHash2KeysTableOf"*, %"class.xercesc_2_7::RefHash2KeysTableOf"** %fAttDefs11, align 8, !dbg !3394
  %fMemoryManager12 = getelementptr inbounds %"class.xercesc_2_7::ComplexTypeInfo", %"class.xercesc_2_7::ComplexTypeInfo"* %this1, i32 0, i32 29, !dbg !3395
  %11 = load %"class.xercesc_2_7::MemoryManager"*, %"class.xercesc_2_7::MemoryManager"** %fMemoryManager12, align 8, !dbg !3395
  invoke void @_ZN11xercesc_2_716SchemaAttDefListC1EPNS_19RefHash2KeysTableOfINS_12SchemaAttDefEEEPNS_13MemoryManagerE(%"class.xercesc_2_7::SchemaAttDefList"* %9, %"class.xercesc_2_7::RefHash2KeysTableOf"* %10, %"class.xercesc_2_7::MemoryManager"* %11)
          to label %invoke.cont14 unwind label %lpad13, !dbg !3396

invoke.cont14:                                    ; preds = %invoke.cont9
  %fAttList15 = getelementptr inbounds %"class.xercesc_2_7::ComplexTypeInfo", %"class.xercesc_2_7::ComplexTypeInfo"* %this1, i32 0, i32 22, !dbg !3397
  store %"class.xercesc_2_7::SchemaAttDefList"* %9, %"class.xercesc_2_7::SchemaAttDefList"** %fAttList15, align 8, !dbg !3398
  ret void, !dbg !3399

lpad:                                             ; preds = %invoke.cont6, %invoke.cont, %entry
  %12 = landingpad { i8*, i32 }
          cleanup, !dbg !3399
  %13 = extractvalue { i8*, i32 } %12, 0, !dbg !3399
  store i8* %13, i8** %exn.slot, align 8, !dbg !3399
  %14 = extractvalue { i8*, i32 } %12, 1, !dbg !3399
  store i32 %14, i32* %ehselector.slot, align 4, !dbg !3399
  br label %ehcleanup, !dbg !3399

lpad5:                                            ; preds = %invoke.cont3
  %15 = landingpad { i8*, i32 }
          cleanup, !dbg !3400
  %16 = extractvalue { i8*, i32 } %15, 0, !dbg !3400
  store i8* %16, i8** %exn.slot, align 8, !dbg !3400
  %17 = extractvalue { i8*, i32 } %15, 1, !dbg !3400
  store i32 %17, i32* %ehselector.slot, align 4, !dbg !3400
  call void @_ZN11xercesc_2_77XMemorydlEPvPNS_13MemoryManagerE(i8* %call, %"class.xercesc_2_7::MemoryManager"* %5) #9, !dbg !3387
  br label %ehcleanup, !dbg !3387

lpad13:                                           ; preds = %invoke.cont9
  %18 = landingpad { i8*, i32 }
          cleanup, !dbg !3400
  %19 = extractvalue { i8*, i32 } %18, 0, !dbg !3400
  store i8* %19, i8** %exn.slot, align 8, !dbg !3400
  %20 = extractvalue { i8*, i32 } %18, 1, !dbg !3400
  store i32 %20, i32* %ehselector.slot, align 4, !dbg !3400
  call void @_ZN11xercesc_2_77XMemorydlEPvPNS_13MemoryManagerE(i8* %call10, %"class.xercesc_2_7::MemoryManager"* %8) #9, !dbg !3393
  br label %ehcleanup, !dbg !3393

ehcleanup:                                        ; preds = %lpad13, %lpad5, %lpad
  %21 = bitcast %"class.xercesc_2_7::ComplexTypeInfo"* %this1 to %"class.xercesc_2_7::XSerializable"*, !dbg !3400
  call void @_ZN11xercesc_2_713XSerializableD2Ev(%"class.xercesc_2_7::XSerializable"* %21) #9, !dbg !3400
  br label %eh.resume, !dbg !3400

eh.resume:                                        ; preds = %ehcleanup
  %exn = load i8*, i8** %exn.slot, align 8, !dbg !3400
  %sel = load i32, i32* %ehselector.slot, align 4, !dbg !3400
  %lpad.val = insertvalue { i8*, i32 } undef, i8* %exn, 0, !dbg !3400
  %lpad.val16 = insertvalue { i8*, i32 } %lpad.val, i32 %sel, 1, !dbg !3400
  resume { i8*, i32 } %lpad.val16, !dbg !3400
}

; Function Attrs: noinline nounwind uwtable
define linkonce_odr dso_local void @_ZN11xercesc_2_713XSerializableC2Ev(%"class.xercesc_2_7::XSerializable"* %this) unnamed_addr #1 comdat align 2 !dbg !3401 {
entry:
  %this.addr = alloca %"class.xercesc_2_7::XSerializable"*, align 8
  store %"class.xercesc_2_7::XSerializable"* %this, %"class.xercesc_2_7::XSerializable"** %this.addr, align 8
  call void @llvm.dbg.declare(metadata %"class.xercesc_2_7::XSerializable"** %this.addr, metadata !3402, metadata !DIExpression()), !dbg !3403
  %this1 = load %"class.xercesc_2_7::XSerializable"*, %"class.xercesc_2_7::XSerializable"** %this.addr, align 8
  %0 = bitcast %"class.xercesc_2_7::XSerializable"* %this1 to i32 (...)***, !dbg !3404
  store i32 (...)** bitcast (i8** getelementptr inbounds ({ [7 x i8*] }, { [7 x i8*] }* @_ZTVN11xercesc_2_713XSerializableE, i32 0, inrange i32 0, i32 2) to i32 (...)**), i32 (...)*** %0, align 8, !dbg !3404
  ret void, !dbg !3405
}

; Function Attrs: noinline nounwind uwtable
define linkonce_odr dso_local void @_ZN11xercesc_2_77XMemoryC2Ev(%"class.xercesc_2_7::XMemory"* %this) unnamed_addr #1 comdat align 2 !dbg !3406 {
entry:
  %this.addr = alloca %"class.xercesc_2_7::XMemory"*, align 8
  store %"class.xercesc_2_7::XMemory"* %this, %"class.xercesc_2_7::XMemory"** %this.addr, align 8
  call void @llvm.dbg.declare(metadata %"class.xercesc_2_7::XMemory"** %this.addr, metadata !3407, metadata !DIExpression()), !dbg !3409
  %this1 = load %"class.xercesc_2_7::XMemory"*, %"class.xercesc_2_7::XMemory"** %this.addr, align 8
  ret void, !dbg !3410
}

declare dso_local i8* @_ZN11xercesc_2_77XMemorynwEmPNS_13MemoryManagerE(i64, %"class.xercesc_2_7::MemoryManager"*) #7

; Function Attrs: noinline uwtable
define linkonce_odr dso_local void @_ZN11xercesc_2_719RefHash2KeysTableOfINS_12SchemaAttDefEEC2EjbPNS_13MemoryManagerE(%"class.xercesc_2_7::RefHash2KeysTableOf"* %this, i32 %modulus, i1 zeroext %adoptElems, %"class.xercesc_2_7::MemoryManager"* %manager) unnamed_addr #6 comdat align 2 personality i8* bitcast (i32 (...)* @__gxx_personality_v0 to i8*) !dbg !3411 {
entry:
  %this.addr = alloca %"class.xercesc_2_7::RefHash2KeysTableOf"*, align 8
  %modulus.addr = alloca i32, align 4
  %adoptElems.addr = alloca i8, align 1
  %manager.addr = alloca %"class.xercesc_2_7::MemoryManager"*, align 8
  %exn.slot = alloca i8*
  %ehselector.slot = alloca i32
  store %"class.xercesc_2_7::RefHash2KeysTableOf"* %this, %"class.xercesc_2_7::RefHash2KeysTableOf"** %this.addr, align 8
  call void @llvm.dbg.declare(metadata %"class.xercesc_2_7::RefHash2KeysTableOf"** %this.addr, metadata !3413, metadata !DIExpression()), !dbg !3414
  store i32 %modulus, i32* %modulus.addr, align 4
  call void @llvm.dbg.declare(metadata i32* %modulus.addr, metadata !3415, metadata !DIExpression()), !dbg !3416
  %frombool = zext i1 %adoptElems to i8
  store i8 %frombool, i8* %adoptElems.addr, align 1
  call void @llvm.dbg.declare(metadata i8* %adoptElems.addr, metadata !3417, metadata !DIExpression()), !dbg !3418
  store %"class.xercesc_2_7::MemoryManager"* %manager, %"class.xercesc_2_7::MemoryManager"** %manager.addr, align 8
  call void @llvm.dbg.declare(metadata %"class.xercesc_2_7::MemoryManager"** %manager.addr, metadata !3419, metadata !DIExpression()), !dbg !3420
  %this1 = load %"class.xercesc_2_7::RefHash2KeysTableOf"*, %"class.xercesc_2_7::RefHash2KeysTableOf"** %this.addr, align 8
  %0 = bitcast %"class.xercesc_2_7::RefHash2KeysTableOf"* %this1 to %"class.xercesc_2_7::XMemory"*, !dbg !3421
  call void @_ZN11xercesc_2_77XMemoryC2Ev(%"class.xercesc_2_7::XMemory"* %0), !dbg !3422
  %fMemoryManager = getelementptr inbounds %"class.xercesc_2_7::RefHash2KeysTableOf", %"class.xercesc_2_7::RefHash2KeysTableOf"* %this1, i32 0, i32 0, !dbg !3424
  %1 = load %"class.xercesc_2_7::MemoryManager"*, %"class.xercesc_2_7::MemoryManager"** %manager.addr, align 8, !dbg !3426
  store %"class.xercesc_2_7::MemoryManager"* %1, %"class.xercesc_2_7::MemoryManager"** %fMemoryManager, align 8, !dbg !3424
  %fAdoptedElems = getelementptr inbounds %"class.xercesc_2_7::RefHash2KeysTableOf", %"class.xercesc_2_7::RefHash2KeysTableOf"* %this1, i32 0, i32 1, !dbg !3427
  %2 = load i8, i8* %adoptElems.addr, align 1, !dbg !3428
  %tobool = trunc i8 %2 to i1, !dbg !3428
  %frombool2 = zext i1 %tobool to i8, !dbg !3427
  store i8 %frombool2, i8* %fAdoptedElems, align 8, !dbg !3427
  %fBucketList = getelementptr inbounds %"class.xercesc_2_7::RefHash2KeysTableOf", %"class.xercesc_2_7::RefHash2KeysTableOf"* %this1, i32 0, i32 2, !dbg !3429
  store %"struct.xercesc_2_7::RefHash2KeysTableBucketElem"** null, %"struct.xercesc_2_7::RefHash2KeysTableBucketElem"*** %fBucketList, align 8, !dbg !3429
  %fHashModulus = getelementptr inbounds %"class.xercesc_2_7::RefHash2KeysTableOf", %"class.xercesc_2_7::RefHash2KeysTableOf"* %this1, i32 0, i32 3, !dbg !3430
  %3 = load i32, i32* %modulus.addr, align 4, !dbg !3431
  store i32 %3, i32* %fHashModulus, align 8, !dbg !3430
  %fCount = getelementptr inbounds %"class.xercesc_2_7::RefHash2KeysTableOf", %"class.xercesc_2_7::RefHash2KeysTableOf"* %this1, i32 0, i32 4, !dbg !3432
  store i32 0, i32* %fCount, align 4, !dbg !3432
  %fHash = getelementptr inbounds %"class.xercesc_2_7::RefHash2KeysTableOf", %"class.xercesc_2_7::RefHash2KeysTableOf"* %this1, i32 0, i32 5, !dbg !3433
  store %"class.xercesc_2_7::HashBase"* null, %"class.xercesc_2_7::HashBase"** %fHash, align 8, !dbg !3433
  %4 = load i32, i32* %modulus.addr, align 4, !dbg !3434
  call void @_ZN11xercesc_2_719RefHash2KeysTableOfINS_12SchemaAttDefEE10initializeEj(%"class.xercesc_2_7::RefHash2KeysTableOf"* %this1, i32 %4), !dbg !3436
  %fMemoryManager3 = getelementptr inbounds %"class.xercesc_2_7::RefHash2KeysTableOf", %"class.xercesc_2_7::RefHash2KeysTableOf"* %this1, i32 0, i32 0, !dbg !3437
  %5 = load %"class.xercesc_2_7::MemoryManager"*, %"class.xercesc_2_7::MemoryManager"** %fMemoryManager3, align 8, !dbg !3437
  %call = call i8* @_ZN11xercesc_2_77XMemorynwEmPNS_13MemoryManagerE(i64 8, %"class.xercesc_2_7::MemoryManager"* %5), !dbg !3438
  %6 = bitcast i8* %call to %"class.xercesc_2_7::HashXMLCh"*, !dbg !3438
  invoke void @_ZN11xercesc_2_79HashXMLChC1Ev(%"class.xercesc_2_7::HashXMLCh"* %6)
          to label %invoke.cont unwind label %lpad, !dbg !3439

invoke.cont:                                      ; preds = %entry
  %7 = bitcast %"class.xercesc_2_7::HashXMLCh"* %6 to %"class.xercesc_2_7::HashBase"*, !dbg !3438
  %fHash4 = getelementptr inbounds %"class.xercesc_2_7::RefHash2KeysTableOf", %"class.xercesc_2_7::RefHash2KeysTableOf"* %this1, i32 0, i32 5, !dbg !3440
  store %"class.xercesc_2_7::HashBase"* %7, %"class.xercesc_2_7::HashBase"** %fHash4, align 8, !dbg !3441
  ret void, !dbg !3442

lpad:                                             ; preds = %entry
  %8 = landingpad { i8*, i32 }
          cleanup, !dbg !3443
  %9 = extractvalue { i8*, i32 } %8, 0, !dbg !3443
  store i8* %9, i8** %exn.slot, align 8, !dbg !3443
  %10 = extractvalue { i8*, i32 } %8, 1, !dbg !3443
  store i32 %10, i32* %ehselector.slot, align 4, !dbg !3443
  call void @_ZN11xercesc_2_77XMemorydlEPvPNS_13MemoryManagerE(i8* %call, %"class.xercesc_2_7::MemoryManager"* %5) #9, !dbg !3438
  br label %eh.resume, !dbg !3438

eh.resume:                                        ; preds = %lpad
  %exn = load i8*, i8** %exn.slot, align 8, !dbg !3438
  %sel = load i32, i32* %ehselector.slot, align 4, !dbg !3438
  %lpad.val = insertvalue { i8*, i32 } undef, i8* %exn, 0, !dbg !3438
  %lpad.val5 = insertvalue { i8*, i32 } %lpad.val, i32 %sel, 1, !dbg !3438
  resume { i8*, i32 } %lpad.val5, !dbg !3438
}

; Function Attrs: nounwind
declare dso_local void @_ZN11xercesc_2_77XMemorydlEPvPNS_13MemoryManagerE(i8*, %"class.xercesc_2_7::MemoryManager"*) #4

declare dso_local void @_ZN11xercesc_2_716SchemaAttDefListC1EPNS_19RefHash2KeysTableOfINS_12SchemaAttDefEEEPNS_13MemoryManagerE(%"class.xercesc_2_7::SchemaAttDefList"*, %"class.xercesc_2_7::RefHash2KeysTableOf"*, %"class.xercesc_2_7::MemoryManager"*) unnamed_addr #7

; Function Attrs: noinline nounwind uwtable
define dso_local void @_ZN11xercesc_2_715ComplexTypeInfoD2Ev(%"class.xercesc_2_7::ComplexTypeInfo"* %this) unnamed_addr #1 align 2 personality i8* bitcast (i32 (...)* @__gxx_personality_v0 to i8*) !dbg !3444 {
entry:
  %this.addr = alloca %"class.xercesc_2_7::ComplexTypeInfo"*, align 8
  %exn.slot = alloca i8*
  %ehselector.slot = alloca i32
  store %"class.xercesc_2_7::ComplexTypeInfo"* %this, %"class.xercesc_2_7::ComplexTypeInfo"** %this.addr, align 8
  call void @llvm.dbg.declare(metadata %"class.xercesc_2_7::ComplexTypeInfo"** %this.addr, metadata !3445, metadata !DIExpression()), !dbg !3446
  %this1 = load %"class.xercesc_2_7::ComplexTypeInfo"*, %"class.xercesc_2_7::ComplexTypeInfo"** %this.addr, align 8
  %0 = bitcast %"class.xercesc_2_7::ComplexTypeInfo"* %this1 to i32 (...)***, !dbg !3447
  store i32 (...)** bitcast (i8** getelementptr inbounds ({ [7 x i8*] }, { [7 x i8*] }* @_ZTVN11xercesc_2_715ComplexTypeInfoE, i32 0, inrange i32 0, i32 2) to i32 (...)**), i32 (...)*** %0, align 8, !dbg !3447
  %fMemoryManager = getelementptr inbounds %"class.xercesc_2_7::ComplexTypeInfo", %"class.xercesc_2_7::ComplexTypeInfo"* %this1, i32 0, i32 29, !dbg !3448
  %1 = load %"class.xercesc_2_7::MemoryManager"*, %"class.xercesc_2_7::MemoryManager"** %fMemoryManager, align 8, !dbg !3448
  %fTypeName = getelementptr inbounds %"class.xercesc_2_7::ComplexTypeInfo", %"class.xercesc_2_7::ComplexTypeInfo"* %this1, i32 0, i32 14, !dbg !3450
  %2 = load i16*, i16** %fTypeName, align 8, !dbg !3450
  %3 = bitcast i16* %2 to i8*, !dbg !3450
  %4 = bitcast %"class.xercesc_2_7::MemoryManager"* %1 to void (%"class.xercesc_2_7::MemoryManager"*, i8*)***, !dbg !3451
  %vtable = load void (%"class.xercesc_2_7::MemoryManager"*, i8*)**, void (%"class.xercesc_2_7::MemoryManager"*, i8*)*** %4, align 8, !dbg !3451
  %vfn = getelementptr inbounds void (%"class.xercesc_2_7::MemoryManager"*, i8*)*, void (%"class.xercesc_2_7::MemoryManager"*, i8*)** %vtable, i64 3, !dbg !3451
  %5 = load void (%"class.xercesc_2_7::MemoryManager"*, i8*)*, void (%"class.xercesc_2_7::MemoryManager"*, i8*)** %vfn, align 8, !dbg !3451
  invoke void %5(%"class.xercesc_2_7::MemoryManager"* %1, i8* %3)
          to label %invoke.cont unwind label %lpad, !dbg !3451

invoke.cont:                                      ; preds = %entry
  %fMemoryManager2 = getelementptr inbounds %"class.xercesc_2_7::ComplexTypeInfo", %"class.xercesc_2_7::ComplexTypeInfo"* %this1, i32 0, i32 29, !dbg !3452
  %6 = load %"class.xercesc_2_7::MemoryManager"*, %"class.xercesc_2_7::MemoryManager"** %fMemoryManager2, align 8, !dbg !3452
  %fTypeLocalName = getelementptr inbounds %"class.xercesc_2_7::ComplexTypeInfo", %"class.xercesc_2_7::ComplexTypeInfo"* %this1, i32 0, i32 15, !dbg !3453
  %7 = load i16*, i16** %fTypeLocalName, align 8, !dbg !3453
  %8 = bitcast i16* %7 to i8*, !dbg !3453
  %9 = bitcast %"class.xercesc_2_7::MemoryManager"* %6 to void (%"class.xercesc_2_7::MemoryManager"*, i8*)***, !dbg !3454
  %vtable3 = load void (%"class.xercesc_2_7::MemoryManager"*, i8*)**, void (%"class.xercesc_2_7::MemoryManager"*, i8*)*** %9, align 8, !dbg !3454
  %vfn4 = getelementptr inbounds void (%"class.xercesc_2_7::MemoryManager"*, i8*)*, void (%"class.xercesc_2_7::MemoryManager"*, i8*)** %vtable3, i64 3, !dbg !3454
  %10 = load void (%"class.xercesc_2_7::MemoryManager"*, i8*)*, void (%"class.xercesc_2_7::MemoryManager"*, i8*)** %vfn4, align 8, !dbg !3454
  invoke void %10(%"class.xercesc_2_7::MemoryManager"* %6, i8* %8)
          to label %invoke.cont5 unwind label %lpad, !dbg !3454

invoke.cont5:                                     ; preds = %invoke.cont
  %fMemoryManager6 = getelementptr inbounds %"class.xercesc_2_7::ComplexTypeInfo", %"class.xercesc_2_7::ComplexTypeInfo"* %this1, i32 0, i32 29, !dbg !3455
  %11 = load %"class.xercesc_2_7::MemoryManager"*, %"class.xercesc_2_7::MemoryManager"** %fMemoryManager6, align 8, !dbg !3455
  %fTypeUri = getelementptr inbounds %"class.xercesc_2_7::ComplexTypeInfo", %"class.xercesc_2_7::ComplexTypeInfo"* %this1, i32 0, i32 16, !dbg !3456
  %12 = load i16*, i16** %fTypeUri, align 8, !dbg !3456
  %13 = bitcast i16* %12 to i8*, !dbg !3456
  %14 = bitcast %"class.xercesc_2_7::MemoryManager"* %11 to void (%"class.xercesc_2_7::MemoryManager"*, i8*)***, !dbg !3457
  %vtable7 = load void (%"class.xercesc_2_7::MemoryManager"*, i8*)**, void (%"class.xercesc_2_7::MemoryManager"*, i8*)*** %14, align 8, !dbg !3457
  %vfn8 = getelementptr inbounds void (%"class.xercesc_2_7::MemoryManager"*, i8*)*, void (%"class.xercesc_2_7::MemoryManager"*, i8*)** %vtable7, i64 3, !dbg !3457
  %15 = load void (%"class.xercesc_2_7::MemoryManager"*, i8*)*, void (%"class.xercesc_2_7::MemoryManager"*, i8*)** %vfn8, align 8, !dbg !3457
  invoke void %15(%"class.xercesc_2_7::MemoryManager"* %11, i8* %13)
          to label %invoke.cont9 unwind label %lpad, !dbg !3457

invoke.cont9:                                     ; preds = %invoke.cont5
  %fAdoptContentSpec = getelementptr inbounds %"class.xercesc_2_7::ComplexTypeInfo", %"class.xercesc_2_7::ComplexTypeInfo"* %this1, i32 0, i32 3, !dbg !3458
  %16 = load i8, i8* %fAdoptContentSpec, align 2, !dbg !3458
  %tobool = trunc i8 %16 to i1, !dbg !3458
  br i1 %tobool, label %if.then, label %if.end, !dbg !3460

if.then:                                          ; preds = %invoke.cont9
  %fContentSpec = getelementptr inbounds %"class.xercesc_2_7::ComplexTypeInfo", %"class.xercesc_2_7::ComplexTypeInfo"* %this1, i32 0, i32 20, !dbg !3461
  %17 = load %"class.xercesc_2_7::ContentSpecNode"*, %"class.xercesc_2_7::ContentSpecNode"** %fContentSpec, align 8, !dbg !3461
  %isnull = icmp eq %"class.xercesc_2_7::ContentSpecNode"* %17, null, !dbg !3463
  br i1 %isnull, label %delete.end, label %delete.notnull, !dbg !3463

delete.notnull:                                   ; preds = %if.then
  %18 = bitcast %"class.xercesc_2_7::ContentSpecNode"* %17 to void (%"class.xercesc_2_7::ContentSpecNode"*)***, !dbg !3463
  %vtable10 = load void (%"class.xercesc_2_7::ContentSpecNode"*)**, void (%"class.xercesc_2_7::ContentSpecNode"*)*** %18, align 8, !dbg !3463
  %vfn11 = getelementptr inbounds void (%"class.xercesc_2_7::ContentSpecNode"*)*, void (%"class.xercesc_2_7::ContentSpecNode"*)** %vtable10, i64 1, !dbg !3463
  %19 = load void (%"class.xercesc_2_7::ContentSpecNode"*)*, void (%"class.xercesc_2_7::ContentSpecNode"*)** %vfn11, align 8, !dbg !3463
  call void %19(%"class.xercesc_2_7::ContentSpecNode"* %17) #9, !dbg !3463
  br label %delete.end, !dbg !3463

delete.end:                                       ; preds = %delete.notnull, %if.then
  br label %if.end, !dbg !3464

lpad:                                             ; preds = %invoke.cont43, %delete.end39, %invoke.cont5, %invoke.cont, %entry
  %20 = landingpad { i8*, i32 }
          catch i8* null, !dbg !3465
  %21 = extractvalue { i8*, i32 } %20, 0, !dbg !3465
  store i8* %21, i8** %exn.slot, align 8, !dbg !3465
  %22 = extractvalue { i8*, i32 } %20, 1, !dbg !3465
  store i32 %22, i32* %ehselector.slot, align 4, !dbg !3465
  %23 = bitcast %"class.xercesc_2_7::ComplexTypeInfo"* %this1 to %"class.xercesc_2_7::XSerializable"*, !dbg !3465
  call void @_ZN11xercesc_2_713XSerializableD2Ev(%"class.xercesc_2_7::XSerializable"* %23) #9, !dbg !3465
  br label %terminate.handler, !dbg !3465

if.end:                                           ; preds = %delete.end, %invoke.cont9
  %fAttWildCard = getelementptr inbounds %"class.xercesc_2_7::ComplexTypeInfo", %"class.xercesc_2_7::ComplexTypeInfo"* %this1, i32 0, i32 21, !dbg !3466
  %24 = load %"class.xercesc_2_7::SchemaAttDef"*, %"class.xercesc_2_7::SchemaAttDef"** %fAttWildCard, align 8, !dbg !3466
  %isnull12 = icmp eq %"class.xercesc_2_7::SchemaAttDef"* %24, null, !dbg !3467
  br i1 %isnull12, label %delete.end16, label %delete.notnull13, !dbg !3467

delete.notnull13:                                 ; preds = %if.end
  %25 = bitcast %"class.xercesc_2_7::SchemaAttDef"* %24 to void (%"class.xercesc_2_7::SchemaAttDef"*)***, !dbg !3467
  %vtable14 = load void (%"class.xercesc_2_7::SchemaAttDef"*)**, void (%"class.xercesc_2_7::SchemaAttDef"*)*** %25, align 8, !dbg !3467
  %vfn15 = getelementptr inbounds void (%"class.xercesc_2_7::SchemaAttDef"*)*, void (%"class.xercesc_2_7::SchemaAttDef"*)** %vtable14, i64 1, !dbg !3467
  %26 = load void (%"class.xercesc_2_7::SchemaAttDef"*)*, void (%"class.xercesc_2_7::SchemaAttDef"*)** %vfn15, align 8, !dbg !3467
  call void %26(%"class.xercesc_2_7::SchemaAttDef"* %24) #9, !dbg !3467
  br label %delete.end16, !dbg !3467

delete.end16:                                     ; preds = %delete.notnull13, %if.end
  %fAttDefs = getelementptr inbounds %"class.xercesc_2_7::ComplexTypeInfo", %"class.xercesc_2_7::ComplexTypeInfo"* %this1, i32 0, i32 24, !dbg !3468
  %27 = load %"class.xercesc_2_7::RefHash2KeysTableOf"*, %"class.xercesc_2_7::RefHash2KeysTableOf"** %fAttDefs, align 8, !dbg !3468
  %isnull17 = icmp eq %"class.xercesc_2_7::RefHash2KeysTableOf"* %27, null, !dbg !3469
  br i1 %isnull17, label %delete.end19, label %delete.notnull18, !dbg !3469

delete.notnull18:                                 ; preds = %delete.end16
  call void @_ZN11xercesc_2_719RefHash2KeysTableOfINS_12SchemaAttDefEED2Ev(%"class.xercesc_2_7::RefHash2KeysTableOf"* %27) #9, !dbg !3469
  %28 = bitcast %"class.xercesc_2_7::RefHash2KeysTableOf"* %27 to i8*, !dbg !3469
  call void @_ZN11xercesc_2_77XMemorydlEPv(i8* %28) #9, !dbg !3469
  br label %delete.end19, !dbg !3469

delete.end19:                                     ; preds = %delete.notnull18, %delete.end16
  %fAttList = getelementptr inbounds %"class.xercesc_2_7::ComplexTypeInfo", %"class.xercesc_2_7::ComplexTypeInfo"* %this1, i32 0, i32 22, !dbg !3470
  %29 = load %"class.xercesc_2_7::SchemaAttDefList"*, %"class.xercesc_2_7::SchemaAttDefList"** %fAttList, align 8, !dbg !3470
  %isnull20 = icmp eq %"class.xercesc_2_7::SchemaAttDefList"* %29, null, !dbg !3471
  br i1 %isnull20, label %delete.end24, label %delete.notnull21, !dbg !3471

delete.notnull21:                                 ; preds = %delete.end19
  %30 = bitcast %"class.xercesc_2_7::SchemaAttDefList"* %29 to void (%"class.xercesc_2_7::SchemaAttDefList"*)***, !dbg !3471
  %vtable22 = load void (%"class.xercesc_2_7::SchemaAttDefList"*)**, void (%"class.xercesc_2_7::SchemaAttDefList"*)*** %30, align 8, !dbg !3471
  %vfn23 = getelementptr inbounds void (%"class.xercesc_2_7::SchemaAttDefList"*)*, void (%"class.xercesc_2_7::SchemaAttDefList"*)** %vtable22, i64 1, !dbg !3471
  %31 = load void (%"class.xercesc_2_7::SchemaAttDefList"*)*, void (%"class.xercesc_2_7::SchemaAttDefList"*)** %vfn23, align 8, !dbg !3471
  call void %31(%"class.xercesc_2_7::SchemaAttDefList"* %29) #9, !dbg !3471
  br label %delete.end24, !dbg !3471

delete.end24:                                     ; preds = %delete.notnull21, %delete.end19
  %fElements = getelementptr inbounds %"class.xercesc_2_7::ComplexTypeInfo", %"class.xercesc_2_7::ComplexTypeInfo"* %this1, i32 0, i32 23, !dbg !3472
  %32 = load %"class.xercesc_2_7::RefVectorOf.3"*, %"class.xercesc_2_7::RefVectorOf.3"** %fElements, align 8, !dbg !3472
  %isnull25 = icmp eq %"class.xercesc_2_7::RefVectorOf.3"* %32, null, !dbg !3473
  br i1 %isnull25, label %delete.end29, label %delete.notnull26, !dbg !3473

delete.notnull26:                                 ; preds = %delete.end24
  %33 = bitcast %"class.xercesc_2_7::RefVectorOf.3"* %32 to void (%"class.xercesc_2_7::RefVectorOf.3"*)***, !dbg !3473
  %vtable27 = load void (%"class.xercesc_2_7::RefVectorOf.3"*)**, void (%"class.xercesc_2_7::RefVectorOf.3"*)*** %33, align 8, !dbg !3473
  %vfn28 = getelementptr inbounds void (%"class.xercesc_2_7::RefVectorOf.3"*)*, void (%"class.xercesc_2_7::RefVectorOf.3"*)** %vtable27, i64 1, !dbg !3473
  %34 = load void (%"class.xercesc_2_7::RefVectorOf.3"*)*, void (%"class.xercesc_2_7::RefVectorOf.3"*)** %vfn28, align 8, !dbg !3473
  call void %34(%"class.xercesc_2_7::RefVectorOf.3"* %32) #9, !dbg !3473
  br label %delete.end29, !dbg !3473

delete.end29:                                     ; preds = %delete.notnull26, %delete.end24
  %fLocator = getelementptr inbounds %"class.xercesc_2_7::ComplexTypeInfo", %"class.xercesc_2_7::ComplexTypeInfo"* %this1, i32 0, i32 28, !dbg !3474
  %35 = load %"class.xercesc_2_7::XSDLocator"*, %"class.xercesc_2_7::XSDLocator"** %fLocator, align 8, !dbg !3474
  %isnull30 = icmp eq %"class.xercesc_2_7::XSDLocator"* %35, null, !dbg !3475
  br i1 %isnull30, label %delete.end34, label %delete.notnull31, !dbg !3475

delete.notnull31:                                 ; preds = %delete.end29
  %36 = bitcast %"class.xercesc_2_7::XSDLocator"* %35 to void (%"class.xercesc_2_7::XSDLocator"*)***, !dbg !3475
  %vtable32 = load void (%"class.xercesc_2_7::XSDLocator"*)**, void (%"class.xercesc_2_7::XSDLocator"*)*** %36, align 8, !dbg !3475
  %vfn33 = getelementptr inbounds void (%"class.xercesc_2_7::XSDLocator"*)*, void (%"class.xercesc_2_7::XSDLocator"*)** %vtable32, i64 1, !dbg !3475
  %37 = load void (%"class.xercesc_2_7::XSDLocator"*)*, void (%"class.xercesc_2_7::XSDLocator"*)** %vfn33, align 8, !dbg !3475
  call void %37(%"class.xercesc_2_7::XSDLocator"* %35) #9, !dbg !3475
  br label %delete.end34, !dbg !3475

delete.end34:                                     ; preds = %delete.notnull31, %delete.end29
  %fContentModel = getelementptr inbounds %"class.xercesc_2_7::ComplexTypeInfo", %"class.xercesc_2_7::ComplexTypeInfo"* %this1, i32 0, i32 25, !dbg !3476
  %38 = load %"class.xercesc_2_7::XMLContentModel"*, %"class.xercesc_2_7::XMLContentModel"** %fContentModel, align 8, !dbg !3476
  %isnull35 = icmp eq %"class.xercesc_2_7::XMLContentModel"* %38, null, !dbg !3477
  br i1 %isnull35, label %delete.end39, label %delete.notnull36, !dbg !3477

delete.notnull36:                                 ; preds = %delete.end34
  %39 = bitcast %"class.xercesc_2_7::XMLContentModel"* %38 to void (%"class.xercesc_2_7::XMLContentModel"*)***, !dbg !3477
  %vtable37 = load void (%"class.xercesc_2_7::XMLContentModel"*)**, void (%"class.xercesc_2_7::XMLContentModel"*)*** %39, align 8, !dbg !3477
  %vfn38 = getelementptr inbounds void (%"class.xercesc_2_7::XMLContentModel"*)*, void (%"class.xercesc_2_7::XMLContentModel"*)** %vtable37, i64 1, !dbg !3477
  %40 = load void (%"class.xercesc_2_7::XMLContentModel"*)*, void (%"class.xercesc_2_7::XMLContentModel"*)** %vfn38, align 8, !dbg !3477
  call void %40(%"class.xercesc_2_7::XMLContentModel"* %38) #9, !dbg !3477
  br label %delete.end39, !dbg !3477

delete.end39:                                     ; preds = %delete.notnull36, %delete.end34
  %fMemoryManager40 = getelementptr inbounds %"class.xercesc_2_7::ComplexTypeInfo", %"class.xercesc_2_7::ComplexTypeInfo"* %this1, i32 0, i32 29, !dbg !3478
  %41 = load %"class.xercesc_2_7::MemoryManager"*, %"class.xercesc_2_7::MemoryManager"** %fMemoryManager40, align 8, !dbg !3478
  %fFormattedModel = getelementptr inbounds %"class.xercesc_2_7::ComplexTypeInfo", %"class.xercesc_2_7::ComplexTypeInfo"* %this1, i32 0, i32 26, !dbg !3479
  %42 = load i16*, i16** %fFormattedModel, align 8, !dbg !3479
  %43 = bitcast i16* %42 to i8*, !dbg !3479
  %44 = bitcast %"class.xercesc_2_7::MemoryManager"* %41 to void (%"class.xercesc_2_7::MemoryManager"*, i8*)***, !dbg !3480
  %vtable41 = load void (%"class.xercesc_2_7::MemoryManager"*, i8*)**, void (%"class.xercesc_2_7::MemoryManager"*, i8*)*** %44, align 8, !dbg !3480
  %vfn42 = getelementptr inbounds void (%"class.xercesc_2_7::MemoryManager"*, i8*)*, void (%"class.xercesc_2_7::MemoryManager"*, i8*)** %vtable41, i64 3, !dbg !3480
  %45 = load void (%"class.xercesc_2_7::MemoryManager"*, i8*)*, void (%"class.xercesc_2_7::MemoryManager"*, i8*)** %vfn42, align 8, !dbg !3480
  invoke void %45(%"class.xercesc_2_7::MemoryManager"* %41, i8* %43)
          to label %invoke.cont43 unwind label %lpad, !dbg !3480

invoke.cont43:                                    ; preds = %delete.end39
  %fMemoryManager44 = getelementptr inbounds %"class.xercesc_2_7::ComplexTypeInfo", %"class.xercesc_2_7::ComplexTypeInfo"* %this1, i32 0, i32 29, !dbg !3481
  %46 = load %"class.xercesc_2_7::MemoryManager"*, %"class.xercesc_2_7::MemoryManager"** %fMemoryManager44, align 8, !dbg !3481
  %fContentSpecOrgURI = getelementptr inbounds %"class.xercesc_2_7::ComplexTypeInfo", %"class.xercesc_2_7::ComplexTypeInfo"* %this1, i32 0, i32 27, !dbg !3482
  %47 = load i32*, i32** %fContentSpecOrgURI, align 8, !dbg !3482
  %48 = bitcast i32* %47 to i8*, !dbg !3482
  %49 = bitcast %"class.xercesc_2_7::MemoryManager"* %46 to void (%"class.xercesc_2_7::MemoryManager"*, i8*)***, !dbg !3483
  %vtable45 = load void (%"class.xercesc_2_7::MemoryManager"*, i8*)**, void (%"class.xercesc_2_7::MemoryManager"*, i8*)*** %49, align 8, !dbg !3483
  %vfn46 = getelementptr inbounds void (%"class.xercesc_2_7::MemoryManager"*, i8*)*, void (%"class.xercesc_2_7::MemoryManager"*, i8*)** %vtable45, i64 3, !dbg !3483
  %50 = load void (%"class.xercesc_2_7::MemoryManager"*, i8*)*, void (%"class.xercesc_2_7::MemoryManager"*, i8*)** %vfn46, align 8, !dbg !3483
  invoke void %50(%"class.xercesc_2_7::MemoryManager"* %46, i8* %48)
          to label %invoke.cont47 unwind label %lpad, !dbg !3483

invoke.cont47:                                    ; preds = %invoke.cont43
  %51 = bitcast %"class.xercesc_2_7::ComplexTypeInfo"* %this1 to %"class.xercesc_2_7::XSerializable"*, !dbg !3465
  call void @_ZN11xercesc_2_713XSerializableD2Ev(%"class.xercesc_2_7::XSerializable"* %51) #9, !dbg !3465
  ret void, !dbg !3484

terminate.handler:                                ; preds = %lpad
  %exn = load i8*, i8** %exn.slot, align 8, !dbg !3465
  call void @__clang_call_terminate(i8* %exn) #11, !dbg !3465
  unreachable, !dbg !3465
}

; Function Attrs: noinline nounwind uwtable
define linkonce_odr dso_local void @_ZN11xercesc_2_719RefHash2KeysTableOfINS_12SchemaAttDefEED2Ev(%"class.xercesc_2_7::RefHash2KeysTableOf"* %this) unnamed_addr #1 comdat align 2 personality i8* bitcast (i32 (...)* @__gxx_personality_v0 to i8*) !dbg !3485 {
entry:
  %this.addr = alloca %"class.xercesc_2_7::RefHash2KeysTableOf"*, align 8
  store %"class.xercesc_2_7::RefHash2KeysTableOf"* %this, %"class.xercesc_2_7::RefHash2KeysTableOf"** %this.addr, align 8
  call void @llvm.dbg.declare(metadata %"class.xercesc_2_7::RefHash2KeysTableOf"** %this.addr, metadata !3486, metadata !DIExpression()), !dbg !3487
  %this1 = load %"class.xercesc_2_7::RefHash2KeysTableOf"*, %"class.xercesc_2_7::RefHash2KeysTableOf"** %this.addr, align 8
  invoke void @_ZN11xercesc_2_719RefHash2KeysTableOfINS_12SchemaAttDefEE9removeAllEv(%"class.xercesc_2_7::RefHash2KeysTableOf"* %this1)
          to label %invoke.cont unwind label %terminate.lpad, !dbg !3488

invoke.cont:                                      ; preds = %entry
  %fMemoryManager = getelementptr inbounds %"class.xercesc_2_7::RefHash2KeysTableOf", %"class.xercesc_2_7::RefHash2KeysTableOf"* %this1, i32 0, i32 0, !dbg !3490
  %0 = load %"class.xercesc_2_7::MemoryManager"*, %"class.xercesc_2_7::MemoryManager"** %fMemoryManager, align 8, !dbg !3490
  %fBucketList = getelementptr inbounds %"class.xercesc_2_7::RefHash2KeysTableOf", %"class.xercesc_2_7::RefHash2KeysTableOf"* %this1, i32 0, i32 2, !dbg !3491
  %1 = load %"struct.xercesc_2_7::RefHash2KeysTableBucketElem"**, %"struct.xercesc_2_7::RefHash2KeysTableBucketElem"*** %fBucketList, align 8, !dbg !3491
  %2 = bitcast %"struct.xercesc_2_7::RefHash2KeysTableBucketElem"** %1 to i8*, !dbg !3491
  %3 = bitcast %"class.xercesc_2_7::MemoryManager"* %0 to void (%"class.xercesc_2_7::MemoryManager"*, i8*)***, !dbg !3492
  %vtable = load void (%"class.xercesc_2_7::MemoryManager"*, i8*)**, void (%"class.xercesc_2_7::MemoryManager"*, i8*)*** %3, align 8, !dbg !3492
  %vfn = getelementptr inbounds void (%"class.xercesc_2_7::MemoryManager"*, i8*)*, void (%"class.xercesc_2_7::MemoryManager"*, i8*)** %vtable, i64 3, !dbg !3492
  %4 = load void (%"class.xercesc_2_7::MemoryManager"*, i8*)*, void (%"class.xercesc_2_7::MemoryManager"*, i8*)** %vfn, align 8, !dbg !3492
  invoke void %4(%"class.xercesc_2_7::MemoryManager"* %0, i8* %2)
          to label %invoke.cont2 unwind label %terminate.lpad, !dbg !3492

invoke.cont2:                                     ; preds = %invoke.cont
  %fHash = getelementptr inbounds %"class.xercesc_2_7::RefHash2KeysTableOf", %"class.xercesc_2_7::RefHash2KeysTableOf"* %this1, i32 0, i32 5, !dbg !3493
  %5 = load %"class.xercesc_2_7::HashBase"*, %"class.xercesc_2_7::HashBase"** %fHash, align 8, !dbg !3493
  %isnull = icmp eq %"class.xercesc_2_7::HashBase"* %5, null, !dbg !3494
  br i1 %isnull, label %delete.end, label %delete.notnull, !dbg !3494

delete.notnull:                                   ; preds = %invoke.cont2
  %6 = bitcast %"class.xercesc_2_7::HashBase"* %5 to void (%"class.xercesc_2_7::HashBase"*)***, !dbg !3494
  %vtable3 = load void (%"class.xercesc_2_7::HashBase"*)**, void (%"class.xercesc_2_7::HashBase"*)*** %6, align 8, !dbg !3494
  %vfn4 = getelementptr inbounds void (%"class.xercesc_2_7::HashBase"*)*, void (%"class.xercesc_2_7::HashBase"*)** %vtable3, i64 3, !dbg !3494
  %7 = load void (%"class.xercesc_2_7::HashBase"*)*, void (%"class.xercesc_2_7::HashBase"*)** %vfn4, align 8, !dbg !3494
  call void %7(%"class.xercesc_2_7::HashBase"* %5) #9, !dbg !3494
  br label %delete.end, !dbg !3494

delete.end:                                       ; preds = %delete.notnull, %invoke.cont2
  ret void, !dbg !3495

terminate.lpad:                                   ; preds = %invoke.cont, %entry
  %8 = landingpad { i8*, i32 }
          catch i8* null, !dbg !3488
  %9 = extractvalue { i8*, i32 } %8, 0, !dbg !3488
  call void @__clang_call_terminate(i8* %9) #11, !dbg !3488
  unreachable, !dbg !3488
}

; Function Attrs: noinline nounwind uwtable
define dso_local void @_ZN11xercesc_2_715ComplexTypeInfoD0Ev(%"class.xercesc_2_7::ComplexTypeInfo"* %this) unnamed_addr #1 align 2 !dbg !3496 {
entry:
  %this.addr = alloca %"class.xercesc_2_7::ComplexTypeInfo"*, align 8
  store %"class.xercesc_2_7::ComplexTypeInfo"* %this, %"class.xercesc_2_7::ComplexTypeInfo"** %this.addr, align 8
  call void @llvm.dbg.declare(metadata %"class.xercesc_2_7::ComplexTypeInfo"** %this.addr, metadata !3497, metadata !DIExpression()), !dbg !3498
  %this1 = load %"class.xercesc_2_7::ComplexTypeInfo"*, %"class.xercesc_2_7::ComplexTypeInfo"** %this.addr, align 8
  call void @_ZN11xercesc_2_715ComplexTypeInfoD1Ev(%"class.xercesc_2_7::ComplexTypeInfo"* %this1) #9, !dbg !3499
  %0 = bitcast %"class.xercesc_2_7::ComplexTypeInfo"* %this1 to i8*, !dbg !3499
  call void @_ZN11xercesc_2_77XMemorydlEPv(i8* %0) #9, !dbg !3499
  ret void, !dbg !3500
}

; Function Attrs: noinline uwtable
define dso_local void @_ZN11xercesc_2_715ComplexTypeInfo9addAttDefEPNS_12SchemaAttDefE(%"class.xercesc_2_7::ComplexTypeInfo"* %this, %"class.xercesc_2_7::SchemaAttDef"* %toAdd) #6 align 2 !dbg !3501 {
entry:
  %this.addr = alloca %"class.xercesc_2_7::ComplexTypeInfo"*, align 8
  %toAdd.addr = alloca %"class.xercesc_2_7::SchemaAttDef"*, align 8
  store %"class.xercesc_2_7::ComplexTypeInfo"* %this, %"class.xercesc_2_7::ComplexTypeInfo"** %this.addr, align 8
  call void @llvm.dbg.declare(metadata %"class.xercesc_2_7::ComplexTypeInfo"** %this.addr, metadata !3502, metadata !DIExpression()), !dbg !3503
  store %"class.xercesc_2_7::SchemaAttDef"* %toAdd, %"class.xercesc_2_7::SchemaAttDef"** %toAdd.addr, align 8
  call void @llvm.dbg.declare(metadata %"class.xercesc_2_7::SchemaAttDef"** %toAdd.addr, metadata !3504, metadata !DIExpression()), !dbg !3505
  %this1 = load %"class.xercesc_2_7::ComplexTypeInfo"*, %"class.xercesc_2_7::ComplexTypeInfo"** %this.addr, align 8
  %0 = load %"class.xercesc_2_7::SchemaAttDef"*, %"class.xercesc_2_7::SchemaAttDef"** %toAdd.addr, align 8, !dbg !3506
  %call = call i32 @_ZNK11xercesc_2_715ComplexTypeInfo12getElementIdEv(%"class.xercesc_2_7::ComplexTypeInfo"* %this1), !dbg !3507
  call void @_ZN11xercesc_2_712SchemaAttDef9setElemIdEj(%"class.xercesc_2_7::SchemaAttDef"* %0, i32 %call), !dbg !3508
  %fAttDefs = getelementptr inbounds %"class.xercesc_2_7::ComplexTypeInfo", %"class.xercesc_2_7::ComplexTypeInfo"* %this1, i32 0, i32 24, !dbg !3509
  %1 = load %"class.xercesc_2_7::RefHash2KeysTableOf"*, %"class.xercesc_2_7::RefHash2KeysTableOf"** %fAttDefs, align 8, !dbg !3509
  %2 = load %"class.xercesc_2_7::SchemaAttDef"*, %"class.xercesc_2_7::SchemaAttDef"** %toAdd.addr, align 8, !dbg !3510
  %call2 = call %"class.xercesc_2_7::QName"* @_ZNK11xercesc_2_712SchemaAttDef10getAttNameEv(%"class.xercesc_2_7::SchemaAttDef"* %2), !dbg !3511
  %call3 = call i16* @_ZN11xercesc_2_75QName12getLocalPartEv(%"class.xercesc_2_7::QName"* %call2), !dbg !3512
  %3 = bitcast i16* %call3 to i8*, !dbg !3513
  %4 = load %"class.xercesc_2_7::SchemaAttDef"*, %"class.xercesc_2_7::SchemaAttDef"** %toAdd.addr, align 8, !dbg !3514
  %call4 = call %"class.xercesc_2_7::QName"* @_ZNK11xercesc_2_712SchemaAttDef10getAttNameEv(%"class.xercesc_2_7::SchemaAttDef"* %4), !dbg !3515
  %call5 = call i32 @_ZNK11xercesc_2_75QName6getURIEv(%"class.xercesc_2_7::QName"* %call4), !dbg !3516
  %5 = load %"class.xercesc_2_7::SchemaAttDef"*, %"class.xercesc_2_7::SchemaAttDef"** %toAdd.addr, align 8, !dbg !3517
  call void @_ZN11xercesc_2_719RefHash2KeysTableOfINS_12SchemaAttDefEE3putEPviPS1_(%"class.xercesc_2_7::RefHash2KeysTableOf"* %1, i8* %3, i32 %call5, %"class.xercesc_2_7::SchemaAttDef"* %5), !dbg !3518
  %fAttList = getelementptr inbounds %"class.xercesc_2_7::ComplexTypeInfo", %"class.xercesc_2_7::ComplexTypeInfo"* %this1, i32 0, i32 22, !dbg !3519
  %6 = load %"class.xercesc_2_7::SchemaAttDefList"*, %"class.xercesc_2_7::SchemaAttDefList"** %fAttList, align 8, !dbg !3519
  %7 = load %"class.xercesc_2_7::SchemaAttDef"*, %"class.xercesc_2_7::SchemaAttDef"** %toAdd.addr, align 8, !dbg !3520
  call void @_ZN11xercesc_2_716SchemaAttDefList9addAttDefEPNS_12SchemaAttDefE(%"class.xercesc_2_7::SchemaAttDefList"* %6, %"class.xercesc_2_7::SchemaAttDef"* %7), !dbg !3521
  ret void, !dbg !3522
}

; Function Attrs: noinline nounwind uwtable
define linkonce_odr dso_local void @_ZN11xercesc_2_712SchemaAttDef9setElemIdEj(%"class.xercesc_2_7::SchemaAttDef"* %this, i32 %newId) #1 comdat align 2 !dbg !3523 {
entry:
  %this.addr = alloca %"class.xercesc_2_7::SchemaAttDef"*, align 8
  %newId.addr = alloca i32, align 4
  store %"class.xercesc_2_7::SchemaAttDef"* %this, %"class.xercesc_2_7::SchemaAttDef"** %this.addr, align 8
  call void @llvm.dbg.declare(metadata %"class.xercesc_2_7::SchemaAttDef"** %this.addr, metadata !3528, metadata !DIExpression()), !dbg !3529
  store i32 %newId, i32* %newId.addr, align 4
  call void @llvm.dbg.declare(metadata i32* %newId.addr, metadata !3530, metadata !DIExpression()), !dbg !3531
  %this1 = load %"class.xercesc_2_7::SchemaAttDef"*, %"class.xercesc_2_7::SchemaAttDef"** %this.addr, align 8
  %0 = load i32, i32* %newId.addr, align 4, !dbg !3532
  %fElemId = getelementptr inbounds %"class.xercesc_2_7::SchemaAttDef", %"class.xercesc_2_7::SchemaAttDef"* %this1, i32 0, i32 1, !dbg !3533
  store i32 %0, i32* %fElemId, align 8, !dbg !3534
  ret void, !dbg !3535
}

; Function Attrs: noinline nounwind uwtable
define linkonce_odr dso_local i32 @_ZNK11xercesc_2_715ComplexTypeInfo12getElementIdEv(%"class.xercesc_2_7::ComplexTypeInfo"* %this) #1 comdat align 2 !dbg !3536 {
entry:
  %this.addr = alloca %"class.xercesc_2_7::ComplexTypeInfo"*, align 8
  store %"class.xercesc_2_7::ComplexTypeInfo"* %this, %"class.xercesc_2_7::ComplexTypeInfo"** %this.addr, align 8
  call void @llvm.dbg.declare(metadata %"class.xercesc_2_7::ComplexTypeInfo"** %this.addr, metadata !3537, metadata !DIExpression()), !dbg !3539
  %this1 = load %"class.xercesc_2_7::ComplexTypeInfo"*, %"class.xercesc_2_7::ComplexTypeInfo"** %this.addr, align 8
  %fElementId = getelementptr inbounds %"class.xercesc_2_7::ComplexTypeInfo", %"class.xercesc_2_7::ComplexTypeInfo"* %this1, i32 0, i32 11, !dbg !3540
  %0 = load i32, i32* %fElementId, align 4, !dbg !3540
  ret i32 %0, !dbg !3541
}

; Function Attrs: noinline uwtable
define linkonce_odr dso_local void @_ZN11xercesc_2_719RefHash2KeysTableOfINS_12SchemaAttDefEE3putEPviPS1_(%"class.xercesc_2_7::RefHash2KeysTableOf"* %this, i8* %key1, i32 %key2, %"class.xercesc_2_7::SchemaAttDef"* %valueToAdopt) #6 comdat align 2 !dbg !3542 {
entry:
  %this.addr = alloca %"class.xercesc_2_7::RefHash2KeysTableOf"*, align 8
  %key1.addr = alloca i8*, align 8
  %key2.addr = alloca i32, align 4
  %valueToAdopt.addr = alloca %"class.xercesc_2_7::SchemaAttDef"*, align 8
  %threshold = alloca i32, align 4
  %hashVal = alloca i32, align 4
  %newBucket = alloca %"struct.xercesc_2_7::RefHash2KeysTableBucketElem"*, align 8
  store %"class.xercesc_2_7::RefHash2KeysTableOf"* %this, %"class.xercesc_2_7::RefHash2KeysTableOf"** %this.addr, align 8
  call void @llvm.dbg.declare(metadata %"class.xercesc_2_7::RefHash2KeysTableOf"** %this.addr, metadata !3543, metadata !DIExpression()), !dbg !3544
  store i8* %key1, i8** %key1.addr, align 8
  call void @llvm.dbg.declare(metadata i8** %key1.addr, metadata !3545, metadata !DIExpression()), !dbg !3546
  store i32 %key2, i32* %key2.addr, align 4
  call void @llvm.dbg.declare(metadata i32* %key2.addr, metadata !3547, metadata !DIExpression()), !dbg !3548
  store %"class.xercesc_2_7::SchemaAttDef"* %valueToAdopt, %"class.xercesc_2_7::SchemaAttDef"** %valueToAdopt.addr, align 8
  call void @llvm.dbg.declare(metadata %"class.xercesc_2_7::SchemaAttDef"** %valueToAdopt.addr, metadata !3549, metadata !DIExpression()), !dbg !3550
  %this1 = load %"class.xercesc_2_7::RefHash2KeysTableOf"*, %"class.xercesc_2_7::RefHash2KeysTableOf"** %this.addr, align 8
  call void @llvm.dbg.declare(metadata i32* %threshold, metadata !3551, metadata !DIExpression()), !dbg !3552
  %fHashModulus = getelementptr inbounds %"class.xercesc_2_7::RefHash2KeysTableOf", %"class.xercesc_2_7::RefHash2KeysTableOf"* %this1, i32 0, i32 3, !dbg !3553
  %0 = load i32, i32* %fHashModulus, align 8, !dbg !3553
  %mul = mul i32 %0, 4, !dbg !3554
  store i32 %mul, i32* %threshold, align 4, !dbg !3552
  %fCount = getelementptr inbounds %"class.xercesc_2_7::RefHash2KeysTableOf", %"class.xercesc_2_7::RefHash2KeysTableOf"* %this1, i32 0, i32 4, !dbg !3555
  %1 = load i32, i32* %fCount, align 4, !dbg !3555
  %2 = load i32, i32* %threshold, align 4, !dbg !3557
  %cmp = icmp uge i32 %1, %2, !dbg !3558
  br i1 %cmp, label %if.then, label %if.end, !dbg !3559

if.then:                                          ; preds = %entry
  call void @_ZN11xercesc_2_719RefHash2KeysTableOfINS_12SchemaAttDefEE6rehashEv(%"class.xercesc_2_7::RefHash2KeysTableOf"* %this1), !dbg !3560
  br label %if.end, !dbg !3560

if.end:                                           ; preds = %if.then, %entry
  call void @llvm.dbg.declare(metadata i32* %hashVal, metadata !3561, metadata !DIExpression()), !dbg !3562
  call void @llvm.dbg.declare(metadata %"struct.xercesc_2_7::RefHash2KeysTableBucketElem"** %newBucket, metadata !3563, metadata !DIExpression()), !dbg !3564
  %3 = load i8*, i8** %key1.addr, align 8, !dbg !3565
  %4 = load i32, i32* %key2.addr, align 4, !dbg !3566
  %call = call %"struct.xercesc_2_7::RefHash2KeysTableBucketElem"* @_ZN11xercesc_2_719RefHash2KeysTableOfINS_12SchemaAttDefEE14findBucketElemEPKviRj(%"class.xercesc_2_7::RefHash2KeysTableOf"* %this1, i8* %3, i32 %4, i32* dereferenceable(4) %hashVal), !dbg !3567
  store %"struct.xercesc_2_7::RefHash2KeysTableBucketElem"* %call, %"struct.xercesc_2_7::RefHash2KeysTableBucketElem"** %newBucket, align 8, !dbg !3564
  %5 = load %"struct.xercesc_2_7::RefHash2KeysTableBucketElem"*, %"struct.xercesc_2_7::RefHash2KeysTableBucketElem"** %newBucket, align 8, !dbg !3568
  %tobool = icmp ne %"struct.xercesc_2_7::RefHash2KeysTableBucketElem"* %5, null, !dbg !3568
  br i1 %tobool, label %if.then2, label %if.else, !dbg !3570

if.then2:                                         ; preds = %if.end
  %fAdoptedElems = getelementptr inbounds %"class.xercesc_2_7::RefHash2KeysTableOf", %"class.xercesc_2_7::RefHash2KeysTableOf"* %this1, i32 0, i32 1, !dbg !3571
  %6 = load i8, i8* %fAdoptedElems, align 8, !dbg !3571
  %tobool3 = trunc i8 %6 to i1, !dbg !3571
  br i1 %tobool3, label %if.then4, label %if.end5, !dbg !3574

if.then4:                                         ; preds = %if.then2
  %7 = load %"struct.xercesc_2_7::RefHash2KeysTableBucketElem"*, %"struct.xercesc_2_7::RefHash2KeysTableBucketElem"** %newBucket, align 8, !dbg !3575
  %fData = getelementptr inbounds %"struct.xercesc_2_7::RefHash2KeysTableBucketElem", %"struct.xercesc_2_7::RefHash2KeysTableBucketElem"* %7, i32 0, i32 0, !dbg !3576
  %8 = load %"class.xercesc_2_7::SchemaAttDef"*, %"class.xercesc_2_7::SchemaAttDef"** %fData, align 8, !dbg !3576
  %isnull = icmp eq %"class.xercesc_2_7::SchemaAttDef"* %8, null, !dbg !3577
  br i1 %isnull, label %delete.end, label %delete.notnull, !dbg !3577

delete.notnull:                                   ; preds = %if.then4
  %9 = bitcast %"class.xercesc_2_7::SchemaAttDef"* %8 to void (%"class.xercesc_2_7::SchemaAttDef"*)***, !dbg !3577
  %vtable = load void (%"class.xercesc_2_7::SchemaAttDef"*)**, void (%"class.xercesc_2_7::SchemaAttDef"*)*** %9, align 8, !dbg !3577
  %vfn = getelementptr inbounds void (%"class.xercesc_2_7::SchemaAttDef"*)*, void (%"class.xercesc_2_7::SchemaAttDef"*)** %vtable, i64 1, !dbg !3577
  %10 = load void (%"class.xercesc_2_7::SchemaAttDef"*)*, void (%"class.xercesc_2_7::SchemaAttDef"*)** %vfn, align 8, !dbg !3577
  call void %10(%"class.xercesc_2_7::SchemaAttDef"* %8) #9, !dbg !3577
  br label %delete.end, !dbg !3577

delete.end:                                       ; preds = %delete.notnull, %if.then4
  br label %if.end5, !dbg !3577

if.end5:                                          ; preds = %delete.end, %if.then2
  %11 = load %"class.xercesc_2_7::SchemaAttDef"*, %"class.xercesc_2_7::SchemaAttDef"** %valueToAdopt.addr, align 8, !dbg !3578
  %12 = load %"struct.xercesc_2_7::RefHash2KeysTableBucketElem"*, %"struct.xercesc_2_7::RefHash2KeysTableBucketElem"** %newBucket, align 8, !dbg !3579
  %fData6 = getelementptr inbounds %"struct.xercesc_2_7::RefHash2KeysTableBucketElem", %"struct.xercesc_2_7::RefHash2KeysTableBucketElem"* %12, i32 0, i32 0, !dbg !3580
  store %"class.xercesc_2_7::SchemaAttDef"* %11, %"class.xercesc_2_7::SchemaAttDef"** %fData6, align 8, !dbg !3581
  %13 = load i8*, i8** %key1.addr, align 8, !dbg !3582
  %14 = load %"struct.xercesc_2_7::RefHash2KeysTableBucketElem"*, %"struct.xercesc_2_7::RefHash2KeysTableBucketElem"** %newBucket, align 8, !dbg !3583
  %fKey1 = getelementptr inbounds %"struct.xercesc_2_7::RefHash2KeysTableBucketElem", %"struct.xercesc_2_7::RefHash2KeysTableBucketElem"* %14, i32 0, i32 2, !dbg !3584
  store i8* %13, i8** %fKey1, align 8, !dbg !3585
  %15 = load i32, i32* %key2.addr, align 4, !dbg !3586
  %16 = load %"struct.xercesc_2_7::RefHash2KeysTableBucketElem"*, %"struct.xercesc_2_7::RefHash2KeysTableBucketElem"** %newBucket, align 8, !dbg !3587
  %fKey2 = getelementptr inbounds %"struct.xercesc_2_7::RefHash2KeysTableBucketElem", %"struct.xercesc_2_7::RefHash2KeysTableBucketElem"* %16, i32 0, i32 3, !dbg !3588
  store i32 %15, i32* %fKey2, align 8, !dbg !3589
  br label %if.end14, !dbg !3590

if.else:                                          ; preds = %if.end
  %fMemoryManager = getelementptr inbounds %"class.xercesc_2_7::RefHash2KeysTableOf", %"class.xercesc_2_7::RefHash2KeysTableOf"* %this1, i32 0, i32 0, !dbg !3591
  %17 = load %"class.xercesc_2_7::MemoryManager"*, %"class.xercesc_2_7::MemoryManager"** %fMemoryManager, align 8, !dbg !3591
  %18 = bitcast %"class.xercesc_2_7::MemoryManager"* %17 to i8* (%"class.xercesc_2_7::MemoryManager"*, i64)***, !dbg !3593
  %vtable7 = load i8* (%"class.xercesc_2_7::MemoryManager"*, i64)**, i8* (%"class.xercesc_2_7::MemoryManager"*, i64)*** %18, align 8, !dbg !3593
  %vfn8 = getelementptr inbounds i8* (%"class.xercesc_2_7::MemoryManager"*, i64)*, i8* (%"class.xercesc_2_7::MemoryManager"*, i64)** %vtable7, i64 2, !dbg !3593
  %19 = load i8* (%"class.xercesc_2_7::MemoryManager"*, i64)*, i8* (%"class.xercesc_2_7::MemoryManager"*, i64)** %vfn8, align 8, !dbg !3593
  %call9 = call i8* %19(%"class.xercesc_2_7::MemoryManager"* %17, i64 32), !dbg !3593
  %20 = bitcast i8* %call9 to %"struct.xercesc_2_7::RefHash2KeysTableBucketElem"*, !dbg !3594
  %21 = load i8*, i8** %key1.addr, align 8, !dbg !3595
  %22 = load i32, i32* %key2.addr, align 4, !dbg !3596
  %23 = load %"class.xercesc_2_7::SchemaAttDef"*, %"class.xercesc_2_7::SchemaAttDef"** %valueToAdopt.addr, align 8, !dbg !3597
  %fBucketList = getelementptr inbounds %"class.xercesc_2_7::RefHash2KeysTableOf", %"class.xercesc_2_7::RefHash2KeysTableOf"* %this1, i32 0, i32 2, !dbg !3598
  %24 = load %"struct.xercesc_2_7::RefHash2KeysTableBucketElem"**, %"struct.xercesc_2_7::RefHash2KeysTableBucketElem"*** %fBucketList, align 8, !dbg !3598
  %25 = load i32, i32* %hashVal, align 4, !dbg !3599
  %idxprom = zext i32 %25 to i64, !dbg !3598
  %arrayidx = getelementptr inbounds %"struct.xercesc_2_7::RefHash2KeysTableBucketElem"*, %"struct.xercesc_2_7::RefHash2KeysTableBucketElem"** %24, i64 %idxprom, !dbg !3598
  %26 = load %"struct.xercesc_2_7::RefHash2KeysTableBucketElem"*, %"struct.xercesc_2_7::RefHash2KeysTableBucketElem"** %arrayidx, align 8, !dbg !3598
  call void @_ZN11xercesc_2_727RefHash2KeysTableBucketElemINS_12SchemaAttDefEEC2EPviPS1_PS2_(%"struct.xercesc_2_7::RefHash2KeysTableBucketElem"* %20, i8* %21, i32 %22, %"class.xercesc_2_7::SchemaAttDef"* %23, %"struct.xercesc_2_7::RefHash2KeysTableBucketElem"* %26), !dbg !3600
  store %"struct.xercesc_2_7::RefHash2KeysTableBucketElem"* %20, %"struct.xercesc_2_7::RefHash2KeysTableBucketElem"** %newBucket, align 8, !dbg !3601
  %27 = load %"struct.xercesc_2_7::RefHash2KeysTableBucketElem"*, %"struct.xercesc_2_7::RefHash2KeysTableBucketElem"** %newBucket, align 8, !dbg !3602
  %fBucketList10 = getelementptr inbounds %"class.xercesc_2_7::RefHash2KeysTableOf", %"class.xercesc_2_7::RefHash2KeysTableOf"* %this1, i32 0, i32 2, !dbg !3603
  %28 = load %"struct.xercesc_2_7::RefHash2KeysTableBucketElem"**, %"struct.xercesc_2_7::RefHash2KeysTableBucketElem"*** %fBucketList10, align 8, !dbg !3603
  %29 = load i32, i32* %hashVal, align 4, !dbg !3604
  %idxprom11 = zext i32 %29 to i64, !dbg !3603
  %arrayidx12 = getelementptr inbounds %"struct.xercesc_2_7::RefHash2KeysTableBucketElem"*, %"struct.xercesc_2_7::RefHash2KeysTableBucketElem"** %28, i64 %idxprom11, !dbg !3603
  store %"struct.xercesc_2_7::RefHash2KeysTableBucketElem"* %27, %"struct.xercesc_2_7::RefHash2KeysTableBucketElem"** %arrayidx12, align 8, !dbg !3605
  %fCount13 = getelementptr inbounds %"class.xercesc_2_7::RefHash2KeysTableOf", %"class.xercesc_2_7::RefHash2KeysTableOf"* %this1, i32 0, i32 4, !dbg !3606
  %30 = load i32, i32* %fCount13, align 4, !dbg !3607
  %inc = add i32 %30, 1, !dbg !3607
  store i32 %inc, i32* %fCount13, align 4, !dbg !3607
  br label %if.end14

if.end14:                                         ; preds = %if.else, %if.end5
  ret void, !dbg !3608
}

; Function Attrs: noinline nounwind uwtable
define linkonce_odr dso_local %"class.xercesc_2_7::QName"* @_ZNK11xercesc_2_712SchemaAttDef10getAttNameEv(%"class.xercesc_2_7::SchemaAttDef"* %this) #1 comdat align 2 !dbg !3609 {
entry:
  %this.addr = alloca %"class.xercesc_2_7::SchemaAttDef"*, align 8
  store %"class.xercesc_2_7::SchemaAttDef"* %this, %"class.xercesc_2_7::SchemaAttDef"** %this.addr, align 8
  call void @llvm.dbg.declare(metadata %"class.xercesc_2_7::SchemaAttDef"** %this.addr, metadata !3614, metadata !DIExpression()), !dbg !3615
  %this1 = load %"class.xercesc_2_7::SchemaAttDef"*, %"class.xercesc_2_7::SchemaAttDef"** %this.addr, align 8
  %fAttName = getelementptr inbounds %"class.xercesc_2_7::SchemaAttDef", %"class.xercesc_2_7::SchemaAttDef"* %this1, i32 0, i32 5, !dbg !3616
  %0 = load %"class.xercesc_2_7::QName"*, %"class.xercesc_2_7::QName"** %fAttName, align 8, !dbg !3616
  ret %"class.xercesc_2_7::QName"* %0, !dbg !3617
}

; Function Attrs: noinline nounwind uwtable
define linkonce_odr dso_local i16* @_ZN11xercesc_2_75QName12getLocalPartEv(%"class.xercesc_2_7::QName"* %this) #1 comdat align 2 !dbg !3618 {
entry:
  %this.addr = alloca %"class.xercesc_2_7::QName"*, align 8
  store %"class.xercesc_2_7::QName"* %this, %"class.xercesc_2_7::QName"** %this.addr, align 8
  call void @llvm.dbg.declare(metadata %"class.xercesc_2_7::QName"** %this.addr, metadata !3623, metadata !DIExpression()), !dbg !3624
  %this1 = load %"class.xercesc_2_7::QName"*, %"class.xercesc_2_7::QName"** %this.addr, align 8
  %fLocalPart = getelementptr inbounds %"class.xercesc_2_7::QName", %"class.xercesc_2_7::QName"* %this1, i32 0, i32 6, !dbg !3625
  %0 = load i16*, i16** %fLocalPart, align 8, !dbg !3625
  ret i16* %0, !dbg !3626
}

; Function Attrs: noinline nounwind uwtable
define linkonce_odr dso_local i32 @_ZNK11xercesc_2_75QName6getURIEv(%"class.xercesc_2_7::QName"* %this) #1 comdat align 2 !dbg !3627 {
entry:
  %this.addr = alloca %"class.xercesc_2_7::QName"*, align 8
  store %"class.xercesc_2_7::QName"* %this, %"class.xercesc_2_7::QName"** %this.addr, align 8
  call void @llvm.dbg.declare(metadata %"class.xercesc_2_7::QName"** %this.addr, metadata !3632, metadata !DIExpression()), !dbg !3633
  %this1 = load %"class.xercesc_2_7::QName"*, %"class.xercesc_2_7::QName"** %this.addr, align 8
  %fURIId = getelementptr inbounds %"class.xercesc_2_7::QName", %"class.xercesc_2_7::QName"* %this1, i32 0, i32 4, !dbg !3634
  %0 = load i32, i32* %fURIId, align 4, !dbg !3634
  ret i32 %0, !dbg !3635
}

; Function Attrs: noinline uwtable
define linkonce_odr dso_local void @_ZN11xercesc_2_716SchemaAttDefList9addAttDefEPNS_12SchemaAttDefE(%"class.xercesc_2_7::SchemaAttDefList"* %this, %"class.xercesc_2_7::SchemaAttDef"* %toAdd) #6 comdat align 2 !dbg !3636 {
entry:
  %this.addr = alloca %"class.xercesc_2_7::SchemaAttDefList"*, align 8
  %toAdd.addr = alloca %"class.xercesc_2_7::SchemaAttDef"*, align 8
  %newArray = alloca %"class.xercesc_2_7::SchemaAttDef"**, align 8
  store %"class.xercesc_2_7::SchemaAttDefList"* %this, %"class.xercesc_2_7::SchemaAttDefList"** %this.addr, align 8
  call void @llvm.dbg.declare(metadata %"class.xercesc_2_7::SchemaAttDefList"** %this.addr, metadata !3641, metadata !DIExpression()), !dbg !3642
  store %"class.xercesc_2_7::SchemaAttDef"* %toAdd, %"class.xercesc_2_7::SchemaAttDef"** %toAdd.addr, align 8
  call void @llvm.dbg.declare(metadata %"class.xercesc_2_7::SchemaAttDef"** %toAdd.addr, metadata !3643, metadata !DIExpression()), !dbg !3644
  %this1 = load %"class.xercesc_2_7::SchemaAttDefList"*, %"class.xercesc_2_7::SchemaAttDefList"** %this.addr, align 8
  %fCount = getelementptr inbounds %"class.xercesc_2_7::SchemaAttDefList", %"class.xercesc_2_7::SchemaAttDefList"* %this1, i32 0, i32 5, !dbg !3645
  %0 = load i32, i32* %fCount, align 4, !dbg !3645
  %fSize = getelementptr inbounds %"class.xercesc_2_7::SchemaAttDefList", %"class.xercesc_2_7::SchemaAttDefList"* %this1, i32 0, i32 4, !dbg !3647
  %1 = load i32, i32* %fSize, align 8, !dbg !3647
  %cmp = icmp eq i32 %0, %1, !dbg !3648
  br i1 %cmp, label %if.then, label %if.end, !dbg !3649

if.then:                                          ; preds = %entry
  %fSize2 = getelementptr inbounds %"class.xercesc_2_7::SchemaAttDefList", %"class.xercesc_2_7::SchemaAttDefList"* %this1, i32 0, i32 4, !dbg !3650
  %2 = load i32, i32* %fSize2, align 8, !dbg !3652
  %shl = shl i32 %2, 1, !dbg !3652
  store i32 %shl, i32* %fSize2, align 8, !dbg !3652
  call void @llvm.dbg.declare(metadata %"class.xercesc_2_7::SchemaAttDef"*** %newArray, metadata !3653, metadata !DIExpression()), !dbg !3654
  %3 = bitcast %"class.xercesc_2_7::SchemaAttDefList"* %this1 to %"class.xercesc_2_7::XMLAttDefList"*, !dbg !3655
  %call = call %"class.xercesc_2_7::MemoryManager"* @_ZNK11xercesc_2_713XMLAttDefList16getMemoryManagerEv(%"class.xercesc_2_7::XMLAttDefList"* %3), !dbg !3655
  %fSize3 = getelementptr inbounds %"class.xercesc_2_7::SchemaAttDefList", %"class.xercesc_2_7::SchemaAttDefList"* %this1, i32 0, i32 4, !dbg !3656
  %4 = load i32, i32* %fSize3, align 8, !dbg !3656
  %conv = zext i32 %4 to i64, !dbg !3656
  %mul = mul i64 8, %conv, !dbg !3657
  %5 = bitcast %"class.xercesc_2_7::MemoryManager"* %call to i8* (%"class.xercesc_2_7::MemoryManager"*, i64)***, !dbg !3658
  %vtable = load i8* (%"class.xercesc_2_7::MemoryManager"*, i64)**, i8* (%"class.xercesc_2_7::MemoryManager"*, i64)*** %5, align 8, !dbg !3658
  %vfn = getelementptr inbounds i8* (%"class.xercesc_2_7::MemoryManager"*, i64)*, i8* (%"class.xercesc_2_7::MemoryManager"*, i64)** %vtable, i64 2, !dbg !3658
  %6 = load i8* (%"class.xercesc_2_7::MemoryManager"*, i64)*, i8* (%"class.xercesc_2_7::MemoryManager"*, i64)** %vfn, align 8, !dbg !3658
  %call4 = call i8* %6(%"class.xercesc_2_7::MemoryManager"* %call, i64 %mul), !dbg !3658
  %7 = bitcast i8* %call4 to %"class.xercesc_2_7::SchemaAttDef"**, !dbg !3659
  store %"class.xercesc_2_7::SchemaAttDef"** %7, %"class.xercesc_2_7::SchemaAttDef"*** %newArray, align 8, !dbg !3654
  %8 = load %"class.xercesc_2_7::SchemaAttDef"**, %"class.xercesc_2_7::SchemaAttDef"*** %newArray, align 8, !dbg !3660
  %9 = bitcast %"class.xercesc_2_7::SchemaAttDef"** %8 to i8*, !dbg !3661
  %fArray = getelementptr inbounds %"class.xercesc_2_7::SchemaAttDefList", %"class.xercesc_2_7::SchemaAttDefList"* %this1, i32 0, i32 3, !dbg !3662
  %10 = load %"class.xercesc_2_7::SchemaAttDef"**, %"class.xercesc_2_7::SchemaAttDef"*** %fArray, align 8, !dbg !3662
  %11 = bitcast %"class.xercesc_2_7::SchemaAttDef"** %10 to i8*, !dbg !3661
  %fCount5 = getelementptr inbounds %"class.xercesc_2_7::SchemaAttDefList", %"class.xercesc_2_7::SchemaAttDefList"* %this1, i32 0, i32 5, !dbg !3663
  %12 = load i32, i32* %fCount5, align 4, !dbg !3663
  %conv6 = zext i32 %12 to i64, !dbg !3663
  %mul7 = mul i64 %conv6, 8, !dbg !3664
  call void @llvm.memcpy.p0i8.p0i8.i64(i8* align 8 %9, i8* align 8 %11, i64 %mul7, i1 false), !dbg !3661
  %13 = bitcast %"class.xercesc_2_7::SchemaAttDefList"* %this1 to %"class.xercesc_2_7::XMLAttDefList"*, !dbg !3665
  %call8 = call %"class.xercesc_2_7::MemoryManager"* @_ZNK11xercesc_2_713XMLAttDefList16getMemoryManagerEv(%"class.xercesc_2_7::XMLAttDefList"* %13), !dbg !3665
  %fArray9 = getelementptr inbounds %"class.xercesc_2_7::SchemaAttDefList", %"class.xercesc_2_7::SchemaAttDefList"* %this1, i32 0, i32 3, !dbg !3666
  %14 = load %"class.xercesc_2_7::SchemaAttDef"**, %"class.xercesc_2_7::SchemaAttDef"*** %fArray9, align 8, !dbg !3666
  %15 = bitcast %"class.xercesc_2_7::SchemaAttDef"** %14 to i8*, !dbg !3666
  %16 = bitcast %"class.xercesc_2_7::MemoryManager"* %call8 to void (%"class.xercesc_2_7::MemoryManager"*, i8*)***, !dbg !3667
  %vtable10 = load void (%"class.xercesc_2_7::MemoryManager"*, i8*)**, void (%"class.xercesc_2_7::MemoryManager"*, i8*)*** %16, align 8, !dbg !3667
  %vfn11 = getelementptr inbounds void (%"class.xercesc_2_7::MemoryManager"*, i8*)*, void (%"class.xercesc_2_7::MemoryManager"*, i8*)** %vtable10, i64 3, !dbg !3667
  %17 = load void (%"class.xercesc_2_7::MemoryManager"*, i8*)*, void (%"class.xercesc_2_7::MemoryManager"*, i8*)** %vfn11, align 8, !dbg !3667
  call void %17(%"class.xercesc_2_7::MemoryManager"* %call8, i8* %15), !dbg !3667
  %18 = load %"class.xercesc_2_7::SchemaAttDef"**, %"class.xercesc_2_7::SchemaAttDef"*** %newArray, align 8, !dbg !3668
  %fArray12 = getelementptr inbounds %"class.xercesc_2_7::SchemaAttDefList", %"class.xercesc_2_7::SchemaAttDefList"* %this1, i32 0, i32 3, !dbg !3669
  store %"class.xercesc_2_7::SchemaAttDef"** %18, %"class.xercesc_2_7::SchemaAttDef"*** %fArray12, align 8, !dbg !3670
  br label %if.end, !dbg !3671

if.end:                                           ; preds = %if.then, %entry
  %19 = load %"class.xercesc_2_7::SchemaAttDef"*, %"class.xercesc_2_7::SchemaAttDef"** %toAdd.addr, align 8, !dbg !3672
  %fArray13 = getelementptr inbounds %"class.xercesc_2_7::SchemaAttDefList", %"class.xercesc_2_7::SchemaAttDefList"* %this1, i32 0, i32 3, !dbg !3673
  %20 = load %"class.xercesc_2_7::SchemaAttDef"**, %"class.xercesc_2_7::SchemaAttDef"*** %fArray13, align 8, !dbg !3673
  %fCount14 = getelementptr inbounds %"class.xercesc_2_7::SchemaAttDefList", %"class.xercesc_2_7::SchemaAttDefList"* %this1, i32 0, i32 5, !dbg !3674
  %21 = load i32, i32* %fCount14, align 4, !dbg !3675
  %inc = add i32 %21, 1, !dbg !3675
  store i32 %inc, i32* %fCount14, align 4, !dbg !3675
  %idxprom = zext i32 %21 to i64, !dbg !3673
  %arrayidx = getelementptr inbounds %"class.xercesc_2_7::SchemaAttDef"*, %"class.xercesc_2_7::SchemaAttDef"** %20, i64 %idxprom, !dbg !3673
  store %"class.xercesc_2_7::SchemaAttDef"* %19, %"class.xercesc_2_7::SchemaAttDef"** %arrayidx, align 8, !dbg !3676
  ret void, !dbg !3677
}

; Function Attrs: noinline uwtable
define linkonce_odr dso_local void @_ZN11xercesc_2_715ComplexTypeInfo15setContentModelEPNS_15XMLContentModelE(%"class.xercesc_2_7::ComplexTypeInfo"* %this, %"class.xercesc_2_7::XMLContentModel"* %newModelToAdopt) #6 comdat align 2 !dbg !3678 {
entry:
  %this.addr = alloca %"class.xercesc_2_7::ComplexTypeInfo"*, align 8
  %newModelToAdopt.addr = alloca %"class.xercesc_2_7::XMLContentModel"*, align 8
  store %"class.xercesc_2_7::ComplexTypeInfo"* %this, %"class.xercesc_2_7::ComplexTypeInfo"** %this.addr, align 8
  call void @llvm.dbg.declare(metadata %"class.xercesc_2_7::ComplexTypeInfo"** %this.addr, metadata !3679, metadata !DIExpression()), !dbg !3680
  store %"class.xercesc_2_7::XMLContentModel"* %newModelToAdopt, %"class.xercesc_2_7::XMLContentModel"** %newModelToAdopt.addr, align 8
  call void @llvm.dbg.declare(metadata %"class.xercesc_2_7::XMLContentModel"** %newModelToAdopt.addr, metadata !3681, metadata !DIExpression()), !dbg !3682
  %this1 = load %"class.xercesc_2_7::ComplexTypeInfo"*, %"class.xercesc_2_7::ComplexTypeInfo"** %this.addr, align 8
  %fContentModel = getelementptr inbounds %"class.xercesc_2_7::ComplexTypeInfo", %"class.xercesc_2_7::ComplexTypeInfo"* %this1, i32 0, i32 25, !dbg !3683
  %0 = load %"class.xercesc_2_7::XMLContentModel"*, %"class.xercesc_2_7::XMLContentModel"** %fContentModel, align 8, !dbg !3683
  %isnull = icmp eq %"class.xercesc_2_7::XMLContentModel"* %0, null, !dbg !3684
  br i1 %isnull, label %delete.end, label %delete.notnull, !dbg !3684

delete.notnull:                                   ; preds = %entry
  %1 = bitcast %"class.xercesc_2_7::XMLContentModel"* %0 to void (%"class.xercesc_2_7::XMLContentModel"*)***, !dbg !3684
  %vtable = load void (%"class.xercesc_2_7::XMLContentModel"*)**, void (%"class.xercesc_2_7::XMLContentModel"*)*** %1, align 8, !dbg !3684
  %vfn = getelementptr inbounds void (%"class.xercesc_2_7::XMLContentModel"*)*, void (%"class.xercesc_2_7::XMLContentModel"*)** %vtable, i64 1, !dbg !3684
  %2 = load void (%"class.xercesc_2_7::XMLContentModel"*)*, void (%"class.xercesc_2_7::XMLContentModel"*)** %vfn, align 8, !dbg !3684
  call void %2(%"class.xercesc_2_7::XMLContentModel"* %0) #9, !dbg !3684
  br label %delete.end, !dbg !3684

delete.end:                                       ; preds = %delete.notnull, %entry
  %3 = load %"class.xercesc_2_7::XMLContentModel"*, %"class.xercesc_2_7::XMLContentModel"** %newModelToAdopt.addr, align 8, !dbg !3685
  %fContentModel2 = getelementptr inbounds %"class.xercesc_2_7::ComplexTypeInfo", %"class.xercesc_2_7::ComplexTypeInfo"* %this1, i32 0, i32 25, !dbg !3686
  store %"class.xercesc_2_7::XMLContentModel"* %3, %"class.xercesc_2_7::XMLContentModel"** %fContentModel2, align 8, !dbg !3687
  %fFormattedModel = getelementptr inbounds %"class.xercesc_2_7::ComplexTypeInfo", %"class.xercesc_2_7::ComplexTypeInfo"* %this1, i32 0, i32 26, !dbg !3688
  %4 = load i16*, i16** %fFormattedModel, align 8, !dbg !3688
  %tobool = icmp ne i16* %4, null, !dbg !3688
  br i1 %tobool, label %if.then, label %if.end, !dbg !3690

if.then:                                          ; preds = %delete.end
  %fMemoryManager = getelementptr inbounds %"class.xercesc_2_7::ComplexTypeInfo", %"class.xercesc_2_7::ComplexTypeInfo"* %this1, i32 0, i32 29, !dbg !3691
  %5 = load %"class.xercesc_2_7::MemoryManager"*, %"class.xercesc_2_7::MemoryManager"** %fMemoryManager, align 8, !dbg !3691
  %fFormattedModel3 = getelementptr inbounds %"class.xercesc_2_7::ComplexTypeInfo", %"class.xercesc_2_7::ComplexTypeInfo"* %this1, i32 0, i32 26, !dbg !3693
  %6 = load i16*, i16** %fFormattedModel3, align 8, !dbg !3693
  %7 = bitcast i16* %6 to i8*, !dbg !3693
  %8 = bitcast %"class.xercesc_2_7::MemoryManager"* %5 to void (%"class.xercesc_2_7::MemoryManager"*, i8*)***, !dbg !3694
  %vtable4 = load void (%"class.xercesc_2_7::MemoryManager"*, i8*)**, void (%"class.xercesc_2_7::MemoryManager"*, i8*)*** %8, align 8, !dbg !3694
  %vfn5 = getelementptr inbounds void (%"class.xercesc_2_7::MemoryManager"*, i8*)*, void (%"class.xercesc_2_7::MemoryManager"*, i8*)** %vtable4, i64 3, !dbg !3694
  %9 = load void (%"class.xercesc_2_7::MemoryManager"*, i8*)*, void (%"class.xercesc_2_7::MemoryManager"*, i8*)** %vfn5, align 8, !dbg !3694
  call void %9(%"class.xercesc_2_7::MemoryManager"* %5, i8* %7), !dbg !3694
  %fFormattedModel6 = getelementptr inbounds %"class.xercesc_2_7::ComplexTypeInfo", %"class.xercesc_2_7::ComplexTypeInfo"* %this1, i32 0, i32 26, !dbg !3695
  store i16* null, i16** %fFormattedModel6, align 8, !dbg !3696
  br label %if.end, !dbg !3697

if.end:                                           ; preds = %if.then, %delete.end
  ret void, !dbg !3698
}

; Function Attrs: noinline nounwind uwtable
define dso_local void @_ZN11xercesc_2_715ComplexTypeInfo10setLocatorEPNS_10XSDLocatorE(%"class.xercesc_2_7::ComplexTypeInfo"* %this, %"class.xercesc_2_7::XSDLocator"* %aLocator) #1 align 2 !dbg !3699 {
entry:
  %this.addr = alloca %"class.xercesc_2_7::ComplexTypeInfo"*, align 8
  %aLocator.addr = alloca %"class.xercesc_2_7::XSDLocator"*, align 8
  store %"class.xercesc_2_7::ComplexTypeInfo"* %this, %"class.xercesc_2_7::ComplexTypeInfo"** %this.addr, align 8
  call void @llvm.dbg.declare(metadata %"class.xercesc_2_7::ComplexTypeInfo"** %this.addr, metadata !3700, metadata !DIExpression()), !dbg !3701
  store %"class.xercesc_2_7::XSDLocator"* %aLocator, %"class.xercesc_2_7::XSDLocator"** %aLocator.addr, align 8
  call void @llvm.dbg.declare(metadata %"class.xercesc_2_7::XSDLocator"** %aLocator.addr, metadata !3702, metadata !DIExpression()), !dbg !3703
  %this1 = load %"class.xercesc_2_7::ComplexTypeInfo"*, %"class.xercesc_2_7::ComplexTypeInfo"** %this.addr, align 8
  %fLocator = getelementptr inbounds %"class.xercesc_2_7::ComplexTypeInfo", %"class.xercesc_2_7::ComplexTypeInfo"* %this1, i32 0, i32 28, !dbg !3704
  %0 = load %"class.xercesc_2_7::XSDLocator"*, %"class.xercesc_2_7::XSDLocator"** %fLocator, align 8, !dbg !3704
  %tobool = icmp ne %"class.xercesc_2_7::XSDLocator"* %0, null, !dbg !3704
  br i1 %tobool, label %if.then, label %if.end, !dbg !3706

if.then:                                          ; preds = %entry
  %fLocator2 = getelementptr inbounds %"class.xercesc_2_7::ComplexTypeInfo", %"class.xercesc_2_7::ComplexTypeInfo"* %this1, i32 0, i32 28, !dbg !3707
  %1 = load %"class.xercesc_2_7::XSDLocator"*, %"class.xercesc_2_7::XSDLocator"** %fLocator2, align 8, !dbg !3707
  %isnull = icmp eq %"class.xercesc_2_7::XSDLocator"* %1, null, !dbg !3708
  br i1 %isnull, label %delete.end, label %delete.notnull, !dbg !3708

delete.notnull:                                   ; preds = %if.then
  %2 = bitcast %"class.xercesc_2_7::XSDLocator"* %1 to void (%"class.xercesc_2_7::XSDLocator"*)***, !dbg !3708
  %vtable = load void (%"class.xercesc_2_7::XSDLocator"*)**, void (%"class.xercesc_2_7::XSDLocator"*)*** %2, align 8, !dbg !3708
  %vfn = getelementptr inbounds void (%"class.xercesc_2_7::XSDLocator"*)*, void (%"class.xercesc_2_7::XSDLocator"*)** %vtable, i64 1, !dbg !3708
  %3 = load void (%"class.xercesc_2_7::XSDLocator"*)*, void (%"class.xercesc_2_7::XSDLocator"*)** %vfn, align 8, !dbg !3708
  call void %3(%"class.xercesc_2_7::XSDLocator"* %1) #9, !dbg !3708
  br label %delete.end, !dbg !3708

delete.end:                                       ; preds = %delete.notnull, %if.then
  br label %if.end, !dbg !3708

if.end:                                           ; preds = %delete.end, %entry
  %4 = load %"class.xercesc_2_7::XSDLocator"*, %"class.xercesc_2_7::XSDLocator"** %aLocator.addr, align 8, !dbg !3709
  %fLocator3 = getelementptr inbounds %"class.xercesc_2_7::ComplexTypeInfo", %"class.xercesc_2_7::ComplexTypeInfo"* %this1, i32 0, i32 28, !dbg !3710
  store %"class.xercesc_2_7::XSDLocator"* %4, %"class.xercesc_2_7::XSDLocator"** %fLocator3, align 8, !dbg !3711
  ret void, !dbg !3712
}

; Function Attrs: noinline nounwind uwtable
define dso_local dereferenceable(16) %"class.xercesc_2_7::XMLAttDefList"* @_ZNK11xercesc_2_715ComplexTypeInfo13getAttDefListEv(%"class.xercesc_2_7::ComplexTypeInfo"* %this) #1 align 2 !dbg !3713 {
entry:
  %this.addr = alloca %"class.xercesc_2_7::ComplexTypeInfo"*, align 8
  store %"class.xercesc_2_7::ComplexTypeInfo"* %this, %"class.xercesc_2_7::ComplexTypeInfo"** %this.addr, align 8
  call void @llvm.dbg.declare(metadata %"class.xercesc_2_7::ComplexTypeInfo"** %this.addr, metadata !3714, metadata !DIExpression()), !dbg !3715
  %this1 = load %"class.xercesc_2_7::ComplexTypeInfo"*, %"class.xercesc_2_7::ComplexTypeInfo"** %this.addr, align 8
  %fAttList = getelementptr inbounds %"class.xercesc_2_7::ComplexTypeInfo", %"class.xercesc_2_7::ComplexTypeInfo"* %this1, i32 0, i32 22, !dbg !3716
  %0 = load %"class.xercesc_2_7::SchemaAttDefList"*, %"class.xercesc_2_7::SchemaAttDefList"** %fAttList, align 8, !dbg !3716
  %1 = bitcast %"class.xercesc_2_7::SchemaAttDefList"* %0 to %"class.xercesc_2_7::XMLAttDefList"*, !dbg !3717
  ret %"class.xercesc_2_7::XMLAttDefList"* %1, !dbg !3718
}

; Function Attrs: noinline uwtable
define dso_local i16* @_ZNK11xercesc_2_715ComplexTypeInfo24getFormattedContentModelEv(%"class.xercesc_2_7::ComplexTypeInfo"* %this) #6 align 2 !dbg !3719 {
entry:
  %this.addr = alloca %"class.xercesc_2_7::ComplexTypeInfo"*, align 8
  store %"class.xercesc_2_7::ComplexTypeInfo"* %this, %"class.xercesc_2_7::ComplexTypeInfo"** %this.addr, align 8
  call void @llvm.dbg.declare(metadata %"class.xercesc_2_7::ComplexTypeInfo"** %this.addr, metadata !3720, metadata !DIExpression()), !dbg !3721
  %this1 = load %"class.xercesc_2_7::ComplexTypeInfo"*, %"class.xercesc_2_7::ComplexTypeInfo"** %this.addr, align 8
  %fFormattedModel = getelementptr inbounds %"class.xercesc_2_7::ComplexTypeInfo", %"class.xercesc_2_7::ComplexTypeInfo"* %this1, i32 0, i32 26, !dbg !3722
  %0 = load i16*, i16** %fFormattedModel, align 8, !dbg !3722
  %tobool = icmp ne i16* %0, null, !dbg !3722
  br i1 %tobool, label %if.end, label %if.then, !dbg !3724

if.then:                                          ; preds = %entry
  %call = call i16* @_ZNK11xercesc_2_715ComplexTypeInfo18formatContentModelEv(%"class.xercesc_2_7::ComplexTypeInfo"* %this1), !dbg !3725
  %fFormattedModel2 = getelementptr inbounds %"class.xercesc_2_7::ComplexTypeInfo", %"class.xercesc_2_7::ComplexTypeInfo"* %this1, i32 0, i32 26, !dbg !3726
  store i16* %call, i16** %fFormattedModel2, align 8, !dbg !3727
  br label %if.end, !dbg !3728

if.end:                                           ; preds = %if.then, %entry
  %fFormattedModel3 = getelementptr inbounds %"class.xercesc_2_7::ComplexTypeInfo", %"class.xercesc_2_7::ComplexTypeInfo"* %this1, i32 0, i32 26, !dbg !3729
  %1 = load i16*, i16** %fFormattedModel3, align 8, !dbg !3729
  ret i16* %1, !dbg !3730
}

; Function Attrs: noinline uwtable
define dso_local i16* @_ZNK11xercesc_2_715ComplexTypeInfo18formatContentModelEv(%"class.xercesc_2_7::ComplexTypeInfo"* %this) #6 align 2 personality i8* bitcast (i32 (...)* @__gxx_personality_v0 to i8*) !dbg !3731 {
entry:
  %this.addr = alloca %"class.xercesc_2_7::ComplexTypeInfo"*, align 8
  %newValue = alloca i16*, align 8
  %specNode = alloca %"class.xercesc_2_7::ContentSpecNode"*, align 8
  %bufFmt = alloca %"class.xercesc_2_7::XMLBuffer", align 8
  %exn.slot = alloca i8*
  %ehselector.slot = alloca i32
  store %"class.xercesc_2_7::ComplexTypeInfo"* %this, %"class.xercesc_2_7::ComplexTypeInfo"** %this.addr, align 8
  call void @llvm.dbg.declare(metadata %"class.xercesc_2_7::ComplexTypeInfo"** %this.addr, metadata !3732, metadata !DIExpression()), !dbg !3733
  %this1 = load %"class.xercesc_2_7::ComplexTypeInfo"*, %"class.xercesc_2_7::ComplexTypeInfo"** %this.addr, align 8
  call void @llvm.dbg.declare(metadata i16** %newValue, metadata !3734, metadata !DIExpression()), !dbg !3735
  store i16* null, i16** %newValue, align 8, !dbg !3735
  %fContentType = getelementptr inbounds %"class.xercesc_2_7::ComplexTypeInfo", %"class.xercesc_2_7::ComplexTypeInfo"* %this1, i32 0, i32 10, !dbg !3736
  %0 = load i32, i32* %fContentType, align 8, !dbg !3736
  %cmp = icmp eq i32 %0, 1, !dbg !3738
  br i1 %cmp, label %if.then, label %if.else, !dbg !3739

if.then:                                          ; preds = %entry
  %fMemoryManager = getelementptr inbounds %"class.xercesc_2_7::ComplexTypeInfo", %"class.xercesc_2_7::ComplexTypeInfo"* %this1, i32 0, i32 29, !dbg !3740
  %1 = load %"class.xercesc_2_7::MemoryManager"*, %"class.xercesc_2_7::MemoryManager"** %fMemoryManager, align 8, !dbg !3740
  %call = call i16* @_ZN11xercesc_2_79XMLString9replicateEPKtPNS_13MemoryManagerE(i16* getelementptr inbounds ([0 x i16], [0 x i16]* @_ZN11xercesc_2_76XMLUni11fgAnyStringE, i64 0, i64 0), %"class.xercesc_2_7::MemoryManager"* %1), !dbg !3742
  store i16* %call, i16** %newValue, align 8, !dbg !3743
  br label %if.end16, !dbg !3744

if.else:                                          ; preds = %entry
  %fContentType2 = getelementptr inbounds %"class.xercesc_2_7::ComplexTypeInfo", %"class.xercesc_2_7::ComplexTypeInfo"* %this1, i32 0, i32 10, !dbg !3745
  %2 = load i32, i32* %fContentType2, align 8, !dbg !3745
  %cmp3 = icmp eq i32 %2, 0, !dbg !3747
  br i1 %cmp3, label %if.then4, label %if.else7, !dbg !3748

if.then4:                                         ; preds = %if.else
  %fMemoryManager5 = getelementptr inbounds %"class.xercesc_2_7::ComplexTypeInfo", %"class.xercesc_2_7::ComplexTypeInfo"* %this1, i32 0, i32 29, !dbg !3749
  %3 = load %"class.xercesc_2_7::MemoryManager"*, %"class.xercesc_2_7::MemoryManager"** %fMemoryManager5, align 8, !dbg !3749
  %call6 = call i16* @_ZN11xercesc_2_79XMLString9replicateEPKtPNS_13MemoryManagerE(i16* getelementptr inbounds ([0 x i16], [0 x i16]* @_ZN11xercesc_2_76XMLUni13fgEmptyStringE, i64 0, i64 0), %"class.xercesc_2_7::MemoryManager"* %3), !dbg !3751
  store i16* %call6, i16** %newValue, align 8, !dbg !3752
  br label %if.end15, !dbg !3753

if.else7:                                         ; preds = %if.else
  call void @llvm.dbg.declare(metadata %"class.xercesc_2_7::ContentSpecNode"** %specNode, metadata !3754, metadata !DIExpression()), !dbg !3756
  %fContentSpec = getelementptr inbounds %"class.xercesc_2_7::ComplexTypeInfo", %"class.xercesc_2_7::ComplexTypeInfo"* %this1, i32 0, i32 20, !dbg !3757
  %4 = load %"class.xercesc_2_7::ContentSpecNode"*, %"class.xercesc_2_7::ContentSpecNode"** %fContentSpec, align 8, !dbg !3757
  store %"class.xercesc_2_7::ContentSpecNode"* %4, %"class.xercesc_2_7::ContentSpecNode"** %specNode, align 8, !dbg !3756
  %5 = load %"class.xercesc_2_7::ContentSpecNode"*, %"class.xercesc_2_7::ContentSpecNode"** %specNode, align 8, !dbg !3758
  %tobool = icmp ne %"class.xercesc_2_7::ContentSpecNode"* %5, null, !dbg !3758
  br i1 %tobool, label %if.then8, label %if.end, !dbg !3760

if.then8:                                         ; preds = %if.else7
  call void @llvm.dbg.declare(metadata %"class.xercesc_2_7::XMLBuffer"* %bufFmt, metadata !3761, metadata !DIExpression()), !dbg !3763
  %fMemoryManager9 = getelementptr inbounds %"class.xercesc_2_7::ComplexTypeInfo", %"class.xercesc_2_7::ComplexTypeInfo"* %this1, i32 0, i32 29, !dbg !3764
  %6 = load %"class.xercesc_2_7::MemoryManager"*, %"class.xercesc_2_7::MemoryManager"** %fMemoryManager9, align 8, !dbg !3764
  call void @_ZN11xercesc_2_79XMLBufferC2EjPNS_13MemoryManagerE(%"class.xercesc_2_7::XMLBuffer"* %bufFmt, i32 1023, %"class.xercesc_2_7::MemoryManager"* %6), !dbg !3763
  %7 = load %"class.xercesc_2_7::ContentSpecNode"*, %"class.xercesc_2_7::ContentSpecNode"** %specNode, align 8, !dbg !3765
  invoke void @_ZNK11xercesc_2_715ContentSpecNode10formatSpecERNS_9XMLBufferE(%"class.xercesc_2_7::ContentSpecNode"* %7, %"class.xercesc_2_7::XMLBuffer"* dereferenceable(40) %bufFmt)
          to label %invoke.cont unwind label %lpad, !dbg !3766

invoke.cont:                                      ; preds = %if.then8
  %call11 = invoke i16* @_ZN11xercesc_2_79XMLBuffer12getRawBufferEv(%"class.xercesc_2_7::XMLBuffer"* %bufFmt)
          to label %invoke.cont10 unwind label %lpad, !dbg !3767

invoke.cont10:                                    ; preds = %invoke.cont
  %fMemoryManager12 = getelementptr inbounds %"class.xercesc_2_7::ComplexTypeInfo", %"class.xercesc_2_7::ComplexTypeInfo"* %this1, i32 0, i32 29, !dbg !3768
  %8 = load %"class.xercesc_2_7::MemoryManager"*, %"class.xercesc_2_7::MemoryManager"** %fMemoryManager12, align 8, !dbg !3768
  %call14 = invoke i16* @_ZN11xercesc_2_79XMLString9replicateEPKtPNS_13MemoryManagerE(i16* %call11, %"class.xercesc_2_7::MemoryManager"* %8)
          to label %invoke.cont13 unwind label %lpad, !dbg !3769

invoke.cont13:                                    ; preds = %invoke.cont10
  store i16* %call14, i16** %newValue, align 8, !dbg !3770
  call void @_ZN11xercesc_2_79XMLBufferD2Ev(%"class.xercesc_2_7::XMLBuffer"* %bufFmt) #9, !dbg !3771
  br label %if.end, !dbg !3772

lpad:                                             ; preds = %invoke.cont10, %invoke.cont, %if.then8
  %9 = landingpad { i8*, i32 }
          cleanup, !dbg !3773
  %10 = extractvalue { i8*, i32 } %9, 0, !dbg !3773
  store i8* %10, i8** %exn.slot, align 8, !dbg !3773
  %11 = extractvalue { i8*, i32 } %9, 1, !dbg !3773
  store i32 %11, i32* %ehselector.slot, align 4, !dbg !3773
  call void @_ZN11xercesc_2_79XMLBufferD2Ev(%"class.xercesc_2_7::XMLBuffer"* %bufFmt) #9, !dbg !3771
  br label %eh.resume, !dbg !3771

if.end:                                           ; preds = %invoke.cont13, %if.else7
  br label %if.end15

if.end15:                                         ; preds = %if.end, %if.then4
  br label %if.end16

if.end16:                                         ; preds = %if.end15, %if.then
  %12 = load i16*, i16** %newValue, align 8, !dbg !3774
  ret i16* %12, !dbg !3775

eh.resume:                                        ; preds = %lpad
  %exn = load i8*, i8** %exn.slot, align 8, !dbg !3771
  %sel = load i32, i32* %ehselector.slot, align 4, !dbg !3771
  %lpad.val = insertvalue { i8*, i32 } undef, i8* %exn, 0, !dbg !3771
  %lpad.val17 = insertvalue { i8*, i32 } %lpad.val, i32 %sel, 1, !dbg !3771
  resume { i8*, i32 } %lpad.val17, !dbg !3771
}

; Function Attrs: noinline uwtable
define dso_local %"class.xercesc_2_7::XMLAttDef"* @_ZNK11xercesc_2_715ComplexTypeInfo8findAttrEPKtjS2_S2_NS_14XMLElementDecl10LookupOptsERb(%"class.xercesc_2_7::ComplexTypeInfo"* %this, i16* %0, i32 %uriId, i16* %baseName, i16* %prefix, i32 %options, i8* dereferenceable(1) %wasAdded) #6 align 2 personality i8* bitcast (i32 (...)* @__gxx_personality_v0 to i8*) !dbg !3776 {
entry:
  %this.addr = alloca %"class.xercesc_2_7::ComplexTypeInfo"*, align 8
  %.addr = alloca i16*, align 8
  %uriId.addr = alloca i32, align 4
  %baseName.addr = alloca i16*, align 8
  %prefix.addr = alloca i16*, align 8
  %options.addr = alloca i32, align 4
  %wasAdded.addr = alloca i8*, align 8
  %retVal = alloca %"class.xercesc_2_7::SchemaAttDef"*, align 8
  %exn.slot = alloca i8*
  %ehselector.slot = alloca i32
  store %"class.xercesc_2_7::ComplexTypeInfo"* %this, %"class.xercesc_2_7::ComplexTypeInfo"** %this.addr, align 8
  call void @llvm.dbg.declare(metadata %"class.xercesc_2_7::ComplexTypeInfo"** %this.addr, metadata !3777, metadata !DIExpression()), !dbg !3778
  store i16* %0, i16** %.addr, align 8
  call void @llvm.dbg.declare(metadata i16** %.addr, metadata !3779, metadata !DIExpression()), !dbg !3780
  store i32 %uriId, i32* %uriId.addr, align 4
  call void @llvm.dbg.declare(metadata i32* %uriId.addr, metadata !3781, metadata !DIExpression()), !dbg !3782
  store i16* %baseName, i16** %baseName.addr, align 8
  call void @llvm.dbg.declare(metadata i16** %baseName.addr, metadata !3783, metadata !DIExpression()), !dbg !3784
  store i16* %prefix, i16** %prefix.addr, align 8
  call void @llvm.dbg.declare(metadata i16** %prefix.addr, metadata !3785, metadata !DIExpression()), !dbg !3786
  store i32 %options, i32* %options.addr, align 4
  call void @llvm.dbg.declare(metadata i32* %options.addr, metadata !3787, metadata !DIExpression()), !dbg !3788
  store i8* %wasAdded, i8** %wasAdded.addr, align 8
  call void @llvm.dbg.declare(metadata i8** %wasAdded.addr, metadata !3789, metadata !DIExpression()), !dbg !3790
  %this1 = load %"class.xercesc_2_7::ComplexTypeInfo"*, %"class.xercesc_2_7::ComplexTypeInfo"** %this.addr, align 8
  call void @llvm.dbg.declare(metadata %"class.xercesc_2_7::SchemaAttDef"** %retVal, metadata !3791, metadata !DIExpression()), !dbg !3792
  %fAttDefs = getelementptr inbounds %"class.xercesc_2_7::ComplexTypeInfo", %"class.xercesc_2_7::ComplexTypeInfo"* %this1, i32 0, i32 24, !dbg !3793
  %1 = load %"class.xercesc_2_7::RefHash2KeysTableOf"*, %"class.xercesc_2_7::RefHash2KeysTableOf"** %fAttDefs, align 8, !dbg !3793
  %2 = load i16*, i16** %baseName.addr, align 8, !dbg !3794
  %3 = bitcast i16* %2 to i8*, !dbg !3794
  %4 = load i32, i32* %uriId.addr, align 4, !dbg !3795
  %call = call %"class.xercesc_2_7::SchemaAttDef"* @_ZN11xercesc_2_719RefHash2KeysTableOfINS_12SchemaAttDefEE3getEPKvi(%"class.xercesc_2_7::RefHash2KeysTableOf"* %1, i8* %3, i32 %4), !dbg !3796
  store %"class.xercesc_2_7::SchemaAttDef"* %call, %"class.xercesc_2_7::SchemaAttDef"** %retVal, align 8, !dbg !3792
  %5 = load %"class.xercesc_2_7::SchemaAttDef"*, %"class.xercesc_2_7::SchemaAttDef"** %retVal, align 8, !dbg !3797
  %tobool = icmp ne %"class.xercesc_2_7::SchemaAttDef"* %5, null, !dbg !3797
  br i1 %tobool, label %if.else, label %land.lhs.true, !dbg !3799

land.lhs.true:                                    ; preds = %entry
  %6 = load i32, i32* %options.addr, align 4, !dbg !3800
  %cmp = icmp eq i32 %6, 0, !dbg !3801
  br i1 %cmp, label %if.then, label %if.else, !dbg !3802

if.then:                                          ; preds = %land.lhs.true
  %fMemoryManager = getelementptr inbounds %"class.xercesc_2_7::ComplexTypeInfo", %"class.xercesc_2_7::ComplexTypeInfo"* %this1, i32 0, i32 29, !dbg !3803
  %7 = load %"class.xercesc_2_7::MemoryManager"*, %"class.xercesc_2_7::MemoryManager"** %fMemoryManager, align 8, !dbg !3803
  %call2 = call i8* @_ZN11xercesc_2_77XMemorynwEmPNS_13MemoryManagerE(i64 120, %"class.xercesc_2_7::MemoryManager"* %7), !dbg !3805
  %8 = bitcast i8* %call2 to %"class.xercesc_2_7::SchemaAttDef"*, !dbg !3805
  %9 = load i16*, i16** %prefix.addr, align 8, !dbg !3806
  %10 = load i16*, i16** %baseName.addr, align 8, !dbg !3807
  %11 = load i32, i32* %uriId.addr, align 4, !dbg !3808
  %fMemoryManager3 = getelementptr inbounds %"class.xercesc_2_7::ComplexTypeInfo", %"class.xercesc_2_7::ComplexTypeInfo"* %this1, i32 0, i32 29, !dbg !3809
  %12 = load %"class.xercesc_2_7::MemoryManager"*, %"class.xercesc_2_7::MemoryManager"** %fMemoryManager3, align 8, !dbg !3809
  invoke void @_ZN11xercesc_2_712SchemaAttDefC1EPKtS2_iNS_9XMLAttDef8AttTypesENS3_11DefAttTypesEPNS_13MemoryManagerE(%"class.xercesc_2_7::SchemaAttDef"* %8, i16* %9, i16* %10, i32 %11, i32 0, i32 4, %"class.xercesc_2_7::MemoryManager"* %12)
          to label %invoke.cont unwind label %lpad, !dbg !3810

invoke.cont:                                      ; preds = %if.then
  store %"class.xercesc_2_7::SchemaAttDef"* %8, %"class.xercesc_2_7::SchemaAttDef"** %retVal, align 8, !dbg !3811
  %13 = load %"class.xercesc_2_7::SchemaAttDef"*, %"class.xercesc_2_7::SchemaAttDef"** %retVal, align 8, !dbg !3812
  %call4 = call i32 @_ZNK11xercesc_2_715ComplexTypeInfo12getElementIdEv(%"class.xercesc_2_7::ComplexTypeInfo"* %this1), !dbg !3813
  call void @_ZN11xercesc_2_712SchemaAttDef9setElemIdEj(%"class.xercesc_2_7::SchemaAttDef"* %13, i32 %call4), !dbg !3814
  %fAttDefs5 = getelementptr inbounds %"class.xercesc_2_7::ComplexTypeInfo", %"class.xercesc_2_7::ComplexTypeInfo"* %this1, i32 0, i32 24, !dbg !3815
  %14 = load %"class.xercesc_2_7::RefHash2KeysTableOf"*, %"class.xercesc_2_7::RefHash2KeysTableOf"** %fAttDefs5, align 8, !dbg !3815
  %15 = load %"class.xercesc_2_7::SchemaAttDef"*, %"class.xercesc_2_7::SchemaAttDef"** %retVal, align 8, !dbg !3816
  %call6 = call %"class.xercesc_2_7::QName"* @_ZNK11xercesc_2_712SchemaAttDef10getAttNameEv(%"class.xercesc_2_7::SchemaAttDef"* %15), !dbg !3817
