; ModuleID = 'GeneralAttributeCheck.cpp'
source_filename = "GeneralAttributeCheck.cpp"
target datalayout = "e-m:e-p270:32:32-p271:32:32-p272:64:64-i64:64-f80:128-n8:16:32:64-S128"
target triple = "x86_64-unknown-linux-gnu"

%"class.xercesc_2_7::XMLRegisterCleanup" = type { void ()*, %"class.xercesc_2_7::XMLRegisterCleanup"*, %"class.xercesc_2_7::XMLRegisterCleanup"* }
%"class.xercesc_2_7::ValueHashTableOf" = type { %"class.xercesc_2_7::MemoryManager"*, %"struct.xercesc_2_7::ValueHashTableBucketElem"**, i32, %"class.xercesc_2_7::HashBase"* }
%"class.xercesc_2_7::MemoryManager" = type { i32 (...)** }
%"struct.xercesc_2_7::ValueHashTableBucketElem" = type { i16, %"struct.xercesc_2_7::ValueHashTableBucketElem"*, i8* }
%"class.xercesc_2_7::HashBase" = type { i32 (...)** }
%"class.xercesc_2_7::DatatypeValidator" = type { %"class.xercesc_2_7::XSerializable", i8, i8, i8, i8, i16, i32, i32, i32, i32, i32, %"class.xercesc_2_7::DatatypeValidator"*, %"class.xercesc_2_7::RefHashTableOf"*, i16*, %"class.xercesc_2_7::RegularExpression"*, i16*, i16*, i16*, %"class.xercesc_2_7::MemoryManager"* }
%"class.xercesc_2_7::XSerializable" = type { i32 (...)** }
%"class.xercesc_2_7::RefHashTableOf" = type opaque
%"class.xercesc_2_7::RegularExpression" = type { i8, i8, i32, i32, i32, i32, %"class.xercesc_2_7::BMPattern"*, i16*, i16*, %"class.xercesc_2_7::Op"*, %"class.xercesc_2_7::Token"*, %"class.xercesc_2_7::RangeToken"*, %"class.xercesc_2_7::OpFactory", %"class.xercesc_2_7::TokenFactory"*, %"class.xercesc_2_7::MemoryManager"* }
%"class.xercesc_2_7::BMPattern" = type { i8, i32, i32*, i16*, i16*, %"class.xercesc_2_7::MemoryManager"* }
%"class.xercesc_2_7::Op" = type { i32 (...)**, %"class.xercesc_2_7::MemoryManager"*, i16, %"class.xercesc_2_7::Op"* }
%"class.xercesc_2_7::Token" = type { i32 (...)**, i16, %"class.xercesc_2_7::MemoryManager"* }
%"class.xercesc_2_7::RangeToken" = type opaque
%"class.xercesc_2_7::OpFactory" = type { %"class.xercesc_2_7::RefVectorOf"*, %"class.xercesc_2_7::MemoryManager"* }
%"class.xercesc_2_7::RefVectorOf" = type { %"class.xercesc_2_7::BaseRefVectorOf" }
%"class.xercesc_2_7::BaseRefVectorOf" = type { i32 (...)**, i8, i32, i32, %"class.xercesc_2_7::Op"**, %"class.xercesc_2_7::MemoryManager"* }
%"class.xercesc_2_7::TokenFactory" = type { %"class.xercesc_2_7::RefVectorOf.0"*, %"class.xercesc_2_7::Token"*, %"class.xercesc_2_7::Token"*, %"class.xercesc_2_7::Token"*, %"class.xercesc_2_7::Token"*, %"class.xercesc_2_7::Token"*, %"class.xercesc_2_7::Token"*, %"class.xercesc_2_7::Token"*, %"class.xercesc_2_7::Token"*, %"class.xercesc_2_7::Token"*, %"class.xercesc_2_7::Token"*, %"class.xercesc_2_7::Token"*, %"class.xercesc_2_7::Token"*, %"class.xercesc_2_7::Token"*, %"class.xercesc_2_7::Token"*, %"class.xercesc_2_7::MemoryManager"* }
%"class.xercesc_2_7::RefVectorOf.0" = type opaque
%"class.xercesc_2_7::XMLMutex" = type { i8* }
%"class.xercesc_2_7::RefHashTableOf.2" = type { %"class.xercesc_2_7::MemoryManager"*, i8, %"struct.xercesc_2_7::RefHashTableBucketElem"**, i32, i32, i32, %"class.xercesc_2_7::HashBase"* }
%"struct.xercesc_2_7::RefHashTableBucketElem" = type { %"class.xercesc_2_7::DatatypeValidator"*, %"struct.xercesc_2_7::RefHashTableBucketElem"*, i8* }
%"class.xercesc_2_7::GeneralAttributeCheck" = type { %"class.xercesc_2_7::MemoryManager"*, %"class.xercesc_2_7::ValidationContext"*, %"class.xercesc_2_7::IDDatatypeValidator" }
%"class.xercesc_2_7::ValidationContext" = type { i32 (...)**, %"class.xercesc_2_7::MemoryManager"* }
%"class.xercesc_2_7::IDDatatypeValidator" = type { %"class.xercesc_2_7::StringDatatypeValidator" }
%"class.xercesc_2_7::StringDatatypeValidator" = type { %"class.xercesc_2_7::AbstractStringValidator" }
%"class.xercesc_2_7::AbstractStringValidator" = type { %"class.xercesc_2_7::DatatypeValidator", i32, i32, i32, i8, %"class.xercesc_2_7::RefArrayVectorOf"* }
%"class.xercesc_2_7::RefArrayVectorOf" = type { %"class.xercesc_2_7::BaseRefVectorOf.1" }
%"class.xercesc_2_7::BaseRefVectorOf.1" = type { i32 (...)**, i8, i32, i32, i16**, %"class.xercesc_2_7::MemoryManager"* }
%"class.xercesc_2_7::XMLDeleter" = type { i32 (...)** }
%"class.xercesc_2_7::XMLRefInfo" = type { %"class.xercesc_2_7::XSerializable", i8, i8, i16*, %"class.xercesc_2_7::MemoryManager"* }
%"class.xercesc_2_7::XMLAttDefList" = type { %"class.xercesc_2_7::XSerializable", %"class.xercesc_2_7::MemoryManager"* }
%"class.xercesc_2_7::ContentSpecNode" = type { %"class.xercesc_2_7::XSerializable", %"class.xercesc_2_7::MemoryManager"*, %"class.xercesc_2_7::QName"*, %"class.xercesc_2_7::XMLElementDecl"*, %"class.xercesc_2_7::ContentSpecNode"*, %"class.xercesc_2_7::ContentSpecNode"*, i32, i8, i8, i32, i32 }
%"class.xercesc_2_7::QName" = type { %"class.xercesc_2_7::XSerializable", i32, i32, i32, i32, i16*, i16*, i16*, %"class.xercesc_2_7::MemoryManager"* }
%"class.xercesc_2_7::XMLElementDecl" = type <{ %"class.xercesc_2_7::XSerializable", %"class.xercesc_2_7::MemoryManager"*, %"class.xercesc_2_7::QName"*, i32, i32, i8, [7 x i8] }>
%"class.xercesc_2_7::XMemory" = type { i8 }
%"class.xercesc_2_7::XMLMutexLock" = type { %"class.xercesc_2_7::XMLMutex"* }
%"class.xercesc_2_7::DatatypeValidatorFactory" = type { %"class.xercesc_2_7::XSerializable", %"class.xercesc_2_7::RefHashTableOf.2"*, %"class.xercesc_2_7::MemoryManager"* }
%"class.xercesc_2_7::HashXMLCh" = type { %"class.xercesc_2_7::HashBase" }
%"class.xercesc_2_7::DOMElement" = type { %"class.xercesc_2_7::DOMNode" }
%"class.xercesc_2_7::DOMNode" = type { i32 (...)** }
%"class.xercesc_2_7::TraverseSchema" = type { i8, i32, i32, i32, i32, i32, i32, i16*, %"class.xercesc_2_7::DatatypeValidatorFactory"*, %"class.xercesc_2_7::GrammarResolver"*, %"class.xercesc_2_7::SchemaGrammar"*, %"class.xercesc_2_7::XMLEntityHandler"*, %"class.xercesc_2_7::XMLErrorReporter"*, %"class.xercesc_2_7::XMLStringPool"*, %"class.xercesc_2_7::XMLStringPool"*, %"class.xercesc_2_7::XMLBuffer", %"class.xercesc_2_7::XMLScanner"*, %"class.xercesc_2_7::NamespaceScope"*, %"class.xercesc_2_7::RefHashTableOf.9"*, %"class.xercesc_2_7::RefHashTableOf.10"*, %"class.xercesc_2_7::RefHashTableOf.11"*, %"class.xercesc_2_7::RefHashTableOf.12"*, %"class.xercesc_2_7::RefHashTableOf.18"*, %"class.xercesc_2_7::RefHashTableOf.19"*, %"class.xercesc_2_7::SchemaInfo"*, %"class.xercesc_2_7::XercesGroupInfo"*, %"class.xercesc_2_7::XercesAttGroupInfo"*, %"class.xercesc_2_7::ComplexTypeInfo"*, %"class.xercesc_2_7::ValueVectorOf"*, %"class.xercesc_2_7::ValueVectorOf"*, %"class.xercesc_2_7::ValueVectorOf"*, %"class.xercesc_2_7::ValueVectorOf.27"*, %"class.xercesc_2_7::ValueVectorOf.22"*, %"class.xercesc_2_7::ValueVectorOf"**, %"class.xercesc_2_7::ValueVectorOf.26"*, %"class.xercesc_2_7::RefHashTableOf.28"*, %"class.xercesc_2_7::RefHashTableOf.29"*, %"class.xercesc_2_7::RefHash2KeysTableOf.30"*, %"class.xercesc_2_7::RefHash2KeysTableOf.30"*, %"class.xercesc_2_7::RefHash2KeysTableOf.31"*, %"class.xercesc_2_7::RefHash2KeysTableOf.13"*, %"class.xercesc_2_7::RefHash2KeysTableOf.32"*, %"class.xercesc_2_7::XSDDOMParser"*, %"class.xercesc_2_7::XSDErrorReporter", %"class.xercesc_2_7::XSDLocator"*, %"class.xercesc_2_7::MemoryManager"*, %"class.xercesc_2_7::MemoryManager"*, %"class.xercesc_2_7::XSAnnotation"*, %"class.xercesc_2_7::GeneralAttributeCheck" }
%"class.xercesc_2_7::GrammarResolver" = type opaque
%"class.xercesc_2_7::SchemaGrammar" = type { %"class.xercesc_2_7::Grammar", i16*, %"class.xercesc_2_7::RefHash3KeysIdPool"*, %"class.xercesc_2_7::RefHash3KeysIdPool"*, %"class.xercesc_2_7::RefHash3KeysIdPool"*, %"class.xercesc_2_7::NameIdPool"*, %"class.xercesc_2_7::RefHashTableOf.9"*, %"class.xercesc_2_7::RefHashTableOf.10"*, %"class.xercesc_2_7::RefHashTableOf.11"*, %"class.xercesc_2_7::RefHashTableOf.12"*, %"class.xercesc_2_7::NamespaceScope"*, %"class.xercesc_2_7::RefHash2KeysTableOf.13"*, %"class.xercesc_2_7::ValidationContext"*, %"class.xercesc_2_7::MemoryManager"*, %"class.xercesc_2_7::XMLSchemaDescription"*, %"class.xercesc_2_7::RefHashTableOf.14"*, i8, %"class.xercesc_2_7::DatatypeValidatorFactory" }
%"class.xercesc_2_7::Grammar" = type { %"class.xercesc_2_7::XSerializable" }
%"class.xercesc_2_7::RefHash3KeysIdPool" = type { %"class.xercesc_2_7::MemoryManager"*, i8, %"struct.xercesc_2_7::RefHash3KeysTableBucketElem"**, i32, %"class.xercesc_2_7::HashBase"*, %"class.xercesc_2_7::SchemaElementDecl"**, i32, i32 }
%"struct.xercesc_2_7::RefHash3KeysTableBucketElem" = type { %"class.xercesc_2_7::SchemaElementDecl"*, %"struct.xercesc_2_7::RefHash3KeysTableBucketElem"*, i8*, i32, i32 }
%"class.xercesc_2_7::SchemaElementDecl" = type <{ %"class.xercesc_2_7::XMLElementDecl.base", [3 x i8], i32, i32, i32, i32, i32, i32, i32, i32, [4 x i8], i16*, %"class.xercesc_2_7::ComplexTypeInfo"*, %"class.xercesc_2_7::RefHash2KeysTableOf"*, %"class.xercesc_2_7::ComplexTypeInfo"*, %"class.xercesc_2_7::DatatypeValidator"*, %"class.xercesc_2_7::RefVectorOf.5"*, %"class.xercesc_2_7::SchemaAttDef"*, %"class.xercesc_2_7::SchemaElementDecl"*, %"class.xercesc_2_7::DatatypeValidator"*, i8, i8, i8, [5 x i8] }>
%"class.xercesc_2_7::XMLElementDecl.base" = type <{ %"class.xercesc_2_7::XSerializable", %"class.xercesc_2_7::MemoryManager"*, %"class.xercesc_2_7::QName"*, i32, i32, i8 }>
%"class.xercesc_2_7::RefHash2KeysTableOf" = type { %"class.xercesc_2_7::MemoryManager"*, i8, %"struct.xercesc_2_7::RefHash2KeysTableBucketElem"**, i32, i32, %"class.xercesc_2_7::HashBase"* }
%"struct.xercesc_2_7::RefHash2KeysTableBucketElem" = type <{ %"class.xercesc_2_7::SchemaAttDef"*, %"struct.xercesc_2_7::RefHash2KeysTableBucketElem"*, i8*, i32, [4 x i8] }>
%"class.xercesc_2_7::RefVectorOf.5" = type { %"class.xercesc_2_7::BaseRefVectorOf.6" }
%"class.xercesc_2_7::BaseRefVectorOf.6" = type { i32 (...)**, i8, i32, i32, %"class.xercesc_2_7::IdentityConstraint"**, %"class.xercesc_2_7::MemoryManager"* }
%"class.xercesc_2_7::IdentityConstraint" = type <{ %"class.xercesc_2_7::XSerializable", i16*, i16*, %"class.xercesc_2_7::IC_Selector"*, %"class.xercesc_2_7::RefVectorOf.7"*, %"class.xercesc_2_7::MemoryManager"*, i32, [4 x i8] }>
%"class.xercesc_2_7::IC_Selector" = type opaque
%"class.xercesc_2_7::RefVectorOf.7" = type { %"class.xercesc_2_7::BaseRefVectorOf.8" }
%"class.xercesc_2_7::BaseRefVectorOf.8" = type { i32 (...)**, i8, i32, i32, %"class.xercesc_2_7::IC_Field"**, %"class.xercesc_2_7::MemoryManager"* }
%"class.xercesc_2_7::IC_Field" = type { %"class.xercesc_2_7::XSerializable", %"class.xercesc_2_7::XercesXPath"*, %"class.xercesc_2_7::IdentityConstraint"* }
%"class.xercesc_2_7::XercesXPath" = type opaque
%"class.xercesc_2_7::SchemaAttDef" = type { %"class.xercesc_2_7::XMLAttDef", i32, i32, i32, i32, %"class.xercesc_2_7::QName"*, %"class.xercesc_2_7::DatatypeValidator"*, %"class.xercesc_2_7::DatatypeValidator"*, %"class.xercesc_2_7::DatatypeValidator"*, %"class.xercesc_2_7::ValueVectorOf"*, %"class.xercesc_2_7::SchemaAttDef"* }
%"class.xercesc_2_7::XMLAttDef" = type { %"class.xercesc_2_7::XSerializable", i32, i32, i32, i8, i8, i32, i16*, i16*, %"class.xercesc_2_7::MemoryManager"* }
%"class.xercesc_2_7::NameIdPool" = type <{ %"class.xercesc_2_7::MemoryManager"*, %"struct.xercesc_2_7::NameIdPoolBucketElem"**, %"class.xercesc_2_7::XMLNotationDecl"**, i32, i32, i32, [4 x i8] }>
%"struct.xercesc_2_7::NameIdPoolBucketElem" = type { %"class.xercesc_2_7::XMLNotationDecl"*, %"struct.xercesc_2_7::NameIdPoolBucketElem"* }
%"class.xercesc_2_7::XMLNotationDecl" = type { %"class.xercesc_2_7::XSerializable", i32, i32, i16*, i16*, i16*, i16*, %"class.xercesc_2_7::MemoryManager"* }
%"class.xercesc_2_7::XMLSchemaDescription" = type { %"class.xercesc_2_7::XMLGrammarDescription" }
%"class.xercesc_2_7::XMLGrammarDescription" = type { %"class.xercesc_2_7::XSerializable", %"class.xercesc_2_7::MemoryManager"* }
%"class.xercesc_2_7::RefHashTableOf.14" = type { %"class.xercesc_2_7::MemoryManager"*, i8, %"struct.xercesc_2_7::RefHashTableBucketElem.15"**, i32, i32, i32, %"class.xercesc_2_7::HashBase"* }
%"struct.xercesc_2_7::RefHashTableBucketElem.15" = type { %"class.xercesc_2_7::XSAnnotation"*, %"struct.xercesc_2_7::RefHashTableBucketElem.15"*, i8* }
%"class.xercesc_2_7::XMLEntityHandler" = type opaque
%"class.xercesc_2_7::XMLErrorReporter" = type { i32 (...)** }
%"class.xercesc_2_7::XMLStringPool" = type { %"class.xercesc_2_7::XSerializable", %"class.xercesc_2_7::MemoryManager"*, %"struct.xercesc_2_7::XMLStringPool::PoolElem"**, %"class.xercesc_2_7::RefHashTableOf.16"*, i32, i32 }
%"struct.xercesc_2_7::XMLStringPool::PoolElem" = type { i32, i16* }
%"class.xercesc_2_7::RefHashTableOf.16" = type { %"class.xercesc_2_7::MemoryManager"*, i8, %"struct.xercesc_2_7::RefHashTableBucketElem.17"**, i32, i32, i32, %"class.xercesc_2_7::HashBase"* }
%"struct.xercesc_2_7::RefHashTableBucketElem.17" = type { %"struct.xercesc_2_7::XMLStringPool::PoolElem"*, %"struct.xercesc_2_7::RefHashTableBucketElem.17"*, i8* }
%"class.xercesc_2_7::XMLBuffer" = type { i32, i32, i32, i8, %"class.xercesc_2_7::MemoryManager"*, %"class.xercesc_2_7::XMLBufferFullHandler"*, i16* }
%"class.xercesc_2_7::XMLBufferFullHandler" = type { i32 (...)** }
%"class.xercesc_2_7::XMLScanner" = type opaque
%"class.xercesc_2_7::NamespaceScope" = type opaque
%"class.xercesc_2_7::RefHashTableOf.9" = type opaque
%"class.xercesc_2_7::RefHashTableOf.10" = type opaque
%"class.xercesc_2_7::RefHashTableOf.11" = type opaque
%"class.xercesc_2_7::RefHashTableOf.12" = type opaque
%"class.xercesc_2_7::RefHashTableOf.18" = type opaque
%"class.xercesc_2_7::RefHashTableOf.19" = type opaque
%"class.xercesc_2_7::SchemaInfo" = type { i8, i8, i16, i32, i32, i32, i32, i32, i16*, i16*, %"class.xercesc_2_7::DOMElement"*, %"class.xercesc_2_7::RefVectorOf.20"*, %"class.xercesc_2_7::RefVectorOf.20"*, %"class.xercesc_2_7::RefVectorOf.20"*, %"class.xercesc_2_7::ValueVectorOf.22"*, %"class.xercesc_2_7::ValueVectorOf.23"*, %"class.xercesc_2_7::ValueVectorOf.22"*, %"class.xercesc_2_7::ValueVectorOf.24"*, [7 x %"class.xercesc_2_7::ValueVectorOf.25"*], %"class.xercesc_2_7::ValueVectorOf.26"*, %"class.xercesc_2_7::ValidationContext"*, %"class.xercesc_2_7::MemoryManager"* }
%"class.xercesc_2_7::RefVectorOf.20" = type { %"class.xercesc_2_7::BaseRefVectorOf.21" }
%"class.xercesc_2_7::BaseRefVectorOf.21" = type { i32 (...)**, i8, i32, i32, %"class.xercesc_2_7::SchemaInfo"**, %"class.xercesc_2_7::MemoryManager"* }
%"class.xercesc_2_7::ValueVectorOf.23" = type { i8, i32, i32, i32*, %"class.xercesc_2_7::MemoryManager"* }
%"class.xercesc_2_7::ValueVectorOf.24" = type { i8, i32, i32, i16**, %"class.xercesc_2_7::MemoryManager"* }
%"class.xercesc_2_7::ValueVectorOf.25" = type { i8, i32, i32, %"class.xercesc_2_7::DOMElement"**, %"class.xercesc_2_7::MemoryManager"* }
%"class.xercesc_2_7::XercesGroupInfo" = type opaque
%"class.xercesc_2_7::XercesAttGroupInfo" = type opaque
%"class.xercesc_2_7::ComplexTypeInfo" = type { %"class.xercesc_2_7::XSerializable", i8, i8, i8, i8, i8, i32, i32, i32, i32, i32, i32, i32, i32, i16*, i16*, i16*, %"class.xercesc_2_7::DatatypeValidator"*, %"class.xercesc_2_7::DatatypeValidator"*, %"class.xercesc_2_7::ComplexTypeInfo"*, %"class.xercesc_2_7::ContentSpecNode"*, %"class.xercesc_2_7::SchemaAttDef"*, %"class.xercesc_2_7::SchemaAttDefList"*, %"class.xercesc_2_7::RefVectorOf.3"*, %"class.xercesc_2_7::RefHash2KeysTableOf"*, %"class.xercesc_2_7::XMLContentModel"*, i16*, i32*, %"class.xercesc_2_7::XSDLocator"*, %"class.xercesc_2_7::MemoryManager"* }
%"class.xercesc_2_7::SchemaAttDefList" = type opaque
%"class.xercesc_2_7::RefVectorOf.3" = type { %"class.xercesc_2_7::BaseRefVectorOf.4" }
%"class.xercesc_2_7::BaseRefVectorOf.4" = type { i32 (...)**, i8, i32, i32, %"class.xercesc_2_7::SchemaElementDecl"**, %"class.xercesc_2_7::MemoryManager"* }
%"class.xercesc_2_7::XMLContentModel" = type { i32 (...)** }
%"class.xercesc_2_7::ValueVectorOf" = type { i8, i32, i32, i32*, %"class.xercesc_2_7::MemoryManager"* }
%"class.xercesc_2_7::ValueVectorOf.27" = type opaque
%"class.xercesc_2_7::ValueVectorOf.22" = type { i8, i32, i32, %"class.xercesc_2_7::DOMElement"**, %"class.xercesc_2_7::MemoryManager"* }
%"class.xercesc_2_7::RefHashTableOf.28" = type opaque
%"class.xercesc_2_7::RefHashTableOf.29" = type opaque
%"class.xercesc_2_7::RefHash2KeysTableOf.30" = type opaque
%"class.xercesc_2_7::RefHash2KeysTableOf.31" = type opaque
%"class.xercesc_2_7::RefHash2KeysTableOf.13" = type opaque
%"class.xercesc_2_7::RefHash2KeysTableOf.32" = type opaque
%"class.xercesc_2_7::XSDDOMParser" = type opaque
%"class.xercesc_2_7::XSDErrorReporter" = type { i32 (...)**, i8, %"class.xercesc_2_7::XMLErrorReporter"* }
%"class.xercesc_2_7::XSDLocator" = type opaque
%"class.xercesc_2_7::XSAnnotation" = type opaque
%"class.xercesc_2_7::ValueVectorOf.26" = type { i8, i32, i32, %"class.xercesc_2_7::DOMNode"**, %"class.xercesc_2_7::MemoryManager"* }
%"class.xercesc_2_7::DOMNamedNodeMap" = type { i32 (...)** }
%"class.xercesc_2_7::OutOfMemoryException" = type { i8 }
%"class.xercesc_2_7::NoSuchElementException" = type { %"class.xercesc_2_7::XMLException" }
%"class.xercesc_2_7::XMLException" = type { i32 (...)**, i32, i8*, i32, i16*, %"class.xercesc_2_7::MemoryManager"* }
%"class.xercesc_2_7::XSerializeEngine" = type <{ i16, i16, [4 x i8], %"class.xercesc_2_7::XMLGrammarPool"*, %"class.xercesc_2_7::BinInputStream"*, %"class.xercesc_2_7::BinOutputStream"*, i64, i64, i8*, i8*, i8*, i8*, %"class.xercesc_2_7::RefHashTableOf.33"*, %"class.xercesc_2_7::ValueVectorOf.34"*, i32, [4 x i8] }>
%"class.xercesc_2_7::XMLGrammarPool" = type opaque
%"class.xercesc_2_7::BinInputStream" = type opaque
%"class.xercesc_2_7::BinOutputStream" = type opaque
%"class.xercesc_2_7::RefHashTableOf.33" = type opaque
%"class.xercesc_2_7::ValueVectorOf.34" = type opaque
%"class.xercesc_2_7::XProtoType" = type { i8*, %"class.xercesc_2_7::XSerializable"* (%"class.xercesc_2_7::MemoryManager"*)* }
%"class.xercesc_2_7::IllegalArgumentException" = type { %"class.xercesc_2_7::XMLException" }

$_ZN11xercesc_2_710XMLDeleterD0Ev = comdat any

$_ZN11xercesc_2_710XMLDeleterD2Ev = comdat any

$_ZN11xercesc_2_713XSerializableD2Ev = comdat any

$__clang_call_terminate = comdat any

$_ZN11xercesc_2_710XMLRefInfoD0Ev = comdat any

$_ZN11xercesc_2_710XMLRefInfoD2Ev = comdat any

$_ZN11xercesc_2_713XMLAttDefListD0Ev = comdat any

$_ZN11xercesc_2_715ContentSpecNodeD0Ev = comdat any

$_ZN11xercesc_2_715ContentSpecNodeD2Ev = comdat any

$_ZN11xercesc_2_77XMemoryC2Ev = comdat any

$_ZNK11xercesc_2_724DatatypeValidatorFactory20getDatatypeValidatorEPKt = comdat any

$_ZN11xercesc_2_716ValueHashTableOfItEC2EjPNS_13MemoryManagerE = comdat any

$_ZN11xercesc_2_716ValueHashTableOfItE3putEPvRKt = comdat any

$_ZN11xercesc_2_716ValueHashTableOfItED2Ev = comdat any

$_ZN11xercesc_2_713ValueVectorOfIPNS_7DOMNodeEE17removeAllElementsEv = comdat any

$_ZN11xercesc_2_79XMLString6equalsEPKtS2_ = comdat any

$_ZN11xercesc_2_79XMLString10startsWithEPKtS2_ = comdat any

$_ZN11xercesc_2_713ValueVectorOfIPNS_7DOMNodeEE10addElementERKS2_ = comdat any

$_ZN11xercesc_2_716ValueHashTableOfItE3getEPKvPNS_13MemoryManagerE = comdat any

$_ZNK11xercesc_2_710SchemaInfo20getValidationContextEv = comdat any

$_ZNK11xercesc_2_712XMLException10getMessageEv = comdat any

$_ZN11xercesc_2_713XMLAttDefListD2Ev = comdat any

$_ZNK11xercesc_2_714RefHashTableOfINS_17DatatypeValidatorEE11containsKeyEPKv = comdat any

$_ZN11xercesc_2_714RefHashTableOfINS_17DatatypeValidatorEE3getEPKv = comdat any

$_ZNK11xercesc_2_714RefHashTableOfINS_17DatatypeValidatorEE14findBucketElemEPKvRj = comdat any

$_ZN11xercesc_2_714RefHashTableOfINS_17DatatypeValidatorEE14findBucketElemEPKvRj = comdat any

$_ZN11xercesc_2_79XMLString9stringLenEPKt = comdat any

$_ZN11xercesc_2_716ValueHashTableOfItE14findBucketElemEPKvRj = comdat any

$_ZN11xercesc_2_722NoSuchElementExceptionC2EPKcjNS_10XMLExcepts5CodesEPNS_13MemoryManagerE = comdat any

$_ZN11xercesc_2_722NoSuchElementExceptionD2Ev = comdat any

$_ZN11xercesc_2_722NoSuchElementExceptionD0Ev = comdat any

$_ZNK11xercesc_2_722NoSuchElementException7getTypeEv = comdat any

$_ZNK11xercesc_2_722NoSuchElementException9duplicateEv = comdat any

$_ZN11xercesc_2_722NoSuchElementExceptionC2ERKS0_ = comdat any

$_ZN11xercesc_2_716ValueHashTableOfItE10initializeEj = comdat any

$_ZN11xercesc_2_724IllegalArgumentExceptionC2EPKcjNS_10XMLExcepts5CodesEPNS_13MemoryManagerE = comdat any

$_ZN11xercesc_2_724IllegalArgumentExceptionD2Ev = comdat any

$_ZN11xercesc_2_724IllegalArgumentExceptionD0Ev = comdat any

$_ZNK11xercesc_2_724IllegalArgumentException7getTypeEv = comdat any

$_ZNK11xercesc_2_724IllegalArgumentException9duplicateEv = comdat any

$_ZN11xercesc_2_724IllegalArgumentExceptionC2ERKS0_ = comdat any

$_ZN11xercesc_2_724ValueHashTableBucketElemItEC2EPvRKtPS1_ = comdat any

$_ZN11xercesc_2_716ValueHashTableOfItE9removeAllEv = comdat any

$_ZN11xercesc_2_713ValueVectorOfIPNS_7DOMNodeEE19ensureExtraCapacityEj = comdat any

$_ZTVN11xercesc_2_710XMLRefInfoE = comdat any

$_ZTVN11xercesc_2_715ContentSpecNodeE = comdat any

$_ZTSN11xercesc_2_720OutOfMemoryExceptionE = comdat any

$_ZTSN11xercesc_2_77XMemoryE = comdat any

$_ZTIN11xercesc_2_77XMemoryE = comdat any

$_ZTIN11xercesc_2_720OutOfMemoryExceptionE = comdat any

$_ZTVN11xercesc_2_710XMLDeleterE = comdat any

$_ZTSN11xercesc_2_710XMLDeleterE = comdat any

$_ZTIN11xercesc_2_710XMLDeleterE = comdat any

$_ZTSN11xercesc_2_710XMLRefInfoE = comdat any

$_ZTSN11xercesc_2_713XSerializableE = comdat any

$_ZTIN11xercesc_2_713XSerializableE = comdat any

$_ZTIN11xercesc_2_710XMLRefInfoE = comdat any

$_ZTVN11xercesc_2_713XMLAttDefListE = comdat any

$_ZTSN11xercesc_2_713XMLAttDefListE = comdat any

$_ZTIN11xercesc_2_713XMLAttDefListE = comdat any

$_ZTSN11xercesc_2_715ContentSpecNodeE = comdat any

$_ZTIN11xercesc_2_715ContentSpecNodeE = comdat any

$_ZTSN11xercesc_2_722NoSuchElementExceptionE = comdat any

$_ZTIN11xercesc_2_722NoSuchElementExceptionE = comdat any

$_ZTVN11xercesc_2_722NoSuchElementExceptionE = comdat any

$_ZTSN11xercesc_2_724IllegalArgumentExceptionE = comdat any

$_ZTIN11xercesc_2_724IllegalArgumentExceptionE = comdat any

$_ZTVN11xercesc_2_724IllegalArgumentExceptionE = comdat any

@_ZTVN11xercesc_2_710XMLRefInfoE = linkonce_odr dso_local unnamed_addr constant { [7 x i8*] } { [7 x i8*] [i8* null, i8* bitcast ({ i8*, i8*, i32, i32, i8*, i64, i8*, i64 }* @_ZTIN11xercesc_2_710XMLRefInfoE to i8*), i8* bitcast (void (%"class.xercesc_2_7::XMLRefInfo"*)* @_ZN11xercesc_2_710XMLRefInfoD2Ev to i8*), i8* bitcast (void (%"class.xercesc_2_7::XMLRefInfo"*)* @_ZN11xercesc_2_710XMLRefInfoD0Ev to i8*), i8* bitcast (i1 (%"class.xercesc_2_7::XMLRefInfo"*)* @_ZNK11xercesc_2_710XMLRefInfo14isSerializableEv to i8*), i8* bitcast (void (%"class.xercesc_2_7::XMLRefInfo"*, %"class.xercesc_2_7::XSerializeEngine"*)* @_ZN11xercesc_2_710XMLRefInfo9serializeERNS_16XSerializeEngineE to i8*), i8* bitcast (%"class.xercesc_2_7::XProtoType"* (%"class.xercesc_2_7::XMLRefInfo"*)* @_ZNK11xercesc_2_710XMLRefInfo12getProtoTypeEv to i8*)] }, comdat, align 8
@_ZTVN11xercesc_2_715ContentSpecNodeE = linkonce_odr dso_local unnamed_addr constant { [7 x i8*] } { [7 x i8*] [i8* null, i8* bitcast ({ i8*, i8*, i32, i32, i8*, i64, i8*, i64 }* @_ZTIN11xercesc_2_715ContentSpecNodeE to i8*), i8* bitcast (void (%"class.xercesc_2_7::ContentSpecNode"*)* @_ZN11xercesc_2_715ContentSpecNodeD2Ev to i8*), i8* bitcast (void (%"class.xercesc_2_7::ContentSpecNode"*)* @_ZN11xercesc_2_715ContentSpecNodeD0Ev to i8*), i8* bitcast (i1 (%"class.xercesc_2_7::ContentSpecNode"*)* @_ZNK11xercesc_2_715ContentSpecNode14isSerializableEv to i8*), i8* bitcast (void (%"class.xercesc_2_7::ContentSpecNode"*, %"class.xercesc_2_7::XSerializeEngine"*)* @_ZN11xercesc_2_715ContentSpecNode9serializeERNS_16XSerializeEngineE to i8*), i8* bitcast (%"class.xercesc_2_7::XProtoType"* (%"class.xercesc_2_7::ContentSpecNode"*)* @_ZNK11xercesc_2_715ContentSpecNode12getProtoTypeEv to i8*)] }, comdat, align 8
@_ZN11xercesc_2_7L23sGeneralAttCheckCleanupE = internal global %"class.xercesc_2_7::XMLRegisterCleanup" zeroinitializer, align 8, !dbg !0
@_ZN11xercesc_2_721GeneralAttributeCheck7fAttMapE = dso_local global %"class.xercesc_2_7::ValueHashTableOf"* null, align 8, !dbg !34
@_ZN11xercesc_2_721GeneralAttributeCheck10fFacetsMapE = dso_local global %"class.xercesc_2_7::ValueHashTableOf"* null, align 8, !dbg !2219
@_ZN11xercesc_2_721GeneralAttributeCheck12fNonNegIntDVE = dso_local global %"class.xercesc_2_7::DatatypeValidator"* null, align 8, !dbg !2221
@_ZN11xercesc_2_721GeneralAttributeCheck10fBooleanDVE = dso_local global %"class.xercesc_2_7::DatatypeValidator"* null, align 8, !dbg !2223
@_ZN11xercesc_2_721GeneralAttributeCheck9fAnyURIDVE = dso_local global %"class.xercesc_2_7::DatatypeValidator"* null, align 8, !dbg !2225
@_ZN11xercesc_2_716XMLPlatformUtils15fgMemoryManagerE = external dso_local global %"class.xercesc_2_7::MemoryManager"*, align 8
@_ZN11xercesc_2_713SchemaSymbols23fgDT_NONNEGATIVEINTEGERE = external dso_local constant [0 x i16], align 2
@_ZN11xercesc_2_713SchemaSymbols12fgDT_BOOLEANE = external dso_local constant [0 x i16], align 2
@_ZN11xercesc_2_713SchemaSymbols11fgDT_ANYURIE = external dso_local constant [0 x i16], align 2
@_ZN11xercesc_2_7L31sGeneralAttCheckMutexRegisteredE = internal global i8 0, align 1, !dbg !2227
@_ZN11xercesc_2_7L21sGeneralAttCheckMutexE = internal global %"class.xercesc_2_7::XMLMutex"* null, align 8, !dbg !2229
@_ZN11xercesc_2_716XMLPlatformUtils13fgAtomicMutexE = external dso_local global %"class.xercesc_2_7::XMLMutex"*, align 8
@_ZN11xercesc_2_713SchemaSymbols14fgATT_ABSTRACTE = external dso_local constant [0 x i16], align 2
@_ZN11xercesc_2_713SchemaSymbols26fgATT_ATTRIBUTEFORMDEFAULTE = external dso_local constant [0 x i16], align 2
@_ZN11xercesc_2_713SchemaSymbols10fgATT_BASEE = external dso_local constant [0 x i16], align 2
@_ZN11xercesc_2_713SchemaSymbols11fgATT_BLOCKE = external dso_local constant [0 x i16], align 2
@_ZN11xercesc_2_713SchemaSymbols18fgATT_BLOCKDEFAULTE = external dso_local constant [0 x i16], align 2
@_ZN11xercesc_2_713SchemaSymbols13fgATT_DEFAULTE = external dso_local constant [0 x i16], align 2
@_ZN11xercesc_2_713SchemaSymbols24fgATT_ELEMENTFORMDEFAULTE = external dso_local constant [0 x i16], align 2
@_ZN11xercesc_2_713SchemaSymbols11fgATT_FINALE = external dso_local constant [0 x i16], align 2
@_ZN11xercesc_2_713SchemaSymbols18fgATT_FINALDEFAULTE = external dso_local constant [0 x i16], align 2
@_ZN11xercesc_2_713SchemaSymbols11fgATT_FIXEDE = external dso_local constant [0 x i16], align 2
@_ZN11xercesc_2_713SchemaSymbols10fgATT_FORME = external dso_local constant [0 x i16], align 2
@_ZN11xercesc_2_713SchemaSymbols8fgATT_IDE = external dso_local constant [0 x i16], align 2
@_ZN11xercesc_2_713SchemaSymbols14fgATT_ITEMTYPEE = external dso_local constant [0 x i16], align 2
@_ZN11xercesc_2_713SchemaSymbols15fgATT_MAXOCCURSE = external dso_local constant [0 x i16], align 2
@_ZN11xercesc_2_713SchemaSymbols17fgATT_MEMBERTYPESE = external dso_local constant [0 x i16], align 2
@_ZN11xercesc_2_713SchemaSymbols15fgATT_MINOCCURSE = external dso_local constant [0 x i16], align 2
@_ZN11xercesc_2_713SchemaSymbols11fgATT_MIXEDE = external dso_local constant [0 x i16], align 2
@_ZN11xercesc_2_713SchemaSymbols10fgATT_NAMEE = external dso_local constant [0 x i16], align 2
@_ZN11xercesc_2_713SchemaSymbols15fgATT_NAMESPACEE = external dso_local constant [0 x i16], align 2
@_ZN11xercesc_2_713SchemaSymbols14fgATT_NILLABLEE = external dso_local constant [0 x i16], align 2
@_ZN11xercesc_2_713SchemaSymbols21fgATT_PROCESSCONTENTSE = external dso_local constant [0 x i16], align 2
@_ZN11xercesc_2_713SchemaSymbols12fgATT_PUBLICE = external dso_local constant [0 x i16], align 2
@_ZN11xercesc_2_713SchemaSymbols9fgATT_REFE = external dso_local constant [0 x i16], align 2
@_ZN11xercesc_2_713SchemaSymbols11fgATT_REFERE = external dso_local constant [0 x i16], align 2
@_ZN11xercesc_2_713SchemaSymbols20fgATT_SCHEMALOCATIONE = external dso_local constant [0 x i16], align 2
@_ZN11xercesc_2_713SchemaSymbols12fgATT_SOURCEE = external dso_local constant [0 x i16], align 2
@_ZN11xercesc_2_713SchemaSymbols23fgATT_SUBSTITUTIONGROUPE = external dso_local constant [0 x i16], align 2
@_ZN11xercesc_2_713SchemaSymbols12fgATT_SYSTEME = external dso_local constant [0 x i16], align 2
@_ZN11xercesc_2_713SchemaSymbols21fgATT_TARGETNAMESPACEE = external dso_local constant [0 x i16], align 2
@_ZN11xercesc_2_713SchemaSymbols10fgATT_TYPEE = external dso_local constant [0 x i16], align 2
@_ZN11xercesc_2_713SchemaSymbols9fgATT_USEE = external dso_local constant [0 x i16], align 2
@_ZN11xercesc_2_713SchemaSymbols11fgATT_VALUEE = external dso_local constant [0 x i16], align 2
@_ZN11xercesc_2_713SchemaSymbols13fgATT_VERSIONE = external dso_local constant [0 x i16], align 2
@_ZN11xercesc_2_713SchemaSymbols11fgATT_XPATHE = external dso_local constant [0 x i16], align 2
@_ZN11xercesc_2_713SchemaSymbols18fgELT_MINEXCLUSIVEE = external dso_local constant [0 x i16], align 2
@_ZN11xercesc_2_713SchemaSymbols18fgELT_MININCLUSIVEE = external dso_local constant [0 x i16], align 2
@_ZN11xercesc_2_713SchemaSymbols18fgELT_MAXEXCLUSIVEE = external dso_local constant [0 x i16], align 2
@_ZN11xercesc_2_713SchemaSymbols18fgELT_MAXINCLUSIVEE = external dso_local constant [0 x i16], align 2
@_ZN11xercesc_2_713SchemaSymbols17fgELT_TOTALDIGITSE = external dso_local constant [0 x i16], align 2
@_ZN11xercesc_2_713SchemaSymbols20fgELT_FRACTIONDIGITSE = external dso_local constant [0 x i16], align 2
@_ZN11xercesc_2_713SchemaSymbols12fgELT_LENGTHE = external dso_local constant [0 x i16], align 2
@_ZN11xercesc_2_713SchemaSymbols15fgELT_MINLENGTHE = external dso_local constant [0 x i16], align 2
@_ZN11xercesc_2_713SchemaSymbols15fgELT_MAXLENGTHE = external dso_local constant [0 x i16], align 2
@_ZN11xercesc_2_713SchemaSymbols17fgELT_ENUMERATIONE = external dso_local constant [0 x i16], align 2
@_ZN11xercesc_2_713SchemaSymbols16fgELT_WHITESPACEE = external dso_local constant [0 x i16], align 2
@_ZN11xercesc_2_713SchemaSymbols13fgELT_PATTERNE = external dso_local constant [0 x i16], align 2
@_ZN11xercesc_2_713SchemaSymbols21fgURI_SCHEMAFORSCHEMAE = external dso_local constant [0 x i16], align 2
@_ZN11xercesc_2_76XMLUni14fgXMLErrDomainE = external dso_local constant [0 x i16], align 2
@_ZN11xercesc_2_7L8fgGlobalE = internal constant [7 x i16] [i16 103, i16 108, i16 111, i16 98, i16 97, i16 108, i16 0], align 2, !dbg !2255
@_ZN11xercesc_2_7L7fgLocalE = internal constant [6 x i16] [i16 108, i16 111, i16 99, i16 97, i16 108, i16 0], align 2, !dbg !2258
@_ZN11xercesc_2_76XMLUni13fgXMLNSStringE = external dso_local constant [0 x i16], align 2
@_ZN11xercesc_2_76XMLUni18fgXMLNSColonStringE = external dso_local constant [0 x i16], align 2
@_ZN11xercesc_2_713SchemaSymbols13fgELT_APPINFOE = external dso_local constant [0 x i16], align 2
@_ZN11xercesc_2_713SchemaSymbols19fgELT_DOCUMENTATIONE = external dso_local constant [0 x i16], align 2
@_ZTVN10__cxxabiv120__si_class_type_infoE = external dso_local global i8*
@_ZTSN11xercesc_2_720OutOfMemoryExceptionE = linkonce_odr dso_local constant [38 x i8] c"N11xercesc_2_720OutOfMemoryExceptionE\00", comdat, align 1
@_ZTVN10__cxxabiv117__class_type_infoE = external dso_local global i8*
@_ZTSN11xercesc_2_77XMemoryE = linkonce_odr dso_local constant [24 x i8] c"N11xercesc_2_77XMemoryE\00", comdat, align 1
@_ZTIN11xercesc_2_77XMemoryE = linkonce_odr dso_local constant { i8*, i8* } { i8* bitcast (i8** getelementptr inbounds (i8*, i8** @_ZTVN10__cxxabiv117__class_type_infoE, i64 2) to i8*), i8* getelementptr inbounds ([24 x i8], [24 x i8]* @_ZTSN11xercesc_2_77XMemoryE, i32 0, i32 0) }, comdat, align 8
@_ZTIN11xercesc_2_720OutOfMemoryExceptionE = linkonce_odr dso_local constant { i8*, i8*, i8* } { i8* bitcast (i8** getelementptr inbounds (i8*, i8** @_ZTVN10__cxxabiv120__si_class_type_infoE, i64 2) to i8*), i8* getelementptr inbounds ([38 x i8], [38 x i8]* @_ZTSN11xercesc_2_720OutOfMemoryExceptionE, i32 0, i32 0), i8* bitcast ({ i8*, i8* }* @_ZTIN11xercesc_2_77XMemoryE to i8*) }, comdat, align 8
@_ZN11xercesc_2_721GeneralAttributeCheck9fAttNamesE = dso_local global [34 x i16*] [i16* getelementptr inbounds ([0 x i16], [0 x i16]* @_ZN11xercesc_2_713SchemaSymbols14fgATT_ABSTRACTE, i32 0, i32 0), i16* getelementptr inbounds ([0 x i16], [0 x i16]* @_ZN11xercesc_2_713SchemaSymbols26fgATT_ATTRIBUTEFORMDEFAULTE, i32 0, i32 0), i16* getelementptr inbounds ([0 x i16], [0 x i16]* @_ZN11xercesc_2_713SchemaSymbols10fgATT_BASEE, i32 0, i32 0), i16* getelementptr inbounds ([0 x i16], [0 x i16]* @_ZN11xercesc_2_713SchemaSymbols11fgATT_BLOCKE, i32 0, i32 0), i16* getelementptr inbounds ([0 x i16], [0 x i16]* @_ZN11xercesc_2_713SchemaSymbols18fgATT_BLOCKDEFAULTE, i32 0, i32 0), i16* getelementptr inbounds ([0 x i16], [0 x i16]* @_ZN11xercesc_2_713SchemaSymbols13fgATT_DEFAULTE, i32 0, i32 0), i16* getelementptr inbounds ([0 x i16], [0 x i16]* @_ZN11xercesc_2_713SchemaSymbols24fgATT_ELEMENTFORMDEFAULTE, i32 0, i32 0), i16* getelementptr inbounds ([0 x i16], [0 x i16]* @_ZN11xercesc_2_713SchemaSymbols11fgATT_FINALE, i32 0, i32 0), i16* getelementptr inbounds ([0 x i16], [0 x i16]* @_ZN11xercesc_2_713SchemaSymbols18fgATT_FINALDEFAULTE, i32 0, i32 0), i16* getelementptr inbounds ([0 x i16], [0 x i16]* @_ZN11xercesc_2_713SchemaSymbols11fgATT_FIXEDE, i32 0, i32 0), i16* getelementptr inbounds ([0 x i16], [0 x i16]* @_ZN11xercesc_2_713SchemaSymbols10fgATT_FORME, i32 0, i32 0), i16* getelementptr inbounds ([0 x i16], [0 x i16]* @_ZN11xercesc_2_713SchemaSymbols8fgATT_IDE, i32 0, i32 0), i16* getelementptr inbounds ([0 x i16], [0 x i16]* @_ZN11xercesc_2_713SchemaSymbols14fgATT_ITEMTYPEE, i32 0, i32 0), i16* getelementptr inbounds ([0 x i16], [0 x i16]* @_ZN11xercesc_2_713SchemaSymbols15fgATT_MAXOCCURSE, i32 0, i32 0), i16* getelementptr inbounds ([0 x i16], [0 x i16]* @_ZN11xercesc_2_713SchemaSymbols17fgATT_MEMBERTYPESE, i32 0, i32 0), i16* getelementptr inbounds ([0 x i16], [0 x i16]* @_ZN11xercesc_2_713SchemaSymbols15fgATT_MINOCCURSE, i32 0, i32 0), i16* getelementptr inbounds ([0 x i16], [0 x i16]* @_ZN11xercesc_2_713SchemaSymbols11fgATT_MIXEDE, i32 0, i32 0), i16* getelementptr inbounds ([0 x i16], [0 x i16]* @_ZN11xercesc_2_713SchemaSymbols10fgATT_NAMEE, i32 0, i32 0), i16* getelementptr inbounds ([0 x i16], [0 x i16]* @_ZN11xercesc_2_713SchemaSymbols15fgATT_NAMESPACEE, i32 0, i32 0), i16* getelementptr inbounds ([0 x i16], [0 x i16]* @_ZN11xercesc_2_713SchemaSymbols14fgATT_NILLABLEE, i32 0, i32 0), i16* getelementptr inbounds ([0 x i16], [0 x i16]* @_ZN11xercesc_2_713SchemaSymbols21fgATT_PROCESSCONTENTSE, i32 0, i32 0), i16* getelementptr inbounds ([0 x i16], [0 x i16]* @_ZN11xercesc_2_713SchemaSymbols12fgATT_PUBLICE, i32 0, i32 0), i16* getelementptr inbounds ([0 x i16], [0 x i16]* @_ZN11xercesc_2_713SchemaSymbols9fgATT_REFE, i32 0, i32 0), i16* getelementptr inbounds ([0 x i16], [0 x i16]* @_ZN11xercesc_2_713SchemaSymbols11fgATT_REFERE, i32 0, i32 0), i16* getelementptr inbounds ([0 x i16], [0 x i16]* @_ZN11xercesc_2_713SchemaSymbols20fgATT_SCHEMALOCATIONE, i32 0, i32 0), i16* getelementptr inbounds ([0 x i16], [0 x i16]* @_ZN11xercesc_2_713SchemaSymbols12fgATT_SOURCEE, i32 0, i32 0), i16* getelementptr inbounds ([0 x i16], [0 x i16]* @_ZN11xercesc_2_713SchemaSymbols23fgATT_SUBSTITUTIONGROUPE, i32 0, i32 0), i16* getelementptr inbounds ([0 x i16], [0 x i16]* @_ZN11xercesc_2_713SchemaSymbols12fgATT_SYSTEME, i32 0, i32 0), i16* getelementptr inbounds ([0 x i16], [0 x i16]* @_ZN11xercesc_2_713SchemaSymbols21fgATT_TARGETNAMESPACEE, i32 0, i32 0), i16* getelementptr inbounds ([0 x i16], [0 x i16]* @_ZN11xercesc_2_713SchemaSymbols10fgATT_TYPEE, i32 0, i32 0), i16* getelementptr inbounds ([0 x i16], [0 x i16]* @_ZN11xercesc_2_713SchemaSymbols9fgATT_USEE, i32 0, i32 0), i16* getelementptr inbounds ([0 x i16], [0 x i16]* @_ZN11xercesc_2_713SchemaSymbols11fgATT_VALUEE, i32 0, i32 0), i16* getelementptr inbounds ([0 x i16], [0 x i16]* @_ZN11xercesc_2_713SchemaSymbols13fgATT_VERSIONE, i32 0, i32 0), i16* getelementptr inbounds ([0 x i16], [0 x i16]* @_ZN11xercesc_2_713SchemaSymbols11fgATT_XPATHE, i32 0, i32 0)], align 16, !dbg !2263
@_ZN11xercesc_2_713SchemaSymbols18fgATTVAL_QUALIFIEDE = external dso_local constant [0 x i16], align 2
@_ZN11xercesc_2_713SchemaSymbols20fgATTVAL_UNQUALIFIEDE = external dso_local constant [0 x i16], align 2
@_ZN11xercesc_2_7L11fgUnboundedE = internal constant [10 x i16] [i16 117, i16 110, i16 98, i16 111, i16 117, i16 110, i16 100, i16 101, i16 100, i16 0], align 16, !dbg !2265
@_ZN11xercesc_2_7L10fgValueOneE = internal constant [2 x i16] [i16 49, i16 0], align 2, !dbg !2270
@_ZN11xercesc_2_7L11fgValueZeroE = internal constant [2 x i16] [i16 48, i16 0], align 2, !dbg !2275
@_ZN11xercesc_2_713SchemaSymbols13fgATTVAL_SKIPE = external dso_local constant [0 x i16], align 2
@_ZN11xercesc_2_713SchemaSymbols12fgATTVAL_LAXE = external dso_local constant [0 x i16], align 2
@_ZN11xercesc_2_713SchemaSymbols15fgATTVAL_STRICTE = external dso_local constant [0 x i16], align 2
@_ZN11xercesc_2_713SchemaSymbols17fgATTVAL_OPTIONALE = external dso_local constant [0 x i16], align 2
@_ZN11xercesc_2_713SchemaSymbols19fgATTVAL_PROHIBITEDE = external dso_local constant [0 x i16], align 2
@_ZN11xercesc_2_713SchemaSymbols17fgATTVAL_REQUIREDE = external dso_local constant [0 x i16], align 2
@_ZN11xercesc_2_713SchemaSymbols13fgWS_PRESERVEE = external dso_local constant [0 x i16], align 2
@_ZN11xercesc_2_713SchemaSymbols12fgWS_REPLACEE = external dso_local constant [0 x i16], align 2
@_ZN11xercesc_2_713SchemaSymbols13fgWS_COLLAPSEE = external dso_local constant [0 x i16], align 2
@_ZTIN11xercesc_2_712XMLExceptionE = external dso_local constant i8*
@_ZN11xercesc_2_721GeneralAttributeCheck14fgElemAttTableE = dso_local global <{ <{ [16 x i16], [18 x i16] }>, <{ [12 x i16], [22 x i16] }>, <{ [21 x i16], [13 x i16] }>, <{ [21 x i16], [13 x i16] }>, <{ [26 x i16], [8 x i16] }>, [34 x i16], [34 x i16], [34 x i16], <{ [18 x i16], [16 x i16] }>, <{ [23 x i16], [11 x i16] }>, <{ [16 x i16], [18 x i16] }>, <{ [17 x i16], [17 x i16] }>, <{ [18 x i16], [16 x i16] }>, <{ [17 x i16], [17 x i16] }>, <{ [26 x i16], [8 x i16] }>, [34 x i16], [34 x i16], <{ [23 x i16], [11 x i16] }>, [34 x i16], <{ [12 x i16], [22 x i16] }>, [34 x i16], [34 x i16], <{ [18 x i16], [16 x i16] }>, <{ [23 x i16], [11 x i16] }>, <{ [25 x i16], [9 x i16] }>, <{ [25 x i16], [9 x i16] }>, <{ [18 x i16], [16 x i16] }>, <{ [24 x i16], [10 x i16] }>, [34 x i16], <{ [13 x i16], [21 x i16] }>, [34 x i16], [34 x i16], [34 x i16], [34 x i16], [34 x i16], [34 x i16], [34 x i16], [34 x i16], <{ [25 x i16], [9 x i16] }>, <{ [12 x i16], [22 x i16] }>, [34 x i16], [34 x i16], <{ [16 x i16], [18 x i16] }>, <{ [12 x i16], [22 x i16] }>, <{ [18 x i16], [16 x i16] }>, <{ [12 x i16], [22 x i16] }>, [34 x i16], <{ [15 x i16], [19 x i16] }>, <{ [18 x i16], [16 x i16] }>, [34 x i16] }> <{ <{ [16 x i16], [18 x i16] }> <{ [16 x i16] [i16 0, i16 0, i16 0, i16 0, i16 0, i16 0, i16 0, i16 0, i16 0, i16 0, i16 0, i16 34, i16 0, i16 258, i16 0, i16 514], [18 x i16] zeroinitializer }>, <{ [12 x i16], [22 x i16] }> <{ [12 x i16] [i16 0, i16 0, i16 0, i16 0, i16 0, i16 0, i16 0, i16 0, i16 0, i16 0, i16 0, i16 34], [22 x i16] zeroinitializer }>, <{ [21 x i16], [13 x i16] }> <{ [21 x i16] [i16 0, i16 0, i16 0, i16 0, i16 0, i16 0, i16 0, i16 0, i16 0, i16 0, i16 0, i16 34, i16 0, i16 130, i16 0, i16 10, i16 0, i16 0, i16 2, i16 0, i16 1026], [13 x i16] zeroinitializer }>, <{ [21 x i16], [13 x i16] }> <{ [21 x i16] [i16 0, i16 0, i16 0, i16 0, i16 0, i16 0, i16 0, i16 0, i16 0, i16 0, i16 0, i16 34, i16 0, i16 0, i16 0, i16 0, i16 0, i16 0, i16 2, i16 0, i16 1026], [13 x i16] zeroinitializer }>, <{ [26 x i16], [8 x i16] }> <{ [26 x i16] [i16 0, i16 0, i16 0, i16 0, i16 0, i16 0, i16 0, i16 0, i16 0, i16 0, i16 0, i16 0, i16 0, i16 0, i16 0, i16 0, i16 0, i16 0, i16 0, i16 0, i16 0, i16 0, i16 0, i16 0, i16 0, i16 6], [8 x i16] zeroinitializer }>, [34 x i16] [i16 0, i16 0, i16 0, i16 0, i16 0, i16 2, i16 0, i16 0, i16 0, i16 2, i16 0, i16 34, i16 0, i16 0, i16 0, i16 0, i16 0, i16 1, i16 0, i16 0, i16 0, i16 0, i16 0, i16 0, i16 0, i16 0, i16 0, i16 0, i16 0, i16 2, i16 0, i16 0, i16 0, i16 0], [34 x i16] [i16 0, i16 0, i16 0, i16 0, i16 0, i16 2, i16 0, i16 0, i16 0, i16 2, i16 66, i16 34, i16 0, i16 0, i16 0, i16 0, i16 0, i16 1, i16 0, i16 0, i16 0, i16 0, i16 0, i16 0, i16 0, i16 0, i16 0, i16 0, i16 0, i16 2, i16 2050, i16 0, i16 0, i16 0], [34 x i16] [i16 0, i16 0, i16 0, i16 0, i16 0, i16 2, i16 0, i16 0, i16 0, i16 2, i16 0, i16 34, i16 0, i16 0, i16 0, i16 0, i16 0, i16 0, i16 0, i16 0, i16 0, i16 0, i16 1, i16 0, i16 0, i16 0, i16 0, i16 0, i16 0, i16 0, i16 2050, i16 0, i16 0, i16 0], <{ [18 x i16], [16 x i16] }> <{ [18 x i16] [i16 0, i16 0, i16 0, i16 0, i16 0, i16 0, i16 0, i16 0, i16 0, i16 0, i16 0, i16 34, i16 0, i16 0, i16 0, i16 0, i16 0, i16 1], [16 x i16] zeroinitializer }>, <{ [23 x i16], [11 x i16] }> <{ [23 x i16] [i16 0, i16 0, i16 0, i16 0, i16 0, i16 0, i16 0, i16 0, i16 0, i16 0, i16 0, i16 34, i16 0, i16 0, i16 0, i16 0, i16 0, i16 0, i16 0, i16 0, i16 0, i16 0, i16 1], [11 x i16] zeroinitializer }>, <{ [16 x i16], [18 x i16] }> <{ [16 x i16] [i16 0, i16 0, i16 0, i16 0, i16 0, i16 0, i16 0, i16 0, i16 0, i16 0, i16 0, i16 34, i16 0, i16 130, i16 0, i16 10], [18 x i16] zeroinitializer }>, <{ [17 x i16], [17 x i16] }> <{ [17 x i16] [i16 0, i16 0, i16 0, i16 0, i16 0, i16 0, i16 0, i16 0, i16 0, i16 0, i16 0, i16 34, i16 0, i16 0, i16 0, i16 0, i16 18], [17 x i16] zeroinitializer }>, <{ [18 x i16], [16 x i16] }> <{ [18 x i16] [i16 18, i16 0, i16 0, i16 2, i16 0, i16 0, i16 0, i16 2, i16 0, i16 0, i16 0, i16 34, i16 0, i16 0, i16 0, i16 0, i16 18, i16 1], [16 x i16] zeroinitializer }>, <{ [17 x i16], [17 x i16] }> <{ [17 x i16] [i16 0, i16 0, i16 0, i16 0, i16 0, i16 0, i16 0, i16 0, i16 0, i16 0, i16 0, i16 34, i16 0, i16 0, i16 0, i16 0, i16 18], [17 x i16] zeroinitializer }>, <{ [26 x i16], [8 x i16] }> <{ [26 x i16] [i16 0, i16 0, i16 0, i16 0, i16 0, i16 0, i16 0, i16 0, i16 0, i16 0, i16 0, i16 0, i16 0, i16 0, i16 0, i16 0, i16 0, i16 0, i16 0, i16 0, i16 0, i16 0, i16 0, i16 0, i16 0, i16 6], [8 x i16] zeroinitializer }>, [34 x i16] [i16 18, i16 0, i16 0, i16 2, i16 0, i16 2, i16 0, i16 2, i16 0, i16 2, i16 0, i16 34, i16 0, i16 0, i16 0, i16 0, i16 0, i16 1, i16 0, i16 18, i16 0, i16 0, i16 0, i16 0, i16 0, i16 0, i16 2, i16 0, i16 0, i16 2, i16 0, i16 0, i16 0, i16 0], [34 x i16] [i16 0, i16 0, i16 0, i16 2, i16 0, i16 2, i16 0, i16 0, i16 0, i16 2, i16 66, i16 34, i16 0, i16 130, i16 0, i16 10, i16 0, i16 1, i16 0, i16 18, i16 0, i16 0, i16 0, i16 0, i16 0, i16 0, i16 0, i16 0, i16 0, i16 2, i16 0, i16 0, i16 0, i16 0], <{ [23 x i16], [11 x i16] }> <{ [23 x i16] [i16 0, i16 0, i16 0, i16 0, i16 0, i16 0, i16 0, i16 0, i16 0, i16 0, i16 0, i16 34, i16 0, i16 130, i16 0, i16 10, i16 0, i16 0, i16 0, i16 0, i16 0, i16 0, i16 1], [11 x i16] zeroinitializer }>, [34 x i16] [i16 0, i16 0, i16 0, i16 0, i16 0, i16 0, i16 0, i16 0, i16 0, i16 0, i16 0, i16 34, i16 0, i16 0, i16 0, i16 0, i16 0, i16 0, i16 0, i16 0, i16 0, i16 0, i16 0, i16 0, i16 0, i16 0, i16 0, i16 0, i16 0, i16 0, i16 0, i16 2, i16 0, i16 0], <{ [12 x i16], [22 x i16] }> <{ [12 x i16] [i16 0, i16 0, i16 1, i16 0, i16 0, i16 0, i16 0, i16 0, i16 0, i16 0, i16 0, i16 34], [22 x i16] zeroinitializer }>, [34 x i16] [i16 0, i16 0, i16 0, i16 0, i16 0, i16 0, i16 0, i16 0, i16 0, i16 0, i16 0, i16 34, i16 0, i16 0, i16 0, i16 0, i16 0, i16 0, i16 0, i16 0, i16 0, i16 0, i16 0, i16 0, i16 0, i16 0, i16 0, i16 0, i16 0, i16 0, i16 0, i16 0, i16 0, i16 1], [34 x i16] [i16 0, i16 0, i16 0, i16 0, i16 0, i16 0, i16 0, i16 0, i16 0, i16 18, i16 0, i16 34, i16 0, i16 0, i16 0, i16 0, i16 0, i16 0, i16 0, i16 0, i16 0, i16 0, i16 0, i16 0, i16 0, i16 0, i16 0, i16 0, i16 0, i16 0, i16 0, i16 10, i16 0, i16 0], <{ [18 x i16], [16 x i16] }> <{ [18 x i16] [i16 0, i16 0, i16 0, i16 0, i16 0, i16 0, i16 0, i16 0, i16 0, i16 0, i16 0, i16 34, i16 0, i16 0, i16 0, i16 0, i16 0, i16 1], [16 x i16] zeroinitializer }>, <{ [23 x i16], [11 x i16] }> <{ [23 x i16] [i16 0, i16 0, i16 0, i16 0, i16 0, i16 0, i16 0, i16 0, i16 0, i16 0, i16 0, i16 34, i16 0, i16 130, i16 0, i16 10, i16 0, i16 0, i16 0, i16 0, i16 0, i16 0, i16 1], [11 x i16] zeroinitializer }>, <{ [25 x i16], [9 x i16] }> <{ [25 x i16] [i16 0, i16 0, i16 0, i16 0, i16 0, i16 0, i16 0, i16 0, i16 0, i16 0, i16 0, i16 34, i16 0, i16 0, i16 0, i16 0, i16 0, i16 0, i16 2, i16 0, i16 0, i16 0, i16 0, i16 0, i16 2], [9 x i16] zeroinitializer }>, <{ [25 x i16], [9 x i16] }> <{ [25 x i16] [i16 0, i16 0, i16 0, i16 0, i16 0, i16 0, i16 0, i16 0, i16 0, i16 0, i16 0, i16 34, i16 0, i16 0, i16 0, i16 0, i16 0, i16 0, i16 0, i16 0, i16 0, i16 0, i16 0, i16 0, i16 1], [9 x i16] zeroinitializer }>, <{ [18 x i16], [16 x i16] }> <{ [18 x i16] [i16 0, i16 0, i16 0, i16 0, i16 0, i16 0, i16 0, i16 0, i16 0, i16 0, i16 0, i16 34, i16 0, i16 0, i16 0, i16 0, i16 0, i16 1], [16 x i16] zeroinitializer }>, <{ [24 x i16], [10 x i16] }> <{ [24 x i16] [i16 0, i16 0, i16 0, i16 0, i16 0, i16 0, i16 0, i16 0, i16 0, i16 0, i16 0, i16 34, i16 0, i16 0, i16 0, i16 0, i16 0, i16 1, i16 0, i16 0, i16 0, i16 0, i16 0, i16 1], [10 x i16] zeroinitializer }>, [34 x i16] [i16 0, i16 0, i16 0, i16 0, i16 0, i16 0, i16 0, i16 0, i16 0, i16 18, i16 0, i16 34, i16 0, i16 0, i16 0, i16 0, i16 0, i16 0, i16 0, i16 0, i16 0, i16 0, i16 0, i16 0, i16 0, i16 0, i16 0, i16 0, i16 0, i16 0, i16 0, i16 10, i16 0, i16 0], <{ [13 x i16], [21 x i16] }> <{ [13 x i16] [i16 0, i16 0, i16 0, i16 0, i16 0, i16 0, i16 0, i16 0, i16 0, i16 0, i16 0, i16 34, i16 2], [21 x i16] zeroinitializer }>, [34 x i16] [i16 0, i16 0, i16 0, i16 0, i16 0, i16 0, i16 0, i16 0, i16 0, i16 18, i16 0, i16 34, i16 0, i16 0, i16 0, i16 0, i16 0, i16 0, i16 0, i16 0, i16 0, i16 0, i16 0, i16 0, i16 0, i16 0, i16 0, i16 0, i16 0, i16 0, i16 0, i16 2, i16 0, i16 0], [34 x i16] [i16 0, i16 0, i16 0, i16 0, i16 0, i16 0, i16 0, i16 0, i16 0, i16 18, i16 0, i16 34, i16 0, i16 0, i16 0, i16 0, i16 0, i16 0, i16 0, i16 0, i16 0, i16 0, i16 0, i16 0, i16 0, i16 0, i16 0, i16 0, i16 0, i16 0, i16 0, i16 2, i16 0, i16 0], [34 x i16] [i16 0, i16 0, i16 0, i16 0, i16 0, i16 0, i16 0, i16 0, i16 0, i16 18, i16 0, i16 34, i16 0, i16 0, i16 0, i16 0, i16 0, i16 0, i16 0, i16 0, i16 0, i16 0, i16 0, i16 0, i16 0, i16 0, i16 0, i16 0, i16 0, i16 0, i16 0, i16 10, i16 0, i16 0], [34 x i16] [i16 0, i16 0, i16 0, i16 0, i16 0, i16 0, i16 0, i16 0, i16 0, i16 18, i16 0, i16 34, i16 0, i16 0, i16 0, i16 0, i16 0, i16 0, i16 0, i16 0, i16 0, i16 0, i16 0, i16 0, i16 0, i16 0, i16 0, i16 0, i16 0, i16 0, i16 0, i16 2, i16 0, i16 0], [34 x i16] [i16 0, i16 0, i16 0, i16 0, i16 0, i16 0, i16 0, i16 0, i16 0, i16 18, i16 0, i16 34, i16 0, i16 0, i16 0, i16 0, i16 0, i16 0, i16 0, i16 0, i16 0, i16 0, i16 0, i16 0, i16 0, i16 0, i16 0, i16 0, i16 0, i16 0, i16 0, i16 2, i16 0, i16 0], [34 x i16] [i16 0, i16 0, i16 0, i16 0, i16 0, i16 0, i16 0, i16 0, i16 0, i16 18, i16 0, i16 34, i16 0, i16 0, i16 0, i16 0, i16 0, i16 0, i16 0, i16 0, i16 0, i16 0, i16 0, i16 0, i16 0, i16 0, i16 0, i16 0, i16 0, i16 0, i16 0, i16 10, i16 0, i16 0], [34 x i16] [i16 0, i16 0, i16 0, i16 0, i16 0, i16 0, i16 0, i16 0, i16 0, i16 0, i16 0, i16 34, i16 0, i16 0, i16 0, i16 0, i16 0, i16 1, i16 0, i16 0, i16 0, i16 1, i16 0, i16 0, i16 0, i16 0, i16 0, i16 6, i16 0, i16 0, i16 0, i16 0, i16 0, i16 0], [34 x i16] [i16 0, i16 0, i16 0, i16 0, i16 0, i16 0, i16 0, i16 0, i16 0, i16 0, i16 0, i16 2, i16 0, i16 0, i16 0, i16 0, i16 0, i16 0, i16 0, i16 0, i16 0, i16 0, i16 0, i16 0, i16 0, i16 0, i16 0, i16 0, i16 0, i16 0, i16 0, i16 2, i16 0, i16 0], <{ [25 x i16], [9 x i16] }> <{ [25 x i16] [i16 0, i16 0, i16 0, i16 0, i16 0, i16 0, i16 0, i16 0, i16 0, i16 0, i16 0, i16 34, i16 0, i16 0, i16 0, i16 0, i16 0, i16 0, i16 0, i16 0, i16 0, i16 0, i16 0, i16 0, i16 1], [9 x i16] zeroinitializer }>, <{ [12 x i16], [22 x i16] }> <{ [12 x i16] [i16 0, i16 0, i16 2, i16 0, i16 0, i16 0, i16 0, i16 0, i16 0, i16 0, i16 0, i16 34], [22 x i16] zeroinitializer }>, [34 x i16] [i16 0, i16 66, i16 0, i16 0, i16 2, i16 0, i16 66, i16 0, i16 2, i16 0, i16 0, i16 34, i16 0, i16 0, i16 0, i16 0, i16 0, i16 0, i16 0, i16 0, i16 0, i16 0, i16 0, i16 0, i16 0, i16 0, i16 0, i16 0, i16 2, i16 0, i16 0, i16 0, i16 2, i16 0], [34 x i16] [i16 0, i16 0, i16 0, i16 0, i16 0, i16 0, i16 0, i16 0, i16 0, i16 0, i16 0, i16 34, i16 0, i16 0, i16 0, i16 0, i16 0, i16 0, i16 0, i16 0, i16 0, i16 0, i16 0, i16 0, i16 0, i16 0, i16 0, i16 0, i16 0, i16 0, i16 0, i16 0, i16 0, i16 1], <{ [16 x i16], [18 x i16] }> <{ [16 x i16] [i16 0, i16 0, i16 0, i16 0, i16 0, i16 0, i16 0, i16 0, i16 0, i16 0, i16 0, i16 34, i16 0, i16 130, i16 0, i16 10], [18 x i16] zeroinitializer }>, <{ [12 x i16], [22 x i16] }> <{ [12 x i16] [i16 0, i16 0, i16 0, i16 0, i16 0, i16 0, i16 0, i16 0, i16 0, i16 0, i16 0, i16 34], [22 x i16] zeroinitializer }>, <{ [18 x i16], [16 x i16] }> <{ [18 x i16] [i16 0, i16 0, i16 0, i16 0, i16 0, i16 0, i16 0, i16 2, i16 0, i16 0, i16 0, i16 34, i16 0, i16 0, i16 0, i16 0, i16 0, i16 1], [16 x i16] zeroinitializer }>, <{ [12 x i16], [22 x i16] }> <{ [12 x i16] [i16 0, i16 0, i16 0, i16 0, i16 0, i16 0, i16 0, i16 2, i16 0, i16 0, i16 0, i16 34], [22 x i16] zeroinitializer }>, [34 x i16] [i16 0, i16 0, i16 0, i16 0, i16 0, i16 0, i16 0, i16 0, i16 0, i16 18, i16 0, i16 34, i16 0, i16 0, i16 0, i16 0, i16 0, i16 0, i16 0, i16 0, i16 0, i16 0, i16 0, i16 0, i16 0, i16 0, i16 0, i16 0, i16 0, i16 0, i16 0, i16 10, i16 0, i16 0], <{ [15 x i16], [19 x i16] }> <{ [15 x i16] [i16 0, i16 0, i16 0, i16 0, i16 0, i16 0, i16 0, i16 0, i16 0, i16 0, i16 0, i16 34, i16 0, i16 0, i16 2], [19 x i16] zeroinitializer }>, <{ [18 x i16], [16 x i16] }> <{ [18 x i16] [i16 0, i16 0, i16 0, i16 0, i16 0, i16 0, i16 0, i16 0, i16 0, i16 0, i16 0, i16 34, i16 0, i16 0, i16 0, i16 0, i16 0, i16 1], [16 x i16] zeroinitializer }>, [34 x i16] [i16 0, i16 0, i16 0, i16 0, i16 0, i16 0, i16 0, i16 0, i16 0, i16 18, i16 0, i16 34, i16 0, i16 0, i16 0, i16 0, i16 0, i16 0, i16 0, i16 0, i16 0, i16 0, i16 0, i16 0, i16 0, i16 0, i16 0, i16 0, i16 0, i16 0, i16 0, i16 4098, i16 0, i16 0] }>, align 16, !dbg !2277
@_ZTVN11xercesc_2_710XMLDeleterE = linkonce_odr dso_local unnamed_addr constant { [4 x i8*] } { [4 x i8*] [i8* null, i8* bitcast ({ i8*, i8* }* @_ZTIN11xercesc_2_710XMLDeleterE to i8*), i8* bitcast (void (%"class.xercesc_2_7::XMLDeleter"*)* @_ZN11xercesc_2_710XMLDeleterD2Ev to i8*), i8* bitcast (void (%"class.xercesc_2_7::XMLDeleter"*)* @_ZN11xercesc_2_710XMLDeleterD0Ev to i8*)] }, comdat, align 8
@_ZTSN11xercesc_2_710XMLDeleterE = linkonce_odr dso_local constant [28 x i8] c"N11xercesc_2_710XMLDeleterE\00", comdat, align 1
@_ZTIN11xercesc_2_710XMLDeleterE = linkonce_odr dso_local constant { i8*, i8* } { i8* bitcast (i8** getelementptr inbounds (i8*, i8** @_ZTVN10__cxxabiv117__class_type_infoE, i64 2) to i8*), i8* getelementptr inbounds ([28 x i8], [28 x i8]* @_ZTSN11xercesc_2_710XMLDeleterE, i32 0, i32 0) }, comdat, align 8
@_ZTVN10__cxxabiv121__vmi_class_type_infoE = external dso_local global i8*
@_ZTSN11xercesc_2_710XMLRefInfoE = linkonce_odr dso_local constant [28 x i8] c"N11xercesc_2_710XMLRefInfoE\00", comdat, align 1
@_ZTSN11xercesc_2_713XSerializableE = linkonce_odr dso_local constant [31 x i8] c"N11xercesc_2_713XSerializableE\00", comdat, align 1
@_ZTIN11xercesc_2_713XSerializableE = linkonce_odr dso_local constant { i8*, i8* } { i8* bitcast (i8** getelementptr inbounds (i8*, i8** @_ZTVN10__cxxabiv117__class_type_infoE, i64 2) to i8*), i8* getelementptr inbounds ([31 x i8], [31 x i8]* @_ZTSN11xercesc_2_713XSerializableE, i32 0, i32 0) }, comdat, align 8
@_ZTIN11xercesc_2_710XMLRefInfoE = linkonce_odr dso_local constant { i8*, i8*, i32, i32, i8*, i64, i8*, i64 } { i8* bitcast (i8** getelementptr inbounds (i8*, i8** @_ZTVN10__cxxabiv121__vmi_class_type_infoE, i64 2) to i8*), i8* getelementptr inbounds ([28 x i8], [28 x i8]* @_ZTSN11xercesc_2_710XMLRefInfoE, i32 0, i32 0), i32 0, i32 2, i8* bitcast ({ i8*, i8* }* @_ZTIN11xercesc_2_713XSerializableE to i8*), i64 2, i8* bitcast ({ i8*, i8* }* @_ZTIN11xercesc_2_77XMemoryE to i8*), i64 2 }, comdat, align 8
@_ZTVN11xercesc_2_713XMLAttDefListE = linkonce_odr dso_local unnamed_addr constant { [18 x i8*] } { [18 x i8*] [i8* null, i8* bitcast ({ i8*, i8*, i32, i32, i8*, i64, i8*, i64 }* @_ZTIN11xercesc_2_713XMLAttDefListE to i8*), i8* bitcast (void (%"class.xercesc_2_7::XMLAttDefList"*)* @_ZN11xercesc_2_713XMLAttDefListD2Ev to i8*), i8* bitcast (void (%"class.xercesc_2_7::XMLAttDefList"*)* @_ZN11xercesc_2_713XMLAttDefListD0Ev to i8*), i8* bitcast (i1 (%"class.xercesc_2_7::XMLAttDefList"*)* @_ZNK11xercesc_2_713XMLAttDefList14isSerializableEv to i8*), i8* bitcast (void (%"class.xercesc_2_7::XMLAttDefList"*, %"class.xercesc_2_7::XSerializeEngine"*)* @_ZN11xercesc_2_713XMLAttDefList9serializeERNS_16XSerializeEngineE to i8*), i8* bitcast (%"class.xercesc_2_7::XProtoType"* (%"class.xercesc_2_7::XMLAttDefList"*)* @_ZNK11xercesc_2_713XMLAttDefList12getProtoTypeEv to i8*), i8* bitcast (void ()* @__cxa_pure_virtual to i8*), i8* bitcast (void ()* @__cxa_pure_virtual to i8*), i8* bitcast (void ()* @__cxa_pure_virtual to i8*), i8* bitcast (void ()* @__cxa_pure_virtual to i8*), i8* bitcast (void ()* @__cxa_pure_virtual to i8*), i8* bitcast (void ()* @__cxa_pure_virtual to i8*), i8* bitcast (void ()* @__cxa_pure_virtual to i8*), i8* bitcast (void ()* @__cxa_pure_virtual to i8*), i8* bitcast (void ()* @__cxa_pure_virtual to i8*), i8* bitcast (void ()* @__cxa_pure_virtual to i8*), i8* bitcast (void ()* @__cxa_pure_virtual to i8*)] }, comdat, align 8
@_ZTSN11xercesc_2_713XMLAttDefListE = linkonce_odr dso_local constant [31 x i8] c"N11xercesc_2_713XMLAttDefListE\00", comdat, align 1
@_ZTIN11xercesc_2_713XMLAttDefListE = linkonce_odr dso_local constant { i8*, i8*, i32, i32, i8*, i64, i8*, i64 } { i8* bitcast (i8** getelementptr inbounds (i8*, i8** @_ZTVN10__cxxabiv121__vmi_class_type_infoE, i64 2) to i8*), i8* getelementptr inbounds ([31 x i8], [31 x i8]* @_ZTSN11xercesc_2_713XMLAttDefListE, i32 0, i32 0), i32 0, i32 2, i8* bitcast ({ i8*, i8* }* @_ZTIN11xercesc_2_713XSerializableE to i8*), i64 2, i8* bitcast ({ i8*, i8* }* @_ZTIN11xercesc_2_77XMemoryE to i8*), i64 2 }, comdat, align 8
@_ZTSN11xercesc_2_715ContentSpecNodeE = linkonce_odr dso_local constant [33 x i8] c"N11xercesc_2_715ContentSpecNodeE\00", comdat, align 1
@_ZTIN11xercesc_2_715ContentSpecNodeE = linkonce_odr dso_local constant { i8*, i8*, i32, i32, i8*, i64, i8*, i64 } { i8* bitcast (i8** getelementptr inbounds (i8*, i8** @_ZTVN10__cxxabiv121__vmi_class_type_infoE, i64 2) to i8*), i8* getelementptr inbounds ([33 x i8], [33 x i8]* @_ZTSN11xercesc_2_715ContentSpecNodeE, i32 0, i32 0), i32 0, i32 2, i8* bitcast ({ i8*, i8* }* @_ZTIN11xercesc_2_713XSerializableE to i8*), i64 2, i8* bitcast ({ i8*, i8* }* @_ZTIN11xercesc_2_77XMemoryE to i8*), i64 2 }, comdat, align 8
@_ZN11xercesc_2_724DatatypeValidatorFactory16fBuiltInRegistryE = external dso_local global %"class.xercesc_2_7::RefHashTableOf.2"*, align 8
@.str = private unnamed_addr constant [34 x i8] c"./xercesc/util/ValueHashTableOf.c\00", align 1
@_ZTSN11xercesc_2_722NoSuchElementExceptionE = linkonce_odr dso_local constant [40 x i8] c"N11xercesc_2_722NoSuchElementExceptionE\00", comdat, align 1
@_ZTIN11xercesc_2_722NoSuchElementExceptionE = linkonce_odr dso_local constant { i8*, i8*, i8* } { i8* bitcast (i8** getelementptr inbounds (i8*, i8** @_ZTVN10__cxxabiv120__si_class_type_infoE, i64 2) to i8*), i8* getelementptr inbounds ([40 x i8], [40 x i8]* @_ZTSN11xercesc_2_722NoSuchElementExceptionE, i32 0, i32 0), i8* bitcast (i8** @_ZTIN11xercesc_2_712XMLExceptionE to i8*) }, comdat, align 8
@_ZTVN11xercesc_2_722NoSuchElementExceptionE = linkonce_odr dso_local unnamed_addr constant { [6 x i8*] } { [6 x i8*] [i8* null, i8* bitcast ({ i8*, i8*, i8* }* @_ZTIN11xercesc_2_722NoSuchElementExceptionE to i8*), i8* bitcast (void (%"class.xercesc_2_7::NoSuchElementException"*)* @_ZN11xercesc_2_722NoSuchElementExceptionD2Ev to i8*), i8* bitcast (void (%"class.xercesc_2_7::NoSuchElementException"*)* @_ZN11xercesc_2_722NoSuchElementExceptionD0Ev to i8*), i8* bitcast (i16* (%"class.xercesc_2_7::NoSuchElementException"*)* @_ZNK11xercesc_2_722NoSuchElementException7getTypeEv to i8*), i8* bitcast (%"class.xercesc_2_7::XMLException"* (%"class.xercesc_2_7::NoSuchElementException"*)* @_ZNK11xercesc_2_722NoSuchElementException9duplicateEv to i8*)] }, comdat, align 8
@_ZN11xercesc_2_76XMLUni29fgNoSuchElementException_NameE = external dso_local constant [0 x i16], align 2
@_ZTSN11xercesc_2_724IllegalArgumentExceptionE = linkonce_odr dso_local constant [42 x i8] c"N11xercesc_2_724IllegalArgumentExceptionE\00", comdat, align 1
@_ZTIN11xercesc_2_724IllegalArgumentExceptionE = linkonce_odr dso_local constant { i8*, i8*, i8* } { i8* bitcast (i8** getelementptr inbounds (i8*, i8** @_ZTVN10__cxxabiv120__si_class_type_infoE, i64 2) to i8*), i8* getelementptr inbounds ([42 x i8], [42 x i8]* @_ZTSN11xercesc_2_724IllegalArgumentExceptionE, i32 0, i32 0), i8* bitcast (i8** @_ZTIN11xercesc_2_712XMLExceptionE to i8*) }, comdat, align 8
@_ZTVN11xercesc_2_724IllegalArgumentExceptionE = linkonce_odr dso_local unnamed_addr constant { [6 x i8*] } { [6 x i8*] [i8* null, i8* bitcast ({ i8*, i8*, i8* }* @_ZTIN11xercesc_2_724IllegalArgumentExceptionE to i8*), i8* bitcast (void (%"class.xercesc_2_7::IllegalArgumentException"*)* @_ZN11xercesc_2_724IllegalArgumentExceptionD2Ev to i8*), i8* bitcast (void (%"class.xercesc_2_7::IllegalArgumentException"*)* @_ZN11xercesc_2_724IllegalArgumentExceptionD0Ev to i8*), i8* bitcast (i16* (%"class.xercesc_2_7::IllegalArgumentException"*)* @_ZNK11xercesc_2_724IllegalArgumentException7getTypeEv to i8*), i8* bitcast (%"class.xercesc_2_7::XMLException"* (%"class.xercesc_2_7::IllegalArgumentException"*)* @_ZNK11xercesc_2_724IllegalArgumentException9duplicateEv to i8*)] }, comdat, align 8
@_ZN11xercesc_2_76XMLUni31fgIllegalArgumentException_NameE = external dso_local constant [0 x i16], align 2
@llvm.global_ctors = appending global [1 x { i32, void ()*, i8* }] [{ i32, void ()*, i8* } { i32 65535, void ()* @_GLOBAL__sub_I_GeneralAttributeCheck.cpp, i8* null }]

@_ZN11xercesc_2_721GeneralAttributeCheckC1EPNS_13MemoryManagerE = dso_local unnamed_addr alias void (%"class.xercesc_2_7::GeneralAttributeCheck"*, %"class.xercesc_2_7::MemoryManager"*), void (%"class.xercesc_2_7::GeneralAttributeCheck"*, %"class.xercesc_2_7::MemoryManager"*)* @_ZN11xercesc_2_721GeneralAttributeCheckC2EPNS_13MemoryManagerE
@_ZN11xercesc_2_721GeneralAttributeCheckD1Ev = dso_local unnamed_addr alias void (%"class.xercesc_2_7::GeneralAttributeCheck"*), void (%"class.xercesc_2_7::GeneralAttributeCheck"*)* @_ZN11xercesc_2_721GeneralAttributeCheckD2Ev

; Function Attrs: nounwind readnone speculatable willreturn
declare void @llvm.dbg.declare(metadata, metadata, metadata) #0

; Function Attrs: noinline nounwind uwtable
define linkonce_odr dso_local void @_ZN11xercesc_2_710XMLDeleterD0Ev(%"class.xercesc_2_7::XMLDeleter"* %this) unnamed_addr #1 comdat align 2 !dbg !3123 {
entry:
  %this.addr = alloca %"class.xercesc_2_7::XMLDeleter"*, align 8
  store %"class.xercesc_2_7::XMLDeleter"* %this, %"class.xercesc_2_7::XMLDeleter"** %this.addr, align 8
  call void @llvm.dbg.declare(metadata %"class.xercesc_2_7::XMLDeleter"** %this.addr, metadata !3145, metadata !DIExpression()), !dbg !3147
  %this1 = load %"class.xercesc_2_7::XMLDeleter"*, %"class.xercesc_2_7::XMLDeleter"** %this.addr, align 8
  call void @_ZN11xercesc_2_710XMLDeleterD2Ev(%"class.xercesc_2_7::XMLDeleter"* %this1) #10, !dbg !3148
  %0 = bitcast %"class.xercesc_2_7::XMLDeleter"* %this1 to i8*, !dbg !3148
  call void @_ZdlPv(i8* %0) #11, !dbg !3148
  ret void, !dbg !3149
}

; Function Attrs: noinline nounwind uwtable
define linkonce_odr dso_local void @_ZN11xercesc_2_710XMLDeleterD2Ev(%"class.xercesc_2_7::XMLDeleter"* %this) unnamed_addr #1 comdat align 2 !dbg !3150 {
entry:
  %this.addr = alloca %"class.xercesc_2_7::XMLDeleter"*, align 8
  store %"class.xercesc_2_7::XMLDeleter"* %this, %"class.xercesc_2_7::XMLDeleter"** %this.addr, align 8
  call void @llvm.dbg.declare(metadata %"class.xercesc_2_7::XMLDeleter"** %this.addr, metadata !3151, metadata !DIExpression()), !dbg !3152
  %this1 = load %"class.xercesc_2_7::XMLDeleter"*, %"class.xercesc_2_7::XMLDeleter"** %this.addr, align 8
  ret void, !dbg !3153
}

; Function Attrs: nobuiltin nounwind
declare dso_local void @_ZdlPv(i8*) #2

declare dso_local i32 @__gxx_personality_v0(...)

; Function Attrs: noinline nounwind uwtable
define linkonce_odr dso_local void @_ZN11xercesc_2_713XSerializableD2Ev(%"class.xercesc_2_7::XSerializable"* %this) unnamed_addr #1 comdat align 2 !dbg !3154 {
entry:
  %this.addr = alloca %"class.xercesc_2_7::XSerializable"*, align 8
  store %"class.xercesc_2_7::XSerializable"* %this, %"class.xercesc_2_7::XSerializable"** %this.addr, align 8
  call void @llvm.dbg.declare(metadata %"class.xercesc_2_7::XSerializable"** %this.addr, metadata !3159, metadata !DIExpression()), !dbg !3160
  %this1 = load %"class.xercesc_2_7::XSerializable"*, %"class.xercesc_2_7::XSerializable"** %this.addr, align 8
  ret void, !dbg !3161
}

; Function Attrs: noinline noreturn nounwind
define linkonce_odr hidden void @__clang_call_terminate(i8* %0) #3 comdat {
  %2 = call i8* @__cxa_begin_catch(i8* %0) #10
  call void @_ZSt9terminatev() #12
  unreachable
}

declare dso_local i8* @__cxa_begin_catch(i8*)

declare dso_local void @_ZSt9terminatev()

; Function Attrs: noinline nounwind uwtable
define linkonce_odr dso_local void @_ZN11xercesc_2_710XMLRefInfoD0Ev(%"class.xercesc_2_7::XMLRefInfo"* %this) unnamed_addr #1 comdat align 2 !dbg !3162 {
entry:
  %this.addr = alloca %"class.xercesc_2_7::XMLRefInfo"*, align 8
  store %"class.xercesc_2_7::XMLRefInfo"* %this, %"class.xercesc_2_7::XMLRefInfo"** %this.addr, align 8
  call void @llvm.dbg.declare(metadata %"class.xercesc_2_7::XMLRefInfo"** %this.addr, metadata !3212, metadata !DIExpression()), !dbg !3214
  %this1 = load %"class.xercesc_2_7::XMLRefInfo"*, %"class.xercesc_2_7::XMLRefInfo"** %this.addr, align 8
  call void @_ZN11xercesc_2_710XMLRefInfoD2Ev(%"class.xercesc_2_7::XMLRefInfo"* %this1) #10, !dbg !3215
  %0 = bitcast %"class.xercesc_2_7::XMLRefInfo"* %this1 to i8*, !dbg !3215
  call void @_ZN11xercesc_2_77XMemorydlEPv(i8* %0) #10, !dbg !3215
  ret void, !dbg !3216
}

; Function Attrs: noinline nounwind uwtable
define linkonce_odr dso_local void @_ZN11xercesc_2_710XMLRefInfoD2Ev(%"class.xercesc_2_7::XMLRefInfo"* %this) unnamed_addr #1 comdat align 2 personality i8* bitcast (i32 (...)* @__gxx_personality_v0 to i8*) !dbg !3217 {
entry:
  %this.addr = alloca %"class.xercesc_2_7::XMLRefInfo"*, align 8
  %exn.slot = alloca i8*
  %ehselector.slot = alloca i32
  store %"class.xercesc_2_7::XMLRefInfo"* %this, %"class.xercesc_2_7::XMLRefInfo"** %this.addr, align 8
  call void @llvm.dbg.declare(metadata %"class.xercesc_2_7::XMLRefInfo"** %this.addr, metadata !3218, metadata !DIExpression()), !dbg !3219
  %this1 = load %"class.xercesc_2_7::XMLRefInfo"*, %"class.xercesc_2_7::XMLRefInfo"** %this.addr, align 8
  %0 = bitcast %"class.xercesc_2_7::XMLRefInfo"* %this1 to i32 (...)***, !dbg !3220
  store i32 (...)** bitcast (i8** getelementptr inbounds ({ [7 x i8*] }, { [7 x i8*] }* @_ZTVN11xercesc_2_710XMLRefInfoE, i32 0, inrange i32 0, i32 2) to i32 (...)**), i32 (...)*** %0, align 8, !dbg !3220
  %fMemoryManager = getelementptr inbounds %"class.xercesc_2_7::XMLRefInfo", %"class.xercesc_2_7::XMLRefInfo"* %this1, i32 0, i32 4, !dbg !3221
  %1 = load %"class.xercesc_2_7::MemoryManager"*, %"class.xercesc_2_7::MemoryManager"** %fMemoryManager, align 8, !dbg !3221
  %fRefName = getelementptr inbounds %"class.xercesc_2_7::XMLRefInfo", %"class.xercesc_2_7::XMLRefInfo"* %this1, i32 0, i32 3, !dbg !3223
  %2 = load i16*, i16** %fRefName, align 8, !dbg !3223
  %3 = bitcast i16* %2 to i8*, !dbg !3223
  %4 = bitcast %"class.xercesc_2_7::MemoryManager"* %1 to void (%"class.xercesc_2_7::MemoryManager"*, i8*)***, !dbg !3224
  %vtable = load void (%"class.xercesc_2_7::MemoryManager"*, i8*)**, void (%"class.xercesc_2_7::MemoryManager"*, i8*)*** %4, align 8, !dbg !3224
  %vfn = getelementptr inbounds void (%"class.xercesc_2_7::MemoryManager"*, i8*)*, void (%"class.xercesc_2_7::MemoryManager"*, i8*)** %vtable, i64 3, !dbg !3224
  %5 = load void (%"class.xercesc_2_7::MemoryManager"*, i8*)*, void (%"class.xercesc_2_7::MemoryManager"*, i8*)** %vfn, align 8, !dbg !3224
  invoke void %5(%"class.xercesc_2_7::MemoryManager"* %1, i8* %3)
          to label %invoke.cont unwind label %lpad, !dbg !3224

invoke.cont:                                      ; preds = %entry
  %6 = bitcast %"class.xercesc_2_7::XMLRefInfo"* %this1 to %"class.xercesc_2_7::XSerializable"*, !dbg !3225
  call void @_ZN11xercesc_2_713XSerializableD2Ev(%"class.xercesc_2_7::XSerializable"* %6) #10, !dbg !3225
  ret void, !dbg !3226

lpad:                                             ; preds = %entry
  %7 = landingpad { i8*, i32 }
          catch i8* null, !dbg !3225
  %8 = extractvalue { i8*, i32 } %7, 0, !dbg !3225
  store i8* %8, i8** %exn.slot, align 8, !dbg !3225
  %9 = extractvalue { i8*, i32 } %7, 1, !dbg !3225
  store i32 %9, i32* %ehselector.slot, align 4, !dbg !3225
  %10 = bitcast %"class.xercesc_2_7::XMLRefInfo"* %this1 to %"class.xercesc_2_7::XSerializable"*, !dbg !3225
  call void @_ZN11xercesc_2_713XSerializableD2Ev(%"class.xercesc_2_7::XSerializable"* %10) #10, !dbg !3225
  br label %terminate.handler, !dbg !3225

terminate.handler:                                ; preds = %lpad
  %exn = load i8*, i8** %exn.slot, align 8, !dbg !3225
  call void @__clang_call_terminate(i8* %exn) #12, !dbg !3225
  unreachable, !dbg !3225
}

; Function Attrs: nounwind
declare dso_local void @_ZN11xercesc_2_77XMemorydlEPv(i8*) #4

; Function Attrs: noinline nounwind uwtable
define linkonce_odr dso_local void @_ZN11xercesc_2_713XMLAttDefListD0Ev(%"class.xercesc_2_7::XMLAttDefList"* %this) unnamed_addr #1 comdat align 2 !dbg !3227 {
entry:
  %this.addr = alloca %"class.xercesc_2_7::XMLAttDefList"*, align 8
  store %"class.xercesc_2_7::XMLAttDefList"* %this, %"class.xercesc_2_7::XMLAttDefList"** %this.addr, align 8
  call void @llvm.dbg.declare(metadata %"class.xercesc_2_7::XMLAttDefList"** %this.addr, metadata !3299, metadata !DIExpression()), !dbg !3301
  %this1 = load %"class.xercesc_2_7::XMLAttDefList"*, %"class.xercesc_2_7::XMLAttDefList"** %this.addr, align 8
  call void @llvm.trap() #12, !dbg !3302
  unreachable, !dbg !3302
}

; Function Attrs: cold noreturn nounwind
declare void @llvm.trap() #5

; Function Attrs: noinline nounwind uwtable
define linkonce_odr dso_local void @_ZN11xercesc_2_715ContentSpecNodeD0Ev(%"class.xercesc_2_7::ContentSpecNode"* %this) unnamed_addr #1 comdat align 2 !dbg !3303 {
entry:
  %this.addr = alloca %"class.xercesc_2_7::ContentSpecNode"*, align 8
  store %"class.xercesc_2_7::ContentSpecNode"* %this, %"class.xercesc_2_7::ContentSpecNode"** %this.addr, align 8
  call void @llvm.dbg.declare(metadata %"class.xercesc_2_7::ContentSpecNode"** %this.addr, metadata !3304, metadata !DIExpression()), !dbg !3305
  %this1 = load %"class.xercesc_2_7::ContentSpecNode"*, %"class.xercesc_2_7::ContentSpecNode"** %this.addr, align 8
  call void @_ZN11xercesc_2_715ContentSpecNodeD2Ev(%"class.xercesc_2_7::ContentSpecNode"* %this1) #10, !dbg !3306
  %0 = bitcast %"class.xercesc_2_7::ContentSpecNode"* %this1 to i8*, !dbg !3306
  call void @_ZN11xercesc_2_77XMemorydlEPv(i8* %0) #10, !dbg !3306
  ret void, !dbg !3307
}

; Function Attrs: noinline nounwind uwtable
define linkonce_odr dso_local void @_ZN11xercesc_2_715ContentSpecNodeD2Ev(%"class.xercesc_2_7::ContentSpecNode"* %this) unnamed_addr #1 comdat align 2 !dbg !3308 {
entry:
  %this.addr = alloca %"class.xercesc_2_7::ContentSpecNode"*, align 8
  store %"class.xercesc_2_7::ContentSpecNode"* %this, %"class.xercesc_2_7::ContentSpecNode"** %this.addr, align 8
  call void @llvm.dbg.declare(metadata %"class.xercesc_2_7::ContentSpecNode"** %this.addr, metadata !3309, metadata !DIExpression()), !dbg !3310
  %this1 = load %"class.xercesc_2_7::ContentSpecNode"*, %"class.xercesc_2_7::ContentSpecNode"** %this.addr, align 8
  %0 = bitcast %"class.xercesc_2_7::ContentSpecNode"* %this1 to i32 (...)***, !dbg !3311
  store i32 (...)** bitcast (i8** getelementptr inbounds ({ [7 x i8*] }, { [7 x i8*] }* @_ZTVN11xercesc_2_715ContentSpecNodeE, i32 0, inrange i32 0, i32 2) to i32 (...)**), i32 (...)*** %0, align 8, !dbg !3311
  %fAdoptFirst = getelementptr inbounds %"class.xercesc_2_7::ContentSpecNode", %"class.xercesc_2_7::ContentSpecNode"* %this1, i32 0, i32 7, !dbg !3312
  %1 = load i8, i8* %fAdoptFirst, align 4, !dbg !3312
  %tobool = trunc i8 %1 to i1, !dbg !3312
  br i1 %tobool, label %if.then, label %if.end, !dbg !3315

if.then:                                          ; preds = %entry
  %fFirst = getelementptr inbounds %"class.xercesc_2_7::ContentSpecNode", %"class.xercesc_2_7::ContentSpecNode"* %this1, i32 0, i32 4, !dbg !3316
  %2 = load %"class.xercesc_2_7::ContentSpecNode"*, %"class.xercesc_2_7::ContentSpecNode"** %fFirst, align 8, !dbg !3316
  %isnull = icmp eq %"class.xercesc_2_7::ContentSpecNode"* %2, null, !dbg !3318
  br i1 %isnull, label %delete.end, label %delete.notnull, !dbg !3318

delete.notnull:                                   ; preds = %if.then
  %3 = bitcast %"class.xercesc_2_7::ContentSpecNode"* %2 to void (%"class.xercesc_2_7::ContentSpecNode"*)***, !dbg !3318
  %vtable = load void (%"class.xercesc_2_7::ContentSpecNode"*)**, void (%"class.xercesc_2_7::ContentSpecNode"*)*** %3, align 8, !dbg !3318
  %vfn = getelementptr inbounds void (%"class.xercesc_2_7::ContentSpecNode"*)*, void (%"class.xercesc_2_7::ContentSpecNode"*)** %vtable, i64 1, !dbg !3318
  %4 = load void (%"class.xercesc_2_7::ContentSpecNode"*)*, void (%"class.xercesc_2_7::ContentSpecNode"*)** %vfn, align 8, !dbg !3318
  call void %4(%"class.xercesc_2_7::ContentSpecNode"* %2) #10, !dbg !3318
  br label %delete.end, !dbg !3318

delete.end:                                       ; preds = %delete.notnull, %if.then
  br label %if.end, !dbg !3319

if.end:                                           ; preds = %delete.end, %entry
  %fAdoptSecond = getelementptr inbounds %"class.xercesc_2_7::ContentSpecNode", %"class.xercesc_2_7::ContentSpecNode"* %this1, i32 0, i32 8, !dbg !3320
  %5 = load i8, i8* %fAdoptSecond, align 1, !dbg !3320
  %tobool2 = trunc i8 %5 to i1, !dbg !3320
  br i1 %tobool2, label %if.then3, label %if.end9, !dbg !3322

if.then3:                                         ; preds = %if.end
  %fSecond = getelementptr inbounds %"class.xercesc_2_7::ContentSpecNode", %"class.xercesc_2_7::ContentSpecNode"* %this1, i32 0, i32 5, !dbg !3323
  %6 = load %"class.xercesc_2_7::ContentSpecNode"*, %"class.xercesc_2_7::ContentSpecNode"** %fSecond, align 8, !dbg !3323
  %isnull4 = icmp eq %"class.xercesc_2_7::ContentSpecNode"* %6, null, !dbg !3325
  br i1 %isnull4, label %delete.end8, label %delete.notnull5, !dbg !3325

delete.notnull5:                                  ; preds = %if.then3
  %7 = bitcast %"class.xercesc_2_7::ContentSpecNode"* %6 to void (%"class.xercesc_2_7::ContentSpecNode"*)***, !dbg !3325
  %vtable6 = load void (%"class.xercesc_2_7::ContentSpecNode"*)**, void (%"class.xercesc_2_7::ContentSpecNode"*)*** %7, align 8, !dbg !3325
  %vfn7 = getelementptr inbounds void (%"class.xercesc_2_7::ContentSpecNode"*)*, void (%"class.xercesc_2_7::ContentSpecNode"*)** %vtable6, i64 1, !dbg !3325
  %8 = load void (%"class.xercesc_2_7::ContentSpecNode"*)*, void (%"class.xercesc_2_7::ContentSpecNode"*)** %vfn7, align 8, !dbg !3325
  call void %8(%"class.xercesc_2_7::ContentSpecNode"* %6) #10, !dbg !3325
  br label %delete.end8, !dbg !3325

delete.end8:                                      ; preds = %delete.notnull5, %if.then3
  br label %if.end9, !dbg !3326

if.end9:                                          ; preds = %delete.end8, %if.end
  %fElement = getelementptr inbounds %"class.xercesc_2_7::ContentSpecNode", %"class.xercesc_2_7::ContentSpecNode"* %this1, i32 0, i32 2, !dbg !3327
  %9 = load %"class.xercesc_2_7::QName"*, %"class.xercesc_2_7::QName"** %fElement, align 8, !dbg !3327
  %isnull10 = icmp eq %"class.xercesc_2_7::QName"* %9, null, !dbg !3328
  br i1 %isnull10, label %delete.end14, label %delete.notnull11, !dbg !3328

delete.notnull11:                                 ; preds = %if.end9
  %10 = bitcast %"class.xercesc_2_7::QName"* %9 to void (%"class.xercesc_2_7::QName"*)***, !dbg !3328
  %vtable12 = load void (%"class.xercesc_2_7::QName"*)**, void (%"class.xercesc_2_7::QName"*)*** %10, align 8, !dbg !3328
  %vfn13 = getelementptr inbounds void (%"class.xercesc_2_7::QName"*)*, void (%"class.xercesc_2_7::QName"*)** %vtable12, i64 1, !dbg !3328
  %11 = load void (%"class.xercesc_2_7::QName"*)*, void (%"class.xercesc_2_7::QName"*)** %vfn13, align 8, !dbg !3328
  call void %11(%"class.xercesc_2_7::QName"* %9) #10, !dbg !3328
  br label %delete.end14, !dbg !3328

delete.end14:                                     ; preds = %delete.notnull11, %if.end9
  %12 = bitcast %"class.xercesc_2_7::ContentSpecNode"* %this1 to %"class.xercesc_2_7::XSerializable"*, !dbg !3329
  call void @_ZN11xercesc_2_713XSerializableD2Ev(%"class.xercesc_2_7::XSerializable"* %12) #10, !dbg !3329
  ret void, !dbg !3330
}

; Function Attrs: noinline uwtable
define internal void @__cxx_global_var_init() #6 section ".text.startup" !dbg !3331 {
entry:
  call void @_ZN11xercesc_2_718XMLRegisterCleanupC1Ev(%"class.xercesc_2_7::XMLRegisterCleanup"* @_ZN11xercesc_2_7L23sGeneralAttCheckCleanupE), !dbg !3332
  ret void, !dbg !3332
}

declare dso_local void @_ZN11xercesc_2_718XMLRegisterCleanupC1Ev(%"class.xercesc_2_7::XMLRegisterCleanup"*) unnamed_addr #7

; Function Attrs: noinline uwtable
define dso_local void @_ZN11xercesc_2_714XMLInitializer29initializeGeneralAttrCheckMapEv() #6 align 2 personality i8* bitcast (i32 (...)* @__gxx_personality_v0 to i8*) !dbg !3333 {
entry:
  %obj = alloca %"class.xercesc_2_7::GeneralAttributeCheck"*, align 8
  %exn.slot = alloca i8*
  %ehselector.slot = alloca i32
  call void @llvm.dbg.declare(metadata %"class.xercesc_2_7::GeneralAttributeCheck"** %obj, metadata !3368, metadata !DIExpression()), !dbg !3370
  %call = call i8* @_ZN11xercesc_2_77XMemorynwEm(i64 144), !dbg !3371
  %0 = bitcast i8* %call to %"class.xercesc_2_7::GeneralAttributeCheck"*, !dbg !3371
  %1 = load %"class.xercesc_2_7::MemoryManager"*, %"class.xercesc_2_7::MemoryManager"** @_ZN11xercesc_2_716XMLPlatformUtils15fgMemoryManagerE, align 8, !dbg !3372
  invoke void @_ZN11xercesc_2_721GeneralAttributeCheckC1EPNS_13MemoryManagerE(%"class.xercesc_2_7::GeneralAttributeCheck"* %0, %"class.xercesc_2_7::MemoryManager"* %1)
          to label %invoke.cont unwind label %lpad, !dbg !3372

invoke.cont:                                      ; preds = %entry
  store %"class.xercesc_2_7::GeneralAttributeCheck"* %0, %"class.xercesc_2_7::GeneralAttributeCheck"** %obj, align 8, !dbg !3370
  %2 = load %"class.xercesc_2_7::GeneralAttributeCheck"*, %"class.xercesc_2_7::GeneralAttributeCheck"** %obj, align 8, !dbg !3373
  %isnull = icmp eq %"class.xercesc_2_7::GeneralAttributeCheck"* %2, null, !dbg !3374
  br i1 %isnull, label %delete.end, label %delete.notnull, !dbg !3374

delete.notnull:                                   ; preds = %invoke.cont
  call void @_ZN11xercesc_2_721GeneralAttributeCheckD1Ev(%"class.xercesc_2_7::GeneralAttributeCheck"* %2) #10, !dbg !3374
  %3 = bitcast %"class.xercesc_2_7::GeneralAttributeCheck"* %2 to i8*, !dbg !3374
  call void @_ZN11xercesc_2_77XMemorydlEPv(i8* %3) #10, !dbg !3374
  br label %delete.end, !dbg !3374

delete.end:                                       ; preds = %delete.notnull, %invoke.cont
  ret void, !dbg !3375

lpad:                                             ; preds = %entry
  %4 = landingpad { i8*, i32 }
          cleanup, !dbg !3375
  %5 = extractvalue { i8*, i32 } %4, 0, !dbg !3375
  store i8* %5, i8** %exn.slot, align 8, !dbg !3375
  %6 = extractvalue { i8*, i32 } %4, 1, !dbg !3375
  store i32 %6, i32* %ehselector.slot, align 4, !dbg !3375
  call void @_ZN11xercesc_2_77XMemorydlEPv(i8* %call) #10, !dbg !3371
  br label %eh.resume, !dbg !3371

eh.resume:                                        ; preds = %lpad
  %exn = load i8*, i8** %exn.slot, align 8, !dbg !3371
  %sel = load i32, i32* %ehselector.slot, align 4, !dbg !3371
  %lpad.val = insertvalue { i8*, i32 } undef, i8* %exn, 0, !dbg !3371
  %lpad.val1 = insertvalue { i8*, i32 } %lpad.val, i32 %sel, 1, !dbg !3371
  resume { i8*, i32 } %lpad.val1, !dbg !3371
}

declare dso_local i8* @_ZN11xercesc_2_77XMemorynwEm(i64) #7

; Function Attrs: noinline uwtable
define dso_local void @_ZN11xercesc_2_721GeneralAttributeCheckC2EPNS_13MemoryManagerE(%"class.xercesc_2_7::GeneralAttributeCheck"* %this, %"class.xercesc_2_7::MemoryManager"* %manager) unnamed_addr #6 align 2 personality i8* bitcast (i32 (...)* @__gxx_personality_v0 to i8*) !dbg !3376 {
entry:
  %this.addr = alloca %"class.xercesc_2_7::GeneralAttributeCheck"*, align 8
  %manager.addr = alloca %"class.xercesc_2_7::MemoryManager"*, align 8
  %exn.slot = alloca i8*
  %ehselector.slot = alloca i32
  store %"class.xercesc_2_7::GeneralAttributeCheck"* %this, %"class.xercesc_2_7::GeneralAttributeCheck"** %this.addr, align 8
  call void @llvm.dbg.declare(metadata %"class.xercesc_2_7::GeneralAttributeCheck"** %this.addr, metadata !3377, metadata !DIExpression()), !dbg !3378
  store %"class.xercesc_2_7::MemoryManager"* %manager, %"class.xercesc_2_7::MemoryManager"** %manager.addr, align 8
  call void @llvm.dbg.declare(metadata %"class.xercesc_2_7::MemoryManager"** %manager.addr, metadata !3379, metadata !DIExpression()), !dbg !3380
  %this1 = load %"class.xercesc_2_7::GeneralAttributeCheck"*, %"class.xercesc_2_7::GeneralAttributeCheck"** %this.addr, align 8
  %0 = bitcast %"class.xercesc_2_7::GeneralAttributeCheck"* %this1 to %"class.xercesc_2_7::XMemory"*, !dbg !3381
  call void @_ZN11xercesc_2_77XMemoryC2Ev(%"class.xercesc_2_7::XMemory"* %0), !dbg !3382
  %fMemoryManager = getelementptr inbounds %"class.xercesc_2_7::GeneralAttributeCheck", %"class.xercesc_2_7::GeneralAttributeCheck"* %this1, i32 0, i32 0, !dbg !3383
  %1 = load %"class.xercesc_2_7::MemoryManager"*, %"class.xercesc_2_7::MemoryManager"** %manager.addr, align 8, !dbg !3384
  store %"class.xercesc_2_7::MemoryManager"* %1, %"class.xercesc_2_7::MemoryManager"** %fMemoryManager, align 8, !dbg !3383
  %fValidationContext = getelementptr inbounds %"class.xercesc_2_7::GeneralAttributeCheck", %"class.xercesc_2_7::GeneralAttributeCheck"* %this1, i32 0, i32 1, !dbg !3385
  store %"class.xercesc_2_7::ValidationContext"* null, %"class.xercesc_2_7::ValidationContext"** %fValidationContext, align 8, !dbg !3385
  %fIDValidator = getelementptr inbounds %"class.xercesc_2_7::GeneralAttributeCheck", %"class.xercesc_2_7::GeneralAttributeCheck"* %this1, i32 0, i32 2, !dbg !3386
  %2 = load %"class.xercesc_2_7::MemoryManager"*, %"class.xercesc_2_7::MemoryManager"** %manager.addr, align 8, !dbg !3387
  call void @_ZN11xercesc_2_719IDDatatypeValidatorC1EPNS_13MemoryManagerE(%"class.xercesc_2_7::IDDatatypeValidator"* %fIDValidator, %"class.xercesc_2_7::MemoryManager"* %2), !dbg !3386
  invoke void @_ZN11xercesc_2_721GeneralAttributeCheck11mapElementsEv(%"class.xercesc_2_7::GeneralAttributeCheck"* %this1)
          to label %invoke.cont unwind label %lpad, !dbg !3388

invoke.cont:                                      ; preds = %entry
  ret void, !dbg !3390

lpad:                                             ; preds = %entry
  %3 = landingpad { i8*, i32 }
          cleanup, !dbg !3391
  %4 = extractvalue { i8*, i32 } %3, 0, !dbg !3391
  store i8* %4, i8** %exn.slot, align 8, !dbg !3391
  %5 = extractvalue { i8*, i32 } %3, 1, !dbg !3391
  store i32 %5, i32* %ehselector.slot, align 4, !dbg !3391
  call void @_ZN11xercesc_2_719IDDatatypeValidatorD1Ev(%"class.xercesc_2_7::IDDatatypeValidator"* %fIDValidator) #10, !dbg !3391
  br label %eh.resume, !dbg !3391

eh.resume:                                        ; preds = %lpad
  %exn = load i8*, i8** %exn.slot, align 8, !dbg !3391
  %sel = load i32, i32* %ehselector.slot, align 4, !dbg !3391
  %lpad.val = insertvalue { i8*, i32 } undef, i8* %exn, 0, !dbg !3391
  %lpad.val2 = insertvalue { i8*, i32 } %lpad.val, i32 %sel, 1, !dbg !3391
  resume { i8*, i32 } %lpad.val2, !dbg !3391
}

; Function Attrs: noinline nounwind uwtable
define linkonce_odr dso_local void @_ZN11xercesc_2_77XMemoryC2Ev(%"class.xercesc_2_7::XMemory"* %this) unnamed_addr #1 comdat align 2 !dbg !3392 {
entry:
  %this.addr = alloca %"class.xercesc_2_7::XMemory"*, align 8
  store %"class.xercesc_2_7::XMemory"* %this, %"class.xercesc_2_7::XMemory"** %this.addr, align 8
  call void @llvm.dbg.declare(metadata %"class.xercesc_2_7::XMemory"** %this.addr, metadata !3393, metadata !DIExpression()), !dbg !3395
  %this1 = load %"class.xercesc_2_7::XMemory"*, %"class.xercesc_2_7::XMemory"** %this.addr, align 8
  ret void, !dbg !3396
}

declare dso_local void @_ZN11xercesc_2_719IDDatatypeValidatorC1EPNS_13MemoryManagerE(%"class.xercesc_2_7::IDDatatypeValidator"*, %"class.xercesc_2_7::MemoryManager"*) unnamed_addr #7

; Function Attrs: noinline uwtable
define dso_local void @_ZN11xercesc_2_721GeneralAttributeCheck11mapElementsEv(%"class.xercesc_2_7::GeneralAttributeCheck"* %this) #6 align 2 personality i8* bitcast (i32 (...)* @__gxx_personality_v0 to i8*) !dbg !3397 {
entry:
  %this.addr = alloca %"class.xercesc_2_7::GeneralAttributeCheck"*, align 8
  %lock = alloca %"class.xercesc_2_7::XMLMutexLock", align 8
  %exn.slot = alloca i8*
  %ehselector.slot = alloca i32
  %lock9 = alloca %"class.xercesc_2_7::XMLMutexLock", align 8
  store %"class.xercesc_2_7::GeneralAttributeCheck"* %this, %"class.xercesc_2_7::GeneralAttributeCheck"** %this.addr, align 8
  call void @llvm.dbg.declare(metadata %"class.xercesc_2_7::GeneralAttributeCheck"** %this.addr, metadata !3398, metadata !DIExpression()), !dbg !3399
  %this1 = load %"class.xercesc_2_7::GeneralAttributeCheck"*, %"class.xercesc_2_7::GeneralAttributeCheck"** %this.addr, align 8
  %0 = load i8, i8* @_ZN11xercesc_2_7L31sGeneralAttCheckMutexRegisteredE, align 1, !dbg !3400
  %tobool = trunc i8 %0 to i1, !dbg !3400
  br i1 %tobool, label %if.end18, label %if.then, !dbg !3402

if.then:                                          ; preds = %entry
  %1 = load %"class.xercesc_2_7::XMLMutex"*, %"class.xercesc_2_7::XMLMutex"** @_ZN11xercesc_2_7L21sGeneralAttCheckMutexE, align 8, !dbg !3403
  %tobool2 = icmp ne %"class.xercesc_2_7::XMLMutex"* %1, null, !dbg !3403
  br i1 %tobool2, label %if.end8, label %if.then3, !dbg !3406

if.then3:                                         ; preds = %if.then
  call void @llvm.dbg.declare(metadata %"class.xercesc_2_7::XMLMutexLock"* %lock, metadata !3407, metadata !DIExpression()), !dbg !3431
  %2 = load %"class.xercesc_2_7::XMLMutex"*, %"class.xercesc_2_7::XMLMutex"** @_ZN11xercesc_2_716XMLPlatformUtils13fgAtomicMutexE, align 8, !dbg !3432
  call void @_ZN11xercesc_2_712XMLMutexLockC1EPNS_8XMLMutexE(%"class.xercesc_2_7::XMLMutexLock"* %lock, %"class.xercesc_2_7::XMLMutex"* %2), !dbg !3431
  %3 = load %"class.xercesc_2_7::XMLMutex"*, %"class.xercesc_2_7::XMLMutex"** @_ZN11xercesc_2_7L21sGeneralAttCheckMutexE, align 8, !dbg !3433
  %tobool4 = icmp ne %"class.xercesc_2_7::XMLMutex"* %3, null, !dbg !3433
  br i1 %tobool4, label %if.end, label %if.then5, !dbg !3435

if.then5:                                         ; preds = %if.then3
  %call = invoke i8* @_ZN11xercesc_2_77XMemorynwEm(i64 8)
          to label %invoke.cont unwind label %lpad, !dbg !3436

invoke.cont:                                      ; preds = %if.then5
  %4 = bitcast i8* %call to %"class.xercesc_2_7::XMLMutex"*, !dbg !3436
  %5 = load %"class.xercesc_2_7::MemoryManager"*, %"class.xercesc_2_7::MemoryManager"** @_ZN11xercesc_2_716XMLPlatformUtils15fgMemoryManagerE, align 8, !dbg !3437
  invoke void @_ZN11xercesc_2_78XMLMutexC1EPNS_13MemoryManagerE(%"class.xercesc_2_7::XMLMutex"* %4, %"class.xercesc_2_7::MemoryManager"* %5)
          to label %invoke.cont7 unwind label %lpad6, !dbg !3438

invoke.cont7:                                     ; preds = %invoke.cont
  store %"class.xercesc_2_7::XMLMutex"* %4, %"class.xercesc_2_7::XMLMutex"** @_ZN11xercesc_2_7L21sGeneralAttCheckMutexE, align 8, !dbg !3439
  br label %if.end, !dbg !3440

lpad:                                             ; preds = %if.then5
  %6 = landingpad { i8*, i32 }
          cleanup, !dbg !3441
  %7 = extractvalue { i8*, i32 } %6, 0, !dbg !3441
  store i8* %7, i8** %exn.slot, align 8, !dbg !3441
  %8 = extractvalue { i8*, i32 } %6, 1, !dbg !3441
  store i32 %8, i32* %ehselector.slot, align 4, !dbg !3441
  br label %ehcleanup, !dbg !3441

lpad6:                                            ; preds = %invoke.cont
  %9 = landingpad { i8*, i32 }
          cleanup, !dbg !3441
  %10 = extractvalue { i8*, i32 } %9, 0, !dbg !3441
  store i8* %10, i8** %exn.slot, align 8, !dbg !3441
  %11 = extractvalue { i8*, i32 } %9, 1, !dbg !3441
  store i32 %11, i32* %ehselector.slot, align 4, !dbg !3441
  call void @_ZN11xercesc_2_77XMemorydlEPv(i8* %call) #10, !dbg !3436
  br label %ehcleanup, !dbg !3436

if.end:                                           ; preds = %invoke.cont7, %if.then3
  call void @_ZN11xercesc_2_712XMLMutexLockD1Ev(%"class.xercesc_2_7::XMLMutexLock"* %lock) #10, !dbg !3442
  br label %if.end8, !dbg !3443

ehcleanup:                                        ; preds = %lpad6, %lpad
  call void @_ZN11xercesc_2_712XMLMutexLockD1Ev(%"class.xercesc_2_7::XMLMutexLock"* %lock) #10, !dbg !3442
  br label %eh.resume, !dbg !3442

if.end8:                                          ; preds = %if.end, %if.then
  call void @llvm.dbg.declare(metadata %"class.xercesc_2_7::XMLMutexLock"* %lock9, metadata !3444, metadata !DIExpression()), !dbg !3446
  %12 = load %"class.xercesc_2_7::XMLMutex"*, %"class.xercesc_2_7::XMLMutex"** @_ZN11xercesc_2_7L21sGeneralAttCheckMutexE, align 8, !dbg !3447
  call void @_ZN11xercesc_2_712XMLMutexLockC1EPNS_8XMLMutexE(%"class.xercesc_2_7::XMLMutexLock"* %lock9, %"class.xercesc_2_7::XMLMutex"* %12), !dbg !3446
  %13 = load i8, i8* @_ZN11xercesc_2_7L31sGeneralAttCheckMutexRegisteredE, align 1, !dbg !3448
  %tobool10 = trunc i8 %13 to i1, !dbg !3448
  br i1 %tobool10, label %if.end16, label %if.then11, !dbg !3450

if.then11:                                        ; preds = %if.end8
  invoke void @_ZN11xercesc_2_721GeneralAttributeCheck15setUpValidatorsEv(%"class.xercesc_2_7::GeneralAttributeCheck"* %this1)
          to label %invoke.cont13 unwind label %lpad12, !dbg !3451

invoke.cont13:                                    ; preds = %if.then11
  invoke void @_ZN11xercesc_2_721GeneralAttributeCheck13mapAttributesEv(%"class.xercesc_2_7::GeneralAttributeCheck"* %this1)
          to label %invoke.cont14 unwind label %lpad12, !dbg !3453

invoke.cont14:                                    ; preds = %invoke.cont13
  invoke void @_ZN11xercesc_2_718XMLRegisterCleanup15registerCleanupEPFvvE(%"class.xercesc_2_7::XMLRegisterCleanup"* @_ZN11xercesc_2_7L23sGeneralAttCheckCleanupE, void ()* @_ZN11xercesc_2_721GeneralAttributeCheck21reinitGeneralAttCheckEv)
          to label %invoke.cont15 unwind label %lpad12, !dbg !3454

invoke.cont15:                                    ; preds = %invoke.cont14
  store i8 1, i8* @_ZN11xercesc_2_7L31sGeneralAttCheckMutexRegisteredE, align 1, !dbg !3455
  br label %if.end16, !dbg !3456

lpad12:                                           ; preds = %invoke.cont14, %invoke.cont13, %if.then11
  %14 = landingpad { i8*, i32 }
          cleanup, !dbg !3457
  %15 = extractvalue { i8*, i32 } %14, 0, !dbg !3457
  store i8* %15, i8** %exn.slot, align 8, !dbg !3457
  %16 = extractvalue { i8*, i32 } %14, 1, !dbg !3457
  store i32 %16, i32* %ehselector.slot, align 4, !dbg !3457
  call void @_ZN11xercesc_2_712XMLMutexLockD1Ev(%"class.xercesc_2_7::XMLMutexLock"* %lock9) #10, !dbg !3458
  br label %eh.resume, !dbg !3458

if.end16:                                         ; preds = %invoke.cont15, %if.end8
  call void @_ZN11xercesc_2_712XMLMutexLockD1Ev(%"class.xercesc_2_7::XMLMutexLock"* %lock9) #10, !dbg !3458
  br label %if.end18, !dbg !3459

if.end18:                                         ; preds = %if.end16, %entry
  ret void, !dbg !3460

eh.resume:                                        ; preds = %lpad12, %ehcleanup
  %exn = load i8*, i8** %exn.slot, align 8, !dbg !3442
  %sel = load i32, i32* %ehselector.slot, align 4, !dbg !3442
  %lpad.val = insertvalue { i8*, i32 } undef, i8* %exn, 0, !dbg !3442
  %lpad.val19 = insertvalue { i8*, i32 } %lpad.val, i32 %sel, 1, !dbg !3442
  resume { i8*, i32 } %lpad.val19, !dbg !3442
}

; Function Attrs: nounwind
declare dso_local void @_ZN11xercesc_2_719IDDatatypeValidatorD1Ev(%"class.xercesc_2_7::IDDatatypeValidator"*) unnamed_addr #4

; Function Attrs: noinline nounwind uwtable
define dso_local void @_ZN11xercesc_2_721GeneralAttributeCheckD2Ev(%"class.xercesc_2_7::GeneralAttributeCheck"* %this) unnamed_addr #1 align 2 !dbg !3461 {
entry:
  %this.addr = alloca %"class.xercesc_2_7::GeneralAttributeCheck"*, align 8
  store %"class.xercesc_2_7::GeneralAttributeCheck"* %this, %"class.xercesc_2_7::GeneralAttributeCheck"** %this.addr, align 8
  call void @llvm.dbg.declare(metadata %"class.xercesc_2_7::GeneralAttributeCheck"** %this.addr, metadata !3462, metadata !DIExpression()), !dbg !3463
  %this1 = load %"class.xercesc_2_7::GeneralAttributeCheck"*, %"class.xercesc_2_7::GeneralAttributeCheck"** %this.addr, align 8
  %fIDValidator = getelementptr inbounds %"class.xercesc_2_7::GeneralAttributeCheck", %"class.xercesc_2_7::GeneralAttributeCheck"* %this1, i32 0, i32 2, !dbg !3464
  call void @_ZN11xercesc_2_719IDDatatypeValidatorD1Ev(%"class.xercesc_2_7::IDDatatypeValidator"* %fIDValidator) #10, !dbg !3464
  ret void, !dbg !3466
}

; Function Attrs: noinline uwtable
define dso_local void @_ZN11xercesc_2_721GeneralAttributeCheck15setUpValidatorsEv(%"class.xercesc_2_7::GeneralAttributeCheck"* %this) #6 align 2 personality i8* bitcast (i32 (...)* @__gxx_personality_v0 to i8*) !dbg !3467 {
entry:
  %this.addr = alloca %"class.xercesc_2_7::GeneralAttributeCheck"*, align 8
  %dvFactory = alloca %"class.xercesc_2_7::DatatypeValidatorFactory", align 8
  %exn.slot = alloca i8*
  %ehselector.slot = alloca i32
  store %"class.xercesc_2_7::GeneralAttributeCheck"* %this, %"class.xercesc_2_7::GeneralAttributeCheck"** %this.addr, align 8
  call void @llvm.dbg.declare(metadata %"class.xercesc_2_7::GeneralAttributeCheck"** %this.addr, metadata !3468, metadata !DIExpression()), !dbg !3469
  %this1 = load %"class.xercesc_2_7::GeneralAttributeCheck"*, %"class.xercesc_2_7::GeneralAttributeCheck"** %this.addr, align 8
  call void @llvm.dbg.declare(metadata %"class.xercesc_2_7::DatatypeValidatorFactory"* %dvFactory, metadata !3470, metadata !DIExpression()), !dbg !3471
  %fMemoryManager = getelementptr inbounds %"class.xercesc_2_7::GeneralAttributeCheck", %"class.xercesc_2_7::GeneralAttributeCheck"* %this1, i32 0, i32 0, !dbg !3472
  %0 = load %"class.xercesc_2_7::MemoryManager"*, %"class.xercesc_2_7::MemoryManager"** %fMemoryManager, align 8, !dbg !3472
  call void @_ZN11xercesc_2_724DatatypeValidatorFactoryC1EPNS_13MemoryManagerE(%"class.xercesc_2_7::DatatypeValidatorFactory"* %dvFactory, %"class.xercesc_2_7::MemoryManager"* %0), !dbg !3471
  invoke void @_ZN11xercesc_2_724DatatypeValidatorFactory29expandRegistryToFullSchemaSetEv(%"class.xercesc_2_7::DatatypeValidatorFactory"* %dvFactory)
          to label %invoke.cont unwind label %lpad, !dbg !3473

invoke.cont:                                      ; preds = %entry
  %call = invoke %"class.xercesc_2_7::DatatypeValidator"* @_ZNK11xercesc_2_724DatatypeValidatorFactory20getDatatypeValidatorEPKt(%"class.xercesc_2_7::DatatypeValidatorFactory"* %dvFactory, i16* getelementptr inbounds ([0 x i16], [0 x i16]* @_ZN11xercesc_2_713SchemaSymbols23fgDT_NONNEGATIVEINTEGERE, i64 0, i64 0))
          to label %invoke.cont2 unwind label %lpad, !dbg !3474

invoke.cont2:                                     ; preds = %invoke.cont
  store %"class.xercesc_2_7::DatatypeValidator"* %call, %"class.xercesc_2_7::DatatypeValidator"** @_ZN11xercesc_2_721GeneralAttributeCheck12fNonNegIntDVE, align 8, !dbg !3475
  %call4 = invoke %"class.xercesc_2_7::DatatypeValidator"* @_ZNK11xercesc_2_724DatatypeValidatorFactory20getDatatypeValidatorEPKt(%"class.xercesc_2_7::DatatypeValidatorFactory"* %dvFactory, i16* getelementptr inbounds ([0 x i16], [0 x i16]* @_ZN11xercesc_2_713SchemaSymbols12fgDT_BOOLEANE, i64 0, i64 0))
          to label %invoke.cont3 unwind label %lpad, !dbg !3476

invoke.cont3:                                     ; preds = %invoke.cont2
  store %"class.xercesc_2_7::DatatypeValidator"* %call4, %"class.xercesc_2_7::DatatypeValidator"** @_ZN11xercesc_2_721GeneralAttributeCheck10fBooleanDVE, align 8, !dbg !3477
  %call6 = invoke %"class.xercesc_2_7::DatatypeValidator"* @_ZNK11xercesc_2_724DatatypeValidatorFactory20getDatatypeValidatorEPKt(%"class.xercesc_2_7::DatatypeValidatorFactory"* %dvFactory, i16* getelementptr inbounds ([0 x i16], [0 x i16]* @_ZN11xercesc_2_713SchemaSymbols11fgDT_ANYURIE, i64 0, i64 0))
          to label %invoke.cont5 unwind label %lpad, !dbg !3478

invoke.cont5:                                     ; preds = %invoke.cont3
  store %"class.xercesc_2_7::DatatypeValidator"* %call6, %"class.xercesc_2_7::DatatypeValidator"** @_ZN11xercesc_2_721GeneralAttributeCheck9fAnyURIDVE, align 8, !dbg !3479
  call void @_ZN11xercesc_2_724DatatypeValidatorFactoryD1Ev(%"class.xercesc_2_7::DatatypeValidatorFactory"* %dvFactory) #10, !dbg !3480
  ret void, !dbg !3480

lpad:                                             ; preds = %invoke.cont3, %invoke.cont2, %invoke.cont, %entry
  %1 = landingpad { i8*, i32 }
          cleanup, !dbg !3480
  %2 = extractvalue { i8*, i32 } %1, 0, !dbg !3480
  store i8* %2, i8** %exn.slot, align 8, !dbg !3480
  %3 = extractvalue { i8*, i32 } %1, 1, !dbg !3480
  store i32 %3, i32* %ehselector.slot, align 4, !dbg !3480
  call void @_ZN11xercesc_2_724DatatypeValidatorFactoryD1Ev(%"class.xercesc_2_7::DatatypeValidatorFactory"* %dvFactory) #10, !dbg !3480
  br label %eh.resume, !dbg !3480

eh.resume:                                        ; preds = %lpad
  %exn = load i8*, i8** %exn.slot, align 8, !dbg !3480
  %sel = load i32, i32* %ehselector.slot, align 4, !dbg !3480
  %lpad.val = insertvalue { i8*, i32 } undef, i8* %exn, 0, !dbg !3480
  %lpad.val7 = insertvalue { i8*, i32 } %lpad.val, i32 %sel, 1, !dbg !3480
  resume { i8*, i32 } %lpad.val7, !dbg !3480
}

declare dso_local void @_ZN11xercesc_2_724DatatypeValidatorFactoryC1EPNS_13MemoryManagerE(%"class.xercesc_2_7::DatatypeValidatorFactory"*, %"class.xercesc_2_7::MemoryManager"*) unnamed_addr #7

declare dso_local void @_ZN11xercesc_2_724DatatypeValidatorFactory29expandRegistryToFullSchemaSetEv(%"class.xercesc_2_7::DatatypeValidatorFactory"*) #7

; Function Attrs: noinline uwtable
define linkonce_odr dso_local %"class.xercesc_2_7::DatatypeValidator"* @_ZNK11xercesc_2_724DatatypeValidatorFactory20getDatatypeValidatorEPKt(%"class.xercesc_2_7::DatatypeValidatorFactory"* %this, i16* %dvType) #6 comdat align 2 !dbg !3481 {
entry:
  %retval = alloca %"class.xercesc_2_7::DatatypeValidator"*, align 8
  %this.addr = alloca %"class.xercesc_2_7::DatatypeValidatorFactory"*, align 8
  %dvType.addr = alloca i16*, align 8
  store %"class.xercesc_2_7::DatatypeValidatorFactory"* %this, %"class.xercesc_2_7::DatatypeValidatorFactory"** %this.addr, align 8
  call void @llvm.dbg.declare(metadata %"class.xercesc_2_7::DatatypeValidatorFactory"** %this.addr, metadata !3487, metadata !DIExpression()), !dbg !3489
  store i16* %dvType, i16** %dvType.addr, align 8
  call void @llvm.dbg.declare(metadata i16** %dvType.addr, metadata !3490, metadata !DIExpression()), !dbg !3491
  %this1 = load %"class.xercesc_2_7::DatatypeValidatorFactory"*, %"class.xercesc_2_7::DatatypeValidatorFactory"** %this.addr, align 8
  %0 = load i16*, i16** %dvType.addr, align 8, !dbg !3492
  %tobool = icmp ne i16* %0, null, !dbg !3492
  br i1 %tobool, label %if.then, label %if.end13, !dbg !3494

if.then:                                          ; preds = %entry
  %1 = load %"class.xercesc_2_7::RefHashTableOf.2"*, %"class.xercesc_2_7::RefHashTableOf.2"** @_ZN11xercesc_2_724DatatypeValidatorFactory16fBuiltInRegistryE, align 8, !dbg !3495
  %tobool2 = icmp ne %"class.xercesc_2_7::RefHashTableOf.2"* %1, null, !dbg !3495
  br i1 %tobool2, label %land.lhs.true, label %if.end, !dbg !3498

land.lhs.true:                                    ; preds = %if.then
  %2 = load %"class.xercesc_2_7::RefHashTableOf.2"*, %"class.xercesc_2_7::RefHashTableOf.2"** @_ZN11xercesc_2_724DatatypeValidatorFactory16fBuiltInRegistryE, align 8, !dbg !3499
  %3 = load i16*, i16** %dvType.addr, align 8, !dbg !3500
  %4 = bitcast i16* %3 to i8*, !dbg !3500
  %call = call zeroext i1 @_ZNK11xercesc_2_714RefHashTableOfINS_17DatatypeValidatorEE11containsKeyEPKv(%"class.xercesc_2_7::RefHashTableOf.2"* %2, i8* %4), !dbg !3501
  br i1 %call, label %if.then3, label %if.end, !dbg !3502

if.then3:                                         ; preds = %land.lhs.true
  %5 = load %"class.xercesc_2_7::RefHashTableOf.2"*, %"class.xercesc_2_7::RefHashTableOf.2"** @_ZN11xercesc_2_724DatatypeValidatorFactory16fBuiltInRegistryE, align 8, !dbg !3503
  %6 = load i16*, i16** %dvType.addr, align 8, !dbg !3505
  %7 = bitcast i16* %6 to i8*, !dbg !3505
  %call4 = call %"class.xercesc_2_7::DatatypeValidator"* @_ZN11xercesc_2_714RefHashTableOfINS_17DatatypeValidatorEE3getEPKv(%"class.xercesc_2_7::RefHashTableOf.2"* %5, i8* %7), !dbg !3506
  store %"class.xercesc_2_7::DatatypeValidator"* %call4, %"class.xercesc_2_7::DatatypeValidator"** %retval, align 8, !dbg !3507
  br label %return, !dbg !3507

if.end:                                           ; preds = %land.lhs.true, %if.then
  %fUserDefinedRegistry = getelementptr inbounds %"class.xercesc_2_7::DatatypeValidatorFactory", %"class.xercesc_2_7::DatatypeValidatorFactory"* %this1, i32 0, i32 1, !dbg !3508
  %8 = load %"class.xercesc_2_7::RefHashTableOf.2"*, %"class.xercesc_2_7::RefHashTableOf.2"** %fUserDefinedRegistry, align 8, !dbg !3508
  %tobool5 = icmp ne %"class.xercesc_2_7::RefHashTableOf.2"* %8, null, !dbg !3508
  br i1 %tobool5, label %land.lhs.true6, label %if.end12, !dbg !3510

land.lhs.true6:                                   ; preds = %if.end
  %fUserDefinedRegistry7 = getelementptr inbounds %"class.xercesc_2_7::DatatypeValidatorFactory", %"class.xercesc_2_7::DatatypeValidatorFactory"* %this1, i32 0, i32 1, !dbg !3511
  %9 = load %"class.xercesc_2_7::RefHashTableOf.2"*, %"class.xercesc_2_7::RefHashTableOf.2"** %fUserDefinedRegistry7, align 8, !dbg !3511
  %10 = load i16*, i16** %dvType.addr, align 8, !dbg !3512
  %11 = bitcast i16* %10 to i8*, !dbg !3512
  %call8 = call zeroext i1 @_ZNK11xercesc_2_714RefHashTableOfINS_17DatatypeValidatorEE11containsKeyEPKv(%"class.xercesc_2_7::RefHashTableOf.2"* %9, i8* %11), !dbg !3513
  br i1 %call8, label %if.then9, label %if.end12, !dbg !3514

if.then9:                                         ; preds = %land.lhs.true6
  %fUserDefinedRegistry10 = getelementptr inbounds %"class.xercesc_2_7::DatatypeValidatorFactory", %"class.xercesc_2_7::DatatypeValidatorFactory"* %this1, i32 0, i32 1, !dbg !3515
  %12 = load %"class.xercesc_2_7::RefHashTableOf.2"*, %"class.xercesc_2_7::RefHashTableOf.2"** %fUserDefinedRegistry10, align 8, !dbg !3515
  %13 = load i16*, i16** %dvType.addr, align 8, !dbg !3517
  %14 = bitcast i16* %13 to i8*, !dbg !3517
  %call11 = call %"class.xercesc_2_7::DatatypeValidator"* @_ZN11xercesc_2_714RefHashTableOfINS_17DatatypeValidatorEE3getEPKv(%"class.xercesc_2_7::RefHashTableOf.2"* %12, i8* %14), !dbg !3518
  store %"class.xercesc_2_7::DatatypeValidator"* %call11, %"class.xercesc_2_7::DatatypeValidator"** %retval, align 8, !dbg !3519
  br label %return, !dbg !3519

if.end12:                                         ; preds = %land.lhs.true6, %if.end
  br label %if.end13, !dbg !3520

if.end13:                                         ; preds = %if.end12, %entry
  store %"class.xercesc_2_7::DatatypeValidator"* null, %"class.xercesc_2_7::DatatypeValidator"** %retval, align 8, !dbg !3521
  br label %return, !dbg !3521

return:                                           ; preds = %if.end13, %if.then9, %if.then3
  %15 = load %"class.xercesc_2_7::DatatypeValidator"*, %"class.xercesc_2_7::DatatypeValidator"** %retval, align 8, !dbg !3522
  ret %"class.xercesc_2_7::DatatypeValidator"* %15, !dbg !3522
}

; Function Attrs: nounwind
declare dso_local void @_ZN11xercesc_2_724DatatypeValidatorFactoryD1Ev(%"class.xercesc_2_7::DatatypeValidatorFactory"*) unnamed_addr #4

declare dso_local void @_ZN11xercesc_2_712XMLMutexLockC1EPNS_8XMLMutexE(%"class.xercesc_2_7::XMLMutexLock"*, %"class.xercesc_2_7::XMLMutex"*) unnamed_addr #7

declare dso_local void @_ZN11xercesc_2_78XMLMutexC1EPNS_13MemoryManagerE(%"class.xercesc_2_7::XMLMutex"*, %"class.xercesc_2_7::MemoryManager"*) unnamed_addr #7

; Function Attrs: nounwind
declare dso_local void @_ZN11xercesc_2_712XMLMutexLockD1Ev(%"class.xercesc_2_7::XMLMutexLock"*) unnamed_addr #4

; Function Attrs: noinline uwtable
define dso_local void @_ZN11xercesc_2_721GeneralAttributeCheck13mapAttributesEv(%"class.xercesc_2_7::GeneralAttributeCheck"* %this) #6 align 2 personality i8* bitcast (i32 (...)* @__gxx_personality_v0 to i8*) !dbg !3523 {
entry:
  %this.addr = alloca %"class.xercesc_2_7::GeneralAttributeCheck"*, align 8
  %exn.slot = alloca i8*
  %ehselector.slot = alloca i32
  %ref.tmp = alloca i16, align 2
  %ref.tmp2 = alloca i16, align 2
  %ref.tmp3 = alloca i16, align 2
  %ref.tmp4 = alloca i16, align 2
  %ref.tmp5 = alloca i16, align 2
  %ref.tmp6 = alloca i16, align 2
  %ref.tmp7 = alloca i16, align 2
  %ref.tmp8 = alloca i16, align 2
  %ref.tmp9 = alloca i16, align 2
  %ref.tmp10 = alloca i16, align 2
  %ref.tmp11 = alloca i16, align 2
  %ref.tmp12 = alloca i16, align 2
  %ref.tmp13 = alloca i16, align 2
  %ref.tmp14 = alloca i16, align 2
  %ref.tmp15 = alloca i16, align 2
  %ref.tmp16 = alloca i16, align 2
  %ref.tmp17 = alloca i16, align 2
  %ref.tmp18 = alloca i16, align 2
  %ref.tmp19 = alloca i16, align 2
  %ref.tmp20 = alloca i16, align 2
  %ref.tmp21 = alloca i16, align 2
  %ref.tmp22 = alloca i16, align 2
  %ref.tmp23 = alloca i16, align 2
  %ref.tmp24 = alloca i16, align 2
  %ref.tmp25 = alloca i16, align 2
  %ref.tmp26 = alloca i16, align 2
  %ref.tmp27 = alloca i16, align 2
  %ref.tmp28 = alloca i16, align 2
  %ref.tmp29 = alloca i16, align 2
  %ref.tmp30 = alloca i16, align 2
  %ref.tmp31 = alloca i16, align 2
  %ref.tmp32 = alloca i16, align 2
  %ref.tmp33 = alloca i16, align 2
  %ref.tmp34 = alloca i16, align 2
  %ref.tmp38 = alloca i16, align 2
  %ref.tmp39 = alloca i16, align 2
  %ref.tmp40 = alloca i16, align 2
  %ref.tmp41 = alloca i16, align 2
  %ref.tmp42 = alloca i16, align 2
  %ref.tmp43 = alloca i16, align 2
  %ref.tmp44 = alloca i16, align 2
  %ref.tmp45 = alloca i16, align 2
  %ref.tmp46 = alloca i16, align 2
  %ref.tmp47 = alloca i16, align 2
  %ref.tmp48 = alloca i16, align 2
  %ref.tmp49 = alloca i16, align 2
  store %"class.xercesc_2_7::GeneralAttributeCheck"* %this, %"class.xercesc_2_7::GeneralAttributeCheck"** %this.addr, align 8
  call void @llvm.dbg.declare(metadata %"class.xercesc_2_7::GeneralAttributeCheck"** %this.addr, metadata !3524, metadata !DIExpression()), !dbg !3525
  %this1 = load %"class.xercesc_2_7::GeneralAttributeCheck"*, %"class.xercesc_2_7::GeneralAttributeCheck"** %this.addr, align 8
  %call = call i8* @_ZN11xercesc_2_77XMemorynwEm(i64 32), !dbg !3526
  %0 = bitcast i8* %call to %"class.xercesc_2_7::ValueHashTableOf"*, !dbg !3526
  %1 = load %"class.xercesc_2_7::MemoryManager"*, %"class.xercesc_2_7::MemoryManager"** @_ZN11xercesc_2_716XMLPlatformUtils15fgMemoryManagerE, align 8, !dbg !3527
  invoke void @_ZN11xercesc_2_716ValueHashTableOfItEC2EjPNS_13MemoryManagerE(%"class.xercesc_2_7::ValueHashTableOf"* %0, i32 34, %"class.xercesc_2_7::MemoryManager"* %1)
          to label %invoke.cont unwind label %lpad, !dbg !3527

invoke.cont:                                      ; preds = %entry
  store %"class.xercesc_2_7::ValueHashTableOf"* %0, %"class.xercesc_2_7::ValueHashTableOf"** @_ZN11xercesc_2_721GeneralAttributeCheck7fAttMapE, align 8, !dbg !3528
  %2 = load %"class.xercesc_2_7::ValueHashTableOf"*, %"class.xercesc_2_7::ValueHashTableOf"** @_ZN11xercesc_2_721GeneralAttributeCheck7fAttMapE, align 8, !dbg !3529
  store i16 0, i16* %ref.tmp, align 2, !dbg !3530
  call void @_ZN11xercesc_2_716ValueHashTableOfItE3putEPvRKt(%"class.xercesc_2_7::ValueHashTableOf"* %2, i8* bitcast ([0 x i16]* @_ZN11xercesc_2_713SchemaSymbols14fgATT_ABSTRACTE to i8*), i16* dereferenceable(2) %ref.tmp), !dbg !3531
  %3 = load %"class.xercesc_2_7::ValueHashTableOf"*, %"class.xercesc_2_7::ValueHashTableOf"** @_ZN11xercesc_2_721GeneralAttributeCheck7fAttMapE, align 8, !dbg !3532
  store i16 1, i16* %ref.tmp2, align 2, !dbg !3533
  call void @_ZN11xercesc_2_716ValueHashTableOfItE3putEPvRKt(%"class.xercesc_2_7::ValueHashTableOf"* %3, i8* bitcast ([0 x i16]* @_ZN11xercesc_2_713SchemaSymbols26fgATT_ATTRIBUTEFORMDEFAULTE to i8*), i16* dereferenceable(2) %ref.tmp2), !dbg !3534
  %4 = load %"class.xercesc_2_7::ValueHashTableOf"*, %"class.xercesc_2_7::ValueHashTableOf"** @_ZN11xercesc_2_721GeneralAttributeCheck7fAttMapE, align 8, !dbg !3535
  store i16 2, i16* %ref.tmp3, align 2, !dbg !3536
  call void @_ZN11xercesc_2_716ValueHashTableOfItE3putEPvRKt(%"class.xercesc_2_7::ValueHashTableOf"* %4, i8* bitcast ([0 x i16]* @_ZN11xercesc_2_713SchemaSymbols10fgATT_BASEE to i8*), i16* dereferenceable(2) %ref.tmp3), !dbg !3537
  %5 = load %"class.xercesc_2_7::ValueHashTableOf"*, %"class.xercesc_2_7::ValueHashTableOf"** @_ZN11xercesc_2_721GeneralAttributeCheck7fAttMapE, align 8, !dbg !3538
  store i16 3, i16* %ref.tmp4, align 2, !dbg !3539
  call void @_ZN11xercesc_2_716ValueHashTableOfItE3putEPvRKt(%"class.xercesc_2_7::ValueHashTableOf"* %5, i8* bitcast ([0 x i16]* @_ZN11xercesc_2_713SchemaSymbols11fgATT_BLOCKE to i8*), i16* dereferenceable(2) %ref.tmp4), !dbg !3540
  %6 = load %"class.xercesc_2_7::ValueHashTableOf"*, %"class.xercesc_2_7::ValueHashTableOf"** @_ZN11xercesc_2_721GeneralAttributeCheck7fAttMapE, align 8, !dbg !3541
  store i16 4, i16* %ref.tmp5, align 2, !dbg !3542
  call void @_ZN11xercesc_2_716ValueHashTableOfItE3putEPvRKt(%"class.xercesc_2_7::ValueHashTableOf"* %6, i8* bitcast ([0 x i16]* @_ZN11xercesc_2_713SchemaSymbols18fgATT_BLOCKDEFAULTE to i8*), i16* dereferenceable(2) %ref.tmp5), !dbg !3543
  %7 = load %"class.xercesc_2_7::ValueHashTableOf"*, %"class.xercesc_2_7::ValueHashTableOf"** @_ZN11xercesc_2_721GeneralAttributeCheck7fAttMapE, align 8, !dbg !3544
  store i16 5, i16* %ref.tmp6, align 2, !dbg !3545
  call void @_ZN11xercesc_2_716ValueHashTableOfItE3putEPvRKt(%"class.xercesc_2_7::ValueHashTableOf"* %7, i8* bitcast ([0 x i16]* @_ZN11xercesc_2_713SchemaSymbols13fgATT_DEFAULTE to i8*), i16* dereferenceable(2) %ref.tmp6), !dbg !3546
  %8 = load %"class.xercesc_2_7::ValueHashTableOf"*, %"class.xercesc_2_7::ValueHashTableOf"** @_ZN11xercesc_2_721GeneralAttributeCheck7fAttMapE, align 8, !dbg !3547
  store i16 6, i16* %ref.tmp7, align 2, !dbg !3548
  call void @_ZN11xercesc_2_716ValueHashTableOfItE3putEPvRKt(%"class.xercesc_2_7::ValueHashTableOf"* %8, i8* bitcast ([0 x i16]* @_ZN11xercesc_2_713SchemaSymbols24fgATT_ELEMENTFORMDEFAULTE to i8*), i16* dereferenceable(2) %ref.tmp7), !dbg !3549
  %9 = load %"class.xercesc_2_7::ValueHashTableOf"*, %"class.xercesc_2_7::ValueHashTableOf"** @_ZN11xercesc_2_721GeneralAttributeCheck7fAttMapE, align 8, !dbg !3550
  store i16 7, i16* %ref.tmp8, align 2, !dbg !3551
  call void @_ZN11xercesc_2_716ValueHashTableOfItE3putEPvRKt(%"class.xercesc_2_7::ValueHashTableOf"* %9, i8* bitcast ([0 x i16]* @_ZN11xercesc_2_713SchemaSymbols11fgATT_FINALE to i8*), i16* dereferenceable(2) %ref.tmp8), !dbg !3552
  %10 = load %"class.xercesc_2_7::ValueHashTableOf"*, %"class.xercesc_2_7::ValueHashTableOf"** @_ZN11xercesc_2_721GeneralAttributeCheck7fAttMapE, align 8, !dbg !3553
  store i16 8, i16* %ref.tmp9, align 2, !dbg !3554
  call void @_ZN11xercesc_2_716ValueHashTableOfItE3putEPvRKt(%"class.xercesc_2_7::ValueHashTableOf"* %10, i8* bitcast ([0 x i16]* @_ZN11xercesc_2_713SchemaSymbols18fgATT_FINALDEFAULTE to i8*), i16* dereferenceable(2) %ref.tmp9), !dbg !3555
  %11 = load %"class.xercesc_2_7::ValueHashTableOf"*, %"class.xercesc_2_7::ValueHashTableOf"** @_ZN11xercesc_2_721GeneralAttributeCheck7fAttMapE, align 8, !dbg !3556
  store i16 9, i16* %ref.tmp10, align 2, !dbg !3557
  call void @_ZN11xercesc_2_716ValueHashTableOfItE3putEPvRKt(%"class.xercesc_2_7::ValueHashTableOf"* %11, i8* bitcast ([0 x i16]* @_ZN11xercesc_2_713SchemaSymbols11fgATT_FIXEDE to i8*), i16* dereferenceable(2) %ref.tmp10), !dbg !3558
  %12 = load %"class.xercesc_2_7::ValueHashTableOf"*, %"class.xercesc_2_7::ValueHashTableOf"** @_ZN11xercesc_2_721GeneralAttributeCheck7fAttMapE, align 8, !dbg !3559
  store i16 10, i16* %ref.tmp11, align 2, !dbg !3560
  call void @_ZN11xercesc_2_716ValueHashTableOfItE3putEPvRKt(%"class.xercesc_2_7::ValueHashTableOf"* %12, i8* bitcast ([0 x i16]* @_ZN11xercesc_2_713SchemaSymbols10fgATT_FORME to i8*), i16* dereferenceable(2) %ref.tmp11), !dbg !3561
  %13 = load %"class.xercesc_2_7::ValueHashTableOf"*, %"class.xercesc_2_7::ValueHashTableOf"** @_ZN11xercesc_2_721GeneralAttributeCheck7fAttMapE, align 8, !dbg !3562
  store i16 11, i16* %ref.tmp12, align 2, !dbg !3563
  call void @_ZN11xercesc_2_716ValueHashTableOfItE3putEPvRKt(%"class.xercesc_2_7::ValueHashTableOf"* %13, i8* bitcast ([0 x i16]* @_ZN11xercesc_2_713SchemaSymbols8fgATT_IDE to i8*), i16* dereferenceable(2) %ref.tmp12), !dbg !3564
  %14 = load %"class.xercesc_2_7::ValueHashTableOf"*, %"class.xercesc_2_7::ValueHashTableOf"** @_ZN11xercesc_2_721GeneralAttributeCheck7fAttMapE, align 8, !dbg !3565
  store i16 12, i16* %ref.tmp13, align 2, !dbg !3566
  call void @_ZN11xercesc_2_716ValueHashTableOfItE3putEPvRKt(%"class.xercesc_2_7::ValueHashTableOf"* %14, i8* bitcast ([0 x i16]* @_ZN11xercesc_2_713SchemaSymbols14fgATT_ITEMTYPEE to i8*), i16* dereferenceable(2) %ref.tmp13), !dbg !3567
  %15 = load %"class.xercesc_2_7::ValueHashTableOf"*, %"class.xercesc_2_7::ValueHashTableOf"** @_ZN11xercesc_2_721GeneralAttributeCheck7fAttMapE, align 8, !dbg !3568
  store i16 13, i16* %ref.tmp14, align 2, !dbg !3569
  call void @_ZN11xercesc_2_716ValueHashTableOfItE3putEPvRKt(%"class.xercesc_2_7::ValueHashTableOf"* %15, i8* bitcast ([0 x i16]* @_ZN11xercesc_2_713SchemaSymbols15fgATT_MAXOCCURSE to i8*), i16* dereferenceable(2) %ref.tmp14), !dbg !3570
  %16 = load %"class.xercesc_2_7::ValueHashTableOf"*, %"class.xercesc_2_7::ValueHashTableOf"** @_ZN11xercesc_2_721GeneralAttributeCheck7fAttMapE, align 8, !dbg !3571
  store i16 14, i16* %ref.tmp15, align 2, !dbg !3572
  call void @_ZN11xercesc_2_716ValueHashTableOfItE3putEPvRKt(%"class.xercesc_2_7::ValueHashTableOf"* %16, i8* bitcast ([0 x i16]* @_ZN11xercesc_2_713SchemaSymbols17fgATT_MEMBERTYPESE to i8*), i16* dereferenceable(2) %ref.tmp15), !dbg !3573
  %17 = load %"class.xercesc_2_7::ValueHashTableOf"*, %"class.xercesc_2_7::ValueHashTableOf"** @_ZN11xercesc_2_721GeneralAttributeCheck7fAttMapE, align 8, !dbg !3574
  store i16 15, i16* %ref.tmp16, align 2, !dbg !3575
  call void @_ZN11xercesc_2_716ValueHashTableOfItE3putEPvRKt(%"class.xercesc_2_7::ValueHashTableOf"* %17, i8* bitcast ([0 x i16]* @_ZN11xercesc_2_713SchemaSymbols15fgATT_MINOCCURSE to i8*), i16* dereferenceable(2) %ref.tmp16), !dbg !3576
  %18 = load %"class.xercesc_2_7::ValueHashTableOf"*, %"class.xercesc_2_7::ValueHashTableOf"** @_ZN11xercesc_2_721GeneralAttributeCheck7fAttMapE, align 8, !dbg !3577
  store i16 16, i16* %ref.tmp17, align 2, !dbg !3578
  call void @_ZN11xercesc_2_716ValueHashTableOfItE3putEPvRKt(%"class.xercesc_2_7::ValueHashTableOf"* %18, i8* bitcast ([0 x i16]* @_ZN11xercesc_2_713SchemaSymbols11fgATT_MIXEDE to i8*), i16* dereferenceable(2) %ref.tmp17), !dbg !3579
  %19 = load %"class.xercesc_2_7::ValueHashTableOf"*, %"class.xercesc_2_7::ValueHashTableOf"** @_ZN11xercesc_2_721GeneralAttributeCheck7fAttMapE, align 8, !dbg !3580
  store i16 17, i16* %ref.tmp18, align 2, !dbg !3581
  call void @_ZN11xercesc_2_716ValueHashTableOfItE3putEPvRKt(%"class.xercesc_2_7::ValueHashTableOf"* %19, i8* bitcast ([0 x i16]* @_ZN11xercesc_2_713SchemaSymbols10fgATT_NAMEE to i8*), i16* dereferenceable(2) %ref.tmp18), !dbg !3582
  %20 = load %"class.xercesc_2_7::ValueHashTableOf"*, %"class.xercesc_2_7::ValueHashTableOf"** @_ZN11xercesc_2_721GeneralAttributeCheck7fAttMapE, align 8, !dbg !3583
  store i16 18, i16* %ref.tmp19, align 2, !dbg !3584
  call void @_ZN11xercesc_2_716ValueHashTableOfItE3putEPvRKt(%"class.xercesc_2_7::ValueHashTableOf"* %20, i8* bitcast ([0 x i16]* @_ZN11xercesc_2_713SchemaSymbols15fgATT_NAMESPACEE to i8*), i16* dereferenceable(2) %ref.tmp19), !dbg !3585
  %21 = load %"class.xercesc_2_7::ValueHashTableOf"*, %"class.xercesc_2_7::ValueHashTableOf"** @_ZN11xercesc_2_721GeneralAttributeCheck7fAttMapE, align 8, !dbg !3586
  store i16 19, i16* %ref.tmp20, align 2, !dbg !3587
  call void @_ZN11xercesc_2_716ValueHashTableOfItE3putEPvRKt(%"class.xercesc_2_7::ValueHashTableOf"* %21, i8* bitcast ([0 x i16]* @_ZN11xercesc_2_713SchemaSymbols14fgATT_NILLABLEE to i8*), i16* dereferenceable(2) %ref.tmp20), !dbg !3588
  %22 = load %"class.xercesc_2_7::ValueHashTableOf"*, %"class.xercesc_2_7::ValueHashTableOf"** @_ZN11xercesc_2_721GeneralAttributeCheck7fAttMapE, align 8, !dbg !3589
  store i16 20, i16* %ref.tmp21, align 2, !dbg !3590
  call void @_ZN11xercesc_2_716ValueHashTableOfItE3putEPvRKt(%"class.xercesc_2_7::ValueHashTableOf"* %22, i8* bitcast ([0 x i16]* @_ZN11xercesc_2_713SchemaSymbols21fgATT_PROCESSCONTENTSE to i8*), i16* dereferenceable(2) %ref.tmp21), !dbg !3591
  %23 = load %"class.xercesc_2_7::ValueHashTableOf"*, %"class.xercesc_2_7::ValueHashTableOf"** @_ZN11xercesc_2_721GeneralAttributeCheck7fAttMapE, align 8, !dbg !3592
  store i16 21, i16* %ref.tmp22, align 2, !dbg !3593
  call void @_ZN11xercesc_2_716ValueHashTableOfItE3putEPvRKt(%"class.xercesc_2_7::ValueHashTableOf"* %23, i8* bitcast ([0 x i16]* @_ZN11xercesc_2_713SchemaSymbols12fgATT_PUBLICE to i8*), i16* dereferenceable(2) %ref.tmp22), !dbg !3594
  %24 = load %"class.xercesc_2_7::ValueHashTableOf"*, %"class.xercesc_2_7::ValueHashTableOf"** @_ZN11xercesc_2_721GeneralAttributeCheck7fAttMapE, align 8, !dbg !3595
  store i16 22, i16* %ref.tmp23, align 2, !dbg !3596
  call void @_ZN11xercesc_2_716ValueHashTableOfItE3putEPvRKt(%"class.xercesc_2_7::ValueHashTableOf"* %24, i8* bitcast ([0 x i16]* @_ZN11xercesc_2_713SchemaSymbols9fgATT_REFE to i8*), i16* dereferenceable(2) %ref.tmp23), !dbg !3597
  %25 = load %"class.xercesc_2_7::ValueHashTableOf"*, %"class.xercesc_2_7::ValueHashTableOf"** @_ZN11xercesc_2_721GeneralAttributeCheck7fAttMapE, align 8, !dbg !3598
  store i16 23, i16* %ref.tmp24, align 2, !dbg !3599
  call void @_ZN11xercesc_2_716ValueHashTableOfItE3putEPvRKt(%"class.xercesc_2_7::ValueHashTableOf"* %25, i8* bitcast ([0 x i16]* @_ZN11xercesc_2_713SchemaSymbols11fgATT_REFERE to i8*), i16* dereferenceable(2) %ref.tmp24), !dbg !3600
  %26 = load %"class.xercesc_2_7::ValueHashTableOf"*, %"class.xercesc_2_7::ValueHashTableOf"** @_ZN11xercesc_2_721GeneralAttributeCheck7fAttMapE, align 8, !dbg !3601
  store i16 24, i16* %ref.tmp25, align 2, !dbg !3602
  call void @_ZN11xercesc_2_716ValueHashTableOfItE3putEPvRKt(%"class.xercesc_2_7::ValueHashTableOf"* %26, i8* bitcast ([0 x i16]* @_ZN11xercesc_2_713SchemaSymbols20fgATT_SCHEMALOCATIONE to i8*), i16* dereferenceable(2) %ref.tmp25), !dbg !3603
  %27 = load %"class.xercesc_2_7::ValueHashTableOf"*, %"class.xercesc_2_7::ValueHashTableOf"** @_ZN11xercesc_2_721GeneralAttributeCheck7fAttMapE, align 8, !dbg !3604
  store i16 25, i16* %ref.tmp26, align 2, !dbg !3605
  call void @_ZN11xercesc_2_716ValueHashTableOfItE3putEPvRKt(%"class.xercesc_2_7::ValueHashTableOf"* %27, i8* bitcast ([0 x i16]* @_ZN11xercesc_2_713SchemaSymbols12fgATT_SOURCEE to i8*), i16* dereferenceable(2) %ref.tmp26), !dbg !3606
  %28 = load %"class.xercesc_2_7::ValueHashTableOf"*, %"class.xercesc_2_7::ValueHashTableOf"** @_ZN11xercesc_2_721GeneralAttributeCheck7fAttMapE, align 8, !dbg !3607
  store i16 26, i16* %ref.tmp27, align 2, !dbg !3608
  call void @_ZN11xercesc_2_716ValueHashTableOfItE3putEPvRKt(%"class.xercesc_2_7::ValueHashTableOf"* %28, i8* bitcast ([0 x i16]* @_ZN11xercesc_2_713SchemaSymbols23fgATT_SUBSTITUTIONGROUPE to i8*), i16* dereferenceable(2) %ref.tmp27), !dbg !3609
  %29 = load %"class.xercesc_2_7::ValueHashTableOf"*, %"class.xercesc_2_7::ValueHashTableOf"** @_ZN11xercesc_2_721GeneralAttributeCheck7fAttMapE, align 8, !dbg !3610
  store i16 27, i16* %ref.tmp28, align 2, !dbg !3611
  call void @_ZN11xercesc_2_716ValueHashTableOfItE3putEPvRKt(%"class.xercesc_2_7::ValueHashTableOf"* %29, i8* bitcast ([0 x i16]* @_ZN11xercesc_2_713SchemaSymbols12fgATT_SYSTEME to i8*), i16* dereferenceable(2) %ref.tmp28), !dbg !3612
  %30 = load %"class.xercesc_2_7::ValueHashTableOf"*, %"class.xercesc_2_7::ValueHashTableOf"** @_ZN11xercesc_2_721GeneralAttributeCheck7fAttMapE, align 8, !dbg !3613
  store i16 28, i16* %ref.tmp29, align 2, !dbg !3614
  call void @_ZN11xercesc_2_716ValueHashTableOfItE3putEPvRKt(%"class.xercesc_2_7::ValueHashTableOf"* %30, i8* bitcast ([0 x i16]* @_ZN11xercesc_2_713SchemaSymbols21fgATT_TARGETNAMESPACEE to i8*), i16* dereferenceable(2) %ref.tmp29), !dbg !3615
  %31 = load %"class.xercesc_2_7::ValueHashTableOf"*, %"class.xercesc_2_7::ValueHashTableOf"** @_ZN11xercesc_2_721GeneralAttributeCheck7fAttMapE, align 8, !dbg !3616
  store i16 29, i16* %ref.tmp30, align 2, !dbg !3617
  call void @_ZN11xercesc_2_716ValueHashTableOfItE3putEPvRKt(%"class.xercesc_2_7::ValueHashTableOf"* %31, i8* bitcast ([0 x i16]* @_ZN11xercesc_2_713SchemaSymbols10fgATT_TYPEE to i8*), i16* dereferenceable(2) %ref.tmp30), !dbg !3618
  %32 = load %"class.xercesc_2_7::ValueHashTableOf"*, %"class.xercesc_2_7::ValueHashTableOf"** @_ZN11xercesc_2_721GeneralAttributeCheck7fAttMapE, align 8, !dbg !3619
  store i16 30, i16* %ref.tmp31, align 2, !dbg !3620
  call void @_ZN11xercesc_2_716ValueHashTableOfItE3putEPvRKt(%"class.xercesc_2_7::ValueHashTableOf"* %32, i8* bitcast ([0 x i16]* @_ZN11xercesc_2_713SchemaSymbols9fgATT_USEE to i8*), i16* dereferenceable(2) %ref.tmp31), !dbg !3621
  %33 = load %"class.xercesc_2_7::ValueHashTableOf"*, %"class.xercesc_2_7::ValueHashTableOf"** @_ZN11xercesc_2_721GeneralAttributeCheck7fAttMapE, align 8, !dbg !3622
  store i16 31, i16* %ref.tmp32, align 2, !dbg !3623
  call void @_ZN11xercesc_2_716ValueHashTableOfItE3putEPvRKt(%"class.xercesc_2_7::ValueHashTableOf"* %33, i8* bitcast ([0 x i16]* @_ZN11xercesc_2_713SchemaSymbols11fgATT_VALUEE to i8*), i16* dereferenceable(2) %ref.tmp32), !dbg !3624
  %34 = load %"class.xercesc_2_7::ValueHashTableOf"*, %"class.xercesc_2_7::ValueHashTableOf"** @_ZN11xercesc_2_721GeneralAttributeCheck7fAttMapE, align 8, !dbg !3625
  store i16 32, i16* %ref.tmp33, align 2, !dbg !3626
  call void @_ZN11xercesc_2_716ValueHashTableOfItE3putEPvRKt(%"class.xercesc_2_7::ValueHashTableOf"* %34, i8* bitcast ([0 x i16]* @_ZN11xercesc_2_713SchemaSymbols13fgATT_VERSIONE to i8*), i16* dereferenceable(2) %ref.tmp33), !dbg !3627
  %35 = load %"class.xercesc_2_7::ValueHashTableOf"*, %"class.xercesc_2_7::ValueHashTableOf"** @_ZN11xercesc_2_721GeneralAttributeCheck7fAttMapE, align 8, !dbg !3628
  store i16 33, i16* %ref.tmp34, align 2, !dbg !3629
  call void @_ZN11xercesc_2_716ValueHashTableOfItE3putEPvRKt(%"class.xercesc_2_7::ValueHashTableOf"* %35, i8* bitcast ([0 x i16]* @_ZN11xercesc_2_713SchemaSymbols11fgATT_XPATHE to i8*), i16* dereferenceable(2) %ref.tmp34), !dbg !3630
  %call35 = call i8* @_ZN11xercesc_2_77XMemorynwEm(i64 32), !dbg !3631
  %36 = bitcast i8* %call35 to %"class.xercesc_2_7::ValueHashTableOf"*, !dbg !3631
  %37 = load %"class.xercesc_2_7::MemoryManager"*, %"class.xercesc_2_7::MemoryManager"** @_ZN11xercesc_2_716XMLPlatformUtils15fgMemoryManagerE, align 8, !dbg !3632
  invoke void @_ZN11xercesc_2_716ValueHashTableOfItEC2EjPNS_13MemoryManagerE(%"class.xercesc_2_7::ValueHashTableOf"* %36, i32 13, %"class.xercesc_2_7::MemoryManager"* %37)
          to label %invoke.cont37 unwind label %lpad36, !dbg !3632

invoke.cont37:                                    ; preds = %invoke.cont
  store %"class.xercesc_2_7::ValueHashTableOf"* %36, %"class.xercesc_2_7::ValueHashTableOf"** @_ZN11xercesc_2_721GeneralAttributeCheck10fFacetsMapE, align 8, !dbg !3633
  %38 = load %"class.xercesc_2_7::ValueHashTableOf"*, %"class.xercesc_2_7::ValueHashTableOf"** @_ZN11xercesc_2_721GeneralAttributeCheck10fFacetsMapE, align 8, !dbg !3634
  store i16 33, i16* %ref.tmp38, align 2, !dbg !3635
  call void @_ZN11xercesc_2_716ValueHashTableOfItE3putEPvRKt(%"class.xercesc_2_7::ValueHashTableOf"* %38, i8* bitcast ([0 x i16]* @_ZN11xercesc_2_713SchemaSymbols18fgELT_MINEXCLUSIVEE to i8*), i16* dereferenceable(2) %ref.tmp38), !dbg !3636
  %39 = load %"class.xercesc_2_7::ValueHashTableOf"*, %"class.xercesc_2_7::ValueHashTableOf"** @_ZN11xercesc_2_721GeneralAttributeCheck10fFacetsMapE, align 8, !dbg !3637
  store i16 34, i16* %ref.tmp39, align 2, !dbg !3638
  call void @_ZN11xercesc_2_716ValueHashTableOfItE3putEPvRKt(%"class.xercesc_2_7::ValueHashTableOf"* %39, i8* bitcast ([0 x i16]* @_ZN11xercesc_2_713SchemaSymbols18fgELT_MININCLUSIVEE to i8*), i16* dereferenceable(2) %ref.tmp39), !dbg !3639
  %40 = load %"class.xercesc_2_7::ValueHashTableOf"*, %"class.xercesc_2_7::ValueHashTableOf"** @_ZN11xercesc_2_721GeneralAttributeCheck10fFacetsMapE, align 8, !dbg !3640
  store i16 30, i16* %ref.tmp40, align 2, !dbg !3641
  call void @_ZN11xercesc_2_716ValueHashTableOfItE3putEPvRKt(%"class.xercesc_2_7::ValueHashTableOf"* %40, i8* bitcast ([0 x i16]* @_ZN11xercesc_2_713SchemaSymbols18fgELT_MAXEXCLUSIVEE to i8*), i16* dereferenceable(2) %ref.tmp40), !dbg !3642
  %41 = load %"class.xercesc_2_7::ValueHashTableOf"*, %"class.xercesc_2_7::ValueHashTableOf"** @_ZN11xercesc_2_721GeneralAttributeCheck10fFacetsMapE, align 8, !dbg !3643
  store i16 31, i16* %ref.tmp41, align 2, !dbg !3644
  call void @_ZN11xercesc_2_716ValueHashTableOfItE3putEPvRKt(%"class.xercesc_2_7::ValueHashTableOf"* %41, i8* bitcast ([0 x i16]* @_ZN11xercesc_2_713SchemaSymbols18fgELT_MAXINCLUSIVEE to i8*), i16* dereferenceable(2) %ref.tmp41), !dbg !3645
  %42 = load %"class.xercesc_2_7::ValueHashTableOf"*, %"class.xercesc_2_7::ValueHashTableOf"** @_ZN11xercesc_2_721GeneralAttributeCheck10fFacetsMapE, align 8, !dbg !3646
  store i16 46, i16* %ref.tmp42, align 2, !dbg !3647
  call void @_ZN11xercesc_2_716ValueHashTableOfItE3putEPvRKt(%"class.xercesc_2_7::ValueHashTableOf"* %42, i8* bitcast ([0 x i16]* @_ZN11xercesc_2_713SchemaSymbols17fgELT_TOTALDIGITSE to i8*), i16* dereferenceable(2) %ref.tmp42), !dbg !3648
  %43 = load %"class.xercesc_2_7::ValueHashTableOf"*, %"class.xercesc_2_7::ValueHashTableOf"** @_ZN11xercesc_2_721GeneralAttributeCheck10fFacetsMapE, align 8, !dbg !3649
  store i16 21, i16* %ref.tmp43, align 2, !dbg !3650
  call void @_ZN11xercesc_2_716ValueHashTableOfItE3putEPvRKt(%"class.xercesc_2_7::ValueHashTableOf"* %43, i8* bitcast ([0 x i16]* @_ZN11xercesc_2_713SchemaSymbols20fgELT_FRACTIONDIGITSE to i8*), i16* dereferenceable(2) %ref.tmp43), !dbg !3651
  %44 = load %"class.xercesc_2_7::ValueHashTableOf"*, %"class.xercesc_2_7::ValueHashTableOf"** @_ZN11xercesc_2_721GeneralAttributeCheck10fFacetsMapE, align 8, !dbg !3652
  store i16 28, i16* %ref.tmp44, align 2, !dbg !3653
  call void @_ZN11xercesc_2_716ValueHashTableOfItE3putEPvRKt(%"class.xercesc_2_7::ValueHashTableOf"* %44, i8* bitcast ([0 x i16]* @_ZN11xercesc_2_713SchemaSymbols12fgELT_LENGTHE to i8*), i16* dereferenceable(2) %ref.tmp44), !dbg !3654
  %45 = load %"class.xercesc_2_7::ValueHashTableOf"*, %"class.xercesc_2_7::ValueHashTableOf"** @_ZN11xercesc_2_721GeneralAttributeCheck10fFacetsMapE, align 8, !dbg !3655
  store i16 35, i16* %ref.tmp45, align 2, !dbg !3656
  call void @_ZN11xercesc_2_716ValueHashTableOfItE3putEPvRKt(%"class.xercesc_2_7::ValueHashTableOf"* %45, i8* bitcast ([0 x i16]* @_ZN11xercesc_2_713SchemaSymbols15fgELT_MINLENGTHE to i8*), i16* dereferenceable(2) %ref.tmp45), !dbg !3657
  %46 = load %"class.xercesc_2_7::ValueHashTableOf"*, %"class.xercesc_2_7::ValueHashTableOf"** @_ZN11xercesc_2_721GeneralAttributeCheck10fFacetsMapE, align 8, !dbg !3658
  store i16 32, i16* %ref.tmp46, align 2, !dbg !3659
  call void @_ZN11xercesc_2_716ValueHashTableOfItE3putEPvRKt(%"class.xercesc_2_7::ValueHashTableOf"* %46, i8* bitcast ([0 x i16]* @_ZN11xercesc_2_713SchemaSymbols15fgELT_MAXLENGTHE to i8*), i16* dereferenceable(2) %ref.tmp46), !dbg !3660
  %47 = load %"class.xercesc_2_7::ValueHashTableOf"*, %"class.xercesc_2_7::ValueHashTableOf"** @_ZN11xercesc_2_721GeneralAttributeCheck10fFacetsMapE, align 8, !dbg !3661
  store i16 18, i16* %ref.tmp47, align 2, !dbg !3662
  call void @_ZN11xercesc_2_716ValueHashTableOfItE3putEPvRKt(%"class.xercesc_2_7::ValueHashTableOf"* %47, i8* bitcast ([0 x i16]* @_ZN11xercesc_2_713SchemaSymbols17fgELT_ENUMERATIONE to i8*), i16* dereferenceable(2) %ref.tmp47), !dbg !3663
  %48 = load %"class.xercesc_2_7::ValueHashTableOf"*, %"class.xercesc_2_7::ValueHashTableOf"** @_ZN11xercesc_2_721GeneralAttributeCheck10fFacetsMapE, align 8, !dbg !3664
  store i16 49, i16* %ref.tmp48, align 2, !dbg !3665
  call void @_ZN11xercesc_2_716ValueHashTableOfItE3putEPvRKt(%"class.xercesc_2_7::ValueHashTableOf"* %48, i8* bitcast ([0 x i16]* @_ZN11xercesc_2_713SchemaSymbols16fgELT_WHITESPACEE to i8*), i16* dereferenceable(2) %ref.tmp48), !dbg !3666
  %49 = load %"class.xercesc_2_7::ValueHashTableOf"*, %"class.xercesc_2_7::ValueHashTableOf"** @_ZN11xercesc_2_721GeneralAttributeCheck10fFacetsMapE, align 8, !dbg !3667
  store i16 37, i16* %ref.tmp49, align 2, !dbg !3668
  call void @_ZN11xercesc_2_716ValueHashTableOfItE3putEPvRKt(%"class.xercesc_2_7::ValueHashTableOf"* %49, i8* bitcast ([0 x i16]* @_ZN11xercesc_2_713SchemaSymbols13fgELT_PATTERNE to i8*), i16* dereferenceable(2) %ref.tmp49), !dbg !3669
  ret void, !dbg !3670

lpad:                                             ; preds = %entry
  %50 = landingpad { i8*, i32 }
          cleanup, !dbg !3670
  %51 = extractvalue { i8*, i32 } %50, 0, !dbg !3670
  store i8* %51, i8** %exn.slot, align 8, !dbg !3670
  %52 = extractvalue { i8*, i32 } %50, 1, !dbg !3670
  store i32 %52, i32* %ehselector.slot, align 4, !dbg !3670
  call void @_ZN11xercesc_2_77XMemorydlEPv(i8* %call) #10, !dbg !3526
  br label %eh.resume, !dbg !3526

lpad36:                                           ; preds = %invoke.cont
  %53 = landingpad { i8*, i32 }
          cleanup, !dbg !3670
  %54 = extractvalue { i8*, i32 } %53, 0, !dbg !3670
  store i8* %54, i8** %exn.slot, align 8, !dbg !3670
  %55 = extractvalue { i8*, i32 } %53, 1, !dbg !3670
  store i32 %55, i32* %ehselector.slot, align 4, !dbg !3670
  call void @_ZN11xercesc_2_77XMemorydlEPv(i8* %call35) #10, !dbg !3631
  br label %eh.resume, !dbg !3631

eh.resume:                                        ; preds = %lpad36, %lpad
  %exn = load i8*, i8** %exn.slot, align 8, !dbg !3526
  %sel = load i32, i32* %ehselector.slot, align 4, !dbg !3526
  %lpad.val = insertvalue { i8*, i32 } undef, i8* %exn, 0, !dbg !3526
  %lpad.val50 = insertvalue { i8*, i32 } %lpad.val, i32 %sel, 1, !dbg !3526
  resume { i8*, i32 } %lpad.val50, !dbg !3526
}

declare dso_local void @_ZN11xercesc_2_718XMLRegisterCleanup15registerCleanupEPFvvE(%"class.xercesc_2_7::XMLRegisterCleanup"*, void ()*) #7

; Function Attrs: noinline nounwind uwtable
define dso_local void @_ZN11xercesc_2_721GeneralAttributeCheck21reinitGeneralAttCheckEv() #1 align 2 !dbg !3671 {
entry:
  %0 = load %"class.xercesc_2_7::XMLMutex"*, %"class.xercesc_2_7::XMLMutex"** @_ZN11xercesc_2_7L21sGeneralAttCheckMutexE, align 8, !dbg !3672
  %isnull = icmp eq %"class.xercesc_2_7::XMLMutex"* %0, null, !dbg !3673
  br i1 %isnull, label %delete.end, label %delete.notnull, !dbg !3673

delete.notnull:                                   ; preds = %entry
  call void @_ZN11xercesc_2_78XMLMutexD1Ev(%"class.xercesc_2_7::XMLMutex"* %0) #10, !dbg !3673
  %1 = bitcast %"class.xercesc_2_7::XMLMutex"* %0 to i8*, !dbg !3673
  call void @_ZN11xercesc_2_77XMemorydlEPv(i8* %1) #10, !dbg !3673
  br label %delete.end, !dbg !3673

delete.end:                                       ; preds = %delete.notnull, %entry
  store %"class.xercesc_2_7::XMLMutex"* null, %"class.xercesc_2_7::XMLMutex"** @_ZN11xercesc_2_7L21sGeneralAttCheckMutexE, align 8, !dbg !3674
  store i8 0, i8* @_ZN11xercesc_2_7L31sGeneralAttCheckMutexRegisteredE, align 1, !dbg !3675
  %2 = load %"class.xercesc_2_7::ValueHashTableOf"*, %"class.xercesc_2_7::ValueHashTableOf"** @_ZN11xercesc_2_721GeneralAttributeCheck7fAttMapE, align 8, !dbg !3676
  %isnull1 = icmp eq %"class.xercesc_2_7::ValueHashTableOf"* %2, null, !dbg !3677
  br i1 %isnull1, label %delete.end3, label %delete.notnull2, !dbg !3677

delete.notnull2:                                  ; preds = %delete.end
  call void @_ZN11xercesc_2_716ValueHashTableOfItED2Ev(%"class.xercesc_2_7::ValueHashTableOf"* %2) #10, !dbg !3677
  %3 = bitcast %"class.xercesc_2_7::ValueHashTableOf"* %2 to i8*, !dbg !3677
  call void @_ZN11xercesc_2_77XMemorydlEPv(i8* %3) #10, !dbg !3677
  br label %delete.end3, !dbg !3677

delete.end3:                                      ; preds = %delete.notnull2, %delete.end
  %4 = load %"class.xercesc_2_7::ValueHashTableOf"*, %"class.xercesc_2_7::ValueHashTableOf"** @_ZN11xercesc_2_721GeneralAttributeCheck10fFacetsMapE, align 8, !dbg !3678
  %isnull4 = icmp eq %"class.xercesc_2_7::ValueHashTableOf"* %4, null, !dbg !3679
  br i1 %isnull4, label %delete.end6, label %delete.notnull5, !dbg !3679

delete.notnull5:                                  ; preds = %delete.end3
  call void @_ZN11xercesc_2_716ValueHashTableOfItED2Ev(%"class.xercesc_2_7::ValueHashTableOf"* %4) #10, !dbg !3679
  %5 = bitcast %"class.xercesc_2_7::ValueHashTableOf"* %4 to i8*, !dbg !3679
  call void @_ZN11xercesc_2_77XMemorydlEPv(i8* %5) #10, !dbg !3679
  br label %delete.end6, !dbg !3679

delete.end6:                                      ; preds = %delete.notnull5, %delete.end3
  store %"class.xercesc_2_7::ValueHashTableOf"* null, %"class.xercesc_2_7::ValueHashTableOf"** @_ZN11xercesc_2_721GeneralAttributeCheck10fFacetsMapE, align 8, !dbg !3680
  store %"class.xercesc_2_7::ValueHashTableOf"* null, %"class.xercesc_2_7::ValueHashTableOf"** @_ZN11xercesc_2_721GeneralAttributeCheck7fAttMapE, align 8, !dbg !3681
  store %"class.xercesc_2_7::DatatypeValidator"* null, %"class.xercesc_2_7::DatatypeValidator"** @_ZN11xercesc_2_721GeneralAttributeCheck9fAnyURIDVE, align 8, !dbg !3682
  store %"class.xercesc_2_7::DatatypeValidator"* null, %"class.xercesc_2_7::DatatypeValidator"** @_ZN11xercesc_2_721GeneralAttributeCheck10fBooleanDVE, align 8, !dbg !3683
  store %"class.xercesc_2_7::DatatypeValidator"* null, %"class.xercesc_2_7::DatatypeValidator"** @_ZN11xercesc_2_721GeneralAttributeCheck12fNonNegIntDVE, align 8, !dbg !3684
  ret void, !dbg !3685
}

; Function Attrs: noinline uwtable
define linkonce_odr dso_local void @_ZN11xercesc_2_716ValueHashTableOfItEC2EjPNS_13MemoryManagerE(%"class.xercesc_2_7::ValueHashTableOf"* %this, i32 %modulus, %"class.xercesc_2_7::MemoryManager"* %manager) unnamed_addr #6 comdat align 2 personality i8* bitcast (i32 (...)* @__gxx_personality_v0 to i8*) !dbg !3686 {
entry:
  %this.addr = alloca %"class.xercesc_2_7::ValueHashTableOf"*, align 8
  %modulus.addr = alloca i32, align 4
  %manager.addr = alloca %"class.xercesc_2_7::MemoryManager"*, align 8
  %exn.slot = alloca i8*
  %ehselector.slot = alloca i32
  store %"class.xercesc_2_7::ValueHashTableOf"* %this, %"class.xercesc_2_7::ValueHashTableOf"** %this.addr, align 8
  call void @llvm.dbg.declare(metadata %"class.xercesc_2_7::ValueHashTableOf"** %this.addr, metadata !3688, metadata !DIExpression()), !dbg !3689
  store i32 %modulus, i32* %modulus.addr, align 4
  call void @llvm.dbg.declare(metadata i32* %modulus.addr, metadata !3690, metadata !DIExpression()), !dbg !3691
  store %"class.xercesc_2_7::MemoryManager"* %manager, %"class.xercesc_2_7::MemoryManager"** %manager.addr, align 8
  call void @llvm.dbg.declare(metadata %"class.xercesc_2_7::MemoryManager"** %manager.addr, metadata !3692, metadata !DIExpression()), !dbg !3693
  %this1 = load %"class.xercesc_2_7::ValueHashTableOf"*, %"class.xercesc_2_7::ValueHashTableOf"** %this.addr, align 8
  %0 = bitcast %"class.xercesc_2_7::ValueHashTableOf"* %this1 to %"class.xercesc_2_7::XMemory"*, !dbg !3694
  call void @_ZN11xercesc_2_77XMemoryC2Ev(%"class.xercesc_2_7::XMemory"* %0), !dbg !3695
  %fMemoryManager = getelementptr inbounds %"class.xercesc_2_7::ValueHashTableOf", %"class.xercesc_2_7::ValueHashTableOf"* %this1, i32 0, i32 0, !dbg !3697
  %1 = load %"class.xercesc_2_7::MemoryManager"*, %"class.xercesc_2_7::MemoryManager"** %manager.addr, align 8, !dbg !3699
  store %"class.xercesc_2_7::MemoryManager"* %1, %"class.xercesc_2_7::MemoryManager"** %fMemoryManager, align 8, !dbg !3697
  %fBucketList = getelementptr inbounds %"class.xercesc_2_7::ValueHashTableOf", %"class.xercesc_2_7::ValueHashTableOf"* %this1, i32 0, i32 1, !dbg !3700
  store %"struct.xercesc_2_7::ValueHashTableBucketElem"** null, %"struct.xercesc_2_7::ValueHashTableBucketElem"*** %fBucketList, align 8, !dbg !3700
  %fHashModulus = getelementptr inbounds %"class.xercesc_2_7::ValueHashTableOf", %"class.xercesc_2_7::ValueHashTableOf"* %this1, i32 0, i32 2, !dbg !3701
  %2 = load i32, i32* %modulus.addr, align 4, !dbg !3702
  store i32 %2, i32* %fHashModulus, align 8, !dbg !3701
  %fHash = getelementptr inbounds %"class.xercesc_2_7::ValueHashTableOf", %"class.xercesc_2_7::ValueHashTableOf"* %this1, i32 0, i32 3, !dbg !3703
  store %"class.xercesc_2_7::HashBase"* null, %"class.xercesc_2_7::HashBase"** %fHash, align 8, !dbg !3703
  %3 = load i32, i32* %modulus.addr, align 4, !dbg !3704
  call void @_ZN11xercesc_2_716ValueHashTableOfItE10initializeEj(%"class.xercesc_2_7::ValueHashTableOf"* %this1, i32 %3), !dbg !3706
  %fMemoryManager2 = getelementptr inbounds %"class.xercesc_2_7::ValueHashTableOf", %"class.xercesc_2_7::ValueHashTableOf"* %this1, i32 0, i32 0, !dbg !3707
  %4 = load %"class.xercesc_2_7::MemoryManager"*, %"class.xercesc_2_7::MemoryManager"** %fMemoryManager2, align 8, !dbg !3707
  %call = call i8* @_ZN11xercesc_2_77XMemorynwEmPNS_13MemoryManagerE(i64 8, %"class.xercesc_2_7::MemoryManager"* %4), !dbg !3708
  %5 = bitcast i8* %call to %"class.xercesc_2_7::HashXMLCh"*, !dbg !3708
  invoke void @_ZN11xercesc_2_79HashXMLChC1Ev(%"class.xercesc_2_7::HashXMLCh"* %5)
          to label %invoke.cont unwind label %lpad, !dbg !3709

invoke.cont:                                      ; preds = %entry
  %6 = bitcast %"class.xercesc_2_7::HashXMLCh"* %5 to %"class.xercesc_2_7::HashBase"*, !dbg !3708
  %fHash3 = getelementptr inbounds %"class.xercesc_2_7::ValueHashTableOf", %"class.xercesc_2_7::ValueHashTableOf"* %this1, i32 0, i32 3, !dbg !3710
  store %"class.xercesc_2_7::HashBase"* %6, %"class.xercesc_2_7::HashBase"** %fHash3, align 8, !dbg !3711
  ret void, !dbg !3712

lpad:                                             ; preds = %entry
  %7 = landingpad { i8*, i32 }
          cleanup, !dbg !3713
  %8 = extractvalue { i8*, i32 } %7, 0, !dbg !3713
  store i8* %8, i8** %exn.slot, align 8, !dbg !3713
  %9 = extractvalue { i8*, i32 } %7, 1, !dbg !3713
  store i32 %9, i32* %ehselector.slot, align 4, !dbg !3713
  call void @_ZN11xercesc_2_77XMemorydlEPvPNS_13MemoryManagerE(i8* %call, %"class.xercesc_2_7::MemoryManager"* %4) #10, !dbg !3708
  br label %eh.resume, !dbg !3708

eh.resume:                                        ; preds = %lpad
  %exn = load i8*, i8** %exn.slot, align 8, !dbg !3708
  %sel = load i32, i32* %ehselector.slot, align 4, !dbg !3708
  %lpad.val = insertvalue { i8*, i32 } undef, i8* %exn, 0, !dbg !3708
  %lpad.val4 = insertvalue { i8*, i32 } %lpad.val, i32 %sel, 1, !dbg !3708
  resume { i8*, i32 } %lpad.val4, !dbg !3708
}

; Function Attrs: noinline uwtable
define linkonce_odr dso_local void @_ZN11xercesc_2_716ValueHashTableOfItE3putEPvRKt(%"class.xercesc_2_7::ValueHashTableOf"* %this, i8* %key, i16* dereferenceable(2) %valueToAdopt) #6 comdat align 2 !dbg !3714 {
entry:
  %this.addr = alloca %"class.xercesc_2_7::ValueHashTableOf"*, align 8
  %key.addr = alloca i8*, align 8
  %valueToAdopt.addr = alloca i16*, align 8
  %hashVal = alloca i32, align 4
  %newBucket = alloca %"struct.xercesc_2_7::ValueHashTableBucketElem"*, align 8
  store %"class.xercesc_2_7::ValueHashTableOf"* %this, %"class.xercesc_2_7::ValueHashTableOf"** %this.addr, align 8
  call void @llvm.dbg.declare(metadata %"class.xercesc_2_7::ValueHashTableOf"** %this.addr, metadata !3715, metadata !DIExpression()), !dbg !3716
  store i8* %key, i8** %key.addr, align 8
  call void @llvm.dbg.declare(metadata i8** %key.addr, metadata !3717, metadata !DIExpression()), !dbg !3718
  store i16* %valueToAdopt, i16** %valueToAdopt.addr, align 8
  call void @llvm.dbg.declare(metadata i16** %valueToAdopt.addr, metadata !3719, metadata !DIExpression()), !dbg !3720
  %this1 = load %"class.xercesc_2_7::ValueHashTableOf"*, %"class.xercesc_2_7::ValueHashTableOf"** %this.addr, align 8
  call void @llvm.dbg.declare(metadata i32* %hashVal, metadata !3721, metadata !DIExpression()), !dbg !3722
  call void @llvm.dbg.declare(metadata %"struct.xercesc_2_7::ValueHashTableBucketElem"** %newBucket, metadata !3723, metadata !DIExpression()), !dbg !3724
  %0 = load i8*, i8** %key.addr, align 8, !dbg !3725
  %call = call %"struct.xercesc_2_7::ValueHashTableBucketElem"* @_ZN11xercesc_2_716ValueHashTableOfItE14findBucketElemEPKvRj(%"class.xercesc_2_7::ValueHashTableOf"* %this1, i8* %0, i32* dereferenceable(4) %hashVal), !dbg !3726
  store %"struct.xercesc_2_7::ValueHashTableBucketElem"* %call, %"struct.xercesc_2_7::ValueHashTableBucketElem"** %newBucket, align 8, !dbg !3724
  %1 = load %"struct.xercesc_2_7::ValueHashTableBucketElem"*, %"struct.xercesc_2_7::ValueHashTableBucketElem"** %newBucket, align 8, !dbg !3727
  %tobool = icmp ne %"struct.xercesc_2_7::ValueHashTableBucketElem"* %1, null, !dbg !3727
  br i1 %tobool, label %if.then, label %if.else, !dbg !3729

if.then:                                          ; preds = %entry
  %2 = load i16*, i16** %valueToAdopt.addr, align 8, !dbg !3730
  %3 = load i16, i16* %2, align 2, !dbg !3730
  %4 = load %"struct.xercesc_2_7::ValueHashTableBucketElem"*, %"struct.xercesc_2_7::ValueHashTableBucketElem"** %newBucket, align 8, !dbg !3732
  %fData = getelementptr inbounds %"struct.xercesc_2_7::ValueHashTableBucketElem", %"struct.xercesc_2_7::ValueHashTableBucketElem"* %4, i32 0, i32 0, !dbg !3733
  store i16 %3, i16* %fData, align 8, !dbg !3734
  %5 = load i8*, i8** %key.addr, align 8, !dbg !3735
  %6 = load %"struct.xercesc_2_7::ValueHashTableBucketElem"*, %"struct.xercesc_2_7::ValueHashTableBucketElem"** %newBucket, align 8, !dbg !3736
  %fKey = getelementptr inbounds %"struct.xercesc_2_7::ValueHashTableBucketElem", %"struct.xercesc_2_7::ValueHashTableBucketElem"* %6, i32 0, i32 2, !dbg !3737
  store i8* %5, i8** %fKey, align 8, !dbg !3738
  br label %if.end, !dbg !3739

if.else:                                          ; preds = %entry
  %fMemoryManager = getelementptr inbounds %"class.xercesc_2_7::ValueHashTableOf", %"class.xercesc_2_7::ValueHashTableOf"* %this1, i32 0, i32 0, !dbg !3740
  %7 = load %"class.xercesc_2_7::MemoryManager"*, %"class.xercesc_2_7::MemoryManager"** %fMemoryManager, align 8, !dbg !3740
  %8 = bitcast %"class.xercesc_2_7::MemoryManager"* %7 to i8* (%"class.xercesc_2_7::MemoryManager"*, i64)***, !dbg !3742
  %vtable = load i8* (%"class.xercesc_2_7::MemoryManager"*, i64)**, i8* (%"class.xercesc_2_7::MemoryManager"*, i64)*** %8, align 8, !dbg !3742
  %vfn = getelementptr inbounds i8* (%"class.xercesc_2_7::MemoryManager"*, i64)*, i8* (%"class.xercesc_2_7::MemoryManager"*, i64)** %vtable, i64 2, !dbg !3742
  %9 = load i8* (%"class.xercesc_2_7::MemoryManager"*, i64)*, i8* (%"class.xercesc_2_7::MemoryManager"*, i64)** %vfn, align 8, !dbg !3742
  %call2 = call i8* %9(%"class.xercesc_2_7::MemoryManager"* %7, i64 24), !dbg !3742
  %10 = bitcast i8* %call2 to %"struct.xercesc_2_7::ValueHashTableBucketElem"*, !dbg !3743
  %11 = load i8*, i8** %key.addr, align 8, !dbg !3744
  %12 = load i16*, i16** %valueToAdopt.addr, align 8, !dbg !3745
  %fBucketList = getelementptr inbounds %"class.xercesc_2_7::ValueHashTableOf", %"class.xercesc_2_7::ValueHashTableOf"* %this1, i32 0, i32 1, !dbg !3746
  %13 = load %"struct.xercesc_2_7::ValueHashTableBucketElem"**, %"struct.xercesc_2_7::ValueHashTableBucketElem"*** %fBucketList, align 8, !dbg !3746
  %14 = load i32, i32* %hashVal, align 4, !dbg !3747
  %idxprom = zext i32 %14 to i64, !dbg !3746
  %arrayidx = getelementptr inbounds %"struct.xercesc_2_7::ValueHashTableBucketElem"*, %"struct.xercesc_2_7::ValueHashTableBucketElem"** %13, i64 %idxprom, !dbg !3746
  %15 = load %"struct.xercesc_2_7::ValueHashTableBucketElem"*, %"struct.xercesc_2_7::ValueHashTableBucketElem"** %arrayidx, align 8, !dbg !3746
  call void @_ZN11xercesc_2_724ValueHashTableBucketElemItEC2EPvRKtPS1_(%"struct.xercesc_2_7::ValueHashTableBucketElem"* %10, i8* %11, i16* dereferenceable(2) %12, %"struct.xercesc_2_7::ValueHashTableBucketElem"* %15), !dbg !3748
  store %"struct.xercesc_2_7::ValueHashTableBucketElem"* %10, %"struct.xercesc_2_7::ValueHashTableBucketElem"** %newBucket, align 8, !dbg !3749
  %16 = load %"struct.xercesc_2_7::ValueHashTableBucketElem"*, %"struct.xercesc_2_7::ValueHashTableBucketElem"** %newBucket, align 8, !dbg !3750
  %fBucketList3 = getelementptr inbounds %"class.xercesc_2_7::ValueHashTableOf", %"class.xercesc_2_7::ValueHashTableOf"* %this1, i32 0, i32 1, !dbg !3751
  %17 = load %"struct.xercesc_2_7::ValueHashTableBucketElem"**, %"struct.xercesc_2_7::ValueHashTableBucketElem"*** %fBucketList3, align 8, !dbg !3751
  %18 = load i32, i32* %hashVal, align 4, !dbg !3752
  %idxprom4 = zext i32 %18 to i64, !dbg !3751
  %arrayidx5 = getelementptr inbounds %"struct.xercesc_2_7::ValueHashTableBucketElem"*, %"struct.xercesc_2_7::ValueHashTableBucketElem"** %17, i64 %idxprom4, !dbg !3751
  store %"struct.xercesc_2_7::ValueHashTableBucketElem"* %16, %"struct.xercesc_2_7::ValueHashTableBucketElem"** %arrayidx5, align 8, !dbg !3753
  br label %if.end

if.end:                                           ; preds = %if.else, %if.then
  ret void, !dbg !3754
}

; Function Attrs: nounwind
declare dso_local void @_ZN11xercesc_2_78XMLMutexD1Ev(%"class.xercesc_2_7::XMLMutex"*) unnamed_addr #4

; Function Attrs: noinline nounwind uwtable
define linkonce_odr dso_local void @_ZN11xercesc_2_716ValueHashTableOfItED2Ev(%"class.xercesc_2_7::ValueHashTableOf"* %this) unnamed_addr #1 comdat align 2 personality i8* bitcast (i32 (...)* @__gxx_personality_v0 to i8*) !dbg !3755 {
entry:
  %this.addr = alloca %"class.xercesc_2_7::ValueHashTableOf"*, align 8
  store %"class.xercesc_2_7::ValueHashTableOf"* %this, %"class.xercesc_2_7::ValueHashTableOf"** %this.addr, align 8
  call void @llvm.dbg.declare(metadata %"class.xercesc_2_7::ValueHashTableOf"** %this.addr, metadata !3756, metadata !DIExpression()), !dbg !3757
  %this1 = load %"class.xercesc_2_7::ValueHashTableOf"*, %"class.xercesc_2_7::ValueHashTableOf"** %this.addr, align 8
  invoke void @_ZN11xercesc_2_716ValueHashTableOfItE9removeAllEv(%"class.xercesc_2_7::ValueHashTableOf"* %this1)
          to label %invoke.cont unwind label %terminate.lpad, !dbg !3758

invoke.cont:                                      ; preds = %entry
  %fMemoryManager = getelementptr inbounds %"class.xercesc_2_7::ValueHashTableOf", %"class.xercesc_2_7::ValueHashTableOf"* %this1, i32 0, i32 0, !dbg !3760
  %0 = load %"class.xercesc_2_7::MemoryManager"*, %"class.xercesc_2_7::MemoryManager"** %fMemoryManager, align 8, !dbg !3760
  %fBucketList = getelementptr inbounds %"class.xercesc_2_7::ValueHashTableOf", %"class.xercesc_2_7::ValueHashTableOf"* %this1, i32 0, i32 1, !dbg !3761
  %1 = load %"struct.xercesc_2_7::ValueHashTableBucketElem"**, %"struct.xercesc_2_7::ValueHashTableBucketElem"*** %fBucketList, align 8, !dbg !3761
  %2 = bitcast %"struct.xercesc_2_7::ValueHashTableBucketElem"** %1 to i8*, !dbg !3761
  %3 = bitcast %"class.xercesc_2_7::MemoryManager"* %0 to void (%"class.xercesc_2_7::MemoryManager"*, i8*)***, !dbg !3762
  %vtable = load void (%"class.xercesc_2_7::MemoryManager"*, i8*)**, void (%"class.xercesc_2_7::MemoryManager"*, i8*)*** %3, align 8, !dbg !3762
  %vfn = getelementptr inbounds void (%"class.xercesc_2_7::MemoryManager"*, i8*)*, void (%"class.xercesc_2_7::MemoryManager"*, i8*)** %vtable, i64 3, !dbg !3762
  %4 = load void (%"class.xercesc_2_7::MemoryManager"*, i8*)*, void (%"class.xercesc_2_7::MemoryManager"*, i8*)** %vfn, align 8, !dbg !3762
  invoke void %4(%"class.xercesc_2_7::MemoryManager"* %0, i8* %2)
          to label %invoke.cont2 unwind label %terminate.lpad, !dbg !3762

invoke.cont2:                                     ; preds = %invoke.cont
  %fHash = getelementptr inbounds %"class.xercesc_2_7::ValueHashTableOf", %"class.xercesc_2_7::ValueHashTableOf"* %this1, i32 0, i32 3, !dbg !3763
  %5 = load %"class.xercesc_2_7::HashBase"*, %"class.xercesc_2_7::HashBase"** %fHash, align 8, !dbg !3763
  %isnull = icmp eq %"class.xercesc_2_7::HashBase"* %5, null, !dbg !3764
  br i1 %isnull, label %delete.end, label %delete.notnull, !dbg !3764

delete.notnull:                                   ; preds = %invoke.cont2
  %6 = bitcast %"class.xercesc_2_7::HashBase"* %5 to void (%"class.xercesc_2_7::HashBase"*)***, !dbg !3764
  %vtable3 = load void (%"class.xercesc_2_7::HashBase"*)**, void (%"class.xercesc_2_7::HashBase"*)*** %6, align 8, !dbg !3764
  %vfn4 = getelementptr inbounds void (%"class.xercesc_2_7::HashBase"*)*, void (%"class.xercesc_2_7::HashBase"*)** %vtable3, i64 3, !dbg !3764
  %7 = load void (%"class.xercesc_2_7::HashBase"*)*, void (%"class.xercesc_2_7::HashBase"*)** %vfn4, align 8, !dbg !3764
  call void %7(%"class.xercesc_2_7::HashBase"* %5) #10, !dbg !3764
  br label %delete.end, !dbg !3764

delete.end:                                       ; preds = %delete.notnull, %invoke.cont2
  ret void, !dbg !3765

terminate.lpad:                                   ; preds = %invoke.cont, %entry
  %8 = landingpad { i8*, i32 }
          catch i8* null, !dbg !3758
  %9 = extractvalue { i8*, i32 } %8, 0, !dbg !3758
  call void @__clang_call_terminate(i8* %9) #12, !dbg !3758
  unreachable, !dbg !3758
}

; Function Attrs: noinline uwtable
define dso_local void @_ZN11xercesc_2_721GeneralAttributeCheck15checkAttributesEPKNS_10DOMElementEtPNS_14TraverseSchemaEbPNS_13ValueVectorOfIPNS_7DOMNodeEEE(%"class.xercesc_2_7::GeneralAttributeCheck"* %this, %"class.xercesc_2_7::DOMElement"* %elem, i16 zeroext %elemContext, %"class.xercesc_2_7::TraverseSchema"* %schema, i1 zeroext %isTopLevel, %"class.xercesc_2_7::ValueVectorOf.26"* %nonXSAttList) #6 align 2 personality i8* bitcast (i32 (...)* @__gxx_personality_v0 to i8*) !dbg !3766 {
entry:
  %this.addr = alloca %"class.xercesc_2_7::GeneralAttributeCheck"*, align 8
  %elem.addr = alloca %"class.xercesc_2_7::DOMElement"*, align 8
  %elemContext.addr = alloca i16, align 2
  %schema.addr = alloca %"class.xercesc_2_7::TraverseSchema"*, align 8
  %isTopLevel.addr = alloca i8, align 1
  %nonXSAttList.addr = alloca %"class.xercesc_2_7::ValueVectorOf.26"*, align 8
  %elemName = alloca i16*, align 8
  %contextStr = alloca i16*, align 8
  %eltAttrs = alloca %"class.xercesc_2_7::DOMNamedNodeMap"*, align 8
  %attrCount = alloca i32, align 4
  %attList = alloca [34 x i8], align 16
  %i = alloca i32, align 4
  %attribute = alloca %"class.xercesc_2_7::DOMNode"*, align 8
  %attName = alloca i16*, align 8
  %attrURI = alloca i16*, align 8
  %attNameId = alloca i32, align 4
  %bContinue = alloca i8, align 1
  %exn.slot = alloca i8*
  %ehselector.slot = alloca i32
  %0 = alloca %"class.xercesc_2_7::OutOfMemoryException"*, align 8
  %j = alloca i32, align 4
  store %"class.xercesc_2_7::GeneralAttributeCheck"* %this, %"class.xercesc_2_7::GeneralAttributeCheck"** %this.addr, align 8
  call void @llvm.dbg.declare(metadata %"class.xercesc_2_7::GeneralAttributeCheck"** %this.addr, metadata !3767, metadata !DIExpression()), !dbg !3768
  store %"class.xercesc_2_7::DOMElement"* %elem, %"class.xercesc_2_7::DOMElement"** %elem.addr, align 8
  call void @llvm.dbg.declare(metadata %"class.xercesc_2_7::DOMElement"** %elem.addr, metadata !3769, metadata !DIExpression()), !dbg !3770
  store i16 %elemContext, i16* %elemContext.addr, align 2
  call void @llvm.dbg.declare(metadata i16* %elemContext.addr, metadata !3771, metadata !DIExpression()), !dbg !3772
  store %"class.xercesc_2_7::TraverseSchema"* %schema, %"class.xercesc_2_7::TraverseSchema"** %schema.addr, align 8
  call void @llvm.dbg.declare(metadata %"class.xercesc_2_7::TraverseSchema"** %schema.addr, metadata !3773, metadata !DIExpression()), !dbg !3774
  %frombool = zext i1 %isTopLevel to i8
  store i8 %frombool, i8* %isTopLevel.addr, align 1
  call void @llvm.dbg.declare(metadata i8* %isTopLevel.addr, metadata !3775, metadata !DIExpression()), !dbg !3776
  store %"class.xercesc_2_7::ValueVectorOf.26"* %nonXSAttList, %"class.xercesc_2_7::ValueVectorOf.26"** %nonXSAttList.addr, align 8
  call void @llvm.dbg.declare(metadata %"class.xercesc_2_7::ValueVectorOf.26"** %nonXSAttList.addr, metadata !3777, metadata !DIExpression()), !dbg !3778
  %this1 = load %"class.xercesc_2_7::GeneralAttributeCheck"*, %"class.xercesc_2_7::GeneralAttributeCheck"** %this.addr, align 8
  %1 = load %"class.xercesc_2_7::ValueVectorOf.26"*, %"class.xercesc_2_7::ValueVectorOf.26"** %nonXSAttList.addr, align 8, !dbg !3779
  %tobool = icmp ne %"class.xercesc_2_7::ValueVectorOf.26"* %1, null, !dbg !3779
  br i1 %tobool, label %if.then, label %if.end, !dbg !3781

if.then:                                          ; preds = %entry
  %2 = load %"class.xercesc_2_7::ValueVectorOf.26"*, %"class.xercesc_2_7::ValueVectorOf.26"** %nonXSAttList.addr, align 8, !dbg !3782
  call void @_ZN11xercesc_2_713ValueVectorOfIPNS_7DOMNodeEE17removeAllElementsEv(%"class.xercesc_2_7::ValueVectorOf.26"* %2), !dbg !3783
  br label %if.end, !dbg !3782

if.end:                                           ; preds = %if.then, %entry
  %3 = load %"class.xercesc_2_7::DOMElement"*, %"class.xercesc_2_7::DOMElement"** %elem.addr, align 8, !dbg !3784
  %cmp = icmp eq %"class.xercesc_2_7::DOMElement"* %3, null, !dbg !3786
  br i1 %cmp, label %if.then5, label %lor.lhs.false, !dbg !3787

lor.lhs.false:                                    ; preds = %if.end
  %4 = load %"class.xercesc_2_7::ValueHashTableOf"*, %"class.xercesc_2_7::ValueHashTableOf"** @_ZN11xercesc_2_721GeneralAttributeCheck7fAttMapE, align 8, !dbg !3788
  %tobool2 = icmp ne %"class.xercesc_2_7::ValueHashTableOf"* %4, null, !dbg !3788
  br i1 %tobool2, label %lor.lhs.false3, label %if.then5, !dbg !3789

lor.lhs.false3:                                   ; preds = %lor.lhs.false
  %5 = load i16, i16* %elemContext.addr, align 2, !dbg !3790
  %conv = zext i16 %5 to i32, !dbg !3790
  %cmp4 = icmp sge i32 %conv, 50, !dbg !3791
  br i1 %cmp4, label %if.then5, label %if.end6, !dbg !3792

if.then5:                                         ; preds = %lor.lhs.false3, %lor.lhs.false, %if.end
  br label %for.end131, !dbg !3793

if.end6:                                          ; preds = %lor.lhs.false3
  call void @llvm.dbg.declare(metadata i16** %elemName, metadata !3794, metadata !DIExpression()), !dbg !3795
  %6 = load %"class.xercesc_2_7::DOMElement"*, %"class.xercesc_2_7::DOMElement"** %elem.addr, align 8, !dbg !3796
  %7 = bitcast %"class.xercesc_2_7::DOMElement"* %6 to %"class.xercesc_2_7::DOMNode"*, !dbg !3797
  %8 = bitcast %"class.xercesc_2_7::DOMNode"* %7 to i16* (%"class.xercesc_2_7::DOMNode"*)***, !dbg !3797
  %vtable = load i16* (%"class.xercesc_2_7::DOMNode"*)**, i16* (%"class.xercesc_2_7::DOMNode"*)*** %8, align 8, !dbg !3797
  %vfn = getelementptr inbounds i16* (%"class.xercesc_2_7::DOMNode"*)*, i16* (%"class.xercesc_2_7::DOMNode"*)** %vtable, i64 24, !dbg !3797
  %9 = load i16* (%"class.xercesc_2_7::DOMNode"*)*, i16* (%"class.xercesc_2_7::DOMNode"*)** %vfn, align 8, !dbg !3797
  %call = call i16* %9(%"class.xercesc_2_7::DOMNode"* %7), !dbg !3797
  store i16* %call, i16** %elemName, align 8, !dbg !3795
  %10 = load %"class.xercesc_2_7::DOMElement"*, %"class.xercesc_2_7::DOMElement"** %elem.addr, align 8, !dbg !3798
  %11 = bitcast %"class.xercesc_2_7::DOMElement"* %10 to %"class.xercesc_2_7::DOMNode"*, !dbg !3800
  %12 = bitcast %"class.xercesc_2_7::DOMNode"* %11 to i16* (%"class.xercesc_2_7::DOMNode"*)***, !dbg !3800
  %vtable7 = load i16* (%"class.xercesc_2_7::DOMNode"*)**, i16* (%"class.xercesc_2_7::DOMNode"*)*** %12, align 8, !dbg !3800
  %vfn8 = getelementptr inbounds i16* (%"class.xercesc_2_7::DOMNode"*)*, i16* (%"class.xercesc_2_7::DOMNode"*)** %vtable7, i64 22, !dbg !3800
  %13 = load i16* (%"class.xercesc_2_7::DOMNode"*)*, i16* (%"class.xercesc_2_7::DOMNode"*)** %vfn8, align 8, !dbg !3800
  %call9 = call i16* %13(%"class.xercesc_2_7::DOMNode"* %11), !dbg !3800
  %call10 = call zeroext i1 @_ZN11xercesc_2_79XMLString6equalsEPKtS2_(i16* getelementptr inbounds ([0 x i16], [0 x i16]* @_ZN11xercesc_2_713SchemaSymbols21fgURI_SCHEMAFORSCHEMAE, i64 0, i64 0), i16* %call9), !dbg !3801
  br i1 %call10, label %if.end12, label %if.then11, !dbg !3802

if.then11:                                        ; preds = %if.end6
  %14 = load %"class.xercesc_2_7::TraverseSchema"*, %"class.xercesc_2_7::TraverseSchema"** %schema.addr, align 8, !dbg !3803
  %15 = load %"class.xercesc_2_7::DOMElement"*, %"class.xercesc_2_7::DOMElement"** %elem.addr, align 8, !dbg !3805
  %16 = load i16*, i16** %elemName, align 8, !dbg !3806
  call void @_ZN11xercesc_2_714TraverseSchema17reportSchemaErrorEPKNS_10DOMElementEPKtiS5_S5_S5_S5_(%"class.xercesc_2_7::TraverseSchema"* %14, %"class.xercesc_2_7::DOMElement"* %15, i16* getelementptr inbounds ([0 x i16], [0 x i16]* @_ZN11xercesc_2_76XMLUni14fgXMLErrDomainE, i64 0, i64 0), i32 166, i16* %16, i16* null, i16* null, i16* null), !dbg !3807
  br label %if.end12, !dbg !3808

if.end12:                                         ; preds = %if.then11, %if.end6
  call void @llvm.dbg.declare(metadata i16** %contextStr, metadata !3809, metadata !DIExpression()), !dbg !3810
  %17 = load i8, i8* %isTopLevel.addr, align 1, !dbg !3811
  %tobool13 = trunc i8 %17 to i1, !dbg !3811
  %18 = zext i1 %tobool13 to i64, !dbg !3812
  %cond = select i1 %tobool13, i16* getelementptr inbounds ([7 x i16], [7 x i16]* @_ZN11xercesc_2_7L8fgGlobalE, i64 0, i64 0), i16* getelementptr inbounds ([6 x i16], [6 x i16]* @_ZN11xercesc_2_7L7fgLocalE, i64 0, i64 0), !dbg !3812
  store i16* %cond, i16** %contextStr, align 8, !dbg !3810
  call void @llvm.dbg.declare(metadata %"class.xercesc_2_7::DOMNamedNodeMap"** %eltAttrs, metadata !3813, metadata !DIExpression()), !dbg !3817
  %19 = load %"class.xercesc_2_7::DOMElement"*, %"class.xercesc_2_7::DOMElement"** %elem.addr, align 8, !dbg !3818
  %20 = bitcast %"class.xercesc_2_7::DOMElement"* %19 to %"class.xercesc_2_7::DOMNode"*, !dbg !3819
  %21 = bitcast %"class.xercesc_2_7::DOMNode"* %20 to %"class.xercesc_2_7::DOMNamedNodeMap"* (%"class.xercesc_2_7::DOMNode"*)***, !dbg !3819
  %vtable14 = load %"class.xercesc_2_7::DOMNamedNodeMap"* (%"class.xercesc_2_7::DOMNode"*)**, %"class.xercesc_2_7::DOMNamedNodeMap"* (%"class.xercesc_2_7::DOMNode"*)*** %21, align 8, !dbg !3819
  %vfn15 = getelementptr inbounds %"class.xercesc_2_7::DOMNamedNodeMap"* (%"class.xercesc_2_7::DOMNode"*)*, %"class.xercesc_2_7::DOMNamedNodeMap"* (%"class.xercesc_2_7::DOMNode"*)** %vtable14, i64 11, !dbg !3819
  %22 = load %"class.xercesc_2_7::DOMNamedNodeMap"* (%"class.xercesc_2_7::DOMNode"*)*, %"class.xercesc_2_7::DOMNamedNodeMap"* (%"class.xercesc_2_7::DOMNode"*)** %vfn15, align 8, !dbg !3819
  %call16 = call %"class.xercesc_2_7::DOMNamedNodeMap"* %22(%"class.xercesc_2_7::DOMNode"* %20), !dbg !3819
  store %"class.xercesc_2_7::DOMNamedNodeMap"* %call16, %"class.xercesc_2_7::DOMNamedNodeMap"** %eltAttrs, align 8, !dbg !3817
  call void @llvm.dbg.declare(metadata i32* %attrCount, metadata !3820, metadata !DIExpression()), !dbg !3821
  %23 = load %"class.xercesc_2_7::DOMNamedNodeMap"*, %"class.xercesc_2_7::DOMNamedNodeMap"** %eltAttrs, align 8, !dbg !3822
  %24 = bitcast %"class.xercesc_2_7::DOMNamedNodeMap"* %23 to i64 (%"class.xercesc_2_7::DOMNamedNodeMap"*)***, !dbg !3823
  %vtable17 = load i64 (%"class.xercesc_2_7::DOMNamedNodeMap"*)**, i64 (%"class.xercesc_2_7::DOMNamedNodeMap"*)*** %24, align 8, !dbg !3823
  %vfn18 = getelementptr inbounds i64 (%"class.xercesc_2_7::DOMNamedNodeMap"*)*, i64 (%"class.xercesc_2_7::DOMNamedNodeMap"*)** %vtable17, i64 5, !dbg !3823
  %25 = load i64 (%"class.xercesc_2_7::DOMNamedNodeMap"*)*, i64 (%"class.xercesc_2_7::DOMNamedNodeMap"*)** %vfn18, align 8, !dbg !3823
  %call19 = call i64 %25(%"class.xercesc_2_7::DOMNamedNodeMap"* %23), !dbg !3823
  %conv20 = trunc i64 %call19 to i32, !dbg !3822
  store i32 %conv20, i32* %attrCount, align 4, !dbg !3821
  call void @llvm.dbg.declare(metadata [34 x i8]* %attList, metadata !3824, metadata !DIExpression()), !dbg !3826
  %arraydecay = getelementptr inbounds [34 x i8], [34 x i8]* %attList, i64 0, i64 0, !dbg !3827
  call void @llvm.memset.p0i8.i64(i8* align 16 %arraydecay, i8 0, i64 34, i1 false), !dbg !3827
  call void @llvm.dbg.declare(metadata i32* %i, metadata !3828, metadata !DIExpression()), !dbg !3830
  store i32 0, i32* %i, align 4, !dbg !3830
  br label %for.cond, !dbg !3831

for.cond:                                         ; preds = %for.inc, %if.end12
  %26 = load i32, i32* %i, align 4, !dbg !3832
  %27 = load i32, i32* %attrCount, align 4, !dbg !3834
  %cmp21 = icmp slt i32 %26, %27, !dbg !3835
  br i1 %cmp21, label %for.body, label %for.end, !dbg !3836

for.body:                                         ; preds = %for.cond
  call void @llvm.dbg.declare(metadata %"class.xercesc_2_7::DOMNode"** %attribute, metadata !3837, metadata !DIExpression()), !dbg !3839
  %28 = load %"class.xercesc_2_7::DOMNamedNodeMap"*, %"class.xercesc_2_7::DOMNamedNodeMap"** %eltAttrs, align 8, !dbg !3840
  %29 = load i32, i32* %i, align 4, !dbg !3841
  %conv22 = sext i32 %29 to i64, !dbg !3841
  %30 = bitcast %"class.xercesc_2_7::DOMNamedNodeMap"* %28 to %"class.xercesc_2_7::DOMNode"* (%"class.xercesc_2_7::DOMNamedNodeMap"*, i64)***, !dbg !3842
  %vtable23 = load %"class.xercesc_2_7::DOMNode"* (%"class.xercesc_2_7::DOMNamedNodeMap"*, i64)**, %"class.xercesc_2_7::DOMNode"* (%"class.xercesc_2_7::DOMNamedNodeMap"*, i64)*** %30, align 8, !dbg !3842
  %vfn24 = getelementptr inbounds %"class.xercesc_2_7::DOMNode"* (%"class.xercesc_2_7::DOMNamedNodeMap"*, i64)*, %"class.xercesc_2_7::DOMNode"* (%"class.xercesc_2_7::DOMNamedNodeMap"*, i64)** %vtable23, i64 3, !dbg !3842
  %31 = load %"class.xercesc_2_7::DOMNode"* (%"class.xercesc_2_7::DOMNamedNodeMap"*, i64)*, %"class.xercesc_2_7::DOMNode"* (%"class.xercesc_2_7::DOMNamedNodeMap"*, i64)** %vfn24, align 8, !dbg !3842
  %call25 = call %"class.xercesc_2_7::DOMNode"* %31(%"class.xercesc_2_7::DOMNamedNodeMap"* %28, i64 %conv22), !dbg !3842
  store %"class.xercesc_2_7::DOMNode"* %call25, %"class.xercesc_2_7::DOMNode"** %attribute, align 8, !dbg !3839
  call void @llvm.dbg.declare(metadata i16** %attName, metadata !3843, metadata !DIExpression()), !dbg !3844
  %32 = load %"class.xercesc_2_7::DOMNode"*, %"class.xercesc_2_7::DOMNode"** %attribute, align 8, !dbg !3845
  %33 = bitcast %"class.xercesc_2_7::DOMNode"* %32 to i16* (%"class.xercesc_2_7::DOMNode"*)***, !dbg !3846
  %vtable26 = load i16* (%"class.xercesc_2_7::DOMNode"*)**, i16* (%"class.xercesc_2_7::DOMNode"*)*** %33, align 8, !dbg !3846
  %vfn27 = getelementptr inbounds i16* (%"class.xercesc_2_7::DOMNode"*)*, i16* (%"class.xercesc_2_7::DOMNode"*)** %vtable26, i64 2, !dbg !3846
  %34 = load i16* (%"class.xercesc_2_7::DOMNode"*)*, i16* (%"class.xercesc_2_7::DOMNode"*)** %vfn27, align 8, !dbg !3846
  %call28 = call i16* %34(%"class.xercesc_2_7::DOMNode"* %32), !dbg !3846
  store i16* %call28, i16** %attName, align 8, !dbg !3844
  %35 = load i16*, i16** %attName, align 8, !dbg !3847
  %call29 = call zeroext i1 @_ZN11xercesc_2_79XMLString6equalsEPKtS2_(i16* %35, i16* getelementptr inbounds ([0 x i16], [0 x i16]* @_ZN11xercesc_2_76XMLUni13fgXMLNSStringE, i64 0, i64 0)), !dbg !3849
  br i1 %call29, label %if.then32, label %lor.lhs.false30, !dbg !3850

lor.lhs.false30:                                  ; preds = %for.body
  %36 = load i16*, i16** %attName, align 8, !dbg !3851
  %call31 = call zeroext i1 @_ZN11xercesc_2_79XMLString10startsWithEPKtS2_(i16* %36, i16* getelementptr inbounds ([0 x i16], [0 x i16]* @_ZN11xercesc_2_76XMLUni18fgXMLNSColonStringE, i64 0, i64 0)), !dbg !3852
  br i1 %call31, label %if.then32, label %if.end33, !dbg !3853

if.then32:                                        ; preds = %lor.lhs.false30, %for.body
  br label %for.inc, !dbg !3854

if.end33:                                         ; preds = %lor.lhs.false30
  %37 = load i16*, i16** %attName, align 8, !dbg !3855
  %38 = load i16, i16* %37, align 2, !dbg !3857
  %conv34 = zext i16 %38 to i32, !dbg !3857
  %cmp35 = icmp eq i32 %conv34, 88, !dbg !3858
  br i1 %cmp35, label %land.lhs.true, label %lor.lhs.false36, !dbg !3859

lor.lhs.false36:                                  ; preds = %if.end33
  %39 = load i16*, i16** %attName, align 8, !dbg !3860
  %40 = load i16, i16* %39, align 2, !dbg !3861
  %conv37 = zext i16 %40 to i32, !dbg !3861
  %cmp38 = icmp eq i32 %conv37, 120, !dbg !3862
  br i1 %cmp38, label %land.lhs.true, label %if.end57, !dbg !3863

land.lhs.true:                                    ; preds = %lor.lhs.false36, %if.end33
  %41 = load i16*, i16** %attName, align 8, !dbg !3864
  %add.ptr = getelementptr inbounds i16, i16* %41, i64 1, !dbg !3865
  %42 = load i16, i16* %add.ptr, align 2, !dbg !3866
  %conv39 = zext i16 %42 to i32, !dbg !3866
  %cmp40 = icmp eq i32 %conv39, 77, !dbg !3867
  br i1 %cmp40, label %land.lhs.true45, label %lor.lhs.false41, !dbg !3868

lor.lhs.false41:                                  ; preds = %land.lhs.true
  %43 = load i16*, i16** %attName, align 8, !dbg !3869
  %add.ptr42 = getelementptr inbounds i16, i16* %43, i64 1, !dbg !3870
  %44 = load i16, i16* %add.ptr42, align 2, !dbg !3871
  %conv43 = zext i16 %44 to i32, !dbg !3871
  %cmp44 = icmp eq i32 %conv43, 109, !dbg !3872
  br i1 %cmp44, label %land.lhs.true45, label %if.end57, !dbg !3873

land.lhs.true45:                                  ; preds = %lor.lhs.false41, %land.lhs.true
  %45 = load i16*, i16** %attName, align 8, !dbg !3874
  %add.ptr46 = getelementptr inbounds i16, i16* %45, i64 2, !dbg !3875
  %46 = load i16, i16* %add.ptr46, align 2, !dbg !3876
  %conv47 = zext i16 %46 to i32, !dbg !3876
  %cmp48 = icmp eq i32 %conv47, 76, !dbg !3877
  br i1 %cmp48, label %if.then53, label %lor.lhs.false49, !dbg !3878

lor.lhs.false49:                                  ; preds = %land.lhs.true45
  %47 = load i16*, i16** %attName, align 8, !dbg !3879
  %add.ptr50 = getelementptr inbounds i16, i16* %47, i64 2, !dbg !3880
  %48 = load i16, i16* %add.ptr50, align 2, !dbg !3881
  %conv51 = zext i16 %48 to i32, !dbg !3881
  %cmp52 = icmp eq i32 %conv51, 108, !dbg !3882
  br i1 %cmp52, label %if.then53, label %if.end57, !dbg !3883

if.then53:                                        ; preds = %lor.lhs.false49, %land.lhs.true45
  %49 = load %"class.xercesc_2_7::ValueVectorOf.26"*, %"class.xercesc_2_7::ValueVectorOf.26"** %nonXSAttList.addr, align 8, !dbg !3884
  %tobool54 = icmp ne %"class.xercesc_2_7::ValueVectorOf.26"* %49, null, !dbg !3884
  br i1 %tobool54, label %if.then55, label %if.end56, !dbg !3887

if.then55:                                        ; preds = %if.then53
  %50 = load %"class.xercesc_2_7::ValueVectorOf.26"*, %"class.xercesc_2_7::ValueVectorOf.26"** %nonXSAttList.addr, align 8, !dbg !3888
  call void @_ZN11xercesc_2_713ValueVectorOfIPNS_7DOMNodeEE10addElementERKS2_(%"class.xercesc_2_7::ValueVectorOf.26"* %50, %"class.xercesc_2_7::DOMNode"** dereferenceable(8) %attribute), !dbg !3889
  br label %if.end56, !dbg !3888

if.end56:                                         ; preds = %if.then55, %if.then53
  br label %for.inc, !dbg !3890

if.end57:                                         ; preds = %lor.lhs.false49, %lor.lhs.false41, %lor.lhs.false36
  call void @llvm.dbg.declare(metadata i16** %attrURI, metadata !3891, metadata !DIExpression()), !dbg !3892
  %51 = load %"class.xercesc_2_7::DOMNode"*, %"class.xercesc_2_7::DOMNode"** %attribute, align 8, !dbg !3893
  %52 = bitcast %"class.xercesc_2_7::DOMNode"* %51 to i16* (%"class.xercesc_2_7::DOMNode"*)***, !dbg !3894
  %vtable58 = load i16* (%"class.xercesc_2_7::DOMNode"*)**, i16* (%"class.xercesc_2_7::DOMNode"*)*** %52, align 8, !dbg !3894
  %vfn59 = getelementptr inbounds i16* (%"class.xercesc_2_7::DOMNode"*)*, i16* (%"class.xercesc_2_7::DOMNode"*)** %vtable58, i64 22, !dbg !3894
  %53 = load i16* (%"class.xercesc_2_7::DOMNode"*)*, i16* (%"class.xercesc_2_7::DOMNode"*)** %vfn59, align 8, !dbg !3894
  %call60 = call i16* %53(%"class.xercesc_2_7::DOMNode"* %51), !dbg !3894
  store i16* %call60, i16** %attrURI, align 8, !dbg !3892
  %54 = load i16*, i16** %attrURI, align 8, !dbg !3895
  %cmp61 = icmp ne i16* %54, null, !dbg !3897
  br i1 %cmp61, label %land.lhs.true62, label %if.end75, !dbg !3898

land.lhs.true62:                                  ; preds = %if.end57
  %55 = load i16*, i16** %attrURI, align 8, !dbg !3899
  %56 = load i16, i16* %55, align 2, !dbg !3900
  %tobool63 = icmp ne i16 %56, 0, !dbg !3900
  br i1 %tobool63, label %if.then64, label %if.end75, !dbg !3901

if.then64:                                        ; preds = %land.lhs.true62
  %57 = load i16*, i16** %attrURI, align 8, !dbg !3902
  %call65 = call zeroext i1 @_ZN11xercesc_2_79XMLString6equalsEPKtS2_(i16* %57, i16* getelementptr inbounds ([0 x i16], [0 x i16]* @_ZN11xercesc_2_713SchemaSymbols21fgURI_SCHEMAFORSCHEMAE, i64 0, i64 0)), !dbg !3905
  br i1 %call65, label %if.then70, label %lor.lhs.false66, !dbg !3906

lor.lhs.false66:                                  ; preds = %if.then64
  %58 = load i16*, i16** %elemName, align 8, !dbg !3907
  %call67 = call zeroext i1 @_ZN11xercesc_2_79XMLString6equalsEPKtS2_(i16* %58, i16* getelementptr inbounds ([0 x i16], [0 x i16]* @_ZN11xercesc_2_713SchemaSymbols13fgELT_APPINFOE, i64 0, i64 0)), !dbg !3908
  br i1 %call67, label %if.then70, label %lor.lhs.false68, !dbg !3909

lor.lhs.false68:                                  ; preds = %lor.lhs.false66
  %59 = load i16*, i16** %elemName, align 8, !dbg !3910
  %call69 = call zeroext i1 @_ZN11xercesc_2_79XMLString6equalsEPKtS2_(i16* %59, i16* getelementptr inbounds ([0 x i16], [0 x i16]* @_ZN11xercesc_2_713SchemaSymbols19fgELT_DOCUMENTATIONE, i64 0, i64 0)), !dbg !3911
  br i1 %call69, label %if.then70, label %if.else, !dbg !3912

if.then70:                                        ; preds = %lor.lhs.false68, %lor.lhs.false66, %if.then64
  %60 = load %"class.xercesc_2_7::TraverseSchema"*, %"class.xercesc_2_7::TraverseSchema"** %schema.addr, align 8, !dbg !3913
  %61 = load %"class.xercesc_2_7::DOMElement"*, %"class.xercesc_2_7::DOMElement"** %elem.addr, align 8, !dbg !3915
  %62 = load i16*, i16** %attName, align 8, !dbg !3916
  %63 = load i16*, i16** %contextStr, align 8, !dbg !3917
  %64 = load i16*, i16** %elemName, align 8, !dbg !3918
  call void @_ZN11xercesc_2_714TraverseSchema17reportSchemaErrorEPKNS_10DOMElementEPKtiS5_S5_S5_S5_(%"class.xercesc_2_7::TraverseSchema"* %60, %"class.xercesc_2_7::DOMElement"* %61, i16* getelementptr inbounds ([0 x i16], [0 x i16]* @_ZN11xercesc_2_76XMLUni14fgXMLErrDomainE, i64 0, i64 0), i32 95, i16* %62, i16* %63, i16* %64, i16* null), !dbg !3919
  br label %if.end74, !dbg !3920

if.else:                                          ; preds = %lor.lhs.false68
  %65 = load %"class.xercesc_2_7::ValueVectorOf.26"*, %"class.xercesc_2_7::ValueVectorOf.26"** %nonXSAttList.addr, align 8, !dbg !3921
  %tobool71 = icmp ne %"class.xercesc_2_7::ValueVectorOf.26"* %65, null, !dbg !3921
  br i1 %tobool71, label %if.then72, label %if.end73, !dbg !3923

if.then72:                                        ; preds = %if.else
  %66 = load %"class.xercesc_2_7::ValueVectorOf.26"*, %"class.xercesc_2_7::ValueVectorOf.26"** %nonXSAttList.addr, align 8, !dbg !3924
  call void @_ZN11xercesc_2_713ValueVectorOfIPNS_7DOMNodeEE10addElementERKS2_(%"class.xercesc_2_7::ValueVectorOf.26"* %66, %"class.xercesc_2_7::DOMNode"** dereferenceable(8) %attribute), !dbg !3926
  br label %if.end73, !dbg !3927

if.end73:                                         ; preds = %if.then72, %if.else
  br label %if.end74

if.end74:                                         ; preds = %if.end73, %if.then70
  br label %for.inc, !dbg !3928

if.end75:                                         ; preds = %land.lhs.true62, %if.end57
  call void @llvm.dbg.declare(metadata i32* %attNameId, metadata !3929, metadata !DIExpression()), !dbg !3930
  store i32 -1, i32* %attNameId, align 4, !dbg !3930
  %67 = load %"class.xercesc_2_7::DOMNode"*, %"class.xercesc_2_7::DOMNode"** %attribute, align 8, !dbg !3931
  %68 = bitcast %"class.xercesc_2_7::DOMNode"* %67 to i16* (%"class.xercesc_2_7::DOMNode"*)***, !dbg !3932
  %vtable76 = load i16* (%"class.xercesc_2_7::DOMNode"*)**, i16* (%"class.xercesc_2_7::DOMNode"*)*** %68, align 8, !dbg !3932
  %vfn77 = getelementptr inbounds i16* (%"class.xercesc_2_7::DOMNode"*)*, i16* (%"class.xercesc_2_7::DOMNode"*)** %vtable76, i64 24, !dbg !3932
  %69 = load i16* (%"class.xercesc_2_7::DOMNode"*)*, i16* (%"class.xercesc_2_7::DOMNode"*)** %vfn77, align 8, !dbg !3932
  %call78 = call i16* %69(%"class.xercesc_2_7::DOMNode"* %67), !dbg !3932
  store i16* %call78, i16** %attName, align 8, !dbg !3933
  call void @llvm.dbg.declare(metadata i8* %bContinue, metadata !3934, metadata !DIExpression()), !dbg !3935
  store i8 0, i8* %bContinue, align 1, !dbg !3935
  %70 = load %"class.xercesc_2_7::ValueHashTableOf"*, %"class.xercesc_2_7::ValueHashTableOf"** @_ZN11xercesc_2_721GeneralAttributeCheck7fAttMapE, align 8, !dbg !3936
  %71 = load i16*, i16** %attName, align 8, !dbg !3938
  %72 = bitcast i16* %71 to i8*, !dbg !3938
  %fMemoryManager = getelementptr inbounds %"class.xercesc_2_7::GeneralAttributeCheck", %"class.xercesc_2_7::GeneralAttributeCheck"* %this1, i32 0, i32 0, !dbg !3939
  %73 = load %"class.xercesc_2_7::MemoryManager"*, %"class.xercesc_2_7::MemoryManager"** %fMemoryManager, align 8, !dbg !3939
  %call79 = invoke dereferenceable(2) i16* @_ZN11xercesc_2_716ValueHashTableOfItE3getEPKvPNS_13MemoryManagerE(%"class.xercesc_2_7::ValueHashTableOf"* %70, i8* %72, %"class.xercesc_2_7::MemoryManager"* %73)
          to label %invoke.cont unwind label %lpad, !dbg !3940

invoke.cont:                                      ; preds = %if.end75
  %74 = load i16, i16* %call79, align 2, !dbg !3940
  %conv80 = zext i16 %74 to i32, !dbg !3936
  store i32 %conv80, i32* %attNameId, align 4, !dbg !3941
  br label %try.cont, !dbg !3942

lpad:                                             ; preds = %if.end75
  %75 = landingpad { i8*, i32 }
          catch i8* bitcast ({ i8*, i8*, i8* }* @_ZTIN11xercesc_2_720OutOfMemoryExceptionE to i8*)
          catch i8* null, !dbg !3943
  %76 = extractvalue { i8*, i32 } %75, 0, !dbg !3943
  store i8* %76, i8** %exn.slot, align 8, !dbg !3943
  %77 = extractvalue { i8*, i32 } %75, 1, !dbg !3943
  store i32 %77, i32* %ehselector.slot, align 4, !dbg !3943
  br label %catch.dispatch, !dbg !3943

catch.dispatch:                                   ; preds = %lpad
  %sel = load i32, i32* %ehselector.slot, align 4, !dbg !3942
  %78 = call i32 @llvm.eh.typeid.for(i8* bitcast ({ i8*, i8*, i8* }* @_ZTIN11xercesc_2_720OutOfMemoryExceptionE to i8*)) #10, !dbg !3942
  %matches = icmp eq i32 %sel, %78, !dbg !3942
  br i1 %matches, label %catch84, label %catch, !dbg !3942

catch84:                                          ; preds = %catch.dispatch
  call void @llvm.dbg.declare(metadata %"class.xercesc_2_7::OutOfMemoryException"** %0, metadata !3944, metadata !DIExpression()), !dbg !3977
  %exn85 = load i8*, i8** %exn.slot, align 8, !dbg !3978
  %79 = call i8* @__cxa_begin_catch(i8* %exn85) #10, !dbg !3978
  %exn.byref = bitcast i8* %79 to %"class.xercesc_2_7::OutOfMemoryException"*, !dbg !3978
  store %"class.xercesc_2_7::OutOfMemoryException"* %exn.byref, %"class.xercesc_2_7::OutOfMemoryException"** %0, align 8, !dbg !3978
  invoke void @__cxa_rethrow() #13
          to label %unreachable unwind label %lpad86, !dbg !3980

catch:                                            ; preds = %catch.dispatch
  %exn = load i8*, i8** %exn.slot, align 8, !dbg !3942
  %80 = call i8* @__cxa_begin_catch(i8* %exn) #10, !dbg !3942
  %81 = load %"class.xercesc_2_7::TraverseSchema"*, %"class.xercesc_2_7::TraverseSchema"** %schema.addr, align 8, !dbg !3982
  %82 = load %"class.xercesc_2_7::DOMElement"*, %"class.xercesc_2_7::DOMElement"** %elem.addr, align 8, !dbg !3983
  %83 = load i16*, i16** %attName, align 8, !dbg !3984
  %84 = load i16*, i16** %contextStr, align 8, !dbg !3985
  %85 = load i16*, i16** %elemName, align 8, !dbg !3986
  invoke void @_ZN11xercesc_2_714TraverseSchema17reportSchemaErrorEPKNS_10DOMElementEPKtiS5_S5_S5_S5_(%"class.xercesc_2_7::TraverseSchema"* %81, %"class.xercesc_2_7::DOMElement"* %82, i16* getelementptr inbounds ([0 x i16], [0 x i16]* @_ZN11xercesc_2_76XMLUni14fgXMLErrDomainE, i64 0, i64 0), i32 95, i16* %83, i16* %84, i16* %85, i16* null)
          to label %invoke.cont82 unwind label %lpad81, !dbg !3987

invoke.cont82:                                    ; preds = %catch
  store i8 1, i8* %bContinue, align 1, !dbg !3988
  call void @__cxa_end_catch(), !dbg !3978
  br label %try.cont, !dbg !3978

lpad81:                                           ; preds = %catch
  %86 = landingpad { i8*, i32 }
          cleanup, !dbg !3989
  %87 = extractvalue { i8*, i32 } %86, 0, !dbg !3989
  store i8* %87, i8** %exn.slot, align 8, !dbg !3989
  %88 = extractvalue { i8*, i32 } %86, 1, !dbg !3989
  store i32 %88, i32* %ehselector.slot, align 4, !dbg !3989
  invoke void @__cxa_end_catch()
          to label %invoke.cont83 unwind label %terminate.lpad, !dbg !3978

invoke.cont83:                                    ; preds = %lpad81
  br label %eh.resume, !dbg !3978

lpad86:                                           ; preds = %catch84
  %89 = landingpad { i8*, i32 }
          cleanup, !dbg !3990
  %90 = extractvalue { i8*, i32 } %89, 0, !dbg !3990
  store i8* %90, i8** %exn.slot, align 8, !dbg !3990
  %91 = extractvalue { i8*, i32 } %89, 1, !dbg !3990
  store i32 %91, i32* %ehselector.slot, align 4, !dbg !3990
  invoke void @__cxa_end_catch()
          to label %invoke.cont87 unwind label %terminate.lpad, !dbg !3991

invoke.cont87:                                    ; preds = %lpad86
  br label %eh.resume, !dbg !3991

try.cont:                                         ; preds = %invoke.cont82, %invoke.cont
  %92 = load i8, i8* %bContinue, align 1, !dbg !3992
  %tobool88 = trunc i8 %92 to i1, !dbg !3992
  br i1 %tobool88, label %if.then89, label %if.end90, !dbg !3994

if.then89:                                        ; preds = %try.cont
  br label %for.inc, !dbg !3995

if.end90:                                         ; preds = %try.cont
  %93 = load i16, i16* %elemContext.addr, align 2, !dbg !3996
  %idxprom = zext i16 %93 to i64, !dbg !3998
  %arrayidx = getelementptr inbounds [50 x [34 x i16]], [50 x [34 x i16]]* bitcast (<{ <{ [16 x i16], [18 x i16] }>, <{ [12 x i16], [22 x i16] }>, <{ [21 x i16], [13 x i16] }>, <{ [21 x i16], [13 x i16] }>, <{ [26 x i16], [8 x i16] }>, [34 x i16], [34 x i16], [34 x i16], <{ [18 x i16], [16 x i16] }>, <{ [23 x i16], [11 x i16] }>, <{ [16 x i16], [18 x i16] }>, <{ [17 x i16], [17 x i16] }>, <{ [18 x i16], [16 x i16] }>, <{ [17 x i16], [17 x i16] }>, <{ [26 x i16], [8 x i16] }>, [34 x i16], [34 x i16], <{ [23 x i16], [11 x i16] }>, [34 x i16], <{ [12 x i16], [22 x i16] }>, [34 x i16], [34 x i16], <{ [18 x i16], [16 x i16] }>, <{ [23 x i16], [11 x i16] }>, <{ [25 x i16], [9 x i16] }>, <{ [25 x i16], [9 x i16] }>, <{ [18 x i16], [16 x i16] }>, <{ [24 x i16], [10 x i16] }>, [34 x i16], <{ [13 x i16], [21 x i16] }>, [34 x i16], [34 x i16], [34 x i16], [34 x i16], [34 x i16], [34 x i16], [34 x i16], [34 x i16], <{ [25 x i16], [9 x i16] }>, <{ [12 x i16], [22 x i16] }>, [34 x i16], [34 x i16], <{ [16 x i16], [18 x i16] }>, <{ [12 x i16], [22 x i16] }>, <{ [18 x i16], [16 x i16] }>, <{ [12 x i16], [22 x i16] }>, [34 x i16], <{ [15 x i16], [19 x i16] }>, <{ [18 x i16], [16 x i16] }>, [34 x i16] }>* @_ZN11xercesc_2_721GeneralAttributeCheck14fgElemAttTableE to [50 x [34 x i16]]*), i64 0, i64 %idxprom, !dbg !3998
  %94 = load i32, i32* %attNameId, align 4, !dbg !3999
  %idxprom91 = sext i32 %94 to i64, !dbg !3998
  %arrayidx92 = getelementptr inbounds [34 x i16], [34 x i16]* %arrayidx, i64 0, i64 %idxprom91, !dbg !3998
  %95 = load i16, i16* %arrayidx92, align 2, !dbg !3998
  %conv93 = zext i16 %95 to i32, !dbg !3998
  %and = and i32 %conv93, 3, !dbg !4000
  %tobool94 = icmp ne i32 %and, 0, !dbg !3998
  br i1 %tobool94, label %if.then95, label %if.else108, !dbg !4001

if.then95:                                        ; preds = %if.end90
  %96 = load i32, i32* %attNameId, align 4, !dbg !4002
  %idxprom96 = sext i32 %96 to i64, !dbg !4004
  %arrayidx97 = getelementptr inbounds [34 x i8], [34 x i8]* %attList, i64 0, i64 %idxprom96, !dbg !4004
  store i8 1, i8* %arrayidx97, align 1, !dbg !4005
  %97 = load %"class.xercesc_2_7::DOMElement"*, %"class.xercesc_2_7::DOMElement"** %elem.addr, align 8, !dbg !4006
  %98 = load i16*, i16** %attName, align 8, !dbg !4007
  %99 = load %"class.xercesc_2_7::DOMNode"*, %"class.xercesc_2_7::DOMNode"** %attribute, align 8, !dbg !4008
  %100 = bitcast %"class.xercesc_2_7::DOMNode"* %99 to i16* (%"class.xercesc_2_7::DOMNode"*)***, !dbg !4009
  %vtable98 = load i16* (%"class.xercesc_2_7::DOMNode"*)**, i16* (%"class.xercesc_2_7::DOMNode"*)*** %100, align 8, !dbg !4009
  %vfn99 = getelementptr inbounds i16* (%"class.xercesc_2_7::DOMNode"*)*, i16* (%"class.xercesc_2_7::DOMNode"*)** %vtable98, i64 3, !dbg !4009
  %101 = load i16* (%"class.xercesc_2_7::DOMNode"*)*, i16* (%"class.xercesc_2_7::DOMNode"*)** %vfn99, align 8, !dbg !4009
  %call100 = call i16* %101(%"class.xercesc_2_7::DOMNode"* %99), !dbg !4009
  %102 = load i16, i16* %elemContext.addr, align 2, !dbg !4010
  %idxprom101 = zext i16 %102 to i64, !dbg !4011
  %arrayidx102 = getelementptr inbounds [50 x [34 x i16]], [50 x [34 x i16]]* bitcast (<{ <{ [16 x i16], [18 x i16] }>, <{ [12 x i16], [22 x i16] }>, <{ [21 x i16], [13 x i16] }>, <{ [21 x i16], [13 x i16] }>, <{ [26 x i16], [8 x i16] }>, [34 x i16], [34 x i16], [34 x i16], <{ [18 x i16], [16 x i16] }>, <{ [23 x i16], [11 x i16] }>, <{ [16 x i16], [18 x i16] }>, <{ [17 x i16], [17 x i16] }>, <{ [18 x i16], [16 x i16] }>, <{ [17 x i16], [17 x i16] }>, <{ [26 x i16], [8 x i16] }>, [34 x i16], [34 x i16], <{ [23 x i16], [11 x i16] }>, [34 x i16], <{ [12 x i16], [22 x i16] }>, [34 x i16], [34 x i16], <{ [18 x i16], [16 x i16] }>, <{ [23 x i16], [11 x i16] }>, <{ [25 x i16], [9 x i16] }>, <{ [25 x i16], [9 x i16] }>, <{ [18 x i16], [16 x i16] }>, <{ [24 x i16], [10 x i16] }>, [34 x i16], <{ [13 x i16], [21 x i16] }>, [34 x i16], [34 x i16], [34 x i16], [34 x i16], [34 x i16], [34 x i16], [34 x i16], [34 x i16], <{ [25 x i16], [9 x i16] }>, <{ [12 x i16], [22 x i16] }>, [34 x i16], [34 x i16], <{ [16 x i16], [18 x i16] }>, <{ [12 x i16], [22 x i16] }>, <{ [18 x i16], [16 x i16] }>, <{ [12 x i16], [22 x i16] }>, [34 x i16], <{ [15 x i16], [19 x i16] }>, <{ [18 x i16], [16 x i16] }>, [34 x i16] }>* @_ZN11xercesc_2_721GeneralAttributeCheck14fgElemAttTableE to [50 x [34 x i16]]*), i64 0, i64 %idxprom101, !dbg !4011
  %103 = load i32, i32* %attNameId, align 4, !dbg !4012
  %idxprom103 = sext i32 %103 to i64, !dbg !4011
  %arrayidx104 = getelementptr inbounds [34 x i16], [34 x i16]* %arrayidx102, i64 0, i64 %idxprom103, !dbg !4011
  %104 = load i16, i16* %arrayidx104, align 2, !dbg !4011
  %conv105 = zext i16 %104 to i32, !dbg !4011
  %and106 = and i32 %conv105, 8188, !dbg !4013
  %conv107 = trunc i32 %and106 to i16, !dbg !4011
  %105 = load %"class.xercesc_2_7::TraverseSchema"*, %"class.xercesc_2_7::TraverseSchema"** %schema.addr, align 8, !dbg !4014
  call void @_ZN11xercesc_2_721GeneralAttributeCheck8validateEPKNS_10DOMElementEPKtS5_sPNS_14TraverseSchemaE(%"class.xercesc_2_7::GeneralAttributeCheck"* %this1, %"class.xercesc_2_7::DOMElement"* %97, i16* %98, i16* %call100, i16 signext %conv107, %"class.xercesc_2_7::TraverseSchema"* %105), !dbg !4015
  br label %if.end109, !dbg !4016

if.else108:                                       ; preds = %if.end90
  %106 = load %"class.xercesc_2_7::TraverseSchema"*, %"class.xercesc_2_7::TraverseSchema"** %schema.addr, align 8, !dbg !4017
  %107 = load %"class.xercesc_2_7::DOMElement"*, %"class.xercesc_2_7::DOMElement"** %elem.addr, align 8, !dbg !4019
  %108 = load i16*, i16** %attName, align 8, !dbg !4020
  %109 = load i16*, i16** %contextStr, align 8, !dbg !4021
  %110 = load i16*, i16** %elemName, align 8, !dbg !4022
  call void @_ZN11xercesc_2_714TraverseSchema17reportSchemaErrorEPKNS_10DOMElementEPKtiS5_S5_S5_S5_(%"class.xercesc_2_7::TraverseSchema"* %106, %"class.xercesc_2_7::DOMElement"* %107, i16* getelementptr inbounds ([0 x i16], [0 x i16]* @_ZN11xercesc_2_76XMLUni14fgXMLErrDomainE, i64 0, i64 0), i32 95, i16* %108, i16* %109, i16* %110, i16* null), !dbg !4023
  br label %if.end109

if.end109:                                        ; preds = %if.else108, %if.then95
  br label %for.inc, !dbg !4024

for.inc:                                          ; preds = %if.end109, %if.then89, %if.end74, %if.end56, %if.then32
  %111 = load i32, i32* %i, align 4, !dbg !4025
  %inc = add nsw i32 %111, 1, !dbg !4025
  store i32 %inc, i32* %i, align 4, !dbg !4025
  br label %for.cond, !dbg !4026, !llvm.loop !4027

for.end:                                          ; preds = %for.cond
  call void @llvm.dbg.declare(metadata i32* %j, metadata !4029, metadata !DIExpression()), !dbg !4031
  store i32 0, i32* %j, align 4, !dbg !4031
  br label %for.cond110, !dbg !4032

for.cond110:                                      ; preds = %for.inc129, %for.end
  %112 = load i32, i32* %j, align 4, !dbg !4033
  %cmp111 = icmp ult i32 %112, 34, !dbg !4035
  br i1 %cmp111, label %for.body112, label %for.end131, !dbg !4036

for.body112:                                      ; preds = %for.cond110
  %113 = load i16, i16* %elemContext.addr, align 2, !dbg !4037
  %idxprom113 = zext i16 %113 to i64, !dbg !4040
  %arrayidx114 = getelementptr inbounds [50 x [34 x i16]], [50 x [34 x i16]]* bitcast (<{ <{ [16 x i16], [18 x i16] }>, <{ [12 x i16], [22 x i16] }>, <{ [21 x i16], [13 x i16] }>, <{ [21 x i16], [13 x i16] }>, <{ [26 x i16], [8 x i16] }>, [34 x i16], [34 x i16], [34 x i16], <{ [18 x i16], [16 x i16] }>, <{ [23 x i16], [11 x i16] }>, <{ [16 x i16], [18 x i16] }>, <{ [17 x i16], [17 x i16] }>, <{ [18 x i16], [16 x i16] }>, <{ [17 x i16], [17 x i16] }>, <{ [26 x i16], [8 x i16] }>, [34 x i16], [34 x i16], <{ [23 x i16], [11 x i16] }>, [34 x i16], <{ [12 x i16], [22 x i16] }>, [34 x i16], [34 x i16], <{ [18 x i16], [16 x i16] }>, <{ [23 x i16], [11 x i16] }>, <{ [25 x i16], [9 x i16] }>, <{ [25 x i16], [9 x i16] }>, <{ [18 x i16], [16 x i16] }>, <{ [24 x i16], [10 x i16] }>, [34 x i16], <{ [13 x i16], [21 x i16] }>, [34 x i16], [34 x i16], [34 x i16], [34 x i16], [34 x i16], [34 x i16], [34 x i16], [34 x i16], <{ [25 x i16], [9 x i16] }>, <{ [12 x i16], [22 x i16] }>, [34 x i16], [34 x i16], <{ [16 x i16], [18 x i16] }>, <{ [12 x i16], [22 x i16] }>, <{ [18 x i16], [16 x i16] }>, <{ [12 x i16], [22 x i16] }>, [34 x i16], <{ [15 x i16], [19 x i16] }>, <{ [18 x i16], [16 x i16] }>, [34 x i16] }>* @_ZN11xercesc_2_721GeneralAttributeCheck14fgElemAttTableE to [50 x [34 x i16]]*), i64 0, i64 %idxprom113, !dbg !4040
  %114 = load i32, i32* %j, align 4, !dbg !4041
  %idxprom115 = zext i32 %114 to i64, !dbg !4040
  %arrayidx116 = getelementptr inbounds [34 x i16], [34 x i16]* %arrayidx114, i64 0, i64 %idxprom115, !dbg !4040
  %115 = load i16, i16* %arrayidx116, align 2, !dbg !4040
  %conv117 = zext i16 %115 to i32, !dbg !4040
  %and118 = and i32 %conv117, 1, !dbg !4042
  %tobool119 = icmp ne i32 %and118, 0, !dbg !4043
  br i1 %tobool119, label %land.lhs.true120, label %if.end128, !dbg !4044

land.lhs.true120:                                 ; preds = %for.body112
  %116 = load i32, i32* %j, align 4, !dbg !4045
  %idxprom121 = zext i32 %116 to i64, !dbg !4046
  %arrayidx122 = getelementptr inbounds [34 x i8], [34 x i8]* %attList, i64 0, i64 %idxprom121, !dbg !4046
  %117 = load i8, i8* %arrayidx122, align 1, !dbg !4046
  %conv123 = zext i8 %117 to i32, !dbg !4046
  %cmp124 = icmp eq i32 %conv123, 0, !dbg !4047
  br i1 %cmp124, label %if.then125, label %if.end128, !dbg !4048

if.then125:                                       ; preds = %land.lhs.true120
  %118 = load %"class.xercesc_2_7::TraverseSchema"*, %"class.xercesc_2_7::TraverseSchema"** %schema.addr, align 8, !dbg !4049
  %119 = load %"class.xercesc_2_7::DOMElement"*, %"class.xercesc_2_7::DOMElement"** %elem.addr, align 8, !dbg !4051
  %120 = load i32, i32* %j, align 4, !dbg !4052
  %idxprom126 = zext i32 %120 to i64, !dbg !4053
  %arrayidx127 = getelementptr inbounds [34 x i16*], [34 x i16*]* @_ZN11xercesc_2_721GeneralAttributeCheck9fAttNamesE, i64 0, i64 %idxprom126, !dbg !4053
  %121 = load i16*, i16** %arrayidx127, align 8, !dbg !4053
  %122 = load i16*, i16** %contextStr, align 8, !dbg !4054
  %123 = load i16*, i16** %elemName, align 8, !dbg !4055
  call void @_ZN11xercesc_2_714TraverseSchema17reportSchemaErrorEPKNS_10DOMElementEPKtiS5_S5_S5_S5_(%"class.xercesc_2_7::TraverseSchema"* %118, %"class.xercesc_2_7::DOMElement"* %119, i16* getelementptr inbounds ([0 x i16], [0 x i16]* @_ZN11xercesc_2_76XMLUni14fgXMLErrDomainE, i64 0, i64 0), i32 94, i16* %121, i16* %122, i16* %123, i16* null), !dbg !4056
  br label %if.end128, !dbg !4057

if.end128:                                        ; preds = %if.then125, %land.lhs.true120, %for.body112
  br label %for.inc129, !dbg !4058

for.inc129:                                       ; preds = %if.end128
  %124 = load i32, i32* %j, align 4, !dbg !4059
  %inc130 = add i32 %124, 1, !dbg !4059
  store i32 %inc130, i32* %j, align 4, !dbg !4059
  br label %for.cond110, !dbg !4060, !llvm.loop !4061

for.end131:                                       ; preds = %if.then5, %for.cond110
  ret void, !dbg !4063

eh.resume:                                        ; preds = %invoke.cont87, %invoke.cont83
  %exn132 = load i8*, i8** %exn.slot, align 8, !dbg !3978
  %sel133 = load i32, i32* %ehselector.slot, align 4, !dbg !3978
  %lpad.val = insertvalue { i8*, i32 } undef, i8* %exn132, 0, !dbg !3978
  %lpad.val134 = insertvalue { i8*, i32 } %lpad.val, i32 %sel133, 1, !dbg !3978
  resume { i8*, i32 } %lpad.val134, !dbg !3978

terminate.lpad:                                   ; preds = %lpad86, %lpad81
  %125 = landingpad { i8*, i32 }
          catch i8* null, !dbg !3978
  %126 = extractvalue { i8*, i32 } %125, 0, !dbg !3978
  call void @__clang_call_terminate(i8* %126) #12, !dbg !3978
  unreachable, !dbg !3978

unreachable:                                      ; preds = %catch84
  unreachable
}

; Function Attrs: noinline nounwind uwtable
define linkonce_odr dso_local void @_ZN11xercesc_2_713ValueVectorOfIPNS_7DOMNodeEE17removeAllElementsEv(%"class.xercesc_2_7::ValueVectorOf.26"* %this) #1 comdat align 2 !dbg !4064 {
entry:
  %this.addr = alloca %"class.xercesc_2_7::ValueVectorOf.26"*, align 8
  store %"class.xercesc_2_7::ValueVectorOf.26"* %this, %"class.xercesc_2_7::ValueVectorOf.26"** %this.addr, align 8
  call void @llvm.dbg.declare(metadata %"class.xercesc_2_7::ValueVectorOf.26"** %this.addr, metadata !4066, metadata !DIExpression()), !dbg !4067
  %this1 = load %"class.xercesc_2_7::ValueVectorOf.26"*, %"class.xercesc_2_7::ValueVectorOf.26"** %this.addr, align 8
  %fCurCount = getelementptr inbounds %"class.xercesc_2_7::ValueVectorOf.26", %"class.xercesc_2_7::ValueVectorOf.26"* %this1, i32 0, i32 1, !dbg !4068
  store i32 0, i32* %fCurCount, align 4, !dbg !4069
  ret void, !dbg !4070
}

; Function Attrs: noinline nounwind uwtable
define linkonce_odr dso_local zeroext i1 @_ZN11xercesc_2_79XMLString6equalsEPKtS2_(i16* %str1, i16* %str2) #1 comdat align 2 !dbg !4071 {
entry:
  %retval = alloca i1, align 1
  %str1.addr = alloca i16*, align 8
  %str2.addr = alloca i16*, align 8
  %psz1 = alloca i16*, align 8
  %psz2 = alloca i16*, align 8
  store i16* %str1, i16** %str1.addr, align 8
  call void @llvm.dbg.declare(metadata i16** %str1.addr, metadata !4316, metadata !DIExpression()), !dbg !4317
  store i16* %str2, i16** %str2.addr, align 8
  call void @llvm.dbg.declare(metadata i16** %str2.addr, metadata !4318, metadata !DIExpression()), !dbg !4319
  call void @llvm.dbg.declare(metadata i16** %psz1, metadata !4320, metadata !DIExpression()), !dbg !4321
  %0 = load i16*, i16** %str1.addr, align 8, !dbg !4322
  store i16* %0, i16** %psz1, align 8, !dbg !4321
  call void @llvm.dbg.declare(metadata i16** %psz2, metadata !4323, metadata !DIExpression()), !dbg !4324
  %1 = load i16*, i16** %str2.addr, align 8, !dbg !4325
  store i16* %1, i16** %psz2, align 8, !dbg !4324
  %2 = load i16*, i16** %psz1, align 8, !dbg !4326
  %cmp = icmp eq i16* %2, null, !dbg !4328
  br i1 %cmp, label %if.then, label %lor.lhs.false, !dbg !4329

lor.lhs.false:                                    ; preds = %entry
  %3 = load i16*, i16** %psz2, align 8, !dbg !4330
  %cmp1 = icmp eq i16* %3, null, !dbg !4331
  br i1 %cmp1, label %if.then, label %if.end, !dbg !4332

if.then:                                          ; preds = %lor.lhs.false, %entry
  %4 = load i16*, i16** %psz1, align 8, !dbg !4333
  %cmp2 = icmp ne i16* %4, null, !dbg !4336
  br i1 %cmp2, label %land.lhs.true, label %lor.lhs.false3, !dbg !4337

land.lhs.true:                                    ; preds = %if.then
  %5 = load i16*, i16** %psz1, align 8, !dbg !4338
  %6 = load i16, i16* %5, align 2, !dbg !4339
  %tobool = icmp ne i16 %6, 0, !dbg !4339
  br i1 %tobool, label %if.then7, label %lor.lhs.false3, !dbg !4340

lor.lhs.false3:                                   ; preds = %land.lhs.true, %if.then
  %7 = load i16*, i16** %psz2, align 8, !dbg !4341
  %cmp4 = icmp ne i16* %7, null, !dbg !4342
  br i1 %cmp4, label %land.lhs.true5, label %if.else, !dbg !4343

land.lhs.true5:                                   ; preds = %lor.lhs.false3
  %8 = load i16*, i16** %psz2, align 8, !dbg !4344
  %9 = load i16, i16* %8, align 2, !dbg !4345
  %tobool6 = icmp ne i16 %9, 0, !dbg !4345
  br i1 %tobool6, label %if.then7, label %if.else, !dbg !4346

if.then7:                                         ; preds = %land.lhs.true5, %land.lhs.true
  store i1 false, i1* %retval, align 1, !dbg !4347
  br label %return, !dbg !4347

if.else:                                          ; preds = %land.lhs.true5, %lor.lhs.false3
  store i1 true, i1* %retval, align 1, !dbg !4348
  br label %return, !dbg !4348

if.end:                                           ; preds = %lor.lhs.false
  br label %while.cond, !dbg !4349

while.cond:                                       ; preds = %if.end12, %if.end
  %10 = load i16*, i16** %psz1, align 8, !dbg !4350
  %11 = load i16, i16* %10, align 2, !dbg !4351
  %conv = zext i16 %11 to i32, !dbg !4351
  %12 = load i16*, i16** %psz2, align 8, !dbg !4352
  %13 = load i16, i16* %12, align 2, !dbg !4353
  %conv8 = zext i16 %13 to i32, !dbg !4353
  %cmp9 = icmp eq i32 %conv, %conv8, !dbg !4354
  br i1 %cmp9, label %while.body, label %while.end, !dbg !4349

while.body:                                       ; preds = %while.cond
  %14 = load i16*, i16** %psz1, align 8, !dbg !4355
  %15 = load i16, i16* %14, align 2, !dbg !4358
  %tobool10 = icmp ne i16 %15, 0, !dbg !4358
  br i1 %tobool10, label %if.end12, label %if.then11, !dbg !4359

if.then11:                                        ; preds = %while.body
  store i1 true, i1* %retval, align 1, !dbg !4360
  br label %return, !dbg !4360

if.end12:                                         ; preds = %while.body
  %16 = load i16*, i16** %psz1, align 8, !dbg !4361
  %incdec.ptr = getelementptr inbounds i16, i16* %16, i32 1, !dbg !4361
  store i16* %incdec.ptr, i16** %psz1, align 8, !dbg !4361
  %17 = load i16*, i16** %psz2, align 8, !dbg !4362
  %incdec.ptr13 = getelementptr inbounds i16, i16* %17, i32 1, !dbg !4362
  store i16* %incdec.ptr13, i16** %psz2, align 8, !dbg !4362
  br label %while.cond, !dbg !4349, !llvm.loop !4363

while.end:                                        ; preds = %while.cond
  store i1 false, i1* %retval, align 1, !dbg !4365
  br label %return, !dbg !4365

return:                                           ; preds = %while.end, %if.then11, %if.else, %if.then7
  %18 = load i1, i1* %retval, align 1, !dbg !4366
  ret i1 %18, !dbg !4366
}

declare dso_local void @_ZN11xercesc_2_714TraverseSchema17reportSchemaErrorEPKNS_10DOMElementEPKtiS5_S5_S5_S5_(%"class.xercesc_2_7::TraverseSchema"*, %"class.xercesc_2_7::DOMElement"*, i16*, i32, i16*, i16*, i16*, i16*) #7

; Function Attrs: argmemonly nounwind willreturn
declare void @llvm.memset.p0i8.i64(i8* nocapture writeonly, i8, i64, i1 immarg) #8

; Function Attrs: noinline uwtable
define linkonce_odr dso_local zeroext i1 @_ZN11xercesc_2_79XMLString10startsWithEPKtS2_(i16* %toTest, i16* %prefix) #6 comdat align 2 !dbg !4367 {
entry:
  %toTest.addr = alloca i16*, align 8
  %prefix.addr = alloca i16*, align 8
  store i16* %toTest, i16** %toTest.addr, align 8
  call void @llvm.dbg.declare(metadata i16** %toTest.addr, metadata !4368, metadata !DIExpression()), !dbg !4369
  store i16* %prefix, i16** %prefix.addr, align 8
  call void @llvm.dbg.declare(metadata i16** %prefix.addr, metadata !4370, metadata !DIExpression()), !dbg !4371
  %0 = load i16*, i16** %toTest.addr, align 8, !dbg !4372
  %1 = load i16*, i16** %prefix.addr, align 8, !dbg !4373
  %2 = load i16*, i16** %prefix.addr, align 8, !dbg !4374
  %call = call i32 @_ZN11xercesc_2_79XMLString9stringLenEPKt(i16* %2), !dbg !4375
  %call1 = call i32 @_ZN11xercesc_2_79XMLString14compareNStringEPKtS2_j(i16* %0, i16* %1, i32 %call), !dbg !4376
  %cmp = icmp eq i32 %call1, 0, !dbg !4377
  ret i1 %cmp, !dbg !4378
}

; Function Attrs: noinline uwtable
define linkonce_odr dso_local void @_ZN11xercesc_2_713ValueVectorOfIPNS_7DOMNodeEE10addElementERKS2_(%"class.xercesc_2_7::ValueVectorOf.26"* %this, %"class.xercesc_2_7::DOMNode"** dereferenceable(8) %toAdd) #6 comdat align 2 !dbg !4379 {
entry:
  %this.addr = alloca %"class.xercesc_2_7::ValueVectorOf.26"*, align 8
  %toAdd.addr = alloca %"class.xercesc_2_7::DOMNode"**, align 8
  store %"class.xercesc_2_7::ValueVectorOf.26"* %this, %"class.xercesc_2_7::ValueVectorOf.26"** %this.addr, align 8
  call void @llvm.dbg.declare(metadata %"class.xercesc_2_7::ValueVectorOf.26"** %this.addr, metadata !4380, metadata !DIExpression()), !dbg !4381
  store %"class.xercesc_2_7::DOMNode"** %toAdd, %"class.xercesc_2_7::DOMNode"*** %toAdd.addr, align 8
  call void @llvm.dbg.declare(metadata %"class.xercesc_2_7::DOMNode"*** %toAdd.addr, metadata !4382, metadata !DIExpression()), !dbg !4383
  %this1 = load %"class.xercesc_2_7::ValueVectorOf.26"*, %"class.xercesc_2_7::ValueVectorOf.26"** %this.addr, align 8
  call void @_ZN11xercesc_2_713ValueVectorOfIPNS_7DOMNodeEE19ensureExtraCapacityEj(%"class.xercesc_2_7::ValueVectorOf.26"* %this1, i32 1), !dbg !4384
  %0 = load %"class.xercesc_2_7::DOMNode"**, %"class.xercesc_2_7::DOMNode"*** %toAdd.addr, align 8, !dbg !4385
  %1 = load %"class.xercesc_2_7::DOMNode"*, %"class.xercesc_2_7::DOMNode"** %0, align 8, !dbg !4385
  %fElemList = getelementptr inbounds %"class.xercesc_2_7::ValueVectorOf.26", %"class.xercesc_2_7::ValueVectorOf.26"* %this1, i32 0, i32 3, !dbg !4386
  %2 = load %"class.xercesc_2_7::DOMNode"**, %"class.xercesc_2_7::DOMNode"*** %fElemList, align 8, !dbg !4386
  %fCurCount = getelementptr inbounds %"class.xercesc_2_7::ValueVectorOf.26", %"class.xercesc_2_7::ValueVectorOf.26"* %this1, i32 0, i32 1, !dbg !4387
  %3 = load i32, i32* %fCurCount, align 4, !dbg !4387
  %idxprom = zext i32 %3 to i64, !dbg !4386
  %arrayidx = getelementptr inbounds %"class.xercesc_2_7::DOMNode"*, %"class.xercesc_2_7::DOMNode"** %2, i64 %idxprom, !dbg !4386
  store %"class.xercesc_2_7::DOMNode"* %1, %"class.xercesc_2_7::DOMNode"** %arrayidx, align 8, !dbg !4388
  %fCurCount2 = getelementptr inbounds %"class.xercesc_2_7::ValueVectorOf.26", %"class.xercesc_2_7::ValueVectorOf.26"* %this1, i32 0, i32 1, !dbg !4389
  %4 = load i32, i32* %fCurCount2, align 4, !dbg !4390
  %inc = add i32 %4, 1, !dbg !4390
  store i32 %inc, i32* %fCurCount2, align 4, !dbg !4390
  ret void, !dbg !4391
}

; Function Attrs: noinline uwtable
define linkonce_odr dso_local dereferenceable(2) i16* @_ZN11xercesc_2_716ValueHashTableOfItE3getEPKvPNS_13MemoryManagerE(%"class.xercesc_2_7::ValueHashTableOf"* %this, i8* %key, %"class.xercesc_2_7::MemoryManager"* %manager) #6 comdat align 2 personality i8* bitcast (i32 (...)* @__gxx_personality_v0 to i8*) !dbg !4392 {
entry:
  %this.addr = alloca %"class.xercesc_2_7::ValueHashTableOf"*, align 8
  %key.addr = alloca i8*, align 8
  %manager.addr = alloca %"class.xercesc_2_7::MemoryManager"*, align 8
  %hashVal = alloca i32, align 4
  %findIt = alloca %"struct.xercesc_2_7::ValueHashTableBucketElem"*, align 8
  %exn.slot = alloca i8*
  %ehselector.slot = alloca i32
  store %"class.xercesc_2_7::ValueHashTableOf"* %this, %"class.xercesc_2_7::ValueHashTableOf"** %this.addr, align 8
  call void @llvm.dbg.declare(metadata %"class.xercesc_2_7::ValueHashTableOf"** %this.addr, metadata !4393, metadata !DIExpression()), !dbg !4394
  store i8* %key, i8** %key.addr, align 8
  call void @llvm.dbg.declare(metadata i8** %key.addr, metadata !4395, metadata !DIExpression()), !dbg !4396
  store %"class.xercesc_2_7::MemoryManager"* %manager, %"class.xercesc_2_7::MemoryManager"** %manager.addr, align 8
  call void @llvm.dbg.declare(metadata %"class.xercesc_2_7::MemoryManager"** %manager.addr, metadata !4397, metadata !DIExpression()), !dbg !4398
  %this1 = load %"class.xercesc_2_7::ValueHashTableOf"*, %"class.xercesc_2_7::ValueHashTableOf"** %this.addr, align 8
  call void @llvm.dbg.declare(metadata i32* %hashVal, metadata !4399, metadata !DIExpression()), !dbg !4400
  call void @llvm.dbg.declare(metadata %"struct.xercesc_2_7::ValueHashTableBucketElem"** %findIt, metadata !4401, metadata !DIExpression()), !dbg !4402
  %0 = load i8*, i8** %key.addr, align 8, !dbg !4403
  %call = call %"struct.xercesc_2_7::ValueHashTableBucketElem"* @_ZN11xercesc_2_716ValueHashTableOfItE14findBucketElemEPKvRj(%"class.xercesc_2_7::ValueHashTableOf"* %this1, i8* %0, i32* dereferenceable(4) %hashVal), !dbg !4404
  store %"struct.xercesc_2_7::ValueHashTableBucketElem"* %call, %"struct.xercesc_2_7::ValueHashTableBucketElem"** %findIt, align 8, !dbg !4402
  %1 = load %"struct.xercesc_2_7::ValueHashTableBucketElem"*, %"struct.xercesc_2_7::ValueHashTableBucketElem"** %findIt, align 8, !dbg !4405
  %tobool = icmp ne %"struct.xercesc_2_7::ValueHashTableBucketElem"* %1, null, !dbg !4405
  br i1 %tobool, label %if.end, label %if.then, !dbg !4407

if.then:                                          ; preds = %entry
  %exception = call i8* @__cxa_allocate_exception(i64 48) #10, !dbg !4408
  %2 = bitcast i8* %exception to %"class.xercesc_2_7::NoSuchElementException"*, !dbg !4408
  %3 = load %"class.xercesc_2_7::MemoryManager"*, %"class.xercesc_2_7::MemoryManager"** %manager.addr, align 8, !dbg !4408
  invoke void @_ZN11xercesc_2_722NoSuchElementExceptionC2EPKcjNS_10XMLExcepts5CodesEPNS_13MemoryManagerE(%"class.xercesc_2_7::NoSuchElementException"* %2, i8* getelementptr inbounds ([34 x i8], [34 x i8]* @.str, i64 0, i64 0), i32 153, i32 50, %"class.xercesc_2_7::MemoryManager"* %3)
          to label %invoke.cont unwind label %lpad, !dbg !4408

invoke.cont:                                      ; preds = %if.then
  call void @__cxa_throw(i8* %exception, i8* bitcast ({ i8*, i8*, i8* }* @_ZTIN11xercesc_2_722NoSuchElementExceptionE to i8*), i8* bitcast (void (%"class.xercesc_2_7::NoSuchElementException"*)* @_ZN11xercesc_2_722NoSuchElementExceptionD2Ev to i8*)) #13, !dbg !4408
  unreachable, !dbg !4408

lpad:                                             ; preds = %if.then
  %4 = landingpad { i8*, i32 }
          cleanup, !dbg !4409
  %5 = extractvalue { i8*, i32 } %4, 0, !dbg !4409
  store i8* %5, i8** %exn.slot, align 8, !dbg !4409
  %6 = extractvalue { i8*, i32 } %4, 1, !dbg !4409
  store i32 %6, i32* %ehselector.slot, align 4, !dbg !4409
  call void @__cxa_free_exception(i8* %exception) #10, !dbg !4408
  br label %eh.resume, !dbg !4408

if.end:                                           ; preds = %entry
  %7 = load %"struct.xercesc_2_7::ValueHashTableBucketElem"*, %"struct.xercesc_2_7::ValueHashTableBucketElem"** %findIt, align 8, !dbg !4410
  %fData = getelementptr inbounds %"struct.xercesc_2_7::ValueHashTableBucketElem", %"struct.xercesc_2_7::ValueHashTableBucketElem"* %7, i32 0, i32 0, !dbg !4411
  ret i16* %fData, !dbg !4412

eh.resume:                                        ; preds = %lpad
  %exn = load i8*, i8** %exn.slot, align 8, !dbg !4408
  %sel = load i32, i32* %ehselector.slot, align 4, !dbg !4408
  %lpad.val = insertvalue { i8*, i32 } undef, i8* %exn, 0, !dbg !4408
  %lpad.val2 = insertvalue { i8*, i32 } %lpad.val, i32 %sel, 1, !dbg !4408
  resume { i8*, i32 } %lpad.val2, !dbg !4408
}

; Function Attrs: nounwind readnone
declare i32 @llvm.eh.typeid.for(i8*) #9

declare dso_local void @__cxa_end_catch()

declare dso_local void @__cxa_rethrow()

; Function Attrs: noinline uwtable
define dso_local void @_ZN11xercesc_2_721GeneralAttributeCheck8validateEPKNS_10DOMElementEPKtS5_sPNS_14TraverseSchemaE(%"class.xercesc_2_7::GeneralAttributeCheck"* %this, %"class.xercesc_2_7::DOMElement"* %elem, i16* %attName, i16* %attValue, i16 signext %dvIndex, %"class.xercesc_2_7::TraverseSchema"* %schema) #6 align 2 personality i8* bitcast (i32 (...)* @__gxx_personality_v0 to i8*) !dbg !4413 {
entry:
  %this.addr = alloca %"class.xercesc_2_7::GeneralAttributeCheck"*, align 8
  %elem.addr = alloca %"class.xercesc_2_7::DOMElement"*, align 8
  %attName.addr = alloca i16*, align 8
  %attValue.addr = alloca i16*, align 8
  %dvIndex.addr = alloca i16, align 2
  %schema.addr = alloca %"class.xercesc_2_7::TraverseSchema"*, align 8
  %isInvalid = alloca i8, align 1
  %dv = alloca %"class.xercesc_2_7::DatatypeValidator"*, align 8
  %exn.slot = alloca i8*
  %ehselector.slot = alloca i32
  %0 = alloca %"class.xercesc_2_7::OutOfMemoryException"*, align 8
  %excep = alloca %"class.xercesc_2_7::XMLException"*, align 8
  store %"class.xercesc_2_7::GeneralAttributeCheck"* %this, %"class.xercesc_2_7::GeneralAttributeCheck"** %this.addr, align 8
  call void @llvm.dbg.declare(metadata %"class.xercesc_2_7::GeneralAttributeCheck"** %this.addr, metadata !4414, metadata !DIExpression()), !dbg !4415
  store %"class.xercesc_2_7::DOMElement"* %elem, %"class.xercesc_2_7::DOMElement"** %elem.addr, align 8
  call void @llvm.dbg.declare(metadata %"class.xercesc_2_7::DOMElement"** %elem.addr, metadata !4416, metadata !DIExpression()), !dbg !4417
  store i16* %attName, i16** %attName.addr, align 8
  call void @llvm.dbg.declare(metadata i16** %attName.addr, metadata !4418, metadata !DIExpression()), !dbg !4419
  store i16* %attValue, i16** %attValue.addr, align 8
  call void @llvm.dbg.declare(metadata i16** %attValue.addr, metadata !4420, metadata !DIExpression()), !dbg !4421
  store i16 %dvIndex, i16* %dvIndex.addr, align 2
  call void @llvm.dbg.declare(metadata i16* %dvIndex.addr, metadata !4422, metadata !DIExpression()), !dbg !4423
  store %"class.xercesc_2_7::TraverseSchema"* %schema, %"class.xercesc_2_7::TraverseSchema"** %schema.addr, align 8
  call void @llvm.dbg.declare(metadata %"class.xercesc_2_7::TraverseSchema"** %schema.addr, metadata !4424, metadata !DIExpression()), !dbg !4425
  %this1 = load %"class.xercesc_2_7::GeneralAttributeCheck"*, %"class.xercesc_2_7::GeneralAttributeCheck"** %this.addr, align 8
  call void @llvm.dbg.declare(metadata i8* %isInvalid, metadata !4426, metadata !DIExpression()), !dbg !4427
  store i8 0, i8* %isInvalid, align 1, !dbg !4427
  call void @llvm.dbg.declare(metadata %"class.xercesc_2_7::DatatypeValidator"** %dv, metadata !4428, metadata !DIExpression()), !dbg !4429
  store %"class.xercesc_2_7::DatatypeValidator"* null, %"class.xercesc_2_7::DatatypeValidator"** %dv, align 8, !dbg !4429
  %1 = load %"class.xercesc_2_7::TraverseSchema"*, %"class.xercesc_2_7::TraverseSchema"** %schema.addr, align 8, !dbg !4430
  %fSchemaInfo = getelementptr inbounds %"class.xercesc_2_7::TraverseSchema", %"class.xercesc_2_7::TraverseSchema"* %1, i32 0, i32 24, !dbg !4431
  %2 = load %"class.xercesc_2_7::SchemaInfo"*, %"class.xercesc_2_7::SchemaInfo"** %fSchemaInfo, align 8, !dbg !4431
  %call = call %"class.xercesc_2_7::ValidationContext"* @_ZNK11xercesc_2_710SchemaInfo20getValidationContextEv(%"class.xercesc_2_7::SchemaInfo"* %2), !dbg !4432
  %fValidationContext = getelementptr inbounds %"class.xercesc_2_7::GeneralAttributeCheck", %"class.xercesc_2_7::GeneralAttributeCheck"* %this1, i32 0, i32 1, !dbg !4433
  store %"class.xercesc_2_7::ValidationContext"* %call, %"class.xercesc_2_7::ValidationContext"** %fValidationContext, align 8, !dbg !4434
  %3 = load i16, i16* %dvIndex.addr, align 2, !dbg !4435
  %conv = sext i16 %3 to i32, !dbg !4435
  switch i32 %conv, label %sw.epilog [
    i32 64, label %sw.bb
    i32 128, label %sw.bb4
    i32 256, label %sw.bb8
    i32 512, label %sw.bb12
    i32 1024, label %sw.bb18
    i32 2048, label %sw.bb26
    i32 4096, label %sw.bb34
    i32 16, label %sw.bb42
    i32 8, label %sw.bb43
    i32 4, label %sw.bb44
    i32 32, label %sw.bb45
  ], !dbg !4436

sw.bb:                                            ; preds = %entry
  %4 = load i16*, i16** %attValue.addr, align 8, !dbg !4437
  %call2 = call zeroext i1 @_ZN11xercesc_2_79XMLString6equalsEPKtS2_(i16* %4, i16* getelementptr inbounds ([0 x i16], [0 x i16]* @_ZN11xercesc_2_713SchemaSymbols18fgATTVAL_QUALIFIEDE, i64 0, i64 0)), !dbg !4440
  br i1 %call2, label %if.end, label %land.lhs.true, !dbg !4441

land.lhs.true:                                    ; preds = %sw.bb
  %5 = load i16*, i16** %attValue.addr, align 8, !dbg !4442
  %call3 = call zeroext i1 @_ZN11xercesc_2_79XMLString6equalsEPKtS2_(i16* %5, i16* getelementptr inbounds ([0 x i16], [0 x i16]* @_ZN11xercesc_2_713SchemaSymbols20fgATTVAL_UNQUALIFIEDE, i64 0, i64 0)), !dbg !4443
  br i1 %call3, label %if.end, label %if.then, !dbg !4444

if.then:                                          ; preds = %land.lhs.true
  store i8 1, i8* %isInvalid, align 1, !dbg !4445
  br label %if.end, !dbg !4447

if.end:                                           ; preds = %if.then, %land.lhs.true, %sw.bb
  br label %sw.epilog, !dbg !4448

sw.bb4:                                           ; preds = %entry
  %6 = load i16*, i16** %attValue.addr, align 8, !dbg !4449
  %call5 = call zeroext i1 @_ZN11xercesc_2_79XMLString6equalsEPKtS2_(i16* %6, i16* getelementptr inbounds ([10 x i16], [10 x i16]* @_ZN11xercesc_2_7L11fgUnboundedE, i64 0, i64 0)), !dbg !4451
  br i1 %call5, label %if.end7, label %if.then6, !dbg !4452

if.then6:                                         ; preds = %sw.bb4
  %7 = load %"class.xercesc_2_7::DatatypeValidator"*, %"class.xercesc_2_7::DatatypeValidator"** @_ZN11xercesc_2_721GeneralAttributeCheck12fNonNegIntDVE, align 8, !dbg !4453
  store %"class.xercesc_2_7::DatatypeValidator"* %7, %"class.xercesc_2_7::DatatypeValidator"** %dv, align 8, !dbg !4455
  br label %if.end7, !dbg !4456

if.end7:                                          ; preds = %if.then6, %sw.bb4
  br label %sw.epilog, !dbg !4457

sw.bb8:                                           ; preds = %entry
  %8 = load i16*, i16** %attValue.addr, align 8, !dbg !4458
  %call9 = call zeroext i1 @_ZN11xercesc_2_79XMLString6equalsEPKtS2_(i16* %8, i16* getelementptr inbounds ([2 x i16], [2 x i16]* @_ZN11xercesc_2_7L10fgValueOneE, i64 0, i64 0)), !dbg !4460
  br i1 %call9, label %if.end11, label %if.then10, !dbg !4461

if.then10:                                        ; preds = %sw.bb8
  store i8 1, i8* %isInvalid, align 1, !dbg !4462
  br label %if.end11, !dbg !4464

if.end11:                                         ; preds = %if.then10, %sw.bb8
  br label %sw.epilog, !dbg !4465

sw.bb12:                                          ; preds = %entry
  %9 = load i16*, i16** %attValue.addr, align 8, !dbg !4466
  %call13 = call zeroext i1 @_ZN11xercesc_2_79XMLString6equalsEPKtS2_(i16* %9, i16* getelementptr inbounds ([2 x i16], [2 x i16]* @_ZN11xercesc_2_7L11fgValueZeroE, i64 0, i64 0)), !dbg !4468
  br i1 %call13, label %if.end17, label %land.lhs.true14, !dbg !4469

land.lhs.true14:                                  ; preds = %sw.bb12
  %10 = load i16*, i16** %attValue.addr, align 8, !dbg !4470
  %call15 = call zeroext i1 @_ZN11xercesc_2_79XMLString6equalsEPKtS2_(i16* %10, i16* getelementptr inbounds ([2 x i16], [2 x i16]* @_ZN11xercesc_2_7L10fgValueOneE, i64 0, i64 0)), !dbg !4471
  br i1 %call15, label %if.end17, label %if.then16, !dbg !4472

if.then16:                                        ; preds = %land.lhs.true14
  store i8 1, i8* %isInvalid, align 1, !dbg !4473
  br label %if.end17, !dbg !4475

if.end17:                                         ; preds = %if.then16, %land.lhs.true14, %sw.bb12
  br label %sw.epilog, !dbg !4476

sw.bb18:                                          ; preds = %entry
  %11 = load i16*, i16** %attValue.addr, align 8, !dbg !4477
  %call19 = call zeroext i1 @_ZN11xercesc_2_79XMLString6equalsEPKtS2_(i16* %11, i16* getelementptr inbounds ([0 x i16], [0 x i16]* @_ZN11xercesc_2_713SchemaSymbols13fgATTVAL_SKIPE, i64 0, i64 0)), !dbg !4479
  br i1 %call19, label %if.end25, label %land.lhs.true20, !dbg !4480

land.lhs.true20:                                  ; preds = %sw.bb18
  %12 = load i16*, i16** %attValue.addr, align 8, !dbg !4481
  %call21 = call zeroext i1 @_ZN11xercesc_2_79XMLString6equalsEPKtS2_(i16* %12, i16* getelementptr inbounds ([0 x i16], [0 x i16]* @_ZN11xercesc_2_713SchemaSymbols12fgATTVAL_LAXE, i64 0, i64 0)), !dbg !4482
  br i1 %call21, label %if.end25, label %land.lhs.true22, !dbg !4483

land.lhs.true22:                                  ; preds = %land.lhs.true20
  %13 = load i16*, i16** %attValue.addr, align 8, !dbg !4484
  %call23 = call zeroext i1 @_ZN11xercesc_2_79XMLString6equalsEPKtS2_(i16* %13, i16* getelementptr inbounds ([0 x i16], [0 x i16]* @_ZN11xercesc_2_713SchemaSymbols15fgATTVAL_STRICTE, i64 0, i64 0)), !dbg !4485
  br i1 %call23, label %if.end25, label %if.then24, !dbg !4486

if.then24:                                        ; preds = %land.lhs.true22
  store i8 1, i8* %isInvalid, align 1, !dbg !4487
  br label %if.end25, !dbg !4489

if.end25:                                         ; preds = %if.then24, %land.lhs.true22, %land.lhs.true20, %sw.bb18
  br label %sw.epilog, !dbg !4490

sw.bb26:                                          ; preds = %entry
  %14 = load i16*, i16** %attValue.addr, align 8, !dbg !4491
  %call27 = call zeroext i1 @_ZN11xercesc_2_79XMLString6equalsEPKtS2_(i16* %14, i16* getelementptr inbounds ([0 x i16], [0 x i16]* @_ZN11xercesc_2_713SchemaSymbols17fgATTVAL_OPTIONALE, i64 0, i64 0)), !dbg !4493
  br i1 %call27, label %if.end33, label %land.lhs.true28, !dbg !4494

land.lhs.true28:                                  ; preds = %sw.bb26
  %15 = load i16*, i16** %attValue.addr, align 8, !dbg !4495
  %call29 = call zeroext i1 @_ZN11xercesc_2_79XMLString6equalsEPKtS2_(i16* %15, i16* getelementptr inbounds ([0 x i16], [0 x i16]* @_ZN11xercesc_2_713SchemaSymbols19fgATTVAL_PROHIBITEDE, i64 0, i64 0)), !dbg !4496
  br i1 %call29, label %if.end33, label %land.lhs.true30, !dbg !4497

land.lhs.true30:                                  ; preds = %land.lhs.true28
  %16 = load i16*, i16** %attValue.addr, align 8, !dbg !4498
  %call31 = call zeroext i1 @_ZN11xercesc_2_79XMLString6equalsEPKtS2_(i16* %16, i16* getelementptr inbounds ([0 x i16], [0 x i16]* @_ZN11xercesc_2_713SchemaSymbols17fgATTVAL_REQUIREDE, i64 0, i64 0)), !dbg !4499
  br i1 %call31, label %if.end33, label %if.then32, !dbg !4500

if.then32:                                        ; preds = %land.lhs.true30
  store i8 1, i8* %isInvalid, align 1, !dbg !4501
  br label %if.end33, !dbg !4503

if.end33:                                         ; preds = %if.then32, %land.lhs.true30, %land.lhs.true28, %sw.bb26
  br label %sw.epilog, !dbg !4504

sw.bb34:                                          ; preds = %entry
  %17 = load i16*, i16** %attValue.addr, align 8, !dbg !4505
  %call35 = call zeroext i1 @_ZN11xercesc_2_79XMLString6equalsEPKtS2_(i16* %17, i16* getelementptr inbounds ([0 x i16], [0 x i16]* @_ZN11xercesc_2_713SchemaSymbols13fgWS_PRESERVEE, i64 0, i64 0)), !dbg !4507
  br i1 %call35, label %if.end41, label %land.lhs.true36, !dbg !4508

land.lhs.true36:                                  ; preds = %sw.bb34
  %18 = load i16*, i16** %attValue.addr, align 8, !dbg !4509
  %call37 = call zeroext i1 @_ZN11xercesc_2_79XMLString6equalsEPKtS2_(i16* %18, i16* getelementptr inbounds ([0 x i16], [0 x i16]* @_ZN11xercesc_2_713SchemaSymbols12fgWS_REPLACEE, i64 0, i64 0)), !dbg !4510
  br i1 %call37, label %if.end41, label %land.lhs.true38, !dbg !4511

land.lhs.true38:                                  ; preds = %land.lhs.true36
  %19 = load i16*, i16** %attValue.addr, align 8, !dbg !4512
  %call39 = call zeroext i1 @_ZN11xercesc_2_79XMLString6equalsEPKtS2_(i16* %19, i16* getelementptr inbounds ([0 x i16], [0 x i16]* @_ZN11xercesc_2_713SchemaSymbols13fgWS_COLLAPSEE, i64 0, i64 0)), !dbg !4513
  br i1 %call39, label %if.end41, label %if.then40, !dbg !4514

if.then40:                                        ; preds = %land.lhs.true38
  store i8 1, i8* %isInvalid, align 1, !dbg !4515
  br label %if.end41, !dbg !4517

if.end41:                                         ; preds = %if.then40, %land.lhs.true38, %land.lhs.true36, %sw.bb34
  br label %sw.epilog, !dbg !4518

sw.bb42:                                          ; preds = %entry
  %20 = load %"class.xercesc_2_7::DatatypeValidator"*, %"class.xercesc_2_7::DatatypeValidator"** @_ZN11xercesc_2_721GeneralAttributeCheck10fBooleanDVE, align 8, !dbg !4519
  store %"class.xercesc_2_7::DatatypeValidator"* %20, %"class.xercesc_2_7::DatatypeValidator"** %dv, align 8, !dbg !4520
  br label %sw.epilog, !dbg !4521

sw.bb43:                                          ; preds = %entry
  %21 = load %"class.xercesc_2_7::DatatypeValidator"*, %"class.xercesc_2_7::DatatypeValidator"** @_ZN11xercesc_2_721GeneralAttributeCheck12fNonNegIntDVE, align 8, !dbg !4522
  store %"class.xercesc_2_7::DatatypeValidator"* %21, %"class.xercesc_2_7::DatatypeValidator"** %dv, align 8, !dbg !4523
  br label %sw.epilog, !dbg !4524

sw.bb44:                                          ; preds = %entry
  %22 = load %"class.xercesc_2_7::DatatypeValidator"*, %"class.xercesc_2_7::DatatypeValidator"** @_ZN11xercesc_2_721GeneralAttributeCheck9fAnyURIDVE, align 8, !dbg !4525
  store %"class.xercesc_2_7::DatatypeValidator"* %22, %"class.xercesc_2_7::DatatypeValidator"** %dv, align 8, !dbg !4526
  br label %sw.epilog, !dbg !4527

sw.bb45:                                          ; preds = %entry
  %fValidationContext46 = getelementptr inbounds %"class.xercesc_2_7::GeneralAttributeCheck", %"class.xercesc_2_7::GeneralAttributeCheck"* %this1, i32 0, i32 1, !dbg !4528
  %23 = load %"class.xercesc_2_7::ValidationContext"*, %"class.xercesc_2_7::ValidationContext"** %fValidationContext46, align 8, !dbg !4528
  %tobool = icmp ne %"class.xercesc_2_7::ValidationContext"* %23, null, !dbg !4528
  br i1 %tobool, label %if.then47, label %if.end48, !dbg !4530

if.then47:                                        ; preds = %sw.bb45
  %fIDValidator = getelementptr inbounds %"class.xercesc_2_7::GeneralAttributeCheck", %"class.xercesc_2_7::GeneralAttributeCheck"* %this1, i32 0, i32 2, !dbg !4531
  %24 = bitcast %"class.xercesc_2_7::IDDatatypeValidator"* %fIDValidator to %"class.xercesc_2_7::DatatypeValidator"*, !dbg !4533
  store %"class.xercesc_2_7::DatatypeValidator"* %24, %"class.xercesc_2_7::DatatypeValidator"** %dv, align 8, !dbg !4534
  br label %if.end48, !dbg !4535

if.end48:                                         ; preds = %if.then47, %sw.bb45
  br label %sw.epilog, !dbg !4536

sw.epilog:                                        ; preds = %entry, %if.end48, %sw.bb44, %sw.bb43, %sw.bb42, %if.end41, %if.end33, %if.end25, %if.end17, %if.end11, %if.end7, %if.end
  %25 = load %"class.xercesc_2_7::DatatypeValidator"*, %"class.xercesc_2_7::DatatypeValidator"** %dv, align 8, !dbg !4537
  %tobool49 = icmp ne %"class.xercesc_2_7::DatatypeValidator"* %25, null, !dbg !4537
  br i1 %tobool49, label %if.then50, label %if.end65, !dbg !4539

if.then50:                                        ; preds = %sw.epilog
  %26 = load %"class.xercesc_2_7::DatatypeValidator"*, %"class.xercesc_2_7::DatatypeValidator"** %dv, align 8, !dbg !4540
  %27 = load i16*, i16** %attValue.addr, align 8, !dbg !4543
  %fValidationContext51 = getelementptr inbounds %"class.xercesc_2_7::GeneralAttributeCheck", %"class.xercesc_2_7::GeneralAttributeCheck"* %this1, i32 0, i32 1, !dbg !4544
  %28 = load %"class.xercesc_2_7::ValidationContext"*, %"class.xercesc_2_7::ValidationContext"** %fValidationContext51, align 8, !dbg !4544
  %fMemoryManager = getelementptr inbounds %"class.xercesc_2_7::GeneralAttributeCheck", %"class.xercesc_2_7::GeneralAttributeCheck"* %this1, i32 0, i32 0, !dbg !4545
  %29 = load %"class.xercesc_2_7::MemoryManager"*, %"class.xercesc_2_7::MemoryManager"** %fMemoryManager, align 8, !dbg !4545
  %30 = bitcast %"class.xercesc_2_7::DatatypeValidator"* %26 to void (%"class.xercesc_2_7::DatatypeValidator"*, i16*, %"class.xercesc_2_7::ValidationContext"*, %"class.xercesc_2_7::MemoryManager"*)***, !dbg !4546
  %vtable = load void (%"class.xercesc_2_7::DatatypeValidator"*, i16*, %"class.xercesc_2_7::ValidationContext"*, %"class.xercesc_2_7::MemoryManager"*)**, void (%"class.xercesc_2_7::DatatypeValidator"*, i16*, %"class.xercesc_2_7::ValidationContext"*, %"class.xercesc_2_7::MemoryManager"*)*** %30, align 8, !dbg !4546
  %vfn = getelementptr inbounds void (%"class.xercesc_2_7::DatatypeValidator"*, i16*, %"class.xercesc_2_7::ValidationContext"*, %"class.xercesc_2_7::MemoryManager"*)*, void (%"class.xercesc_2_7::DatatypeValidator"*, i16*, %"class.xercesc_2_7::ValidationContext"*, %"class.xercesc_2_7::MemoryManager"*)** %vtable, i64 8, !dbg !4546
  %31 = load void (%"class.xercesc_2_7::DatatypeValidator"*, i16*, %"class.xercesc_2_7::ValidationContext"*, %"class.xercesc_2_7::MemoryManager"*)*, void (%"class.xercesc_2_7::DatatypeValidator"*, i16*, %"class.xercesc_2_7::ValidationContext"*, %"class.xercesc_2_7::MemoryManager"*)** %vfn, align 8, !dbg !4546
  invoke void %31(%"class.xercesc_2_7::DatatypeValidator"* %26, i16* %27, %"class.xercesc_2_7::ValidationContext"* %28, %"class.xercesc_2_7::MemoryManager"* %29)
          to label %invoke.cont unwind label %lpad, !dbg !4546

invoke.cont:                                      ; preds = %if.then50
  br label %try.cont, !dbg !4547

lpad:                                             ; preds = %if.then50
  %32 = landingpad { i8*, i32 }
          catch i8* bitcast (i8** @_ZTIN11xercesc_2_712XMLExceptionE to i8*)
          catch i8* bitcast ({ i8*, i8*, i8* }* @_ZTIN11xercesc_2_720OutOfMemoryExceptionE to i8*)
          catch i8* null, !dbg !4548
  %33 = extractvalue { i8*, i32 } %32, 0, !dbg !4548
  store i8* %33, i8** %exn.slot, align 8, !dbg !4548
  %34 = extractvalue { i8*, i32 } %32, 1, !dbg !4548
  store i32 %34, i32* %ehselector.slot, align 4, !dbg !4548
  br label %catch.dispatch, !dbg !4548

catch.dispatch:                                   ; preds = %lpad
  %sel = load i32, i32* %ehselector.slot, align 4, !dbg !4547
  %35 = call i32 @llvm.eh.typeid.for(i8* bitcast (i8** @_ZTIN11xercesc_2_712XMLExceptionE to i8*)) #10, !dbg !4547
  %matches = icmp eq i32 %sel, %35, !dbg !4547
  br i1 %matches, label %catch57, label %catch.fallthrough, !dbg !4547

catch57:                                          ; preds = %catch.dispatch
  call void @llvm.dbg.declare(metadata %"class.xercesc_2_7::XMLException"** %excep, metadata !4549, metadata !DIExpression()), !dbg !4554
  %exn58 = load i8*, i8** %exn.slot, align 8, !dbg !4555
  %36 = call i8* @__cxa_begin_catch(i8* %exn58) #10, !dbg !4555
  %exn.byref59 = bitcast i8* %36 to %"class.xercesc_2_7::XMLException"*, !dbg !4555
  store %"class.xercesc_2_7::XMLException"* %exn.byref59, %"class.xercesc_2_7::XMLException"** %excep, align 8, !dbg !4555
  %37 = load %"class.xercesc_2_7::TraverseSchema"*, %"class.xercesc_2_7::TraverseSchema"** %schema.addr, align 8, !dbg !4557
  %38 = load %"class.xercesc_2_7::DOMElement"*, %"class.xercesc_2_7::DOMElement"** %elem.addr, align 8, !dbg !4559
  %39 = load %"class.xercesc_2_7::XMLException"*, %"class.xercesc_2_7::XMLException"** %excep, align 8, !dbg !4560
  %call62 = invoke i16* @_ZNK11xercesc_2_712XMLException10getMessageEv(%"class.xercesc_2_7::XMLException"* %39)
          to label %invoke.cont61 unwind label %lpad60, !dbg !4561

invoke.cont61:                                    ; preds = %catch57
  invoke void @_ZN11xercesc_2_714TraverseSchema17reportSchemaErrorEPKNS_10DOMElementEPKtiS5_S5_S5_S5_(%"class.xercesc_2_7::TraverseSchema"* %37, %"class.xercesc_2_7::DOMElement"* %38, i16* getelementptr inbounds ([0 x i16], [0 x i16]* @_ZN11xercesc_2_76XMLUni14fgXMLErrDomainE, i64 0, i64 0), i32 156, i16* %call62, i16* null, i16* null, i16* null)
          to label %invoke.cont63 unwind label %lpad60, !dbg !4562

invoke.cont63:                                    ; preds = %invoke.cont61
  call void @__cxa_end_catch(), !dbg !4563
  br label %try.cont, !dbg !4563

try.cont:                                         ; preds = %invoke.cont63, %catch, %invoke.cont
  br label %if.end65, !dbg !4564

catch.fallthrough:                                ; preds = %catch.dispatch
  %40 = call i32 @llvm.eh.typeid.for(i8* bitcast ({ i8*, i8*, i8* }* @_ZTIN11xercesc_2_720OutOfMemoryExceptionE to i8*)) #10, !dbg !4547
  %matches52 = icmp eq i32 %sel, %40, !dbg !4547
  br i1 %matches52, label %catch53, label %catch, !dbg !4547

catch53:                                          ; preds = %catch.fallthrough
  call void @llvm.dbg.declare(metadata %"class.xercesc_2_7::OutOfMemoryException"** %0, metadata !4565, metadata !DIExpression()), !dbg !4566
  %exn54 = load i8*, i8** %exn.slot, align 8, !dbg !4567
  %41 = call i8* @__cxa_begin_catch(i8* %exn54) #10, !dbg !4567
  %exn.byref = bitcast i8* %41 to %"class.xercesc_2_7::OutOfMemoryException"*, !dbg !4567
  store %"class.xercesc_2_7::OutOfMemoryException"* %exn.byref, %"class.xercesc_2_7::OutOfMemoryException"** %0, align 8, !dbg !4567
  invoke void @__cxa_rethrow() #13
          to label %unreachable unwind label %lpad55, !dbg !4569

catch:                                            ; preds = %catch.fallthrough
  %exn = load i8*, i8** %exn.slot, align 8, !dbg !4547
  %42 = call i8* @__cxa_begin_catch(i8* %exn) #10, !dbg !4547
  store i8 1, i8* %isInvalid, align 1, !dbg !4570
  call void @__cxa_end_catch(), !dbg !4567
  br label %try.cont, !dbg !4567

lpad55:                                           ; preds = %catch53
  %43 = landingpad { i8*, i32 }
          cleanup, !dbg !4571
  %44 = extractvalue { i8*, i32 } %43, 0, !dbg !4571
  store i8* %44, i8** %exn.slot, align 8, !dbg !4571
  %45 = extractvalue { i8*, i32 } %43, 1, !dbg !4571
  store i32 %45, i32* %ehselector.slot, align 4, !dbg !4571
  invoke void @__cxa_end_catch()
          to label %invoke.cont56 unwind label %terminate.lpad, !dbg !4555

invoke.cont56:                                    ; preds = %lpad55
  br label %eh.resume, !dbg !4555

lpad60:                                           ; preds = %invoke.cont61, %catch57
  %46 = landingpad { i8*, i32 }
          cleanup, !dbg !4572
  %47 = extractvalue { i8*, i32 } %46, 0, !dbg !4572
  store i8* %47, i8** %exn.slot, align 8, !dbg !4572
  %48 = extractvalue { i8*, i32 } %46, 1, !dbg !4572
  store i32 %48, i32* %ehselector.slot, align 4, !dbg !4572
  invoke void @__cxa_end_catch()
          to label %invoke.cont64 unwind label %terminate.lpad, !dbg !4563

invoke.cont64:                                    ; preds = %lpad60
  br label %eh.resume, !dbg !4563

if.end65:                                         ; preds = %try.cont, %sw.epilog
  %49 = load i8, i8* %isInvalid, align 1, !dbg !4573
  %tobool66 = trunc i8 %49 to i1, !dbg !4573
  br i1 %tobool66, label %if.then67, label %if.end68, !dbg !4575

if.then67:                                        ; preds = %if.end65
  %50 = load %"class.xercesc_2_7::TraverseSchema"*, %"class.xercesc_2_7::TraverseSchema"** %schema.addr, align 8, !dbg !4576
  %51 = load %"class.xercesc_2_7::DOMElement"*, %"class.xercesc_2_7::DOMElement"** %elem.addr, align 8, !dbg !4578
  %52 = load i16*, i16** %attValue.addr, align 8, !dbg !4579
  %53 = load i16*, i16** %attName.addr, align 8, !dbg !4580
  call void @_ZN11xercesc_2_714TraverseSchema17reportSchemaErrorEPKNS_10DOMElementEPKtiS5_S5_S5_S5_(%"class.xercesc_2_7::TraverseSchema"* %50, %"class.xercesc_2_7::DOMElement"* %51, i16* getelementptr inbounds ([0 x i16], [0 x i16]* @_ZN11xercesc_2_76XMLUni14fgXMLErrDomainE, i64 0, i64 0), i32 82, i16* %52, i16* %53, i16* null, i16* null), !dbg !4581
  br label %if.end68, !dbg !4582

if.end68:                                         ; preds = %if.then67, %if.end65
  ret void, !dbg !4583

eh.resume:                                        ; preds = %invoke.cont64, %invoke.cont56
  %exn69 = load i8*, i8** %exn.slot, align 8, !dbg !4555
  %sel70 = load i32, i32* %ehselector.slot, align 4, !dbg !4555
  %lpad.val = insertvalue { i8*, i32 } undef, i8* %exn69, 0, !dbg !4555
  %lpad.val71 = insertvalue { i8*, i32 } %lpad.val, i32 %sel70, 1, !dbg !4555
  resume { i8*, i32 } %lpad.val71, !dbg !4555

terminate.lpad:                                   ; preds = %lpad60, %lpad55
  %54 = landingpad { i8*, i32 }
          catch i8* null, !dbg !4555
  %55 = extractvalue { i8*, i32 } %54, 0, !dbg !4555
  call void @__clang_call_terminate(i8* %55) #12, !dbg !4555
  unreachable, !dbg !4555

unreachable:                                      ; preds = %catch53
  unreachable
}

; Function Attrs: noinline nounwind uwtable
define linkonce_odr dso_local %"class.xercesc_2_7::ValidationContext"* @_ZNK11xercesc_2_710SchemaInfo20getValidationContextEv(%"class.xercesc_2_7::SchemaInfo"* %this) #1 comdat align 2 !dbg !4584 {
entry:
  %this.addr = alloca %"class.xercesc_2_7::SchemaInfo"*, align 8
  store %"class.xercesc_2_7::SchemaInfo"* %this, %"class.xercesc_2_7::SchemaInfo"** %this.addr, align 8
  call void @llvm.dbg.declare(metadata %"class.xercesc_2_7::SchemaInfo"** %this.addr, metadata !4585, metadata !DIExpression()), !dbg !4586
  %this1 = load %"class.xercesc_2_7::SchemaInfo"*, %"class.xercesc_2_7::SchemaInfo"** %this.addr, align 8
  %fValidationContext = getelementptr inbounds %"class.xercesc_2_7::SchemaInfo", %"class.xercesc_2_7::SchemaInfo"* %this1, i32 0, i32 20, !dbg !4587
  %0 = load %"class.xercesc_2_7::ValidationContext"*, %"class.xercesc_2_7::ValidationContext"** %fValidationContext, align 8, !dbg !4587
  ret %"class.xercesc_2_7::ValidationContext"* %0, !dbg !4588
}

; Function Attrs: noinline nounwind uwtable
define linkonce_odr dso_local i16* @_ZNK11xercesc_2_712XMLException10getMessageEv(%"class.xercesc_2_7::XMLException"* %this) #1 comdat align 2 !dbg !4589 {
entry:
  %this.addr = alloca %"class.xercesc_2_7::XMLException"*, align 8
  store %"class.xercesc_2_7::XMLException"* %this, %"class.xercesc_2_7::XMLException"** %this.addr, align 8
  call void @llvm.dbg.declare(metadata %"class.xercesc_2_7::XMLException"** %this.addr, metadata !4594, metadata !DIExpression()), !dbg !4596
  %this1 = load %"class.xercesc_2_7::XMLException"*, %"class.xercesc_2_7::XMLException"** %this.addr, align 8
  %fMsg = getelementptr inbounds %"class.xercesc_2_7::XMLException", %"class.xercesc_2_7::XMLException"* %this1, i32 0, i32 4, !dbg !4597
  %0 = load i16*, i16** %fMsg, align 8, !dbg !4597
  ret i16* %0, !dbg !4598
}

declare dso_local zeroext i1 @_ZNK11xercesc_2_710XMLRefInfo14isSerializableEv(%"class.xercesc_2_7::XMLRefInfo"*) unnamed_addr #7

declare dso_local void @_ZN11xercesc_2_710XMLRefInfo9serializeERNS_16XSerializeEngineE(%"class.xercesc_2_7::XMLRefInfo"*, %"class.xercesc_2_7::XSerializeEngine"* dereferenceable(104)) unnamed_addr #7

declare dso_local %"class.xercesc_2_7::XProtoType"* @_ZNK11xercesc_2_710XMLRefInfo12getProtoTypeEv(%"class.xercesc_2_7::XMLRefInfo"*) unnamed_addr #7

; Function Attrs: noinline nounwind uwtable
define linkonce_odr dso_local void @_ZN11xercesc_2_713XMLAttDefListD2Ev(%"class.xercesc_2_7::XMLAttDefList"* %this) unnamed_addr #1 comdat align 2 !dbg !4599 {
entry:
  %this.addr = alloca %"class.xercesc_2_7::XMLAttDefList"*, align 8
  store %"class.xercesc_2_7::XMLAttDefList"* %this, %"class.xercesc_2_7::XMLAttDefList"** %this.addr, align 8
  call void @llvm.dbg.declare(metadata %"class.xercesc_2_7::XMLAttDefList"** %this.addr, metadata !4600, metadata !DIExpression()), !dbg !4601
  %this1 = load %"class.xercesc_2_7::XMLAttDefList"*, %"class.xercesc_2_7::XMLAttDefList"** %this.addr, align 8
  %0 = bitcast %"class.xercesc_2_7::XMLAttDefList"* %this1 to %"class.xercesc_2_7::XSerializable"*, !dbg !4602
  call void @_ZN11xercesc_2_713XSerializableD2Ev(%"class.xercesc_2_7::XSerializable"* %0) #10, !dbg !4602
  ret void, !dbg !4604
}

declare dso_local zeroext i1 @_ZNK11xercesc_2_713XMLAttDefList14isSerializableEv(%"class.xercesc_2_7::XMLAttDefList"*) unnamed_addr #7

declare dso_local void @_ZN11xercesc_2_713XMLAttDefList9serializeERNS_16XSerializeEngineE(%"class.xercesc_2_7::XMLAttDefList"*, %"class.xercesc_2_7::XSerializeEngine"* dereferenceable(104)) unnamed_addr #7

declare dso_local %"class.xercesc_2_7::XProtoType"* @_ZNK11xercesc_2_713XMLAttDefList12getProtoTypeEv(%"class.xercesc_2_7::XMLAttDefList"*) unnamed_addr #7

declare dso_local void @__cxa_pure_virtual() unnamed_addr

declare dso_local zeroext i1 @_ZNK11xercesc_2_715ContentSpecNode14isSerializableEv(%"class.xercesc_2_7::ContentSpecNode"*) unnamed_addr #7

declare dso_local void @_ZN11xercesc_2_715ContentSpecNode9serializeERNS_16XSerializeEngineE(%"class.xercesc_2_7::ContentSpecNode"*, %"class.xercesc_2_7::XSerializeEngine"* dereferenceable(104)) unnamed_addr #7

declare dso_local %"class.xercesc_2_7::XProtoType"* @_ZNK11xercesc_2_715ContentSpecNode12getProtoTypeEv(%"class.xercesc_2_7::ContentSpecNode"*) unnamed_addr #7

; Function Attrs: noinline uwtable
define linkonce_odr dso_local zeroext i1 @_ZNK11xercesc_2_714RefHashTableOfINS_17DatatypeValidatorEE11containsKeyEPKv(%"class.xercesc_2_7::RefHashTableOf.2"* %this, i8* %key) #6 comdat align 2 !dbg !4605 {
entry:
  %this.addr = alloca %"class.xercesc_2_7::RefHashTableOf.2"*, align 8
  %key.addr = alloca i8*, align 8
  %hashVal = alloca i32, align 4
  %findIt = alloca %"struct.xercesc_2_7::RefHashTableBucketElem"*, align 8
  store %"class.xercesc_2_7::RefHashTableOf.2"* %this, %"class.xercesc_2_7::RefHashTableOf.2"** %this.addr, align 8
  call void @llvm.dbg.declare(metadata %"class.xercesc_2_7::RefHashTableOf.2"** %this.addr, metadata !4714, metadata !DIExpression()), !dbg !4716
  store i8* %key, i8** %key.addr, align 8
  call void @llvm.dbg.declare(metadata i8** %key.addr, metadata !4717, metadata !DIExpression()), !dbg !4718
  %this1 = load %"class.xercesc_2_7::RefHashTableOf.2"*, %"class.xercesc_2_7::RefHashTableOf.2"** %this.addr, align 8
  call void @llvm.dbg.declare(metadata i32* %hashVal, metadata !4719, metadata !DIExpression()), !dbg !4720
  call void @llvm.dbg.declare(metadata %"struct.xercesc_2_7::RefHashTableBucketElem"** %findIt, metadata !4721, metadata !DIExpression()), !dbg !4722
  %0 = load i8*, i8** %key.addr, align 8, !dbg !4723
  %call = call %"struct.xercesc_2_7::RefHashTableBucketElem"* @_ZNK11xercesc_2_714RefHashTableOfINS_17DatatypeValidatorEE14findBucketElemEPKvRj(%"class.xercesc_2_7::RefHashTableOf.2"* %this1, i8* %0, i32* dereferenceable(4) %hashVal), !dbg !4724
  store %"struct.xercesc_2_7::RefHashTableBucketElem"* %call, %"struct.xercesc_2_7::RefHashTableBucketElem"** %findIt, align 8, !dbg !4722
  %1 = load %"struct.xercesc_2_7::RefHashTableBucketElem"*, %"struct.xercesc_2_7::RefHashTableBucketElem"** %findIt, align 8, !dbg !4725
  %cmp = icmp ne %"struct.xercesc_2_7::RefHashTableBucketElem"* %1, null, !dbg !4726
  ret i1 %cmp, !dbg !4727
}

; Function Attrs: noinline uwtable
define linkonce_odr dso_local %"class.xercesc_2_7::DatatypeValidator"* @_ZN11xercesc_2_714RefHashTableOfINS_17DatatypeValidatorEE3getEPKv(%"class.xercesc_2_7::RefHashTableOf.2"* %this, i8* %key) #6 comdat align 2 !dbg !4728 {
entry:
  %retval = alloca %"class.xercesc_2_7::DatatypeValidator"*, align 8
  %this.addr = alloca %"class.xercesc_2_7::RefHashTableOf.2"*, align 8
  %key.addr = alloca i8*, align 8
  %hashVal = alloca i32, align 4
  %findIt = alloca %"struct.xercesc_2_7::RefHashTableBucketElem"*, align 8
  store %"class.xercesc_2_7::RefHashTableOf.2"* %this, %"class.xercesc_2_7::RefHashTableOf.2"** %this.addr, align 8
  call void @llvm.dbg.declare(metadata %"class.xercesc_2_7::RefHashTableOf.2"** %this.addr, metadata !4729, metadata !DIExpression()), !dbg !4731
  store i8* %key, i8** %key.addr, align 8
  call void @llvm.dbg.declare(metadata i8** %key.addr, metadata !4732, metadata !DIExpression()), !dbg !4733
  %this1 = load %"class.xercesc_2_7::RefHashTableOf.2"*, %"class.xercesc_2_7::RefHashTableOf.2"** %this.addr, align 8
  call void @llvm.dbg.declare(metadata i32* %hashVal, metadata !4734, metadata !DIExpression()), !dbg !4735
  call void @llvm.dbg.declare(metadata %"struct.xercesc_2_7::RefHashTableBucketElem"** %findIt, metadata !4736, metadata !DIExpression()), !dbg !4737
  %0 = load i8*, i8** %key.addr, align 8, !dbg !4738
  %call = call %"struct.xercesc_2_7::RefHashTableBucketElem"* @_ZN11xercesc_2_714RefHashTableOfINS_17DatatypeValidatorEE14findBucketElemEPKvRj(%"class.xercesc_2_7::RefHashTableOf.2"* %this1, i8* %0, i32* dereferenceable(4) %hashVal), !dbg !4739
  store %"struct.xercesc_2_7::RefHashTableBucketElem"* %call, %"struct.xercesc_2_7::RefHashTableBucketElem"** %findIt, align 8, !dbg !4737
  %1 = load %"struct.xercesc_2_7::RefHashTableBucketElem"*, %"struct.xercesc_2_7::RefHashTableBucketElem"** %findIt, align 8, !dbg !4740
  %tobool = icmp ne %"struct.xercesc_2_7::RefHashTableBucketElem"* %1, null, !dbg !4740
  br i1 %tobool, label %if.end, label %if.then, !dbg !4742

if.then:                                          ; preds = %entry
  store %"class.xercesc_2_7::DatatypeValidator"* null, %"class.xercesc_2_7::DatatypeValidator"** %retval, align 8, !dbg !4743
  br label %return, !dbg !4743

if.end:                                           ; preds = %entry
  %2 = load %"struct.xercesc_2_7::RefHashTableBucketElem"*, %"struct.xercesc_2_7::RefHashTableBucketElem"** %findIt, align 8, !dbg !4744
  %fData = getelementptr inbounds %"struct.xercesc_2_7::RefHashTableBucketElem", %"struct.xercesc_2_7::RefHashTableBucketElem"* %2, i32 0, i32 0, !dbg !4745
  %3 = load %"class.xercesc_2_7::DatatypeValidator"*, %"class.xercesc_2_7::DatatypeValidator"** %fData, align 8, !dbg !4745
  store %"class.xercesc_2_7::DatatypeValidator"* %3, %"class.xercesc_2_7::DatatypeValidator"** %retval, align 8, !dbg !4746
  br label %return, !dbg !4746

return:                                           ; preds = %if.end, %if.then
  %4 = load %"class.xercesc_2_7::DatatypeValidator"*, %"class.xercesc_2_7::DatatypeValidator"** %retval, align 8, !dbg !4747
  ret %"class.xercesc_2_7::DatatypeValidator"* %4, !dbg !4747
}

; Function Attrs: noinline uwtable
define linkonce_odr dso_local %"struct.xercesc_2_7::RefHashTableBucketElem"* @_ZNK11xercesc_2_714RefHashTableOfINS_17DatatypeValidatorEE14findBucketElemEPKvRj(%"class.xercesc_2_7::RefHashTableOf.2"* %this, i8* %key, i32* dereferenceable(4) %hashVal) #6 comdat align 2 !dbg !4748 {
entry:
  %retval = alloca %"struct.xercesc_2_7::RefHashTableBucketElem"*, align 8
  %this.addr = alloca %"class.xercesc_2_7::RefHashTableOf.2"*, align 8
  %key.addr = alloca i8*, align 8
  %hashVal.addr = alloca i32*, align 8
  %curElem = alloca %"struct.xercesc_2_7::RefHashTableBucketElem"*, align 8
  store %"class.xercesc_2_7::RefHashTableOf.2"* %this, %"class.xercesc_2_7::RefHashTableOf.2"** %this.addr, align 8
  call void @llvm.dbg.declare(metadata %"class.xercesc_2_7::RefHashTableOf.2"** %this.addr, metadata !4749, metadata !DIExpression()), !dbg !4750
  store i8* %key, i8** %key.addr, align 8
  call void @llvm.dbg.declare(metadata i8** %key.addr, metadata !4751, metadata !DIExpression()), !dbg !4752
  store i32* %hashVal, i32** %hashVal.addr, align 8
  call void @llvm.dbg.declare(metadata i32** %hashVal.addr, metadata !4753, metadata !DIExpression()), !dbg !4754
  %this1 = load %"class.xercesc_2_7::RefHashTableOf.2"*, %"class.xercesc_2_7::RefHashTableOf.2"** %this.addr, align 8
  %fHash = getelementptr inbounds %"class.xercesc_2_7::RefHashTableOf.2", %"class.xercesc_2_7::RefHashTableOf.2"* %this1, i32 0, i32 6, !dbg !4755
  %0 = load %"class.xercesc_2_7::HashBase"*, %"class.xercesc_2_7::HashBase"** %fHash, align 8, !dbg !4755
  %1 = load i8*, i8** %key.addr, align 8, !dbg !4756
  %fHashModulus = getelementptr inbounds %"class.xercesc_2_7::RefHashTableOf.2", %"class.xercesc_2_7::RefHashTableOf.2"* %this1, i32 0, i32 3, !dbg !4757
  %2 = load i32, i32* %fHashModulus, align 8, !dbg !4757
  %fMemoryManager = getelementptr inbounds %"class.xercesc_2_7::RefHashTableOf.2", %"class.xercesc_2_7::RefHashTableOf.2"* %this1, i32 0, i32 0, !dbg !4758
  %3 = load %"class.xercesc_2_7::MemoryManager"*, %"class.xercesc_2_7::MemoryManager"** %fMemoryManager, align 8, !dbg !4758
  %4 = bitcast %"class.xercesc_2_7::HashBase"* %0 to i32 (%"class.xercesc_2_7::HashBase"*, i8*, i32, %"class.xercesc_2_7::MemoryManager"*)***, !dbg !4759
  %vtable = load i32 (%"class.xercesc_2_7::HashBase"*, i8*, i32, %"class.xercesc_2_7::MemoryManager"*)**, i32 (%"class.xercesc_2_7::HashBase"*, i8*, i32, %"class.xercesc_2_7::MemoryManager"*)*** %4, align 8, !dbg !4759
  %vfn = getelementptr inbounds i32 (%"class.xercesc_2_7::HashBase"*, i8*, i32, %"class.xercesc_2_7::MemoryManager"*)*, i32 (%"class.xercesc_2_7::HashBase"*, i8*, i32, %"class.xercesc_2_7::MemoryManager"*)** %vtable, i64 0, !dbg !4759
  %5 = load i32 (%"class.xercesc_2_7::HashBase"*, i8*, i32, %"class.xercesc_2_7::MemoryManager"*)*, i32 (%"class.xercesc_2_7::HashBase"*, i8*, i32, %"class.xercesc_2_7::MemoryManager"*)** %vfn, align 8, !dbg !4759
  %call = call i32 %5(%"class.xercesc_2_7::HashBase"* %0, i8* %1, i32 %2, %"class.xercesc_2_7::MemoryManager"* %3), !dbg !4759
  %6 = load i32*, i32** %hashVal.addr, align 8, !dbg !4760
  store i32 %call, i32* %6, align 4, !dbg !4761
  call void @llvm.dbg.declare(metadata %"struct.xercesc_2_7::RefHashTableBucketElem"** %curElem, metadata !4762, metadata !DIExpression()), !dbg !4763
  %fBucketList = getelementptr inbounds %"class.xercesc_2_7::RefHashTableOf.2", %"class.xercesc_2_7::RefHashTableOf.2"* %this1, i32 0, i32 2, !dbg !4764
  %7 = load %"struct.xercesc_2_7::RefHashTableBucketElem"**, %"struct.xercesc_2_7::RefHashTableBucketElem"*** %fBucketList, align 8, !dbg !4764
  %8 = load i32*, i32** %hashVal.addr, align 8, !dbg !4765
  %9 = load i32, i32* %8, align 4, !dbg !4765
  %idxprom = zext i32 %9 to i64, !dbg !4764
  %arrayidx = getelementptr inbounds %"struct.xercesc_2_7::RefHashTableBucketElem"*, %"struct.xercesc_2_7::RefHashTableBucketElem"** %7, i64 %idxprom, !dbg !4764
  %10 = load %"struct.xercesc_2_7::RefHashTableBucketElem"*, %"struct.xercesc_2_7::RefHashTableBucketElem"** %arrayidx, align 8, !dbg !4764
  store %"struct.xercesc_2_7::RefHashTableBucketElem"* %10, %"struct.xercesc_2_7::RefHashTableBucketElem"** %curElem, align 8, !dbg !4763
  br label %while.cond, !dbg !4766

while.cond:                                       ; preds = %if.end, %entry
  %11 = load %"struct.xercesc_2_7::RefHashTableBucketElem"*, %"struct.xercesc_2_7::RefHashTableBucketElem"** %curElem, align 8, !dbg !4767
  %tobool = icmp ne %"struct.xercesc_2_7::RefHashTableBucketElem"* %11, null, !dbg !4767
  br i1 %tobool, label %while.body, label %while.end, !dbg !4766

while.body:                                       ; preds = %while.cond
  %fHash2 = getelementptr inbounds %"class.xercesc_2_7::RefHashTableOf.2", %"class.xercesc_2_7::RefHashTableOf.2"* %this1, i32 0, i32 6, !dbg !4768
  %12 = load %"class.xercesc_2_7::HashBase"*, %"class.xercesc_2_7::HashBase"** %fHash2, align 8, !dbg !4768
  %13 = load i8*, i8** %key.addr, align 8, !dbg !4771
  %14 = load %"struct.xercesc_2_7::RefHashTableBucketElem"*, %"struct.xercesc_2_7::RefHashTableBucketElem"** %curElem, align 8, !dbg !4772
  %fKey = getelementptr inbounds %"struct.xercesc_2_7::RefHashTableBucketElem", %"struct.xercesc_2_7::RefHashTableBucketElem"* %14, i32 0, i32 2, !dbg !4773
  %15 = load i8*, i8** %fKey, align 8, !dbg !4773
  %16 = bitcast %"class.xercesc_2_7::HashBase"* %12 to i1 (%"class.xercesc_2_7::HashBase"*, i8*, i8*)***, !dbg !4774
  %vtable3 = load i1 (%"class.xercesc_2_7::HashBase"*, i8*, i8*)**, i1 (%"class.xercesc_2_7::HashBase"*, i8*, i8*)*** %16, align 8, !dbg !4774
  %vfn4 = getelementptr inbounds i1 (%"class.xercesc_2_7::HashBase"*, i8*, i8*)*, i1 (%"class.xercesc_2_7::HashBase"*, i8*, i8*)** %vtable3, i64 1, !dbg !4774
  %17 = load i1 (%"class.xercesc_2_7::HashBase"*, i8*, i8*)*, i1 (%"class.xercesc_2_7::HashBase"*, i8*, i8*)** %vfn4, align 8, !dbg !4774
  %call5 = call zeroext i1 %17(%"class.xercesc_2_7::HashBase"* %12, i8* %13, i8* %15), !dbg !4774
  br i1 %call5, label %if.then, label %if.end, !dbg !4775

if.then:                                          ; preds = %while.body
  %18 = load %"struct.xercesc_2_7::RefHashTableBucketElem"*, %"struct.xercesc_2_7::RefHashTableBucketElem"** %curElem, align 8, !dbg !4776
  store %"struct.xercesc_2_7::RefHashTableBucketElem"* %18, %"struct.xercesc_2_7::RefHashTableBucketElem"** %retval, align 8, !dbg !4777
  br label %return, !dbg !4777

if.end:                                           ; preds = %while.body
  %19 = load %"struct.xercesc_2_7::RefHashTableBucketElem"*, %"struct.xercesc_2_7::RefHashTableBucketElem"** %curElem, align 8, !dbg !4778
  %fNext = getelementptr inbounds %"struct.xercesc_2_7::RefHashTableBucketElem", %"struct.xercesc_2_7::RefHashTableBucketElem"* %19, i32 0, i32 1, !dbg !4779
  %20 = load %"struct.xercesc_2_7::RefHashTableBucketElem"*, %"struct.xercesc_2_7::RefHashTableBucketElem"** %fNext, align 8, !dbg !4779
  store %"struct.xercesc_2_7::RefHashTableBucketElem"* %20, %"struct.xercesc_2_7::RefHashTableBucketElem"** %curElem, align 8, !dbg !4780
  br label %while.cond, !dbg !4766, !llvm.loop !4781

while.end:                                        ; preds = %while.cond
  store %"struct.xercesc_2_7::RefHashTableBucketElem"* null, %"struct.xercesc_2_7::RefHashTableBucketElem"** %retval, align 8, !dbg !4783
  br label %return, !dbg !4783

return:                                           ; preds = %while.end, %if.then
  %21 = load %"struct.xercesc_2_7::RefHashTableBucketElem"*, %"struct.xercesc_2_7::RefHashTableBucketElem"** %retval, align 8, !dbg !4784
  ret %"struct.xercesc_2_7::RefHashTableBucketElem"* %21, !dbg !4784
}

; Function Attrs: noinline uwtable
define linkonce_odr dso_local %"struct.xercesc_2_7::RefHashTableBucketElem"* @_ZN11xercesc_2_714RefHashTableOfINS_17DatatypeValidatorEE14findBucketElemEPKvRj(%"class.xercesc_2_7::RefHashTableOf.2"* %this, i8* %key, i32* dereferenceable(4) %hashVal) #6 comdat align 2 !dbg !4785 {
entry:
  %retval = alloca %"struct.xercesc_2_7::RefHashTableBucketElem"*, align 8
  %this.addr = alloca %"class.xercesc_2_7::RefHashTableOf.2"*, align 8
  %key.addr = alloca i8*, align 8
  %hashVal.addr = alloca i32*, align 8
  %curElem = alloca %"struct.xercesc_2_7::RefHashTableBucketElem"*, align 8
  store %"class.xercesc_2_7::RefHashTableOf.2"* %this, %"class.xercesc_2_7::RefHashTableOf.2"** %this.addr, align 8
  call void @llvm.dbg.declare(metadata %"class.xercesc_2_7::RefHashTableOf.2"** %this.addr, metadata !4786, metadata !DIExpression()), !dbg !4787
  store i8* %key, i8** %key.addr, align 8
  call void @llvm.dbg.declare(metadata i8** %key.addr, metadata !4788, metadata !DIExpression()), !dbg !4789
  store i32* %hashVal, i32** %hashVal.addr, align 8
  call void @llvm.dbg.declare(metadata i32** %hashVal.addr, metadata !4790, metadata !DIExpression()), !dbg !4791
  %this1 = load %"class.xercesc_2_7::RefHashTableOf.2"*, %"class.xercesc_2_7::RefHashTableOf.2"** %this.addr, align 8
  %fHash = getelementptr inbounds %"class.xercesc_2_7::RefHashTableOf.2", %"class.xercesc_2_7::RefHashTableOf.2"* %this1, i32 0, i32 6, !dbg !4792
  %0 = load %"class.xercesc_2_7::HashBase"*, %"class.xercesc_2_7::HashBase"** %fHash, align 8, !dbg !4792
  %1 = load i8*, i8** %key.addr, align 8, !dbg !4793
  %fHashModulus = getelementptr inbounds %"class.xercesc_2_7::RefHashTableOf.2", %"class.xercesc_2_7::RefHashTableOf.2"* %this1, i32 0, i32 3, !dbg !4794
  %2 = load i32, i32* %fHashModulus, align 8, !dbg !4794
  %fMemoryManager = getelementptr inbounds %"class.xercesc_2_7::RefHashTableOf.2", %"class.xercesc_2_7::RefHashTableOf.2"* %this1, i32 0, i32 0, !dbg !4795
  %3 = load %"class.xercesc_2_7::MemoryManager"*, %"class.xercesc_2_7::MemoryManager"** %fMemoryManager, align 8, !dbg !4795
  %4 = bitcast %"class.xercesc_2_7::HashBase"* %0 to i32 (%"class.xercesc_2_7::HashBase"*, i8*, i32, %"class.xercesc_2_7::MemoryManager"*)***, !dbg !4796
  %vtable = load i32 (%"class.xercesc_2_7::HashBase"*, i8*, i32, %"class.xercesc_2_7::MemoryManager"*)**, i32 (%"class.xercesc_2_7::HashBase"*, i8*, i32, %"class.xercesc_2_7::MemoryManager"*)*** %4, align 8, !dbg !4796
  %vfn = getelementptr inbounds i32 (%"class.xercesc_2_7::HashBase"*, i8*, i32, %"class.xercesc_2_7::MemoryManager"*)*, i32 (%"class.xercesc_2_7::HashBase"*, i8*, i32, %"class.xercesc_2_7::MemoryManager"*)** %vtable, i64 0, !dbg !4796
  %5 = load i32 (%"class.xercesc_2_7::HashBase"*, i8*, i32, %"class.xercesc_2_7::MemoryManager"*)*, i32 (%"class.xercesc_2_7::HashBase"*, i8*, i32, %"class.xercesc_2_7::MemoryManager"*)** %vfn, align 8, !dbg !4796
  %call = call i32 %5(%"class.xercesc_2_7::HashBase"* %0, i8* %1, i32 %2, %"class.xercesc_2_7::MemoryManager"* %3), !dbg !4796
  %6 = load i32*, i32** %hashVal.addr, align 8, !dbg !4797
  store i32 %call, i32* %6, align 4, !dbg !4798
  call void @llvm.dbg.declare(metadata %"struct.xercesc_2_7::RefHashTableBucketElem"** %curElem, metadata !4799, metadata !DIExpression()), !dbg !4800
  %fBucketList = getelementptr inbounds %"class.xercesc_2_7::RefHashTableOf.2", %"class.xercesc_2_7::RefHashTableOf.2"* %this1, i32 0, i32 2, !dbg !4801
  %7 = load %"struct.xercesc_2_7::RefHashTableBucketElem"**, %"struct.xercesc_2_7::RefHashTableBucketElem"*** %fBucketList, align 8, !dbg !4801
  %8 = load i32*, i32** %hashVal.addr, align 8, !dbg !4802
  %9 = load i32, i32* %8, align 4, !dbg !4802
  %idxprom = zext i32 %9 to i64, !dbg !4801
  %arrayidx = getelementptr inbounds %"struct.xercesc_2_7::RefHashTableBucketElem"*, %"struct.xercesc_2_7::RefHashTableBucketElem"** %7, i64 %idxprom, !dbg !4801
  %10 = load %"struct.xercesc_2_7::RefHashTableBucketElem"*, %"struct.xercesc_2_7::RefHashTableBucketElem"** %arrayidx, align 8, !dbg !4801
  store %"struct.xercesc_2_7::RefHashTableBucketElem"* %10, %"struct.xercesc_2_7::RefHashTableBucketElem"** %curElem, align 8, !dbg !4800
  br label %while.cond, !dbg !4803

while.cond:                                       ; preds = %if.end, %entry
  %11 = load %"struct.xercesc_2_7::RefHashTableBucketElem"*, %"struct.xercesc_2_7::RefHashTableBucketElem"** %curElem, align 8, !dbg !4804
  %tobool = icmp ne %"struct.xercesc_2_7::RefHashTableBucketElem"* %11, null, !dbg !4804
  br i1 %tobool, label %while.body, label %while.end, !dbg !4803

while.body:                                       ; preds = %while.cond
  %fHash2 = getelementptr inbounds %"class.xercesc_2_7::RefHashTableOf.2", %"class.xercesc_2_7::RefHashTableOf.2"* %this1, i32 0, i32 6, !dbg !4805
  %12 = load %"class.xercesc_2_7::HashBase"*, %"class.xercesc_2_7::HashBase"** %fHash2, align 8, !dbg !4805
  %13 = load i8*, i8** %key.addr, align 8, !dbg !4808
  %14 = load %"struct.xercesc_2_7::RefHashTableBucketElem"*, %"struct.xercesc_2_7::RefHashTableBucketElem"** %curElem, align 8, !dbg !4809
  %fKey = getelementptr inbounds %"struct.xercesc_2_7::RefHashTableBucketElem", %"struct.xercesc_2_7::RefHashTableBucketElem"* %14, i32 0, i32 2, !dbg !4810
  %15 = load i8*, i8** %fKey, align 8, !dbg !4810
  %16 = bitcast %"class.xercesc_2_7::HashBase"* %12 to i1 (%"class.xercesc_2_7::HashBase"*, i8*, i8*)***, !dbg !4811
  %vtable3 = load i1 (%"class.xercesc_2_7::HashBase"*, i8*, i8*)**, i1 (%"class.xercesc_2_7::HashBase"*, i8*, i8*)*** %16, align 8, !dbg !4811
