; ModuleID = 'DOMCDATASectionImpl.cpp'
source_filename = "DOMCDATASectionImpl.cpp"
target datalayout = "e-m:e-p270:32:32-p271:32:32-p272:64:64-i64:64-f80:128-n8:16:32:64-S128"
target triple = "x86_64-unknown-linux-gnu"

%"class.xercesc_2_7::MemoryManager" = type { i32 (...)** }
%"class.xercesc_2_7::DOMCDATASectionImpl" = type { %"class.xercesc_2_7::DOMCDATASection", %"class.xercesc_2_7::DOMNodeImpl", %"class.xercesc_2_7::DOMParentNode", %"class.xercesc_2_7::DOMChildNode", %"class.xercesc_2_7::DOMCharacterDataImpl" }
%"class.xercesc_2_7::DOMCDATASection" = type { %"class.xercesc_2_7::DOMText" }
%"class.xercesc_2_7::DOMText" = type { %"class.xercesc_2_7::DOMCharacterData" }
%"class.xercesc_2_7::DOMCharacterData" = type { %"class.xercesc_2_7::DOMNode" }
%"class.xercesc_2_7::DOMNode" = type { i32 (...)** }
%"class.xercesc_2_7::DOMNodeImpl" = type <{ %"class.xercesc_2_7::DOMNode"*, i16, [6 x i8] }>
%"class.xercesc_2_7::DOMParentNode" = type { %"class.xercesc_2_7::DOMDocument"*, %"class.xercesc_2_7::DOMNode"*, %"class.xercesc_2_7::DOMNodeListImpl" }
%"class.xercesc_2_7::DOMNodeListImpl" = type { %"class.xercesc_2_7::DOMNodeList", %"class.xercesc_2_7::DOMNode"* }
%"class.xercesc_2_7::DOMNodeList" = type { i32 (...)** }
%"class.xercesc_2_7::DOMChildNode" = type { %"class.xercesc_2_7::DOMNode"*, %"class.xercesc_2_7::DOMNode"* }
%"class.xercesc_2_7::DOMCharacterDataImpl" = type { %"class.xercesc_2_7::DOMBuffer"*, %"class.xercesc_2_7::DOMDocumentImpl"* }
%"class.xercesc_2_7::DOMBuffer" = type { i16*, i32, i32, %"class.xercesc_2_7::DOMDocumentImpl"* }
%"class.xercesc_2_7::DOMDocumentImpl" = type <{ %"class.xercesc_2_7::DOMDocument", %"class.xercesc_2_7::DOMNodeImpl", %"class.xercesc_2_7::DOMParentNode", %"class.xercesc_2_7::DOMNodeIDMap"*, i16*, i16*, i8, [7 x i8], i16*, i16*, %"class.xercesc_2_7::DOMConfiguration"*, %"class.xercesc_2_7::XMLStringPool", %"class.xercesc_2_7::RefHash2KeysTableOf"*, i8*, i8*, i64, %"class.xercesc_2_7::RefArrayOf"*, %"class.xercesc_2_7::RefStackOf"*, %"class.xercesc_2_7::DOMDeepNodeListPool"*, %"class.xercesc_2_7::DOMDocumentType"*, %"class.xercesc_2_7::DOMElement"*, %"class.xercesc_2_7::DOMStringPool"*, %"class.xercesc_2_7::DOMNormalizer"*, %"class.xercesc_2_7::RefVectorOf"*, %"class.xercesc_2_7::RefVectorOf.0"*, %"class.xercesc_2_7::MemoryManager"*, i32, i8, [3 x i8] }>
%"class.xercesc_2_7::DOMDocument" = type { %"class.xercesc_2_7::DOMDocumentRange", %"class.xercesc_2_7::DOMXPathEvaluator", %"class.xercesc_2_7::DOMDocumentTraversal", %"class.xercesc_2_7::DOMNode" }
%"class.xercesc_2_7::DOMDocumentRange" = type { i32 (...)** }
%"class.xercesc_2_7::DOMXPathEvaluator" = type { i32 (...)** }
%"class.xercesc_2_7::DOMDocumentTraversal" = type { i32 (...)** }
%"class.xercesc_2_7::DOMNodeIDMap" = type opaque
%"class.xercesc_2_7::DOMConfiguration" = type opaque
%"class.xercesc_2_7::XMLStringPool" = type { %"class.xercesc_2_7::XSerializable", %"class.xercesc_2_7::MemoryManager"*, %"struct.xercesc_2_7::XMLStringPool::PoolElem"**, %"class.xercesc_2_7::RefHashTableOf"*, i32, i32 }
%"class.xercesc_2_7::XSerializable" = type { i32 (...)** }
%"struct.xercesc_2_7::XMLStringPool::PoolElem" = type { i32, i16* }
%"class.xercesc_2_7::RefHashTableOf" = type { %"class.xercesc_2_7::MemoryManager"*, i8, %"struct.xercesc_2_7::RefHashTableBucketElem"**, i32, i32, i32, %"class.xercesc_2_7::HashBase"* }
%"struct.xercesc_2_7::RefHashTableBucketElem" = type { %"struct.xercesc_2_7::XMLStringPool::PoolElem"*, %"struct.xercesc_2_7::RefHashTableBucketElem"*, i8* }
%"class.xercesc_2_7::HashBase" = type { i32 (...)** }
%"class.xercesc_2_7::RefHash2KeysTableOf" = type opaque
%"class.xercesc_2_7::RefArrayOf" = type opaque
%"class.xercesc_2_7::RefStackOf" = type opaque
%"class.xercesc_2_7::DOMDeepNodeListPool" = type opaque
%"class.xercesc_2_7::DOMDocumentType" = type opaque
%"class.xercesc_2_7::DOMElement" = type { %"class.xercesc_2_7::DOMNode" }
%"class.xercesc_2_7::DOMStringPool" = type <{ %"class.xercesc_2_7::DOMDocumentImpl"*, %"struct.xercesc_2_7::DOMStringPoolEntry"**, i32, [4 x i8] }>
%"struct.xercesc_2_7::DOMStringPoolEntry" = type opaque
%"class.xercesc_2_7::DOMNormalizer" = type opaque
%"class.xercesc_2_7::RefVectorOf" = type { %"class.xercesc_2_7::BaseRefVectorOf" }
%"class.xercesc_2_7::BaseRefVectorOf" = type { i32 (...)**, i8, i32, i32, %"class.xercesc_2_7::DOMRangeImpl"**, %"class.xercesc_2_7::MemoryManager"* }
%"class.xercesc_2_7::DOMRangeImpl" = type { %"class.xercesc_2_7::DOMRange", %"class.xercesc_2_7::DOMNode"*, i64, %"class.xercesc_2_7::DOMNode"*, i64, i8, %"class.xercesc_2_7::DOMDocument"*, i8, %"class.xercesc_2_7::DOMNode"*, %"class.xercesc_2_7::MemoryManager"* }
%"class.xercesc_2_7::DOMRange" = type { i32 (...)** }
%"class.xercesc_2_7::RefVectorOf.0" = type opaque
%"class.xercesc_2_7::XMLDeleter" = type { i32 (...)** }
%"class.xercesc_2_7::DOMElementImpl" = type { %"class.xercesc_2_7::DOMElement", %"class.xercesc_2_7::DOMNodeImpl", %"class.xercesc_2_7::DOMParentNode", %"class.xercesc_2_7::DOMChildNode", %"class.xercesc_2_7::DOMAttrMapImpl"*, %"class.xercesc_2_7::DOMAttrMapImpl"*, i16* }
%"class.xercesc_2_7::DOMAttrMapImpl" = type <{ %"class.xercesc_2_7::DOMNamedNodeMap", %"class.xercesc_2_7::DOMNodeVector"*, %"class.xercesc_2_7::DOMNode"*, i8, [7 x i8] }>
%"class.xercesc_2_7::DOMNamedNodeMap" = type { i32 (...)** }
%"class.xercesc_2_7::DOMNodeVector" = type opaque
%"class.xercesc_2_7::DOMTextImpl" = type { %"class.xercesc_2_7::DOMText", %"class.xercesc_2_7::DOMNodeImpl", %"class.xercesc_2_7::DOMChildNode", %"class.xercesc_2_7::DOMCharacterDataImpl" }
%"class.xercesc_2_7::DOMException" = type <{ i32 (...)**, i32, [4 x i8], i16*, %"class.xercesc_2_7::MemoryManager"*, i8, [7 x i8] }>
%"class.xercesc_2_7::ArrayIndexOutOfBoundsException" = type { %"class.xercesc_2_7::XMLException" }
%"class.xercesc_2_7::XMLException" = type { i32 (...)**, i32, i8*, i32, i16*, %"class.xercesc_2_7::MemoryManager"* }
%"class.xercesc_2_7::DOMUserDataHandler" = type { i32 (...)** }

$_ZN11xercesc_2_710XMLDeleterD0Ev = comdat any

$_ZN11xercesc_2_710XMLDeleterD2Ev = comdat any

$_ZN11xercesc_2_715DOMCDATASectionC2Ev = comdat any

$_ZN11xercesc_2_713DOMParentNodeD2Ev = comdat any

$_ZN11xercesc_2_715DOMCDATASectionC2ERKS0_ = comdat any

$_ZnwmPN11xercesc_2_711DOMDocumentENS_15DOMDocumentImpl14NodeObjectTypeE = comdat any

$_ZNK11xercesc_2_711DOMNodeImpl19ignorableWhitespaceEv = comdat any

$_ZNK11xercesc_2_711DOMNodeImpl10isReadOnlyEv = comdat any

$_ZNK11xercesc_2_715DOMDocumentImpl16getMemoryManagerEv = comdat any

$_ZNK11xercesc_2_79DOMBuffer6getLenEv = comdat any

$_ZN11xercesc_2_79DOMBuffer4chopEj = comdat any

$_ZNK11xercesc_2_715BaseRefVectorOfINS_12DOMRangeImplEE4sizeEv = comdat any

$_ZN11xercesc_2_715BaseRefVectorOfINS_12DOMRangeImplEE9elementAtEj = comdat any

$_ZNK11xercesc_2_711DOMNodeImpl7isOwnedEv = comdat any

$_ZNK11xercesc_2_711DOMNodeImpl14isToBeReleasedEv = comdat any

$_ZN11xercesc_2_77DOMTextC2Ev = comdat any

$_ZN11xercesc_2_715DOMCDATASectionD2Ev = comdat any

$_ZN11xercesc_2_715DOMCDATASectionD0Ev = comdat any

$_ZN11xercesc_2_716DOMCharacterDataC2Ev = comdat any

$_ZN11xercesc_2_77DOMTextD2Ev = comdat any

$_ZN11xercesc_2_77DOMTextD0Ev = comdat any

$_ZN11xercesc_2_77DOMNodeC2Ev = comdat any

$_ZN11xercesc_2_716DOMCharacterDataD2Ev = comdat any

$_ZN11xercesc_2_716DOMCharacterDataD0Ev = comdat any

$_ZN11xercesc_2_77DOMNodeD2Ev = comdat any

$_ZN11xercesc_2_77DOMNodeD0Ev = comdat any

$_ZN11xercesc_2_77DOMTextC2ERKS0_ = comdat any

$_ZN11xercesc_2_716DOMCharacterDataC2ERKS0_ = comdat any

$_ZN11xercesc_2_77DOMNodeC2ERKS0_ = comdat any

$_ZNK11xercesc_2_711DOMNodeImpl10isLeafNodeEv = comdat any

$_ZN11xercesc_2_730ArrayIndexOutOfBoundsExceptionC2EPKcjNS_10XMLExcepts5CodesEPNS_13MemoryManagerE = comdat any

$_ZN11xercesc_2_730ArrayIndexOutOfBoundsExceptionD2Ev = comdat any

$_ZN11xercesc_2_730ArrayIndexOutOfBoundsExceptionD0Ev = comdat any

$_ZNK11xercesc_2_730ArrayIndexOutOfBoundsException7getTypeEv = comdat any

$_ZNK11xercesc_2_730ArrayIndexOutOfBoundsException9duplicateEv = comdat any

$_ZN11xercesc_2_730ArrayIndexOutOfBoundsExceptionC2ERKS0_ = comdat any

$_ZTVN11xercesc_2_710XMLDeleterE = comdat any

$_ZTSN11xercesc_2_710XMLDeleterE = comdat any

$_ZTIN11xercesc_2_710XMLDeleterE = comdat any

$_ZTSN11xercesc_2_715DOMCDATASectionE = comdat any

$_ZTSN11xercesc_2_77DOMTextE = comdat any

$_ZTSN11xercesc_2_716DOMCharacterDataE = comdat any

$_ZTSN11xercesc_2_77DOMNodeE = comdat any

$_ZTIN11xercesc_2_77DOMNodeE = comdat any

$_ZTIN11xercesc_2_716DOMCharacterDataE = comdat any

$_ZTIN11xercesc_2_77DOMTextE = comdat any

$_ZTIN11xercesc_2_715DOMCDATASectionE = comdat any

$_ZTVN11xercesc_2_715DOMCDATASectionE = comdat any

$_ZTVN11xercesc_2_77DOMTextE = comdat any

$_ZTVN11xercesc_2_716DOMCharacterDataE = comdat any

$_ZTVN11xercesc_2_77DOMNodeE = comdat any

$_ZTSN11xercesc_2_730ArrayIndexOutOfBoundsExceptionE = comdat any

$_ZTIN11xercesc_2_730ArrayIndexOutOfBoundsExceptionE = comdat any

$_ZTVN11xercesc_2_730ArrayIndexOutOfBoundsExceptionE = comdat any

@_ZTVN11xercesc_2_719DOMCDATASectionImplE = dso_local unnamed_addr constant { [55 x i8*] } { [55 x i8*] [i8* null, i8* bitcast ({ i8*, i8*, i8* }* @_ZTIN11xercesc_2_719DOMCDATASectionImplE to i8*), i8* bitcast (void (%"class.xercesc_2_7::DOMCDATASectionImpl"*)* @_ZN11xercesc_2_719DOMCDATASectionImplD1Ev to i8*), i8* bitcast (void (%"class.xercesc_2_7::DOMCDATASectionImpl"*)* @_ZN11xercesc_2_719DOMCDATASectionImplD0Ev to i8*), i8* bitcast (i16* (%"class.xercesc_2_7::DOMCDATASectionImpl"*)* @_ZNK11xercesc_2_719DOMCDATASectionImpl11getNodeNameEv to i8*), i8* bitcast (i16* (%"class.xercesc_2_7::DOMCDATASectionImpl"*)* @_ZNK11xercesc_2_719DOMCDATASectionImpl12getNodeValueEv to i8*), i8* bitcast (i16 (%"class.xercesc_2_7::DOMCDATASectionImpl"*)* @_ZNK11xercesc_2_719DOMCDATASectionImpl11getNodeTypeEv to i8*), i8* bitcast (%"class.xercesc_2_7::DOMNode"* (%"class.xercesc_2_7::DOMCDATASectionImpl"*)* @_ZNK11xercesc_2_719DOMCDATASectionImpl13getParentNodeEv to i8*), i8* bitcast (%"class.xercesc_2_7::DOMNodeList"* (%"class.xercesc_2_7::DOMCDATASectionImpl"*)* @_ZNK11xercesc_2_719DOMCDATASectionImpl13getChildNodesEv to i8*), i8* bitcast (%"class.xercesc_2_7::DOMNode"* (%"class.xercesc_2_7::DOMCDATASectionImpl"*)* @_ZNK11xercesc_2_719DOMCDATASectionImpl13getFirstChildEv to i8*), i8* bitcast (%"class.xercesc_2_7::DOMNode"* (%"class.xercesc_2_7::DOMCDATASectionImpl"*)* @_ZNK11xercesc_2_719DOMCDATASectionImpl12getLastChildEv to i8*), i8* bitcast (%"class.xercesc_2_7::DOMNode"* (%"class.xercesc_2_7::DOMCDATASectionImpl"*)* @_ZNK11xercesc_2_719DOMCDATASectionImpl18getPreviousSiblingEv to i8*), i8* bitcast (%"class.xercesc_2_7::DOMNode"* (%"class.xercesc_2_7::DOMCDATASectionImpl"*)* @_ZNK11xercesc_2_719DOMCDATASectionImpl14getNextSiblingEv to i8*), i8* bitcast (%"class.xercesc_2_7::DOMNamedNodeMap"* (%"class.xercesc_2_7::DOMCDATASectionImpl"*)* @_ZNK11xercesc_2_719DOMCDATASectionImpl13getAttributesEv to i8*), i8* bitcast (%"class.xercesc_2_7::DOMDocument"* (%"class.xercesc_2_7::DOMCDATASectionImpl"*)* @_ZNK11xercesc_2_719DOMCDATASectionImpl16getOwnerDocumentEv to i8*), i8* bitcast (%"class.xercesc_2_7::DOMNode"* (%"class.xercesc_2_7::DOMCDATASectionImpl"*, i1)* @_ZNK11xercesc_2_719DOMCDATASectionImpl9cloneNodeEb to i8*), i8* bitcast (%"class.xercesc_2_7::DOMNode"* (%"class.xercesc_2_7::DOMCDATASectionImpl"*, %"class.xercesc_2_7::DOMNode"*, %"class.xercesc_2_7::DOMNode"*)* @_ZN11xercesc_2_719DOMCDATASectionImpl12insertBeforeEPNS_7DOMNodeES2_ to i8*), i8* bitcast (%"class.xercesc_2_7::DOMNode"* (%"class.xercesc_2_7::DOMCDATASectionImpl"*, %"class.xercesc_2_7::DOMNode"*, %"class.xercesc_2_7::DOMNode"*)* @_ZN11xercesc_2_719DOMCDATASectionImpl12replaceChildEPNS_7DOMNodeES2_ to i8*), i8* bitcast (%"class.xercesc_2_7::DOMNode"* (%"class.xercesc_2_7::DOMCDATASectionImpl"*, %"class.xercesc_2_7::DOMNode"*)* @_ZN11xercesc_2_719DOMCDATASectionImpl11removeChildEPNS_7DOMNodeE to i8*), i8* bitcast (%"class.xercesc_2_7::DOMNode"* (%"class.xercesc_2_7::DOMCDATASectionImpl"*, %"class.xercesc_2_7::DOMNode"*)* @_ZN11xercesc_2_719DOMCDATASectionImpl11appendChildEPNS_7DOMNodeE to i8*), i8* bitcast (i1 (%"class.xercesc_2_7::DOMCDATASectionImpl"*)* @_ZNK11xercesc_2_719DOMCDATASectionImpl13hasChildNodesEv to i8*), i8* bitcast (void (%"class.xercesc_2_7::DOMCDATASectionImpl"*, i16*)* @_ZN11xercesc_2_719DOMCDATASectionImpl12setNodeValueEPKt to i8*), i8* bitcast (void (%"class.xercesc_2_7::DOMCDATASectionImpl"*)* @_ZN11xercesc_2_719DOMCDATASectionImpl9normalizeEv to i8*), i8* bitcast (i1 (%"class.xercesc_2_7::DOMCDATASectionImpl"*, i16*, i16*)* @_ZNK11xercesc_2_719DOMCDATASectionImpl11isSupportedEPKtS2_ to i8*), i8* bitcast (i16* (%"class.xercesc_2_7::DOMCDATASectionImpl"*)* @_ZNK11xercesc_2_719DOMCDATASectionImpl15getNamespaceURIEv to i8*), i8* bitcast (i16* (%"class.xercesc_2_7::DOMCDATASectionImpl"*)* @_ZNK11xercesc_2_719DOMCDATASectionImpl9getPrefixEv to i8*), i8* bitcast (i16* (%"class.xercesc_2_7::DOMCDATASectionImpl"*)* @_ZNK11xercesc_2_719DOMCDATASectionImpl12getLocalNameEv to i8*), i8* bitcast (void (%"class.xercesc_2_7::DOMCDATASectionImpl"*, i16*)* @_ZN11xercesc_2_719DOMCDATASectionImpl9setPrefixEPKt to i8*), i8* bitcast (i1 (%"class.xercesc_2_7::DOMCDATASectionImpl"*)* @_ZNK11xercesc_2_719DOMCDATASectionImpl13hasAttributesEv to i8*), i8* bitcast (i1 (%"class.xercesc_2_7::DOMCDATASectionImpl"*, %"class.xercesc_2_7::DOMNode"*)* @_ZNK11xercesc_2_719DOMCDATASectionImpl10isSameNodeEPKNS_7DOMNodeE to i8*), i8* bitcast (i1 (%"class.xercesc_2_7::DOMCDATASectionImpl"*, %"class.xercesc_2_7::DOMNode"*)* @_ZNK11xercesc_2_719DOMCDATASectionImpl11isEqualNodeEPKNS_7DOMNodeE to i8*), i8* bitcast (i8* (%"class.xercesc_2_7::DOMCDATASectionImpl"*, i16*, i8*, %"class.xercesc_2_7::DOMUserDataHandler"*)* @_ZN11xercesc_2_719DOMCDATASectionImpl11setUserDataEPKtPvPNS_18DOMUserDataHandlerE to i8*), i8* bitcast (i8* (%"class.xercesc_2_7::DOMCDATASectionImpl"*, i16*)* @_ZNK11xercesc_2_719DOMCDATASectionImpl11getUserDataEPKt to i8*), i8* bitcast (i16* (%"class.xercesc_2_7::DOMCDATASectionImpl"*)* @_ZNK11xercesc_2_719DOMCDATASectionImpl10getBaseURIEv to i8*), i8* bitcast (i16 (%"class.xercesc_2_7::DOMCDATASectionImpl"*, %"class.xercesc_2_7::DOMNode"*)* @_ZNK11xercesc_2_719DOMCDATASectionImpl19compareTreePositionEPKNS_7DOMNodeE to i8*), i8* bitcast (i16* (%"class.xercesc_2_7::DOMCDATASectionImpl"*)* @_ZNK11xercesc_2_719DOMCDATASectionImpl14getTextContentEv to i8*), i8* bitcast (void (%"class.xercesc_2_7::DOMCDATASectionImpl"*, i16*)* @_ZN11xercesc_2_719DOMCDATASectionImpl14setTextContentEPKt to i8*), i8* bitcast (i16* (%"class.xercesc_2_7::DOMCDATASectionImpl"*, i16*, i1)* @_ZNK11xercesc_2_719DOMCDATASectionImpl21lookupNamespacePrefixEPKtb to i8*), i8* bitcast (i1 (%"class.xercesc_2_7::DOMCDATASectionImpl"*, i16*)* @_ZNK11xercesc_2_719DOMCDATASectionImpl18isDefaultNamespaceEPKt to i8*), i8* bitcast (i16* (%"class.xercesc_2_7::DOMCDATASectionImpl"*, i16*)* @_ZNK11xercesc_2_719DOMCDATASectionImpl18lookupNamespaceURIEPKt to i8*), i8* bitcast (%"class.xercesc_2_7::DOMNode"* (%"class.xercesc_2_7::DOMCDATASectionImpl"*, i16*)* @_ZN11xercesc_2_719DOMCDATASectionImpl12getInterfaceEPKt to i8*), i8* bitcast (void (%"class.xercesc_2_7::DOMCDATASectionImpl"*)* @_ZN11xercesc_2_719DOMCDATASectionImpl7releaseEv to i8*), i8* bitcast (i16* (%"class.xercesc_2_7::DOMCDATASectionImpl"*)* @_ZNK11xercesc_2_719DOMCDATASectionImpl7getDataEv to i8*), i8* bitcast (i64 (%"class.xercesc_2_7::DOMCDATASectionImpl"*)* @_ZNK11xercesc_2_719DOMCDATASectionImpl9getLengthEv to i8*), i8* bitcast (i16* (%"class.xercesc_2_7::DOMCDATASectionImpl"*, i64, i64)* @_ZNK11xercesc_2_719DOMCDATASectionImpl13substringDataEmm to i8*), i8* bitcast (void (%"class.xercesc_2_7::DOMCDATASectionImpl"*, i16*)* @_ZN11xercesc_2_719DOMCDATASectionImpl10appendDataEPKt to i8*), i8* bitcast (void (%"class.xercesc_2_7::DOMCDATASectionImpl"*, i64, i16*)* @_ZN11xercesc_2_719DOMCDATASectionImpl10insertDataEmPKt to i8*), i8* bitcast (void (%"class.xercesc_2_7::DOMCDATASectionImpl"*, i64, i64)* @_ZN11xercesc_2_719DOMCDATASectionImpl10deleteDataEmm to i8*), i8* bitcast (void (%"class.xercesc_2_7::DOMCDATASectionImpl"*, i64, i64, i16*)* @_ZN11xercesc_2_719DOMCDATASectionImpl11replaceDataEmmPKt to i8*), i8* bitcast (void (%"class.xercesc_2_7::DOMCDATASectionImpl"*, i16*)* @_ZN11xercesc_2_719DOMCDATASectionImpl7setDataEPKt to i8*), i8* bitcast (%"class.xercesc_2_7::DOMText"* (%"class.xercesc_2_7::DOMCDATASectionImpl"*, i64)* @_ZN11xercesc_2_719DOMCDATASectionImpl9splitTextEm to i8*), i8* bitcast (i1 (%"class.xercesc_2_7::DOMCDATASectionImpl"*)* @_ZNK11xercesc_2_719DOMCDATASectionImpl31getIsWhitespaceInElementContentEv to i8*), i8* bitcast (i16* (%"class.xercesc_2_7::DOMCDATASectionImpl"*)* @_ZN11xercesc_2_719DOMCDATASectionImpl12getWholeTextEv to i8*), i8* bitcast (%"class.xercesc_2_7::DOMText"* (%"class.xercesc_2_7::DOMCDATASectionImpl"*, i16*)* @_ZN11xercesc_2_719DOMCDATASectionImpl16replaceWholeTextEPKt to i8*), i8* bitcast (i1 (%"class.xercesc_2_7::DOMCDATASectionImpl"*)* @_ZNK11xercesc_2_719DOMCDATASectionImpl21isIgnorableWhitespaceEv to i8*)] }, align 8
@_ZZNK11xercesc_2_719DOMCDATASectionImpl11getNodeNameEvE14gcdata_section = internal constant [15 x i16] [i16 35, i16 99, i16 100, i16 97, i16 116, i16 97, i16 45, i16 115, i16 101, i16 99, i16 116, i16 105, i16 111, i16 110, i16 0], align 16, !dbg !0
@_ZN11xercesc_2_716XMLPlatformUtils15fgMemoryManagerE = external dso_local global %"class.xercesc_2_7::MemoryManager"*, align 8
@_ZTIN11xercesc_2_712DOMExceptionE = external dso_local constant i8*
@_ZTVN11xercesc_2_710XMLDeleterE = linkonce_odr dso_local unnamed_addr constant { [4 x i8*] } { [4 x i8*] [i8* null, i8* bitcast ({ i8*, i8* }* @_ZTIN11xercesc_2_710XMLDeleterE to i8*), i8* bitcast (void (%"class.xercesc_2_7::XMLDeleter"*)* @_ZN11xercesc_2_710XMLDeleterD2Ev to i8*), i8* bitcast (void (%"class.xercesc_2_7::XMLDeleter"*)* @_ZN11xercesc_2_710XMLDeleterD0Ev to i8*)] }, comdat, align 8
@_ZTVN10__cxxabiv117__class_type_infoE = external dso_local global i8*
@_ZTSN11xercesc_2_710XMLDeleterE = linkonce_odr dso_local constant [28 x i8] c"N11xercesc_2_710XMLDeleterE\00", comdat, align 1
@_ZTIN11xercesc_2_710XMLDeleterE = linkonce_odr dso_local constant { i8*, i8* } { i8* bitcast (i8** getelementptr inbounds (i8*, i8** @_ZTVN10__cxxabiv117__class_type_infoE, i64 2) to i8*), i8* getelementptr inbounds ([28 x i8], [28 x i8]* @_ZTSN11xercesc_2_710XMLDeleterE, i32 0, i32 0) }, comdat, align 8
@_ZTVN10__cxxabiv120__si_class_type_infoE = external dso_local global i8*
@_ZTSN11xercesc_2_719DOMCDATASectionImplE = dso_local constant [37 x i8] c"N11xercesc_2_719DOMCDATASectionImplE\00", align 1
@_ZTSN11xercesc_2_715DOMCDATASectionE = linkonce_odr dso_local constant [33 x i8] c"N11xercesc_2_715DOMCDATASectionE\00", comdat, align 1
@_ZTSN11xercesc_2_77DOMTextE = linkonce_odr dso_local constant [24 x i8] c"N11xercesc_2_77DOMTextE\00", comdat, align 1
@_ZTSN11xercesc_2_716DOMCharacterDataE = linkonce_odr dso_local constant [34 x i8] c"N11xercesc_2_716DOMCharacterDataE\00", comdat, align 1
@_ZTSN11xercesc_2_77DOMNodeE = linkonce_odr dso_local constant [24 x i8] c"N11xercesc_2_77DOMNodeE\00", comdat, align 1
@_ZTIN11xercesc_2_77DOMNodeE = linkonce_odr dso_local constant { i8*, i8* } { i8* bitcast (i8** getelementptr inbounds (i8*, i8** @_ZTVN10__cxxabiv117__class_type_infoE, i64 2) to i8*), i8* getelementptr inbounds ([24 x i8], [24 x i8]* @_ZTSN11xercesc_2_77DOMNodeE, i32 0, i32 0) }, comdat, align 8
@_ZTIN11xercesc_2_716DOMCharacterDataE = linkonce_odr dso_local constant { i8*, i8*, i8* } { i8* bitcast (i8** getelementptr inbounds (i8*, i8** @_ZTVN10__cxxabiv120__si_class_type_infoE, i64 2) to i8*), i8* getelementptr inbounds ([34 x i8], [34 x i8]* @_ZTSN11xercesc_2_716DOMCharacterDataE, i32 0, i32 0), i8* bitcast ({ i8*, i8* }* @_ZTIN11xercesc_2_77DOMNodeE to i8*) }, comdat, align 8
@_ZTIN11xercesc_2_77DOMTextE = linkonce_odr dso_local constant { i8*, i8*, i8* } { i8* bitcast (i8** getelementptr inbounds (i8*, i8** @_ZTVN10__cxxabiv120__si_class_type_infoE, i64 2) to i8*), i8* getelementptr inbounds ([24 x i8], [24 x i8]* @_ZTSN11xercesc_2_77DOMTextE, i32 0, i32 0), i8* bitcast ({ i8*, i8*, i8* }* @_ZTIN11xercesc_2_716DOMCharacterDataE to i8*) }, comdat, align 8
@_ZTIN11xercesc_2_715DOMCDATASectionE = linkonce_odr dso_local constant { i8*, i8*, i8* } { i8* bitcast (i8** getelementptr inbounds (i8*, i8** @_ZTVN10__cxxabiv120__si_class_type_infoE, i64 2) to i8*), i8* getelementptr inbounds ([33 x i8], [33 x i8]* @_ZTSN11xercesc_2_715DOMCDATASectionE, i32 0, i32 0), i8* bitcast ({ i8*, i8*, i8* }* @_ZTIN11xercesc_2_77DOMTextE to i8*) }, comdat, align 8
@_ZTIN11xercesc_2_719DOMCDATASectionImplE = dso_local constant { i8*, i8*, i8* } { i8* bitcast (i8** getelementptr inbounds (i8*, i8** @_ZTVN10__cxxabiv120__si_class_type_infoE, i64 2) to i8*), i8* getelementptr inbounds ([37 x i8], [37 x i8]* @_ZTSN11xercesc_2_719DOMCDATASectionImplE, i32 0, i32 0), i8* bitcast ({ i8*, i8*, i8* }* @_ZTIN11xercesc_2_715DOMCDATASectionE to i8*) }, align 8
@_ZTVN11xercesc_2_715DOMCDATASectionE = linkonce_odr dso_local unnamed_addr constant { [55 x i8*] } { [55 x i8*] [i8* null, i8* bitcast ({ i8*, i8*, i8* }* @_ZTIN11xercesc_2_715DOMCDATASectionE to i8*), i8* bitcast (void (%"class.xercesc_2_7::DOMCDATASection"*)* @_ZN11xercesc_2_715DOMCDATASectionD2Ev to i8*), i8* bitcast (void (%"class.xercesc_2_7::DOMCDATASection"*)* @_ZN11xercesc_2_715DOMCDATASectionD0Ev to i8*), i8* bitcast (void ()* @__cxa_pure_virtual to i8*), i8* bitcast (void ()* @__cxa_pure_virtual to i8*), i8* bitcast (void ()* @__cxa_pure_virtual to i8*), i8* bitcast (void ()* @__cxa_pure_virtual to i8*), i8* bitcast (void ()* @__cxa_pure_virtual to i8*), i8* bitcast (void ()* @__cxa_pure_virtual to i8*), i8* bitcast (void ()* @__cxa_pure_virtual to i8*), i8* bitcast (void ()* @__cxa_pure_virtual to i8*), i8* bitcast (void ()* @__cxa_pure_virtual to i8*), i8* bitcast (void ()* @__cxa_pure_virtual to i8*), i8* bitcast (void ()* @__cxa_pure_virtual to i8*), i8* bitcast (void ()* @__cxa_pure_virtual to i8*), i8* bitcast (void ()* @__cxa_pure_virtual to i8*), i8* bitcast (void ()* @__cxa_pure_virtual to i8*), i8* bitcast (void ()* @__cxa_pure_virtual to i8*), i8* bitcast (void ()* @__cxa_pure_virtual to i8*), i8* bitcast (void ()* @__cxa_pure_virtual to i8*), i8* bitcast (void ()* @__cxa_pure_virtual to i8*), i8* bitcast (void ()* @__cxa_pure_virtual to i8*), i8* bitcast (void ()* @__cxa_pure_virtual to i8*), i8* bitcast (void ()* @__cxa_pure_virtual to i8*), i8* bitcast (void ()* @__cxa_pure_virtual to i8*), i8* bitcast (void ()* @__cxa_pure_virtual to i8*), i8* bitcast (void ()* @__cxa_pure_virtual to i8*), i8* bitcast (void ()* @__cxa_pure_virtual to i8*), i8* bitcast (void ()* @__cxa_pure_virtual to i8*), i8* bitcast (void ()* @__cxa_pure_virtual to i8*), i8* bitcast (void ()* @__cxa_pure_virtual to i8*), i8* bitcast (void ()* @__cxa_pure_virtual to i8*), i8* bitcast (void ()* @__cxa_pure_virtual to i8*), i8* bitcast (void ()* @__cxa_pure_virtual to i8*), i8* bitcast (void ()* @__cxa_pure_virtual to i8*), i8* bitcast (void ()* @__cxa_pure_virtual to i8*), i8* bitcast (void ()* @__cxa_pure_virtual to i8*), i8* bitcast (void ()* @__cxa_pure_virtual to i8*), i8* bitcast (void ()* @__cxa_pure_virtual to i8*), i8* bitcast (void ()* @__cxa_pure_virtual to i8*), i8* bitcast (void ()* @__cxa_pure_virtual to i8*), i8* bitcast (void ()* @__cxa_pure_virtual to i8*), i8* bitcast (void ()* @__cxa_pure_virtual to i8*), i8* bitcast (void ()* @__cxa_pure_virtual to i8*), i8* bitcast (void ()* @__cxa_pure_virtual to i8*), i8* bitcast (void ()* @__cxa_pure_virtual to i8*), i8* bitcast (void ()* @__cxa_pure_virtual to i8*), i8* bitcast (void ()* @__cxa_pure_virtual to i8*), i8* bitcast (void ()* @__cxa_pure_virtual to i8*), i8* bitcast (void ()* @__cxa_pure_virtual to i8*), i8* bitcast (void ()* @__cxa_pure_virtual to i8*), i8* bitcast (void ()* @__cxa_pure_virtual to i8*), i8* bitcast (void ()* @__cxa_pure_virtual to i8*), i8* bitcast (void ()* @__cxa_pure_virtual to i8*)] }, comdat, align 8
@_ZTVN11xercesc_2_77DOMTextE = linkonce_odr dso_local unnamed_addr constant { [55 x i8*] } { [55 x i8*] [i8* null, i8* bitcast ({ i8*, i8*, i8* }* @_ZTIN11xercesc_2_77DOMTextE to i8*), i8* bitcast (void (%"class.xercesc_2_7::DOMText"*)* @_ZN11xercesc_2_77DOMTextD2Ev to i8*), i8* bitcast (void (%"class.xercesc_2_7::DOMText"*)* @_ZN11xercesc_2_77DOMTextD0Ev to i8*), i8* bitcast (void ()* @__cxa_pure_virtual to i8*), i8* bitcast (void ()* @__cxa_pure_virtual to i8*), i8* bitcast (void ()* @__cxa_pure_virtual to i8*), i8* bitcast (void ()* @__cxa_pure_virtual to i8*), i8* bitcast (void ()* @__cxa_pure_virtual to i8*), i8* bitcast (void ()* @__cxa_pure_virtual to i8*), i8* bitcast (void ()* @__cxa_pure_virtual to i8*), i8* bitcast (void ()* @__cxa_pure_virtual to i8*), i8* bitcast (void ()* @__cxa_pure_virtual to i8*), i8* bitcast (void ()* @__cxa_pure_virtual to i8*), i8* bitcast (void ()* @__cxa_pure_virtual to i8*), i8* bitcast (void ()* @__cxa_pure_virtual to i8*), i8* bitcast (void ()* @__cxa_pure_virtual to i8*), i8* bitcast (void ()* @__cxa_pure_virtual to i8*), i8* bitcast (void ()* @__cxa_pure_virtual to i8*), i8* bitcast (void ()* @__cxa_pure_virtual to i8*), i8* bitcast (void ()* @__cxa_pure_virtual to i8*), i8* bitcast (void ()* @__cxa_pure_virtual to i8*), i8* bitcast (void ()* @__cxa_pure_virtual to i8*), i8* bitcast (void ()* @__cxa_pure_virtual to i8*), i8* bitcast (void ()* @__cxa_pure_virtual to i8*), i8* bitcast (void ()* @__cxa_pure_virtual to i8*), i8* bitcast (void ()* @__cxa_pure_virtual to i8*), i8* bitcast (void ()* @__cxa_pure_virtual to i8*), i8* bitcast (void ()* @__cxa_pure_virtual to i8*), i8* bitcast (void ()* @__cxa_pure_virtual to i8*), i8* bitcast (void ()* @__cxa_pure_virtual to i8*), i8* bitcast (void ()* @__cxa_pure_virtual to i8*), i8* bitcast (void ()* @__cxa_pure_virtual to i8*), i8* bitcast (void ()* @__cxa_pure_virtual to i8*), i8* bitcast (void ()* @__cxa_pure_virtual to i8*), i8* bitcast (void ()* @__cxa_pure_virtual to i8*), i8* bitcast (void ()* @__cxa_pure_virtual to i8*), i8* bitcast (void ()* @__cxa_pure_virtual to i8*), i8* bitcast (void ()* @__cxa_pure_virtual to i8*), i8* bitcast (void ()* @__cxa_pure_virtual to i8*), i8* bitcast (void ()* @__cxa_pure_virtual to i8*), i8* bitcast (void ()* @__cxa_pure_virtual to i8*), i8* bitcast (void ()* @__cxa_pure_virtual to i8*), i8* bitcast (void ()* @__cxa_pure_virtual to i8*), i8* bitcast (void ()* @__cxa_pure_virtual to i8*), i8* bitcast (void ()* @__cxa_pure_virtual to i8*), i8* bitcast (void ()* @__cxa_pure_virtual to i8*), i8* bitcast (void ()* @__cxa_pure_virtual to i8*), i8* bitcast (void ()* @__cxa_pure_virtual to i8*), i8* bitcast (void ()* @__cxa_pure_virtual to i8*), i8* bitcast (void ()* @__cxa_pure_virtual to i8*), i8* bitcast (void ()* @__cxa_pure_virtual to i8*), i8* bitcast (void ()* @__cxa_pure_virtual to i8*), i8* bitcast (void ()* @__cxa_pure_virtual to i8*), i8* bitcast (void ()* @__cxa_pure_virtual to i8*)] }, comdat, align 8
@_ZTVN11xercesc_2_716DOMCharacterDataE = linkonce_odr dso_local unnamed_addr constant { [50 x i8*] } { [50 x i8*] [i8* null, i8* bitcast ({ i8*, i8*, i8* }* @_ZTIN11xercesc_2_716DOMCharacterDataE to i8*), i8* bitcast (void (%"class.xercesc_2_7::DOMCharacterData"*)* @_ZN11xercesc_2_716DOMCharacterDataD2Ev to i8*), i8* bitcast (void (%"class.xercesc_2_7::DOMCharacterData"*)* @_ZN11xercesc_2_716DOMCharacterDataD0Ev to i8*), i8* bitcast (void ()* @__cxa_pure_virtual to i8*), i8* bitcast (void ()* @__cxa_pure_virtual to i8*), i8* bitcast (void ()* @__cxa_pure_virtual to i8*), i8* bitcast (void ()* @__cxa_pure_virtual to i8*), i8* bitcast (void ()* @__cxa_pure_virtual to i8*), i8* bitcast (void ()* @__cxa_pure_virtual to i8*), i8* bitcast (void ()* @__cxa_pure_virtual to i8*), i8* bitcast (void ()* @__cxa_pure_virtual to i8*), i8* bitcast (void ()* @__cxa_pure_virtual to i8*), i8* bitcast (void ()* @__cxa_pure_virtual to i8*), i8* bitcast (void ()* @__cxa_pure_virtual to i8*), i8* bitcast (void ()* @__cxa_pure_virtual to i8*), i8* bitcast (void ()* @__cxa_pure_virtual to i8*), i8* bitcast (void ()* @__cxa_pure_virtual to i8*), i8* bitcast (void ()* @__cxa_pure_virtual to i8*), i8* bitcast (void ()* @__cxa_pure_virtual to i8*), i8* bitcast (void ()* @__cxa_pure_virtual to i8*), i8* bitcast (void ()* @__cxa_pure_virtual to i8*), i8* bitcast (void ()* @__cxa_pure_virtual to i8*), i8* bitcast (void ()* @__cxa_pure_virtual to i8*), i8* bitcast (void ()* @__cxa_pure_virtual to i8*), i8* bitcast (void ()* @__cxa_pure_virtual to i8*), i8* bitcast (void ()* @__cxa_pure_virtual to i8*), i8* bitcast (void ()* @__cxa_pure_virtual to i8*), i8* bitcast (void ()* @__cxa_pure_virtual to i8*), i8* bitcast (void ()* @__cxa_pure_virtual to i8*), i8* bitcast (void ()* @__cxa_pure_virtual to i8*), i8* bitcast (void ()* @__cxa_pure_virtual to i8*), i8* bitcast (void ()* @__cxa_pure_virtual to i8*), i8* bitcast (void ()* @__cxa_pure_virtual to i8*), i8* bitcast (void ()* @__cxa_pure_virtual to i8*), i8* bitcast (void ()* @__cxa_pure_virtual to i8*), i8* bitcast (void ()* @__cxa_pure_virtual to i8*), i8* bitcast (void ()* @__cxa_pure_virtual to i8*), i8* bitcast (void ()* @__cxa_pure_virtual to i8*), i8* bitcast (void ()* @__cxa_pure_virtual to i8*), i8* bitcast (void ()* @__cxa_pure_virtual to i8*), i8* bitcast (void ()* @__cxa_pure_virtual to i8*), i8* bitcast (void ()* @__cxa_pure_virtual to i8*), i8* bitcast (void ()* @__cxa_pure_virtual to i8*), i8* bitcast (void ()* @__cxa_pure_virtual to i8*), i8* bitcast (void ()* @__cxa_pure_virtual to i8*), i8* bitcast (void ()* @__cxa_pure_virtual to i8*), i8* bitcast (void ()* @__cxa_pure_virtual to i8*), i8* bitcast (void ()* @__cxa_pure_virtual to i8*), i8* bitcast (void ()* @__cxa_pure_virtual to i8*)] }, comdat, align 8
@_ZTVN11xercesc_2_77DOMNodeE = linkonce_odr dso_local unnamed_addr constant { [42 x i8*] } { [42 x i8*] [i8* null, i8* bitcast ({ i8*, i8* }* @_ZTIN11xercesc_2_77DOMNodeE to i8*), i8* bitcast (void (%"class.xercesc_2_7::DOMNode"*)* @_ZN11xercesc_2_77DOMNodeD2Ev to i8*), i8* bitcast (void (%"class.xercesc_2_7::DOMNode"*)* @_ZN11xercesc_2_77DOMNodeD0Ev to i8*), i8* bitcast (void ()* @__cxa_pure_virtual to i8*), i8* bitcast (void ()* @__cxa_pure_virtual to i8*), i8* bitcast (void ()* @__cxa_pure_virtual to i8*), i8* bitcast (void ()* @__cxa_pure_virtual to i8*), i8* bitcast (void ()* @__cxa_pure_virtual to i8*), i8* bitcast (void ()* @__cxa_pure_virtual to i8*), i8* bitcast (void ()* @__cxa_pure_virtual to i8*), i8* bitcast (void ()* @__cxa_pure_virtual to i8*), i8* bitcast (void ()* @__cxa_pure_virtual to i8*), i8* bitcast (void ()* @__cxa_pure_virtual to i8*), i8* bitcast (void ()* @__cxa_pure_virtual to i8*), i8* bitcast (void ()* @__cxa_pure_virtual to i8*), i8* bitcast (void ()* @__cxa_pure_virtual to i8*), i8* bitcast (void ()* @__cxa_pure_virtual to i8*), i8* bitcast (void ()* @__cxa_pure_virtual to i8*), i8* bitcast (void ()* @__cxa_pure_virtual to i8*), i8* bitcast (void ()* @__cxa_pure_virtual to i8*), i8* bitcast (void ()* @__cxa_pure_virtual to i8*), i8* bitcast (void ()* @__cxa_pure_virtual to i8*), i8* bitcast (void ()* @__cxa_pure_virtual to i8*), i8* bitcast (void ()* @__cxa_pure_virtual to i8*), i8* bitcast (void ()* @__cxa_pure_virtual to i8*), i8* bitcast (void ()* @__cxa_pure_virtual to i8*), i8* bitcast (void ()* @__cxa_pure_virtual to i8*), i8* bitcast (void ()* @__cxa_pure_virtual to i8*), i8* bitcast (void ()* @__cxa_pure_virtual to i8*), i8* bitcast (void ()* @__cxa_pure_virtual to i8*), i8* bitcast (void ()* @__cxa_pure_virtual to i8*), i8* bitcast (void ()* @__cxa_pure_virtual to i8*), i8* bitcast (void ()* @__cxa_pure_virtual to i8*), i8* bitcast (void ()* @__cxa_pure_virtual to i8*), i8* bitcast (void ()* @__cxa_pure_virtual to i8*), i8* bitcast (void ()* @__cxa_pure_virtual to i8*), i8* bitcast (void ()* @__cxa_pure_virtual to i8*), i8* bitcast (void ()* @__cxa_pure_virtual to i8*), i8* bitcast (void ()* @__cxa_pure_virtual to i8*), i8* bitcast (void ()* @__cxa_pure_virtual to i8*), i8* bitcast (void ()* @__cxa_pure_virtual to i8*)] }, comdat, align 8
@_ZN11xercesc_2_711DOMNodeImpl12LEAFNODETYPEE = external dso_local constant i16, align 2
@_ZN11xercesc_2_711DOMNodeImpl11IGNORABLEWSE = external dso_local constant i16, align 2
@_ZN11xercesc_2_711DOMNodeImpl8READONLYE = external dso_local constant i16, align 2
@_ZN11xercesc_2_711DOMNodeImpl5OWNEDE = external dso_local constant i16, align 2
@_ZN11xercesc_2_711DOMNodeImpl12TOBERELEASEDE = external dso_local constant i16, align 2
@.str = private unnamed_addr constant [33 x i8] c"./xercesc/util/BaseRefVectorOf.c\00", align 1
@_ZTSN11xercesc_2_730ArrayIndexOutOfBoundsExceptionE = linkonce_odr dso_local constant [48 x i8] c"N11xercesc_2_730ArrayIndexOutOfBoundsExceptionE\00", comdat, align 1
@_ZTIN11xercesc_2_712XMLExceptionE = external dso_local constant i8*
@_ZTIN11xercesc_2_730ArrayIndexOutOfBoundsExceptionE = linkonce_odr dso_local constant { i8*, i8*, i8* } { i8* bitcast (i8** getelementptr inbounds (i8*, i8** @_ZTVN10__cxxabiv120__si_class_type_infoE, i64 2) to i8*), i8* getelementptr inbounds ([48 x i8], [48 x i8]* @_ZTSN11xercesc_2_730ArrayIndexOutOfBoundsExceptionE, i32 0, i32 0), i8* bitcast (i8** @_ZTIN11xercesc_2_712XMLExceptionE to i8*) }, comdat, align 8
@_ZTVN11xercesc_2_730ArrayIndexOutOfBoundsExceptionE = linkonce_odr dso_local unnamed_addr constant { [6 x i8*] } { [6 x i8*] [i8* null, i8* bitcast ({ i8*, i8*, i8* }* @_ZTIN11xercesc_2_730ArrayIndexOutOfBoundsExceptionE to i8*), i8* bitcast (void (%"class.xercesc_2_7::ArrayIndexOutOfBoundsException"*)* @_ZN11xercesc_2_730ArrayIndexOutOfBoundsExceptionD2Ev to i8*), i8* bitcast (void (%"class.xercesc_2_7::ArrayIndexOutOfBoundsException"*)* @_ZN11xercesc_2_730ArrayIndexOutOfBoundsExceptionD0Ev to i8*), i8* bitcast (i16* (%"class.xercesc_2_7::ArrayIndexOutOfBoundsException"*)* @_ZNK11xercesc_2_730ArrayIndexOutOfBoundsException7getTypeEv to i8*), i8* bitcast (%"class.xercesc_2_7::XMLException"* (%"class.xercesc_2_7::ArrayIndexOutOfBoundsException"*)* @_ZNK11xercesc_2_730ArrayIndexOutOfBoundsException9duplicateEv to i8*)] }, comdat, align 8
@_ZN11xercesc_2_76XMLUni37fgArrayIndexOutOfBoundsException_NameE = external dso_local constant [0 x i16], align 2

@_ZN11xercesc_2_719DOMCDATASectionImplC1EPNS_11DOMDocumentEPKt = dso_local unnamed_addr alias void (%"class.xercesc_2_7::DOMCDATASectionImpl"*, %"class.xercesc_2_7::DOMDocument"*, i16*), void (%"class.xercesc_2_7::DOMCDATASectionImpl"*, %"class.xercesc_2_7::DOMDocument"*, i16*)* @_ZN11xercesc_2_719DOMCDATASectionImplC2EPNS_11DOMDocumentEPKt
@_ZN11xercesc_2_719DOMCDATASectionImplC1ERKS0_b = dso_local unnamed_addr alias void (%"class.xercesc_2_7::DOMCDATASectionImpl"*, %"class.xercesc_2_7::DOMCDATASectionImpl"*, i1), void (%"class.xercesc_2_7::DOMCDATASectionImpl"*, %"class.xercesc_2_7::DOMCDATASectionImpl"*, i1)* @_ZN11xercesc_2_719DOMCDATASectionImplC2ERKS0_b
@_ZN11xercesc_2_719DOMCDATASectionImplD1Ev = dso_local unnamed_addr alias void (%"class.xercesc_2_7::DOMCDATASectionImpl"*), void (%"class.xercesc_2_7::DOMCDATASectionImpl"*)* @_ZN11xercesc_2_719DOMCDATASectionImplD2Ev

; Function Attrs: nounwind readnone speculatable willreturn
declare void @llvm.dbg.declare(metadata, metadata, metadata) #0

; Function Attrs: noinline nounwind uwtable
define linkonce_odr dso_local void @_ZN11xercesc_2_710XMLDeleterD0Ev(%"class.xercesc_2_7::XMLDeleter"* %this) unnamed_addr #1 comdat align 2 !dbg !1591 {
entry:
  %this.addr = alloca %"class.xercesc_2_7::XMLDeleter"*, align 8
  store %"class.xercesc_2_7::XMLDeleter"* %this, %"class.xercesc_2_7::XMLDeleter"** %this.addr, align 8
  call void @llvm.dbg.declare(metadata %"class.xercesc_2_7::XMLDeleter"** %this.addr, metadata !1610, metadata !DIExpression()), !dbg !1612
  %this1 = load %"class.xercesc_2_7::XMLDeleter"*, %"class.xercesc_2_7::XMLDeleter"** %this.addr, align 8
  call void @_ZN11xercesc_2_710XMLDeleterD2Ev(%"class.xercesc_2_7::XMLDeleter"* %this1) #7, !dbg !1613
  %0 = bitcast %"class.xercesc_2_7::XMLDeleter"* %this1 to i8*, !dbg !1613
  call void @_ZdlPv(i8* %0) #8, !dbg !1613
  ret void, !dbg !1614
}

; Function Attrs: noinline nounwind uwtable
define linkonce_odr dso_local void @_ZN11xercesc_2_710XMLDeleterD2Ev(%"class.xercesc_2_7::XMLDeleter"* %this) unnamed_addr #1 comdat align 2 !dbg !1615 {
entry:
  %this.addr = alloca %"class.xercesc_2_7::XMLDeleter"*, align 8
  store %"class.xercesc_2_7::XMLDeleter"* %this, %"class.xercesc_2_7::XMLDeleter"** %this.addr, align 8
  call void @llvm.dbg.declare(metadata %"class.xercesc_2_7::XMLDeleter"** %this.addr, metadata !1616, metadata !DIExpression()), !dbg !1617
  %this1 = load %"class.xercesc_2_7::XMLDeleter"*, %"class.xercesc_2_7::XMLDeleter"** %this.addr, align 8
  ret void, !dbg !1618
}

; Function Attrs: nobuiltin nounwind
declare dso_local void @_ZdlPv(i8*) #2

; Function Attrs: noinline uwtable
define dso_local void @_ZN11xercesc_2_719DOMCDATASectionImplC2EPNS_11DOMDocumentEPKt(%"class.xercesc_2_7::DOMCDATASectionImpl"* %this, %"class.xercesc_2_7::DOMDocument"* %ownerDoc, i16* %dat) unnamed_addr #3 align 2 personality i8* bitcast (i32 (...)* @__gxx_personality_v0 to i8*) !dbg !1619 {
entry:
  %this.addr = alloca %"class.xercesc_2_7::DOMCDATASectionImpl"*, align 8
  %ownerDoc.addr = alloca %"class.xercesc_2_7::DOMDocument"*, align 8
  %dat.addr = alloca i16*, align 8
  %exn.slot = alloca i8*
  %ehselector.slot = alloca i32
  store %"class.xercesc_2_7::DOMCDATASectionImpl"* %this, %"class.xercesc_2_7::DOMCDATASectionImpl"** %this.addr, align 8
  call void @llvm.dbg.declare(metadata %"class.xercesc_2_7::DOMCDATASectionImpl"** %this.addr, metadata !1620, metadata !DIExpression()), !dbg !1622
  store %"class.xercesc_2_7::DOMDocument"* %ownerDoc, %"class.xercesc_2_7::DOMDocument"** %ownerDoc.addr, align 8
  call void @llvm.dbg.declare(metadata %"class.xercesc_2_7::DOMDocument"** %ownerDoc.addr, metadata !1623, metadata !DIExpression()), !dbg !1624
  store i16* %dat, i16** %dat.addr, align 8
  call void @llvm.dbg.declare(metadata i16** %dat.addr, metadata !1625, metadata !DIExpression()), !dbg !1626
  %this1 = load %"class.xercesc_2_7::DOMCDATASectionImpl"*, %"class.xercesc_2_7::DOMCDATASectionImpl"** %this.addr, align 8
  %0 = bitcast %"class.xercesc_2_7::DOMCDATASectionImpl"* %this1 to %"class.xercesc_2_7::DOMCDATASection"*, !dbg !1627
  call void @_ZN11xercesc_2_715DOMCDATASectionC2Ev(%"class.xercesc_2_7::DOMCDATASection"* %0), !dbg !1628
  %1 = bitcast %"class.xercesc_2_7::DOMCDATASectionImpl"* %this1 to i32 (...)***, !dbg !1627
  store i32 (...)** bitcast (i8** getelementptr inbounds ({ [55 x i8*] }, { [55 x i8*] }* @_ZTVN11xercesc_2_719DOMCDATASectionImplE, i32 0, inrange i32 0, i32 2) to i32 (...)**), i32 (...)*** %1, align 8, !dbg !1627
  %fNode = getelementptr inbounds %"class.xercesc_2_7::DOMCDATASectionImpl", %"class.xercesc_2_7::DOMCDATASectionImpl"* %this1, i32 0, i32 1, !dbg !1629
  %2 = load %"class.xercesc_2_7::DOMDocument"*, %"class.xercesc_2_7::DOMDocument"** %ownerDoc.addr, align 8, !dbg !1630
  %3 = icmp eq %"class.xercesc_2_7::DOMDocument"* %2, null, !dbg !1630
  br i1 %3, label %cast.end, label %cast.notnull, !dbg !1630

cast.notnull:                                     ; preds = %entry
  %4 = bitcast %"class.xercesc_2_7::DOMDocument"* %2 to i8*, !dbg !1630
  %add.ptr = getelementptr inbounds i8, i8* %4, i64 24, !dbg !1630
  %5 = bitcast i8* %add.ptr to %"class.xercesc_2_7::DOMNode"*, !dbg !1630
  br label %cast.end, !dbg !1630

cast.end:                                         ; preds = %cast.notnull, %entry
  %cast.result = phi %"class.xercesc_2_7::DOMNode"* [ %5, %cast.notnull ], [ null, %entry ], !dbg !1630
  invoke void @_ZN11xercesc_2_711DOMNodeImplC1EPNS_7DOMNodeE(%"class.xercesc_2_7::DOMNodeImpl"* %fNode, %"class.xercesc_2_7::DOMNode"* %cast.result)
          to label %invoke.cont unwind label %lpad, !dbg !1629

invoke.cont:                                      ; preds = %cast.end
  %fParent = getelementptr inbounds %"class.xercesc_2_7::DOMCDATASectionImpl", %"class.xercesc_2_7::DOMCDATASectionImpl"* %this1, i32 0, i32 2, !dbg !1631
  %6 = load %"class.xercesc_2_7::DOMDocument"*, %"class.xercesc_2_7::DOMDocument"** %ownerDoc.addr, align 8, !dbg !1632
  invoke void @_ZN11xercesc_2_713DOMParentNodeC1EPNS_11DOMDocumentE(%"class.xercesc_2_7::DOMParentNode"* %fParent, %"class.xercesc_2_7::DOMDocument"* %6)
          to label %invoke.cont3 unwind label %lpad2, !dbg !1631

invoke.cont3:                                     ; preds = %invoke.cont
  %fChild = getelementptr inbounds %"class.xercesc_2_7::DOMCDATASectionImpl", %"class.xercesc_2_7::DOMCDATASectionImpl"* %this1, i32 0, i32 3, !dbg !1628
  invoke void @_ZN11xercesc_2_712DOMChildNodeC1Ev(%"class.xercesc_2_7::DOMChildNode"* %fChild)
          to label %invoke.cont5 unwind label %lpad4, !dbg !1628

invoke.cont5:                                     ; preds = %invoke.cont3
  %fCharacterData = getelementptr inbounds %"class.xercesc_2_7::DOMCDATASectionImpl", %"class.xercesc_2_7::DOMCDATASectionImpl"* %this1, i32 0, i32 4, !dbg !1633
  %7 = load %"class.xercesc_2_7::DOMDocument"*, %"class.xercesc_2_7::DOMDocument"** %ownerDoc.addr, align 8, !dbg !1634
  %8 = load i16*, i16** %dat.addr, align 8, !dbg !1635
  invoke void @_ZN11xercesc_2_720DOMCharacterDataImplC1EPNS_11DOMDocumentEPKt(%"class.xercesc_2_7::DOMCharacterDataImpl"* %fCharacterData, %"class.xercesc_2_7::DOMDocument"* %7, i16* %8)
          to label %invoke.cont7 unwind label %lpad6, !dbg !1633

invoke.cont7:                                     ; preds = %invoke.cont5
  ret void, !dbg !1636

lpad:                                             ; preds = %cast.end
  %9 = landingpad { i8*, i32 }
          cleanup, !dbg !1636
  %10 = extractvalue { i8*, i32 } %9, 0, !dbg !1636
  store i8* %10, i8** %exn.slot, align 8, !dbg !1636
  %11 = extractvalue { i8*, i32 } %9, 1, !dbg !1636
  store i32 %11, i32* %ehselector.slot, align 4, !dbg !1636
  br label %ehcleanup9, !dbg !1636

lpad2:                                            ; preds = %invoke.cont
  %12 = landingpad { i8*, i32 }
          cleanup, !dbg !1636
  %13 = extractvalue { i8*, i32 } %12, 0, !dbg !1636
  store i8* %13, i8** %exn.slot, align 8, !dbg !1636
  %14 = extractvalue { i8*, i32 } %12, 1, !dbg !1636
  store i32 %14, i32* %ehselector.slot, align 4, !dbg !1636
  br label %ehcleanup8, !dbg !1636

lpad4:                                            ; preds = %invoke.cont3
  %15 = landingpad { i8*, i32 }
          cleanup, !dbg !1636
  %16 = extractvalue { i8*, i32 } %15, 0, !dbg !1636
  store i8* %16, i8** %exn.slot, align 8, !dbg !1636
  %17 = extractvalue { i8*, i32 } %15, 1, !dbg !1636
  store i32 %17, i32* %ehselector.slot, align 4, !dbg !1636
  br label %ehcleanup, !dbg !1636

lpad6:                                            ; preds = %invoke.cont5
  %18 = landingpad { i8*, i32 }
          cleanup, !dbg !1636
  %19 = extractvalue { i8*, i32 } %18, 0, !dbg !1636
  store i8* %19, i8** %exn.slot, align 8, !dbg !1636
  %20 = extractvalue { i8*, i32 } %18, 1, !dbg !1636
  store i32 %20, i32* %ehselector.slot, align 4, !dbg !1636
  call void @_ZN11xercesc_2_712DOMChildNodeD1Ev(%"class.xercesc_2_7::DOMChildNode"* %fChild) #7, !dbg !1637
  br label %ehcleanup, !dbg !1637

ehcleanup:                                        ; preds = %lpad6, %lpad4
  call void @_ZN11xercesc_2_713DOMParentNodeD2Ev(%"class.xercesc_2_7::DOMParentNode"* %fParent) #7, !dbg !1637
  br label %ehcleanup8, !dbg !1637

ehcleanup8:                                       ; preds = %ehcleanup, %lpad2
  call void @_ZN11xercesc_2_711DOMNodeImplD1Ev(%"class.xercesc_2_7::DOMNodeImpl"* %fNode) #7, !dbg !1637
  br label %ehcleanup9, !dbg !1637

ehcleanup9:                                       ; preds = %ehcleanup8, %lpad
  %21 = bitcast %"class.xercesc_2_7::DOMCDATASectionImpl"* %this1 to %"class.xercesc_2_7::DOMCDATASection"*, !dbg !1637
  call void @_ZN11xercesc_2_715DOMCDATASectionD2Ev(%"class.xercesc_2_7::DOMCDATASection"* %21) #7, !dbg !1637
  br label %eh.resume, !dbg !1637

eh.resume:                                        ; preds = %ehcleanup9
  %exn = load i8*, i8** %exn.slot, align 8, !dbg !1637
  %sel = load i32, i32* %ehselector.slot, align 4, !dbg !1637
  %lpad.val = insertvalue { i8*, i32 } undef, i8* %exn, 0, !dbg !1637
  %lpad.val10 = insertvalue { i8*, i32 } %lpad.val, i32 %sel, 1, !dbg !1637
  resume { i8*, i32 } %lpad.val10, !dbg !1637
}

; Function Attrs: noinline uwtable
define linkonce_odr dso_local void @_ZN11xercesc_2_715DOMCDATASectionC2Ev(%"class.xercesc_2_7::DOMCDATASection"* %this) unnamed_addr #3 comdat align 2 !dbg !1639 {
entry:
  %this.addr = alloca %"class.xercesc_2_7::DOMCDATASection"*, align 8
  store %"class.xercesc_2_7::DOMCDATASection"* %this, %"class.xercesc_2_7::DOMCDATASection"** %this.addr, align 8
  call void @llvm.dbg.declare(metadata %"class.xercesc_2_7::DOMCDATASection"** %this.addr, metadata !1640, metadata !DIExpression()), !dbg !1642
  %this1 = load %"class.xercesc_2_7::DOMCDATASection"*, %"class.xercesc_2_7::DOMCDATASection"** %this.addr, align 8
  %0 = bitcast %"class.xercesc_2_7::DOMCDATASection"* %this1 to %"class.xercesc_2_7::DOMText"*, !dbg !1643
  call void @_ZN11xercesc_2_77DOMTextC2Ev(%"class.xercesc_2_7::DOMText"* %0), !dbg !1644
  %1 = bitcast %"class.xercesc_2_7::DOMCDATASection"* %this1 to i32 (...)***, !dbg !1643
  store i32 (...)** bitcast (i8** getelementptr inbounds ({ [55 x i8*] }, { [55 x i8*] }* @_ZTVN11xercesc_2_715DOMCDATASectionE, i32 0, inrange i32 0, i32 2) to i32 (...)**), i32 (...)*** %1, align 8, !dbg !1643
  ret void, !dbg !1645
}

declare dso_local void @_ZN11xercesc_2_711DOMNodeImplC1EPNS_7DOMNodeE(%"class.xercesc_2_7::DOMNodeImpl"*, %"class.xercesc_2_7::DOMNode"*) unnamed_addr #4

declare dso_local i32 @__gxx_personality_v0(...)

declare dso_local void @_ZN11xercesc_2_713DOMParentNodeC1EPNS_11DOMDocumentE(%"class.xercesc_2_7::DOMParentNode"*, %"class.xercesc_2_7::DOMDocument"*) unnamed_addr #4

declare dso_local void @_ZN11xercesc_2_712DOMChildNodeC1Ev(%"class.xercesc_2_7::DOMChildNode"*) unnamed_addr #4

declare dso_local void @_ZN11xercesc_2_720DOMCharacterDataImplC1EPNS_11DOMDocumentEPKt(%"class.xercesc_2_7::DOMCharacterDataImpl"*, %"class.xercesc_2_7::DOMDocument"*, i16*) unnamed_addr #4

; Function Attrs: nounwind
declare dso_local void @_ZN11xercesc_2_712DOMChildNodeD1Ev(%"class.xercesc_2_7::DOMChildNode"*) unnamed_addr #5

; Function Attrs: noinline nounwind uwtable
define linkonce_odr dso_local void @_ZN11xercesc_2_713DOMParentNodeD2Ev(%"class.xercesc_2_7::DOMParentNode"* %this) unnamed_addr #1 comdat align 2 !dbg !1646 {
entry:
  %this.addr = alloca %"class.xercesc_2_7::DOMParentNode"*, align 8
  store %"class.xercesc_2_7::DOMParentNode"* %this, %"class.xercesc_2_7::DOMParentNode"** %this.addr, align 8
  call void @llvm.dbg.declare(metadata %"class.xercesc_2_7::DOMParentNode"** %this.addr, metadata !1648, metadata !DIExpression()), !dbg !1650
  %this1 = load %"class.xercesc_2_7::DOMParentNode"*, %"class.xercesc_2_7::DOMParentNode"** %this.addr, align 8
  %fChildNodeList = getelementptr inbounds %"class.xercesc_2_7::DOMParentNode", %"class.xercesc_2_7::DOMParentNode"* %this1, i32 0, i32 2, !dbg !1651
  call void @_ZN11xercesc_2_715DOMNodeListImplD1Ev(%"class.xercesc_2_7::DOMNodeListImpl"* %fChildNodeList) #7, !dbg !1651
  ret void, !dbg !1653
}

; Function Attrs: nounwind
declare dso_local void @_ZN11xercesc_2_711DOMNodeImplD1Ev(%"class.xercesc_2_7::DOMNodeImpl"*) unnamed_addr #5

; Function Attrs: noinline uwtable
define dso_local void @_ZN11xercesc_2_719DOMCDATASectionImplC2ERKS0_b(%"class.xercesc_2_7::DOMCDATASectionImpl"* %this, %"class.xercesc_2_7::DOMCDATASectionImpl"* dereferenceable(88) %other, i1 zeroext %0) unnamed_addr #3 align 2 personality i8* bitcast (i32 (...)* @__gxx_personality_v0 to i8*) !dbg !1654 {
entry:
  %this.addr = alloca %"class.xercesc_2_7::DOMCDATASectionImpl"*, align 8
  %other.addr = alloca %"class.xercesc_2_7::DOMCDATASectionImpl"*, align 8
  %.addr = alloca i8, align 1
  %exn.slot = alloca i8*
  %ehselector.slot = alloca i32
  store %"class.xercesc_2_7::DOMCDATASectionImpl"* %this, %"class.xercesc_2_7::DOMCDATASectionImpl"** %this.addr, align 8
  call void @llvm.dbg.declare(metadata %"class.xercesc_2_7::DOMCDATASectionImpl"** %this.addr, metadata !1655, metadata !DIExpression()), !dbg !1656
  store %"class.xercesc_2_7::DOMCDATASectionImpl"* %other, %"class.xercesc_2_7::DOMCDATASectionImpl"** %other.addr, align 8
  call void @llvm.dbg.declare(metadata %"class.xercesc_2_7::DOMCDATASectionImpl"** %other.addr, metadata !1657, metadata !DIExpression()), !dbg !1658
  %frombool = zext i1 %0 to i8
  store i8 %frombool, i8* %.addr, align 1
  call void @llvm.dbg.declare(metadata i8* %.addr, metadata !1659, metadata !DIExpression()), !dbg !1660
  %this1 = load %"class.xercesc_2_7::DOMCDATASectionImpl"*, %"class.xercesc_2_7::DOMCDATASectionImpl"** %this.addr, align 8
  %1 = bitcast %"class.xercesc_2_7::DOMCDATASectionImpl"* %this1 to %"class.xercesc_2_7::DOMCDATASection"*, !dbg !1661
  %2 = load %"class.xercesc_2_7::DOMCDATASectionImpl"*, %"class.xercesc_2_7::DOMCDATASectionImpl"** %other.addr, align 8, !dbg !1662
  %3 = bitcast %"class.xercesc_2_7::DOMCDATASectionImpl"* %2 to %"class.xercesc_2_7::DOMCDATASection"*, !dbg !1662
  call void @_ZN11xercesc_2_715DOMCDATASectionC2ERKS0_(%"class.xercesc_2_7::DOMCDATASection"* %1, %"class.xercesc_2_7::DOMCDATASection"* dereferenceable(8) %3), !dbg !1663
  %4 = bitcast %"class.xercesc_2_7::DOMCDATASectionImpl"* %this1 to i32 (...)***, !dbg !1661
  store i32 (...)** bitcast (i8** getelementptr inbounds ({ [55 x i8*] }, { [55 x i8*] }* @_ZTVN11xercesc_2_719DOMCDATASectionImplE, i32 0, inrange i32 0, i32 2) to i32 (...)**), i32 (...)*** %4, align 8, !dbg !1661
  %fNode = getelementptr inbounds %"class.xercesc_2_7::DOMCDATASectionImpl", %"class.xercesc_2_7::DOMCDATASectionImpl"* %this1, i32 0, i32 1, !dbg !1664
  %5 = load %"class.xercesc_2_7::DOMCDATASectionImpl"*, %"class.xercesc_2_7::DOMCDATASectionImpl"** %other.addr, align 8, !dbg !1665
  %6 = bitcast %"class.xercesc_2_7::DOMCDATASectionImpl"* %5 to %"class.xercesc_2_7::DOMNode"*, !dbg !1666
  %call = invoke %"class.xercesc_2_7::DOMNodeImpl"* @_ZN11xercesc_2_7L14castToNodeImplEPKNS_7DOMNodeE(%"class.xercesc_2_7::DOMNode"* %6)
          to label %invoke.cont unwind label %lpad, !dbg !1667

invoke.cont:                                      ; preds = %entry
  invoke void @_ZN11xercesc_2_711DOMNodeImplC1ERKS0_(%"class.xercesc_2_7::DOMNodeImpl"* %fNode, %"class.xercesc_2_7::DOMNodeImpl"* dereferenceable(16) %call)
          to label %invoke.cont2 unwind label %lpad, !dbg !1664

invoke.cont2:                                     ; preds = %invoke.cont
  %fParent = getelementptr inbounds %"class.xercesc_2_7::DOMCDATASectionImpl", %"class.xercesc_2_7::DOMCDATASectionImpl"* %this1, i32 0, i32 2, !dbg !1668
  %7 = load %"class.xercesc_2_7::DOMCDATASectionImpl"*, %"class.xercesc_2_7::DOMCDATASectionImpl"** %other.addr, align 8, !dbg !1669
  %8 = bitcast %"class.xercesc_2_7::DOMCDATASectionImpl"* %7 to %"class.xercesc_2_7::DOMNode"*, !dbg !1670
  %call5 = invoke %"class.xercesc_2_7::DOMParentNode"* @_ZN11xercesc_2_7L16castToParentImplEPKNS_7DOMNodeE(%"class.xercesc_2_7::DOMNode"* %8)
          to label %invoke.cont4 unwind label %lpad3, !dbg !1671

invoke.cont4:                                     ; preds = %invoke.cont2
  invoke void @_ZN11xercesc_2_713DOMParentNodeC1ERKS0_(%"class.xercesc_2_7::DOMParentNode"* %fParent, %"class.xercesc_2_7::DOMParentNode"* dereferenceable(32) %call5)
          to label %invoke.cont6 unwind label %lpad3, !dbg !1668

invoke.cont6:                                     ; preds = %invoke.cont4
  %fChild = getelementptr inbounds %"class.xercesc_2_7::DOMCDATASectionImpl", %"class.xercesc_2_7::DOMCDATASectionImpl"* %this1, i32 0, i32 3, !dbg !1672
  %9 = load %"class.xercesc_2_7::DOMCDATASectionImpl"*, %"class.xercesc_2_7::DOMCDATASectionImpl"** %other.addr, align 8, !dbg !1673
  %10 = bitcast %"class.xercesc_2_7::DOMCDATASectionImpl"* %9 to %"class.xercesc_2_7::DOMNode"*, !dbg !1674
  %call9 = invoke %"class.xercesc_2_7::DOMChildNode"* @_ZN11xercesc_2_7L15castToChildImplEPKNS_7DOMNodeE(%"class.xercesc_2_7::DOMNode"* %10)
          to label %invoke.cont8 unwind label %lpad7, !dbg !1675

invoke.cont8:                                     ; preds = %invoke.cont6
  invoke void @_ZN11xercesc_2_712DOMChildNodeC1ERKS0_(%"class.xercesc_2_7::DOMChildNode"* %fChild, %"class.xercesc_2_7::DOMChildNode"* dereferenceable(16) %call9)
          to label %invoke.cont10 unwind label %lpad7, !dbg !1672

invoke.cont10:                                    ; preds = %invoke.cont8
  %fCharacterData = getelementptr inbounds %"class.xercesc_2_7::DOMCDATASectionImpl", %"class.xercesc_2_7::DOMCDATASectionImpl"* %this1, i32 0, i32 4, !dbg !1676
  %11 = load %"class.xercesc_2_7::DOMCDATASectionImpl"*, %"class.xercesc_2_7::DOMCDATASectionImpl"** %other.addr, align 8, !dbg !1677
  %fCharacterData11 = getelementptr inbounds %"class.xercesc_2_7::DOMCDATASectionImpl", %"class.xercesc_2_7::DOMCDATASectionImpl"* %11, i32 0, i32 4, !dbg !1678
  invoke void @_ZN11xercesc_2_720DOMCharacterDataImplC1ERKS0_(%"class.xercesc_2_7::DOMCharacterDataImpl"* %fCharacterData, %"class.xercesc_2_7::DOMCharacterDataImpl"* dereferenceable(16) %fCharacterData11)
          to label %invoke.cont13 unwind label %lpad12, !dbg !1676

invoke.cont13:                                    ; preds = %invoke.cont10
  ret void, !dbg !1679

lpad:                                             ; preds = %invoke.cont, %entry
  %12 = landingpad { i8*, i32 }
          cleanup, !dbg !1679
  %13 = extractvalue { i8*, i32 } %12, 0, !dbg !1679
  store i8* %13, i8** %exn.slot, align 8, !dbg !1679
  %14 = extractvalue { i8*, i32 } %12, 1, !dbg !1679
  store i32 %14, i32* %ehselector.slot, align 4, !dbg !1679
  br label %ehcleanup15, !dbg !1679

lpad3:                                            ; preds = %invoke.cont4, %invoke.cont2
  %15 = landingpad { i8*, i32 }
          cleanup, !dbg !1679
  %16 = extractvalue { i8*, i32 } %15, 0, !dbg !1679
  store i8* %16, i8** %exn.slot, align 8, !dbg !1679
  %17 = extractvalue { i8*, i32 } %15, 1, !dbg !1679
  store i32 %17, i32* %ehselector.slot, align 4, !dbg !1679
  br label %ehcleanup14, !dbg !1679

lpad7:                                            ; preds = %invoke.cont8, %invoke.cont6
  %18 = landingpad { i8*, i32 }
          cleanup, !dbg !1679
  %19 = extractvalue { i8*, i32 } %18, 0, !dbg !1679
  store i8* %19, i8** %exn.slot, align 8, !dbg !1679
  %20 = extractvalue { i8*, i32 } %18, 1, !dbg !1679
  store i32 %20, i32* %ehselector.slot, align 4, !dbg !1679
  br label %ehcleanup, !dbg !1679

lpad12:                                           ; preds = %invoke.cont10
  %21 = landingpad { i8*, i32 }
          cleanup, !dbg !1679
  %22 = extractvalue { i8*, i32 } %21, 0, !dbg !1679
  store i8* %22, i8** %exn.slot, align 8, !dbg !1679
  %23 = extractvalue { i8*, i32 } %21, 1, !dbg !1679
  store i32 %23, i32* %ehselector.slot, align 4, !dbg !1679
  call void @_ZN11xercesc_2_712DOMChildNodeD1Ev(%"class.xercesc_2_7::DOMChildNode"* %fChild) #7, !dbg !1680
  br label %ehcleanup, !dbg !1680

ehcleanup:                                        ; preds = %lpad12, %lpad7
  call void @_ZN11xercesc_2_713DOMParentNodeD2Ev(%"class.xercesc_2_7::DOMParentNode"* %fParent) #7, !dbg !1680
  br label %ehcleanup14, !dbg !1680

ehcleanup14:                                      ; preds = %ehcleanup, %lpad3
  call void @_ZN11xercesc_2_711DOMNodeImplD1Ev(%"class.xercesc_2_7::DOMNodeImpl"* %fNode) #7, !dbg !1680
  br label %ehcleanup15, !dbg !1680

ehcleanup15:                                      ; preds = %ehcleanup14, %lpad
  %24 = bitcast %"class.xercesc_2_7::DOMCDATASectionImpl"* %this1 to %"class.xercesc_2_7::DOMCDATASection"*, !dbg !1680
  call void @_ZN11xercesc_2_715DOMCDATASectionD2Ev(%"class.xercesc_2_7::DOMCDATASection"* %24) #7, !dbg !1680
  br label %eh.resume, !dbg !1680

eh.resume:                                        ; preds = %ehcleanup15
  %exn = load i8*, i8** %exn.slot, align 8, !dbg !1680
  %sel = load i32, i32* %ehselector.slot, align 4, !dbg !1680
  %lpad.val = insertvalue { i8*, i32 } undef, i8* %exn, 0, !dbg !1680
  %lpad.val16 = insertvalue { i8*, i32 } %lpad.val, i32 %sel, 1, !dbg !1680
  resume { i8*, i32 } %lpad.val16, !dbg !1680
}

; Function Attrs: noinline uwtable
define linkonce_odr dso_local void @_ZN11xercesc_2_715DOMCDATASectionC2ERKS0_(%"class.xercesc_2_7::DOMCDATASection"* %this, %"class.xercesc_2_7::DOMCDATASection"* dereferenceable(8) %other) unnamed_addr #3 comdat align 2 !dbg !1682 {
entry:
  %this.addr = alloca %"class.xercesc_2_7::DOMCDATASection"*, align 8
  %other.addr = alloca %"class.xercesc_2_7::DOMCDATASection"*, align 8
  store %"class.xercesc_2_7::DOMCDATASection"* %this, %"class.xercesc_2_7::DOMCDATASection"** %this.addr, align 8
  call void @llvm.dbg.declare(metadata %"class.xercesc_2_7::DOMCDATASection"** %this.addr, metadata !1683, metadata !DIExpression()), !dbg !1684
  store %"class.xercesc_2_7::DOMCDATASection"* %other, %"class.xercesc_2_7::DOMCDATASection"** %other.addr, align 8
  call void @llvm.dbg.declare(metadata %"class.xercesc_2_7::DOMCDATASection"** %other.addr, metadata !1685, metadata !DIExpression()), !dbg !1686
  %this1 = load %"class.xercesc_2_7::DOMCDATASection"*, %"class.xercesc_2_7::DOMCDATASection"** %this.addr, align 8
  %0 = bitcast %"class.xercesc_2_7::DOMCDATASection"* %this1 to %"class.xercesc_2_7::DOMText"*, !dbg !1687
  %1 = load %"class.xercesc_2_7::DOMCDATASection"*, %"class.xercesc_2_7::DOMCDATASection"** %other.addr, align 8, !dbg !1688
  %2 = bitcast %"class.xercesc_2_7::DOMCDATASection"* %1 to %"class.xercesc_2_7::DOMText"*, !dbg !1688
  call void @_ZN11xercesc_2_77DOMTextC2ERKS0_(%"class.xercesc_2_7::DOMText"* %0, %"class.xercesc_2_7::DOMText"* dereferenceable(8) %2), !dbg !1689
  %3 = bitcast %"class.xercesc_2_7::DOMCDATASection"* %this1 to i32 (...)***, !dbg !1687
  store i32 (...)** bitcast (i8** getelementptr inbounds ({ [55 x i8*] }, { [55 x i8*] }* @_ZTVN11xercesc_2_715DOMCDATASectionE, i32 0, inrange i32 0, i32 2) to i32 (...)**), i32 (...)*** %3, align 8, !dbg !1687
  ret void, !dbg !1690
}

; Function Attrs: noinline nounwind uwtable
define internal %"class.xercesc_2_7::DOMNodeImpl"* @_ZN11xercesc_2_7L14castToNodeImplEPKNS_7DOMNodeE(%"class.xercesc_2_7::DOMNode"* %p) #1 !dbg !1691 {
entry:
  %p.addr = alloca %"class.xercesc_2_7::DOMNode"*, align 8
  %pE = alloca %"class.xercesc_2_7::DOMElementImpl"*, align 8
  store %"class.xercesc_2_7::DOMNode"* %p, %"class.xercesc_2_7::DOMNode"** %p.addr, align 8
  call void @llvm.dbg.declare(metadata %"class.xercesc_2_7::DOMNode"** %p.addr, metadata !1696, metadata !DIExpression()), !dbg !1697
  call void @llvm.dbg.declare(metadata %"class.xercesc_2_7::DOMElementImpl"** %pE, metadata !1698, metadata !DIExpression()), !dbg !1699
  %0 = load %"class.xercesc_2_7::DOMNode"*, %"class.xercesc_2_7::DOMNode"** %p.addr, align 8, !dbg !1700
  %1 = bitcast %"class.xercesc_2_7::DOMNode"* %0 to %"class.xercesc_2_7::DOMElementImpl"*, !dbg !1701
  store %"class.xercesc_2_7::DOMElementImpl"* %1, %"class.xercesc_2_7::DOMElementImpl"** %pE, align 8, !dbg !1699
  %2 = load %"class.xercesc_2_7::DOMElementImpl"*, %"class.xercesc_2_7::DOMElementImpl"** %pE, align 8, !dbg !1702
  %fNode = getelementptr inbounds %"class.xercesc_2_7::DOMElementImpl", %"class.xercesc_2_7::DOMElementImpl"* %2, i32 0, i32 1, !dbg !1703
  ret %"class.xercesc_2_7::DOMNodeImpl"* %fNode, !dbg !1704
}

declare dso_local void @_ZN11xercesc_2_711DOMNodeImplC1ERKS0_(%"class.xercesc_2_7::DOMNodeImpl"*, %"class.xercesc_2_7::DOMNodeImpl"* dereferenceable(16)) unnamed_addr #4

; Function Attrs: noinline nounwind uwtable
define internal %"class.xercesc_2_7::DOMParentNode"* @_ZN11xercesc_2_7L16castToParentImplEPKNS_7DOMNodeE(%"class.xercesc_2_7::DOMNode"* %p) #1 !dbg !1705 {
entry:
  %p.addr = alloca %"class.xercesc_2_7::DOMNode"*, align 8
  %pE = alloca %"class.xercesc_2_7::DOMElementImpl"*, align 8
  store %"class.xercesc_2_7::DOMNode"* %p, %"class.xercesc_2_7::DOMNode"** %p.addr, align 8
  call void @llvm.dbg.declare(metadata %"class.xercesc_2_7::DOMNode"** %p.addr, metadata !1708, metadata !DIExpression()), !dbg !1709
  call void @llvm.dbg.declare(metadata %"class.xercesc_2_7::DOMElementImpl"** %pE, metadata !1710, metadata !DIExpression()), !dbg !1711
  %0 = load %"class.xercesc_2_7::DOMNode"*, %"class.xercesc_2_7::DOMNode"** %p.addr, align 8, !dbg !1712
  %1 = bitcast %"class.xercesc_2_7::DOMNode"* %0 to %"class.xercesc_2_7::DOMElementImpl"*, !dbg !1713
  store %"class.xercesc_2_7::DOMElementImpl"* %1, %"class.xercesc_2_7::DOMElementImpl"** %pE, align 8, !dbg !1711
  %2 = load %"class.xercesc_2_7::DOMElementImpl"*, %"class.xercesc_2_7::DOMElementImpl"** %pE, align 8, !dbg !1714
  %fParent = getelementptr inbounds %"class.xercesc_2_7::DOMElementImpl", %"class.xercesc_2_7::DOMElementImpl"* %2, i32 0, i32 2, !dbg !1715
  ret %"class.xercesc_2_7::DOMParentNode"* %fParent, !dbg !1716
}

declare dso_local void @_ZN11xercesc_2_713DOMParentNodeC1ERKS0_(%"class.xercesc_2_7::DOMParentNode"*, %"class.xercesc_2_7::DOMParentNode"* dereferenceable(32)) unnamed_addr #4

; Function Attrs: noinline uwtable
define internal %"class.xercesc_2_7::DOMChildNode"* @_ZN11xercesc_2_7L15castToChildImplEPKNS_7DOMNodeE(%"class.xercesc_2_7::DOMNode"* %p) #3 !dbg !1717 {
entry:
  %retval = alloca %"class.xercesc_2_7::DOMChildNode"*, align 8
  %p.addr = alloca %"class.xercesc_2_7::DOMNode"*, align 8
  %pE = alloca %"class.xercesc_2_7::DOMElementImpl"*, align 8
  %pT = alloca %"class.xercesc_2_7::DOMTextImpl"*, align 8
  store %"class.xercesc_2_7::DOMNode"* %p, %"class.xercesc_2_7::DOMNode"** %p.addr, align 8
  call void @llvm.dbg.declare(metadata %"class.xercesc_2_7::DOMNode"** %p.addr, metadata !1721, metadata !DIExpression()), !dbg !1722
  call void @llvm.dbg.declare(metadata %"class.xercesc_2_7::DOMElementImpl"** %pE, metadata !1723, metadata !DIExpression()), !dbg !1724
  %0 = load %"class.xercesc_2_7::DOMNode"*, %"class.xercesc_2_7::DOMNode"** %p.addr, align 8, !dbg !1725
  %1 = bitcast %"class.xercesc_2_7::DOMNode"* %0 to %"class.xercesc_2_7::DOMElementImpl"*, !dbg !1726
  store %"class.xercesc_2_7::DOMElementImpl"* %1, %"class.xercesc_2_7::DOMElementImpl"** %pE, align 8, !dbg !1724
  %2 = load %"class.xercesc_2_7::DOMElementImpl"*, %"class.xercesc_2_7::DOMElementImpl"** %pE, align 8, !dbg !1727
  %fNode = getelementptr inbounds %"class.xercesc_2_7::DOMElementImpl", %"class.xercesc_2_7::DOMElementImpl"* %2, i32 0, i32 1, !dbg !1729
  %call = call zeroext i1 @_ZNK11xercesc_2_711DOMNodeImpl10isLeafNodeEv(%"class.xercesc_2_7::DOMNodeImpl"* %fNode), !dbg !1730
  br i1 %call, label %if.then, label %if.end, !dbg !1731

if.then:                                          ; preds = %entry
  call void @llvm.dbg.declare(metadata %"class.xercesc_2_7::DOMTextImpl"** %pT, metadata !1732, metadata !DIExpression()), !dbg !1734
  %3 = load %"class.xercesc_2_7::DOMNode"*, %"class.xercesc_2_7::DOMNode"** %p.addr, align 8, !dbg !1735
  %4 = bitcast %"class.xercesc_2_7::DOMNode"* %3 to %"class.xercesc_2_7::DOMTextImpl"*, !dbg !1736
  store %"class.xercesc_2_7::DOMTextImpl"* %4, %"class.xercesc_2_7::DOMTextImpl"** %pT, align 8, !dbg !1734
  %5 = load %"class.xercesc_2_7::DOMTextImpl"*, %"class.xercesc_2_7::DOMTextImpl"** %pT, align 8, !dbg !1737
  %fChild = getelementptr inbounds %"class.xercesc_2_7::DOMTextImpl", %"class.xercesc_2_7::DOMTextImpl"* %5, i32 0, i32 2, !dbg !1738
  store %"class.xercesc_2_7::DOMChildNode"* %fChild, %"class.xercesc_2_7::DOMChildNode"** %retval, align 8, !dbg !1739
  br label %return, !dbg !1739

if.end:                                           ; preds = %entry
  %6 = load %"class.xercesc_2_7::DOMElementImpl"*, %"class.xercesc_2_7::DOMElementImpl"** %pE, align 8, !dbg !1740
  %fChild1 = getelementptr inbounds %"class.xercesc_2_7::DOMElementImpl", %"class.xercesc_2_7::DOMElementImpl"* %6, i32 0, i32 3, !dbg !1741
  store %"class.xercesc_2_7::DOMChildNode"* %fChild1, %"class.xercesc_2_7::DOMChildNode"** %retval, align 8, !dbg !1742
  br label %return, !dbg !1742

return:                                           ; preds = %if.end, %if.then
  %7 = load %"class.xercesc_2_7::DOMChildNode"*, %"class.xercesc_2_7::DOMChildNode"** %retval, align 8, !dbg !1743
  ret %"class.xercesc_2_7::DOMChildNode"* %7, !dbg !1743
}

declare dso_local void @_ZN11xercesc_2_712DOMChildNodeC1ERKS0_(%"class.xercesc_2_7::DOMChildNode"*, %"class.xercesc_2_7::DOMChildNode"* dereferenceable(16)) unnamed_addr #4

declare dso_local void @_ZN11xercesc_2_720DOMCharacterDataImplC1ERKS0_(%"class.xercesc_2_7::DOMCharacterDataImpl"*, %"class.xercesc_2_7::DOMCharacterDataImpl"* dereferenceable(16)) unnamed_addr #4

; Function Attrs: noinline nounwind uwtable
define dso_local void @_ZN11xercesc_2_719DOMCDATASectionImplD2Ev(%"class.xercesc_2_7::DOMCDATASectionImpl"* %this) unnamed_addr #1 align 2 !dbg !1744 {
entry:
  %this.addr = alloca %"class.xercesc_2_7::DOMCDATASectionImpl"*, align 8
  store %"class.xercesc_2_7::DOMCDATASectionImpl"* %this, %"class.xercesc_2_7::DOMCDATASectionImpl"** %this.addr, align 8
  call void @llvm.dbg.declare(metadata %"class.xercesc_2_7::DOMCDATASectionImpl"** %this.addr, metadata !1745, metadata !DIExpression()), !dbg !1746
  %this1 = load %"class.xercesc_2_7::DOMCDATASectionImpl"*, %"class.xercesc_2_7::DOMCDATASectionImpl"** %this.addr, align 8
  %0 = bitcast %"class.xercesc_2_7::DOMCDATASectionImpl"* %this1 to i32 (...)***, !dbg !1747
  store i32 (...)** bitcast (i8** getelementptr inbounds ({ [55 x i8*] }, { [55 x i8*] }* @_ZTVN11xercesc_2_719DOMCDATASectionImplE, i32 0, inrange i32 0, i32 2) to i32 (...)**), i32 (...)*** %0, align 8, !dbg !1747
  %fCharacterData = getelementptr inbounds %"class.xercesc_2_7::DOMCDATASectionImpl", %"class.xercesc_2_7::DOMCDATASectionImpl"* %this1, i32 0, i32 4, !dbg !1748
  call void @_ZN11xercesc_2_720DOMCharacterDataImplD1Ev(%"class.xercesc_2_7::DOMCharacterDataImpl"* %fCharacterData) #7, !dbg !1748
  %fChild = getelementptr inbounds %"class.xercesc_2_7::DOMCDATASectionImpl", %"class.xercesc_2_7::DOMCDATASectionImpl"* %this1, i32 0, i32 3, !dbg !1748
  call void @_ZN11xercesc_2_712DOMChildNodeD1Ev(%"class.xercesc_2_7::DOMChildNode"* %fChild) #7, !dbg !1748
  %fParent = getelementptr inbounds %"class.xercesc_2_7::DOMCDATASectionImpl", %"class.xercesc_2_7::DOMCDATASectionImpl"* %this1, i32 0, i32 2, !dbg !1748
  call void @_ZN11xercesc_2_713DOMParentNodeD2Ev(%"class.xercesc_2_7::DOMParentNode"* %fParent) #7, !dbg !1748
  %fNode = getelementptr inbounds %"class.xercesc_2_7::DOMCDATASectionImpl", %"class.xercesc_2_7::DOMCDATASectionImpl"* %this1, i32 0, i32 1, !dbg !1748
  call void @_ZN11xercesc_2_711DOMNodeImplD1Ev(%"class.xercesc_2_7::DOMNodeImpl"* %fNode) #7, !dbg !1748
  %1 = bitcast %"class.xercesc_2_7::DOMCDATASectionImpl"* %this1 to %"class.xercesc_2_7::DOMCDATASection"*, !dbg !1748
  call void @_ZN11xercesc_2_715DOMCDATASectionD2Ev(%"class.xercesc_2_7::DOMCDATASection"* %1) #7, !dbg !1748
  ret void, !dbg !1750
}

; Function Attrs: nounwind
declare dso_local void @_ZN11xercesc_2_720DOMCharacterDataImplD1Ev(%"class.xercesc_2_7::DOMCharacterDataImpl"*) unnamed_addr #5

; Function Attrs: noinline nounwind uwtable
define dso_local void @_ZN11xercesc_2_719DOMCDATASectionImplD0Ev(%"class.xercesc_2_7::DOMCDATASectionImpl"* %this) unnamed_addr #1 align 2 !dbg !1751 {
entry:
  %this.addr = alloca %"class.xercesc_2_7::DOMCDATASectionImpl"*, align 8
  store %"class.xercesc_2_7::DOMCDATASectionImpl"* %this, %"class.xercesc_2_7::DOMCDATASectionImpl"** %this.addr, align 8
  call void @llvm.dbg.declare(metadata %"class.xercesc_2_7::DOMCDATASectionImpl"** %this.addr, metadata !1752, metadata !DIExpression()), !dbg !1753
  %this1 = load %"class.xercesc_2_7::DOMCDATASectionImpl"*, %"class.xercesc_2_7::DOMCDATASectionImpl"** %this.addr, align 8
  call void @_ZN11xercesc_2_719DOMCDATASectionImplD1Ev(%"class.xercesc_2_7::DOMCDATASectionImpl"* %this1) #7, !dbg !1754
  %0 = bitcast %"class.xercesc_2_7::DOMCDATASectionImpl"* %this1 to i8*, !dbg !1754
  call void @_ZdlPv(i8* %0) #8, !dbg !1754
  ret void, !dbg !1755
}

; Function Attrs: noinline uwtable
define dso_local %"class.xercesc_2_7::DOMNode"* @_ZNK11xercesc_2_719DOMCDATASectionImpl9cloneNodeEb(%"class.xercesc_2_7::DOMCDATASectionImpl"* %this, i1 zeroext %deep) unnamed_addr #3 align 2 !dbg !1756 {
entry:
  %this.addr = alloca %"class.xercesc_2_7::DOMCDATASectionImpl"*, align 8
  %deep.addr = alloca i8, align 1
  %newNode = alloca %"class.xercesc_2_7::DOMNode"*, align 8
  store %"class.xercesc_2_7::DOMCDATASectionImpl"* %this, %"class.xercesc_2_7::DOMCDATASectionImpl"** %this.addr, align 8
  call void @llvm.dbg.declare(metadata %"class.xercesc_2_7::DOMCDATASectionImpl"** %this.addr, metadata !1757, metadata !DIExpression()), !dbg !1759
  %frombool = zext i1 %deep to i8
  store i8 %frombool, i8* %deep.addr, align 1
  call void @llvm.dbg.declare(metadata i8* %deep.addr, metadata !1760, metadata !DIExpression()), !dbg !1761
  %this1 = load %"class.xercesc_2_7::DOMCDATASectionImpl"*, %"class.xercesc_2_7::DOMCDATASectionImpl"** %this.addr, align 8
  call void @llvm.dbg.declare(metadata %"class.xercesc_2_7::DOMNode"** %newNode, metadata !1762, metadata !DIExpression()), !dbg !1763
  %0 = bitcast %"class.xercesc_2_7::DOMCDATASectionImpl"* %this1 to %"class.xercesc_2_7::DOMDocument"* (%"class.xercesc_2_7::DOMCDATASectionImpl"*)***, !dbg !1764
  %vtable = load %"class.xercesc_2_7::DOMDocument"* (%"class.xercesc_2_7::DOMCDATASectionImpl"*)**, %"class.xercesc_2_7::DOMDocument"* (%"class.xercesc_2_7::DOMCDATASectionImpl"*)*** %0, align 8, !dbg !1764
  %vfn = getelementptr inbounds %"class.xercesc_2_7::DOMDocument"* (%"class.xercesc_2_7::DOMCDATASectionImpl"*)*, %"class.xercesc_2_7::DOMDocument"* (%"class.xercesc_2_7::DOMCDATASectionImpl"*)** %vtable, i64 12, !dbg !1764
  %1 = load %"class.xercesc_2_7::DOMDocument"* (%"class.xercesc_2_7::DOMCDATASectionImpl"*)*, %"class.xercesc_2_7::DOMDocument"* (%"class.xercesc_2_7::DOMCDATASectionImpl"*)** %vfn, align 8, !dbg !1764
  %call = call %"class.xercesc_2_7::DOMDocument"* %1(%"class.xercesc_2_7::DOMCDATASectionImpl"* %this1), !dbg !1764
  %call2 = call i8* @_ZnwmPN11xercesc_2_711DOMDocumentENS_15DOMDocumentImpl14NodeObjectTypeE(i64 88, %"class.xercesc_2_7::DOMDocument"* %call, i32 2), !dbg !1765
  %2 = bitcast i8* %call2 to %"class.xercesc_2_7::DOMCDATASectionImpl"*, !dbg !1765
  %3 = load i8, i8* %deep.addr, align 1, !dbg !1766
  %tobool = trunc i8 %3 to i1, !dbg !1766
  call void @_ZN11xercesc_2_719DOMCDATASectionImplC1ERKS0_b(%"class.xercesc_2_7::DOMCDATASectionImpl"* %2, %"class.xercesc_2_7::DOMCDATASectionImpl"* dereferenceable(88) %this1, i1 zeroext %tobool), !dbg !1767
  %4 = bitcast %"class.xercesc_2_7::DOMCDATASectionImpl"* %2 to %"class.xercesc_2_7::DOMNode"*, !dbg !1765
  store %"class.xercesc_2_7::DOMNode"* %4, %"class.xercesc_2_7::DOMNode"** %newNode, align 8, !dbg !1763
  %fNode = getelementptr inbounds %"class.xercesc_2_7::DOMCDATASectionImpl", %"class.xercesc_2_7::DOMCDATASectionImpl"* %this1, i32 0, i32 1, !dbg !1768
  %5 = bitcast %"class.xercesc_2_7::DOMCDATASectionImpl"* %this1 to %"class.xercesc_2_7::DOMNode"*, !dbg !1769
  %6 = load %"class.xercesc_2_7::DOMNode"*, %"class.xercesc_2_7::DOMNode"** %newNode, align 8, !dbg !1770
  call void @_ZNK11xercesc_2_711DOMNodeImpl20callUserDataHandlersENS_18DOMUserDataHandler16DOMOperationTypeEPKNS_7DOMNodeES5_(%"class.xercesc_2_7::DOMNodeImpl"* %fNode, i32 1, %"class.xercesc_2_7::DOMNode"* %5, %"class.xercesc_2_7::DOMNode"* %6), !dbg !1771
  %7 = load %"class.xercesc_2_7::DOMNode"*, %"class.xercesc_2_7::DOMNode"** %newNode, align 8, !dbg !1772
  ret %"class.xercesc_2_7::DOMNode"* %7, !dbg !1773
}

; Function Attrs: noinline uwtable
define linkonce_odr dso_local i8* @_ZnwmPN11xercesc_2_711DOMDocumentENS_15DOMDocumentImpl14NodeObjectTypeE(i64 %amt, %"class.xercesc_2_7::DOMDocument"* %doc, i32 %type) #3 comdat !dbg !1774 {
entry:
  %amt.addr = alloca i64, align 8
  %doc.addr = alloca %"class.xercesc_2_7::DOMDocument"*, align 8
  %type.addr = alloca i32, align 4
  %p = alloca i8*, align 8
  store i64 %amt, i64* %amt.addr, align 8
  call void @llvm.dbg.declare(metadata i64* %amt.addr, metadata !1777, metadata !DIExpression()), !dbg !1778
  store %"class.xercesc_2_7::DOMDocument"* %doc, %"class.xercesc_2_7::DOMDocument"** %doc.addr, align 8
  call void @llvm.dbg.declare(metadata %"class.xercesc_2_7::DOMDocument"** %doc.addr, metadata !1779, metadata !DIExpression()), !dbg !1780
  store i32 %type, i32* %type.addr, align 4
  call void @llvm.dbg.declare(metadata i32* %type.addr, metadata !1781, metadata !DIExpression()), !dbg !1782
  call void @llvm.dbg.declare(metadata i8** %p, metadata !1783, metadata !DIExpression()), !dbg !1784
  %0 = load %"class.xercesc_2_7::DOMDocument"*, %"class.xercesc_2_7::DOMDocument"** %doc.addr, align 8, !dbg !1785
  %1 = bitcast %"class.xercesc_2_7::DOMDocument"* %0 to %"class.xercesc_2_7::DOMDocumentImpl"*, !dbg !1786
  %2 = load i64, i64* %amt.addr, align 8, !dbg !1787
  %3 = load i32, i32* %type.addr, align 4, !dbg !1788
  %call = call i8* @_ZN11xercesc_2_715DOMDocumentImpl8allocateEmNS0_14NodeObjectTypeE(%"class.xercesc_2_7::DOMDocumentImpl"* %1, i64 %2, i32 %3), !dbg !1789
  store i8* %call, i8** %p, align 8, !dbg !1784
  %4 = load i8*, i8** %p, align 8, !dbg !1790
  ret i8* %4, !dbg !1791
}

declare dso_local void @_ZNK11xercesc_2_711DOMNodeImpl20callUserDataHandlersENS_18DOMUserDataHandler16DOMOperationTypeEPKNS_7DOMNodeES5_(%"class.xercesc_2_7::DOMNodeImpl"*, i32, %"class.xercesc_2_7::DOMNode"*, %"class.xercesc_2_7::DOMNode"*) #4

; Function Attrs: noinline nounwind uwtable
define dso_local i16* @_ZNK11xercesc_2_719DOMCDATASectionImpl11getNodeNameEv(%"class.xercesc_2_7::DOMCDATASectionImpl"* %this) unnamed_addr #1 align 2 !dbg !2 {
entry:
  %this.addr = alloca %"class.xercesc_2_7::DOMCDATASectionImpl"*, align 8
  store %"class.xercesc_2_7::DOMCDATASectionImpl"* %this, %"class.xercesc_2_7::DOMCDATASectionImpl"** %this.addr, align 8
  call void @llvm.dbg.declare(metadata %"class.xercesc_2_7::DOMCDATASectionImpl"** %this.addr, metadata !1792, metadata !DIExpression()), !dbg !1793
  %this1 = load %"class.xercesc_2_7::DOMCDATASectionImpl"*, %"class.xercesc_2_7::DOMCDATASectionImpl"** %this.addr, align 8
  ret i16* getelementptr inbounds ([15 x i16], [15 x i16]* @_ZZNK11xercesc_2_719DOMCDATASectionImpl11getNodeNameEvE14gcdata_section, i64 0, i64 0), !dbg !1794
}

; Function Attrs: noinline nounwind uwtable
define dso_local signext i16 @_ZNK11xercesc_2_719DOMCDATASectionImpl11getNodeTypeEv(%"class.xercesc_2_7::DOMCDATASectionImpl"* %this) unnamed_addr #1 align 2 !dbg !1795 {
entry:
  %this.addr = alloca %"class.xercesc_2_7::DOMCDATASectionImpl"*, align 8
  store %"class.xercesc_2_7::DOMCDATASectionImpl"* %this, %"class.xercesc_2_7::DOMCDATASectionImpl"** %this.addr, align 8
  call void @llvm.dbg.declare(metadata %"class.xercesc_2_7::DOMCDATASectionImpl"** %this.addr, metadata !1796, metadata !DIExpression()), !dbg !1797
  %this1 = load %"class.xercesc_2_7::DOMCDATASectionImpl"*, %"class.xercesc_2_7::DOMCDATASectionImpl"** %this.addr, align 8
  ret i16 4, !dbg !1798
}

; Function Attrs: noinline uwtable
define dso_local zeroext i1 @_ZNK11xercesc_2_719DOMCDATASectionImpl21isIgnorableWhitespaceEv(%"class.xercesc_2_7::DOMCDATASectionImpl"* %this) unnamed_addr #3 align 2 !dbg !1799 {
entry:
  %this.addr = alloca %"class.xercesc_2_7::DOMCDATASectionImpl"*, align 8
  store %"class.xercesc_2_7::DOMCDATASectionImpl"* %this, %"class.xercesc_2_7::DOMCDATASectionImpl"** %this.addr, align 8
  call void @llvm.dbg.declare(metadata %"class.xercesc_2_7::DOMCDATASectionImpl"** %this.addr, metadata !1800, metadata !DIExpression()), !dbg !1801
  %this1 = load %"class.xercesc_2_7::DOMCDATASectionImpl"*, %"class.xercesc_2_7::DOMCDATASectionImpl"** %this.addr, align 8
  %fNode = getelementptr inbounds %"class.xercesc_2_7::DOMCDATASectionImpl", %"class.xercesc_2_7::DOMCDATASectionImpl"* %this1, i32 0, i32 1, !dbg !1802
  %call = call zeroext i1 @_ZNK11xercesc_2_711DOMNodeImpl19ignorableWhitespaceEv(%"class.xercesc_2_7::DOMNodeImpl"* %fNode), !dbg !1803
  ret i1 %call, !dbg !1804
}

; Function Attrs: noinline nounwind uwtable
define linkonce_odr dso_local zeroext i1 @_ZNK11xercesc_2_711DOMNodeImpl19ignorableWhitespaceEv(%"class.xercesc_2_7::DOMNodeImpl"* %this) #1 comdat align 2 !dbg !1805 {
entry:
  %this.addr = alloca %"class.xercesc_2_7::DOMNodeImpl"*, align 8
  store %"class.xercesc_2_7::DOMNodeImpl"* %this, %"class.xercesc_2_7::DOMNodeImpl"** %this.addr, align 8
  call void @llvm.dbg.declare(metadata %"class.xercesc_2_7::DOMNodeImpl"** %this.addr, metadata !1806, metadata !DIExpression()), !dbg !1808
  %this1 = load %"class.xercesc_2_7::DOMNodeImpl"*, %"class.xercesc_2_7::DOMNodeImpl"** %this.addr, align 8
  %flags = getelementptr inbounds %"class.xercesc_2_7::DOMNodeImpl", %"class.xercesc_2_7::DOMNodeImpl"* %this1, i32 0, i32 1, !dbg !1809
  %0 = load i16, i16* %flags, align 8, !dbg !1809
  %conv = zext i16 %0 to i32, !dbg !1809
  %1 = load i16, i16* @_ZN11xercesc_2_711DOMNodeImpl11IGNORABLEWSE, align 2, !dbg !1810
  %conv2 = zext i16 %1 to i32, !dbg !1810
  %and = and i32 %conv, %conv2, !dbg !1811
  %cmp = icmp ne i32 %and, 0, !dbg !1812
  ret i1 %cmp, !dbg !1813
}

; Function Attrs: noinline uwtable
define dso_local %"class.xercesc_2_7::DOMText"* @_ZN11xercesc_2_719DOMCDATASectionImpl9splitTextEm(%"class.xercesc_2_7::DOMCDATASectionImpl"* %this, i64 %offset) unnamed_addr #3 align 2 personality i8* bitcast (i32 (...)* @__gxx_personality_v0 to i8*) !dbg !1814 {
entry:
  %this.addr = alloca %"class.xercesc_2_7::DOMCDATASectionImpl"*, align 8
  %offset.addr = alloca i64, align 8
  %exn.slot = alloca i8*
  %ehselector.slot = alloca i32
  %len = alloca i64, align 8
  %newText = alloca %"class.xercesc_2_7::DOMText"*, align 8
  %parent = alloca %"class.xercesc_2_7::DOMNode"*, align 8
  %ranges = alloca %"class.xercesc_2_7::RefVectorOf"*, align 8
  %sz = alloca i64, align 8
  %i = alloca i64, align 8
  store %"class.xercesc_2_7::DOMCDATASectionImpl"* %this, %"class.xercesc_2_7::DOMCDATASectionImpl"** %this.addr, align 8
  call void @llvm.dbg.declare(metadata %"class.xercesc_2_7::DOMCDATASectionImpl"** %this.addr, metadata !1815, metadata !DIExpression()), !dbg !1816
  store i64 %offset, i64* %offset.addr, align 8
  call void @llvm.dbg.declare(metadata i64* %offset.addr, metadata !1817, metadata !DIExpression()), !dbg !1818
  %this1 = load %"class.xercesc_2_7::DOMCDATASectionImpl"*, %"class.xercesc_2_7::DOMCDATASectionImpl"** %this.addr, align 8
  %fNode = getelementptr inbounds %"class.xercesc_2_7::DOMCDATASectionImpl", %"class.xercesc_2_7::DOMCDATASectionImpl"* %this1, i32 0, i32 1, !dbg !1819
  %call = call zeroext i1 @_ZNK11xercesc_2_711DOMNodeImpl10isReadOnlyEv(%"class.xercesc_2_7::DOMNodeImpl"* %fNode), !dbg !1821
  br i1 %call, label %if.then, label %if.end, !dbg !1822

if.then:                                          ; preds = %entry
  %exception = call i8* @__cxa_allocate_exception(i64 40) #7, !dbg !1823
  %0 = bitcast i8* %exception to %"class.xercesc_2_7::DOMException"*, !dbg !1823
  %1 = bitcast %"class.xercesc_2_7::DOMCDATASectionImpl"* %this1 to %"class.xercesc_2_7::DOMDocument"* (%"class.xercesc_2_7::DOMCDATASectionImpl"*)***, !dbg !1825
  %vtable = load %"class.xercesc_2_7::DOMDocument"* (%"class.xercesc_2_7::DOMCDATASectionImpl"*)**, %"class.xercesc_2_7::DOMDocument"* (%"class.xercesc_2_7::DOMCDATASectionImpl"*)*** %1, align 8, !dbg !1825
  %vfn = getelementptr inbounds %"class.xercesc_2_7::DOMDocument"* (%"class.xercesc_2_7::DOMCDATASectionImpl"*)*, %"class.xercesc_2_7::DOMDocument"* (%"class.xercesc_2_7::DOMCDATASectionImpl"*)** %vtable, i64 12, !dbg !1825
  %2 = load %"class.xercesc_2_7::DOMDocument"* (%"class.xercesc_2_7::DOMCDATASectionImpl"*)*, %"class.xercesc_2_7::DOMDocument"* (%"class.xercesc_2_7::DOMCDATASectionImpl"*)** %vfn, align 8, !dbg !1825
  %call2 = invoke %"class.xercesc_2_7::DOMDocument"* %2(%"class.xercesc_2_7::DOMCDATASectionImpl"* %this1)
          to label %invoke.cont unwind label %lpad, !dbg !1825

invoke.cont:                                      ; preds = %if.then
  %3 = bitcast %"class.xercesc_2_7::DOMDocument"* %call2 to %"class.xercesc_2_7::DOMDocumentImpl"*, !dbg !1825
  %tobool = icmp ne %"class.xercesc_2_7::DOMDocumentImpl"* %3, null, !dbg !1825
  br i1 %tobool, label %cond.true, label %cond.false, !dbg !1825

cond.true:                                        ; preds = %invoke.cont
  %4 = bitcast %"class.xercesc_2_7::DOMCDATASectionImpl"* %this1 to %"class.xercesc_2_7::DOMDocument"* (%"class.xercesc_2_7::DOMCDATASectionImpl"*)***, !dbg !1825
  %vtable3 = load %"class.xercesc_2_7::DOMDocument"* (%"class.xercesc_2_7::DOMCDATASectionImpl"*)**, %"class.xercesc_2_7::DOMDocument"* (%"class.xercesc_2_7::DOMCDATASectionImpl"*)*** %4, align 8, !dbg !1825
  %vfn4 = getelementptr inbounds %"class.xercesc_2_7::DOMDocument"* (%"class.xercesc_2_7::DOMCDATASectionImpl"*)*, %"class.xercesc_2_7::DOMDocument"* (%"class.xercesc_2_7::DOMCDATASectionImpl"*)** %vtable3, i64 12, !dbg !1825
  %5 = load %"class.xercesc_2_7::DOMDocument"* (%"class.xercesc_2_7::DOMCDATASectionImpl"*)*, %"class.xercesc_2_7::DOMDocument"* (%"class.xercesc_2_7::DOMCDATASectionImpl"*)** %vfn4, align 8, !dbg !1825
  %call6 = invoke %"class.xercesc_2_7::DOMDocument"* %5(%"class.xercesc_2_7::DOMCDATASectionImpl"* %this1)
          to label %invoke.cont5 unwind label %lpad, !dbg !1825

invoke.cont5:                                     ; preds = %cond.true
  %6 = bitcast %"class.xercesc_2_7::DOMDocument"* %call6 to %"class.xercesc_2_7::DOMDocumentImpl"*, !dbg !1825
  %call8 = invoke %"class.xercesc_2_7::MemoryManager"* @_ZNK11xercesc_2_715DOMDocumentImpl16getMemoryManagerEv(%"class.xercesc_2_7::DOMDocumentImpl"* %6)
          to label %invoke.cont7 unwind label %lpad, !dbg !1825

invoke.cont7:                                     ; preds = %invoke.cont5
  br label %cond.end, !dbg !1825

cond.false:                                       ; preds = %invoke.cont
  %7 = load %"class.xercesc_2_7::MemoryManager"*, %"class.xercesc_2_7::MemoryManager"** @_ZN11xercesc_2_716XMLPlatformUtils15fgMemoryManagerE, align 8, !dbg !1825
  br label %cond.end, !dbg !1825

cond.end:                                         ; preds = %cond.false, %invoke.cont7
  %cond = phi %"class.xercesc_2_7::MemoryManager"* [ %call8, %invoke.cont7 ], [ %7, %cond.false ], !dbg !1825
  invoke void @_ZN11xercesc_2_712DOMExceptionC1EsPKtPNS_13MemoryManagerE(%"class.xercesc_2_7::DOMException"* %0, i16 signext 7, i16* null, %"class.xercesc_2_7::MemoryManager"* %cond)
          to label %invoke.cont9 unwind label %lpad, !dbg !1826

invoke.cont9:                                     ; preds = %cond.end
  call void @__cxa_throw(i8* %exception, i8* bitcast (i8** @_ZTIN11xercesc_2_712DOMExceptionE to i8*), i8* bitcast (void (%"class.xercesc_2_7::DOMException"*)* @_ZN11xercesc_2_712DOMExceptionD1Ev to i8*)) #9, !dbg !1823
  unreachable, !dbg !1823

lpad:                                             ; preds = %cond.end, %invoke.cont5, %cond.true, %if.then
  %8 = landingpad { i8*, i32 }
          cleanup, !dbg !1827
  %9 = extractvalue { i8*, i32 } %8, 0, !dbg !1827
  store i8* %9, i8** %exn.slot, align 8, !dbg !1827
  %10 = extractvalue { i8*, i32 } %8, 1, !dbg !1827
  store i32 %10, i32* %ehselector.slot, align 4, !dbg !1827
  call void @__cxa_free_exception(i8* %exception) #7, !dbg !1823
  br label %eh.resume, !dbg !1823

if.end:                                           ; preds = %entry
  call void @llvm.dbg.declare(metadata i64* %len, metadata !1828, metadata !DIExpression()), !dbg !1829
  %fCharacterData = getelementptr inbounds %"class.xercesc_2_7::DOMCDATASectionImpl", %"class.xercesc_2_7::DOMCDATASectionImpl"* %this1, i32 0, i32 4, !dbg !1830
  %fDataBuf = getelementptr inbounds %"class.xercesc_2_7::DOMCharacterDataImpl", %"class.xercesc_2_7::DOMCharacterDataImpl"* %fCharacterData, i32 0, i32 0, !dbg !1831
  %11 = load %"class.xercesc_2_7::DOMBuffer"*, %"class.xercesc_2_7::DOMBuffer"** %fDataBuf, align 8, !dbg !1831
  %call10 = call i32 @_ZNK11xercesc_2_79DOMBuffer6getLenEv(%"class.xercesc_2_7::DOMBuffer"* %11), !dbg !1832
  %conv = zext i32 %call10 to i64, !dbg !1830
  store i64 %conv, i64* %len, align 8, !dbg !1829
  %12 = load i64, i64* %offset.addr, align 8, !dbg !1833
  %13 = load i64, i64* %len, align 8, !dbg !1835
  %cmp = icmp ugt i64 %12, %13, !dbg !1836
  br i1 %cmp, label %if.then11, label %if.end30, !dbg !1837

if.then11:                                        ; preds = %if.end
  %exception12 = call i8* @__cxa_allocate_exception(i64 40) #7, !dbg !1838
  %14 = bitcast i8* %exception12 to %"class.xercesc_2_7::DOMException"*, !dbg !1838
  %15 = bitcast %"class.xercesc_2_7::DOMCDATASectionImpl"* %this1 to %"class.xercesc_2_7::DOMDocument"* (%"class.xercesc_2_7::DOMCDATASectionImpl"*)***, !dbg !1839
  %vtable13 = load %"class.xercesc_2_7::DOMDocument"* (%"class.xercesc_2_7::DOMCDATASectionImpl"*)**, %"class.xercesc_2_7::DOMDocument"* (%"class.xercesc_2_7::DOMCDATASectionImpl"*)*** %15, align 8, !dbg !1839
  %vfn14 = getelementptr inbounds %"class.xercesc_2_7::DOMDocument"* (%"class.xercesc_2_7::DOMCDATASectionImpl"*)*, %"class.xercesc_2_7::DOMDocument"* (%"class.xercesc_2_7::DOMCDATASectionImpl"*)** %vtable13, i64 12, !dbg !1839
  %16 = load %"class.xercesc_2_7::DOMDocument"* (%"class.xercesc_2_7::DOMCDATASectionImpl"*)*, %"class.xercesc_2_7::DOMDocument"* (%"class.xercesc_2_7::DOMCDATASectionImpl"*)** %vfn14, align 8, !dbg !1839
  %call17 = invoke %"class.xercesc_2_7::DOMDocument"* %16(%"class.xercesc_2_7::DOMCDATASectionImpl"* %this1)
          to label %invoke.cont16 unwind label %lpad15, !dbg !1839

invoke.cont16:                                    ; preds = %if.then11
  %17 = bitcast %"class.xercesc_2_7::DOMDocument"* %call17 to %"class.xercesc_2_7::DOMDocumentImpl"*, !dbg !1839
  %tobool18 = icmp ne %"class.xercesc_2_7::DOMDocumentImpl"* %17, null, !dbg !1839
  br i1 %tobool18, label %cond.true19, label %cond.false26, !dbg !1839

cond.true19:                                      ; preds = %invoke.cont16
  %18 = bitcast %"class.xercesc_2_7::DOMCDATASectionImpl"* %this1 to %"class.xercesc_2_7::DOMDocument"* (%"class.xercesc_2_7::DOMCDATASectionImpl"*)***, !dbg !1839
  %vtable20 = load %"class.xercesc_2_7::DOMDocument"* (%"class.xercesc_2_7::DOMCDATASectionImpl"*)**, %"class.xercesc_2_7::DOMDocument"* (%"class.xercesc_2_7::DOMCDATASectionImpl"*)*** %18, align 8, !dbg !1839
  %vfn21 = getelementptr inbounds %"class.xercesc_2_7::DOMDocument"* (%"class.xercesc_2_7::DOMCDATASectionImpl"*)*, %"class.xercesc_2_7::DOMDocument"* (%"class.xercesc_2_7::DOMCDATASectionImpl"*)** %vtable20, i64 12, !dbg !1839
  %19 = load %"class.xercesc_2_7::DOMDocument"* (%"class.xercesc_2_7::DOMCDATASectionImpl"*)*, %"class.xercesc_2_7::DOMDocument"* (%"class.xercesc_2_7::DOMCDATASectionImpl"*)** %vfn21, align 8, !dbg !1839
  %call23 = invoke %"class.xercesc_2_7::DOMDocument"* %19(%"class.xercesc_2_7::DOMCDATASectionImpl"* %this1)
          to label %invoke.cont22 unwind label %lpad15, !dbg !1839

invoke.cont22:                                    ; preds = %cond.true19
  %20 = bitcast %"class.xercesc_2_7::DOMDocument"* %call23 to %"class.xercesc_2_7::DOMDocumentImpl"*, !dbg !1839
  %call25 = invoke %"class.xercesc_2_7::MemoryManager"* @_ZNK11xercesc_2_715DOMDocumentImpl16getMemoryManagerEv(%"class.xercesc_2_7::DOMDocumentImpl"* %20)
          to label %invoke.cont24 unwind label %lpad15, !dbg !1839

invoke.cont24:                                    ; preds = %invoke.cont22
  br label %cond.end27, !dbg !1839

cond.false26:                                     ; preds = %invoke.cont16
  %21 = load %"class.xercesc_2_7::MemoryManager"*, %"class.xercesc_2_7::MemoryManager"** @_ZN11xercesc_2_716XMLPlatformUtils15fgMemoryManagerE, align 8, !dbg !1839
  br label %cond.end27, !dbg !1839

cond.end27:                                       ; preds = %cond.false26, %invoke.cont24
  %cond28 = phi %"class.xercesc_2_7::MemoryManager"* [ %call25, %invoke.cont24 ], [ %21, %cond.false26 ], !dbg !1839
  invoke void @_ZN11xercesc_2_712DOMExceptionC1EsPKtPNS_13MemoryManagerE(%"class.xercesc_2_7::DOMException"* %14, i16 signext 1, i16* null, %"class.xercesc_2_7::MemoryManager"* %cond28)
          to label %invoke.cont29 unwind label %lpad15, !dbg !1840

invoke.cont29:                                    ; preds = %cond.end27
  call void @__cxa_throw(i8* %exception12, i8* bitcast (i8** @_ZTIN11xercesc_2_712DOMExceptionE to i8*), i8* bitcast (void (%"class.xercesc_2_7::DOMException"*)* @_ZN11xercesc_2_712DOMExceptionD1Ev to i8*)) #9, !dbg !1838
  unreachable, !dbg !1838

lpad15:                                           ; preds = %cond.end27, %invoke.cont22, %cond.true19, %if.then11
  %22 = landingpad { i8*, i32 }
          cleanup, !dbg !1841
  %23 = extractvalue { i8*, i32 } %22, 0, !dbg !1841
  store i8* %23, i8** %exn.slot, align 8, !dbg !1841
  %24 = extractvalue { i8*, i32 } %22, 1, !dbg !1841
  store i32 %24, i32* %ehselector.slot, align 4, !dbg !1841
  call void @__cxa_free_exception(i8* %exception12) #7, !dbg !1838
  br label %eh.resume, !dbg !1838

if.end30:                                         ; preds = %if.end
  call void @llvm.dbg.declare(metadata %"class.xercesc_2_7::DOMText"** %newText, metadata !1842, metadata !DIExpression()), !dbg !1843
  %25 = bitcast %"class.xercesc_2_7::DOMCDATASectionImpl"* %this1 to %"class.xercesc_2_7::DOMDocument"* (%"class.xercesc_2_7::DOMCDATASectionImpl"*)***, !dbg !1844
  %vtable31 = load %"class.xercesc_2_7::DOMDocument"* (%"class.xercesc_2_7::DOMCDATASectionImpl"*)**, %"class.xercesc_2_7::DOMDocument"* (%"class.xercesc_2_7::DOMCDATASectionImpl"*)*** %25, align 8, !dbg !1844
  %vfn32 = getelementptr inbounds %"class.xercesc_2_7::DOMDocument"* (%"class.xercesc_2_7::DOMCDATASectionImpl"*)*, %"class.xercesc_2_7::DOMDocument"* (%"class.xercesc_2_7::DOMCDATASectionImpl"*)** %vtable31, i64 12, !dbg !1844
  %26 = load %"class.xercesc_2_7::DOMDocument"* (%"class.xercesc_2_7::DOMCDATASectionImpl"*)*, %"class.xercesc_2_7::DOMDocument"* (%"class.xercesc_2_7::DOMCDATASectionImpl"*)** %vfn32, align 8, !dbg !1844
  %call33 = call %"class.xercesc_2_7::DOMDocument"* %26(%"class.xercesc_2_7::DOMCDATASectionImpl"* %this1), !dbg !1844
  %27 = load i64, i64* %offset.addr, align 8, !dbg !1845
  %28 = load i64, i64* %len, align 8, !dbg !1846
  %29 = load i64, i64* %offset.addr, align 8, !dbg !1847
  %sub = sub i64 %28, %29, !dbg !1848
  %30 = bitcast %"class.xercesc_2_7::DOMCDATASectionImpl"* %this1 to i16* (%"class.xercesc_2_7::DOMCDATASectionImpl"*, i64, i64)***, !dbg !1849
  %vtable34 = load i16* (%"class.xercesc_2_7::DOMCDATASectionImpl"*, i64, i64)**, i16* (%"class.xercesc_2_7::DOMCDATASectionImpl"*, i64, i64)*** %30, align 8, !dbg !1849
  %vfn35 = getelementptr inbounds i16* (%"class.xercesc_2_7::DOMCDATASectionImpl"*, i64, i64)*, i16* (%"class.xercesc_2_7::DOMCDATASectionImpl"*, i64, i64)** %vtable34, i64 42, !dbg !1849
  %31 = load i16* (%"class.xercesc_2_7::DOMCDATASectionImpl"*, i64, i64)*, i16* (%"class.xercesc_2_7::DOMCDATASectionImpl"*, i64, i64)** %vfn35, align 8, !dbg !1849
  %call36 = call i16* %31(%"class.xercesc_2_7::DOMCDATASectionImpl"* %this1, i64 %27, i64 %sub), !dbg !1849
  %32 = bitcast %"class.xercesc_2_7::DOMDocument"* %call33 to %"class.xercesc_2_7::DOMCDATASection"* (%"class.xercesc_2_7::DOMDocument"*, i16*)***, !dbg !1850
  %vtable37 = load %"class.xercesc_2_7::DOMCDATASection"* (%"class.xercesc_2_7::DOMDocument"*, i16*)**, %"class.xercesc_2_7::DOMCDATASection"* (%"class.xercesc_2_7::DOMDocument"*, i16*)*** %32, align 8, !dbg !1850
  %vfn38 = getelementptr inbounds %"class.xercesc_2_7::DOMCDATASection"* (%"class.xercesc_2_7::DOMDocument"*, i16*)*, %"class.xercesc_2_7::DOMCDATASection"* (%"class.xercesc_2_7::DOMDocument"*, i16*)** %vtable37, i64 7, !dbg !1850
  %33 = load %"class.xercesc_2_7::DOMCDATASection"* (%"class.xercesc_2_7::DOMDocument"*, i16*)*, %"class.xercesc_2_7::DOMCDATASection"* (%"class.xercesc_2_7::DOMDocument"*, i16*)** %vfn38, align 8, !dbg !1850
  %call39 = call %"class.xercesc_2_7::DOMCDATASection"* %33(%"class.xercesc_2_7::DOMDocument"* %call33, i16* %call36), !dbg !1850
  %34 = bitcast %"class.xercesc_2_7::DOMCDATASection"* %call39 to %"class.xercesc_2_7::DOMText"*, !dbg !1844
  store %"class.xercesc_2_7::DOMText"* %34, %"class.xercesc_2_7::DOMText"** %newText, align 8, !dbg !1843
  call void @llvm.dbg.declare(metadata %"class.xercesc_2_7::DOMNode"** %parent, metadata !1851, metadata !DIExpression()), !dbg !1852
  %35 = bitcast %"class.xercesc_2_7::DOMCDATASectionImpl"* %this1 to %"class.xercesc_2_7::DOMNode"* (%"class.xercesc_2_7::DOMCDATASectionImpl"*)***, !dbg !1853
  %vtable40 = load %"class.xercesc_2_7::DOMNode"* (%"class.xercesc_2_7::DOMCDATASectionImpl"*)**, %"class.xercesc_2_7::DOMNode"* (%"class.xercesc_2_7::DOMCDATASectionImpl"*)*** %35, align 8, !dbg !1853
  %vfn41 = getelementptr inbounds %"class.xercesc_2_7::DOMNode"* (%"class.xercesc_2_7::DOMCDATASectionImpl"*)*, %"class.xercesc_2_7::DOMNode"* (%"class.xercesc_2_7::DOMCDATASectionImpl"*)** %vtable40, i64 5, !dbg !1853
  %36 = load %"class.xercesc_2_7::DOMNode"* (%"class.xercesc_2_7::DOMCDATASectionImpl"*)*, %"class.xercesc_2_7::DOMNode"* (%"class.xercesc_2_7::DOMCDATASectionImpl"*)** %vfn41, align 8, !dbg !1853
  %call42 = call %"class.xercesc_2_7::DOMNode"* %36(%"class.xercesc_2_7::DOMCDATASectionImpl"* %this1), !dbg !1853
  store %"class.xercesc_2_7::DOMNode"* %call42, %"class.xercesc_2_7::DOMNode"** %parent, align 8, !dbg !1852
  %37 = load %"class.xercesc_2_7::DOMNode"*, %"class.xercesc_2_7::DOMNode"** %parent, align 8, !dbg !1854
  %cmp43 = icmp ne %"class.xercesc_2_7::DOMNode"* %37, null, !dbg !1856
  br i1 %cmp43, label %if.then44, label %if.end51, !dbg !1857

if.then44:                                        ; preds = %if.end30
  %38 = load %"class.xercesc_2_7::DOMNode"*, %"class.xercesc_2_7::DOMNode"** %parent, align 8, !dbg !1858
  %39 = load %"class.xercesc_2_7::DOMText"*, %"class.xercesc_2_7::DOMText"** %newText, align 8, !dbg !1859
  %40 = bitcast %"class.xercesc_2_7::DOMText"* %39 to %"class.xercesc_2_7::DOMNode"*, !dbg !1859
  %41 = bitcast %"class.xercesc_2_7::DOMCDATASectionImpl"* %this1 to %"class.xercesc_2_7::DOMNode"* (%"class.xercesc_2_7::DOMCDATASectionImpl"*)***, !dbg !1860
  %vtable45 = load %"class.xercesc_2_7::DOMNode"* (%"class.xercesc_2_7::DOMCDATASectionImpl"*)**, %"class.xercesc_2_7::DOMNode"* (%"class.xercesc_2_7::DOMCDATASectionImpl"*)*** %41, align 8, !dbg !1860
  %vfn46 = getelementptr inbounds %"class.xercesc_2_7::DOMNode"* (%"class.xercesc_2_7::DOMCDATASectionImpl"*)*, %"class.xercesc_2_7::DOMNode"* (%"class.xercesc_2_7::DOMCDATASectionImpl"*)** %vtable45, i64 10, !dbg !1860
  %42 = load %"class.xercesc_2_7::DOMNode"* (%"class.xercesc_2_7::DOMCDATASectionImpl"*)*, %"class.xercesc_2_7::DOMNode"* (%"class.xercesc_2_7::DOMCDATASectionImpl"*)** %vfn46, align 8, !dbg !1860
  %call47 = call %"class.xercesc_2_7::DOMNode"* %42(%"class.xercesc_2_7::DOMCDATASectionImpl"* %this1), !dbg !1860
  %43 = bitcast %"class.xercesc_2_7::DOMNode"* %38 to %"class.xercesc_2_7::DOMNode"* (%"class.xercesc_2_7::DOMNode"*, %"class.xercesc_2_7::DOMNode"*, %"class.xercesc_2_7::DOMNode"*)***, !dbg !1861
  %vtable48 = load %"class.xercesc_2_7::DOMNode"* (%"class.xercesc_2_7::DOMNode"*, %"class.xercesc_2_7::DOMNode"*, %"class.xercesc_2_7::DOMNode"*)**, %"class.xercesc_2_7::DOMNode"* (%"class.xercesc_2_7::DOMNode"*, %"class.xercesc_2_7::DOMNode"*, %"class.xercesc_2_7::DOMNode"*)*** %43, align 8, !dbg !1861
  %vfn49 = getelementptr inbounds %"class.xercesc_2_7::DOMNode"* (%"class.xercesc_2_7::DOMNode"*, %"class.xercesc_2_7::DOMNode"*, %"class.xercesc_2_7::DOMNode"*)*, %"class.xercesc_2_7::DOMNode"* (%"class.xercesc_2_7::DOMNode"*, %"class.xercesc_2_7::DOMNode"*, %"class.xercesc_2_7::DOMNode"*)** %vtable48, i64 14, !dbg !1861
  %44 = load %"class.xercesc_2_7::DOMNode"* (%"class.xercesc_2_7::DOMNode"*, %"class.xercesc_2_7::DOMNode"*, %"class.xercesc_2_7::DOMNode"*)*, %"class.xercesc_2_7::DOMNode"* (%"class.xercesc_2_7::DOMNode"*, %"class.xercesc_2_7::DOMNode"*, %"class.xercesc_2_7::DOMNode"*)** %vfn49, align 8, !dbg !1861
  %call50 = call %"class.xercesc_2_7::DOMNode"* %44(%"class.xercesc_2_7::DOMNode"* %38, %"class.xercesc_2_7::DOMNode"* %40, %"class.xercesc_2_7::DOMNode"* %call47), !dbg !1861
  br label %if.end51, !dbg !1858

if.end51:                                         ; preds = %if.then44, %if.end30
  %fCharacterData52 = getelementptr inbounds %"class.xercesc_2_7::DOMCDATASectionImpl", %"class.xercesc_2_7::DOMCDATASectionImpl"* %this1, i32 0, i32 4, !dbg !1862
  %fDataBuf53 = getelementptr inbounds %"class.xercesc_2_7::DOMCharacterDataImpl", %"class.xercesc_2_7::DOMCharacterDataImpl"* %fCharacterData52, i32 0, i32 0, !dbg !1863
  %45 = load %"class.xercesc_2_7::DOMBuffer"*, %"class.xercesc_2_7::DOMBuffer"** %fDataBuf53, align 8, !dbg !1863
  %46 = load i64, i64* %offset.addr, align 8, !dbg !1864
  %conv54 = trunc i64 %46 to i32, !dbg !1864
  call void @_ZN11xercesc_2_79DOMBuffer4chopEj(%"class.xercesc_2_7::DOMBuffer"* %45, i32 %conv54), !dbg !1865
  %47 = bitcast %"class.xercesc_2_7::DOMCDATASectionImpl"* %this1 to %"class.xercesc_2_7::DOMDocument"* (%"class.xercesc_2_7::DOMCDATASectionImpl"*)***, !dbg !1866
  %vtable55 = load %"class.xercesc_2_7::DOMDocument"* (%"class.xercesc_2_7::DOMCDATASectionImpl"*)**, %"class.xercesc_2_7::DOMDocument"* (%"class.xercesc_2_7::DOMCDATASectionImpl"*)*** %47, align 8, !dbg !1866
  %vfn56 = getelementptr inbounds %"class.xercesc_2_7::DOMDocument"* (%"class.xercesc_2_7::DOMCDATASectionImpl"*)*, %"class.xercesc_2_7::DOMDocument"* (%"class.xercesc_2_7::DOMCDATASectionImpl"*)** %vtable55, i64 12, !dbg !1866
  %48 = load %"class.xercesc_2_7::DOMDocument"* (%"class.xercesc_2_7::DOMCDATASectionImpl"*)*, %"class.xercesc_2_7::DOMDocument"* (%"class.xercesc_2_7::DOMCDATASectionImpl"*)** %vfn56, align 8, !dbg !1866
  %call57 = call %"class.xercesc_2_7::DOMDocument"* %48(%"class.xercesc_2_7::DOMCDATASectionImpl"* %this1), !dbg !1866
  %cmp58 = icmp ne %"class.xercesc_2_7::DOMDocument"* %call57, null, !dbg !1868
  br i1 %cmp58, label %if.then59, label %if.end77, !dbg !1869

if.then59:                                        ; preds = %if.end51
  call void @llvm.dbg.declare(metadata %"class.xercesc_2_7::RefVectorOf"** %ranges, metadata !1870, metadata !DIExpression()), !dbg !1876
  %49 = bitcast %"class.xercesc_2_7::DOMCDATASectionImpl"* %this1 to %"class.xercesc_2_7::DOMDocument"* (%"class.xercesc_2_7::DOMCDATASectionImpl"*)***, !dbg !1877
  %vtable60 = load %"class.xercesc_2_7::DOMDocument"* (%"class.xercesc_2_7::DOMCDATASectionImpl"*)**, %"class.xercesc_2_7::DOMDocument"* (%"class.xercesc_2_7::DOMCDATASectionImpl"*)*** %49, align 8, !dbg !1877
  %vfn61 = getelementptr inbounds %"class.xercesc_2_7::DOMDocument"* (%"class.xercesc_2_7::DOMCDATASectionImpl"*)*, %"class.xercesc_2_7::DOMDocument"* (%"class.xercesc_2_7::DOMCDATASectionImpl"*)** %vtable60, i64 12, !dbg !1877
  %50 = load %"class.xercesc_2_7::DOMDocument"* (%"class.xercesc_2_7::DOMCDATASectionImpl"*)*, %"class.xercesc_2_7::DOMDocument"* (%"class.xercesc_2_7::DOMCDATASectionImpl"*)** %vfn61, align 8, !dbg !1877
  %call62 = call %"class.xercesc_2_7::DOMDocument"* %50(%"class.xercesc_2_7::DOMCDATASectionImpl"* %this1), !dbg !1877
  %51 = bitcast %"class.xercesc_2_7::DOMDocument"* %call62 to %"class.xercesc_2_7::DOMDocumentImpl"*, !dbg !1878
  %52 = bitcast %"class.xercesc_2_7::DOMDocumentImpl"* %51 to %"class.xercesc_2_7::RefVectorOf"* (%"class.xercesc_2_7::DOMDocumentImpl"*)***, !dbg !1879
  %vtable63 = load %"class.xercesc_2_7::RefVectorOf"* (%"class.xercesc_2_7::DOMDocumentImpl"*)**, %"class.xercesc_2_7::RefVectorOf"* (%"class.xercesc_2_7::DOMDocumentImpl"*)*** %52, align 8, !dbg !1879
  %vfn64 = getelementptr inbounds %"class.xercesc_2_7::RefVectorOf"* (%"class.xercesc_2_7::DOMDocumentImpl"*)*, %"class.xercesc_2_7::RefVectorOf"* (%"class.xercesc_2_7::DOMDocumentImpl"*)** %vtable63, i64 82, !dbg !1879
  %53 = load %"class.xercesc_2_7::RefVectorOf"* (%"class.xercesc_2_7::DOMDocumentImpl"*)*, %"class.xercesc_2_7::RefVectorOf"* (%"class.xercesc_2_7::DOMDocumentImpl"*)** %vfn64, align 8, !dbg !1879
  %call65 = call %"class.xercesc_2_7::RefVectorOf"* %53(%"class.xercesc_2_7::DOMDocumentImpl"* %51), !dbg !1879
  store %"class.xercesc_2_7::RefVectorOf"* %call65, %"class.xercesc_2_7::RefVectorOf"** %ranges, align 8, !dbg !1876
  %54 = load %"class.xercesc_2_7::RefVectorOf"*, %"class.xercesc_2_7::RefVectorOf"** %ranges, align 8, !dbg !1880
  %cmp66 = icmp ne %"class.xercesc_2_7::RefVectorOf"* %54, null, !dbg !1882
  br i1 %cmp66, label %if.then67, label %if.end76, !dbg !1883

if.then67:                                        ; preds = %if.then59
  call void @llvm.dbg.declare(metadata i64* %sz, metadata !1884, metadata !DIExpression()), !dbg !1886
  %55 = load %"class.xercesc_2_7::RefVectorOf"*, %"class.xercesc_2_7::RefVectorOf"** %ranges, align 8, !dbg !1887
  %56 = bitcast %"class.xercesc_2_7::RefVectorOf"* %55 to %"class.xercesc_2_7::BaseRefVectorOf"*, !dbg !1888
  %call68 = call i32 @_ZNK11xercesc_2_715BaseRefVectorOfINS_12DOMRangeImplEE4sizeEv(%"class.xercesc_2_7::BaseRefVectorOf"* %56), !dbg !1888
  %conv69 = zext i32 %call68 to i64, !dbg !1887
  store i64 %conv69, i64* %sz, align 8, !dbg !1886
  %57 = load i64, i64* %sz, align 8, !dbg !1889
  %cmp70 = icmp ne i64 %57, 0, !dbg !1891
  br i1 %cmp70, label %if.then71, label %if.end75, !dbg !1892

if.then71:                                        ; preds = %if.then67
  call void @llvm.dbg.declare(metadata i64* %i, metadata !1893, metadata !DIExpression()), !dbg !1896
  store i64 0, i64* %i, align 8, !dbg !1896
  br label %for.cond, !dbg !1897

for.cond:                                         ; preds = %for.inc, %if.then71
  %58 = load i64, i64* %i, align 8, !dbg !1898
  %59 = load i64, i64* %sz, align 8, !dbg !1900
  %cmp72 = icmp ult i64 %58, %59, !dbg !1901
  br i1 %cmp72, label %for.body, label %for.end, !dbg !1902

for.body:                                         ; preds = %for.cond
  %60 = load %"class.xercesc_2_7::RefVectorOf"*, %"class.xercesc_2_7::RefVectorOf"** %ranges, align 8, !dbg !1903
  %61 = bitcast %"class.xercesc_2_7::RefVectorOf"* %60 to %"class.xercesc_2_7::BaseRefVectorOf"*, !dbg !1905
  %62 = load i64, i64* %i, align 8, !dbg !1906
  %conv73 = trunc i64 %62 to i32, !dbg !1906
  %call74 = call %"class.xercesc_2_7::DOMRangeImpl"* @_ZN11xercesc_2_715BaseRefVectorOfINS_12DOMRangeImplEE9elementAtEj(%"class.xercesc_2_7::BaseRefVectorOf"* %61, i32 %conv73), !dbg !1905
  %63 = bitcast %"class.xercesc_2_7::DOMCDATASectionImpl"* %this1 to %"class.xercesc_2_7::DOMNode"*, !dbg !1907
  %64 = load %"class.xercesc_2_7::DOMText"*, %"class.xercesc_2_7::DOMText"** %newText, align 8, !dbg !1908
  %65 = bitcast %"class.xercesc_2_7::DOMText"* %64 to %"class.xercesc_2_7::DOMNode"*, !dbg !1908
  %66 = load i64, i64* %offset.addr, align 8, !dbg !1909
  call void @_ZN11xercesc_2_712DOMRangeImpl15updateSplitInfoEPNS_7DOMNodeES2_m(%"class.xercesc_2_7::DOMRangeImpl"* %call74, %"class.xercesc_2_7::DOMNode"* %63, %"class.xercesc_2_7::DOMNode"* %65, i64 %66), !dbg !1910
  br label %for.inc, !dbg !1911

for.inc:                                          ; preds = %for.body
  %67 = load i64, i64* %i, align 8, !dbg !1912
  %inc = add i64 %67, 1, !dbg !1912
  store i64 %inc, i64* %i, align 8, !dbg !1912
  br label %for.cond, !dbg !1913, !llvm.loop !1914

for.end:                                          ; preds = %for.cond
  br label %if.end75, !dbg !1916

if.end75:                                         ; preds = %for.end, %if.then67
  br label %if.end76, !dbg !1917

if.end76:                                         ; preds = %if.end75, %if.then59
  br label %if.end77, !dbg !1918

if.end77:                                         ; preds = %if.end76, %if.end51
  %68 = load %"class.xercesc_2_7::DOMText"*, %"class.xercesc_2_7::DOMText"** %newText, align 8, !dbg !1919
  ret %"class.xercesc_2_7::DOMText"* %68, !dbg !1920

eh.resume:                                        ; preds = %lpad15, %lpad
  %exn = load i8*, i8** %exn.slot, align 8, !dbg !1823
  %sel = load i32, i32* %ehselector.slot, align 4, !dbg !1823
  %lpad.val = insertvalue { i8*, i32 } undef, i8* %exn, 0, !dbg !1823
  %lpad.val78 = insertvalue { i8*, i32 } %lpad.val, i32 %sel, 1, !dbg !1823
  resume { i8*, i32 } %lpad.val78, !dbg !1823
}

; Function Attrs: noinline nounwind uwtable
define linkonce_odr dso_local zeroext i1 @_ZNK11xercesc_2_711DOMNodeImpl10isReadOnlyEv(%"class.xercesc_2_7::DOMNodeImpl"* %this) #1 comdat align 2 !dbg !1921 {
entry:
  %this.addr = alloca %"class.xercesc_2_7::DOMNodeImpl"*, align 8
  store %"class.xercesc_2_7::DOMNodeImpl"* %this, %"class.xercesc_2_7::DOMNodeImpl"** %this.addr, align 8
  call void @llvm.dbg.declare(metadata %"class.xercesc_2_7::DOMNodeImpl"** %this.addr, metadata !1922, metadata !DIExpression()), !dbg !1923
  %this1 = load %"class.xercesc_2_7::DOMNodeImpl"*, %"class.xercesc_2_7::DOMNodeImpl"** %this.addr, align 8
  %flags = getelementptr inbounds %"class.xercesc_2_7::DOMNodeImpl", %"class.xercesc_2_7::DOMNodeImpl"* %this1, i32 0, i32 1, !dbg !1924
  %0 = load i16, i16* %flags, align 8, !dbg !1924
  %conv = zext i16 %0 to i32, !dbg !1924
  %1 = load i16, i16* @_ZN11xercesc_2_711DOMNodeImpl8READONLYE, align 2, !dbg !1925
  %conv2 = zext i16 %1 to i32, !dbg !1925
  %and = and i32 %conv, %conv2, !dbg !1926
  %cmp = icmp ne i32 %and, 0, !dbg !1927
  ret i1 %cmp, !dbg !1928
}

declare dso_local i8* @__cxa_allocate_exception(i64)

; Function Attrs: noinline nounwind uwtable
define linkonce_odr dso_local %"class.xercesc_2_7::MemoryManager"* @_ZNK11xercesc_2_715DOMDocumentImpl16getMemoryManagerEv(%"class.xercesc_2_7::DOMDocumentImpl"* %this) #1 comdat align 2 !dbg !1929 {
entry:
  %this.addr = alloca %"class.xercesc_2_7::DOMDocumentImpl"*, align 8
  store %"class.xercesc_2_7::DOMDocumentImpl"* %this, %"class.xercesc_2_7::DOMDocumentImpl"** %this.addr, align 8
  call void @llvm.dbg.declare(metadata %"class.xercesc_2_7::DOMDocumentImpl"** %this.addr, metadata !1938, metadata !DIExpression()), !dbg !1940
  %this1 = load %"class.xercesc_2_7::DOMDocumentImpl"*, %"class.xercesc_2_7::DOMDocumentImpl"** %this.addr, align 8
  %fMemoryManager = getelementptr inbounds %"class.xercesc_2_7::DOMDocumentImpl", %"class.xercesc_2_7::DOMDocumentImpl"* %this1, i32 0, i32 25, !dbg !1941
  %0 = load %"class.xercesc_2_7::MemoryManager"*, %"class.xercesc_2_7::MemoryManager"** %fMemoryManager, align 8, !dbg !1941
  ret %"class.xercesc_2_7::MemoryManager"* %0, !dbg !1942
}

declare dso_local void @_ZN11xercesc_2_712DOMExceptionC1EsPKtPNS_13MemoryManagerE(%"class.xercesc_2_7::DOMException"*, i16 signext, i16*, %"class.xercesc_2_7::MemoryManager"*) unnamed_addr #4

declare dso_local void @__cxa_free_exception(i8*)

; Function Attrs: nounwind
declare dso_local void @_ZN11xercesc_2_712DOMExceptionD1Ev(%"class.xercesc_2_7::DOMException"*) unnamed_addr #5

declare dso_local void @__cxa_throw(i8*, i8*, i8*)

; Function Attrs: noinline nounwind uwtable
define linkonce_odr dso_local i32 @_ZNK11xercesc_2_79DOMBuffer6getLenEv(%"class.xercesc_2_7::DOMBuffer"* %this) #1 comdat align 2 !dbg !1943 {
entry:
  %this.addr = alloca %"class.xercesc_2_7::DOMBuffer"*, align 8
  store %"class.xercesc_2_7::DOMBuffer"* %this, %"class.xercesc_2_7::DOMBuffer"** %this.addr, align 8
  call void @llvm.dbg.declare(metadata %"class.xercesc_2_7::DOMBuffer"** %this.addr, metadata !1944, metadata !DIExpression()), !dbg !1946
  %this1 = load %"class.xercesc_2_7::DOMBuffer"*, %"class.xercesc_2_7::DOMBuffer"** %this.addr, align 8
  %fIndex = getelementptr inbounds %"class.xercesc_2_7::DOMBuffer", %"class.xercesc_2_7::DOMBuffer"* %this1, i32 0, i32 1, !dbg !1947
  %0 = load i32, i32* %fIndex, align 8, !dbg !1947
  ret i32 %0, !dbg !1948
}

; Function Attrs: noinline nounwind uwtable
define linkonce_odr dso_local void @_ZN11xercesc_2_79DOMBuffer4chopEj(%"class.xercesc_2_7::DOMBuffer"* %this, i32 %count) #1 comdat align 2 !dbg !1949 {
entry:
  %this.addr = alloca %"class.xercesc_2_7::DOMBuffer"*, align 8
  %count.addr = alloca i32, align 4
  store %"class.xercesc_2_7::DOMBuffer"* %this, %"class.xercesc_2_7::DOMBuffer"** %this.addr, align 8
  call void @llvm.dbg.declare(metadata %"class.xercesc_2_7::DOMBuffer"** %this.addr, metadata !1950, metadata !DIExpression()), !dbg !1951
  store i32 %count, i32* %count.addr, align 4
  call void @llvm.dbg.declare(metadata i32* %count.addr, metadata !1952, metadata !DIExpression()), !dbg !1953
  %this1 = load %"class.xercesc_2_7::DOMBuffer"*, %"class.xercesc_2_7::DOMBuffer"** %this.addr, align 8
  %fBuffer = getelementptr inbounds %"class.xercesc_2_7::DOMBuffer", %"class.xercesc_2_7::DOMBuffer"* %this1, i32 0, i32 0, !dbg !1954
  %0 = load i16*, i16** %fBuffer, align 8, !dbg !1954
  %1 = load i32, i32* %count.addr, align 4, !dbg !1955
  %idxprom = zext i32 %1 to i64, !dbg !1954
  %arrayidx = getelementptr inbounds i16, i16* %0, i64 %idxprom, !dbg !1954
  store i16 0, i16* %arrayidx, align 2, !dbg !1956
  %2 = load i32, i32* %count.addr, align 4, !dbg !1957
  %fIndex = getelementptr inbounds %"class.xercesc_2_7::DOMBuffer", %"class.xercesc_2_7::DOMBuffer"* %this1, i32 0, i32 1, !dbg !1958
  store i32 %2, i32* %fIndex, align 8, !dbg !1959
  ret void, !dbg !1960
}

; Function Attrs: noinline nounwind uwtable
define linkonce_odr dso_local i32 @_ZNK11xercesc_2_715BaseRefVectorOfINS_12DOMRangeImplEE4sizeEv(%"class.xercesc_2_7::BaseRefVectorOf"* %this) #1 comdat align 2 !dbg !1961 {
entry:
  %this.addr = alloca %"class.xercesc_2_7::BaseRefVectorOf"*, align 8
  store %"class.xercesc_2_7::BaseRefVectorOf"* %this, %"class.xercesc_2_7::BaseRefVectorOf"** %this.addr, align 8
  call void @llvm.dbg.declare(metadata %"class.xercesc_2_7::BaseRefVectorOf"** %this.addr, metadata !1970, metadata !DIExpression()), !dbg !1972
  %this1 = load %"class.xercesc_2_7::BaseRefVectorOf"*, %"class.xercesc_2_7::BaseRefVectorOf"** %this.addr, align 8
  %fCurCount = getelementptr inbounds %"class.xercesc_2_7::BaseRefVectorOf", %"class.xercesc_2_7::BaseRefVectorOf"* %this1, i32 0, i32 2, !dbg !1973
  %0 = load i32, i32* %fCurCount, align 4, !dbg !1973
  ret i32 %0, !dbg !1974
}

; Function Attrs: noinline uwtable
define linkonce_odr dso_local %"class.xercesc_2_7::DOMRangeImpl"* @_ZN11xercesc_2_715BaseRefVectorOfINS_12DOMRangeImplEE9elementAtEj(%"class.xercesc_2_7::BaseRefVectorOf"* %this, i32 %getAt) #3 comdat align 2 personality i8* bitcast (i32 (...)* @__gxx_personality_v0 to i8*) !dbg !1975 {
entry:
  %this.addr = alloca %"class.xercesc_2_7::BaseRefVectorOf"*, align 8
  %getAt.addr = alloca i32, align 4
  %exn.slot = alloca i8*
  %ehselector.slot = alloca i32
  store %"class.xercesc_2_7::BaseRefVectorOf"* %this, %"class.xercesc_2_7::BaseRefVectorOf"** %this.addr, align 8
  call void @llvm.dbg.declare(metadata %"class.xercesc_2_7::BaseRefVectorOf"** %this.addr, metadata !1983, metadata !DIExpression()), !dbg !1985
  store i32 %getAt, i32* %getAt.addr, align 4
  call void @llvm.dbg.declare(metadata i32* %getAt.addr, metadata !1986, metadata !DIExpression()), !dbg !1987
  %this1 = load %"class.xercesc_2_7::BaseRefVectorOf"*, %"class.xercesc_2_7::BaseRefVectorOf"** %this.addr, align 8
  %0 = load i32, i32* %getAt.addr, align 4, !dbg !1988
  %fCurCount = getelementptr inbounds %"class.xercesc_2_7::BaseRefVectorOf", %"class.xercesc_2_7::BaseRefVectorOf"* %this1, i32 0, i32 2, !dbg !1990
  %1 = load i32, i32* %fCurCount, align 4, !dbg !1990
  %cmp = icmp uge i32 %0, %1, !dbg !1991
  br i1 %cmp, label %if.then, label %if.end, !dbg !1992

if.then:                                          ; preds = %entry
  %exception = call i8* @__cxa_allocate_exception(i64 48) #7, !dbg !1993
  %2 = bitcast i8* %exception to %"class.xercesc_2_7::ArrayIndexOutOfBoundsException"*, !dbg !1993
  %fMemoryManager = getelementptr inbounds %"class.xercesc_2_7::BaseRefVectorOf", %"class.xercesc_2_7::BaseRefVectorOf"* %this1, i32 0, i32 5, !dbg !1993
  %3 = load %"class.xercesc_2_7::MemoryManager"*, %"class.xercesc_2_7::MemoryManager"** %fMemoryManager, align 8, !dbg !1993
  invoke void @_ZN11xercesc_2_730ArrayIndexOutOfBoundsExceptionC2EPKcjNS_10XMLExcepts5CodesEPNS_13MemoryManagerE(%"class.xercesc_2_7::ArrayIndexOutOfBoundsException"* %2, i8* getelementptr inbounds ([33 x i8], [33 x i8]* @.str, i64 0, i64 0), i32 249, i32 116, %"class.xercesc_2_7::MemoryManager"* %3)
          to label %invoke.cont unwind label %lpad, !dbg !1993

invoke.cont:                                      ; preds = %if.then
  call void @__cxa_throw(i8* %exception, i8* bitcast ({ i8*, i8*, i8* }* @_ZTIN11xercesc_2_730ArrayIndexOutOfBoundsExceptionE to i8*), i8* bitcast (void (%"class.xercesc_2_7::ArrayIndexOutOfBoundsException"*)* @_ZN11xercesc_2_730ArrayIndexOutOfBoundsExceptionD2Ev to i8*)) #9, !dbg !1993
  unreachable, !dbg !1993

lpad:                                             ; preds = %if.then
  %4 = landingpad { i8*, i32 }
          cleanup, !dbg !1994
  %5 = extractvalue { i8*, i32 } %4, 0, !dbg !1994
  store i8* %5, i8** %exn.slot, align 8, !dbg !1994
  %6 = extractvalue { i8*, i32 } %4, 1, !dbg !1994
  store i32 %6, i32* %ehselector.slot, align 4, !dbg !1994
  call void @__cxa_free_exception(i8* %exception) #7, !dbg !1993
  br label %eh.resume, !dbg !1993

if.end:                                           ; preds = %entry
  %fElemList = getelementptr inbounds %"class.xercesc_2_7::BaseRefVectorOf", %"class.xercesc_2_7::BaseRefVectorOf"* %this1, i32 0, i32 4, !dbg !1995
  %7 = load %"class.xercesc_2_7::DOMRangeImpl"**, %"class.xercesc_2_7::DOMRangeImpl"*** %fElemList, align 8, !dbg !1995
  %8 = load i32, i32* %getAt.addr, align 4, !dbg !1996
  %idxprom = zext i32 %8 to i64, !dbg !1995
  %arrayidx = getelementptr inbounds %"class.xercesc_2_7::DOMRangeImpl"*, %"class.xercesc_2_7::DOMRangeImpl"** %7, i64 %idxprom, !dbg !1995
  %9 = load %"class.xercesc_2_7::DOMRangeImpl"*, %"class.xercesc_2_7::DOMRangeImpl"** %arrayidx, align 8, !dbg !1995
  ret %"class.xercesc_2_7::DOMRangeImpl"* %9, !dbg !1997

eh.resume:                                        ; preds = %lpad
  %exn = load i8*, i8** %exn.slot, align 8, !dbg !1993
  %sel = load i32, i32* %ehselector.slot, align 4, !dbg !1993
  %lpad.val = insertvalue { i8*, i32 } undef, i8* %exn, 0, !dbg !1993
  %lpad.val2 = insertvalue { i8*, i32 } %lpad.val, i32 %sel, 1, !dbg !1993
  resume { i8*, i32 } %lpad.val2, !dbg !1993
}

declare dso_local void @_ZN11xercesc_2_712DOMRangeImpl15updateSplitInfoEPNS_7DOMNodeES2_m(%"class.xercesc_2_7::DOMRangeImpl"*, %"class.xercesc_2_7::DOMNode"*, %"class.xercesc_2_7::DOMNode"*, i64) #4

; Function Attrs: noinline uwtable
define dso_local zeroext i1 @_ZNK11xercesc_2_719DOMCDATASectionImpl31getIsWhitespaceInElementContentEv(%"class.xercesc_2_7::DOMCDATASectionImpl"* %this) unnamed_addr #3 align 2 !dbg !1998 {
entry:
  %this.addr = alloca %"class.xercesc_2_7::DOMCDATASectionImpl"*, align 8
  store %"class.xercesc_2_7::DOMCDATASectionImpl"* %this, %"class.xercesc_2_7::DOMCDATASectionImpl"** %this.addr, align 8
  call void @llvm.dbg.declare(metadata %"class.xercesc_2_7::DOMCDATASectionImpl"** %this.addr, metadata !1999, metadata !DIExpression()), !dbg !2000
  %this1 = load %"class.xercesc_2_7::DOMCDATASectionImpl"*, %"class.xercesc_2_7::DOMCDATASectionImpl"** %this.addr, align 8
  %0 = bitcast %"class.xercesc_2_7::DOMCDATASectionImpl"* %this1 to i1 (%"class.xercesc_2_7::DOMCDATASectionImpl"*)***, !dbg !2001
  %vtable = load i1 (%"class.xercesc_2_7::DOMCDATASectionImpl"*)**, i1 (%"class.xercesc_2_7::DOMCDATASectionImpl"*)*** %0, align 8, !dbg !2001
  %vfn = getelementptr inbounds i1 (%"class.xercesc_2_7::DOMCDATASectionImpl"*)*, i1 (%"class.xercesc_2_7::DOMCDATASectionImpl"*)** %vtable, i64 52, !dbg !2001
  %1 = load i1 (%"class.xercesc_2_7::DOMCDATASectionImpl"*)*, i1 (%"class.xercesc_2_7::DOMCDATASectionImpl"*)** %vfn, align 8, !dbg !2001
  %call = call zeroext i1 %1(%"class.xercesc_2_7::DOMCDATASectionImpl"* %this1), !dbg !2001
  ret i1 %call, !dbg !2002
}

; Function Attrs: noinline uwtable
define dso_local i16* @_ZN11xercesc_2_719DOMCDATASectionImpl12getWholeTextEv(%"class.xercesc_2_7::DOMCDATASectionImpl"* %this) unnamed_addr #3 align 2 personality i8* bitcast (i32 (...)* @__gxx_personality_v0 to i8*) !dbg !2003 {
entry:
  %this.addr = alloca %"class.xercesc_2_7::DOMCDATASectionImpl"*, align 8
  %exn.slot = alloca i8*
  %ehselector.slot = alloca i32
  store %"class.xercesc_2_7::DOMCDATASectionImpl"* %this, %"class.xercesc_2_7::DOMCDATASectionImpl"** %this.addr, align 8
  call void @llvm.dbg.declare(metadata %"class.xercesc_2_7::DOMCDATASectionImpl"** %this.addr, metadata !2004, metadata !DIExpression()), !dbg !2005
  %this1 = load %"class.xercesc_2_7::DOMCDATASectionImpl"*, %"class.xercesc_2_7::DOMCDATASectionImpl"** %this.addr, align 8
  %exception = call i8* @__cxa_allocate_exception(i64 40) #7, !dbg !2006
  %0 = bitcast i8* %exception to %"class.xercesc_2_7::DOMException"*, !dbg !2006
  %1 = bitcast %"class.xercesc_2_7::DOMCDATASectionImpl"* %this1 to %"class.xercesc_2_7::DOMDocument"* (%"class.xercesc_2_7::DOMCDATASectionImpl"*)***, !dbg !2007
  %vtable = load %"class.xercesc_2_7::DOMDocument"* (%"class.xercesc_2_7::DOMCDATASectionImpl"*)**, %"class.xercesc_2_7::DOMDocument"* (%"class.xercesc_2_7::DOMCDATASectionImpl"*)*** %1, align 8, !dbg !2007
  %vfn = getelementptr inbounds %"class.xercesc_2_7::DOMDocument"* (%"class.xercesc_2_7::DOMCDATASectionImpl"*)*, %"class.xercesc_2_7::DOMDocument"* (%"class.xercesc_2_7::DOMCDATASectionImpl"*)** %vtable, i64 12, !dbg !2007
  %2 = load %"class.xercesc_2_7::DOMDocument"* (%"class.xercesc_2_7::DOMCDATASectionImpl"*)*, %"class.xercesc_2_7::DOMDocument"* (%"class.xercesc_2_7::DOMCDATASectionImpl"*)** %vfn, align 8, !dbg !2007
  %call = invoke %"class.xercesc_2_7::DOMDocument"* %2(%"class.xercesc_2_7::DOMCDATASectionImpl"* %this1)
          to label %invoke.cont unwind label %lpad, !dbg !2007

invoke.cont:                                      ; preds = %entry
  %3 = bitcast %"class.xercesc_2_7::DOMDocument"* %call to %"class.xercesc_2_7::DOMDocumentImpl"*, !dbg !2007
  %tobool = icmp ne %"class.xercesc_2_7::DOMDocumentImpl"* %3, null, !dbg !2007
  br i1 %tobool, label %cond.true, label %cond.false, !dbg !2007

cond.true:                                        ; preds = %invoke.cont
  %4 = bitcast %"class.xercesc_2_7::DOMCDATASectionImpl"* %this1 to %"class.xercesc_2_7::DOMDocument"* (%"class.xercesc_2_7::DOMCDATASectionImpl"*)***, !dbg !2007
  %vtable2 = load %"class.xercesc_2_7::DOMDocument"* (%"class.xercesc_2_7::DOMCDATASectionImpl"*)**, %"class.xercesc_2_7::DOMDocument"* (%"class.xercesc_2_7::DOMCDATASectionImpl"*)*** %4, align 8, !dbg !2007
  %vfn3 = getelementptr inbounds %"class.xercesc_2_7::DOMDocument"* (%"class.xercesc_2_7::DOMCDATASectionImpl"*)*, %"class.xercesc_2_7::DOMDocument"* (%"class.xercesc_2_7::DOMCDATASectionImpl"*)** %vtable2, i64 12, !dbg !2007
  %5 = load %"class.xercesc_2_7::DOMDocument"* (%"class.xercesc_2_7::DOMCDATASectionImpl"*)*, %"class.xercesc_2_7::DOMDocument"* (%"class.xercesc_2_7::DOMCDATASectionImpl"*)** %vfn3, align 8, !dbg !2007
  %call5 = invoke %"class.xercesc_2_7::DOMDocument"* %5(%"class.xercesc_2_7::DOMCDATASectionImpl"* %this1)
          to label %invoke.cont4 unwind label %lpad, !dbg !2007

invoke.cont4:                                     ; preds = %cond.true
  %6 = bitcast %"class.xercesc_2_7::DOMDocument"* %call5 to %"class.xercesc_2_7::DOMDocumentImpl"*, !dbg !2007
  %call7 = invoke %"class.xercesc_2_7::MemoryManager"* @_ZNK11xercesc_2_715DOMDocumentImpl16getMemoryManagerEv(%"class.xercesc_2_7::DOMDocumentImpl"* %6)
          to label %invoke.cont6 unwind label %lpad, !dbg !2007

invoke.cont6:                                     ; preds = %invoke.cont4
  br label %cond.end, !dbg !2007

cond.false:                                       ; preds = %invoke.cont
  %7 = load %"class.xercesc_2_7::MemoryManager"*, %"class.xercesc_2_7::MemoryManager"** @_ZN11xercesc_2_716XMLPlatformUtils15fgMemoryManagerE, align 8, !dbg !2007
  br label %cond.end, !dbg !2007

cond.end:                                         ; preds = %cond.false, %invoke.cont6
  %cond = phi %"class.xercesc_2_7::MemoryManager"* [ %call7, %invoke.cont6 ], [ %7, %cond.false ], !dbg !2007
  invoke void @_ZN11xercesc_2_712DOMExceptionC1EsPKtPNS_13MemoryManagerE(%"class.xercesc_2_7::DOMException"* %0, i16 signext 9, i16* null, %"class.xercesc_2_7::MemoryManager"* %cond)
          to label %invoke.cont8 unwind label %lpad, !dbg !2008

invoke.cont8:                                     ; preds = %cond.end
  call void @__cxa_throw(i8* %exception, i8* bitcast (i8** @_ZTIN11xercesc_2_712DOMExceptionE to i8*), i8* bitcast (void (%"class.xercesc_2_7::DOMException"*)* @_ZN11xercesc_2_712DOMExceptionD1Ev to i8*)) #9, !dbg !2006
  unreachable, !dbg !2006

lpad:                                             ; preds = %cond.end, %invoke.cont4, %cond.true, %entry
  %8 = landingpad { i8*, i32 }
          cleanup, !dbg !2009
  %9 = extractvalue { i8*, i32 } %8, 0, !dbg !2009
  store i8* %9, i8** %exn.slot, align 8, !dbg !2009
  %10 = extractvalue { i8*, i32 } %8, 1, !dbg !2009
  store i32 %10, i32* %ehselector.slot, align 4, !dbg !2009
  call void @__cxa_free_exception(i8* %exception) #7, !dbg !2006
  br label %eh.resume, !dbg !2006

eh.resume:                                        ; preds = %lpad
  %exn = load i8*, i8** %exn.slot, align 8, !dbg !2006
  %sel = load i32, i32* %ehselector.slot, align 4, !dbg !2006
  %lpad.val = insertvalue { i8*, i32 } undef, i8* %exn, 0, !dbg !2006
  %lpad.val9 = insertvalue { i8*, i32 } %lpad.val, i32 %sel, 1, !dbg !2006
  resume { i8*, i32 } %lpad.val9, !dbg !2006
}

; Function Attrs: noinline uwtable
define dso_local %"class.xercesc_2_7::DOMText"* @_ZN11xercesc_2_719DOMCDATASectionImpl16replaceWholeTextEPKt(%"class.xercesc_2_7::DOMCDATASectionImpl"* %this, i16* %0) unnamed_addr #3 align 2 personality i8* bitcast (i32 (...)* @__gxx_personality_v0 to i8*) !dbg !2010 {
entry:
  %this.addr = alloca %"class.xercesc_2_7::DOMCDATASectionImpl"*, align 8
  %.addr = alloca i16*, align 8
  %exn.slot = alloca i8*
  %ehselector.slot = alloca i32
  store %"class.xercesc_2_7::DOMCDATASectionImpl"* %this, %"class.xercesc_2_7::DOMCDATASectionImpl"** %this.addr, align 8
  call void @llvm.dbg.declare(metadata %"class.xercesc_2_7::DOMCDATASectionImpl"** %this.addr, metadata !2011, metadata !DIExpression()), !dbg !2012
  store i16* %0, i16** %.addr, align 8
  call void @llvm.dbg.declare(metadata i16** %.addr, metadata !2013, metadata !DIExpression()), !dbg !2014
  %this1 = load %"class.xercesc_2_7::DOMCDATASectionImpl"*, %"class.xercesc_2_7::DOMCDATASectionImpl"** %this.addr, align 8
  %exception = call i8* @__cxa_allocate_exception(i64 40) #7, !dbg !2015
  %1 = bitcast i8* %exception to %"class.xercesc_2_7::DOMException"*, !dbg !2015
  %2 = bitcast %"class.xercesc_2_7::DOMCDATASectionImpl"* %this1 to %"class.xercesc_2_7::DOMDocument"* (%"class.xercesc_2_7::DOMCDATASectionImpl"*)***, !dbg !2016
  %vtable = load %"class.xercesc_2_7::DOMDocument"* (%"class.xercesc_2_7::DOMCDATASectionImpl"*)**, %"class.xercesc_2_7::DOMDocument"* (%"class.xercesc_2_7::DOMCDATASectionImpl"*)*** %2, align 8, !dbg !2016
  %vfn = getelementptr inbounds %"class.xercesc_2_7::DOMDocument"* (%"class.xercesc_2_7::DOMCDATASectionImpl"*)*, %"class.xercesc_2_7::DOMDocument"* (%"class.xercesc_2_7::DOMCDATASectionImpl"*)** %vtable, i64 12, !dbg !2016
  %3 = load %"class.xercesc_2_7::DOMDocument"* (%"class.xercesc_2_7::DOMCDATASectionImpl"*)*, %"class.xercesc_2_7::DOMDocument"* (%"class.xercesc_2_7::DOMCDATASectionImpl"*)** %vfn, align 8, !dbg !2016
  %call = invoke %"class.xercesc_2_7::DOMDocument"* %3(%"class.xercesc_2_7::DOMCDATASectionImpl"* %this1)
          to label %invoke.cont unwind label %lpad, !dbg !2016

invoke.cont:                                      ; preds = %entry
  %4 = bitcast %"class.xercesc_2_7::DOMDocument"* %call to %"class.xercesc_2_7::DOMDocumentImpl"*, !dbg !2016
  %tobool = icmp ne %"class.xercesc_2_7::DOMDocumentImpl"* %4, null, !dbg !2016
  br i1 %tobool, label %cond.true, label %cond.false, !dbg !2016

cond.true:                                        ; preds = %invoke.cont
  %5 = bitcast %"class.xercesc_2_7::DOMCDATASectionImpl"* %this1 to %"class.xercesc_2_7::DOMDocument"* (%"class.xercesc_2_7::DOMCDATASectionImpl"*)***, !dbg !2016
  %vtable2 = load %"class.xercesc_2_7::DOMDocument"* (%"class.xercesc_2_7::DOMCDATASectionImpl"*)**, %"class.xercesc_2_7::DOMDocument"* (%"class.xercesc_2_7::DOMCDATASectionImpl"*)*** %5, align 8, !dbg !2016
  %vfn3 = getelementptr inbounds %"class.xercesc_2_7::DOMDocument"* (%"class.xercesc_2_7::DOMCDATASectionImpl"*)*, %"class.xercesc_2_7::DOMDocument"* (%"class.xercesc_2_7::DOMCDATASectionImpl"*)** %vtable2, i64 12, !dbg !2016
  %6 = load %"class.xercesc_2_7::DOMDocument"* (%"class.xercesc_2_7::DOMCDATASectionImpl"*)*, %"class.xercesc_2_7::DOMDocument"* (%"class.xercesc_2_7::DOMCDATASectionImpl"*)** %vfn3, align 8, !dbg !2016
  %call5 = invoke %"class.xercesc_2_7::DOMDocument"* %6(%"class.xercesc_2_7::DOMCDATASectionImpl"* %this1)
          to label %invoke.cont4 unwind label %lpad, !dbg !2016

invoke.cont4:                                     ; preds = %cond.true
  %7 = bitcast %"class.xercesc_2_7::DOMDocument"* %call5 to %"class.xercesc_2_7::DOMDocumentImpl"*, !dbg !2016
  %call7 = invoke %"class.xercesc_2_7::MemoryManager"* @_ZNK11xercesc_2_715DOMDocumentImpl16getMemoryManagerEv(%"class.xercesc_2_7::DOMDocumentImpl"* %7)
          to label %invoke.cont6 unwind label %lpad, !dbg !2016

invoke.cont6:                                     ; preds = %invoke.cont4
  br label %cond.end, !dbg !2016

cond.false:                                       ; preds = %invoke.cont
  %8 = load %"class.xercesc_2_7::MemoryManager"*, %"class.xercesc_2_7::MemoryManager"** @_ZN11xercesc_2_716XMLPlatformUtils15fgMemoryManagerE, align 8, !dbg !2016
  br label %cond.end, !dbg !2016

cond.end:                                         ; preds = %cond.false, %invoke.cont6
  %cond = phi %"class.xercesc_2_7::MemoryManager"* [ %call7, %invoke.cont6 ], [ %8, %cond.false ], !dbg !2016
  invoke void @_ZN11xercesc_2_712DOMExceptionC1EsPKtPNS_13MemoryManagerE(%"class.xercesc_2_7::DOMException"* %1, i16 signext 9, i16* null, %"class.xercesc_2_7::MemoryManager"* %cond)
          to label %invoke.cont8 unwind label %lpad, !dbg !2017

invoke.cont8:                                     ; preds = %cond.end
  call void @__cxa_throw(i8* %exception, i8* bitcast (i8** @_ZTIN11xercesc_2_712DOMExceptionE to i8*), i8* bitcast (void (%"class.xercesc_2_7::DOMException"*)* @_ZN11xercesc_2_712DOMExceptionD1Ev to i8*)) #9, !dbg !2015
  unreachable, !dbg !2015

lpad:                                             ; preds = %cond.end, %invoke.cont4, %cond.true, %entry
  %9 = landingpad { i8*, i32 }
          cleanup, !dbg !2018
  %10 = extractvalue { i8*, i32 } %9, 0, !dbg !2018
  store i8* %10, i8** %exn.slot, align 8, !dbg !2018
  %11 = extractvalue { i8*, i32 } %9, 1, !dbg !2018
  store i32 %11, i32* %ehselector.slot, align 4, !dbg !2018
  call void @__cxa_free_exception(i8* %exception) #7, !dbg !2015
  br label %eh.resume, !dbg !2015

eh.resume:                                        ; preds = %lpad
  %exn = load i8*, i8** %exn.slot, align 8, !dbg !2015
  %sel = load i32, i32* %ehselector.slot, align 4, !dbg !2015
  %lpad.val = insertvalue { i8*, i32 } undef, i8* %exn, 0, !dbg !2015
  %lpad.val9 = insertvalue { i8*, i32 } %lpad.val, i32 %sel, 1, !dbg !2015
  resume { i8*, i32 } %lpad.val9, !dbg !2015
}

; Function Attrs: noinline uwtable
define dso_local void @_ZN11xercesc_2_719DOMCDATASectionImpl7releaseEv(%"class.xercesc_2_7::DOMCDATASectionImpl"* %this) unnamed_addr #3 align 2 personality i8* bitcast (i32 (...)* @__gxx_personality_v0 to i8*) !dbg !2019 {
entry:
  %this.addr = alloca %"class.xercesc_2_7::DOMCDATASectionImpl"*, align 8
  %exn.slot = alloca i8*
  %ehselector.slot = alloca i32
  %doc = alloca %"class.xercesc_2_7::DOMDocumentImpl"*, align 8
  store %"class.xercesc_2_7::DOMCDATASectionImpl"* %this, %"class.xercesc_2_7::DOMCDATASectionImpl"** %this.addr, align 8
  call void @llvm.dbg.declare(metadata %"class.xercesc_2_7::DOMCDATASectionImpl"** %this.addr, metadata !2020, metadata !DIExpression()), !dbg !2021
  %this1 = load %"class.xercesc_2_7::DOMCDATASectionImpl"*, %"class.xercesc_2_7::DOMCDATASectionImpl"** %this.addr, align 8
  %fNode = getelementptr inbounds %"class.xercesc_2_7::DOMCDATASectionImpl", %"class.xercesc_2_7::DOMCDATASectionImpl"* %this1, i32 0, i32 1, !dbg !2022
  %call = call zeroext i1 @_ZNK11xercesc_2_711DOMNodeImpl7isOwnedEv(%"class.xercesc_2_7::DOMNodeImpl"* %fNode), !dbg !2024
  br i1 %call, label %land.lhs.true, label %if.end, !dbg !2025

land.lhs.true:                                    ; preds = %entry
  %fNode2 = getelementptr inbounds %"class.xercesc_2_7::DOMCDATASectionImpl", %"class.xercesc_2_7::DOMCDATASectionImpl"* %this1, i32 0, i32 1, !dbg !2026
  %call3 = call zeroext i1 @_ZNK11xercesc_2_711DOMNodeImpl14isToBeReleasedEv(%"class.xercesc_2_7::DOMNodeImpl"* %fNode2), !dbg !2027
  br i1 %call3, label %if.end, label %if.then, !dbg !2028

if.then:                                          ; preds = %land.lhs.true
  %exception = call i8* @__cxa_allocate_exception(i64 40) #7, !dbg !2029
  %0 = bitcast i8* %exception to %"class.xercesc_2_7::DOMException"*, !dbg !2029
  %1 = bitcast %"class.xercesc_2_7::DOMCDATASectionImpl"* %this1 to %"class.xercesc_2_7::DOMDocument"* (%"class.xercesc_2_7::DOMCDATASectionImpl"*)***, !dbg !2030
  %vtable = load %"class.xercesc_2_7::DOMDocument"* (%"class.xercesc_2_7::DOMCDATASectionImpl"*)**, %"class.xercesc_2_7::DOMDocument"* (%"class.xercesc_2_7::DOMCDATASectionImpl"*)*** %1, align 8, !dbg !2030
  %vfn = getelementptr inbounds %"class.xercesc_2_7::DOMDocument"* (%"class.xercesc_2_7::DOMCDATASectionImpl"*)*, %"class.xercesc_2_7::DOMDocument"* (%"class.xercesc_2_7::DOMCDATASectionImpl"*)** %vtable, i64 12, !dbg !2030
  %2 = load %"class.xercesc_2_7::DOMDocument"* (%"class.xercesc_2_7::DOMCDATASectionImpl"*)*, %"class.xercesc_2_7::DOMDocument"* (%"class.xercesc_2_7::DOMCDATASectionImpl"*)** %vfn, align 8, !dbg !2030
  %call4 = invoke %"class.xercesc_2_7::DOMDocument"* %2(%"class.xercesc_2_7::DOMCDATASectionImpl"* %this1)
          to label %invoke.cont unwind label %lpad, !dbg !2030

invoke.cont:                                      ; preds = %if.then
  %3 = bitcast %"class.xercesc_2_7::DOMDocument"* %call4 to %"class.xercesc_2_7::DOMDocumentImpl"*, !dbg !2030
  %tobool = icmp ne %"class.xercesc_2_7::DOMDocumentImpl"* %3, null, !dbg !2030
  br i1 %tobool, label %cond.true, label %cond.false, !dbg !2030

cond.true:                                        ; preds = %invoke.cont
  %4 = bitcast %"class.xercesc_2_7::DOMCDATASectionImpl"* %this1 to %"class.xercesc_2_7::DOMDocument"* (%"class.xercesc_2_7::DOMCDATASectionImpl"*)***, !dbg !2030
  %vtable5 = load %"class.xercesc_2_7::DOMDocument"* (%"class.xercesc_2_7::DOMCDATASectionImpl"*)**, %"class.xercesc_2_7::DOMDocument"* (%"class.xercesc_2_7::DOMCDATASectionImpl"*)*** %4, align 8, !dbg !2030
  %vfn6 = getelementptr inbounds %"class.xercesc_2_7::DOMDocument"* (%"class.xercesc_2_7::DOMCDATASectionImpl"*)*, %"class.xercesc_2_7::DOMDocument"* (%"class.xercesc_2_7::DOMCDATASectionImpl"*)** %vtable5, i64 12, !dbg !2030
  %5 = load %"class.xercesc_2_7::DOMDocument"* (%"class.xercesc_2_7::DOMCDATASectionImpl"*)*, %"class.xercesc_2_7::DOMDocument"* (%"class.xercesc_2_7::DOMCDATASectionImpl"*)** %vfn6, align 8, !dbg !2030
  %call8 = invoke %"class.xercesc_2_7::DOMDocument"* %5(%"class.xercesc_2_7::DOMCDATASectionImpl"* %this1)
          to label %invoke.cont7 unwind label %lpad, !dbg !2030

invoke.cont7:                                     ; preds = %cond.true
  %6 = bitcast %"class.xercesc_2_7::DOMDocument"* %call8 to %"class.xercesc_2_7::DOMDocumentImpl"*, !dbg !2030
  %call10 = invoke %"class.xercesc_2_7::MemoryManager"* @_ZNK11xercesc_2_715DOMDocumentImpl16getMemoryManagerEv(%"class.xercesc_2_7::DOMDocumentImpl"* %6)
          to label %invoke.cont9 unwind label %lpad, !dbg !2030

invoke.cont9:                                     ; preds = %invoke.cont7
  br label %cond.end, !dbg !2030

cond.false:                                       ; preds = %invoke.cont
  %7 = load %"class.xercesc_2_7::MemoryManager"*, %"class.xercesc_2_7::MemoryManager"** @_ZN11xercesc_2_716XMLPlatformUtils15fgMemoryManagerE, align 8, !dbg !2030
  br label %cond.end, !dbg !2030

cond.end:                                         ; preds = %cond.false, %invoke.cont9
  %cond = phi %"class.xercesc_2_7::MemoryManager"* [ %call10, %invoke.cont9 ], [ %7, %cond.false ], !dbg !2030
  invoke void @_ZN11xercesc_2_712DOMExceptionC1EsPKtPNS_13MemoryManagerE(%"class.xercesc_2_7::DOMException"* %0, i16 signext 15, i16* null, %"class.xercesc_2_7::MemoryManager"* %cond)
          to label %invoke.cont11 unwind label %lpad, !dbg !2031

invoke.cont11:                                    ; preds = %cond.end
  call void @__cxa_throw(i8* %exception, i8* bitcast (i8** @_ZTIN11xercesc_2_712DOMExceptionE to i8*), i8* bitcast (void (%"class.xercesc_2_7::DOMException"*)* @_ZN11xercesc_2_712DOMExceptionD1Ev to i8*)) #9, !dbg !2029
  unreachable, !dbg !2029

lpad:                                             ; preds = %cond.end, %invoke.cont7, %cond.true, %if.then
  %8 = landingpad { i8*, i32 }
          cleanup, !dbg !2032
  %9 = extractvalue { i8*, i32 } %8, 0, !dbg !2032
  store i8* %9, i8** %exn.slot, align 8, !dbg !2032
  %10 = extractvalue { i8*, i32 } %8, 1, !dbg !2032
  store i32 %10, i32* %ehselector.slot, align 4, !dbg !2032
  call void @__cxa_free_exception(i8* %exception) #7, !dbg !2029
  br label %eh.resume, !dbg !2029

if.end:                                           ; preds = %land.lhs.true, %entry
  call void @llvm.dbg.declare(metadata %"class.xercesc_2_7::DOMDocumentImpl"** %doc, metadata !2033, metadata !DIExpression()), !dbg !2034
  %11 = bitcast %"class.xercesc_2_7::DOMCDATASectionImpl"* %this1 to %"class.xercesc_2_7::DOMDocument"* (%"class.xercesc_2_7::DOMCDATASectionImpl"*)***, !dbg !2035
  %vtable12 = load %"class.xercesc_2_7::DOMDocument"* (%"class.xercesc_2_7::DOMCDATASectionImpl"*)**, %"class.xercesc_2_7::DOMDocument"* (%"class.xercesc_2_7::DOMCDATASectionImpl"*)*** %11, align 8, !dbg !2035
  %vfn13 = getelementptr inbounds %"class.xercesc_2_7::DOMDocument"* (%"class.xercesc_2_7::DOMCDATASectionImpl"*)*, %"class.xercesc_2_7::DOMDocument"* (%"class.xercesc_2_7::DOMCDATASectionImpl"*)** %vtable12, i64 12, !dbg !2035
  %12 = load %"class.xercesc_2_7::DOMDocument"* (%"class.xercesc_2_7::DOMCDATASectionImpl"*)*, %"class.xercesc_2_7::DOMDocument"* (%"class.xercesc_2_7::DOMCDATASectionImpl"*)** %vfn13, align 8, !dbg !2035
  %call14 = call %"class.xercesc_2_7::DOMDocument"* %12(%"class.xercesc_2_7::DOMCDATASectionImpl"* %this1), !dbg !2035
  %13 = bitcast %"class.xercesc_2_7::DOMDocument"* %call14 to %"class.xercesc_2_7::DOMDocumentImpl"*, !dbg !2036
  store %"class.xercesc_2_7::DOMDocumentImpl"* %13, %"class.xercesc_2_7::DOMDocumentImpl"** %doc, align 8, !dbg !2034
  %14 = load %"class.xercesc_2_7::DOMDocumentImpl"*, %"class.xercesc_2_7::DOMDocumentImpl"** %doc, align 8, !dbg !2037
  %tobool15 = icmp ne %"class.xercesc_2_7::DOMDocumentImpl"* %14, null, !dbg !2037
  br i1 %tobool15, label %if.then16, label %if.else, !dbg !2039

if.then16:                                        ; preds = %if.end
  %fNode17 = getelementptr inbounds %"class.xercesc_2_7::DOMCDATASectionImpl", %"class.xercesc_2_7::DOMCDATASectionImpl"* %this1, i32 0, i32 1, !dbg !2040
  call void @_ZNK11xercesc_2_711DOMNodeImpl20callUserDataHandlersENS_18DOMUserDataHandler16DOMOperationTypeEPKNS_7DOMNodeES5_(%"class.xercesc_2_7::DOMNodeImpl"* %fNode17, i32 3, %"class.xercesc_2_7::DOMNode"* null, %"class.xercesc_2_7::DOMNode"* null), !dbg !2042
  %fParent = getelementptr inbounds %"class.xercesc_2_7::DOMCDATASectionImpl", %"class.xercesc_2_7::DOMCDATASectionImpl"* %this1, i32 0, i32 2, !dbg !2043
  call void @_ZN11xercesc_2_713DOMParentNode7releaseEv(%"class.xercesc_2_7::DOMParentNode"* %fParent), !dbg !2044
  %fCharacterData = getelementptr inbounds %"class.xercesc_2_7::DOMCDATASectionImpl", %"class.xercesc_2_7::DOMCDATASectionImpl"* %this1, i32 0, i32 4, !dbg !2045
  call void @_ZN11xercesc_2_720DOMCharacterDataImpl13releaseBufferEv(%"class.xercesc_2_7::DOMCharacterDataImpl"* %fCharacterData), !dbg !2046
  %15 = load %"class.xercesc_2_7::DOMDocumentImpl"*, %"class.xercesc_2_7::DOMDocumentImpl"** %doc, align 8, !dbg !2047
  %16 = bitcast %"class.xercesc_2_7::DOMCDATASectionImpl"* %this1 to %"class.xercesc_2_7::DOMNode"*, !dbg !2048
  call void @_ZN11xercesc_2_715DOMDocumentImpl7releaseEPNS_7DOMNodeENS0_14NodeObjectTypeE(%"class.xercesc_2_7::DOMDocumentImpl"* %15, %"class.xercesc_2_7::DOMNode"* %16, i32 2), !dbg !2049
  br label %if.end36, !dbg !2050

if.else:                                          ; preds = %if.end
  %exception18 = call i8* @__cxa_allocate_exception(i64 40) #7, !dbg !2051
  %17 = bitcast i8* %exception18 to %"class.xercesc_2_7::DOMException"*, !dbg !2051
  %18 = bitcast %"class.xercesc_2_7::DOMCDATASectionImpl"* %this1 to %"class.xercesc_2_7::DOMDocument"* (%"class.xercesc_2_7::DOMCDATASectionImpl"*)***, !dbg !2053
  %vtable19 = load %"class.xercesc_2_7::DOMDocument"* (%"class.xercesc_2_7::DOMCDATASectionImpl"*)**, %"class.xercesc_2_7::DOMDocument"* (%"class.xercesc_2_7::DOMCDATASectionImpl"*)*** %18, align 8, !dbg !2053
  %vfn20 = getelementptr inbounds %"class.xercesc_2_7::DOMDocument"* (%"class.xercesc_2_7::DOMCDATASectionImpl"*)*, %"class.xercesc_2_7::DOMDocument"* (%"class.xercesc_2_7::DOMCDATASectionImpl"*)** %vtable19, i64 12, !dbg !2053
  %19 = load %"class.xercesc_2_7::DOMDocument"* (%"class.xercesc_2_7::DOMCDATASectionImpl"*)*, %"class.xercesc_2_7::DOMDocument"* (%"class.xercesc_2_7::DOMCDATASectionImpl"*)** %vfn20, align 8, !dbg !2053
  %call23 = invoke %"class.xercesc_2_7::DOMDocument"* %19(%"class.xercesc_2_7::DOMCDATASectionImpl"* %this1)
          to label %invoke.cont22 unwind label %lpad21, !dbg !2053

invoke.cont22:                                    ; preds = %if.else
  %20 = bitcast %"class.xercesc_2_7::DOMDocument"* %call23 to %"class.xercesc_2_7::DOMDocumentImpl"*, !dbg !2053
  %tobool24 = icmp ne %"class.xercesc_2_7::DOMDocumentImpl"* %20, null, !dbg !2053
  br i1 %tobool24, label %cond.true25, label %cond.false32, !dbg !2053

cond.true25:                                      ; preds = %invoke.cont22
  %21 = bitcast %"class.xercesc_2_7::DOMCDATASectionImpl"* %this1 to %"class.xercesc_2_7::DOMDocument"* (%"class.xercesc_2_7::DOMCDATASectionImpl"*)***, !dbg !2053
  %vtable26 = load %"class.xercesc_2_7::DOMDocument"* (%"class.xercesc_2_7::DOMCDATASectionImpl"*)**, %"class.xercesc_2_7::DOMDocument"* (%"class.xercesc_2_7::DOMCDATASectionImpl"*)*** %21, align 8, !dbg !2053
  %vfn27 = getelementptr inbounds %"class.xercesc_2_7::DOMDocument"* (%"class.xercesc_2_7::DOMCDATASectionImpl"*)*, %"class.xercesc_2_7::DOMDocument"* (%"class.xercesc_2_7::DOMCDATASectionImpl"*)** %vtable26, i64 12, !dbg !2053
  %22 = load %"class.xercesc_2_7::DOMDocument"* (%"class.xercesc_2_7::DOMCDATASectionImpl"*)*, %"class.xercesc_2_7::DOMDocument"* (%"class.xercesc_2_7::DOMCDATASectionImpl"*)** %vfn27, align 8, !dbg !2053
  %call29 = invoke %"class.xercesc_2_7::DOMDocument"* %22(%"class.xercesc_2_7::DOMCDATASectionImpl"* %this1)
          to label %invoke.cont28 unwind label %lpad21, !dbg !2053

invoke.cont28:                                    ; preds = %cond.true25
  %23 = bitcast %"class.xercesc_2_7::DOMDocument"* %call29 to %"class.xercesc_2_7::DOMDocumentImpl"*, !dbg !2053
  %call31 = invoke %"class.xercesc_2_7::MemoryManager"* @_ZNK11xercesc_2_715DOMDocumentImpl16getMemoryManagerEv(%"class.xercesc_2_7::DOMDocumentImpl"* %23)
          to label %invoke.cont30 unwind label %lpad21, !dbg !2053

invoke.cont30:                                    ; preds = %invoke.cont28
  br label %cond.end33, !dbg !2053

cond.false32:                                     ; preds = %invoke.cont22
  %24 = load %"class.xercesc_2_7::MemoryManager"*, %"class.xercesc_2_7::MemoryManager"** @_ZN11xercesc_2_716XMLPlatformUtils15fgMemoryManagerE, align 8, !dbg !2053
  br label %cond.end33, !dbg !2053

cond.end33:                                       ; preds = %cond.false32, %invoke.cont30
  %cond34 = phi %"class.xercesc_2_7::MemoryManager"* [ %call31, %invoke.cont30 ], [ %24, %cond.false32 ], !dbg !2053
  invoke void @_ZN11xercesc_2_712DOMExceptionC1EsPKtPNS_13MemoryManagerE(%"class.xercesc_2_7::DOMException"* %17, i16 signext 15, i16* null, %"class.xercesc_2_7::MemoryManager"* %cond34)
          to label %invoke.cont35 unwind label %lpad21, !dbg !2054

invoke.cont35:                                    ; preds = %cond.end33
  call void @__cxa_throw(i8* %exception18, i8* bitcast (i8** @_ZTIN11xercesc_2_712DOMExceptionE to i8*), i8* bitcast (void (%"class.xercesc_2_7::DOMException"*)* @_ZN11xercesc_2_712DOMExceptionD1Ev to i8*)) #9, !dbg !2051
  unreachable, !dbg !2051

lpad21:                                           ; preds = %cond.end33, %invoke.cont28, %cond.true25, %if.else
  %25 = landingpad { i8*, i32 }
          cleanup, !dbg !2055
  %26 = extractvalue { i8*, i32 } %25, 0, !dbg !2055
  store i8* %26, i8** %exn.slot, align 8, !dbg !2055
  %27 = extractvalue { i8*, i32 } %25, 1, !dbg !2055
  store i32 %27, i32* %ehselector.slot, align 4, !dbg !2055
  call void @__cxa_free_exception(i8* %exception18) #7, !dbg !2051
  br label %eh.resume, !dbg !2051

if.end36:                                         ; preds = %if.then16
  ret void, !dbg !2056

eh.resume:                                        ; preds = %lpad21, %lpad
  %exn = load i8*, i8** %exn.slot, align 8, !dbg !2029
  %sel = load i32, i32* %ehselector.slot, align 4, !dbg !2029
  %lpad.val = insertvalue { i8*, i32 } undef, i8* %exn, 0, !dbg !2029
  %lpad.val37 = insertvalue { i8*, i32 } %lpad.val, i32 %sel, 1, !dbg !2029
  resume { i8*, i32 } %lpad.val37, !dbg !2029
}

; Function Attrs: noinline nounwind uwtable
define linkonce_odr dso_local zeroext i1 @_ZNK11xercesc_2_711DOMNodeImpl7isOwnedEv(%"class.xercesc_2_7::DOMNodeImpl"* %this) #1 comdat align 2 !dbg !2057 {
entry:
  %this.addr = alloca %"class.xercesc_2_7::DOMNodeImpl"*, align 8
  store %"class.xercesc_2_7::DOMNodeImpl"* %this, %"class.xercesc_2_7::DOMNodeImpl"** %this.addr, align 8
  call void @llvm.dbg.declare(metadata %"class.xercesc_2_7::DOMNodeImpl"** %this.addr, metadata !2058, metadata !DIExpression()), !dbg !2059
  %this1 = load %"class.xercesc_2_7::DOMNodeImpl"*, %"class.xercesc_2_7::DOMNodeImpl"** %this.addr, align 8
  %flags = getelementptr inbounds %"class.xercesc_2_7::DOMNodeImpl", %"class.xercesc_2_7::DOMNodeImpl"* %this1, i32 0, i32 1, !dbg !2060
  %0 = load i16, i16* %flags, align 8, !dbg !2060
  %conv = zext i16 %0 to i32, !dbg !2060
  %1 = load i16, i16* @_ZN11xercesc_2_711DOMNodeImpl5OWNEDE, align 2, !dbg !2061
  %conv2 = zext i16 %1 to i32, !dbg !2061
  %and = and i32 %conv, %conv2, !dbg !2062
  %cmp = icmp ne i32 %and, 0, !dbg !2063
  ret i1 %cmp, !dbg !2064
}

; Function Attrs: noinline nounwind uwtable
define linkonce_odr dso_local zeroext i1 @_ZNK11xercesc_2_711DOMNodeImpl14isToBeReleasedEv(%"class.xercesc_2_7::DOMNodeImpl"* %this) #1 comdat align 2 !dbg !2065 {
entry:
  %this.addr = alloca %"class.xercesc_2_7::DOMNodeImpl"*, align 8
  store %"class.xercesc_2_7::DOMNodeImpl"* %this, %"class.xercesc_2_7::DOMNodeImpl"** %this.addr, align 8
  call void @llvm.dbg.declare(metadata %"class.xercesc_2_7::DOMNodeImpl"** %this.addr, metadata !2066, metadata !DIExpression()), !dbg !2067
  %this1 = load %"class.xercesc_2_7::DOMNodeImpl"*, %"class.xercesc_2_7::DOMNodeImpl"** %this.addr, align 8
  %flags = getelementptr inbounds %"class.xercesc_2_7::DOMNodeImpl", %"class.xercesc_2_7::DOMNodeImpl"* %this1, i32 0, i32 1, !dbg !2068
  %0 = load i16, i16* %flags, align 8, !dbg !2068
  %conv = zext i16 %0 to i32, !dbg !2068
  %1 = load i16, i16* @_ZN11xercesc_2_711DOMNodeImpl12TOBERELEASEDE, align 2, !dbg !2069
  %conv2 = zext i16 %1 to i32, !dbg !2069
  %and = and i32 %conv, %conv2, !dbg !2070
  %cmp = icmp ne i32 %and, 0, !dbg !2071
  ret i1 %cmp, !dbg !2072
}

declare dso_local void @_ZN11xercesc_2_713DOMParentNode7releaseEv(%"class.xercesc_2_7::DOMParentNode"*) #4

declare dso_local void @_ZN11xercesc_2_720DOMCharacterDataImpl13releaseBufferEv(%"class.xercesc_2_7::DOMCharacterDataImpl"*) #4

declare dso_local void @_ZN11xercesc_2_715DOMDocumentImpl7releaseEPNS_7DOMNodeENS0_14NodeObjectTypeE(%"class.xercesc_2_7::DOMDocumentImpl"*, %"class.xercesc_2_7::DOMNode"*, i32) #4

; Function Attrs: noinline uwtable
define dso_local %"class.xercesc_2_7::DOMNode"* @_ZN11xercesc_2_719DOMCDATASectionImpl11appendChildEPNS_7DOMNodeE(%"class.xercesc_2_7::DOMCDATASectionImpl"* %this, %"class.xercesc_2_7::DOMNode"* %newChild) unnamed_addr #3 align 2 !dbg !2073 {
entry:
  %this.addr = alloca %"class.xercesc_2_7::DOMCDATASectionImpl"*, align 8
  %newChild.addr = alloca %"class.xercesc_2_7::DOMNode"*, align 8
  store %"class.xercesc_2_7::DOMCDATASectionImpl"* %this, %"class.xercesc_2_7::DOMCDATASectionImpl"** %this.addr, align 8
  call void @llvm.dbg.declare(metadata %"class.xercesc_2_7::DOMCDATASectionImpl"** %this.addr, metadata !2074, metadata !DIExpression()), !dbg !2075
  store %"class.xercesc_2_7::DOMNode"* %newChild, %"class.xercesc_2_7::DOMNode"** %newChild.addr, align 8
  call void @llvm.dbg.declare(metadata %"class.xercesc_2_7::DOMNode"** %newChild.addr, metadata !2076, metadata !DIExpression()), !dbg !2077
  %this1 = load %"class.xercesc_2_7::DOMCDATASectionImpl"*, %"class.xercesc_2_7::DOMCDATASectionImpl"** %this.addr, align 8
  %fParent = getelementptr inbounds %"class.xercesc_2_7::DOMCDATASectionImpl", %"class.xercesc_2_7::DOMCDATASectionImpl"* %this1, i32 0, i32 2, !dbg !2078
  %0 = load %"class.xercesc_2_7::DOMNode"*, %"class.xercesc_2_7::DOMNode"** %newChild.addr, align 8, !dbg !2079
  %call = call %"class.xercesc_2_7::DOMNode"* @_ZN11xercesc_2_713DOMParentNode11appendChildEPNS_7DOMNodeE(%"class.xercesc_2_7::DOMParentNode"* %fParent, %"class.xercesc_2_7::DOMNode"* %0), !dbg !2080
  ret %"class.xercesc_2_7::DOMNode"* %call, !dbg !2081
}

declare dso_local %"class.xercesc_2_7::DOMNode"* @_ZN11xercesc_2_713DOMParentNode11appendChildEPNS_7DOMNodeE(%"class.xercesc_2_7::DOMParentNode"*, %"class.xercesc_2_7::DOMNode"*) #4

; Function Attrs: noinline uwtable
define dso_local %"class.xercesc_2_7::DOMNamedNodeMap"* @_ZNK11xercesc_2_719DOMCDATASectionImpl13getAttributesEv(%"class.xercesc_2_7::DOMCDATASectionImpl"* %this) unnamed_addr #3 align 2 !dbg !2082 {
entry:
  %this.addr = alloca %"class.xercesc_2_7::DOMCDATASectionImpl"*, align 8
  store %"class.xercesc_2_7::DOMCDATASectionImpl"* %this, %"class.xercesc_2_7::DOMCDATASectionImpl"** %this.addr, align 8
  call void @llvm.dbg.declare(metadata %"class.xercesc_2_7::DOMCDATASectionImpl"** %this.addr, metadata !2083, metadata !DIExpression()), !dbg !2084
  %this1 = load %"class.xercesc_2_7::DOMCDATASectionImpl"*, %"class.xercesc_2_7::DOMCDATASectionImpl"** %this.addr, align 8
  %fNode = getelementptr inbounds %"class.xercesc_2_7::DOMCDATASectionImpl", %"class.xercesc_2_7::DOMCDATASectionImpl"* %this1, i32 0, i32 1, !dbg !2085
  %call = call %"class.xercesc_2_7::DOMNamedNodeMap"* @_ZNK11xercesc_2_711DOMNodeImpl13getAttributesEv(%"class.xercesc_2_7::DOMNodeImpl"* %fNode), !dbg !2086
  ret %"class.xercesc_2_7::DOMNamedNodeMap"* %call, !dbg !2087
}

declare dso_local %"class.xercesc_2_7::DOMNamedNodeMap"* @_ZNK11xercesc_2_711DOMNodeImpl13getAttributesEv(%"class.xercesc_2_7::DOMNodeImpl"*) #4

; Function Attrs: noinline uwtable
define dso_local %"class.xercesc_2_7::DOMNodeList"* @_ZNK11xercesc_2_719DOMCDATASectionImpl13getChildNodesEv(%"class.xercesc_2_7::DOMCDATASectionImpl"* %this) unnamed_addr #3 align 2 !dbg !2088 {
entry:
  %this.addr = alloca %"class.xercesc_2_7::DOMCDATASectionImpl"*, align 8
  store %"class.xercesc_2_7::DOMCDATASectionImpl"* %this, %"class.xercesc_2_7::DOMCDATASectionImpl"** %this.addr, align 8
  call void @llvm.dbg.declare(metadata %"class.xercesc_2_7::DOMCDATASectionImpl"** %this.addr, metadata !2089, metadata !DIExpression()), !dbg !2090
  %this1 = load %"class.xercesc_2_7::DOMCDATASectionImpl"*, %"class.xercesc_2_7::DOMCDATASectionImpl"** %this.addr, align 8
  %fParent = getelementptr inbounds %"class.xercesc_2_7::DOMCDATASectionImpl", %"class.xercesc_2_7::DOMCDATASectionImpl"* %this1, i32 0, i32 2, !dbg !2091
  %call = call %"class.xercesc_2_7::DOMNodeList"* @_ZNK11xercesc_2_713DOMParentNode13getChildNodesEv(%"class.xercesc_2_7::DOMParentNode"* %fParent), !dbg !2092
  ret %"class.xercesc_2_7::DOMNodeList"* %call, !dbg !2093
}

declare dso_local %"class.xercesc_2_7::DOMNodeList"* @_ZNK11xercesc_2_713DOMParentNode13getChildNodesEv(%"class.xercesc_2_7::DOMParentNode"*) #4

; Function Attrs: noinline uwtable
define dso_local %"class.xercesc_2_7::DOMNode"* @_ZNK11xercesc_2_719DOMCDATASectionImpl13getFirstChildEv(%"class.xercesc_2_7::DOMCDATASectionImpl"* %this) unnamed_addr #3 align 2 !dbg !2094 {
entry:
  %this.addr = alloca %"class.xercesc_2_7::DOMCDATASectionImpl"*, align 8
  store %"class.xercesc_2_7::DOMCDATASectionImpl"* %this, %"class.xercesc_2_7::DOMCDATASectionImpl"** %this.addr, align 8
  call void @llvm.dbg.declare(metadata %"class.xercesc_2_7::DOMCDATASectionImpl"** %this.addr, metadata !2095, metadata !DIExpression()), !dbg !2096
  %this1 = load %"class.xercesc_2_7::DOMCDATASectionImpl"*, %"class.xercesc_2_7::DOMCDATASectionImpl"** %this.addr, align 8
  %fParent = getelementptr inbounds %"class.xercesc_2_7::DOMCDATASectionImpl", %"class.xercesc_2_7::DOMCDATASectionImpl"* %this1, i32 0, i32 2, !dbg !2097
  %call = call %"class.xercesc_2_7::DOMNode"* @_ZNK11xercesc_2_713DOMParentNode13getFirstChildEv(%"class.xercesc_2_7::DOMParentNode"* %fParent), !dbg !2098
  ret %"class.xercesc_2_7::DOMNode"* %call, !dbg !2099
}

declare dso_local %"class.xercesc_2_7::DOMNode"* @_ZNK11xercesc_2_713DOMParentNode13getFirstChildEv(%"class.xercesc_2_7::DOMParentNode"*) #4

; Function Attrs: noinline uwtable
define dso_local %"class.xercesc_2_7::DOMNode"* @_ZNK11xercesc_2_719DOMCDATASectionImpl12getLastChildEv(%"class.xercesc_2_7::DOMCDATASectionImpl"* %this) unnamed_addr #3 align 2 !dbg !2100 {
entry:
  %this.addr = alloca %"class.xercesc_2_7::DOMCDATASectionImpl"*, align 8
  store %"class.xercesc_2_7::DOMCDATASectionImpl"* %this, %"class.xercesc_2_7::DOMCDATASectionImpl"** %this.addr, align 8
  call void @llvm.dbg.declare(metadata %"class.xercesc_2_7::DOMCDATASectionImpl"** %this.addr, metadata !2101, metadata !DIExpression()), !dbg !2102
  %this1 = load %"class.xercesc_2_7::DOMCDATASectionImpl"*, %"class.xercesc_2_7::DOMCDATASectionImpl"** %this.addr, align 8
  %fParent = getelementptr inbounds %"class.xercesc_2_7::DOMCDATASectionImpl", %"class.xercesc_2_7::DOMCDATASectionImpl"* %this1, i32 0, i32 2, !dbg !2103
  %call = call %"class.xercesc_2_7::DOMNode"* @_ZNK11xercesc_2_713DOMParentNode12getLastChildEv(%"class.xercesc_2_7::DOMParentNode"* %fParent), !dbg !2104
  ret %"class.xercesc_2_7::DOMNode"* %call, !dbg !2105
}

declare dso_local %"class.xercesc_2_7::DOMNode"* @_ZNK11xercesc_2_713DOMParentNode12getLastChildEv(%"class.xercesc_2_7::DOMParentNode"*) #4

; Function Attrs: noinline uwtable
define dso_local i16* @_ZNK11xercesc_2_719DOMCDATASectionImpl12getLocalNameEv(%"class.xercesc_2_7::DOMCDATASectionImpl"* %this) unnamed_addr #3 align 2 !dbg !2106 {
entry:
  %this.addr = alloca %"class.xercesc_2_7::DOMCDATASectionImpl"*, align 8
  store %"class.xercesc_2_7::DOMCDATASectionImpl"* %this, %"class.xercesc_2_7::DOMCDATASectionImpl"** %this.addr, align 8
  call void @llvm.dbg.declare(metadata %"class.xercesc_2_7::DOMCDATASectionImpl"** %this.addr, metadata !2107, metadata !DIExpression()), !dbg !2108
  %this1 = load %"class.xercesc_2_7::DOMCDATASectionImpl"*, %"class.xercesc_2_7::DOMCDATASectionImpl"** %this.addr, align 8
  %fNode = getelementptr inbounds %"class.xercesc_2_7::DOMCDATASectionImpl", %"class.xercesc_2_7::DOMCDATASectionImpl"* %this1, i32 0, i32 1, !dbg !2109
  %call = call i16* @_ZNK11xercesc_2_711DOMNodeImpl12getLocalNameEv(%"class.xercesc_2_7::DOMNodeImpl"* %fNode), !dbg !2110
  ret i16* %call, !dbg !2111
}

declare dso_local i16* @_ZNK11xercesc_2_711DOMNodeImpl12getLocalNameEv(%"class.xercesc_2_7::DOMNodeImpl"*) #4

; Function Attrs: noinline uwtable
define dso_local i16* @_ZNK11xercesc_2_719DOMCDATASectionImpl15getNamespaceURIEv(%"class.xercesc_2_7::DOMCDATASectionImpl"* %this) unnamed_addr #3 align 2 !dbg !2112 {
entry:
  %this.addr = alloca %"class.xercesc_2_7::DOMCDATASectionImpl"*, align 8
  store %"class.xercesc_2_7::DOMCDATASectionImpl"* %this, %"class.xercesc_2_7::DOMCDATASectionImpl"** %this.addr, align 8
  call void @llvm.dbg.declare(metadata %"class.xercesc_2_7::DOMCDATASectionImpl"** %this.addr, metadata !2113, metadata !DIExpression()), !dbg !2114
  %this1 = load %"class.xercesc_2_7::DOMCDATASectionImpl"*, %"class.xercesc_2_7::DOMCDATASectionImpl"** %this.addr, align 8
  %fNode = getelementptr inbounds %"class.xercesc_2_7::DOMCDATASectionImpl", %"class.xercesc_2_7::DOMCDATASectionImpl"* %this1, i32 0, i32 1, !dbg !2115
  %call = call i16* @_ZNK11xercesc_2_711DOMNodeImpl15getNamespaceURIEv(%"class.xercesc_2_7::DOMNodeImpl"* %fNode), !dbg !2116
  ret i16* %call, !dbg !2117
}

declare dso_local i16* @_ZNK11xercesc_2_711DOMNodeImpl15getNamespaceURIEv(%"class.xercesc_2_7::DOMNodeImpl"*) #4

; Function Attrs: noinline uwtable
define dso_local %"class.xercesc_2_7::DOMNode"* @_ZNK11xercesc_2_719DOMCDATASectionImpl14getNextSiblingEv(%"class.xercesc_2_7::DOMCDATASectionImpl"* %this) unnamed_addr #3 align 2 !dbg !2118 {
entry:
  %this.addr = alloca %"class.xercesc_2_7::DOMCDATASectionImpl"*, align 8
  store %"class.xercesc_2_7::DOMCDATASectionImpl"* %this, %"class.xercesc_2_7::DOMCDATASectionImpl"** %this.addr, align 8
  call void @llvm.dbg.declare(metadata %"class.xercesc_2_7::DOMCDATASectionImpl"** %this.addr, metadata !2119, metadata !DIExpression()), !dbg !2120
  %this1 = load %"class.xercesc_2_7::DOMCDATASectionImpl"*, %"class.xercesc_2_7::DOMCDATASectionImpl"** %this.addr, align 8
  %fChild = getelementptr inbounds %"class.xercesc_2_7::DOMCDATASectionImpl", %"class.xercesc_2_7::DOMCDATASectionImpl"* %this1, i32 0, i32 3, !dbg !2121
  %call = call %"class.xercesc_2_7::DOMNode"* @_ZNK11xercesc_2_712DOMChildNode14getNextSiblingEv(%"class.xercesc_2_7::DOMChildNode"* %fChild), !dbg !2122
  ret %"class.xercesc_2_7::DOMNode"* %call, !dbg !2123
}

declare dso_local %"class.xercesc_2_7::DOMNode"* @_ZNK11xercesc_2_712DOMChildNode14getNextSiblingEv(%"class.xercesc_2_7::DOMChildNode"*) #4

; Function Attrs: noinline uwtable
define dso_local i16* @_ZNK11xercesc_2_719DOMCDATASectionImpl12getNodeValueEv(%"class.xercesc_2_7::DOMCDATASectionImpl"* %this) unnamed_addr #3 align 2 !dbg !2124 {
entry:
  %this.addr = alloca %"class.xercesc_2_7::DOMCDATASectionImpl"*, align 8
  store %"class.xercesc_2_7::DOMCDATASectionImpl"* %this, %"class.xercesc_2_7::DOMCDATASectionImpl"** %this.addr, align 8
  call void @llvm.dbg.declare(metadata %"class.xercesc_2_7::DOMCDATASectionImpl"** %this.addr, metadata !2125, metadata !DIExpression()), !dbg !2126
  %this1 = load %"class.xercesc_2_7::DOMCDATASectionImpl"*, %"class.xercesc_2_7::DOMCDATASectionImpl"** %this.addr, align 8
  %fCharacterData = getelementptr inbounds %"class.xercesc_2_7::DOMCDATASectionImpl", %"class.xercesc_2_7::DOMCDATASectionImpl"* %this1, i32 0, i32 4, !dbg !2127
  %call = call i16* @_ZNK11xercesc_2_720DOMCharacterDataImpl12getNodeValueEv(%"class.xercesc_2_7::DOMCharacterDataImpl"* %fCharacterData), !dbg !2128
  ret i16* %call, !dbg !2129
}

declare dso_local i16* @_ZNK11xercesc_2_720DOMCharacterDataImpl12getNodeValueEv(%"class.xercesc_2_7::DOMCharacterDataImpl"*) #4

; Function Attrs: noinline nounwind uwtable
define dso_local %"class.xercesc_2_7::DOMDocument"* @_ZNK11xercesc_2_719DOMCDATASectionImpl16getOwnerDocumentEv(%"class.xercesc_2_7::DOMCDATASectionImpl"* %this) unnamed_addr #1 align 2 !dbg !2130 {
entry:
  %this.addr = alloca %"class.xercesc_2_7::DOMCDATASectionImpl"*, align 8
  store %"class.xercesc_2_7::DOMCDATASectionImpl"* %this, %"class.xercesc_2_7::DOMCDATASectionImpl"** %this.addr, align 8
  call void @llvm.dbg.declare(metadata %"class.xercesc_2_7::DOMCDATASectionImpl"** %this.addr, metadata !2131, metadata !DIExpression()), !dbg !2132
  %this1 = load %"class.xercesc_2_7::DOMCDATASectionImpl"*, %"class.xercesc_2_7::DOMCDATASectionImpl"** %this.addr, align 8
  %fParent = getelementptr inbounds %"class.xercesc_2_7::DOMCDATASectionImpl", %"class.xercesc_2_7::DOMCDATASectionImpl"* %this1, i32 0, i32 2, !dbg !2133
  %fOwnerDocument = getelementptr inbounds %"class.xercesc_2_7::DOMParentNode", %"class.xercesc_2_7::DOMParentNode"* %fParent, i32 0, i32 0, !dbg !2134
  %0 = load %"class.xercesc_2_7::DOMDocument"*, %"class.xercesc_2_7::DOMDocument"** %fOwnerDocument, align 8, !dbg !2134
  ret %"class.xercesc_2_7::DOMDocument"* %0, !dbg !2135
}

; Function Attrs: noinline uwtable
define dso_local i16* @_ZNK11xercesc_2_719DOMCDATASectionImpl9getPrefixEv(%"class.xercesc_2_7::DOMCDATASectionImpl"* %this) unnamed_addr #3 align 2 !dbg !2136 {
entry:
  %this.addr = alloca %"class.xercesc_2_7::DOMCDATASectionImpl"*, align 8
  store %"class.xercesc_2_7::DOMCDATASectionImpl"* %this, %"class.xercesc_2_7::DOMCDATASectionImpl"** %this.addr, align 8
  call void @llvm.dbg.declare(metadata %"class.xercesc_2_7::DOMCDATASectionImpl"** %this.addr, metadata !2137, metadata !DIExpression()), !dbg !2138
  %this1 = load %"class.xercesc_2_7::DOMCDATASectionImpl"*, %"class.xercesc_2_7::DOMCDATASectionImpl"** %this.addr, align 8
  %fNode = getelementptr inbounds %"class.xercesc_2_7::DOMCDATASectionImpl", %"class.xercesc_2_7::DOMCDATASectionImpl"* %this1, i32 0, i32 1, !dbg !2139
  %call = call i16* @_ZNK11xercesc_2_711DOMNodeImpl9getPrefixEv(%"class.xercesc_2_7::DOMNodeImpl"* %fNode), !dbg !2140
  ret i16* %call, !dbg !2141
}

declare dso_local i16* @_ZNK11xercesc_2_711DOMNodeImpl9getPrefixEv(%"class.xercesc_2_7::DOMNodeImpl"*) #4

; Function Attrs: noinline uwtable
define dso_local %"class.xercesc_2_7::DOMNode"* @_ZNK11xercesc_2_719DOMCDATASectionImpl13getParentNodeEv(%"class.xercesc_2_7::DOMCDATASectionImpl"* %this) unnamed_addr #3 align 2 !dbg !2142 {
entry:
  %this.addr = alloca %"class.xercesc_2_7::DOMCDATASectionImpl"*, align 8
  store %"class.xercesc_2_7::DOMCDATASectionImpl"* %this, %"class.xercesc_2_7::DOMCDATASectionImpl"** %this.addr, align 8
  call void @llvm.dbg.declare(metadata %"class.xercesc_2_7::DOMCDATASectionImpl"** %this.addr, metadata !2143, metadata !DIExpression()), !dbg !2144
  %this1 = load %"class.xercesc_2_7::DOMCDATASectionImpl"*, %"class.xercesc_2_7::DOMCDATASectionImpl"** %this.addr, align 8
  %fChild = getelementptr inbounds %"class.xercesc_2_7::DOMCDATASectionImpl", %"class.xercesc_2_7::DOMCDATASectionImpl"* %this1, i32 0, i32 3, !dbg !2145
  %0 = bitcast %"class.xercesc_2_7::DOMCDATASectionImpl"* %this1 to %"class.xercesc_2_7::DOMNode"*, !dbg !2146
  %call = call %"class.xercesc_2_7::DOMNode"* @_ZNK11xercesc_2_712DOMChildNode13getParentNodeEPKNS_7DOMNodeE(%"class.xercesc_2_7::DOMChildNode"* %fChild, %"class.xercesc_2_7::DOMNode"* %0), !dbg !2147
  ret %"class.xercesc_2_7::DOMNode"* %call, !dbg !2148
}

declare dso_local %"class.xercesc_2_7::DOMNode"* @_ZNK11xercesc_2_712DOMChildNode13getParentNodeEPKNS_7DOMNodeE(%"class.xercesc_2_7::DOMChildNode"*, %"class.xercesc_2_7::DOMNode"*) #4

; Function Attrs: noinline uwtable
define dso_local %"class.xercesc_2_7::DOMNode"* @_ZNK11xercesc_2_719DOMCDATASectionImpl18getPreviousSiblingEv(%"class.xercesc_2_7::DOMCDATASectionImpl"* %this) unnamed_addr #3 align 2 !dbg !2149 {
entry:
  %this.addr = alloca %"class.xercesc_2_7::DOMCDATASectionImpl"*, align 8
  store %"class.xercesc_2_7::DOMCDATASectionImpl"* %this, %"class.xercesc_2_7::DOMCDATASectionImpl"** %this.addr, align 8
  call void @llvm.dbg.declare(metadata %"class.xercesc_2_7::DOMCDATASectionImpl"** %this.addr, metadata !2150, metadata !DIExpression()), !dbg !2151
  %this1 = load %"class.xercesc_2_7::DOMCDATASectionImpl"*, %"class.xercesc_2_7::DOMCDATASectionImpl"** %this.addr, align 8
  %fChild = getelementptr inbounds %"class.xercesc_2_7::DOMCDATASectionImpl", %"class.xercesc_2_7::DOMCDATASectionImpl"* %this1, i32 0, i32 3, !dbg !2152
  %0 = bitcast %"class.xercesc_2_7::DOMCDATASectionImpl"* %this1 to %"class.xercesc_2_7::DOMNode"*, !dbg !2153
  %call = call %"class.xercesc_2_7::DOMNode"* @_ZNK11xercesc_2_712DOMChildNode18getPreviousSiblingEPKNS_7DOMNodeE(%"class.xercesc_2_7::DOMChildNode"* %fChild, %"class.xercesc_2_7::DOMNode"* %0), !dbg !2154
  ret %"class.xercesc_2_7::DOMNode"* %call, !dbg !2155
}

declare dso_local %"class.xercesc_2_7::DOMNode"* @_ZNK11xercesc_2_712DOMChildNode18getPreviousSiblingEPKNS_7DOMNodeE(%"class.xercesc_2_7::DOMChildNode"*, %"class.xercesc_2_7::DOMNode"*) #4

; Function Attrs: noinline uwtable
define dso_local zeroext i1 @_ZNK11xercesc_2_719DOMCDATASectionImpl13hasChildNodesEv(%"class.xercesc_2_7::DOMCDATASectionImpl"* %this) unnamed_addr #3 align 2 !dbg !2156 {
entry:
  %this.addr = alloca %"class.xercesc_2_7::DOMCDATASectionImpl"*, align 8
  store %"class.xercesc_2_7::DOMCDATASectionImpl"* %this, %"class.xercesc_2_7::DOMCDATASectionImpl"** %this.addr, align 8
  call void @llvm.dbg.declare(metadata %"class.xercesc_2_7::DOMCDATASectionImpl"** %this.addr, metadata !2157, metadata !DIExpression()), !dbg !2158
  %this1 = load %"class.xercesc_2_7::DOMCDATASectionImpl"*, %"class.xercesc_2_7::DOMCDATASectionImpl"** %this.addr, align 8
  %fParent = getelementptr inbounds %"class.xercesc_2_7::DOMCDATASectionImpl", %"class.xercesc_2_7::DOMCDATASectionImpl"* %this1, i32 0, i32 2, !dbg !2159
  %call = call zeroext i1 @_ZNK11xercesc_2_713DOMParentNode13hasChildNodesEv(%"class.xercesc_2_7::DOMParentNode"* %fParent), !dbg !2160
  ret i1 %call, !dbg !2161
}

declare dso_local zeroext i1 @_ZNK11xercesc_2_713DOMParentNode13hasChildNodesEv(%"class.xercesc_2_7::DOMParentNode"*) #4

; Function Attrs: noinline uwtable
define dso_local %"class.xercesc_2_7::DOMNode"* @_ZN11xercesc_2_719DOMCDATASectionImpl12insertBeforeEPNS_7DOMNodeES2_(%"class.xercesc_2_7::DOMCDATASectionImpl"* %this, %"class.xercesc_2_7::DOMNode"* %newChild, %"class.xercesc_2_7::DOMNode"* %refChild) unnamed_addr #3 align 2 !dbg !2162 {
entry:
  %this.addr = alloca %"class.xercesc_2_7::DOMCDATASectionImpl"*, align 8
  %newChild.addr = alloca %"class.xercesc_2_7::DOMNode"*, align 8
  %refChild.addr = alloca %"class.xercesc_2_7::DOMNode"*, align 8
  store %"class.xercesc_2_7::DOMCDATASectionImpl"* %this, %"class.xercesc_2_7::DOMCDATASectionImpl"** %this.addr, align 8
  call void @llvm.dbg.declare(metadata %"class.xercesc_2_7::DOMCDATASectionImpl"** %this.addr, metadata !2163, metadata !DIExpression()), !dbg !2164
  store %"class.xercesc_2_7::DOMNode"* %newChild, %"class.xercesc_2_7::DOMNode"** %newChild.addr, align 8
  call void @llvm.dbg.declare(metadata %"class.xercesc_2_7::DOMNode"** %newChild.addr, metadata !2165, metadata !DIExpression()), !dbg !2166
  store %"class.xercesc_2_7::DOMNode"* %refChild, %"class.xercesc_2_7::DOMNode"** %refChild.addr, align 8
  call void @llvm.dbg.declare(metadata %"class.xercesc_2_7::DOMNode"** %refChild.addr, metadata !2167, metadata !DIExpression()), !dbg !2168
  %this1 = load %"class.xercesc_2_7::DOMCDATASectionImpl"*, %"class.xercesc_2_7::DOMCDATASectionImpl"** %this.addr, align 8
  %fParent = getelementptr inbounds %"class.xercesc_2_7::DOMCDATASectionImpl", %"class.xercesc_2_7::DOMCDATASectionImpl"* %this1, i32 0, i32 2, !dbg !2169
  %0 = load %"class.xercesc_2_7::DOMNode"*, %"class.xercesc_2_7::DOMNode"** %newChild.addr, align 8, !dbg !2170
  %1 = load %"class.xercesc_2_7::DOMNode"*, %"class.xercesc_2_7::DOMNode"** %refChild.addr, align 8, !dbg !2171
  %call = call %"class.xercesc_2_7::DOMNode"* @_ZN11xercesc_2_713DOMParentNode12insertBeforeEPNS_7DOMNodeES2_(%"class.xercesc_2_7::DOMParentNode"* %fParent, %"class.xercesc_2_7::DOMNode"* %0, %"class.xercesc_2_7::DOMNode"* %1), !dbg !2172
  ret %"class.xercesc_2_7::DOMNode"* %call, !dbg !2173
}

declare dso_local %"class.xercesc_2_7::DOMNode"* @_ZN11xercesc_2_713DOMParentNode12insertBeforeEPNS_7DOMNodeES2_(%"class.xercesc_2_7::DOMParentNode"*, %"class.xercesc_2_7::DOMNode"*, %"class.xercesc_2_7::DOMNode"*) #4

; Function Attrs: noinline uwtable
define dso_local void @_ZN11xercesc_2_719DOMCDATASectionImpl9normalizeEv(%"class.xercesc_2_7::DOMCDATASectionImpl"* %this) unnamed_addr #3 align 2 !dbg !2174 {
entry:
  %this.addr = alloca %"class.xercesc_2_7::DOMCDATASectionImpl"*, align 8
  store %"class.xercesc_2_7::DOMCDATASectionImpl"* %this, %"class.xercesc_2_7::DOMCDATASectionImpl"** %this.addr, align 8
  call void @llvm.dbg.declare(metadata %"class.xercesc_2_7::DOMCDATASectionImpl"** %this.addr, metadata !2175, metadata !DIExpression()), !dbg !2176
  %this1 = load %"class.xercesc_2_7::DOMCDATASectionImpl"*, %"class.xercesc_2_7::DOMCDATASectionImpl"** %this.addr, align 8
  %fNode = getelementptr inbounds %"class.xercesc_2_7::DOMCDATASectionImpl", %"class.xercesc_2_7::DOMCDATASectionImpl"* %this1, i32 0, i32 1, !dbg !2177
  call void @_ZN11xercesc_2_711DOMNodeImpl9normalizeEv(%"class.xercesc_2_7::DOMNodeImpl"* %fNode), !dbg !2178
  ret void, !dbg !2179
}

declare dso_local void @_ZN11xercesc_2_711DOMNodeImpl9normalizeEv(%"class.xercesc_2_7::DOMNodeImpl"*) #4

; Function Attrs: noinline uwtable
define dso_local %"class.xercesc_2_7::DOMNode"* @_ZN11xercesc_2_719DOMCDATASectionImpl11removeChildEPNS_7DOMNodeE(%"class.xercesc_2_7::DOMCDATASectionImpl"* %this, %"class.xercesc_2_7::DOMNode"* %oldChild) unnamed_addr #3 align 2 !dbg !2180 {
entry:
  %this.addr = alloca %"class.xercesc_2_7::DOMCDATASectionImpl"*, align 8
  %oldChild.addr = alloca %"class.xercesc_2_7::DOMNode"*, align 8
  store %"class.xercesc_2_7::DOMCDATASectionImpl"* %this, %"class.xercesc_2_7::DOMCDATASectionImpl"** %this.addr, align 8
  call void @llvm.dbg.declare(metadata %"class.xercesc_2_7::DOMCDATASectionImpl"** %this.addr, metadata !2181, metadata !DIExpression()), !dbg !2182
  store %"class.xercesc_2_7::DOMNode"* %oldChild, %"class.xercesc_2_7::DOMNode"** %oldChild.addr, align 8
  call void @llvm.dbg.declare(metadata %"class.xercesc_2_7::DOMNode"** %oldChild.addr, metadata !2183, metadata !DIExpression()), !dbg !2184
  %this1 = load %"class.xercesc_2_7::DOMCDATASectionImpl"*, %"class.xercesc_2_7::DOMCDATASectionImpl"** %this.addr, align 8
  %fParent = getelementptr inbounds %"class.xercesc_2_7::DOMCDATASectionImpl", %"class.xercesc_2_7::DOMCDATASectionImpl"* %this1, i32 0, i32 2, !dbg !2185
  %0 = load %"class.xercesc_2_7::DOMNode"*, %"class.xercesc_2_7::DOMNode"** %oldChild.addr, align 8, !dbg !2186
  %call = call %"class.xercesc_2_7::DOMNode"* @_ZN11xercesc_2_713DOMParentNode11removeChildEPNS_7DOMNodeE(%"class.xercesc_2_7::DOMParentNode"* %fParent, %"class.xercesc_2_7::DOMNode"* %0), !dbg !2187
  ret %"class.xercesc_2_7::DOMNode"* %call, !dbg !2188
}

declare dso_local %"class.xercesc_2_7::DOMNode"* @_ZN11xercesc_2_713DOMParentNode11removeChildEPNS_7DOMNodeE(%"class.xercesc_2_7::DOMParentNode"*, %"class.xercesc_2_7::DOMNode"*) #4

; Function Attrs: noinline uwtable
define dso_local %"class.xercesc_2_7::DOMNode"* @_ZN11xercesc_2_719DOMCDATASectionImpl12replaceChildEPNS_7DOMNodeES2_(%"class.xercesc_2_7::DOMCDATASectionImpl"* %this, %"class.xercesc_2_7::DOMNode"* %newChild, %"class.xercesc_2_7::DOMNode"* %oldChild) unnamed_addr #3 align 2 !dbg !2189 {
entry:
  %this.addr = alloca %"class.xercesc_2_7::DOMCDATASectionImpl"*, align 8
  %newChild.addr = alloca %"class.xercesc_2_7::DOMNode"*, align 8
  %oldChild.addr = alloca %"class.xercesc_2_7::DOMNode"*, align 8
  store %"class.xercesc_2_7::DOMCDATASectionImpl"* %this, %"class.xercesc_2_7::DOMCDATASectionImpl"** %this.addr, align 8
  call void @llvm.dbg.declare(metadata %"class.xercesc_2_7::DOMCDATASectionImpl"** %this.addr, metadata !2190, metadata !DIExpression()), !dbg !2191
  store %"class.xercesc_2_7::DOMNode"* %newChild, %"class.xercesc_2_7::DOMNode"** %newChild.addr, align 8
  call void @llvm.dbg.declare(metadata %"class.xercesc_2_7::DOMNode"** %newChild.addr, metadata !2192, metadata !DIExpression()), !dbg !2193
  store %"class.xercesc_2_7::DOMNode"* %oldChild, %"class.xercesc_2_7::DOMNode"** %oldChild.addr, align 8
  call void @llvm.dbg.declare(metadata %"class.xercesc_2_7::DOMNode"** %oldChild.addr, metadata !2194, metadata !DIExpression()), !dbg !2195
  %this1 = load %"class.xercesc_2_7::DOMCDATASectionImpl"*, %"class.xercesc_2_7::DOMCDATASectionImpl"** %this.addr, align 8
  %fParent = getelementptr inbounds %"class.xercesc_2_7::DOMCDATASectionImpl", %"class.xercesc_2_7::DOMCDATASectionImpl"* %this1, i32 0, i32 2, !dbg !2196
  %0 = load %"class.xercesc_2_7::DOMNode"*, %"class.xercesc_2_7::DOMNode"** %newChild.addr, align 8, !dbg !2197
  %1 = load %"class.xercesc_2_7::DOMNode"*, %"class.xercesc_2_7::DOMNode"** %oldChild.addr, align 8, !dbg !2198
  %call = call %"class.xercesc_2_7::DOMNode"* @_ZN11xercesc_2_713DOMParentNode12replaceChildEPNS_7DOMNodeES2_(%"class.xercesc_2_7::DOMParentNode"* %fParent, %"class.xercesc_2_7::DOMNode"* %0, %"class.xercesc_2_7::DOMNode"* %1), !dbg !2199
  ret %"class.xercesc_2_7::DOMNode"* %call, !dbg !2200
}

declare dso_local %"class.xercesc_2_7::DOMNode"* @_ZN11xercesc_2_713DOMParentNode12replaceChildEPNS_7DOMNodeES2_(%"class.xercesc_2_7::DOMParentNode"*, %"class.xercesc_2_7::DOMNode"*, %"class.xercesc_2_7::DOMNode"*) #4

; Function Attrs: noinline uwtable
define dso_local zeroext i1 @_ZNK11xercesc_2_719DOMCDATASectionImpl11isSupportedEPKtS2_(%"class.xercesc_2_7::DOMCDATASectionImpl"* %this, i16* %feature, i16* %version) unnamed_addr #3 align 2 !dbg !2201 {
entry:
  %this.addr = alloca %"class.xercesc_2_7::DOMCDATASectionImpl"*, align 8
  %feature.addr = alloca i16*, align 8
  %version.addr = alloca i16*, align 8
  store %"class.xercesc_2_7::DOMCDATASectionImpl"* %this, %"class.xercesc_2_7::DOMCDATASectionImpl"** %this.addr, align 8
  call void @llvm.dbg.declare(metadata %"class.xercesc_2_7::DOMCDATASectionImpl"** %this.addr, metadata !2202, metadata !DIExpression()), !dbg !2203
  store i16* %feature, i16** %feature.addr, align 8
  call void @llvm.dbg.declare(metadata i16** %feature.addr, metadata !2204, metadata !DIExpression()), !dbg !2205
  store i16* %version, i16** %version.addr, align 8
  call void @llvm.dbg.declare(metadata i16** %version.addr, metadata !2206, metadata !DIExpression()), !dbg !2207
  %this1 = load %"class.xercesc_2_7::DOMCDATASectionImpl"*, %"class.xercesc_2_7::DOMCDATASectionImpl"** %this.addr, align 8
  %fNode = getelementptr inbounds %"class.xercesc_2_7::DOMCDATASectionImpl", %"class.xercesc_2_7::DOMCDATASectionImpl"* %this1, i32 0, i32 1, !dbg !2208
  %0 = load i16*, i16** %feature.addr, align 8, !dbg !2209
  %1 = load i16*, i16** %version.addr, align 8, !dbg !2210
  %call = call zeroext i1 @_ZNK11xercesc_2_711DOMNodeImpl11isSupportedEPKtS2_(%"class.xercesc_2_7::DOMNodeImpl"* %fNode, i16* %0, i16* %1), !dbg !2211
  ret i1 %call, !dbg !2212
}

declare dso_local zeroext i1 @_ZNK11xercesc_2_711DOMNodeImpl11isSupportedEPKtS2_(%"class.xercesc_2_7::DOMNodeImpl"*, i16*, i16*) #4

; Function Attrs: noinline uwtable
define dso_local void @_ZN11xercesc_2_719DOMCDATASectionImpl9setPrefixEPKt(%"class.xercesc_2_7::DOMCDATASectionImpl"* %this, i16* %prefix) unnamed_addr #3 align 2 !dbg !2213 {
entry:
  %this.addr = alloca %"class.xercesc_2_7::DOMCDATASectionImpl"*, align 8
  %prefix.addr = alloca i16*, align 8
  store %"class.xercesc_2_7::DOMCDATASectionImpl"* %this, %"class.xercesc_2_7::DOMCDATASectionImpl"** %this.addr, align 8
  call void @llvm.dbg.declare(metadata %"class.xercesc_2_7::DOMCDATASectionImpl"** %this.addr, metadata !2214, metadata !DIExpression()), !dbg !2215
  store i16* %prefix, i16** %prefix.addr, align 8
  call void @llvm.dbg.declare(metadata i16** %prefix.addr, metadata !2216, metadata !DIExpression()), !dbg !2217
  %this1 = load %"class.xercesc_2_7::DOMCDATASectionImpl"*, %"class.xercesc_2_7::DOMCDATASectionImpl"** %this.addr, align 8
  %fNode = getelementptr inbounds %"class.xercesc_2_7::DOMCDATASectionImpl", %"class.xercesc_2_7::DOMCDATASectionImpl"* %this1, i32 0, i32 1, !dbg !2218
  %0 = load i16*, i16** %prefix.addr, align 8, !dbg !2219
  call void @_ZN11xercesc_2_711DOMNodeImpl9setPrefixEPKt(%"class.xercesc_2_7::DOMNodeImpl"* %fNode, i16* %0), !dbg !2220
  ret void, !dbg !2221
}

declare dso_local void @_ZN11xercesc_2_711DOMNodeImpl9setPrefixEPKt(%"class.xercesc_2_7::DOMNodeImpl"*, i16*) #4

; Function Attrs: noinline uwtable
define dso_local zeroext i1 @_ZNK11xercesc_2_719DOMCDATASectionImpl13hasAttributesEv(%"class.xercesc_2_7::DOMCDATASectionImpl"* %this) unnamed_addr #3 align 2 !dbg !2222 {
entry:
  %this.addr = alloca %"class.xercesc_2_7::DOMCDATASectionImpl"*, align 8
  store %"class.xercesc_2_7::DOMCDATASectionImpl"* %this, %"class.xercesc_2_7::DOMCDATASectionImpl"** %this.addr, align 8
  call void @llvm.dbg.declare(metadata %"class.xercesc_2_7::DOMCDATASectionImpl"** %this.addr, metadata !2223, metadata !DIExpression()), !dbg !2224
  %this1 = load %"class.xercesc_2_7::DOMCDATASectionImpl"*, %"class.xercesc_2_7::DOMCDATASectionImpl"** %this.addr, align 8
  %fNode = getelementptr inbounds %"class.xercesc_2_7::DOMCDATASectionImpl", %"class.xercesc_2_7::DOMCDATASectionImpl"* %this1, i32 0, i32 1, !dbg !2225
  %call = call zeroext i1 @_ZNK11xercesc_2_711DOMNodeImpl13hasAttributesEv(%"class.xercesc_2_7::DOMNodeImpl"* %fNode), !dbg !2226
  ret i1 %call, !dbg !2227
}

declare dso_local zeroext i1 @_ZNK11xercesc_2_711DOMNodeImpl13hasAttributesEv(%"class.xercesc_2_7::DOMNodeImpl"*) #4

; Function Attrs: noinline uwtable
define dso_local zeroext i1 @_ZNK11xercesc_2_719DOMCDATASectionImpl10isSameNodeEPKNS_7DOMNodeE(%"class.xercesc_2_7::DOMCDATASectionImpl"* %this, %"class.xercesc_2_7::DOMNode"* %other) unnamed_addr #3 align 2 !dbg !2228 {
entry:
  %this.addr = alloca %"class.xercesc_2_7::DOMCDATASectionImpl"*, align 8
  %other.addr = alloca %"class.xercesc_2_7::DOMNode"*, align 8
  store %"class.xercesc_2_7::DOMCDATASectionImpl"* %this, %"class.xercesc_2_7::DOMCDATASectionImpl"** %this.addr, align 8
  call void @llvm.dbg.declare(metadata %"class.xercesc_2_7::DOMCDATASectionImpl"** %this.addr, metadata !2229, metadata !DIExpression()), !dbg !2230
  store %"class.xercesc_2_7::DOMNode"* %other, %"class.xercesc_2_7::DOMNode"** %other.addr, align 8
  call void @llvm.dbg.declare(metadata %"class.xercesc_2_7::DOMNode"** %other.addr, metadata !2231, metadata !DIExpression()), !dbg !2232
  %this1 = load %"class.xercesc_2_7::DOMCDATASectionImpl"*, %"class.xercesc_2_7::DOMCDATASectionImpl"** %this.addr, align 8
  %fNode = getelementptr inbounds %"class.xercesc_2_7::DOMCDATASectionImpl", %"class.xercesc_2_7::DOMCDATASectionImpl"* %this1, i32 0, i32 1, !dbg !2233
  %0 = load %"class.xercesc_2_7::DOMNode"*, %"class.xercesc_2_7::DOMNode"** %other.addr, align 8, !dbg !2234
  %call = call zeroext i1 @_ZNK11xercesc_2_711DOMNodeImpl10isSameNodeEPKNS_7DOMNodeE(%"class.xercesc_2_7::DOMNodeImpl"* %fNode, %"class.xercesc_2_7::DOMNode"* %0), !dbg !2235
  ret i1 %call, !dbg !2236
}

declare dso_local zeroext i1 @_ZNK11xercesc_2_711DOMNodeImpl10isSameNodeEPKNS_7DOMNodeE(%"class.xercesc_2_7::DOMNodeImpl"*, %"class.xercesc_2_7::DOMNode"*) #4

; Function Attrs: noinline uwtable
define dso_local zeroext i1 @_ZNK11xercesc_2_719DOMCDATASectionImpl11isEqualNodeEPKNS_7DOMNodeE(%"class.xercesc_2_7::DOMCDATASectionImpl"* %this, %"class.xercesc_2_7::DOMNode"* %arg) unnamed_addr #3 align 2 !dbg !2237 {
entry:
  %this.addr = alloca %"class.xercesc_2_7::DOMCDATASectionImpl"*, align 8
  %arg.addr = alloca %"class.xercesc_2_7::DOMNode"*, align 8
  store %"class.xercesc_2_7::DOMCDATASectionImpl"* %this, %"class.xercesc_2_7::DOMCDATASectionImpl"** %this.addr, align 8
  call void @llvm.dbg.declare(metadata %"class.xercesc_2_7::DOMCDATASectionImpl"** %this.addr, metadata !2238, metadata !DIExpression()), !dbg !2239
  store %"class.xercesc_2_7::DOMNode"* %arg, %"class.xercesc_2_7::DOMNode"** %arg.addr, align 8
  call void @llvm.dbg.declare(metadata %"class.xercesc_2_7::DOMNode"** %arg.addr, metadata !2240, metadata !DIExpression()), !dbg !2241
  %this1 = load %"class.xercesc_2_7::DOMCDATASectionImpl"*, %"class.xercesc_2_7::DOMCDATASectionImpl"** %this.addr, align 8
  %fParent = getelementptr inbounds %"class.xercesc_2_7::DOMCDATASectionImpl", %"class.xercesc_2_7::DOMCDATASectionImpl"* %this1, i32 0, i32 2, !dbg !2242
  %0 = load %"class.xercesc_2_7::DOMNode"*, %"class.xercesc_2_7::DOMNode"** %arg.addr, align 8, !dbg !2243
  %call = call zeroext i1 @_ZNK11xercesc_2_713DOMParentNode11isEqualNodeEPKNS_7DOMNodeE(%"class.xercesc_2_7::DOMParentNode"* %fParent, %"class.xercesc_2_7::DOMNode"* %0), !dbg !2244
  ret i1 %call, !dbg !2245
}

declare dso_local zeroext i1 @_ZNK11xercesc_2_713DOMParentNode11isEqualNodeEPKNS_7DOMNodeE(%"class.xercesc_2_7::DOMParentNode"*, %"class.xercesc_2_7::DOMNode"*) #4

; Function Attrs: noinline uwtable
define dso_local i8* @_ZN11xercesc_2_719DOMCDATASectionImpl11setUserDataEPKtPvPNS_18DOMUserDataHandlerE(%"class.xercesc_2_7::DOMCDATASectionImpl"* %this, i16* %key, i8* %data, %"class.xercesc_2_7::DOMUserDataHandler"* %handler) unnamed_addr #3 align 2 !dbg !2246 {
entry:
  %this.addr = alloca %"class.xercesc_2_7::DOMCDATASectionImpl"*, align 8
  %key.addr = alloca i16*, align 8
  %data.addr = alloca i8*, align 8
  %handler.addr = alloca %"class.xercesc_2_7::DOMUserDataHandler"*, align 8
  store %"class.xercesc_2_7::DOMCDATASectionImpl"* %this, %"class.xercesc_2_7::DOMCDATASectionImpl"** %this.addr, align 8
  call void @llvm.dbg.declare(metadata %"class.xercesc_2_7::DOMCDATASectionImpl"** %this.addr, metadata !2247, metadata !DIExpression()), !dbg !2248
  store i16* %key, i16** %key.addr, align 8
  call void @llvm.dbg.declare(metadata i16** %key.addr, metadata !2249, metadata !DIExpression()), !dbg !2250
  store i8* %data, i8** %data.addr, align 8
  call void @llvm.dbg.declare(metadata i8** %data.addr, metadata !2251, metadata !DIExpression()), !dbg !2252
  store %"class.xercesc_2_7::DOMUserDataHandler"* %handler, %"class.xercesc_2_7::DOMUserDataHandler"** %handler.addr, align 8
  call void @llvm.dbg.declare(metadata %"class.xercesc_2_7::DOMUserDataHandler"** %handler.addr, metadata !2253, metadata !DIExpression()), !dbg !2254
  %this1 = load %"class.xercesc_2_7::DOMCDATASectionImpl"*, %"class.xercesc_2_7::DOMCDATASectionImpl"** %this.addr, align 8
  %fNode = getelementptr inbounds %"class.xercesc_2_7::DOMCDATASectionImpl", %"class.xercesc_2_7::DOMCDATASectionImpl"* %this1, i32 0, i32 1, !dbg !2255
  %0 = load i16*, i16** %key.addr, align 8, !dbg !2256
  %1 = load i8*, i8** %data.addr, align 8, !dbg !2257
  %2 = load %"class.xercesc_2_7::DOMUserDataHandler"*, %"class.xercesc_2_7::DOMUserDataHandler"** %handler.addr, align 8, !dbg !2258
  %call = call i8* @_ZN11xercesc_2_711DOMNodeImpl11setUserDataEPKtPvPNS_18DOMUserDataHandlerE(%"class.xercesc_2_7::DOMNodeImpl"* %fNode, i16* %0, i8* %1, %"class.xercesc_2_7::DOMUserDataHandler"* %2), !dbg !2259
  ret i8* %call, !dbg !2260
}

declare dso_local i8* @_ZN11xercesc_2_711DOMNodeImpl11setUserDataEPKtPvPNS_18DOMUserDataHandlerE(%"class.xercesc_2_7::DOMNodeImpl"*, i16*, i8*, %"class.xercesc_2_7::DOMUserDataHandler"*) #4

; Function Attrs: noinline uwtable
define dso_local i8* @_ZNK11xercesc_2_719DOMCDATASectionImpl11getUserDataEPKt(%"class.xercesc_2_7::DOMCDATASectionImpl"* %this, i16* %key) unnamed_addr #3 align 2 !dbg !2261 {
entry:
  %this.addr = alloca %"class.xercesc_2_7::DOMCDATASectionImpl"*, align 8
  %key.addr = alloca i16*, align 8
  store %"class.xercesc_2_7::DOMCDATASectionImpl"* %this, %"class.xercesc_2_7::DOMCDATASectionImpl"** %this.addr, align 8
  call void @llvm.dbg.declare(metadata %"class.xercesc_2_7::DOMCDATASectionImpl"** %this.addr, metadata !2262, metadata !DIExpression()), !dbg !2263
  store i16* %key, i16** %key.addr, align 8
  call void @llvm.dbg.declare(metadata i16** %key.addr, metadata !2264, metadata !DIExpression()), !dbg !2265
  %this1 = load %"class.xercesc_2_7::DOMCDATASectionImpl"*, %"class.xercesc_2_7::DOMCDATASectionImpl"** %this.addr, align 8
  %fNode = getelementptr inbounds %"class.xercesc_2_7::DOMCDATASectionImpl", %"class.xercesc_2_7::DOMCDATASectionImpl"* %this1, i32 0, i32 1, !dbg !2266
  %0 = load i16*, i16** %key.addr, align 8, !dbg !2267
  %call = call i8* @_ZNK11xercesc_2_711DOMNodeImpl11getUserDataEPKt(%"class.xercesc_2_7::DOMNodeImpl"* %fNode, i16* %0), !dbg !2268
  ret i8* %call, !dbg !2269
}

declare dso_local i8* @_ZNK11xercesc_2_711DOMNodeImpl11getUserDataEPKt(%"class.xercesc_2_7::DOMNodeImpl"*, i16*) #4

; Function Attrs: noinline uwtable
define dso_local i16* @_ZNK11xercesc_2_719DOMCDATASectionImpl10getBaseURIEv(%"class.xercesc_2_7::DOMCDATASectionImpl"* %this) unnamed_addr #3 align 2 !dbg !2270 {
entry:
  %this.addr = alloca %"class.xercesc_2_7::DOMCDATASectionImpl"*, align 8
  store %"class.xercesc_2_7::DOMCDATASectionImpl"* %this, %"class.xercesc_2_7::DOMCDATASectionImpl"** %this.addr, align 8
  call void @llvm.dbg.declare(metadata %"class.xercesc_2_7::DOMCDATASectionImpl"** %this.addr, metadata !2271, metadata !DIExpression()), !dbg !2272
  %this1 = load %"class.xercesc_2_7::DOMCDATASectionImpl"*, %"class.xercesc_2_7::DOMCDATASectionImpl"** %this.addr, align 8
  %fNode = getelementptr inbounds %"class.xercesc_2_7::DOMCDATASectionImpl", %"class.xercesc_2_7::DOMCDATASectionImpl"* %this1, i32 0, i32 1, !dbg !2273
  %call = call i16* @_ZNK11xercesc_2_711DOMNodeImpl10getBaseURIEv(%"class.xercesc_2_7::DOMNodeImpl"* %fNode), !dbg !2274
  ret i16* %call, !dbg !2275
}

declare dso_local i16* @_ZNK11xercesc_2_711DOMNodeImpl10getBaseURIEv(%"class.xercesc_2_7::DOMNodeImpl"*) #4

; Function Attrs: noinline uwtable
define dso_local signext i16 @_ZNK11xercesc_2_719DOMCDATASectionImpl19compareTreePositionEPKNS_7DOMNodeE(%"class.xercesc_2_7::DOMCDATASectionImpl"* %this, %"class.xercesc_2_7::DOMNode"* %other) unnamed_addr #3 align 2 !dbg !2276 {
entry:
  %this.addr = alloca %"class.xercesc_2_7::DOMCDATASectionImpl"*, align 8
  %other.addr = alloca %"class.xercesc_2_7::DOMNode"*, align 8
  store %"class.xercesc_2_7::DOMCDATASectionImpl"* %this, %"class.xercesc_2_7::DOMCDATASectionImpl"** %this.addr, align 8
  call void @llvm.dbg.declare(metadata %"class.xercesc_2_7::DOMCDATASectionImpl"** %this.addr, metadata !2277, metadata !DIExpression()), !dbg !2278
  store %"class.xercesc_2_7::DOMNode"* %other, %"class.xercesc_2_7::DOMNode"** %other.addr, align 8
  call void @llvm.dbg.declare(metadata %"class.xercesc_2_7::DOMNode"** %other.addr, metadata !2279, metadata !DIExpression()), !dbg !2280
  %this1 = load %"class.xercesc_2_7::DOMCDATASectionImpl"*, %"class.xercesc_2_7::DOMCDATASectionImpl"** %this.addr, align 8
  %fNode = getelementptr inbounds %"class.xercesc_2_7::DOMCDATASectionImpl", %"class.xercesc_2_7::DOMCDATASectionImpl"* %this1, i32 0, i32 1, !dbg !2281
  %0 = load %"class.xercesc_2_7::DOMNode"*, %"class.xercesc_2_7::DOMNode"** %other.addr, align 8, !dbg !2282
  %call = call signext i16 @_ZNK11xercesc_2_711DOMNodeImpl19compareTreePositionEPKNS_7DOMNodeE(%"class.xercesc_2_7::DOMNodeImpl"* %fNode, %"class.xercesc_2_7::DOMNode"* %0), !dbg !2283
  ret i16 %call, !dbg !2284
}

declare dso_local signext i16 @_ZNK11xercesc_2_711DOMNodeImpl19compareTreePositionEPKNS_7DOMNodeE(%"class.xercesc_2_7::DOMNodeImpl"*, %"class.xercesc_2_7::DOMNode"*) #4

; Function Attrs: noinline uwtable
define dso_local i16* @_ZNK11xercesc_2_719DOMCDATASectionImpl14getTextContentEv(%"class.xercesc_2_7::DOMCDATASectionImpl"* %this) unnamed_addr #3 align 2 !dbg !2285 {
entry:
  %this.addr = alloca %"class.xercesc_2_7::DOMCDATASectionImpl"*, align 8
  store %"class.xercesc_2_7::DOMCDATASectionImpl"* %this, %"class.xercesc_2_7::DOMCDATASectionImpl"** %this.addr, align 8
  call void @llvm.dbg.declare(metadata %"class.xercesc_2_7::DOMCDATASectionImpl"** %this.addr, metadata !2286, metadata !DIExpression()), !dbg !2287
  %this1 = load %"class.xercesc_2_7::DOMCDATASectionImpl"*, %"class.xercesc_2_7::DOMCDATASectionImpl"** %this.addr, align 8
  %fNode = getelementptr inbounds %"class.xercesc_2_7::DOMCDATASectionImpl", %"class.xercesc_2_7::DOMCDATASectionImpl"* %this1, i32 0, i32 1, !dbg !2288
  %call = call i16* @_ZNK11xercesc_2_711DOMNodeImpl14getTextContentEv(%"class.xercesc_2_7::DOMNodeImpl"* %fNode), !dbg !2289
  ret i16* %call, !dbg !2290
}

declare dso_local i16* @_ZNK11xercesc_2_711DOMNodeImpl14getTextContentEv(%"class.xercesc_2_7::DOMNodeImpl"*) #4

; Function Attrs: noinline uwtable
define dso_local void @_ZN11xercesc_2_719DOMCDATASectionImpl14setTextContentEPKt(%"class.xercesc_2_7::DOMCDATASectionImpl"* %this, i16* %textContent) unnamed_addr #3 align 2 !dbg !2291 {
entry:
  %this.addr = alloca %"class.xercesc_2_7::DOMCDATASectionImpl"*, align 8
  %textContent.addr = alloca i16*, align 8
  store %"class.xercesc_2_7::DOMCDATASectionImpl"* %this, %"class.xercesc_2_7::DOMCDATASectionImpl"** %this.addr, align 8
  call void @llvm.dbg.declare(metadata %"class.xercesc_2_7::DOMCDATASectionImpl"** %this.addr, metadata !2292, metadata !DIExpression()), !dbg !2293
  store i16* %textContent, i16** %textContent.addr, align 8
  call void @llvm.dbg.declare(metadata i16** %textContent.addr, metadata !2294, metadata !DIExpression()), !dbg !2295
  %this1 = load %"class.xercesc_2_7::DOMCDATASectionImpl"*, %"class.xercesc_2_7::DOMCDATASectionImpl"** %this.addr, align 8
  %fNode = getelementptr inbounds %"class.xercesc_2_7::DOMCDATASectionImpl", %"class.xercesc_2_7::DOMCDATASectionImpl"* %this1, i32 0, i32 1, !dbg !2296
  %0 = load i16*, i16** %textContent.addr, align 8, !dbg !2297
  call void @_ZN11xercesc_2_711DOMNodeImpl14setTextContentEPKt(%"class.xercesc_2_7::DOMNodeImpl"* %fNode, i16* %0), !dbg !2298
  ret void, !dbg !2299
}

declare dso_local void @_ZN11xercesc_2_711DOMNodeImpl14setTextContentEPKt(%"class.xercesc_2_7::DOMNodeImpl"*, i16*) #4

; Function Attrs: noinline uwtable
define dso_local i16* @_ZNK11xercesc_2_719DOMCDATASectionImpl21lookupNamespacePrefixEPKtb(%"class.xercesc_2_7::DOMCDATASectionImpl"* %this, i16* %namespaceURI, i1 zeroext %useDefault) unnamed_addr #3 align 2 !dbg !2300 {
entry:
  %this.addr = alloca %"class.xercesc_2_7::DOMCDATASectionImpl"*, align 8
  %namespaceURI.addr = alloca i16*, align 8
  %useDefault.addr = alloca i8, align 1
  store %"class.xercesc_2_7::DOMCDATASectionImpl"* %this, %"class.xercesc_2_7::DOMCDATASectionImpl"** %this.addr, align 8
  call void @llvm.dbg.declare(metadata %"class.xercesc_2_7::DOMCDATASectionImpl"** %this.addr, metadata !2301, metadata !DIExpression()), !dbg !2302
  store i16* %namespaceURI, i16** %namespaceURI.addr, align 8
  call void @llvm.dbg.declare(metadata i16** %namespaceURI.addr, metadata !2303, metadata !DIExpression()), !dbg !2304
  %frombool = zext i1 %useDefault to i8
  store i8 %frombool, i8* %useDefault.addr, align 1
  call void @llvm.dbg.declare(metadata i8* %useDefault.addr, metadata !2305, metadata !DIExpression()), !dbg !2306
  %this1 = load %"class.xercesc_2_7::DOMCDATASectionImpl"*, %"class.xercesc_2_7::DOMCDATASectionImpl"** %this.addr, align 8
  %fNode = getelementptr inbounds %"class.xercesc_2_7::DOMCDATASectionImpl", %"class.xercesc_2_7::DOMCDATASectionImpl"* %this1, i32 0, i32 1, !dbg !2307
  %0 = load i16*, i16** %namespaceURI.addr, align 8, !dbg !2308
  %1 = load i8, i8* %useDefault.addr, align 1, !dbg !2309
  %tobool = trunc i8 %1 to i1, !dbg !2309
  %call = call i16* @_ZNK11xercesc_2_711DOMNodeImpl21lookupNamespacePrefixEPKtb(%"class.xercesc_2_7::DOMNodeImpl"* %fNode, i16* %0, i1 zeroext %tobool), !dbg !2310
  ret i16* %call, !dbg !2311
}

declare dso_local i16* @_ZNK11xercesc_2_711DOMNodeImpl21lookupNamespacePrefixEPKtb(%"class.xercesc_2_7::DOMNodeImpl"*, i16*, i1 zeroext) #4

; Function Attrs: noinline uwtable
define dso_local zeroext i1 @_ZNK11xercesc_2_719DOMCDATASectionImpl18isDefaultNamespaceEPKt(%"class.xercesc_2_7::DOMCDATASectionImpl"* %this, i16* %namespaceURI) unnamed_addr #3 align 2 !dbg !2312 {
entry:
  %this.addr = alloca %"class.xercesc_2_7::DOMCDATASectionImpl"*, align 8
  %namespaceURI.addr = alloca i16*, align 8
  store %"class.xercesc_2_7::DOMCDATASectionImpl"* %this, %"class.xercesc_2_7::DOMCDATASectionImpl"** %this.addr, align 8
  call void @llvm.dbg.declare(metadata %"class.xercesc_2_7::DOMCDATASectionImpl"** %this.addr, metadata !2313, metadata !DIExpression()), !dbg !2314
  store i16* %namespaceURI, i16** %namespaceURI.addr, align 8
  call void @llvm.dbg.declare(metadata i16** %namespaceURI.addr, metadata !2315, metadata !DIExpression()), !dbg !2316
  %this1 = load %"class.xercesc_2_7::DOMCDATASectionImpl"*, %"class.xercesc_2_7::DOMCDATASectionImpl"** %this.addr, align 8
  %fNode = getelementptr inbounds %"class.xercesc_2_7::DOMCDATASectionImpl", %"class.xercesc_2_7::DOMCDATASectionImpl"* %this1, i32 0, i32 1, !dbg !2317
  %0 = load i16*, i16** %namespaceURI.addr, align 8, !dbg !2318
  %call = call zeroext i1 @_ZNK11xercesc_2_711DOMNodeImpl18isDefaultNamespaceEPKt(%"class.xercesc_2_7::DOMNodeImpl"* %fNode, i16* %0), !dbg !2319
  ret i1 %call, !dbg !2320
}

declare dso_local zeroext i1 @_ZNK11xercesc_2_711DOMNodeImpl18isDefaultNamespaceEPKt(%"class.xercesc_2_7::DOMNodeImpl"*, i16*) #4

; Function Attrs: noinline uwtable
define dso_local i16* @_ZNK11xercesc_2_719DOMCDATASectionImpl18lookupNamespaceURIEPKt(%"class.xercesc_2_7::DOMCDATASectionImpl"* %this, i16* %prefix) unnamed_addr #3 align 2 !dbg !2321 {
entry:
  %this.addr = alloca %"class.xercesc_2_7::DOMCDATASectionImpl"*, align 8
  %prefix.addr = alloca i16*, align 8
  store %"class.xercesc_2_7::DOMCDATASectionImpl"* %this, %"class.xercesc_2_7::DOMCDATASectionImpl"** %this.addr, align 8
  call void @llvm.dbg.declare(metadata %"class.xercesc_2_7::DOMCDATASectionImpl"** %this.addr, metadata !2322, metadata !DIExpression()), !dbg !2323
  store i16* %prefix, i16** %prefix.addr, align 8
  call void @llvm.dbg.declare(metadata i16** %prefix.addr, metadata !2324, metadata !DIExpression()), !dbg !2325
  %this1 = load %"class.xercesc_2_7::DOMCDATASectionImpl"*, %"class.xercesc_2_7::DOMCDATASectionImpl"** %this.addr, align 8
  %fNode = getelementptr inbounds %"class.xercesc_2_7::DOMCDATASectionImpl", %"class.xercesc_2_7::DOMCDATASectionImpl"* %this1, i32 0, i32 1, !dbg !2326
  %0 = load i16*, i16** %prefix.addr, align 8, !dbg !2327
  %call = call i16* @_ZNK11xercesc_2_711DOMNodeImpl18lookupNamespaceURIEPKt(%"class.xercesc_2_7::DOMNodeImpl"* %fNode, i16* %0), !dbg !2328
  ret i16* %call, !dbg !2329
}

declare dso_local i16* @_ZNK11xercesc_2_711DOMNodeImpl18lookupNamespaceURIEPKt(%"class.xercesc_2_7::DOMNodeImpl"*, i16*) #4

; Function Attrs: noinline uwtable
define dso_local %"class.xercesc_2_7::DOMNode"* @_ZN11xercesc_2_719DOMCDATASectionImpl12getInterfaceEPKt(%"class.xercesc_2_7::DOMCDATASectionImpl"* %this, i16* %feature) unnamed_addr #3 align 2 !dbg !2330 {
entry:
  %this.addr = alloca %"class.xercesc_2_7::DOMCDATASectionImpl"*, align 8
  %feature.addr = alloca i16*, align 8
  store %"class.xercesc_2_7::DOMCDATASectionImpl"* %this, %"class.xercesc_2_7::DOMCDATASectionImpl"** %this.addr, align 8
  call void @llvm.dbg.declare(metadata %"class.xercesc_2_7::DOMCDATASectionImpl"** %this.addr, metadata !2331, metadata !DIExpression()), !dbg !2332
  store i16* %feature, i16** %feature.addr, align 8
  call void @llvm.dbg.declare(metadata i16** %feature.addr, metadata !2333, metadata !DIExpression()), !dbg !2334
  %this1 = load %"class.xercesc_2_7::DOMCDATASectionImpl"*, %"class.xercesc_2_7::DOMCDATASectionImpl"** %this.addr, align 8
  %fNode = getelementptr inbounds %"class.xercesc_2_7::DOMCDATASectionImpl", %"class.xercesc_2_7::DOMCDATASectionImpl"* %this1, i32 0, i32 1, !dbg !2335
  %0 = load i16*, i16** %feature.addr, align 8, !dbg !2336
  %call = call %"class.xercesc_2_7::DOMNode"* @_ZN11xercesc_2_711DOMNodeImpl12getInterfaceEPKt(%"class.xercesc_2_7::DOMNodeImpl"* %fNode, i16* %0), !dbg !2337
  ret %"class.xercesc_2_7::DOMNode"* %call, !dbg !2338
}

declare dso_local %"class.xercesc_2_7::DOMNode"* @_ZN11xercesc_2_711DOMNodeImpl12getInterfaceEPKt(%"class.xercesc_2_7::DOMNodeImpl"*, i16*) #4

; Function Attrs: noinline uwtable
define dso_local i16* @_ZNK11xercesc_2_719DOMCDATASectionImpl7getDataEv(%"class.xercesc_2_7::DOMCDATASectionImpl"* %this) unnamed_addr #3 align 2 !dbg !2339 {
entry:
  %this.addr = alloca %"class.xercesc_2_7::DOMCDATASectionImpl"*, align 8
  store %"class.xercesc_2_7::DOMCDATASectionImpl"* %this, %"class.xercesc_2_7::DOMCDATASectionImpl"** %this.addr, align 8
  call void @llvm.dbg.declare(metadata %"class.xercesc_2_7::DOMCDATASectionImpl"** %this.addr, metadata !2340, metadata !DIExpression()), !dbg !2341
  %this1 = load %"class.xercesc_2_7::DOMCDATASectionImpl"*, %"class.xercesc_2_7::DOMCDATASectionImpl"** %this.addr, align 8
  %fCharacterData = getelementptr inbounds %"class.xercesc_2_7::DOMCDATASectionImpl", %"class.xercesc_2_7::DOMCDATASectionImpl"* %this1, i32 0, i32 4, !dbg !2342
  %call = call i16* @_ZNK11xercesc_2_720DOMCharacterDataImpl7getDataEv(%"class.xercesc_2_7::DOMCharacterDataImpl"* %fCharacterData), !dbg !2343
  ret i16* %call, !dbg !2344
}

declare dso_local i16* @_ZNK11xercesc_2_720DOMCharacterDataImpl7getDataEv(%"class.xercesc_2_7::DOMCharacterDataImpl"*) #4

; Function Attrs: noinline uwtable
define dso_local i64 @_ZNK11xercesc_2_719DOMCDATASectionImpl9getLengthEv(%"class.xercesc_2_7::DOMCDATASectionImpl"* %this) unnamed_addr #3 align 2 !dbg !2345 {
entry:
  %this.addr = alloca %"class.xercesc_2_7::DOMCDATASectionImpl"*, align 8
  store %"class.xercesc_2_7::DOMCDATASectionImpl"* %this, %"class.xercesc_2_7::DOMCDATASectionImpl"** %this.addr, align 8
  call void @llvm.dbg.declare(metadata %"class.xercesc_2_7::DOMCDATASectionImpl"** %this.addr, metadata !2346, metadata !DIExpression()), !dbg !2347
  %this1 = load %"class.xercesc_2_7::DOMCDATASectionImpl"*, %"class.xercesc_2_7::DOMCDATASectionImpl"** %this.addr, align 8
  %fCharacterData = getelementptr inbounds %"class.xercesc_2_7::DOMCDATASectionImpl", %"class.xercesc_2_7::DOMCDATASectionImpl"* %this1, i32 0, i32 4, !dbg !2348
  %call = call i64 @_ZNK11xercesc_2_720DOMCharacterDataImpl9getLengthEv(%"class.xercesc_2_7::DOMCharacterDataImpl"* %fCharacterData), !dbg !2349
  ret i64 %call, !dbg !2350
}

declare dso_local i64 @_ZNK11xercesc_2_720DOMCharacterDataImpl9getLengthEv(%"class.xercesc_2_7::DOMCharacterDataImpl"*) #4

; Function Attrs: noinline uwtable
define dso_local i16* @_ZNK11xercesc_2_719DOMCDATASectionImpl13substringDataEmm(%"class.xercesc_2_7::DOMCDATASectionImpl"* %this, i64 %offset, i64 %count) unnamed_addr #3 align 2 !dbg !2351 {
entry:
  %this.addr = alloca %"class.xercesc_2_7::DOMCDATASectionImpl"*, align 8
  %offset.addr = alloca i64, align 8
  %count.addr = alloca i64, align 8
  store %"class.xercesc_2_7::DOMCDATASectionImpl"* %this, %"class.xercesc_2_7::DOMCDATASectionImpl"** %this.addr, align 8
  call void @llvm.dbg.declare(metadata %"class.xercesc_2_7::DOMCDATASectionImpl"** %this.addr, metadata !2352, metadata !DIExpression()), !dbg !2353
  store i64 %offset, i64* %offset.addr, align 8
  call void @llvm.dbg.declare(metadata i64* %offset.addr, metadata !2354, metadata !DIExpression()), !dbg !2355
  store i64 %count, i64* %count.addr, align 8
  call void @llvm.dbg.declare(metadata i64* %count.addr, metadata !2356, metadata !DIExpression()), !dbg !2357
  %this1 = load %"class.xercesc_2_7::DOMCDATASectionImpl"*, %"class.xercesc_2_7::DOMCDATASectionImpl"** %this.addr, align 8
  %fCharacterData = getelementptr inbounds %"class.xercesc_2_7::DOMCDATASectionImpl", %"class.xercesc_2_7::DOMCDATASectionImpl"* %this1, i32 0, i32 4, !dbg !2358
  %0 = bitcast %"class.xercesc_2_7::DOMCDATASectionImpl"* %this1 to %"class.xercesc_2_7::DOMNode"*, !dbg !2359
  %1 = load i64, i64* %offset.addr, align 8, !dbg !2360
  %2 = load i64, i64* %count.addr, align 8, !dbg !2361
  %call = call i16* @_ZNK11xercesc_2_720DOMCharacterDataImpl13substringDataEPKNS_7DOMNodeEmm(%"class.xercesc_2_7::DOMCharacterDataImpl"* %fCharacterData, %"class.xercesc_2_7::DOMNode"* %0, i64 %1, i64 %2), !dbg !2362
  ret i16* %call, !dbg !2363
}

declare dso_local i16* @_ZNK11xercesc_2_720DOMCharacterDataImpl13substringDataEPKNS_7DOMNodeEmm(%"class.xercesc_2_7::DOMCharacterDataImpl"*, %"class.xercesc_2_7::DOMNode"*, i64, i64) #4

; Function Attrs: noinline uwtable
define dso_local void @_ZN11xercesc_2_719DOMCDATASectionImpl10appendDataEPKt(%"class.xercesc_2_7::DOMCDATASectionImpl"* %this, i16* %arg) unnamed_addr #3 align 2 !dbg !2364 {
entry:
  %this.addr = alloca %"class.xercesc_2_7::DOMCDATASectionImpl"*, align 8
  %arg.addr = alloca i16*, align 8
  store %"class.xercesc_2_7::DOMCDATASectionImpl"* %this, %"class.xercesc_2_7::DOMCDATASectionImpl"** %this.addr, align 8
  call void @llvm.dbg.declare(metadata %"class.xercesc_2_7::DOMCDATASectionImpl"** %this.addr, metadata !2365, metadata !DIExpression()), !dbg !2366
  store i16* %arg, i16** %arg.addr, align 8
  call void @llvm.dbg.declare(metadata i16** %arg.addr, metadata !2367, metadata !DIExpression()), !dbg !2368
  %this1 = load %"class.xercesc_2_7::DOMCDATASectionImpl"*, %"class.xercesc_2_7::DOMCDATASectionImpl"** %this.addr, align 8
  %fCharacterData = getelementptr inbounds %"class.xercesc_2_7::DOMCDATASectionImpl", %"class.xercesc_2_7::DOMCDATASectionImpl"* %this1, i32 0, i32 4, !dbg !2369
  %0 = bitcast %"class.xercesc_2_7::DOMCDATASectionImpl"* %this1 to %"class.xercesc_2_7::DOMNode"*, !dbg !2370
  %1 = load i16*, i16** %arg.addr, align 8, !dbg !2371
  call void @_ZN11xercesc_2_720DOMCharacterDataImpl10appendDataEPKNS_7DOMNodeEPKt(%"class.xercesc_2_7::DOMCharacterDataImpl"* %fCharacterData, %"class.xercesc_2_7::DOMNode"* %0, i16* %1), !dbg !2372
  ret void, !dbg !2373
}

declare dso_local void @_ZN11xercesc_2_720DOMCharacterDataImpl10appendDataEPKNS_7DOMNodeEPKt(%"class.xercesc_2_7::DOMCharacterDataImpl"*, %"class.xercesc_2_7::DOMNode"*, i16*) #4

; Function Attrs: noinline uwtable
define dso_local void @_ZN11xercesc_2_719DOMCDATASectionImpl10insertDataEmPKt(%"class.xercesc_2_7::DOMCDATASectionImpl"* %this, i64 %offset, i16* %arg) unnamed_addr #3 align 2 !dbg !2374 {
entry:
  %this.addr = alloca %"class.xercesc_2_7::DOMCDATASectionImpl"*, align 8
  %offset.addr = alloca i64, align 8
  %arg.addr = alloca i16*, align 8
  store %"class.xercesc_2_7::DOMCDATASectionImpl"* %this, %"class.xercesc_2_7::DOMCDATASectionImpl"** %this.addr, align 8
  call void @llvm.dbg.declare(metadata %"class.xercesc_2_7::DOMCDATASectionImpl"** %this.addr, metadata !2375, metadata !DIExpression()), !dbg !2376
  store i64 %offset, i64* %offset.addr, align 8
  call void @llvm.dbg.declare(metadata i64* %offset.addr, metadata !2377, metadata !DIExpression()), !dbg !2378
  store i16* %arg, i16** %arg.addr, align 8
  call void @llvm.dbg.declare(metadata i16** %arg.addr, metadata !2379, metadata !DIExpression()), !dbg !2380
  %this1 = load %"class.xercesc_2_7::DOMCDATASectionImpl"*, %"class.xercesc_2_7::DOMCDATASectionImpl"** %this.addr, align 8
  %fCharacterData = getelementptr inbounds %"class.xercesc_2_7::DOMCDATASectionImpl", %"class.xercesc_2_7::DOMCDATASectionImpl"* %this1, i32 0, i32 4, !dbg !2381
  %0 = bitcast %"class.xercesc_2_7::DOMCDATASectionImpl"* %this1 to %"class.xercesc_2_7::DOMNode"*, !dbg !2382
  %1 = load i64, i64* %offset.addr, align 8, !dbg !2383
  %2 = load i16*, i16** %arg.addr, align 8, !dbg !2384
  call void @_ZN11xercesc_2_720DOMCharacterDataImpl10insertDataEPKNS_7DOMNodeEmPKt(%"class.xercesc_2_7::DOMCharacterDataImpl"* %fCharacterData, %"class.xercesc_2_7::DOMNode"* %0, i64 %1, i16* %2), !dbg !2385
  ret void, !dbg !2386
}

declare dso_local void @_ZN11xercesc_2_720DOMCharacterDataImpl10insertDataEPKNS_7DOMNodeEmPKt(%"class.xercesc_2_7::DOMCharacterDataImpl"*, %"class.xercesc_2_7::DOMNode"*, i64, i16*) #4

; Function Attrs: noinline uwtable
define dso_local void @_ZN11xercesc_2_719DOMCDATASectionImpl10deleteDataEmm(%"class.xercesc_2_7::DOMCDATASectionImpl"* %this, i64 %offset, i64 %count) unnamed_addr #3 align 2 !dbg !2387 {
entry:
  %this.addr = alloca %"class.xercesc_2_7::DOMCDATASectionImpl"*, align 8
  %offset.addr = alloca i64, align 8
  %count.addr = alloca i64, align 8
  store %"class.xercesc_2_7::DOMCDATASectionImpl"* %this, %"class.xercesc_2_7::DOMCDATASectionImpl"** %this.addr, align 8
  call void @llvm.dbg.declare(metadata %"class.xercesc_2_7::DOMCDATASectionImpl"** %this.addr, metadata !2388, metadata !DIExpression()), !dbg !2389
  store i64 %offset, i64* %offset.addr, align 8
  call void @llvm.dbg.declare(metadata i64* %offset.addr, metadata !2390, metadata !DIExpression()), !dbg !2391
  store i64 %count, i64* %count.addr, align 8
  call void @llvm.dbg.declare(metadata i64* %count.addr, metadata !2392, metadata !DIExpression()), !dbg !2393
  %this1 = load %"class.xercesc_2_7::DOMCDATASectionImpl"*, %"class.xercesc_2_7::DOMCDATASectionImpl"** %this.addr, align 8
  %fCharacterData = getelementptr inbounds %"class.xercesc_2_7::DOMCDATASectionImpl", %"class.xercesc_2_7::DOMCDATASectionImpl"* %this1, i32 0, i32 4, !dbg !2394
  %0 = bitcast %"class.xercesc_2_7::DOMCDATASectionImpl"* %this1 to %"class.xercesc_2_7::DOMNode"*, !dbg !2395
  %1 = load i64, i64* %offset.addr, align 8, !dbg !2396
  %2 = load i64, i64* %count.addr, align 8, !dbg !2397
  call void @_ZN11xercesc_2_720DOMCharacterDataImpl10deleteDataEPKNS_7DOMNodeEmm(%"class.xercesc_2_7::DOMCharacterDataImpl"* %fCharacterData, %"class.xercesc_2_7::DOMNode"* %0, i64 %1, i64 %2), !dbg !2398
  ret void, !dbg !2399
}

declare dso_local void @_ZN11xercesc_2_720DOMCharacterDataImpl10deleteDataEPKNS_7DOMNodeEmm(%"class.xercesc_2_7::DOMCharacterDataImpl"*, %"class.xercesc_2_7::DOMNode"*, i64, i64) #4

; Function Attrs: noinline uwtable
define dso_local void @_ZN11xercesc_2_719DOMCDATASectionImpl11replaceDataEmmPKt(%"class.xercesc_2_7::DOMCDATASectionImpl"* %this, i64 %offset, i64 %count, i16* %arg) unnamed_addr #3 align 2 !dbg !2400 {
entry:
  %this.addr = alloca %"class.xercesc_2_7::DOMCDATASectionImpl"*, align 8
  %offset.addr = alloca i64, align 8
  %count.addr = alloca i64, align 8
  %arg.addr = alloca i16*, align 8
  store %"class.xercesc_2_7::DOMCDATASectionImpl"* %this, %"class.xercesc_2_7::DOMCDATASectionImpl"** %this.addr, align 8
  call void @llvm.dbg.declare(metadata %"class.xercesc_2_7::DOMCDATASectionImpl"** %this.addr, metadata !2401, metadata !DIExpression()), !dbg !2402
  store i64 %offset, i64* %offset.addr, align 8
  call void @llvm.dbg.declare(metadata i64* %offset.addr, metadata !2403, metadata !DIExpression()), !dbg !2404
  store i64 %count, i64* %count.addr, align 8
  call void @llvm.dbg.declare(metadata i64* %count.addr, metadata !2405, metadata !DIExpression()), !dbg !2406
  store i16* %arg, i16** %arg.addr, align 8
  call void @llvm.dbg.declare(metadata i16** %arg.addr, metadata !2407, metadata !DIExpression()), !dbg !2408
  %this1 = load %"class.xercesc_2_7::DOMCDATASectionImpl"*, %"class.xercesc_2_7::DOMCDATASectionImpl"** %this.addr, align 8
  %fCharacterData = getelementptr inbounds %"class.xercesc_2_7::DOMCDATASectionImpl", %"class.xercesc_2_7::DOMCDATASectionImpl"* %this1, i32 0, i32 4, !dbg !2409
  %0 = bitcast %"class.xercesc_2_7::DOMCDATASectionImpl"* %this1 to %"class.xercesc_2_7::DOMNode"*, !dbg !2410
  %1 = load i64, i64* %offset.addr, align 8, !dbg !2411
  %2 = load i64, i64* %count.addr, align 8, !dbg !2412
  %3 = load i16*, i16** %arg.addr, align 8, !dbg !2413
  call void @_ZN11xercesc_2_720DOMCharacterDataImpl11replaceDataEPKNS_7DOMNodeEmmPKt(%"class.xercesc_2_7::DOMCharacterDataImpl"* %fCharacterData, %"class.xercesc_2_7::DOMNode"* %0, i64 %1, i64 %2, i16* %3), !dbg !2414
  ret void, !dbg !2415
}

declare dso_local void @_ZN11xercesc_2_720DOMCharacterDataImpl11replaceDataEPKNS_7DOMNodeEmmPKt(%"class.xercesc_2_7::DOMCharacterDataImpl"*, %"class.xercesc_2_7::DOMNode"*, i64, i64, i16*) #4

; Function Attrs: noinline uwtable
define dso_local void @_ZN11xercesc_2_719DOMCDATASectionImpl7setDataEPKt(%"class.xercesc_2_7::DOMCDATASectionImpl"* %this, i16* %data) unnamed_addr #3 align 2 !dbg !2416 {
entry:
  %this.addr = alloca %"class.xercesc_2_7::DOMCDATASectionImpl"*, align 8
  %data.addr = alloca i16*, align 8
  store %"class.xercesc_2_7::DOMCDATASectionImpl"* %this, %"class.xercesc_2_7::DOMCDATASectionImpl"** %this.addr, align 8
  call void @llvm.dbg.declare(metadata %"class.xercesc_2_7::DOMCDATASectionImpl"** %this.addr, metadata !2417, metadata !DIExpression()), !dbg !2418
  store i16* %data, i16** %data.addr, align 8
  call void @llvm.dbg.declare(metadata i16** %data.addr, metadata !2419, metadata !DIExpression()), !dbg !2420
  %this1 = load %"class.xercesc_2_7::DOMCDATASectionImpl"*, %"class.xercesc_2_7::DOMCDATASectionImpl"** %this.addr, align 8
  %fCharacterData = getelementptr inbounds %"class.xercesc_2_7::DOMCDATASectionImpl", %"class.xercesc_2_7::DOMCDATASectionImpl"* %this1, i32 0, i32 4, !dbg !2421
  %0 = bitcast %"class.xercesc_2_7::DOMCDATASectionImpl"* %this1 to %"class.xercesc_2_7::DOMNode"*, !dbg !2422
  %1 = load i16*, i16** %data.addr, align 8, !dbg !2423
  call void @_ZN11xercesc_2_720DOMCharacterDataImpl7setDataEPKNS_7DOMNodeEPKt(%"class.xercesc_2_7::DOMCharacterDataImpl"* %fCharacterData, %"class.xercesc_2_7::DOMNode"* %0, i16* %1), !dbg !2424
  ret void, !dbg !2425
}

declare dso_local void @_ZN11xercesc_2_720DOMCharacterDataImpl7setDataEPKNS_7DOMNodeEPKt(%"class.xercesc_2_7::DOMCharacterDataImpl"*, %"class.xercesc_2_7::DOMNode"*, i16*) #4

; Function Attrs: noinline uwtable
define dso_local void @_ZN11xercesc_2_719DOMCDATASectionImpl12setNodeValueEPKt(%"class.xercesc_2_7::DOMCDATASectionImpl"* %this, i16* %nodeValue) unnamed_addr #3 align 2 !dbg !2426 {
entry:
  %this.addr = alloca %"class.xercesc_2_7::DOMCDATASectionImpl"*, align 8
  %nodeValue.addr = alloca i16*, align 8
  store %"class.xercesc_2_7::DOMCDATASectionImpl"* %this, %"class.xercesc_2_7::DOMCDATASectionImpl"** %this.addr, align 8
  call void @llvm.dbg.declare(metadata %"class.xercesc_2_7::DOMCDATASectionImpl"** %this.addr, metadata !2427, metadata !DIExpression()), !dbg !2428
  store i16* %nodeValue, i16** %nodeValue.addr, align 8
  call void @llvm.dbg.declare(metadata i16** %nodeValue.addr, metadata !2429, metadata !DIExpression()), !dbg !2430
  %this1 = load %"class.xercesc_2_7::DOMCDATASectionImpl"*, %"class.xercesc_2_7::DOMCDATASectionImpl"** %this.addr, align 8
  %fCharacterData = getelementptr inbounds %"class.xercesc_2_7::DOMCDATASectionImpl", %"class.xercesc_2_7::DOMCDATASectionImpl"* %this1, i32 0, i32 4, !dbg !2431
  %0 = bitcast %"class.xercesc_2_7::DOMCDATASectionImpl"* %this1 to %"class.xercesc_2_7::DOMNode"*, !dbg !2432
  %1 = load i16*, i16** %nodeValue.addr, align 8, !dbg !2433
  call void @_ZN11xercesc_2_720DOMCharacterDataImpl12setNodeValueEPKNS_7DOMNodeEPKt(%"class.xercesc_2_7::DOMCharacterDataImpl"* %fCharacterData, %"class.xercesc_2_7::DOMNode"* %0, i16* %1), !dbg !2434
  ret void, !dbg !2435
}

declare dso_local void @_ZN11xercesc_2_720DOMCharacterDataImpl12setNodeValueEPKNS_7DOMNodeEPKt(%"class.xercesc_2_7::DOMCharacterDataImpl"*, %"class.xercesc_2_7::DOMNode"*, i16*) #4

; Function Attrs: noinline uwtable
define linkonce_odr dso_local void @_ZN11xercesc_2_77DOMTextC2Ev(%"class.xercesc_2_7::DOMText"* %this) unnamed_addr #3 comdat align 2 !dbg !2436 {
entry:
  %this.addr = alloca %"class.xercesc_2_7::DOMText"*, align 8
  store %"class.xercesc_2_7::DOMText"* %this, %"class.xercesc_2_7::DOMText"** %this.addr, align 8
  call void @llvm.dbg.declare(metadata %"class.xercesc_2_7::DOMText"** %this.addr, metadata !2437, metadata !DIExpression()), !dbg !2438
  %this1 = load %"class.xercesc_2_7::DOMText"*, %"class.xercesc_2_7::DOMText"** %this.addr, align 8
  %0 = bitcast %"class.xercesc_2_7::DOMText"* %this1 to %"class.xercesc_2_7::DOMCharacterData"*, !dbg !2439
  call void @_ZN11xercesc_2_716DOMCharacterDataC2Ev(%"class.xercesc_2_7::DOMCharacterData"* %0), !dbg !2440
  %1 = bitcast %"class.xercesc_2_7::DOMText"* %this1 to i32 (...)***, !dbg !2439
  store i32 (...)** bitcast (i8** getelementptr inbounds ({ [55 x i8*] }, { [55 x i8*] }* @_ZTVN11xercesc_2_77DOMTextE, i32 0, inrange i32 0, i32 2) to i32 (...)**), i32 (...)*** %1, align 8, !dbg !2439
  ret void, !dbg !2441
}

; Function Attrs: noinline nounwind uwtable
define linkonce_odr dso_local void @_ZN11xercesc_2_715DOMCDATASectionD2Ev(%"class.xercesc_2_7::DOMCDATASection"* %this) unnamed_addr #1 comdat align 2 !dbg !2442 {
entry:
  %this.addr = alloca %"class.xercesc_2_7::DOMCDATASection"*, align 8
  store %"class.xercesc_2_7::DOMCDATASection"* %this, %"class.xercesc_2_7::DOMCDATASection"** %this.addr, align 8
  call void @llvm.dbg.declare(metadata %"class.xercesc_2_7::DOMCDATASection"** %this.addr, metadata !2443, metadata !DIExpression()), !dbg !2444
  %this1 = load %"class.xercesc_2_7::DOMCDATASection"*, %"class.xercesc_2_7::DOMCDATASection"** %this.addr, align 8
  %0 = bitcast %"class.xercesc_2_7::DOMCDATASection"* %this1 to %"class.xercesc_2_7::DOMText"*, !dbg !2445
  call void @_ZN11xercesc_2_77DOMTextD2Ev(%"class.xercesc_2_7::DOMText"* %0) #7, !dbg !2445
  ret void, !dbg !2447
}

; Function Attrs: noinline nounwind uwtable
define linkonce_odr dso_local void @_ZN11xercesc_2_715DOMCDATASectionD0Ev(%"class.xercesc_2_7::DOMCDATASection"* %this) unnamed_addr #1 comdat align 2 !dbg !2448 {
entry:
  %this.addr = alloca %"class.xercesc_2_7::DOMCDATASection"*, align 8
  store %"class.xercesc_2_7::DOMCDATASection"* %this, %"class.xercesc_2_7::DOMCDATASection"** %this.addr, align 8
  call void @llvm.dbg.declare(metadata %"class.xercesc_2_7::DOMCDATASection"** %this.addr, metadata !2449, metadata !DIExpression()), !dbg !2450
  %this1 = load %"class.xercesc_2_7::DOMCDATASection"*, %"class.xercesc_2_7::DOMCDATASection"** %this.addr, align 8
  call void @llvm.trap() #10, !dbg !2451
  unreachable, !dbg !2451
}

declare dso_local void @__cxa_pure_virtual() unnamed_addr

; Function Attrs: noinline uwtable
define linkonce_odr dso_local void @_ZN11xercesc_2_716DOMCharacterDataC2Ev(%"class.xercesc_2_7::DOMCharacterData"* %this) unnamed_addr #3 comdat align 2 !dbg !2452 {
entry:
  %this.addr = alloca %"class.xercesc_2_7::DOMCharacterData"*, align 8
  store %"class.xercesc_2_7::DOMCharacterData"* %this, %"class.xercesc_2_7::DOMCharacterData"** %this.addr, align 8
  call void @llvm.dbg.declare(metadata %"class.xercesc_2_7::DOMCharacterData"** %this.addr, metadata !2453, metadata !DIExpression()), !dbg !2455
  %this1 = load %"class.xercesc_2_7::DOMCharacterData"*, %"class.xercesc_2_7::DOMCharacterData"** %this.addr, align 8
  %0 = bitcast %"class.xercesc_2_7::DOMCharacterData"* %this1 to %"class.xercesc_2_7::DOMNode"*, !dbg !2456
  call void @_ZN11xercesc_2_77DOMNodeC2Ev(%"class.xercesc_2_7::DOMNode"* %0), !dbg !2457
  %1 = bitcast %"class.xercesc_2_7::DOMCharacterData"* %this1 to i32 (...)***, !dbg !2456
  store i32 (...)** bitcast (i8** getelementptr inbounds ({ [50 x i8*] }, { [50 x i8*] }* @_ZTVN11xercesc_2_716DOMCharacterDataE, i32 0, inrange i32 0, i32 2) to i32 (...)**), i32 (...)*** %1, align 8, !dbg !2456
  ret void, !dbg !2458
}

; Function Attrs: noinline nounwind uwtable
define linkonce_odr dso_local void @_ZN11xercesc_2_77DOMTextD2Ev(%"class.xercesc_2_7::DOMText"* %this) unnamed_addr #1 comdat align 2 !dbg !2459 {
entry:
  %this.addr = alloca %"class.xercesc_2_7::DOMText"*, align 8
  store %"class.xercesc_2_7::DOMText"* %this, %"class.xercesc_2_7::DOMText"** %this.addr, align 8
  call void @llvm.dbg.declare(metadata %"class.xercesc_2_7::DOMText"** %this.addr, metadata !2460, metadata !DIExpression()), !dbg !2461
  %this1 = load %"class.xercesc_2_7::DOMText"*, %"class.xercesc_2_7::DOMText"** %this.addr, align 8
  %0 = bitcast %"class.xercesc_2_7::DOMText"* %this1 to %"class.xercesc_2_7::DOMCharacterData"*, !dbg !2462
  call void @_ZN11xercesc_2_716DOMCharacterDataD2Ev(%"class.xercesc_2_7::DOMCharacterData"* %0) #7, !dbg !2462
  ret void, !dbg !2464
}

; Function Attrs: noinline nounwind uwtable
define linkonce_odr dso_local void @_ZN11xercesc_2_77DOMTextD0Ev(%"class.xercesc_2_7::DOMText"* %this) unnamed_addr #1 comdat align 2 !dbg !2465 {
entry:
  %this.addr = alloca %"class.xercesc_2_7::DOMText"*, align 8
  store %"class.xercesc_2_7::DOMText"* %this, %"class.xercesc_2_7::DOMText"** %this.addr, align 8
  call void @llvm.dbg.declare(metadata %"class.xercesc_2_7::DOMText"** %this.addr, metadata !2466, metadata !DIExpression()), !dbg !2467
  %this1 = load %"class.xercesc_2_7::DOMText"*, %"class.xercesc_2_7::DOMText"** %this.addr, align 8
  call void @llvm.trap() #10, !dbg !2468
  unreachable, !dbg !2468
}

; Function Attrs: noinline nounwind uwtable
define linkonce_odr dso_local void @_ZN11xercesc_2_77DOMNodeC2Ev(%"class.xercesc_2_7::DOMNode"* %this) unnamed_addr #1 comdat align 2 !dbg !2469 {
entry:
  %this.addr = alloca %"class.xercesc_2_7::DOMNode"*, align 8
  store %"class.xercesc_2_7::DOMNode"* %this, %"class.xercesc_2_7::DOMNode"** %this.addr, align 8
  call void @llvm.dbg.declare(metadata %"class.xercesc_2_7::DOMNode"** %this.addr, metadata !2470, metadata !DIExpression()), !dbg !2471
  %this1 = load %"class.xercesc_2_7::DOMNode"*, %"class.xercesc_2_7::DOMNode"** %this.addr, align 8
  %0 = bitcast %"class.xercesc_2_7::DOMNode"* %this1 to i32 (...)***, !dbg !2472
  store i32 (...)** bitcast (i8** getelementptr inbounds ({ [42 x i8*] }, { [42 x i8*] }* @_ZTVN11xercesc_2_77DOMNodeE, i32 0, inrange i32 0, i32 2) to i32 (...)**), i32 (...)*** %0, align 8, !dbg !2472
  ret void, !dbg !2473
}

; Function Attrs: noinline nounwind uwtable
define linkonce_odr dso_local void @_ZN11xercesc_2_716DOMCharacterDataD2Ev(%"class.xercesc_2_7::DOMCharacterData"* %this) unnamed_addr #1 comdat align 2 !dbg !2474 {
entry:
  %this.addr = alloca %"class.xercesc_2_7::DOMCharacterData"*, align 8
  store %"class.xercesc_2_7::DOMCharacterData"* %this, %"class.xercesc_2_7::DOMCharacterData"** %this.addr, align 8
  call void @llvm.dbg.declare(metadata %"class.xercesc_2_7::DOMCharacterData"** %this.addr, metadata !2475, metadata !DIExpression()), !dbg !2476
  %this1 = load %"class.xercesc_2_7::DOMCharacterData"*, %"class.xercesc_2_7::DOMCharacterData"** %this.addr, align 8
  %0 = bitcast %"class.xercesc_2_7::DOMCharacterData"* %this1 to %"class.xercesc_2_7::DOMNode"*, !dbg !2477
  call void @_ZN11xercesc_2_77DOMNodeD2Ev(%"class.xercesc_2_7::DOMNode"* %0) #7, !dbg !2477
  ret void, !dbg !2479
}

; Function Attrs: noinline nounwind uwtable
define linkonce_odr dso_local void @_ZN11xercesc_2_716DOMCharacterDataD0Ev(%"class.xercesc_2_7::DOMCharacterData"* %this) unnamed_addr #1 comdat align 2 !dbg !2480 {
entry:
  %this.addr = alloca %"class.xercesc_2_7::DOMCharacterData"*, align 8
  store %"class.xercesc_2_7::DOMCharacterData"* %this, %"class.xercesc_2_7::DOMCharacterData"** %this.addr, align 8
  call void @llvm.dbg.declare(metadata %"class.xercesc_2_7::DOMCharacterData"** %this.addr, metadata !2481, metadata !DIExpression()), !dbg !2482
  %this1 = load %"class.xercesc_2_7::DOMCharacterData"*, %"class.xercesc_2_7::DOMCharacterData"** %this.addr, align 8
  call void @llvm.trap() #10, !dbg !2483
  unreachable, !dbg !2483
}

; Function Attrs: noinline nounwind uwtable
define linkonce_odr dso_local void @_ZN11xercesc_2_77DOMNodeD2Ev(%"class.xercesc_2_7::DOMNode"* %this) unnamed_addr #1 comdat align 2 !dbg !2484 {
entry:
  %this.addr = alloca %"class.xercesc_2_7::DOMNode"*, align 8
  store %"class.xercesc_2_7::DOMNode"* %this, %"class.xercesc_2_7::DOMNode"** %this.addr, align 8
  call void @llvm.dbg.declare(metadata %"class.xercesc_2_7::DOMNode"** %this.addr, metadata !2485, metadata !DIExpression()), !dbg !2486
  %this1 = load %"class.xercesc_2_7::DOMNode"*, %"class.xercesc_2_7::DOMNode"** %this.addr, align 8
  ret void, !dbg !2487
}

; Function Attrs: noinline nounwind uwtable
define linkonce_odr dso_local void @_ZN11xercesc_2_77DOMNodeD0Ev(%"class.xercesc_2_7::DOMNode"* %this) unnamed_addr #1 comdat align 2 !dbg !2488 {
entry:
  %this.addr = alloca %"class.xercesc_2_7::DOMNode"*, align 8
  store %"class.xercesc_2_7::DOMNode"* %this, %"class.xercesc_2_7::DOMNode"** %this.addr, align 8
  call void @llvm.dbg.declare(metadata %"class.xercesc_2_7::DOMNode"** %this.addr, metadata !2489, metadata !DIExpression()), !dbg !2490
  %this1 = load %"class.xercesc_2_7::DOMNode"*, %"class.xercesc_2_7::DOMNode"** %this.addr, align 8
  call void @llvm.trap() #10, !dbg !2491
  unreachable, !dbg !2491
}

; Function Attrs: cold noreturn nounwind
declare void @llvm.trap() #6

; Function Attrs: nounwind
declare dso_local void @_ZN11xercesc_2_715DOMNodeListImplD1Ev(%"class.xercesc_2_7::DOMNodeListImpl"*) unnamed_addr #5

; Function Attrs: noinline uwtable
define linkonce_odr dso_local void @_ZN11xercesc_2_77DOMTextC2ERKS0_(%"class.xercesc_2_7::DOMText"* %this, %"class.xercesc_2_7::DOMText"* dereferenceable(8) %other) unnamed_addr #3 comdat align 2 !dbg !2492 {
entry:
  %this.addr = alloca %"class.xercesc_2_7::DOMText"*, align 8
  %other.addr = alloca %"class.xercesc_2_7::DOMText"*, align 8
  store %"class.xercesc_2_7::DOMText"* %this, %"class.xercesc_2_7::DOMText"** %this.addr, align 8
  call void @llvm.dbg.declare(metadata %"class.xercesc_2_7::DOMText"** %this.addr, metadata !2493, metadata !DIExpression()), !dbg !2494
  store %"class.xercesc_2_7::DOMText"* %other, %"class.xercesc_2_7::DOMText"** %other.addr, align 8
  call void @llvm.dbg.declare(metadata %"class.xercesc_2_7::DOMText"** %other.addr, metadata !2495, metadata !DIExpression()), !dbg !2496
  %this1 = load %"class.xercesc_2_7::DOMText"*, %"class.xercesc_2_7::DOMText"** %this.addr, align 8
  %0 = bitcast %"class.xercesc_2_7::DOMText"* %this1 to %"class.xercesc_2_7::DOMCharacterData"*, !dbg !2497
  %1 = load %"class.xercesc_2_7::DOMText"*, %"class.xercesc_2_7::DOMText"** %other.addr, align 8, !dbg !2498
  %2 = bitcast %"class.xercesc_2_7::DOMText"* %1 to %"class.xercesc_2_7::DOMCharacterData"*, !dbg !2498
  call void @_ZN11xercesc_2_716DOMCharacterDataC2ERKS0_(%"class.xercesc_2_7::DOMCharacterData"* %0, %"class.xercesc_2_7::DOMCharacterData"* dereferenceable(8) %2), !dbg !2499
  %3 = bitcast %"class.xercesc_2_7::DOMText"* %this1 to i32 (...)***, !dbg !2497
  store i32 (...)** bitcast (i8** getelementptr inbounds ({ [55 x i8*] }, { [55 x i8*] }* @_ZTVN11xercesc_2_77DOMTextE, i32 0, inrange i32 0, i32 2) to i32 (...)**), i32 (...)*** %3, align 8, !dbg !2497
  ret void, !dbg !2500
}

; Function Attrs: noinline uwtable
define linkonce_odr dso_local void @_ZN11xercesc_2_716DOMCharacterDataC2ERKS0_(%"class.xercesc_2_7::DOMCharacterData"* %this, %"class.xercesc_2_7::DOMCharacterData"* dereferenceable(8) %other) unnamed_addr #3 comdat align 2 !dbg !2501 {
entry:
  %this.addr = alloca %"class.xercesc_2_7::DOMCharacterData"*, align 8
  %other.addr = alloca %"class.xercesc_2_7::DOMCharacterData"*, align 8
  store %"class.xercesc_2_7::DOMCharacterData"* %this, %"class.xercesc_2_7::DOMCharacterData"** %this.addr, align 8
  call void @llvm.dbg.declare(metadata %"class.xercesc_2_7::DOMCharacterData"** %this.addr, metadata !2502, metadata !DIExpression()), !dbg !2503
  store %"class.xercesc_2_7::DOMCharacterData"* %other, %"class.xercesc_2_7::DOMCharacterData"** %other.addr, align 8
  call void @llvm.dbg.declare(metadata %"class.xercesc_2_7::DOMCharacterData"** %other.addr, metadata !2504, metadata !DIExpression()), !dbg !2505
  %this1 = load %"class.xercesc_2_7::DOMCharacterData"*, %"class.xercesc_2_7::DOMCharacterData"** %this.addr, align 8
  %0 = bitcast %"class.xercesc_2_7::DOMCharacterData"* %this1 to %"class.xercesc_2_7::DOMNode"*, !dbg !2506
  %1 = load %"class.xercesc_2_7::DOMCharacterData"*, %"class.xercesc_2_7::DOMCharacterData"** %other.addr, align 8, !dbg !2507
  %2 = bitcast %"class.xercesc_2_7::DOMCharacterData"* %1 to %"class.xercesc_2_7::DOMNode"*, !dbg !2507
  call void @_ZN11xercesc_2_77DOMNodeC2ERKS0_(%"class.xercesc_2_7::DOMNode"* %0, %"class.xercesc_2_7::DOMNode"* dereferenceable(8) %2), !dbg !2508
  %3 = bitcast %"class.xercesc_2_7::DOMCharacterData"* %this1 to i32 (...)***, !dbg !2506
  store i32 (...)** bitcast (i8** getelementptr inbounds ({ [50 x i8*] }, { [50 x i8*] }* @_ZTVN11xercesc_2_716DOMCharacterDataE, i32 0, inrange i32 0, i32 2) to i32 (...)**), i32 (...)*** %3, align 8, !dbg !2506
  ret void, !dbg !2509
}

; Function Attrs: noinline nounwind uwtable
define linkonce_odr dso_local void @_ZN11xercesc_2_77DOMNodeC2ERKS0_(%"class.xercesc_2_7::DOMNode"* %this, %"class.xercesc_2_7::DOMNode"* dereferenceable(8) %0) unnamed_addr #1 comdat align 2 !dbg !2510 {
entry:
  %this.addr = alloca %"class.xercesc_2_7::DOMNode"*, align 8
  %.addr = alloca %"class.xercesc_2_7::DOMNode"*, align 8
  store %"class.xercesc_2_7::DOMNode"* %this, %"class.xercesc_2_7::DOMNode"** %this.addr, align 8
  call void @llvm.dbg.declare(metadata %"class.xercesc_2_7::DOMNode"** %this.addr, metadata !2511, metadata !DIExpression()), !dbg !2512
  store %"class.xercesc_2_7::DOMNode"* %0, %"class.xercesc_2_7::DOMNode"** %.addr, align 8
  call void @llvm.dbg.declare(metadata %"class.xercesc_2_7::DOMNode"** %.addr, metadata !2513, metadata !DIExpression()), !dbg !2514
  %this1 = load %"class.xercesc_2_7::DOMNode"*, %"class.xercesc_2_7::DOMNode"** %this.addr, align 8
  %1 = bitcast %"class.xercesc_2_7::DOMNode"* %this1 to i32 (...)***, !dbg !2515
  store i32 (...)** bitcast (i8** getelementptr inbounds ({ [42 x i8*] }, { [42 x i8*] }* @_ZTVN11xercesc_2_77DOMNodeE, i32 0, inrange i32 0, i32 2) to i32 (...)**), i32 (...)*** %1, align 8, !dbg !2515
  ret void, !dbg !2516
}

; Function Attrs: noinline nounwind uwtable
define linkonce_odr dso_local zeroext i1 @_ZNK11xercesc_2_711DOMNodeImpl10isLeafNodeEv(%"class.xercesc_2_7::DOMNodeImpl"* %this) #1 comdat align 2 !dbg !2517 {
entry:
  %this.addr = alloca %"class.xercesc_2_7::DOMNodeImpl"*, align 8
  store %"class.xercesc_2_7::DOMNodeImpl"* %this, %"class.xercesc_2_7::DOMNodeImpl"** %this.addr, align 8
  call void @llvm.dbg.declare(metadata %"class.xercesc_2_7::DOMNodeImpl"** %this.addr, metadata !2518, metadata !DIExpression()), !dbg !2519
  %this1 = load %"class.xercesc_2_7::DOMNodeImpl"*, %"class.xercesc_2_7::DOMNodeImpl"** %this.addr, align 8
  %flags = getelementptr inbounds %"class.xercesc_2_7::DOMNodeImpl", %"class.xercesc_2_7::DOMNodeImpl"* %this1, i32 0, i32 1, !dbg !2520
  %0 = load i16, i16* %flags, align 8, !dbg !2520
  %conv = zext i16 %0 to i32, !dbg !2520
  %1 = load i16, i16* @_ZN11xercesc_2_711DOMNodeImpl12LEAFNODETYPEE, align 2, !dbg !2521
  %conv2 = zext i16 %1 to i32, !dbg !2521
  %and = and i32 %conv, %conv2, !dbg !2522
  %cmp = icmp ne i32 %and, 0, !dbg !2523
  ret i1 %cmp, !dbg !2524
}

declare dso_local i8* @_ZN11xercesc_2_715DOMDocumentImpl8allocateEmNS0_14NodeObjectTypeE(%"class.xercesc_2_7::DOMDocumentImpl"*, i64, i32) #4

; Function Attrs: noinline uwtable
define linkonce_odr dso_local void @_ZN11xercesc_2_730ArrayIndexOutOfBoundsExceptionC2EPKcjNS_10XMLExcepts5CodesEPNS_13MemoryManagerE(%"class.xercesc_2_7::ArrayIndexOutOfBoundsException"* %this, i8* %srcFile, i32 %srcLine, i32 %toThrow, %"class.xercesc_2_7::MemoryManager"* %memoryManager) unnamed_addr #3 comdat align 2 personality i8* bitcast (i32 (...)* @__gxx_personality_v0 to i8*) !dbg !2525 {
entry:
  %this.addr = alloca %"class.xercesc_2_7::ArrayIndexOutOfBoundsException"*, align 8
  %srcFile.addr = alloca i8*, align 8
  %srcLine.addr = alloca i32, align 4
  %toThrow.addr = alloca i32, align 4
  %memoryManager.addr = alloca %"class.xercesc_2_7::MemoryManager"*, align 8
  %exn.slot = alloca i8*
  %ehselector.slot = alloca i32
  store %"class.xercesc_2_7::ArrayIndexOutOfBoundsException"* %this, %"class.xercesc_2_7::ArrayIndexOutOfBoundsException"** %this.addr, align 8
  call void @llvm.dbg.declare(metadata %"class.xercesc_2_7::ArrayIndexOutOfBoundsException"** %this.addr, metadata !2565, metadata !DIExpression()), !dbg !2567
  store i8* %srcFile, i8** %srcFile.addr, align 8
  call void @llvm.dbg.declare(metadata i8** %srcFile.addr, metadata !2568, metadata !DIExpression()), !dbg !2569
  store i32 %srcLine, i32* %srcLine.addr, align 4
  call void @llvm.dbg.declare(metadata i32* %srcLine.addr, metadata !2570, metadata !DIExpression()), !dbg !2569
  store i32 %toThrow, i32* %toThrow.addr, align 4
  call void @llvm.dbg.declare(metadata i32* %toThrow.addr, metadata !2571, metadata !DIExpression()), !dbg !2569
  store %"class.xercesc_2_7::MemoryManager"* %memoryManager, %"class.xercesc_2_7::MemoryManager"** %memoryManager.addr, align 8
  call void @llvm.dbg.declare(metadata %"class.xercesc_2_7::MemoryManager"** %memoryManager.addr, metadata !2572, metadata !DIExpression()), !dbg !2569
  %this1 = load %"class.xercesc_2_7::ArrayIndexOutOfBoundsException"*, %"class.xercesc_2_7::ArrayIndexOutOfBoundsException"** %this.addr, align 8
  %0 = bitcast %"class.xercesc_2_7::ArrayIndexOutOfBoundsException"* %this1 to %"class.xercesc_2_7::XMLException"*, !dbg !2569
  %1 = load i8*, i8** %srcFile.addr, align 8, !dbg !2569
  %2 = load i32, i32* %srcLine.addr, align 4, !dbg !2569
  %3 = load %"class.xercesc_2_7::MemoryManager"*, %"class.xercesc_2_7::MemoryManager"** %memoryManager.addr, align 8, !dbg !2569
  call void @_ZN11xercesc_2_712XMLExceptionC2EPKcjPNS_13MemoryManagerE(%"class.xercesc_2_7::XMLException"* %0, i8* %1, i32 %2, %"class.xercesc_2_7::MemoryManager"* %3), !dbg !2569
  %4 = bitcast %"class.xercesc_2_7::ArrayIndexOutOfBoundsException"* %this1 to i32 (...)***, !dbg !2569
  store i32 (...)** bitcast (i8** getelementptr inbounds ({ [6 x i8*] }, { [6 x i8*] }* @_ZTVN11xercesc_2_730ArrayIndexOutOfBoundsExceptionE, i32 0, inrange i32 0, i32 2) to i32 (...)**), i32 (...)*** %4, align 8, !dbg !2569
  %5 = bitcast %"class.xercesc_2_7::ArrayIndexOutOfBoundsException"* %this1 to %"class.xercesc_2_7::XMLException"*, !dbg !2573
  %6 = load i32, i32* %toThrow.addr, align 4, !dbg !2573
  invoke void @_ZN11xercesc_2_712XMLException14loadExceptTextENS_10XMLExcepts5CodesE(%"class.xercesc_2_7::XMLException"* %5, i32 %6)
          to label %invoke.cont unwind label %lpad, !dbg !2573

invoke.cont:                                      ; preds = %entry
  ret void, !dbg !2569

lpad:                                             ; preds = %entry
  %7 = landingpad { i8*, i32 }
          cleanup, !dbg !2573
  %8 = extractvalue { i8*, i32 } %7, 0, !dbg !2573
  store i8* %8, i8** %exn.slot, align 8, !dbg !2573
  %9 = extractvalue { i8*, i32 } %7, 1, !dbg !2573
  store i32 %9, i32* %ehselector.slot, align 4, !dbg !2573
  %10 = bitcast %"class.xercesc_2_7::ArrayIndexOutOfBoundsException"* %this1 to %"class.xercesc_2_7::XMLException"*, !dbg !2573
  call void @_ZN11xercesc_2_712XMLExceptionD2Ev(%"class.xercesc_2_7::XMLException"* %10) #7, !dbg !2573
  br label %eh.resume, !dbg !2573

eh.resume:                                        ; preds = %lpad
  %exn = load i8*, i8** %exn.slot, align 8, !dbg !2573
  %sel = load i32, i32* %ehselector.slot, align 4, !dbg !2573
  %lpad.val = insertvalue { i8*, i32 } undef, i8* %exn, 0, !dbg !2573
  %lpad.val2 = insertvalue { i8*, i32 } %lpad.val, i32 %sel, 1, !dbg !2573
  resume { i8*, i32 } %lpad.val2, !dbg !2573
}

; Function Attrs: noinline nounwind uwtable
define linkonce_odr dso_local void @_ZN11xercesc_2_730ArrayIndexOutOfBoundsExceptionD2Ev(%"class.xercesc_2_7::ArrayIndexOutOfBoundsException"* %this) unnamed_addr #1 comdat align 2 !dbg !2575 {
entry:
  %this.addr = alloca %"class.xercesc_2_7::ArrayIndexOutOfBoundsException"*, align 8
  store %"class.xercesc_2_7::ArrayIndexOutOfBoundsException"* %this, %"class.xercesc_2_7::ArrayIndexOutOfBoundsException"** %this.addr, align 8
  call void @llvm.dbg.declare(metadata %"class.xercesc_2_7::ArrayIndexOutOfBoundsException"** %this.addr, metadata !2576, metadata !DIExpression()), !dbg !2577
  %this1 = load %"class.xercesc_2_7::ArrayIndexOutOfBoundsException"*, %"class.xercesc_2_7::ArrayIndexOutOfBoundsException"** %this.addr, align 8
  %0 = bitcast %"class.xercesc_2_7::ArrayIndexOutOfBoundsException"* %this1 to %"class.xercesc_2_7::XMLException"*, !dbg !2578
  call void @_ZN11xercesc_2_712XMLExceptionD2Ev(%"class.xercesc_2_7::XMLException"* %0) #7, !dbg !2578
  ret void, !dbg !2580
}

declare dso_local void @_ZN11xercesc_2_712XMLExceptionC2EPKcjPNS_13MemoryManagerE(%"class.xercesc_2_7::XMLException"*, i8*, i32, %"class.xercesc_2_7::MemoryManager"*) unnamed_addr #4

declare dso_local void @_ZN11xercesc_2_712XMLException14loadExceptTextENS_10XMLExcepts5CodesE(%"class.xercesc_2_7::XMLException"*, i32) #4

; Function Attrs: nounwind
declare dso_local void @_ZN11xercesc_2_712XMLExceptionD2Ev(%"class.xercesc_2_7::XMLException"*) unnamed_addr #5

; Function Attrs: noinline nounwind uwtable
define linkonce_odr dso_local void @_ZN11xercesc_2_730ArrayIndexOutOfBoundsExceptionD0Ev(%"class.xercesc_2_7::ArrayIndexOutOfBoundsException"* %this) unnamed_addr #1 comdat align 2 !dbg !2581 {
entry:
  %this.addr = alloca %"class.xercesc_2_7::ArrayIndexOutOfBoundsException"*, align 8
  store %"class.xercesc_2_7::ArrayIndexOutOfBoundsException"* %this, %"class.xercesc_2_7::ArrayIndexOutOfBoundsException"** %this.addr, align 8
  call void @llvm.dbg.declare(metadata %"class.xercesc_2_7::ArrayIndexOutOfBoundsException"** %this.addr, metadata !2582, metadata !DIExpression()), !dbg !2583
  %this1 = load %"class.xercesc_2_7::ArrayIndexOutOfBoundsException"*, %"class.xercesc_2_7::ArrayIndexOutOfBoundsException"** %this.addr, align 8
  call void @_ZN11xercesc_2_730ArrayIndexOutOfBoundsExceptionD2Ev(%"class.xercesc_2_7::ArrayIndexOutOfBoundsException"* %this1) #7, !dbg !2584
  %0 = bitcast %"class.xercesc_2_7::ArrayIndexOutOfBoundsException"* %this1 to i8*, !dbg !2584
  call void @_ZN11xercesc_2_77XMemorydlEPv(i8* %0) #7, !dbg !2584
  ret void, !dbg !2584
}

; Function Attrs: noinline nounwind uwtable
define linkonce_odr dso_local i16* @_ZNK11xercesc_2_730ArrayIndexOutOfBoundsException7getTypeEv(%"class.xercesc_2_7::ArrayIndexOutOfBoundsException"* %this) unnamed_addr #1 comdat align 2 !dbg !2585 {
entry:
  %this.addr = alloca %"class.xercesc_2_7::ArrayIndexOutOfBoundsException"*, align 8
  store %"class.xercesc_2_7::ArrayIndexOutOfBoundsException"* %this, %"class.xercesc_2_7::ArrayIndexOutOfBoundsException"** %this.addr, align 8
  call void @llvm.dbg.declare(metadata %"class.xercesc_2_7::ArrayIndexOutOfBoundsException"** %this.addr, metadata !2586, metadata !DIExpression()), !dbg !2588
  %this1 = load %"class.xercesc_2_7::ArrayIndexOutOfBoundsException"*, %"class.xercesc_2_7::ArrayIndexOutOfBoundsException"** %this.addr, align 8
  ret i16* getelementptr inbounds ([0 x i16], [0 x i16]* @_ZN11xercesc_2_76XMLUni37fgArrayIndexOutOfBoundsException_NameE, i64 0, i64 0), !dbg !2589
}

; Function Attrs: noinline uwtable
define linkonce_odr dso_local %"class.xercesc_2_7::XMLException"* @_ZNK11xercesc_2_730ArrayIndexOutOfBoundsException9duplicateEv(%"class.xercesc_2_7::ArrayIndexOutOfBoundsException"* %this) unnamed_addr #3 comdat align 2 personality i8* bitcast (i32 (...)* @__gxx_personality_v0 to i8*) !dbg !2590 {
entry:
  %this.addr = alloca %"class.xercesc_2_7::ArrayIndexOutOfBoundsException"*, align 8
  %exn.slot = alloca i8*
  %ehselector.slot = alloca i32
  store %"class.xercesc_2_7::ArrayIndexOutOfBoundsException"* %this, %"class.xercesc_2_7::ArrayIndexOutOfBoundsException"** %this.addr, align 8
  call void @llvm.dbg.declare(metadata %"class.xercesc_2_7::ArrayIndexOutOfBoundsException"** %this.addr, metadata !2591, metadata !DIExpression()), !dbg !2592
  %this1 = load %"class.xercesc_2_7::ArrayIndexOutOfBoundsException"*, %"class.xercesc_2_7::ArrayIndexOutOfBoundsException"** %this.addr, align 8
  %0 = bitcast %"class.xercesc_2_7::ArrayIndexOutOfBoundsException"* %this1 to %"class.xercesc_2_7::XMLException"*, !dbg !2593
  %fMemoryManager = getelementptr inbounds %"class.xercesc_2_7::XMLException", %"class.xercesc_2_7::XMLException"* %0, i32 0, i32 5, !dbg !2593
  %1 = load %"class.xercesc_2_7::MemoryManager"*, %"class.xercesc_2_7::MemoryManager"** %fMemoryManager, align 8, !dbg !2593
  %call = call i8* @_ZN11xercesc_2_77XMemorynwEmPNS_13MemoryManagerE(i64 48, %"class.xercesc_2_7::MemoryManager"* %1), !dbg !2593
  %2 = bitcast i8* %call to %"class.xercesc_2_7::ArrayIndexOutOfBoundsException"*, !dbg !2593
  invoke void @_ZN11xercesc_2_730ArrayIndexOutOfBoundsExceptionC2ERKS0_(%"class.xercesc_2_7::ArrayIndexOutOfBoundsException"* %2, %"class.xercesc_2_7::ArrayIndexOutOfBoundsException"* dereferenceable(48) %this1)
          to label %invoke.cont unwind label %lpad, !dbg !2593

invoke.cont:                                      ; preds = %entry
  %3 = bitcast %"class.xercesc_2_7::ArrayIndexOutOfBoundsException"* %2 to %"class.xercesc_2_7::XMLException"*, !dbg !2593
  ret %"class.xercesc_2_7::XMLException"* %3, !dbg !2593

lpad:                                             ; preds = %entry
  %4 = landingpad { i8*, i32 }
          cleanup, !dbg !2593
  %5 = extractvalue { i8*, i32 } %4, 0, !dbg !2593
  store i8* %5, i8** %exn.slot, align 8, !dbg !2593
  %6 = extractvalue { i8*, i32 } %4, 1, !dbg !2593
  store i32 %6, i32* %ehselector.slot, align 4, !dbg !2593
  call void @_ZN11xercesc_2_77XMemorydlEPvPNS_13MemoryManagerE(i8* %call, %"class.xercesc_2_7::MemoryManager"* %1) #7, !dbg !2593
  br label %eh.resume, !dbg !2593

eh.resume:                                        ; preds = %lpad
  %exn = load i8*, i8** %exn.slot, align 8, !dbg !2593
  %sel = load i32, i32* %ehselector.slot, align 4, !dbg !2593
  %lpad.val = insertvalue { i8*, i32 } undef, i8* %exn, 0, !dbg !2593
  %lpad.val2 = insertvalue { i8*, i32 } %lpad.val, i32 %sel, 1, !dbg !2593
  resume { i8*, i32 } %lpad.val2, !dbg !2593
}

; Function Attrs: nounwind
declare dso_local void @_ZN11xercesc_2_77XMemorydlEPv(i8*) #5

declare dso_local i8* @_ZN11xercesc_2_77XMemorynwEmPNS_13MemoryManagerE(i64, %"class.xercesc_2_7::MemoryManager"*) #4

; Function Attrs: noinline uwtable
define linkonce_odr dso_local void @_ZN11xercesc_2_730ArrayIndexOutOfBoundsExceptionC2ERKS0_(%"class.xercesc_2_7::ArrayIndexOutOfBoundsException"* %this, %"class.xercesc_2_7::ArrayIndexOutOfBoundsException"* dereferenceable(48) %toCopy) unnamed_addr #3 comdat align 2 !dbg !2594 {
entry:
  %this.addr = alloca %"class.xercesc_2_7::ArrayIndexOutOfBoundsException"*, align 8
  %toCopy.addr = alloca %"class.xercesc_2_7::ArrayIndexOutOfBoundsException"*, align 8
  store %"class.xercesc_2_7::ArrayIndexOutOfBoundsException"* %this, %"class.xercesc_2_7::ArrayIndexOutOfBoundsException"** %this.addr, align 8
  call void @llvm.dbg.declare(metadata %"class.xercesc_2_7::ArrayIndexOutOfBoundsException"** %this.addr, metadata !2595, metadata !DIExpression()), !dbg !2596
  store %"class.xercesc_2_7::ArrayIndexOutOfBoundsException"* %toCopy, %"class.xercesc_2_7::ArrayIndexOutOfBoundsException"** %toCopy.addr, align 8
  call void @llvm.dbg.declare(metadata %"class.xercesc_2_7::ArrayIndexOutOfBoundsException"** %toCopy.addr, metadata !2597, metadata !DIExpression()), !dbg !2598
  %this1 = load %"class.xercesc_2_7::ArrayIndexOutOfBoundsException"*, %"class.xercesc_2_7::ArrayIndexOutOfBoundsException"** %this.addr, align 8
  %0 = bitcast %"class.xercesc_2_7::ArrayIndexOutOfBoundsException"* %this1 to %"class.xercesc_2_7::XMLException"*, !dbg !2598
  %1 = load %"class.xercesc_2_7::ArrayIndexOutOfBoundsException"*, %"class.xercesc_2_7::ArrayIndexOutOfBoundsException"** %toCopy.addr, align 8, !dbg !2598
  %2 = bitcast %"class.xercesc_2_7::ArrayIndexOutOfBoundsException"* %1 to %"class.xercesc_2_7::XMLException"*, !dbg !2598
  call void @_ZN11xercesc_2_712XMLExceptionC2ERKS0_(%"class.xercesc_2_7::XMLException"* %0, %"class.xercesc_2_7::XMLException"* dereferenceable(48) %2), !dbg !2598
  %3 = bitcast %"class.xercesc_2_7::ArrayIndexOutOfBoundsException"* %this1 to i32 (...)***, !dbg !2598
  store i32 (...)** bitcast (i8** getelementptr inbounds ({ [6 x i8*] }, { [6 x i8*] }* @_ZTVN11xercesc_2_730ArrayIndexOutOfBoundsExceptionE, i32 0, inrange i32 0, i32 2) to i32 (...)**), i32 (...)*** %3, align 8, !dbg !2598
  ret void, !dbg !2598
}

; Function Attrs: nounwind
declare dso_local void @_ZN11xercesc_2_77XMemorydlEPvPNS_13MemoryManagerE(i8*, %"class.xercesc_2_7::MemoryManager"*) #5

declare dso_local void @_ZN11xercesc_2_712XMLExceptionC2ERKS0_(%"class.xercesc_2_7::XMLException"*, %"class.xercesc_2_7::XMLException"* dereferenceable(48)) unnamed_addr #4

attributes #0 = { nounwind readnone speculatable willreturn }
attributes #1 = { noinline nounwind uwtable "correctly-rounded-divide-sqrt-fp-math"="false" "disable-tail-calls"="false" "frame-pointer"="all" "less-precise-fpmad"="false" "min-legal-vector-width"="0" "no-infs-fp-math"="false" "no-jump-tables"="false" "no-nans-fp-math"="false" "no-signed-zeros-fp-math"="false" "no-trapping-math"="false" "stack-protector-buffer-size"="8" "target-cpu"="x86-64" "target-features"="+cx8,+fxsr,+mmx,+sse,+sse2,+x87" "unsafe-fp-math"="false" "use-soft-float"="false" }
attributes #2 = { nobuiltin nounwind "correctly-rounded-divide-sqrt-fp-math"="false" "disable-tail-calls"="false" "frame-pointer"="all" "less-precise-fpmad"="false" "no-infs-fp-math"="false" "no-nans-fp-math"="false" "no-signed-zeros-fp-math"="false" "no-trapping-math"="false" "stack-protector-buffer-size"="8" "target-cpu"="x86-64" "target-features"="+cx8,+fxsr,+mmx,+sse,+sse2,+x87" "unsafe-fp-math"="false" "use-soft-float"="false" }
attributes #3 = { noinline uwtable "correctly-rounded-divide-sqrt-fp-math"="false" "disable-tail-calls"="false" "frame-pointer"="all" "less-precise-fpmad"="false" "min-legal-vector-width"="0" "no-infs-fp-math"="false" "no-jump-tables"="false" "no-nans-fp-math"="false" "no-signed-zeros-fp-math"="false" "no-trapping-math"="false" "stack-protector-buffer-size"="8" "target-cpu"="x86-64" "target-features"="+cx8,+fxsr,+mmx,+sse,+sse2,+x87" "unsafe-fp-math"="false" "use-soft-float"="false" }
attributes #4 = { "correctly-rounded-divide-sqrt-fp-math"="false" "disable-tail-calls"="false" "frame-pointer"="all" "less-precise-fpmad"="false" "no-infs-fp-math"="false" "no-nans-fp-math"="false" "no-signed-zeros-fp-math"="false" "no-trapping-math"="false" "stack-protector-buffer-size"="8" "target-cpu"="x86-64" "target-features"="+cx8,+fxsr,+mmx,+sse,+sse2,+x87" "unsafe-fp-math"="false" "use-soft-float"="false" }
attributes #5 = { nounwind "correctly-rounded-divide-sqrt-fp-math"="false" "disable-tail-calls"="false" "frame-pointer"="all" "less-precise-fpmad"="false" "no-infs-fp-math"="false" "no-nans-fp-math"="false" "no-signed-zeros-fp-math"="false" "no-trapping-math"="false" "stack-protector-buffer-size"="8" "target-cpu"="x86-64" "target-features"="+cx8,+fxsr,+mmx,+sse,+sse2,+x87" "unsafe-fp-math"="false" "use-soft-float"="false" }
attributes #6 = { cold noreturn nounwind }
attributes #7 = { nounwind }
attributes #8 = { builtin nounwind }
attributes #9 = { noreturn }
attributes #10 = { noreturn nounwind }

!llvm.dbg.cu = !{!728}
!llvm.module.flags = !{!1587, !1588, !1589}
!llvm.ident = !{!1590}

!0 = !DIGlobalVariableExpression(var: !1, expr: !DIExpression())
!1 = distinct !DIGlobalVariable(name: "gcdata_section", scope: !2, file: !3, line: 64, type: !1584, isLocal: true, isDefinition: true)
!2 = distinct !DISubprogram(name: "getNodeName", linkageName: "_ZNK11xercesc_2_719DOMCDATASectionImpl11getNodeNameEv", scope: !4, file: !3, line: 63, type: !644, scopeLine: 63, flags: DIFlagPrototyped, spFlags: DISPFlagDefinition, unit: !728, declaration: !648, retainedNodes: !1583)
!3 = !DIFile(filename: "DOMCDATASectionImpl.cpp", directory: "/home/venkat/IF-DV/spec_build_release/CPU_2017/benchspec/CPU/523.xalancbmk_r/build/build_base_ld-loop-ext-m64.0000")
!4 = distinct !DICompositeType(tag: DW_TAG_class_type, name: "DOMCDATASectionImpl", scope: !6, file: !5, line: 43, size: 704, flags: DIFlagTypePassByReference | DIFlagNonTrivial, elements: !7, vtableHolder: !21)
!5 = !DIFile(filename: "./xercesc/dom/impl/DOMCDATASectionImpl.hpp", directory: "/home/venkat/IF-DV/spec_build_release/CPU_2017/benchspec/CPU/523.xalancbmk_r/build/build_base_ld-loop-ext-m64.0000")
!6 = !DINamespace(name: "xercesc_2_7", scope: null)
!7 = !{!8, !227, !405, !475, !503, !601, !605, !610, !613, !616, !620, !623, !626, !627, !630, !633, !636, !639, !642, !643, !646, !647, !648, !649, !652, !653, !656, !657, !658, !659, !660, !663, !664, !665, !666, !669, !672, !673, !674, !677, !680, !683, !684, !685, !688, !689, !692, !693, !696, !699, !702, !705, !706, !707, !710, !713, !714, !717, !720, !723, !724}
!8 = !DIDerivedType(tag: DW_TAG_inheritance, scope: !4, baseType: !9, flags: DIFlagPublic, extraData: i32 0)
!9 = distinct !DICompositeType(tag: DW_TAG_class_type, name: "DOMCDATASection", scope: !6, file: !10, line: 65, size: 64, flags: DIFlagTypePassByReference | DIFlagNonTrivial, elements: !11, vtableHolder: !21, identifier: "_ZTSN11xercesc_2_715DOMCDATASectionE")
!10 = !DIFile(filename: "./xercesc/dom/DOMCDATASection.hpp", directory: "/home/venkat/IF-DV/spec_build_release/CPU_2017/benchspec/CPU/523.xalancbmk_r/build/build_base_ld-loop-ext-m64.0000")
!11 = !{!12, !213, !217, !222, !226}
!12 = !DIDerivedType(tag: DW_TAG_inheritance, scope: !9, baseType: !13, flags: DIFlagPublic, extraData: i32 0)
!13 = distinct !DICompositeType(tag: DW_TAG_class_type, name: "DOMText", scope: !6, file: !14, line: 50, size: 64, flags: DIFlagTypePassByReference | DIFlagNonTrivial, elements: !15, vtableHolder: !21, identifier: "_ZTSN11xercesc_2_77DOMTextE")
!14 = !DIFile(filename: "./xercesc/dom/DOMText.hpp", directory: "/home/venkat/IF-DV/spec_build_release/CPU_2017/benchspec/CPU/523.xalancbmk_r/build/build_base_ld-loop-ext-m64.0000")
!15 = !{!16, !184, !188, !193, !197, !198, !202, !206, !209, !212}
!16 = !DIDerivedType(tag: DW_TAG_inheritance, scope: !13, baseType: !17, flags: DIFlagPublic, extraData: i32 0)
!17 = distinct !DICompositeType(tag: DW_TAG_class_type, name: "DOMCharacterData", scope: !6, file: !18, line: 45, size: 64, flags: DIFlagTypePassByReference | DIFlagNonTrivial, elements: !19, vtableHolder: !21, identifier: "_ZTSN11xercesc_2_716DOMCharacterDataE")
!18 = !DIFile(filename: "./xercesc/dom/DOMCharacterData.hpp", directory: "/home/venkat/IF-DV/spec_build_release/CPU_2017/benchspec/CPU/523.xalancbmk_r/build/build_base_ld-loop-ext-m64.0000")
!19 = !{!20, !145, !149, !154, !158, !159, !163, !168, !171, !174, !177, !180, !183}
!20 = !DIDerivedType(tag: DW_TAG_inheritance, scope: !17, baseType: !21, flags: DIFlagPublic, extraData: i32 0)
!21 = distinct !DICompositeType(tag: DW_TAG_class_type, name: "DOMNode", scope: !6, file: !22, line: 138, size: 64, flags: DIFlagTypePassByReference | DIFlagNonTrivial, elements: !23, vtableHolder: !21, identifier: "_ZTSN11xercesc_2_77DOMNodeE")
!22 = !DIFile(filename: "./xercesc/dom/DOMNode.hpp", directory: "/home/venkat/IF-DV/spec_build_release/CPU_2017/benchspec/CPU/523.xalancbmk_r/build/build_base_ld-loop-ext-m64.0000")
!23 = !{!24, !30, !34, !39, !43, !44, !53, !54, !58, !62, !68, !69, !70, !71, !72, !78, !84, !88, !91, !92, !95, !96, !99, !102, !103, !106, !107, !108, !109, !110, !111, !115, !116, !123, !126, !127, !130, !131, !132, !135, !138, !141, !144}
!24 = !DIDerivedType(tag: DW_TAG_member, name: "_vptr$DOMNode", scope: !22, file: !22, baseType: !25, size: 64, flags: DIFlagArtificial)
!25 = !DIDerivedType(tag: DW_TAG_pointer_type, baseType: !26, size: 64)
!26 = !DIDerivedType(tag: DW_TAG_pointer_type, name: "__vtbl_ptr_type", baseType: !27, size: 64)
!27 = !DISubroutineType(types: !28)
!28 = !{!29}
!29 = !DIBasicType(name: "int", size: 32, encoding: DW_ATE_signed)
!30 = !DISubprogram(name: "DOMNode", scope: !21, file: !22, line: 145, type: !31, scopeLine: 145, flags: DIFlagProtected | DIFlagPrototyped, spFlags: 0)
!31 = !DISubroutineType(types: !32)
!32 = !{null, !33}
!33 = !DIDerivedType(tag: DW_TAG_pointer_type, baseType: !21, size: 64, flags: DIFlagArtificial | DIFlagObjectPointer)
!34 = !DISubprogram(name: "DOMNode", scope: !21, file: !22, line: 146, type: !35, scopeLine: 146, flags: DIFlagProtected | DIFlagPrototyped, spFlags: 0)
!35 = !DISubroutineType(types: !36)
!36 = !{null, !33, !37}
!37 = !DIDerivedType(tag: DW_TAG_reference_type, baseType: !38, size: 64)
!38 = !DIDerivedType(tag: DW_TAG_const_type, baseType: !21)
!39 = !DISubprogram(name: "operator=", linkageName: "_ZN11xercesc_2_77DOMNodeaSERKS0_", scope: !21, file: !22, line: 155, type: !40, scopeLine: 155, flags: DIFlagPrototyped, spFlags: 0)
!40 = !DISubroutineType(types: !41)
!41 = !{!42, !33, !37}
!42 = !DIDerivedType(tag: DW_TAG_reference_type, baseType: !21, size: 64)
!43 = !DISubprogram(name: "~DOMNode", scope: !21, file: !22, line: 168, type: !31, scopeLine: 168, containingType: !21, virtualIndex: 0, flags: DIFlagPublic | DIFlagPrototyped, spFlags: DISPFlagVirtual)
!44 = !DISubprogram(name: "getNodeName", linkageName: "_ZNK11xercesc_2_77DOMNode11getNodeNameEv", scope: !21, file: !22, line: 245, type: !45, scopeLine: 245, containingType: !21, virtualIndex: 2, flags: DIFlagPublic | DIFlagPrototyped, spFlags: DISPFlagPureVirtual)
!45 = !DISubroutineType(types: !46)
!46 = !{!47, !52}
!47 = !DIDerivedType(tag: DW_TAG_pointer_type, baseType: !48, size: 64)
!48 = !DIDerivedType(tag: DW_TAG_const_type, baseType: !49)
!49 = !DIDerivedType(tag: DW_TAG_typedef, name: "XMLCh", file: !50, line: 67, baseType: !51)
!50 = !DIFile(filename: "./xercesc/util/Compilers/GCCDefs.hpp", directory: "/home/venkat/IF-DV/spec_build_release/CPU_2017/benchspec/CPU/523.xalancbmk_r/build/build_base_ld-loop-ext-m64.0000")
!51 = !DIBasicType(name: "unsigned short", size: 16, encoding: DW_ATE_unsigned)
!52 = !DIDerivedType(tag: DW_TAG_pointer_type, baseType: !38, size: 64, flags: DIFlagArtificial | DIFlagObjectPointer)
!53 = !DISubprogram(name: "getNodeValue", linkageName: "_ZNK11xercesc_2_77DOMNode12getNodeValueEv", scope: !21, file: !22, line: 254, type: !45, scopeLine: 254, containingType: !21, virtualIndex: 3, flags: DIFlagPublic | DIFlagPrototyped, spFlags: DISPFlagPureVirtual)
!54 = !DISubprogram(name: "getNodeType", linkageName: "_ZNK11xercesc_2_77DOMNode11getNodeTypeEv", scope: !21, file: !22, line: 260, type: !55, scopeLine: 260, containingType: !21, virtualIndex: 4, flags: DIFlagPublic | DIFlagPrototyped, spFlags: DISPFlagPureVirtual)
!55 = !DISubroutineType(types: !56)
!56 = !{!57, !52}
!57 = !DIBasicType(name: "short", size: 16, encoding: DW_ATE_signed)
!58 = !DISubprogram(name: "getParentNode", linkageName: "_ZNK11xercesc_2_77DOMNode13getParentNodeEv", scope: !21, file: !22, line: 272, type: !59, scopeLine: 272, containingType: !21, virtualIndex: 5, flags: DIFlagPublic | DIFlagPrototyped, spFlags: DISPFlagPureVirtual)
!59 = !DISubroutineType(types: !60)
!60 = !{!61, !52}
!61 = !DIDerivedType(tag: DW_TAG_pointer_type, baseType: !21, size: 64)
!62 = !DISubprogram(name: "getChildNodes", linkageName: "_ZNK11xercesc_2_77DOMNode13getChildNodesEv", scope: !21, file: !22, line: 288, type: !63, scopeLine: 288, containingType: !21, virtualIndex: 6, flags: DIFlagPublic | DIFlagPrototyped, spFlags: DISPFlagPureVirtual)
!63 = !DISubroutineType(types: !64)
!64 = !{!65, !52}
!65 = !DIDerivedType(tag: DW_TAG_pointer_type, baseType: !66, size: 64)
!66 = !DICompositeType(tag: DW_TAG_class_type, name: "DOMNodeList", scope: !6, file: !67, line: 44, flags: DIFlagFwdDecl, identifier: "_ZTSN11xercesc_2_711DOMNodeListE")
!67 = !DIFile(filename: "./xercesc/dom/DOMNodeList.hpp", directory: "/home/venkat/IF-DV/spec_build_release/CPU_2017/benchspec/CPU/523.xalancbmk_r/build/build_base_ld-loop-ext-m64.0000")
!68 = !DISubprogram(name: "getFirstChild", linkageName: "_ZNK11xercesc_2_77DOMNode13getFirstChildEv", scope: !21, file: !22, line: 295, type: !59, scopeLine: 295, containingType: !21, virtualIndex: 7, flags: DIFlagPublic | DIFlagPrototyped, spFlags: DISPFlagPureVirtual)
!69 = !DISubprogram(name: "getLastChild", linkageName: "_ZNK11xercesc_2_77DOMNode12getLastChildEv", scope: !21, file: !22, line: 303, type: !59, scopeLine: 303, containingType: !21, virtualIndex: 8, flags: DIFlagPublic | DIFlagPrototyped, spFlags: DISPFlagPureVirtual)
!70 = !DISubprogram(name: "getPreviousSibling", linkageName: "_ZNK11xercesc_2_77DOMNode18getPreviousSiblingEv", scope: !21, file: !22, line: 311, type: !59, scopeLine: 311, containingType: !21, virtualIndex: 9, flags: DIFlagPublic | DIFlagPrototyped, spFlags: DISPFlagPureVirtual)
!71 = !DISubprogram(name: "getNextSibling", linkageName: "_ZNK11xercesc_2_77DOMNode14getNextSiblingEv", scope: !21, file: !22, line: 319, type: !59, scopeLine: 319, containingType: !21, virtualIndex: 10, flags: DIFlagPublic | DIFlagPrototyped, spFlags: DISPFlagPureVirtual)
!72 = !DISubprogram(name: "getAttributes", linkageName: "_ZNK11xercesc_2_77DOMNode13getAttributesEv", scope: !21, file: !22, line: 326, type: !73, scopeLine: 326, containingType: !21, virtualIndex: 11, flags: DIFlagPublic | DIFlagPrototyped, spFlags: DISPFlagPureVirtual)
!73 = !DISubroutineType(types: !74)
!74 = !{!75, !52}
!75 = !DIDerivedType(tag: DW_TAG_pointer_type, baseType: !76, size: 64)
!76 = !DICompositeType(tag: DW_TAG_class_type, name: "DOMNamedNodeMap", scope: !6, file: !77, line: 45, flags: DIFlagFwdDecl, identifier: "_ZTSN11xercesc_2_715DOMNamedNodeMapE")
!77 = !DIFile(filename: "./xercesc/dom/DOMNamedNodeMap.hpp", directory: "/home/venkat/IF-DV/spec_build_release/CPU_2017/benchspec/CPU/523.xalancbmk_r/build/build_base_ld-loop-ext-m64.0000")
