; ModuleID = 'XSerializeEngine.cpp'
source_filename = "XSerializeEngine.cpp"
target datalayout = "e-m:e-p270:32:32-p271:32:32-p272:64:64-i64:64-f80:128-n8:16:32:64-S128"
target triple = "x86_64-unknown-linux-gnu"

%"class.xercesc_2_7::MemoryManager" = type { i32 (...)** }
%"class.xercesc_2_7::XSerializeEngine" = type <{ i16, i16, [4 x i8], %"class.xercesc_2_7::XMLGrammarPool"*, %"class.xercesc_2_7::BinInputStream"*, %"class.xercesc_2_7::BinOutputStream"*, i64, i64, i8*, i8*, i8*, i8*, %"class.xercesc_2_7::RefHashTableOf"*, %"class.xercesc_2_7::ValueVectorOf"*, i32, [4 x i8] }>
%"class.xercesc_2_7::XMLGrammarPool" = type <{ i32 (...)**, %"class.xercesc_2_7::MemoryManager"*, i8, [7 x i8] }>
%"class.xercesc_2_7::BinInputStream" = type { i32 (...)** }
%"class.xercesc_2_7::BinOutputStream" = type { i32 (...)** }
%"class.xercesc_2_7::RefHashTableOf" = type { %"class.xercesc_2_7::MemoryManager"*, i8, %"struct.xercesc_2_7::RefHashTableBucketElem"**, i32, i32, i32, %"class.xercesc_2_7::HashBase"* }
%"struct.xercesc_2_7::RefHashTableBucketElem" = type { %"class.xercesc_2_7::XSerializedObjectId"*, %"struct.xercesc_2_7::RefHashTableBucketElem"*, i8* }
%"class.xercesc_2_7::XSerializedObjectId" = type { i32 }
%"class.xercesc_2_7::HashBase" = type { i32 (...)** }
%"class.xercesc_2_7::ValueVectorOf" = type { i8, i32, i32, i8**, %"class.xercesc_2_7::MemoryManager"* }
%"class.xercesc_2_7::XMLDeleter" = type { i32 (...)** }
%"class.xercesc_2_7::XSerializable" = type { i32 (...)** }
%"class.xercesc_2_7::XMLAttDefList" = type { %"class.xercesc_2_7::XSerializable", %"class.xercesc_2_7::MemoryManager"* }
%"class.xercesc_2_7::XMemory" = type { i8 }
%"class.xercesc_2_7::XSerializationException" = type { %"class.xercesc_2_7::XMLException" }
%"class.xercesc_2_7::XMLException" = type { i32 (...)**, i32, i8*, i32, i16*, %"class.xercesc_2_7::MemoryManager"* }
%"class.xercesc_2_7::HashPtr" = type { %"class.xercesc_2_7::HashBase" }
%"class.xercesc_2_7::XProtoType" = type { i8*, %"class.xercesc_2_7::XSerializable"* (%"class.xercesc_2_7::MemoryManager"*)* }
%"class.xercesc_2_7::ArrayIndexOutOfBoundsException" = type { %"class.xercesc_2_7::XMLException" }
%"class.xercesc_2_7::XMLStringPool" = type { %"class.xercesc_2_7::XSerializable", %"class.xercesc_2_7::MemoryManager"*, %"struct.xercesc_2_7::XMLStringPool::PoolElem"**, %"class.xercesc_2_7::RefHashTableOf.0"*, i32, i32 }
%"struct.xercesc_2_7::XMLStringPool::PoolElem" = type { i32, i16* }
%"class.xercesc_2_7::RefHashTableOf.0" = type { %"class.xercesc_2_7::MemoryManager"*, i8, %"struct.xercesc_2_7::RefHashTableBucketElem.1"**, i32, i32, i32, %"class.xercesc_2_7::HashBase"* }
%"struct.xercesc_2_7::RefHashTableBucketElem.1" = type { %"struct.xercesc_2_7::XMLStringPool::PoolElem"*, %"struct.xercesc_2_7::RefHashTableBucketElem.1"*, i8* }
%"class.xercesc_2_7::IllegalArgumentException" = type { %"class.xercesc_2_7::XMLException" }
%"class.xercesc_2_7::ArrayJanitor" = type { %"struct.xercesc_2_7::RefHashTableBucketElem"**, %"class.xercesc_2_7::MemoryManager"* }

$_ZN11xercesc_2_710XMLDeleterD0Ev = comdat any

$_ZN11xercesc_2_710XMLDeleterD2Ev = comdat any

$_ZN11xercesc_2_713XSerializableD2Ev = comdat any

$_ZN11xercesc_2_713XMLAttDefListD0Ev = comdat any

$_ZNK11xercesc_2_716XSerializeEngine9isStoringEv = comdat any

$__clang_call_terminate = comdat any

$_ZN11xercesc_2_714RefHashTableOfINS_19XSerializedObjectIdEED2Ev = comdat any

$_ZN11xercesc_2_713ValueVectorOfIPvED2Ev = comdat any

$_ZN11xercesc_2_714XMLGrammarPool16getMemoryManagerEv = comdat any

$_ZN11xercesc_2_713ValueVectorOfIPvEC2EjPNS_13MemoryManagerEb = comdat any

$_ZN11xercesc_2_714RefHashTableOfINS_19XSerializedObjectIdEEC2EjbPNS_8HashBaseEPNS_13MemoryManagerE = comdat any

$_ZN11xercesc_2_716XSerializeEngine11resetBufferEv = comdat any

$_ZN11xercesc_2_714RefHashTableOfINS_19XSerializedObjectIdEE3putEPvPS1_ = comdat any

$_ZN11xercesc_2_719XSerializedObjectIdC2Ej = comdat any

$_ZNK11xercesc_2_716XSerializeEngine13ensureStoringEv = comdat any

$_ZNK11xercesc_2_716XSerializeEngine13ensurePointerEPv = comdat any

$_ZNK11xercesc_2_716XSerializeEngine15ensureBufferLenEi = comdat any

$_ZNK11xercesc_2_716XSerializeEngine17ensureStoreBufferEv = comdat any

$_ZN11xercesc_2_79XMLString9stringLenEPKt = comdat any

$_ZNK11xercesc_2_716XSerializeEngine13ensureLoadingEv = comdat any

$_ZNK11xercesc_2_716XSerializeEngine6AssertEbNS_10XMLExcepts5CodesE = comdat any

$_ZNK11xercesc_2_713ValueVectorOfIPvE4sizeEv = comdat any

$_ZN11xercesc_2_723XSerializationExceptionC2EPKcjNS_10XMLExcepts5CodesEPKtS6_S6_S6_PNS_13MemoryManagerE = comdat any

$_ZN11xercesc_2_723XSerializationExceptionD2Ev = comdat any

$_ZNK11xercesc_2_716XSerializeEngine16ensureLoadBufferEv = comdat any

$_ZN11xercesc_2_716XSerializeEngine19checkAndFlushBufferEi = comdat any

$_ZNK11xercesc_2_716XSerializeEngine14calBytesNeededEm = comdat any

$_ZN11xercesc_2_716XSerializeEngine11alignBufCurEm = comdat any

$_ZN11xercesc_2_716XSerializeEngine18checkAndFillBufferEi = comdat any

$_ZN11xercesc_2_714RefHashTableOfINS_19XSerializedObjectIdEE3getEPKv = comdat any

$_ZNK11xercesc_2_719XSerializedObjectId8getValueEv = comdat any

$_ZN11xercesc_2_713ValueVectorOfIPvE9elementAtEj = comdat any

$_ZN11xercesc_2_713ValueVectorOfIPvE10addElementERKS1_ = comdat any

$_ZN11xercesc_2_713XMLAttDefListD2Ev = comdat any

$_ZN11xercesc_2_77XMemoryC2Ev = comdat any

$_ZNK11xercesc_2_716XSerializeEngine9isLoadingEv = comdat any

$_ZN11xercesc_2_723XSerializationExceptionC2EPKcjNS_10XMLExcepts5CodesEPNS_13MemoryManagerE = comdat any

$_ZN11xercesc_2_723XSerializationExceptionD0Ev = comdat any

$_ZNK11xercesc_2_723XSerializationException7getTypeEv = comdat any

$_ZNK11xercesc_2_723XSerializationException9duplicateEv = comdat any

$_ZN11xercesc_2_723XSerializationExceptionC2ERKS0_ = comdat any

$_ZNK11xercesc_2_716XSerializeEngine11alignAdjustEm = comdat any

$_ZN11xercesc_2_714RefHashTableOfINS_19XSerializedObjectIdEE7cleanupEv = comdat any

$_ZN11xercesc_2_714RefHashTableOfINS_19XSerializedObjectIdEE9removeAllEv = comdat any

$_ZNK11xercesc_2_714RefHashTableOfINS_19XSerializedObjectIdEE7isEmptyEv = comdat any

$_ZN11xercesc_2_719XSerializedObjectIdD2Ev = comdat any

$_ZN11xercesc_2_714RefHashTableOfINS_19XSerializedObjectIdEE10initializeEj = comdat any

$_ZN11xercesc_2_724IllegalArgumentExceptionC2EPKcjNS_10XMLExcepts5CodesEPNS_13MemoryManagerE = comdat any

$_ZN11xercesc_2_724IllegalArgumentExceptionD2Ev = comdat any

$_ZN11xercesc_2_724IllegalArgumentExceptionD0Ev = comdat any

$_ZNK11xercesc_2_724IllegalArgumentException7getTypeEv = comdat any

$_ZNK11xercesc_2_724IllegalArgumentException9duplicateEv = comdat any

$_ZN11xercesc_2_724IllegalArgumentExceptionC2ERKS0_ = comdat any

$_ZN11xercesc_2_714RefHashTableOfINS_19XSerializedObjectIdEE6rehashEv = comdat any

$_ZN11xercesc_2_714RefHashTableOfINS_19XSerializedObjectIdEE14findBucketElemEPKvRj = comdat any

$_ZN11xercesc_2_722RefHashTableBucketElemINS_19XSerializedObjectIdEEC2EPvPS1_PS2_ = comdat any

$_ZN11xercesc_2_712ArrayJanitorIPNS_22RefHashTableBucketElemINS_19XSerializedObjectIdEEEEC2EPS4_PNS_13MemoryManagerE = comdat any

$_ZN11xercesc_2_712ArrayJanitorIPNS_22RefHashTableBucketElemINS_19XSerializedObjectIdEEEE7releaseEv = comdat any

$_ZN11xercesc_2_712ArrayJanitorIPNS_22RefHashTableBucketElemINS_19XSerializedObjectIdEEEED2Ev = comdat any

$_ZN11xercesc_2_712ArrayJanitorIPNS_22RefHashTableBucketElemINS_19XSerializedObjectIdEEEE5resetEPS4_ = comdat any

$_ZN11xercesc_2_730ArrayIndexOutOfBoundsExceptionC2EPKcjNS_10XMLExcepts5CodesEPNS_13MemoryManagerE = comdat any

$_ZN11xercesc_2_730ArrayIndexOutOfBoundsExceptionD2Ev = comdat any

$_ZN11xercesc_2_730ArrayIndexOutOfBoundsExceptionD0Ev = comdat any

$_ZNK11xercesc_2_730ArrayIndexOutOfBoundsException7getTypeEv = comdat any

$_ZNK11xercesc_2_730ArrayIndexOutOfBoundsException9duplicateEv = comdat any

$_ZN11xercesc_2_730ArrayIndexOutOfBoundsExceptionC2ERKS0_ = comdat any

$_ZN11xercesc_2_713ValueVectorOfIPvE19ensureExtraCapacityEj = comdat any

$_ZTSN11xercesc_2_723XSerializationExceptionE = comdat any

$_ZTIN11xercesc_2_723XSerializationExceptionE = comdat any

$_ZTVN11xercesc_2_710XMLDeleterE = comdat any

$_ZTSN11xercesc_2_710XMLDeleterE = comdat any

$_ZTIN11xercesc_2_710XMLDeleterE = comdat any

$_ZTVN11xercesc_2_713XMLAttDefListE = comdat any

$_ZTSN11xercesc_2_713XMLAttDefListE = comdat any

$_ZTSN11xercesc_2_713XSerializableE = comdat any

$_ZTIN11xercesc_2_713XSerializableE = comdat any

$_ZTSN11xercesc_2_77XMemoryE = comdat any

$_ZTIN11xercesc_2_77XMemoryE = comdat any

$_ZTIN11xercesc_2_713XMLAttDefListE = comdat any

$_ZTVN11xercesc_2_723XSerializationExceptionE = comdat any

$_ZTSN11xercesc_2_724IllegalArgumentExceptionE = comdat any

$_ZTIN11xercesc_2_724IllegalArgumentExceptionE = comdat any

$_ZTVN11xercesc_2_724IllegalArgumentExceptionE = comdat any

$_ZTSN11xercesc_2_730ArrayIndexOutOfBoundsExceptionE = comdat any

$_ZTIN11xercesc_2_730ArrayIndexOutOfBoundsExceptionE = comdat any

$_ZTVN11xercesc_2_730ArrayIndexOutOfBoundsExceptionE = comdat any

@_ZN11xercesc_2_716XSerializeEngine16toWriteBufferLenE = dso_local constant i8 1, align 1, !dbg !0
@_ZN11xercesc_2_716XSerializeEngine15toReadBufferLenE = dso_local constant i8 1, align 1, !dbg !974
@.str = private unnamed_addr constant [21 x i8] c"XSerializeEngine.cpp\00", align 1
@_ZTVN10__cxxabiv120__si_class_type_infoE = external dso_local global i8*
@_ZTSN11xercesc_2_723XSerializationExceptionE = linkonce_odr dso_local constant [41 x i8] c"N11xercesc_2_723XSerializationExceptionE\00", comdat, align 1
@_ZTIN11xercesc_2_712XMLExceptionE = external dso_local constant i8*
@_ZTIN11xercesc_2_723XSerializationExceptionE = linkonce_odr dso_local constant { i8*, i8*, i8* } { i8* bitcast (i8** getelementptr inbounds (i8*, i8** @_ZTVN10__cxxabiv120__si_class_type_infoE, i64 2) to i8*), i8* getelementptr inbounds ([41 x i8], [41 x i8]* @_ZTSN11xercesc_2_723XSerializationExceptionE, i32 0, i32 0), i8* bitcast (i8** @_ZTIN11xercesc_2_712XMLExceptionE to i8*) }, comdat, align 8
@_ZN11xercesc_2_716XMLPlatformUtils15fgMemoryManagerE = external dso_local global %"class.xercesc_2_7::MemoryManager"*, align 8
@_ZTVN11xercesc_2_710XMLDeleterE = linkonce_odr dso_local unnamed_addr constant { [4 x i8*] } { [4 x i8*] [i8* null, i8* bitcast ({ i8*, i8* }* @_ZTIN11xercesc_2_710XMLDeleterE to i8*), i8* bitcast (void (%"class.xercesc_2_7::XMLDeleter"*)* @_ZN11xercesc_2_710XMLDeleterD2Ev to i8*), i8* bitcast (void (%"class.xercesc_2_7::XMLDeleter"*)* @_ZN11xercesc_2_710XMLDeleterD0Ev to i8*)] }, comdat, align 8
@_ZTVN10__cxxabiv117__class_type_infoE = external dso_local global i8*
@_ZTSN11xercesc_2_710XMLDeleterE = linkonce_odr dso_local constant [28 x i8] c"N11xercesc_2_710XMLDeleterE\00", comdat, align 1
@_ZTIN11xercesc_2_710XMLDeleterE = linkonce_odr dso_local constant { i8*, i8* } { i8* bitcast (i8** getelementptr inbounds (i8*, i8** @_ZTVN10__cxxabiv117__class_type_infoE, i64 2) to i8*), i8* getelementptr inbounds ([28 x i8], [28 x i8]* @_ZTSN11xercesc_2_710XMLDeleterE, i32 0, i32 0) }, comdat, align 8
@_ZTVN11xercesc_2_713XMLAttDefListE = linkonce_odr dso_local unnamed_addr constant { [18 x i8*] } { [18 x i8*] [i8* null, i8* bitcast ({ i8*, i8*, i32, i32, i8*, i64, i8*, i64 }* @_ZTIN11xercesc_2_713XMLAttDefListE to i8*), i8* bitcast (void (%"class.xercesc_2_7::XMLAttDefList"*)* @_ZN11xercesc_2_713XMLAttDefListD2Ev to i8*), i8* bitcast (void (%"class.xercesc_2_7::XMLAttDefList"*)* @_ZN11xercesc_2_713XMLAttDefListD0Ev to i8*), i8* bitcast (i1 (%"class.xercesc_2_7::XMLAttDefList"*)* @_ZNK11xercesc_2_713XMLAttDefList14isSerializableEv to i8*), i8* bitcast (void (%"class.xercesc_2_7::XMLAttDefList"*, %"class.xercesc_2_7::XSerializeEngine"*)* @_ZN11xercesc_2_713XMLAttDefList9serializeERNS_16XSerializeEngineE to i8*), i8* bitcast (%"class.xercesc_2_7::XProtoType"* (%"class.xercesc_2_7::XMLAttDefList"*)* @_ZNK11xercesc_2_713XMLAttDefList12getProtoTypeEv to i8*), i8* bitcast (void ()* @__cxa_pure_virtual to i8*), i8* bitcast (void ()* @__cxa_pure_virtual to i8*), i8* bitcast (void ()* @__cxa_pure_virtual to i8*), i8* bitcast (void ()* @__cxa_pure_virtual to i8*), i8* bitcast (void ()* @__cxa_pure_virtual to i8*), i8* bitcast (void ()* @__cxa_pure_virtual to i8*), i8* bitcast (void ()* @__cxa_pure_virtual to i8*), i8* bitcast (void ()* @__cxa_pure_virtual to i8*), i8* bitcast (void ()* @__cxa_pure_virtual to i8*), i8* bitcast (void ()* @__cxa_pure_virtual to i8*), i8* bitcast (void ()* @__cxa_pure_virtual to i8*)] }, comdat, align 8
@_ZTVN10__cxxabiv121__vmi_class_type_infoE = external dso_local global i8*
@_ZTSN11xercesc_2_713XMLAttDefListE = linkonce_odr dso_local constant [31 x i8] c"N11xercesc_2_713XMLAttDefListE\00", comdat, align 1
@_ZTSN11xercesc_2_713XSerializableE = linkonce_odr dso_local constant [31 x i8] c"N11xercesc_2_713XSerializableE\00", comdat, align 1
@_ZTIN11xercesc_2_713XSerializableE = linkonce_odr dso_local constant { i8*, i8* } { i8* bitcast (i8** getelementptr inbounds (i8*, i8** @_ZTVN10__cxxabiv117__class_type_infoE, i64 2) to i8*), i8* getelementptr inbounds ([31 x i8], [31 x i8]* @_ZTSN11xercesc_2_713XSerializableE, i32 0, i32 0) }, comdat, align 8
@_ZTSN11xercesc_2_77XMemoryE = linkonce_odr dso_local constant [24 x i8] c"N11xercesc_2_77XMemoryE\00", comdat, align 1
@_ZTIN11xercesc_2_77XMemoryE = linkonce_odr dso_local constant { i8*, i8* } { i8* bitcast (i8** getelementptr inbounds (i8*, i8** @_ZTVN10__cxxabiv117__class_type_infoE, i64 2) to i8*), i8* getelementptr inbounds ([24 x i8], [24 x i8]* @_ZTSN11xercesc_2_77XMemoryE, i32 0, i32 0) }, comdat, align 8
@_ZTIN11xercesc_2_713XMLAttDefListE = linkonce_odr dso_local constant { i8*, i8*, i32, i32, i8*, i64, i8*, i64 } { i8* bitcast (i8** getelementptr inbounds (i8*, i8** @_ZTVN10__cxxabiv121__vmi_class_type_infoE, i64 2) to i8*), i8* getelementptr inbounds ([31 x i8], [31 x i8]* @_ZTSN11xercesc_2_713XMLAttDefListE, i32 0, i32 0), i32 0, i32 2, i8* bitcast ({ i8*, i8* }* @_ZTIN11xercesc_2_713XSerializableE to i8*), i64 2, i8* bitcast ({ i8*, i8* }* @_ZTIN11xercesc_2_77XMemoryE to i8*), i64 2 }, comdat, align 8
@.str.1 = private unnamed_addr constant [40 x i8] c"./xercesc/internal/XSerializeEngine.hpp\00", align 1
@_ZTVN11xercesc_2_723XSerializationExceptionE = linkonce_odr dso_local unnamed_addr constant { [6 x i8*] } { [6 x i8*] [i8* null, i8* bitcast ({ i8*, i8*, i8* }* @_ZTIN11xercesc_2_723XSerializationExceptionE to i8*), i8* bitcast (void (%"class.xercesc_2_7::XSerializationException"*)* @_ZN11xercesc_2_723XSerializationExceptionD2Ev to i8*), i8* bitcast (void (%"class.xercesc_2_7::XSerializationException"*)* @_ZN11xercesc_2_723XSerializationExceptionD0Ev to i8*), i8* bitcast (i16* (%"class.xercesc_2_7::XSerializationException"*)* @_ZNK11xercesc_2_723XSerializationException7getTypeEv to i8*), i8* bitcast (%"class.xercesc_2_7::XMLException"* (%"class.xercesc_2_7::XSerializationException"*)* @_ZNK11xercesc_2_723XSerializationException9duplicateEv to i8*)] }, comdat, align 8
@_ZN11xercesc_2_76XMLUni30fgXSerializationException_NameE = external dso_local constant [0 x i16], align 2
@.str.2 = private unnamed_addr constant [32 x i8] c"./xercesc/util/RefHashTableOf.c\00", align 1
@_ZTSN11xercesc_2_724IllegalArgumentExceptionE = linkonce_odr dso_local constant [42 x i8] c"N11xercesc_2_724IllegalArgumentExceptionE\00", comdat, align 1
@_ZTIN11xercesc_2_724IllegalArgumentExceptionE = linkonce_odr dso_local constant { i8*, i8*, i8* } { i8* bitcast (i8** getelementptr inbounds (i8*, i8** @_ZTVN10__cxxabiv120__si_class_type_infoE, i64 2) to i8*), i8* getelementptr inbounds ([42 x i8], [42 x i8]* @_ZTSN11xercesc_2_724IllegalArgumentExceptionE, i32 0, i32 0), i8* bitcast (i8** @_ZTIN11xercesc_2_712XMLExceptionE to i8*) }, comdat, align 8
@_ZTVN11xercesc_2_724IllegalArgumentExceptionE = linkonce_odr dso_local unnamed_addr constant { [6 x i8*] } { [6 x i8*] [i8* null, i8* bitcast ({ i8*, i8*, i8* }* @_ZTIN11xercesc_2_724IllegalArgumentExceptionE to i8*), i8* bitcast (void (%"class.xercesc_2_7::IllegalArgumentException"*)* @_ZN11xercesc_2_724IllegalArgumentExceptionD2Ev to i8*), i8* bitcast (void (%"class.xercesc_2_7::IllegalArgumentException"*)* @_ZN11xercesc_2_724IllegalArgumentExceptionD0Ev to i8*), i8* bitcast (i16* (%"class.xercesc_2_7::IllegalArgumentException"*)* @_ZNK11xercesc_2_724IllegalArgumentException7getTypeEv to i8*), i8* bitcast (%"class.xercesc_2_7::XMLException"* (%"class.xercesc_2_7::IllegalArgumentException"*)* @_ZNK11xercesc_2_724IllegalArgumentException9duplicateEv to i8*)] }, comdat, align 8
@_ZN11xercesc_2_76XMLUni31fgIllegalArgumentException_NameE = external dso_local constant [0 x i16], align 2
@.str.3 = private unnamed_addr constant [31 x i8] c"./xercesc/util/ValueVectorOf.c\00", align 1
@_ZTSN11xercesc_2_730ArrayIndexOutOfBoundsExceptionE = linkonce_odr dso_local constant [48 x i8] c"N11xercesc_2_730ArrayIndexOutOfBoundsExceptionE\00", comdat, align 1
@_ZTIN11xercesc_2_730ArrayIndexOutOfBoundsExceptionE = linkonce_odr dso_local constant { i8*, i8*, i8* } { i8* bitcast (i8** getelementptr inbounds (i8*, i8** @_ZTVN10__cxxabiv120__si_class_type_infoE, i64 2) to i8*), i8* getelementptr inbounds ([48 x i8], [48 x i8]* @_ZTSN11xercesc_2_730ArrayIndexOutOfBoundsExceptionE, i32 0, i32 0), i8* bitcast (i8** @_ZTIN11xercesc_2_712XMLExceptionE to i8*) }, comdat, align 8
@_ZTVN11xercesc_2_730ArrayIndexOutOfBoundsExceptionE = linkonce_odr dso_local unnamed_addr constant { [6 x i8*] } { [6 x i8*] [i8* null, i8* bitcast ({ i8*, i8*, i8* }* @_ZTIN11xercesc_2_730ArrayIndexOutOfBoundsExceptionE to i8*), i8* bitcast (void (%"class.xercesc_2_7::ArrayIndexOutOfBoundsException"*)* @_ZN11xercesc_2_730ArrayIndexOutOfBoundsExceptionD2Ev to i8*), i8* bitcast (void (%"class.xercesc_2_7::ArrayIndexOutOfBoundsException"*)* @_ZN11xercesc_2_730ArrayIndexOutOfBoundsExceptionD0Ev to i8*), i8* bitcast (i16* (%"class.xercesc_2_7::ArrayIndexOutOfBoundsException"*)* @_ZNK11xercesc_2_730ArrayIndexOutOfBoundsException7getTypeEv to i8*), i8* bitcast (%"class.xercesc_2_7::XMLException"* (%"class.xercesc_2_7::ArrayIndexOutOfBoundsException"*)* @_ZNK11xercesc_2_730ArrayIndexOutOfBoundsException9duplicateEv to i8*)] }, comdat, align 8
@_ZN11xercesc_2_76XMLUni37fgArrayIndexOutOfBoundsException_NameE = external dso_local constant [0 x i16], align 2

@_ZN11xercesc_2_716XSerializeEngineD1Ev = dso_local unnamed_addr alias void (%"class.xercesc_2_7::XSerializeEngine"*), void (%"class.xercesc_2_7::XSerializeEngine"*)* @_ZN11xercesc_2_716XSerializeEngineD2Ev
@_ZN11xercesc_2_716XSerializeEngineC1EPNS_14BinInputStreamEPNS_14XMLGrammarPoolEm = dso_local unnamed_addr alias void (%"class.xercesc_2_7::XSerializeEngine"*, %"class.xercesc_2_7::BinInputStream"*, %"class.xercesc_2_7::XMLGrammarPool"*, i64), void (%"class.xercesc_2_7::XSerializeEngine"*, %"class.xercesc_2_7::BinInputStream"*, %"class.xercesc_2_7::XMLGrammarPool"*, i64)* @_ZN11xercesc_2_716XSerializeEngineC2EPNS_14BinInputStreamEPNS_14XMLGrammarPoolEm
@_ZN11xercesc_2_716XSerializeEngineC1EPNS_15BinOutputStreamEPNS_14XMLGrammarPoolEm = dso_local unnamed_addr alias void (%"class.xercesc_2_7::XSerializeEngine"*, %"class.xercesc_2_7::BinOutputStream"*, %"class.xercesc_2_7::XMLGrammarPool"*, i64), void (%"class.xercesc_2_7::XSerializeEngine"*, %"class.xercesc_2_7::BinOutputStream"*, %"class.xercesc_2_7::XMLGrammarPool"*, i64)* @_ZN11xercesc_2_716XSerializeEngineC2EPNS_15BinOutputStreamEPNS_14XMLGrammarPoolEm
@_ZN11xercesc_2_716XSerializeEngineC1EPNS_14BinInputStreamEPNS_13MemoryManagerEm = dso_local unnamed_addr alias void (%"class.xercesc_2_7::XSerializeEngine"*, %"class.xercesc_2_7::BinInputStream"*, %"class.xercesc_2_7::MemoryManager"*, i64), void (%"class.xercesc_2_7::XSerializeEngine"*, %"class.xercesc_2_7::BinInputStream"*, %"class.xercesc_2_7::MemoryManager"*, i64)* @_ZN11xercesc_2_716XSerializeEngineC2EPNS_14BinInputStreamEPNS_13MemoryManagerEm
@_ZN11xercesc_2_716XSerializeEngineC1EPNS_15BinOutputStreamEPNS_13MemoryManagerEm = dso_local unnamed_addr alias void (%"class.xercesc_2_7::XSerializeEngine"*, %"class.xercesc_2_7::BinOutputStream"*, %"class.xercesc_2_7::MemoryManager"*, i64), void (%"class.xercesc_2_7::XSerializeEngine"*, %"class.xercesc_2_7::BinOutputStream"*, %"class.xercesc_2_7::MemoryManager"*, i64)* @_ZN11xercesc_2_716XSerializeEngineC2EPNS_15BinOutputStreamEPNS_13MemoryManagerEm

; Function Attrs: nounwind readnone speculatable willreturn
declare void @llvm.dbg.declare(metadata, metadata, metadata) #0

; Function Attrs: noinline nounwind uwtable
define linkonce_odr dso_local void @_ZN11xercesc_2_710XMLDeleterD0Ev(%"class.xercesc_2_7::XMLDeleter"* %this) unnamed_addr #1 comdat align 2 !dbg !1552 {
entry:
  %this.addr = alloca %"class.xercesc_2_7::XMLDeleter"*, align 8
  store %"class.xercesc_2_7::XMLDeleter"* %this, %"class.xercesc_2_7::XMLDeleter"** %this.addr, align 8
  call void @llvm.dbg.declare(metadata %"class.xercesc_2_7::XMLDeleter"** %this.addr, metadata !1574, metadata !DIExpression()), !dbg !1576
  %this1 = load %"class.xercesc_2_7::XMLDeleter"*, %"class.xercesc_2_7::XMLDeleter"** %this.addr, align 8
  call void @_ZN11xercesc_2_710XMLDeleterD2Ev(%"class.xercesc_2_7::XMLDeleter"* %this1) #9, !dbg !1577
  %0 = bitcast %"class.xercesc_2_7::XMLDeleter"* %this1 to i8*, !dbg !1577
  call void @_ZdlPv(i8* %0) #10, !dbg !1577
  ret void, !dbg !1578
}

; Function Attrs: noinline nounwind uwtable
define linkonce_odr dso_local void @_ZN11xercesc_2_710XMLDeleterD2Ev(%"class.xercesc_2_7::XMLDeleter"* %this) unnamed_addr #1 comdat align 2 !dbg !1579 {
entry:
  %this.addr = alloca %"class.xercesc_2_7::XMLDeleter"*, align 8
  store %"class.xercesc_2_7::XMLDeleter"* %this, %"class.xercesc_2_7::XMLDeleter"** %this.addr, align 8
  call void @llvm.dbg.declare(metadata %"class.xercesc_2_7::XMLDeleter"** %this.addr, metadata !1580, metadata !DIExpression()), !dbg !1581
  %this1 = load %"class.xercesc_2_7::XMLDeleter"*, %"class.xercesc_2_7::XMLDeleter"** %this.addr, align 8
  ret void, !dbg !1582
}

; Function Attrs: nobuiltin nounwind
declare dso_local void @_ZdlPv(i8*) #2

; Function Attrs: noinline nounwind uwtable
define linkonce_odr dso_local void @_ZN11xercesc_2_713XSerializableD2Ev(%"class.xercesc_2_7::XSerializable"* %this) unnamed_addr #1 comdat align 2 !dbg !1583 {
entry:
  %this.addr = alloca %"class.xercesc_2_7::XSerializable"*, align 8
  store %"class.xercesc_2_7::XSerializable"* %this, %"class.xercesc_2_7::XSerializable"** %this.addr, align 8
  call void @llvm.dbg.declare(metadata %"class.xercesc_2_7::XSerializable"** %this.addr, metadata !1588, metadata !DIExpression()), !dbg !1589
  %this1 = load %"class.xercesc_2_7::XSerializable"*, %"class.xercesc_2_7::XSerializable"** %this.addr, align 8
  ret void, !dbg !1590
}

; Function Attrs: noinline nounwind uwtable
define linkonce_odr dso_local void @_ZN11xercesc_2_713XMLAttDefListD0Ev(%"class.xercesc_2_7::XMLAttDefList"* %this) unnamed_addr #1 comdat align 2 !dbg !1591 {
entry:
  %this.addr = alloca %"class.xercesc_2_7::XMLAttDefList"*, align 8
  store %"class.xercesc_2_7::XMLAttDefList"* %this, %"class.xercesc_2_7::XMLAttDefList"** %this.addr, align 8
  call void @llvm.dbg.declare(metadata %"class.xercesc_2_7::XMLAttDefList"** %this.addr, metadata !1663, metadata !DIExpression()), !dbg !1665
  %this1 = load %"class.xercesc_2_7::XMLAttDefList"*, %"class.xercesc_2_7::XMLAttDefList"** %this.addr, align 8
  call void @llvm.trap() #11, !dbg !1666
  unreachable, !dbg !1666
}

; Function Attrs: cold noreturn nounwind
declare void @llvm.trap() #3

; Function Attrs: noinline nounwind uwtable
define dso_local void @_ZN11xercesc_2_716XSerializeEngineD2Ev(%"class.xercesc_2_7::XSerializeEngine"* %this) unnamed_addr #1 align 2 personality i8* bitcast (i32 (...)* @__gxx_personality_v0 to i8*) !dbg !1667 {
entry:
  %this.addr = alloca %"class.xercesc_2_7::XSerializeEngine"*, align 8
  store %"class.xercesc_2_7::XSerializeEngine"* %this, %"class.xercesc_2_7::XSerializeEngine"** %this.addr, align 8
  call void @llvm.dbg.declare(metadata %"class.xercesc_2_7::XSerializeEngine"** %this.addr, metadata !1668, metadata !DIExpression()), !dbg !1670
  %this1 = load %"class.xercesc_2_7::XSerializeEngine"*, %"class.xercesc_2_7::XSerializeEngine"** %this.addr, align 8
  %call = invoke zeroext i1 @_ZNK11xercesc_2_716XSerializeEngine9isStoringEv(%"class.xercesc_2_7::XSerializeEngine"* %this1)
          to label %invoke.cont unwind label %terminate.lpad, !dbg !1671

invoke.cont:                                      ; preds = %entry
  br i1 %call, label %if.then, label %if.else, !dbg !1674

if.then:                                          ; preds = %invoke.cont
  invoke void @_ZN11xercesc_2_716XSerializeEngine5flushEv(%"class.xercesc_2_7::XSerializeEngine"* %this1)
          to label %invoke.cont2 unwind label %terminate.lpad, !dbg !1675

invoke.cont2:                                     ; preds = %if.then
  %fStorePool = getelementptr inbounds %"class.xercesc_2_7::XSerializeEngine", %"class.xercesc_2_7::XSerializeEngine"* %this1, i32 0, i32 12, !dbg !1677
  %0 = load %"class.xercesc_2_7::RefHashTableOf"*, %"class.xercesc_2_7::RefHashTableOf"** %fStorePool, align 8, !dbg !1677
  %isnull = icmp eq %"class.xercesc_2_7::RefHashTableOf"* %0, null, !dbg !1678
  br i1 %isnull, label %delete.end, label %delete.notnull, !dbg !1678

delete.notnull:                                   ; preds = %invoke.cont2
  call void @_ZN11xercesc_2_714RefHashTableOfINS_19XSerializedObjectIdEED2Ev(%"class.xercesc_2_7::RefHashTableOf"* %0) #9, !dbg !1678
  %1 = bitcast %"class.xercesc_2_7::RefHashTableOf"* %0 to i8*, !dbg !1678
  call void @_ZN11xercesc_2_77XMemorydlEPv(i8* %1) #9, !dbg !1678
  br label %delete.end, !dbg !1678

delete.end:                                       ; preds = %delete.notnull, %invoke.cont2
  br label %if.end, !dbg !1679

if.else:                                          ; preds = %invoke.cont
  %fLoadPool = getelementptr inbounds %"class.xercesc_2_7::XSerializeEngine", %"class.xercesc_2_7::XSerializeEngine"* %this1, i32 0, i32 13, !dbg !1680
  %2 = load %"class.xercesc_2_7::ValueVectorOf"*, %"class.xercesc_2_7::ValueVectorOf"** %fLoadPool, align 8, !dbg !1680
  %isnull3 = icmp eq %"class.xercesc_2_7::ValueVectorOf"* %2, null, !dbg !1682
  br i1 %isnull3, label %delete.end5, label %delete.notnull4, !dbg !1682

delete.notnull4:                                  ; preds = %if.else
  call void @_ZN11xercesc_2_713ValueVectorOfIPvED2Ev(%"class.xercesc_2_7::ValueVectorOf"* %2) #9, !dbg !1682
  %3 = bitcast %"class.xercesc_2_7::ValueVectorOf"* %2 to i8*, !dbg !1682
  call void @_ZN11xercesc_2_77XMemorydlEPv(i8* %3) #9, !dbg !1682
  br label %delete.end5, !dbg !1682

delete.end5:                                      ; preds = %delete.notnull4, %if.else
  br label %if.end

if.end:                                           ; preds = %delete.end5, %delete.end
  %call7 = invoke %"class.xercesc_2_7::MemoryManager"* @_ZNK11xercesc_2_716XSerializeEngine16getMemoryManagerEv(%"class.xercesc_2_7::XSerializeEngine"* %this1)
          to label %invoke.cont6 unwind label %terminate.lpad, !dbg !1683

invoke.cont6:                                     ; preds = %if.end
  %fBufStart = getelementptr inbounds %"class.xercesc_2_7::XSerializeEngine", %"class.xercesc_2_7::XSerializeEngine"* %this1, i32 0, i32 8, !dbg !1684
  %4 = load i8*, i8** %fBufStart, align 8, !dbg !1684
  %5 = bitcast %"class.xercesc_2_7::MemoryManager"* %call7 to void (%"class.xercesc_2_7::MemoryManager"*, i8*)***, !dbg !1685
  %vtable = load void (%"class.xercesc_2_7::MemoryManager"*, i8*)**, void (%"class.xercesc_2_7::MemoryManager"*, i8*)*** %5, align 8, !dbg !1685
  %vfn = getelementptr inbounds void (%"class.xercesc_2_7::MemoryManager"*, i8*)*, void (%"class.xercesc_2_7::MemoryManager"*, i8*)** %vtable, i64 3, !dbg !1685
  %6 = load void (%"class.xercesc_2_7::MemoryManager"*, i8*)*, void (%"class.xercesc_2_7::MemoryManager"*, i8*)** %vfn, align 8, !dbg !1685
  invoke void %6(%"class.xercesc_2_7::MemoryManager"* %call7, i8* %4)
          to label %invoke.cont8 unwind label %terminate.lpad, !dbg !1685

invoke.cont8:                                     ; preds = %invoke.cont6
  ret void, !dbg !1686

terminate.lpad:                                   ; preds = %invoke.cont6, %if.end, %if.then, %entry
  %7 = landingpad { i8*, i32 }
          catch i8* null, !dbg !1671
  %8 = extractvalue { i8*, i32 } %7, 0, !dbg !1671
  call void @__clang_call_terminate(i8* %8) #11, !dbg !1671
  unreachable, !dbg !1671
}

; Function Attrs: noinline nounwind uwtable
define linkonce_odr dso_local zeroext i1 @_ZNK11xercesc_2_716XSerializeEngine9isStoringEv(%"class.xercesc_2_7::XSerializeEngine"* %this) #1 comdat align 2 !dbg !1687 {
entry:
  %this.addr = alloca %"class.xercesc_2_7::XSerializeEngine"*, align 8
  store %"class.xercesc_2_7::XSerializeEngine"* %this, %"class.xercesc_2_7::XSerializeEngine"** %this.addr, align 8
  call void @llvm.dbg.declare(metadata %"class.xercesc_2_7::XSerializeEngine"** %this.addr, metadata !1688, metadata !DIExpression()), !dbg !1690
  %this1 = load %"class.xercesc_2_7::XSerializeEngine"*, %"class.xercesc_2_7::XSerializeEngine"** %this.addr, align 8
  %fStoreLoad = getelementptr inbounds %"class.xercesc_2_7::XSerializeEngine", %"class.xercesc_2_7::XSerializeEngine"* %this1, i32 0, i32 0, !dbg !1691
  %0 = load i16, i16* %fStoreLoad, align 8, !dbg !1691
  %conv = sext i16 %0 to i32, !dbg !1691
  %cmp = icmp eq i32 %conv, 0, !dbg !1692
  ret i1 %cmp, !dbg !1693
}

declare dso_local i32 @__gxx_personality_v0(...)

; Function Attrs: noinline noreturn nounwind
define linkonce_odr hidden void @__clang_call_terminate(i8* %0) #4 comdat {
  %2 = call i8* @__cxa_begin_catch(i8* %0) #9
  call void @_ZSt9terminatev() #11
  unreachable
}

declare dso_local i8* @__cxa_begin_catch(i8*)

declare dso_local void @_ZSt9terminatev()

; Function Attrs: noinline uwtable
define dso_local void @_ZN11xercesc_2_716XSerializeEngine5flushEv(%"class.xercesc_2_7::XSerializeEngine"* %this) #5 align 2 !dbg !1694 {
entry:
  %this.addr = alloca %"class.xercesc_2_7::XSerializeEngine"*, align 8
  store %"class.xercesc_2_7::XSerializeEngine"* %this, %"class.xercesc_2_7::XSerializeEngine"** %this.addr, align 8
  call void @llvm.dbg.declare(metadata %"class.xercesc_2_7::XSerializeEngine"** %this.addr, metadata !1695, metadata !DIExpression()), !dbg !1696
  %this1 = load %"class.xercesc_2_7::XSerializeEngine"*, %"class.xercesc_2_7::XSerializeEngine"** %this.addr, align 8
  %call = call zeroext i1 @_ZNK11xercesc_2_716XSerializeEngine9isStoringEv(%"class.xercesc_2_7::XSerializeEngine"* %this1), !dbg !1697
  br i1 %call, label %if.then, label %if.end, !dbg !1699

if.then:                                          ; preds = %entry
  call void @_ZN11xercesc_2_716XSerializeEngine11flushBufferEv(%"class.xercesc_2_7::XSerializeEngine"* %this1), !dbg !1700
  br label %if.end, !dbg !1700

if.end:                                           ; preds = %if.then, %entry
  ret void, !dbg !1701
}

; Function Attrs: noinline nounwind uwtable
define linkonce_odr dso_local void @_ZN11xercesc_2_714RefHashTableOfINS_19XSerializedObjectIdEED2Ev(%"class.xercesc_2_7::RefHashTableOf"* %this) unnamed_addr #1 comdat align 2 personality i8* bitcast (i32 (...)* @__gxx_personality_v0 to i8*) !dbg !1702 {
entry:
  %this.addr = alloca %"class.xercesc_2_7::RefHashTableOf"*, align 8
  store %"class.xercesc_2_7::RefHashTableOf"* %this, %"class.xercesc_2_7::RefHashTableOf"** %this.addr, align 8
  call void @llvm.dbg.declare(metadata %"class.xercesc_2_7::RefHashTableOf"** %this.addr, metadata !1704, metadata !DIExpression()), !dbg !1705
  %this1 = load %"class.xercesc_2_7::RefHashTableOf"*, %"class.xercesc_2_7::RefHashTableOf"** %this.addr, align 8
  invoke void @_ZN11xercesc_2_714RefHashTableOfINS_19XSerializedObjectIdEE7cleanupEv(%"class.xercesc_2_7::RefHashTableOf"* %this1)
          to label %invoke.cont unwind label %terminate.lpad, !dbg !1706

invoke.cont:                                      ; preds = %entry
  ret void, !dbg !1708

terminate.lpad:                                   ; preds = %entry
  %0 = landingpad { i8*, i32 }
          catch i8* null, !dbg !1706
  %1 = extractvalue { i8*, i32 } %0, 0, !dbg !1706
  call void @__clang_call_terminate(i8* %1) #11, !dbg !1706
  unreachable, !dbg !1706
}

; Function Attrs: nounwind
declare dso_local void @_ZN11xercesc_2_77XMemorydlEPv(i8*) #6

; Function Attrs: noinline nounwind uwtable
define linkonce_odr dso_local void @_ZN11xercesc_2_713ValueVectorOfIPvED2Ev(%"class.xercesc_2_7::ValueVectorOf"* %this) unnamed_addr #1 comdat align 2 personality i8* bitcast (i32 (...)* @__gxx_personality_v0 to i8*) !dbg !1709 {
entry:
  %this.addr = alloca %"class.xercesc_2_7::ValueVectorOf"*, align 8
  %index = alloca i32, align 4
  store %"class.xercesc_2_7::ValueVectorOf"* %this, %"class.xercesc_2_7::ValueVectorOf"** %this.addr, align 8
  call void @llvm.dbg.declare(metadata %"class.xercesc_2_7::ValueVectorOf"** %this.addr, metadata !1711, metadata !DIExpression()), !dbg !1712
  %this1 = load %"class.xercesc_2_7::ValueVectorOf"*, %"class.xercesc_2_7::ValueVectorOf"** %this.addr, align 8
  %fCallDestructor = getelementptr inbounds %"class.xercesc_2_7::ValueVectorOf", %"class.xercesc_2_7::ValueVectorOf"* %this1, i32 0, i32 0, !dbg !1713
  %0 = load i8, i8* %fCallDestructor, align 8, !dbg !1713
  %tobool = trunc i8 %0 to i1, !dbg !1713
  br i1 %tobool, label %if.then, label %if.end, !dbg !1716

if.then:                                          ; preds = %entry
  call void @llvm.dbg.declare(metadata i32* %index, metadata !1717, metadata !DIExpression()), !dbg !1720
  %fMaxCount = getelementptr inbounds %"class.xercesc_2_7::ValueVectorOf", %"class.xercesc_2_7::ValueVectorOf"* %this1, i32 0, i32 2, !dbg !1721
  %1 = load i32, i32* %fMaxCount, align 8, !dbg !1721
  %sub = sub i32 %1, 1, !dbg !1722
  store i32 %sub, i32* %index, align 4, !dbg !1720
  br label %for.cond, !dbg !1723

for.cond:                                         ; preds = %for.inc, %if.then
  %2 = load i32, i32* %index, align 4, !dbg !1724
  %cmp = icmp sge i32 %2, 0, !dbg !1726
  br i1 %cmp, label %for.body, label %for.end, !dbg !1727

for.body:                                         ; preds = %for.cond
  %fElemList = getelementptr inbounds %"class.xercesc_2_7::ValueVectorOf", %"class.xercesc_2_7::ValueVectorOf"* %this1, i32 0, i32 3, !dbg !1728
  %3 = load i8**, i8*** %fElemList, align 8, !dbg !1728
  %4 = load i32, i32* %index, align 4, !dbg !1729
  %idxprom = sext i32 %4 to i64, !dbg !1728
  %arrayidx = getelementptr inbounds i8*, i8** %3, i64 %idxprom, !dbg !1728
  br label %for.inc, !dbg !1728

for.inc:                                          ; preds = %for.body
  %5 = load i32, i32* %index, align 4, !dbg !1730
  %dec = add nsw i32 %5, -1, !dbg !1730
  store i32 %dec, i32* %index, align 4, !dbg !1730
  br label %for.cond, !dbg !1731, !llvm.loop !1732

for.end:                                          ; preds = %for.cond
  br label %if.end, !dbg !1734

if.end:                                           ; preds = %for.end, %entry
  %fMemoryManager = getelementptr inbounds %"class.xercesc_2_7::ValueVectorOf", %"class.xercesc_2_7::ValueVectorOf"* %this1, i32 0, i32 4, !dbg !1735
  %6 = load %"class.xercesc_2_7::MemoryManager"*, %"class.xercesc_2_7::MemoryManager"** %fMemoryManager, align 8, !dbg !1735
  %fElemList2 = getelementptr inbounds %"class.xercesc_2_7::ValueVectorOf", %"class.xercesc_2_7::ValueVectorOf"* %this1, i32 0, i32 3, !dbg !1736
  %7 = load i8**, i8*** %fElemList2, align 8, !dbg !1736
  %8 = bitcast i8** %7 to i8*, !dbg !1736
  %9 = bitcast %"class.xercesc_2_7::MemoryManager"* %6 to void (%"class.xercesc_2_7::MemoryManager"*, i8*)***, !dbg !1737
  %vtable = load void (%"class.xercesc_2_7::MemoryManager"*, i8*)**, void (%"class.xercesc_2_7::MemoryManager"*, i8*)*** %9, align 8, !dbg !1737
  %vfn = getelementptr inbounds void (%"class.xercesc_2_7::MemoryManager"*, i8*)*, void (%"class.xercesc_2_7::MemoryManager"*, i8*)** %vtable, i64 3, !dbg !1737
  %10 = load void (%"class.xercesc_2_7::MemoryManager"*, i8*)*, void (%"class.xercesc_2_7::MemoryManager"*, i8*)** %vfn, align 8, !dbg !1737
  invoke void %10(%"class.xercesc_2_7::MemoryManager"* %6, i8* %8)
          to label %invoke.cont unwind label %terminate.lpad, !dbg !1737

invoke.cont:                                      ; preds = %if.end
  ret void, !dbg !1738

terminate.lpad:                                   ; preds = %if.end
  %11 = landingpad { i8*, i32 }
          catch i8* null, !dbg !1737
  %12 = extractvalue { i8*, i32 } %11, 0, !dbg !1737
  call void @__clang_call_terminate(i8* %12) #11, !dbg !1737
  unreachable, !dbg !1737
}

; Function Attrs: noinline uwtable
define dso_local %"class.xercesc_2_7::MemoryManager"* @_ZNK11xercesc_2_716XSerializeEngine16getMemoryManagerEv(%"class.xercesc_2_7::XSerializeEngine"* %this) #5 align 2 !dbg !1739 {
entry:
  %this.addr = alloca %"class.xercesc_2_7::XSerializeEngine"*, align 8
  store %"class.xercesc_2_7::XSerializeEngine"* %this, %"class.xercesc_2_7::XSerializeEngine"** %this.addr, align 8
  call void @llvm.dbg.declare(metadata %"class.xercesc_2_7::XSerializeEngine"** %this.addr, metadata !1740, metadata !DIExpression()), !dbg !1741
  %this1 = load %"class.xercesc_2_7::XSerializeEngine"*, %"class.xercesc_2_7::XSerializeEngine"** %this.addr, align 8
  %fGrammarPool = getelementptr inbounds %"class.xercesc_2_7::XSerializeEngine", %"class.xercesc_2_7::XSerializeEngine"* %this1, i32 0, i32 3, !dbg !1742
  %0 = load %"class.xercesc_2_7::XMLGrammarPool"*, %"class.xercesc_2_7::XMLGrammarPool"** %fGrammarPool, align 8, !dbg !1742
  %tobool = icmp ne %"class.xercesc_2_7::XMLGrammarPool"* %0, null, !dbg !1742
  br i1 %tobool, label %cond.true, label %cond.false, !dbg !1742

cond.true:                                        ; preds = %entry
  %fGrammarPool2 = getelementptr inbounds %"class.xercesc_2_7::XSerializeEngine", %"class.xercesc_2_7::XSerializeEngine"* %this1, i32 0, i32 3, !dbg !1743
  %1 = load %"class.xercesc_2_7::XMLGrammarPool"*, %"class.xercesc_2_7::XMLGrammarPool"** %fGrammarPool2, align 8, !dbg !1743
  %call = call %"class.xercesc_2_7::MemoryManager"* @_ZN11xercesc_2_714XMLGrammarPool16getMemoryManagerEv(%"class.xercesc_2_7::XMLGrammarPool"* %1), !dbg !1744
  br label %cond.end, !dbg !1742

cond.false:                                       ; preds = %entry
  %2 = load %"class.xercesc_2_7::MemoryManager"*, %"class.xercesc_2_7::MemoryManager"** @_ZN11xercesc_2_716XMLPlatformUtils15fgMemoryManagerE, align 8, !dbg !1745
  br label %cond.end, !dbg !1742

cond.end:                                         ; preds = %cond.false, %cond.true
  %cond = phi %"class.xercesc_2_7::MemoryManager"* [ %call, %cond.true ], [ %2, %cond.false ], !dbg !1742
  ret %"class.xercesc_2_7::MemoryManager"* %cond, !dbg !1746
}

; Function Attrs: noinline uwtable
define dso_local void @_ZN11xercesc_2_716XSerializeEngineC2EPNS_14BinInputStreamEPNS_14XMLGrammarPoolEm(%"class.xercesc_2_7::XSerializeEngine"* %this, %"class.xercesc_2_7::BinInputStream"* %inStream, %"class.xercesc_2_7::XMLGrammarPool"* %gramPool, i64 %bufSize) unnamed_addr #5 align 2 personality i8* bitcast (i32 (...)* @__gxx_personality_v0 to i8*) !dbg !1747 {
entry:
  %this.addr = alloca %"class.xercesc_2_7::XSerializeEngine"*, align 8
  %inStream.addr = alloca %"class.xercesc_2_7::BinInputStream"*, align 8
  %gramPool.addr = alloca %"class.xercesc_2_7::XMLGrammarPool"*, align 8
  %bufSize.addr = alloca i64, align 8
  %exn.slot = alloca i8*
  %ehselector.slot = alloca i32
  store %"class.xercesc_2_7::XSerializeEngine"* %this, %"class.xercesc_2_7::XSerializeEngine"** %this.addr, align 8
  call void @llvm.dbg.declare(metadata %"class.xercesc_2_7::XSerializeEngine"** %this.addr, metadata !1748, metadata !DIExpression()), !dbg !1749
  store %"class.xercesc_2_7::BinInputStream"* %inStream, %"class.xercesc_2_7::BinInputStream"** %inStream.addr, align 8
  call void @llvm.dbg.declare(metadata %"class.xercesc_2_7::BinInputStream"** %inStream.addr, metadata !1750, metadata !DIExpression()), !dbg !1751
  store %"class.xercesc_2_7::XMLGrammarPool"* %gramPool, %"class.xercesc_2_7::XMLGrammarPool"** %gramPool.addr, align 8
  call void @llvm.dbg.declare(metadata %"class.xercesc_2_7::XMLGrammarPool"** %gramPool.addr, metadata !1752, metadata !DIExpression()), !dbg !1753
  store i64 %bufSize, i64* %bufSize.addr, align 8
  call void @llvm.dbg.declare(metadata i64* %bufSize.addr, metadata !1754, metadata !DIExpression()), !dbg !1755
  %this1 = load %"class.xercesc_2_7::XSerializeEngine"*, %"class.xercesc_2_7::XSerializeEngine"** %this.addr, align 8
  %fStoreLoad = getelementptr inbounds %"class.xercesc_2_7::XSerializeEngine", %"class.xercesc_2_7::XSerializeEngine"* %this1, i32 0, i32 0, !dbg !1756
  store i16 1, i16* %fStoreLoad, align 8, !dbg !1756
  %fStorerLevel = getelementptr inbounds %"class.xercesc_2_7::XSerializeEngine", %"class.xercesc_2_7::XSerializeEngine"* %this1, i32 0, i32 1, !dbg !1757
  store i16 0, i16* %fStorerLevel, align 2, !dbg !1757
  %fGrammarPool = getelementptr inbounds %"class.xercesc_2_7::XSerializeEngine", %"class.xercesc_2_7::XSerializeEngine"* %this1, i32 0, i32 3, !dbg !1758
  %0 = load %"class.xercesc_2_7::XMLGrammarPool"*, %"class.xercesc_2_7::XMLGrammarPool"** %gramPool.addr, align 8, !dbg !1759
  store %"class.xercesc_2_7::XMLGrammarPool"* %0, %"class.xercesc_2_7::XMLGrammarPool"** %fGrammarPool, align 8, !dbg !1758
  %fInputStream = getelementptr inbounds %"class.xercesc_2_7::XSerializeEngine", %"class.xercesc_2_7::XSerializeEngine"* %this1, i32 0, i32 4, !dbg !1760
  %1 = load %"class.xercesc_2_7::BinInputStream"*, %"class.xercesc_2_7::BinInputStream"** %inStream.addr, align 8, !dbg !1761
  store %"class.xercesc_2_7::BinInputStream"* %1, %"class.xercesc_2_7::BinInputStream"** %fInputStream, align 8, !dbg !1760
  %fOutputStream = getelementptr inbounds %"class.xercesc_2_7::XSerializeEngine", %"class.xercesc_2_7::XSerializeEngine"* %this1, i32 0, i32 5, !dbg !1762
  store %"class.xercesc_2_7::BinOutputStream"* null, %"class.xercesc_2_7::BinOutputStream"** %fOutputStream, align 8, !dbg !1762
  %fBufCount = getelementptr inbounds %"class.xercesc_2_7::XSerializeEngine", %"class.xercesc_2_7::XSerializeEngine"* %this1, i32 0, i32 6, !dbg !1763
  store i64 0, i64* %fBufCount, align 8, !dbg !1763
  %fBufSize = getelementptr inbounds %"class.xercesc_2_7::XSerializeEngine", %"class.xercesc_2_7::XSerializeEngine"* %this1, i32 0, i32 7, !dbg !1764
  %2 = load i64, i64* %bufSize.addr, align 8, !dbg !1765
  store i64 %2, i64* %fBufSize, align 8, !dbg !1764
  %fBufStart = getelementptr inbounds %"class.xercesc_2_7::XSerializeEngine", %"class.xercesc_2_7::XSerializeEngine"* %this1, i32 0, i32 8, !dbg !1766
  %3 = load %"class.xercesc_2_7::XMLGrammarPool"*, %"class.xercesc_2_7::XMLGrammarPool"** %gramPool.addr, align 8, !dbg !1767
  %call = call %"class.xercesc_2_7::MemoryManager"* @_ZN11xercesc_2_714XMLGrammarPool16getMemoryManagerEv(%"class.xercesc_2_7::XMLGrammarPool"* %3), !dbg !1768
  %4 = load i64, i64* %bufSize.addr, align 8, !dbg !1769
  %5 = bitcast %"class.xercesc_2_7::MemoryManager"* %call to i8* (%"class.xercesc_2_7::MemoryManager"*, i64)***, !dbg !1770
  %vtable = load i8* (%"class.xercesc_2_7::MemoryManager"*, i64)**, i8* (%"class.xercesc_2_7::MemoryManager"*, i64)*** %5, align 8, !dbg !1770
  %vfn = getelementptr inbounds i8* (%"class.xercesc_2_7::MemoryManager"*, i64)*, i8* (%"class.xercesc_2_7::MemoryManager"*, i64)** %vtable, i64 2, !dbg !1770
  %6 = load i8* (%"class.xercesc_2_7::MemoryManager"*, i64)*, i8* (%"class.xercesc_2_7::MemoryManager"*, i64)** %vfn, align 8, !dbg !1770
  %call2 = call i8* %6(%"class.xercesc_2_7::MemoryManager"* %call, i64 %4), !dbg !1770
  store i8* %call2, i8** %fBufStart, align 8, !dbg !1766
  %fBufEnd = getelementptr inbounds %"class.xercesc_2_7::XSerializeEngine", %"class.xercesc_2_7::XSerializeEngine"* %this1, i32 0, i32 9, !dbg !1771
  store i8* null, i8** %fBufEnd, align 8, !dbg !1771
  %fBufCur = getelementptr inbounds %"class.xercesc_2_7::XSerializeEngine", %"class.xercesc_2_7::XSerializeEngine"* %this1, i32 0, i32 10, !dbg !1772
  %fBufStart3 = getelementptr inbounds %"class.xercesc_2_7::XSerializeEngine", %"class.xercesc_2_7::XSerializeEngine"* %this1, i32 0, i32 8, !dbg !1773
  %7 = load i8*, i8** %fBufStart3, align 8, !dbg !1773
  store i8* %7, i8** %fBufCur, align 8, !dbg !1772
  %fBufLoadMax = getelementptr inbounds %"class.xercesc_2_7::XSerializeEngine", %"class.xercesc_2_7::XSerializeEngine"* %this1, i32 0, i32 11, !dbg !1774
  %fBufStart4 = getelementptr inbounds %"class.xercesc_2_7::XSerializeEngine", %"class.xercesc_2_7::XSerializeEngine"* %this1, i32 0, i32 8, !dbg !1775
  %8 = load i8*, i8** %fBufStart4, align 8, !dbg !1775
  store i8* %8, i8** %fBufLoadMax, align 8, !dbg !1774
  %fStorePool = getelementptr inbounds %"class.xercesc_2_7::XSerializeEngine", %"class.xercesc_2_7::XSerializeEngine"* %this1, i32 0, i32 12, !dbg !1776
  store %"class.xercesc_2_7::RefHashTableOf"* null, %"class.xercesc_2_7::RefHashTableOf"** %fStorePool, align 8, !dbg !1776
  %fLoadPool = getelementptr inbounds %"class.xercesc_2_7::XSerializeEngine", %"class.xercesc_2_7::XSerializeEngine"* %this1, i32 0, i32 13, !dbg !1777
  %9 = load %"class.xercesc_2_7::XMLGrammarPool"*, %"class.xercesc_2_7::XMLGrammarPool"** %gramPool.addr, align 8, !dbg !1778
  %call5 = call %"class.xercesc_2_7::MemoryManager"* @_ZN11xercesc_2_714XMLGrammarPool16getMemoryManagerEv(%"class.xercesc_2_7::XMLGrammarPool"* %9), !dbg !1779
  %call6 = call i8* @_ZN11xercesc_2_77XMemorynwEmPNS_13MemoryManagerE(i64 32, %"class.xercesc_2_7::MemoryManager"* %call5), !dbg !1780
  %10 = bitcast i8* %call6 to %"class.xercesc_2_7::ValueVectorOf"*, !dbg !1780
  %11 = load %"class.xercesc_2_7::XMLGrammarPool"*, %"class.xercesc_2_7::XMLGrammarPool"** %gramPool.addr, align 8, !dbg !1781
  %call7 = invoke %"class.xercesc_2_7::MemoryManager"* @_ZN11xercesc_2_714XMLGrammarPool16getMemoryManagerEv(%"class.xercesc_2_7::XMLGrammarPool"* %11)
          to label %invoke.cont unwind label %lpad, !dbg !1782

invoke.cont:                                      ; preds = %entry
  invoke void @_ZN11xercesc_2_713ValueVectorOfIPvEC2EjPNS_13MemoryManagerEb(%"class.xercesc_2_7::ValueVectorOf"* %10, i32 29, %"class.xercesc_2_7::MemoryManager"* %call7, i1 zeroext false)
          to label %invoke.cont8 unwind label %lpad, !dbg !1783

invoke.cont8:                                     ; preds = %invoke.cont
  store %"class.xercesc_2_7::ValueVectorOf"* %10, %"class.xercesc_2_7::ValueVectorOf"** %fLoadPool, align 8, !dbg !1777
  %fObjectCount = getelementptr inbounds %"class.xercesc_2_7::XSerializeEngine", %"class.xercesc_2_7::XSerializeEngine"* %this1, i32 0, i32 14, !dbg !1784
  store i32 0, i32* %fObjectCount, align 8, !dbg !1784
  call void @_ZN11xercesc_2_716XSerializeEngine10fillBufferEv(%"class.xercesc_2_7::XSerializeEngine"* %this1), !dbg !1785
  ret void, !dbg !1787

lpad:                                             ; preds = %invoke.cont, %entry
  %12 = landingpad { i8*, i32 }
          cleanup, !dbg !1787
  %13 = extractvalue { i8*, i32 } %12, 0, !dbg !1787
  store i8* %13, i8** %exn.slot, align 8, !dbg !1787
  %14 = extractvalue { i8*, i32 } %12, 1, !dbg !1787
  store i32 %14, i32* %ehselector.slot, align 4, !dbg !1787
  call void @_ZN11xercesc_2_77XMemorydlEPvPNS_13MemoryManagerE(i8* %call6, %"class.xercesc_2_7::MemoryManager"* %call5) #9, !dbg !1780
  br label %eh.resume, !dbg !1780

eh.resume:                                        ; preds = %lpad
  %exn = load i8*, i8** %exn.slot, align 8, !dbg !1780
  %sel = load i32, i32* %ehselector.slot, align 4, !dbg !1780
  %lpad.val = insertvalue { i8*, i32 } undef, i8* %exn, 0, !dbg !1780
  %lpad.val9 = insertvalue { i8*, i32 } %lpad.val, i32 %sel, 1, !dbg !1780
  resume { i8*, i32 } %lpad.val9, !dbg !1780
}

; Function Attrs: noinline nounwind uwtable
define linkonce_odr dso_local %"class.xercesc_2_7::MemoryManager"* @_ZN11xercesc_2_714XMLGrammarPool16getMemoryManagerEv(%"class.xercesc_2_7::XMLGrammarPool"* %this) #1 comdat align 2 !dbg !1788 {
entry:
  %this.addr = alloca %"class.xercesc_2_7::XMLGrammarPool"*, align 8
  store %"class.xercesc_2_7::XMLGrammarPool"* %this, %"class.xercesc_2_7::XMLGrammarPool"** %this.addr, align 8
  call void @llvm.dbg.declare(metadata %"class.xercesc_2_7::XMLGrammarPool"** %this.addr, metadata !1793, metadata !DIExpression()), !dbg !1794
  %this1 = load %"class.xercesc_2_7::XMLGrammarPool"*, %"class.xercesc_2_7::XMLGrammarPool"** %this.addr, align 8
  %fMemMgr = getelementptr inbounds %"class.xercesc_2_7::XMLGrammarPool", %"class.xercesc_2_7::XMLGrammarPool"* %this1, i32 0, i32 1, !dbg !1795
  %0 = load %"class.xercesc_2_7::MemoryManager"*, %"class.xercesc_2_7::MemoryManager"** %fMemMgr, align 8, !dbg !1795
  ret %"class.xercesc_2_7::MemoryManager"* %0, !dbg !1796
}

declare dso_local i8* @_ZN11xercesc_2_77XMemorynwEmPNS_13MemoryManagerE(i64, %"class.xercesc_2_7::MemoryManager"*) #7

; Function Attrs: noinline uwtable
define linkonce_odr dso_local void @_ZN11xercesc_2_713ValueVectorOfIPvEC2EjPNS_13MemoryManagerEb(%"class.xercesc_2_7::ValueVectorOf"* %this, i32 %maxElems, %"class.xercesc_2_7::MemoryManager"* %manager, i1 zeroext %toCallDestructor) unnamed_addr #5 comdat align 2 !dbg !1797 {
entry:
  %this.addr = alloca %"class.xercesc_2_7::ValueVectorOf"*, align 8
  %maxElems.addr = alloca i32, align 4
  %manager.addr = alloca %"class.xercesc_2_7::MemoryManager"*, align 8
  %toCallDestructor.addr = alloca i8, align 1
  store %"class.xercesc_2_7::ValueVectorOf"* %this, %"class.xercesc_2_7::ValueVectorOf"** %this.addr, align 8
  call void @llvm.dbg.declare(metadata %"class.xercesc_2_7::ValueVectorOf"** %this.addr, metadata !1798, metadata !DIExpression()), !dbg !1799
  store i32 %maxElems, i32* %maxElems.addr, align 4
  call void @llvm.dbg.declare(metadata i32* %maxElems.addr, metadata !1800, metadata !DIExpression()), !dbg !1801
  store %"class.xercesc_2_7::MemoryManager"* %manager, %"class.xercesc_2_7::MemoryManager"** %manager.addr, align 8
  call void @llvm.dbg.declare(metadata %"class.xercesc_2_7::MemoryManager"** %manager.addr, metadata !1802, metadata !DIExpression()), !dbg !1803
  %frombool = zext i1 %toCallDestructor to i8
  store i8 %frombool, i8* %toCallDestructor.addr, align 1
  call void @llvm.dbg.declare(metadata i8* %toCallDestructor.addr, metadata !1804, metadata !DIExpression()), !dbg !1805
  %this1 = load %"class.xercesc_2_7::ValueVectorOf"*, %"class.xercesc_2_7::ValueVectorOf"** %this.addr, align 8
  %0 = bitcast %"class.xercesc_2_7::ValueVectorOf"* %this1 to %"class.xercesc_2_7::XMemory"*, !dbg !1806
  call void @_ZN11xercesc_2_77XMemoryC2Ev(%"class.xercesc_2_7::XMemory"* %0), !dbg !1807
  %fCallDestructor = getelementptr inbounds %"class.xercesc_2_7::ValueVectorOf", %"class.xercesc_2_7::ValueVectorOf"* %this1, i32 0, i32 0, !dbg !1809
  %1 = load i8, i8* %toCallDestructor.addr, align 1, !dbg !1811
  %tobool = trunc i8 %1 to i1, !dbg !1811
  %frombool2 = zext i1 %tobool to i8, !dbg !1809
  store i8 %frombool2, i8* %fCallDestructor, align 8, !dbg !1809
  %fCurCount = getelementptr inbounds %"class.xercesc_2_7::ValueVectorOf", %"class.xercesc_2_7::ValueVectorOf"* %this1, i32 0, i32 1, !dbg !1812
  store i32 0, i32* %fCurCount, align 4, !dbg !1812
  %fMaxCount = getelementptr inbounds %"class.xercesc_2_7::ValueVectorOf", %"class.xercesc_2_7::ValueVectorOf"* %this1, i32 0, i32 2, !dbg !1813
  %2 = load i32, i32* %maxElems.addr, align 4, !dbg !1814
  store i32 %2, i32* %fMaxCount, align 8, !dbg !1813
  %fElemList = getelementptr inbounds %"class.xercesc_2_7::ValueVectorOf", %"class.xercesc_2_7::ValueVectorOf"* %this1, i32 0, i32 3, !dbg !1815
  store i8** null, i8*** %fElemList, align 8, !dbg !1815
  %fMemoryManager = getelementptr inbounds %"class.xercesc_2_7::ValueVectorOf", %"class.xercesc_2_7::ValueVectorOf"* %this1, i32 0, i32 4, !dbg !1816
  %3 = load %"class.xercesc_2_7::MemoryManager"*, %"class.xercesc_2_7::MemoryManager"** %manager.addr, align 8, !dbg !1817
  store %"class.xercesc_2_7::MemoryManager"* %3, %"class.xercesc_2_7::MemoryManager"** %fMemoryManager, align 8, !dbg !1816
  %fMemoryManager3 = getelementptr inbounds %"class.xercesc_2_7::ValueVectorOf", %"class.xercesc_2_7::ValueVectorOf"* %this1, i32 0, i32 4, !dbg !1818
  %4 = load %"class.xercesc_2_7::MemoryManager"*, %"class.xercesc_2_7::MemoryManager"** %fMemoryManager3, align 8, !dbg !1818
  %fMaxCount4 = getelementptr inbounds %"class.xercesc_2_7::ValueVectorOf", %"class.xercesc_2_7::ValueVectorOf"* %this1, i32 0, i32 2, !dbg !1820
  %5 = load i32, i32* %fMaxCount4, align 8, !dbg !1820
  %conv = zext i32 %5 to i64, !dbg !1820
  %mul = mul i64 %conv, 8, !dbg !1821
  %6 = bitcast %"class.xercesc_2_7::MemoryManager"* %4 to i8* (%"class.xercesc_2_7::MemoryManager"*, i64)***, !dbg !1822
  %vtable = load i8* (%"class.xercesc_2_7::MemoryManager"*, i64)**, i8* (%"class.xercesc_2_7::MemoryManager"*, i64)*** %6, align 8, !dbg !1822
  %vfn = getelementptr inbounds i8* (%"class.xercesc_2_7::MemoryManager"*, i64)*, i8* (%"class.xercesc_2_7::MemoryManager"*, i64)** %vtable, i64 2, !dbg !1822
  %7 = load i8* (%"class.xercesc_2_7::MemoryManager"*, i64)*, i8* (%"class.xercesc_2_7::MemoryManager"*, i64)** %vfn, align 8, !dbg !1822
  %call = call i8* %7(%"class.xercesc_2_7::MemoryManager"* %4, i64 %mul), !dbg !1822
  %8 = bitcast i8* %call to i8**, !dbg !1823
  %fElemList5 = getelementptr inbounds %"class.xercesc_2_7::ValueVectorOf", %"class.xercesc_2_7::ValueVectorOf"* %this1, i32 0, i32 3, !dbg !1824
  store i8** %8, i8*** %fElemList5, align 8, !dbg !1825
  %fElemList6 = getelementptr inbounds %"class.xercesc_2_7::ValueVectorOf", %"class.xercesc_2_7::ValueVectorOf"* %this1, i32 0, i32 3, !dbg !1826
  %9 = load i8**, i8*** %fElemList6, align 8, !dbg !1826
  %10 = bitcast i8** %9 to i8*, !dbg !1827
  %fMaxCount7 = getelementptr inbounds %"class.xercesc_2_7::ValueVectorOf", %"class.xercesc_2_7::ValueVectorOf"* %this1, i32 0, i32 2, !dbg !1828
  %11 = load i32, i32* %fMaxCount7, align 8, !dbg !1828
  %conv8 = zext i32 %11 to i64, !dbg !1828
  %mul9 = mul i64 %conv8, 8, !dbg !1829
  call void @llvm.memset.p0i8.i64(i8* align 8 %10, i8 0, i64 %mul9, i1 false), !dbg !1827
  ret void, !dbg !1830
}

; Function Attrs: nounwind
declare dso_local void @_ZN11xercesc_2_77XMemorydlEPvPNS_13MemoryManagerE(i8*, %"class.xercesc_2_7::MemoryManager"*) #6

; Function Attrs: noinline uwtable
define dso_local void @_ZN11xercesc_2_716XSerializeEngine10fillBufferEv(%"class.xercesc_2_7::XSerializeEngine"* %this) #5 align 2 personality i8* bitcast (i32 (...)* @__gxx_personality_v0 to i8*) !dbg !1831 {
entry:
  %this.addr = alloca %"class.xercesc_2_7::XSerializeEngine"*, align 8
  %bytesRead = alloca i32, align 4
  %value1 = alloca [17 x i16], align 16
  %value2 = alloca [17 x i16], align 16
  %exn.slot = alloca i8*
  %ehselector.slot = alloca i32
  %value116 = alloca [17 x i16], align 16
  %value217 = alloca [17 x i16], align 16
  store %"class.xercesc_2_7::XSerializeEngine"* %this, %"class.xercesc_2_7::XSerializeEngine"** %this.addr, align 8
  call void @llvm.dbg.declare(metadata %"class.xercesc_2_7::XSerializeEngine"** %this.addr, metadata !1832, metadata !DIExpression()), !dbg !1833
  %this1 = load %"class.xercesc_2_7::XSerializeEngine"*, %"class.xercesc_2_7::XSerializeEngine"** %this.addr, align 8
  call void @_ZNK11xercesc_2_716XSerializeEngine13ensureLoadingEv(%"class.xercesc_2_7::XSerializeEngine"* %this1), !dbg !1834
  call void @_ZNK11xercesc_2_716XSerializeEngine16ensureLoadBufferEv(%"class.xercesc_2_7::XSerializeEngine"* %this1), !dbg !1835
  call void @_ZN11xercesc_2_716XSerializeEngine11resetBufferEv(%"class.xercesc_2_7::XSerializeEngine"* %this1), !dbg !1836
  call void @llvm.dbg.declare(metadata i32* %bytesRead, metadata !1837, metadata !DIExpression()), !dbg !1838
  %fInputStream = getelementptr inbounds %"class.xercesc_2_7::XSerializeEngine", %"class.xercesc_2_7::XSerializeEngine"* %this1, i32 0, i32 4, !dbg !1839
  %0 = load %"class.xercesc_2_7::BinInputStream"*, %"class.xercesc_2_7::BinInputStream"** %fInputStream, align 8, !dbg !1839
  %fBufStart = getelementptr inbounds %"class.xercesc_2_7::XSerializeEngine", %"class.xercesc_2_7::XSerializeEngine"* %this1, i32 0, i32 8, !dbg !1840
  %1 = load i8*, i8** %fBufStart, align 8, !dbg !1840
  %fBufSize = getelementptr inbounds %"class.xercesc_2_7::XSerializeEngine", %"class.xercesc_2_7::XSerializeEngine"* %this1, i32 0, i32 7, !dbg !1841
  %2 = load i64, i64* %fBufSize, align 8, !dbg !1841
  %conv = trunc i64 %2 to i32, !dbg !1841
  %3 = bitcast %"class.xercesc_2_7::BinInputStream"* %0 to i32 (%"class.xercesc_2_7::BinInputStream"*, i8*, i32)***, !dbg !1842
  %vtable = load i32 (%"class.xercesc_2_7::BinInputStream"*, i8*, i32)**, i32 (%"class.xercesc_2_7::BinInputStream"*, i8*, i32)*** %3, align 8, !dbg !1842
  %vfn = getelementptr inbounds i32 (%"class.xercesc_2_7::BinInputStream"*, i8*, i32)*, i32 (%"class.xercesc_2_7::BinInputStream"*, i8*, i32)** %vtable, i64 3, !dbg !1842
  %4 = load i32 (%"class.xercesc_2_7::BinInputStream"*, i8*, i32)*, i32 (%"class.xercesc_2_7::BinInputStream"*, i8*, i32)** %vfn, align 8, !dbg !1842
  %call = call i32 %4(%"class.xercesc_2_7::BinInputStream"* %0, i8* %1, i32 %conv), !dbg !1842
  store i32 %call, i32* %bytesRead, align 4, !dbg !1838
  %5 = load i32, i32* %bytesRead, align 4, !dbg !1843
  %fBufSize2 = getelementptr inbounds %"class.xercesc_2_7::XSerializeEngine", %"class.xercesc_2_7::XSerializeEngine"* %this1, i32 0, i32 7, !dbg !1843
  %6 = load i64, i64* %fBufSize2, align 8, !dbg !1843
  %conv3 = trunc i64 %6 to i32, !dbg !1843
  %cmp = icmp slt i32 %5, %conv3, !dbg !1843
  br i1 %cmp, label %if.then, label %if.end, !dbg !1845

if.then:                                          ; preds = %entry
  call void @llvm.dbg.declare(metadata [17 x i16]* %value1, metadata !1846, metadata !DIExpression()), !dbg !1851
  call void @llvm.dbg.declare(metadata [17 x i16]* %value2, metadata !1852, metadata !DIExpression()), !dbg !1851
  %7 = load i32, i32* %bytesRead, align 4, !dbg !1851
  %arraydecay = getelementptr inbounds [17 x i16], [17 x i16]* %value1, i64 0, i64 0, !dbg !1851
  %call4 = call %"class.xercesc_2_7::MemoryManager"* @_ZNK11xercesc_2_716XSerializeEngine16getMemoryManagerEv(%"class.xercesc_2_7::XSerializeEngine"* %this1), !dbg !1851
  call void @_ZN11xercesc_2_79XMLString9binToTextEiPtjjPNS_13MemoryManagerE(i32 %7, i16* %arraydecay, i32 16, i32 10, %"class.xercesc_2_7::MemoryManager"* %call4), !dbg !1851
  %fBufSize5 = getelementptr inbounds %"class.xercesc_2_7::XSerializeEngine", %"class.xercesc_2_7::XSerializeEngine"* %this1, i32 0, i32 7, !dbg !1851
  %8 = load i64, i64* %fBufSize5, align 8, !dbg !1851
  %arraydecay6 = getelementptr inbounds [17 x i16], [17 x i16]* %value2, i64 0, i64 0, !dbg !1851
  %call7 = call %"class.xercesc_2_7::MemoryManager"* @_ZNK11xercesc_2_716XSerializeEngine16getMemoryManagerEv(%"class.xercesc_2_7::XSerializeEngine"* %this1), !dbg !1851
  call void @_ZN11xercesc_2_79XMLString9binToTextEmPtjjPNS_13MemoryManagerE(i64 %8, i16* %arraydecay6, i32 16, i32 10, %"class.xercesc_2_7::MemoryManager"* %call7), !dbg !1851
  %exception = call i8* @__cxa_allocate_exception(i64 48) #9, !dbg !1851
  %9 = bitcast i8* %exception to %"class.xercesc_2_7::XSerializationException"*, !dbg !1851
  %arraydecay8 = getelementptr inbounds [17 x i16], [17 x i16]* %value1, i64 0, i64 0, !dbg !1851
  %arraydecay9 = getelementptr inbounds [17 x i16], [17 x i16]* %value2, i64 0, i64 0, !dbg !1851
  %call10 = invoke %"class.xercesc_2_7::MemoryManager"* @_ZNK11xercesc_2_716XSerializeEngine16getMemoryManagerEv(%"class.xercesc_2_7::XSerializeEngine"* %this1)
          to label %invoke.cont unwind label %lpad, !dbg !1851

invoke.cont:                                      ; preds = %if.then
  invoke void @_ZN11xercesc_2_723XSerializationExceptionC2EPKcjNS_10XMLExcepts5CodesEPKtS6_S6_S6_PNS_13MemoryManagerE(%"class.xercesc_2_7::XSerializationException"* %9, i8* getelementptr inbounds ([21 x i8], [21 x i8]* @.str, i64 0, i64 0), i32 914, i32 380, i16* %arraydecay8, i16* %arraydecay9, i16* null, i16* null, %"class.xercesc_2_7::MemoryManager"* %call10)
          to label %invoke.cont11 unwind label %lpad, !dbg !1851

invoke.cont11:                                    ; preds = %invoke.cont
  call void @__cxa_throw(i8* %exception, i8* bitcast ({ i8*, i8*, i8* }* @_ZTIN11xercesc_2_723XSerializationExceptionE to i8*), i8* bitcast (void (%"class.xercesc_2_7::XSerializationException"*)* @_ZN11xercesc_2_723XSerializationExceptionD2Ev to i8*)) #12, !dbg !1851
  unreachable, !dbg !1851

lpad:                                             ; preds = %invoke.cont, %if.then
  %10 = landingpad { i8*, i32 }
          cleanup, !dbg !1853
  %11 = extractvalue { i8*, i32 } %10, 0, !dbg !1853
  store i8* %11, i8** %exn.slot, align 8, !dbg !1853
  %12 = extractvalue { i8*, i32 } %10, 1, !dbg !1853
  store i32 %12, i32* %ehselector.slot, align 4, !dbg !1853
  call void @__cxa_free_exception(i8* %exception) #9, !dbg !1851
  br label %eh.resume, !dbg !1851

if.end:                                           ; preds = %entry
  %13 = load i32, i32* %bytesRead, align 4, !dbg !1854
  %fBufSize12 = getelementptr inbounds %"class.xercesc_2_7::XSerializeEngine", %"class.xercesc_2_7::XSerializeEngine"* %this1, i32 0, i32 7, !dbg !1854
  %14 = load i64, i64* %fBufSize12, align 8, !dbg !1854
  %conv13 = trunc i64 %14 to i32, !dbg !1854
  %cmp14 = icmp sgt i32 %13, %conv13, !dbg !1854
  br i1 %cmp14, label %if.then15, label %if.end30, !dbg !1856

if.then15:                                        ; preds = %if.end
  call void @llvm.dbg.declare(metadata [17 x i16]* %value116, metadata !1857, metadata !DIExpression()), !dbg !1859
  call void @llvm.dbg.declare(metadata [17 x i16]* %value217, metadata !1860, metadata !DIExpression()), !dbg !1859
  %15 = load i32, i32* %bytesRead, align 4, !dbg !1859
  %arraydecay18 = getelementptr inbounds [17 x i16], [17 x i16]* %value116, i64 0, i64 0, !dbg !1859
  %call19 = call %"class.xercesc_2_7::MemoryManager"* @_ZNK11xercesc_2_716XSerializeEngine16getMemoryManagerEv(%"class.xercesc_2_7::XSerializeEngine"* %this1), !dbg !1859
  call void @_ZN11xercesc_2_79XMLString9binToTextEiPtjjPNS_13MemoryManagerE(i32 %15, i16* %arraydecay18, i32 16, i32 10, %"class.xercesc_2_7::MemoryManager"* %call19), !dbg !1859
  %fBufSize20 = getelementptr inbounds %"class.xercesc_2_7::XSerializeEngine", %"class.xercesc_2_7::XSerializeEngine"* %this1, i32 0, i32 7, !dbg !1859
  %16 = load i64, i64* %fBufSize20, align 8, !dbg !1859
  %arraydecay21 = getelementptr inbounds [17 x i16], [17 x i16]* %value217, i64 0, i64 0, !dbg !1859
  %call22 = call %"class.xercesc_2_7::MemoryManager"* @_ZNK11xercesc_2_716XSerializeEngine16getMemoryManagerEv(%"class.xercesc_2_7::XSerializeEngine"* %this1), !dbg !1859
  call void @_ZN11xercesc_2_79XMLString9binToTextEmPtjjPNS_13MemoryManagerE(i64 %16, i16* %arraydecay21, i32 16, i32 10, %"class.xercesc_2_7::MemoryManager"* %call22), !dbg !1859
  %exception23 = call i8* @__cxa_allocate_exception(i64 48) #9, !dbg !1859
  %17 = bitcast i8* %exception23 to %"class.xercesc_2_7::XSerializationException"*, !dbg !1859
  %arraydecay24 = getelementptr inbounds [17 x i16], [17 x i16]* %value116, i64 0, i64 0, !dbg !1859
  %arraydecay25 = getelementptr inbounds [17 x i16], [17 x i16]* %value217, i64 0, i64 0, !dbg !1859
  %call28 = invoke %"class.xercesc_2_7::MemoryManager"* @_ZNK11xercesc_2_716XSerializeEngine16getMemoryManagerEv(%"class.xercesc_2_7::XSerializeEngine"* %this1)
          to label %invoke.cont27 unwind label %lpad26, !dbg !1859

invoke.cont27:                                    ; preds = %if.then15
  invoke void @_ZN11xercesc_2_723XSerializationExceptionC2EPKcjNS_10XMLExcepts5CodesEPKtS6_S6_S6_PNS_13MemoryManagerE(%"class.xercesc_2_7::XSerializationException"* %17, i8* getelementptr inbounds ([21 x i8], [21 x i8]* @.str, i64 0, i64 0), i32 920, i32 381, i16* %arraydecay24, i16* %arraydecay25, i16* null, i16* null, %"class.xercesc_2_7::MemoryManager"* %call28)
          to label %invoke.cont29 unwind label %lpad26, !dbg !1859

invoke.cont29:                                    ; preds = %invoke.cont27
  call void @__cxa_throw(i8* %exception23, i8* bitcast ({ i8*, i8*, i8* }* @_ZTIN11xercesc_2_723XSerializationExceptionE to i8*), i8* bitcast (void (%"class.xercesc_2_7::XSerializationException"*)* @_ZN11xercesc_2_723XSerializationExceptionD2Ev to i8*)) #12, !dbg !1859
  unreachable, !dbg !1859

lpad26:                                           ; preds = %invoke.cont27, %if.then15
  %18 = landingpad { i8*, i32 }
          cleanup, !dbg !1861
  %19 = extractvalue { i8*, i32 } %18, 0, !dbg !1861
  store i8* %19, i8** %exn.slot, align 8, !dbg !1861
  %20 = extractvalue { i8*, i32 } %18, 1, !dbg !1861
  store i32 %20, i32* %ehselector.slot, align 4, !dbg !1861
  call void @__cxa_free_exception(i8* %exception23) #9, !dbg !1859
  br label %eh.resume, !dbg !1859

if.end30:                                         ; preds = %if.end
  %fBufStart31 = getelementptr inbounds %"class.xercesc_2_7::XSerializeEngine", %"class.xercesc_2_7::XSerializeEngine"* %this1, i32 0, i32 8, !dbg !1862
  %21 = load i8*, i8** %fBufStart31, align 8, !dbg !1862
  %fBufSize32 = getelementptr inbounds %"class.xercesc_2_7::XSerializeEngine", %"class.xercesc_2_7::XSerializeEngine"* %this1, i32 0, i32 7, !dbg !1863
  %22 = load i64, i64* %fBufSize32, align 8, !dbg !1863
  %add.ptr = getelementptr inbounds i8, i8* %21, i64 %22, !dbg !1864
  %fBufLoadMax = getelementptr inbounds %"class.xercesc_2_7::XSerializeEngine", %"class.xercesc_2_7::XSerializeEngine"* %this1, i32 0, i32 11, !dbg !1865
  store i8* %add.ptr, i8** %fBufLoadMax, align 8, !dbg !1866
  %fBufStart33 = getelementptr inbounds %"class.xercesc_2_7::XSerializeEngine", %"class.xercesc_2_7::XSerializeEngine"* %this1, i32 0, i32 8, !dbg !1867
  %23 = load i8*, i8** %fBufStart33, align 8, !dbg !1867
  %fBufCur = getelementptr inbounds %"class.xercesc_2_7::XSerializeEngine", %"class.xercesc_2_7::XSerializeEngine"* %this1, i32 0, i32 10, !dbg !1868
  store i8* %23, i8** %fBufCur, align 8, !dbg !1869
  call void @_ZNK11xercesc_2_716XSerializeEngine16ensureLoadBufferEv(%"class.xercesc_2_7::XSerializeEngine"* %this1), !dbg !1870
  %fBufCount = getelementptr inbounds %"class.xercesc_2_7::XSerializeEngine", %"class.xercesc_2_7::XSerializeEngine"* %this1, i32 0, i32 6, !dbg !1871
  %24 = load i64, i64* %fBufCount, align 8, !dbg !1872
  %inc = add i64 %24, 1, !dbg !1872
  store i64 %inc, i64* %fBufCount, align 8, !dbg !1872
  ret void, !dbg !1873

eh.resume:                                        ; preds = %lpad26, %lpad
  %exn = load i8*, i8** %exn.slot, align 8, !dbg !1851
  %sel = load i32, i32* %ehselector.slot, align 4, !dbg !1851
  %lpad.val = insertvalue { i8*, i32 } undef, i8* %exn, 0, !dbg !1851
  %lpad.val34 = insertvalue { i8*, i32 } %lpad.val, i32 %sel, 1, !dbg !1851
  resume { i8*, i32 } %lpad.val34, !dbg !1851
}

; Function Attrs: noinline uwtable
define dso_local void @_ZN11xercesc_2_716XSerializeEngineC2EPNS_15BinOutputStreamEPNS_14XMLGrammarPoolEm(%"class.xercesc_2_7::XSerializeEngine"* %this, %"class.xercesc_2_7::BinOutputStream"* %outStream, %"class.xercesc_2_7::XMLGrammarPool"* %gramPool, i64 %bufSize) unnamed_addr #5 align 2 personality i8* bitcast (i32 (...)* @__gxx_personality_v0 to i8*) !dbg !1874 {
entry:
  %this.addr = alloca %"class.xercesc_2_7::XSerializeEngine"*, align 8
  %outStream.addr = alloca %"class.xercesc_2_7::BinOutputStream"*, align 8
  %gramPool.addr = alloca %"class.xercesc_2_7::XMLGrammarPool"*, align 8
  %bufSize.addr = alloca i64, align 8
  %exn.slot = alloca i8*
  %ehselector.slot = alloca i32
  store %"class.xercesc_2_7::XSerializeEngine"* %this, %"class.xercesc_2_7::XSerializeEngine"** %this.addr, align 8
  call void @llvm.dbg.declare(metadata %"class.xercesc_2_7::XSerializeEngine"** %this.addr, metadata !1875, metadata !DIExpression()), !dbg !1876
  store %"class.xercesc_2_7::BinOutputStream"* %outStream, %"class.xercesc_2_7::BinOutputStream"** %outStream.addr, align 8
  call void @llvm.dbg.declare(metadata %"class.xercesc_2_7::BinOutputStream"** %outStream.addr, metadata !1877, metadata !DIExpression()), !dbg !1878
  store %"class.xercesc_2_7::XMLGrammarPool"* %gramPool, %"class.xercesc_2_7::XMLGrammarPool"** %gramPool.addr, align 8
  call void @llvm.dbg.declare(metadata %"class.xercesc_2_7::XMLGrammarPool"** %gramPool.addr, metadata !1879, metadata !DIExpression()), !dbg !1880
  store i64 %bufSize, i64* %bufSize.addr, align 8
  call void @llvm.dbg.declare(metadata i64* %bufSize.addr, metadata !1881, metadata !DIExpression()), !dbg !1882
  %this1 = load %"class.xercesc_2_7::XSerializeEngine"*, %"class.xercesc_2_7::XSerializeEngine"** %this.addr, align 8
  %fStoreLoad = getelementptr inbounds %"class.xercesc_2_7::XSerializeEngine", %"class.xercesc_2_7::XSerializeEngine"* %this1, i32 0, i32 0, !dbg !1883
  store i16 0, i16* %fStoreLoad, align 8, !dbg !1883
  %fStorerLevel = getelementptr inbounds %"class.xercesc_2_7::XSerializeEngine", %"class.xercesc_2_7::XSerializeEngine"* %this1, i32 0, i32 1, !dbg !1884
  store i16 0, i16* %fStorerLevel, align 2, !dbg !1884
  %fGrammarPool = getelementptr inbounds %"class.xercesc_2_7::XSerializeEngine", %"class.xercesc_2_7::XSerializeEngine"* %this1, i32 0, i32 3, !dbg !1885
  %0 = load %"class.xercesc_2_7::XMLGrammarPool"*, %"class.xercesc_2_7::XMLGrammarPool"** %gramPool.addr, align 8, !dbg !1886
  store %"class.xercesc_2_7::XMLGrammarPool"* %0, %"class.xercesc_2_7::XMLGrammarPool"** %fGrammarPool, align 8, !dbg !1885
  %fInputStream = getelementptr inbounds %"class.xercesc_2_7::XSerializeEngine", %"class.xercesc_2_7::XSerializeEngine"* %this1, i32 0, i32 4, !dbg !1887
  store %"class.xercesc_2_7::BinInputStream"* null, %"class.xercesc_2_7::BinInputStream"** %fInputStream, align 8, !dbg !1887
  %fOutputStream = getelementptr inbounds %"class.xercesc_2_7::XSerializeEngine", %"class.xercesc_2_7::XSerializeEngine"* %this1, i32 0, i32 5, !dbg !1888
  %1 = load %"class.xercesc_2_7::BinOutputStream"*, %"class.xercesc_2_7::BinOutputStream"** %outStream.addr, align 8, !dbg !1889
  store %"class.xercesc_2_7::BinOutputStream"* %1, %"class.xercesc_2_7::BinOutputStream"** %fOutputStream, align 8, !dbg !1888
  %fBufCount = getelementptr inbounds %"class.xercesc_2_7::XSerializeEngine", %"class.xercesc_2_7::XSerializeEngine"* %this1, i32 0, i32 6, !dbg !1890
  store i64 0, i64* %fBufCount, align 8, !dbg !1890
  %fBufSize = getelementptr inbounds %"class.xercesc_2_7::XSerializeEngine", %"class.xercesc_2_7::XSerializeEngine"* %this1, i32 0, i32 7, !dbg !1891
  %2 = load i64, i64* %bufSize.addr, align 8, !dbg !1892
  store i64 %2, i64* %fBufSize, align 8, !dbg !1891
  %fBufStart = getelementptr inbounds %"class.xercesc_2_7::XSerializeEngine", %"class.xercesc_2_7::XSerializeEngine"* %this1, i32 0, i32 8, !dbg !1893
  %3 = load %"class.xercesc_2_7::XMLGrammarPool"*, %"class.xercesc_2_7::XMLGrammarPool"** %gramPool.addr, align 8, !dbg !1894
  %call = call %"class.xercesc_2_7::MemoryManager"* @_ZN11xercesc_2_714XMLGrammarPool16getMemoryManagerEv(%"class.xercesc_2_7::XMLGrammarPool"* %3), !dbg !1895
  %4 = load i64, i64* %bufSize.addr, align 8, !dbg !1896
  %5 = bitcast %"class.xercesc_2_7::MemoryManager"* %call to i8* (%"class.xercesc_2_7::MemoryManager"*, i64)***, !dbg !1897
  %vtable = load i8* (%"class.xercesc_2_7::MemoryManager"*, i64)**, i8* (%"class.xercesc_2_7::MemoryManager"*, i64)*** %5, align 8, !dbg !1897
  %vfn = getelementptr inbounds i8* (%"class.xercesc_2_7::MemoryManager"*, i64)*, i8* (%"class.xercesc_2_7::MemoryManager"*, i64)** %vtable, i64 2, !dbg !1897
  %6 = load i8* (%"class.xercesc_2_7::MemoryManager"*, i64)*, i8* (%"class.xercesc_2_7::MemoryManager"*, i64)** %vfn, align 8, !dbg !1897
  %call2 = call i8* %6(%"class.xercesc_2_7::MemoryManager"* %call, i64 %4), !dbg !1897
  store i8* %call2, i8** %fBufStart, align 8, !dbg !1893
  %fBufEnd = getelementptr inbounds %"class.xercesc_2_7::XSerializeEngine", %"class.xercesc_2_7::XSerializeEngine"* %this1, i32 0, i32 9, !dbg !1898
  %fBufStart3 = getelementptr inbounds %"class.xercesc_2_7::XSerializeEngine", %"class.xercesc_2_7::XSerializeEngine"* %this1, i32 0, i32 8, !dbg !1899
  %7 = load i8*, i8** %fBufStart3, align 8, !dbg !1899
  %8 = load i64, i64* %bufSize.addr, align 8, !dbg !1900
  %add.ptr = getelementptr inbounds i8, i8* %7, i64 %8, !dbg !1901
  store i8* %add.ptr, i8** %fBufEnd, align 8, !dbg !1898
  %fBufCur = getelementptr inbounds %"class.xercesc_2_7::XSerializeEngine", %"class.xercesc_2_7::XSerializeEngine"* %this1, i32 0, i32 10, !dbg !1902
  %fBufStart4 = getelementptr inbounds %"class.xercesc_2_7::XSerializeEngine", %"class.xercesc_2_7::XSerializeEngine"* %this1, i32 0, i32 8, !dbg !1903
  %9 = load i8*, i8** %fBufStart4, align 8, !dbg !1903
  store i8* %9, i8** %fBufCur, align 8, !dbg !1902
  %fBufLoadMax = getelementptr inbounds %"class.xercesc_2_7::XSerializeEngine", %"class.xercesc_2_7::XSerializeEngine"* %this1, i32 0, i32 11, !dbg !1904
  store i8* null, i8** %fBufLoadMax, align 8, !dbg !1904
  %fStorePool = getelementptr inbounds %"class.xercesc_2_7::XSerializeEngine", %"class.xercesc_2_7::XSerializeEngine"* %this1, i32 0, i32 12, !dbg !1905
  %10 = load %"class.xercesc_2_7::XMLGrammarPool"*, %"class.xercesc_2_7::XMLGrammarPool"** %gramPool.addr, align 8, !dbg !1906
  %call5 = call %"class.xercesc_2_7::MemoryManager"* @_ZN11xercesc_2_714XMLGrammarPool16getMemoryManagerEv(%"class.xercesc_2_7::XMLGrammarPool"* %10), !dbg !1907
  %call6 = call i8* @_ZN11xercesc_2_77XMemorynwEmPNS_13MemoryManagerE(i64 48, %"class.xercesc_2_7::MemoryManager"* %call5), !dbg !1908
  %11 = bitcast i8* %call6 to %"class.xercesc_2_7::RefHashTableOf"*, !dbg !1908
  %12 = load %"class.xercesc_2_7::XMLGrammarPool"*, %"class.xercesc_2_7::XMLGrammarPool"** %gramPool.addr, align 8, !dbg !1909
  %call7 = invoke %"class.xercesc_2_7::MemoryManager"* @_ZN11xercesc_2_714XMLGrammarPool16getMemoryManagerEv(%"class.xercesc_2_7::XMLGrammarPool"* %12)
          to label %invoke.cont unwind label %lpad, !dbg !1910

invoke.cont:                                      ; preds = %entry
  %call9 = invoke i8* @_ZN11xercesc_2_77XMemorynwEmPNS_13MemoryManagerE(i64 8, %"class.xercesc_2_7::MemoryManager"* %call7)
          to label %invoke.cont8 unwind label %lpad, !dbg !1911

invoke.cont8:                                     ; preds = %invoke.cont
  %13 = bitcast i8* %call9 to %"class.xercesc_2_7::HashPtr"*, !dbg !1911
  invoke void @_ZN11xercesc_2_77HashPtrC1Ev(%"class.xercesc_2_7::HashPtr"* %13)
          to label %invoke.cont11 unwind label %lpad10, !dbg !1912

invoke.cont11:                                    ; preds = %invoke.cont8
  %14 = bitcast %"class.xercesc_2_7::HashPtr"* %13 to %"class.xercesc_2_7::HashBase"*, !dbg !1911
  %15 = load %"class.xercesc_2_7::XMLGrammarPool"*, %"class.xercesc_2_7::XMLGrammarPool"** %gramPool.addr, align 8, !dbg !1913
  %call13 = invoke %"class.xercesc_2_7::MemoryManager"* @_ZN11xercesc_2_714XMLGrammarPool16getMemoryManagerEv(%"class.xercesc_2_7::XMLGrammarPool"* %15)
          to label %invoke.cont12 unwind label %lpad, !dbg !1914

invoke.cont12:                                    ; preds = %invoke.cont11
  invoke void @_ZN11xercesc_2_714RefHashTableOfINS_19XSerializedObjectIdEEC2EjbPNS_8HashBaseEPNS_13MemoryManagerE(%"class.xercesc_2_7::RefHashTableOf"* %11, i32 29, i1 zeroext true, %"class.xercesc_2_7::HashBase"* %14, %"class.xercesc_2_7::MemoryManager"* %call13)
          to label %invoke.cont14 unwind label %lpad, !dbg !1915

invoke.cont14:                                    ; preds = %invoke.cont12
  store %"class.xercesc_2_7::RefHashTableOf"* %11, %"class.xercesc_2_7::RefHashTableOf"** %fStorePool, align 8, !dbg !1905
  %fLoadPool = getelementptr inbounds %"class.xercesc_2_7::XSerializeEngine", %"class.xercesc_2_7::XSerializeEngine"* %this1, i32 0, i32 13, !dbg !1916
  store %"class.xercesc_2_7::ValueVectorOf"* null, %"class.xercesc_2_7::ValueVectorOf"** %fLoadPool, align 8, !dbg !1916
  %fObjectCount = getelementptr inbounds %"class.xercesc_2_7::XSerializeEngine", %"class.xercesc_2_7::XSerializeEngine"* %this1, i32 0, i32 14, !dbg !1917
  store i32 0, i32* %fObjectCount, align 8, !dbg !1917
  call void @_ZN11xercesc_2_716XSerializeEngine11resetBufferEv(%"class.xercesc_2_7::XSerializeEngine"* %this1), !dbg !1918
  %fStorePool15 = getelementptr inbounds %"class.xercesc_2_7::XSerializeEngine", %"class.xercesc_2_7::XSerializeEngine"* %this1, i32 0, i32 12, !dbg !1920
  %16 = load %"class.xercesc_2_7::RefHashTableOf"*, %"class.xercesc_2_7::RefHashTableOf"** %fStorePool15, align 8, !dbg !1920
  %17 = load %"class.xercesc_2_7::XMLGrammarPool"*, %"class.xercesc_2_7::XMLGrammarPool"** %gramPool.addr, align 8, !dbg !1921
  %call16 = call %"class.xercesc_2_7::MemoryManager"* @_ZN11xercesc_2_714XMLGrammarPool16getMemoryManagerEv(%"class.xercesc_2_7::XMLGrammarPool"* %17), !dbg !1922
  %call17 = call i8* @_ZN11xercesc_2_77XMemorynwEmPNS_13MemoryManagerE(i64 4, %"class.xercesc_2_7::MemoryManager"* %call16), !dbg !1923
  %18 = bitcast i8* %call17 to %"class.xercesc_2_7::XSerializedObjectId"*, !dbg !1923
  invoke void @_ZN11xercesc_2_719XSerializedObjectIdC2Ej(%"class.xercesc_2_7::XSerializedObjectId"* %18, i32 0)
          to label %invoke.cont19 unwind label %lpad18, !dbg !1924

invoke.cont19:                                    ; preds = %invoke.cont14
  call void @_ZN11xercesc_2_714RefHashTableOfINS_19XSerializedObjectIdEE3putEPvPS1_(%"class.xercesc_2_7::RefHashTableOf"* %16, i8* null, %"class.xercesc_2_7::XSerializedObjectId"* %18), !dbg !1925
  ret void, !dbg !1926

lpad:                                             ; preds = %invoke.cont12, %invoke.cont11, %invoke.cont, %entry
  %19 = landingpad { i8*, i32 }
          cleanup, !dbg !1926
  %20 = extractvalue { i8*, i32 } %19, 0, !dbg !1926
  store i8* %20, i8** %exn.slot, align 8, !dbg !1926
  %21 = extractvalue { i8*, i32 } %19, 1, !dbg !1926
  store i32 %21, i32* %ehselector.slot, align 4, !dbg !1926
  br label %ehcleanup, !dbg !1926

lpad10:                                           ; preds = %invoke.cont8
  %22 = landingpad { i8*, i32 }
          cleanup, !dbg !1926
  %23 = extractvalue { i8*, i32 } %22, 0, !dbg !1926
  store i8* %23, i8** %exn.slot, align 8, !dbg !1926
  %24 = extractvalue { i8*, i32 } %22, 1, !dbg !1926
  store i32 %24, i32* %ehselector.slot, align 4, !dbg !1926
  call void @_ZN11xercesc_2_77XMemorydlEPvPNS_13MemoryManagerE(i8* %call9, %"class.xercesc_2_7::MemoryManager"* %call7) #9, !dbg !1911
  br label %ehcleanup, !dbg !1911

ehcleanup:                                        ; preds = %lpad10, %lpad
  call void @_ZN11xercesc_2_77XMemorydlEPvPNS_13MemoryManagerE(i8* %call6, %"class.xercesc_2_7::MemoryManager"* %call5) #9, !dbg !1908
  br label %eh.resume, !dbg !1908

lpad18:                                           ; preds = %invoke.cont14
  %25 = landingpad { i8*, i32 }
          cleanup, !dbg !1927
  %26 = extractvalue { i8*, i32 } %25, 0, !dbg !1927
  store i8* %26, i8** %exn.slot, align 8, !dbg !1927
  %27 = extractvalue { i8*, i32 } %25, 1, !dbg !1927
  store i32 %27, i32* %ehselector.slot, align 4, !dbg !1927
  call void @_ZN11xercesc_2_77XMemorydlEPvPNS_13MemoryManagerE(i8* %call17, %"class.xercesc_2_7::MemoryManager"* %call16) #9, !dbg !1923
  br label %eh.resume, !dbg !1923

eh.resume:                                        ; preds = %lpad18, %ehcleanup
  %exn = load i8*, i8** %exn.slot, align 8, !dbg !1908
  %sel = load i32, i32* %ehselector.slot, align 4, !dbg !1908
  %lpad.val = insertvalue { i8*, i32 } undef, i8* %exn, 0, !dbg !1908
  %lpad.val21 = insertvalue { i8*, i32 } %lpad.val, i32 %sel, 1, !dbg !1908
  resume { i8*, i32 } %lpad.val21, !dbg !1908
}

declare dso_local void @_ZN11xercesc_2_77HashPtrC1Ev(%"class.xercesc_2_7::HashPtr"*) unnamed_addr #7

; Function Attrs: noinline uwtable
define linkonce_odr dso_local void @_ZN11xercesc_2_714RefHashTableOfINS_19XSerializedObjectIdEEC2EjbPNS_8HashBaseEPNS_13MemoryManagerE(%"class.xercesc_2_7::RefHashTableOf"* %this, i32 %modulus, i1 zeroext %adoptElems, %"class.xercesc_2_7::HashBase"* %hashBase, %"class.xercesc_2_7::MemoryManager"* %manager) unnamed_addr #5 comdat align 2 !dbg !1928 {
entry:
  %this.addr = alloca %"class.xercesc_2_7::RefHashTableOf"*, align 8
  %modulus.addr = alloca i32, align 4
  %adoptElems.addr = alloca i8, align 1
  %hashBase.addr = alloca %"class.xercesc_2_7::HashBase"*, align 8
  %manager.addr = alloca %"class.xercesc_2_7::MemoryManager"*, align 8
  store %"class.xercesc_2_7::RefHashTableOf"* %this, %"class.xercesc_2_7::RefHashTableOf"** %this.addr, align 8
  call void @llvm.dbg.declare(metadata %"class.xercesc_2_7::RefHashTableOf"** %this.addr, metadata !1929, metadata !DIExpression()), !dbg !1930
  store i32 %modulus, i32* %modulus.addr, align 4
  call void @llvm.dbg.declare(metadata i32* %modulus.addr, metadata !1931, metadata !DIExpression()), !dbg !1932
  %frombool = zext i1 %adoptElems to i8
  store i8 %frombool, i8* %adoptElems.addr, align 1
  call void @llvm.dbg.declare(metadata i8* %adoptElems.addr, metadata !1933, metadata !DIExpression()), !dbg !1934
  store %"class.xercesc_2_7::HashBase"* %hashBase, %"class.xercesc_2_7::HashBase"** %hashBase.addr, align 8
  call void @llvm.dbg.declare(metadata %"class.xercesc_2_7::HashBase"** %hashBase.addr, metadata !1935, metadata !DIExpression()), !dbg !1936
  store %"class.xercesc_2_7::MemoryManager"* %manager, %"class.xercesc_2_7::MemoryManager"** %manager.addr, align 8
  call void @llvm.dbg.declare(metadata %"class.xercesc_2_7::MemoryManager"** %manager.addr, metadata !1937, metadata !DIExpression()), !dbg !1938
  %this1 = load %"class.xercesc_2_7::RefHashTableOf"*, %"class.xercesc_2_7::RefHashTableOf"** %this.addr, align 8
  %0 = bitcast %"class.xercesc_2_7::RefHashTableOf"* %this1 to %"class.xercesc_2_7::XMemory"*, !dbg !1939
  call void @_ZN11xercesc_2_77XMemoryC2Ev(%"class.xercesc_2_7::XMemory"* %0), !dbg !1940
  %fMemoryManager = getelementptr inbounds %"class.xercesc_2_7::RefHashTableOf", %"class.xercesc_2_7::RefHashTableOf"* %this1, i32 0, i32 0, !dbg !1942
  %1 = load %"class.xercesc_2_7::MemoryManager"*, %"class.xercesc_2_7::MemoryManager"** %manager.addr, align 8, !dbg !1944
  store %"class.xercesc_2_7::MemoryManager"* %1, %"class.xercesc_2_7::MemoryManager"** %fMemoryManager, align 8, !dbg !1942
  %fAdoptedElems = getelementptr inbounds %"class.xercesc_2_7::RefHashTableOf", %"class.xercesc_2_7::RefHashTableOf"* %this1, i32 0, i32 1, !dbg !1945
  %2 = load i8, i8* %adoptElems.addr, align 1, !dbg !1946
  %tobool = trunc i8 %2 to i1, !dbg !1946
  %frombool2 = zext i1 %tobool to i8, !dbg !1945
  store i8 %frombool2, i8* %fAdoptedElems, align 8, !dbg !1945
  %fBucketList = getelementptr inbounds %"class.xercesc_2_7::RefHashTableOf", %"class.xercesc_2_7::RefHashTableOf"* %this1, i32 0, i32 2, !dbg !1947
  store %"struct.xercesc_2_7::RefHashTableBucketElem"** null, %"struct.xercesc_2_7::RefHashTableBucketElem"*** %fBucketList, align 8, !dbg !1947
  %fHashModulus = getelementptr inbounds %"class.xercesc_2_7::RefHashTableOf", %"class.xercesc_2_7::RefHashTableOf"* %this1, i32 0, i32 3, !dbg !1948
  %3 = load i32, i32* %modulus.addr, align 4, !dbg !1949
  store i32 %3, i32* %fHashModulus, align 8, !dbg !1948
  %fInitialModulus = getelementptr inbounds %"class.xercesc_2_7::RefHashTableOf", %"class.xercesc_2_7::RefHashTableOf"* %this1, i32 0, i32 4, !dbg !1950
  %4 = load i32, i32* %modulus.addr, align 4, !dbg !1951
  store i32 %4, i32* %fInitialModulus, align 4, !dbg !1950
  %fCount = getelementptr inbounds %"class.xercesc_2_7::RefHashTableOf", %"class.xercesc_2_7::RefHashTableOf"* %this1, i32 0, i32 5, !dbg !1952
  store i32 0, i32* %fCount, align 8, !dbg !1952
  %fHash = getelementptr inbounds %"class.xercesc_2_7::RefHashTableOf", %"class.xercesc_2_7::RefHashTableOf"* %this1, i32 0, i32 6, !dbg !1953
  store %"class.xercesc_2_7::HashBase"* null, %"class.xercesc_2_7::HashBase"** %fHash, align 8, !dbg !1953
  %5 = load i32, i32* %modulus.addr, align 4, !dbg !1954
  call void @_ZN11xercesc_2_714RefHashTableOfINS_19XSerializedObjectIdEE10initializeEj(%"class.xercesc_2_7::RefHashTableOf"* %this1, i32 %5), !dbg !1956
  %6 = load %"class.xercesc_2_7::HashBase"*, %"class.xercesc_2_7::HashBase"** %hashBase.addr, align 8, !dbg !1957
  %fHash3 = getelementptr inbounds %"class.xercesc_2_7::RefHashTableOf", %"class.xercesc_2_7::RefHashTableOf"* %this1, i32 0, i32 6, !dbg !1958
  store %"class.xercesc_2_7::HashBase"* %6, %"class.xercesc_2_7::HashBase"** %fHash3, align 8, !dbg !1959
  ret void, !dbg !1960
}

; Function Attrs: noinline nounwind uwtable
define linkonce_odr dso_local void @_ZN11xercesc_2_716XSerializeEngine11resetBufferEv(%"class.xercesc_2_7::XSerializeEngine"* %this) #1 comdat align 2 !dbg !1961 {
entry:
  %this.addr = alloca %"class.xercesc_2_7::XSerializeEngine"*, align 8
  store %"class.xercesc_2_7::XSerializeEngine"* %this, %"class.xercesc_2_7::XSerializeEngine"** %this.addr, align 8
  call void @llvm.dbg.declare(metadata %"class.xercesc_2_7::XSerializeEngine"** %this.addr, metadata !1962, metadata !DIExpression()), !dbg !1963
  %this1 = load %"class.xercesc_2_7::XSerializeEngine"*, %"class.xercesc_2_7::XSerializeEngine"** %this.addr, align 8
  %fBufStart = getelementptr inbounds %"class.xercesc_2_7::XSerializeEngine", %"class.xercesc_2_7::XSerializeEngine"* %this1, i32 0, i32 8, !dbg !1964
  %0 = load i8*, i8** %fBufStart, align 8, !dbg !1964
  %fBufSize = getelementptr inbounds %"class.xercesc_2_7::XSerializeEngine", %"class.xercesc_2_7::XSerializeEngine"* %this1, i32 0, i32 7, !dbg !1965
  %1 = load i64, i64* %fBufSize, align 8, !dbg !1965
  %mul = mul i64 %1, 1, !dbg !1966
  call void @llvm.memset.p0i8.i64(i8* align 1 %0, i8 0, i64 %mul, i1 false), !dbg !1967
  ret void, !dbg !1968
}

; Function Attrs: noinline uwtable
define linkonce_odr dso_local void @_ZN11xercesc_2_714RefHashTableOfINS_19XSerializedObjectIdEE3putEPvPS1_(%"class.xercesc_2_7::RefHashTableOf"* %this, i8* %key, %"class.xercesc_2_7::XSerializedObjectId"* %valueToAdopt) #5 comdat align 2 !dbg !1969 {
entry:
  %this.addr = alloca %"class.xercesc_2_7::RefHashTableOf"*, align 8
  %key.addr = alloca i8*, align 8
  %valueToAdopt.addr = alloca %"class.xercesc_2_7::XSerializedObjectId"*, align 8
  %threshold = alloca i32, align 4
  %hashVal = alloca i32, align 4
  %newBucket = alloca %"struct.xercesc_2_7::RefHashTableBucketElem"*, align 8
  store %"class.xercesc_2_7::RefHashTableOf"* %this, %"class.xercesc_2_7::RefHashTableOf"** %this.addr, align 8
  call void @llvm.dbg.declare(metadata %"class.xercesc_2_7::RefHashTableOf"** %this.addr, metadata !1970, metadata !DIExpression()), !dbg !1971
  store i8* %key, i8** %key.addr, align 8
  call void @llvm.dbg.declare(metadata i8** %key.addr, metadata !1972, metadata !DIExpression()), !dbg !1973
  store %"class.xercesc_2_7::XSerializedObjectId"* %valueToAdopt, %"class.xercesc_2_7::XSerializedObjectId"** %valueToAdopt.addr, align 8
  call void @llvm.dbg.declare(metadata %"class.xercesc_2_7::XSerializedObjectId"** %valueToAdopt.addr, metadata !1974, metadata !DIExpression()), !dbg !1975
  %this1 = load %"class.xercesc_2_7::RefHashTableOf"*, %"class.xercesc_2_7::RefHashTableOf"** %this.addr, align 8
  call void @llvm.dbg.declare(metadata i32* %threshold, metadata !1976, metadata !DIExpression()), !dbg !1977
  %fHashModulus = getelementptr inbounds %"class.xercesc_2_7::RefHashTableOf", %"class.xercesc_2_7::RefHashTableOf"* %this1, i32 0, i32 3, !dbg !1978
  %0 = load i32, i32* %fHashModulus, align 8, !dbg !1978
  %mul = mul i32 %0, 3, !dbg !1979
  %div = udiv i32 %mul, 4, !dbg !1980
  store i32 %div, i32* %threshold, align 4, !dbg !1977
  %fCount = getelementptr inbounds %"class.xercesc_2_7::RefHashTableOf", %"class.xercesc_2_7::RefHashTableOf"* %this1, i32 0, i32 5, !dbg !1981
  %1 = load i32, i32* %fCount, align 8, !dbg !1981
  %2 = load i32, i32* %threshold, align 4, !dbg !1983
  %cmp = icmp uge i32 %1, %2, !dbg !1984
  br i1 %cmp, label %if.then, label %if.end, !dbg !1985

if.then:                                          ; preds = %entry
  call void @_ZN11xercesc_2_714RefHashTableOfINS_19XSerializedObjectIdEE6rehashEv(%"class.xercesc_2_7::RefHashTableOf"* %this1), !dbg !1986
  br label %if.end, !dbg !1986

if.end:                                           ; preds = %if.then, %entry
  call void @llvm.dbg.declare(metadata i32* %hashVal, metadata !1987, metadata !DIExpression()), !dbg !1988
  call void @llvm.dbg.declare(metadata %"struct.xercesc_2_7::RefHashTableBucketElem"** %newBucket, metadata !1989, metadata !DIExpression()), !dbg !1990
  %3 = load i8*, i8** %key.addr, align 8, !dbg !1991
  %call = call %"struct.xercesc_2_7::RefHashTableBucketElem"* @_ZN11xercesc_2_714RefHashTableOfINS_19XSerializedObjectIdEE14findBucketElemEPKvRj(%"class.xercesc_2_7::RefHashTableOf"* %this1, i8* %3, i32* dereferenceable(4) %hashVal), !dbg !1992
  store %"struct.xercesc_2_7::RefHashTableBucketElem"* %call, %"struct.xercesc_2_7::RefHashTableBucketElem"** %newBucket, align 8, !dbg !1990
  %4 = load %"struct.xercesc_2_7::RefHashTableBucketElem"*, %"struct.xercesc_2_7::RefHashTableBucketElem"** %newBucket, align 8, !dbg !1993
  %tobool = icmp ne %"struct.xercesc_2_7::RefHashTableBucketElem"* %4, null, !dbg !1993
  br i1 %tobool, label %if.then2, label %if.else, !dbg !1995

if.then2:                                         ; preds = %if.end
  %fAdoptedElems = getelementptr inbounds %"class.xercesc_2_7::RefHashTableOf", %"class.xercesc_2_7::RefHashTableOf"* %this1, i32 0, i32 1, !dbg !1996
  %5 = load i8, i8* %fAdoptedElems, align 8, !dbg !1996
  %tobool3 = trunc i8 %5 to i1, !dbg !1996
  br i1 %tobool3, label %if.then4, label %if.end5, !dbg !1999

if.then4:                                         ; preds = %if.then2
  %6 = load %"struct.xercesc_2_7::RefHashTableBucketElem"*, %"struct.xercesc_2_7::RefHashTableBucketElem"** %newBucket, align 8, !dbg !2000
  %fData = getelementptr inbounds %"struct.xercesc_2_7::RefHashTableBucketElem", %"struct.xercesc_2_7::RefHashTableBucketElem"* %6, i32 0, i32 0, !dbg !2001
  %7 = load %"class.xercesc_2_7::XSerializedObjectId"*, %"class.xercesc_2_7::XSerializedObjectId"** %fData, align 8, !dbg !2001
  %isnull = icmp eq %"class.xercesc_2_7::XSerializedObjectId"* %7, null, !dbg !2002
  br i1 %isnull, label %delete.end, label %delete.notnull, !dbg !2002

delete.notnull:                                   ; preds = %if.then4
  call void @_ZN11xercesc_2_719XSerializedObjectIdD2Ev(%"class.xercesc_2_7::XSerializedObjectId"* %7) #9, !dbg !2002
  %8 = bitcast %"class.xercesc_2_7::XSerializedObjectId"* %7 to i8*, !dbg !2002
  call void @_ZN11xercesc_2_77XMemorydlEPv(i8* %8) #9, !dbg !2002
  br label %delete.end, !dbg !2002

delete.end:                                       ; preds = %delete.notnull, %if.then4
  br label %if.end5, !dbg !2002

if.end5:                                          ; preds = %delete.end, %if.then2
  %9 = load %"class.xercesc_2_7::XSerializedObjectId"*, %"class.xercesc_2_7::XSerializedObjectId"** %valueToAdopt.addr, align 8, !dbg !2003
  %10 = load %"struct.xercesc_2_7::RefHashTableBucketElem"*, %"struct.xercesc_2_7::RefHashTableBucketElem"** %newBucket, align 8, !dbg !2004
  %fData6 = getelementptr inbounds %"struct.xercesc_2_7::RefHashTableBucketElem", %"struct.xercesc_2_7::RefHashTableBucketElem"* %10, i32 0, i32 0, !dbg !2005
  store %"class.xercesc_2_7::XSerializedObjectId"* %9, %"class.xercesc_2_7::XSerializedObjectId"** %fData6, align 8, !dbg !2006
  %11 = load i8*, i8** %key.addr, align 8, !dbg !2007
  %12 = load %"struct.xercesc_2_7::RefHashTableBucketElem"*, %"struct.xercesc_2_7::RefHashTableBucketElem"** %newBucket, align 8, !dbg !2008
  %fKey = getelementptr inbounds %"struct.xercesc_2_7::RefHashTableBucketElem", %"struct.xercesc_2_7::RefHashTableBucketElem"* %12, i32 0, i32 2, !dbg !2009
  store i8* %11, i8** %fKey, align 8, !dbg !2010
  br label %if.end12, !dbg !2011

if.else:                                          ; preds = %if.end
  %fMemoryManager = getelementptr inbounds %"class.xercesc_2_7::RefHashTableOf", %"class.xercesc_2_7::RefHashTableOf"* %this1, i32 0, i32 0, !dbg !2012
  %13 = load %"class.xercesc_2_7::MemoryManager"*, %"class.xercesc_2_7::MemoryManager"** %fMemoryManager, align 8, !dbg !2012
  %14 = bitcast %"class.xercesc_2_7::MemoryManager"* %13 to i8* (%"class.xercesc_2_7::MemoryManager"*, i64)***, !dbg !2014
  %vtable = load i8* (%"class.xercesc_2_7::MemoryManager"*, i64)**, i8* (%"class.xercesc_2_7::MemoryManager"*, i64)*** %14, align 8, !dbg !2014
  %vfn = getelementptr inbounds i8* (%"class.xercesc_2_7::MemoryManager"*, i64)*, i8* (%"class.xercesc_2_7::MemoryManager"*, i64)** %vtable, i64 2, !dbg !2014
  %15 = load i8* (%"class.xercesc_2_7::MemoryManager"*, i64)*, i8* (%"class.xercesc_2_7::MemoryManager"*, i64)** %vfn, align 8, !dbg !2014
  %call7 = call i8* %15(%"class.xercesc_2_7::MemoryManager"* %13, i64 24), !dbg !2014
  %16 = bitcast i8* %call7 to %"struct.xercesc_2_7::RefHashTableBucketElem"*, !dbg !2015
  %17 = load i8*, i8** %key.addr, align 8, !dbg !2016
  %18 = load %"class.xercesc_2_7::XSerializedObjectId"*, %"class.xercesc_2_7::XSerializedObjectId"** %valueToAdopt.addr, align 8, !dbg !2017
  %fBucketList = getelementptr inbounds %"class.xercesc_2_7::RefHashTableOf", %"class.xercesc_2_7::RefHashTableOf"* %this1, i32 0, i32 2, !dbg !2018
  %19 = load %"struct.xercesc_2_7::RefHashTableBucketElem"**, %"struct.xercesc_2_7::RefHashTableBucketElem"*** %fBucketList, align 8, !dbg !2018
  %20 = load i32, i32* %hashVal, align 4, !dbg !2019
  %idxprom = zext i32 %20 to i64, !dbg !2018
  %arrayidx = getelementptr inbounds %"struct.xercesc_2_7::RefHashTableBucketElem"*, %"struct.xercesc_2_7::RefHashTableBucketElem"** %19, i64 %idxprom, !dbg !2018
  %21 = load %"struct.xercesc_2_7::RefHashTableBucketElem"*, %"struct.xercesc_2_7::RefHashTableBucketElem"** %arrayidx, align 8, !dbg !2018
  call void @_ZN11xercesc_2_722RefHashTableBucketElemINS_19XSerializedObjectIdEEC2EPvPS1_PS2_(%"struct.xercesc_2_7::RefHashTableBucketElem"* %16, i8* %17, %"class.xercesc_2_7::XSerializedObjectId"* %18, %"struct.xercesc_2_7::RefHashTableBucketElem"* %21), !dbg !2020
  store %"struct.xercesc_2_7::RefHashTableBucketElem"* %16, %"struct.xercesc_2_7::RefHashTableBucketElem"** %newBucket, align 8, !dbg !2021
  %22 = load %"struct.xercesc_2_7::RefHashTableBucketElem"*, %"struct.xercesc_2_7::RefHashTableBucketElem"** %newBucket, align 8, !dbg !2022
  %fBucketList8 = getelementptr inbounds %"class.xercesc_2_7::RefHashTableOf", %"class.xercesc_2_7::RefHashTableOf"* %this1, i32 0, i32 2, !dbg !2023
  %23 = load %"struct.xercesc_2_7::RefHashTableBucketElem"**, %"struct.xercesc_2_7::RefHashTableBucketElem"*** %fBucketList8, align 8, !dbg !2023
  %24 = load i32, i32* %hashVal, align 4, !dbg !2024
  %idxprom9 = zext i32 %24 to i64, !dbg !2023
  %arrayidx10 = getelementptr inbounds %"struct.xercesc_2_7::RefHashTableBucketElem"*, %"struct.xercesc_2_7::RefHashTableBucketElem"** %23, i64 %idxprom9, !dbg !2023
  store %"struct.xercesc_2_7::RefHashTableBucketElem"* %22, %"struct.xercesc_2_7::RefHashTableBucketElem"** %arrayidx10, align 8, !dbg !2025
  %fCount11 = getelementptr inbounds %"class.xercesc_2_7::RefHashTableOf", %"class.xercesc_2_7::RefHashTableOf"* %this1, i32 0, i32 5, !dbg !2026
  %25 = load i32, i32* %fCount11, align 8, !dbg !2027
  %inc = add i32 %25, 1, !dbg !2027
  store i32 %inc, i32* %fCount11, align 8, !dbg !2027
  br label %if.end12

if.end12:                                         ; preds = %if.else, %if.end5
  ret void, !dbg !2028
}

; Function Attrs: noinline uwtable
define linkonce_odr dso_local void @_ZN11xercesc_2_719XSerializedObjectIdC2Ej(%"class.xercesc_2_7::XSerializedObjectId"* %this, i32 %val) unnamed_addr #5 comdat align 2 !dbg !2029 {
entry:
  %this.addr = alloca %"class.xercesc_2_7::XSerializedObjectId"*, align 8
  %val.addr = alloca i32, align 4
  store %"class.xercesc_2_7::XSerializedObjectId"* %this, %"class.xercesc_2_7::XSerializedObjectId"** %this.addr, align 8
  call void @llvm.dbg.declare(metadata %"class.xercesc_2_7::XSerializedObjectId"** %this.addr, metadata !2030, metadata !DIExpression()), !dbg !2031
  store i32 %val, i32* %val.addr, align 4
  call void @llvm.dbg.declare(metadata i32* %val.addr, metadata !2032, metadata !DIExpression()), !dbg !2033
  %this1 = load %"class.xercesc_2_7::XSerializedObjectId"*, %"class.xercesc_2_7::XSerializedObjectId"** %this.addr, align 8
  %0 = bitcast %"class.xercesc_2_7::XSerializedObjectId"* %this1 to %"class.xercesc_2_7::XMemory"*, !dbg !2034
  call void @_ZN11xercesc_2_77XMemoryC2Ev(%"class.xercesc_2_7::XMemory"* %0), !dbg !2035
  %fData = getelementptr inbounds %"class.xercesc_2_7::XSerializedObjectId", %"class.xercesc_2_7::XSerializedObjectId"* %this1, i32 0, i32 0, !dbg !2036
  %1 = load i32, i32* %val.addr, align 4, !dbg !2037
  store i32 %1, i32* %fData, align 4, !dbg !2036
  ret void, !dbg !2038
}

; Function Attrs: noinline uwtable
define dso_local void @_ZN11xercesc_2_716XSerializeEngineC2EPNS_14BinInputStreamEPNS_13MemoryManagerEm(%"class.xercesc_2_7::XSerializeEngine"* %this, %"class.xercesc_2_7::BinInputStream"* %inStream, %"class.xercesc_2_7::MemoryManager"* %manager, i64 %bufSize) unnamed_addr #5 align 2 personality i8* bitcast (i32 (...)* @__gxx_personality_v0 to i8*) !dbg !2039 {
entry:
  %this.addr = alloca %"class.xercesc_2_7::XSerializeEngine"*, align 8
  %inStream.addr = alloca %"class.xercesc_2_7::BinInputStream"*, align 8
  %manager.addr = alloca %"class.xercesc_2_7::MemoryManager"*, align 8
  %bufSize.addr = alloca i64, align 8
  %exn.slot = alloca i8*
  %ehselector.slot = alloca i32
  store %"class.xercesc_2_7::XSerializeEngine"* %this, %"class.xercesc_2_7::XSerializeEngine"** %this.addr, align 8
  call void @llvm.dbg.declare(metadata %"class.xercesc_2_7::XSerializeEngine"** %this.addr, metadata !2040, metadata !DIExpression()), !dbg !2041
  store %"class.xercesc_2_7::BinInputStream"* %inStream, %"class.xercesc_2_7::BinInputStream"** %inStream.addr, align 8
  call void @llvm.dbg.declare(metadata %"class.xercesc_2_7::BinInputStream"** %inStream.addr, metadata !2042, metadata !DIExpression()), !dbg !2043
  store %"class.xercesc_2_7::MemoryManager"* %manager, %"class.xercesc_2_7::MemoryManager"** %manager.addr, align 8
  call void @llvm.dbg.declare(metadata %"class.xercesc_2_7::MemoryManager"** %manager.addr, metadata !2044, metadata !DIExpression()), !dbg !2045
  store i64 %bufSize, i64* %bufSize.addr, align 8
  call void @llvm.dbg.declare(metadata i64* %bufSize.addr, metadata !2046, metadata !DIExpression()), !dbg !2047
  %this1 = load %"class.xercesc_2_7::XSerializeEngine"*, %"class.xercesc_2_7::XSerializeEngine"** %this.addr, align 8
  %fStoreLoad = getelementptr inbounds %"class.xercesc_2_7::XSerializeEngine", %"class.xercesc_2_7::XSerializeEngine"* %this1, i32 0, i32 0, !dbg !2048
  store i16 1, i16* %fStoreLoad, align 8, !dbg !2048
  %fStorerLevel = getelementptr inbounds %"class.xercesc_2_7::XSerializeEngine", %"class.xercesc_2_7::XSerializeEngine"* %this1, i32 0, i32 1, !dbg !2049
  store i16 0, i16* %fStorerLevel, align 2, !dbg !2049
  %fGrammarPool = getelementptr inbounds %"class.xercesc_2_7::XSerializeEngine", %"class.xercesc_2_7::XSerializeEngine"* %this1, i32 0, i32 3, !dbg !2050
  store %"class.xercesc_2_7::XMLGrammarPool"* null, %"class.xercesc_2_7::XMLGrammarPool"** %fGrammarPool, align 8, !dbg !2050
  %fInputStream = getelementptr inbounds %"class.xercesc_2_7::XSerializeEngine", %"class.xercesc_2_7::XSerializeEngine"* %this1, i32 0, i32 4, !dbg !2051
  %0 = load %"class.xercesc_2_7::BinInputStream"*, %"class.xercesc_2_7::BinInputStream"** %inStream.addr, align 8, !dbg !2052
  store %"class.xercesc_2_7::BinInputStream"* %0, %"class.xercesc_2_7::BinInputStream"** %fInputStream, align 8, !dbg !2051
  %fOutputStream = getelementptr inbounds %"class.xercesc_2_7::XSerializeEngine", %"class.xercesc_2_7::XSerializeEngine"* %this1, i32 0, i32 5, !dbg !2053
  store %"class.xercesc_2_7::BinOutputStream"* null, %"class.xercesc_2_7::BinOutputStream"** %fOutputStream, align 8, !dbg !2053
  %fBufCount = getelementptr inbounds %"class.xercesc_2_7::XSerializeEngine", %"class.xercesc_2_7::XSerializeEngine"* %this1, i32 0, i32 6, !dbg !2054
  store i64 0, i64* %fBufCount, align 8, !dbg !2054
  %fBufSize = getelementptr inbounds %"class.xercesc_2_7::XSerializeEngine", %"class.xercesc_2_7::XSerializeEngine"* %this1, i32 0, i32 7, !dbg !2055
  %1 = load i64, i64* %bufSize.addr, align 8, !dbg !2056
  store i64 %1, i64* %fBufSize, align 8, !dbg !2055
  %fBufStart = getelementptr inbounds %"class.xercesc_2_7::XSerializeEngine", %"class.xercesc_2_7::XSerializeEngine"* %this1, i32 0, i32 8, !dbg !2057
  %2 = load %"class.xercesc_2_7::MemoryManager"*, %"class.xercesc_2_7::MemoryManager"** %manager.addr, align 8, !dbg !2058
  %3 = load i64, i64* %bufSize.addr, align 8, !dbg !2059
  %4 = bitcast %"class.xercesc_2_7::MemoryManager"* %2 to i8* (%"class.xercesc_2_7::MemoryManager"*, i64)***, !dbg !2060
  %vtable = load i8* (%"class.xercesc_2_7::MemoryManager"*, i64)**, i8* (%"class.xercesc_2_7::MemoryManager"*, i64)*** %4, align 8, !dbg !2060
  %vfn = getelementptr inbounds i8* (%"class.xercesc_2_7::MemoryManager"*, i64)*, i8* (%"class.xercesc_2_7::MemoryManager"*, i64)** %vtable, i64 2, !dbg !2060
  %5 = load i8* (%"class.xercesc_2_7::MemoryManager"*, i64)*, i8* (%"class.xercesc_2_7::MemoryManager"*, i64)** %vfn, align 8, !dbg !2060
  %call = call i8* %5(%"class.xercesc_2_7::MemoryManager"* %2, i64 %3), !dbg !2060
  store i8* %call, i8** %fBufStart, align 8, !dbg !2057
  %fBufEnd = getelementptr inbounds %"class.xercesc_2_7::XSerializeEngine", %"class.xercesc_2_7::XSerializeEngine"* %this1, i32 0, i32 9, !dbg !2061
  store i8* null, i8** %fBufEnd, align 8, !dbg !2061
  %fBufCur = getelementptr inbounds %"class.xercesc_2_7::XSerializeEngine", %"class.xercesc_2_7::XSerializeEngine"* %this1, i32 0, i32 10, !dbg !2062
  %fBufStart2 = getelementptr inbounds %"class.xercesc_2_7::XSerializeEngine", %"class.xercesc_2_7::XSerializeEngine"* %this1, i32 0, i32 8, !dbg !2063
  %6 = load i8*, i8** %fBufStart2, align 8, !dbg !2063
  store i8* %6, i8** %fBufCur, align 8, !dbg !2062
  %fBufLoadMax = getelementptr inbounds %"class.xercesc_2_7::XSerializeEngine", %"class.xercesc_2_7::XSerializeEngine"* %this1, i32 0, i32 11, !dbg !2064
  %fBufStart3 = getelementptr inbounds %"class.xercesc_2_7::XSerializeEngine", %"class.xercesc_2_7::XSerializeEngine"* %this1, i32 0, i32 8, !dbg !2065
  %7 = load i8*, i8** %fBufStart3, align 8, !dbg !2065
  store i8* %7, i8** %fBufLoadMax, align 8, !dbg !2064
  %fStorePool = getelementptr inbounds %"class.xercesc_2_7::XSerializeEngine", %"class.xercesc_2_7::XSerializeEngine"* %this1, i32 0, i32 12, !dbg !2066
  store %"class.xercesc_2_7::RefHashTableOf"* null, %"class.xercesc_2_7::RefHashTableOf"** %fStorePool, align 8, !dbg !2066
  %fLoadPool = getelementptr inbounds %"class.xercesc_2_7::XSerializeEngine", %"class.xercesc_2_7::XSerializeEngine"* %this1, i32 0, i32 13, !dbg !2067
  %8 = load %"class.xercesc_2_7::MemoryManager"*, %"class.xercesc_2_7::MemoryManager"** %manager.addr, align 8, !dbg !2068
  %call4 = call i8* @_ZN11xercesc_2_77XMemorynwEmPNS_13MemoryManagerE(i64 32, %"class.xercesc_2_7::MemoryManager"* %8), !dbg !2069
  %9 = bitcast i8* %call4 to %"class.xercesc_2_7::ValueVectorOf"*, !dbg !2069
  %10 = load %"class.xercesc_2_7::MemoryManager"*, %"class.xercesc_2_7::MemoryManager"** %manager.addr, align 8, !dbg !2070
  invoke void @_ZN11xercesc_2_713ValueVectorOfIPvEC2EjPNS_13MemoryManagerEb(%"class.xercesc_2_7::ValueVectorOf"* %9, i32 29, %"class.xercesc_2_7::MemoryManager"* %10, i1 zeroext false)
          to label %invoke.cont unwind label %lpad, !dbg !2071

invoke.cont:                                      ; preds = %entry
  store %"class.xercesc_2_7::ValueVectorOf"* %9, %"class.xercesc_2_7::ValueVectorOf"** %fLoadPool, align 8, !dbg !2067
  %fObjectCount = getelementptr inbounds %"class.xercesc_2_7::XSerializeEngine", %"class.xercesc_2_7::XSerializeEngine"* %this1, i32 0, i32 14, !dbg !2072
  store i32 0, i32* %fObjectCount, align 8, !dbg !2072
  call void @_ZN11xercesc_2_716XSerializeEngine10fillBufferEv(%"class.xercesc_2_7::XSerializeEngine"* %this1), !dbg !2073
  ret void, !dbg !2075

lpad:                                             ; preds = %entry
  %11 = landingpad { i8*, i32 }
          cleanup, !dbg !2075
  %12 = extractvalue { i8*, i32 } %11, 0, !dbg !2075
  store i8* %12, i8** %exn.slot, align 8, !dbg !2075
  %13 = extractvalue { i8*, i32 } %11, 1, !dbg !2075
  store i32 %13, i32* %ehselector.slot, align 4, !dbg !2075
  call void @_ZN11xercesc_2_77XMemorydlEPvPNS_13MemoryManagerE(i8* %call4, %"class.xercesc_2_7::MemoryManager"* %8) #9, !dbg !2069
  br label %eh.resume, !dbg !2069

eh.resume:                                        ; preds = %lpad
  %exn = load i8*, i8** %exn.slot, align 8, !dbg !2069
  %sel = load i32, i32* %ehselector.slot, align 4, !dbg !2069
  %lpad.val = insertvalue { i8*, i32 } undef, i8* %exn, 0, !dbg !2069
  %lpad.val5 = insertvalue { i8*, i32 } %lpad.val, i32 %sel, 1, !dbg !2069
  resume { i8*, i32 } %lpad.val5, !dbg !2069
}

; Function Attrs: noinline uwtable
define dso_local void @_ZN11xercesc_2_716XSerializeEngineC2EPNS_15BinOutputStreamEPNS_13MemoryManagerEm(%"class.xercesc_2_7::XSerializeEngine"* %this, %"class.xercesc_2_7::BinOutputStream"* %outStream, %"class.xercesc_2_7::MemoryManager"* %manager, i64 %bufSize) unnamed_addr #5 align 2 personality i8* bitcast (i32 (...)* @__gxx_personality_v0 to i8*) !dbg !2076 {
entry:
  %this.addr = alloca %"class.xercesc_2_7::XSerializeEngine"*, align 8
  %outStream.addr = alloca %"class.xercesc_2_7::BinOutputStream"*, align 8
  %manager.addr = alloca %"class.xercesc_2_7::MemoryManager"*, align 8
  %bufSize.addr = alloca i64, align 8
  %exn.slot = alloca i8*
  %ehselector.slot = alloca i32
  store %"class.xercesc_2_7::XSerializeEngine"* %this, %"class.xercesc_2_7::XSerializeEngine"** %this.addr, align 8
  call void @llvm.dbg.declare(metadata %"class.xercesc_2_7::XSerializeEngine"** %this.addr, metadata !2077, metadata !DIExpression()), !dbg !2078
  store %"class.xercesc_2_7::BinOutputStream"* %outStream, %"class.xercesc_2_7::BinOutputStream"** %outStream.addr, align 8
  call void @llvm.dbg.declare(metadata %"class.xercesc_2_7::BinOutputStream"** %outStream.addr, metadata !2079, metadata !DIExpression()), !dbg !2080
  store %"class.xercesc_2_7::MemoryManager"* %manager, %"class.xercesc_2_7::MemoryManager"** %manager.addr, align 8
  call void @llvm.dbg.declare(metadata %"class.xercesc_2_7::MemoryManager"** %manager.addr, metadata !2081, metadata !DIExpression()), !dbg !2082
  store i64 %bufSize, i64* %bufSize.addr, align 8
  call void @llvm.dbg.declare(metadata i64* %bufSize.addr, metadata !2083, metadata !DIExpression()), !dbg !2084
  %this1 = load %"class.xercesc_2_7::XSerializeEngine"*, %"class.xercesc_2_7::XSerializeEngine"** %this.addr, align 8
  %fStoreLoad = getelementptr inbounds %"class.xercesc_2_7::XSerializeEngine", %"class.xercesc_2_7::XSerializeEngine"* %this1, i32 0, i32 0, !dbg !2085
  store i16 0, i16* %fStoreLoad, align 8, !dbg !2085
  %fStorerLevel = getelementptr inbounds %"class.xercesc_2_7::XSerializeEngine", %"class.xercesc_2_7::XSerializeEngine"* %this1, i32 0, i32 1, !dbg !2086
  store i16 0, i16* %fStorerLevel, align 2, !dbg !2086
  %fGrammarPool = getelementptr inbounds %"class.xercesc_2_7::XSerializeEngine", %"class.xercesc_2_7::XSerializeEngine"* %this1, i32 0, i32 3, !dbg !2087
  store %"class.xercesc_2_7::XMLGrammarPool"* null, %"class.xercesc_2_7::XMLGrammarPool"** %fGrammarPool, align 8, !dbg !2087
  %fInputStream = getelementptr inbounds %"class.xercesc_2_7::XSerializeEngine", %"class.xercesc_2_7::XSerializeEngine"* %this1, i32 0, i32 4, !dbg !2088
  store %"class.xercesc_2_7::BinInputStream"* null, %"class.xercesc_2_7::BinInputStream"** %fInputStream, align 8, !dbg !2088
  %fOutputStream = getelementptr inbounds %"class.xercesc_2_7::XSerializeEngine", %"class.xercesc_2_7::XSerializeEngine"* %this1, i32 0, i32 5, !dbg !2089
  %0 = load %"class.xercesc_2_7::BinOutputStream"*, %"class.xercesc_2_7::BinOutputStream"** %outStream.addr, align 8, !dbg !2090
  store %"class.xercesc_2_7::BinOutputStream"* %0, %"class.xercesc_2_7::BinOutputStream"** %fOutputStream, align 8, !dbg !2089
  %fBufCount = getelementptr inbounds %"class.xercesc_2_7::XSerializeEngine", %"class.xercesc_2_7::XSerializeEngine"* %this1, i32 0, i32 6, !dbg !2091
  store i64 0, i64* %fBufCount, align 8, !dbg !2091
  %fBufSize = getelementptr inbounds %"class.xercesc_2_7::XSerializeEngine", %"class.xercesc_2_7::XSerializeEngine"* %this1, i32 0, i32 7, !dbg !2092
  %1 = load i64, i64* %bufSize.addr, align 8, !dbg !2093
  store i64 %1, i64* %fBufSize, align 8, !dbg !2092
  %fBufStart = getelementptr inbounds %"class.xercesc_2_7::XSerializeEngine", %"class.xercesc_2_7::XSerializeEngine"* %this1, i32 0, i32 8, !dbg !2094
  %2 = load %"class.xercesc_2_7::MemoryManager"*, %"class.xercesc_2_7::MemoryManager"** %manager.addr, align 8, !dbg !2095
  %3 = load i64, i64* %bufSize.addr, align 8, !dbg !2096
  %4 = bitcast %"class.xercesc_2_7::MemoryManager"* %2 to i8* (%"class.xercesc_2_7::MemoryManager"*, i64)***, !dbg !2097
  %vtable = load i8* (%"class.xercesc_2_7::MemoryManager"*, i64)**, i8* (%"class.xercesc_2_7::MemoryManager"*, i64)*** %4, align 8, !dbg !2097
  %vfn = getelementptr inbounds i8* (%"class.xercesc_2_7::MemoryManager"*, i64)*, i8* (%"class.xercesc_2_7::MemoryManager"*, i64)** %vtable, i64 2, !dbg !2097
  %5 = load i8* (%"class.xercesc_2_7::MemoryManager"*, i64)*, i8* (%"class.xercesc_2_7::MemoryManager"*, i64)** %vfn, align 8, !dbg !2097
  %call = call i8* %5(%"class.xercesc_2_7::MemoryManager"* %2, i64 %3), !dbg !2097
  store i8* %call, i8** %fBufStart, align 8, !dbg !2094
  %fBufEnd = getelementptr inbounds %"class.xercesc_2_7::XSerializeEngine", %"class.xercesc_2_7::XSerializeEngine"* %this1, i32 0, i32 9, !dbg !2098
  %fBufStart2 = getelementptr inbounds %"class.xercesc_2_7::XSerializeEngine", %"class.xercesc_2_7::XSerializeEngine"* %this1, i32 0, i32 8, !dbg !2099
  %6 = load i8*, i8** %fBufStart2, align 8, !dbg !2099
  %7 = load i64, i64* %bufSize.addr, align 8, !dbg !2100
  %add.ptr = getelementptr inbounds i8, i8* %6, i64 %7, !dbg !2101
  store i8* %add.ptr, i8** %fBufEnd, align 8, !dbg !2098
  %fBufCur = getelementptr inbounds %"class.xercesc_2_7::XSerializeEngine", %"class.xercesc_2_7::XSerializeEngine"* %this1, i32 0, i32 10, !dbg !2102
  %fBufStart3 = getelementptr inbounds %"class.xercesc_2_7::XSerializeEngine", %"class.xercesc_2_7::XSerializeEngine"* %this1, i32 0, i32 8, !dbg !2103
  %8 = load i8*, i8** %fBufStart3, align 8, !dbg !2103
  store i8* %8, i8** %fBufCur, align 8, !dbg !2102
  %fBufLoadMax = getelementptr inbounds %"class.xercesc_2_7::XSerializeEngine", %"class.xercesc_2_7::XSerializeEngine"* %this1, i32 0, i32 11, !dbg !2104
  store i8* null, i8** %fBufLoadMax, align 8, !dbg !2104
  %fStorePool = getelementptr inbounds %"class.xercesc_2_7::XSerializeEngine", %"class.xercesc_2_7::XSerializeEngine"* %this1, i32 0, i32 12, !dbg !2105
  %9 = load %"class.xercesc_2_7::MemoryManager"*, %"class.xercesc_2_7::MemoryManager"** %manager.addr, align 8, !dbg !2106
  %call4 = call i8* @_ZN11xercesc_2_77XMemorynwEmPNS_13MemoryManagerE(i64 48, %"class.xercesc_2_7::MemoryManager"* %9), !dbg !2107
  %10 = bitcast i8* %call4 to %"class.xercesc_2_7::RefHashTableOf"*, !dbg !2107
  %11 = load %"class.xercesc_2_7::MemoryManager"*, %"class.xercesc_2_7::MemoryManager"** %manager.addr, align 8, !dbg !2108
  %call5 = invoke i8* @_ZN11xercesc_2_77XMemorynwEmPNS_13MemoryManagerE(i64 8, %"class.xercesc_2_7::MemoryManager"* %11)
          to label %invoke.cont unwind label %lpad, !dbg !2109

invoke.cont:                                      ; preds = %entry
  %12 = bitcast i8* %call5 to %"class.xercesc_2_7::HashPtr"*, !dbg !2109
  invoke void @_ZN11xercesc_2_77HashPtrC1Ev(%"class.xercesc_2_7::HashPtr"* %12)
          to label %invoke.cont7 unwind label %lpad6, !dbg !2110

invoke.cont7:                                     ; preds = %invoke.cont
  %13 = bitcast %"class.xercesc_2_7::HashPtr"* %12 to %"class.xercesc_2_7::HashBase"*, !dbg !2109
  %14 = load %"class.xercesc_2_7::MemoryManager"*, %"class.xercesc_2_7::MemoryManager"** %manager.addr, align 8, !dbg !2111
  invoke void @_ZN11xercesc_2_714RefHashTableOfINS_19XSerializedObjectIdEEC2EjbPNS_8HashBaseEPNS_13MemoryManagerE(%"class.xercesc_2_7::RefHashTableOf"* %10, i32 29, i1 zeroext true, %"class.xercesc_2_7::HashBase"* %13, %"class.xercesc_2_7::MemoryManager"* %14)
          to label %invoke.cont8 unwind label %lpad, !dbg !2112

invoke.cont8:                                     ; preds = %invoke.cont7
  store %"class.xercesc_2_7::RefHashTableOf"* %10, %"class.xercesc_2_7::RefHashTableOf"** %fStorePool, align 8, !dbg !2105
  %fLoadPool = getelementptr inbounds %"class.xercesc_2_7::XSerializeEngine", %"class.xercesc_2_7::XSerializeEngine"* %this1, i32 0, i32 13, !dbg !2113
  store %"class.xercesc_2_7::ValueVectorOf"* null, %"class.xercesc_2_7::ValueVectorOf"** %fLoadPool, align 8, !dbg !2113
  %fObjectCount = getelementptr inbounds %"class.xercesc_2_7::XSerializeEngine", %"class.xercesc_2_7::XSerializeEngine"* %this1, i32 0, i32 14, !dbg !2114
  store i32 0, i32* %fObjectCount, align 8, !dbg !2114
  %fStorePool9 = getelementptr inbounds %"class.xercesc_2_7::XSerializeEngine", %"class.xercesc_2_7::XSerializeEngine"* %this1, i32 0, i32 12, !dbg !2115
  %15 = load %"class.xercesc_2_7::RefHashTableOf"*, %"class.xercesc_2_7::RefHashTableOf"** %fStorePool9, align 8, !dbg !2115
  %16 = load %"class.xercesc_2_7::MemoryManager"*, %"class.xercesc_2_7::MemoryManager"** %manager.addr, align 8, !dbg !2117
  %call10 = call i8* @_ZN11xercesc_2_77XMemorynwEmPNS_13MemoryManagerE(i64 4, %"class.xercesc_2_7::MemoryManager"* %16), !dbg !2118
  %17 = bitcast i8* %call10 to %"class.xercesc_2_7::XSerializedObjectId"*, !dbg !2118
  invoke void @_ZN11xercesc_2_719XSerializedObjectIdC2Ej(%"class.xercesc_2_7::XSerializedObjectId"* %17, i32 0)
          to label %invoke.cont12 unwind label %lpad11, !dbg !2119

invoke.cont12:                                    ; preds = %invoke.cont8
  call void @_ZN11xercesc_2_714RefHashTableOfINS_19XSerializedObjectIdEE3putEPvPS1_(%"class.xercesc_2_7::RefHashTableOf"* %15, i8* null, %"class.xercesc_2_7::XSerializedObjectId"* %17), !dbg !2120
  ret void, !dbg !2121

lpad:                                             ; preds = %invoke.cont7, %entry
  %18 = landingpad { i8*, i32 }
          cleanup, !dbg !2121
  %19 = extractvalue { i8*, i32 } %18, 0, !dbg !2121
  store i8* %19, i8** %exn.slot, align 8, !dbg !2121
  %20 = extractvalue { i8*, i32 } %18, 1, !dbg !2121
  store i32 %20, i32* %ehselector.slot, align 4, !dbg !2121
  br label %ehcleanup, !dbg !2121

lpad6:                                            ; preds = %invoke.cont
  %21 = landingpad { i8*, i32 }
          cleanup, !dbg !2121
  %22 = extractvalue { i8*, i32 } %21, 0, !dbg !2121
  store i8* %22, i8** %exn.slot, align 8, !dbg !2121
  %23 = extractvalue { i8*, i32 } %21, 1, !dbg !2121
  store i32 %23, i32* %ehselector.slot, align 4, !dbg !2121
  call void @_ZN11xercesc_2_77XMemorydlEPvPNS_13MemoryManagerE(i8* %call5, %"class.xercesc_2_7::MemoryManager"* %11) #9, !dbg !2109
  br label %ehcleanup, !dbg !2109

ehcleanup:                                        ; preds = %lpad6, %lpad
  call void @_ZN11xercesc_2_77XMemorydlEPvPNS_13MemoryManagerE(i8* %call4, %"class.xercesc_2_7::MemoryManager"* %9) #9, !dbg !2107
  br label %eh.resume, !dbg !2107

lpad11:                                           ; preds = %invoke.cont8
  %24 = landingpad { i8*, i32 }
          cleanup, !dbg !2122
  %25 = extractvalue { i8*, i32 } %24, 0, !dbg !2122
  store i8* %25, i8** %exn.slot, align 8, !dbg !2122
  %26 = extractvalue { i8*, i32 } %24, 1, !dbg !2122
  store i32 %26, i32* %ehselector.slot, align 4, !dbg !2122
  call void @_ZN11xercesc_2_77XMemorydlEPvPNS_13MemoryManagerE(i8* %call10, %"class.xercesc_2_7::MemoryManager"* %16) #9, !dbg !2118
  br label %eh.resume, !dbg !2118

eh.resume:                                        ; preds = %lpad11, %ehcleanup
  %exn = load i8*, i8** %exn.slot, align 8, !dbg !2107
  %sel = load i32, i32* %ehselector.slot, align 4, !dbg !2107
  %lpad.val = insertvalue { i8*, i32 } undef, i8* %exn, 0, !dbg !2107
  %lpad.val14 = insertvalue { i8*, i32 } %lpad.val, i32 %sel, 1, !dbg !2107
  resume { i8*, i32 } %lpad.val14, !dbg !2107
}

; Function Attrs: noinline uwtable
define dso_local void @_ZN11xercesc_2_716XSerializeEngine11flushBufferEv(%"class.xercesc_2_7::XSerializeEngine"* %this) #5 align 2 !dbg !2123 {
entry:
  %this.addr = alloca %"class.xercesc_2_7::XSerializeEngine"*, align 8
  store %"class.xercesc_2_7::XSerializeEngine"* %this, %"class.xercesc_2_7::XSerializeEngine"** %this.addr, align 8
  call void @llvm.dbg.declare(metadata %"class.xercesc_2_7::XSerializeEngine"** %this.addr, metadata !2124, metadata !DIExpression()), !dbg !2125
  %this1 = load %"class.xercesc_2_7::XSerializeEngine"*, %"class.xercesc_2_7::XSerializeEngine"** %this.addr, align 8
  call void @_ZNK11xercesc_2_716XSerializeEngine13ensureStoringEv(%"class.xercesc_2_7::XSerializeEngine"* %this1), !dbg !2126
  call void @_ZNK11xercesc_2_716XSerializeEngine17ensureStoreBufferEv(%"class.xercesc_2_7::XSerializeEngine"* %this1), !dbg !2127
  %fOutputStream = getelementptr inbounds %"class.xercesc_2_7::XSerializeEngine", %"class.xercesc_2_7::XSerializeEngine"* %this1, i32 0, i32 5, !dbg !2128
  %0 = load %"class.xercesc_2_7::BinOutputStream"*, %"class.xercesc_2_7::BinOutputStream"** %fOutputStream, align 8, !dbg !2128
  %fBufStart = getelementptr inbounds %"class.xercesc_2_7::XSerializeEngine", %"class.xercesc_2_7::XSerializeEngine"* %this1, i32 0, i32 8, !dbg !2129
  %1 = load i8*, i8** %fBufStart, align 8, !dbg !2129
  %fBufSize = getelementptr inbounds %"class.xercesc_2_7::XSerializeEngine", %"class.xercesc_2_7::XSerializeEngine"* %this1, i32 0, i32 7, !dbg !2130
  %2 = load i64, i64* %fBufSize, align 8, !dbg !2130
  %conv = trunc i64 %2 to i32, !dbg !2130
  %3 = bitcast %"class.xercesc_2_7::BinOutputStream"* %0 to void (%"class.xercesc_2_7::BinOutputStream"*, i8*, i32)***, !dbg !2131
  %vtable = load void (%"class.xercesc_2_7::BinOutputStream"*, i8*, i32)**, void (%"class.xercesc_2_7::BinOutputStream"*, i8*, i32)*** %3, align 8, !dbg !2131
  %vfn = getelementptr inbounds void (%"class.xercesc_2_7::BinOutputStream"*, i8*, i32)*, void (%"class.xercesc_2_7::BinOutputStream"*, i8*, i32)** %vtable, i64 3, !dbg !2131
  %4 = load void (%"class.xercesc_2_7::BinOutputStream"*, i8*, i32)*, void (%"class.xercesc_2_7::BinOutputStream"*, i8*, i32)** %vfn, align 8, !dbg !2131
  call void %4(%"class.xercesc_2_7::BinOutputStream"* %0, i8* %1, i32 %conv), !dbg !2131
  %fBufStart2 = getelementptr inbounds %"class.xercesc_2_7::XSerializeEngine", %"class.xercesc_2_7::XSerializeEngine"* %this1, i32 0, i32 8, !dbg !2132
  %5 = load i8*, i8** %fBufStart2, align 8, !dbg !2132
  %fBufCur = getelementptr inbounds %"class.xercesc_2_7::XSerializeEngine", %"class.xercesc_2_7::XSerializeEngine"* %this1, i32 0, i32 10, !dbg !2133
  store i8* %5, i8** %fBufCur, align 8, !dbg !2134
  call void @_ZN11xercesc_2_716XSerializeEngine11resetBufferEv(%"class.xercesc_2_7::XSerializeEngine"* %this1), !dbg !2135
  call void @_ZNK11xercesc_2_716XSerializeEngine17ensureStoreBufferEv(%"class.xercesc_2_7::XSerializeEngine"* %this1), !dbg !2136
  %fBufCount = getelementptr inbounds %"class.xercesc_2_7::XSerializeEngine", %"class.xercesc_2_7::XSerializeEngine"* %this1, i32 0, i32 6, !dbg !2137
  %6 = load i64, i64* %fBufCount, align 8, !dbg !2138
  %inc = add i64 %6, 1, !dbg !2138
  store i64 %inc, i64* %fBufCount, align 8, !dbg !2138
  ret void, !dbg !2139
}

; Function Attrs: noinline uwtable
define dso_local void @_ZN11xercesc_2_716XSerializeEngine5writeEPNS_13XSerializableE(%"class.xercesc_2_7::XSerializeEngine"* %this, %"class.xercesc_2_7::XSerializable"* %objectToWrite) #5 align 2 !dbg !2140 {
entry:
  %this.addr = alloca %"class.xercesc_2_7::XSerializeEngine"*, align 8
  %objectToWrite.addr = alloca %"class.xercesc_2_7::XSerializable"*, align 8
  %objIndex = alloca i32, align 4
  %protoType = alloca %"class.xercesc_2_7::XProtoType"*, align 8
  store %"class.xercesc_2_7::XSerializeEngine"* %this, %"class.xercesc_2_7::XSerializeEngine"** %this.addr, align 8
  call void @llvm.dbg.declare(metadata %"class.xercesc_2_7::XSerializeEngine"** %this.addr, metadata !2141, metadata !DIExpression()), !dbg !2142
  store %"class.xercesc_2_7::XSerializable"* %objectToWrite, %"class.xercesc_2_7::XSerializable"** %objectToWrite.addr, align 8
  call void @llvm.dbg.declare(metadata %"class.xercesc_2_7::XSerializable"** %objectToWrite.addr, metadata !2143, metadata !DIExpression()), !dbg !2144
  %this1 = load %"class.xercesc_2_7::XSerializeEngine"*, %"class.xercesc_2_7::XSerializeEngine"** %this.addr, align 8
  call void @_ZNK11xercesc_2_716XSerializeEngine13ensureStoringEv(%"class.xercesc_2_7::XSerializeEngine"* %this1), !dbg !2145
  call void @llvm.dbg.declare(metadata i32* %objIndex, metadata !2146, metadata !DIExpression()), !dbg !2147
  store i32 0, i32* %objIndex, align 4, !dbg !2147
  %0 = load %"class.xercesc_2_7::XSerializable"*, %"class.xercesc_2_7::XSerializable"** %objectToWrite.addr, align 8, !dbg !2148
  %tobool = icmp ne %"class.xercesc_2_7::XSerializable"* %0, null, !dbg !2148
  br i1 %tobool, label %if.else, label %if.then, !dbg !2150

if.then:                                          ; preds = %entry
  %call = call dereferenceable(104) %"class.xercesc_2_7::XSerializeEngine"* @_ZN11xercesc_2_716XSerializeEnginelsEj(%"class.xercesc_2_7::XSerializeEngine"* %this1, i32 0), !dbg !2151
  br label %if.end9, !dbg !2153

if.else:                                          ; preds = %entry
  %1 = load %"class.xercesc_2_7::XSerializable"*, %"class.xercesc_2_7::XSerializable"** %objectToWrite.addr, align 8, !dbg !2154
  %2 = bitcast %"class.xercesc_2_7::XSerializable"* %1 to i8*, !dbg !2154
  %call2 = call i32 @_ZNK11xercesc_2_716XSerializeEngine15lookupStorePoolEPv(%"class.xercesc_2_7::XSerializeEngine"* %this1, i8* %2), !dbg !2156
  store i32 %call2, i32* %objIndex, align 4, !dbg !2157
  %cmp = icmp ne i32 0, %call2, !dbg !2158
  br i1 %cmp, label %if.then3, label %if.else5, !dbg !2159

if.then3:                                         ; preds = %if.else
  %3 = load i32, i32* %objIndex, align 4, !dbg !2160
  %call4 = call dereferenceable(104) %"class.xercesc_2_7::XSerializeEngine"* @_ZN11xercesc_2_716XSerializeEnginelsEj(%"class.xercesc_2_7::XSerializeEngine"* %this1, i32 %3), !dbg !2162
  br label %if.end, !dbg !2163

if.else5:                                         ; preds = %if.else
  call void @llvm.dbg.declare(metadata %"class.xercesc_2_7::XProtoType"** %protoType, metadata !2164, metadata !DIExpression()), !dbg !2166
  %4 = load %"class.xercesc_2_7::XSerializable"*, %"class.xercesc_2_7::XSerializable"** %objectToWrite.addr, align 8, !dbg !2167
  %5 = bitcast %"class.xercesc_2_7::XSerializable"* %4 to %"class.xercesc_2_7::XProtoType"* (%"class.xercesc_2_7::XSerializable"*)***, !dbg !2168
  %vtable = load %"class.xercesc_2_7::XProtoType"* (%"class.xercesc_2_7::XSerializable"*)**, %"class.xercesc_2_7::XProtoType"* (%"class.xercesc_2_7::XSerializable"*)*** %5, align 8, !dbg !2168
  %vfn = getelementptr inbounds %"class.xercesc_2_7::XProtoType"* (%"class.xercesc_2_7::XSerializable"*)*, %"class.xercesc_2_7::XProtoType"* (%"class.xercesc_2_7::XSerializable"*)** %vtable, i64 4, !dbg !2168
  %6 = load %"class.xercesc_2_7::XProtoType"* (%"class.xercesc_2_7::XSerializable"*)*, %"class.xercesc_2_7::XProtoType"* (%"class.xercesc_2_7::XSerializable"*)** %vfn, align 8, !dbg !2168
  %call6 = call %"class.xercesc_2_7::XProtoType"* %6(%"class.xercesc_2_7::XSerializable"* %4), !dbg !2168
  store %"class.xercesc_2_7::XProtoType"* %call6, %"class.xercesc_2_7::XProtoType"** %protoType, align 8, !dbg !2166
  %7 = load %"class.xercesc_2_7::XProtoType"*, %"class.xercesc_2_7::XProtoType"** %protoType, align 8, !dbg !2169
  call void @_ZN11xercesc_2_716XSerializeEngine5writeEPNS_10XProtoTypeE(%"class.xercesc_2_7::XSerializeEngine"* %this1, %"class.xercesc_2_7::XProtoType"* %7), !dbg !2170
  %8 = load %"class.xercesc_2_7::XSerializable"*, %"class.xercesc_2_7::XSerializable"** %objectToWrite.addr, align 8, !dbg !2171
  %9 = bitcast %"class.xercesc_2_7::XSerializable"* %8 to i8*, !dbg !2171
  call void @_ZN11xercesc_2_716XSerializeEngine12addStorePoolEPv(%"class.xercesc_2_7::XSerializeEngine"* %this1, i8* %9), !dbg !2172
  %10 = load %"class.xercesc_2_7::XSerializable"*, %"class.xercesc_2_7::XSerializable"** %objectToWrite.addr, align 8, !dbg !2173
  %11 = bitcast %"class.xercesc_2_7::XSerializable"* %10 to void (%"class.xercesc_2_7::XSerializable"*, %"class.xercesc_2_7::XSerializeEngine"*)***, !dbg !2174
  %vtable7 = load void (%"class.xercesc_2_7::XSerializable"*, %"class.xercesc_2_7::XSerializeEngine"*)**, void (%"class.xercesc_2_7::XSerializable"*, %"class.xercesc_2_7::XSerializeEngine"*)*** %11, align 8, !dbg !2174
  %vfn8 = getelementptr inbounds void (%"class.xercesc_2_7::XSerializable"*, %"class.xercesc_2_7::XSerializeEngine"*)*, void (%"class.xercesc_2_7::XSerializable"*, %"class.xercesc_2_7::XSerializeEngine"*)** %vtable7, i64 3, !dbg !2174
  %12 = load void (%"class.xercesc_2_7::XSerializable"*, %"class.xercesc_2_7::XSerializeEngine"*)*, void (%"class.xercesc_2_7::XSerializable"*, %"class.xercesc_2_7::XSerializeEngine"*)** %vfn8, align 8, !dbg !2174
  call void %12(%"class.xercesc_2_7::XSerializable"* %10, %"class.xercesc_2_7::XSerializeEngine"* dereferenceable(104) %this1), !dbg !2174
  br label %if.end

if.end:                                           ; preds = %if.else5, %if.then3
  br label %if.end9

if.end9:                                          ; preds = %if.end, %if.then
  ret void, !dbg !2175
}

; Function Attrs: noinline uwtable
define linkonce_odr dso_local void @_ZNK11xercesc_2_716XSerializeEngine13ensureStoringEv(%"class.xercesc_2_7::XSerializeEngine"* %this) #5 comdat align 2 !dbg !2176 {
entry:
  %this.addr = alloca %"class.xercesc_2_7::XSerializeEngine"*, align 8
  store %"class.xercesc_2_7::XSerializeEngine"* %this, %"class.xercesc_2_7::XSerializeEngine"** %this.addr, align 8
  call void @llvm.dbg.declare(metadata %"class.xercesc_2_7::XSerializeEngine"** %this.addr, metadata !2177, metadata !DIExpression()), !dbg !2178
  %this1 = load %"class.xercesc_2_7::XSerializeEngine"*, %"class.xercesc_2_7::XSerializeEngine"** %this.addr, align 8
  %call = call zeroext i1 @_ZNK11xercesc_2_716XSerializeEngine9isStoringEv(%"class.xercesc_2_7::XSerializeEngine"* %this1), !dbg !2179
  call void @_ZNK11xercesc_2_716XSerializeEngine6AssertEbNS_10XMLExcepts5CodesE(%"class.xercesc_2_7::XSerializeEngine"* %this1, i1 zeroext %call, i32 382), !dbg !2180
  ret void, !dbg !2181
}

; Function Attrs: noinline uwtable
define dso_local dereferenceable(104) %"class.xercesc_2_7::XSerializeEngine"* @_ZN11xercesc_2_716XSerializeEnginelsEj(%"class.xercesc_2_7::XSerializeEngine"* %this, i32 %ui) #5 align 2 !dbg !2182 {
entry:
  %this.addr = alloca %"class.xercesc_2_7::XSerializeEngine"*, align 8
  %ui.addr = alloca i32, align 4
  store %"class.xercesc_2_7::XSerializeEngine"* %this, %"class.xercesc_2_7::XSerializeEngine"** %this.addr, align 8
  call void @llvm.dbg.declare(metadata %"class.xercesc_2_7::XSerializeEngine"** %this.addr, metadata !2183, metadata !DIExpression()), !dbg !2184
  store i32 %ui, i32* %ui.addr, align 4
  call void @llvm.dbg.declare(metadata i32* %ui.addr, metadata !2185, metadata !DIExpression()), !dbg !2186
  %this1 = load %"class.xercesc_2_7::XSerializeEngine"*, %"class.xercesc_2_7::XSerializeEngine"** %this.addr, align 8
  %call = call i64 @_ZNK11xercesc_2_716XSerializeEngine14calBytesNeededEm(%"class.xercesc_2_7::XSerializeEngine"* %this1, i64 4), !dbg !2187
  %conv = trunc i64 %call to i32, !dbg !2187
  call void @_ZN11xercesc_2_716XSerializeEngine19checkAndFlushBufferEi(%"class.xercesc_2_7::XSerializeEngine"* %this1, i32 %conv), !dbg !2188
  call void @_ZN11xercesc_2_716XSerializeEngine11alignBufCurEm(%"class.xercesc_2_7::XSerializeEngine"* %this1, i64 4), !dbg !2189
  %0 = load i32, i32* %ui.addr, align 4, !dbg !2190
  %fBufCur = getelementptr inbounds %"class.xercesc_2_7::XSerializeEngine", %"class.xercesc_2_7::XSerializeEngine"* %this1, i32 0, i32 10, !dbg !2191
  %1 = load i8*, i8** %fBufCur, align 8, !dbg !2191
  %2 = bitcast i8* %1 to i32*, !dbg !2192
  store i32 %0, i32* %2, align 4, !dbg !2193
  %fBufCur2 = getelementptr inbounds %"class.xercesc_2_7::XSerializeEngine", %"class.xercesc_2_7::XSerializeEngine"* %this1, i32 0, i32 10, !dbg !2194
  %3 = load i8*, i8** %fBufCur2, align 8, !dbg !2195
  %add.ptr = getelementptr inbounds i8, i8* %3, i64 4, !dbg !2195
  store i8* %add.ptr, i8** %fBufCur2, align 8, !dbg !2195
  ret %"class.xercesc_2_7::XSerializeEngine"* %this1, !dbg !2196
}

; Function Attrs: noinline uwtable
define dso_local i32 @_ZNK11xercesc_2_716XSerializeEngine15lookupStorePoolEPv(%"class.xercesc_2_7::XSerializeEngine"* %this, i8* %objToLookup) #5 align 2 !dbg !2197 {
entry:
  %this.addr = alloca %"class.xercesc_2_7::XSerializeEngine"*, align 8
  %objToLookup.addr = alloca i8*, align 8
  %data = alloca %"class.xercesc_2_7::XSerializedObjectId"*, align 8
  store %"class.xercesc_2_7::XSerializeEngine"* %this, %"class.xercesc_2_7::XSerializeEngine"** %this.addr, align 8
  call void @llvm.dbg.declare(metadata %"class.xercesc_2_7::XSerializeEngine"** %this.addr, metadata !2198, metadata !DIExpression()), !dbg !2199
  store i8* %objToLookup, i8** %objToLookup.addr, align 8
  call void @llvm.dbg.declare(metadata i8** %objToLookup.addr, metadata !2200, metadata !DIExpression()), !dbg !2201
  %this1 = load %"class.xercesc_2_7::XSerializeEngine"*, %"class.xercesc_2_7::XSerializeEngine"** %this.addr, align 8
  call void @llvm.dbg.declare(metadata %"class.xercesc_2_7::XSerializedObjectId"** %data, metadata !2202, metadata !DIExpression()), !dbg !2203
  %fStorePool = getelementptr inbounds %"class.xercesc_2_7::XSerializeEngine", %"class.xercesc_2_7::XSerializeEngine"* %this1, i32 0, i32 12, !dbg !2204
  %0 = load %"class.xercesc_2_7::RefHashTableOf"*, %"class.xercesc_2_7::RefHashTableOf"** %fStorePool, align 8, !dbg !2204
  %1 = load i8*, i8** %objToLookup.addr, align 8, !dbg !2205
  %call = call %"class.xercesc_2_7::XSerializedObjectId"* @_ZN11xercesc_2_714RefHashTableOfINS_19XSerializedObjectIdEE3getEPKv(%"class.xercesc_2_7::RefHashTableOf"* %0, i8* %1), !dbg !2206
  store %"class.xercesc_2_7::XSerializedObjectId"* %call, %"class.xercesc_2_7::XSerializedObjectId"** %data, align 8, !dbg !2203
  %2 = load %"class.xercesc_2_7::XSerializedObjectId"*, %"class.xercesc_2_7::XSerializedObjectId"** %data, align 8, !dbg !2207
  %tobool = icmp ne %"class.xercesc_2_7::XSerializedObjectId"* %2, null, !dbg !2207
  br i1 %tobool, label %cond.true, label %cond.false, !dbg !2207

cond.true:                                        ; preds = %entry
  %3 = load %"class.xercesc_2_7::XSerializedObjectId"*, %"class.xercesc_2_7::XSerializedObjectId"** %data, align 8, !dbg !2208
  %call2 = call i32 @_ZNK11xercesc_2_719XSerializedObjectId8getValueEv(%"class.xercesc_2_7::XSerializedObjectId"* %3), !dbg !2209
  br label %cond.end, !dbg !2207

cond.false:                                       ; preds = %entry
  br label %cond.end, !dbg !2207

cond.end:                                         ; preds = %cond.false, %cond.true
  %cond = phi i32 [ %call2, %cond.true ], [ 0, %cond.false ], !dbg !2207
  ret i32 %cond, !dbg !2210
}

; Function Attrs: noinline uwtable
define dso_local void @_ZN11xercesc_2_716XSerializeEngine5writeEPNS_10XProtoTypeE(%"class.xercesc_2_7::XSerializeEngine"* %this, %"class.xercesc_2_7::XProtoType"* %protoType) #5 align 2 !dbg !2211 {
entry:
  %this.addr = alloca %"class.xercesc_2_7::XSerializeEngine"*, align 8
  %protoType.addr = alloca %"class.xercesc_2_7::XProtoType"*, align 8
  %objIndex = alloca i32, align 4
  store %"class.xercesc_2_7::XSerializeEngine"* %this, %"class.xercesc_2_7::XSerializeEngine"** %this.addr, align 8
  call void @llvm.dbg.declare(metadata %"class.xercesc_2_7::XSerializeEngine"** %this.addr, metadata !2212, metadata !DIExpression()), !dbg !2213
  store %"class.xercesc_2_7::XProtoType"* %protoType, %"class.xercesc_2_7::XProtoType"** %protoType.addr, align 8
  call void @llvm.dbg.declare(metadata %"class.xercesc_2_7::XProtoType"** %protoType.addr, metadata !2214, metadata !DIExpression()), !dbg !2215
  %this1 = load %"class.xercesc_2_7::XSerializeEngine"*, %"class.xercesc_2_7::XSerializeEngine"** %this.addr, align 8
  call void @_ZNK11xercesc_2_716XSerializeEngine13ensureStoringEv(%"class.xercesc_2_7::XSerializeEngine"* %this1), !dbg !2216
  %0 = load %"class.xercesc_2_7::XProtoType"*, %"class.xercesc_2_7::XProtoType"** %protoType.addr, align 8, !dbg !2217
  %1 = bitcast %"class.xercesc_2_7::XProtoType"* %0 to i8*, !dbg !2217
  call void @_ZNK11xercesc_2_716XSerializeEngine13ensurePointerEPv(%"class.xercesc_2_7::XSerializeEngine"* %this1, i8* %1), !dbg !2218
  call void @llvm.dbg.declare(metadata i32* %objIndex, metadata !2219, metadata !DIExpression()), !dbg !2220
  %2 = load %"class.xercesc_2_7::XProtoType"*, %"class.xercesc_2_7::XProtoType"** %protoType.addr, align 8, !dbg !2221
  %3 = bitcast %"class.xercesc_2_7::XProtoType"* %2 to i8*, !dbg !2221
  %call = call i32 @_ZNK11xercesc_2_716XSerializeEngine15lookupStorePoolEPv(%"class.xercesc_2_7::XSerializeEngine"* %this1, i8* %3), !dbg !2222
  store i32 %call, i32* %objIndex, align 4, !dbg !2220
  %4 = load i32, i32* %objIndex, align 4, !dbg !2223
  %tobool = icmp ne i32 %4, 0, !dbg !2223
  br i1 %tobool, label %if.then, label %if.else, !dbg !2225

if.then:                                          ; preds = %entry
  %5 = load i32, i32* %objIndex, align 4, !dbg !2226
  %or = or i32 -2147483648, %5, !dbg !2228
  %call2 = call dereferenceable(104) %"class.xercesc_2_7::XSerializeEngine"* @_ZN11xercesc_2_716XSerializeEnginelsEj(%"class.xercesc_2_7::XSerializeEngine"* %this1, i32 %or), !dbg !2229
  br label %if.end, !dbg !2230

if.else:                                          ; preds = %entry
  %call3 = call dereferenceable(104) %"class.xercesc_2_7::XSerializeEngine"* @_ZN11xercesc_2_716XSerializeEnginelsEj(%"class.xercesc_2_7::XSerializeEngine"* %this1, i32 -1), !dbg !2231
  %6 = load %"class.xercesc_2_7::XProtoType"*, %"class.xercesc_2_7::XProtoType"** %protoType.addr, align 8, !dbg !2233
  call void @_ZNK11xercesc_2_710XProtoType5storeERNS_16XSerializeEngineE(%"class.xercesc_2_7::XProtoType"* %6, %"class.xercesc_2_7::XSerializeEngine"* dereferenceable(104) %this1), !dbg !2234
  %7 = load %"class.xercesc_2_7::XProtoType"*, %"class.xercesc_2_7::XProtoType"** %protoType.addr, align 8, !dbg !2235
  %8 = bitcast %"class.xercesc_2_7::XProtoType"* %7 to i8*, !dbg !2235
  call void @_ZN11xercesc_2_716XSerializeEngine12addStorePoolEPv(%"class.xercesc_2_7::XSerializeEngine"* %this1, i8* %8), !dbg !2236
  br label %if.end

if.end:                                           ; preds = %if.else, %if.then
  ret void, !dbg !2237
}

; Function Attrs: noinline uwtable
define dso_local void @_ZN11xercesc_2_716XSerializeEngine12addStorePoolEPv(%"class.xercesc_2_7::XSerializeEngine"* %this, i8* %objToAdd) #5 align 2 personality i8* bitcast (i32 (...)* @__gxx_personality_v0 to i8*) !dbg !2238 {
entry:
  %this.addr = alloca %"class.xercesc_2_7::XSerializeEngine"*, align 8
  %objToAdd.addr = alloca i8*, align 8
  %exn.slot = alloca i8*
  %ehselector.slot = alloca i32
  store %"class.xercesc_2_7::XSerializeEngine"* %this, %"class.xercesc_2_7::XSerializeEngine"** %this.addr, align 8
  call void @llvm.dbg.declare(metadata %"class.xercesc_2_7::XSerializeEngine"** %this.addr, metadata !2239, metadata !DIExpression()), !dbg !2240
  store i8* %objToAdd, i8** %objToAdd.addr, align 8
  call void @llvm.dbg.declare(metadata i8** %objToAdd.addr, metadata !2241, metadata !DIExpression()), !dbg !2242
  %this1 = load %"class.xercesc_2_7::XSerializeEngine"*, %"class.xercesc_2_7::XSerializeEngine"** %this.addr, align 8
  call void @_ZN11xercesc_2_716XSerializeEngine9pumpCountEv(%"class.xercesc_2_7::XSerializeEngine"* %this1), !dbg !2243
  %fStorePool = getelementptr inbounds %"class.xercesc_2_7::XSerializeEngine", %"class.xercesc_2_7::XSerializeEngine"* %this1, i32 0, i32 12, !dbg !2244
  %0 = load %"class.xercesc_2_7::RefHashTableOf"*, %"class.xercesc_2_7::RefHashTableOf"** %fStorePool, align 8, !dbg !2244
  %1 = load i8*, i8** %objToAdd.addr, align 8, !dbg !2245
  %fGrammarPool = getelementptr inbounds %"class.xercesc_2_7::XSerializeEngine", %"class.xercesc_2_7::XSerializeEngine"* %this1, i32 0, i32 3, !dbg !2246
  %2 = load %"class.xercesc_2_7::XMLGrammarPool"*, %"class.xercesc_2_7::XMLGrammarPool"** %fGrammarPool, align 8, !dbg !2246
  %call = call %"class.xercesc_2_7::MemoryManager"* @_ZN11xercesc_2_714XMLGrammarPool16getMemoryManagerEv(%"class.xercesc_2_7::XMLGrammarPool"* %2), !dbg !2247
  %call2 = call i8* @_ZN11xercesc_2_77XMemorynwEmPNS_13MemoryManagerE(i64 4, %"class.xercesc_2_7::MemoryManager"* %call), !dbg !2248
  %3 = bitcast i8* %call2 to %"class.xercesc_2_7::XSerializedObjectId"*, !dbg !2248
  %fObjectCount = getelementptr inbounds %"class.xercesc_2_7::XSerializeEngine", %"class.xercesc_2_7::XSerializeEngine"* %this1, i32 0, i32 14, !dbg !2249
  %4 = load i32, i32* %fObjectCount, align 8, !dbg !2249
  invoke void @_ZN11xercesc_2_719XSerializedObjectIdC2Ej(%"class.xercesc_2_7::XSerializedObjectId"* %3, i32 %4)
          to label %invoke.cont unwind label %lpad, !dbg !2250

invoke.cont:                                      ; preds = %entry
  call void @_ZN11xercesc_2_714RefHashTableOfINS_19XSerializedObjectIdEE3putEPvPS1_(%"class.xercesc_2_7::RefHashTableOf"* %0, i8* %1, %"class.xercesc_2_7::XSerializedObjectId"* %3), !dbg !2251
  ret void, !dbg !2252

lpad:                                             ; preds = %entry
  %5 = landingpad { i8*, i32 }
          cleanup, !dbg !2252
  %6 = extractvalue { i8*, i32 } %5, 0, !dbg !2252
  store i8* %6, i8** %exn.slot, align 8, !dbg !2252
  %7 = extractvalue { i8*, i32 } %5, 1, !dbg !2252
  store i32 %7, i32* %ehselector.slot, align 4, !dbg !2252
  call void @_ZN11xercesc_2_77XMemorydlEPvPNS_13MemoryManagerE(i8* %call2, %"class.xercesc_2_7::MemoryManager"* %call) #9, !dbg !2248
  br label %eh.resume, !dbg !2248

eh.resume:                                        ; preds = %lpad
  %exn = load i8*, i8** %exn.slot, align 8, !dbg !2248
  %sel = load i32, i32* %ehselector.slot, align 4, !dbg !2248
  %lpad.val = insertvalue { i8*, i32 } undef, i8* %exn, 0, !dbg !2248
  %lpad.val3 = insertvalue { i8*, i32 } %lpad.val, i32 %sel, 1, !dbg !2248
  resume { i8*, i32 } %lpad.val3, !dbg !2248
}

; Function Attrs: noinline uwtable
define linkonce_odr dso_local void @_ZNK11xercesc_2_716XSerializeEngine13ensurePointerEPv(%"class.xercesc_2_7::XSerializeEngine"* %this, i8* %ptr) #5 comdat align 2 personality i8* bitcast (i32 (...)* @__gxx_personality_v0 to i8*) !dbg !2253 {
entry:
  %this.addr = alloca %"class.xercesc_2_7::XSerializeEngine"*, align 8
  %ptr.addr = alloca i8*, align 8
  %value1 = alloca [17 x i16], align 16
  %exn.slot = alloca i8*
  %ehselector.slot = alloca i32
  store %"class.xercesc_2_7::XSerializeEngine"* %this, %"class.xercesc_2_7::XSerializeEngine"** %this.addr, align 8
  call void @llvm.dbg.declare(metadata %"class.xercesc_2_7::XSerializeEngine"** %this.addr, metadata !2254, metadata !DIExpression()), !dbg !2255
  store i8* %ptr, i8** %ptr.addr, align 8
  call void @llvm.dbg.declare(metadata i8** %ptr.addr, metadata !2256, metadata !DIExpression()), !dbg !2257
  %this1 = load %"class.xercesc_2_7::XSerializeEngine"*, %"class.xercesc_2_7::XSerializeEngine"** %this.addr, align 8
  %0 = load i8*, i8** %ptr.addr, align 8, !dbg !2258
  %cmp = icmp eq i8* %0, null, !dbg !2258
  br i1 %cmp, label %if.then, label %if.end, !dbg !2260

if.then:                                          ; preds = %entry
  call void @llvm.dbg.declare(metadata [17 x i16]* %value1, metadata !2261, metadata !DIExpression()), !dbg !2263
  %arraydecay = getelementptr inbounds [17 x i16], [17 x i16]* %value1, i64 0, i64 0, !dbg !2263
  %call = call %"class.xercesc_2_7::MemoryManager"* @_ZNK11xercesc_2_716XSerializeEngine16getMemoryManagerEv(%"class.xercesc_2_7::XSerializeEngine"* %this1), !dbg !2263
  call void @_ZN11xercesc_2_79XMLString9binToTextEiPtjjPNS_13MemoryManagerE(i32 0, i16* %arraydecay, i32 16, i32 10, %"class.xercesc_2_7::MemoryManager"* %call), !dbg !2263
  %exception = call i8* @__cxa_allocate_exception(i64 48) #9, !dbg !2263
  %1 = bitcast i8* %exception to %"class.xercesc_2_7::XSerializationException"*, !dbg !2263
  %arraydecay2 = getelementptr inbounds [17 x i16], [17 x i16]* %value1, i64 0, i64 0, !dbg !2263
  %call3 = invoke %"class.xercesc_2_7::MemoryManager"* @_ZNK11xercesc_2_716XSerializeEngine16getMemoryManagerEv(%"class.xercesc_2_7::XSerializeEngine"* %this1)
          to label %invoke.cont unwind label %lpad, !dbg !2263

invoke.cont:                                      ; preds = %if.then
  invoke void @_ZN11xercesc_2_723XSerializationExceptionC2EPKcjNS_10XMLExcepts5CodesEPKtS6_S6_S6_PNS_13MemoryManagerE(%"class.xercesc_2_7::XSerializationException"* %1, i8* getelementptr inbounds ([21 x i8], [21 x i8]* @.str, i64 0, i64 0), i32 1006, i32 392, i16* %arraydecay2, i16* null, i16* null, i16* null, %"class.xercesc_2_7::MemoryManager"* %call3)
          to label %invoke.cont4 unwind label %lpad, !dbg !2263

invoke.cont4:                                     ; preds = %invoke.cont
  call void @__cxa_throw(i8* %exception, i8* bitcast ({ i8*, i8*, i8* }* @_ZTIN11xercesc_2_723XSerializationExceptionE to i8*), i8* bitcast (void (%"class.xercesc_2_7::XSerializationException"*)* @_ZN11xercesc_2_723XSerializationExceptionD2Ev to i8*)) #12, !dbg !2263
  unreachable, !dbg !2263

lpad:                                             ; preds = %invoke.cont, %if.then
  %2 = landingpad { i8*, i32 }
          cleanup, !dbg !2264
  %3 = extractvalue { i8*, i32 } %2, 0, !dbg !2264
  store i8* %3, i8** %exn.slot, align 8, !dbg !2264
  %4 = extractvalue { i8*, i32 } %2, 1, !dbg !2264
  store i32 %4, i32* %ehselector.slot, align 4, !dbg !2264
  call void @__cxa_free_exception(i8* %exception) #9, !dbg !2263
  br label %eh.resume, !dbg !2263

if.end:                                           ; preds = %entry
  ret void, !dbg !2265

eh.resume:                                        ; preds = %lpad
  %exn = load i8*, i8** %exn.slot, align 8, !dbg !2263
  %sel = load i32, i32* %ehselector.slot, align 4, !dbg !2263
  %lpad.val = insertvalue { i8*, i32 } undef, i8* %exn, 0, !dbg !2263
  %lpad.val5 = insertvalue { i8*, i32 } %lpad.val, i32 %sel, 1, !dbg !2263
  resume { i8*, i32 } %lpad.val5, !dbg !2263
}

declare dso_local void @_ZNK11xercesc_2_710XProtoType5storeERNS_16XSerializeEngineE(%"class.xercesc_2_7::XProtoType"*, %"class.xercesc_2_7::XSerializeEngine"* dereferenceable(104)) #7

; Function Attrs: noinline uwtable
define dso_local void @_ZN11xercesc_2_716XSerializeEngine5writeEPKti(%"class.xercesc_2_7::XSerializeEngine"* %this, i16* %toWrite, i32 %writeLen) #5 align 2 !dbg !2266 {
entry:
  %this.addr = alloca %"class.xercesc_2_7::XSerializeEngine"*, align 8
  %toWrite.addr = alloca i16*, align 8
  %writeLen.addr = alloca i32, align 4
  store %"class.xercesc_2_7::XSerializeEngine"* %this, %"class.xercesc_2_7::XSerializeEngine"** %this.addr, align 8
  call void @llvm.dbg.declare(metadata %"class.xercesc_2_7::XSerializeEngine"** %this.addr, metadata !2267, metadata !DIExpression()), !dbg !2268
  store i16* %toWrite, i16** %toWrite.addr, align 8
  call void @llvm.dbg.declare(metadata i16** %toWrite.addr, metadata !2269, metadata !DIExpression()), !dbg !2270
  store i32 %writeLen, i32* %writeLen.addr, align 4
  call void @llvm.dbg.declare(metadata i32* %writeLen.addr, metadata !2271, metadata !DIExpression()), !dbg !2272
  %this1 = load %"class.xercesc_2_7::XSerializeEngine"*, %"class.xercesc_2_7::XSerializeEngine"** %this.addr, align 8
  %0 = load i16*, i16** %toWrite.addr, align 8, !dbg !2273
  %1 = bitcast i16* %0 to i8*, !dbg !2274
  %2 = load i32, i32* %writeLen.addr, align 4, !dbg !2275
  %conv = sext i32 %2 to i64, !dbg !2275
  %mul = mul i64 2, %conv, !dbg !2276
  %conv2 = trunc i64 %mul to i32, !dbg !2277
  call void @_ZN11xercesc_2_716XSerializeEngine5writeEPKhi(%"class.xercesc_2_7::XSerializeEngine"* %this1, i8* %1, i32 %conv2), !dbg !2278
  ret void, !dbg !2279
}

; Function Attrs: noinline uwtable
define dso_local void @_ZN11xercesc_2_716XSerializeEngine5writeEPKhi(%"class.xercesc_2_7::XSerializeEngine"* %this, i8* %toWrite, i32 %writeLen) #5 align 2 !dbg !2280 {
entry:
  %this.addr = alloca %"class.xercesc_2_7::XSerializeEngine"*, align 8
  %toWrite.addr = alloca i8*, align 8
  %writeLen.addr = alloca i32, align 4
  %bufAvail = alloca i32, align 4
  %tempWrite = alloca i8*, align 8
  %writeRemain = alloca i32, align 4
  store %"class.xercesc_2_7::XSerializeEngine"* %this, %"class.xercesc_2_7::XSerializeEngine"** %this.addr, align 8
  call void @llvm.dbg.declare(metadata %"class.xercesc_2_7::XSerializeEngine"** %this.addr, metadata !2281, metadata !DIExpression()), !dbg !2282
  store i8* %toWrite, i8** %toWrite.addr, align 8
  call void @llvm.dbg.declare(metadata i8** %toWrite.addr, metadata !2283, metadata !DIExpression()), !dbg !2284
  store i32 %writeLen, i32* %writeLen.addr, align 4
  call void @llvm.dbg.declare(metadata i32* %writeLen.addr, metadata !2285, metadata !DIExpression()), !dbg !2286
  %this1 = load %"class.xercesc_2_7::XSerializeEngine"*, %"class.xercesc_2_7::XSerializeEngine"** %this.addr, align 8
  call void @_ZNK11xercesc_2_716XSerializeEngine13ensureStoringEv(%"class.xercesc_2_7::XSerializeEngine"* %this1), !dbg !2287
  %0 = load i8*, i8** %toWrite.addr, align 8, !dbg !2288
  call void @_ZNK11xercesc_2_716XSerializeEngine13ensurePointerEPv(%"class.xercesc_2_7::XSerializeEngine"* %this1, i8* %0), !dbg !2289
  %1 = load i32, i32* %writeLen.addr, align 4, !dbg !2290
  call void @_ZNK11xercesc_2_716XSerializeEngine15ensureBufferLenEi(%"class.xercesc_2_7::XSerializeEngine"* %this1, i32 %1), !dbg !2291
  call void @_ZNK11xercesc_2_716XSerializeEngine17ensureStoreBufferEv(%"class.xercesc_2_7::XSerializeEngine"* %this1), !dbg !2292
  %2 = load i32, i32* %writeLen.addr, align 4, !dbg !2293
  %cmp = icmp eq i32 %2, 0, !dbg !2295
  br i1 %cmp, label %if.then, label %if.end, !dbg !2296

if.then:                                          ; preds = %entry
  br label %if.end28, !dbg !2297

if.end:                                           ; preds = %entry
  call void @llvm.dbg.declare(metadata i32* %bufAvail, metadata !2298, metadata !DIExpression()), !dbg !2299
  %fBufEnd = getelementptr inbounds %"class.xercesc_2_7::XSerializeEngine", %"class.xercesc_2_7::XSerializeEngine"* %this1, i32 0, i32 9, !dbg !2300
  %3 = load i8*, i8** %fBufEnd, align 8, !dbg !2300
  %fBufCur = getelementptr inbounds %"class.xercesc_2_7::XSerializeEngine", %"class.xercesc_2_7::XSerializeEngine"* %this1, i32 0, i32 10, !dbg !2301
  %4 = load i8*, i8** %fBufCur, align 8, !dbg !2301
  %sub.ptr.lhs.cast = ptrtoint i8* %3 to i64, !dbg !2302
  %sub.ptr.rhs.cast = ptrtoint i8* %4 to i64, !dbg !2302
  %sub.ptr.sub = sub i64 %sub.ptr.lhs.cast, %sub.ptr.rhs.cast, !dbg !2302
  %conv = trunc i64 %sub.ptr.sub to i32, !dbg !2300
  store i32 %conv, i32* %bufAvail, align 4, !dbg !2299
  %5 = load i32, i32* %writeLen.addr, align 4, !dbg !2303
  %6 = load i32, i32* %bufAvail, align 4, !dbg !2305
  %cmp2 = icmp sle i32 %5, %6, !dbg !2306
  br i1 %cmp2, label %if.then3, label %if.end7, !dbg !2307

if.then3:                                         ; preds = %if.end
  %fBufCur4 = getelementptr inbounds %"class.xercesc_2_7::XSerializeEngine", %"class.xercesc_2_7::XSerializeEngine"* %this1, i32 0, i32 10, !dbg !2308
  %7 = load i8*, i8** %fBufCur4, align 8, !dbg !2308
  %8 = load i8*, i8** %toWrite.addr, align 8, !dbg !2310
  %9 = load i32, i32* %writeLen.addr, align 4, !dbg !2311
  %conv5 = sext i32 %9 to i64, !dbg !2311
  call void @llvm.memcpy.p0i8.p0i8.i64(i8* align 1 %7, i8* align 1 %8, i64 %conv5, i1 false), !dbg !2312
  %10 = load i32, i32* %writeLen.addr, align 4, !dbg !2313
  %fBufCur6 = getelementptr inbounds %"class.xercesc_2_7::XSerializeEngine", %"class.xercesc_2_7::XSerializeEngine"* %this1, i32 0, i32 10, !dbg !2314
  %11 = load i8*, i8** %fBufCur6, align 8, !dbg !2315
  %idx.ext = sext i32 %10 to i64, !dbg !2315
  %add.ptr = getelementptr inbounds i8, i8* %11, i64 %idx.ext, !dbg !2315
  store i8* %add.ptr, i8** %fBufCur6, align 8, !dbg !2315
  br label %if.end28, !dbg !2316

if.end7:                                          ; preds = %if.end
  call void @llvm.dbg.declare(metadata i8** %tempWrite, metadata !2317, metadata !DIExpression()), !dbg !2318
  %12 = load i8*, i8** %toWrite.addr, align 8, !dbg !2319
  store i8* %12, i8** %tempWrite, align 8, !dbg !2318
  call void @llvm.dbg.declare(metadata i32* %writeRemain, metadata !2320, metadata !DIExpression()), !dbg !2321
  %13 = load i32, i32* %writeLen.addr, align 4, !dbg !2322
  store i32 %13, i32* %writeRemain, align 4, !dbg !2321
  %fBufCur8 = getelementptr inbounds %"class.xercesc_2_7::XSerializeEngine", %"class.xercesc_2_7::XSerializeEngine"* %this1, i32 0, i32 10, !dbg !2323
  %14 = load i8*, i8** %fBufCur8, align 8, !dbg !2323
  %15 = load i8*, i8** %tempWrite, align 8, !dbg !2324
  %16 = load i32, i32* %bufAvail, align 4, !dbg !2325
  %conv9 = sext i32 %16 to i64, !dbg !2325
  call void @llvm.memcpy.p0i8.p0i8.i64(i8* align 1 %14, i8* align 1 %15, i64 %conv9, i1 false), !dbg !2326
  %17 = load i32, i32* %bufAvail, align 4, !dbg !2327
  %18 = load i8*, i8** %tempWrite, align 8, !dbg !2328
  %idx.ext10 = sext i32 %17 to i64, !dbg !2328
  %add.ptr11 = getelementptr inbounds i8, i8* %18, i64 %idx.ext10, !dbg !2328
  store i8* %add.ptr11, i8** %tempWrite, align 8, !dbg !2328
  %19 = load i32, i32* %bufAvail, align 4, !dbg !2329
  %20 = load i32, i32* %writeRemain, align 4, !dbg !2330
  %sub = sub i32 %20, %19, !dbg !2330
  store i32 %sub, i32* %writeRemain, align 4, !dbg !2330
  call void @_ZN11xercesc_2_716XSerializeEngine11flushBufferEv(%"class.xercesc_2_7::XSerializeEngine"* %this1), !dbg !2331
  br label %while.cond, !dbg !2332

while.cond:                                       ; preds = %while.body, %if.end7
  %21 = load i32, i32* %writeRemain, align 4, !dbg !2333
  %conv12 = zext i32 %21 to i64, !dbg !2333
  %fBufSize = getelementptr inbounds %"class.xercesc_2_7::XSerializeEngine", %"class.xercesc_2_7::XSerializeEngine"* %this1, i32 0, i32 7, !dbg !2334
  %22 = load i64, i64* %fBufSize, align 8, !dbg !2334
  %cmp13 = icmp uge i64 %conv12, %22, !dbg !2335
  br i1 %cmp13, label %while.body, label %while.end, !dbg !2332

while.body:                                       ; preds = %while.cond
  %fBufCur14 = getelementptr inbounds %"class.xercesc_2_7::XSerializeEngine", %"class.xercesc_2_7::XSerializeEngine"* %this1, i32 0, i32 10, !dbg !2336
  %23 = load i8*, i8** %fBufCur14, align 8, !dbg !2336
  %24 = load i8*, i8** %tempWrite, align 8, !dbg !2338
  %fBufSize15 = getelementptr inbounds %"class.xercesc_2_7::XSerializeEngine", %"class.xercesc_2_7::XSerializeEngine"* %this1, i32 0, i32 7, !dbg !2339
  %25 = load i64, i64* %fBufSize15, align 8, !dbg !2339
  call void @llvm.memcpy.p0i8.p0i8.i64(i8* align 1 %23, i8* align 1 %24, i64 %25, i1 false), !dbg !2340
  %fBufSize16 = getelementptr inbounds %"class.xercesc_2_7::XSerializeEngine", %"class.xercesc_2_7::XSerializeEngine"* %this1, i32 0, i32 7, !dbg !2341
  %26 = load i64, i64* %fBufSize16, align 8, !dbg !2341
  %27 = load i8*, i8** %tempWrite, align 8, !dbg !2342
  %add.ptr17 = getelementptr inbounds i8, i8* %27, i64 %26, !dbg !2342
  store i8* %add.ptr17, i8** %tempWrite, align 8, !dbg !2342
  %fBufSize18 = getelementptr inbounds %"class.xercesc_2_7::XSerializeEngine", %"class.xercesc_2_7::XSerializeEngine"* %this1, i32 0, i32 7, !dbg !2343
  %28 = load i64, i64* %fBufSize18, align 8, !dbg !2343
  %29 = load i32, i32* %writeRemain, align 4, !dbg !2344
  %conv19 = zext i32 %29 to i64, !dbg !2344
  %sub20 = sub i64 %conv19, %28, !dbg !2344
  %conv21 = trunc i64 %sub20 to i32, !dbg !2344
  store i32 %conv21, i32* %writeRemain, align 4, !dbg !2344
  call void @_ZN11xercesc_2_716XSerializeEngine11flushBufferEv(%"class.xercesc_2_7::XSerializeEngine"* %this1), !dbg !2345
  br label %while.cond, !dbg !2332, !llvm.loop !2346

while.end:                                        ; preds = %while.cond
  %30 = load i32, i32* %writeRemain, align 4, !dbg !2348
  %tobool = icmp ne i32 %30, 0, !dbg !2348
  br i1 %tobool, label %if.then22, label %if.end28, !dbg !2350

if.then22:                                        ; preds = %while.end
  %fBufCur23 = getelementptr inbounds %"class.xercesc_2_7::XSerializeEngine", %"class.xercesc_2_7::XSerializeEngine"* %this1, i32 0, i32 10, !dbg !2351
  %31 = load i8*, i8** %fBufCur23, align 8, !dbg !2351
  %32 = load i8*, i8** %tempWrite, align 8, !dbg !2353
  %33 = load i32, i32* %writeRemain, align 4, !dbg !2354
  %conv24 = zext i32 %33 to i64, !dbg !2354
  call void @llvm.memcpy.p0i8.p0i8.i64(i8* align 1 %31, i8* align 1 %32, i64 %conv24, i1 false), !dbg !2355
  %34 = load i32, i32* %writeRemain, align 4, !dbg !2356
  %fBufCur25 = getelementptr inbounds %"class.xercesc_2_7::XSerializeEngine", %"class.xercesc_2_7::XSerializeEngine"* %this1, i32 0, i32 10, !dbg !2357
  %35 = load i8*, i8** %fBufCur25, align 8, !dbg !2358
  %idx.ext26 = zext i32 %34 to i64, !dbg !2358
  %add.ptr27 = getelementptr inbounds i8, i8* %35, i64 %idx.ext26, !dbg !2358
  store i8* %add.ptr27, i8** %fBufCur25, align 8, !dbg !2358
  br label %if.end28, !dbg !2359

if.end28:                                         ; preds = %if.then, %if.then3, %if.then22, %while.end
  ret void, !dbg !2360
}

; Function Attrs: noinline uwtable
define linkonce_odr dso_local void @_ZNK11xercesc_2_716XSerializeEngine15ensureBufferLenEi(%"class.xercesc_2_7::XSerializeEngine"* %this, i32 %bufferLen) #5 comdat align 2 personality i8* bitcast (i32 (...)* @__gxx_personality_v0 to i8*) !dbg !2361 {
entry:
  %this.addr = alloca %"class.xercesc_2_7::XSerializeEngine"*, align 8
  %bufferLen.addr = alloca i32, align 4
  %value1 = alloca [17 x i16], align 16
  %exn.slot = alloca i8*
  %ehselector.slot = alloca i32
  store %"class.xercesc_2_7::XSerializeEngine"* %this, %"class.xercesc_2_7::XSerializeEngine"** %this.addr, align 8
  call void @llvm.dbg.declare(metadata %"class.xercesc_2_7::XSerializeEngine"** %this.addr, metadata !2362, metadata !DIExpression()), !dbg !2363
  store i32 %bufferLen, i32* %bufferLen.addr, align 4
  call void @llvm.dbg.declare(metadata i32* %bufferLen.addr, metadata !2364, metadata !DIExpression()), !dbg !2365
  %this1 = load %"class.xercesc_2_7::XSerializeEngine"*, %"class.xercesc_2_7::XSerializeEngine"** %this.addr, align 8
  %0 = load i32, i32* %bufferLen.addr, align 4, !dbg !2366
  %cmp = icmp slt i32 %0, 0, !dbg !2366
  br i1 %cmp, label %if.then, label %if.end, !dbg !2368

if.then:                                          ; preds = %entry
  call void @llvm.dbg.declare(metadata [17 x i16]* %value1, metadata !2369, metadata !DIExpression()), !dbg !2371
  %1 = load i32, i32* %bufferLen.addr, align 4, !dbg !2371
  %arraydecay = getelementptr inbounds [17 x i16], [17 x i16]* %value1, i64 0, i64 0, !dbg !2371
  %call = call %"class.xercesc_2_7::MemoryManager"* @_ZNK11xercesc_2_716XSerializeEngine16getMemoryManagerEv(%"class.xercesc_2_7::XSerializeEngine"* %this1), !dbg !2371
  call void @_ZN11xercesc_2_79XMLString9binToTextEiPtjjPNS_13MemoryManagerE(i32 %1, i16* %arraydecay, i32 16, i32 10, %"class.xercesc_2_7::MemoryManager"* %call), !dbg !2371
  %exception = call i8* @__cxa_allocate_exception(i64 48) #9, !dbg !2371
  %2 = bitcast i8* %exception to %"class.xercesc_2_7::XSerializationException"*, !dbg !2371
  %arraydecay2 = getelementptr inbounds [17 x i16], [17 x i16]* %value1, i64 0, i64 0, !dbg !2371
  %call3 = invoke %"class.xercesc_2_7::MemoryManager"* @_ZNK11xercesc_2_716XSerializeEngine16getMemoryManagerEv(%"class.xercesc_2_7::XSerializeEngine"* %this1)
          to label %invoke.cont unwind label %lpad, !dbg !2371

invoke.cont:                                      ; preds = %if.then
  invoke void @_ZN11xercesc_2_723XSerializationExceptionC2EPKcjNS_10XMLExcepts5CodesEPKtS6_S6_S6_PNS_13MemoryManagerE(%"class.xercesc_2_7::XSerializationException"* %2, i8* getelementptr inbounds ([21 x i8], [21 x i8]* @.str, i64 0, i64 0), i32 1016, i32 393, i16* %arraydecay2, i16* null, i16* null, i16* null, %"class.xercesc_2_7::MemoryManager"* %call3)
          to label %invoke.cont4 unwind label %lpad, !dbg !2371

invoke.cont4:                                     ; preds = %invoke.cont
  call void @__cxa_throw(i8* %exception, i8* bitcast ({ i8*, i8*, i8* }* @_ZTIN11xercesc_2_723XSerializationExceptionE to i8*), i8* bitcast (void (%"class.xercesc_2_7::XSerializationException"*)* @_ZN11xercesc_2_723XSerializationExceptionD2Ev to i8*)) #12, !dbg !2371
  unreachable, !dbg !2371

lpad:                                             ; preds = %invoke.cont, %if.then
  %3 = landingpad { i8*, i32 }
          cleanup, !dbg !2372
  %4 = extractvalue { i8*, i32 } %3, 0, !dbg !2372
  store i8* %4, i8** %exn.slot, align 8, !dbg !2372
  %5 = extractvalue { i8*, i32 } %3, 1, !dbg !2372
  store i32 %5, i32* %ehselector.slot, align 4, !dbg !2372
  call void @__cxa_free_exception(i8* %exception) #9, !dbg !2371
  br label %eh.resume, !dbg !2371

if.end:                                           ; preds = %entry
  ret void, !dbg !2373

eh.resume:                                        ; preds = %lpad
  %exn = load i8*, i8** %exn.slot, align 8, !dbg !2371
  %sel = load i32, i32* %ehselector.slot, align 4, !dbg !2371
  %lpad.val = insertvalue { i8*, i32 } undef, i8* %exn, 0, !dbg !2371
  %lpad.val5 = insertvalue { i8*, i32 } %lpad.val, i32 %sel, 1, !dbg !2371
  resume { i8*, i32 } %lpad.val5, !dbg !2371
}

; Function Attrs: noinline uwtable
define linkonce_odr dso_local void @_ZNK11xercesc_2_716XSerializeEngine17ensureStoreBufferEv(%"class.xercesc_2_7::XSerializeEngine"* %this) #5 comdat align 2 personality i8* bitcast (i32 (...)* @__gxx_personality_v0 to i8*) !dbg !2374 {
entry:
  %this.addr = alloca %"class.xercesc_2_7::XSerializeEngine"*, align 8
  %value1 = alloca [17 x i16], align 16
  %value2 = alloca [17 x i16], align 16
  %exn.slot = alloca i8*
  %ehselector.slot = alloca i32
  store %"class.xercesc_2_7::XSerializeEngine"* %this, %"class.xercesc_2_7::XSerializeEngine"** %this.addr, align 8
  call void @llvm.dbg.declare(metadata %"class.xercesc_2_7::XSerializeEngine"** %this.addr, metadata !2375, metadata !DIExpression()), !dbg !2376
  %this1 = load %"class.xercesc_2_7::XSerializeEngine"*, %"class.xercesc_2_7::XSerializeEngine"** %this.addr, align 8
  %fBufStart = getelementptr inbounds %"class.xercesc_2_7::XSerializeEngine", %"class.xercesc_2_7::XSerializeEngine"* %this1, i32 0, i32 8, !dbg !2377
  %0 = load i8*, i8** %fBufStart, align 8, !dbg !2377
  %fBufCur = getelementptr inbounds %"class.xercesc_2_7::XSerializeEngine", %"class.xercesc_2_7::XSerializeEngine"* %this1, i32 0, i32 10, !dbg !2377
  %1 = load i8*, i8** %fBufCur, align 8, !dbg !2377
  %cmp = icmp ule i8* %0, %1, !dbg !2377
  br i1 %cmp, label %land.lhs.true, label %if.then, !dbg !2377

land.lhs.true:                                    ; preds = %entry
  %fBufCur2 = getelementptr inbounds %"class.xercesc_2_7::XSerializeEngine", %"class.xercesc_2_7::XSerializeEngine"* %this1, i32 0, i32 10, !dbg !2377
  %2 = load i8*, i8** %fBufCur2, align 8, !dbg !2377
  %fBufEnd = getelementptr inbounds %"class.xercesc_2_7::XSerializeEngine", %"class.xercesc_2_7::XSerializeEngine"* %this1, i32 0, i32 9, !dbg !2377
  %3 = load i8*, i8** %fBufEnd, align 8, !dbg !2377
  %cmp3 = icmp ule i8* %2, %3, !dbg !2377
  br i1 %cmp3, label %if.end, label %if.then, !dbg !2379

if.then:                                          ; preds = %land.lhs.true, %entry
  call void @llvm.dbg.declare(metadata [17 x i16]* %value1, metadata !2380, metadata !DIExpression()), !dbg !2382
  call void @llvm.dbg.declare(metadata [17 x i16]* %value2, metadata !2383, metadata !DIExpression()), !dbg !2382
  %fBufCur4 = getelementptr inbounds %"class.xercesc_2_7::XSerializeEngine", %"class.xercesc_2_7::XSerializeEngine"* %this1, i32 0, i32 10, !dbg !2382
  %4 = load i8*, i8** %fBufCur4, align 8, !dbg !2382
  %fBufStart5 = getelementptr inbounds %"class.xercesc_2_7::XSerializeEngine", %"class.xercesc_2_7::XSerializeEngine"* %this1, i32 0, i32 8, !dbg !2382
  %5 = load i8*, i8** %fBufStart5, align 8, !dbg !2382
  %sub.ptr.lhs.cast = ptrtoint i8* %4 to i64, !dbg !2382
  %sub.ptr.rhs.cast = ptrtoint i8* %5 to i64, !dbg !2382
  %sub.ptr.sub = sub i64 %sub.ptr.lhs.cast, %sub.ptr.rhs.cast, !dbg !2382
  %conv = trunc i64 %sub.ptr.sub to i32, !dbg !2382
  %arraydecay = getelementptr inbounds [17 x i16], [17 x i16]* %value1, i64 0, i64 0, !dbg !2382
  %call = call %"class.xercesc_2_7::MemoryManager"* @_ZNK11xercesc_2_716XSerializeEngine16getMemoryManagerEv(%"class.xercesc_2_7::XSerializeEngine"* %this1), !dbg !2382
  call void @_ZN11xercesc_2_79XMLString9binToTextEiPtjjPNS_13MemoryManagerE(i32 %conv, i16* %arraydecay, i32 16, i32 10, %"class.xercesc_2_7::MemoryManager"* %call), !dbg !2382
  %fBufEnd6 = getelementptr inbounds %"class.xercesc_2_7::XSerializeEngine", %"class.xercesc_2_7::XSerializeEngine"* %this1, i32 0, i32 9, !dbg !2382
  %6 = load i8*, i8** %fBufEnd6, align 8, !dbg !2382
  %fBufCur7 = getelementptr inbounds %"class.xercesc_2_7::XSerializeEngine", %"class.xercesc_2_7::XSerializeEngine"* %this1, i32 0, i32 10, !dbg !2382
  %7 = load i8*, i8** %fBufCur7, align 8, !dbg !2382
  %sub.ptr.lhs.cast8 = ptrtoint i8* %6 to i64, !dbg !2382
  %sub.ptr.rhs.cast9 = ptrtoint i8* %7 to i64, !dbg !2382
  %sub.ptr.sub10 = sub i64 %sub.ptr.lhs.cast8, %sub.ptr.rhs.cast9, !dbg !2382
  %conv11 = trunc i64 %sub.ptr.sub10 to i32, !dbg !2382
  %arraydecay12 = getelementptr inbounds [17 x i16], [17 x i16]* %value2, i64 0, i64 0, !dbg !2382
  %call13 = call %"class.xercesc_2_7::MemoryManager"* @_ZNK11xercesc_2_716XSerializeEngine16getMemoryManagerEv(%"class.xercesc_2_7::XSerializeEngine"* %this1), !dbg !2382
  call void @_ZN11xercesc_2_79XMLString9binToTextEiPtjjPNS_13MemoryManagerE(i32 %conv11, i16* %arraydecay12, i32 16, i32 10, %"class.xercesc_2_7::MemoryManager"* %call13), !dbg !2382
  %exception = call i8* @__cxa_allocate_exception(i64 48) #9, !dbg !2382
  %8 = bitcast i8* %exception to %"class.xercesc_2_7::XSerializationException"*, !dbg !2382
  %arraydecay14 = getelementptr inbounds [17 x i16], [17 x i16]* %value1, i64 0, i64 0, !dbg !2382
  %arraydecay15 = getelementptr inbounds [17 x i16], [17 x i16]* %value2, i64 0, i64 0, !dbg !2382
  %call16 = invoke %"class.xercesc_2_7::MemoryManager"* @_ZNK11xercesc_2_716XSerializeEngine16getMemoryManagerEv(%"class.xercesc_2_7::XSerializeEngine"* %this1)
          to label %invoke.cont unwind label %lpad, !dbg !2382

invoke.cont:                                      ; preds = %if.then
  invoke void @_ZN11xercesc_2_723XSerializationExceptionC2EPKcjNS_10XMLExcepts5CodesEPKtS6_S6_S6_PNS_13MemoryManagerE(%"class.xercesc_2_7::XSerializationException"* %8, i8* getelementptr inbounds ([21 x i8], [21 x i8]* @.str, i64 0, i64 0), i32 985, i32 383, i16* %arraydecay14, i16* %arraydecay15, i16* null, i16* null, %"class.xercesc_2_7::MemoryManager"* %call16)
          to label %invoke.cont17 unwind label %lpad, !dbg !2382

invoke.cont17:                                    ; preds = %invoke.cont
  call void @__cxa_throw(i8* %exception, i8* bitcast ({ i8*, i8*, i8* }* @_ZTIN11xercesc_2_723XSerializationExceptionE to i8*), i8* bitcast (void (%"class.xercesc_2_7::XSerializationException"*)* @_ZN11xercesc_2_723XSerializationExceptionD2Ev to i8*)) #12, !dbg !2382
  unreachable, !dbg !2382

lpad:                                             ; preds = %invoke.cont, %if.then
  %9 = landingpad { i8*, i32 }
          cleanup, !dbg !2384
  %10 = extractvalue { i8*, i32 } %9, 0, !dbg !2384
  store i8* %10, i8** %exn.slot, align 8, !dbg !2384
  %11 = extractvalue { i8*, i32 } %9, 1, !dbg !2384
  store i32 %11, i32* %ehselector.slot, align 4, !dbg !2384
  call void @__cxa_free_exception(i8* %exception) #9, !dbg !2382
  br label %eh.resume, !dbg !2382

if.end:                                           ; preds = %land.lhs.true
  ret void, !dbg !2385

eh.resume:                                        ; preds = %lpad
  %exn = load i8*, i8** %exn.slot, align 8, !dbg !2382
  %sel = load i32, i32* %ehselector.slot, align 4, !dbg !2382
  %lpad.val = insertvalue { i8*, i32 } undef, i8* %exn, 0, !dbg !2382
  %lpad.val18 = insertvalue { i8*, i32 } %lpad.val, i32 %sel, 1, !dbg !2382
  resume { i8*, i32 } %lpad.val18, !dbg !2382
}

; Function Attrs: argmemonly nounwind willreturn
declare void @llvm.memcpy.p0i8.p0i8.i64(i8* noalias nocapture writeonly, i8* noalias nocapture readonly, i64, i1 immarg) #8

; Function Attrs: noinline uwtable
define dso_local void @_ZN11xercesc_2_716XSerializeEngine11writeStringEPKtib(%"class.xercesc_2_7::XSerializeEngine"* %this, i16* %toWrite, i32 %bufferLen, i1 zeroext %toWriteBufLen) #5 align 2 !dbg !2386 {
entry:
  %this.addr = alloca %"class.xercesc_2_7::XSerializeEngine"*, align 8
  %toWrite.addr = alloca i16*, align 8
  %bufferLen.addr = alloca i32, align 4
  %toWriteBufLen.addr = alloca i8, align 1
  %strLen = alloca i32, align 4
  store %"class.xercesc_2_7::XSerializeEngine"* %this, %"class.xercesc_2_7::XSerializeEngine"** %this.addr, align 8
  call void @llvm.dbg.declare(metadata %"class.xercesc_2_7::XSerializeEngine"** %this.addr, metadata !2387, metadata !DIExpression()), !dbg !2388
  store i16* %toWrite, i16** %toWrite.addr, align 8
  call void @llvm.dbg.declare(metadata i16** %toWrite.addr, metadata !2389, metadata !DIExpression()), !dbg !2390
  store i32 %bufferLen, i32* %bufferLen.addr, align 4
  call void @llvm.dbg.declare(metadata i32* %bufferLen.addr, metadata !2391, metadata !DIExpression()), !dbg !2392
  %frombool = zext i1 %toWriteBufLen to i8
  store i8 %frombool, i8* %toWriteBufLen.addr, align 1
  call void @llvm.dbg.declare(metadata i8* %toWriteBufLen.addr, metadata !2393, metadata !DIExpression()), !dbg !2394
  %this1 = load %"class.xercesc_2_7::XSerializeEngine"*, %"class.xercesc_2_7::XSerializeEngine"** %this.addr, align 8
  %0 = load i16*, i16** %toWrite.addr, align 8, !dbg !2395
  %tobool = icmp ne i16* %0, null, !dbg !2395
  br i1 %tobool, label %if.then, label %if.else, !dbg !2397

if.then:                                          ; preds = %entry
  %1 = load i8, i8* %toWriteBufLen.addr, align 1, !dbg !2398
  %tobool2 = trunc i8 %1 to i1, !dbg !2398
  br i1 %tobool2, label %if.then3, label %if.end, !dbg !2401

if.then3:                                         ; preds = %if.then
  %2 = load i32, i32* %bufferLen.addr, align 4, !dbg !2402
  %call = call dereferenceable(104) %"class.xercesc_2_7::XSerializeEngine"* @_ZN11xercesc_2_716XSerializeEnginelsEi(%"class.xercesc_2_7::XSerializeEngine"* %this1, i32 %2), !dbg !2403
  br label %if.end, !dbg !2404

if.end:                                           ; preds = %if.then3, %if.then
  call void @llvm.dbg.declare(metadata i32* %strLen, metadata !2405, metadata !DIExpression()), !dbg !2406
  %3 = load i16*, i16** %toWrite.addr, align 8, !dbg !2407
  %call4 = call i32 @_ZN11xercesc_2_79XMLString9stringLenEPKt(i16* %3), !dbg !2408
  store i32 %call4, i32* %strLen, align 4, !dbg !2406
  %4 = load i32, i32* %strLen, align 4, !dbg !2409
  %call5 = call dereferenceable(104) %"class.xercesc_2_7::XSerializeEngine"* @_ZN11xercesc_2_716XSerializeEnginelsEi(%"class.xercesc_2_7::XSerializeEngine"* %this1, i32 %4), !dbg !2410
  %5 = load i16*, i16** %toWrite.addr, align 8, !dbg !2411
  %6 = load i32, i32* %strLen, align 4, !dbg !2412
  call void @_ZN11xercesc_2_716XSerializeEngine5writeEPKti(%"class.xercesc_2_7::XSerializeEngine"* %this1, i16* %5, i32 %6), !dbg !2413
  br label %if.end7, !dbg !2414

if.else:                                          ; preds = %entry
  %call6 = call dereferenceable(104) %"class.xercesc_2_7::XSerializeEngine"* @_ZN11xercesc_2_716XSerializeEnginelsEi(%"class.xercesc_2_7::XSerializeEngine"* %this1, i32 -1), !dbg !2415
  br label %if.end7

if.end7:                                          ; preds = %if.else, %if.end
  ret void, !dbg !2417
}

; Function Attrs: noinline uwtable
define dso_local dereferenceable(104) %"class.xercesc_2_7::XSerializeEngine"* @_ZN11xercesc_2_716XSerializeEnginelsEi(%"class.xercesc_2_7::XSerializeEngine"* %this, i32 %i) #5 align 2 !dbg !2418 {
entry:
  %this.addr = alloca %"class.xercesc_2_7::XSerializeEngine"*, align 8
  %i.addr = alloca i32, align 4
  store %"class.xercesc_2_7::XSerializeEngine"* %this, %"class.xercesc_2_7::XSerializeEngine"** %this.addr, align 8
  call void @llvm.dbg.declare(metadata %"class.xercesc_2_7::XSerializeEngine"** %this.addr, metadata !2419, metadata !DIExpression()), !dbg !2420
  store i32 %i, i32* %i.addr, align 4
  call void @llvm.dbg.declare(metadata i32* %i.addr, metadata !2421, metadata !DIExpression()), !dbg !2422
  %this1 = load %"class.xercesc_2_7::XSerializeEngine"*, %"class.xercesc_2_7::XSerializeEngine"** %this.addr, align 8
  %call = call i64 @_ZNK11xercesc_2_716XSerializeEngine14calBytesNeededEm(%"class.xercesc_2_7::XSerializeEngine"* %this1, i64 4), !dbg !2423
  %conv = trunc i64 %call to i32, !dbg !2423
  call void @_ZN11xercesc_2_716XSerializeEngine19checkAndFlushBufferEi(%"class.xercesc_2_7::XSerializeEngine"* %this1, i32 %conv), !dbg !2424
  call void @_ZN11xercesc_2_716XSerializeEngine11alignBufCurEm(%"class.xercesc_2_7::XSerializeEngine"* %this1, i64 4), !dbg !2425
  %0 = load i32, i32* %i.addr, align 4, !dbg !2426
  %fBufCur = getelementptr inbounds %"class.xercesc_2_7::XSerializeEngine", %"class.xercesc_2_7::XSerializeEngine"* %this1, i32 0, i32 10, !dbg !2427
  %1 = load i8*, i8** %fBufCur, align 8, !dbg !2427
  %2 = bitcast i8* %1 to i32*, !dbg !2428
  store i32 %0, i32* %2, align 4, !dbg !2429
  %fBufCur2 = getelementptr inbounds %"class.xercesc_2_7::XSerializeEngine", %"class.xercesc_2_7::XSerializeEngine"* %this1, i32 0, i32 10, !dbg !2430
  %3 = load i8*, i8** %fBufCur2, align 8, !dbg !2431
  %add.ptr = getelementptr inbounds i8, i8* %3, i64 4, !dbg !2431
  store i8* %add.ptr, i8** %fBufCur2, align 8, !dbg !2431
  ret %"class.xercesc_2_7::XSerializeEngine"* %this1, !dbg !2432
}

; Function Attrs: noinline nounwind uwtable
define linkonce_odr dso_local i32 @_ZN11xercesc_2_79XMLString9stringLenEPKt(i16* %src) #1 comdat align 2 !dbg !2433 {
entry:
  %retval = alloca i32, align 4
  %src.addr = alloca i16*, align 8
  %pszTmp = alloca i16*, align 8
  store i16* %src, i16** %src.addr, align 8
  call void @llvm.dbg.declare(metadata i16** %src.addr, metadata !2742, metadata !DIExpression()), !dbg !2743
  %0 = load i16*, i16** %src.addr, align 8, !dbg !2744
  %cmp = icmp eq i16* %0, null, !dbg !2746
  br i1 %cmp, label %if.then, label %lor.lhs.false, !dbg !2747

lor.lhs.false:                                    ; preds = %entry
  %1 = load i16*, i16** %src.addr, align 8, !dbg !2748
  %2 = load i16, i16* %1, align 2, !dbg !2749
  %conv = zext i16 %2 to i32, !dbg !2749
  %cmp1 = icmp eq i32 %conv, 0, !dbg !2750
  br i1 %cmp1, label %if.then, label %if.else, !dbg !2751

if.then:                                          ; preds = %lor.lhs.false, %entry
  store i32 0, i32* %retval, align 4, !dbg !2752
  br label %return, !dbg !2752

if.else:                                          ; preds = %lor.lhs.false
  call void @llvm.dbg.declare(metadata i16** %pszTmp, metadata !2754, metadata !DIExpression()), !dbg !2756
  %3 = load i16*, i16** %src.addr, align 8, !dbg !2757
  %add.ptr = getelementptr inbounds i16, i16* %3, i64 1, !dbg !2758
  store i16* %add.ptr, i16** %pszTmp, align 8, !dbg !2756
  br label %while.cond, !dbg !2759

while.cond:                                       ; preds = %while.body, %if.else
  %4 = load i16*, i16** %pszTmp, align 8, !dbg !2760
  %5 = load i16, i16* %4, align 2, !dbg !2761
  %tobool = icmp ne i16 %5, 0, !dbg !2761
  br i1 %tobool, label %while.body, label %while.end, !dbg !2759

while.body:                                       ; preds = %while.cond
  %6 = load i16*, i16** %pszTmp, align 8, !dbg !2762
  %incdec.ptr = getelementptr inbounds i16, i16* %6, i32 1, !dbg !2762
  store i16* %incdec.ptr, i16** %pszTmp, align 8, !dbg !2762
  br label %while.cond, !dbg !2759, !llvm.loop !2763

while.end:                                        ; preds = %while.cond
  %7 = load i16*, i16** %pszTmp, align 8, !dbg !2765
  %8 = load i16*, i16** %src.addr, align 8, !dbg !2766
  %sub.ptr.lhs.cast = ptrtoint i16* %7 to i64, !dbg !2767
  %sub.ptr.rhs.cast = ptrtoint i16* %8 to i64, !dbg !2767
  %sub.ptr.sub = sub i64 %sub.ptr.lhs.cast, %sub.ptr.rhs.cast, !dbg !2767
  %sub.ptr.div = sdiv exact i64 %sub.ptr.sub, 2, !dbg !2767
  %conv2 = trunc i64 %sub.ptr.div to i32, !dbg !2768
  store i32 %conv2, i32* %retval, align 4, !dbg !2769
  br label %return, !dbg !2769

return:                                           ; preds = %while.end, %if.then
  %9 = load i32, i32* %retval, align 4, !dbg !2770
  ret i32 %9, !dbg !2770
}

; Function Attrs: noinline uwtable
define dso_local void @_ZN11xercesc_2_716XSerializeEngine11writeStringEPKhib(%"class.xercesc_2_7::XSerializeEngine"* %this, i8* %toWrite, i32 %bufferLen, i1 zeroext %toWriteBufLen) #5 align 2 !dbg !2771 {
entry:
  %this.addr = alloca %"class.xercesc_2_7::XSerializeEngine"*, align 8
  %toWrite.addr = alloca i8*, align 8
  %bufferLen.addr = alloca i32, align 4
  %toWriteBufLen.addr = alloca i8, align 1
  %strLen = alloca i32, align 4
  store %"class.xercesc_2_7::XSerializeEngine"* %this, %"class.xercesc_2_7::XSerializeEngine"** %this.addr, align 8
  call void @llvm.dbg.declare(metadata %"class.xercesc_2_7::XSerializeEngine"** %this.addr, metadata !2772, metadata !DIExpression()), !dbg !2773
  store i8* %toWrite, i8** %toWrite.addr, align 8
  call void @llvm.dbg.declare(metadata i8** %toWrite.addr, metadata !2774, metadata !DIExpression()), !dbg !2775
  store i32 %bufferLen, i32* %bufferLen.addr, align 4
  call void @llvm.dbg.declare(metadata i32* %bufferLen.addr, metadata !2776, metadata !DIExpression()), !dbg !2777
  %frombool = zext i1 %toWriteBufLen to i8
  store i8 %frombool, i8* %toWriteBufLen.addr, align 1
  call void @llvm.dbg.declare(metadata i8* %toWriteBufLen.addr, metadata !2778, metadata !DIExpression()), !dbg !2779
  %this1 = load %"class.xercesc_2_7::XSerializeEngine"*, %"class.xercesc_2_7::XSerializeEngine"** %this.addr, align 8
  %0 = load i8*, i8** %toWrite.addr, align 8, !dbg !2780
  %tobool = icmp ne i8* %0, null, !dbg !2780
  br i1 %tobool, label %if.then, label %if.else, !dbg !2782

if.then:                                          ; preds = %entry
  %1 = load i8, i8* %toWriteBufLen.addr, align 1, !dbg !2783
  %tobool2 = trunc i8 %1 to i1, !dbg !2783
  br i1 %tobool2, label %if.then3, label %if.end, !dbg !2786

if.then3:                                         ; preds = %if.then
  %2 = load i32, i32* %bufferLen.addr, align 4, !dbg !2787
  %call = call dereferenceable(104) %"class.xercesc_2_7::XSerializeEngine"* @_ZN11xercesc_2_716XSerializeEnginelsEi(%"class.xercesc_2_7::XSerializeEngine"* %this1, i32 %2), !dbg !2788
  br label %if.end, !dbg !2789

if.end:                                           ; preds = %if.then3, %if.then
  call void @llvm.dbg.declare(metadata i32* %strLen, metadata !2790, metadata !DIExpression()), !dbg !2791
  %3 = load i8*, i8** %toWrite.addr, align 8, !dbg !2792
  %call4 = call i32 @_ZN11xercesc_2_79XMLString9stringLenEPKc(i8* %3), !dbg !2793
  store i32 %call4, i32* %strLen, align 4, !dbg !2791
  %4 = load i32, i32* %strLen, align 4, !dbg !2794
  %call5 = call dereferenceable(104) %"class.xercesc_2_7::XSerializeEngine"* @_ZN11xercesc_2_716XSerializeEnginelsEi(%"class.xercesc_2_7::XSerializeEngine"* %this1, i32 %4), !dbg !2795
  %5 = load i8*, i8** %toWrite.addr, align 8, !dbg !2796
  %6 = load i32, i32* %strLen, align 4, !dbg !2797
  call void @_ZN11xercesc_2_716XSerializeEngine5writeEPKhi(%"class.xercesc_2_7::XSerializeEngine"* %this1, i8* %5, i32 %6), !dbg !2798
  br label %if.end7, !dbg !2799

if.else:                                          ; preds = %entry
  %call6 = call dereferenceable(104) %"class.xercesc_2_7::XSerializeEngine"* @_ZN11xercesc_2_716XSerializeEnginelsEi(%"class.xercesc_2_7::XSerializeEngine"* %this1, i32 -1), !dbg !2800
  br label %if.end7

if.end7:                                          ; preds = %if.else, %if.end
  ret void, !dbg !2802
}

declare dso_local i32 @_ZN11xercesc_2_79XMLString9stringLenEPKc(i8*) #7

; Function Attrs: noinline uwtable
define dso_local %"class.xercesc_2_7::XSerializable"* @_ZN11xercesc_2_716XSerializeEngine4readEPNS_10XProtoTypeE(%"class.xercesc_2_7::XSerializeEngine"* %this, %"class.xercesc_2_7::XProtoType"* %protoType) #5 align 2 !dbg !2803 {
entry:
  %this.addr = alloca %"class.xercesc_2_7::XSerializeEngine"*, align 8
  %protoType.addr = alloca %"class.xercesc_2_7::XProtoType"*, align 8
  %objectTag = alloca i32, align 4
  %objRet = alloca %"class.xercesc_2_7::XSerializable"*, align 8
  store %"class.xercesc_2_7::XSerializeEngine"* %this, %"class.xercesc_2_7::XSerializeEngine"** %this.addr, align 8
  call void @llvm.dbg.declare(metadata %"class.xercesc_2_7::XSerializeEngine"** %this.addr, metadata !2804, metadata !DIExpression()), !dbg !2805
  store %"class.xercesc_2_7::XProtoType"* %protoType, %"class.xercesc_2_7::XProtoType"** %protoType.addr, align 8
  call void @llvm.dbg.declare(metadata %"class.xercesc_2_7::XProtoType"** %protoType.addr, metadata !2806, metadata !DIExpression()), !dbg !2807
  %this1 = load %"class.xercesc_2_7::XSerializeEngine"*, %"class.xercesc_2_7::XSerializeEngine"** %this.addr, align 8
  call void @_ZNK11xercesc_2_716XSerializeEngine13ensureLoadingEv(%"class.xercesc_2_7::XSerializeEngine"* %this1), !dbg !2808
  %0 = load %"class.xercesc_2_7::XProtoType"*, %"class.xercesc_2_7::XProtoType"** %protoType.addr, align 8, !dbg !2809
  %1 = bitcast %"class.xercesc_2_7::XProtoType"* %0 to i8*, !dbg !2809
  call void @_ZNK11xercesc_2_716XSerializeEngine13ensurePointerEPv(%"class.xercesc_2_7::XSerializeEngine"* %this1, i8* %1), !dbg !2810
  call void @llvm.dbg.declare(metadata i32* %objectTag, metadata !2811, metadata !DIExpression()), !dbg !2812
  call void @llvm.dbg.declare(metadata %"class.xercesc_2_7::XSerializable"** %objRet, metadata !2813, metadata !DIExpression()), !dbg !2814
  %2 = load %"class.xercesc_2_7::XProtoType"*, %"class.xercesc_2_7::XProtoType"** %protoType.addr, align 8, !dbg !2815
  %call = call zeroext i1 @_ZN11xercesc_2_716XSerializeEngine4readEPNS_10XProtoTypeEPj(%"class.xercesc_2_7::XSerializeEngine"* %this1, %"class.xercesc_2_7::XProtoType"* %2, i32* %objectTag), !dbg !2817
  br i1 %call, label %if.else, label %if.then, !dbg !2818

if.then:                                          ; preds = %entry
  %3 = load i32, i32* %objectTag, align 4, !dbg !2819
  %call2 = call %"class.xercesc_2_7::XSerializable"* @_ZNK11xercesc_2_716XSerializeEngine14lookupLoadPoolEj(%"class.xercesc_2_7::XSerializeEngine"* %this1, i32 %3), !dbg !2821
  store %"class.xercesc_2_7::XSerializable"* %call2, %"class.xercesc_2_7::XSerializable"** %objRet, align 8, !dbg !2822
  br label %if.end, !dbg !2823

if.else:                                          ; preds = %entry
  %4 = load %"class.xercesc_2_7::XProtoType"*, %"class.xercesc_2_7::XProtoType"** %protoType.addr, align 8, !dbg !2824
  %fCreateObject = getelementptr inbounds %"class.xercesc_2_7::XProtoType", %"class.xercesc_2_7::XProtoType"* %4, i32 0, i32 1, !dbg !2826
  %5 = load %"class.xercesc_2_7::XSerializable"* (%"class.xercesc_2_7::MemoryManager"*)*, %"class.xercesc_2_7::XSerializable"* (%"class.xercesc_2_7::MemoryManager"*)** %fCreateObject, align 8, !dbg !2826
  %call3 = call %"class.xercesc_2_7::MemoryManager"* @_ZNK11xercesc_2_716XSerializeEngine16getMemoryManagerEv(%"class.xercesc_2_7::XSerializeEngine"* %this1), !dbg !2827
  %call4 = call %"class.xercesc_2_7::XSerializable"* %5(%"class.xercesc_2_7::MemoryManager"* %call3), !dbg !2824
  store %"class.xercesc_2_7::XSerializable"* %call4, %"class.xercesc_2_7::XSerializable"** %objRet, align 8, !dbg !2828
  %6 = load %"class.xercesc_2_7::XSerializable"*, %"class.xercesc_2_7::XSerializable"** %objRet, align 8, !dbg !2829
  %cmp = icmp ne %"class.xercesc_2_7::XSerializable"* %6, null, !dbg !2830
  call void @_ZNK11xercesc_2_716XSerializeEngine6AssertEbNS_10XMLExcepts5CodesE(%"class.xercesc_2_7::XSerializeEngine"* %this1, i1 zeroext %cmp, i32 394), !dbg !2831
  %7 = load %"class.xercesc_2_7::XSerializable"*, %"class.xercesc_2_7::XSerializable"** %objRet, align 8, !dbg !2832
  %8 = bitcast %"class.xercesc_2_7::XSerializable"* %7 to i8*, !dbg !2832
  call void @_ZN11xercesc_2_716XSerializeEngine11addLoadPoolEPv(%"class.xercesc_2_7::XSerializeEngine"* %this1, i8* %8), !dbg !2833
  %9 = load %"class.xercesc_2_7::XSerializable"*, %"class.xercesc_2_7::XSerializable"** %objRet, align 8, !dbg !2834
  %10 = bitcast %"class.xercesc_2_7::XSerializable"* %9 to void (%"class.xercesc_2_7::XSerializable"*, %"class.xercesc_2_7::XSerializeEngine"*)***, !dbg !2835
  %vtable = load void (%"class.xercesc_2_7::XSerializable"*, %"class.xercesc_2_7::XSerializeEngine"*)**, void (%"class.xercesc_2_7::XSerializable"*, %"class.xercesc_2_7::XSerializeEngine"*)*** %10, align 8, !dbg !2835
  %vfn = getelementptr inbounds void (%"class.xercesc_2_7::XSerializable"*, %"class.xercesc_2_7::XSerializeEngine"*)*, void (%"class.xercesc_2_7::XSerializable"*, %"class.xercesc_2_7::XSerializeEngine"*)** %vtable, i64 3, !dbg !2835
  %11 = load void (%"class.xercesc_2_7::XSerializable"*, %"class.xercesc_2_7::XSerializeEngine"*)*, void (%"class.xercesc_2_7::XSerializable"*, %"class.xercesc_2_7::XSerializeEngine"*)** %vfn, align 8, !dbg !2835
  call void %11(%"class.xercesc_2_7::XSerializable"* %9, %"class.xercesc_2_7::XSerializeEngine"* dereferenceable(104) %this1), !dbg !2835
  br label %if.end

if.end:                                           ; preds = %if.else, %if.then
  %12 = load %"class.xercesc_2_7::XSerializable"*, %"class.xercesc_2_7::XSerializable"** %objRet, align 8, !dbg !2836
  ret %"class.xercesc_2_7::XSerializable"* %12, !dbg !2837
}

; Function Attrs: noinline uwtable
define linkonce_odr dso_local void @_ZNK11xercesc_2_716XSerializeEngine13ensureLoadingEv(%"class.xercesc_2_7::XSerializeEngine"* %this) #5 comdat align 2 !dbg !2838 {
entry:
  %this.addr = alloca %"class.xercesc_2_7::XSerializeEngine"*, align 8
  store %"class.xercesc_2_7::XSerializeEngine"* %this, %"class.xercesc_2_7::XSerializeEngine"** %this.addr, align 8
  call void @llvm.dbg.declare(metadata %"class.xercesc_2_7::XSerializeEngine"** %this.addr, metadata !2839, metadata !DIExpression()), !dbg !2840
  %this1 = load %"class.xercesc_2_7::XSerializeEngine"*, %"class.xercesc_2_7::XSerializeEngine"** %this.addr, align 8
  %call = call zeroext i1 @_ZNK11xercesc_2_716XSerializeEngine9isLoadingEv(%"class.xercesc_2_7::XSerializeEngine"* %this1), !dbg !2841
  call void @_ZNK11xercesc_2_716XSerializeEngine6AssertEbNS_10XMLExcepts5CodesE(%"class.xercesc_2_7::XSerializeEngine"* %this1, i1 zeroext %call, i32 386), !dbg !2842
  ret void, !dbg !2843
}

; Function Attrs: noinline uwtable
define dso_local zeroext i1 @_ZN11xercesc_2_716XSerializeEngine4readEPNS_10XProtoTypeEPj(%"class.xercesc_2_7::XSerializeEngine"* %this, %"class.xercesc_2_7::XProtoType"* %protoType, i32* %objectTagRet) #5 align 2 personality i8* bitcast (i32 (...)* @__gxx_personality_v0 to i8*) !dbg !2844 {
entry:
  %retval = alloca i1, align 1
  %this.addr = alloca %"class.xercesc_2_7::XSerializeEngine"*, align 8
  %protoType.addr = alloca %"class.xercesc_2_7::XProtoType"*, align 8
  %objectTagRet.addr = alloca i32*, align 8
  %obTag = alloca i32, align 4
  %classIndex = alloca i32, align 4
  %loadPoolSize = alloca i32, align 4
  %value1 = alloca [17 x i16], align 16
  %value2 = alloca [17 x i16], align 16
  %exn.slot = alloca i8*
  %ehselector.slot = alloca i32
  store %"class.xercesc_2_7::XSerializeEngine"* %this, %"class.xercesc_2_7::XSerializeEngine"** %this.addr, align 8
  call void @llvm.dbg.declare(metadata %"class.xercesc_2_7::XSerializeEngine"** %this.addr, metadata !2845, metadata !DIExpression()), !dbg !2846
  store %"class.xercesc_2_7::XProtoType"* %protoType, %"class.xercesc_2_7::XProtoType"** %protoType.addr, align 8
  call void @llvm.dbg.declare(metadata %"class.xercesc_2_7::XProtoType"** %protoType.addr, metadata !2847, metadata !DIExpression()), !dbg !2848
  store i32* %objectTagRet, i32** %objectTagRet.addr, align 8
  call void @llvm.dbg.declare(metadata i32** %objectTagRet.addr, metadata !2849, metadata !DIExpression()), !dbg !2850
  %this1 = load %"class.xercesc_2_7::XSerializeEngine"*, %"class.xercesc_2_7::XSerializeEngine"** %this.addr, align 8
  call void @_ZNK11xercesc_2_716XSerializeEngine13ensureLoadingEv(%"class.xercesc_2_7::XSerializeEngine"* %this1), !dbg !2851
  %0 = load %"class.xercesc_2_7::XProtoType"*, %"class.xercesc_2_7::XProtoType"** %protoType.addr, align 8, !dbg !2852
  %1 = bitcast %"class.xercesc_2_7::XProtoType"* %0 to i8*, !dbg !2852
  call void @_ZNK11xercesc_2_716XSerializeEngine13ensurePointerEPv(%"class.xercesc_2_7::XSerializeEngine"* %this1, i8* %1), !dbg !2853
  call void @llvm.dbg.declare(metadata i32* %obTag, metadata !2854, metadata !DIExpression()), !dbg !2855
  %call = call dereferenceable(104) %"class.xercesc_2_7::XSerializeEngine"* @_ZN11xercesc_2_716XSerializeEnginersERj(%"class.xercesc_2_7::XSerializeEngine"* %this1, i32* dereferenceable(4) %obTag), !dbg !2856
  %2 = load i32, i32* %obTag, align 4, !dbg !2857
  %and = and i32 %2, -2147483648, !dbg !2859
  %tobool = icmp ne i32 %and, 0, !dbg !2860
  br i1 %tobool, label %if.end, label %if.then, !dbg !2861

if.then:                                          ; preds = %entry
  %3 = load i32, i32* %obTag, align 4, !dbg !2862
  %4 = load i32*, i32** %objectTagRet.addr, align 8, !dbg !2864
  store i32 %3, i32* %4, align 4, !dbg !2865
  store i1 false, i1* %retval, align 1, !dbg !2866
  br label %return, !dbg !2866

if.end:                                           ; preds = %entry
  %5 = load i32, i32* %obTag, align 4, !dbg !2867
  %cmp = icmp eq i32 %5, -1, !dbg !2869
  br i1 %cmp, label %if.then2, label %if.else, !dbg !2870

if.then2:                                         ; preds = %if.end
  %6 = load %"class.xercesc_2_7::XProtoType"*, %"class.xercesc_2_7::XProtoType"** %protoType.addr, align 8, !dbg !2871
  %fClassName = getelementptr inbounds %"class.xercesc_2_7::XProtoType", %"class.xercesc_2_7::XProtoType"* %6, i32 0, i32 0, !dbg !2873
  %7 = load i8*, i8** %fClassName, align 8, !dbg !2873
  %call3 = call %"class.xercesc_2_7::MemoryManager"* @_ZNK11xercesc_2_716XSerializeEngine16getMemoryManagerEv(%"class.xercesc_2_7::XSerializeEngine"* %this1), !dbg !2874
  call void @_ZN11xercesc_2_710XProtoType4loadERNS_16XSerializeEngineEPhPNS_13MemoryManagerE(%"class.xercesc_2_7::XSerializeEngine"* dereferenceable(104) %this1, i8* %7, %"class.xercesc_2_7::MemoryManager"* %call3), !dbg !2875
  %8 = load %"class.xercesc_2_7::XProtoType"*, %"class.xercesc_2_7::XProtoType"** %protoType.addr, align 8, !dbg !2876
  %9 = bitcast %"class.xercesc_2_7::XProtoType"* %8 to i8*, !dbg !2876
  call void @_ZN11xercesc_2_716XSerializeEngine11addLoadPoolEPv(%"class.xercesc_2_7::XSerializeEngine"* %this1, i8* %9), !dbg !2877
  br label %if.end18, !dbg !2878

if.else:                                          ; preds = %if.end
  call void @llvm.dbg.declare(metadata i32* %classIndex, metadata !2879, metadata !DIExpression()), !dbg !2881
  %10 = load i32, i32* %obTag, align 4, !dbg !2882
  %and4 = and i32 %10, 2147483647, !dbg !2883
  store i32 %and4, i32* %classIndex, align 4, !dbg !2881
  call void @llvm.dbg.declare(metadata i32* %loadPoolSize, metadata !2884, metadata !DIExpression()), !dbg !2885
  %fLoadPool = getelementptr inbounds %"class.xercesc_2_7::XSerializeEngine", %"class.xercesc_2_7::XSerializeEngine"* %this1, i32 0, i32 13, !dbg !2886
  %11 = load %"class.xercesc_2_7::ValueVectorOf"*, %"class.xercesc_2_7::ValueVectorOf"** %fLoadPool, align 8, !dbg !2886
  %call5 = call i32 @_ZNK11xercesc_2_713ValueVectorOfIPvE4sizeEv(%"class.xercesc_2_7::ValueVectorOf"* %11), !dbg !2887
  store i32 %call5, i32* %loadPoolSize, align 4, !dbg !2885
  %12 = load i32, i32* %classIndex, align 4, !dbg !2888
  %cmp6 = icmp eq i32 %12, 0, !dbg !2888
  br i1 %cmp6, label %if.then8, label %lor.lhs.false, !dbg !2888

lor.lhs.false:                                    ; preds = %if.else
  %13 = load i32, i32* %classIndex, align 4, !dbg !2888
  %14 = load i32, i32* %loadPoolSize, align 4, !dbg !2888
  %cmp7 = icmp ugt i32 %13, %14, !dbg !2888
  br i1 %cmp7, label %if.then8, label %if.end16, !dbg !2890

if.then8:                                         ; preds = %lor.lhs.false, %if.else
  call void @llvm.dbg.declare(metadata [17 x i16]* %value1, metadata !2891, metadata !DIExpression()), !dbg !2893
  call void @llvm.dbg.declare(metadata [17 x i16]* %value2, metadata !2894, metadata !DIExpression()), !dbg !2893
  %15 = load i32, i32* %classIndex, align 4, !dbg !2893
  %arraydecay = getelementptr inbounds [17 x i16], [17 x i16]* %value1, i64 0, i64 0, !dbg !2893
  %call9 = call %"class.xercesc_2_7::MemoryManager"* @_ZNK11xercesc_2_716XSerializeEngine16getMemoryManagerEv(%"class.xercesc_2_7::XSerializeEngine"* %this1), !dbg !2893
  call void @_ZN11xercesc_2_79XMLString9binToTextEjPtjjPNS_13MemoryManagerE(i32 %15, i16* %arraydecay, i32 16, i32 10, %"class.xercesc_2_7::MemoryManager"* %call9), !dbg !2893
  %16 = load i32, i32* %loadPoolSize, align 4, !dbg !2893
  %arraydecay10 = getelementptr inbounds [17 x i16], [17 x i16]* %value2, i64 0, i64 0, !dbg !2893
  %call11 = call %"class.xercesc_2_7::MemoryManager"* @_ZNK11xercesc_2_716XSerializeEngine16getMemoryManagerEv(%"class.xercesc_2_7::XSerializeEngine"* %this1), !dbg !2893
  call void @_ZN11xercesc_2_79XMLString9binToTextEjPtjjPNS_13MemoryManagerE(i32 %16, i16* %arraydecay10, i32 16, i32 10, %"class.xercesc_2_7::MemoryManager"* %call11), !dbg !2893
  %exception = call i8* @__cxa_allocate_exception(i64 48) #9, !dbg !2893
  %17 = bitcast i8* %exception to %"class.xercesc_2_7::XSerializationException"*, !dbg !2893
  %arraydecay12 = getelementptr inbounds [17 x i16], [17 x i16]* %value1, i64 0, i64 0, !dbg !2893
  %arraydecay13 = getelementptr inbounds [17 x i16], [17 x i16]* %value2, i64 0, i64 0, !dbg !2893
  %call14 = invoke %"class.xercesc_2_7::MemoryManager"* @_ZNK11xercesc_2_716XSerializeEngine16getMemoryManagerEv(%"class.xercesc_2_7::XSerializeEngine"* %this1)
          to label %invoke.cont unwind label %lpad, !dbg !2893

invoke.cont:                                      ; preds = %if.then8
  invoke void @_ZN11xercesc_2_723XSerializationExceptionC2EPKcjNS_10XMLExcepts5CodesEPKtS6_S6_S6_PNS_13MemoryManagerE(%"class.xercesc_2_7::XSerializationException"* %17, i8* getelementptr inbounds ([21 x i8], [21 x i8]* @.str, i64 0, i64 0), i32 455, i32 388, i16* %arraydecay12, i16* %arraydecay13, i16* null, i16* null, %"class.xercesc_2_7::MemoryManager"* %call14)
          to label %invoke.cont15 unwind label %lpad, !dbg !2893

invoke.cont15:                                    ; preds = %invoke.cont
  call void @__cxa_throw(i8* %exception, i8* bitcast ({ i8*, i8*, i8* }* @_ZTIN11xercesc_2_723XSerializationExceptionE to i8*), i8* bitcast (void (%"class.xercesc_2_7::XSerializationException"*)* @_ZN11xercesc_2_723XSerializationExceptionD2Ev to i8*)) #12, !dbg !2893
  unreachable, !dbg !2893

lpad:                                             ; preds = %invoke.cont, %if.then8
  %18 = landingpad { i8*, i32 }
          cleanup, !dbg !2895
  %19 = extractvalue { i8*, i32 } %18, 0, !dbg !2895
  store i8* %19, i8** %exn.slot, align 8, !dbg !2895
  %20 = extractvalue { i8*, i32 } %18, 1, !dbg !2895
  store i32 %20, i32* %ehselector.slot, align 4, !dbg !2895
  call void @__cxa_free_exception(i8* %exception) #9, !dbg !2893
  br label %eh.resume, !dbg !2893

if.end16:                                         ; preds = %lor.lhs.false
  %21 = load i32, i32* %classIndex, align 4, !dbg !2896
  %call17 = call %"class.xercesc_2_7::XSerializable"* @_ZNK11xercesc_2_716XSerializeEngine14lookupLoadPoolEj(%"class.xercesc_2_7::XSerializeEngine"* %this1, i32 %21), !dbg !2897
  %22 = bitcast %"class.xercesc_2_7::XSerializable"* %call17 to i8*, !dbg !2897
  call void @_ZNK11xercesc_2_716XSerializeEngine13ensurePointerEPv(%"class.xercesc_2_7::XSerializeEngine"* %this1, i8* %22), !dbg !2898
  br label %if.end18

if.end18:                                         ; preds = %if.end16, %if.then2
  store i1 true, i1* %retval, align 1, !dbg !2899
  br label %return, !dbg !2899

return:                                           ; preds = %if.end18, %if.then
  %23 = load i1, i1* %retval, align 1, !dbg !2900
  ret i1 %23, !dbg !2900

eh.resume:                                        ; preds = %lpad
  %exn = load i8*, i8** %exn.slot, align 8, !dbg !2893
  %sel = load i32, i32* %ehselector.slot, align 4, !dbg !2893
  %lpad.val = insertvalue { i8*, i32 } undef, i8* %exn, 0, !dbg !2893
  %lpad.val19 = insertvalue { i8*, i32 } %lpad.val, i32 %sel, 1, !dbg !2893
  resume { i8*, i32 } %lpad.val19, !dbg !2893
}

; Function Attrs: noinline uwtable
define dso_local %"class.xercesc_2_7::XSerializable"* @_ZNK11xercesc_2_716XSerializeEngine14lookupLoadPoolEj(%"class.xercesc_2_7::XSerializeEngine"* %this, i32 %objectTag) #5 align 2 personality i8* bitcast (i32 (...)* @__gxx_personality_v0 to i8*) !dbg !2901 {
entry:
  %retval = alloca %"class.xercesc_2_7::XSerializable"*, align 8
  %this.addr = alloca %"class.xercesc_2_7::XSerializeEngine"*, align 8
  %objectTag.addr = alloca i32, align 4
  %value1 = alloca [17 x i16], align 16
  %value2 = alloca [17 x i16], align 16
  %exn.slot = alloca i8*
  %ehselector.slot = alloca i32
  store %"class.xercesc_2_7::XSerializeEngine"* %this, %"class.xercesc_2_7::XSerializeEngine"** %this.addr, align 8
  call void @llvm.dbg.declare(metadata %"class.xercesc_2_7::XSerializeEngine"** %this.addr, metadata !2902, metadata !DIExpression()), !dbg !2903
  store i32 %objectTag, i32* %objectTag.addr, align 4
  call void @llvm.dbg.declare(metadata i32* %objectTag.addr, metadata !2904, metadata !DIExpression()), !dbg !2905
  %this1 = load %"class.xercesc_2_7::XSerializeEngine"*, %"class.xercesc_2_7::XSerializeEngine"** %this.addr, align 8
  %0 = load i32, i32* %objectTag.addr, align 4, !dbg !2906
  %fLoadPool = getelementptr inbounds %"class.xercesc_2_7::XSerializeEngine", %"class.xercesc_2_7::XSerializeEngine"* %this1, i32 0, i32 13, !dbg !2906
  %1 = load %"class.xercesc_2_7::ValueVectorOf"*, %"class.xercesc_2_7::ValueVectorOf"** %fLoadPool, align 8, !dbg !2906
  %call = call i32 @_ZNK11xercesc_2_713ValueVectorOfIPvE4sizeEv(%"class.xercesc_2_7::ValueVectorOf"* %1), !dbg !2906
  %cmp = icmp ugt i32 %0, %call, !dbg !2906
  br i1 %cmp, label %if.then, label %if.end, !dbg !2908

if.then:                                          ; preds = %entry
  call void @llvm.dbg.declare(metadata [17 x i16]* %value1, metadata !2909, metadata !DIExpression()), !dbg !2911
  call void @llvm.dbg.declare(metadata [17 x i16]* %value2, metadata !2912, metadata !DIExpression()), !dbg !2911
  %2 = load i32, i32* %objectTag.addr, align 4, !dbg !2911
  %arraydecay = getelementptr inbounds [17 x i16], [17 x i16]* %value1, i64 0, i64 0, !dbg !2911
  %call2 = call %"class.xercesc_2_7::MemoryManager"* @_ZNK11xercesc_2_716XSerializeEngine16getMemoryManagerEv(%"class.xercesc_2_7::XSerializeEngine"* %this1), !dbg !2911
  call void @_ZN11xercesc_2_79XMLString9binToTextEjPtjjPNS_13MemoryManagerE(i32 %2, i16* %arraydecay, i32 16, i32 10, %"class.xercesc_2_7::MemoryManager"* %call2), !dbg !2911
  %fLoadPool3 = getelementptr inbounds %"class.xercesc_2_7::XSerializeEngine", %"class.xercesc_2_7::XSerializeEngine"* %this1, i32 0, i32 13, !dbg !2911
  %3 = load %"class.xercesc_2_7::ValueVectorOf"*, %"class.xercesc_2_7::ValueVectorOf"** %fLoadPool3, align 8, !dbg !2911
  %call4 = call i32 @_ZNK11xercesc_2_713ValueVectorOfIPvE4sizeEv(%"class.xercesc_2_7::ValueVectorOf"* %3), !dbg !2911
  %arraydecay5 = getelementptr inbounds [17 x i16], [17 x i16]* %value2, i64 0, i64 0, !dbg !2911
  %call6 = call %"class.xercesc_2_7::MemoryManager"* @_ZNK11xercesc_2_716XSerializeEngine16getMemoryManagerEv(%"class.xercesc_2_7::XSerializeEngine"* %this1), !dbg !2911
  call void @_ZN11xercesc_2_79XMLString9binToTextEjPtjjPNS_13MemoryManagerE(i32 %call4, i16* %arraydecay5, i32 16, i32 10, %"class.xercesc_2_7::MemoryManager"* %call6), !dbg !2911
  %exception = call i8* @__cxa_allocate_exception(i64 48) #9, !dbg !2911
  %4 = bitcast i8* %exception to %"class.xercesc_2_7::XSerializationException"*, !dbg !2911
  %arraydecay7 = getelementptr inbounds [17 x i16], [17 x i16]* %value1, i64 0, i64 0, !dbg !2911
  %arraydecay8 = getelementptr inbounds [17 x i16], [17 x i16]* %value2, i64 0, i64 0, !dbg !2911
  %call9 = invoke %"class.xercesc_2_7::MemoryManager"* @_ZNK11xercesc_2_716XSerializeEngine16getMemoryManagerEv(%"class.xercesc_2_7::XSerializeEngine"* %this1)
          to label %invoke.cont unwind label %lpad, !dbg !2911

invoke.cont:                                      ; preds = %if.then
  invoke void @_ZN11xercesc_2_723XSerializationExceptionC2EPKcjNS_10XMLExcepts5CodesEPKtS6_S6_S6_PNS_13MemoryManagerE(%"class.xercesc_2_7::XSerializationException"* %4, i8* getelementptr inbounds ([21 x i8], [21 x i8]* @.str, i64 0, i64 0), i32 847, i32 384, i16* %arraydecay7, i16* %arraydecay8, i16* null, i16* null, %"class.xercesc_2_7::MemoryManager"* %call9)
          to label %invoke.cont10 unwind label %lpad, !dbg !2911

invoke.cont10:                                    ; preds = %invoke.cont
  call void @__cxa_throw(i8* %exception, i8* bitcast ({ i8*, i8*, i8* }* @_ZTIN11xercesc_2_723XSerializationExceptionE to i8*), i8* bitcast (void (%"class.xercesc_2_7::XSerializationException"*)* @_ZN11xercesc_2_723XSerializationExceptionD2Ev to i8*)) #12, !dbg !2911
  unreachable, !dbg !2911

lpad:                                             ; preds = %invoke.cont, %if.then
  %5 = landingpad { i8*, i32 }
          cleanup, !dbg !2913
  %6 = extractvalue { i8*, i32 } %5, 0, !dbg !2913
  store i8* %6, i8** %exn.slot, align 8, !dbg !2913
  %7 = extractvalue { i8*, i32 } %5, 1, !dbg !2913
  store i32 %7, i32* %ehselector.slot, align 4, !dbg !2913
  call void @__cxa_free_exception(i8* %exception) #9, !dbg !2911
  br label %eh.resume, !dbg !2911

if.end:                                           ; preds = %entry
  %8 = load i32, i32* %objectTag.addr, align 4, !dbg !2914
  %cmp11 = icmp eq i32 %8, 0, !dbg !2916
  br i1 %cmp11, label %if.then12, label %if.end13, !dbg !2917

if.then12:                                        ; preds = %if.end
  store %"class.xercesc_2_7::XSerializable"* null, %"class.xercesc_2_7::XSerializable"** %retval, align 8, !dbg !2918
  br label %return, !dbg !2918

if.end13:                                         ; preds = %if.end
  %fLoadPool14 = getelementptr inbounds %"class.xercesc_2_7::XSerializeEngine", %"class.xercesc_2_7::XSerializeEngine"* %this1, i32 0, i32 13, !dbg !2919
  %9 = load %"class.xercesc_2_7::ValueVectorOf"*, %"class.xercesc_2_7::ValueVectorOf"** %fLoadPool14, align 8, !dbg !2919
  %10 = load i32, i32* %objectTag.addr, align 4, !dbg !2920
  %sub = sub i32 %10, 1, !dbg !2921
  %call15 = call dereferenceable(8) i8** @_ZN11xercesc_2_713ValueVectorOfIPvE9elementAtEj(%"class.xercesc_2_7::ValueVectorOf"* %9, i32 %sub), !dbg !2922
  %11 = load i8*, i8** %call15, align 8, !dbg !2922
  %12 = bitcast i8* %11 to %"class.xercesc_2_7::XSerializable"*, !dbg !2923
  store %"class.xercesc_2_7::XSerializable"* %12, %"class.xercesc_2_7::XSerializable"** %retval, align 8, !dbg !2924
  br label %return, !dbg !2924

return:                                           ; preds = %if.end13, %if.then12
  %13 = load %"class.xercesc_2_7::XSerializable"*, %"class.xercesc_2_7::XSerializable"** %retval, align 8, !dbg !2925
  ret %"class.xercesc_2_7::XSerializable"* %13, !dbg !2925

eh.resume:                                        ; preds = %lpad
  %exn = load i8*, i8** %exn.slot, align 8, !dbg !2911
  %sel = load i32, i32* %ehselector.slot, align 4, !dbg !2911
  %lpad.val = insertvalue { i8*, i32 } undef, i8* %exn, 0, !dbg !2911
  %lpad.val16 = insertvalue { i8*, i32 } %lpad.val, i32 %sel, 1, !dbg !2911
  resume { i8*, i32 } %lpad.val16, !dbg !2911
}

; Function Attrs: noinline uwtable
define linkonce_odr dso_local void @_ZNK11xercesc_2_716XSerializeEngine6AssertEbNS_10XMLExcepts5CodesE(%"class.xercesc_2_7::XSerializeEngine"* %this, i1 zeroext %toEval, i32 %toThrow) #5 comdat align 2 personality i8* bitcast (i32 (...)* @__gxx_personality_v0 to i8*) !dbg !2926 {
entry:
  %this.addr = alloca %"class.xercesc_2_7::XSerializeEngine"*, align 8
  %toEval.addr = alloca i8, align 1
  %toThrow.addr = alloca i32, align 4
  %exn.slot = alloca i8*
  %ehselector.slot = alloca i32
  store %"class.xercesc_2_7::XSerializeEngine"* %this, %"class.xercesc_2_7::XSerializeEngine"** %this.addr, align 8
  call void @llvm.dbg.declare(metadata %"class.xercesc_2_7::XSerializeEngine"** %this.addr, metadata !2927, metadata !DIExpression()), !dbg !2928
  %frombool = zext i1 %toEval to i8
  store i8 %frombool, i8* %toEval.addr, align 1
  call void @llvm.dbg.declare(metadata i8* %toEval.addr, metadata !2929, metadata !DIExpression()), !dbg !2930
  store i32 %toThrow, i32* %toThrow.addr, align 4
  call void @llvm.dbg.declare(metadata i32* %toThrow.addr, metadata !2931, metadata !DIExpression()), !dbg !2932
  %this1 = load %"class.xercesc_2_7::XSerializeEngine"*, %"class.xercesc_2_7::XSerializeEngine"** %this.addr, align 8
  %0 = load i8, i8* %toEval.addr, align 1, !dbg !2933
  %tobool = trunc i8 %0 to i1, !dbg !2933
  br i1 %tobool, label %if.end, label %if.then, !dbg !2935

if.then:                                          ; preds = %entry
  %exception = call i8* @__cxa_allocate_exception(i64 48) #9, !dbg !2936
  %1 = bitcast i8* %exception to %"class.xercesc_2_7::XSerializationException"*, !dbg !2936
  %2 = load i32, i32* %toThrow.addr, align 4, !dbg !2936
  %call = invoke %"class.xercesc_2_7::MemoryManager"* @_ZNK11xercesc_2_716XSerializeEngine16getMemoryManagerEv(%"class.xercesc_2_7::XSerializeEngine"* %this1)
          to label %invoke.cont unwind label %lpad, !dbg !2936

invoke.cont:                                      ; preds = %if.then
  invoke void @_ZN11xercesc_2_723XSerializationExceptionC2EPKcjNS_10XMLExcepts5CodesEPNS_13MemoryManagerE(%"class.xercesc_2_7::XSerializationException"* %1, i8* getelementptr inbounds ([40 x i8], [40 x i8]* @.str.1, i64 0, i64 0), i32 776, i32 %2, %"class.xercesc_2_7::MemoryManager"* %call)
          to label %invoke.cont2 unwind label %lpad, !dbg !2936

invoke.cont2:                                     ; preds = %invoke.cont
  call void @__cxa_throw(i8* %exception, i8* bitcast ({ i8*, i8*, i8* }* @_ZTIN11xercesc_2_723XSerializationExceptionE to i8*), i8* bitcast (void (%"class.xercesc_2_7::XSerializationException"*)* @_ZN11xercesc_2_723XSerializationExceptionD2Ev to i8*)) #12, !dbg !2936
  unreachable, !dbg !2936

lpad:                                             ; preds = %invoke.cont, %if.then
  %3 = landingpad { i8*, i32 }
          cleanup, !dbg !2938
  %4 = extractvalue { i8*, i32 } %3, 0, !dbg !2938
  store i8* %4, i8** %exn.slot, align 8, !dbg !2938
  %5 = extractvalue { i8*, i32 } %3, 1, !dbg !2938
  store i32 %5, i32* %ehselector.slot, align 4, !dbg !2938
  call void @__cxa_free_exception(i8* %exception) #9, !dbg !2936
  br label %eh.resume, !dbg !2936

if.end:                                           ; preds = %entry
  ret void, !dbg !2939

eh.resume:                                        ; preds = %lpad
  %exn = load i8*, i8** %exn.slot, align 8, !dbg !2936
  %sel = load i32, i32* %ehselector.slot, align 4, !dbg !2936
  %lpad.val = insertvalue { i8*, i32 } undef, i8* %exn, 0, !dbg !2936
  %lpad.val3 = insertvalue { i8*, i32 } %lpad.val, i32 %sel, 1, !dbg !2936
  resume { i8*, i32 } %lpad.val3, !dbg !2936
}

; Function Attrs: noinline uwtable
define dso_local void @_ZN11xercesc_2_716XSerializeEngine11addLoadPoolEPv(%"class.xercesc_2_7::XSerializeEngine"* %this, i8* %objToAdd) #5 align 2 personality i8* bitcast (i32 (...)* @__gxx_personality_v0 to i8*) !dbg !2940 {
entry:
  %this.addr = alloca %"class.xercesc_2_7::XSerializeEngine"*, align 8
  %objToAdd.addr = alloca i8*, align 8
  %value1 = alloca [17 x i16], align 16
  %value2 = alloca [17 x i16], align 16
  %exn.slot = alloca i8*
  %ehselector.slot = alloca i32
  store %"class.xercesc_2_7::XSerializeEngine"* %this, %"class.xercesc_2_7::XSerializeEngine"** %this.addr, align 8
  call void @llvm.dbg.declare(metadata %"class.xercesc_2_7::XSerializeEngine"** %this.addr, metadata !2941, metadata !DIExpression()), !dbg !2942
  store i8* %objToAdd, i8** %objToAdd.addr, align 8
  call void @llvm.dbg.declare(metadata i8** %objToAdd.addr, metadata !2943, metadata !DIExpression()), !dbg !2944
  %this1 = load %"class.xercesc_2_7::XSerializeEngine"*, %"class.xercesc_2_7::XSerializeEngine"** %this.addr, align 8
  %fLoadPool = getelementptr inbounds %"class.xercesc_2_7::XSerializeEngine", %"class.xercesc_2_7::XSerializeEngine"* %this1, i32 0, i32 13, !dbg !2945
  %0 = load %"class.xercesc_2_7::ValueVectorOf"*, %"class.xercesc_2_7::ValueVectorOf"** %fLoadPool, align 8, !dbg !2945
  %call = call i32 @_ZNK11xercesc_2_713ValueVectorOfIPvE4sizeEv(%"class.xercesc_2_7::ValueVectorOf"* %0), !dbg !2945
  %fObjectCount = getelementptr inbounds %"class.xercesc_2_7::XSerializeEngine", %"class.xercesc_2_7::XSerializeEngine"* %this1, i32 0, i32 14, !dbg !2945
  %1 = load i32, i32* %fObjectCount, align 8, !dbg !2945
  %cmp = icmp ne i32 %call, %1, !dbg !2945
  br i1 %cmp, label %if.then, label %if.end, !dbg !2947

if.then:                                          ; preds = %entry
  call void @llvm.dbg.declare(metadata [17 x i16]* %value1, metadata !2948, metadata !DIExpression()), !dbg !2950
  call void @llvm.dbg.declare(metadata [17 x i16]* %value2, metadata !2951, metadata !DIExpression()), !dbg !2950
  %fObjectCount2 = getelementptr inbounds %"class.xercesc_2_7::XSerializeEngine", %"class.xercesc_2_7::XSerializeEngine"* %this1, i32 0, i32 14, !dbg !2950
  %2 = load i32, i32* %fObjectCount2, align 8, !dbg !2950
  %arraydecay = getelementptr inbounds [17 x i16], [17 x i16]* %value1, i64 0, i64 0, !dbg !2950
  %call3 = call %"class.xercesc_2_7::MemoryManager"* @_ZNK11xercesc_2_716XSerializeEngine16getMemoryManagerEv(%"class.xercesc_2_7::XSerializeEngine"* %this1), !dbg !2950
  call void @_ZN11xercesc_2_79XMLString9binToTextEjPtjjPNS_13MemoryManagerE(i32 %2, i16* %arraydecay, i32 16, i32 10, %"class.xercesc_2_7::MemoryManager"* %call3), !dbg !2950
  %fLoadPool4 = getelementptr inbounds %"class.xercesc_2_7::XSerializeEngine", %"class.xercesc_2_7::XSerializeEngine"* %this1, i32 0, i32 13, !dbg !2950
  %3 = load %"class.xercesc_2_7::ValueVectorOf"*, %"class.xercesc_2_7::ValueVectorOf"** %fLoadPool4, align 8, !dbg !2950
  %call5 = call i32 @_ZNK11xercesc_2_713ValueVectorOfIPvE4sizeEv(%"class.xercesc_2_7::ValueVectorOf"* %3), !dbg !2950
  %arraydecay6 = getelementptr inbounds [17 x i16], [17 x i16]* %value2, i64 0, i64 0, !dbg !2950
  %call7 = call %"class.xercesc_2_7::MemoryManager"* @_ZNK11xercesc_2_716XSerializeEngine16getMemoryManagerEv(%"class.xercesc_2_7::XSerializeEngine"* %this1), !dbg !2950
  call void @_ZN11xercesc_2_79XMLString9binToTextEjPtjjPNS_13MemoryManagerE(i32 %call5, i16* %arraydecay6, i32 16, i32 10, %"class.xercesc_2_7::MemoryManager"* %call7), !dbg !2950
  %exception = call i8* @__cxa_allocate_exception(i64 48) #9, !dbg !2950
  %4 = bitcast i8* %exception to %"class.xercesc_2_7::XSerializationException"*, !dbg !2950
  %arraydecay8 = getelementptr inbounds [17 x i16], [17 x i16]* %value1, i64 0, i64 0, !dbg !2950
  %arraydecay9 = getelementptr inbounds [17 x i16], [17 x i16]* %value2, i64 0, i64 0, !dbg !2950
  %call10 = invoke %"class.xercesc_2_7::MemoryManager"* @_ZNK11xercesc_2_716XSerializeEngine16getMemoryManagerEv(%"class.xercesc_2_7::XSerializeEngine"* %this1)
          to label %invoke.cont unwind label %lpad, !dbg !2950

invoke.cont:                                      ; preds = %if.then
  invoke void @_ZN11xercesc_2_723XSerializationExceptionC2EPKcjNS_10XMLExcepts5CodesEPKtS6_S6_S6_PNS_13MemoryManagerE(%"class.xercesc_2_7::XSerializationException"* %4, i8* getelementptr inbounds ([21 x i8], [21 x i8]* @.str, i64 0, i64 0), i32 865, i32 385, i16* %arraydecay8, i16* %arraydecay9, i16* null, i16* null, %"class.xercesc_2_7::MemoryManager"* %call10)
          to label %invoke.cont11 unwind label %lpad, !dbg !2950

invoke.cont11:                                    ; preds = %invoke.cont
  call void @__cxa_throw(i8* %exception, i8* bitcast ({ i8*, i8*, i8* }* @_ZTIN11xercesc_2_723XSerializationExceptionE to i8*), i8* bitcast (void (%"class.xercesc_2_7::XSerializationException"*)* @_ZN11xercesc_2_723XSerializationExceptionD2Ev to i8*)) #12, !dbg !2950
  unreachable, !dbg !2950

lpad:                                             ; preds = %invoke.cont, %if.then
  %5 = landingpad { i8*, i32 }
          cleanup, !dbg !2952
  %6 = extractvalue { i8*, i32 } %5, 0, !dbg !2952
  store i8* %6, i8** %exn.slot, align 8, !dbg !2952
  %7 = extractvalue { i8*, i32 } %5, 1, !dbg !2952
  store i32 %7, i32* %ehselector.slot, align 4, !dbg !2952
  call void @__cxa_free_exception(i8* %exception) #9, !dbg !2950
  br label %eh.resume, !dbg !2950

if.end:                                           ; preds = %entry
  call void @_ZN11xercesc_2_716XSerializeEngine9pumpCountEv(%"class.xercesc_2_7::XSerializeEngine"* %this1), !dbg !2953
  %fLoadPool12 = getelementptr inbounds %"class.xercesc_2_7::XSerializeEngine", %"class.xercesc_2_7::XSerializeEngine"* %this1, i32 0, i32 13, !dbg !2954
  %8 = load %"class.xercesc_2_7::ValueVectorOf"*, %"class.xercesc_2_7::ValueVectorOf"** %fLoadPool12, align 8, !dbg !2954
  call void @_ZN11xercesc_2_713ValueVectorOfIPvE10addElementERKS1_(%"class.xercesc_2_7::ValueVectorOf"* %8, i8** dereferenceable(8) %objToAdd.addr), !dbg !2955
  ret void, !dbg !2956

eh.resume:                                        ; preds = %lpad
  %exn = load i8*, i8** %exn.slot, align 8, !dbg !2950
  %sel = load i32, i32* %ehselector.slot, align 4, !dbg !2950
  %lpad.val = insertvalue { i8*, i32 } undef, i8* %exn, 0, !dbg !2950
  %lpad.val13 = insertvalue { i8*, i32 } %lpad.val, i32 %sel, 1, !dbg !2950
  resume { i8*, i32 } %lpad.val13, !dbg !2950
}

; Function Attrs: noinline uwtable
define dso_local dereferenceable(104) %"class.xercesc_2_7::XSerializeEngine"* @_ZN11xercesc_2_716XSerializeEnginersERj(%"class.xercesc_2_7::XSerializeEngine"* %this, i32* dereferenceable(4) %ui) #5 align 2 !dbg !2957 {
entry:
  %this.addr = alloca %"class.xercesc_2_7::XSerializeEngine"*, align 8
  %ui.addr = alloca i32*, align 8
  store %"class.xercesc_2_7::XSerializeEngine"* %this, %"class.xercesc_2_7::XSerializeEngine"** %this.addr, align 8
  call void @llvm.dbg.declare(metadata %"class.xercesc_2_7::XSerializeEngine"** %this.addr, metadata !2958, metadata !DIExpression()), !dbg !2959
  store i32* %ui, i32** %ui.addr, align 8
  call void @llvm.dbg.declare(metadata i32** %ui.addr, metadata !2960, metadata !DIExpression()), !dbg !2961
  %this1 = load %"class.xercesc_2_7::XSerializeEngine"*, %"class.xercesc_2_7::XSerializeEngine"** %this.addr, align 8
  %call = call i64 @_ZNK11xercesc_2_716XSerializeEngine14calBytesNeededEm(%"class.xercesc_2_7::XSerializeEngine"* %this1, i64 4), !dbg !2962
  %conv = trunc i64 %call to i32, !dbg !2962
  call void @_ZN11xercesc_2_716XSerializeEngine18checkAndFillBufferEi(%"class.xercesc_2_7::XSerializeEngine"* %this1, i32 %conv), !dbg !2963
  call void @_ZN11xercesc_2_716XSerializeEngine11alignBufCurEm(%"class.xercesc_2_7::XSerializeEngine"* %this1, i64 4), !dbg !2964
  %fBufCur = getelementptr inbounds %"class.xercesc_2_7::XSerializeEngine", %"class.xercesc_2_7::XSerializeEngine"* %this1, i32 0, i32 10, !dbg !2965
  %0 = load i8*, i8** %fBufCur, align 8, !dbg !2965
  %1 = bitcast i8* %0 to i32*, !dbg !2966
  %2 = load i32, i32* %1, align 4, !dbg !2966
  %3 = load i32*, i32** %ui.addr, align 8, !dbg !2967
  store i32 %2, i32* %3, align 4, !dbg !2968
  %fBufCur2 = getelementptr inbounds %"class.xercesc_2_7::XSerializeEngine", %"class.xercesc_2_7::XSerializeEngine"* %this1, i32 0, i32 10, !dbg !2969
  %4 = load i8*, i8** %fBufCur2, align 8, !dbg !2970
  %add.ptr = getelementptr inbounds i8, i8* %4, i64 4, !dbg !2970
  store i8* %add.ptr, i8** %fBufCur2, align 8, !dbg !2970
  ret %"class.xercesc_2_7::XSerializeEngine"* %this1, !dbg !2971
}

declare dso_local void @_ZN11xercesc_2_710XProtoType4loadERNS_16XSerializeEngineEPhPNS_13MemoryManagerE(%"class.xercesc_2_7::XSerializeEngine"* dereferenceable(104), i8*, %"class.xercesc_2_7::MemoryManager"*) #7

; Function Attrs: noinline nounwind uwtable
define linkonce_odr dso_local i32 @_ZNK11xercesc_2_713ValueVectorOfIPvE4sizeEv(%"class.xercesc_2_7::ValueVectorOf"* %this) #1 comdat align 2 !dbg !2972 {
entry:
  %this.addr = alloca %"class.xercesc_2_7::ValueVectorOf"*, align 8
  store %"class.xercesc_2_7::ValueVectorOf"* %this, %"class.xercesc_2_7::ValueVectorOf"** %this.addr, align 8
  call void @llvm.dbg.declare(metadata %"class.xercesc_2_7::ValueVectorOf"** %this.addr, metadata !2973, metadata !DIExpression()), !dbg !2975
  %this1 = load %"class.xercesc_2_7::ValueVectorOf"*, %"class.xercesc_2_7::ValueVectorOf"** %this.addr, align 8
  %fCurCount = getelementptr inbounds %"class.xercesc_2_7::ValueVectorOf", %"class.xercesc_2_7::ValueVectorOf"* %this1, i32 0, i32 1, !dbg !2976
  %0 = load i32, i32* %fCurCount, align 4, !dbg !2976
  ret i32 %0, !dbg !2977
}

declare dso_local void @_ZN11xercesc_2_79XMLString9binToTextEjPtjjPNS_13MemoryManagerE(i32, i16*, i32, i32, %"class.xercesc_2_7::MemoryManager"*) #7

declare dso_local i8* @__cxa_allocate_exception(i64)

; Function Attrs: noinline uwtable
define linkonce_odr dso_local void @_ZN11xercesc_2_723XSerializationExceptionC2EPKcjNS_10XMLExcepts5CodesEPKtS6_S6_S6_PNS_13MemoryManagerE(%"class.xercesc_2_7::XSerializationException"* %this, i8* %srcFile, i32 %srcLine, i32 %toThrow, i16* %text1, i16* %text2, i16* %text3, i16* %text4, %"class.xercesc_2_7::MemoryManager"* %memoryManager) unnamed_addr #5 comdat align 2 personality i8* bitcast (i32 (...)* @__gxx_personality_v0 to i8*) !dbg !2978 {
entry:
  %this.addr = alloca %"class.xercesc_2_7::XSerializationException"*, align 8
  %srcFile.addr = alloca i8*, align 8
  %srcLine.addr = alloca i32, align 4
  %toThrow.addr = alloca i32, align 4
  %text1.addr = alloca i16*, align 8
  %text2.addr = alloca i16*, align 8
  %text3.addr = alloca i16*, align 8
  %text4.addr = alloca i16*, align 8
  %memoryManager.addr = alloca %"class.xercesc_2_7::MemoryManager"*, align 8
  %exn.slot = alloca i8*
  %ehselector.slot = alloca i32
  store %"class.xercesc_2_7::XSerializationException"* %this, %"class.xercesc_2_7::XSerializationException"** %this.addr, align 8
  call void @llvm.dbg.declare(metadata %"class.xercesc_2_7::XSerializationException"** %this.addr, metadata !3016, metadata !DIExpression()), !dbg !3018
  store i8* %srcFile, i8** %srcFile.addr, align 8
  call void @llvm.dbg.declare(metadata i8** %srcFile.addr, metadata !3019, metadata !DIExpression()), !dbg !3020
  store i32 %srcLine, i32* %srcLine.addr, align 4
  call void @llvm.dbg.declare(metadata i32* %srcLine.addr, metadata !3021, metadata !DIExpression()), !dbg !3020
  store i32 %toThrow, i32* %toThrow.addr, align 4
  call void @llvm.dbg.declare(metadata i32* %toThrow.addr, metadata !3022, metadata !DIExpression()), !dbg !3020
  store i16* %text1, i16** %text1.addr, align 8
  call void @llvm.dbg.declare(metadata i16** %text1.addr, metadata !3023, metadata !DIExpression()), !dbg !3020
  store i16* %text2, i16** %text2.addr, align 8
  call void @llvm.dbg.declare(metadata i16** %text2.addr, metadata !3024, metadata !DIExpression()), !dbg !3020
  store i16* %text3, i16** %text3.addr, align 8
  call void @llvm.dbg.declare(metadata i16** %text3.addr, metadata !3025, metadata !DIExpression()), !dbg !3020
  store i16* %text4, i16** %text4.addr, align 8
  call void @llvm.dbg.declare(metadata i16** %text4.addr, metadata !3026, metadata !DIExpression()), !dbg !3020
  store %"class.xercesc_2_7::MemoryManager"* %memoryManager, %"class.xercesc_2_7::MemoryManager"** %memoryManager.addr, align 8
  call void @llvm.dbg.declare(metadata %"class.xercesc_2_7::MemoryManager"** %memoryManager.addr, metadata !3027, metadata !DIExpression()), !dbg !3020
  %this1 = load %"class.xercesc_2_7::XSerializationException"*, %"class.xercesc_2_7::XSerializationException"** %this.addr, align 8
  %0 = bitcast %"class.xercesc_2_7::XSerializationException"* %this1 to %"class.xercesc_2_7::XMLException"*, !dbg !3020
  %1 = load i8*, i8** %srcFile.addr, align 8, !dbg !3020
  %2 = load i32, i32* %srcLine.addr, align 4, !dbg !3020
  %3 = load %"class.xercesc_2_7::MemoryManager"*, %"class.xercesc_2_7::MemoryManager"** %memoryManager.addr, align 8, !dbg !3020
  call void @_ZN11xercesc_2_712XMLExceptionC2EPKcjPNS_13MemoryManagerE(%"class.xercesc_2_7::XMLException"* %0, i8* %1, i32 %2, %"class.xercesc_2_7::MemoryManager"* %3), !dbg !3020
  %4 = bitcast %"class.xercesc_2_7::XSerializationException"* %this1 to i32 (...)***, !dbg !3020
  store i32 (...)** bitcast (i8** getelementptr inbounds ({ [6 x i8*] }, { [6 x i8*] }* @_ZTVN11xercesc_2_723XSerializationExceptionE, i32 0, inrange i32 0, i32 2) to i32 (...)**), i32 (...)*** %4, align 8, !dbg !3020
  %5 = bitcast %"class.xercesc_2_7::XSerializationException"* %this1 to %"class.xercesc_2_7::XMLException"*, !dbg !3028
  %6 = load i32, i32* %toThrow.addr, align 4, !dbg !3028
  %7 = load i16*, i16** %text1.addr, align 8, !dbg !3028
  %8 = load i16*, i16** %text2.addr, align 8, !dbg !3028
  %9 = load i16*, i16** %text3.addr, align 8, !dbg !3028
  %10 = load i16*, i16** %text4.addr, align 8, !dbg !3028
  invoke void @_ZN11xercesc_2_712XMLException14loadExceptTextENS_10XMLExcepts5CodesEPKtS4_S4_S4_(%"class.xercesc_2_7::XMLException"* %5, i32 %6, i16* %7, i16* %8, i16* %9, i16* %10)
          to label %invoke.cont unwind label %lpad, !dbg !3028

invoke.cont:                                      ; preds = %entry
  ret void, !dbg !3020

lpad:                                             ; preds = %entry
  %11 = landingpad { i8*, i32 }
          cleanup, !dbg !3028
  %12 = extractvalue { i8*, i32 } %11, 0, !dbg !3028
  store i8* %12, i8** %exn.slot, align 8, !dbg !3028
  %13 = extractvalue { i8*, i32 } %11, 1, !dbg !3028
  store i32 %13, i32* %ehselector.slot, align 4, !dbg !3028
  %14 = bitcast %"class.xercesc_2_7::XSerializationException"* %this1 to %"class.xercesc_2_7::XMLException"*, !dbg !3028
  call void @_ZN11xercesc_2_712XMLExceptionD2Ev(%"class.xercesc_2_7::XMLException"* %14) #9, !dbg !3028
  br label %eh.resume, !dbg !3028

eh.resume:                                        ; preds = %lpad
  %exn = load i8*, i8** %exn.slot, align 8, !dbg !3028
  %sel = load i32, i32* %ehselector.slot, align 4, !dbg !3028
  %lpad.val = insertvalue { i8*, i32 } undef, i8* %exn, 0, !dbg !3028
  %lpad.val2 = insertvalue { i8*, i32 } %lpad.val, i32 %sel, 1, !dbg !3028
  resume { i8*, i32 } %lpad.val2, !dbg !3028
}

declare dso_local void @__cxa_free_exception(i8*)

; Function Attrs: noinline nounwind uwtable
define linkonce_odr dso_local void @_ZN11xercesc_2_723XSerializationExceptionD2Ev(%"class.xercesc_2_7::XSerializationException"* %this) unnamed_addr #1 comdat align 2 !dbg !3030 {
entry:
  %this.addr = alloca %"class.xercesc_2_7::XSerializationException"*, align 8
  store %"class.xercesc_2_7::XSerializationException"* %this, %"class.xercesc_2_7::XSerializationException"** %this.addr, align 8
  call void @llvm.dbg.declare(metadata %"class.xercesc_2_7::XSerializationException"** %this.addr, metadata !3031, metadata !DIExpression()), !dbg !3032
  %this1 = load %"class.xercesc_2_7::XSerializationException"*, %"class.xercesc_2_7::XSerializationException"** %this.addr, align 8
  %0 = bitcast %"class.xercesc_2_7::XSerializationException"* %this1 to %"class.xercesc_2_7::XMLException"*, !dbg !3033
  call void @_ZN11xercesc_2_712XMLExceptionD2Ev(%"class.xercesc_2_7::XMLException"* %0) #9, !dbg !3033
  ret void, !dbg !3035
}

declare dso_local void @__cxa_throw(i8*, i8*, i8*)

; Function Attrs: noinline uwtable
define dso_local void @_ZN11xercesc_2_716XSerializeEngine4readEPti(%"class.xercesc_2_7::XSerializeEngine"* %this, i16* %toRead, i32 %readLen) #5 align 2 !dbg !3036 {
entry:
  %this.addr = alloca %"class.xercesc_2_7::XSerializeEngine"*, align 8
  %toRead.addr = alloca i16*, align 8
  %readLen.addr = alloca i32, align 4
  store %"class.xercesc_2_7::XSerializeEngine"* %this, %"class.xercesc_2_7::XSerializeEngine"** %this.addr, align 8
  call void @llvm.dbg.declare(metadata %"class.xercesc_2_7::XSerializeEngine"** %this.addr, metadata !3037, metadata !DIExpression()), !dbg !3038
  store i16* %toRead, i16** %toRead.addr, align 8
  call void @llvm.dbg.declare(metadata i16** %toRead.addr, metadata !3039, metadata !DIExpression()), !dbg !3040
  store i32 %readLen, i32* %readLen.addr, align 4
  call void @llvm.dbg.declare(metadata i32* %readLen.addr, metadata !3041, metadata !DIExpression()), !dbg !3042
  %this1 = load %"class.xercesc_2_7::XSerializeEngine"*, %"class.xercesc_2_7::XSerializeEngine"** %this.addr, align 8
  %0 = load i16*, i16** %toRead.addr, align 8, !dbg !3043
  %1 = bitcast i16* %0 to i8*, !dbg !3044
  %2 = load i32, i32* %readLen.addr, align 4, !dbg !3045
  %conv = sext i32 %2 to i64, !dbg !3045
  %mul = mul i64 2, %conv, !dbg !3046
  %conv2 = trunc i64 %mul to i32, !dbg !3047
  call void @_ZN11xercesc_2_716XSerializeEngine4readEPhi(%"class.xercesc_2_7::XSerializeEngine"* %this1, i8* %1, i32 %conv2), !dbg !3048
  ret void, !dbg !3049
}

; Function Attrs: noinline uwtable
define dso_local void @_ZN11xercesc_2_716XSerializeEngine4readEPhi(%"class.xercesc_2_7::XSerializeEngine"* %this, i8* %toRead, i32 %readLen) #5 align 2 !dbg !3050 {
entry:
  %this.addr = alloca %"class.xercesc_2_7::XSerializeEngine"*, align 8
  %toRead.addr = alloca i8*, align 8
  %readLen.addr = alloca i32, align 4
  %dataAvail = alloca i32, align 4
  %tempRead = alloca i8*, align 8
  %readRemain = alloca i32, align 4
  store %"class.xercesc_2_7::XSerializeEngine"* %this, %"class.xercesc_2_7::XSerializeEngine"** %this.addr, align 8
  call void @llvm.dbg.declare(metadata %"class.xercesc_2_7::XSerializeEngine"** %this.addr, metadata !3051, metadata !DIExpression()), !dbg !3052
  store i8* %toRead, i8** %toRead.addr, align 8
  call void @llvm.dbg.declare(metadata i8** %toRead.addr, metadata !3053, metadata !DIExpression()), !dbg !3054
  store i32 %readLen, i32* %readLen.addr, align 4
  call void @llvm.dbg.declare(metadata i32* %readLen.addr, metadata !3055, metadata !DIExpression()), !dbg !3056
  %this1 = load %"class.xercesc_2_7::XSerializeEngine"*, %"class.xercesc_2_7::XSerializeEngine"** %this.addr, align 8
  call void @_ZNK11xercesc_2_716XSerializeEngine13ensureLoadingEv(%"class.xercesc_2_7::XSerializeEngine"* %this1), !dbg !3057
  %0 = load i32, i32* %readLen.addr, align 4, !dbg !3058
  call void @_ZNK11xercesc_2_716XSerializeEngine15ensureBufferLenEi(%"class.xercesc_2_7::XSerializeEngine"* %this1, i32 %0), !dbg !3059
  %1 = load i8*, i8** %toRead.addr, align 8, !dbg !3060
  call void @_ZNK11xercesc_2_716XSerializeEngine13ensurePointerEPv(%"class.xercesc_2_7::XSerializeEngine"* %this1, i8* %1), !dbg !3061
  call void @_ZNK11xercesc_2_716XSerializeEngine16ensureLoadBufferEv(%"class.xercesc_2_7::XSerializeEngine"* %this1), !dbg !3062
  %2 = load i32, i32* %readLen.addr, align 4, !dbg !3063
  %cmp = icmp eq i32 %2, 0, !dbg !3065
  br i1 %cmp, label %if.then, label %if.end, !dbg !3066

if.then:                                          ; preds = %entry
  br label %if.end28, !dbg !3067

if.end:                                           ; preds = %entry
  call void @llvm.dbg.declare(metadata i32* %dataAvail, metadata !3068, metadata !DIExpression()), !dbg !3069
  %fBufLoadMax = getelementptr inbounds %"class.xercesc_2_7::XSerializeEngine", %"class.xercesc_2_7::XSerializeEngine"* %this1, i32 0, i32 11, !dbg !3070
  %3 = load i8*, i8** %fBufLoadMax, align 8, !dbg !3070
  %fBufCur = getelementptr inbounds %"class.xercesc_2_7::XSerializeEngine", %"class.xercesc_2_7::XSerializeEngine"* %this1, i32 0, i32 10, !dbg !3071
  %4 = load i8*, i8** %fBufCur, align 8, !dbg !3071
  %sub.ptr.lhs.cast = ptrtoint i8* %3 to i64, !dbg !3072
  %sub.ptr.rhs.cast = ptrtoint i8* %4 to i64, !dbg !3072
  %sub.ptr.sub = sub i64 %sub.ptr.lhs.cast, %sub.ptr.rhs.cast, !dbg !3072
  %conv = trunc i64 %sub.ptr.sub to i32, !dbg !3070
  store i32 %conv, i32* %dataAvail, align 4, !dbg !3069
  %5 = load i32, i32* %readLen.addr, align 4, !dbg !3073
  %6 = load i32, i32* %dataAvail, align 4, !dbg !3075
  %cmp2 = icmp sle i32 %5, %6, !dbg !3076
  br i1 %cmp2, label %if.then3, label %if.end7, !dbg !3077

if.then3:                                         ; preds = %if.end
  %7 = load i8*, i8** %toRead.addr, align 8, !dbg !3078
  %fBufCur4 = getelementptr inbounds %"class.xercesc_2_7::XSerializeEngine", %"class.xercesc_2_7::XSerializeEngine"* %this1, i32 0, i32 10, !dbg !3080
  %8 = load i8*, i8** %fBufCur4, align 8, !dbg !3080
  %9 = load i32, i32* %readLen.addr, align 4, !dbg !3081
  %conv5 = sext i32 %9 to i64, !dbg !3081
  call void @llvm.memcpy.p0i8.p0i8.i64(i8* align 1 %7, i8* align 1 %8, i64 %conv5, i1 false), !dbg !3082
  %10 = load i32, i32* %readLen.addr, align 4, !dbg !3083
  %fBufCur6 = getelementptr inbounds %"class.xercesc_2_7::XSerializeEngine", %"class.xercesc_2_7::XSerializeEngine"* %this1, i32 0, i32 10, !dbg !3084
  %11 = load i8*, i8** %fBufCur6, align 8, !dbg !3085
  %idx.ext = sext i32 %10 to i64, !dbg !3085
  %add.ptr = getelementptr inbounds i8, i8* %11, i64 %idx.ext, !dbg !3085
  store i8* %add.ptr, i8** %fBufCur6, align 8, !dbg !3085
  br label %if.end28, !dbg !3086

if.end7:                                          ; preds = %if.end
  call void @llvm.dbg.declare(metadata i8** %tempRead, metadata !3087, metadata !DIExpression()), !dbg !3088
  %12 = load i8*, i8** %toRead.addr, align 8, !dbg !3089
  store i8* %12, i8** %tempRead, align 8, !dbg !3088
  call void @llvm.dbg.declare(metadata i32* %readRemain, metadata !3090, metadata !DIExpression()), !dbg !3091
  %13 = load i32, i32* %readLen.addr, align 4, !dbg !3092
  store i32 %13, i32* %readRemain, align 4, !dbg !3091
  %14 = load i8*, i8** %tempRead, align 8, !dbg !3093
  %fBufCur8 = getelementptr inbounds %"class.xercesc_2_7::XSerializeEngine", %"class.xercesc_2_7::XSerializeEngine"* %this1, i32 0, i32 10, !dbg !3094
  %15 = load i8*, i8** %fBufCur8, align 8, !dbg !3094
  %16 = load i32, i32* %dataAvail, align 4, !dbg !3095
  %conv9 = sext i32 %16 to i64, !dbg !3095
  call void @llvm.memcpy.p0i8.p0i8.i64(i8* align 1 %14, i8* align 1 %15, i64 %conv9, i1 false), !dbg !3096
  %17 = load i32, i32* %dataAvail, align 4, !dbg !3097
  %18 = load i8*, i8** %tempRead, align 8, !dbg !3098
  %idx.ext10 = sext i32 %17 to i64, !dbg !3098
  %add.ptr11 = getelementptr inbounds i8, i8* %18, i64 %idx.ext10, !dbg !3098
  store i8* %add.ptr11, i8** %tempRead, align 8, !dbg !3098
  %19 = load i32, i32* %dataAvail, align 4, !dbg !3099
  %20 = load i32, i32* %readRemain, align 4, !dbg !3100
  %sub = sub i32 %20, %19, !dbg !3100
  store i32 %sub, i32* %readRemain, align 4, !dbg !3100
  br label %while.cond, !dbg !3101

while.cond:                                       ; preds = %while.body, %if.end7
  %21 = load i32, i32* %readRemain, align 4, !dbg !3102
  %conv12 = zext i32 %21 to i64, !dbg !3102
  %fBufSize = getelementptr inbounds %"class.xercesc_2_7::XSerializeEngine", %"class.xercesc_2_7::XSerializeEngine"* %this1, i32 0, i32 7, !dbg !3103
  %22 = load i64, i64* %fBufSize, align 8, !dbg !3103
  %cmp13 = icmp uge i64 %conv12, %22, !dbg !3104
  br i1 %cmp13, label %while.body, label %while.end, !dbg !3101

while.body:                                       ; preds = %while.cond
  call void @_ZN11xercesc_2_716XSerializeEngine10fillBufferEv(%"class.xercesc_2_7::XSerializeEngine"* %this1), !dbg !3105
  %23 = load i8*, i8** %tempRead, align 8, !dbg !3107
  %fBufCur14 = getelementptr inbounds %"class.xercesc_2_7::XSerializeEngine", %"class.xercesc_2_7::XSerializeEngine"* %this1, i32 0, i32 10, !dbg !3108
  %24 = load i8*, i8** %fBufCur14, align 8, !dbg !3108
  %fBufSize15 = getelementptr inbounds %"class.xercesc_2_7::XSerializeEngine", %"class.xercesc_2_7::XSerializeEngine"* %this1, i32 0, i32 7, !dbg !3109
  %25 = load i64, i64* %fBufSize15, align 8, !dbg !3109
  call void @llvm.memcpy.p0i8.p0i8.i64(i8* align 1 %23, i8* align 1 %24, i64 %25, i1 false), !dbg !3110
  %fBufSize16 = getelementptr inbounds %"class.xercesc_2_7::XSerializeEngine", %"class.xercesc_2_7::XSerializeEngine"* %this1, i32 0, i32 7, !dbg !3111
  %26 = load i64, i64* %fBufSize16, align 8, !dbg !3111
  %27 = load i8*, i8** %tempRead, align 8, !dbg !3112
  %add.ptr17 = getelementptr inbounds i8, i8* %27, i64 %26, !dbg !3112
  store i8* %add.ptr17, i8** %tempRead, align 8, !dbg !3112
  %fBufSize18 = getelementptr inbounds %"class.xercesc_2_7::XSerializeEngine", %"class.xercesc_2_7::XSerializeEngine"* %this1, i32 0, i32 7, !dbg !3113
  %28 = load i64, i64* %fBufSize18, align 8, !dbg !3113
  %29 = load i32, i32* %readRemain, align 4, !dbg !3114
  %conv19 = zext i32 %29 to i64, !dbg !3114
  %sub20 = sub i64 %conv19, %28, !dbg !3114
  %conv21 = trunc i64 %sub20 to i32, !dbg !3114
  store i32 %conv21, i32* %readRemain, align 4, !dbg !3114
  br label %while.cond, !dbg !3101, !llvm.loop !3115

while.end:                                        ; preds = %while.cond
  %30 = load i32, i32* %readRemain, align 4, !dbg !3117
  %tobool = icmp ne i32 %30, 0, !dbg !3117
  br i1 %tobool, label %if.then22, label %if.end28, !dbg !3119

if.then22:                                        ; preds = %while.end
  call void @_ZN11xercesc_2_716XSerializeEngine10fillBufferEv(%"class.xercesc_2_7::XSerializeEngine"* %this1), !dbg !3120
  %31 = load i8*, i8** %tempRead, align 8, !dbg !3122
  %fBufCur23 = getelementptr inbounds %"class.xercesc_2_7::XSerializeEngine", %"class.xercesc_2_7::XSerializeEngine"* %this1, i32 0, i32 10, !dbg !3123
  %32 = load i8*, i8** %fBufCur23, align 8, !dbg !3123
  %33 = load i32, i32* %readRemain, align 4, !dbg !3124
  %conv24 = zext i32 %33 to i64, !dbg !3124
  call void @llvm.memcpy.p0i8.p0i8.i64(i8* align 1 %31, i8* align 1 %32, i64 %conv24, i1 false), !dbg !3125
  %34 = load i32, i32* %readRemain, align 4, !dbg !3126
  %fBufCur25 = getelementptr inbounds %"class.xercesc_2_7::XSerializeEngine", %"class.xercesc_2_7::XSerializeEngine"* %this1, i32 0, i32 10, !dbg !3127
  %35 = load i8*, i8** %fBufCur25, align 8, !dbg !3128
  %idx.ext26 = zext i32 %34 to i64, !dbg !3128
  %add.ptr27 = getelementptr inbounds i8, i8* %35, i64 %idx.ext26, !dbg !3128
  store i8* %add.ptr27, i8** %fBufCur25, align 8, !dbg !3128
  br label %if.end28, !dbg !3129

if.end28:                                         ; preds = %if.then, %if.then3, %if.then22, %while.end
  ret void, !dbg !3130
}

; Function Attrs: noinline uwtable
define linkonce_odr dso_local void @_ZNK11xercesc_2_716XSerializeEngine16ensureLoadBufferEv(%"class.xercesc_2_7::XSerializeEngine"* %this) #5 comdat align 2 personality i8* bitcast (i32 (...)* @__gxx_personality_v0 to i8*) !dbg !3131 {
entry:
  %this.addr = alloca %"class.xercesc_2_7::XSerializeEngine"*, align 8
  %value1 = alloca [17 x i16], align 16
  %value2 = alloca [17 x i16], align 16
  %exn.slot = alloca i8*
  %ehselector.slot = alloca i32
  store %"class.xercesc_2_7::XSerializeEngine"* %this, %"class.xercesc_2_7::XSerializeEngine"** %this.addr, align 8
  call void @llvm.dbg.declare(metadata %"class.xercesc_2_7::XSerializeEngine"** %this.addr, metadata !3132, metadata !DIExpression()), !dbg !3133
  %this1 = load %"class.xercesc_2_7::XSerializeEngine"*, %"class.xercesc_2_7::XSerializeEngine"** %this.addr, align 8
  %fBufStart = getelementptr inbounds %"class.xercesc_2_7::XSerializeEngine", %"class.xercesc_2_7::XSerializeEngine"* %this1, i32 0, i32 8, !dbg !3134
  %0 = load i8*, i8** %fBufStart, align 8, !dbg !3134
  %fBufCur = getelementptr inbounds %"class.xercesc_2_7::XSerializeEngine", %"class.xercesc_2_7::XSerializeEngine"* %this1, i32 0, i32 10, !dbg !3134
  %1 = load i8*, i8** %fBufCur, align 8, !dbg !3134
  %cmp = icmp ule i8* %0, %1, !dbg !3134
  br i1 %cmp, label %land.lhs.true, label %if.then, !dbg !3134

land.lhs.true:                                    ; preds = %entry
  %fBufCur2 = getelementptr inbounds %"class.xercesc_2_7::XSerializeEngine", %"class.xercesc_2_7::XSerializeEngine"* %this1, i32 0, i32 10, !dbg !3134
  %2 = load i8*, i8** %fBufCur2, align 8, !dbg !3134
  %fBufLoadMax = getelementptr inbounds %"class.xercesc_2_7::XSerializeEngine", %"class.xercesc_2_7::XSerializeEngine"* %this1, i32 0, i32 11, !dbg !3134
  %3 = load i8*, i8** %fBufLoadMax, align 8, !dbg !3134
  %cmp3 = icmp ule i8* %2, %3, !dbg !3134
  br i1 %cmp3, label %if.end, label %if.then, !dbg !3136

if.then:                                          ; preds = %land.lhs.true, %entry
  call void @llvm.dbg.declare(metadata [17 x i16]* %value1, metadata !3137, metadata !DIExpression()), !dbg !3139
  call void @llvm.dbg.declare(metadata [17 x i16]* %value2, metadata !3140, metadata !DIExpression()), !dbg !3139
  %fBufCur4 = getelementptr inbounds %"class.xercesc_2_7::XSerializeEngine", %"class.xercesc_2_7::XSerializeEngine"* %this1, i32 0, i32 10, !dbg !3139
  %4 = load i8*, i8** %fBufCur4, align 8, !dbg !3139
  %fBufStart5 = getelementptr inbounds %"class.xercesc_2_7::XSerializeEngine", %"class.xercesc_2_7::XSerializeEngine"* %this1, i32 0, i32 8, !dbg !3139
  %5 = load i8*, i8** %fBufStart5, align 8, !dbg !3139
  %sub.ptr.lhs.cast = ptrtoint i8* %4 to i64, !dbg !3139
  %sub.ptr.rhs.cast = ptrtoint i8* %5 to i64, !dbg !3139
  %sub.ptr.sub = sub i64 %sub.ptr.lhs.cast, %sub.ptr.rhs.cast, !dbg !3139
  %conv = trunc i64 %sub.ptr.sub to i32, !dbg !3139
  %arraydecay = getelementptr inbounds [17 x i16], [17 x i16]* %value1, i64 0, i64 0, !dbg !3139
  %call = call %"class.xercesc_2_7::MemoryManager"* @_ZNK11xercesc_2_716XSerializeEngine16getMemoryManagerEv(%"class.xercesc_2_7::XSerializeEngine"* %this1), !dbg !3139
  call void @_ZN11xercesc_2_79XMLString9binToTextEiPtjjPNS_13MemoryManagerE(i32 %conv, i16* %arraydecay, i32 16, i32 10, %"class.xercesc_2_7::MemoryManager"* %call), !dbg !3139
  %fBufLoadMax6 = getelementptr inbounds %"class.xercesc_2_7::XSerializeEngine", %"class.xercesc_2_7::XSerializeEngine"* %this1, i32 0, i32 11, !dbg !3139
  %6 = load i8*, i8** %fBufLoadMax6, align 8, !dbg !3139
  %fBufCur7 = getelementptr inbounds %"class.xercesc_2_7::XSerializeEngine", %"class.xercesc_2_7::XSerializeEngine"* %this1, i32 0, i32 10, !dbg !3139
  %7 = load i8*, i8** %fBufCur7, align 8, !dbg !3139
  %sub.ptr.lhs.cast8 = ptrtoint i8* %6 to i64, !dbg !3139
  %sub.ptr.rhs.cast9 = ptrtoint i8* %7 to i64, !dbg !3139
  %sub.ptr.sub10 = sub i64 %sub.ptr.lhs.cast8, %sub.ptr.rhs.cast9, !dbg !3139
  %conv11 = trunc i64 %sub.ptr.sub10 to i32, !dbg !3139
  %arraydecay12 = getelementptr inbounds [17 x i16], [17 x i16]* %value2, i64 0, i64 0, !dbg !3139
  %call13 = call %"class.xercesc_2_7::MemoryManager"* @_ZNK11xercesc_2_716XSerializeEngine16getMemoryManagerEv(%"class.xercesc_2_7::XSerializeEngine"* %this1), !dbg !3139
  call void @_ZN11xercesc_2_79XMLString9binToTextEiPtjjPNS_13MemoryManagerE(i32 %conv11, i16* %arraydecay12, i32 16, i32 10, %"class.xercesc_2_7::MemoryManager"* %call13), !dbg !3139
  %exception = call i8* @__cxa_allocate_exception(i64 48) #9, !dbg !3139
  %8 = bitcast i8* %exception to %"class.xercesc_2_7::XSerializationException"*, !dbg !3139
  %arraydecay14 = getelementptr inbounds [17 x i16], [17 x i16]* %value1, i64 0, i64 0, !dbg !3139
  %arraydecay15 = getelementptr inbounds [17 x i16], [17 x i16]* %value2, i64 0, i64 0, !dbg !3139
  %call16 = invoke %"class.xercesc_2_7::MemoryManager"* @_ZNK11xercesc_2_716XSerializeEngine16getMemoryManagerEv(%"class.xercesc_2_7::XSerializeEngine"* %this1)
          to label %invoke.cont unwind label %lpad, !dbg !3139

invoke.cont:                                      ; preds = %if.then
  invoke void @_ZN11xercesc_2_723XSerializationExceptionC2EPKcjNS_10XMLExcepts5CodesEPKtS6_S6_S6_PNS_13MemoryManagerE(%"class.xercesc_2_7::XSerializationException"* %8, i8* getelementptr inbounds ([21 x i8], [21 x i8]* @.str, i64 0, i64 0), i32 996, i32 387, i16* %arraydecay14, i16* %arraydecay15, i16* null, i16* null, %"class.xercesc_2_7::MemoryManager"* %call16)
          to label %invoke.cont17 unwind label %lpad, !dbg !3139

invoke.cont17:                                    ; preds = %invoke.cont
  call void @__cxa_throw(i8* %exception, i8* bitcast ({ i8*, i8*, i8* }* @_ZTIN11xercesc_2_723XSerializationExceptionE to i8*), i8* bitcast (void (%"class.xercesc_2_7::XSerializationException"*)* @_ZN11xercesc_2_723XSerializationExceptionD2Ev to i8*)) #12, !dbg !3139
  unreachable, !dbg !3139

lpad:                                             ; preds = %invoke.cont, %if.then
  %9 = landingpad { i8*, i32 }
          cleanup, !dbg !3141
  %10 = extractvalue { i8*, i32 } %9, 0, !dbg !3141
  store i8* %10, i8** %exn.slot, align 8, !dbg !3141
  %11 = extractvalue { i8*, i32 } %9, 1, !dbg !3141
  store i32 %11, i32* %ehselector.slot, align 4, !dbg !3141
  call void @__cxa_free_exception(i8* %exception) #9, !dbg !3139
  br label %eh.resume, !dbg !3139

if.end:                                           ; preds = %land.lhs.true
  ret void, !dbg !3142

eh.resume:                                        ; preds = %lpad
  %exn = load i8*, i8** %exn.slot, align 8, !dbg !3139
  %sel = load i32, i32* %ehselector.slot, align 4, !dbg !3139
  %lpad.val = insertvalue { i8*, i32 } undef, i8* %exn, 0, !dbg !3139
  %lpad.val18 = insertvalue { i8*, i32 } %lpad.val, i32 %sel, 1, !dbg !3139
  resume { i8*, i32 } %lpad.val18, !dbg !3139
}

; Function Attrs: noinline uwtable
define dso_local void @_ZN11xercesc_2_716XSerializeEngine10readStringERPtRiS3_b(%"class.xercesc_2_7::XSerializeEngine"* %this, i16** dereferenceable(8) %toRead, i32* dereferenceable(4) %bufferLen, i32* dereferenceable(4) %dataLen, i1 zeroext %toReadBufLen) #5 align 2 !dbg !3143 {
entry:
  %this.addr = alloca %"class.xercesc_2_7::XSerializeEngine"*, align 8
  %toRead.addr = alloca i16**, align 8
  %bufferLen.addr = alloca i32*, align 8
  %dataLen.addr = alloca i32*, align 8
  %toReadBufLen.addr = alloca i8, align 1
  store %"class.xercesc_2_7::XSerializeEngine"* %this, %"class.xercesc_2_7::XSerializeEngine"** %this.addr, align 8
  call void @llvm.dbg.declare(metadata %"class.xercesc_2_7::XSerializeEngine"** %this.addr, metadata !3144, metadata !DIExpression()), !dbg !3145
  store i16** %toRead, i16*** %toRead.addr, align 8
  call void @llvm.dbg.declare(metadata i16*** %toRead.addr, metadata !3146, metadata !DIExpression()), !dbg !3147
  store i32* %bufferLen, i32** %bufferLen.addr, align 8
  call void @llvm.dbg.declare(metadata i32** %bufferLen.addr, metadata !3148, metadata !DIExpression()), !dbg !3149
  store i32* %dataLen, i32** %dataLen.addr, align 8
  call void @llvm.dbg.declare(metadata i32** %dataLen.addr, metadata !3150, metadata !DIExpression()), !dbg !3151
  %frombool = zext i1 %toReadBufLen to i8
  store i8 %frombool, i8* %toReadBufLen.addr, align 1
  call void @llvm.dbg.declare(metadata i8* %toReadBufLen.addr, metadata !3152, metadata !DIExpression()), !dbg !3153
  %this1 = load %"class.xercesc_2_7::XSerializeEngine"*, %"class.xercesc_2_7::XSerializeEngine"** %this.addr, align 8
  %0 = load i32*, i32** %bufferLen.addr, align 8, !dbg !3154
  %call = call dereferenceable(104) %"class.xercesc_2_7::XSerializeEngine"* @_ZN11xercesc_2_716XSerializeEnginersERi(%"class.xercesc_2_7::XSerializeEngine"* %this1, i32* dereferenceable(4) %0), !dbg !3155
  %1 = load i32*, i32** %bufferLen.addr, align 8, !dbg !3156
  %2 = load i32, i32* %1, align 4, !dbg !3156
  %cmp = icmp eq i32 %2, -1, !dbg !3158
  br i1 %cmp, label %if.then, label %if.end, !dbg !3159

if.then:                                          ; preds = %entry
  %3 = load i16**, i16*** %toRead.addr, align 8, !dbg !3160
  store i16* null, i16** %3, align 8, !dbg !3162
  %4 = load i32*, i32** %bufferLen.addr, align 8, !dbg !3163
  store i32 0, i32* %4, align 4, !dbg !3164
  %5 = load i32*, i32** %dataLen.addr, align 8, !dbg !3165
  store i32 0, i32* %5, align 4, !dbg !3166
  br label %return, !dbg !3167

if.end:                                           ; preds = %entry
  %6 = load i8, i8* %toReadBufLen.addr, align 1, !dbg !3168
  %tobool = trunc i8 %6 to i1, !dbg !3168
  br i1 %tobool, label %if.then2, label %if.else, !dbg !3170

if.then2:                                         ; preds = %if.end
  %7 = load i32*, i32** %dataLen.addr, align 8, !dbg !3171
  %call3 = call dereferenceable(104) %"class.xercesc_2_7::XSerializeEngine"* @_ZN11xercesc_2_716XSerializeEnginersERi(%"class.xercesc_2_7::XSerializeEngine"* %this1, i32* dereferenceable(4) %7), !dbg !3173
  br label %if.end4, !dbg !3174

if.else:                                          ; preds = %if.end
  %8 = load i32*, i32** %bufferLen.addr, align 8, !dbg !3175
  %9 = load i32, i32* %8, align 4, !dbg !3177
  %inc = add nsw i32 %9, 1, !dbg !3177
  store i32 %inc, i32* %8, align 4, !dbg !3177
  %10 = load i32*, i32** %dataLen.addr, align 8, !dbg !3178
  store i32 %9, i32* %10, align 4, !dbg !3179
  br label %if.end4

if.end4:                                          ; preds = %if.else, %if.then2
  %call5 = call %"class.xercesc_2_7::MemoryManager"* @_ZNK11xercesc_2_716XSerializeEngine16getMemoryManagerEv(%"class.xercesc_2_7::XSerializeEngine"* %this1), !dbg !3180
  %11 = load i32*, i32** %bufferLen.addr, align 8, !dbg !3181
  %12 = load i32, i32* %11, align 4, !dbg !3181
  %conv = sext i32 %12 to i64, !dbg !3181
  %mul = mul i64 %conv, 2, !dbg !3182
  %13 = bitcast %"class.xercesc_2_7::MemoryManager"* %call5 to i8* (%"class.xercesc_2_7::MemoryManager"*, i64)***, !dbg !3183
  %vtable = load i8* (%"class.xercesc_2_7::MemoryManager"*, i64)**, i8* (%"class.xercesc_2_7::MemoryManager"*, i64)*** %13, align 8, !dbg !3183
  %vfn = getelementptr inbounds i8* (%"class.xercesc_2_7::MemoryManager"*, i64)*, i8* (%"class.xercesc_2_7::MemoryManager"*, i64)** %vtable, i64 2, !dbg !3183
  %14 = load i8* (%"class.xercesc_2_7::MemoryManager"*, i64)*, i8* (%"class.xercesc_2_7::MemoryManager"*, i64)** %vfn, align 8, !dbg !3183
  %call6 = call i8* %14(%"class.xercesc_2_7::MemoryManager"* %call5, i64 %mul), !dbg !3183
  %15 = bitcast i8* %call6 to i16*, !dbg !3184
  %16 = load i16**, i16*** %toRead.addr, align 8, !dbg !3185
  store i16* %15, i16** %16, align 8, !dbg !3186
  %17 = load i16**, i16*** %toRead.addr, align 8, !dbg !3187
  %18 = load i16*, i16** %17, align 8, !dbg !3187
  %19 = load i32*, i32** %dataLen.addr, align 8, !dbg !3188
  %20 = load i32, i32* %19, align 4, !dbg !3188
  call void @_ZN11xercesc_2_716XSerializeEngine4readEPti(%"class.xercesc_2_7::XSerializeEngine"* %this1, i16* %18, i32 %20), !dbg !3189
  %21 = load i16**, i16*** %toRead.addr, align 8, !dbg !3190
  %22 = load i16*, i16** %21, align 8, !dbg !3190
  %23 = load i32*, i32** %dataLen.addr, align 8, !dbg !3191
  %24 = load i32, i32* %23, align 4, !dbg !3191
  %idxprom = sext i32 %24 to i64, !dbg !3190
  %arrayidx = getelementptr inbounds i16, i16* %22, i64 %idxprom, !dbg !3190
  store i16 0, i16* %arrayidx, align 2, !dbg !3192
  br label %return, !dbg !3193

return:                                           ; preds = %if.end4, %if.then
  ret void, !dbg !3193
}

; Function Attrs: noinline uwtable
define dso_local dereferenceable(104) %"class.xercesc_2_7::XSerializeEngine"* @_ZN11xercesc_2_716XSerializeEnginersERi(%"class.xercesc_2_7::XSerializeEngine"* %this, i32* dereferenceable(4) %i) #5 align 2 !dbg !3194 {
entry:
  %this.addr = alloca %"class.xercesc_2_7::XSerializeEngine"*, align 8
  %i.addr = alloca i32*, align 8
  store %"class.xercesc_2_7::XSerializeEngine"* %this, %"class.xercesc_2_7::XSerializeEngine"** %this.addr, align 8
  call void @llvm.dbg.declare(metadata %"class.xercesc_2_7::XSerializeEngine"** %this.addr, metadata !3195, metadata !DIExpression()), !dbg !3196
  store i32* %i, i32** %i.addr, align 8
  call void @llvm.dbg.declare(metadata i32** %i.addr, metadata !3197, metadata !DIExpression()), !dbg !3198
  %this1 = load %"class.xercesc_2_7::XSerializeEngine"*, %"class.xercesc_2_7::XSerializeEngine"** %this.addr, align 8
  %call = call i64 @_ZNK11xercesc_2_716XSerializeEngine14calBytesNeededEm(%"class.xercesc_2_7::XSerializeEngine"* %this1, i64 4), !dbg !3199
  %conv = trunc i64 %call to i32, !dbg !3199
  call void @_ZN11xercesc_2_716XSerializeEngine18checkAndFillBufferEi(%"class.xercesc_2_7::XSerializeEngine"* %this1, i32 %conv), !dbg !3200
  call void @_ZN11xercesc_2_716XSerializeEngine11alignBufCurEm(%"class.xercesc_2_7::XSerializeEngine"* %this1, i64 4), !dbg !3201
  %fBufCur = getelementptr inbounds %"class.xercesc_2_7::XSerializeEngine", %"class.xercesc_2_7::XSerializeEngine"* %this1, i32 0, i32 10, !dbg !3202
  %0 = load i8*, i8** %fBufCur, align 8, !dbg !3202
  %1 = bitcast i8* %0 to i32*, !dbg !3203
  %2 = load i32, i32* %1, align 4, !dbg !3203
  %3 = load i32*, i32** %i.addr, align 8, !dbg !3204
  store i32 %2, i32* %3, align 4, !dbg !3205
  %fBufCur2 = getelementptr inbounds %"class.xercesc_2_7::XSerializeEngine", %"class.xercesc_2_7::XSerializeEngine"* %this1, i32 0, i32 10, !dbg !3206
  %4 = load i8*, i8** %fBufCur2, align 8, !dbg !3207
  %add.ptr = getelementptr inbounds i8, i8* %4, i64 4, !dbg !3207
  store i8* %add.ptr, i8** %fBufCur2, align 8, !dbg !3207
  ret %"class.xercesc_2_7::XSerializeEngine"* %this1, !dbg !3208
}

; Function Attrs: noinline uwtable
define dso_local void @_ZN11xercesc_2_716XSerializeEngine10readStringERPhRiS3_b(%"class.xercesc_2_7::XSerializeEngine"* %this, i8** dereferenceable(8) %toRead, i32* dereferenceable(4) %bufferLen, i32* dereferenceable(4) %dataLen, i1 zeroext %toReadBufLen) #5 align 2 !dbg !3209 {
entry:
  %this.addr = alloca %"class.xercesc_2_7::XSerializeEngine"*, align 8
  %toRead.addr = alloca i8**, align 8
  %bufferLen.addr = alloca i32*, align 8
  %dataLen.addr = alloca i32*, align 8
  %toReadBufLen.addr = alloca i8, align 1
  store %"class.xercesc_2_7::XSerializeEngine"* %this, %"class.xercesc_2_7::XSerializeEngine"** %this.addr, align 8
  call void @llvm.dbg.declare(metadata %"class.xercesc_2_7::XSerializeEngine"** %this.addr, metadata !3210, metadata !DIExpression()), !dbg !3211
  store i8** %toRead, i8*** %toRead.addr, align 8
  call void @llvm.dbg.declare(metadata i8*** %toRead.addr, metadata !3212, metadata !DIExpression()), !dbg !3213
  store i32* %bufferLen, i32** %bufferLen.addr, align 8
  call void @llvm.dbg.declare(metadata i32** %bufferLen.addr, metadata !3214, metadata !DIExpression()), !dbg !3215
  store i32* %dataLen, i32** %dataLen.addr, align 8
  call void @llvm.dbg.declare(metadata i32** %dataLen.addr, metadata !3216, metadata !DIExpression()), !dbg !3217
  %frombool = zext i1 %toReadBufLen to i8
  store i8 %frombool, i8* %toReadBufLen.addr, align 1
  call void @llvm.dbg.declare(metadata i8* %toReadBufLen.addr, metadata !3218, metadata !DIExpression()), !dbg !3219
  %this1 = load %"class.xercesc_2_7::XSerializeEngine"*, %"class.xercesc_2_7::XSerializeEngine"** %this.addr, align 8
  %0 = load i32*, i32** %bufferLen.addr, align 8, !dbg !3220
  %call = call dereferenceable(104) %"class.xercesc_2_7::XSerializeEngine"* @_ZN11xercesc_2_716XSerializeEnginersERi(%"class.xercesc_2_7::XSerializeEngine"* %this1, i32* dereferenceable(4) %0), !dbg !3221
  %1 = load i32*, i32** %bufferLen.addr, align 8, !dbg !3222
  %2 = load i32, i32* %1, align 4, !dbg !3222
  %cmp = icmp eq i32 %2, -1, !dbg !3224
  br i1 %cmp, label %if.then, label %if.end, !dbg !3225

if.then:                                          ; preds = %entry
  %3 = load i8**, i8*** %toRead.addr, align 8, !dbg !3226
  store i8* null, i8** %3, align 8, !dbg !3228
  %4 = load i32*, i32** %bufferLen.addr, align 8, !dbg !3229
  store i32 0, i32* %4, align 4, !dbg !3230
  %5 = load i32*, i32** %dataLen.addr, align 8, !dbg !3231
  store i32 0, i32* %5, align 4, !dbg !3232
  br label %return, !dbg !3233

if.end:                                           ; preds = %entry
  %6 = load i8, i8* %toReadBufLen.addr, align 1, !dbg !3234
  %tobool = trunc i8 %6 to i1, !dbg !3234
  br i1 %tobool, label %if.then2, label %if.else, !dbg !3236

if.then2:                                         ; preds = %if.end
  %7 = load i32*, i32** %dataLen.addr, align 8, !dbg !3237
  %call3 = call dereferenceable(104) %"class.xercesc_2_7::XSerializeEngine"* @_ZN11xercesc_2_716XSerializeEnginersERi(%"class.xercesc_2_7::XSerializeEngine"* %this1, i32* dereferenceable(4) %7), !dbg !3239
  br label %if.end4, !dbg !3240

if.else:                                          ; preds = %if.end
  %8 = load i32*, i32** %bufferLen.addr, align 8, !dbg !3241
  %9 = load i32, i32* %8, align 4, !dbg !3243
